GAS LISTING /tmp/ccabgRKQ.s 			page 1


   1              		.file	"cJSON.c"
   2              		.text
   3              	.Ltext0:
   4              		.section	.bss.global_error,"aw",@nobits
   5              		.align 16
   8              	global_error:
   9 0000 00000000 		.zero	16
   9      00000000 
   9      00000000 
   9      00000000 
  10              		.section	.text.cJSON_GetErrorPtr,"ax",@progbits
  11              		.globl	cJSON_GetErrorPtr
  13              	cJSON_GetErrorPtr:
  14              	.LFB6:
  15              		.file 1 "/home/xingli/share/1205tiny/cJSON/cJSON.c"
   1:/home/xingli/share/1205tiny/cJSON/cJSON.c **** /*
   2:/home/xingli/share/1205tiny/cJSON/cJSON.c ****   Copyright (c) 2009-2017 Dave Gamble and cJSON contributors
   3:/home/xingli/share/1205tiny/cJSON/cJSON.c **** 
   4:/home/xingli/share/1205tiny/cJSON/cJSON.c ****   Permission is hereby granted, free of charge, to any person obtaining a copy
   5:/home/xingli/share/1205tiny/cJSON/cJSON.c ****   of this software and associated documentation files (the "Software"), to deal
   6:/home/xingli/share/1205tiny/cJSON/cJSON.c ****   in the Software without restriction, including without limitation the rights
   7:/home/xingli/share/1205tiny/cJSON/cJSON.c ****   to use, copy, modify, merge, publish, distribute, sublicense, and/or sell
   8:/home/xingli/share/1205tiny/cJSON/cJSON.c ****   copies of the Software, and to permit persons to whom the Software is
   9:/home/xingli/share/1205tiny/cJSON/cJSON.c ****   furnished to do so, subject to the following conditions:
  10:/home/xingli/share/1205tiny/cJSON/cJSON.c **** 
  11:/home/xingli/share/1205tiny/cJSON/cJSON.c ****   The above copyright notice and this permission notice shall be included in
  12:/home/xingli/share/1205tiny/cJSON/cJSON.c ****   all copies or substantial portions of the Software.
  13:/home/xingli/share/1205tiny/cJSON/cJSON.c **** 
  14:/home/xingli/share/1205tiny/cJSON/cJSON.c ****   THE SOFTWARE IS PROVIDED "AS IS", WITHOUT WARRANTY OF ANY KIND, EXPRESS OR
  15:/home/xingli/share/1205tiny/cJSON/cJSON.c ****   IMPLIED, INCLUDING BUT NOT LIMITED TO THE WARRANTIES OF MERCHANTABILITY,
  16:/home/xingli/share/1205tiny/cJSON/cJSON.c ****   FITNESS FOR A PARTICULAR PURPOSE AND NONINFRINGEMENT. IN NO EVENT SHALL THE
  17:/home/xingli/share/1205tiny/cJSON/cJSON.c ****   AUTHORS OR COPYRIGHT HOLDERS BE LIABLE FOR ANY CLAIM, DAMAGES OR OTHER
  18:/home/xingli/share/1205tiny/cJSON/cJSON.c ****   LIABILITY, WHETHER IN AN ACTION OF CONTRACT, TORT OR OTHERWISE, ARISING FROM,
  19:/home/xingli/share/1205tiny/cJSON/cJSON.c ****   OUT OF OR IN CONNECTION WITH THE SOFTWARE OR THE USE OR OTHER DEALINGS IN
  20:/home/xingli/share/1205tiny/cJSON/cJSON.c ****   THE SOFTWARE.
  21:/home/xingli/share/1205tiny/cJSON/cJSON.c **** */
  22:/home/xingli/share/1205tiny/cJSON/cJSON.c **** 
  23:/home/xingli/share/1205tiny/cJSON/cJSON.c **** /* cJSON */
  24:/home/xingli/share/1205tiny/cJSON/cJSON.c **** /* JSON parser in C. */
  25:/home/xingli/share/1205tiny/cJSON/cJSON.c **** 
  26:/home/xingli/share/1205tiny/cJSON/cJSON.c **** /* disable warnings about old C89 functions in MSVC */
  27:/home/xingli/share/1205tiny/cJSON/cJSON.c **** #if !defined(_CRT_SECURE_NO_DEPRECATE) && defined(_MSC_VER)
  28:/home/xingli/share/1205tiny/cJSON/cJSON.c **** #define _CRT_SECURE_NO_DEPRECATE
  29:/home/xingli/share/1205tiny/cJSON/cJSON.c **** #endif
  30:/home/xingli/share/1205tiny/cJSON/cJSON.c **** 
  31:/home/xingli/share/1205tiny/cJSON/cJSON.c **** #ifdef __GNUC__
  32:/home/xingli/share/1205tiny/cJSON/cJSON.c **** #pragma GCC visibility push(default)
  33:/home/xingli/share/1205tiny/cJSON/cJSON.c **** #endif
  34:/home/xingli/share/1205tiny/cJSON/cJSON.c **** #if defined(_MSC_VER)
  35:/home/xingli/share/1205tiny/cJSON/cJSON.c **** #pragma warning (push)
  36:/home/xingli/share/1205tiny/cJSON/cJSON.c **** /* disable warning about single line comments in system headers */
  37:/home/xingli/share/1205tiny/cJSON/cJSON.c **** #pragma warning (disable : 4001)
  38:/home/xingli/share/1205tiny/cJSON/cJSON.c **** #endif
  39:/home/xingli/share/1205tiny/cJSON/cJSON.c **** 
  40:/home/xingli/share/1205tiny/cJSON/cJSON.c **** #include <string.h>
  41:/home/xingli/share/1205tiny/cJSON/cJSON.c **** #include <stdio.h>
  42:/home/xingli/share/1205tiny/cJSON/cJSON.c **** #include <math.h>
GAS LISTING /tmp/ccabgRKQ.s 			page 2


  43:/home/xingli/share/1205tiny/cJSON/cJSON.c **** #include <stdlib.h>
  44:/home/xingli/share/1205tiny/cJSON/cJSON.c **** #include <limits.h>
  45:/home/xingli/share/1205tiny/cJSON/cJSON.c **** #include <ctype.h>
  46:/home/xingli/share/1205tiny/cJSON/cJSON.c **** 
  47:/home/xingli/share/1205tiny/cJSON/cJSON.c **** #ifdef ENABLE_LOCALES
  48:/home/xingli/share/1205tiny/cJSON/cJSON.c **** #include <locale.h>
  49:/home/xingli/share/1205tiny/cJSON/cJSON.c **** #endif
  50:/home/xingli/share/1205tiny/cJSON/cJSON.c **** 
  51:/home/xingli/share/1205tiny/cJSON/cJSON.c **** #if defined(_MSC_VER)
  52:/home/xingli/share/1205tiny/cJSON/cJSON.c **** #pragma warning (pop)
  53:/home/xingli/share/1205tiny/cJSON/cJSON.c **** #endif
  54:/home/xingli/share/1205tiny/cJSON/cJSON.c **** #ifdef __GNUC__
  55:/home/xingli/share/1205tiny/cJSON/cJSON.c **** #pragma GCC visibility pop
  56:/home/xingli/share/1205tiny/cJSON/cJSON.c **** #endif
  57:/home/xingli/share/1205tiny/cJSON/cJSON.c **** 
  58:/home/xingli/share/1205tiny/cJSON/cJSON.c **** #include "cJSON.h"
  59:/home/xingli/share/1205tiny/cJSON/cJSON.c **** 
  60:/home/xingli/share/1205tiny/cJSON/cJSON.c **** /* define our own boolean type */
  61:/home/xingli/share/1205tiny/cJSON/cJSON.c **** #define true ((cJSON_bool)1)
  62:/home/xingli/share/1205tiny/cJSON/cJSON.c **** #define false ((cJSON_bool)0)
  63:/home/xingli/share/1205tiny/cJSON/cJSON.c **** 
  64:/home/xingli/share/1205tiny/cJSON/cJSON.c **** typedef struct {
  65:/home/xingli/share/1205tiny/cJSON/cJSON.c ****     const unsigned char *json;
  66:/home/xingli/share/1205tiny/cJSON/cJSON.c ****     size_t position;
  67:/home/xingli/share/1205tiny/cJSON/cJSON.c **** } error;
  68:/home/xingli/share/1205tiny/cJSON/cJSON.c **** static error global_error = { NULL, 0 };
  69:/home/xingli/share/1205tiny/cJSON/cJSON.c **** 
  70:/home/xingli/share/1205tiny/cJSON/cJSON.c **** CJSON_PUBLIC(const char *) cJSON_GetErrorPtr(void)
  71:/home/xingli/share/1205tiny/cJSON/cJSON.c **** {
  16              		.loc 1 71 1
  17              		.cfi_startproc
  18 0000 F30F1EFA 		endbr64
  19 0004 55       		pushq	%rbp
  20              	.LCFI0:
  21              		.cfi_def_cfa_offset 16
  22              		.cfi_offset 6, -16
  23 0005 4889E5   		movq	%rsp, %rbp
  24              	.LCFI1:
  25              		.cfi_def_cfa_register 6
  26 0008 4883EC10 		subq	$16, %rsp
  27              		.loc 1 71 1
  28 000c 64488B04 		movq	%fs:40, %rax
  28      25280000 
  28      00
  29 0015 488945F8 		movq	%rax, -8(%rbp)
  30 0019 31C0     		xorl	%eax, %eax
  72:/home/xingli/share/1205tiny/cJSON/cJSON.c ****     return (const char*) (global_error.json + global_error.position);
  31              		.loc 1 72 39
  32 001b 488B1500 		movq	global_error(%rip), %rdx
  32      000000
  33              		.loc 1 72 59
  34 0022 488B0500 		movq	8+global_error(%rip), %rax
  34      000000
  35              		.loc 1 72 12
  36 0029 4801D0   		addq	%rdx, %rax
  73:/home/xingli/share/1205tiny/cJSON/cJSON.c **** }
  37              		.loc 1 73 1
GAS LISTING /tmp/ccabgRKQ.s 			page 3


  38 002c 488B4DF8 		movq	-8(%rbp), %rcx
  39 0030 6448330C 		xorq	%fs:40, %rcx
  39      25280000 
  39      00
  40 0039 7405     		je	.L3
  41 003b E8000000 		call	__stack_chk_fail@PLT
  41      00
  42              	.L3:
  43 0040 C9       		leave
  44              	.LCFI2:
  45              		.cfi_def_cfa 7, 8
  46 0041 C3       		ret
  47              		.cfi_endproc
  48              	.LFE6:
  50              		.section	.text.cJSON_GetStringValue,"ax",@progbits
  51              		.globl	cJSON_GetStringValue
  53              	cJSON_GetStringValue:
  54              	.LFB7:
  74:/home/xingli/share/1205tiny/cJSON/cJSON.c **** 
  75:/home/xingli/share/1205tiny/cJSON/cJSON.c **** CJSON_PUBLIC(char *) cJSON_GetStringValue(cJSON *item) {
  55              		.loc 1 75 56
  56              		.cfi_startproc
  57 0000 F30F1EFA 		endbr64
  58 0004 55       		pushq	%rbp
  59              	.LCFI3:
  60              		.cfi_def_cfa_offset 16
  61              		.cfi_offset 6, -16
  62 0005 4889E5   		movq	%rsp, %rbp
  63              	.LCFI4:
  64              		.cfi_def_cfa_register 6
  65 0008 4883EC20 		subq	$32, %rsp
  66 000c 48897DE8 		movq	%rdi, -24(%rbp)
  67              		.loc 1 75 56
  68 0010 64488B04 		movq	%fs:40, %rax
  68      25280000 
  68      00
  69 0019 488945F8 		movq	%rax, -8(%rbp)
  70 001d 31C0     		xorl	%eax, %eax
  76:/home/xingli/share/1205tiny/cJSON/cJSON.c ****     if (!cJSON_IsString(item)) {
  71              		.loc 1 76 10
  72 001f 488B45E8 		movq	-24(%rbp), %rax
  73 0023 4889C7   		movq	%rax, %rdi
  74 0026 E8000000 		call	cJSON_IsString
  74      00
  75              		.loc 1 76 8
  76 002b 85C0     		testl	%eax, %eax
  77 002d 7507     		jne	.L5
  77:/home/xingli/share/1205tiny/cJSON/cJSON.c ****         return NULL;
  78              		.loc 1 77 16
  79 002f B8000000 		movl	$0, %eax
  79      00
  80 0034 EB08     		jmp	.L6
  81              	.L5:
  78:/home/xingli/share/1205tiny/cJSON/cJSON.c ****     }
  79:/home/xingli/share/1205tiny/cJSON/cJSON.c **** 
  80:/home/xingli/share/1205tiny/cJSON/cJSON.c ****     return item->valuestring;
  82              		.loc 1 80 16
GAS LISTING /tmp/ccabgRKQ.s 			page 4


  83 0036 488B45E8 		movq	-24(%rbp), %rax
  84 003a 488B4020 		movq	32(%rax), %rax
  85              	.L6:
  81:/home/xingli/share/1205tiny/cJSON/cJSON.c **** }
  86              		.loc 1 81 1
  87 003e 488B55F8 		movq	-8(%rbp), %rdx
  88 0042 64483314 		xorq	%fs:40, %rdx
  88      25280000 
  88      00
  89 004b 7405     		je	.L7
  90 004d E8000000 		call	__stack_chk_fail@PLT
  90      00
  91              	.L7:
  92 0052 C9       		leave
  93              	.LCFI5:
  94              		.cfi_def_cfa 7, 8
  95 0053 C3       		ret
  96              		.cfi_endproc
  97              	.LFE7:
  99              		.section	.rodata
 100              	.LC0:
 101 0000 25692E25 		.string	"%i.%i.%i"
 101      692E2569 
 101      00
 102              		.section	.text.cJSON_Version,"ax",@progbits
 103              		.globl	cJSON_Version
 105              	cJSON_Version:
 106              	.LFB8:
  82:/home/xingli/share/1205tiny/cJSON/cJSON.c **** 
  83:/home/xingli/share/1205tiny/cJSON/cJSON.c **** /* This is a safeguard to prevent copy-pasters from using incompatible C and header files */
  84:/home/xingli/share/1205tiny/cJSON/cJSON.c **** #if (CJSON_VERSION_MAJOR != 1) || (CJSON_VERSION_MINOR != 7) || (CJSON_VERSION_PATCH != 8)
  85:/home/xingli/share/1205tiny/cJSON/cJSON.c ****     #error cJSON.h and cJSON.c have different versions. Make sure that both have the same.
  86:/home/xingli/share/1205tiny/cJSON/cJSON.c **** #endif
  87:/home/xingli/share/1205tiny/cJSON/cJSON.c **** 
  88:/home/xingli/share/1205tiny/cJSON/cJSON.c **** CJSON_PUBLIC(const char*) cJSON_Version(void)
  89:/home/xingli/share/1205tiny/cJSON/cJSON.c **** {
 107              		.loc 1 89 1
 108              		.cfi_startproc
 109 0000 F30F1EFA 		endbr64
 110 0004 55       		pushq	%rbp
 111              	.LCFI6:
 112              		.cfi_def_cfa_offset 16
 113              		.cfi_offset 6, -16
 114 0005 4889E5   		movq	%rsp, %rbp
 115              	.LCFI7:
 116              		.cfi_def_cfa_register 6
 117 0008 4883EC10 		subq	$16, %rsp
 118              		.loc 1 89 1
 119 000c 64488B04 		movq	%fs:40, %rax
 119      25280000 
 119      00
 120 0015 488945F8 		movq	%rax, -8(%rbp)
 121 0019 31C0     		xorl	%eax, %eax
  90:/home/xingli/share/1205tiny/cJSON/cJSON.c ****     static char version[15];
  91:/home/xingli/share/1205tiny/cJSON/cJSON.c ****     sprintf(version, "%i.%i.%i", CJSON_VERSION_MAJOR, CJSON_VERSION_MINOR, CJSON_VERSION_PATCH);
 122              		.loc 1 91 5
 123 001b 41B80800 		movl	$8, %r8d
GAS LISTING /tmp/ccabgRKQ.s 			page 5


 123      0000
 124 0021 B9070000 		movl	$7, %ecx
 124      00
 125 0026 BA010000 		movl	$1, %edx
 125      00
 126 002b 488D3500 		leaq	.LC0(%rip), %rsi
 126      000000
 127 0032 488D3D00 		leaq	version.4407(%rip), %rdi
 127      000000
 128 0039 B8000000 		movl	$0, %eax
 128      00
 129 003e E8000000 		call	sprintf@PLT
 129      00
  92:/home/xingli/share/1205tiny/cJSON/cJSON.c **** 
  93:/home/xingli/share/1205tiny/cJSON/cJSON.c ****     return version;
 130              		.loc 1 93 12
 131 0043 488D0500 		leaq	version.4407(%rip), %rax
 131      000000
  94:/home/xingli/share/1205tiny/cJSON/cJSON.c **** }
 132              		.loc 1 94 1
 133 004a 488B55F8 		movq	-8(%rbp), %rdx
 134 004e 64483314 		xorq	%fs:40, %rdx
 134      25280000 
 134      00
 135 0057 7405     		je	.L10
 136 0059 E8000000 		call	__stack_chk_fail@PLT
 136      00
 137              	.L10:
 138 005e C9       		leave
 139              	.LCFI8:
 140              		.cfi_def_cfa 7, 8
 141 005f C3       		ret
 142              		.cfi_endproc
 143              	.LFE8:
 145              		.section	.text.case_insensitive_strcmp,"ax",@progbits
 147              	case_insensitive_strcmp:
 148              	.LFB9:
  95:/home/xingli/share/1205tiny/cJSON/cJSON.c **** 
  96:/home/xingli/share/1205tiny/cJSON/cJSON.c **** /* Case insensitive string comparison, doesn't consider two NULL pointers equal though */
  97:/home/xingli/share/1205tiny/cJSON/cJSON.c **** static int case_insensitive_strcmp(const unsigned char *string1, const unsigned char *string2)
  98:/home/xingli/share/1205tiny/cJSON/cJSON.c **** {
 149              		.loc 1 98 1
 150              		.cfi_startproc
 151 0000 F30F1EFA 		endbr64
 152 0004 55       		pushq	%rbp
 153              	.LCFI9:
 154              		.cfi_def_cfa_offset 16
 155              		.cfi_offset 6, -16
 156 0005 4889E5   		movq	%rsp, %rbp
 157              	.LCFI10:
 158              		.cfi_def_cfa_register 6
 159 0008 53       		pushq	%rbx
 160 0009 4883EC28 		subq	$40, %rsp
 161              		.cfi_offset 3, -24
 162 000d 48897DD8 		movq	%rdi, -40(%rbp)
 163 0011 488975D0 		movq	%rsi, -48(%rbp)
 164              		.loc 1 98 1
GAS LISTING /tmp/ccabgRKQ.s 			page 6


 165 0015 64488B04 		movq	%fs:40, %rax
 165      25280000 
 165      00
 166 001e 488945E8 		movq	%rax, -24(%rbp)
 167 0022 31C0     		xorl	%eax, %eax
  99:/home/xingli/share/1205tiny/cJSON/cJSON.c ****     if ((string1 == NULL) || (string2 == NULL))
 168              		.loc 1 99 8
 169 0024 48837DD8 		cmpq	$0, -40(%rbp)
 169      00
 170 0029 7407     		je	.L12
 171              		.loc 1 99 27 discriminator 1
 172 002b 48837DD0 		cmpq	$0, -48(%rbp)
 172      00
 173 0030 7507     		jne	.L13
 174              	.L12:
 100:/home/xingli/share/1205tiny/cJSON/cJSON.c ****     {
 101:/home/xingli/share/1205tiny/cJSON/cJSON.c ****         return 1;
 175              		.loc 1 101 16
 176 0032 B8010000 		movl	$1, %eax
 176      00
 177 0037 EB7D     		jmp	.L14
 178              	.L13:
 102:/home/xingli/share/1205tiny/cJSON/cJSON.c ****     }
 103:/home/xingli/share/1205tiny/cJSON/cJSON.c **** 
 104:/home/xingli/share/1205tiny/cJSON/cJSON.c ****     if (string1 == string2)
 179              		.loc 1 104 8
 180 0039 488B45D8 		movq	-40(%rbp), %rax
 181 003d 483B45D0 		cmpq	-48(%rbp), %rax
 182 0041 7523     		jne	.L16
 105:/home/xingli/share/1205tiny/cJSON/cJSON.c ****     {
 106:/home/xingli/share/1205tiny/cJSON/cJSON.c ****         return 0;
 183              		.loc 1 106 16
 184 0043 B8000000 		movl	$0, %eax
 184      00
 185 0048 EB6C     		jmp	.L14
 186              	.L18:
 107:/home/xingli/share/1205tiny/cJSON/cJSON.c ****     }
 108:/home/xingli/share/1205tiny/cJSON/cJSON.c **** 
 109:/home/xingli/share/1205tiny/cJSON/cJSON.c ****     for(; tolower(*string1) == tolower(*string2); (void)string1++, string2++)
 110:/home/xingli/share/1205tiny/cJSON/cJSON.c ****     {
 111:/home/xingli/share/1205tiny/cJSON/cJSON.c ****         if (*string1 == '\0')
 187              		.loc 1 111 13
 188 004a 488B45D8 		movq	-40(%rbp), %rax
 189 004e 0FB600   		movzbl	(%rax), %eax
 190              		.loc 1 111 12
 191 0051 84C0     		testb	%al, %al
 192 0053 7507     		jne	.L17
 112:/home/xingli/share/1205tiny/cJSON/cJSON.c ****         {
 113:/home/xingli/share/1205tiny/cJSON/cJSON.c ****             return 0;
 193              		.loc 1 113 20
 194 0055 B8000000 		movl	$0, %eax
 194      00
 195 005a EB5A     		jmp	.L14
 196              	.L17:
 109:/home/xingli/share/1205tiny/cJSON/cJSON.c ****     {
 197              		.loc 1 109 51
 198 005c 488345D8 		addq	$1, -40(%rbp)
GAS LISTING /tmp/ccabgRKQ.s 			page 7


 198      01
 109:/home/xingli/share/1205tiny/cJSON/cJSON.c ****     {
 199              		.loc 1 109 75
 200 0061 488345D0 		addq	$1, -48(%rbp)
 200      01
 201              	.L16:
 109:/home/xingli/share/1205tiny/cJSON/cJSON.c ****     {
 202              		.loc 1 109 19 discriminator 1
 203 0066 488B45D8 		movq	-40(%rbp), %rax
 204 006a 0FB600   		movzbl	(%rax), %eax
 109:/home/xingli/share/1205tiny/cJSON/cJSON.c ****     {
 205              		.loc 1 109 11 discriminator 1
 206 006d 0FB6C0   		movzbl	%al, %eax
 207 0070 89C7     		movl	%eax, %edi
 208 0072 E8000000 		call	tolower@PLT
 208      00
 209 0077 89C3     		movl	%eax, %ebx
 109:/home/xingli/share/1205tiny/cJSON/cJSON.c ****     {
 210              		.loc 1 109 40 discriminator 1
 211 0079 488B45D0 		movq	-48(%rbp), %rax
 212 007d 0FB600   		movzbl	(%rax), %eax
 109:/home/xingli/share/1205tiny/cJSON/cJSON.c ****     {
 213              		.loc 1 109 32 discriminator 1
 214 0080 0FB6C0   		movzbl	%al, %eax
 215 0083 89C7     		movl	%eax, %edi
 216 0085 E8000000 		call	tolower@PLT
 216      00
 109:/home/xingli/share/1205tiny/cJSON/cJSON.c ****     {
 217              		.loc 1 109 5 discriminator 1
 218 008a 39C3     		cmpl	%eax, %ebx
 219 008c 74BC     		je	.L18
 114:/home/xingli/share/1205tiny/cJSON/cJSON.c ****         }
 115:/home/xingli/share/1205tiny/cJSON/cJSON.c ****     }
 116:/home/xingli/share/1205tiny/cJSON/cJSON.c **** 
 117:/home/xingli/share/1205tiny/cJSON/cJSON.c ****     return tolower(*string1) - tolower(*string2);
 220              		.loc 1 117 20
 221 008e 488B45D8 		movq	-40(%rbp), %rax
 222 0092 0FB600   		movzbl	(%rax), %eax
 223              		.loc 1 117 12
 224 0095 0FB6C0   		movzbl	%al, %eax
 225 0098 89C7     		movl	%eax, %edi
 226 009a E8000000 		call	tolower@PLT
 226      00
 227 009f 89C3     		movl	%eax, %ebx
 228              		.loc 1 117 40
 229 00a1 488B45D0 		movq	-48(%rbp), %rax
 230 00a5 0FB600   		movzbl	(%rax), %eax
 231              		.loc 1 117 32
 232 00a8 0FB6C0   		movzbl	%al, %eax
 233 00ab 89C7     		movl	%eax, %edi
 234 00ad E8000000 		call	tolower@PLT
 234      00
 235              		.loc 1 117 30
 236 00b2 29C3     		subl	%eax, %ebx
 237 00b4 89D8     		movl	%ebx, %eax
 238              	.L14:
 118:/home/xingli/share/1205tiny/cJSON/cJSON.c **** }
GAS LISTING /tmp/ccabgRKQ.s 			page 8


 239              		.loc 1 118 1
 240 00b6 488B55E8 		movq	-24(%rbp), %rdx
 241 00ba 64483314 		xorq	%fs:40, %rdx
 241      25280000 
 241      00
 242 00c3 7405     		je	.L19
 243 00c5 E8000000 		call	__stack_chk_fail@PLT
 243      00
 244              	.L19:
 245 00ca 4883C428 		addq	$40, %rsp
 246 00ce 5B       		popq	%rbx
 247 00cf 5D       		popq	%rbp
 248              	.LCFI11:
 249              		.cfi_def_cfa 7, 8
 250 00d0 C3       		ret
 251              		.cfi_endproc
 252              	.LFE9:
 254              		.section	.data.rel.global_hooks,"aw"
 255              		.align 16
 258              	global_hooks:
 259 0000 00000000 		.quad	malloc
 259      00000000 
 260 0008 00000000 		.quad	free
 260      00000000 
 261 0010 00000000 		.quad	realloc
 261      00000000 
 262              		.section	.text.cJSON_strdup,"ax",@progbits
 264              	cJSON_strdup:
 265              	.LFB10:
 119:/home/xingli/share/1205tiny/cJSON/cJSON.c **** 
 120:/home/xingli/share/1205tiny/cJSON/cJSON.c **** typedef struct internal_hooks
 121:/home/xingli/share/1205tiny/cJSON/cJSON.c **** {
 122:/home/xingli/share/1205tiny/cJSON/cJSON.c ****     void *(CJSON_CDECL *allocate)(size_t size);
 123:/home/xingli/share/1205tiny/cJSON/cJSON.c ****     void (CJSON_CDECL *deallocate)(void *pointer);
 124:/home/xingli/share/1205tiny/cJSON/cJSON.c ****     void *(CJSON_CDECL *reallocate)(void *pointer, size_t size);
 125:/home/xingli/share/1205tiny/cJSON/cJSON.c **** } internal_hooks;
 126:/home/xingli/share/1205tiny/cJSON/cJSON.c **** 
 127:/home/xingli/share/1205tiny/cJSON/cJSON.c **** #if defined(_MSC_VER)
 128:/home/xingli/share/1205tiny/cJSON/cJSON.c **** /* work around MSVC error C2322: '...' address of dillimport '...' is not static */
 129:/home/xingli/share/1205tiny/cJSON/cJSON.c **** static void * CJSON_CDECL internal_malloc(size_t size)
 130:/home/xingli/share/1205tiny/cJSON/cJSON.c **** {
 131:/home/xingli/share/1205tiny/cJSON/cJSON.c ****     return malloc(size);
 132:/home/xingli/share/1205tiny/cJSON/cJSON.c **** }
 133:/home/xingli/share/1205tiny/cJSON/cJSON.c **** static void CJSON_CDECL internal_free(void *pointer)
 134:/home/xingli/share/1205tiny/cJSON/cJSON.c **** {
 135:/home/xingli/share/1205tiny/cJSON/cJSON.c ****     free(pointer);
 136:/home/xingli/share/1205tiny/cJSON/cJSON.c **** }
 137:/home/xingli/share/1205tiny/cJSON/cJSON.c **** static void * CJSON_CDECL internal_realloc(void *pointer, size_t size)
 138:/home/xingli/share/1205tiny/cJSON/cJSON.c **** {
 139:/home/xingli/share/1205tiny/cJSON/cJSON.c ****     return realloc(pointer, size);
 140:/home/xingli/share/1205tiny/cJSON/cJSON.c **** }
 141:/home/xingli/share/1205tiny/cJSON/cJSON.c **** #else
 142:/home/xingli/share/1205tiny/cJSON/cJSON.c **** #define internal_malloc malloc
 143:/home/xingli/share/1205tiny/cJSON/cJSON.c **** #define internal_free free
 144:/home/xingli/share/1205tiny/cJSON/cJSON.c **** #define internal_realloc realloc
 145:/home/xingli/share/1205tiny/cJSON/cJSON.c **** #endif
 146:/home/xingli/share/1205tiny/cJSON/cJSON.c **** 
GAS LISTING /tmp/ccabgRKQ.s 			page 9


 147:/home/xingli/share/1205tiny/cJSON/cJSON.c **** static internal_hooks global_hooks = { internal_malloc, internal_free, internal_realloc };
 148:/home/xingli/share/1205tiny/cJSON/cJSON.c **** 
 149:/home/xingli/share/1205tiny/cJSON/cJSON.c **** static unsigned char* cJSON_strdup(const unsigned char* string, const internal_hooks * const hooks)
 150:/home/xingli/share/1205tiny/cJSON/cJSON.c **** {
 266              		.loc 1 150 1
 267              		.cfi_startproc
 268 0000 F30F1EFA 		endbr64
 269 0004 55       		pushq	%rbp
 270              	.LCFI12:
 271              		.cfi_def_cfa_offset 16
 272              		.cfi_offset 6, -16
 273 0005 4889E5   		movq	%rsp, %rbp
 274              	.LCFI13:
 275              		.cfi_def_cfa_register 6
 276 0008 4883EC30 		subq	$48, %rsp
 277 000c 48897DD8 		movq	%rdi, -40(%rbp)
 278 0010 488975D0 		movq	%rsi, -48(%rbp)
 279              		.loc 1 150 1
 280 0014 64488B04 		movq	%fs:40, %rax
 280      25280000 
 280      00
 281 001d 488945F8 		movq	%rax, -8(%rbp)
 282 0021 31C0     		xorl	%eax, %eax
 151:/home/xingli/share/1205tiny/cJSON/cJSON.c ****     size_t length = 0;
 283              		.loc 1 151 12
 284 0023 48C745E8 		movq	$0, -24(%rbp)
 284      00000000 
 152:/home/xingli/share/1205tiny/cJSON/cJSON.c ****     unsigned char *copy = NULL;
 285              		.loc 1 152 20
 286 002b 48C745F0 		movq	$0, -16(%rbp)
 286      00000000 
 153:/home/xingli/share/1205tiny/cJSON/cJSON.c **** 
 154:/home/xingli/share/1205tiny/cJSON/cJSON.c ****     if (string == NULL)
 287              		.loc 1 154 8
 288 0033 48837DD8 		cmpq	$0, -40(%rbp)
 288      00
 289 0038 7507     		jne	.L21
 155:/home/xingli/share/1205tiny/cJSON/cJSON.c ****     {
 156:/home/xingli/share/1205tiny/cJSON/cJSON.c ****         return NULL;
 290              		.loc 1 156 16
 291 003a B8000000 		movl	$0, %eax
 291      00
 292 003f EB51     		jmp	.L22
 293              	.L21:
 157:/home/xingli/share/1205tiny/cJSON/cJSON.c ****     }
 158:/home/xingli/share/1205tiny/cJSON/cJSON.c **** 
 159:/home/xingli/share/1205tiny/cJSON/cJSON.c ****     length = strlen((const char*)string) + sizeof("");
 294              		.loc 1 159 14
 295 0041 488B45D8 		movq	-40(%rbp), %rax
 296 0045 4889C7   		movq	%rax, %rdi
 297 0048 E8000000 		call	strlen@PLT
 297      00
 298              		.loc 1 159 12
 299 004d 4883C001 		addq	$1, %rax
 300 0051 488945E8 		movq	%rax, -24(%rbp)
 160:/home/xingli/share/1205tiny/cJSON/cJSON.c ****     copy = (unsigned char*)hooks->allocate(length);
 301              		.loc 1 160 33
GAS LISTING /tmp/ccabgRKQ.s 			page 10


 302 0055 488B45D0 		movq	-48(%rbp), %rax
 303 0059 488B10   		movq	(%rax), %rdx
 304              		.loc 1 160 28
 305 005c 488B45E8 		movq	-24(%rbp), %rax
 306 0060 4889C7   		movq	%rax, %rdi
 307 0063 FFD2     		call	*%rdx
 308              	.LVL0:
 309 0065 488945F0 		movq	%rax, -16(%rbp)
 161:/home/xingli/share/1205tiny/cJSON/cJSON.c ****     if (copy == NULL)
 310              		.loc 1 161 8
 311 0069 48837DF0 		cmpq	$0, -16(%rbp)
 311      00
 312 006e 7507     		jne	.L23
 162:/home/xingli/share/1205tiny/cJSON/cJSON.c ****     {
 163:/home/xingli/share/1205tiny/cJSON/cJSON.c ****         return NULL;
 313              		.loc 1 163 16
 314 0070 B8000000 		movl	$0, %eax
 314      00
 315 0075 EB1B     		jmp	.L22
 316              	.L23:
 164:/home/xingli/share/1205tiny/cJSON/cJSON.c ****     }
 165:/home/xingli/share/1205tiny/cJSON/cJSON.c ****     (void) memcpy(copy, string, length);
 317              		.loc 1 165 12
 318 0077 488B55E8 		movq	-24(%rbp), %rdx
 319 007b 488B4DD8 		movq	-40(%rbp), %rcx
 320 007f 488B45F0 		movq	-16(%rbp), %rax
 321 0083 4889CE   		movq	%rcx, %rsi
 322 0086 4889C7   		movq	%rax, %rdi
 323 0089 E8000000 		call	memcpy@PLT
 323      00
 166:/home/xingli/share/1205tiny/cJSON/cJSON.c **** 
 167:/home/xingli/share/1205tiny/cJSON/cJSON.c ****     return copy;
 324              		.loc 1 167 12
 325 008e 488B45F0 		movq	-16(%rbp), %rax
 326              	.L22:
 168:/home/xingli/share/1205tiny/cJSON/cJSON.c **** }
 327              		.loc 1 168 1
 328 0092 488B4DF8 		movq	-8(%rbp), %rcx
 329 0096 6448330C 		xorq	%fs:40, %rcx
 329      25280000 
 329      00
 330 009f 7405     		je	.L24
 331 00a1 E8000000 		call	__stack_chk_fail@PLT
 331      00
 332              	.L24:
 333 00a6 C9       		leave
 334              	.LCFI14:
 335              		.cfi_def_cfa 7, 8
 336 00a7 C3       		ret
 337              		.cfi_endproc
 338              	.LFE10:
 340              		.section	.text.cJSON_InitHooks,"ax",@progbits
 341              		.globl	cJSON_InitHooks
 343              	cJSON_InitHooks:
 344              	.LFB11:
 169:/home/xingli/share/1205tiny/cJSON/cJSON.c **** 
 170:/home/xingli/share/1205tiny/cJSON/cJSON.c **** CJSON_PUBLIC(void) cJSON_InitHooks(cJSON_Hooks* hooks)
GAS LISTING /tmp/ccabgRKQ.s 			page 11


 171:/home/xingli/share/1205tiny/cJSON/cJSON.c **** {
 345              		.loc 1 171 1
 346              		.cfi_startproc
 347 0000 F30F1EFA 		endbr64
 348 0004 55       		pushq	%rbp
 349              	.LCFI15:
 350              		.cfi_def_cfa_offset 16
 351              		.cfi_offset 6, -16
 352 0005 4889E5   		movq	%rsp, %rbp
 353              	.LCFI16:
 354              		.cfi_def_cfa_register 6
 355 0008 4883EC20 		subq	$32, %rsp
 356 000c 48897DE8 		movq	%rdi, -24(%rbp)
 357              		.loc 1 171 1
 358 0010 64488B04 		movq	%fs:40, %rax
 358      25280000 
 358      00
 359 0019 488945F8 		movq	%rax, -8(%rbp)
 360 001d 31C0     		xorl	%eax, %eax
 172:/home/xingli/share/1205tiny/cJSON/cJSON.c ****     if (hooks == NULL)
 361              		.loc 1 172 8
 362 001f 48837DE8 		cmpq	$0, -24(%rbp)
 362      00
 363 0024 752F     		jne	.L26
 173:/home/xingli/share/1205tiny/cJSON/cJSON.c ****     {
 174:/home/xingli/share/1205tiny/cJSON/cJSON.c ****         /* Reset hooks */
 175:/home/xingli/share/1205tiny/cJSON/cJSON.c ****         global_hooks.allocate = malloc;
 364              		.loc 1 175 31
 365 0026 488B0500 		movq	malloc@GOTPCREL(%rip), %rax
 365      000000
 366 002d 48890500 		movq	%rax, global_hooks(%rip)
 366      000000
 176:/home/xingli/share/1205tiny/cJSON/cJSON.c ****         global_hooks.deallocate = free;
 367              		.loc 1 176 33
 368 0034 488B0500 		movq	free@GOTPCREL(%rip), %rax
 368      000000
 369 003b 48890500 		movq	%rax, 8+global_hooks(%rip)
 369      000000
 177:/home/xingli/share/1205tiny/cJSON/cJSON.c ****         global_hooks.reallocate = realloc;
 370              		.loc 1 177 33
 371 0042 488B0500 		movq	realloc@GOTPCREL(%rip), %rax
 371      000000
 372 0049 48890500 		movq	%rax, 16+global_hooks(%rip)
 372      000000
 178:/home/xingli/share/1205tiny/cJSON/cJSON.c ****         return;
 373              		.loc 1 178 9
 374 0050 E9910000 		jmp	.L25
 374      00
 375              	.L26:
 179:/home/xingli/share/1205tiny/cJSON/cJSON.c ****     }
 180:/home/xingli/share/1205tiny/cJSON/cJSON.c **** 
 181:/home/xingli/share/1205tiny/cJSON/cJSON.c ****     global_hooks.allocate = malloc;
 376              		.loc 1 181 27
 377 0055 488B0500 		movq	malloc@GOTPCREL(%rip), %rax
 377      000000
 378 005c 48890500 		movq	%rax, global_hooks(%rip)
 378      000000
GAS LISTING /tmp/ccabgRKQ.s 			page 12


 182:/home/xingli/share/1205tiny/cJSON/cJSON.c ****     if (hooks->malloc_fn != NULL)
 379              		.loc 1 182 14
 380 0063 488B45E8 		movq	-24(%rbp), %rax
 381 0067 488B00   		movq	(%rax), %rax
 382              		.loc 1 182 8
 383 006a 4885C0   		testq	%rax, %rax
 384 006d 740E     		je	.L28
 183:/home/xingli/share/1205tiny/cJSON/cJSON.c ****     {
 184:/home/xingli/share/1205tiny/cJSON/cJSON.c ****         global_hooks.allocate = hooks->malloc_fn;
 385              		.loc 1 184 38
 386 006f 488B45E8 		movq	-24(%rbp), %rax
 387 0073 488B00   		movq	(%rax), %rax
 388              		.loc 1 184 31
 389 0076 48890500 		movq	%rax, global_hooks(%rip)
 389      000000
 390              	.L28:
 185:/home/xingli/share/1205tiny/cJSON/cJSON.c ****     }
 186:/home/xingli/share/1205tiny/cJSON/cJSON.c **** 
 187:/home/xingli/share/1205tiny/cJSON/cJSON.c ****     global_hooks.deallocate = free;
 391              		.loc 1 187 29
 392 007d 488B0500 		movq	free@GOTPCREL(%rip), %rax
 392      000000
 393 0084 48890500 		movq	%rax, 8+global_hooks(%rip)
 393      000000
 188:/home/xingli/share/1205tiny/cJSON/cJSON.c ****     if (hooks->free_fn != NULL)
 394              		.loc 1 188 14
 395 008b 488B45E8 		movq	-24(%rbp), %rax
 396 008f 488B4008 		movq	8(%rax), %rax
 397              		.loc 1 188 8
 398 0093 4885C0   		testq	%rax, %rax
 399 0096 740F     		je	.L29
 189:/home/xingli/share/1205tiny/cJSON/cJSON.c ****     {
 190:/home/xingli/share/1205tiny/cJSON/cJSON.c ****         global_hooks.deallocate = hooks->free_fn;
 400              		.loc 1 190 40
 401 0098 488B45E8 		movq	-24(%rbp), %rax
 402 009c 488B4008 		movq	8(%rax), %rax
 403              		.loc 1 190 33
 404 00a0 48890500 		movq	%rax, 8+global_hooks(%rip)
 404      000000
 405              	.L29:
 191:/home/xingli/share/1205tiny/cJSON/cJSON.c ****     }
 192:/home/xingli/share/1205tiny/cJSON/cJSON.c **** 
 193:/home/xingli/share/1205tiny/cJSON/cJSON.c ****     /* use realloc only if both free and malloc are used */
 194:/home/xingli/share/1205tiny/cJSON/cJSON.c ****     global_hooks.reallocate = NULL;
 406              		.loc 1 194 29
 407 00a7 48C70500 		movq	$0, 16+global_hooks(%rip)
 407      00000000 
 407      000000
 195:/home/xingli/share/1205tiny/cJSON/cJSON.c ****     if ((global_hooks.allocate == malloc) && (global_hooks.deallocate == free))
 408              		.loc 1 195 22
 409 00b2 488B0500 		movq	global_hooks(%rip), %rax
 409      000000
 410              		.loc 1 195 8
 411 00b9 488B1500 		movq	malloc@GOTPCREL(%rip), %rdx
 411      000000
 412 00c0 4839D0   		cmpq	%rdx, %rax
 413 00c3 7521     		jne	.L25
GAS LISTING /tmp/ccabgRKQ.s 			page 13


 414              		.loc 1 195 59 discriminator 1
 415 00c5 488B0500 		movq	8+global_hooks(%rip), %rax
 415      000000
 416              		.loc 1 195 43 discriminator 1
 417 00cc 488B1500 		movq	free@GOTPCREL(%rip), %rdx
 417      000000
 418 00d3 4839D0   		cmpq	%rdx, %rax
 419 00d6 750E     		jne	.L25
 196:/home/xingli/share/1205tiny/cJSON/cJSON.c ****     {
 197:/home/xingli/share/1205tiny/cJSON/cJSON.c ****         global_hooks.reallocate = realloc;
 420              		.loc 1 197 33
 421 00d8 488B0500 		movq	realloc@GOTPCREL(%rip), %rax
 421      000000
 422 00df 48890500 		movq	%rax, 16+global_hooks(%rip)
 422      000000
 423              	.L25:
 198:/home/xingli/share/1205tiny/cJSON/cJSON.c ****     }
 199:/home/xingli/share/1205tiny/cJSON/cJSON.c **** }
 424              		.loc 1 199 1
 425 00e6 488B45F8 		movq	-8(%rbp), %rax
 426 00ea 64483304 		xorq	%fs:40, %rax
 426      25280000 
 426      00
 427 00f3 7405     		je	.L30
 428 00f5 E8000000 		call	__stack_chk_fail@PLT
 428      00
 429              	.L30:
 430 00fa C9       		leave
 431              	.LCFI17:
 432              		.cfi_def_cfa 7, 8
 433 00fb C3       		ret
 434              		.cfi_endproc
 435              	.LFE11:
 437              		.section	.text.cJSON_New_Item,"ax",@progbits
 439              	cJSON_New_Item:
 440              	.LFB12:
 200:/home/xingli/share/1205tiny/cJSON/cJSON.c **** 
 201:/home/xingli/share/1205tiny/cJSON/cJSON.c **** /* Internal constructor. */
 202:/home/xingli/share/1205tiny/cJSON/cJSON.c **** static cJSON *cJSON_New_Item(const internal_hooks * const hooks)
 203:/home/xingli/share/1205tiny/cJSON/cJSON.c **** {
 441              		.loc 1 203 1
 442              		.cfi_startproc
 443 0000 F30F1EFA 		endbr64
 444 0004 55       		pushq	%rbp
 445              	.LCFI18:
 446              		.cfi_def_cfa_offset 16
 447              		.cfi_offset 6, -16
 448 0005 4889E5   		movq	%rsp, %rbp
 449              	.LCFI19:
 450              		.cfi_def_cfa_register 6
 451 0008 4883EC20 		subq	$32, %rsp
 452 000c 48897DE8 		movq	%rdi, -24(%rbp)
 453              		.loc 1 203 1
 454 0010 64488B04 		movq	%fs:40, %rax
 454      25280000 
 454      00
 455 0019 488945F8 		movq	%rax, -8(%rbp)
GAS LISTING /tmp/ccabgRKQ.s 			page 14


 456 001d 31C0     		xorl	%eax, %eax
 204:/home/xingli/share/1205tiny/cJSON/cJSON.c ****     cJSON* node = (cJSON*)hooks->allocate(sizeof(cJSON));
 457              		.loc 1 204 32
 458 001f 488B45E8 		movq	-24(%rbp), %rax
 459 0023 488B00   		movq	(%rax), %rax
 460              		.loc 1 204 27
 461 0026 BF400000 		movl	$64, %edi
 461      00
 462 002b FFD0     		call	*%rax
 463              	.LVL1:
 464 002d 488945F0 		movq	%rax, -16(%rbp)
 205:/home/xingli/share/1205tiny/cJSON/cJSON.c ****     if (node)
 465              		.loc 1 205 8
 466 0031 48837DF0 		cmpq	$0, -16(%rbp)
 466      00
 467 0036 7416     		je	.L32
 206:/home/xingli/share/1205tiny/cJSON/cJSON.c ****     {
 207:/home/xingli/share/1205tiny/cJSON/cJSON.c ****         memset(node, '\0', sizeof(cJSON));
 468              		.loc 1 207 9
 469 0038 488B45F0 		movq	-16(%rbp), %rax
 470 003c BA400000 		movl	$64, %edx
 470      00
 471 0041 BE000000 		movl	$0, %esi
 471      00
 472 0046 4889C7   		movq	%rax, %rdi
 473 0049 E8000000 		call	memset@PLT
 473      00
 474              	.L32:
 208:/home/xingli/share/1205tiny/cJSON/cJSON.c ****     }
 209:/home/xingli/share/1205tiny/cJSON/cJSON.c **** 
 210:/home/xingli/share/1205tiny/cJSON/cJSON.c ****     return node;
 475              		.loc 1 210 12
 476 004e 488B45F0 		movq	-16(%rbp), %rax
 211:/home/xingli/share/1205tiny/cJSON/cJSON.c **** }
 477              		.loc 1 211 1
 478 0052 488B4DF8 		movq	-8(%rbp), %rcx
 479 0056 6448330C 		xorq	%fs:40, %rcx
 479      25280000 
 479      00
 480 005f 7405     		je	.L34
 481 0061 E8000000 		call	__stack_chk_fail@PLT
 481      00
 482              	.L34:
 483 0066 C9       		leave
 484              	.LCFI20:
 485              		.cfi_def_cfa 7, 8
 486 0067 C3       		ret
 487              		.cfi_endproc
 488              	.LFE12:
 490              		.section	.text.cJSON_Delete,"ax",@progbits
 491              		.globl	cJSON_Delete
 493              	cJSON_Delete:
 494              	.LFB13:
 212:/home/xingli/share/1205tiny/cJSON/cJSON.c **** 
 213:/home/xingli/share/1205tiny/cJSON/cJSON.c **** /* Delete a cJSON structure. */
 214:/home/xingli/share/1205tiny/cJSON/cJSON.c **** CJSON_PUBLIC(void) cJSON_Delete(cJSON *item)
 215:/home/xingli/share/1205tiny/cJSON/cJSON.c **** {
GAS LISTING /tmp/ccabgRKQ.s 			page 15


 495              		.loc 1 215 1
 496              		.cfi_startproc
 497 0000 F30F1EFA 		endbr64
 498 0004 55       		pushq	%rbp
 499              	.LCFI21:
 500              		.cfi_def_cfa_offset 16
 501              		.cfi_offset 6, -16
 502 0005 4889E5   		movq	%rsp, %rbp
 503              	.LCFI22:
 504              		.cfi_def_cfa_register 6
 505 0008 4883EC20 		subq	$32, %rsp
 506 000c 48897DE8 		movq	%rdi, -24(%rbp)
 507              		.loc 1 215 1
 508 0010 64488B04 		movq	%fs:40, %rax
 508      25280000 
 508      00
 509 0019 488945F8 		movq	%rax, -8(%rbp)
 510 001d 31C0     		xorl	%eax, %eax
 216:/home/xingli/share/1205tiny/cJSON/cJSON.c ****     cJSON *next = NULL;
 511              		.loc 1 216 12
 512 001f 48C745F0 		movq	$0, -16(%rbp)
 512      00000000 
 217:/home/xingli/share/1205tiny/cJSON/cJSON.c ****     while (item != NULL)
 513              		.loc 1 217 11
 514 0027 E9B20000 		jmp	.L36
 514      00
 515              	.L40:
 218:/home/xingli/share/1205tiny/cJSON/cJSON.c ****     {
 219:/home/xingli/share/1205tiny/cJSON/cJSON.c ****         next = item->next;
 516              		.loc 1 219 14
 517 002c 488B45E8 		movq	-24(%rbp), %rax
 518 0030 488B00   		movq	(%rax), %rax
 519 0033 488945F0 		movq	%rax, -16(%rbp)
 220:/home/xingli/share/1205tiny/cJSON/cJSON.c ****         if (!(item->type & cJSON_IsReference) && (item->child != NULL))
 520              		.loc 1 220 19
 521 0037 488B45E8 		movq	-24(%rbp), %rax
 522 003b 8B4018   		movl	24(%rax), %eax
 523              		.loc 1 220 26
 524 003e 25000100 		andl	$256, %eax
 524      00
 525              		.loc 1 220 12
 526 0043 85C0     		testl	%eax, %eax
 527 0045 751D     		jne	.L37
 528              		.loc 1 220 55 discriminator 1
 529 0047 488B45E8 		movq	-24(%rbp), %rax
 530 004b 488B4010 		movq	16(%rax), %rax
 531              		.loc 1 220 47 discriminator 1
 532 004f 4885C0   		testq	%rax, %rax
 533 0052 7410     		je	.L37
 221:/home/xingli/share/1205tiny/cJSON/cJSON.c ****         {
 222:/home/xingli/share/1205tiny/cJSON/cJSON.c ****             cJSON_Delete(item->child);
 534              		.loc 1 222 30
 535 0054 488B45E8 		movq	-24(%rbp), %rax
 536 0058 488B4010 		movq	16(%rax), %rax
 537              		.loc 1 222 13
 538 005c 4889C7   		movq	%rax, %rdi
 539 005f E8000000 		call	cJSON_Delete
GAS LISTING /tmp/ccabgRKQ.s 			page 16


 539      00
 540              	.L37:
 223:/home/xingli/share/1205tiny/cJSON/cJSON.c ****         }
 224:/home/xingli/share/1205tiny/cJSON/cJSON.c ****         if (!(item->type & cJSON_IsReference) && (item->valuestring != NULL))
 541              		.loc 1 224 19
 542 0064 488B45E8 		movq	-24(%rbp), %rax
 543 0068 8B4018   		movl	24(%rax), %eax
 544              		.loc 1 224 26
 545 006b 25000100 		andl	$256, %eax
 545      00
 546              		.loc 1 224 12
 547 0070 85C0     		testl	%eax, %eax
 548 0072 7521     		jne	.L38
 549              		.loc 1 224 55 discriminator 1
 550 0074 488B45E8 		movq	-24(%rbp), %rax
 551 0078 488B4020 		movq	32(%rax), %rax
 552              		.loc 1 224 47 discriminator 1
 553 007c 4885C0   		testq	%rax, %rax
 554 007f 7414     		je	.L38
 225:/home/xingli/share/1205tiny/cJSON/cJSON.c ****         {
 226:/home/xingli/share/1205tiny/cJSON/cJSON.c ****             global_hooks.deallocate(item->valuestring);
 555              		.loc 1 226 25
 556 0081 488B1500 		movq	8+global_hooks(%rip), %rdx
 556      000000
 557              		.loc 1 226 41
 558 0088 488B45E8 		movq	-24(%rbp), %rax
 559 008c 488B4020 		movq	32(%rax), %rax
 560              		.loc 1 226 13
 561 0090 4889C7   		movq	%rax, %rdi
 562 0093 FFD2     		call	*%rdx
 563              	.LVL2:
 564              	.L38:
 227:/home/xingli/share/1205tiny/cJSON/cJSON.c ****         }
 228:/home/xingli/share/1205tiny/cJSON/cJSON.c ****         if (!(item->type & cJSON_StringIsConst) && (item->string != NULL))
 565              		.loc 1 228 19
 566 0095 488B45E8 		movq	-24(%rbp), %rax
 567 0099 8B4018   		movl	24(%rax), %eax
 568              		.loc 1 228 26
 569 009c 25000200 		andl	$512, %eax
 569      00
 570              		.loc 1 228 12
 571 00a1 85C0     		testl	%eax, %eax
 572 00a3 7521     		jne	.L39
 573              		.loc 1 228 57 discriminator 1
 574 00a5 488B45E8 		movq	-24(%rbp), %rax
 575 00a9 488B4038 		movq	56(%rax), %rax
 576              		.loc 1 228 49 discriminator 1
 577 00ad 4885C0   		testq	%rax, %rax
 578 00b0 7414     		je	.L39
 229:/home/xingli/share/1205tiny/cJSON/cJSON.c ****         {
 230:/home/xingli/share/1205tiny/cJSON/cJSON.c ****             global_hooks.deallocate(item->string);
 579              		.loc 1 230 25
 580 00b2 488B1500 		movq	8+global_hooks(%rip), %rdx
 580      000000
 581              		.loc 1 230 41
 582 00b9 488B45E8 		movq	-24(%rbp), %rax
 583 00bd 488B4038 		movq	56(%rax), %rax
GAS LISTING /tmp/ccabgRKQ.s 			page 17


 584              		.loc 1 230 13
 585 00c1 4889C7   		movq	%rax, %rdi
 586 00c4 FFD2     		call	*%rdx
 587              	.LVL3:
 588              	.L39:
 231:/home/xingli/share/1205tiny/cJSON/cJSON.c ****         }
 232:/home/xingli/share/1205tiny/cJSON/cJSON.c ****         global_hooks.deallocate(item);
 589              		.loc 1 232 21
 590 00c6 488B1500 		movq	8+global_hooks(%rip), %rdx
 590      000000
 591              		.loc 1 232 9
 592 00cd 488B45E8 		movq	-24(%rbp), %rax
 593 00d1 4889C7   		movq	%rax, %rdi
 594 00d4 FFD2     		call	*%rdx
 595              	.LVL4:
 233:/home/xingli/share/1205tiny/cJSON/cJSON.c ****         item = next;
 596              		.loc 1 233 14
 597 00d6 488B45F0 		movq	-16(%rbp), %rax
 598 00da 488945E8 		movq	%rax, -24(%rbp)
 599              	.L36:
 217:/home/xingli/share/1205tiny/cJSON/cJSON.c ****     {
 600              		.loc 1 217 11
 601 00de 48837DE8 		cmpq	$0, -24(%rbp)
 601      00
 602 00e3 0F8543FF 		jne	.L40
 602      FFFF
 234:/home/xingli/share/1205tiny/cJSON/cJSON.c ****     }
 235:/home/xingli/share/1205tiny/cJSON/cJSON.c **** }
 603              		.loc 1 235 1
 604 00e9 90       		nop
 605 00ea 488B45F8 		movq	-8(%rbp), %rax
 606 00ee 64483304 		xorq	%fs:40, %rax
 606      25280000 
 606      00
 607 00f7 7405     		je	.L41
 608 00f9 E8000000 		call	__stack_chk_fail@PLT
 608      00
 609              	.L41:
 610 00fe C9       		leave
 611              	.LCFI23:
 612              		.cfi_def_cfa 7, 8
 613 00ff C3       		ret
 614              		.cfi_endproc
 615              	.LFE13:
 617              		.section	.text.get_decimal_point,"ax",@progbits
 619              	get_decimal_point:
 620              	.LFB14:
 236:/home/xingli/share/1205tiny/cJSON/cJSON.c **** 
 237:/home/xingli/share/1205tiny/cJSON/cJSON.c **** /* get the decimal point character of the current locale */
 238:/home/xingli/share/1205tiny/cJSON/cJSON.c **** static unsigned char get_decimal_point(void)
 239:/home/xingli/share/1205tiny/cJSON/cJSON.c **** {
 621              		.loc 1 239 1
 622              		.cfi_startproc
 623 0000 F30F1EFA 		endbr64
 624 0004 55       		pushq	%rbp
 625              	.LCFI24:
 626              		.cfi_def_cfa_offset 16
GAS LISTING /tmp/ccabgRKQ.s 			page 18


 627              		.cfi_offset 6, -16
 628 0005 4889E5   		movq	%rsp, %rbp
 629              	.LCFI25:
 630              		.cfi_def_cfa_register 6
 631 0008 4883EC10 		subq	$16, %rsp
 632              		.loc 1 239 1
 633 000c 64488B04 		movq	%fs:40, %rax
 633      25280000 
 633      00
 634 0015 488945F8 		movq	%rax, -8(%rbp)
 635 0019 31C0     		xorl	%eax, %eax
 240:/home/xingli/share/1205tiny/cJSON/cJSON.c **** #ifdef ENABLE_LOCALES
 241:/home/xingli/share/1205tiny/cJSON/cJSON.c ****     struct lconv *lconv = localeconv();
 242:/home/xingli/share/1205tiny/cJSON/cJSON.c ****     return (unsigned char) lconv->decimal_point[0];
 243:/home/xingli/share/1205tiny/cJSON/cJSON.c **** #else
 244:/home/xingli/share/1205tiny/cJSON/cJSON.c ****     return '.';
 636              		.loc 1 244 12
 637 001b B82E0000 		movl	$46, %eax
 637      00
 245:/home/xingli/share/1205tiny/cJSON/cJSON.c **** #endif
 246:/home/xingli/share/1205tiny/cJSON/cJSON.c **** }
 638              		.loc 1 246 1
 639 0020 488B55F8 		movq	-8(%rbp), %rdx
 640 0024 64483314 		xorq	%fs:40, %rdx
 640      25280000 
 640      00
 641 002d 7405     		je	.L44
 642 002f E8000000 		call	__stack_chk_fail@PLT
 642      00
 643              	.L44:
 644 0034 C9       		leave
 645              	.LCFI26:
 646              		.cfi_def_cfa 7, 8
 647 0035 C3       		ret
 648              		.cfi_endproc
 649              	.LFE14:
 651              		.section	.text.parse_number,"ax",@progbits
 653              	parse_number:
 654              	.LFB15:
 247:/home/xingli/share/1205tiny/cJSON/cJSON.c **** 
 248:/home/xingli/share/1205tiny/cJSON/cJSON.c **** typedef struct
 249:/home/xingli/share/1205tiny/cJSON/cJSON.c **** {
 250:/home/xingli/share/1205tiny/cJSON/cJSON.c ****     const unsigned char *content;
 251:/home/xingli/share/1205tiny/cJSON/cJSON.c ****     size_t length;
 252:/home/xingli/share/1205tiny/cJSON/cJSON.c ****     size_t offset;
 253:/home/xingli/share/1205tiny/cJSON/cJSON.c ****     size_t depth; /* How deeply nested (in arrays/objects) is the input at the current offset. */
 254:/home/xingli/share/1205tiny/cJSON/cJSON.c ****     internal_hooks hooks;
 255:/home/xingli/share/1205tiny/cJSON/cJSON.c **** } parse_buffer;
 256:/home/xingli/share/1205tiny/cJSON/cJSON.c **** 
 257:/home/xingli/share/1205tiny/cJSON/cJSON.c **** /* check if the given size is left to read in a given parse buffer (starting with 1) */
 258:/home/xingli/share/1205tiny/cJSON/cJSON.c **** #define can_read(buffer, size) ((buffer != NULL) && (((buffer)->offset + size) <= (buffer)->length)
 259:/home/xingli/share/1205tiny/cJSON/cJSON.c **** /* check if the buffer can be accessed at the given index (starting with 0) */
 260:/home/xingli/share/1205tiny/cJSON/cJSON.c **** #define can_access_at_index(buffer, index) ((buffer != NULL) && (((buffer)->offset + index) < (buff
 261:/home/xingli/share/1205tiny/cJSON/cJSON.c **** #define cannot_access_at_index(buffer, index) (!can_access_at_index(buffer, index))
 262:/home/xingli/share/1205tiny/cJSON/cJSON.c **** /* get a pointer to the buffer at the position */
 263:/home/xingli/share/1205tiny/cJSON/cJSON.c **** #define buffer_at_offset(buffer) ((buffer)->content + (buffer)->offset)
 264:/home/xingli/share/1205tiny/cJSON/cJSON.c **** 
GAS LISTING /tmp/ccabgRKQ.s 			page 19


 265:/home/xingli/share/1205tiny/cJSON/cJSON.c **** /* Parse the input text to generate a number, and populate the result into item. */
 266:/home/xingli/share/1205tiny/cJSON/cJSON.c **** static cJSON_bool parse_number(cJSON * const item, parse_buffer * const input_buffer)
 267:/home/xingli/share/1205tiny/cJSON/cJSON.c **** {
 655              		.loc 1 267 1
 656              		.cfi_startproc
 657 0000 F30F1EFA 		endbr64
 658 0004 55       		pushq	%rbp
 659              	.LCFI27:
 660              		.cfi_def_cfa_offset 16
 661              		.cfi_offset 6, -16
 662 0005 4889E5   		movq	%rsp, %rbp
 663              	.LCFI28:
 664              		.cfi_def_cfa_register 6
 665 0008 4883C480 		addq	$-128, %rsp
 666 000c 48897D88 		movq	%rdi, -120(%rbp)
 667 0010 48897580 		movq	%rsi, -128(%rbp)
 668              		.loc 1 267 1
 669 0014 64488B04 		movq	%fs:40, %rax
 669      25280000 
 669      00
 670 001d 488945F8 		movq	%rax, -8(%rbp)
 671 0021 31C0     		xorl	%eax, %eax
 268:/home/xingli/share/1205tiny/cJSON/cJSON.c ****     double number = 0;
 672              		.loc 1 268 12
 673 0023 660FEFC0 		pxor	%xmm0, %xmm0
 674 0027 F20F1145 		movsd	%xmm0, -88(%rbp)
 674      A8
 269:/home/xingli/share/1205tiny/cJSON/cJSON.c ****     unsigned char *after_end = NULL;
 675              		.loc 1 269 20
 676 002c 48C74598 		movq	$0, -104(%rbp)
 676      00000000 
 270:/home/xingli/share/1205tiny/cJSON/cJSON.c ****     unsigned char number_c_string[64];
 271:/home/xingli/share/1205tiny/cJSON/cJSON.c ****     unsigned char decimal_point = get_decimal_point();
 677              		.loc 1 271 35
 678 0034 E8000000 		call	get_decimal_point
 678      00
 679 0039 884597   		movb	%al, -105(%rbp)
 272:/home/xingli/share/1205tiny/cJSON/cJSON.c ****     size_t i = 0;
 680              		.loc 1 272 12
 681 003c 48C745A0 		movq	$0, -96(%rbp)
 681      00000000 
 273:/home/xingli/share/1205tiny/cJSON/cJSON.c **** 
 274:/home/xingli/share/1205tiny/cJSON/cJSON.c ****     if ((input_buffer == NULL) || (input_buffer->content == NULL))
 682              		.loc 1 274 8
 683 0044 48837D80 		cmpq	$0, -128(%rbp)
 683      00
 684 0049 740C     		je	.L46
 685              		.loc 1 274 48 discriminator 1
 686 004b 488B4580 		movq	-128(%rbp), %rax
 687 004f 488B00   		movq	(%rax), %rax
 688              		.loc 1 274 32 discriminator 1
 689 0052 4885C0   		testq	%rax, %rax
 690 0055 750A     		jne	.L47
 691              	.L46:
 275:/home/xingli/share/1205tiny/cJSON/cJSON.c ****     {
 276:/home/xingli/share/1205tiny/cJSON/cJSON.c ****         return false;
 692              		.loc 1 276 16
GAS LISTING /tmp/ccabgRKQ.s 			page 20


 693 0057 B8000000 		movl	$0, %eax
 693      00
 694 005c E9AC0100 		jmp	.L64
 694      00
 695              	.L47:
 277:/home/xingli/share/1205tiny/cJSON/cJSON.c ****     }
 278:/home/xingli/share/1205tiny/cJSON/cJSON.c **** 
 279:/home/xingli/share/1205tiny/cJSON/cJSON.c ****     /* copy the number into a temporary buffer and replace '.' with the decimal point
 280:/home/xingli/share/1205tiny/cJSON/cJSON.c ****      * of the current locale (for strtod)
 281:/home/xingli/share/1205tiny/cJSON/cJSON.c ****      * This also takes care of '\0' not necessarily being available for marking the end of the inpu
 282:/home/xingli/share/1205tiny/cJSON/cJSON.c ****     for (i = 0; (i < (sizeof(number_c_string) - 1)) && can_access_at_index(input_buffer, i); i++)
 696              		.loc 1 282 12
 697 0061 48C745A0 		movq	$0, -96(%rbp)
 697      00000000 
 698              		.loc 1 282 5
 699 0069 E9A30000 		jmp	.L49
 699      00
 700              	.L57:
 283:/home/xingli/share/1205tiny/cJSON/cJSON.c ****     {
 284:/home/xingli/share/1205tiny/cJSON/cJSON.c ****         switch (buffer_at_offset(input_buffer)[i])
 701              		.loc 1 284 17
 702 006e 488B4580 		movq	-128(%rbp), %rax
 703 0072 488B10   		movq	(%rax), %rdx
 704 0075 488B4580 		movq	-128(%rbp), %rax
 705 0079 488B4810 		movq	16(%rax), %rcx
 706              		.loc 1 284 47
 707 007d 488B45A0 		movq	-96(%rbp), %rax
 708 0081 4801C8   		addq	%rcx, %rax
 709 0084 4801D0   		addq	%rdx, %rax
 710 0087 0FB600   		movzbl	(%rax), %eax
 711 008a 0FB6C0   		movzbl	%al, %eax
 712              		.loc 1 284 9
 713 008d 83F845   		cmpl	$69, %eax
 714 0090 7F38     		jg	.L50
 715 0092 83F82B   		cmpl	$43, %eax
 716 0095 0F8CA600 		jl	.L70
 716      0000
 717 009b 83E82B   		subl	$43, %eax
 718 009e 83F81A   		cmpl	$26, %eax
 719 00a1 0F879A00 		ja	.L70
 719      0000
 720 00a7 89C0     		movl	%eax, %eax
 721 00a9 488D1485 		leaq	0(,%rax,4), %rdx
 721      00000000 
 722 00b1 488D0500 		leaq	.L53(%rip), %rax
 722      000000
 723 00b8 8B0402   		movl	(%rdx,%rax), %eax
 724 00bb 4898     		cltq
 725 00bd 488D1500 		leaq	.L53(%rip), %rdx
 725      000000
 726 00c4 4801D0   		addq	%rdx, %rax
 727 00c7 3EFFE0   		notrack jmp	*%rax
 728              		.section	.rodata.parse_number,"a",@progbits
 729              		.align 4
 730              		.align 4
 731              	.L53:
 732 0000 00000000 		.long	.L52-.L53
GAS LISTING /tmp/ccabgRKQ.s 			page 21


 733 0004 00000000 		.long	.L70-.L53
 734 0008 00000000 		.long	.L52-.L53
 735 000c 00000000 		.long	.L54-.L53
 736 0010 00000000 		.long	.L70-.L53
 737 0014 00000000 		.long	.L52-.L53
 738 0018 00000000 		.long	.L52-.L53
 739 001c 00000000 		.long	.L52-.L53
 740 0020 00000000 		.long	.L52-.L53
 741 0024 00000000 		.long	.L52-.L53
 742 0028 00000000 		.long	.L52-.L53
 743 002c 00000000 		.long	.L52-.L53
 744 0030 00000000 		.long	.L52-.L53
 745 0034 00000000 		.long	.L52-.L53
 746 0038 00000000 		.long	.L52-.L53
 747 003c 00000000 		.long	.L70-.L53
 748 0040 00000000 		.long	.L70-.L53
 749 0044 00000000 		.long	.L70-.L53
 750 0048 00000000 		.long	.L70-.L53
 751 004c 00000000 		.long	.L70-.L53
 752 0050 00000000 		.long	.L70-.L53
 753 0054 00000000 		.long	.L70-.L53
 754 0058 00000000 		.long	.L70-.L53
 755 005c 00000000 		.long	.L70-.L53
 756 0060 00000000 		.long	.L70-.L53
 757 0064 00000000 		.long	.L70-.L53
 758 0068 00000000 		.long	.L52-.L53
 759              		.section	.text.parse_number
 760              	.L50:
 761 00ca 83F865   		cmpl	$101, %eax
 762 00cd 7572     		jne	.L70
 763              	.L52:
 285:/home/xingli/share/1205tiny/cJSON/cJSON.c ****         {
 286:/home/xingli/share/1205tiny/cJSON/cJSON.c ****             case '0':
 287:/home/xingli/share/1205tiny/cJSON/cJSON.c ****             case '1':
 288:/home/xingli/share/1205tiny/cJSON/cJSON.c ****             case '2':
 289:/home/xingli/share/1205tiny/cJSON/cJSON.c ****             case '3':
 290:/home/xingli/share/1205tiny/cJSON/cJSON.c ****             case '4':
 291:/home/xingli/share/1205tiny/cJSON/cJSON.c ****             case '5':
 292:/home/xingli/share/1205tiny/cJSON/cJSON.c ****             case '6':
 293:/home/xingli/share/1205tiny/cJSON/cJSON.c ****             case '7':
 294:/home/xingli/share/1205tiny/cJSON/cJSON.c ****             case '8':
 295:/home/xingli/share/1205tiny/cJSON/cJSON.c ****             case '9':
 296:/home/xingli/share/1205tiny/cJSON/cJSON.c ****             case '+':
 297:/home/xingli/share/1205tiny/cJSON/cJSON.c ****             case '-':
 298:/home/xingli/share/1205tiny/cJSON/cJSON.c ****             case 'e':
 299:/home/xingli/share/1205tiny/cJSON/cJSON.c ****             case 'E':
 300:/home/xingli/share/1205tiny/cJSON/cJSON.c ****                 number_c_string[i] = buffer_at_offset(input_buffer)[i];
 764              		.loc 1 300 38
 765 00cf 488B4580 		movq	-128(%rbp), %rax
 766 00d3 488B10   		movq	(%rax), %rdx
 767 00d6 488B4580 		movq	-128(%rbp), %rax
 768 00da 488B4810 		movq	16(%rax), %rcx
 769              		.loc 1 300 68
 770 00de 488B45A0 		movq	-96(%rbp), %rax
 771 00e2 4801C8   		addq	%rcx, %rax
 772 00e5 4801D0   		addq	%rdx, %rax
 773 00e8 0FB600   		movzbl	(%rax), %eax
GAS LISTING /tmp/ccabgRKQ.s 			page 22


 774              		.loc 1 300 36
 775 00eb 488D4DB0 		leaq	-80(%rbp), %rcx
 776 00ef 488B55A0 		movq	-96(%rbp), %rdx
 777 00f3 4801CA   		addq	%rcx, %rdx
 778 00f6 8802     		movb	%al, (%rdx)
 301:/home/xingli/share/1205tiny/cJSON/cJSON.c ****                 break;
 779              		.loc 1 301 17
 780 00f8 EB12     		jmp	.L55
 781              	.L54:
 302:/home/xingli/share/1205tiny/cJSON/cJSON.c **** 
 303:/home/xingli/share/1205tiny/cJSON/cJSON.c ****             case '.':
 304:/home/xingli/share/1205tiny/cJSON/cJSON.c ****                 number_c_string[i] = decimal_point;
 782              		.loc 1 304 36
 783 00fa 488D55B0 		leaq	-80(%rbp), %rdx
 784 00fe 488B45A0 		movq	-96(%rbp), %rax
 785 0102 4801C2   		addq	%rax, %rdx
 786 0105 0FB64597 		movzbl	-105(%rbp), %eax
 787 0109 8802     		movb	%al, (%rdx)
 305:/home/xingli/share/1205tiny/cJSON/cJSON.c ****                 break;
 788              		.loc 1 305 17
 789 010b 90       		nop
 790              	.L55:
 282:/home/xingli/share/1205tiny/cJSON/cJSON.c ****     {
 791              		.loc 1 282 95 discriminator 2
 792 010c 488345A0 		addq	$1, -96(%rbp)
 792      01
 793              	.L49:
 282:/home/xingli/share/1205tiny/cJSON/cJSON.c ****     {
 794              		.loc 1 282 5 discriminator 1
 795 0111 48837DA0 		cmpq	$62, -96(%rbp)
 795      3E
 796 0116 772C     		ja	.L71
 282:/home/xingli/share/1205tiny/cJSON/cJSON.c ****     {
 797              		.loc 1 282 53 discriminator 3
 798 0118 48837D80 		cmpq	$0, -128(%rbp)
 798      00
 799 011d 7425     		je	.L71
 282:/home/xingli/share/1205tiny/cJSON/cJSON.c ****     {
 800              		.loc 1 282 56 discriminator 4
 801 011f 488B4580 		movq	-128(%rbp), %rax
 802 0123 488B5010 		movq	16(%rax), %rdx
 803 0127 488B45A0 		movq	-96(%rbp), %rax
 804 012b 4801C2   		addq	%rax, %rdx
 805 012e 488B4580 		movq	-128(%rbp), %rax
 806 0132 488B4008 		movq	8(%rax), %rax
 807 0136 4839C2   		cmpq	%rax, %rdx
 808 0139 0F822FFF 		jb	.L57
 808      FFFF
 306:/home/xingli/share/1205tiny/cJSON/cJSON.c **** 
 307:/home/xingli/share/1205tiny/cJSON/cJSON.c ****             default:
 308:/home/xingli/share/1205tiny/cJSON/cJSON.c ****                 goto loop_end;
 309:/home/xingli/share/1205tiny/cJSON/cJSON.c ****         }
 310:/home/xingli/share/1205tiny/cJSON/cJSON.c ****     }
 311:/home/xingli/share/1205tiny/cJSON/cJSON.c **** loop_end:
 809              		.loc 1 311 1
 810 013f EB03     		jmp	.L71
 811              	.L70:
GAS LISTING /tmp/ccabgRKQ.s 			page 23


 308:/home/xingli/share/1205tiny/cJSON/cJSON.c ****         }
 812              		.loc 1 308 17
 813 0141 90       		nop
 814 0142 EB01     		jmp	.L56
 815              	.L71:
 816              		.loc 1 311 1
 817 0144 90       		nop
 818              	.L56:
 312:/home/xingli/share/1205tiny/cJSON/cJSON.c ****     number_c_string[i] = '\0';
 819              		.loc 1 312 24
 820 0145 488D55B0 		leaq	-80(%rbp), %rdx
 821 0149 488B45A0 		movq	-96(%rbp), %rax
 822 014d 4801D0   		addq	%rdx, %rax
 823 0150 C60000   		movb	$0, (%rax)
 313:/home/xingli/share/1205tiny/cJSON/cJSON.c **** 
 314:/home/xingli/share/1205tiny/cJSON/cJSON.c ****     number = strtod((const char*)number_c_string, (char**)&after_end);
 824              		.loc 1 314 14
 825 0153 488D5598 		leaq	-104(%rbp), %rdx
 826 0157 488D45B0 		leaq	-80(%rbp), %rax
 827 015b 4889D6   		movq	%rdx, %rsi
 828 015e 4889C7   		movq	%rax, %rdi
 829 0161 E8000000 		call	strtod@PLT
 829      00
 830 0166 66480F7E 		movq	%xmm0, %rax
 830      C0
 831 016b 488945A8 		movq	%rax, -88(%rbp)
 315:/home/xingli/share/1205tiny/cJSON/cJSON.c ****     if (number_c_string == after_end)
 832              		.loc 1 315 25
 833 016f 488B5598 		movq	-104(%rbp), %rdx
 834              		.loc 1 315 8
 835 0173 488D45B0 		leaq	-80(%rbp), %rax
 836 0177 4839C2   		cmpq	%rax, %rdx
 837 017a 750A     		jne	.L58
 316:/home/xingli/share/1205tiny/cJSON/cJSON.c ****     {
 317:/home/xingli/share/1205tiny/cJSON/cJSON.c ****         return false; /* parse_error */
 838              		.loc 1 317 16
 839 017c B8000000 		movl	$0, %eax
 839      00
 840 0181 E9870000 		jmp	.L64
 840      00
 841              	.L58:
 318:/home/xingli/share/1205tiny/cJSON/cJSON.c ****     }
 319:/home/xingli/share/1205tiny/cJSON/cJSON.c **** 
 320:/home/xingli/share/1205tiny/cJSON/cJSON.c ****     item->valuedouble = number;
 842              		.loc 1 320 23
 843 0186 488B4588 		movq	-120(%rbp), %rax
 844 018a F20F1045 		movsd	-88(%rbp), %xmm0
 844      A8
 845 018f F20F1140 		movsd	%xmm0, 48(%rax)
 845      30
 321:/home/xingli/share/1205tiny/cJSON/cJSON.c **** 
 322:/home/xingli/share/1205tiny/cJSON/cJSON.c ****     /* use saturation in case of overflow */
 323:/home/xingli/share/1205tiny/cJSON/cJSON.c ****     if (number >= INT_MAX)
 846              		.loc 1 323 8
 847 0194 F20F1045 		movsd	-88(%rbp), %xmm0
 847      A8
 848 0199 660F2F05 		comisd	.LC2(%rip), %xmm0
GAS LISTING /tmp/ccabgRKQ.s 			page 24


 848      00000000 
 849 01a1 720D     		jb	.L68
 324:/home/xingli/share/1205tiny/cJSON/cJSON.c ****     {
 325:/home/xingli/share/1205tiny/cJSON/cJSON.c ****         item->valueint = INT_MAX;
 850              		.loc 1 325 24
 851 01a3 488B4588 		movq	-120(%rbp), %rax
 852 01a7 C74028FF 		movl	$2147483647, 40(%rax)
 852      FFFF7F
 853 01ae EB2C     		jmp	.L61
 854              	.L68:
 326:/home/xingli/share/1205tiny/cJSON/cJSON.c ****     }
 327:/home/xingli/share/1205tiny/cJSON/cJSON.c ****     else if (number <= INT_MIN)
 855              		.loc 1 327 13
 856 01b0 F20F1005 		movsd	.LC3(%rip), %xmm0
 856      00000000 
 857 01b8 660F2F45 		comisd	-88(%rbp), %xmm0
 857      A8
 858 01bd 720D     		jb	.L69
 328:/home/xingli/share/1205tiny/cJSON/cJSON.c ****     {
 329:/home/xingli/share/1205tiny/cJSON/cJSON.c ****         item->valueint = INT_MIN;
 859              		.loc 1 329 24
 860 01bf 488B4588 		movq	-120(%rbp), %rax
 861 01c3 C7402800 		movl	$-2147483648, 40(%rax)
 861      000080
 862 01ca EB10     		jmp	.L61
 863              	.L69:
 330:/home/xingli/share/1205tiny/cJSON/cJSON.c ****     }
 331:/home/xingli/share/1205tiny/cJSON/cJSON.c ****     else
 332:/home/xingli/share/1205tiny/cJSON/cJSON.c ****     {
 333:/home/xingli/share/1205tiny/cJSON/cJSON.c ****         item->valueint = (int)number;
 864              		.loc 1 333 26
 865 01cc F20F1045 		movsd	-88(%rbp), %xmm0
 865      A8
 866 01d1 F20F2CD0 		cvttsd2sil	%xmm0, %edx
 867              		.loc 1 333 24
 868 01d5 488B4588 		movq	-120(%rbp), %rax
 869 01d9 895028   		movl	%edx, 40(%rax)
 870              	.L61:
 334:/home/xingli/share/1205tiny/cJSON/cJSON.c ****     }
 335:/home/xingli/share/1205tiny/cJSON/cJSON.c **** 
 336:/home/xingli/share/1205tiny/cJSON/cJSON.c ****     item->type = cJSON_Number;
 871              		.loc 1 336 16
 872 01dc 488B4588 		movq	-120(%rbp), %rax
 873 01e0 C7401808 		movl	$8, 24(%rax)
 873      000000
 337:/home/xingli/share/1205tiny/cJSON/cJSON.c **** 
 338:/home/xingli/share/1205tiny/cJSON/cJSON.c ****     input_buffer->offset += (size_t)(after_end - number_c_string);
 874              		.loc 1 338 26
 875 01e7 488B4580 		movq	-128(%rbp), %rax
 876 01eb 488B4010 		movq	16(%rax), %rax
 877              		.loc 1 338 48
 878 01ef 488B4D98 		movq	-104(%rbp), %rcx
 879 01f3 488D55B0 		leaq	-80(%rbp), %rdx
 880 01f7 4829D1   		subq	%rdx, %rcx
 881 01fa 4889CA   		movq	%rcx, %rdx
 882              		.loc 1 338 26
 883 01fd 4801C2   		addq	%rax, %rdx
GAS LISTING /tmp/ccabgRKQ.s 			page 25


 884 0200 488B4580 		movq	-128(%rbp), %rax
 885 0204 48895010 		movq	%rdx, 16(%rax)
 339:/home/xingli/share/1205tiny/cJSON/cJSON.c ****     return true;
 886              		.loc 1 339 12
 887 0208 B8010000 		movl	$1, %eax
 887      00
 888              	.L64:
 340:/home/xingli/share/1205tiny/cJSON/cJSON.c **** }
 889              		.loc 1 340 1 discriminator 1
 890 020d 488B75F8 		movq	-8(%rbp), %rsi
 891 0211 64483334 		xorq	%fs:40, %rsi
 891      25280000 
 891      00
 892 021a 7405     		je	.L65
 893              		.loc 1 340 1 is_stmt 0
 894 021c E8000000 		call	__stack_chk_fail@PLT
 894      00
 895              	.L65:
 896 0221 C9       		leave
 897              	.LCFI29:
 898              		.cfi_def_cfa 7, 8
 899 0222 C3       		ret
 900              		.cfi_endproc
 901              	.LFE15:
 903              		.section	.text.cJSON_SetNumberHelper,"ax",@progbits
 904              		.globl	cJSON_SetNumberHelper
 906              	cJSON_SetNumberHelper:
 907              	.LFB16:
 341:/home/xingli/share/1205tiny/cJSON/cJSON.c **** 
 342:/home/xingli/share/1205tiny/cJSON/cJSON.c **** /* don't ask me, but the original cJSON_SetNumberValue returns an integer or double */
 343:/home/xingli/share/1205tiny/cJSON/cJSON.c **** CJSON_PUBLIC(double) cJSON_SetNumberHelper(cJSON *object, double number)
 344:/home/xingli/share/1205tiny/cJSON/cJSON.c **** {
 908              		.loc 1 344 1 is_stmt 1
 909              		.cfi_startproc
 910 0000 F30F1EFA 		endbr64
 911 0004 55       		pushq	%rbp
 912              	.LCFI30:
 913              		.cfi_def_cfa_offset 16
 914              		.cfi_offset 6, -16
 915 0005 4889E5   		movq	%rsp, %rbp
 916              	.LCFI31:
 917              		.cfi_def_cfa_register 6
 918 0008 4883EC20 		subq	$32, %rsp
 919 000c 48897DE8 		movq	%rdi, -24(%rbp)
 920 0010 F20F1145 		movsd	%xmm0, -32(%rbp)
 920      E0
 921              		.loc 1 344 1
 922 0015 64488B04 		movq	%fs:40, %rax
 922      25280000 
 922      00
 923 001e 488945F8 		movq	%rax, -8(%rbp)
 924 0022 31C0     		xorl	%eax, %eax
 345:/home/xingli/share/1205tiny/cJSON/cJSON.c ****     if (number >= INT_MAX)
 925              		.loc 1 345 8
 926 0024 F20F1045 		movsd	-32(%rbp), %xmm0
 926      E0
 927 0029 660F2F05 		comisd	.LC2(%rip), %xmm0
GAS LISTING /tmp/ccabgRKQ.s 			page 26


 927      00000000 
 928 0031 720D     		jb	.L82
 346:/home/xingli/share/1205tiny/cJSON/cJSON.c ****     {
 347:/home/xingli/share/1205tiny/cJSON/cJSON.c ****         object->valueint = INT_MAX;
 929              		.loc 1 347 26
 930 0033 488B45E8 		movq	-24(%rbp), %rax
 931 0037 C74028FF 		movl	$2147483647, 40(%rax)
 931      FFFF7F
 932 003e EB2C     		jmp	.L75
 933              	.L82:
 348:/home/xingli/share/1205tiny/cJSON/cJSON.c ****     }
 349:/home/xingli/share/1205tiny/cJSON/cJSON.c ****     else if (number <= INT_MIN)
 934              		.loc 1 349 13
 935 0040 F20F1005 		movsd	.LC3(%rip), %xmm0
 935      00000000 
 936 0048 660F2F45 		comisd	-32(%rbp), %xmm0
 936      E0
 937 004d 720D     		jb	.L83
 350:/home/xingli/share/1205tiny/cJSON/cJSON.c ****     {
 351:/home/xingli/share/1205tiny/cJSON/cJSON.c ****         object->valueint = INT_MIN;
 938              		.loc 1 351 26
 939 004f 488B45E8 		movq	-24(%rbp), %rax
 940 0053 C7402800 		movl	$-2147483648, 40(%rax)
 940      000080
 941 005a EB10     		jmp	.L75
 942              	.L83:
 352:/home/xingli/share/1205tiny/cJSON/cJSON.c ****     }
 353:/home/xingli/share/1205tiny/cJSON/cJSON.c ****     else
 354:/home/xingli/share/1205tiny/cJSON/cJSON.c ****     {
 355:/home/xingli/share/1205tiny/cJSON/cJSON.c ****         object->valueint = (int)number;
 943              		.loc 1 355 28
 944 005c F20F1045 		movsd	-32(%rbp), %xmm0
 944      E0
 945 0061 F20F2CD0 		cvttsd2sil	%xmm0, %edx
 946              		.loc 1 355 26
 947 0065 488B45E8 		movq	-24(%rbp), %rax
 948 0069 895028   		movl	%edx, 40(%rax)
 949              	.L75:
 356:/home/xingli/share/1205tiny/cJSON/cJSON.c ****     }
 357:/home/xingli/share/1205tiny/cJSON/cJSON.c **** 
 358:/home/xingli/share/1205tiny/cJSON/cJSON.c ****     return object->valuedouble = number;
 950              		.loc 1 358 32
 951 006c 488B45E8 		movq	-24(%rbp), %rax
 952 0070 F20F1045 		movsd	-32(%rbp), %xmm0
 952      E0
 953 0075 F20F1140 		movsd	%xmm0, 48(%rax)
 953      30
 954 007a 488B45E8 		movq	-24(%rbp), %rax
 955 007e F20F1040 		movsd	48(%rax), %xmm0
 955      30
 359:/home/xingli/share/1205tiny/cJSON/cJSON.c **** }
 956              		.loc 1 359 1
 957 0083 488B45F8 		movq	-8(%rbp), %rax
 958 0087 64483304 		xorq	%fs:40, %rax
 958      25280000 
 958      00
 959 0090 7405     		je	.L79
GAS LISTING /tmp/ccabgRKQ.s 			page 27


 960 0092 E8000000 		call	__stack_chk_fail@PLT
 960      00
 961              	.L79:
 962 0097 C9       		leave
 963              	.LCFI32:
 964              		.cfi_def_cfa 7, 8
 965 0098 C3       		ret
 966              		.cfi_endproc
 967              	.LFE16:
 969              		.section	.text.ensure,"ax",@progbits
 971              	ensure:
 972              	.LFB17:
 360:/home/xingli/share/1205tiny/cJSON/cJSON.c **** 
 361:/home/xingli/share/1205tiny/cJSON/cJSON.c **** typedef struct
 362:/home/xingli/share/1205tiny/cJSON/cJSON.c **** {
 363:/home/xingli/share/1205tiny/cJSON/cJSON.c ****     unsigned char *buffer;
 364:/home/xingli/share/1205tiny/cJSON/cJSON.c ****     size_t length;
 365:/home/xingli/share/1205tiny/cJSON/cJSON.c ****     size_t offset;
 366:/home/xingli/share/1205tiny/cJSON/cJSON.c ****     size_t depth; /* current nesting depth (for formatted printing) */
 367:/home/xingli/share/1205tiny/cJSON/cJSON.c ****     cJSON_bool noalloc;
 368:/home/xingli/share/1205tiny/cJSON/cJSON.c ****     cJSON_bool format; /* is this print a formatted print */
 369:/home/xingli/share/1205tiny/cJSON/cJSON.c ****     internal_hooks hooks;
 370:/home/xingli/share/1205tiny/cJSON/cJSON.c **** } printbuffer;
 371:/home/xingli/share/1205tiny/cJSON/cJSON.c **** 
 372:/home/xingli/share/1205tiny/cJSON/cJSON.c **** /* realloc printbuffer if necessary to have at least "needed" bytes more */
 373:/home/xingli/share/1205tiny/cJSON/cJSON.c **** static unsigned char* ensure(printbuffer * const p, size_t needed)
 374:/home/xingli/share/1205tiny/cJSON/cJSON.c **** {
 973              		.loc 1 374 1
 974              		.cfi_startproc
 975 0000 F30F1EFA 		endbr64
 976 0004 55       		pushq	%rbp
 977              	.LCFI33:
 978              		.cfi_def_cfa_offset 16
 979              		.cfi_offset 6, -16
 980 0005 4889E5   		movq	%rsp, %rbp
 981              	.LCFI34:
 982              		.cfi_def_cfa_register 6
 983 0008 4883EC30 		subq	$48, %rsp
 984 000c 48897DD8 		movq	%rdi, -40(%rbp)
 985 0010 488975D0 		movq	%rsi, -48(%rbp)
 986              		.loc 1 374 1
 987 0014 64488B04 		movq	%fs:40, %rax
 987      25280000 
 987      00
 988 001d 488945F8 		movq	%rax, -8(%rbp)
 989 0021 31C0     		xorl	%eax, %eax
 375:/home/xingli/share/1205tiny/cJSON/cJSON.c ****     unsigned char *newbuffer = NULL;
 990              		.loc 1 375 20
 991 0023 48C745E8 		movq	$0, -24(%rbp)
 991      00000000 
 376:/home/xingli/share/1205tiny/cJSON/cJSON.c ****     size_t newsize = 0;
 992              		.loc 1 376 12
 993 002b 48C745F0 		movq	$0, -16(%rbp)
 993      00000000 
 377:/home/xingli/share/1205tiny/cJSON/cJSON.c **** 
 378:/home/xingli/share/1205tiny/cJSON/cJSON.c ****     if ((p == NULL) || (p->buffer == NULL))
 994              		.loc 1 378 8
GAS LISTING /tmp/ccabgRKQ.s 			page 28


 995 0033 48837DD8 		cmpq	$0, -40(%rbp)
 995      00
 996 0038 740C     		je	.L85
 997              		.loc 1 378 26 discriminator 1
 998 003a 488B45D8 		movq	-40(%rbp), %rax
 999 003e 488B00   		movq	(%rax), %rax
 1000              		.loc 1 378 21 discriminator 1
 1001 0041 4885C0   		testq	%rax, %rax
 1002 0044 750A     		jne	.L86
 1003              	.L85:
 379:/home/xingli/share/1205tiny/cJSON/cJSON.c ****     {
 380:/home/xingli/share/1205tiny/cJSON/cJSON.c ****         return NULL;
 1004              		.loc 1 380 16
 1005 0046 B8000000 		movl	$0, %eax
 1005      00
 1006 004b E9E30100 		jmp	.L87
 1006      00
 1007              	.L86:
 381:/home/xingli/share/1205tiny/cJSON/cJSON.c ****     }
 382:/home/xingli/share/1205tiny/cJSON/cJSON.c **** 
 383:/home/xingli/share/1205tiny/cJSON/cJSON.c ****     if ((p->length > 0) && (p->offset >= p->length))
 1008              		.loc 1 383 11
 1009 0050 488B45D8 		movq	-40(%rbp), %rax
 1010 0054 488B4008 		movq	8(%rax), %rax
 1011              		.loc 1 383 8
 1012 0058 4885C0   		testq	%rax, %rax
 1013 005b 741F     		je	.L88
 1014              		.loc 1 383 30 discriminator 1
 1015 005d 488B45D8 		movq	-40(%rbp), %rax
 1016 0061 488B5010 		movq	16(%rax), %rdx
 1017              		.loc 1 383 43 discriminator 1
 1018 0065 488B45D8 		movq	-40(%rbp), %rax
 1019 0069 488B4008 		movq	8(%rax), %rax
 1020              		.loc 1 383 25 discriminator 1
 1021 006d 4839C2   		cmpq	%rax, %rdx
 1022 0070 720A     		jb	.L88
 384:/home/xingli/share/1205tiny/cJSON/cJSON.c ****     {
 385:/home/xingli/share/1205tiny/cJSON/cJSON.c ****         /* make sure that offset is valid */
 386:/home/xingli/share/1205tiny/cJSON/cJSON.c ****         return NULL;
 1023              		.loc 1 386 16
 1024 0072 B8000000 		movl	$0, %eax
 1024      00
 1025 0077 E9B70100 		jmp	.L87
 1025      00
 1026              	.L88:
 387:/home/xingli/share/1205tiny/cJSON/cJSON.c ****     }
 388:/home/xingli/share/1205tiny/cJSON/cJSON.c **** 
 389:/home/xingli/share/1205tiny/cJSON/cJSON.c ****     if (needed > INT_MAX)
 1027              		.loc 1 389 8
 1028 007c B8000000 		movl	$2147483648, %eax
 1028      80
 1029 0081 483945D0 		cmpq	%rax, -48(%rbp)
 1030 0085 720A     		jb	.L89
 390:/home/xingli/share/1205tiny/cJSON/cJSON.c ****     {
 391:/home/xingli/share/1205tiny/cJSON/cJSON.c ****         /* sizes bigger than INT_MAX are currently not supported */
 392:/home/xingli/share/1205tiny/cJSON/cJSON.c ****         return NULL;
 1031              		.loc 1 392 16
GAS LISTING /tmp/ccabgRKQ.s 			page 29


 1032 0087 B8000000 		movl	$0, %eax
 1032      00
 1033 008c E9A20100 		jmp	.L87
 1033      00
 1034              	.L89:
 393:/home/xingli/share/1205tiny/cJSON/cJSON.c ****     }
 394:/home/xingli/share/1205tiny/cJSON/cJSON.c **** 
 395:/home/xingli/share/1205tiny/cJSON/cJSON.c ****     needed += p->offset + 1;
 1035              		.loc 1 395 16
 1036 0091 488B45D8 		movq	-40(%rbp), %rax
 1037 0095 488B5010 		movq	16(%rax), %rdx
 1038              		.loc 1 395 12
 1039 0099 488B45D0 		movq	-48(%rbp), %rax
 1040 009d 4801D0   		addq	%rdx, %rax
 1041 00a0 4883C001 		addq	$1, %rax
 1042 00a4 488945D0 		movq	%rax, -48(%rbp)
 396:/home/xingli/share/1205tiny/cJSON/cJSON.c ****     if (needed <= p->length)
 1043              		.loc 1 396 20
 1044 00a8 488B45D8 		movq	-40(%rbp), %rax
 1045 00ac 488B4008 		movq	8(%rax), %rax
 1046              		.loc 1 396 8
 1047 00b0 483945D0 		cmpq	%rax, -48(%rbp)
 1048 00b4 7717     		ja	.L90
 397:/home/xingli/share/1205tiny/cJSON/cJSON.c ****     {
 398:/home/xingli/share/1205tiny/cJSON/cJSON.c ****         return p->buffer + p->offset;
 1049              		.loc 1 398 17
 1050 00b6 488B45D8 		movq	-40(%rbp), %rax
 1051 00ba 488B10   		movq	(%rax), %rdx
 1052              		.loc 1 398 29
 1053 00bd 488B45D8 		movq	-40(%rbp), %rax
 1054 00c1 488B4010 		movq	16(%rax), %rax
 1055              		.loc 1 398 26
 1056 00c5 4801D0   		addq	%rdx, %rax
 1057 00c8 E9660100 		jmp	.L87
 1057      00
 1058              	.L90:
 399:/home/xingli/share/1205tiny/cJSON/cJSON.c ****     }
 400:/home/xingli/share/1205tiny/cJSON/cJSON.c **** 
 401:/home/xingli/share/1205tiny/cJSON/cJSON.c ****     if (p->noalloc) {
 1059              		.loc 1 401 10
 1060 00cd 488B45D8 		movq	-40(%rbp), %rax
 1061 00d1 8B4020   		movl	32(%rax), %eax
 1062              		.loc 1 401 8
 1063 00d4 85C0     		testl	%eax, %eax
 1064 00d6 740A     		je	.L91
 402:/home/xingli/share/1205tiny/cJSON/cJSON.c ****         return NULL;
 1065              		.loc 1 402 16
 1066 00d8 B8000000 		movl	$0, %eax
 1066      00
 1067 00dd E9510100 		jmp	.L87
 1067      00
 1068              	.L91:
 403:/home/xingli/share/1205tiny/cJSON/cJSON.c ****     }
 404:/home/xingli/share/1205tiny/cJSON/cJSON.c **** 
 405:/home/xingli/share/1205tiny/cJSON/cJSON.c ****     /* calculate new buffer size */
 406:/home/xingli/share/1205tiny/cJSON/cJSON.c ****     if (needed > (INT_MAX / 2))
 1069              		.loc 1 406 8
GAS LISTING /tmp/ccabgRKQ.s 			page 30


 1070 00e2 48817DD0 		cmpq	$1073741823, -48(%rbp)
 1070      FFFFFF3F 
 1071 00ea 761F     		jbe	.L92
 407:/home/xingli/share/1205tiny/cJSON/cJSON.c ****     {
 408:/home/xingli/share/1205tiny/cJSON/cJSON.c ****         /* overflow of int, use INT_MAX if possible */
 409:/home/xingli/share/1205tiny/cJSON/cJSON.c ****         if (needed <= INT_MAX)
 1072              		.loc 1 409 12
 1073 00ec B8000000 		movl	$2147483648, %eax
 1073      80
 1074 00f1 483945D0 		cmpq	%rax, -48(%rbp)
 1075 00f5 730A     		jnb	.L93
 410:/home/xingli/share/1205tiny/cJSON/cJSON.c ****         {
 411:/home/xingli/share/1205tiny/cJSON/cJSON.c ****             newsize = INT_MAX;
 1076              		.loc 1 411 21
 1077 00f7 48C745F0 		movq	$2147483647, -16(%rbp)
 1077      FFFFFF7F 
 1078 00ff EB15     		jmp	.L94
 1079              	.L93:
 412:/home/xingli/share/1205tiny/cJSON/cJSON.c ****         }
 413:/home/xingli/share/1205tiny/cJSON/cJSON.c ****         else
 414:/home/xingli/share/1205tiny/cJSON/cJSON.c ****         {
 415:/home/xingli/share/1205tiny/cJSON/cJSON.c ****             return NULL;
 1080              		.loc 1 415 20
 1081 0101 B8000000 		movl	$0, %eax
 1081      00
 1082 0106 E9280100 		jmp	.L87
 1082      00
 1083              	.L92:
 416:/home/xingli/share/1205tiny/cJSON/cJSON.c ****         }
 417:/home/xingli/share/1205tiny/cJSON/cJSON.c ****     }
 418:/home/xingli/share/1205tiny/cJSON/cJSON.c ****     else
 419:/home/xingli/share/1205tiny/cJSON/cJSON.c ****     {
 420:/home/xingli/share/1205tiny/cJSON/cJSON.c ****         newsize = needed * 2;
 1084              		.loc 1 420 17
 1085 010b 488B45D0 		movq	-48(%rbp), %rax
 1086 010f 4801C0   		addq	%rax, %rax
 1087 0112 488945F0 		movq	%rax, -16(%rbp)
 1088              	.L94:
 421:/home/xingli/share/1205tiny/cJSON/cJSON.c ****     }
 422:/home/xingli/share/1205tiny/cJSON/cJSON.c **** 
 423:/home/xingli/share/1205tiny/cJSON/cJSON.c ****     if (p->hooks.reallocate != NULL)
 1089              		.loc 1 423 17
 1090 0116 488B45D8 		movq	-40(%rbp), %rax
 1091 011a 488B4038 		movq	56(%rax), %rax
 1092              		.loc 1 423 8
 1093 011e 4885C0   		testq	%rax, %rax
 1094 0121 745F     		je	.L95
 424:/home/xingli/share/1205tiny/cJSON/cJSON.c ****     {
 425:/home/xingli/share/1205tiny/cJSON/cJSON.c ****         /* reallocate with realloc if available */
 426:/home/xingli/share/1205tiny/cJSON/cJSON.c ****         newbuffer = (unsigned char*)p->hooks.reallocate(p->buffer, newsize);
 1095              		.loc 1 426 45
 1096 0123 488B45D8 		movq	-40(%rbp), %rax
 1097 0127 488B4838 		movq	56(%rax), %rcx
 1098              		.loc 1 426 58
 1099 012b 488B45D8 		movq	-40(%rbp), %rax
 1100 012f 488B00   		movq	(%rax), %rax
 1101              		.loc 1 426 37
GAS LISTING /tmp/ccabgRKQ.s 			page 31


 1102 0132 488B55F0 		movq	-16(%rbp), %rdx
 1103 0136 4889D6   		movq	%rdx, %rsi
 1104 0139 4889C7   		movq	%rax, %rdi
 1105 013c FFD1     		call	*%rcx
 1106              	.LVL5:
 1107 013e 488945E8 		movq	%rax, -24(%rbp)
 427:/home/xingli/share/1205tiny/cJSON/cJSON.c ****         if (newbuffer == NULL)
 1108              		.loc 1 427 12
 1109 0142 48837DE8 		cmpq	$0, -24(%rbp)
 1109      00
 1110 0147 0F85C000 		jne	.L96
 1110      0000
 428:/home/xingli/share/1205tiny/cJSON/cJSON.c ****         {
 429:/home/xingli/share/1205tiny/cJSON/cJSON.c ****             p->hooks.deallocate(p->buffer);
 1111              		.loc 1 429 21
 1112 014d 488B45D8 		movq	-40(%rbp), %rax
 1113 0151 488B5030 		movq	48(%rax), %rdx
 1114              		.loc 1 429 34
 1115 0155 488B45D8 		movq	-40(%rbp), %rax
 1116 0159 488B00   		movq	(%rax), %rax
 1117              		.loc 1 429 13
 1118 015c 4889C7   		movq	%rax, %rdi
 1119 015f FFD2     		call	*%rdx
 1120              	.LVL6:
 430:/home/xingli/share/1205tiny/cJSON/cJSON.c ****             p->length = 0;
 1121              		.loc 1 430 23
 1122 0161 488B45D8 		movq	-40(%rbp), %rax
 1123 0165 48C74008 		movq	$0, 8(%rax)
 1123      00000000 
 431:/home/xingli/share/1205tiny/cJSON/cJSON.c ****             p->buffer = NULL;
 1124              		.loc 1 431 23
 1125 016d 488B45D8 		movq	-40(%rbp), %rax
 1126 0171 48C70000 		movq	$0, (%rax)
 1126      000000
 432:/home/xingli/share/1205tiny/cJSON/cJSON.c **** 
 433:/home/xingli/share/1205tiny/cJSON/cJSON.c ****             return NULL;
 1127              		.loc 1 433 20
 1128 0178 B8000000 		movl	$0, %eax
 1128      00
 1129 017d E9B10000 		jmp	.L87
 1129      00
 1130              	.L95:
 434:/home/xingli/share/1205tiny/cJSON/cJSON.c ****         }
 435:/home/xingli/share/1205tiny/cJSON/cJSON.c ****     }
 436:/home/xingli/share/1205tiny/cJSON/cJSON.c ****     else
 437:/home/xingli/share/1205tiny/cJSON/cJSON.c ****     {
 438:/home/xingli/share/1205tiny/cJSON/cJSON.c ****         /* otherwise reallocate manually */
 439:/home/xingli/share/1205tiny/cJSON/cJSON.c ****         newbuffer = (unsigned char*)p->hooks.allocate(newsize);
 1131              		.loc 1 439 45
 1132 0182 488B45D8 		movq	-40(%rbp), %rax
 1133 0186 488B5028 		movq	40(%rax), %rdx
 1134              		.loc 1 439 37
 1135 018a 488B45F0 		movq	-16(%rbp), %rax
 1136 018e 4889C7   		movq	%rax, %rdi
 1137 0191 FFD2     		call	*%rdx
 1138              	.LVL7:
 1139 0193 488945E8 		movq	%rax, -24(%rbp)
GAS LISTING /tmp/ccabgRKQ.s 			page 32


 440:/home/xingli/share/1205tiny/cJSON/cJSON.c ****         if (!newbuffer)
 1140              		.loc 1 440 12
 1141 0197 48837DE8 		cmpq	$0, -24(%rbp)
 1141      00
 1142 019c 7532     		jne	.L97
 441:/home/xingli/share/1205tiny/cJSON/cJSON.c ****         {
 442:/home/xingli/share/1205tiny/cJSON/cJSON.c ****             p->hooks.deallocate(p->buffer);
 1143              		.loc 1 442 21
 1144 019e 488B45D8 		movq	-40(%rbp), %rax
 1145 01a2 488B5030 		movq	48(%rax), %rdx
 1146              		.loc 1 442 34
 1147 01a6 488B45D8 		movq	-40(%rbp), %rax
 1148 01aa 488B00   		movq	(%rax), %rax
 1149              		.loc 1 442 13
 1150 01ad 4889C7   		movq	%rax, %rdi
 1151 01b0 FFD2     		call	*%rdx
 1152              	.LVL8:
 443:/home/xingli/share/1205tiny/cJSON/cJSON.c ****             p->length = 0;
 1153              		.loc 1 443 23
 1154 01b2 488B45D8 		movq	-40(%rbp), %rax
 1155 01b6 48C74008 		movq	$0, 8(%rax)
 1155      00000000 
 444:/home/xingli/share/1205tiny/cJSON/cJSON.c ****             p->buffer = NULL;
 1156              		.loc 1 444 23
 1157 01be 488B45D8 		movq	-40(%rbp), %rax
 1158 01c2 48C70000 		movq	$0, (%rax)
 1158      000000
 445:/home/xingli/share/1205tiny/cJSON/cJSON.c **** 
 446:/home/xingli/share/1205tiny/cJSON/cJSON.c ****             return NULL;
 1159              		.loc 1 446 20
 1160 01c9 B8000000 		movl	$0, %eax
 1160      00
 1161 01ce EB63     		jmp	.L87
 1162              	.L97:
 447:/home/xingli/share/1205tiny/cJSON/cJSON.c ****         }
 448:/home/xingli/share/1205tiny/cJSON/cJSON.c ****         if (newbuffer)
 1163              		.loc 1 448 12
 1164 01d0 48837DE8 		cmpq	$0, -24(%rbp)
 1164      00
 1165 01d5 7422     		je	.L98
 449:/home/xingli/share/1205tiny/cJSON/cJSON.c ****         {
 450:/home/xingli/share/1205tiny/cJSON/cJSON.c ****             (void) memcpy(newbuffer, p->buffer, p->offset + 1);
 1166              		.loc 1 450 50
 1167 01d7 488B45D8 		movq	-40(%rbp), %rax
 1168 01db 488B4010 		movq	16(%rax), %rax
 1169              		.loc 1 450 20
 1170 01df 488D5001 		leaq	1(%rax), %rdx
 1171              		.loc 1 450 39
 1172 01e3 488B45D8 		movq	-40(%rbp), %rax
 1173 01e7 488B08   		movq	(%rax), %rcx
 1174              		.loc 1 450 20
 1175 01ea 488B45E8 		movq	-24(%rbp), %rax
 1176 01ee 4889CE   		movq	%rcx, %rsi
 1177 01f1 4889C7   		movq	%rax, %rdi
 1178 01f4 E8000000 		call	memcpy@PLT
 1178      00
 1179              	.L98:
GAS LISTING /tmp/ccabgRKQ.s 			page 33


 451:/home/xingli/share/1205tiny/cJSON/cJSON.c ****         }
 452:/home/xingli/share/1205tiny/cJSON/cJSON.c ****         p->hooks.deallocate(p->buffer);
 1180              		.loc 1 452 17
 1181 01f9 488B45D8 		movq	-40(%rbp), %rax
 1182 01fd 488B5030 		movq	48(%rax), %rdx
 1183              		.loc 1 452 30
 1184 0201 488B45D8 		movq	-40(%rbp), %rax
 1185 0205 488B00   		movq	(%rax), %rax
 1186              		.loc 1 452 9
 1187 0208 4889C7   		movq	%rax, %rdi
 1188 020b FFD2     		call	*%rdx
 1189              	.LVL9:
 1190              	.L96:
 453:/home/xingli/share/1205tiny/cJSON/cJSON.c ****     }
 454:/home/xingli/share/1205tiny/cJSON/cJSON.c ****     p->length = newsize;
 1191              		.loc 1 454 15
 1192 020d 488B45D8 		movq	-40(%rbp), %rax
 1193 0211 488B55F0 		movq	-16(%rbp), %rdx
 1194 0215 48895008 		movq	%rdx, 8(%rax)
 455:/home/xingli/share/1205tiny/cJSON/cJSON.c ****     p->buffer = newbuffer;
 1195              		.loc 1 455 15
 1196 0219 488B45D8 		movq	-40(%rbp), %rax
 1197 021d 488B55E8 		movq	-24(%rbp), %rdx
 1198 0221 488910   		movq	%rdx, (%rax)
 456:/home/xingli/share/1205tiny/cJSON/cJSON.c **** 
 457:/home/xingli/share/1205tiny/cJSON/cJSON.c ****     return newbuffer + p->offset;
 1199              		.loc 1 457 25
 1200 0224 488B45D8 		movq	-40(%rbp), %rax
 1201 0228 488B5010 		movq	16(%rax), %rdx
 1202              		.loc 1 457 22
 1203 022c 488B45E8 		movq	-24(%rbp), %rax
 1204 0230 4801D0   		addq	%rdx, %rax
 1205              	.L87:
 458:/home/xingli/share/1205tiny/cJSON/cJSON.c **** }
 1206              		.loc 1 458 1
 1207 0233 488B75F8 		movq	-8(%rbp), %rsi
 1208 0237 64483334 		xorq	%fs:40, %rsi
 1208      25280000 
 1208      00
 1209 0240 7405     		je	.L99
 1210 0242 E8000000 		call	__stack_chk_fail@PLT
 1210      00
 1211              	.L99:
 1212 0247 C9       		leave
 1213              	.LCFI35:
 1214              		.cfi_def_cfa 7, 8
 1215 0248 C3       		ret
 1216              		.cfi_endproc
 1217              	.LFE17:
 1219              		.section	.text.update_offset,"ax",@progbits
 1221              	update_offset:
 1222              	.LFB18:
 459:/home/xingli/share/1205tiny/cJSON/cJSON.c **** 
 460:/home/xingli/share/1205tiny/cJSON/cJSON.c **** /* calculate the new length of the string in a printbuffer and update the offset */
 461:/home/xingli/share/1205tiny/cJSON/cJSON.c **** static void update_offset(printbuffer * const buffer)
 462:/home/xingli/share/1205tiny/cJSON/cJSON.c **** {
 1223              		.loc 1 462 1
GAS LISTING /tmp/ccabgRKQ.s 			page 34


 1224              		.cfi_startproc
 1225 0000 F30F1EFA 		endbr64
 1226 0004 55       		pushq	%rbp
 1227              	.LCFI36:
 1228              		.cfi_def_cfa_offset 16
 1229              		.cfi_offset 6, -16
 1230 0005 4889E5   		movq	%rsp, %rbp
 1231              	.LCFI37:
 1232              		.cfi_def_cfa_register 6
 1233 0008 53       		pushq	%rbx
 1234 0009 4883EC28 		subq	$40, %rsp
 1235              		.cfi_offset 3, -24
 1236 000d 48897DD8 		movq	%rdi, -40(%rbp)
 1237              		.loc 1 462 1
 1238 0011 64488B04 		movq	%fs:40, %rax
 1238      25280000 
 1238      00
 1239 001a 488945E8 		movq	%rax, -24(%rbp)
 1240 001e 31C0     		xorl	%eax, %eax
 463:/home/xingli/share/1205tiny/cJSON/cJSON.c ****     const unsigned char *buffer_pointer = NULL;
 1241              		.loc 1 463 26
 1242 0020 48C745E0 		movq	$0, -32(%rbp)
 1242      00000000 
 464:/home/xingli/share/1205tiny/cJSON/cJSON.c ****     if ((buffer == NULL) || (buffer->buffer == NULL))
 1243              		.loc 1 464 8
 1244 0028 48837DD8 		cmpq	$0, -40(%rbp)
 1244      00
 1245 002d 7444     		je	.L105
 1246              		.loc 1 464 36 discriminator 1
 1247 002f 488B45D8 		movq	-40(%rbp), %rax
 1248 0033 488B00   		movq	(%rax), %rax
 1249              		.loc 1 464 26 discriminator 1
 1250 0036 4885C0   		testq	%rax, %rax
 1251 0039 7438     		je	.L105
 465:/home/xingli/share/1205tiny/cJSON/cJSON.c ****     {
 466:/home/xingli/share/1205tiny/cJSON/cJSON.c ****         return;
 467:/home/xingli/share/1205tiny/cJSON/cJSON.c ****     }
 468:/home/xingli/share/1205tiny/cJSON/cJSON.c ****     buffer_pointer = buffer->buffer + buffer->offset;
 1252              		.loc 1 468 28
 1253 003b 488B45D8 		movq	-40(%rbp), %rax
 1254 003f 488B10   		movq	(%rax), %rdx
 1255              		.loc 1 468 45
 1256 0042 488B45D8 		movq	-40(%rbp), %rax
 1257 0046 488B4010 		movq	16(%rax), %rax
 1258              		.loc 1 468 20
 1259 004a 4801D0   		addq	%rdx, %rax
 1260 004d 488945E0 		movq	%rax, -32(%rbp)
 469:/home/xingli/share/1205tiny/cJSON/cJSON.c **** 
 470:/home/xingli/share/1205tiny/cJSON/cJSON.c ****     buffer->offset += strlen((const char*)buffer_pointer);
 1261              		.loc 1 470 20
 1262 0051 488B45D8 		movq	-40(%rbp), %rax
 1263 0055 488B5810 		movq	16(%rax), %rbx
 1264              		.loc 1 470 23
 1265 0059 488B45E0 		movq	-32(%rbp), %rax
 1266 005d 4889C7   		movq	%rax, %rdi
 1267 0060 E8000000 		call	strlen@PLT
 1267      00
GAS LISTING /tmp/ccabgRKQ.s 			page 35


 1268              		.loc 1 470 20
 1269 0065 488D1403 		leaq	(%rbx,%rax), %rdx
 1270 0069 488B45D8 		movq	-40(%rbp), %rax
 1271 006d 48895010 		movq	%rdx, 16(%rax)
 1272 0071 EB01     		jmp	.L100
 1273              	.L105:
 466:/home/xingli/share/1205tiny/cJSON/cJSON.c ****     }
 1274              		.loc 1 466 9
 1275 0073 90       		nop
 1276              	.L100:
 471:/home/xingli/share/1205tiny/cJSON/cJSON.c **** }
 1277              		.loc 1 471 1
 1278 0074 488B45E8 		movq	-24(%rbp), %rax
 1279 0078 64483304 		xorq	%fs:40, %rax
 1279      25280000 
 1279      00
 1280 0081 7405     		je	.L104
 1281 0083 E8000000 		call	__stack_chk_fail@PLT
 1281      00
 1282              	.L104:
 1283 0088 4883C428 		addq	$40, %rsp
 1284 008c 5B       		popq	%rbx
 1285 008d 5D       		popq	%rbp
 1286              	.LCFI38:
 1287              		.cfi_def_cfa 7, 8
 1288 008e C3       		ret
 1289              		.cfi_endproc
 1290              	.LFE18:
 1292              		.section	.rodata
 1293              	.LC4:
 1294 0009 6E756C6C 		.string	"null"
 1294      00
 1295              	.LC5:
 1296 000e 25312E31 		.string	"%1.15g"
 1296      356700
 1297              	.LC6:
 1298 0015 256C6700 		.string	"%lg"
 1299              	.LC7:
 1300 0019 25312E31 		.string	"%1.17g"
 1300      376700
 1301              		.section	.text.print_number,"ax",@progbits
 1303              	print_number:
 1304              	.LFB19:
 472:/home/xingli/share/1205tiny/cJSON/cJSON.c **** 
 473:/home/xingli/share/1205tiny/cJSON/cJSON.c **** /* Render the number nicely from the given item into a string. */
 474:/home/xingli/share/1205tiny/cJSON/cJSON.c **** static cJSON_bool print_number(const cJSON * const item, printbuffer * const output_buffer)
 475:/home/xingli/share/1205tiny/cJSON/cJSON.c **** {
 1305              		.loc 1 475 1
 1306              		.cfi_startproc
 1307 0000 F30F1EFA 		endbr64
 1308 0004 55       		pushq	%rbp
 1309              	.LCFI39:
 1310              		.cfi_def_cfa_offset 16
 1311              		.cfi_offset 6, -16
 1312 0005 4889E5   		movq	%rsp, %rbp
 1313              	.LCFI40:
 1314              		.cfi_def_cfa_register 6
GAS LISTING /tmp/ccabgRKQ.s 			page 36


 1315 0008 4883EC70 		subq	$112, %rsp
 1316 000c 48897D98 		movq	%rdi, -104(%rbp)
 1317 0010 48897590 		movq	%rsi, -112(%rbp)
 1318              		.loc 1 475 1
 1319 0014 64488B04 		movq	%fs:40, %rax
 1319      25280000 
 1319      00
 1320 001d 488945F8 		movq	%rax, -8(%rbp)
 1321 0021 31C0     		xorl	%eax, %eax
 476:/home/xingli/share/1205tiny/cJSON/cJSON.c ****     unsigned char *output_pointer = NULL;
 1322              		.loc 1 476 20
 1323 0023 48C745C0 		movq	$0, -64(%rbp)
 1323      00000000 
 477:/home/xingli/share/1205tiny/cJSON/cJSON.c ****     double d = item->valuedouble;
 1324              		.loc 1 477 12
 1325 002b 488B4598 		movq	-104(%rbp), %rax
 1326 002f F20F1040 		movsd	48(%rax), %xmm0
 1326      30
 1327 0034 F20F1145 		movsd	%xmm0, -56(%rbp)
 1327      C8
 478:/home/xingli/share/1205tiny/cJSON/cJSON.c ****     int length = 0;
 1328              		.loc 1 478 9
 1329 0039 C745AC00 		movl	$0, -84(%rbp)
 1329      000000
 479:/home/xingli/share/1205tiny/cJSON/cJSON.c ****     size_t i = 0;
 1330              		.loc 1 479 12
 1331 0040 48C745B8 		movq	$0, -72(%rbp)
 1331      00000000 
 480:/home/xingli/share/1205tiny/cJSON/cJSON.c ****     unsigned char number_buffer[26]; /* temporary buffer to print the number into */
 481:/home/xingli/share/1205tiny/cJSON/cJSON.c ****     unsigned char decimal_point = get_decimal_point();
 1332              		.loc 1 481 35
 1333 0048 E8000000 		call	get_decimal_point
 1333      00
 1334 004d 8845AB   		movb	%al, -85(%rbp)
 482:/home/xingli/share/1205tiny/cJSON/cJSON.c ****     double test;
 483:/home/xingli/share/1205tiny/cJSON/cJSON.c **** 
 484:/home/xingli/share/1205tiny/cJSON/cJSON.c ****     if (output_buffer == NULL)
 1335              		.loc 1 484 8
 1336 0050 48837D90 		cmpq	$0, -112(%rbp)
 1336      00
 1337 0055 750A     		jne	.L107
 485:/home/xingli/share/1205tiny/cJSON/cJSON.c ****     {
 486:/home/xingli/share/1205tiny/cJSON/cJSON.c ****         return false;
 1338              		.loc 1 486 16
 1339 0057 B8000000 		movl	$0, %eax
 1339      00
 1340 005c E9800100 		jmp	.L121
 1340      00
 1341              	.L107:
 487:/home/xingli/share/1205tiny/cJSON/cJSON.c ****     }
 488:/home/xingli/share/1205tiny/cJSON/cJSON.c **** 
 489:/home/xingli/share/1205tiny/cJSON/cJSON.c ****     /* This checks for NaN and Infinity */
 490:/home/xingli/share/1205tiny/cJSON/cJSON.c ****     if ((d * 0) != 0)
 1342              		.loc 1 490 12
 1343 0061 F20F104D 		movsd	-56(%rbp), %xmm1
 1343      C8
 1344 0066 660FEFC0 		pxor	%xmm0, %xmm0
GAS LISTING /tmp/ccabgRKQ.s 			page 37


 1345 006a F20F59C1 		mulsd	%xmm1, %xmm0
 1346              		.loc 1 490 8
 1347 006e 660FEFC9 		pxor	%xmm1, %xmm1
 1348 0072 660F2EC1 		ucomisd	%xmm1, %xmm0
 1349 0076 7A0A     		jp	.L123
 1350 0078 660FEFC9 		pxor	%xmm1, %xmm1
 1351 007c 660F2EC1 		ucomisd	%xmm1, %xmm0
 1352 0080 741D     		je	.L124
 1353              	.L123:
 491:/home/xingli/share/1205tiny/cJSON/cJSON.c ****     {
 492:/home/xingli/share/1205tiny/cJSON/cJSON.c ****         length = sprintf((char*)number_buffer, "null");
 1354              		.loc 1 492 18
 1355 0082 488D45D0 		leaq	-48(%rbp), %rax
 1356 0086 488D3500 		leaq	.LC4(%rip), %rsi
 1356      000000
 1357 008d 4889C7   		movq	%rax, %rdi
 1358 0090 B8000000 		movl	$0, %eax
 1358      00
 1359 0095 E8000000 		call	sprintf@PLT
 1359      00
 1360 009a 8945AC   		movl	%eax, -84(%rbp)
 1361 009d EB7C     		jmp	.L111
 1362              	.L124:
 493:/home/xingli/share/1205tiny/cJSON/cJSON.c ****     }
 494:/home/xingli/share/1205tiny/cJSON/cJSON.c ****     else
 495:/home/xingli/share/1205tiny/cJSON/cJSON.c ****     {
 496:/home/xingli/share/1205tiny/cJSON/cJSON.c ****         /* Try 15 decimal places of precision to avoid nonsignificant nonzero digits */
 497:/home/xingli/share/1205tiny/cJSON/cJSON.c ****         length = sprintf((char*)number_buffer, "%1.15g", d);
 1363              		.loc 1 497 18
 1364 009f 488B55C8 		movq	-56(%rbp), %rdx
 1365 00a3 488D45D0 		leaq	-48(%rbp), %rax
 1366 00a7 66480F6E 		movq	%rdx, %xmm0
 1366      C2
 1367 00ac 488D3500 		leaq	.LC5(%rip), %rsi
 1367      000000
 1368 00b3 4889C7   		movq	%rax, %rdi
 1369 00b6 B8010000 		movl	$1, %eax
 1369      00
 1370 00bb E8000000 		call	sprintf@PLT
 1370      00
 1371 00c0 8945AC   		movl	%eax, -84(%rbp)
 498:/home/xingli/share/1205tiny/cJSON/cJSON.c **** 
 499:/home/xingli/share/1205tiny/cJSON/cJSON.c ****         /* Check whether the original double can be recovered */
 500:/home/xingli/share/1205tiny/cJSON/cJSON.c ****         if ((sscanf((char*)number_buffer, "%lg", &test) != 1) || ((double)test != d))
 1372              		.loc 1 500 14
 1373 00c3 488D55B0 		leaq	-80(%rbp), %rdx
 1374 00c7 488D45D0 		leaq	-48(%rbp), %rax
 1375 00cb 488D3500 		leaq	.LC6(%rip), %rsi
 1375      000000
 1376 00d2 4889C7   		movq	%rax, %rdi
 1377 00d5 B8000000 		movl	$0, %eax
 1377      00
 1378 00da E8000000 		call	__isoc99_sscanf@PLT
 1378      00
 1379              		.loc 1 500 12
 1380 00df 83F801   		cmpl	$1, %eax
 1381 00e2 7513     		jne	.L112
GAS LISTING /tmp/ccabgRKQ.s 			page 38


 1382              		.loc 1 500 80 discriminator 1
 1383 00e4 F20F1045 		movsd	-80(%rbp), %xmm0
 1383      B0
 1384              		.loc 1 500 63 discriminator 1
 1385 00e9 660F2E45 		ucomisd	-56(%rbp), %xmm0
 1385      C8
 1386 00ee 7A07     		jp	.L112
 1387 00f0 660F2E45 		ucomisd	-56(%rbp), %xmm0
 1387      C8
 1388 00f5 7424     		je	.L111
 1389              	.L112:
 501:/home/xingli/share/1205tiny/cJSON/cJSON.c ****         {
 502:/home/xingli/share/1205tiny/cJSON/cJSON.c ****             /* If not, print with 17 decimal places of precision */
 503:/home/xingli/share/1205tiny/cJSON/cJSON.c ****             length = sprintf((char*)number_buffer, "%1.17g", d);
 1390              		.loc 1 503 22
 1391 00f7 488B55C8 		movq	-56(%rbp), %rdx
 1392 00fb 488D45D0 		leaq	-48(%rbp), %rax
 1393 00ff 66480F6E 		movq	%rdx, %xmm0
 1393      C2
 1394 0104 488D3500 		leaq	.LC7(%rip), %rsi
 1394      000000
 1395 010b 4889C7   		movq	%rax, %rdi
 1396 010e B8010000 		movl	$1, %eax
 1396      00
 1397 0113 E8000000 		call	sprintf@PLT
 1397      00
 1398 0118 8945AC   		movl	%eax, -84(%rbp)
 1399              	.L111:
 504:/home/xingli/share/1205tiny/cJSON/cJSON.c ****         }
 505:/home/xingli/share/1205tiny/cJSON/cJSON.c ****     }
 506:/home/xingli/share/1205tiny/cJSON/cJSON.c **** 
 507:/home/xingli/share/1205tiny/cJSON/cJSON.c ****     /* sprintf failed or buffer overrun occured */
 508:/home/xingli/share/1205tiny/cJSON/cJSON.c ****     if ((length < 0) || (length > (int)(sizeof(number_buffer) - 1)))
 1400              		.loc 1 508 8
 1401 011b 837DAC00 		cmpl	$0, -84(%rbp)
 1402 011f 7806     		js	.L114
 1403              		.loc 1 508 22 discriminator 1
 1404 0121 837DAC19 		cmpl	$25, -84(%rbp)
 1405 0125 7E0A     		jle	.L115
 1406              	.L114:
 509:/home/xingli/share/1205tiny/cJSON/cJSON.c ****     {
 510:/home/xingli/share/1205tiny/cJSON/cJSON.c ****         return false;
 1407              		.loc 1 510 16
 1408 0127 B8000000 		movl	$0, %eax
 1408      00
 1409 012c E9B00000 		jmp	.L121
 1409      00
 1410              	.L115:
 511:/home/xingli/share/1205tiny/cJSON/cJSON.c ****     }
 512:/home/xingli/share/1205tiny/cJSON/cJSON.c **** 
 513:/home/xingli/share/1205tiny/cJSON/cJSON.c ****     /* reserve appropriate space in the output */
 514:/home/xingli/share/1205tiny/cJSON/cJSON.c ****     output_pointer = ensure(output_buffer, (size_t)length + sizeof(""));
 1411              		.loc 1 514 44
 1412 0131 8B45AC   		movl	-84(%rbp), %eax
 1413 0134 4898     		cltq
 1414              		.loc 1 514 22
 1415 0136 488D5001 		leaq	1(%rax), %rdx
GAS LISTING /tmp/ccabgRKQ.s 			page 39


 1416 013a 488B4590 		movq	-112(%rbp), %rax
 1417 013e 4889D6   		movq	%rdx, %rsi
 1418 0141 4889C7   		movq	%rax, %rdi
 1419 0144 E8000000 		call	ensure
 1419      00
 1420 0149 488945C0 		movq	%rax, -64(%rbp)
 515:/home/xingli/share/1205tiny/cJSON/cJSON.c ****     if (output_pointer == NULL)
 1421              		.loc 1 515 8
 1422 014d 48837DC0 		cmpq	$0, -64(%rbp)
 1422      00
 1423 0152 750A     		jne	.L116
 516:/home/xingli/share/1205tiny/cJSON/cJSON.c ****     {
 517:/home/xingli/share/1205tiny/cJSON/cJSON.c ****         return false;
 1424              		.loc 1 517 16
 1425 0154 B8000000 		movl	$0, %eax
 1425      00
 1426 0159 E9830000 		jmp	.L121
 1426      00
 1427              	.L116:
 518:/home/xingli/share/1205tiny/cJSON/cJSON.c ****     }
 519:/home/xingli/share/1205tiny/cJSON/cJSON.c **** 
 520:/home/xingli/share/1205tiny/cJSON/cJSON.c ****     /* copy the printed number to the output and replace locale
 521:/home/xingli/share/1205tiny/cJSON/cJSON.c ****      * dependent decimal point with '.' */
 522:/home/xingli/share/1205tiny/cJSON/cJSON.c ****     for (i = 0; i < ((size_t)length); i++)
 1428              		.loc 1 522 12
 1429 015e 48C745B8 		movq	$0, -72(%rbp)
 1429      00000000 
 1430              		.loc 1 522 5
 1431 0166 EB43     		jmp	.L117
 1432              	.L120:
 523:/home/xingli/share/1205tiny/cJSON/cJSON.c ****     {
 524:/home/xingli/share/1205tiny/cJSON/cJSON.c ****         if (number_buffer[i] == decimal_point)
 1433              		.loc 1 524 26
 1434 0168 488D55D0 		leaq	-48(%rbp), %rdx
 1435 016c 488B45B8 		movq	-72(%rbp), %rax
 1436 0170 4801D0   		addq	%rdx, %rax
 1437 0173 0FB600   		movzbl	(%rax), %eax
 1438              		.loc 1 524 12
 1439 0176 3845AB   		cmpb	%al, -85(%rbp)
 1440 0179 7510     		jne	.L118
 525:/home/xingli/share/1205tiny/cJSON/cJSON.c ****         {
 526:/home/xingli/share/1205tiny/cJSON/cJSON.c ****             output_pointer[i] = '.';
 1441              		.loc 1 526 27
 1442 017b 488B55C0 		movq	-64(%rbp), %rdx
 1443 017f 488B45B8 		movq	-72(%rbp), %rax
 1444 0183 4801D0   		addq	%rdx, %rax
 1445              		.loc 1 526 31
 1446 0186 C6002E   		movb	$46, (%rax)
 527:/home/xingli/share/1205tiny/cJSON/cJSON.c ****             continue;
 1447              		.loc 1 527 13
 1448 0189 EB1B     		jmp	.L119
 1449              	.L118:
 528:/home/xingli/share/1205tiny/cJSON/cJSON.c ****         }
 529:/home/xingli/share/1205tiny/cJSON/cJSON.c **** 
 530:/home/xingli/share/1205tiny/cJSON/cJSON.c ****         output_pointer[i] = number_buffer[i];
 1450              		.loc 1 530 23
 1451 018b 488B55C0 		movq	-64(%rbp), %rdx
GAS LISTING /tmp/ccabgRKQ.s 			page 40


 1452 018f 488B45B8 		movq	-72(%rbp), %rax
 1453 0193 4801C2   		addq	%rax, %rdx
 1454              		.loc 1 530 42
 1455 0196 488D4DD0 		leaq	-48(%rbp), %rcx
 1456 019a 488B45B8 		movq	-72(%rbp), %rax
 1457 019e 4801C8   		addq	%rcx, %rax
 1458 01a1 0FB600   		movzbl	(%rax), %eax
 1459              		.loc 1 530 27
 1460 01a4 8802     		movb	%al, (%rdx)
 1461              	.L119:
 522:/home/xingli/share/1205tiny/cJSON/cJSON.c ****     {
 1462              		.loc 1 522 40 discriminator 2
 1463 01a6 488345B8 		addq	$1, -72(%rbp)
 1463      01
 1464              	.L117:
 522:/home/xingli/share/1205tiny/cJSON/cJSON.c ****     {
 1465              		.loc 1 522 22 discriminator 1
 1466 01ab 8B45AC   		movl	-84(%rbp), %eax
 1467 01ae 4898     		cltq
 522:/home/xingli/share/1205tiny/cJSON/cJSON.c ****     {
 1468              		.loc 1 522 5 discriminator 1
 1469 01b0 483945B8 		cmpq	%rax, -72(%rbp)
 1470 01b4 72B2     		jb	.L120
 531:/home/xingli/share/1205tiny/cJSON/cJSON.c ****     }
 532:/home/xingli/share/1205tiny/cJSON/cJSON.c ****     output_pointer[i] = '\0';
 1471              		.loc 1 532 19
 1472 01b6 488B55C0 		movq	-64(%rbp), %rdx
 1473 01ba 488B45B8 		movq	-72(%rbp), %rax
 1474 01be 4801D0   		addq	%rdx, %rax
 1475              		.loc 1 532 23
 1476 01c1 C60000   		movb	$0, (%rax)
 533:/home/xingli/share/1205tiny/cJSON/cJSON.c **** 
 534:/home/xingli/share/1205tiny/cJSON/cJSON.c ****     output_buffer->offset += (size_t)length;
 1477              		.loc 1 534 27
 1478 01c4 488B4590 		movq	-112(%rbp), %rax
 1479 01c8 488B5010 		movq	16(%rax), %rdx
 1480              		.loc 1 534 30
 1481 01cc 8B45AC   		movl	-84(%rbp), %eax
 1482 01cf 4898     		cltq
 1483              		.loc 1 534 27
 1484 01d1 4801C2   		addq	%rax, %rdx
 1485 01d4 488B4590 		movq	-112(%rbp), %rax
 1486 01d8 48895010 		movq	%rdx, 16(%rax)
 535:/home/xingli/share/1205tiny/cJSON/cJSON.c **** 
 536:/home/xingli/share/1205tiny/cJSON/cJSON.c ****     return true;
 1487              		.loc 1 536 12
 1488 01dc B8010000 		movl	$1, %eax
 1488      00
 1489              	.L121:
 537:/home/xingli/share/1205tiny/cJSON/cJSON.c **** }
 1490              		.loc 1 537 1 discriminator 1
 1491 01e1 488B4DF8 		movq	-8(%rbp), %rcx
 1492 01e5 6448330C 		xorq	%fs:40, %rcx
 1492      25280000 
 1492      00
 1493 01ee 7405     		je	.L122
 1494              		.loc 1 537 1 is_stmt 0
GAS LISTING /tmp/ccabgRKQ.s 			page 41


 1495 01f0 E8000000 		call	__stack_chk_fail@PLT
 1495      00
 1496              	.L122:
 1497 01f5 C9       		leave
 1498              	.LCFI41:
 1499              		.cfi_def_cfa 7, 8
 1500 01f6 C3       		ret
 1501              		.cfi_endproc
 1502              	.LFE19:
 1504              		.section	.text.parse_hex4,"ax",@progbits
 1506              	parse_hex4:
 1507              	.LFB20:
 538:/home/xingli/share/1205tiny/cJSON/cJSON.c **** 
 539:/home/xingli/share/1205tiny/cJSON/cJSON.c **** /* parse 4 digit hexadecimal number */
 540:/home/xingli/share/1205tiny/cJSON/cJSON.c **** static unsigned parse_hex4(const unsigned char * const input)
 541:/home/xingli/share/1205tiny/cJSON/cJSON.c **** {
 1508              		.loc 1 541 1 is_stmt 1
 1509              		.cfi_startproc
 1510 0000 F30F1EFA 		endbr64
 1511 0004 55       		pushq	%rbp
 1512              	.LCFI42:
 1513              		.cfi_def_cfa_offset 16
 1514              		.cfi_offset 6, -16
 1515 0005 4889E5   		movq	%rsp, %rbp
 1516              	.LCFI43:
 1517              		.cfi_def_cfa_register 6
 1518 0008 4883EC30 		subq	$48, %rsp
 1519 000c 48897DD8 		movq	%rdi, -40(%rbp)
 1520              		.loc 1 541 1
 1521 0010 64488B04 		movq	%fs:40, %rax
 1521      25280000 
 1521      00
 1522 0019 488945F8 		movq	%rax, -8(%rbp)
 1523 001d 31C0     		xorl	%eax, %eax
 542:/home/xingli/share/1205tiny/cJSON/cJSON.c ****     unsigned int h = 0;
 1524              		.loc 1 542 18
 1525 001f C745EC00 		movl	$0, -20(%rbp)
 1525      000000
 543:/home/xingli/share/1205tiny/cJSON/cJSON.c ****     size_t i = 0;
 1526              		.loc 1 543 12
 1527 0026 48C745F0 		movq	$0, -16(%rbp)
 1527      00000000 
 544:/home/xingli/share/1205tiny/cJSON/cJSON.c **** 
 545:/home/xingli/share/1205tiny/cJSON/cJSON.c ****     for (i = 0; i < 4; i++)
 1528              		.loc 1 545 12
 1529 002e 48C745F0 		movq	$0, -16(%rbp)
 1529      00000000 
 1530              		.loc 1 545 5
 1531 0036 E9E00000 		jmp	.L126
 1531      00
 1532              	.L133:
 546:/home/xingli/share/1205tiny/cJSON/cJSON.c ****     {
 547:/home/xingli/share/1205tiny/cJSON/cJSON.c ****         /* parse digit */
 548:/home/xingli/share/1205tiny/cJSON/cJSON.c ****         if ((input[i] >= '0') && (input[i] <= '9'))
 1533              		.loc 1 548 19
 1534 003b 488B55D8 		movq	-40(%rbp), %rdx
 1535 003f 488B45F0 		movq	-16(%rbp), %rax
GAS LISTING /tmp/ccabgRKQ.s 			page 42


 1536 0043 4801D0   		addq	%rdx, %rax
 1537 0046 0FB600   		movzbl	(%rax), %eax
 1538              		.loc 1 548 12
 1539 0049 3C2F     		cmpb	$47, %al
 1540 004b 7633     		jbe	.L127
 1541              		.loc 1 548 40 discriminator 1
 1542 004d 488B55D8 		movq	-40(%rbp), %rdx
 1543 0051 488B45F0 		movq	-16(%rbp), %rax
 1544 0055 4801D0   		addq	%rdx, %rax
 1545 0058 0FB600   		movzbl	(%rax), %eax
 1546              		.loc 1 548 31 discriminator 1
 1547 005b 3C39     		cmpb	$57, %al
 1548 005d 7721     		ja	.L127
 549:/home/xingli/share/1205tiny/cJSON/cJSON.c ****         {
 550:/home/xingli/share/1205tiny/cJSON/cJSON.c ****             h += (unsigned int) input[i] - '0';
 1549              		.loc 1 550 38
 1550 005f 488B55D8 		movq	-40(%rbp), %rdx
 1551 0063 488B45F0 		movq	-16(%rbp), %rax
 1552 0067 4801D0   		addq	%rdx, %rax
 1553 006a 0FB600   		movzbl	(%rax), %eax
 1554              		.loc 1 550 18
 1555 006d 0FB6D0   		movzbl	%al, %edx
 1556              		.loc 1 550 15
 1557 0070 8B45EC   		movl	-20(%rbp), %eax
 1558 0073 01D0     		addl	%edx, %eax
 1559 0075 83E830   		subl	$48, %eax
 1560 0078 8945EC   		movl	%eax, -20(%rbp)
 1561 007b E98B0000 		jmp	.L128
 1561      00
 1562              	.L127:
 551:/home/xingli/share/1205tiny/cJSON/cJSON.c ****         }
 552:/home/xingli/share/1205tiny/cJSON/cJSON.c ****         else if ((input[i] >= 'A') && (input[i] <= 'F'))
 1563              		.loc 1 552 24
 1564 0080 488B55D8 		movq	-40(%rbp), %rdx
 1565 0084 488B45F0 		movq	-16(%rbp), %rax
 1566 0088 4801D0   		addq	%rdx, %rax
 1567 008b 0FB600   		movzbl	(%rax), %eax
 1568              		.loc 1 552 17
 1569 008e 3C40     		cmpb	$64, %al
 1570 0090 7630     		jbe	.L129
 1571              		.loc 1 552 45 discriminator 1
 1572 0092 488B55D8 		movq	-40(%rbp), %rdx
 1573 0096 488B45F0 		movq	-16(%rbp), %rax
 1574 009a 4801D0   		addq	%rdx, %rax
 1575 009d 0FB600   		movzbl	(%rax), %eax
 1576              		.loc 1 552 36 discriminator 1
 1577 00a0 3C46     		cmpb	$70, %al
 1578 00a2 771E     		ja	.L129
 553:/home/xingli/share/1205tiny/cJSON/cJSON.c ****         {
 554:/home/xingli/share/1205tiny/cJSON/cJSON.c ****             h += (unsigned int) 10 + input[i] - 'A';
 1579              		.loc 1 554 43
 1580 00a4 488B55D8 		movq	-40(%rbp), %rdx
 1581 00a8 488B45F0 		movq	-16(%rbp), %rax
 1582 00ac 4801D0   		addq	%rdx, %rax
 1583 00af 0FB600   		movzbl	(%rax), %eax
 1584 00b2 0FB6D0   		movzbl	%al, %edx
 1585              		.loc 1 554 15
GAS LISTING /tmp/ccabgRKQ.s 			page 43


 1586 00b5 8B45EC   		movl	-20(%rbp), %eax
 1587 00b8 01D0     		addl	%edx, %eax
 1588 00ba 83E837   		subl	$55, %eax
 1589 00bd 8945EC   		movl	%eax, -20(%rbp)
 1590 00c0 EB49     		jmp	.L128
 1591              	.L129:
 555:/home/xingli/share/1205tiny/cJSON/cJSON.c ****         }
 556:/home/xingli/share/1205tiny/cJSON/cJSON.c ****         else if ((input[i] >= 'a') && (input[i] <= 'f'))
 1592              		.loc 1 556 24
 1593 00c2 488B55D8 		movq	-40(%rbp), %rdx
 1594 00c6 488B45F0 		movq	-16(%rbp), %rax
 1595 00ca 4801D0   		addq	%rdx, %rax
 1596 00cd 0FB600   		movzbl	(%rax), %eax
 1597              		.loc 1 556 17
 1598 00d0 3C60     		cmpb	$96, %al
 1599 00d2 7630     		jbe	.L130
 1600              		.loc 1 556 45 discriminator 1
 1601 00d4 488B55D8 		movq	-40(%rbp), %rdx
 1602 00d8 488B45F0 		movq	-16(%rbp), %rax
 1603 00dc 4801D0   		addq	%rdx, %rax
 1604 00df 0FB600   		movzbl	(%rax), %eax
 1605              		.loc 1 556 36 discriminator 1
 1606 00e2 3C66     		cmpb	$102, %al
 1607 00e4 771E     		ja	.L130
 557:/home/xingli/share/1205tiny/cJSON/cJSON.c ****         {
 558:/home/xingli/share/1205tiny/cJSON/cJSON.c ****             h += (unsigned int) 10 + input[i] - 'a';
 1608              		.loc 1 558 43
 1609 00e6 488B55D8 		movq	-40(%rbp), %rdx
 1610 00ea 488B45F0 		movq	-16(%rbp), %rax
 1611 00ee 4801D0   		addq	%rdx, %rax
 1612 00f1 0FB600   		movzbl	(%rax), %eax
 1613 00f4 0FB6D0   		movzbl	%al, %edx
 1614              		.loc 1 558 15
 1615 00f7 8B45EC   		movl	-20(%rbp), %eax
 1616 00fa 01D0     		addl	%edx, %eax
 1617 00fc 83E857   		subl	$87, %eax
 1618 00ff 8945EC   		movl	%eax, -20(%rbp)
 1619 0102 EB07     		jmp	.L128
 1620              	.L130:
 559:/home/xingli/share/1205tiny/cJSON/cJSON.c ****         }
 560:/home/xingli/share/1205tiny/cJSON/cJSON.c ****         else /* invalid */
 561:/home/xingli/share/1205tiny/cJSON/cJSON.c ****         {
 562:/home/xingli/share/1205tiny/cJSON/cJSON.c ****             return 0;
 1621              		.loc 1 562 20
 1622 0104 B8000000 		movl	$0, %eax
 1622      00
 1623 0109 EB1E     		jmp	.L131
 1624              	.L128:
 563:/home/xingli/share/1205tiny/cJSON/cJSON.c ****         }
 564:/home/xingli/share/1205tiny/cJSON/cJSON.c **** 
 565:/home/xingli/share/1205tiny/cJSON/cJSON.c ****         if (i < 3)
 1625              		.loc 1 565 12
 1626 010b 48837DF0 		cmpq	$2, -16(%rbp)
 1626      02
 1627 0110 7704     		ja	.L132
 566:/home/xingli/share/1205tiny/cJSON/cJSON.c ****         {
 567:/home/xingli/share/1205tiny/cJSON/cJSON.c ****             /* shift left to make place for the next nibble */
GAS LISTING /tmp/ccabgRKQ.s 			page 44


 568:/home/xingli/share/1205tiny/cJSON/cJSON.c ****             h = h << 4;
 1628              		.loc 1 568 15
 1629 0112 C165EC04 		sall	$4, -20(%rbp)
 1630              	.L132:
 545:/home/xingli/share/1205tiny/cJSON/cJSON.c ****     {
 1631              		.loc 1 545 25 discriminator 2
 1632 0116 488345F0 		addq	$1, -16(%rbp)
 1632      01
 1633              	.L126:
 545:/home/xingli/share/1205tiny/cJSON/cJSON.c ****     {
 1634              		.loc 1 545 5 discriminator 1
 1635 011b 48837DF0 		cmpq	$3, -16(%rbp)
 1635      03
 1636 0120 0F8615FF 		jbe	.L133
 1636      FFFF
 569:/home/xingli/share/1205tiny/cJSON/cJSON.c ****         }
 570:/home/xingli/share/1205tiny/cJSON/cJSON.c ****     }
 571:/home/xingli/share/1205tiny/cJSON/cJSON.c **** 
 572:/home/xingli/share/1205tiny/cJSON/cJSON.c ****     return h;
 1637              		.loc 1 572 12
 1638 0126 8B45EC   		movl	-20(%rbp), %eax
 1639              	.L131:
 573:/home/xingli/share/1205tiny/cJSON/cJSON.c **** }
 1640              		.loc 1 573 1
 1641 0129 488B4DF8 		movq	-8(%rbp), %rcx
 1642 012d 6448330C 		xorq	%fs:40, %rcx
 1642      25280000 
 1642      00
 1643 0136 7405     		je	.L134
 1644 0138 E8000000 		call	__stack_chk_fail@PLT
 1644      00
 1645              	.L134:
 1646 013d C9       		leave
 1647              	.LCFI44:
 1648              		.cfi_def_cfa 7, 8
 1649 013e C3       		ret
 1650              		.cfi_endproc
 1651              	.LFE20:
 1653              		.section	.text.utf16_literal_to_utf8,"ax",@progbits
 1655              	utf16_literal_to_utf8:
 1656              	.LFB21:
 574:/home/xingli/share/1205tiny/cJSON/cJSON.c **** 
 575:/home/xingli/share/1205tiny/cJSON/cJSON.c **** /* converts a UTF-16 literal to UTF-8
 576:/home/xingli/share/1205tiny/cJSON/cJSON.c ****  * A literal can be one or two sequences of the form \uXXXX */
 577:/home/xingli/share/1205tiny/cJSON/cJSON.c **** static unsigned char utf16_literal_to_utf8(const unsigned char * const input_pointer, const unsigne
 578:/home/xingli/share/1205tiny/cJSON/cJSON.c **** {
 1657              		.loc 1 578 1
 1658              		.cfi_startproc
 1659 0000 F30F1EFA 		endbr64
 1660 0004 55       		pushq	%rbp
 1661              	.LCFI45:
 1662              		.cfi_def_cfa_offset 16
 1663              		.cfi_offset 6, -16
 1664 0005 4889E5   		movq	%rsp, %rbp
 1665              	.LCFI46:
 1666              		.cfi_def_cfa_register 6
 1667 0008 4883EC50 		subq	$80, %rsp
GAS LISTING /tmp/ccabgRKQ.s 			page 45


 1668 000c 48897DC8 		movq	%rdi, -56(%rbp)
 1669 0010 488975C0 		movq	%rsi, -64(%rbp)
 1670 0014 488955B8 		movq	%rdx, -72(%rbp)
 1671              		.loc 1 578 1
 1672 0018 64488B04 		movq	%fs:40, %rax
 1672      25280000 
 1672      00
 1673 0021 488945F8 		movq	%rax, -8(%rbp)
 1674 0025 31C0     		xorl	%eax, %eax
 579:/home/xingli/share/1205tiny/cJSON/cJSON.c ****     long unsigned int codepoint = 0;
 1675              		.loc 1 579 23
 1676 0027 48C745E0 		movq	$0, -32(%rbp)
 1676      00000000 
 580:/home/xingli/share/1205tiny/cJSON/cJSON.c ****     unsigned int first_code = 0;
 1677              		.loc 1 580 18
 1678 002f C745D800 		movl	$0, -40(%rbp)
 1678      000000
 581:/home/xingli/share/1205tiny/cJSON/cJSON.c ****     const unsigned char *first_sequence = input_pointer;
 1679              		.loc 1 581 26
 1680 0036 488B45C8 		movq	-56(%rbp), %rax
 1681 003a 488945E8 		movq	%rax, -24(%rbp)
 582:/home/xingli/share/1205tiny/cJSON/cJSON.c ****     unsigned char utf8_length = 0;
 1682              		.loc 1 582 19
 1683 003e C645D400 		movb	$0, -44(%rbp)
 583:/home/xingli/share/1205tiny/cJSON/cJSON.c ****     unsigned char utf8_position = 0;
 1684              		.loc 1 583 19
 1685 0042 C645D500 		movb	$0, -43(%rbp)
 584:/home/xingli/share/1205tiny/cJSON/cJSON.c ****     unsigned char sequence_length = 0;
 1686              		.loc 1 584 19
 1687 0046 C645D600 		movb	$0, -42(%rbp)
 585:/home/xingli/share/1205tiny/cJSON/cJSON.c ****     unsigned char first_byte_mark = 0;
 1688              		.loc 1 585 19
 1689 004a C645D700 		movb	$0, -41(%rbp)
 586:/home/xingli/share/1205tiny/cJSON/cJSON.c **** 
 587:/home/xingli/share/1205tiny/cJSON/cJSON.c ****     if ((input_end - first_sequence) < 6)
 1690              		.loc 1 587 20
 1691 004e 488B45C0 		movq	-64(%rbp), %rax
 1692 0052 482B45E8 		subq	-24(%rbp), %rax
 1693              		.loc 1 587 8
 1694 0056 4883F805 		cmpq	$5, %rax
 1695 005a 0F8EBB01 		jle	.L157
 1695      0000
 588:/home/xingli/share/1205tiny/cJSON/cJSON.c ****     {
 589:/home/xingli/share/1205tiny/cJSON/cJSON.c ****         /* input ends unexpectedly */
 590:/home/xingli/share/1205tiny/cJSON/cJSON.c ****         goto fail;
 591:/home/xingli/share/1205tiny/cJSON/cJSON.c ****     }
 592:/home/xingli/share/1205tiny/cJSON/cJSON.c **** 
 593:/home/xingli/share/1205tiny/cJSON/cJSON.c ****     /* get the first utf16 sequence */
 594:/home/xingli/share/1205tiny/cJSON/cJSON.c ****     first_code = parse_hex4(first_sequence + 2);
 1696              		.loc 1 594 18
 1697 0060 488B45E8 		movq	-24(%rbp), %rax
 1698 0064 4883C002 		addq	$2, %rax
 1699 0068 4889C7   		movq	%rax, %rdi
 1700 006b E8000000 		call	parse_hex4
 1700      00
 1701 0070 8945D8   		movl	%eax, -40(%rbp)
 595:/home/xingli/share/1205tiny/cJSON/cJSON.c **** 
GAS LISTING /tmp/ccabgRKQ.s 			page 46


 596:/home/xingli/share/1205tiny/cJSON/cJSON.c ****     /* check that the code is valid */
 597:/home/xingli/share/1205tiny/cJSON/cJSON.c ****     if (((first_code >= 0xDC00) && (first_code <= 0xDFFF)))
 1702              		.loc 1 597 8
 1703 0073 817DD8FF 		cmpl	$56319, -40(%rbp)
 1703      DB0000
 1704 007a 760D     		jbe	.L138
 1705              		.loc 1 597 33 discriminator 1
 1706 007c 817DD8FF 		cmpl	$57343, -40(%rbp)
 1706      DF0000
 1707 0083 0F869501 		jbe	.L158
 1707      0000
 1708              	.L138:
 598:/home/xingli/share/1205tiny/cJSON/cJSON.c ****     {
 599:/home/xingli/share/1205tiny/cJSON/cJSON.c ****         goto fail;
 600:/home/xingli/share/1205tiny/cJSON/cJSON.c ****     }
 601:/home/xingli/share/1205tiny/cJSON/cJSON.c **** 
 602:/home/xingli/share/1205tiny/cJSON/cJSON.c ****     /* UTF16 surrogate pair */
 603:/home/xingli/share/1205tiny/cJSON/cJSON.c ****     if ((first_code >= 0xD800) && (first_code <= 0xDBFF))
 1709              		.loc 1 603 8
 1710 0089 817DD8FF 		cmpl	$55295, -40(%rbp)
 1710      D70000
 1711 0090 0F86A900 		jbe	.L139
 1711      0000
 1712              		.loc 1 603 32 discriminator 1
 1713 0096 817DD8FF 		cmpl	$56319, -40(%rbp)
 1713      DB0000
 1714 009d 0F879C00 		ja	.L139
 1714      0000
 1715              	.LBB2:
 604:/home/xingli/share/1205tiny/cJSON/cJSON.c ****     {
 605:/home/xingli/share/1205tiny/cJSON/cJSON.c ****         const unsigned char *second_sequence = first_sequence + 6;
 1716              		.loc 1 605 30
 1717 00a3 488B45E8 		movq	-24(%rbp), %rax
 1718 00a7 4883C006 		addq	$6, %rax
 1719 00ab 488945F0 		movq	%rax, -16(%rbp)
 606:/home/xingli/share/1205tiny/cJSON/cJSON.c ****         unsigned int second_code = 0;
 1720              		.loc 1 606 22
 1721 00af C745DC00 		movl	$0, -36(%rbp)
 1721      000000
 607:/home/xingli/share/1205tiny/cJSON/cJSON.c ****         sequence_length = 12; /* \uXXXX\uXXXX */
 1722              		.loc 1 607 25
 1723 00b6 C645D60C 		movb	$12, -42(%rbp)
 608:/home/xingli/share/1205tiny/cJSON/cJSON.c **** 
 609:/home/xingli/share/1205tiny/cJSON/cJSON.c ****         if ((input_end - second_sequence) < 6)
 1724              		.loc 1 609 24
 1725 00ba 488B45C0 		movq	-64(%rbp), %rax
 1726 00be 482B45F0 		subq	-16(%rbp), %rax
 1727              		.loc 1 609 12
 1728 00c2 4883F805 		cmpq	$5, %rax
 1729 00c6 0F8E5501 		jle	.L159
 1729      0000
 610:/home/xingli/share/1205tiny/cJSON/cJSON.c ****         {
 611:/home/xingli/share/1205tiny/cJSON/cJSON.c ****             /* input ends unexpectedly */
 612:/home/xingli/share/1205tiny/cJSON/cJSON.c ****             goto fail;
 613:/home/xingli/share/1205tiny/cJSON/cJSON.c ****         }
 614:/home/xingli/share/1205tiny/cJSON/cJSON.c **** 
 615:/home/xingli/share/1205tiny/cJSON/cJSON.c ****         if ((second_sequence[0] != '\\') || (second_sequence[1] != 'u'))
GAS LISTING /tmp/ccabgRKQ.s 			page 47


 1730              		.loc 1 615 29
 1731 00cc 488B45F0 		movq	-16(%rbp), %rax
 1732 00d0 0FB600   		movzbl	(%rax), %eax
 1733              		.loc 1 615 12
 1734 00d3 3C5C     		cmpb	$92, %al
 1735 00d5 0F854901 		jne	.L160
 1735      0000
 1736              		.loc 1 615 61 discriminator 1
 1737 00db 488B45F0 		movq	-16(%rbp), %rax
 1738 00df 4883C001 		addq	$1, %rax
 1739 00e3 0FB600   		movzbl	(%rax), %eax
 1740              		.loc 1 615 42 discriminator 1
 1741 00e6 3C75     		cmpb	$117, %al
 1742 00e8 0F853601 		jne	.L160
 1742      0000
 616:/home/xingli/share/1205tiny/cJSON/cJSON.c ****         {
 617:/home/xingli/share/1205tiny/cJSON/cJSON.c ****             /* missing second half of the surrogate pair */
 618:/home/xingli/share/1205tiny/cJSON/cJSON.c ****             goto fail;
 619:/home/xingli/share/1205tiny/cJSON/cJSON.c ****         }
 620:/home/xingli/share/1205tiny/cJSON/cJSON.c **** 
 621:/home/xingli/share/1205tiny/cJSON/cJSON.c ****         /* get the second utf16 sequence */
 622:/home/xingli/share/1205tiny/cJSON/cJSON.c ****         second_code = parse_hex4(second_sequence + 2);
 1743              		.loc 1 622 23
 1744 00ee 488B45F0 		movq	-16(%rbp), %rax
 1745 00f2 4883C002 		addq	$2, %rax
 1746 00f6 4889C7   		movq	%rax, %rdi
 1747 00f9 E8000000 		call	parse_hex4
 1747      00
 1748 00fe 8945DC   		movl	%eax, -36(%rbp)
 623:/home/xingli/share/1205tiny/cJSON/cJSON.c ****         /* check that the code is valid */
 624:/home/xingli/share/1205tiny/cJSON/cJSON.c ****         if ((second_code < 0xDC00) || (second_code > 0xDFFF))
 1749              		.loc 1 624 12
 1750 0101 817DDCFF 		cmpl	$56319, -36(%rbp)
 1750      DB0000
 1751 0108 0F861901 		jbe	.L161
 1751      0000
 1752              		.loc 1 624 36 discriminator 1
 1753 010e 817DDCFF 		cmpl	$57343, -36(%rbp)
 1753      DF0000
 1754 0115 0F870C01 		ja	.L161
 1754      0000
 625:/home/xingli/share/1205tiny/cJSON/cJSON.c ****         {
 626:/home/xingli/share/1205tiny/cJSON/cJSON.c ****             /* invalid second half of the surrogate pair */
 627:/home/xingli/share/1205tiny/cJSON/cJSON.c ****             goto fail;
 628:/home/xingli/share/1205tiny/cJSON/cJSON.c ****         }
 629:/home/xingli/share/1205tiny/cJSON/cJSON.c **** 
 630:/home/xingli/share/1205tiny/cJSON/cJSON.c **** 
 631:/home/xingli/share/1205tiny/cJSON/cJSON.c ****         /* calculate the unicode codepoint from the surrogate pair */
 632:/home/xingli/share/1205tiny/cJSON/cJSON.c ****         codepoint = 0x10000 + (((first_code & 0x3FF) << 10) | (second_code & 0x3FF));
 1755              		.loc 1 632 54
 1756 011b 8B45D8   		movl	-40(%rbp), %eax
 1757 011e C1E00A   		sall	$10, %eax
 1758 0121 2500FC0F 		andl	$1047552, %eax
 1758      00
 1759 0126 89C2     		movl	%eax, %edx
 1760              		.loc 1 632 76
 1761 0128 8B45DC   		movl	-36(%rbp), %eax
GAS LISTING /tmp/ccabgRKQ.s 			page 48


 1762 012b 25FF0300 		andl	$1023, %eax
 1762      00
 1763              		.loc 1 632 61
 1764 0130 09D0     		orl	%edx, %eax
 1765              		.loc 1 632 29
 1766 0132 05000001 		addl	$65536, %eax
 1766      00
 1767              		.loc 1 632 19
 1768 0137 89C0     		movl	%eax, %eax
 1769 0139 488945E0 		movq	%rax, -32(%rbp)
 1770              	.LBE2:
 604:/home/xingli/share/1205tiny/cJSON/cJSON.c ****         const unsigned char *second_sequence = first_sequence + 6;
 1771              		.loc 1 604 5
 1772 013d EB0B     		jmp	.L145
 1773              	.L139:
 633:/home/xingli/share/1205tiny/cJSON/cJSON.c ****     }
 634:/home/xingli/share/1205tiny/cJSON/cJSON.c ****     else
 635:/home/xingli/share/1205tiny/cJSON/cJSON.c ****     {
 636:/home/xingli/share/1205tiny/cJSON/cJSON.c ****         sequence_length = 6; /* \uXXXX */
 1774              		.loc 1 636 25
 1775 013f C645D606 		movb	$6, -42(%rbp)
 637:/home/xingli/share/1205tiny/cJSON/cJSON.c ****         codepoint = first_code;
 1776              		.loc 1 637 19
 1777 0143 8B45D8   		movl	-40(%rbp), %eax
 1778 0146 488945E0 		movq	%rax, -32(%rbp)
 1779              	.L145:
 638:/home/xingli/share/1205tiny/cJSON/cJSON.c ****     }
 639:/home/xingli/share/1205tiny/cJSON/cJSON.c **** 
 640:/home/xingli/share/1205tiny/cJSON/cJSON.c ****     /* encode as UTF-8
 641:/home/xingli/share/1205tiny/cJSON/cJSON.c ****      * takes at maximum 4 bytes to encode:
 642:/home/xingli/share/1205tiny/cJSON/cJSON.c ****      * 11110xxx 10xxxxxx 10xxxxxx 10xxxxxx */
 643:/home/xingli/share/1205tiny/cJSON/cJSON.c ****     if (codepoint < 0x80)
 1780              		.loc 1 643 8
 1781 014a 48837DE0 		cmpq	$127, -32(%rbp)
 1781      7F
 1782 014f 7706     		ja	.L146
 644:/home/xingli/share/1205tiny/cJSON/cJSON.c ****     {
 645:/home/xingli/share/1205tiny/cJSON/cJSON.c ****         /* normal ascii, encoding 0xxxxxxx */
 646:/home/xingli/share/1205tiny/cJSON/cJSON.c ****         utf8_length = 1;
 1783              		.loc 1 646 21
 1784 0151 C645D401 		movb	$1, -44(%rbp)
 1785 0155 EB3E     		jmp	.L147
 1786              	.L146:
 647:/home/xingli/share/1205tiny/cJSON/cJSON.c ****     }
 648:/home/xingli/share/1205tiny/cJSON/cJSON.c ****     else if (codepoint < 0x800)
 1787              		.loc 1 648 13
 1788 0157 48817DE0 		cmpq	$2047, -32(%rbp)
 1788      FF070000 
 1789 015f 770A     		ja	.L148
 649:/home/xingli/share/1205tiny/cJSON/cJSON.c ****     {
 650:/home/xingli/share/1205tiny/cJSON/cJSON.c ****         /* two bytes, encoding 110xxxxx 10xxxxxx */
 651:/home/xingli/share/1205tiny/cJSON/cJSON.c ****         utf8_length = 2;
 1790              		.loc 1 651 21
 1791 0161 C645D402 		movb	$2, -44(%rbp)
 652:/home/xingli/share/1205tiny/cJSON/cJSON.c ****         first_byte_mark = 0xC0; /* 11000000 */
 1792              		.loc 1 652 25
 1793 0165 C645D7C0 		movb	$-64, -41(%rbp)
GAS LISTING /tmp/ccabgRKQ.s 			page 49


 1794 0169 EB2A     		jmp	.L147
 1795              	.L148:
 653:/home/xingli/share/1205tiny/cJSON/cJSON.c ****     }
 654:/home/xingli/share/1205tiny/cJSON/cJSON.c ****     else if (codepoint < 0x10000)
 1796              		.loc 1 654 13
 1797 016b 48817DE0 		cmpq	$65535, -32(%rbp)
 1797      FFFF0000 
 1798 0173 770A     		ja	.L149
 655:/home/xingli/share/1205tiny/cJSON/cJSON.c ****     {
 656:/home/xingli/share/1205tiny/cJSON/cJSON.c ****         /* three bytes, encoding 1110xxxx 10xxxxxx 10xxxxxx */
 657:/home/xingli/share/1205tiny/cJSON/cJSON.c ****         utf8_length = 3;
 1799              		.loc 1 657 21
 1800 0175 C645D403 		movb	$3, -44(%rbp)
 658:/home/xingli/share/1205tiny/cJSON/cJSON.c ****         first_byte_mark = 0xE0; /* 11100000 */
 1801              		.loc 1 658 25
 1802 0179 C645D7E0 		movb	$-32, -41(%rbp)
 1803 017d EB16     		jmp	.L147
 1804              	.L149:
 659:/home/xingli/share/1205tiny/cJSON/cJSON.c ****     }
 660:/home/xingli/share/1205tiny/cJSON/cJSON.c ****     else if (codepoint <= 0x10FFFF)
 1805              		.loc 1 660 13
 1806 017f 48817DE0 		cmpq	$1114111, -32(%rbp)
 1806      FFFF1000 
 1807 0187 0F879D00 		ja	.L162
 1807      0000
 661:/home/xingli/share/1205tiny/cJSON/cJSON.c ****     {
 662:/home/xingli/share/1205tiny/cJSON/cJSON.c ****         /* four bytes, encoding 1110xxxx 10xxxxxx 10xxxxxx 10xxxxxx */
 663:/home/xingli/share/1205tiny/cJSON/cJSON.c ****         utf8_length = 4;
 1808              		.loc 1 663 21
 1809 018d C645D404 		movb	$4, -44(%rbp)
 664:/home/xingli/share/1205tiny/cJSON/cJSON.c ****         first_byte_mark = 0xF0; /* 11110000 */
 1810              		.loc 1 664 25
 1811 0191 C645D7F0 		movb	$-16, -41(%rbp)
 1812              	.L147:
 665:/home/xingli/share/1205tiny/cJSON/cJSON.c ****     }
 666:/home/xingli/share/1205tiny/cJSON/cJSON.c ****     else
 667:/home/xingli/share/1205tiny/cJSON/cJSON.c ****     {
 668:/home/xingli/share/1205tiny/cJSON/cJSON.c ****         /* invalid unicode codepoint */
 669:/home/xingli/share/1205tiny/cJSON/cJSON.c ****         goto fail;
 670:/home/xingli/share/1205tiny/cJSON/cJSON.c ****     }
 671:/home/xingli/share/1205tiny/cJSON/cJSON.c **** 
 672:/home/xingli/share/1205tiny/cJSON/cJSON.c ****     /* encode as utf8 */
 673:/home/xingli/share/1205tiny/cJSON/cJSON.c ****     for (utf8_position = (unsigned char)(utf8_length - 1); utf8_position > 0; utf8_position--)
 1813              		.loc 1 673 24
 1814 0195 0FB645D4 		movzbl	-44(%rbp), %eax
 1815 0199 83E801   		subl	$1, %eax
 1816 019c 8845D5   		movb	%al, -43(%rbp)
 1817              		.loc 1 673 5
 1818 019f EB2D     		jmp	.L151
 1819              	.L152:
 674:/home/xingli/share/1205tiny/cJSON/cJSON.c ****     {
 675:/home/xingli/share/1205tiny/cJSON/cJSON.c ****         /* 10xxxxxx */
 676:/home/xingli/share/1205tiny/cJSON/cJSON.c ****         (*output_pointer)[utf8_position] = (unsigned char)((codepoint | 0x80) & 0xBF);
 1820              		.loc 1 676 79 discriminator 3
 1821 01a1 488B45E0 		movq	-32(%rbp), %rax
 1822 01a5 83E03F   		andl	$63, %eax
 1823 01a8 89C1     		movl	%eax, %ecx
GAS LISTING /tmp/ccabgRKQ.s 			page 50


 1824              		.loc 1 676 10 discriminator 3
 1825 01aa 488B45B8 		movq	-72(%rbp), %rax
 1826 01ae 488B10   		movq	(%rax), %rdx
 1827              		.loc 1 676 26 discriminator 3
 1828 01b1 0FB645D5 		movzbl	-43(%rbp), %eax
 1829 01b5 4801D0   		addq	%rdx, %rax
 1830              		.loc 1 676 44 discriminator 3
 1831 01b8 83C980   		orl	$-128, %ecx
 1832 01bb 89CA     		movl	%ecx, %edx
 1833              		.loc 1 676 42 discriminator 3
 1834 01bd 8810     		movb	%dl, (%rax)
 677:/home/xingli/share/1205tiny/cJSON/cJSON.c ****         codepoint >>= 6;
 1835              		.loc 1 677 19 discriminator 3
 1836 01bf 48C16DE0 		shrq	$6, -32(%rbp)
 1836      06
 673:/home/xingli/share/1205tiny/cJSON/cJSON.c ****     {
 1837              		.loc 1 673 92 discriminator 3
 1838 01c4 0FB645D5 		movzbl	-43(%rbp), %eax
 1839 01c8 83E801   		subl	$1, %eax
 1840 01cb 8845D5   		movb	%al, -43(%rbp)
 1841              	.L151:
 673:/home/xingli/share/1205tiny/cJSON/cJSON.c ****     {
 1842              		.loc 1 673 5 discriminator 1
 1843 01ce 807DD500 		cmpb	$0, -43(%rbp)
 1844 01d2 75CD     		jne	.L152
 678:/home/xingli/share/1205tiny/cJSON/cJSON.c ****     }
 679:/home/xingli/share/1205tiny/cJSON/cJSON.c ****     /* encode first byte */
 680:/home/xingli/share/1205tiny/cJSON/cJSON.c ****     if (utf8_length > 1)
 1845              		.loc 1 680 8
 1846 01d4 807DD401 		cmpb	$1, -44(%rbp)
 1847 01d8 7614     		jbe	.L153
 681:/home/xingli/share/1205tiny/cJSON/cJSON.c ****     {
 682:/home/xingli/share/1205tiny/cJSON/cJSON.c ****         (*output_pointer)[0] = (unsigned char)((codepoint | first_byte_mark) & 0xFF);
 1848              		.loc 1 682 32
 1849 01da 488B45E0 		movq	-32(%rbp), %rax
 1850 01de 89C2     		movl	%eax, %edx
 1851              		.loc 1 682 10
 1852 01e0 488B45B8 		movq	-72(%rbp), %rax
 1853 01e4 488B00   		movq	(%rax), %rax
 1854              		.loc 1 682 32
 1855 01e7 0A55D7   		orb	-41(%rbp), %dl
 1856              		.loc 1 682 30
 1857 01ea 8810     		movb	%dl, (%rax)
 1858 01ec EB12     		jmp	.L154
 1859              	.L153:
 683:/home/xingli/share/1205tiny/cJSON/cJSON.c ****     }
 684:/home/xingli/share/1205tiny/cJSON/cJSON.c ****     else
 685:/home/xingli/share/1205tiny/cJSON/cJSON.c ****     {
 686:/home/xingli/share/1205tiny/cJSON/cJSON.c ****         (*output_pointer)[0] = (unsigned char)(codepoint & 0x7F);
 1860              		.loc 1 686 32
 1861 01ee 488B45E0 		movq	-32(%rbp), %rax
 1862 01f2 89C2     		movl	%eax, %edx
 1863              		.loc 1 686 10
 1864 01f4 488B45B8 		movq	-72(%rbp), %rax
 1865 01f8 488B00   		movq	(%rax), %rax
 1866              		.loc 1 686 32
 1867 01fb 83E27F   		andl	$127, %edx
GAS LISTING /tmp/ccabgRKQ.s 			page 51


 1868              		.loc 1 686 30
 1869 01fe 8810     		movb	%dl, (%rax)
 1870              	.L154:
 687:/home/xingli/share/1205tiny/cJSON/cJSON.c ****     }
 688:/home/xingli/share/1205tiny/cJSON/cJSON.c **** 
 689:/home/xingli/share/1205tiny/cJSON/cJSON.c ****     *output_pointer += utf8_length;
 1871              		.loc 1 689 21
 1872 0200 488B45B8 		movq	-72(%rbp), %rax
 1873 0204 488B10   		movq	(%rax), %rdx
 1874 0207 0FB645D4 		movzbl	-44(%rbp), %eax
 1875 020b 4801C2   		addq	%rax, %rdx
 1876 020e 488B45B8 		movq	-72(%rbp), %rax
 1877 0212 488910   		movq	%rdx, (%rax)
 690:/home/xingli/share/1205tiny/cJSON/cJSON.c **** 
 691:/home/xingli/share/1205tiny/cJSON/cJSON.c ****     return sequence_length;
 1878              		.loc 1 691 12
 1879 0215 0FB645D6 		movzbl	-42(%rbp), %eax
 1880 0219 EB15     		jmp	.L155
 1881              	.L157:
 590:/home/xingli/share/1205tiny/cJSON/cJSON.c ****     }
 1882              		.loc 1 590 9
 1883 021b 90       		nop
 1884 021c EB0D     		jmp	.L137
 1885              	.L158:
 599:/home/xingli/share/1205tiny/cJSON/cJSON.c ****     }
 1886              		.loc 1 599 9
 1887 021e 90       		nop
 1888 021f EB0A     		jmp	.L137
 1889              	.L159:
 1890              	.LBB3:
 612:/home/xingli/share/1205tiny/cJSON/cJSON.c ****         }
 1891              		.loc 1 612 13
 1892 0221 90       		nop
 1893 0222 EB07     		jmp	.L137
 1894              	.L160:
 618:/home/xingli/share/1205tiny/cJSON/cJSON.c ****         }
 1895              		.loc 1 618 13
 1896 0224 90       		nop
 1897 0225 EB04     		jmp	.L137
 1898              	.L161:
 627:/home/xingli/share/1205tiny/cJSON/cJSON.c ****         }
 1899              		.loc 1 627 13
 1900 0227 90       		nop
 1901 0228 EB01     		jmp	.L137
 1902              	.L162:
 1903              	.LBE3:
 669:/home/xingli/share/1205tiny/cJSON/cJSON.c ****     }
 1904              		.loc 1 669 9
 1905 022a 90       		nop
 1906              	.L137:
 692:/home/xingli/share/1205tiny/cJSON/cJSON.c **** 
 693:/home/xingli/share/1205tiny/cJSON/cJSON.c **** fail:
 694:/home/xingli/share/1205tiny/cJSON/cJSON.c ****     return 0;
 1907              		.loc 1 694 12
 1908 022b B8000000 		movl	$0, %eax
 1908      00
 1909              	.L155:
GAS LISTING /tmp/ccabgRKQ.s 			page 52


 695:/home/xingli/share/1205tiny/cJSON/cJSON.c **** }
 1910              		.loc 1 695 1
 1911 0230 488B75F8 		movq	-8(%rbp), %rsi
 1912 0234 64483334 		xorq	%fs:40, %rsi
 1912      25280000 
 1912      00
 1913 023d 7405     		je	.L156
 1914 023f E8000000 		call	__stack_chk_fail@PLT
 1914      00
 1915              	.L156:
 1916 0244 C9       		leave
 1917              	.LCFI47:
 1918              		.cfi_def_cfa 7, 8
 1919 0245 C3       		ret
 1920              		.cfi_endproc
 1921              	.LFE21:
 1923              		.section	.text.parse_string,"ax",@progbits
 1925              	parse_string:
 1926              	.LFB22:
 696:/home/xingli/share/1205tiny/cJSON/cJSON.c **** 
 697:/home/xingli/share/1205tiny/cJSON/cJSON.c **** /* Parse the input text into an unescaped cinput, and populate item. */
 698:/home/xingli/share/1205tiny/cJSON/cJSON.c **** static cJSON_bool parse_string(cJSON * const item, parse_buffer * const input_buffer)
 699:/home/xingli/share/1205tiny/cJSON/cJSON.c **** {
 1927              		.loc 1 699 1
 1928              		.cfi_startproc
 1929 0000 F30F1EFA 		endbr64
 1930 0004 55       		pushq	%rbp
 1931              	.LCFI48:
 1932              		.cfi_def_cfa_offset 16
 1933              		.cfi_offset 6, -16
 1934 0005 4889E5   		movq	%rsp, %rbp
 1935              	.LCFI49:
 1936              		.cfi_def_cfa_register 6
 1937 0008 4883EC50 		subq	$80, %rsp
 1938 000c 48897DB8 		movq	%rdi, -72(%rbp)
 1939 0010 488975B0 		movq	%rsi, -80(%rbp)
 1940              		.loc 1 699 1
 1941 0014 64488B04 		movq	%fs:40, %rax
 1941      25280000 
 1941      00
 1942 001d 488945F8 		movq	%rax, -8(%rbp)
 1943 0021 31C0     		xorl	%eax, %eax
 700:/home/xingli/share/1205tiny/cJSON/cJSON.c ****     const unsigned char *input_pointer = buffer_at_offset(input_buffer) + 1;
 1944              		.loc 1 700 42
 1945 0023 488B45B0 		movq	-80(%rbp), %rax
 1946 0027 488B10   		movq	(%rax), %rdx
 1947 002a 488B45B0 		movq	-80(%rbp), %rax
 1948 002e 488B4010 		movq	16(%rax), %rax
 1949              		.loc 1 700 73
 1950 0032 4883C001 		addq	$1, %rax
 1951              		.loc 1 700 26
 1952 0036 4801D0   		addq	%rdx, %rax
 1953 0039 488945D0 		movq	%rax, -48(%rbp)
 701:/home/xingli/share/1205tiny/cJSON/cJSON.c ****     const unsigned char *input_end = buffer_at_offset(input_buffer) + 1;
 1954              		.loc 1 701 38
 1955 003d 488B45B0 		movq	-80(%rbp), %rax
 1956 0041 488B10   		movq	(%rax), %rdx
GAS LISTING /tmp/ccabgRKQ.s 			page 53


 1957 0044 488B45B0 		movq	-80(%rbp), %rax
 1958 0048 488B4010 		movq	16(%rax), %rax
 1959              		.loc 1 701 69
 1960 004c 4883C001 		addq	$1, %rax
 1961              		.loc 1 701 26
 1962 0050 4801D0   		addq	%rdx, %rax
 1963 0053 488945D8 		movq	%rax, -40(%rbp)
 702:/home/xingli/share/1205tiny/cJSON/cJSON.c ****     unsigned char *output_pointer = NULL;
 1964              		.loc 1 702 20
 1965 0057 48C745C8 		movq	$0, -56(%rbp)
 1965      00000000 
 703:/home/xingli/share/1205tiny/cJSON/cJSON.c ****     unsigned char *output = NULL;
 1966              		.loc 1 703 20
 1967 005f 48C745E0 		movq	$0, -32(%rbp)
 1967      00000000 
 704:/home/xingli/share/1205tiny/cJSON/cJSON.c **** 
 705:/home/xingli/share/1205tiny/cJSON/cJSON.c ****     /* not a string */
 706:/home/xingli/share/1205tiny/cJSON/cJSON.c ****     if (buffer_at_offset(input_buffer)[0] != '\"')
 1968              		.loc 1 706 9
 1969 0067 488B45B0 		movq	-80(%rbp), %rax
 1970 006b 488B10   		movq	(%rax), %rdx
 1971 006e 488B45B0 		movq	-80(%rbp), %rax
 1972 0072 488B4010 		movq	16(%rax), %rax
 1973              		.loc 1 706 39
 1974 0076 4801D0   		addq	%rdx, %rax
 1975 0079 0FB600   		movzbl	(%rax), %eax
 1976              		.loc 1 706 8
 1977 007c 3C22     		cmpb	$34, %al
 1978 007e 0F85A402 		jne	.L195
 1978      0000
 1979              	.LBB4:
 707:/home/xingli/share/1205tiny/cJSON/cJSON.c ****     {
 708:/home/xingli/share/1205tiny/cJSON/cJSON.c ****         goto fail;
 709:/home/xingli/share/1205tiny/cJSON/cJSON.c ****     }
 710:/home/xingli/share/1205tiny/cJSON/cJSON.c **** 
 711:/home/xingli/share/1205tiny/cJSON/cJSON.c ****     {
 712:/home/xingli/share/1205tiny/cJSON/cJSON.c ****         /* calculate approximate size of the output (overestimate) */
 713:/home/xingli/share/1205tiny/cJSON/cJSON.c ****         size_t allocation_length = 0;
 1980              		.loc 1 713 16
 1981 0084 48C745F0 		movq	$0, -16(%rbp)
 1981      00000000 
 714:/home/xingli/share/1205tiny/cJSON/cJSON.c ****         size_t skipped_bytes = 0;
 1982              		.loc 1 714 16
 1983 008c 48C745E8 		movq	$0, -24(%rbp)
 1983      00000000 
 715:/home/xingli/share/1205tiny/cJSON/cJSON.c ****         while (((size_t)(input_end - input_buffer->content) < input_buffer->length) && (*input_end 
 1984              		.loc 1 715 15
 1985 0094 EB43     		jmp	.L166
 1986              	.L170:
 716:/home/xingli/share/1205tiny/cJSON/cJSON.c ****         {
 717:/home/xingli/share/1205tiny/cJSON/cJSON.c ****             /* is escape sequence */
 718:/home/xingli/share/1205tiny/cJSON/cJSON.c ****             if (input_end[0] == '\\')
 1987              		.loc 1 718 26
 1988 0096 488B45D8 		movq	-40(%rbp), %rax
 1989 009a 0FB600   		movzbl	(%rax), %eax
 1990              		.loc 1 718 16
 1991 009d 3C5C     		cmpb	$92, %al
GAS LISTING /tmp/ccabgRKQ.s 			page 54


 1992 009f 7533     		jne	.L167
 719:/home/xingli/share/1205tiny/cJSON/cJSON.c ****             {
 720:/home/xingli/share/1205tiny/cJSON/cJSON.c ****                 if ((size_t)(input_end + 1 - input_buffer->content) >= input_buffer->length)
 1993              		.loc 1 720 40
 1994 00a1 488B45D8 		movq	-40(%rbp), %rax
 1995 00a5 488D5001 		leaq	1(%rax), %rdx
 1996              		.loc 1 720 58
 1997 00a9 488B45B0 		movq	-80(%rbp), %rax
 1998 00ad 488B00   		movq	(%rax), %rax
 1999              		.loc 1 720 44
 2000 00b0 4829C2   		subq	%rax, %rdx
 2001 00b3 4889D0   		movq	%rdx, %rax
 2002              		.loc 1 720 21
 2003 00b6 4889C2   		movq	%rax, %rdx
 2004              		.loc 1 720 84
 2005 00b9 488B45B0 		movq	-80(%rbp), %rax
 2006 00bd 488B4008 		movq	8(%rax), %rax
 2007              		.loc 1 720 20
 2008 00c1 4839C2   		cmpq	%rax, %rdx
 2009 00c4 0F836102 		jnb	.L196
 2009      0000
 721:/home/xingli/share/1205tiny/cJSON/cJSON.c ****                 {
 722:/home/xingli/share/1205tiny/cJSON/cJSON.c ****                     /* prevent buffer overflow when last input character is a backslash */
 723:/home/xingli/share/1205tiny/cJSON/cJSON.c ****                     goto fail;
 724:/home/xingli/share/1205tiny/cJSON/cJSON.c ****                 }
 725:/home/xingli/share/1205tiny/cJSON/cJSON.c ****                 skipped_bytes++;
 2010              		.loc 1 725 30
 2011 00ca 488345E8 		addq	$1, -24(%rbp)
 2011      01
 726:/home/xingli/share/1205tiny/cJSON/cJSON.c ****                 input_end++;
 2012              		.loc 1 726 26
 2013 00cf 488345D8 		addq	$1, -40(%rbp)
 2013      01
 2014              	.L167:
 727:/home/xingli/share/1205tiny/cJSON/cJSON.c ****             }
 728:/home/xingli/share/1205tiny/cJSON/cJSON.c ****             input_end++;
 2015              		.loc 1 728 22
 2016 00d4 488345D8 		addq	$1, -40(%rbp)
 2016      01
 2017              	.L166:
 715:/home/xingli/share/1205tiny/cJSON/cJSON.c ****         {
 2018              		.loc 1 715 50
 2019 00d9 488B45B0 		movq	-80(%rbp), %rax
 2020 00dd 488B00   		movq	(%rax), %rax
 715:/home/xingli/share/1205tiny/cJSON/cJSON.c ****         {
 2021              		.loc 1 715 36
 2022 00e0 488B55D8 		movq	-40(%rbp), %rdx
 2023 00e4 4829C2   		subq	%rax, %rdx
 2024 00e7 4889D0   		movq	%rdx, %rax
 715:/home/xingli/share/1205tiny/cJSON/cJSON.c ****         {
 2025              		.loc 1 715 17
 2026 00ea 4889C2   		movq	%rax, %rdx
 715:/home/xingli/share/1205tiny/cJSON/cJSON.c ****         {
 2027              		.loc 1 715 75
 2028 00ed 488B45B0 		movq	-80(%rbp), %rax
 2029 00f1 488B4008 		movq	8(%rax), %rax
 715:/home/xingli/share/1205tiny/cJSON/cJSON.c ****         {
GAS LISTING /tmp/ccabgRKQ.s 			page 55


 2030              		.loc 1 715 15
 2031 00f5 4839C2   		cmpq	%rax, %rdx
 2032 00f8 730B     		jnb	.L169
 715:/home/xingli/share/1205tiny/cJSON/cJSON.c ****         {
 2033              		.loc 1 715 89 discriminator 1
 2034 00fa 488B45D8 		movq	-40(%rbp), %rax
 2035 00fe 0FB600   		movzbl	(%rax), %eax
 715:/home/xingli/share/1205tiny/cJSON/cJSON.c ****         {
 2036              		.loc 1 715 85 discriminator 1
 2037 0101 3C22     		cmpb	$34, %al
 2038 0103 7591     		jne	.L170
 2039              	.L169:
 729:/home/xingli/share/1205tiny/cJSON/cJSON.c ****         }
 730:/home/xingli/share/1205tiny/cJSON/cJSON.c ****         if (((size_t)(input_end - input_buffer->content) >= input_buffer->length) || (*input_end !=
 2040              		.loc 1 730 47
 2041 0105 488B45B0 		movq	-80(%rbp), %rax
 2042 0109 488B00   		movq	(%rax), %rax
 2043              		.loc 1 730 33
 2044 010c 488B55D8 		movq	-40(%rbp), %rdx
 2045 0110 4829C2   		subq	%rax, %rdx
 2046 0113 4889D0   		movq	%rdx, %rax
 2047              		.loc 1 730 14
 2048 0116 4889C2   		movq	%rax, %rdx
 2049              		.loc 1 730 73
 2050 0119 488B45B0 		movq	-80(%rbp), %rax
 2051 011d 488B4008 		movq	8(%rax), %rax
 2052              		.loc 1 730 12
 2053 0121 4839C2   		cmpq	%rax, %rdx
 2054 0124 0F830402 		jnb	.L197
 2054      0000
 2055              		.loc 1 730 87 discriminator 1
 2056 012a 488B45D8 		movq	-40(%rbp), %rax
 2057 012e 0FB600   		movzbl	(%rax), %eax
 2058              		.loc 1 730 83 discriminator 1
 2059 0131 3C22     		cmpb	$34, %al
 2060 0133 0F85F501 		jne	.L197
 2060      0000
 731:/home/xingli/share/1205tiny/cJSON/cJSON.c ****         {
 732:/home/xingli/share/1205tiny/cJSON/cJSON.c ****             goto fail; /* string ended unexpectedly */
 733:/home/xingli/share/1205tiny/cJSON/cJSON.c ****         }
 734:/home/xingli/share/1205tiny/cJSON/cJSON.c **** 
 735:/home/xingli/share/1205tiny/cJSON/cJSON.c ****         /* This is at most how much we need for the output */
 736:/home/xingli/share/1205tiny/cJSON/cJSON.c ****         allocation_length = (size_t) (input_end - buffer_at_offset(input_buffer)) - skipped_bytes;
 2061              		.loc 1 736 51
 2062 0139 488B45B0 		movq	-80(%rbp), %rax
 2063 013d 488B10   		movq	(%rax), %rdx
 2064 0140 488B45B0 		movq	-80(%rbp), %rax
 2065 0144 488B4010 		movq	16(%rax), %rax
 2066 0148 4801C2   		addq	%rax, %rdx
 2067              		.loc 1 736 49
 2068 014b 488B45D8 		movq	-40(%rbp), %rax
 2069 014f 4829D0   		subq	%rdx, %rax
 2070              		.loc 1 736 27
 2071 0152 482B45E8 		subq	-24(%rbp), %rax
 2072 0156 488945F0 		movq	%rax, -16(%rbp)
 737:/home/xingli/share/1205tiny/cJSON/cJSON.c ****         output = (unsigned char*)input_buffer->hooks.allocate(allocation_length + sizeof(""));
 2073              		.loc 1 737 53
GAS LISTING /tmp/ccabgRKQ.s 			page 56


 2074 015a 488B45B0 		movq	-80(%rbp), %rax
 2075 015e 488B4020 		movq	32(%rax), %rax
 2076              		.loc 1 737 34
 2077 0162 488B55F0 		movq	-16(%rbp), %rdx
 2078 0166 4883C201 		addq	$1, %rdx
 2079 016a 4889D7   		movq	%rdx, %rdi
 2080 016d FFD0     		call	*%rax
 2081              	.LVL10:
 2082 016f 488945E0 		movq	%rax, -32(%rbp)
 738:/home/xingli/share/1205tiny/cJSON/cJSON.c ****         if (output == NULL)
 2083              		.loc 1 738 12
 2084 0173 48837DE0 		cmpq	$0, -32(%rbp)
 2084      00
 2085 0178 0F84B301 		je	.L198
 2085      0000
 2086              	.LBE4:
 739:/home/xingli/share/1205tiny/cJSON/cJSON.c ****         {
 740:/home/xingli/share/1205tiny/cJSON/cJSON.c ****             goto fail; /* allocation failure */
 741:/home/xingli/share/1205tiny/cJSON/cJSON.c ****         }
 742:/home/xingli/share/1205tiny/cJSON/cJSON.c ****     }
 743:/home/xingli/share/1205tiny/cJSON/cJSON.c **** 
 744:/home/xingli/share/1205tiny/cJSON/cJSON.c ****     output_pointer = output;
 2087              		.loc 1 744 20
 2088 017e 488B45E0 		movq	-32(%rbp), %rax
 2089 0182 488945C8 		movq	%rax, -56(%rbp)
 745:/home/xingli/share/1205tiny/cJSON/cJSON.c ****     /* loop through the string literal */
 746:/home/xingli/share/1205tiny/cJSON/cJSON.c ****     while (input_pointer < input_end)
 2090              		.loc 1 746 11
 2091 0186 E93A0100 		jmp	.L174
 2091      00
 2092              	.L189:
 747:/home/xingli/share/1205tiny/cJSON/cJSON.c ****     {
 748:/home/xingli/share/1205tiny/cJSON/cJSON.c ****         if (*input_pointer != '\\')
 2093              		.loc 1 748 13
 2094 018b 488B45D0 		movq	-48(%rbp), %rax
 2095 018f 0FB600   		movzbl	(%rax), %eax
 2096              		.loc 1 748 12
 2097 0192 3C5C     		cmpb	$92, %al
 2098 0194 7422     		je	.L175
 749:/home/xingli/share/1205tiny/cJSON/cJSON.c ****         {
 750:/home/xingli/share/1205tiny/cJSON/cJSON.c ****             *output_pointer++ = *input_pointer++;
 2099              		.loc 1 750 47
 2100 0196 488B55D0 		movq	-48(%rbp), %rdx
 2101 019a 488D4201 		leaq	1(%rdx), %rax
 2102 019e 488945D0 		movq	%rax, -48(%rbp)
 2103              		.loc 1 750 28
 2104 01a2 488B45C8 		movq	-56(%rbp), %rax
 2105 01a6 488D4801 		leaq	1(%rax), %rcx
 2106 01aa 48894DC8 		movq	%rcx, -56(%rbp)
 2107              		.loc 1 750 33
 2108 01ae 0FB612   		movzbl	(%rdx), %edx
 2109              		.loc 1 750 31
 2110 01b1 8810     		movb	%dl, (%rax)
 2111 01b3 E90D0100 		jmp	.L174
 2111      00
 2112              	.L175:
 2113              	.LBB5:
GAS LISTING /tmp/ccabgRKQ.s 			page 57


 751:/home/xingli/share/1205tiny/cJSON/cJSON.c ****         }
 752:/home/xingli/share/1205tiny/cJSON/cJSON.c ****         /* escape sequence */
 753:/home/xingli/share/1205tiny/cJSON/cJSON.c ****         else
 754:/home/xingli/share/1205tiny/cJSON/cJSON.c ****         {
 755:/home/xingli/share/1205tiny/cJSON/cJSON.c ****             unsigned char sequence_length = 2;
 2114              		.loc 1 755 27
 2115 01b8 C645C702 		movb	$2, -57(%rbp)
 756:/home/xingli/share/1205tiny/cJSON/cJSON.c ****             if ((input_end - input_pointer) < 1)
 2116              		.loc 1 756 28
 2117 01bc 488B45D8 		movq	-40(%rbp), %rax
 2118 01c0 482B45D0 		subq	-48(%rbp), %rax
 2119              		.loc 1 756 16
 2120 01c4 4885C0   		testq	%rax, %rax
 2121 01c7 0F8E6701 		jle	.L199
 2121      0000
 757:/home/xingli/share/1205tiny/cJSON/cJSON.c ****             {
 758:/home/xingli/share/1205tiny/cJSON/cJSON.c ****                 goto fail;
 759:/home/xingli/share/1205tiny/cJSON/cJSON.c ****             }
 760:/home/xingli/share/1205tiny/cJSON/cJSON.c **** 
 761:/home/xingli/share/1205tiny/cJSON/cJSON.c ****             switch (input_pointer[1])
 2122              		.loc 1 761 34
 2123 01cd 488B45D0 		movq	-48(%rbp), %rax
 2124 01d1 4883C001 		addq	$1, %rax
 2125 01d5 0FB600   		movzbl	(%rax), %eax
 2126 01d8 0FB6C0   		movzbl	%al, %eax
 2127              		.loc 1 761 13
 2128 01db 83F875   		cmpl	$117, %eax
 2129 01de 0F8F5301 		jg	.L200
 2129      0000
 2130 01e4 83F85C   		cmpl	$92, %eax
 2131 01e7 7D17     		jge	.L178
 2132 01e9 83F822   		cmpl	$34, %eax
 2133 01ec 0F849200 		je	.L179
 2133      0000
 2134 01f2 83F82F   		cmpl	$47, %eax
 2135 01f5 0F848900 		je	.L179
 2135      0000
 762:/home/xingli/share/1205tiny/cJSON/cJSON.c ****             {
 763:/home/xingli/share/1205tiny/cJSON/cJSON.c ****                 case 'b':
 764:/home/xingli/share/1205tiny/cJSON/cJSON.c ****                     *output_pointer++ = '\b';
 765:/home/xingli/share/1205tiny/cJSON/cJSON.c ****                     break;
 766:/home/xingli/share/1205tiny/cJSON/cJSON.c ****                 case 'f':
 767:/home/xingli/share/1205tiny/cJSON/cJSON.c ****                     *output_pointer++ = '\f';
 768:/home/xingli/share/1205tiny/cJSON/cJSON.c ****                     break;
 769:/home/xingli/share/1205tiny/cJSON/cJSON.c ****                 case 'n':
 770:/home/xingli/share/1205tiny/cJSON/cJSON.c ****                     *output_pointer++ = '\n';
 771:/home/xingli/share/1205tiny/cJSON/cJSON.c ****                     break;
 772:/home/xingli/share/1205tiny/cJSON/cJSON.c ****                 case 'r':
 773:/home/xingli/share/1205tiny/cJSON/cJSON.c ****                     *output_pointer++ = '\r';
 774:/home/xingli/share/1205tiny/cJSON/cJSON.c ****                     break;
 775:/home/xingli/share/1205tiny/cJSON/cJSON.c ****                 case 't':
 776:/home/xingli/share/1205tiny/cJSON/cJSON.c ****                     *output_pointer++ = '\t';
 777:/home/xingli/share/1205tiny/cJSON/cJSON.c ****                     break;
 778:/home/xingli/share/1205tiny/cJSON/cJSON.c ****                 case '\"':
 779:/home/xingli/share/1205tiny/cJSON/cJSON.c ****                 case '\\':
 780:/home/xingli/share/1205tiny/cJSON/cJSON.c ****                 case '/':
 781:/home/xingli/share/1205tiny/cJSON/cJSON.c ****                     *output_pointer++ = input_pointer[1];
GAS LISTING /tmp/ccabgRKQ.s 			page 58


 782:/home/xingli/share/1205tiny/cJSON/cJSON.c ****                     break;
 783:/home/xingli/share/1205tiny/cJSON/cJSON.c **** 
 784:/home/xingli/share/1205tiny/cJSON/cJSON.c ****                 /* UTF-16 literal */
 785:/home/xingli/share/1205tiny/cJSON/cJSON.c ****                 case 'u':
 786:/home/xingli/share/1205tiny/cJSON/cJSON.c ****                     sequence_length = utf16_literal_to_utf8(input_pointer, input_end, &output_point
 787:/home/xingli/share/1205tiny/cJSON/cJSON.c ****                     if (sequence_length == 0)
 788:/home/xingli/share/1205tiny/cJSON/cJSON.c ****                     {
 789:/home/xingli/share/1205tiny/cJSON/cJSON.c ****                         /* failed to convert UTF16-literal to UTF-8 */
 790:/home/xingli/share/1205tiny/cJSON/cJSON.c ****                         goto fail;
 791:/home/xingli/share/1205tiny/cJSON/cJSON.c ****                     }
 792:/home/xingli/share/1205tiny/cJSON/cJSON.c ****                     break;
 793:/home/xingli/share/1205tiny/cJSON/cJSON.c **** 
 794:/home/xingli/share/1205tiny/cJSON/cJSON.c ****                 default:
 795:/home/xingli/share/1205tiny/cJSON/cJSON.c ****                     goto fail;
 2136              		.loc 1 795 21
 2137 01fb E9370100 		jmp	.L200
 2137      00
 2138              	.L178:
 2139 0200 83E85C   		subl	$92, %eax
 2140 0203 83F819   		cmpl	$25, %eax
 2141 0206 0F872B01 		ja	.L200
 2141      0000
 2142 020c 89C0     		movl	%eax, %eax
 2143 020e 488D1485 		leaq	0(,%rax,4), %rdx
 2143      00000000 
 2144 0216 488D0500 		leaq	.L181(%rip), %rax
 2144      000000
 2145 021d 8B0402   		movl	(%rdx,%rax), %eax
 2146 0220 4898     		cltq
 2147 0222 488D1500 		leaq	.L181(%rip), %rdx
 2147      000000
 2148 0229 4801D0   		addq	%rdx, %rax
 2149 022c 3EFFE0   		notrack jmp	*%rax
 2150              		.section	.rodata.parse_string,"a",@progbits
 2151              		.align 4
 2152              		.align 4
 2153              	.L181:
 2154 0000 00000000 		.long	.L179-.L181
 2155 0004 00000000 		.long	.L200-.L181
 2156 0008 00000000 		.long	.L200-.L181
 2157 000c 00000000 		.long	.L200-.L181
 2158 0010 00000000 		.long	.L200-.L181
 2159 0014 00000000 		.long	.L200-.L181
 2160 0018 00000000 		.long	.L186-.L181
 2161 001c 00000000 		.long	.L200-.L181
 2162 0020 00000000 		.long	.L200-.L181
 2163 0024 00000000 		.long	.L200-.L181
 2164 0028 00000000 		.long	.L185-.L181
 2165 002c 00000000 		.long	.L200-.L181
 2166 0030 00000000 		.long	.L200-.L181
 2167 0034 00000000 		.long	.L200-.L181
 2168 0038 00000000 		.long	.L200-.L181
 2169 003c 00000000 		.long	.L200-.L181
 2170 0040 00000000 		.long	.L200-.L181
 2171 0044 00000000 		.long	.L200-.L181
 2172 0048 00000000 		.long	.L184-.L181
 2173 004c 00000000 		.long	.L200-.L181
GAS LISTING /tmp/ccabgRKQ.s 			page 59


 2174 0050 00000000 		.long	.L200-.L181
 2175 0054 00000000 		.long	.L200-.L181
 2176 0058 00000000 		.long	.L183-.L181
 2177 005c 00000000 		.long	.L200-.L181
 2178 0060 00000000 		.long	.L182-.L181
 2179 0064 00000000 		.long	.L180-.L181
 2180              		.section	.text.parse_string
 2181              	.L186:
 764:/home/xingli/share/1205tiny/cJSON/cJSON.c ****                     break;
 2182              		.loc 1 764 36
 2183 022f 488B45C8 		movq	-56(%rbp), %rax
 2184 0233 488D5001 		leaq	1(%rax), %rdx
 2185 0237 488955C8 		movq	%rdx, -56(%rbp)
 764:/home/xingli/share/1205tiny/cJSON/cJSON.c ****                     break;
 2186              		.loc 1 764 39
 2187 023b C60008   		movb	$8, (%rax)
 765:/home/xingli/share/1205tiny/cJSON/cJSON.c ****                 case 'f':
 2188              		.loc 1 765 21
 2189 023e EB7D     		jmp	.L187
 2190              	.L185:
 767:/home/xingli/share/1205tiny/cJSON/cJSON.c ****                     break;
 2191              		.loc 1 767 36
 2192 0240 488B45C8 		movq	-56(%rbp), %rax
 2193 0244 488D5001 		leaq	1(%rax), %rdx
 2194 0248 488955C8 		movq	%rdx, -56(%rbp)
 767:/home/xingli/share/1205tiny/cJSON/cJSON.c ****                     break;
 2195              		.loc 1 767 39
 2196 024c C6000C   		movb	$12, (%rax)
 768:/home/xingli/share/1205tiny/cJSON/cJSON.c ****                 case 'n':
 2197              		.loc 1 768 21
 2198 024f EB6C     		jmp	.L187
 2199              	.L184:
 770:/home/xingli/share/1205tiny/cJSON/cJSON.c ****                     break;
 2200              		.loc 1 770 36
 2201 0251 488B45C8 		movq	-56(%rbp), %rax
 2202 0255 488D5001 		leaq	1(%rax), %rdx
 2203 0259 488955C8 		movq	%rdx, -56(%rbp)
 770:/home/xingli/share/1205tiny/cJSON/cJSON.c ****                     break;
 2204              		.loc 1 770 39
 2205 025d C6000A   		movb	$10, (%rax)
 771:/home/xingli/share/1205tiny/cJSON/cJSON.c ****                 case 'r':
 2206              		.loc 1 771 21
 2207 0260 EB5B     		jmp	.L187
 2208              	.L183:
 773:/home/xingli/share/1205tiny/cJSON/cJSON.c ****                     break;
 2209              		.loc 1 773 36
 2210 0262 488B45C8 		movq	-56(%rbp), %rax
 2211 0266 488D5001 		leaq	1(%rax), %rdx
 2212 026a 488955C8 		movq	%rdx, -56(%rbp)
 773:/home/xingli/share/1205tiny/cJSON/cJSON.c ****                     break;
 2213              		.loc 1 773 39
 2214 026e C6000D   		movb	$13, (%rax)
 774:/home/xingli/share/1205tiny/cJSON/cJSON.c ****                 case 't':
 2215              		.loc 1 774 21
 2216 0271 EB4A     		jmp	.L187
 2217              	.L182:
 776:/home/xingli/share/1205tiny/cJSON/cJSON.c ****                     break;
GAS LISTING /tmp/ccabgRKQ.s 			page 60


 2218              		.loc 1 776 36
 2219 0273 488B45C8 		movq	-56(%rbp), %rax
 2220 0277 488D5001 		leaq	1(%rax), %rdx
 2221 027b 488955C8 		movq	%rdx, -56(%rbp)
 776:/home/xingli/share/1205tiny/cJSON/cJSON.c ****                     break;
 2222              		.loc 1 776 39
 2223 027f C60009   		movb	$9, (%rax)
 777:/home/xingli/share/1205tiny/cJSON/cJSON.c ****                 case '\"':
 2224              		.loc 1 777 21
 2225 0282 EB39     		jmp	.L187
 2226              	.L179:
 781:/home/xingli/share/1205tiny/cJSON/cJSON.c ****                     break;
 2227              		.loc 1 781 36
 2228 0284 488B45C8 		movq	-56(%rbp), %rax
 2229 0288 488D5001 		leaq	1(%rax), %rdx
 2230 028c 488955C8 		movq	%rdx, -56(%rbp)
 781:/home/xingli/share/1205tiny/cJSON/cJSON.c ****                     break;
 2231              		.loc 1 781 39
 2232 0290 488B55D0 		movq	-48(%rbp), %rdx
 2233 0294 0FB65201 		movzbl	1(%rdx), %edx
 2234 0298 8810     		movb	%dl, (%rax)
 782:/home/xingli/share/1205tiny/cJSON/cJSON.c **** 
 2235              		.loc 1 782 21
 2236 029a EB21     		jmp	.L187
 2237              	.L180:
 786:/home/xingli/share/1205tiny/cJSON/cJSON.c ****                     if (sequence_length == 0)
 2238              		.loc 1 786 39
 2239 029c 488D55C8 		leaq	-56(%rbp), %rdx
 2240 02a0 488B4DD8 		movq	-40(%rbp), %rcx
 2241 02a4 488B45D0 		movq	-48(%rbp), %rax
 2242 02a8 4889CE   		movq	%rcx, %rsi
 2243 02ab 4889C7   		movq	%rax, %rdi
 2244 02ae E8000000 		call	utf16_literal_to_utf8
 2244      00
 2245 02b3 8845C7   		movb	%al, -57(%rbp)
 787:/home/xingli/share/1205tiny/cJSON/cJSON.c ****                     {
 2246              		.loc 1 787 24
 2247 02b6 807DC700 		cmpb	$0, -57(%rbp)
 2248 02ba 747E     		je	.L201
 792:/home/xingli/share/1205tiny/cJSON/cJSON.c **** 
 2249              		.loc 1 792 21
 2250 02bc 90       		nop
 2251              	.L187:
 796:/home/xingli/share/1205tiny/cJSON/cJSON.c ****             }
 797:/home/xingli/share/1205tiny/cJSON/cJSON.c ****             input_pointer += sequence_length;
 2252              		.loc 1 797 27
 2253 02bd 0FB645C7 		movzbl	-57(%rbp), %eax
 2254 02c1 480145D0 		addq	%rax, -48(%rbp)
 2255              	.L174:
 2256              	.LBE5:
 746:/home/xingli/share/1205tiny/cJSON/cJSON.c ****     {
 2257              		.loc 1 746 11
 2258 02c5 488B45D0 		movq	-48(%rbp), %rax
 2259 02c9 483B45D8 		cmpq	-40(%rbp), %rax
 2260 02cd 0F82B8FE 		jb	.L189
 2260      FFFF
 798:/home/xingli/share/1205tiny/cJSON/cJSON.c ****         }
GAS LISTING /tmp/ccabgRKQ.s 			page 61


 799:/home/xingli/share/1205tiny/cJSON/cJSON.c ****     }
 800:/home/xingli/share/1205tiny/cJSON/cJSON.c **** 
 801:/home/xingli/share/1205tiny/cJSON/cJSON.c ****     /* zero terminate the output */
 802:/home/xingli/share/1205tiny/cJSON/cJSON.c ****     *output_pointer = '\0';
 2261              		.loc 1 802 5
 2262 02d3 488B45C8 		movq	-56(%rbp), %rax
 2263              		.loc 1 802 21
 2264 02d7 C60000   		movb	$0, (%rax)
 803:/home/xingli/share/1205tiny/cJSON/cJSON.c **** 
 804:/home/xingli/share/1205tiny/cJSON/cJSON.c ****     item->type = cJSON_String;
 2265              		.loc 1 804 16
 2266 02da 488B45B8 		movq	-72(%rbp), %rax
 2267 02de C7401810 		movl	$16, 24(%rax)
 2267      000000
 805:/home/xingli/share/1205tiny/cJSON/cJSON.c ****     item->valuestring = (char*)output;
 2268              		.loc 1 805 23
 2269 02e5 488B45B8 		movq	-72(%rbp), %rax
 2270 02e9 488B55E0 		movq	-32(%rbp), %rdx
 2271 02ed 48895020 		movq	%rdx, 32(%rax)
 806:/home/xingli/share/1205tiny/cJSON/cJSON.c **** 
 807:/home/xingli/share/1205tiny/cJSON/cJSON.c ****     input_buffer->offset = (size_t) (input_end - input_buffer->content);
 2272              		.loc 1 807 62
 2273 02f1 488B45B0 		movq	-80(%rbp), %rax
 2274 02f5 488B00   		movq	(%rax), %rax
 2275              		.loc 1 807 48
 2276 02f8 488B55D8 		movq	-40(%rbp), %rdx
 2277 02fc 4829C2   		subq	%rax, %rdx
 2278 02ff 4889D0   		movq	%rdx, %rax
 2279              		.loc 1 807 28
 2280 0302 4889C2   		movq	%rax, %rdx
 2281              		.loc 1 807 26
 2282 0305 488B45B0 		movq	-80(%rbp), %rax
 2283 0309 48895010 		movq	%rdx, 16(%rax)
 808:/home/xingli/share/1205tiny/cJSON/cJSON.c ****     input_buffer->offset++;
 2284              		.loc 1 808 17
 2285 030d 488B45B0 		movq	-80(%rbp), %rax
 2286 0311 488B4010 		movq	16(%rax), %rax
 2287              		.loc 1 808 25
 2288 0315 488D5001 		leaq	1(%rax), %rdx
 2289 0319 488B45B0 		movq	-80(%rbp), %rax
 2290 031d 48895010 		movq	%rdx, 16(%rax)
 809:/home/xingli/share/1205tiny/cJSON/cJSON.c **** 
 810:/home/xingli/share/1205tiny/cJSON/cJSON.c ****     return true;
 2291              		.loc 1 810 12
 2292 0321 B8010000 		movl	$1, %eax
 2292      00
 2293 0326 EB53     		jmp	.L193
 2294              	.L195:
 708:/home/xingli/share/1205tiny/cJSON/cJSON.c ****     }
 2295              		.loc 1 708 9
 2296 0328 90       		nop
 2297 0329 EB10     		jmp	.L165
 2298              	.L196:
 2299              	.LBB6:
 723:/home/xingli/share/1205tiny/cJSON/cJSON.c ****                 }
 2300              		.loc 1 723 21
 2301 032b 90       		nop
GAS LISTING /tmp/ccabgRKQ.s 			page 62


 2302 032c EB0D     		jmp	.L165
 2303              	.L197:
 732:/home/xingli/share/1205tiny/cJSON/cJSON.c ****         }
 2304              		.loc 1 732 13
 2305 032e 90       		nop
 2306 032f EB0A     		jmp	.L165
 2307              	.L198:
 740:/home/xingli/share/1205tiny/cJSON/cJSON.c ****         }
 2308              		.loc 1 740 13
 2309 0331 90       		nop
 2310 0332 EB07     		jmp	.L165
 2311              	.L199:
 2312              	.LBE6:
 2313              	.LBB7:
 758:/home/xingli/share/1205tiny/cJSON/cJSON.c ****             }
 2314              		.loc 1 758 17
 2315 0334 90       		nop
 2316 0335 EB04     		jmp	.L165
 2317              	.L200:
 795:/home/xingli/share/1205tiny/cJSON/cJSON.c ****             }
 2318              		.loc 1 795 21
 2319 0337 90       		nop
 2320 0338 EB01     		jmp	.L165
 2321              	.L201:
 790:/home/xingli/share/1205tiny/cJSON/cJSON.c ****                     }
 2322              		.loc 1 790 25
 2323 033a 90       		nop
 2324              	.L165:
 2325              	.LBE7:
 811:/home/xingli/share/1205tiny/cJSON/cJSON.c **** 
 812:/home/xingli/share/1205tiny/cJSON/cJSON.c **** fail:
 813:/home/xingli/share/1205tiny/cJSON/cJSON.c ****     if (output != NULL)
 2326              		.loc 1 813 8
 2327 033b 48837DE0 		cmpq	$0, -32(%rbp)
 2327      00
 2328 0340 7411     		je	.L191
 814:/home/xingli/share/1205tiny/cJSON/cJSON.c ****     {
 815:/home/xingli/share/1205tiny/cJSON/cJSON.c ****         input_buffer->hooks.deallocate(output);
 2329              		.loc 1 815 28
 2330 0342 488B45B0 		movq	-80(%rbp), %rax
 2331 0346 488B5028 		movq	40(%rax), %rdx
 2332              		.loc 1 815 9
 2333 034a 488B45E0 		movq	-32(%rbp), %rax
 2334 034e 4889C7   		movq	%rax, %rdi
 2335 0351 FFD2     		call	*%rdx
 2336              	.LVL11:
 2337              	.L191:
 816:/home/xingli/share/1205tiny/cJSON/cJSON.c ****     }
 817:/home/xingli/share/1205tiny/cJSON/cJSON.c **** 
 818:/home/xingli/share/1205tiny/cJSON/cJSON.c ****     if (input_pointer != NULL)
 2338              		.loc 1 818 8
 2339 0353 48837DD0 		cmpq	$0, -48(%rbp)
 2339      00
 2340 0358 741C     		je	.L192
 819:/home/xingli/share/1205tiny/cJSON/cJSON.c ****     {
 820:/home/xingli/share/1205tiny/cJSON/cJSON.c ****         input_buffer->offset = (size_t)(input_pointer - input_buffer->content);
 2341              		.loc 1 820 69
GAS LISTING /tmp/ccabgRKQ.s 			page 63


 2342 035a 488B45B0 		movq	-80(%rbp), %rax
 2343 035e 488B00   		movq	(%rax), %rax
 2344              		.loc 1 820 55
 2345 0361 488B55D0 		movq	-48(%rbp), %rdx
 2346 0365 4829C2   		subq	%rax, %rdx
 2347 0368 4889D0   		movq	%rdx, %rax
 2348              		.loc 1 820 32
 2349 036b 4889C2   		movq	%rax, %rdx
 2350              		.loc 1 820 30
 2351 036e 488B45B0 		movq	-80(%rbp), %rax
 2352 0372 48895010 		movq	%rdx, 16(%rax)
 2353              	.L192:
 821:/home/xingli/share/1205tiny/cJSON/cJSON.c ****     }
 822:/home/xingli/share/1205tiny/cJSON/cJSON.c **** 
 823:/home/xingli/share/1205tiny/cJSON/cJSON.c ****     return false;
 2354              		.loc 1 823 12
 2355 0376 B8000000 		movl	$0, %eax
 2355      00
 2356              	.L193:
 824:/home/xingli/share/1205tiny/cJSON/cJSON.c **** }
 2357              		.loc 1 824 1 discriminator 1
 2358 037b 488B75F8 		movq	-8(%rbp), %rsi
 2359 037f 64483334 		xorq	%fs:40, %rsi
 2359      25280000 
 2359      00
 2360 0388 7405     		je	.L194
 2361              		.loc 1 824 1 is_stmt 0
 2362 038a E8000000 		call	__stack_chk_fail@PLT
 2362      00
 2363              	.L194:
 2364 038f C9       		leave
 2365              	.LCFI50:
 2366              		.cfi_def_cfa 7, 8
 2367 0390 C3       		ret
 2368              		.cfi_endproc
 2369              	.LFE22:
 2371              		.section	.rodata
 2372              	.LC8:
 2373 0020 75253034 		.string	"u%04x"
 2373      7800
 2374              		.section	.text.print_string_ptr,"ax",@progbits
 2376              	print_string_ptr:
 2377              	.LFB23:
 825:/home/xingli/share/1205tiny/cJSON/cJSON.c **** 
 826:/home/xingli/share/1205tiny/cJSON/cJSON.c **** /* Render the cstring provided to an escaped version that can be printed. */
 827:/home/xingli/share/1205tiny/cJSON/cJSON.c **** static cJSON_bool print_string_ptr(const unsigned char * const input, printbuffer * const output_bu
 828:/home/xingli/share/1205tiny/cJSON/cJSON.c **** {
 2378              		.loc 1 828 1 is_stmt 1
 2379              		.cfi_startproc
 2380 0000 F30F1EFA 		endbr64
 2381 0004 55       		pushq	%rbp
 2382              	.LCFI51:
 2383              		.cfi_def_cfa_offset 16
 2384              		.cfi_offset 6, -16
 2385 0005 4889E5   		movq	%rsp, %rbp
 2386              	.LCFI52:
 2387              		.cfi_def_cfa_register 6
GAS LISTING /tmp/ccabgRKQ.s 			page 64


 2388 0008 4883EC40 		subq	$64, %rsp
 2389 000c 48897DC8 		movq	%rdi, -56(%rbp)
 2390 0010 488975C0 		movq	%rsi, -64(%rbp)
 2391              		.loc 1 828 1
 2392 0014 64488B04 		movq	%fs:40, %rax
 2392      25280000 
 2392      00
 2393 001d 488945F8 		movq	%rax, -8(%rbp)
 2394 0021 31C0     		xorl	%eax, %eax
 829:/home/xingli/share/1205tiny/cJSON/cJSON.c ****     const unsigned char *input_pointer = NULL;
 2395              		.loc 1 829 26
 2396 0023 48C745D0 		movq	$0, -48(%rbp)
 2396      00000000 
 830:/home/xingli/share/1205tiny/cJSON/cJSON.c ****     unsigned char *output = NULL;
 2397              		.loc 1 830 20
 2398 002b 48C745E8 		movq	$0, -24(%rbp)
 2398      00000000 
 831:/home/xingli/share/1205tiny/cJSON/cJSON.c ****     unsigned char *output_pointer = NULL;
 2399              		.loc 1 831 20
 2400 0033 48C745D8 		movq	$0, -40(%rbp)
 2400      00000000 
 832:/home/xingli/share/1205tiny/cJSON/cJSON.c ****     size_t output_length = 0;
 2401              		.loc 1 832 12
 2402 003b 48C745F0 		movq	$0, -16(%rbp)
 2402      00000000 
 833:/home/xingli/share/1205tiny/cJSON/cJSON.c ****     /* numbers of additional characters needed for escaping */
 834:/home/xingli/share/1205tiny/cJSON/cJSON.c ****     size_t escape_characters = 0;
 2403              		.loc 1 834 12
 2404 0043 48C745E0 		movq	$0, -32(%rbp)
 2404      00000000 
 835:/home/xingli/share/1205tiny/cJSON/cJSON.c **** 
 836:/home/xingli/share/1205tiny/cJSON/cJSON.c ****     if (output_buffer == NULL)
 2405              		.loc 1 836 8
 2406 004b 48837DC0 		cmpq	$0, -64(%rbp)
 2406      00
 2407 0050 750A     		jne	.L203
 837:/home/xingli/share/1205tiny/cJSON/cJSON.c ****     {
 838:/home/xingli/share/1205tiny/cJSON/cJSON.c ****         return false;
 2408              		.loc 1 838 16
 2409 0052 B8000000 		movl	$0, %eax
 2409      00
 2410 0057 E9900200 		jmp	.L204
 2410      00
 2411              	.L203:
 839:/home/xingli/share/1205tiny/cJSON/cJSON.c ****     }
 840:/home/xingli/share/1205tiny/cJSON/cJSON.c **** 
 841:/home/xingli/share/1205tiny/cJSON/cJSON.c ****     /* empty string */
 842:/home/xingli/share/1205tiny/cJSON/cJSON.c ****     if (input == NULL)
 2412              		.loc 1 842 8
 2413 005c 48837DC8 		cmpq	$0, -56(%rbp)
 2413      00
 2414 0061 753D     		jne	.L205
 843:/home/xingli/share/1205tiny/cJSON/cJSON.c ****     {
 844:/home/xingli/share/1205tiny/cJSON/cJSON.c ****         output = ensure(output_buffer, sizeof("\"\""));
 2415              		.loc 1 844 18
 2416 0063 488B45C0 		movq	-64(%rbp), %rax
 2417 0067 BE030000 		movl	$3, %esi
GAS LISTING /tmp/ccabgRKQ.s 			page 65


 2417      00
 2418 006c 4889C7   		movq	%rax, %rdi
 2419 006f E8000000 		call	ensure
 2419      00
 2420 0074 488945E8 		movq	%rax, -24(%rbp)
 845:/home/xingli/share/1205tiny/cJSON/cJSON.c ****         if (output == NULL)
 2421              		.loc 1 845 12
 2422 0078 48837DE8 		cmpq	$0, -24(%rbp)
 2422      00
 2423 007d 750A     		jne	.L206
 846:/home/xingli/share/1205tiny/cJSON/cJSON.c ****         {
 847:/home/xingli/share/1205tiny/cJSON/cJSON.c ****             return false;
 2424              		.loc 1 847 20
 2425 007f B8000000 		movl	$0, %eax
 2425      00
 2426 0084 E9630200 		jmp	.L204
 2426      00
 2427              	.L206:
 848:/home/xingli/share/1205tiny/cJSON/cJSON.c ****         }
 849:/home/xingli/share/1205tiny/cJSON/cJSON.c ****         strcpy((char*)output, "\"\"");
 2428              		.loc 1 849 9
 2429 0089 488B45E8 		movq	-24(%rbp), %rax
 2430 008d 66C70022 		movw	$8738, (%rax)
 2430      22
 2431 0092 C6400200 		movb	$0, 2(%rax)
 850:/home/xingli/share/1205tiny/cJSON/cJSON.c **** 
 851:/home/xingli/share/1205tiny/cJSON/cJSON.c ****         return true;
 2432              		.loc 1 851 16
 2433 0096 B8010000 		movl	$1, %eax
 2433      00
 2434 009b E94C0200 		jmp	.L204
 2434      00
 2435              	.L205:
 852:/home/xingli/share/1205tiny/cJSON/cJSON.c ****     }
 853:/home/xingli/share/1205tiny/cJSON/cJSON.c **** 
 854:/home/xingli/share/1205tiny/cJSON/cJSON.c ****     /* set "flag" to 1 if something needs to be escaped */
 855:/home/xingli/share/1205tiny/cJSON/cJSON.c ****     for (input_pointer = input; *input_pointer; input_pointer++)
 2436              		.loc 1 855 24
 2437 00a0 488B45C8 		movq	-56(%rbp), %rax
 2438 00a4 488945D0 		movq	%rax, -48(%rbp)
 2439              		.loc 1 855 5
 2440 00a8 EB4F     		jmp	.L207
 2441              	.L213:
 856:/home/xingli/share/1205tiny/cJSON/cJSON.c ****     {
 857:/home/xingli/share/1205tiny/cJSON/cJSON.c ****         switch (*input_pointer)
 2442              		.loc 1 857 17
 2443 00aa 488B45D0 		movq	-48(%rbp), %rax
 2444 00ae 0FB600   		movzbl	(%rax), %eax
 2445 00b1 0FB6C0   		movzbl	%al, %eax
 2446              		.loc 1 857 9
 2447 00b4 83F85C   		cmpl	$92, %eax
 2448 00b7 7423     		je	.L208
 2449 00b9 83F85C   		cmpl	$92, %eax
 2450 00bc 7F25     		jg	.L209
 2451 00be 83F822   		cmpl	$34, %eax
 2452 00c1 7419     		je	.L208
 2453 00c3 83F822   		cmpl	$34, %eax
GAS LISTING /tmp/ccabgRKQ.s 			page 66


 2454 00c6 7F1B     		jg	.L209
 2455 00c8 83F80A   		cmpl	$10, %eax
 2456 00cb 7F07     		jg	.L210
 2457 00cd 83F808   		cmpl	$8, %eax
 2458 00d0 7D0A     		jge	.L208
 2459 00d2 EB0F     		jmp	.L209
 2460              	.L210:
 2461 00d4 83E80C   		subl	$12, %eax
 2462 00d7 83F801   		cmpl	$1, %eax
 2463 00da 7707     		ja	.L209
 2464              	.L208:
 858:/home/xingli/share/1205tiny/cJSON/cJSON.c ****         {
 859:/home/xingli/share/1205tiny/cJSON/cJSON.c ****             case '\"':
 860:/home/xingli/share/1205tiny/cJSON/cJSON.c ****             case '\\':
 861:/home/xingli/share/1205tiny/cJSON/cJSON.c ****             case '\b':
 862:/home/xingli/share/1205tiny/cJSON/cJSON.c ****             case '\f':
 863:/home/xingli/share/1205tiny/cJSON/cJSON.c ****             case '\n':
 864:/home/xingli/share/1205tiny/cJSON/cJSON.c ****             case '\r':
 865:/home/xingli/share/1205tiny/cJSON/cJSON.c ****             case '\t':
 866:/home/xingli/share/1205tiny/cJSON/cJSON.c ****                 /* one character escape sequence */
 867:/home/xingli/share/1205tiny/cJSON/cJSON.c ****                 escape_characters++;
 2465              		.loc 1 867 34
 2466 00dc 488345E0 		addq	$1, -32(%rbp)
 2466      01
 868:/home/xingli/share/1205tiny/cJSON/cJSON.c ****                 break;
 2467              		.loc 1 868 17
 2468 00e1 EB11     		jmp	.L211
 2469              	.L209:
 869:/home/xingli/share/1205tiny/cJSON/cJSON.c ****             default:
 870:/home/xingli/share/1205tiny/cJSON/cJSON.c ****                 if (*input_pointer < 32)
 2470              		.loc 1 870 21
 2471 00e3 488B45D0 		movq	-48(%rbp), %rax
 2472 00e7 0FB600   		movzbl	(%rax), %eax
 2473              		.loc 1 870 20
 2474 00ea 3C1F     		cmpb	$31, %al
 2475 00ec 7705     		ja	.L230
 871:/home/xingli/share/1205tiny/cJSON/cJSON.c ****                 {
 872:/home/xingli/share/1205tiny/cJSON/cJSON.c ****                     /* UTF-16 escape sequence uXXXX */
 873:/home/xingli/share/1205tiny/cJSON/cJSON.c ****                     escape_characters += 5;
 2476              		.loc 1 873 39
 2477 00ee 488345E0 		addq	$5, -32(%rbp)
 2477      05
 2478              	.L230:
 874:/home/xingli/share/1205tiny/cJSON/cJSON.c ****                 }
 875:/home/xingli/share/1205tiny/cJSON/cJSON.c ****                 break;
 2479              		.loc 1 875 17
 2480 00f3 90       		nop
 2481              	.L211:
 855:/home/xingli/share/1205tiny/cJSON/cJSON.c ****     {
 2482              		.loc 1 855 62 discriminator 2
 2483 00f4 488345D0 		addq	$1, -48(%rbp)
 2483      01
 2484              	.L207:
 855:/home/xingli/share/1205tiny/cJSON/cJSON.c ****     {
 2485              		.loc 1 855 33 discriminator 1
 2486 00f9 488B45D0 		movq	-48(%rbp), %rax
 2487 00fd 0FB600   		movzbl	(%rax), %eax
GAS LISTING /tmp/ccabgRKQ.s 			page 67


 855:/home/xingli/share/1205tiny/cJSON/cJSON.c ****     {
 2488              		.loc 1 855 5 discriminator 1
 2489 0100 84C0     		testb	%al, %al
 2490 0102 75A6     		jne	.L213
 876:/home/xingli/share/1205tiny/cJSON/cJSON.c ****         }
 877:/home/xingli/share/1205tiny/cJSON/cJSON.c ****     }
 878:/home/xingli/share/1205tiny/cJSON/cJSON.c ****     output_length = (size_t)(input_pointer - input) + escape_characters;
 2491              		.loc 1 878 44
 2492 0104 488B45D0 		movq	-48(%rbp), %rax
 2493 0108 482B45C8 		subq	-56(%rbp), %rax
 2494              		.loc 1 878 21
 2495 010c 4889C2   		movq	%rax, %rdx
 2496              		.loc 1 878 19
 2497 010f 488B45E0 		movq	-32(%rbp), %rax
 2498 0113 4801D0   		addq	%rdx, %rax
 2499 0116 488945F0 		movq	%rax, -16(%rbp)
 879:/home/xingli/share/1205tiny/cJSON/cJSON.c **** 
 880:/home/xingli/share/1205tiny/cJSON/cJSON.c ****     output = ensure(output_buffer, output_length + sizeof("\"\""));
 2500              		.loc 1 880 14
 2501 011a 488B45F0 		movq	-16(%rbp), %rax
 2502 011e 488D5003 		leaq	3(%rax), %rdx
 2503 0122 488B45C0 		movq	-64(%rbp), %rax
 2504 0126 4889D6   		movq	%rdx, %rsi
 2505 0129 4889C7   		movq	%rax, %rdi
 2506 012c E8000000 		call	ensure
 2506      00
 2507 0131 488945E8 		movq	%rax, -24(%rbp)
 881:/home/xingli/share/1205tiny/cJSON/cJSON.c ****     if (output == NULL)
 2508              		.loc 1 881 8
 2509 0135 48837DE8 		cmpq	$0, -24(%rbp)
 2509      00
 2510 013a 750A     		jne	.L214
 882:/home/xingli/share/1205tiny/cJSON/cJSON.c ****     {
 883:/home/xingli/share/1205tiny/cJSON/cJSON.c ****         return false;
 2511              		.loc 1 883 16
 2512 013c B8000000 		movl	$0, %eax
 2512      00
 2513 0141 E9A60100 		jmp	.L204
 2513      00
 2514              	.L214:
 884:/home/xingli/share/1205tiny/cJSON/cJSON.c ****     }
 885:/home/xingli/share/1205tiny/cJSON/cJSON.c **** 
 886:/home/xingli/share/1205tiny/cJSON/cJSON.c ****     /* no characters have to be escaped */
 887:/home/xingli/share/1205tiny/cJSON/cJSON.c ****     if (escape_characters == 0)
 2515              		.loc 1 887 8
 2516 0146 48837DE0 		cmpq	$0, -32(%rbp)
 2516      00
 2517 014b 7550     		jne	.L215
 888:/home/xingli/share/1205tiny/cJSON/cJSON.c ****     {
 889:/home/xingli/share/1205tiny/cJSON/cJSON.c ****         output[0] = '\"';
 2518              		.loc 1 889 19
 2519 014d 488B45E8 		movq	-24(%rbp), %rax
 2520 0151 C60022   		movb	$34, (%rax)
 890:/home/xingli/share/1205tiny/cJSON/cJSON.c ****         (void) memcpy(output + 1, input, output_length);
 2521              		.loc 1 890 30
 2522 0154 488B45E8 		movq	-24(%rbp), %rax
 2523 0158 488D4801 		leaq	1(%rax), %rcx
GAS LISTING /tmp/ccabgRKQ.s 			page 68


 2524              		.loc 1 890 16
 2525 015c 488B55F0 		movq	-16(%rbp), %rdx
 2526 0160 488B45C8 		movq	-56(%rbp), %rax
 2527 0164 4889C6   		movq	%rax, %rsi
 2528 0167 4889CF   		movq	%rcx, %rdi
 2529 016a E8000000 		call	memcpy@PLT
 2529      00
 891:/home/xingli/share/1205tiny/cJSON/cJSON.c ****         output[output_length + 1] = '\"';
 2530              		.loc 1 891 15
 2531 016f 488B45F0 		movq	-16(%rbp), %rax
 2532 0173 488D5001 		leaq	1(%rax), %rdx
 2533 0177 488B45E8 		movq	-24(%rbp), %rax
 2534 017b 4801D0   		addq	%rdx, %rax
 2535              		.loc 1 891 35
 2536 017e C60022   		movb	$34, (%rax)
 892:/home/xingli/share/1205tiny/cJSON/cJSON.c ****         output[output_length + 2] = '\0';
 2537              		.loc 1 892 15
 2538 0181 488B45F0 		movq	-16(%rbp), %rax
 2539 0185 488D5002 		leaq	2(%rax), %rdx
 2540 0189 488B45E8 		movq	-24(%rbp), %rax
 2541 018d 4801D0   		addq	%rdx, %rax
 2542              		.loc 1 892 35
 2543 0190 C60000   		movb	$0, (%rax)
 893:/home/xingli/share/1205tiny/cJSON/cJSON.c **** 
 894:/home/xingli/share/1205tiny/cJSON/cJSON.c ****         return true;
 2544              		.loc 1 894 16
 2545 0193 B8010000 		movl	$1, %eax
 2545      00
 2546 0198 E94F0100 		jmp	.L204
 2546      00
 2547              	.L215:
 895:/home/xingli/share/1205tiny/cJSON/cJSON.c ****     }
 896:/home/xingli/share/1205tiny/cJSON/cJSON.c **** 
 897:/home/xingli/share/1205tiny/cJSON/cJSON.c ****     output[0] = '\"';
 2548              		.loc 1 897 15
 2549 019d 488B45E8 		movq	-24(%rbp), %rax
 2550 01a1 C60022   		movb	$34, (%rax)
 898:/home/xingli/share/1205tiny/cJSON/cJSON.c ****     output_pointer = output + 1;
 2551              		.loc 1 898 20
 2552 01a4 488B45E8 		movq	-24(%rbp), %rax
 2553 01a8 4883C001 		addq	$1, %rax
 2554 01ac 488945D8 		movq	%rax, -40(%rbp)
 899:/home/xingli/share/1205tiny/cJSON/cJSON.c ****     /* copy the string */
 900:/home/xingli/share/1205tiny/cJSON/cJSON.c ****     for (input_pointer = input; *input_pointer != '\0'; (void)input_pointer++, output_pointer++)
 2555              		.loc 1 900 24
 2556 01b0 488B45C8 		movq	-56(%rbp), %rax
 2557 01b4 488945D0 		movq	%rax, -48(%rbp)
 2558              		.loc 1 900 5
 2559 01b8 E9F70000 		jmp	.L216
 2559      00
 2560              	.L228:
 901:/home/xingli/share/1205tiny/cJSON/cJSON.c ****     {
 902:/home/xingli/share/1205tiny/cJSON/cJSON.c ****         if ((*input_pointer > 31) && (*input_pointer != '\"') && (*input_pointer != '\\'))
 2561              		.loc 1 902 14
 2562 01bd 488B45D0 		movq	-48(%rbp), %rax
 2563 01c1 0FB600   		movzbl	(%rax), %eax
 2564              		.loc 1 902 12
GAS LISTING /tmp/ccabgRKQ.s 			page 69


 2565 01c4 3C1F     		cmpb	$31, %al
 2566 01c6 7628     		jbe	.L217
 2567              		.loc 1 902 39 discriminator 1
 2568 01c8 488B45D0 		movq	-48(%rbp), %rax
 2569 01cc 0FB600   		movzbl	(%rax), %eax
 2570              		.loc 1 902 35 discriminator 1
 2571 01cf 3C22     		cmpb	$34, %al
 2572 01d1 741D     		je	.L217
 2573              		.loc 1 902 67 discriminator 2
 2574 01d3 488B45D0 		movq	-48(%rbp), %rax
 2575 01d7 0FB600   		movzbl	(%rax), %eax
 2576              		.loc 1 902 63 discriminator 2
 2577 01da 3C5C     		cmpb	$92, %al
 2578 01dc 7412     		je	.L217
 903:/home/xingli/share/1205tiny/cJSON/cJSON.c ****         {
 904:/home/xingli/share/1205tiny/cJSON/cJSON.c ****             /* normal character, copy */
 905:/home/xingli/share/1205tiny/cJSON/cJSON.c ****             *output_pointer = *input_pointer;
 2579              		.loc 1 905 31
 2580 01de 488B45D0 		movq	-48(%rbp), %rax
 2581 01e2 0FB610   		movzbl	(%rax), %edx
 2582              		.loc 1 905 29
 2583 01e5 488B45D8 		movq	-40(%rbp), %rax
 2584 01e9 8810     		movb	%dl, (%rax)
 2585 01eb E9BA0000 		jmp	.L218
 2585      00
 2586              	.L217:
 906:/home/xingli/share/1205tiny/cJSON/cJSON.c ****         }
 907:/home/xingli/share/1205tiny/cJSON/cJSON.c ****         else
 908:/home/xingli/share/1205tiny/cJSON/cJSON.c ****         {
 909:/home/xingli/share/1205tiny/cJSON/cJSON.c ****             /* character needs to be escaped */
 910:/home/xingli/share/1205tiny/cJSON/cJSON.c ****             *output_pointer++ = '\\';
 2587              		.loc 1 910 28
 2588 01f0 488B45D8 		movq	-40(%rbp), %rax
 2589 01f4 488D5001 		leaq	1(%rax), %rdx
 2590 01f8 488955D8 		movq	%rdx, -40(%rbp)
 2591              		.loc 1 910 31
 2592 01fc C6005C   		movb	$92, (%rax)
 911:/home/xingli/share/1205tiny/cJSON/cJSON.c ****             switch (*input_pointer)
 2593              		.loc 1 911 21
 2594 01ff 488B45D0 		movq	-48(%rbp), %rax
 2595 0203 0FB600   		movzbl	(%rax), %eax
 2596 0206 0FB6C0   		movzbl	%al, %eax
 2597              		.loc 1 911 13
 2598 0209 83F822   		cmpl	$34, %eax
 2599 020c 7F30     		jg	.L219
 2600 020e 83F808   		cmpl	$8, %eax
 2601 0211 7C6F     		jl	.L220
 2602 0213 83E808   		subl	$8, %eax
 2603 0216 83F81A   		cmpl	$26, %eax
 2604 0219 7767     		ja	.L220
 2605 021b 89C0     		movl	%eax, %eax
 2606 021d 488D1485 		leaq	0(,%rax,4), %rdx
 2606      00000000 
 2607 0225 488D0500 		leaq	.L222(%rip), %rax
 2607      000000
 2608 022c 8B0402   		movl	(%rdx,%rax), %eax
 2609 022f 4898     		cltq
GAS LISTING /tmp/ccabgRKQ.s 			page 70


 2610 0231 488D1500 		leaq	.L222(%rip), %rdx
 2610      000000
 2611 0238 4801D0   		addq	%rdx, %rax
 2612 023b 3EFFE0   		notrack jmp	*%rax
 2613              		.section	.rodata.print_string_ptr,"a",@progbits
 2614              		.align 4
 2615              		.align 4
 2616              	.L222:
 2617 0000 00000000 		.long	.L227-.L222
 2618 0004 00000000 		.long	.L226-.L222
 2619 0008 00000000 		.long	.L225-.L222
 2620 000c 00000000 		.long	.L220-.L222
 2621 0010 00000000 		.long	.L224-.L222
 2622 0014 00000000 		.long	.L223-.L222
 2623 0018 00000000 		.long	.L220-.L222
 2624 001c 00000000 		.long	.L220-.L222
 2625 0020 00000000 		.long	.L220-.L222
 2626 0024 00000000 		.long	.L220-.L222
 2627 0028 00000000 		.long	.L220-.L222
 2628 002c 00000000 		.long	.L220-.L222
 2629 0030 00000000 		.long	.L220-.L222
 2630 0034 00000000 		.long	.L220-.L222
 2631 0038 00000000 		.long	.L220-.L222
 2632 003c 00000000 		.long	.L220-.L222
 2633 0040 00000000 		.long	.L220-.L222
 2634 0044 00000000 		.long	.L220-.L222
 2635 0048 00000000 		.long	.L220-.L222
 2636 004c 00000000 		.long	.L220-.L222
 2637 0050 00000000 		.long	.L220-.L222
 2638 0054 00000000 		.long	.L220-.L222
 2639 0058 00000000 		.long	.L220-.L222
 2640 005c 00000000 		.long	.L220-.L222
 2641 0060 00000000 		.long	.L220-.L222
 2642 0064 00000000 		.long	.L220-.L222
 2643 0068 00000000 		.long	.L221-.L222
 2644              		.section	.text.print_string_ptr
 2645              	.L219:
 2646 023e 83F85C   		cmpl	$92, %eax
 2647 0241 753F     		jne	.L220
 912:/home/xingli/share/1205tiny/cJSON/cJSON.c ****             {
 913:/home/xingli/share/1205tiny/cJSON/cJSON.c ****                 case '\\':
 914:/home/xingli/share/1205tiny/cJSON/cJSON.c ****                     *output_pointer = '\\';
 2648              		.loc 1 914 37
 2649 0243 488B45D8 		movq	-40(%rbp), %rax
 2650 0247 C6005C   		movb	$92, (%rax)
 915:/home/xingli/share/1205tiny/cJSON/cJSON.c ****                     break;
 2651              		.loc 1 915 21
 2652 024a EB5E     		jmp	.L218
 2653              	.L221:
 916:/home/xingli/share/1205tiny/cJSON/cJSON.c ****                 case '\"':
 917:/home/xingli/share/1205tiny/cJSON/cJSON.c ****                     *output_pointer = '\"';
 2654              		.loc 1 917 37
 2655 024c 488B45D8 		movq	-40(%rbp), %rax
 2656 0250 C60022   		movb	$34, (%rax)
 918:/home/xingli/share/1205tiny/cJSON/cJSON.c ****                     break;
 2657              		.loc 1 918 21
 2658 0253 EB55     		jmp	.L218
GAS LISTING /tmp/ccabgRKQ.s 			page 71


 2659              	.L227:
 919:/home/xingli/share/1205tiny/cJSON/cJSON.c ****                 case '\b':
 920:/home/xingli/share/1205tiny/cJSON/cJSON.c ****                     *output_pointer = 'b';
 2660              		.loc 1 920 37
 2661 0255 488B45D8 		movq	-40(%rbp), %rax
 2662 0259 C60062   		movb	$98, (%rax)
 921:/home/xingli/share/1205tiny/cJSON/cJSON.c ****                     break;
 2663              		.loc 1 921 21
 2664 025c EB4C     		jmp	.L218
 2665              	.L224:
 922:/home/xingli/share/1205tiny/cJSON/cJSON.c ****                 case '\f':
 923:/home/xingli/share/1205tiny/cJSON/cJSON.c ****                     *output_pointer = 'f';
 2666              		.loc 1 923 37
 2667 025e 488B45D8 		movq	-40(%rbp), %rax
 2668 0262 C60066   		movb	$102, (%rax)
 924:/home/xingli/share/1205tiny/cJSON/cJSON.c ****                     break;
 2669              		.loc 1 924 21
 2670 0265 EB43     		jmp	.L218
 2671              	.L225:
 925:/home/xingli/share/1205tiny/cJSON/cJSON.c ****                 case '\n':
 926:/home/xingli/share/1205tiny/cJSON/cJSON.c ****                     *output_pointer = 'n';
 2672              		.loc 1 926 37
 2673 0267 488B45D8 		movq	-40(%rbp), %rax
 2674 026b C6006E   		movb	$110, (%rax)
 927:/home/xingli/share/1205tiny/cJSON/cJSON.c ****                     break;
 2675              		.loc 1 927 21
 2676 026e EB3A     		jmp	.L218
 2677              	.L223:
 928:/home/xingli/share/1205tiny/cJSON/cJSON.c ****                 case '\r':
 929:/home/xingli/share/1205tiny/cJSON/cJSON.c ****                     *output_pointer = 'r';
 2678              		.loc 1 929 37
 2679 0270 488B45D8 		movq	-40(%rbp), %rax
 2680 0274 C60072   		movb	$114, (%rax)
 930:/home/xingli/share/1205tiny/cJSON/cJSON.c ****                     break;
 2681              		.loc 1 930 21
 2682 0277 EB31     		jmp	.L218
 2683              	.L226:
 931:/home/xingli/share/1205tiny/cJSON/cJSON.c ****                 case '\t':
 932:/home/xingli/share/1205tiny/cJSON/cJSON.c ****                     *output_pointer = 't';
 2684              		.loc 1 932 37
 2685 0279 488B45D8 		movq	-40(%rbp), %rax
 2686 027d C60074   		movb	$116, (%rax)
 933:/home/xingli/share/1205tiny/cJSON/cJSON.c ****                     break;
 2687              		.loc 1 933 21
 2688 0280 EB28     		jmp	.L218
 2689              	.L220:
 934:/home/xingli/share/1205tiny/cJSON/cJSON.c ****                 default:
 935:/home/xingli/share/1205tiny/cJSON/cJSON.c ****                     /* escape and print as unicode codepoint */
 936:/home/xingli/share/1205tiny/cJSON/cJSON.c ****                     sprintf((char*)output_pointer, "u%04x", *input_pointer);
 2690              		.loc 1 936 61
 2691 0282 488B45D0 		movq	-48(%rbp), %rax
 2692 0286 0FB600   		movzbl	(%rax), %eax
 2693              		.loc 1 936 21
 2694 0289 0FB6D0   		movzbl	%al, %edx
 2695 028c 488B45D8 		movq	-40(%rbp), %rax
 2696 0290 488D3500 		leaq	.LC8(%rip), %rsi
 2696      000000
GAS LISTING /tmp/ccabgRKQ.s 			page 72


 2697 0297 4889C7   		movq	%rax, %rdi
 2698 029a B8000000 		movl	$0, %eax
 2698      00
 2699 029f E8000000 		call	sprintf@PLT
 2699      00
 937:/home/xingli/share/1205tiny/cJSON/cJSON.c ****                     output_pointer += 4;
 2700              		.loc 1 937 36
 2701 02a4 488345D8 		addq	$4, -40(%rbp)
 2701      04
 938:/home/xingli/share/1205tiny/cJSON/cJSON.c ****                     break;
 2702              		.loc 1 938 21
 2703 02a9 90       		nop
 2704              	.L218:
 900:/home/xingli/share/1205tiny/cJSON/cJSON.c ****     {
 2705              		.loc 1 900 57 discriminator 2
 2706 02aa 488345D0 		addq	$1, -48(%rbp)
 2706      01
 900:/home/xingli/share/1205tiny/cJSON/cJSON.c ****     {
 2707              		.loc 1 900 94 discriminator 2
 2708 02af 488345D8 		addq	$1, -40(%rbp)
 2708      01
 2709              	.L216:
 900:/home/xingli/share/1205tiny/cJSON/cJSON.c ****     {
 2710              		.loc 1 900 33 discriminator 1
 2711 02b4 488B45D0 		movq	-48(%rbp), %rax
 2712 02b8 0FB600   		movzbl	(%rax), %eax
 900:/home/xingli/share/1205tiny/cJSON/cJSON.c ****     {
 2713              		.loc 1 900 5 discriminator 1
 2714 02bb 84C0     		testb	%al, %al
 2715 02bd 0F85FAFE 		jne	.L228
 2715      FFFF
 939:/home/xingli/share/1205tiny/cJSON/cJSON.c ****             }
 940:/home/xingli/share/1205tiny/cJSON/cJSON.c ****         }
 941:/home/xingli/share/1205tiny/cJSON/cJSON.c ****     }
 942:/home/xingli/share/1205tiny/cJSON/cJSON.c ****     output[output_length + 1] = '\"';
 2716              		.loc 1 942 11
 2717 02c3 488B45F0 		movq	-16(%rbp), %rax
 2718 02c7 488D5001 		leaq	1(%rax), %rdx
 2719 02cb 488B45E8 		movq	-24(%rbp), %rax
 2720 02cf 4801D0   		addq	%rdx, %rax
 2721              		.loc 1 942 31
 2722 02d2 C60022   		movb	$34, (%rax)
 943:/home/xingli/share/1205tiny/cJSON/cJSON.c ****     output[output_length + 2] = '\0';
 2723              		.loc 1 943 11
 2724 02d5 488B45F0 		movq	-16(%rbp), %rax
 2725 02d9 488D5002 		leaq	2(%rax), %rdx
 2726 02dd 488B45E8 		movq	-24(%rbp), %rax
 2727 02e1 4801D0   		addq	%rdx, %rax
 2728              		.loc 1 943 31
 2729 02e4 C60000   		movb	$0, (%rax)
 944:/home/xingli/share/1205tiny/cJSON/cJSON.c **** 
 945:/home/xingli/share/1205tiny/cJSON/cJSON.c ****     return true;
 2730              		.loc 1 945 12
 2731 02e7 B8010000 		movl	$1, %eax
 2731      00
 2732              	.L204:
 946:/home/xingli/share/1205tiny/cJSON/cJSON.c **** }
GAS LISTING /tmp/ccabgRKQ.s 			page 73


 2733              		.loc 1 946 1
 2734 02ec 488B4DF8 		movq	-8(%rbp), %rcx
 2735 02f0 6448330C 		xorq	%fs:40, %rcx
 2735      25280000 
 2735      00
 2736 02f9 7405     		je	.L229
 2737 02fb E8000000 		call	__stack_chk_fail@PLT
 2737      00
 2738              	.L229:
 2739 0300 C9       		leave
 2740              	.LCFI53:
 2741              		.cfi_def_cfa 7, 8
 2742 0301 C3       		ret
 2743              		.cfi_endproc
 2744              	.LFE23:
 2746              		.section	.text.print_string,"ax",@progbits
 2748              	print_string:
 2749              	.LFB24:
 947:/home/xingli/share/1205tiny/cJSON/cJSON.c **** 
 948:/home/xingli/share/1205tiny/cJSON/cJSON.c **** /* Invoke print_string_ptr (which is useful) on an item. */
 949:/home/xingli/share/1205tiny/cJSON/cJSON.c **** static cJSON_bool print_string(const cJSON * const item, printbuffer * const p)
 950:/home/xingli/share/1205tiny/cJSON/cJSON.c **** {
 2750              		.loc 1 950 1
 2751              		.cfi_startproc
 2752 0000 F30F1EFA 		endbr64
 2753 0004 55       		pushq	%rbp
 2754              	.LCFI54:
 2755              		.cfi_def_cfa_offset 16
 2756              		.cfi_offset 6, -16
 2757 0005 4889E5   		movq	%rsp, %rbp
 2758              	.LCFI55:
 2759              		.cfi_def_cfa_register 6
 2760 0008 4883EC20 		subq	$32, %rsp
 2761 000c 48897DE8 		movq	%rdi, -24(%rbp)
 2762 0010 488975E0 		movq	%rsi, -32(%rbp)
 2763              		.loc 1 950 1
 2764 0014 64488B04 		movq	%fs:40, %rax
 2764      25280000 
 2764      00
 2765 001d 488945F8 		movq	%rax, -8(%rbp)
 2766 0021 31C0     		xorl	%eax, %eax
 951:/home/xingli/share/1205tiny/cJSON/cJSON.c ****     return print_string_ptr((unsigned char*)item->valuestring, p);
 2767              		.loc 1 951 49
 2768 0023 488B45E8 		movq	-24(%rbp), %rax
 2769 0027 488B4020 		movq	32(%rax), %rax
 2770              		.loc 1 951 12
 2771 002b 488B55E0 		movq	-32(%rbp), %rdx
 2772 002f 4889D6   		movq	%rdx, %rsi
 2773 0032 4889C7   		movq	%rax, %rdi
 2774 0035 E8000000 		call	print_string_ptr
 2774      00
 952:/home/xingli/share/1205tiny/cJSON/cJSON.c **** }
 2775              		.loc 1 952 1
 2776 003a 488B4DF8 		movq	-8(%rbp), %rcx
 2777 003e 6448330C 		xorq	%fs:40, %rcx
 2777      25280000 
 2777      00
GAS LISTING /tmp/ccabgRKQ.s 			page 74


 2778 0047 7405     		je	.L233
 2779 0049 E8000000 		call	__stack_chk_fail@PLT
 2779      00
 2780              	.L233:
 2781 004e C9       		leave
 2782              	.LCFI56:
 2783              		.cfi_def_cfa 7, 8
 2784 004f C3       		ret
 2785              		.cfi_endproc
 2786              	.LFE24:
 2788              		.section	.text.buffer_skip_whitespace,"ax",@progbits
 2790              	buffer_skip_whitespace:
 2791              	.LFB25:
 953:/home/xingli/share/1205tiny/cJSON/cJSON.c **** 
 954:/home/xingli/share/1205tiny/cJSON/cJSON.c **** /* Predeclare these prototypes. */
 955:/home/xingli/share/1205tiny/cJSON/cJSON.c **** static cJSON_bool parse_value(cJSON * const item, parse_buffer * const input_buffer);
 956:/home/xingli/share/1205tiny/cJSON/cJSON.c **** static cJSON_bool print_value(const cJSON * const item, printbuffer * const output_buffer);
 957:/home/xingli/share/1205tiny/cJSON/cJSON.c **** static cJSON_bool parse_array(cJSON * const item, parse_buffer * const input_buffer);
 958:/home/xingli/share/1205tiny/cJSON/cJSON.c **** static cJSON_bool print_array(const cJSON * const item, printbuffer * const output_buffer);
 959:/home/xingli/share/1205tiny/cJSON/cJSON.c **** static cJSON_bool parse_object(cJSON * const item, parse_buffer * const input_buffer);
 960:/home/xingli/share/1205tiny/cJSON/cJSON.c **** static cJSON_bool print_object(const cJSON * const item, printbuffer * const output_buffer);
 961:/home/xingli/share/1205tiny/cJSON/cJSON.c **** 
 962:/home/xingli/share/1205tiny/cJSON/cJSON.c **** /* Utility to jump whitespace and cr/lf */
 963:/home/xingli/share/1205tiny/cJSON/cJSON.c **** static parse_buffer *buffer_skip_whitespace(parse_buffer * const buffer)
 964:/home/xingli/share/1205tiny/cJSON/cJSON.c **** {
 2792              		.loc 1 964 1
 2793              		.cfi_startproc
 2794 0000 F30F1EFA 		endbr64
 2795 0004 55       		pushq	%rbp
 2796              	.LCFI57:
 2797              		.cfi_def_cfa_offset 16
 2798              		.cfi_offset 6, -16
 2799 0005 4889E5   		movq	%rsp, %rbp
 2800              	.LCFI58:
 2801              		.cfi_def_cfa_register 6
 2802 0008 4883EC20 		subq	$32, %rsp
 2803 000c 48897DE8 		movq	%rdi, -24(%rbp)
 2804              		.loc 1 964 1
 2805 0010 64488B04 		movq	%fs:40, %rax
 2805      25280000 
 2805      00
 2806 0019 488945F8 		movq	%rax, -8(%rbp)
 2807 001d 31C0     		xorl	%eax, %eax
 965:/home/xingli/share/1205tiny/cJSON/cJSON.c ****     if ((buffer == NULL) || (buffer->content == NULL))
 2808              		.loc 1 965 8
 2809 001f 48837DE8 		cmpq	$0, -24(%rbp)
 2809      00
 2810 0024 740C     		je	.L235
 2811              		.loc 1 965 36 discriminator 1
 2812 0026 488B45E8 		movq	-24(%rbp), %rax
 2813 002a 488B00   		movq	(%rax), %rax
 2814              		.loc 1 965 26 discriminator 1
 2815 002d 4885C0   		testq	%rax, %rax
 2816 0030 751B     		jne	.L238
 2817              	.L235:
 966:/home/xingli/share/1205tiny/cJSON/cJSON.c ****     {
 967:/home/xingli/share/1205tiny/cJSON/cJSON.c ****         return NULL;
GAS LISTING /tmp/ccabgRKQ.s 			page 75


 2818              		.loc 1 967 16
 2819 0032 B8000000 		movl	$0, %eax
 2819      00
 2820 0037 EB76     		jmp	.L237
 2821              	.L240:
 968:/home/xingli/share/1205tiny/cJSON/cJSON.c ****     }
 969:/home/xingli/share/1205tiny/cJSON/cJSON.c **** 
 970:/home/xingli/share/1205tiny/cJSON/cJSON.c ****     while (can_access_at_index(buffer, 0) && (buffer_at_offset(buffer)[0] <= 32))
 971:/home/xingli/share/1205tiny/cJSON/cJSON.c ****     {
 972:/home/xingli/share/1205tiny/cJSON/cJSON.c ****        buffer->offset++;
 2822              		.loc 1 972 14
 2823 0039 488B45E8 		movq	-24(%rbp), %rax
 2824 003d 488B4010 		movq	16(%rax), %rax
 2825              		.loc 1 972 22
 2826 0041 488D5001 		leaq	1(%rax), %rdx
 2827 0045 488B45E8 		movq	-24(%rbp), %rax
 2828 0049 48895010 		movq	%rdx, 16(%rax)
 2829              	.L238:
 970:/home/xingli/share/1205tiny/cJSON/cJSON.c ****     {
 2830              		.loc 1 970 11
 2831 004d 48837DE8 		cmpq	$0, -24(%rbp)
 2831      00
 2832 0052 742E     		je	.L239
 970:/home/xingli/share/1205tiny/cJSON/cJSON.c ****     {
 2833              		.loc 1 970 12 discriminator 1
 2834 0054 488B45E8 		movq	-24(%rbp), %rax
 2835 0058 488B5010 		movq	16(%rax), %rdx
 2836 005c 488B45E8 		movq	-24(%rbp), %rax
 2837 0060 488B4008 		movq	8(%rax), %rax
 2838 0064 4839C2   		cmpq	%rax, %rdx
 2839 0067 7319     		jnb	.L239
 970:/home/xingli/share/1205tiny/cJSON/cJSON.c ****     {
 2840              		.loc 1 970 47 discriminator 2
 2841 0069 488B45E8 		movq	-24(%rbp), %rax
 2842 006d 488B10   		movq	(%rax), %rdx
 2843 0070 488B45E8 		movq	-24(%rbp), %rax
 2844 0074 488B4010 		movq	16(%rax), %rax
 970:/home/xingli/share/1205tiny/cJSON/cJSON.c ****     {
 2845              		.loc 1 970 71 discriminator 2
 2846 0078 4801D0   		addq	%rdx, %rax
 2847 007b 0FB600   		movzbl	(%rax), %eax
 970:/home/xingli/share/1205tiny/cJSON/cJSON.c ****     {
 2848              		.loc 1 970 43 discriminator 2
 2849 007e 3C20     		cmpb	$32, %al
 2850 0080 76B7     		jbe	.L240
 2851              	.L239:
 973:/home/xingli/share/1205tiny/cJSON/cJSON.c ****     }
 974:/home/xingli/share/1205tiny/cJSON/cJSON.c **** 
 975:/home/xingli/share/1205tiny/cJSON/cJSON.c ****     if (buffer->offset == buffer->length)
 2852              		.loc 1 975 15
 2853 0082 488B45E8 		movq	-24(%rbp), %rax
 2854 0086 488B5010 		movq	16(%rax), %rdx
 2855              		.loc 1 975 33
 2856 008a 488B45E8 		movq	-24(%rbp), %rax
 2857 008e 488B4008 		movq	8(%rax), %rax
 2858              		.loc 1 975 8
 2859 0092 4839C2   		cmpq	%rax, %rdx
GAS LISTING /tmp/ccabgRKQ.s 			page 76


 2860 0095 7514     		jne	.L241
 976:/home/xingli/share/1205tiny/cJSON/cJSON.c ****     {
 977:/home/xingli/share/1205tiny/cJSON/cJSON.c ****         buffer->offset--;
 2861              		.loc 1 977 15
 2862 0097 488B45E8 		movq	-24(%rbp), %rax
 2863 009b 488B4010 		movq	16(%rax), %rax
 2864              		.loc 1 977 23
 2865 009f 488D50FF 		leaq	-1(%rax), %rdx
 2866 00a3 488B45E8 		movq	-24(%rbp), %rax
 2867 00a7 48895010 		movq	%rdx, 16(%rax)
 2868              	.L241:
 978:/home/xingli/share/1205tiny/cJSON/cJSON.c ****     }
 979:/home/xingli/share/1205tiny/cJSON/cJSON.c **** 
 980:/home/xingli/share/1205tiny/cJSON/cJSON.c ****     return buffer;
 2869              		.loc 1 980 12
 2870 00ab 488B45E8 		movq	-24(%rbp), %rax
 2871              	.L237:
 981:/home/xingli/share/1205tiny/cJSON/cJSON.c **** }
 2872              		.loc 1 981 1
 2873 00af 488B4DF8 		movq	-8(%rbp), %rcx
 2874 00b3 6448330C 		xorq	%fs:40, %rcx
 2874      25280000 
 2874      00
 2875 00bc 7405     		je	.L242
 2876 00be E8000000 		call	__stack_chk_fail@PLT
 2876      00
 2877              	.L242:
 2878 00c3 C9       		leave
 2879              	.LCFI59:
 2880              		.cfi_def_cfa 7, 8
 2881 00c4 C3       		ret
 2882              		.cfi_endproc
 2883              	.LFE25:
 2885              		.section	.rodata
 2886              	.LC9:
 2887 0026 EFBBBF00 		.string	"\357\273\277"
 2888              		.section	.text.skip_utf8_bom,"ax",@progbits
 2890              	skip_utf8_bom:
 2891              	.LFB26:
 982:/home/xingli/share/1205tiny/cJSON/cJSON.c **** 
 983:/home/xingli/share/1205tiny/cJSON/cJSON.c **** /* skip the UTF-8 BOM (byte order mark) if it is at the beginning of a buffer */
 984:/home/xingli/share/1205tiny/cJSON/cJSON.c **** static parse_buffer *skip_utf8_bom(parse_buffer * const buffer)
 985:/home/xingli/share/1205tiny/cJSON/cJSON.c **** {
 2892              		.loc 1 985 1
 2893              		.cfi_startproc
 2894 0000 F30F1EFA 		endbr64
 2895 0004 55       		pushq	%rbp
 2896              	.LCFI60:
 2897              		.cfi_def_cfa_offset 16
 2898              		.cfi_offset 6, -16
 2899 0005 4889E5   		movq	%rsp, %rbp
 2900              	.LCFI61:
 2901              		.cfi_def_cfa_register 6
 2902 0008 4883EC20 		subq	$32, %rsp
 2903 000c 48897DE8 		movq	%rdi, -24(%rbp)
 2904              		.loc 1 985 1
 2905 0010 64488B04 		movq	%fs:40, %rax
GAS LISTING /tmp/ccabgRKQ.s 			page 77


 2905      25280000 
 2905      00
 2906 0019 488945F8 		movq	%rax, -8(%rbp)
 2907 001d 31C0     		xorl	%eax, %eax
 986:/home/xingli/share/1205tiny/cJSON/cJSON.c ****     if ((buffer == NULL) || (buffer->content == NULL) || (buffer->offset != 0))
 2908              		.loc 1 986 8
 2909 001f 48837DE8 		cmpq	$0, -24(%rbp)
 2909      00
 2910 0024 7419     		je	.L244
 2911              		.loc 1 986 36 discriminator 1
 2912 0026 488B45E8 		movq	-24(%rbp), %rax
 2913 002a 488B00   		movq	(%rax), %rax
 2914              		.loc 1 986 26 discriminator 1
 2915 002d 4885C0   		testq	%rax, %rax
 2916 0030 740D     		je	.L244
 2917              		.loc 1 986 65 discriminator 2
 2918 0032 488B45E8 		movq	-24(%rbp), %rax
 2919 0036 488B4010 		movq	16(%rax), %rax
 2920              		.loc 1 986 55 discriminator 2
 2921 003a 4885C0   		testq	%rax, %rax
 2922 003d 7407     		je	.L245
 2923              	.L244:
 987:/home/xingli/share/1205tiny/cJSON/cJSON.c ****     {
 988:/home/xingli/share/1205tiny/cJSON/cJSON.c ****         return NULL;
 2924              		.loc 1 988 16
 2925 003f B8000000 		movl	$0, %eax
 2925      00
 2926 0044 EB62     		jmp	.L246
 2927              	.L245:
 989:/home/xingli/share/1205tiny/cJSON/cJSON.c ****     }
 990:/home/xingli/share/1205tiny/cJSON/cJSON.c **** 
 991:/home/xingli/share/1205tiny/cJSON/cJSON.c ****     if (can_access_at_index(buffer, 4) && (strncmp((const char*)buffer_at_offset(buffer), "\xEF\xBB
 2928              		.loc 1 991 8
 2929 0046 48837DE8 		cmpq	$0, -24(%rbp)
 2929      00
 2930 004b 7457     		je	.L247
 2931              		.loc 1 991 9 discriminator 1
 2932 004d 488B45E8 		movq	-24(%rbp), %rax
 2933 0051 488B4010 		movq	16(%rax), %rax
 2934 0055 488D5004 		leaq	4(%rax), %rdx
 2935 0059 488B45E8 		movq	-24(%rbp), %rax
 2936 005d 488B4008 		movq	8(%rax), %rax
 2937 0061 4839C2   		cmpq	%rax, %rdx
 2938 0064 733E     		jnb	.L247
 2939              		.loc 1 991 65 discriminator 2
 2940 0066 488B45E8 		movq	-24(%rbp), %rax
 2941 006a 488B10   		movq	(%rax), %rdx
 2942 006d 488B45E8 		movq	-24(%rbp), %rax
 2943 0071 488B4010 		movq	16(%rax), %rax
 2944 0075 4801D0   		addq	%rdx, %rax
 2945              		.loc 1 991 44 discriminator 2
 2946 0078 BA030000 		movl	$3, %edx
 2946      00
 2947 007d 488D3500 		leaq	.LC9(%rip), %rsi
 2947      000000
 2948 0084 4889C7   		movq	%rax, %rdi
 2949 0087 E8000000 		call	strncmp@PLT
GAS LISTING /tmp/ccabgRKQ.s 			page 78


 2949      00
 2950              		.loc 1 991 40 discriminator 2
 2951 008c 85C0     		testl	%eax, %eax
 2952 008e 7514     		jne	.L247
 992:/home/xingli/share/1205tiny/cJSON/cJSON.c ****     {
 993:/home/xingli/share/1205tiny/cJSON/cJSON.c ****         buffer->offset += 3;
 2953              		.loc 1 993 24
 2954 0090 488B45E8 		movq	-24(%rbp), %rax
 2955 0094 488B4010 		movq	16(%rax), %rax
 2956 0098 488D5003 		leaq	3(%rax), %rdx
 2957 009c 488B45E8 		movq	-24(%rbp), %rax
 2958 00a0 48895010 		movq	%rdx, 16(%rax)
 2959              	.L247:
 994:/home/xingli/share/1205tiny/cJSON/cJSON.c ****     }
 995:/home/xingli/share/1205tiny/cJSON/cJSON.c **** 
 996:/home/xingli/share/1205tiny/cJSON/cJSON.c ****     return buffer;
 2960              		.loc 1 996 12
 2961 00a4 488B45E8 		movq	-24(%rbp), %rax
 2962              	.L246:
 997:/home/xingli/share/1205tiny/cJSON/cJSON.c **** }
 2963              		.loc 1 997 1
 2964 00a8 488B4DF8 		movq	-8(%rbp), %rcx
 2965 00ac 6448330C 		xorq	%fs:40, %rcx
 2965      25280000 
 2965      00
 2966 00b5 7405     		je	.L248
 2967 00b7 E8000000 		call	__stack_chk_fail@PLT
 2967      00
 2968              	.L248:
 2969 00bc C9       		leave
 2970              	.LCFI62:
 2971              		.cfi_def_cfa 7, 8
 2972 00bd C3       		ret
 2973              		.cfi_endproc
 2974              	.LFE26:
 2976              		.section	.text.cJSON_ParseWithOpts,"ax",@progbits
 2977              		.globl	cJSON_ParseWithOpts
 2979              	cJSON_ParseWithOpts:
 2980              	.LFB27:
 998:/home/xingli/share/1205tiny/cJSON/cJSON.c **** 
 999:/home/xingli/share/1205tiny/cJSON/cJSON.c **** /* Parse an object - create a new root, and populate. */
1000:/home/xingli/share/1205tiny/cJSON/cJSON.c **** CJSON_PUBLIC(cJSON *) cJSON_ParseWithOpts(const char *value, const char **return_parse_end, cJSON_b
1001:/home/xingli/share/1205tiny/cJSON/cJSON.c **** {
 2981              		.loc 1 1001 1
 2982              		.cfi_startproc
 2983 0000 F30F1EFA 		endbr64
 2984 0004 55       		pushq	%rbp
 2985              	.LCFI63:
 2986              		.cfi_def_cfa_offset 16
 2987              		.cfi_offset 6, -16
 2988 0005 4889E5   		movq	%rsp, %rbp
 2989              	.LCFI64:
 2990              		.cfi_def_cfa_register 6
 2991 0008 4883C480 		addq	$-128, %rsp
 2992 000c 48897D98 		movq	%rdi, -104(%rbp)
 2993 0010 48897590 		movq	%rsi, -112(%rbp)
 2994 0014 89558C   		movl	%edx, -116(%rbp)
GAS LISTING /tmp/ccabgRKQ.s 			page 79


 2995              		.loc 1 1001 1
 2996 0017 64488B04 		movq	%fs:40, %rax
 2996      25280000 
 2996      00
 2997 0020 488945F8 		movq	%rax, -8(%rbp)
 2998 0024 31C0     		xorl	%eax, %eax
1002:/home/xingli/share/1205tiny/cJSON/cJSON.c ****     parse_buffer buffer = { 0, 0, 0, 0, { 0, 0, 0 } };
 2999              		.loc 1 1002 18
 3000 0026 48C745C0 		movq	$0, -64(%rbp)
 3000      00000000 
 3001 002e 48C745C8 		movq	$0, -56(%rbp)
 3001      00000000 
 3002 0036 48C745D0 		movq	$0, -48(%rbp)
 3002      00000000 
 3003 003e 48C745D8 		movq	$0, -40(%rbp)
 3003      00000000 
 3004 0046 48C745E0 		movq	$0, -32(%rbp)
 3004      00000000 
 3005 004e 48C745E8 		movq	$0, -24(%rbp)
 3005      00000000 
 3006 0056 48C745F0 		movq	$0, -16(%rbp)
 3006      00000000 
1003:/home/xingli/share/1205tiny/cJSON/cJSON.c ****     cJSON *item = NULL;
 3007              		.loc 1 1003 12
 3008 005e 48C745A8 		movq	$0, -88(%rbp)
 3008      00000000 
1004:/home/xingli/share/1205tiny/cJSON/cJSON.c **** 
1005:/home/xingli/share/1205tiny/cJSON/cJSON.c ****     /* reset error position */
1006:/home/xingli/share/1205tiny/cJSON/cJSON.c ****     global_error.json = NULL;
 3009              		.loc 1 1006 23
 3010 0066 48C70500 		movq	$0, global_error(%rip)
 3010      00000000 
 3010      000000
1007:/home/xingli/share/1205tiny/cJSON/cJSON.c ****     global_error.position = 0;
 3011              		.loc 1 1007 27
 3012 0071 48C70500 		movq	$0, 8+global_error(%rip)
 3012      00000000 
 3012      000000
1008:/home/xingli/share/1205tiny/cJSON/cJSON.c **** 
1009:/home/xingli/share/1205tiny/cJSON/cJSON.c ****     if (value == NULL)
 3013              		.loc 1 1009 8
 3014 007c 48837D98 		cmpq	$0, -104(%rbp)
 3014      00
 3015 0081 0F84DD00 		je	.L265
 3015      0000
1010:/home/xingli/share/1205tiny/cJSON/cJSON.c ****     {
1011:/home/xingli/share/1205tiny/cJSON/cJSON.c ****         goto fail;
1012:/home/xingli/share/1205tiny/cJSON/cJSON.c ****     }
1013:/home/xingli/share/1205tiny/cJSON/cJSON.c **** 
1014:/home/xingli/share/1205tiny/cJSON/cJSON.c ****     buffer.content = (const unsigned char*)value;
 3016              		.loc 1 1014 20
 3017 0087 488B4598 		movq	-104(%rbp), %rax
 3018 008b 488945C0 		movq	%rax, -64(%rbp)
1015:/home/xingli/share/1205tiny/cJSON/cJSON.c ****     buffer.length = strlen((const char*)value) + sizeof("");
 3019              		.loc 1 1015 21
 3020 008f 488B4598 		movq	-104(%rbp), %rax
 3021 0093 4889C7   		movq	%rax, %rdi
GAS LISTING /tmp/ccabgRKQ.s 			page 80


 3022 0096 E8000000 		call	strlen@PLT
 3022      00
 3023              		.loc 1 1015 48
 3024 009b 4883C001 		addq	$1, %rax
 3025              		.loc 1 1015 19
 3026 009f 488945C8 		movq	%rax, -56(%rbp)
1016:/home/xingli/share/1205tiny/cJSON/cJSON.c ****     buffer.offset = 0;
 3027              		.loc 1 1016 19
 3028 00a3 48C745D0 		movq	$0, -48(%rbp)
 3028      00000000 
1017:/home/xingli/share/1205tiny/cJSON/cJSON.c ****     buffer.hooks = global_hooks;
 3029              		.loc 1 1017 18
 3030 00ab 488B0500 		movq	global_hooks(%rip), %rax
 3030      000000
 3031 00b2 488B1500 		movq	8+global_hooks(%rip), %rdx
 3031      000000
 3032 00b9 488945E0 		movq	%rax, -32(%rbp)
 3033 00bd 488955E8 		movq	%rdx, -24(%rbp)
 3034 00c1 488B0500 		movq	16+global_hooks(%rip), %rax
 3034      000000
 3035 00c8 488945F0 		movq	%rax, -16(%rbp)
1018:/home/xingli/share/1205tiny/cJSON/cJSON.c **** 
1019:/home/xingli/share/1205tiny/cJSON/cJSON.c ****     item = cJSON_New_Item(&global_hooks);
 3036              		.loc 1 1019 12
 3037 00cc 488D3D00 		leaq	global_hooks(%rip), %rdi
 3037      000000
 3038 00d3 E8000000 		call	cJSON_New_Item
 3038      00
 3039 00d8 488945A8 		movq	%rax, -88(%rbp)
1020:/home/xingli/share/1205tiny/cJSON/cJSON.c ****     if (item == NULL) /* memory fail */
 3040              		.loc 1 1020 8
 3041 00dc 48837DA8 		cmpq	$0, -88(%rbp)
 3041      00
 3042 00e1 0F848000 		je	.L266
 3042      0000
1021:/home/xingli/share/1205tiny/cJSON/cJSON.c ****     {
1022:/home/xingli/share/1205tiny/cJSON/cJSON.c ****         goto fail;
1023:/home/xingli/share/1205tiny/cJSON/cJSON.c ****     }
1024:/home/xingli/share/1205tiny/cJSON/cJSON.c **** 
1025:/home/xingli/share/1205tiny/cJSON/cJSON.c ****     if (!parse_value(item, buffer_skip_whitespace(skip_utf8_bom(&buffer))))
 3043              		.loc 1 1025 10
 3044 00e7 488D45C0 		leaq	-64(%rbp), %rax
 3045 00eb 4889C7   		movq	%rax, %rdi
 3046 00ee E8000000 		call	skip_utf8_bom
 3046      00
 3047 00f3 4889C7   		movq	%rax, %rdi
 3048 00f6 E8000000 		call	buffer_skip_whitespace
 3048      00
 3049 00fb 4889C2   		movq	%rax, %rdx
 3050 00fe 488B45A8 		movq	-88(%rbp), %rax
 3051 0102 4889D6   		movq	%rdx, %rsi
 3052 0105 4889C7   		movq	%rax, %rdi
 3053 0108 E8000000 		call	parse_value
 3053      00
 3054              		.loc 1 1025 8
 3055 010d 85C0     		testl	%eax, %eax
 3056 010f 7459     		je	.L267
GAS LISTING /tmp/ccabgRKQ.s 			page 81


1026:/home/xingli/share/1205tiny/cJSON/cJSON.c ****     {
1027:/home/xingli/share/1205tiny/cJSON/cJSON.c ****         /* parse failure. ep is set. */
1028:/home/xingli/share/1205tiny/cJSON/cJSON.c ****         goto fail;
1029:/home/xingli/share/1205tiny/cJSON/cJSON.c ****     }
1030:/home/xingli/share/1205tiny/cJSON/cJSON.c **** 
1031:/home/xingli/share/1205tiny/cJSON/cJSON.c ****     /* if we require null-terminated JSON without appended garbage, skip and then check for a null 
1032:/home/xingli/share/1205tiny/cJSON/cJSON.c ****     if (require_null_terminated)
 3057              		.loc 1 1032 8
 3058 0111 837D8C00 		cmpl	$0, -116(%rbp)
 3059 0115 742B     		je	.L254
1033:/home/xingli/share/1205tiny/cJSON/cJSON.c ****     {
1034:/home/xingli/share/1205tiny/cJSON/cJSON.c ****         buffer_skip_whitespace(&buffer);
 3060              		.loc 1 1034 9
 3061 0117 488D45C0 		leaq	-64(%rbp), %rax
 3062 011b 4889C7   		movq	%rax, %rdi
 3063 011e E8000000 		call	buffer_skip_whitespace
 3063      00
1035:/home/xingli/share/1205tiny/cJSON/cJSON.c ****         if ((buffer.offset >= buffer.length) || buffer_at_offset(&buffer)[0] != '\0')
 3064              		.loc 1 1035 20
 3065 0123 488B55D0 		movq	-48(%rbp), %rdx
 3066              		.loc 1 1035 37
 3067 0127 488B45C8 		movq	-56(%rbp), %rax
 3068              		.loc 1 1035 12
 3069 012b 4839C2   		cmpq	%rax, %rdx
 3070 012e 733D     		jnb	.L268
 3071              		.loc 1 1035 49 discriminator 1
 3072 0130 488B55C0 		movq	-64(%rbp), %rdx
 3073 0134 488B45D0 		movq	-48(%rbp), %rax
 3074              		.loc 1 1035 74 discriminator 1
 3075 0138 4801D0   		addq	%rdx, %rax
 3076 013b 0FB600   		movzbl	(%rax), %eax
 3077              		.loc 1 1035 46 discriminator 1
 3078 013e 84C0     		testb	%al, %al
 3079 0140 752B     		jne	.L268
 3080              	.L254:
1036:/home/xingli/share/1205tiny/cJSON/cJSON.c ****         {
1037:/home/xingli/share/1205tiny/cJSON/cJSON.c ****             goto fail;
1038:/home/xingli/share/1205tiny/cJSON/cJSON.c ****         }
1039:/home/xingli/share/1205tiny/cJSON/cJSON.c ****     }
1040:/home/xingli/share/1205tiny/cJSON/cJSON.c ****     if (return_parse_end)
 3081              		.loc 1 1040 8
 3082 0142 48837D90 		cmpq	$0, -112(%rbp)
 3082      00
 3083 0147 7412     		je	.L256
1041:/home/xingli/share/1205tiny/cJSON/cJSON.c ****     {
1042:/home/xingli/share/1205tiny/cJSON/cJSON.c ****         *return_parse_end = (const char*)buffer_at_offset(&buffer);
 3084              		.loc 1 1042 42
 3085 0149 488B55C0 		movq	-64(%rbp), %rdx
 3086 014d 488B45D0 		movq	-48(%rbp), %rax
 3087 0151 4801C2   		addq	%rax, %rdx
 3088              		.loc 1 1042 27
 3089 0154 488B4590 		movq	-112(%rbp), %rax
 3090 0158 488910   		movq	%rdx, (%rax)
 3091              	.L256:
1043:/home/xingli/share/1205tiny/cJSON/cJSON.c ****     }
1044:/home/xingli/share/1205tiny/cJSON/cJSON.c **** 
1045:/home/xingli/share/1205tiny/cJSON/cJSON.c ****     return item;
GAS LISTING /tmp/ccabgRKQ.s 			page 82


 3092              		.loc 1 1045 12
 3093 015b 488B45A8 		movq	-88(%rbp), %rax
 3094 015f E9940000 		jmp	.L263
 3094      00
 3095              	.L265:
1011:/home/xingli/share/1205tiny/cJSON/cJSON.c ****     }
 3096              		.loc 1 1011 9
 3097 0164 90       		nop
 3098 0165 EB07     		jmp	.L251
 3099              	.L266:
1022:/home/xingli/share/1205tiny/cJSON/cJSON.c ****     }
 3100              		.loc 1 1022 9
 3101 0167 90       		nop
 3102 0168 EB04     		jmp	.L251
 3103              	.L267:
1028:/home/xingli/share/1205tiny/cJSON/cJSON.c ****     }
 3104              		.loc 1 1028 9
 3105 016a 90       		nop
 3106 016b EB01     		jmp	.L251
 3107              	.L268:
1037:/home/xingli/share/1205tiny/cJSON/cJSON.c ****         }
 3108              		.loc 1 1037 13
 3109 016d 90       		nop
 3110              	.L251:
1046:/home/xingli/share/1205tiny/cJSON/cJSON.c **** 
1047:/home/xingli/share/1205tiny/cJSON/cJSON.c **** fail:
1048:/home/xingli/share/1205tiny/cJSON/cJSON.c ****     if (item != NULL)
 3111              		.loc 1 1048 8
 3112 016e 48837DA8 		cmpq	$0, -88(%rbp)
 3112      00
 3113 0173 740C     		je	.L258
1049:/home/xingli/share/1205tiny/cJSON/cJSON.c ****     {
1050:/home/xingli/share/1205tiny/cJSON/cJSON.c ****         cJSON_Delete(item);
 3114              		.loc 1 1050 9
 3115 0175 488B45A8 		movq	-88(%rbp), %rax
 3116 0179 4889C7   		movq	%rax, %rdi
 3117 017c E8000000 		call	cJSON_Delete
 3117      00
 3118              	.L258:
1051:/home/xingli/share/1205tiny/cJSON/cJSON.c ****     }
1052:/home/xingli/share/1205tiny/cJSON/cJSON.c **** 
1053:/home/xingli/share/1205tiny/cJSON/cJSON.c ****     if (value != NULL)
 3119              		.loc 1 1053 8
 3120 0181 48837D98 		cmpq	$0, -104(%rbp)
 3120      00
 3121 0186 746B     		je	.L259
 3122              	.LBB8:
1054:/home/xingli/share/1205tiny/cJSON/cJSON.c ****     {
1055:/home/xingli/share/1205tiny/cJSON/cJSON.c ****         error local_error;
1056:/home/xingli/share/1205tiny/cJSON/cJSON.c ****         local_error.json = (const unsigned char*)value;
 3123              		.loc 1 1056 26
 3124 0188 488B4598 		movq	-104(%rbp), %rax
 3125 018c 488945B0 		movq	%rax, -80(%rbp)
1057:/home/xingli/share/1205tiny/cJSON/cJSON.c ****         local_error.position = 0;
 3126              		.loc 1 1057 30
 3127 0190 48C745B8 		movq	$0, -72(%rbp)
 3127      00000000 
GAS LISTING /tmp/ccabgRKQ.s 			page 83


1058:/home/xingli/share/1205tiny/cJSON/cJSON.c **** 
1059:/home/xingli/share/1205tiny/cJSON/cJSON.c ****         if (buffer.offset < buffer.length)
 3128              		.loc 1 1059 19
 3129 0198 488B55D0 		movq	-48(%rbp), %rdx
 3130              		.loc 1 1059 35
 3131 019c 488B45C8 		movq	-56(%rbp), %rax
 3132              		.loc 1 1059 12
 3133 01a0 4839C2   		cmpq	%rax, %rdx
 3134 01a3 730A     		jnb	.L260
1060:/home/xingli/share/1205tiny/cJSON/cJSON.c ****         {
1061:/home/xingli/share/1205tiny/cJSON/cJSON.c ****             local_error.position = buffer.offset;
 3135              		.loc 1 1061 42
 3136 01a5 488B45D0 		movq	-48(%rbp), %rax
 3137              		.loc 1 1061 34
 3138 01a9 488945B8 		movq	%rax, -72(%rbp)
 3139 01ad EB15     		jmp	.L261
 3140              	.L260:
1062:/home/xingli/share/1205tiny/cJSON/cJSON.c ****         }
1063:/home/xingli/share/1205tiny/cJSON/cJSON.c ****         else if (buffer.length > 0)
 3141              		.loc 1 1063 24
 3142 01af 488B45C8 		movq	-56(%rbp), %rax
 3143              		.loc 1 1063 17
 3144 01b3 4885C0   		testq	%rax, %rax
 3145 01b6 740C     		je	.L261
1064:/home/xingli/share/1205tiny/cJSON/cJSON.c ****         {
1065:/home/xingli/share/1205tiny/cJSON/cJSON.c ****             local_error.position = buffer.length - 1;
 3146              		.loc 1 1065 42
 3147 01b8 488B45C8 		movq	-56(%rbp), %rax
 3148              		.loc 1 1065 50
 3149 01bc 4883E801 		subq	$1, %rax
 3150              		.loc 1 1065 34
 3151 01c0 488945B8 		movq	%rax, -72(%rbp)
 3152              	.L261:
1066:/home/xingli/share/1205tiny/cJSON/cJSON.c ****         }
1067:/home/xingli/share/1205tiny/cJSON/cJSON.c **** 
1068:/home/xingli/share/1205tiny/cJSON/cJSON.c ****         if (return_parse_end != NULL)
 3153              		.loc 1 1068 12
 3154 01c4 48837D90 		cmpq	$0, -112(%rbp)
 3154      00
 3155 01c9 7412     		je	.L262
1069:/home/xingli/share/1205tiny/cJSON/cJSON.c ****         {
1070:/home/xingli/share/1205tiny/cJSON/cJSON.c ****             *return_parse_end = (const char*)local_error.json + local_error.position;
 3156              		.loc 1 1070 57
 3157 01cb 488B55B0 		movq	-80(%rbp), %rdx
 3158              		.loc 1 1070 76
 3159 01cf 488B45B8 		movq	-72(%rbp), %rax
 3160              		.loc 1 1070 63
 3161 01d3 4801C2   		addq	%rax, %rdx
 3162              		.loc 1 1070 31
 3163 01d6 488B4590 		movq	-112(%rbp), %rax
 3164 01da 488910   		movq	%rdx, (%rax)
 3165              	.L262:
1071:/home/xingli/share/1205tiny/cJSON/cJSON.c ****         }
1072:/home/xingli/share/1205tiny/cJSON/cJSON.c **** 
1073:/home/xingli/share/1205tiny/cJSON/cJSON.c ****         global_error = local_error;
 3166              		.loc 1 1073 22
 3167 01dd 488B45B0 		movq	-80(%rbp), %rax
GAS LISTING /tmp/ccabgRKQ.s 			page 84


 3168 01e1 488B55B8 		movq	-72(%rbp), %rdx
 3169 01e5 48890500 		movq	%rax, global_error(%rip)
 3169      000000
 3170 01ec 48891500 		movq	%rdx, 8+global_error(%rip)
 3170      000000
 3171              	.L259:
 3172              	.LBE8:
1074:/home/xingli/share/1205tiny/cJSON/cJSON.c ****     }
1075:/home/xingli/share/1205tiny/cJSON/cJSON.c **** 
1076:/home/xingli/share/1205tiny/cJSON/cJSON.c ****     return NULL;
 3173              		.loc 1 1076 12
 3174 01f3 B8000000 		movl	$0, %eax
 3174      00
 3175              	.L263:
1077:/home/xingli/share/1205tiny/cJSON/cJSON.c **** }
 3176              		.loc 1 1077 1 discriminator 1
 3177 01f8 488B4DF8 		movq	-8(%rbp), %rcx
 3178 01fc 6448330C 		xorq	%fs:40, %rcx
 3178      25280000 
 3178      00
 3179 0205 7405     		je	.L264
 3180              		.loc 1 1077 1 is_stmt 0
 3181 0207 E8000000 		call	__stack_chk_fail@PLT
 3181      00
 3182              	.L264:
 3183 020c C9       		leave
 3184              	.LCFI65:
 3185              		.cfi_def_cfa 7, 8
 3186 020d C3       		ret
 3187              		.cfi_endproc
 3188              	.LFE27:
 3190              		.section	.text.cJSON_Parse,"ax",@progbits
 3191              		.globl	cJSON_Parse
 3193              	cJSON_Parse:
 3194              	.LFB28:
1078:/home/xingli/share/1205tiny/cJSON/cJSON.c **** 
1079:/home/xingli/share/1205tiny/cJSON/cJSON.c **** /* Default options for cJSON_Parse */
1080:/home/xingli/share/1205tiny/cJSON/cJSON.c **** CJSON_PUBLIC(cJSON *) cJSON_Parse(const char *value)
1081:/home/xingli/share/1205tiny/cJSON/cJSON.c **** {
 3195              		.loc 1 1081 1 is_stmt 1
 3196              		.cfi_startproc
 3197 0000 F30F1EFA 		endbr64
 3198 0004 55       		pushq	%rbp
 3199              	.LCFI66:
 3200              		.cfi_def_cfa_offset 16
 3201              		.cfi_offset 6, -16
 3202 0005 4889E5   		movq	%rsp, %rbp
 3203              	.LCFI67:
 3204              		.cfi_def_cfa_register 6
 3205 0008 4883EC20 		subq	$32, %rsp
 3206 000c 48897DE8 		movq	%rdi, -24(%rbp)
 3207              		.loc 1 1081 1
 3208 0010 64488B04 		movq	%fs:40, %rax
 3208      25280000 
 3208      00
 3209 0019 488945F8 		movq	%rax, -8(%rbp)
 3210 001d 31C0     		xorl	%eax, %eax
GAS LISTING /tmp/ccabgRKQ.s 			page 85


1082:/home/xingli/share/1205tiny/cJSON/cJSON.c ****     return cJSON_ParseWithOpts(value, 0, 0);
 3211              		.loc 1 1082 12
 3212 001f 488B45E8 		movq	-24(%rbp), %rax
 3213 0023 BA000000 		movl	$0, %edx
 3213      00
 3214 0028 BE000000 		movl	$0, %esi
 3214      00
 3215 002d 4889C7   		movq	%rax, %rdi
 3216 0030 E8000000 		call	cJSON_ParseWithOpts
 3216      00
1083:/home/xingli/share/1205tiny/cJSON/cJSON.c **** }
 3217              		.loc 1 1083 1
 3218 0035 488B4DF8 		movq	-8(%rbp), %rcx
 3219 0039 6448330C 		xorq	%fs:40, %rcx
 3219      25280000 
 3219      00
 3220 0042 7405     		je	.L271
 3221 0044 E8000000 		call	__stack_chk_fail@PLT
 3221      00
 3222              	.L271:
 3223 0049 C9       		leave
 3224              	.LCFI68:
 3225              		.cfi_def_cfa 7, 8
 3226 004a C3       		ret
 3227              		.cfi_endproc
 3228              	.LFE28:
 3230              		.section	.text.print,"ax",@progbits
 3232              	print:
 3233              	.LFB29:
1084:/home/xingli/share/1205tiny/cJSON/cJSON.c **** 
1085:/home/xingli/share/1205tiny/cJSON/cJSON.c **** #define cjson_min(a, b) ((a < b) ? a : b)
1086:/home/xingli/share/1205tiny/cJSON/cJSON.c **** 
1087:/home/xingli/share/1205tiny/cJSON/cJSON.c **** static unsigned char *print(const cJSON * const item, cJSON_bool format, const internal_hooks * con
1088:/home/xingli/share/1205tiny/cJSON/cJSON.c **** {
 3234              		.loc 1 1088 1
 3235              		.cfi_startproc
 3236 0000 F30F1EFA 		endbr64
 3237 0004 55       		pushq	%rbp
 3238              	.LCFI69:
 3239              		.cfi_def_cfa_offset 16
 3240              		.cfi_offset 6, -16
 3241 0005 4889E5   		movq	%rsp, %rbp
 3242              	.LCFI70:
 3243              		.cfi_def_cfa_register 6
 3244 0008 4883C480 		addq	$-128, %rsp
 3245 000c 48897D98 		movq	%rdi, -104(%rbp)
 3246 0010 897594   		movl	%esi, -108(%rbp)
 3247 0013 48895588 		movq	%rdx, -120(%rbp)
 3248              		.loc 1 1088 1
 3249 0017 64488B04 		movq	%fs:40, %rax
 3249      25280000 
 3249      00
 3250 0020 488945F8 		movq	%rax, -8(%rbp)
 3251 0024 31C0     		xorl	%eax, %eax
1089:/home/xingli/share/1205tiny/cJSON/cJSON.c ****     static const size_t default_buffer_size = 256;
1090:/home/xingli/share/1205tiny/cJSON/cJSON.c ****     printbuffer buffer[1];
1091:/home/xingli/share/1205tiny/cJSON/cJSON.c ****     unsigned char *printed = NULL;
GAS LISTING /tmp/ccabgRKQ.s 			page 86


 3252              		.loc 1 1091 20
 3253 0026 48C745A8 		movq	$0, -88(%rbp)
 3253      00000000 
1092:/home/xingli/share/1205tiny/cJSON/cJSON.c **** 
1093:/home/xingli/share/1205tiny/cJSON/cJSON.c ****     memset(buffer, 0, sizeof(buffer));
 3254              		.loc 1 1093 5
 3255 002e 488D45B0 		leaq	-80(%rbp), %rax
 3256 0032 BA400000 		movl	$64, %edx
 3256      00
 3257 0037 BE000000 		movl	$0, %esi
 3257      00
 3258 003c 4889C7   		movq	%rax, %rdi
 3259 003f E8000000 		call	memset@PLT
 3259      00
1094:/home/xingli/share/1205tiny/cJSON/cJSON.c **** 
1095:/home/xingli/share/1205tiny/cJSON/cJSON.c ****     /* create buffer */
1096:/home/xingli/share/1205tiny/cJSON/cJSON.c ****     buffer->buffer = (unsigned char*) hooks->allocate(default_buffer_size);
 3260              		.loc 1 1096 44
 3261 0044 488B4588 		movq	-120(%rbp), %rax
 3262 0048 488B10   		movq	(%rax), %rdx
 3263              		.loc 1 1096 39
 3264 004b 488B0500 		movq	default_buffer_size.4659(%rip), %rax
 3264      000000
 3265 0052 4889C7   		movq	%rax, %rdi
 3266 0055 FFD2     		call	*%rdx
 3267              	.LVL12:
 3268              		.loc 1 1096 20
 3269 0057 488945B0 		movq	%rax, -80(%rbp)
1097:/home/xingli/share/1205tiny/cJSON/cJSON.c ****     buffer->length = default_buffer_size;
 3270              		.loc 1 1097 20
 3271 005b 488B0500 		movq	default_buffer_size.4659(%rip), %rax
 3271      000000
 3272 0062 488945B8 		movq	%rax, -72(%rbp)
1098:/home/xingli/share/1205tiny/cJSON/cJSON.c ****     buffer->format = format;
 3273              		.loc 1 1098 20
 3274 0066 8B4594   		movl	-108(%rbp), %eax
 3275 0069 8945D4   		movl	%eax, -44(%rbp)
1099:/home/xingli/share/1205tiny/cJSON/cJSON.c ****     buffer->hooks = *hooks;
 3276              		.loc 1 1099 19
 3277 006c 488B4D88 		movq	-120(%rbp), %rcx
 3278 0070 488B01   		movq	(%rcx), %rax
 3279 0073 488B5108 		movq	8(%rcx), %rdx
 3280 0077 488945D8 		movq	%rax, -40(%rbp)
 3281 007b 488955E0 		movq	%rdx, -32(%rbp)
 3282 007f 488B4110 		movq	16(%rcx), %rax
 3283 0083 488945E8 		movq	%rax, -24(%rbp)
1100:/home/xingli/share/1205tiny/cJSON/cJSON.c ****     if (buffer->buffer == NULL)
 3284              		.loc 1 1100 15
 3285 0087 488B45B0 		movq	-80(%rbp), %rax
 3286              		.loc 1 1100 8
 3287 008b 4885C0   		testq	%rax, %rax
 3288 008e 0F84CF00 		je	.L285
 3288      0000
1101:/home/xingli/share/1205tiny/cJSON/cJSON.c ****     {
1102:/home/xingli/share/1205tiny/cJSON/cJSON.c ****         goto fail;
1103:/home/xingli/share/1205tiny/cJSON/cJSON.c ****     }
1104:/home/xingli/share/1205tiny/cJSON/cJSON.c **** 
GAS LISTING /tmp/ccabgRKQ.s 			page 87


1105:/home/xingli/share/1205tiny/cJSON/cJSON.c ****     /* print the value */
1106:/home/xingli/share/1205tiny/cJSON/cJSON.c ****     if (!print_value(item, buffer))
 3289              		.loc 1 1106 10
 3290 0094 488D55B0 		leaq	-80(%rbp), %rdx
 3291 0098 488B4598 		movq	-104(%rbp), %rax
 3292 009c 4889D6   		movq	%rdx, %rsi
 3293 009f 4889C7   		movq	%rax, %rdi
 3294 00a2 E8000000 		call	print_value
 3294      00
 3295              		.loc 1 1106 8
 3296 00a7 85C0     		testl	%eax, %eax
 3297 00a9 0F84B700 		je	.L286
 3297      0000
1107:/home/xingli/share/1205tiny/cJSON/cJSON.c ****     {
1108:/home/xingli/share/1205tiny/cJSON/cJSON.c ****         goto fail;
1109:/home/xingli/share/1205tiny/cJSON/cJSON.c ****     }
1110:/home/xingli/share/1205tiny/cJSON/cJSON.c ****     update_offset(buffer);
 3298              		.loc 1 1110 5
 3299 00af 488D45B0 		leaq	-80(%rbp), %rax
 3300 00b3 4889C7   		movq	%rax, %rdi
 3301 00b6 E8000000 		call	update_offset
 3301      00
1111:/home/xingli/share/1205tiny/cJSON/cJSON.c **** 
1112:/home/xingli/share/1205tiny/cJSON/cJSON.c ****     /* check if reallocate is available */
1113:/home/xingli/share/1205tiny/cJSON/cJSON.c ****     if (hooks->reallocate != NULL)
 3302              		.loc 1 1113 14
 3303 00bb 488B4588 		movq	-120(%rbp), %rax
 3304 00bf 488B4010 		movq	16(%rax), %rax
 3305              		.loc 1 1113 8
 3306 00c3 4885C0   		testq	%rax, %rax
 3307 00c6 7431     		je	.L276
1114:/home/xingli/share/1205tiny/cJSON/cJSON.c ****     {
1115:/home/xingli/share/1205tiny/cJSON/cJSON.c ****         printed = (unsigned char*) hooks->reallocate(buffer->buffer, buffer->offset + 1);
 3308              		.loc 1 1115 41
 3309 00c8 488B4588 		movq	-120(%rbp), %rax
 3310 00cc 488B5010 		movq	16(%rax), %rdx
 3311              		.loc 1 1115 76
 3312 00d0 488B45C0 		movq	-64(%rbp), %rax
 3313              		.loc 1 1115 36
 3314 00d4 488D4801 		leaq	1(%rax), %rcx
 3315              		.loc 1 1115 60
 3316 00d8 488B45B0 		movq	-80(%rbp), %rax
 3317              		.loc 1 1115 36
 3318 00dc 4889CE   		movq	%rcx, %rsi
 3319 00df 4889C7   		movq	%rax, %rdi
 3320 00e2 FFD2     		call	*%rdx
 3321              	.LVL13:
 3322 00e4 488945A8 		movq	%rax, -88(%rbp)
1116:/home/xingli/share/1205tiny/cJSON/cJSON.c ****         if (printed == NULL) {
 3323              		.loc 1 1116 12
 3324 00e8 48837DA8 		cmpq	$0, -88(%rbp)
 3324      00
 3325 00ed 747A     		je	.L287
1117:/home/xingli/share/1205tiny/cJSON/cJSON.c ****             goto fail;
1118:/home/xingli/share/1205tiny/cJSON/cJSON.c ****         }
1119:/home/xingli/share/1205tiny/cJSON/cJSON.c ****         buffer->buffer = NULL;
 3326              		.loc 1 1119 24
GAS LISTING /tmp/ccabgRKQ.s 			page 88


 3327 00ef 48C745B0 		movq	$0, -80(%rbp)
 3327      00000000 
 3328 00f7 EB64     		jmp	.L278
 3329              	.L276:
1120:/home/xingli/share/1205tiny/cJSON/cJSON.c ****     }
1121:/home/xingli/share/1205tiny/cJSON/cJSON.c ****     else /* otherwise copy the JSON over to a new buffer */
1122:/home/xingli/share/1205tiny/cJSON/cJSON.c ****     {
1123:/home/xingli/share/1205tiny/cJSON/cJSON.c ****         printed = (unsigned char*) hooks->allocate(buffer->offset + 1);
 3330              		.loc 1 1123 41
 3331 00f9 488B4588 		movq	-120(%rbp), %rax
 3332 00fd 488B00   		movq	(%rax), %rax
 3333              		.loc 1 1123 58
 3334 0100 488B55C0 		movq	-64(%rbp), %rdx
 3335              		.loc 1 1123 36
 3336 0104 4883C201 		addq	$1, %rdx
 3337 0108 4889D7   		movq	%rdx, %rdi
 3338 010b FFD0     		call	*%rax
 3339              	.LVL14:
 3340 010d 488945A8 		movq	%rax, -88(%rbp)
1124:/home/xingli/share/1205tiny/cJSON/cJSON.c ****         if (printed == NULL)
 3341              		.loc 1 1124 12
 3342 0111 48837DA8 		cmpq	$0, -88(%rbp)
 3342      00
 3343 0116 7454     		je	.L288
1125:/home/xingli/share/1205tiny/cJSON/cJSON.c ****         {
1126:/home/xingli/share/1205tiny/cJSON/cJSON.c ****             goto fail;
1127:/home/xingli/share/1205tiny/cJSON/cJSON.c ****         }
1128:/home/xingli/share/1205tiny/cJSON/cJSON.c ****         (void) memcpy(printed, buffer->buffer, cjson_min(buffer->length, buffer->offset + 1));
 3344              		.loc 1 1128 48
 3345 0118 488B45C0 		movq	-64(%rbp), %rax
 3346 011c 488D5001 		leaq	1(%rax), %rdx
 3347 0120 488B45B8 		movq	-72(%rbp), %rax
 3348              		.loc 1 1128 16
 3349 0124 4839C2   		cmpq	%rax, %rdx
 3350 0127 480F47D0 		cmova	%rax, %rdx
 3351              		.loc 1 1128 38
 3352 012b 488B4DB0 		movq	-80(%rbp), %rcx
 3353              		.loc 1 1128 16
 3354 012f 488B45A8 		movq	-88(%rbp), %rax
 3355 0133 4889CE   		movq	%rcx, %rsi
 3356 0136 4889C7   		movq	%rax, %rdi
 3357 0139 E8000000 		call	memcpy@PLT
 3357      00
1129:/home/xingli/share/1205tiny/cJSON/cJSON.c ****         printed[buffer->offset] = '\0'; /* just to be sure */
 3358              		.loc 1 1129 23
 3359 013e 488B55C0 		movq	-64(%rbp), %rdx
 3360              		.loc 1 1129 16
 3361 0142 488B45A8 		movq	-88(%rbp), %rax
 3362 0146 4801D0   		addq	%rdx, %rax
 3363              		.loc 1 1129 33
 3364 0149 C60000   		movb	$0, (%rax)
1130:/home/xingli/share/1205tiny/cJSON/cJSON.c **** 
1131:/home/xingli/share/1205tiny/cJSON/cJSON.c ****         /* free the buffer */
1132:/home/xingli/share/1205tiny/cJSON/cJSON.c ****         hooks->deallocate(buffer->buffer);
 3365              		.loc 1 1132 14
 3366 014c 488B4588 		movq	-120(%rbp), %rax
 3367 0150 488B5008 		movq	8(%rax), %rdx
GAS LISTING /tmp/ccabgRKQ.s 			page 89


 3368              		.loc 1 1132 33
 3369 0154 488B45B0 		movq	-80(%rbp), %rax
 3370              		.loc 1 1132 9
 3371 0158 4889C7   		movq	%rax, %rdi
 3372 015b FFD2     		call	*%rdx
 3373              	.LVL15:
 3374              	.L278:
1133:/home/xingli/share/1205tiny/cJSON/cJSON.c ****     }
1134:/home/xingli/share/1205tiny/cJSON/cJSON.c **** 
1135:/home/xingli/share/1205tiny/cJSON/cJSON.c ****     return printed;
 3375              		.loc 1 1135 12
 3376 015d 488B45A8 		movq	-88(%rbp), %rax
 3377 0161 EB41     		jmp	.L283
 3378              	.L285:
1102:/home/xingli/share/1205tiny/cJSON/cJSON.c ****     }
 3379              		.loc 1 1102 9
 3380 0163 90       		nop
 3381 0164 EB07     		jmp	.L274
 3382              	.L286:
1108:/home/xingli/share/1205tiny/cJSON/cJSON.c ****     }
 3383              		.loc 1 1108 9
 3384 0166 90       		nop
 3385 0167 EB04     		jmp	.L274
 3386              	.L287:
1117:/home/xingli/share/1205tiny/cJSON/cJSON.c ****         }
 3387              		.loc 1 1117 13
 3388 0169 90       		nop
 3389 016a EB01     		jmp	.L274
 3390              	.L288:
1126:/home/xingli/share/1205tiny/cJSON/cJSON.c ****         }
 3391              		.loc 1 1126 13
 3392 016c 90       		nop
 3393              	.L274:
1136:/home/xingli/share/1205tiny/cJSON/cJSON.c **** 
1137:/home/xingli/share/1205tiny/cJSON/cJSON.c **** fail:
1138:/home/xingli/share/1205tiny/cJSON/cJSON.c ****     if (buffer->buffer != NULL)
 3394              		.loc 1 1138 15
 3395 016d 488B45B0 		movq	-80(%rbp), %rax
 3396              		.loc 1 1138 8
 3397 0171 4885C0   		testq	%rax, %rax
 3398 0174 7411     		je	.L281
1139:/home/xingli/share/1205tiny/cJSON/cJSON.c ****     {
1140:/home/xingli/share/1205tiny/cJSON/cJSON.c ****         hooks->deallocate(buffer->buffer);
 3399              		.loc 1 1140 14
 3400 0176 488B4588 		movq	-120(%rbp), %rax
 3401 017a 488B5008 		movq	8(%rax), %rdx
 3402              		.loc 1 1140 33
 3403 017e 488B45B0 		movq	-80(%rbp), %rax
 3404              		.loc 1 1140 9
 3405 0182 4889C7   		movq	%rax, %rdi
 3406 0185 FFD2     		call	*%rdx
 3407              	.LVL16:
 3408              	.L281:
1141:/home/xingli/share/1205tiny/cJSON/cJSON.c ****     }
1142:/home/xingli/share/1205tiny/cJSON/cJSON.c **** 
1143:/home/xingli/share/1205tiny/cJSON/cJSON.c ****     if (printed != NULL)
 3409              		.loc 1 1143 8
GAS LISTING /tmp/ccabgRKQ.s 			page 90


 3410 0187 48837DA8 		cmpq	$0, -88(%rbp)
 3410      00
 3411 018c 7411     		je	.L282
1144:/home/xingli/share/1205tiny/cJSON/cJSON.c ****     {
1145:/home/xingli/share/1205tiny/cJSON/cJSON.c ****         hooks->deallocate(printed);
 3412              		.loc 1 1145 14
 3413 018e 488B4588 		movq	-120(%rbp), %rax
 3414 0192 488B5008 		movq	8(%rax), %rdx
 3415              		.loc 1 1145 9
 3416 0196 488B45A8 		movq	-88(%rbp), %rax
 3417 019a 4889C7   		movq	%rax, %rdi
 3418 019d FFD2     		call	*%rdx
 3419              	.LVL17:
 3420              	.L282:
1146:/home/xingli/share/1205tiny/cJSON/cJSON.c ****     }
1147:/home/xingli/share/1205tiny/cJSON/cJSON.c **** 
1148:/home/xingli/share/1205tiny/cJSON/cJSON.c ****     return NULL;
 3421              		.loc 1 1148 12
 3422 019f B8000000 		movl	$0, %eax
 3422      00
 3423              	.L283:
1149:/home/xingli/share/1205tiny/cJSON/cJSON.c **** }
 3424              		.loc 1 1149 1 discriminator 1
 3425 01a4 488B75F8 		movq	-8(%rbp), %rsi
 3426 01a8 64483334 		xorq	%fs:40, %rsi
 3426      25280000 
 3426      00
 3427 01b1 7405     		je	.L284
 3428              		.loc 1 1149 1 is_stmt 0
 3429 01b3 E8000000 		call	__stack_chk_fail@PLT
 3429      00
 3430              	.L284:
 3431 01b8 C9       		leave
 3432              	.LCFI71:
 3433              		.cfi_def_cfa 7, 8
 3434 01b9 C3       		ret
 3435              		.cfi_endproc
 3436              	.LFE29:
 3438              		.section	.text.cJSON_Print,"ax",@progbits
 3439              		.globl	cJSON_Print
 3441              	cJSON_Print:
 3442              	.LFB30:
1150:/home/xingli/share/1205tiny/cJSON/cJSON.c **** 
1151:/home/xingli/share/1205tiny/cJSON/cJSON.c **** /* Render a cJSON item/entity/structure to text. */
1152:/home/xingli/share/1205tiny/cJSON/cJSON.c **** CJSON_PUBLIC(char *) cJSON_Print(const cJSON *item)
1153:/home/xingli/share/1205tiny/cJSON/cJSON.c **** {
 3443              		.loc 1 1153 1 is_stmt 1
 3444              		.cfi_startproc
 3445 0000 F30F1EFA 		endbr64
 3446 0004 55       		pushq	%rbp
 3447              	.LCFI72:
 3448              		.cfi_def_cfa_offset 16
 3449              		.cfi_offset 6, -16
 3450 0005 4889E5   		movq	%rsp, %rbp
 3451              	.LCFI73:
 3452              		.cfi_def_cfa_register 6
 3453 0008 4883EC20 		subq	$32, %rsp
GAS LISTING /tmp/ccabgRKQ.s 			page 91


 3454 000c 48897DE8 		movq	%rdi, -24(%rbp)
 3455              		.loc 1 1153 1
 3456 0010 64488B04 		movq	%fs:40, %rax
 3456      25280000 
 3456      00
 3457 0019 488945F8 		movq	%rax, -8(%rbp)
 3458 001d 31C0     		xorl	%eax, %eax
1154:/home/xingli/share/1205tiny/cJSON/cJSON.c ****     return (char*)print(item, true, &global_hooks);
 3459              		.loc 1 1154 19
 3460 001f 488B45E8 		movq	-24(%rbp), %rax
 3461 0023 488D1500 		leaq	global_hooks(%rip), %rdx
 3461      000000
 3462 002a BE010000 		movl	$1, %esi
 3462      00
 3463 002f 4889C7   		movq	%rax, %rdi
 3464 0032 E8000000 		call	print
 3464      00
1155:/home/xingli/share/1205tiny/cJSON/cJSON.c **** }
 3465              		.loc 1 1155 1
 3466 0037 488B4DF8 		movq	-8(%rbp), %rcx
 3467 003b 6448330C 		xorq	%fs:40, %rcx
 3467      25280000 
 3467      00
 3468 0044 7405     		je	.L291
 3469 0046 E8000000 		call	__stack_chk_fail@PLT
 3469      00
 3470              	.L291:
 3471 004b C9       		leave
 3472              	.LCFI74:
 3473              		.cfi_def_cfa 7, 8
 3474 004c C3       		ret
 3475              		.cfi_endproc
 3476              	.LFE30:
 3478              		.section	.text.cJSON_PrintUnformatted,"ax",@progbits
 3479              		.globl	cJSON_PrintUnformatted
 3481              	cJSON_PrintUnformatted:
 3482              	.LFB31:
1156:/home/xingli/share/1205tiny/cJSON/cJSON.c **** 
1157:/home/xingli/share/1205tiny/cJSON/cJSON.c **** CJSON_PUBLIC(char *) cJSON_PrintUnformatted(const cJSON *item)
1158:/home/xingli/share/1205tiny/cJSON/cJSON.c **** {
 3483              		.loc 1 1158 1
 3484              		.cfi_startproc
 3485 0000 F30F1EFA 		endbr64
 3486 0004 55       		pushq	%rbp
 3487              	.LCFI75:
 3488              		.cfi_def_cfa_offset 16
 3489              		.cfi_offset 6, -16
 3490 0005 4889E5   		movq	%rsp, %rbp
 3491              	.LCFI76:
 3492              		.cfi_def_cfa_register 6
 3493 0008 4883EC20 		subq	$32, %rsp
 3494 000c 48897DE8 		movq	%rdi, -24(%rbp)
 3495              		.loc 1 1158 1
 3496 0010 64488B04 		movq	%fs:40, %rax
 3496      25280000 
 3496      00
 3497 0019 488945F8 		movq	%rax, -8(%rbp)
GAS LISTING /tmp/ccabgRKQ.s 			page 92


 3498 001d 31C0     		xorl	%eax, %eax
1159:/home/xingli/share/1205tiny/cJSON/cJSON.c ****     return (char*)print(item, false, &global_hooks);
 3499              		.loc 1 1159 19
 3500 001f 488B45E8 		movq	-24(%rbp), %rax
 3501 0023 488D1500 		leaq	global_hooks(%rip), %rdx
 3501      000000
 3502 002a BE000000 		movl	$0, %esi
 3502      00
 3503 002f 4889C7   		movq	%rax, %rdi
 3504 0032 E8000000 		call	print
 3504      00
1160:/home/xingli/share/1205tiny/cJSON/cJSON.c **** }
 3505              		.loc 1 1160 1
 3506 0037 488B4DF8 		movq	-8(%rbp), %rcx
 3507 003b 6448330C 		xorq	%fs:40, %rcx
 3507      25280000 
 3507      00
 3508 0044 7405     		je	.L294
 3509 0046 E8000000 		call	__stack_chk_fail@PLT
 3509      00
 3510              	.L294:
 3511 004b C9       		leave
 3512              	.LCFI77:
 3513              		.cfi_def_cfa 7, 8
 3514 004c C3       		ret
 3515              		.cfi_endproc
 3516              	.LFE31:
 3518              		.section	.text.cJSON_PrintBuffered,"ax",@progbits
 3519              		.globl	cJSON_PrintBuffered
 3521              	cJSON_PrintBuffered:
 3522              	.LFB32:
1161:/home/xingli/share/1205tiny/cJSON/cJSON.c **** 
1162:/home/xingli/share/1205tiny/cJSON/cJSON.c **** CJSON_PUBLIC(char *) cJSON_PrintBuffered(const cJSON *item, int prebuffer, cJSON_bool fmt)
1163:/home/xingli/share/1205tiny/cJSON/cJSON.c **** {
 3523              		.loc 1 1163 1
 3524              		.cfi_startproc
 3525 0000 F30F1EFA 		endbr64
 3526 0004 55       		pushq	%rbp
 3527              	.LCFI78:
 3528              		.cfi_def_cfa_offset 16
 3529              		.cfi_offset 6, -16
 3530 0005 4889E5   		movq	%rsp, %rbp
 3531              	.LCFI79:
 3532              		.cfi_def_cfa_register 6
 3533 0008 4883EC60 		subq	$96, %rsp
 3534 000c 48897DA8 		movq	%rdi, -88(%rbp)
 3535 0010 8975A4   		movl	%esi, -92(%rbp)
 3536 0013 8955A0   		movl	%edx, -96(%rbp)
 3537              		.loc 1 1163 1
 3538 0016 64488B04 		movq	%fs:40, %rax
 3538      25280000 
 3538      00
 3539 001f 488945F8 		movq	%rax, -8(%rbp)
 3540 0023 31C0     		xorl	%eax, %eax
1164:/home/xingli/share/1205tiny/cJSON/cJSON.c ****     printbuffer p = { 0, 0, 0, 0, 0, 0, { 0, 0, 0 } };
 3541              		.loc 1 1164 17
 3542 0025 48C745B0 		movq	$0, -80(%rbp)
GAS LISTING /tmp/ccabgRKQ.s 			page 93


 3542      00000000 
 3543 002d 48C745B8 		movq	$0, -72(%rbp)
 3543      00000000 
 3544 0035 48C745C0 		movq	$0, -64(%rbp)
 3544      00000000 
 3545 003d 48C745C8 		movq	$0, -56(%rbp)
 3545      00000000 
 3546 0045 48C745D0 		movq	$0, -48(%rbp)
 3546      00000000 
 3547 004d 48C745D8 		movq	$0, -40(%rbp)
 3547      00000000 
 3548 0055 48C745E0 		movq	$0, -32(%rbp)
 3548      00000000 
 3549 005d 48C745E8 		movq	$0, -24(%rbp)
 3549      00000000 
1165:/home/xingli/share/1205tiny/cJSON/cJSON.c **** 
1166:/home/xingli/share/1205tiny/cJSON/cJSON.c ****     if (prebuffer < 0)
 3550              		.loc 1 1166 8
 3551 0065 837DA400 		cmpl	$0, -92(%rbp)
 3552 0069 790A     		jns	.L296
1167:/home/xingli/share/1205tiny/cJSON/cJSON.c ****     {
1168:/home/xingli/share/1205tiny/cJSON/cJSON.c ****         return NULL;
 3553              		.loc 1 1168 16
 3554 006b B8000000 		movl	$0, %eax
 3554      00
 3555 0070 E9960000 		jmp	.L300
 3555      00
 3556              	.L296:
1169:/home/xingli/share/1205tiny/cJSON/cJSON.c ****     }
1170:/home/xingli/share/1205tiny/cJSON/cJSON.c **** 
1171:/home/xingli/share/1205tiny/cJSON/cJSON.c ****     p.buffer = (unsigned char*)global_hooks.allocate((size_t)prebuffer);
 3557              		.loc 1 1171 44
 3558 0075 488B1500 		movq	global_hooks(%rip), %rdx
 3558      000000
 3559              		.loc 1 1171 32
 3560 007c 8B45A4   		movl	-92(%rbp), %eax
 3561 007f 4898     		cltq
 3562 0081 4889C7   		movq	%rax, %rdi
 3563 0084 FFD2     		call	*%rdx
 3564              	.LVL18:
 3565              		.loc 1 1171 14
 3566 0086 488945B0 		movq	%rax, -80(%rbp)
1172:/home/xingli/share/1205tiny/cJSON/cJSON.c ****     if (!p.buffer)
 3567              		.loc 1 1172 11
 3568 008a 488B45B0 		movq	-80(%rbp), %rax
 3569              		.loc 1 1172 8
 3570 008e 4885C0   		testq	%rax, %rax
 3571 0091 7507     		jne	.L298
1173:/home/xingli/share/1205tiny/cJSON/cJSON.c ****     {
1174:/home/xingli/share/1205tiny/cJSON/cJSON.c ****         return NULL;
 3572              		.loc 1 1174 16
 3573 0093 B8000000 		movl	$0, %eax
 3573      00
 3574 0098 EB71     		jmp	.L300
 3575              	.L298:
1175:/home/xingli/share/1205tiny/cJSON/cJSON.c ****     }
1176:/home/xingli/share/1205tiny/cJSON/cJSON.c **** 
GAS LISTING /tmp/ccabgRKQ.s 			page 94


1177:/home/xingli/share/1205tiny/cJSON/cJSON.c ****     p.length = (size_t)prebuffer;
 3576              		.loc 1 1177 16
 3577 009a 8B45A4   		movl	-92(%rbp), %eax
 3578 009d 4898     		cltq
 3579              		.loc 1 1177 14
 3580 009f 488945B8 		movq	%rax, -72(%rbp)
1178:/home/xingli/share/1205tiny/cJSON/cJSON.c ****     p.offset = 0;
 3581              		.loc 1 1178 14
 3582 00a3 48C745C0 		movq	$0, -64(%rbp)
 3582      00000000 
1179:/home/xingli/share/1205tiny/cJSON/cJSON.c ****     p.noalloc = false;
 3583              		.loc 1 1179 15
 3584 00ab C745D000 		movl	$0, -48(%rbp)
 3584      000000
1180:/home/xingli/share/1205tiny/cJSON/cJSON.c ****     p.format = fmt;
 3585              		.loc 1 1180 14
 3586 00b2 8B45A0   		movl	-96(%rbp), %eax
 3587 00b5 8945D4   		movl	%eax, -44(%rbp)
1181:/home/xingli/share/1205tiny/cJSON/cJSON.c ****     p.hooks = global_hooks;
 3588              		.loc 1 1181 13
 3589 00b8 488B0500 		movq	global_hooks(%rip), %rax
 3589      000000
 3590 00bf 488B1500 		movq	8+global_hooks(%rip), %rdx
 3590      000000
 3591 00c6 488945D8 		movq	%rax, -40(%rbp)
 3592 00ca 488955E0 		movq	%rdx, -32(%rbp)
 3593 00ce 488B0500 		movq	16+global_hooks(%rip), %rax
 3593      000000
 3594 00d5 488945E8 		movq	%rax, -24(%rbp)
1182:/home/xingli/share/1205tiny/cJSON/cJSON.c **** 
1183:/home/xingli/share/1205tiny/cJSON/cJSON.c ****     if (!print_value(item, &p))
 3595              		.loc 1 1183 10
 3596 00d9 488D55B0 		leaq	-80(%rbp), %rdx
 3597 00dd 488B45A8 		movq	-88(%rbp), %rax
 3598 00e1 4889D6   		movq	%rdx, %rsi
 3599 00e4 4889C7   		movq	%rax, %rdi
 3600 00e7 E8000000 		call	print_value
 3600      00
 3601              		.loc 1 1183 8
 3602 00ec 85C0     		testl	%eax, %eax
 3603 00ee 7517     		jne	.L299
1184:/home/xingli/share/1205tiny/cJSON/cJSON.c ****     {
1185:/home/xingli/share/1205tiny/cJSON/cJSON.c ****         global_hooks.deallocate(p.buffer);
 3604              		.loc 1 1185 21
 3605 00f0 488B1500 		movq	8+global_hooks(%rip), %rdx
 3605      000000
 3606              		.loc 1 1185 34
 3607 00f7 488B45B0 		movq	-80(%rbp), %rax
 3608              		.loc 1 1185 9
 3609 00fb 4889C7   		movq	%rax, %rdi
 3610 00fe FFD2     		call	*%rdx
 3611              	.LVL19:
1186:/home/xingli/share/1205tiny/cJSON/cJSON.c ****         return NULL;
 3612              		.loc 1 1186 16
 3613 0100 B8000000 		movl	$0, %eax
 3613      00
 3614 0105 EB04     		jmp	.L300
GAS LISTING /tmp/ccabgRKQ.s 			page 95


 3615              	.L299:
1187:/home/xingli/share/1205tiny/cJSON/cJSON.c ****     }
1188:/home/xingli/share/1205tiny/cJSON/cJSON.c **** 
1189:/home/xingli/share/1205tiny/cJSON/cJSON.c ****     return (char*)p.buffer;
 3616              		.loc 1 1189 12
 3617 0107 488B45B0 		movq	-80(%rbp), %rax
 3618              	.L300:
1190:/home/xingli/share/1205tiny/cJSON/cJSON.c **** }
 3619              		.loc 1 1190 1 discriminator 1
 3620 010b 488B4DF8 		movq	-8(%rbp), %rcx
 3621 010f 6448330C 		xorq	%fs:40, %rcx
 3621      25280000 
 3621      00
 3622 0118 7405     		je	.L301
 3623              		.loc 1 1190 1 is_stmt 0
 3624 011a E8000000 		call	__stack_chk_fail@PLT
 3624      00
 3625              	.L301:
 3626 011f C9       		leave
 3627              	.LCFI80:
 3628              		.cfi_def_cfa 7, 8
 3629 0120 C3       		ret
 3630              		.cfi_endproc
 3631              	.LFE32:
 3633              		.section	.text.cJSON_PrintPreallocated,"ax",@progbits
 3634              		.globl	cJSON_PrintPreallocated
 3636              	cJSON_PrintPreallocated:
 3637              	.LFB33:
1191:/home/xingli/share/1205tiny/cJSON/cJSON.c **** 
1192:/home/xingli/share/1205tiny/cJSON/cJSON.c **** CJSON_PUBLIC(cJSON_bool) cJSON_PrintPreallocated(cJSON *item, char *buf, const int len, const cJSON
1193:/home/xingli/share/1205tiny/cJSON/cJSON.c **** {
 3638              		.loc 1 1193 1 is_stmt 1
 3639              		.cfi_startproc
 3640 0000 F30F1EFA 		endbr64
 3641 0004 55       		pushq	%rbp
 3642              	.LCFI81:
 3643              		.cfi_def_cfa_offset 16
 3644              		.cfi_offset 6, -16
 3645 0005 4889E5   		movq	%rsp, %rbp
 3646              	.LCFI82:
 3647              		.cfi_def_cfa_register 6
 3648 0008 4883EC70 		subq	$112, %rsp
 3649 000c 48897DA8 		movq	%rdi, -88(%rbp)
 3650 0010 488975A0 		movq	%rsi, -96(%rbp)
 3651 0014 89559C   		movl	%edx, -100(%rbp)
 3652 0017 894D98   		movl	%ecx, -104(%rbp)
 3653              		.loc 1 1193 1
 3654 001a 64488B04 		movq	%fs:40, %rax
 3654      25280000 
 3654      00
 3655 0023 488945F8 		movq	%rax, -8(%rbp)
 3656 0027 31C0     		xorl	%eax, %eax
1194:/home/xingli/share/1205tiny/cJSON/cJSON.c ****     printbuffer p = { 0, 0, 0, 0, 0, 0, { 0, 0, 0 } };
 3657              		.loc 1 1194 17
 3658 0029 48C745B0 		movq	$0, -80(%rbp)
 3658      00000000 
 3659 0031 48C745B8 		movq	$0, -72(%rbp)
GAS LISTING /tmp/ccabgRKQ.s 			page 96


 3659      00000000 
 3660 0039 48C745C0 		movq	$0, -64(%rbp)
 3660      00000000 
 3661 0041 48C745C8 		movq	$0, -56(%rbp)
 3661      00000000 
 3662 0049 48C745D0 		movq	$0, -48(%rbp)
 3662      00000000 
 3663 0051 48C745D8 		movq	$0, -40(%rbp)
 3663      00000000 
 3664 0059 48C745E0 		movq	$0, -32(%rbp)
 3664      00000000 
 3665 0061 48C745E8 		movq	$0, -24(%rbp)
 3665      00000000 
1195:/home/xingli/share/1205tiny/cJSON/cJSON.c **** 
1196:/home/xingli/share/1205tiny/cJSON/cJSON.c ****     if ((len < 0) || (buf == NULL))
 3666              		.loc 1 1196 8
 3667 0069 837D9C00 		cmpl	$0, -100(%rbp)
 3668 006d 7807     		js	.L303
 3669              		.loc 1 1196 19 discriminator 1
 3670 006f 48837DA0 		cmpq	$0, -96(%rbp)
 3670      00
 3671 0074 7507     		jne	.L304
 3672              	.L303:
1197:/home/xingli/share/1205tiny/cJSON/cJSON.c ****     {
1198:/home/xingli/share/1205tiny/cJSON/cJSON.c ****         return false;
 3673              		.loc 1 1198 16
 3674 0076 B8000000 		movl	$0, %eax
 3674      00
 3675 007b EB5A     		jmp	.L306
 3676              	.L304:
1199:/home/xingli/share/1205tiny/cJSON/cJSON.c ****     }
1200:/home/xingli/share/1205tiny/cJSON/cJSON.c **** 
1201:/home/xingli/share/1205tiny/cJSON/cJSON.c ****     p.buffer = (unsigned char*)buf;
 3677              		.loc 1 1201 14
 3678 007d 488B45A0 		movq	-96(%rbp), %rax
 3679 0081 488945B0 		movq	%rax, -80(%rbp)
1202:/home/xingli/share/1205tiny/cJSON/cJSON.c ****     p.length = (size_t)len;
 3680              		.loc 1 1202 16
 3681 0085 8B459C   		movl	-100(%rbp), %eax
 3682 0088 4898     		cltq
 3683              		.loc 1 1202 14
 3684 008a 488945B8 		movq	%rax, -72(%rbp)
1203:/home/xingli/share/1205tiny/cJSON/cJSON.c ****     p.offset = 0;
 3685              		.loc 1 1203 14
 3686 008e 48C745C0 		movq	$0, -64(%rbp)
 3686      00000000 
1204:/home/xingli/share/1205tiny/cJSON/cJSON.c ****     p.noalloc = true;
 3687              		.loc 1 1204 15
 3688 0096 C745D001 		movl	$1, -48(%rbp)
 3688      000000
1205:/home/xingli/share/1205tiny/cJSON/cJSON.c ****     p.format = fmt;
 3689              		.loc 1 1205 14
 3690 009d 8B4598   		movl	-104(%rbp), %eax
 3691 00a0 8945D4   		movl	%eax, -44(%rbp)
1206:/home/xingli/share/1205tiny/cJSON/cJSON.c ****     p.hooks = global_hooks;
 3692              		.loc 1 1206 13
 3693 00a3 488B0500 		movq	global_hooks(%rip), %rax
GAS LISTING /tmp/ccabgRKQ.s 			page 97


 3693      000000
 3694 00aa 488B1500 		movq	8+global_hooks(%rip), %rdx
 3694      000000
 3695 00b1 488945D8 		movq	%rax, -40(%rbp)
 3696 00b5 488955E0 		movq	%rdx, -32(%rbp)
 3697 00b9 488B0500 		movq	16+global_hooks(%rip), %rax
 3697      000000
 3698 00c0 488945E8 		movq	%rax, -24(%rbp)
1207:/home/xingli/share/1205tiny/cJSON/cJSON.c **** 
1208:/home/xingli/share/1205tiny/cJSON/cJSON.c ****     return print_value(item, &p);
 3699              		.loc 1 1208 12
 3700 00c4 488D55B0 		leaq	-80(%rbp), %rdx
 3701 00c8 488B45A8 		movq	-88(%rbp), %rax
 3702 00cc 4889D6   		movq	%rdx, %rsi
 3703 00cf 4889C7   		movq	%rax, %rdi
 3704 00d2 E8000000 		call	print_value
 3704      00
 3705              	.L306:
1209:/home/xingli/share/1205tiny/cJSON/cJSON.c **** }
 3706              		.loc 1 1209 1 discriminator 1
 3707 00d7 488B4DF8 		movq	-8(%rbp), %rcx
 3708 00db 6448330C 		xorq	%fs:40, %rcx
 3708      25280000 
 3708      00
 3709 00e4 7405     		je	.L307
 3710              		.loc 1 1209 1 is_stmt 0
 3711 00e6 E8000000 		call	__stack_chk_fail@PLT
 3711      00
 3712              	.L307:
 3713 00eb C9       		leave
 3714              	.LCFI83:
 3715              		.cfi_def_cfa 7, 8
 3716 00ec C3       		ret
 3717              		.cfi_endproc
 3718              	.LFE33:
 3720              		.section	.rodata
 3721              	.LC10:
 3722 002a 66616C73 		.string	"false"
 3722      6500
 3723              	.LC11:
 3724 0030 74727565 		.string	"true"
 3724      00
 3725              		.section	.text.parse_value,"ax",@progbits
 3727              	parse_value:
 3728              	.LFB34:
1210:/home/xingli/share/1205tiny/cJSON/cJSON.c **** 
1211:/home/xingli/share/1205tiny/cJSON/cJSON.c **** /* Parser core - when encountering text, process appropriately. */
1212:/home/xingli/share/1205tiny/cJSON/cJSON.c **** static cJSON_bool parse_value(cJSON * const item, parse_buffer * const input_buffer)
1213:/home/xingli/share/1205tiny/cJSON/cJSON.c **** {
 3729              		.loc 1 1213 1 is_stmt 1
 3730              		.cfi_startproc
 3731 0000 F30F1EFA 		endbr64
 3732 0004 55       		pushq	%rbp
 3733              	.LCFI84:
 3734              		.cfi_def_cfa_offset 16
 3735              		.cfi_offset 6, -16
 3736 0005 4889E5   		movq	%rsp, %rbp
GAS LISTING /tmp/ccabgRKQ.s 			page 98


 3737              	.LCFI85:
 3738              		.cfi_def_cfa_register 6
 3739 0008 4883EC20 		subq	$32, %rsp
 3740 000c 48897DE8 		movq	%rdi, -24(%rbp)
 3741 0010 488975E0 		movq	%rsi, -32(%rbp)
 3742              		.loc 1 1213 1
 3743 0014 64488B04 		movq	%fs:40, %rax
 3743      25280000 
 3743      00
 3744 001d 488945F8 		movq	%rax, -8(%rbp)
 3745 0021 31C0     		xorl	%eax, %eax
1214:/home/xingli/share/1205tiny/cJSON/cJSON.c ****     if ((input_buffer == NULL) || (input_buffer->content == NULL))
 3746              		.loc 1 1214 8
 3747 0023 48837DE0 		cmpq	$0, -32(%rbp)
 3747      00
 3748 0028 740C     		je	.L309
 3749              		.loc 1 1214 48 discriminator 1
 3750 002a 488B45E0 		movq	-32(%rbp), %rax
 3751 002e 488B00   		movq	(%rax), %rax
 3752              		.loc 1 1214 32 discriminator 1
 3753 0031 4885C0   		testq	%rax, %rax
 3754 0034 750A     		jne	.L310
 3755              	.L309:
1215:/home/xingli/share/1205tiny/cJSON/cJSON.c ****     {
1216:/home/xingli/share/1205tiny/cJSON/cJSON.c ****         return false; /* no input */
 3756              		.loc 1 1216 16
 3757 0036 B8000000 		movl	$0, %eax
 3757      00
 3758 003b E9C90200 		jmp	.L311
 3758      00
 3759              	.L310:
1217:/home/xingli/share/1205tiny/cJSON/cJSON.c ****     }
1218:/home/xingli/share/1205tiny/cJSON/cJSON.c **** 
1219:/home/xingli/share/1205tiny/cJSON/cJSON.c ****     /* parse the different types of values */
1220:/home/xingli/share/1205tiny/cJSON/cJSON.c ****     /* null */
1221:/home/xingli/share/1205tiny/cJSON/cJSON.c ****     if (can_read(input_buffer, 4) && (strncmp((const char*)buffer_at_offset(input_buffer), "null", 
 3760              		.loc 1 1221 8
 3761 0040 48837DE0 		cmpq	$0, -32(%rbp)
 3761      00
 3762 0045 746C     		je	.L312
 3763              		.loc 1 1221 9 discriminator 1
 3764 0047 488B45E0 		movq	-32(%rbp), %rax
 3765 004b 488B4010 		movq	16(%rax), %rax
 3766 004f 488D5004 		leaq	4(%rax), %rdx
 3767 0053 488B45E0 		movq	-32(%rbp), %rax
 3768 0057 488B4008 		movq	8(%rax), %rax
 3769 005b 4839C2   		cmpq	%rax, %rdx
 3770 005e 7753     		ja	.L312
 3771              		.loc 1 1221 60 discriminator 2
 3772 0060 488B45E0 		movq	-32(%rbp), %rax
 3773 0064 488B10   		movq	(%rax), %rdx
 3774 0067 488B45E0 		movq	-32(%rbp), %rax
 3775 006b 488B4010 		movq	16(%rax), %rax
 3776 006f 4801D0   		addq	%rdx, %rax
 3777              		.loc 1 1221 39 discriminator 2
 3778 0072 BA040000 		movl	$4, %edx
 3778      00
GAS LISTING /tmp/ccabgRKQ.s 			page 99


 3779 0077 488D3500 		leaq	.LC4(%rip), %rsi
 3779      000000
 3780 007e 4889C7   		movq	%rax, %rdi
 3781 0081 E8000000 		call	strncmp@PLT
 3781      00
 3782              		.loc 1 1221 35 discriminator 2
 3783 0086 85C0     		testl	%eax, %eax
 3784 0088 7529     		jne	.L312
1222:/home/xingli/share/1205tiny/cJSON/cJSON.c ****     {
1223:/home/xingli/share/1205tiny/cJSON/cJSON.c ****         item->type = cJSON_NULL;
 3785              		.loc 1 1223 20
 3786 008a 488B45E8 		movq	-24(%rbp), %rax
 3787 008e C7401804 		movl	$4, 24(%rax)
 3787      000000
1224:/home/xingli/share/1205tiny/cJSON/cJSON.c ****         input_buffer->offset += 4;
 3788              		.loc 1 1224 30
 3789 0095 488B45E0 		movq	-32(%rbp), %rax
 3790 0099 488B4010 		movq	16(%rax), %rax
 3791 009d 488D5004 		leaq	4(%rax), %rdx
 3792 00a1 488B45E0 		movq	-32(%rbp), %rax
 3793 00a5 48895010 		movq	%rdx, 16(%rax)
1225:/home/xingli/share/1205tiny/cJSON/cJSON.c ****         return true;
 3794              		.loc 1 1225 16
 3795 00a9 B8010000 		movl	$1, %eax
 3795      00
 3796 00ae E9560200 		jmp	.L311
 3796      00
 3797              	.L312:
1226:/home/xingli/share/1205tiny/cJSON/cJSON.c ****     }
1227:/home/xingli/share/1205tiny/cJSON/cJSON.c ****     /* false */
1228:/home/xingli/share/1205tiny/cJSON/cJSON.c ****     if (can_read(input_buffer, 5) && (strncmp((const char*)buffer_at_offset(input_buffer), "false",
 3798              		.loc 1 1228 8
 3799 00b3 48837DE0 		cmpq	$0, -32(%rbp)
 3799      00
 3800 00b8 746C     		je	.L313
 3801              		.loc 1 1228 9 discriminator 1
 3802 00ba 488B45E0 		movq	-32(%rbp), %rax
 3803 00be 488B4010 		movq	16(%rax), %rax
 3804 00c2 488D5005 		leaq	5(%rax), %rdx
 3805 00c6 488B45E0 		movq	-32(%rbp), %rax
 3806 00ca 488B4008 		movq	8(%rax), %rax
 3807 00ce 4839C2   		cmpq	%rax, %rdx
 3808 00d1 7753     		ja	.L313
 3809              		.loc 1 1228 60 discriminator 2
 3810 00d3 488B45E0 		movq	-32(%rbp), %rax
 3811 00d7 488B10   		movq	(%rax), %rdx
 3812 00da 488B45E0 		movq	-32(%rbp), %rax
 3813 00de 488B4010 		movq	16(%rax), %rax
 3814 00e2 4801D0   		addq	%rdx, %rax
 3815              		.loc 1 1228 39 discriminator 2
 3816 00e5 BA050000 		movl	$5, %edx
 3816      00
 3817 00ea 488D3500 		leaq	.LC10(%rip), %rsi
 3817      000000
 3818 00f1 4889C7   		movq	%rax, %rdi
 3819 00f4 E8000000 		call	strncmp@PLT
 3819      00
GAS LISTING /tmp/ccabgRKQ.s 			page 100


 3820              		.loc 1 1228 35 discriminator 2
 3821 00f9 85C0     		testl	%eax, %eax
 3822 00fb 7529     		jne	.L313
1229:/home/xingli/share/1205tiny/cJSON/cJSON.c ****     {
1230:/home/xingli/share/1205tiny/cJSON/cJSON.c ****         item->type = cJSON_False;
 3823              		.loc 1 1230 20
 3824 00fd 488B45E8 		movq	-24(%rbp), %rax
 3825 0101 C7401801 		movl	$1, 24(%rax)
 3825      000000
1231:/home/xingli/share/1205tiny/cJSON/cJSON.c ****         input_buffer->offset += 5;
 3826              		.loc 1 1231 30
 3827 0108 488B45E0 		movq	-32(%rbp), %rax
 3828 010c 488B4010 		movq	16(%rax), %rax
 3829 0110 488D5005 		leaq	5(%rax), %rdx
 3830 0114 488B45E0 		movq	-32(%rbp), %rax
 3831 0118 48895010 		movq	%rdx, 16(%rax)
1232:/home/xingli/share/1205tiny/cJSON/cJSON.c ****         return true;
 3832              		.loc 1 1232 16
 3833 011c B8010000 		movl	$1, %eax
 3833      00
 3834 0121 E9E30100 		jmp	.L311
 3834      00
 3835              	.L313:
1233:/home/xingli/share/1205tiny/cJSON/cJSON.c ****     }
1234:/home/xingli/share/1205tiny/cJSON/cJSON.c ****     /* true */
1235:/home/xingli/share/1205tiny/cJSON/cJSON.c ****     if (can_read(input_buffer, 4) && (strncmp((const char*)buffer_at_offset(input_buffer), "true", 
 3836              		.loc 1 1235 8
 3837 0126 48837DE0 		cmpq	$0, -32(%rbp)
 3837      00
 3838 012b 7477     		je	.L314
 3839              		.loc 1 1235 9 discriminator 1
 3840 012d 488B45E0 		movq	-32(%rbp), %rax
 3841 0131 488B4010 		movq	16(%rax), %rax
 3842 0135 488D5004 		leaq	4(%rax), %rdx
 3843 0139 488B45E0 		movq	-32(%rbp), %rax
 3844 013d 488B4008 		movq	8(%rax), %rax
 3845 0141 4839C2   		cmpq	%rax, %rdx
 3846 0144 775E     		ja	.L314
 3847              		.loc 1 1235 60 discriminator 2
 3848 0146 488B45E0 		movq	-32(%rbp), %rax
 3849 014a 488B10   		movq	(%rax), %rdx
 3850 014d 488B45E0 		movq	-32(%rbp), %rax
 3851 0151 488B4010 		movq	16(%rax), %rax
 3852 0155 4801D0   		addq	%rdx, %rax
 3853              		.loc 1 1235 39 discriminator 2
 3854 0158 BA040000 		movl	$4, %edx
 3854      00
 3855 015d 488D3500 		leaq	.LC11(%rip), %rsi
 3855      000000
 3856 0164 4889C7   		movq	%rax, %rdi
 3857 0167 E8000000 		call	strncmp@PLT
 3857      00
 3858              		.loc 1 1235 35 discriminator 2
 3859 016c 85C0     		testl	%eax, %eax
 3860 016e 7534     		jne	.L314
1236:/home/xingli/share/1205tiny/cJSON/cJSON.c ****     {
1237:/home/xingli/share/1205tiny/cJSON/cJSON.c ****         item->type = cJSON_True;
GAS LISTING /tmp/ccabgRKQ.s 			page 101


 3861              		.loc 1 1237 20
 3862 0170 488B45E8 		movq	-24(%rbp), %rax
 3863 0174 C7401802 		movl	$2, 24(%rax)
 3863      000000
1238:/home/xingli/share/1205tiny/cJSON/cJSON.c ****         item->valueint = 1;
 3864              		.loc 1 1238 24
 3865 017b 488B45E8 		movq	-24(%rbp), %rax
 3866 017f C7402801 		movl	$1, 40(%rax)
 3866      000000
1239:/home/xingli/share/1205tiny/cJSON/cJSON.c ****         input_buffer->offset += 4;
 3867              		.loc 1 1239 30
 3868 0186 488B45E0 		movq	-32(%rbp), %rax
 3869 018a 488B4010 		movq	16(%rax), %rax
 3870 018e 488D5004 		leaq	4(%rax), %rdx
 3871 0192 488B45E0 		movq	-32(%rbp), %rax
 3872 0196 48895010 		movq	%rdx, 16(%rax)
1240:/home/xingli/share/1205tiny/cJSON/cJSON.c ****         return true;
 3873              		.loc 1 1240 16
 3874 019a B8010000 		movl	$1, %eax
 3874      00
 3875 019f E9650100 		jmp	.L311
 3875      00
 3876              	.L314:
1241:/home/xingli/share/1205tiny/cJSON/cJSON.c ****     }
1242:/home/xingli/share/1205tiny/cJSON/cJSON.c ****     /* string */
1243:/home/xingli/share/1205tiny/cJSON/cJSON.c ****     if (can_access_at_index(input_buffer, 0) && (buffer_at_offset(input_buffer)[0] == '\"'))
 3877              		.loc 1 1243 8
 3878 01a4 48837DE0 		cmpq	$0, -32(%rbp)
 3878      00
 3879 01a9 7446     		je	.L315
 3880              		.loc 1 1243 9 discriminator 1
 3881 01ab 488B45E0 		movq	-32(%rbp), %rax
 3882 01af 488B5010 		movq	16(%rax), %rdx
 3883 01b3 488B45E0 		movq	-32(%rbp), %rax
 3884 01b7 488B4008 		movq	8(%rax), %rax
 3885 01bb 4839C2   		cmpq	%rax, %rdx
 3886 01be 7331     		jnb	.L315
 3887              		.loc 1 1243 50 discriminator 2
 3888 01c0 488B45E0 		movq	-32(%rbp), %rax
 3889 01c4 488B10   		movq	(%rax), %rdx
 3890 01c7 488B45E0 		movq	-32(%rbp), %rax
 3891 01cb 488B4010 		movq	16(%rax), %rax
 3892              		.loc 1 1243 80 discriminator 2
 3893 01cf 4801D0   		addq	%rdx, %rax
 3894 01d2 0FB600   		movzbl	(%rax), %eax
 3895              		.loc 1 1243 46 discriminator 2
 3896 01d5 3C22     		cmpb	$34, %al
 3897 01d7 7518     		jne	.L315
1244:/home/xingli/share/1205tiny/cJSON/cJSON.c ****     {
1245:/home/xingli/share/1205tiny/cJSON/cJSON.c ****         return parse_string(item, input_buffer);
 3898              		.loc 1 1245 16
 3899 01d9 488B55E0 		movq	-32(%rbp), %rdx
 3900 01dd 488B45E8 		movq	-24(%rbp), %rax
 3901 01e1 4889D6   		movq	%rdx, %rsi
 3902 01e4 4889C7   		movq	%rax, %rdi
 3903 01e7 E8000000 		call	parse_string
 3903      00
GAS LISTING /tmp/ccabgRKQ.s 			page 102


 3904 01ec E9180100 		jmp	.L311
 3904      00
 3905              	.L315:
1246:/home/xingli/share/1205tiny/cJSON/cJSON.c ****     }
1247:/home/xingli/share/1205tiny/cJSON/cJSON.c ****     /* number */
1248:/home/xingli/share/1205tiny/cJSON/cJSON.c ****     if (can_access_at_index(input_buffer, 0) && ((buffer_at_offset(input_buffer)[0] == '-') || ((bu
 3906              		.loc 1 1248 8
 3907 01f1 48837DE0 		cmpq	$0, -32(%rbp)
 3907      00
 3908 01f6 7478     		je	.L316
 3909              		.loc 1 1248 9 discriminator 1
 3910 01f8 488B45E0 		movq	-32(%rbp), %rax
 3911 01fc 488B5010 		movq	16(%rax), %rdx
 3912 0200 488B45E0 		movq	-32(%rbp), %rax
 3913 0204 488B4008 		movq	8(%rax), %rax
 3914 0208 4839C2   		cmpq	%rax, %rdx
 3915 020b 7363     		jnb	.L316
 3916              		.loc 1 1248 51 discriminator 2
 3917 020d 488B45E0 		movq	-32(%rbp), %rax
 3918 0211 488B10   		movq	(%rax), %rdx
 3919 0214 488B45E0 		movq	-32(%rbp), %rax
 3920 0218 488B4010 		movq	16(%rax), %rax
 3921              		.loc 1 1248 81 discriminator 2
 3922 021c 4801D0   		addq	%rdx, %rax
 3923 021f 0FB600   		movzbl	(%rax), %eax
 3924              		.loc 1 1248 46 discriminator 2
 3925 0222 3C2D     		cmpb	$45, %al
 3926 0224 7432     		je	.L317
 3927              		.loc 1 1248 98 discriminator 3
 3928 0226 488B45E0 		movq	-32(%rbp), %rax
 3929 022a 488B10   		movq	(%rax), %rdx
 3930 022d 488B45E0 		movq	-32(%rbp), %rax
 3931 0231 488B4010 		movq	16(%rax), %rax
 3932              		.loc 1 1248 128 discriminator 3
 3933 0235 4801D0   		addq	%rdx, %rax
 3934 0238 0FB600   		movzbl	(%rax), %eax
 3935              		.loc 1 1248 93 discriminator 3
 3936 023b 3C2F     		cmpb	$47, %al
 3937 023d 7631     		jbe	.L316
 3938              		.loc 1 1248 144 discriminator 4
 3939 023f 488B45E0 		movq	-32(%rbp), %rax
 3940 0243 488B10   		movq	(%rax), %rdx
 3941 0246 488B45E0 		movq	-32(%rbp), %rax
 3942 024a 488B4010 		movq	16(%rax), %rax
 3943              		.loc 1 1248 174 discriminator 4
 3944 024e 4801D0   		addq	%rdx, %rax
 3945 0251 0FB600   		movzbl	(%rax), %eax
 3946              		.loc 1 1248 140 discriminator 4
 3947 0254 3C39     		cmpb	$57, %al
 3948 0256 7718     		ja	.L316
 3949              	.L317:
1249:/home/xingli/share/1205tiny/cJSON/cJSON.c ****     {
1250:/home/xingli/share/1205tiny/cJSON/cJSON.c ****         return parse_number(item, input_buffer);
 3950              		.loc 1 1250 16
 3951 0258 488B55E0 		movq	-32(%rbp), %rdx
 3952 025c 488B45E8 		movq	-24(%rbp), %rax
 3953 0260 4889D6   		movq	%rdx, %rsi
GAS LISTING /tmp/ccabgRKQ.s 			page 103


 3954 0263 4889C7   		movq	%rax, %rdi
 3955 0266 E8000000 		call	parse_number
 3955      00
 3956 026b E9990000 		jmp	.L311
 3956      00
 3957              	.L316:
1251:/home/xingli/share/1205tiny/cJSON/cJSON.c ****     }
1252:/home/xingli/share/1205tiny/cJSON/cJSON.c ****     /* array */
1253:/home/xingli/share/1205tiny/cJSON/cJSON.c ****     if (can_access_at_index(input_buffer, 0) && (buffer_at_offset(input_buffer)[0] == '['))
 3958              		.loc 1 1253 8
 3959 0270 48837DE0 		cmpq	$0, -32(%rbp)
 3959      00
 3960 0275 7443     		je	.L318
 3961              		.loc 1 1253 9 discriminator 1
 3962 0277 488B45E0 		movq	-32(%rbp), %rax
 3963 027b 488B5010 		movq	16(%rax), %rdx
 3964 027f 488B45E0 		movq	-32(%rbp), %rax
 3965 0283 488B4008 		movq	8(%rax), %rax
 3966 0287 4839C2   		cmpq	%rax, %rdx
 3967 028a 732E     		jnb	.L318
 3968              		.loc 1 1253 50 discriminator 2
 3969 028c 488B45E0 		movq	-32(%rbp), %rax
 3970 0290 488B10   		movq	(%rax), %rdx
 3971 0293 488B45E0 		movq	-32(%rbp), %rax
 3972 0297 488B4010 		movq	16(%rax), %rax
 3973              		.loc 1 1253 80 discriminator 2
 3974 029b 4801D0   		addq	%rdx, %rax
 3975 029e 0FB600   		movzbl	(%rax), %eax
 3976              		.loc 1 1253 46 discriminator 2
 3977 02a1 3C5B     		cmpb	$91, %al
 3978 02a3 7515     		jne	.L318
1254:/home/xingli/share/1205tiny/cJSON/cJSON.c ****     {
1255:/home/xingli/share/1205tiny/cJSON/cJSON.c ****         return parse_array(item, input_buffer);
 3979              		.loc 1 1255 16
 3980 02a5 488B55E0 		movq	-32(%rbp), %rdx
 3981 02a9 488B45E8 		movq	-24(%rbp), %rax
 3982 02ad 4889D6   		movq	%rdx, %rsi
 3983 02b0 4889C7   		movq	%rax, %rdi
 3984 02b3 E8000000 		call	parse_array
 3984      00
 3985 02b8 EB4F     		jmp	.L311
 3986              	.L318:
1256:/home/xingli/share/1205tiny/cJSON/cJSON.c ****     }
1257:/home/xingli/share/1205tiny/cJSON/cJSON.c ****     /* object */
1258:/home/xingli/share/1205tiny/cJSON/cJSON.c ****     if (can_access_at_index(input_buffer, 0) && (buffer_at_offset(input_buffer)[0] == '{'))
 3987              		.loc 1 1258 8
 3988 02ba 48837DE0 		cmpq	$0, -32(%rbp)
 3988      00
 3989 02bf 7443     		je	.L319
 3990              		.loc 1 1258 9 discriminator 1
 3991 02c1 488B45E0 		movq	-32(%rbp), %rax
 3992 02c5 488B5010 		movq	16(%rax), %rdx
 3993 02c9 488B45E0 		movq	-32(%rbp), %rax
 3994 02cd 488B4008 		movq	8(%rax), %rax
 3995 02d1 4839C2   		cmpq	%rax, %rdx
 3996 02d4 732E     		jnb	.L319
 3997              		.loc 1 1258 50 discriminator 2
GAS LISTING /tmp/ccabgRKQ.s 			page 104


 3998 02d6 488B45E0 		movq	-32(%rbp), %rax
 3999 02da 488B10   		movq	(%rax), %rdx
 4000 02dd 488B45E0 		movq	-32(%rbp), %rax
 4001 02e1 488B4010 		movq	16(%rax), %rax
 4002              		.loc 1 1258 80 discriminator 2
 4003 02e5 4801D0   		addq	%rdx, %rax
 4004 02e8 0FB600   		movzbl	(%rax), %eax
 4005              		.loc 1 1258 46 discriminator 2
 4006 02eb 3C7B     		cmpb	$123, %al
 4007 02ed 7515     		jne	.L319
1259:/home/xingli/share/1205tiny/cJSON/cJSON.c ****     {
1260:/home/xingli/share/1205tiny/cJSON/cJSON.c ****         return parse_object(item, input_buffer);
 4008              		.loc 1 1260 16
 4009 02ef 488B55E0 		movq	-32(%rbp), %rdx
 4010 02f3 488B45E8 		movq	-24(%rbp), %rax
 4011 02f7 4889D6   		movq	%rdx, %rsi
 4012 02fa 4889C7   		movq	%rax, %rdi
 4013 02fd E8000000 		call	parse_object
 4013      00
 4014 0302 EB05     		jmp	.L311
 4015              	.L319:
1261:/home/xingli/share/1205tiny/cJSON/cJSON.c ****     }
1262:/home/xingli/share/1205tiny/cJSON/cJSON.c **** 
1263:/home/xingli/share/1205tiny/cJSON/cJSON.c ****     return false;
 4016              		.loc 1 1263 12
 4017 0304 B8000000 		movl	$0, %eax
 4017      00
 4018              	.L311:
1264:/home/xingli/share/1205tiny/cJSON/cJSON.c **** }
 4019              		.loc 1 1264 1
 4020 0309 488B4DF8 		movq	-8(%rbp), %rcx
 4021 030d 6448330C 		xorq	%fs:40, %rcx
 4021      25280000 
 4021      00
 4022 0316 7405     		je	.L320
 4023 0318 E8000000 		call	__stack_chk_fail@PLT
 4023      00
 4024              	.L320:
 4025 031d C9       		leave
 4026              	.LCFI86:
 4027              		.cfi_def_cfa 7, 8
 4028 031e C3       		ret
 4029              		.cfi_endproc
 4030              	.LFE34:
 4032              		.section	.text.print_value,"ax",@progbits
 4034              	print_value:
 4035              	.LFB35:
1265:/home/xingli/share/1205tiny/cJSON/cJSON.c **** 
1266:/home/xingli/share/1205tiny/cJSON/cJSON.c **** /* Render a value to text. */
1267:/home/xingli/share/1205tiny/cJSON/cJSON.c **** static cJSON_bool print_value(const cJSON * const item, printbuffer * const output_buffer)
1268:/home/xingli/share/1205tiny/cJSON/cJSON.c **** {
 4036              		.loc 1 1268 1
 4037              		.cfi_startproc
 4038 0000 F30F1EFA 		endbr64
 4039 0004 55       		pushq	%rbp
 4040              	.LCFI87:
 4041              		.cfi_def_cfa_offset 16
GAS LISTING /tmp/ccabgRKQ.s 			page 105


 4042              		.cfi_offset 6, -16
 4043 0005 4889E5   		movq	%rsp, %rbp
 4044              	.LCFI88:
 4045              		.cfi_def_cfa_register 6
 4046 0008 4883EC30 		subq	$48, %rsp
 4047 000c 48897DD8 		movq	%rdi, -40(%rbp)
 4048 0010 488975D0 		movq	%rsi, -48(%rbp)
 4049              		.loc 1 1268 1
 4050 0014 64488B04 		movq	%fs:40, %rax
 4050      25280000 
 4050      00
 4051 001d 488945F8 		movq	%rax, -8(%rbp)
 4052 0021 31C0     		xorl	%eax, %eax
1269:/home/xingli/share/1205tiny/cJSON/cJSON.c ****     unsigned char *output = NULL;
 4053              		.loc 1 1269 20
 4054 0023 48C745E8 		movq	$0, -24(%rbp)
 4054      00000000 
1270:/home/xingli/share/1205tiny/cJSON/cJSON.c **** 
1271:/home/xingli/share/1205tiny/cJSON/cJSON.c ****     if ((item == NULL) || (output_buffer == NULL))
 4055              		.loc 1 1271 8
 4056 002b 48837DD8 		cmpq	$0, -40(%rbp)
 4056      00
 4057 0030 7407     		je	.L322
 4058              		.loc 1 1271 24 discriminator 1
 4059 0032 48837DD0 		cmpq	$0, -48(%rbp)
 4059      00
 4060 0037 750A     		jne	.L323
 4061              	.L322:
1272:/home/xingli/share/1205tiny/cJSON/cJSON.c ****     {
1273:/home/xingli/share/1205tiny/cJSON/cJSON.c ****         return false;
 4062              		.loc 1 1273 16
 4063 0039 B8000000 		movl	$0, %eax
 4063      00
 4064 003e E9FD0100 		jmp	.L324
 4064      00
 4065              	.L323:
1274:/home/xingli/share/1205tiny/cJSON/cJSON.c ****     }
1275:/home/xingli/share/1205tiny/cJSON/cJSON.c **** 
1276:/home/xingli/share/1205tiny/cJSON/cJSON.c ****     switch ((item->type) & 0xFF)
 4066              		.loc 1 1276 18
 4067 0043 488B45D8 		movq	-40(%rbp), %rax
 4068 0047 8B4018   		movl	24(%rax), %eax
 4069              		.loc 1 1276 26
 4070 004a 0FB6C0   		movzbl	%al, %eax
 4071              		.loc 1 1276 5
 4072 004d 3D800000 		cmpl	$128, %eax
 4072      00
 4073 0052 0F842601 		je	.L325
 4073      0000
 4074 0058 3D800000 		cmpl	$128, %eax
 4074      00
 4075 005d 0F8FD801 		jg	.L326
 4075      0000
 4076 0063 83F820   		cmpl	$32, %eax
 4077 0066 7F34     		jg	.L327
 4078 0068 85C0     		testl	%eax, %eax
 4079 006a 0F8ECB01 		jle	.L326
GAS LISTING /tmp/ccabgRKQ.s 			page 106


 4079      0000
 4080 0070 83F820   		cmpl	$32, %eax
 4081 0073 0F87C201 		ja	.L326
 4081      0000
 4082 0079 89C0     		movl	%eax, %eax
 4083 007b 488D1485 		leaq	0(,%rax,4), %rdx
 4083      00000000 
 4084 0083 488D0500 		leaq	.L329(%rip), %rax
 4084      000000
 4085 008a 8B0402   		movl	(%rdx,%rax), %eax
 4086 008d 4898     		cltq
 4087 008f 488D1500 		leaq	.L329(%rip), %rdx
 4087      000000
 4088 0096 4801D0   		addq	%rdx, %rax
 4089 0099 3EFFE0   		notrack jmp	*%rax
 4090              		.section	.rodata.print_value,"a",@progbits
 4091              		.align 4
 4092              		.align 4
 4093              	.L329:
 4094 0000 00000000 		.long	.L326-.L329
 4095 0004 00000000 		.long	.L334-.L329
 4096 0008 00000000 		.long	.L333-.L329
 4097 000c 00000000 		.long	.L326-.L329
 4098 0010 00000000 		.long	.L332-.L329
 4099 0014 00000000 		.long	.L326-.L329
 4100 0018 00000000 		.long	.L326-.L329
 4101 001c 00000000 		.long	.L326-.L329
 4102 0020 00000000 		.long	.L331-.L329
 4103 0024 00000000 		.long	.L326-.L329
 4104 0028 00000000 		.long	.L326-.L329
 4105 002c 00000000 		.long	.L326-.L329
 4106 0030 00000000 		.long	.L326-.L329
 4107 0034 00000000 		.long	.L326-.L329
 4108 0038 00000000 		.long	.L326-.L329
 4109 003c 00000000 		.long	.L326-.L329
 4110 0040 00000000 		.long	.L330-.L329
 4111 0044 00000000 		.long	.L326-.L329
 4112 0048 00000000 		.long	.L326-.L329
 4113 004c 00000000 		.long	.L326-.L329
 4114 0050 00000000 		.long	.L326-.L329
 4115 0054 00000000 		.long	.L326-.L329
 4116 0058 00000000 		.long	.L326-.L329
 4117 005c 00000000 		.long	.L326-.L329
 4118 0060 00000000 		.long	.L326-.L329
 4119 0064 00000000 		.long	.L326-.L329
 4120 0068 00000000 		.long	.L326-.L329
 4121 006c 00000000 		.long	.L326-.L329
 4122 0070 00000000 		.long	.L326-.L329
 4123 0074 00000000 		.long	.L326-.L329
 4124 0078 00000000 		.long	.L326-.L329
 4125 007c 00000000 		.long	.L326-.L329
 4126 0080 00000000 		.long	.L328-.L329
 4127              		.section	.text.print_value
 4128              	.L327:
 4129 009c 83F840   		cmpl	$64, %eax
 4130 009f 0F848101 		je	.L335
 4130      0000
GAS LISTING /tmp/ccabgRKQ.s 			page 107


 4131 00a5 E9910100 		jmp	.L326
 4131      00
 4132              	.L332:
1277:/home/xingli/share/1205tiny/cJSON/cJSON.c ****     {
1278:/home/xingli/share/1205tiny/cJSON/cJSON.c ****         case cJSON_NULL:
1279:/home/xingli/share/1205tiny/cJSON/cJSON.c ****             output = ensure(output_buffer, 5);
 4133              		.loc 1 1279 22
 4134 00aa 488B45D0 		movq	-48(%rbp), %rax
 4135 00ae BE050000 		movl	$5, %esi
 4135      00
 4136 00b3 4889C7   		movq	%rax, %rdi
 4137 00b6 E8000000 		call	ensure
 4137      00
 4138 00bb 488945E8 		movq	%rax, -24(%rbp)
1280:/home/xingli/share/1205tiny/cJSON/cJSON.c ****             if (output == NULL)
 4139              		.loc 1 1280 16
 4140 00bf 48837DE8 		cmpq	$0, -24(%rbp)
 4140      00
 4141 00c4 750A     		jne	.L336
1281:/home/xingli/share/1205tiny/cJSON/cJSON.c ****             {
1282:/home/xingli/share/1205tiny/cJSON/cJSON.c ****                 return false;
 4142              		.loc 1 1282 24
 4143 00c6 B8000000 		movl	$0, %eax
 4143      00
 4144 00cb E9700100 		jmp	.L324
 4144      00
 4145              	.L336:
1283:/home/xingli/share/1205tiny/cJSON/cJSON.c ****             }
1284:/home/xingli/share/1205tiny/cJSON/cJSON.c ****             strcpy((char*)output, "null");
 4146              		.loc 1 1284 13
 4147 00d0 488B45E8 		movq	-24(%rbp), %rax
 4148 00d4 C7006E75 		movl	$1819047278, (%rax)
 4148      6C6C
 4149 00da C6400400 		movb	$0, 4(%rax)
1285:/home/xingli/share/1205tiny/cJSON/cJSON.c ****             return true;
 4150              		.loc 1 1285 20
 4151 00de B8010000 		movl	$1, %eax
 4151      00
 4152 00e3 E9580100 		jmp	.L324
 4152      00
 4153              	.L334:
1286:/home/xingli/share/1205tiny/cJSON/cJSON.c **** 
1287:/home/xingli/share/1205tiny/cJSON/cJSON.c ****         case cJSON_False:
1288:/home/xingli/share/1205tiny/cJSON/cJSON.c ****             output = ensure(output_buffer, 6);
 4154              		.loc 1 1288 22
 4155 00e8 488B45D0 		movq	-48(%rbp), %rax
 4156 00ec BE060000 		movl	$6, %esi
 4156      00
 4157 00f1 4889C7   		movq	%rax, %rdi
 4158 00f4 E8000000 		call	ensure
 4158      00
 4159 00f9 488945E8 		movq	%rax, -24(%rbp)
1289:/home/xingli/share/1205tiny/cJSON/cJSON.c ****             if (output == NULL)
 4160              		.loc 1 1289 16
 4161 00fd 48837DE8 		cmpq	$0, -24(%rbp)
 4161      00
 4162 0102 750A     		jne	.L337
GAS LISTING /tmp/ccabgRKQ.s 			page 108


1290:/home/xingli/share/1205tiny/cJSON/cJSON.c ****             {
1291:/home/xingli/share/1205tiny/cJSON/cJSON.c ****                 return false;
 4163              		.loc 1 1291 24
 4164 0104 B8000000 		movl	$0, %eax
 4164      00
 4165 0109 E9320100 		jmp	.L324
 4165      00
 4166              	.L337:
1292:/home/xingli/share/1205tiny/cJSON/cJSON.c ****             }
1293:/home/xingli/share/1205tiny/cJSON/cJSON.c ****             strcpy((char*)output, "false");
 4167              		.loc 1 1293 13
 4168 010e 488B45E8 		movq	-24(%rbp), %rax
 4169 0112 C7006661 		movl	$1936482662, (%rax)
 4169      6C73
 4170 0118 66C74004 		movw	$101, 4(%rax)
 4170      6500
1294:/home/xingli/share/1205tiny/cJSON/cJSON.c ****             return true;
 4171              		.loc 1 1294 20
 4172 011e B8010000 		movl	$1, %eax
 4172      00
 4173 0123 E9180100 		jmp	.L324
 4173      00
 4174              	.L333:
1295:/home/xingli/share/1205tiny/cJSON/cJSON.c **** 
1296:/home/xingli/share/1205tiny/cJSON/cJSON.c ****         case cJSON_True:
1297:/home/xingli/share/1205tiny/cJSON/cJSON.c ****             output = ensure(output_buffer, 5);
 4175              		.loc 1 1297 22
 4176 0128 488B45D0 		movq	-48(%rbp), %rax
 4177 012c BE050000 		movl	$5, %esi
 4177      00
 4178 0131 4889C7   		movq	%rax, %rdi
 4179 0134 E8000000 		call	ensure
 4179      00
 4180 0139 488945E8 		movq	%rax, -24(%rbp)
1298:/home/xingli/share/1205tiny/cJSON/cJSON.c ****             if (output == NULL)
 4181              		.loc 1 1298 16
 4182 013d 48837DE8 		cmpq	$0, -24(%rbp)
 4182      00
 4183 0142 750A     		jne	.L338
1299:/home/xingli/share/1205tiny/cJSON/cJSON.c ****             {
1300:/home/xingli/share/1205tiny/cJSON/cJSON.c ****                 return false;
 4184              		.loc 1 1300 24
 4185 0144 B8000000 		movl	$0, %eax
 4185      00
 4186 0149 E9F20000 		jmp	.L324
 4186      00
 4187              	.L338:
1301:/home/xingli/share/1205tiny/cJSON/cJSON.c ****             }
1302:/home/xingli/share/1205tiny/cJSON/cJSON.c ****             strcpy((char*)output, "true");
 4188              		.loc 1 1302 13
 4189 014e 488B45E8 		movq	-24(%rbp), %rax
 4190 0152 C7007472 		movl	$1702195828, (%rax)
 4190      7565
 4191 0158 C6400400 		movb	$0, 4(%rax)
1303:/home/xingli/share/1205tiny/cJSON/cJSON.c ****             return true;
 4192              		.loc 1 1303 20
 4193 015c B8010000 		movl	$1, %eax
GAS LISTING /tmp/ccabgRKQ.s 			page 109


 4193      00
 4194 0161 E9DA0000 		jmp	.L324
 4194      00
 4195              	.L331:
1304:/home/xingli/share/1205tiny/cJSON/cJSON.c **** 
1305:/home/xingli/share/1205tiny/cJSON/cJSON.c ****         case cJSON_Number:
1306:/home/xingli/share/1205tiny/cJSON/cJSON.c ****             return print_number(item, output_buffer);
 4196              		.loc 1 1306 20
 4197 0166 488B55D0 		movq	-48(%rbp), %rdx
 4198 016a 488B45D8 		movq	-40(%rbp), %rax
 4199 016e 4889D6   		movq	%rdx, %rsi
 4200 0171 4889C7   		movq	%rax, %rdi
 4201 0174 E8000000 		call	print_number
 4201      00
 4202 0179 E9C20000 		jmp	.L324
 4202      00
 4203              	.L325:
 4204              	.LBB9:
1307:/home/xingli/share/1205tiny/cJSON/cJSON.c **** 
1308:/home/xingli/share/1205tiny/cJSON/cJSON.c ****         case cJSON_Raw:
1309:/home/xingli/share/1205tiny/cJSON/cJSON.c ****         {
1310:/home/xingli/share/1205tiny/cJSON/cJSON.c ****             size_t raw_length = 0;
 4205              		.loc 1 1310 20
 4206 017e 48C745F0 		movq	$0, -16(%rbp)
 4206      00000000 
1311:/home/xingli/share/1205tiny/cJSON/cJSON.c ****             if (item->valuestring == NULL)
 4207              		.loc 1 1311 21
 4208 0186 488B45D8 		movq	-40(%rbp), %rax
 4209 018a 488B4020 		movq	32(%rax), %rax
 4210              		.loc 1 1311 16
 4211 018e 4885C0   		testq	%rax, %rax
 4212 0191 750A     		jne	.L339
1312:/home/xingli/share/1205tiny/cJSON/cJSON.c ****             {
1313:/home/xingli/share/1205tiny/cJSON/cJSON.c ****                 return false;
 4213              		.loc 1 1313 24
 4214 0193 B8000000 		movl	$0, %eax
 4214      00
 4215 0198 E9A30000 		jmp	.L324
 4215      00
 4216              	.L339:
1314:/home/xingli/share/1205tiny/cJSON/cJSON.c ****             }
1315:/home/xingli/share/1205tiny/cJSON/cJSON.c **** 
1316:/home/xingli/share/1205tiny/cJSON/cJSON.c ****             raw_length = strlen(item->valuestring) + sizeof("");
 4217              		.loc 1 1316 37
 4218 019d 488B45D8 		movq	-40(%rbp), %rax
 4219 01a1 488B4020 		movq	32(%rax), %rax
 4220              		.loc 1 1316 26
 4221 01a5 4889C7   		movq	%rax, %rdi
 4222 01a8 E8000000 		call	strlen@PLT
 4222      00
 4223              		.loc 1 1316 24
 4224 01ad 4883C001 		addq	$1, %rax
 4225 01b1 488945F0 		movq	%rax, -16(%rbp)
1317:/home/xingli/share/1205tiny/cJSON/cJSON.c ****             output = ensure(output_buffer, raw_length);
 4226              		.loc 1 1317 22
 4227 01b5 488B55F0 		movq	-16(%rbp), %rdx
 4228 01b9 488B45D0 		movq	-48(%rbp), %rax
GAS LISTING /tmp/ccabgRKQ.s 			page 110


 4229 01bd 4889D6   		movq	%rdx, %rsi
 4230 01c0 4889C7   		movq	%rax, %rdi
 4231 01c3 E8000000 		call	ensure
 4231      00
 4232 01c8 488945E8 		movq	%rax, -24(%rbp)
1318:/home/xingli/share/1205tiny/cJSON/cJSON.c ****             if (output == NULL)
 4233              		.loc 1 1318 16
 4234 01cc 48837DE8 		cmpq	$0, -24(%rbp)
 4234      00
 4235 01d1 7507     		jne	.L340
1319:/home/xingli/share/1205tiny/cJSON/cJSON.c ****             {
1320:/home/xingli/share/1205tiny/cJSON/cJSON.c ****                 return false;
 4236              		.loc 1 1320 24
 4237 01d3 B8000000 		movl	$0, %eax
 4237      00
 4238 01d8 EB66     		jmp	.L324
 4239              	.L340:
1321:/home/xingli/share/1205tiny/cJSON/cJSON.c ****             }
1322:/home/xingli/share/1205tiny/cJSON/cJSON.c ****             (void) memcpy(output, item->valuestring, raw_length);
 4240              		.loc 1 1322 39
 4241 01da 488B45D8 		movq	-40(%rbp), %rax
 4242 01de 488B4820 		movq	32(%rax), %rcx
 4243              		.loc 1 1322 20
 4244 01e2 488B55F0 		movq	-16(%rbp), %rdx
 4245 01e6 488B45E8 		movq	-24(%rbp), %rax
 4246 01ea 4889CE   		movq	%rcx, %rsi
 4247 01ed 4889C7   		movq	%rax, %rdi
 4248 01f0 E8000000 		call	memcpy@PLT
 4248      00
1323:/home/xingli/share/1205tiny/cJSON/cJSON.c ****             return true;
 4249              		.loc 1 1323 20
 4250 01f5 B8010000 		movl	$1, %eax
 4250      00
 4251 01fa EB44     		jmp	.L324
 4252              	.L330:
 4253              	.LBE9:
1324:/home/xingli/share/1205tiny/cJSON/cJSON.c ****         }
1325:/home/xingli/share/1205tiny/cJSON/cJSON.c **** 
1326:/home/xingli/share/1205tiny/cJSON/cJSON.c ****         case cJSON_String:
1327:/home/xingli/share/1205tiny/cJSON/cJSON.c ****             return print_string(item, output_buffer);
 4254              		.loc 1 1327 20
 4255 01fc 488B55D0 		movq	-48(%rbp), %rdx
 4256 0200 488B45D8 		movq	-40(%rbp), %rax
 4257 0204 4889D6   		movq	%rdx, %rsi
 4258 0207 4889C7   		movq	%rax, %rdi
 4259 020a E8000000 		call	print_string
 4259      00
 4260 020f EB2F     		jmp	.L324
 4261              	.L328:
1328:/home/xingli/share/1205tiny/cJSON/cJSON.c **** 
1329:/home/xingli/share/1205tiny/cJSON/cJSON.c ****         case cJSON_Array:
1330:/home/xingli/share/1205tiny/cJSON/cJSON.c ****             return print_array(item, output_buffer);
 4262              		.loc 1 1330 20
 4263 0211 488B55D0 		movq	-48(%rbp), %rdx
 4264 0215 488B45D8 		movq	-40(%rbp), %rax
 4265 0219 4889D6   		movq	%rdx, %rsi
 4266 021c 4889C7   		movq	%rax, %rdi
GAS LISTING /tmp/ccabgRKQ.s 			page 111


 4267 021f E8000000 		call	print_array
 4267      00
 4268 0224 EB1A     		jmp	.L324
 4269              	.L335:
1331:/home/xingli/share/1205tiny/cJSON/cJSON.c **** 
1332:/home/xingli/share/1205tiny/cJSON/cJSON.c ****         case cJSON_Object:
1333:/home/xingli/share/1205tiny/cJSON/cJSON.c ****             return print_object(item, output_buffer);
 4270              		.loc 1 1333 20
 4271 0226 488B55D0 		movq	-48(%rbp), %rdx
 4272 022a 488B45D8 		movq	-40(%rbp), %rax
 4273 022e 4889D6   		movq	%rdx, %rsi
 4274 0231 4889C7   		movq	%rax, %rdi
 4275 0234 E8000000 		call	print_object
 4275      00
 4276 0239 EB05     		jmp	.L324
 4277              	.L326:
1334:/home/xingli/share/1205tiny/cJSON/cJSON.c **** 
1335:/home/xingli/share/1205tiny/cJSON/cJSON.c ****         default:
1336:/home/xingli/share/1205tiny/cJSON/cJSON.c ****             return false;
 4278              		.loc 1 1336 20
 4279 023b B8000000 		movl	$0, %eax
 4279      00
 4280              	.L324:
1337:/home/xingli/share/1205tiny/cJSON/cJSON.c ****     }
1338:/home/xingli/share/1205tiny/cJSON/cJSON.c **** }
 4281              		.loc 1 1338 1
 4282 0240 488B4DF8 		movq	-8(%rbp), %rcx
 4283 0244 6448330C 		xorq	%fs:40, %rcx
 4283      25280000 
 4283      00
 4284 024d 7405     		je	.L341
 4285 024f E8000000 		call	__stack_chk_fail@PLT
 4285      00
 4286              	.L341:
 4287 0254 C9       		leave
 4288              	.LCFI89:
 4289              		.cfi_def_cfa 7, 8
 4290 0255 C3       		ret
 4291              		.cfi_endproc
 4292              	.LFE35:
 4294              		.section	.text.parse_array,"ax",@progbits
 4296              	parse_array:
 4297              	.LFB36:
1339:/home/xingli/share/1205tiny/cJSON/cJSON.c **** 
1340:/home/xingli/share/1205tiny/cJSON/cJSON.c **** /* Build an array from input text. */
1341:/home/xingli/share/1205tiny/cJSON/cJSON.c **** static cJSON_bool parse_array(cJSON * const item, parse_buffer * const input_buffer)
1342:/home/xingli/share/1205tiny/cJSON/cJSON.c **** {
 4298              		.loc 1 1342 1
 4299              		.cfi_startproc
 4300 0000 F30F1EFA 		endbr64
 4301 0004 55       		pushq	%rbp
 4302              	.LCFI90:
 4303              		.cfi_def_cfa_offset 16
 4304              		.cfi_offset 6, -16
 4305 0005 4889E5   		movq	%rsp, %rbp
 4306              	.LCFI91:
 4307              		.cfi_def_cfa_register 6
GAS LISTING /tmp/ccabgRKQ.s 			page 112


 4308 0008 4883EC30 		subq	$48, %rsp
 4309 000c 48897DD8 		movq	%rdi, -40(%rbp)
 4310 0010 488975D0 		movq	%rsi, -48(%rbp)
 4311              		.loc 1 1342 1
 4312 0014 64488B04 		movq	%fs:40, %rax
 4312      25280000 
 4312      00
 4313 001d 488945F8 		movq	%rax, -8(%rbp)
 4314 0021 31C0     		xorl	%eax, %eax
1343:/home/xingli/share/1205tiny/cJSON/cJSON.c ****     cJSON *head = NULL; /* head of the linked list */
 4315              		.loc 1 1343 12
 4316 0023 48C745E0 		movq	$0, -32(%rbp)
 4316      00000000 
1344:/home/xingli/share/1205tiny/cJSON/cJSON.c ****     cJSON *current_item = NULL;
 4317              		.loc 1 1344 12
 4318 002b 48C745E8 		movq	$0, -24(%rbp)
 4318      00000000 
1345:/home/xingli/share/1205tiny/cJSON/cJSON.c **** 
1346:/home/xingli/share/1205tiny/cJSON/cJSON.c ****     if (input_buffer->depth >= CJSON_NESTING_LIMIT)
 4319              		.loc 1 1346 21
 4320 0033 488B45D0 		movq	-48(%rbp), %rax
 4321 0037 488B4018 		movq	24(%rax), %rax
 4322              		.loc 1 1346 8
 4323 003b 4883F809 		cmpq	$9, %rax
 4324 003f 760A     		jbe	.L343
1347:/home/xingli/share/1205tiny/cJSON/cJSON.c ****     {
1348:/home/xingli/share/1205tiny/cJSON/cJSON.c ****         return false; /* to deeply nested */
 4325              		.loc 1 1348 16
 4326 0041 B8000000 		movl	$0, %eax
 4326      00
 4327 0046 E94E0200 		jmp	.L344
 4327      00
 4328              	.L343:
1349:/home/xingli/share/1205tiny/cJSON/cJSON.c ****     }
1350:/home/xingli/share/1205tiny/cJSON/cJSON.c ****     input_buffer->depth++;
 4329              		.loc 1 1350 17
 4330 004b 488B45D0 		movq	-48(%rbp), %rax
 4331 004f 488B4018 		movq	24(%rax), %rax
 4332              		.loc 1 1350 24
 4333 0053 488D5001 		leaq	1(%rax), %rdx
 4334 0057 488B45D0 		movq	-48(%rbp), %rax
 4335 005b 48895018 		movq	%rdx, 24(%rax)
1351:/home/xingli/share/1205tiny/cJSON/cJSON.c **** 
1352:/home/xingli/share/1205tiny/cJSON/cJSON.c ****     if (buffer_at_offset(input_buffer)[0] != '[')
 4336              		.loc 1 1352 9
 4337 005f 488B45D0 		movq	-48(%rbp), %rax
 4338 0063 488B10   		movq	(%rax), %rdx
 4339 0066 488B45D0 		movq	-48(%rbp), %rax
 4340 006a 488B4010 		movq	16(%rax), %rax
 4341              		.loc 1 1352 39
 4342 006e 4801D0   		addq	%rdx, %rax
 4343 0071 0FB600   		movzbl	(%rax), %eax
 4344              		.loc 1 1352 8
 4345 0074 3C5B     		cmpb	$91, %al
 4346 0076 0F85FB01 		jne	.L360
 4346      0000
1353:/home/xingli/share/1205tiny/cJSON/cJSON.c ****     {
GAS LISTING /tmp/ccabgRKQ.s 			page 113


1354:/home/xingli/share/1205tiny/cJSON/cJSON.c ****         /* not an array */
1355:/home/xingli/share/1205tiny/cJSON/cJSON.c ****         goto fail;
1356:/home/xingli/share/1205tiny/cJSON/cJSON.c ****     }
1357:/home/xingli/share/1205tiny/cJSON/cJSON.c **** 
1358:/home/xingli/share/1205tiny/cJSON/cJSON.c ****     input_buffer->offset++;
 4347              		.loc 1 1358 17
 4348 007c 488B45D0 		movq	-48(%rbp), %rax
 4349 0080 488B4010 		movq	16(%rax), %rax
 4350              		.loc 1 1358 25
 4351 0084 488D5001 		leaq	1(%rax), %rdx
 4352 0088 488B45D0 		movq	-48(%rbp), %rax
 4353 008c 48895010 		movq	%rdx, 16(%rax)
1359:/home/xingli/share/1205tiny/cJSON/cJSON.c ****     buffer_skip_whitespace(input_buffer);
 4354              		.loc 1 1359 5
 4355 0090 488B45D0 		movq	-48(%rbp), %rax
 4356 0094 4889C7   		movq	%rax, %rdi
 4357 0097 E8000000 		call	buffer_skip_whitespace
 4357      00
1360:/home/xingli/share/1205tiny/cJSON/cJSON.c ****     if (can_access_at_index(input_buffer, 0) && (buffer_at_offset(input_buffer)[0] == ']'))
 4358              		.loc 1 1360 8
 4359 009c 48837DD0 		cmpq	$0, -48(%rbp)
 4359      00
 4360 00a1 7432     		je	.L347
 4361              		.loc 1 1360 9 discriminator 1
 4362 00a3 488B45D0 		movq	-48(%rbp), %rax
 4363 00a7 488B5010 		movq	16(%rax), %rdx
 4364 00ab 488B45D0 		movq	-48(%rbp), %rax
 4365 00af 488B4008 		movq	8(%rax), %rax
 4366 00b3 4839C2   		cmpq	%rax, %rdx
 4367 00b6 731D     		jnb	.L347
 4368              		.loc 1 1360 50 discriminator 2
 4369 00b8 488B45D0 		movq	-48(%rbp), %rax
 4370 00bc 488B10   		movq	(%rax), %rdx
 4371 00bf 488B45D0 		movq	-48(%rbp), %rax
 4372 00c3 488B4010 		movq	16(%rax), %rax
 4373              		.loc 1 1360 80 discriminator 2
 4374 00c7 4801D0   		addq	%rdx, %rax
 4375 00ca 0FB600   		movzbl	(%rax), %eax
 4376              		.loc 1 1360 46 discriminator 2
 4377 00cd 3C5D     		cmpb	$93, %al
 4378 00cf 0F845B01 		je	.L361
 4378      0000
 4379              	.L347:
1361:/home/xingli/share/1205tiny/cJSON/cJSON.c ****     {
1362:/home/xingli/share/1205tiny/cJSON/cJSON.c ****         /* empty array */
1363:/home/xingli/share/1205tiny/cJSON/cJSON.c ****         goto success;
1364:/home/xingli/share/1205tiny/cJSON/cJSON.c ****     }
1365:/home/xingli/share/1205tiny/cJSON/cJSON.c **** 
1366:/home/xingli/share/1205tiny/cJSON/cJSON.c ****     /* check if we skipped to the end of the buffer */
1367:/home/xingli/share/1205tiny/cJSON/cJSON.c ****     if (cannot_access_at_index(input_buffer, 0))
 4380              		.loc 1 1367 8
 4381 00d5 48837DD0 		cmpq	$0, -48(%rbp)
 4381      00
 4382 00da 7415     		je	.L349
 4383              		.loc 1 1367 9 discriminator 1
 4384 00dc 488B45D0 		movq	-48(%rbp), %rax
 4385 00e0 488B5010 		movq	16(%rax), %rdx
GAS LISTING /tmp/ccabgRKQ.s 			page 114


 4386 00e4 488B45D0 		movq	-48(%rbp), %rax
 4387 00e8 488B4008 		movq	8(%rax), %rax
 4388 00ec 4839C2   		cmpq	%rax, %rdx
 4389 00ef 7219     		jb	.L350
 4390              	.L349:
1368:/home/xingli/share/1205tiny/cJSON/cJSON.c ****     {
1369:/home/xingli/share/1205tiny/cJSON/cJSON.c ****         input_buffer->offset--;
 4391              		.loc 1 1369 21
 4392 00f1 488B45D0 		movq	-48(%rbp), %rax
 4393 00f5 488B4010 		movq	16(%rax), %rax
 4394              		.loc 1 1369 29
 4395 00f9 488D50FF 		leaq	-1(%rax), %rdx
 4396 00fd 488B45D0 		movq	-48(%rbp), %rax
 4397 0101 48895010 		movq	%rdx, 16(%rax)
1370:/home/xingli/share/1205tiny/cJSON/cJSON.c ****         goto fail;
 4398              		.loc 1 1370 9
 4399 0105 E9770100 		jmp	.L346
 4399      00
 4400              	.L350:
1371:/home/xingli/share/1205tiny/cJSON/cJSON.c ****     }
1372:/home/xingli/share/1205tiny/cJSON/cJSON.c **** 
1373:/home/xingli/share/1205tiny/cJSON/cJSON.c ****     /* step back to character in front of the first element */
1374:/home/xingli/share/1205tiny/cJSON/cJSON.c ****     input_buffer->offset--;
 4401              		.loc 1 1374 17
 4402 010a 488B45D0 		movq	-48(%rbp), %rax
 4403 010e 488B4010 		movq	16(%rax), %rax
 4404              		.loc 1 1374 25
 4405 0112 488D50FF 		leaq	-1(%rax), %rdx
 4406 0116 488B45D0 		movq	-48(%rbp), %rax
 4407 011a 48895010 		movq	%rdx, 16(%rax)
 4408              	.L356:
 4409              	.LBB10:
1375:/home/xingli/share/1205tiny/cJSON/cJSON.c ****     /* loop through the comma separated array elements */
1376:/home/xingli/share/1205tiny/cJSON/cJSON.c ****     do
1377:/home/xingli/share/1205tiny/cJSON/cJSON.c ****     {
1378:/home/xingli/share/1205tiny/cJSON/cJSON.c ****         /* allocate next item */
1379:/home/xingli/share/1205tiny/cJSON/cJSON.c ****         cJSON *new_item = cJSON_New_Item(&(input_buffer->hooks));
 4410              		.loc 1 1379 42
 4411 011e 488B45D0 		movq	-48(%rbp), %rax
 4412 0122 4883C020 		addq	$32, %rax
 4413              		.loc 1 1379 27
 4414 0126 4889C7   		movq	%rax, %rdi
 4415 0129 E8000000 		call	cJSON_New_Item
 4415      00
 4416 012e 488945F0 		movq	%rax, -16(%rbp)
1380:/home/xingli/share/1205tiny/cJSON/cJSON.c ****         if (new_item == NULL)
 4417              		.loc 1 1380 12
 4418 0132 48837DF0 		cmpq	$0, -16(%rbp)
 4418      00
 4419 0137 0F843D01 		je	.L362
 4419      0000
1381:/home/xingli/share/1205tiny/cJSON/cJSON.c ****         {
1382:/home/xingli/share/1205tiny/cJSON/cJSON.c ****             goto fail; /* allocation failure */
1383:/home/xingli/share/1205tiny/cJSON/cJSON.c ****         }
1384:/home/xingli/share/1205tiny/cJSON/cJSON.c **** 
1385:/home/xingli/share/1205tiny/cJSON/cJSON.c ****         /* attach next item to list */
1386:/home/xingli/share/1205tiny/cJSON/cJSON.c ****         if (head == NULL)
GAS LISTING /tmp/ccabgRKQ.s 			page 115


 4420              		.loc 1 1386 12
 4421 013d 48837DE0 		cmpq	$0, -32(%rbp)
 4421      00
 4422 0142 7512     		jne	.L352
1387:/home/xingli/share/1205tiny/cJSON/cJSON.c ****         {
1388:/home/xingli/share/1205tiny/cJSON/cJSON.c ****             /* start the linked list */
1389:/home/xingli/share/1205tiny/cJSON/cJSON.c ****             current_item = head = new_item;
 4423              		.loc 1 1389 33
 4424 0144 488B45F0 		movq	-16(%rbp), %rax
 4425 0148 488945E0 		movq	%rax, -32(%rbp)
 4426              		.loc 1 1389 26
 4427 014c 488B45E0 		movq	-32(%rbp), %rax
 4428 0150 488945E8 		movq	%rax, -24(%rbp)
 4429 0154 EB1F     		jmp	.L353
 4430              	.L352:
1390:/home/xingli/share/1205tiny/cJSON/cJSON.c ****         }
1391:/home/xingli/share/1205tiny/cJSON/cJSON.c ****         else
1392:/home/xingli/share/1205tiny/cJSON/cJSON.c ****         {
1393:/home/xingli/share/1205tiny/cJSON/cJSON.c ****             /* add to the end and advance */
1394:/home/xingli/share/1205tiny/cJSON/cJSON.c ****             current_item->next = new_item;
 4431              		.loc 1 1394 32
 4432 0156 488B45E8 		movq	-24(%rbp), %rax
 4433 015a 488B55F0 		movq	-16(%rbp), %rdx
 4434 015e 488910   		movq	%rdx, (%rax)
1395:/home/xingli/share/1205tiny/cJSON/cJSON.c ****             new_item->prev = current_item;
 4435              		.loc 1 1395 28
 4436 0161 488B45F0 		movq	-16(%rbp), %rax
 4437 0165 488B55E8 		movq	-24(%rbp), %rdx
 4438 0169 48895008 		movq	%rdx, 8(%rax)
1396:/home/xingli/share/1205tiny/cJSON/cJSON.c ****             current_item = new_item;
 4439              		.loc 1 1396 26
 4440 016d 488B45F0 		movq	-16(%rbp), %rax
 4441 0171 488945E8 		movq	%rax, -24(%rbp)
 4442              	.L353:
1397:/home/xingli/share/1205tiny/cJSON/cJSON.c ****         }
1398:/home/xingli/share/1205tiny/cJSON/cJSON.c **** 
1399:/home/xingli/share/1205tiny/cJSON/cJSON.c ****         /* parse next value */
1400:/home/xingli/share/1205tiny/cJSON/cJSON.c ****         input_buffer->offset++;
 4443              		.loc 1 1400 21
 4444 0175 488B45D0 		movq	-48(%rbp), %rax
 4445 0179 488B4010 		movq	16(%rax), %rax
 4446              		.loc 1 1400 29
 4447 017d 488D5001 		leaq	1(%rax), %rdx
 4448 0181 488B45D0 		movq	-48(%rbp), %rax
 4449 0185 48895010 		movq	%rdx, 16(%rax)
1401:/home/xingli/share/1205tiny/cJSON/cJSON.c ****         buffer_skip_whitespace(input_buffer);
 4450              		.loc 1 1401 9
 4451 0189 488B45D0 		movq	-48(%rbp), %rax
 4452 018d 4889C7   		movq	%rax, %rdi
 4453 0190 E8000000 		call	buffer_skip_whitespace
 4453      00
1402:/home/xingli/share/1205tiny/cJSON/cJSON.c ****         if (!parse_value(current_item, input_buffer))
 4454              		.loc 1 1402 14
 4455 0195 488B55D0 		movq	-48(%rbp), %rdx
 4456 0199 488B45E8 		movq	-24(%rbp), %rax
 4457 019d 4889D6   		movq	%rdx, %rsi
 4458 01a0 4889C7   		movq	%rax, %rdi
GAS LISTING /tmp/ccabgRKQ.s 			page 116


 4459 01a3 E8000000 		call	parse_value
 4459      00
 4460              		.loc 1 1402 12
 4461 01a8 85C0     		testl	%eax, %eax
 4462 01aa 0F84CD00 		je	.L363
 4462      0000
1403:/home/xingli/share/1205tiny/cJSON/cJSON.c ****         {
1404:/home/xingli/share/1205tiny/cJSON/cJSON.c ****             goto fail; /* failed to parse value */
1405:/home/xingli/share/1205tiny/cJSON/cJSON.c ****         }
1406:/home/xingli/share/1205tiny/cJSON/cJSON.c ****         buffer_skip_whitespace(input_buffer);
 4463              		.loc 1 1406 9
 4464 01b0 488B45D0 		movq	-48(%rbp), %rax
 4465 01b4 4889C7   		movq	%rax, %rdi
 4466 01b7 E8000000 		call	buffer_skip_whitespace
 4466      00
 4467              	.LBE10:
1407:/home/xingli/share/1205tiny/cJSON/cJSON.c ****     }
1408:/home/xingli/share/1205tiny/cJSON/cJSON.c ****     while (can_access_at_index(input_buffer, 0) && (buffer_at_offset(input_buffer)[0] == ','));
 4468              		.loc 1 1408 5
 4469 01bc 48837DD0 		cmpq	$0, -48(%rbp)
 4469      00
 4470 01c1 7432     		je	.L355
 4471              		.loc 1 1408 12 discriminator 1
 4472 01c3 488B45D0 		movq	-48(%rbp), %rax
 4473 01c7 488B5010 		movq	16(%rax), %rdx
 4474 01cb 488B45D0 		movq	-48(%rbp), %rax
 4475 01cf 488B4008 		movq	8(%rax), %rax
 4476 01d3 4839C2   		cmpq	%rax, %rdx
 4477 01d6 731D     		jnb	.L355
 4478              		.loc 1 1408 53 discriminator 2
 4479 01d8 488B45D0 		movq	-48(%rbp), %rax
 4480 01dc 488B10   		movq	(%rax), %rdx
 4481 01df 488B45D0 		movq	-48(%rbp), %rax
 4482 01e3 488B4010 		movq	16(%rax), %rax
 4483              		.loc 1 1408 83 discriminator 2
 4484 01e7 4801D0   		addq	%rdx, %rax
 4485 01ea 0FB600   		movzbl	(%rax), %eax
 4486              		.loc 1 1408 49 discriminator 2
 4487 01ed 3C2C     		cmpb	$44, %al
 4488 01ef 0F8429FF 		je	.L356
 4488      FFFF
 4489              	.L355:
1409:/home/xingli/share/1205tiny/cJSON/cJSON.c **** 
1410:/home/xingli/share/1205tiny/cJSON/cJSON.c ****     if (cannot_access_at_index(input_buffer, 0) || buffer_at_offset(input_buffer)[0] != ']')
 4490              		.loc 1 1410 8
 4491 01f5 48837DD0 		cmpq	$0, -48(%rbp)
 4491      00
 4492 01fa 0F848000 		je	.L364
 4492      0000
 4493              		.loc 1 1410 9 discriminator 1
 4494 0200 488B45D0 		movq	-48(%rbp), %rax
 4495 0204 488B5010 		movq	16(%rax), %rdx
 4496 0208 488B45D0 		movq	-48(%rbp), %rax
 4497 020c 488B4008 		movq	8(%rax), %rax
 4498 0210 4839C2   		cmpq	%rax, %rdx
 4499 0213 736B     		jnb	.L364
 4500              		.loc 1 1410 52 discriminator 2
GAS LISTING /tmp/ccabgRKQ.s 			page 117


 4501 0215 488B45D0 		movq	-48(%rbp), %rax
 4502 0219 488B10   		movq	(%rax), %rdx
 4503 021c 488B45D0 		movq	-48(%rbp), %rax
 4504 0220 488B4010 		movq	16(%rax), %rax
 4505              		.loc 1 1410 82 discriminator 2
 4506 0224 4801D0   		addq	%rdx, %rax
 4507 0227 0FB600   		movzbl	(%rax), %eax
 4508              		.loc 1 1410 49 discriminator 2
 4509 022a 3C5D     		cmpb	$93, %al
 4510 022c 7552     		jne	.L364
1411:/home/xingli/share/1205tiny/cJSON/cJSON.c ****     {
1412:/home/xingli/share/1205tiny/cJSON/cJSON.c ****         goto fail; /* expected end of array */
1413:/home/xingli/share/1205tiny/cJSON/cJSON.c ****     }
1414:/home/xingli/share/1205tiny/cJSON/cJSON.c **** 
1415:/home/xingli/share/1205tiny/cJSON/cJSON.c **** success:
 4511              		.loc 1 1415 1
 4512 022e EB01     		jmp	.L348
 4513              	.L361:
1363:/home/xingli/share/1205tiny/cJSON/cJSON.c ****     }
 4514              		.loc 1 1363 9
 4515 0230 90       		nop
 4516              	.L348:
1416:/home/xingli/share/1205tiny/cJSON/cJSON.c ****     input_buffer->depth--;
 4517              		.loc 1 1416 17
 4518 0231 488B45D0 		movq	-48(%rbp), %rax
 4519 0235 488B4018 		movq	24(%rax), %rax
 4520              		.loc 1 1416 24
 4521 0239 488D50FF 		leaq	-1(%rax), %rdx
 4522 023d 488B45D0 		movq	-48(%rbp), %rax
 4523 0241 48895018 		movq	%rdx, 24(%rax)
1417:/home/xingli/share/1205tiny/cJSON/cJSON.c **** 
1418:/home/xingli/share/1205tiny/cJSON/cJSON.c ****     item->type = cJSON_Array;
 4524              		.loc 1 1418 16
 4525 0245 488B45D8 		movq	-40(%rbp), %rax
 4526 0249 C7401820 		movl	$32, 24(%rax)
 4526      000000
1419:/home/xingli/share/1205tiny/cJSON/cJSON.c ****     item->child = head;
 4527              		.loc 1 1419 17
 4528 0250 488B45D8 		movq	-40(%rbp), %rax
 4529 0254 488B55E0 		movq	-32(%rbp), %rdx
 4530 0258 48895010 		movq	%rdx, 16(%rax)
1420:/home/xingli/share/1205tiny/cJSON/cJSON.c **** 
1421:/home/xingli/share/1205tiny/cJSON/cJSON.c ****     input_buffer->offset++;
 4531              		.loc 1 1421 17
 4532 025c 488B45D0 		movq	-48(%rbp), %rax
 4533 0260 488B4010 		movq	16(%rax), %rax
 4534              		.loc 1 1421 25
 4535 0264 488D5001 		leaq	1(%rax), %rdx
 4536 0268 488B45D0 		movq	-48(%rbp), %rax
 4537 026c 48895010 		movq	%rdx, 16(%rax)
1422:/home/xingli/share/1205tiny/cJSON/cJSON.c **** 
1423:/home/xingli/share/1205tiny/cJSON/cJSON.c ****     return true;
 4538              		.loc 1 1423 12
 4539 0270 B8010000 		movl	$1, %eax
 4539      00
 4540 0275 EB22     		jmp	.L344
 4541              	.L360:
GAS LISTING /tmp/ccabgRKQ.s 			page 118


1355:/home/xingli/share/1205tiny/cJSON/cJSON.c ****     }
 4542              		.loc 1 1355 9
 4543 0277 90       		nop
 4544 0278 EB07     		jmp	.L346
 4545              	.L362:
 4546              	.LBB11:
1382:/home/xingli/share/1205tiny/cJSON/cJSON.c ****         }
 4547              		.loc 1 1382 13
 4548 027a 90       		nop
 4549 027b EB04     		jmp	.L346
 4550              	.L363:
1404:/home/xingli/share/1205tiny/cJSON/cJSON.c ****         }
 4551              		.loc 1 1404 13
 4552 027d 90       		nop
 4553 027e EB01     		jmp	.L346
 4554              	.L364:
 4555              	.LBE11:
1412:/home/xingli/share/1205tiny/cJSON/cJSON.c ****     }
 4556              		.loc 1 1412 9
 4557 0280 90       		nop
 4558              	.L346:
1424:/home/xingli/share/1205tiny/cJSON/cJSON.c **** 
1425:/home/xingli/share/1205tiny/cJSON/cJSON.c **** fail:
1426:/home/xingli/share/1205tiny/cJSON/cJSON.c ****     if (head != NULL)
 4559              		.loc 1 1426 8
 4560 0281 48837DE0 		cmpq	$0, -32(%rbp)
 4560      00
 4561 0286 740C     		je	.L358
1427:/home/xingli/share/1205tiny/cJSON/cJSON.c ****     {
1428:/home/xingli/share/1205tiny/cJSON/cJSON.c ****         cJSON_Delete(head);
 4562              		.loc 1 1428 9
 4563 0288 488B45E0 		movq	-32(%rbp), %rax
 4564 028c 4889C7   		movq	%rax, %rdi
 4565 028f E8000000 		call	cJSON_Delete
 4565      00
 4566              	.L358:
1429:/home/xingli/share/1205tiny/cJSON/cJSON.c ****     }
1430:/home/xingli/share/1205tiny/cJSON/cJSON.c **** 
1431:/home/xingli/share/1205tiny/cJSON/cJSON.c ****     return false;
 4567              		.loc 1 1431 12
 4568 0294 B8000000 		movl	$0, %eax
 4568      00
 4569              	.L344:
1432:/home/xingli/share/1205tiny/cJSON/cJSON.c **** }
 4570              		.loc 1 1432 1
 4571 0299 488B4DF8 		movq	-8(%rbp), %rcx
 4572 029d 6448330C 		xorq	%fs:40, %rcx
 4572      25280000 
 4572      00
 4573 02a6 7405     		je	.L359
 4574 02a8 E8000000 		call	__stack_chk_fail@PLT
 4574      00
 4575              	.L359:
 4576 02ad C9       		leave
 4577              	.LCFI92:
 4578              		.cfi_def_cfa 7, 8
 4579 02ae C3       		ret
GAS LISTING /tmp/ccabgRKQ.s 			page 119


 4580              		.cfi_endproc
 4581              	.LFE36:
 4583              		.section	.text.print_array,"ax",@progbits
 4585              	print_array:
 4586              	.LFB37:
1433:/home/xingli/share/1205tiny/cJSON/cJSON.c **** 
1434:/home/xingli/share/1205tiny/cJSON/cJSON.c **** /* Render an array to text */
1435:/home/xingli/share/1205tiny/cJSON/cJSON.c **** static cJSON_bool print_array(const cJSON * const item, printbuffer * const output_buffer)
1436:/home/xingli/share/1205tiny/cJSON/cJSON.c **** {
 4587              		.loc 1 1436 1
 4588              		.cfi_startproc
 4589 0000 F30F1EFA 		endbr64
 4590 0004 55       		pushq	%rbp
 4591              	.LCFI93:
 4592              		.cfi_def_cfa_offset 16
 4593              		.cfi_offset 6, -16
 4594 0005 4889E5   		movq	%rsp, %rbp
 4595              	.LCFI94:
 4596              		.cfi_def_cfa_register 6
 4597 0008 4883EC30 		subq	$48, %rsp
 4598 000c 48897DD8 		movq	%rdi, -40(%rbp)
 4599 0010 488975D0 		movq	%rsi, -48(%rbp)
 4600              		.loc 1 1436 1
 4601 0014 64488B04 		movq	%fs:40, %rax
 4601      25280000 
 4601      00
 4602 001d 488945F8 		movq	%rax, -8(%rbp)
 4603 0021 31C0     		xorl	%eax, %eax
1437:/home/xingli/share/1205tiny/cJSON/cJSON.c ****     unsigned char *output_pointer = NULL;
 4604              		.loc 1 1437 20
 4605 0023 48C745E0 		movq	$0, -32(%rbp)
 4605      00000000 
1438:/home/xingli/share/1205tiny/cJSON/cJSON.c ****     size_t length = 0;
 4606              		.loc 1 1438 12
 4607 002b 48C745F0 		movq	$0, -16(%rbp)
 4607      00000000 
1439:/home/xingli/share/1205tiny/cJSON/cJSON.c ****     cJSON *current_element = item->child;
 4608              		.loc 1 1439 12
 4609 0033 488B45D8 		movq	-40(%rbp), %rax
 4610 0037 488B4010 		movq	16(%rax), %rax
 4611 003b 488945E8 		movq	%rax, -24(%rbp)
1440:/home/xingli/share/1205tiny/cJSON/cJSON.c **** 
1441:/home/xingli/share/1205tiny/cJSON/cJSON.c ****     if (output_buffer == NULL)
 4612              		.loc 1 1441 8
 4613 003f 48837DD0 		cmpq	$0, -48(%rbp)
 4613      00
 4614 0044 750A     		jne	.L366
1442:/home/xingli/share/1205tiny/cJSON/cJSON.c ****     {
1443:/home/xingli/share/1205tiny/cJSON/cJSON.c ****         return false;
 4615              		.loc 1 1443 16
 4616 0046 B8000000 		movl	$0, %eax
 4616      00
 4617 004b E98D0100 		jmp	.L367
 4617      00
 4618              	.L366:
1444:/home/xingli/share/1205tiny/cJSON/cJSON.c ****     }
1445:/home/xingli/share/1205tiny/cJSON/cJSON.c **** 
GAS LISTING /tmp/ccabgRKQ.s 			page 120


1446:/home/xingli/share/1205tiny/cJSON/cJSON.c ****     /* Compose the output array. */
1447:/home/xingli/share/1205tiny/cJSON/cJSON.c ****     /* opening square bracket */
1448:/home/xingli/share/1205tiny/cJSON/cJSON.c ****     output_pointer = ensure(output_buffer, 1);
 4619              		.loc 1 1448 22
 4620 0050 488B45D0 		movq	-48(%rbp), %rax
 4621 0054 BE010000 		movl	$1, %esi
 4621      00
 4622 0059 4889C7   		movq	%rax, %rdi
 4623 005c E8000000 		call	ensure
 4623      00
 4624 0061 488945E0 		movq	%rax, -32(%rbp)
1449:/home/xingli/share/1205tiny/cJSON/cJSON.c ****     if (output_pointer == NULL)
 4625              		.loc 1 1449 8
 4626 0065 48837DE0 		cmpq	$0, -32(%rbp)
 4626      00
 4627 006a 750A     		jne	.L368
1450:/home/xingli/share/1205tiny/cJSON/cJSON.c ****     {
1451:/home/xingli/share/1205tiny/cJSON/cJSON.c ****         return false;
 4628              		.loc 1 1451 16
 4629 006c B8000000 		movl	$0, %eax
 4629      00
 4630 0071 E9670100 		jmp	.L367
 4630      00
 4631              	.L368:
1452:/home/xingli/share/1205tiny/cJSON/cJSON.c ****     }
1453:/home/xingli/share/1205tiny/cJSON/cJSON.c **** 
1454:/home/xingli/share/1205tiny/cJSON/cJSON.c ****     *output_pointer = '[';
 4632              		.loc 1 1454 21
 4633 0076 488B45E0 		movq	-32(%rbp), %rax
 4634 007a C6005B   		movb	$91, (%rax)
1455:/home/xingli/share/1205tiny/cJSON/cJSON.c ****     output_buffer->offset++;
 4635              		.loc 1 1455 18
 4636 007d 488B45D0 		movq	-48(%rbp), %rax
 4637 0081 488B4010 		movq	16(%rax), %rax
 4638              		.loc 1 1455 26
 4639 0085 488D5001 		leaq	1(%rax), %rdx
 4640 0089 488B45D0 		movq	-48(%rbp), %rax
 4641 008d 48895010 		movq	%rdx, 16(%rax)
1456:/home/xingli/share/1205tiny/cJSON/cJSON.c ****     output_buffer->depth++;
 4642              		.loc 1 1456 18
 4643 0091 488B45D0 		movq	-48(%rbp), %rax
 4644 0095 488B4018 		movq	24(%rax), %rax
 4645              		.loc 1 1456 25
 4646 0099 488D5001 		leaq	1(%rax), %rdx
 4647 009d 488B45D0 		movq	-48(%rbp), %rax
 4648 00a1 48895018 		movq	%rdx, 24(%rax)
1457:/home/xingli/share/1205tiny/cJSON/cJSON.c **** 
1458:/home/xingli/share/1205tiny/cJSON/cJSON.c ****     while (current_element != NULL)
 4649              		.loc 1 1458 11
 4650 00a5 E9D60000 		jmp	.L369
 4650      00
 4651              	.L376:
1459:/home/xingli/share/1205tiny/cJSON/cJSON.c ****     {
1460:/home/xingli/share/1205tiny/cJSON/cJSON.c ****         if (!print_value(current_element, output_buffer))
 4652              		.loc 1 1460 14
 4653 00aa 488B55D0 		movq	-48(%rbp), %rdx
 4654 00ae 488B45E8 		movq	-24(%rbp), %rax
GAS LISTING /tmp/ccabgRKQ.s 			page 121


 4655 00b2 4889D6   		movq	%rdx, %rsi
 4656 00b5 4889C7   		movq	%rax, %rdi
 4657 00b8 E8000000 		call	print_value
 4657      00
 4658              		.loc 1 1460 12
 4659 00bd 85C0     		testl	%eax, %eax
 4660 00bf 750A     		jne	.L370
1461:/home/xingli/share/1205tiny/cJSON/cJSON.c ****         {
1462:/home/xingli/share/1205tiny/cJSON/cJSON.c ****             return false;
 4661              		.loc 1 1462 20
 4662 00c1 B8000000 		movl	$0, %eax
 4662      00
 4663 00c6 E9120100 		jmp	.L367
 4663      00
 4664              	.L370:
1463:/home/xingli/share/1205tiny/cJSON/cJSON.c ****         }
1464:/home/xingli/share/1205tiny/cJSON/cJSON.c ****         update_offset(output_buffer);
 4665              		.loc 1 1464 9
 4666 00cb 488B45D0 		movq	-48(%rbp), %rax
 4667 00cf 4889C7   		movq	%rax, %rdi
 4668 00d2 E8000000 		call	update_offset
 4668      00
1465:/home/xingli/share/1205tiny/cJSON/cJSON.c ****         if (current_element->next)
 4669              		.loc 1 1465 28
 4670 00d7 488B45E8 		movq	-24(%rbp), %rax
 4671 00db 488B00   		movq	(%rax), %rax
 4672              		.loc 1 1465 12
 4673 00de 4885C0   		testq	%rax, %rax
 4674 00e1 0F848E00 		je	.L371
 4674      0000
1466:/home/xingli/share/1205tiny/cJSON/cJSON.c ****         {
1467:/home/xingli/share/1205tiny/cJSON/cJSON.c ****             length = (size_t) (output_buffer->format ? 2 : 1);
 4675              		.loc 1 1467 45
 4676 00e7 488B45D0 		movq	-48(%rbp), %rax
 4677 00eb 8B4024   		movl	36(%rax), %eax
 4678              		.loc 1 1467 22
 4679 00ee 85C0     		testl	%eax, %eax
 4680 00f0 7407     		je	.L372
 4681              		.loc 1 1467 22 is_stmt 0 discriminator 1
 4682 00f2 B8020000 		movl	$2, %eax
 4682      00
 4683 00f7 EB05     		jmp	.L373
 4684              	.L372:
 4685              		.loc 1 1467 22 discriminator 2
 4686 00f9 B8010000 		movl	$1, %eax
 4686      00
 4687              	.L373:
 4688              		.loc 1 1467 20 is_stmt 1 discriminator 4
 4689 00fe 488945F0 		movq	%rax, -16(%rbp)
1468:/home/xingli/share/1205tiny/cJSON/cJSON.c ****             output_pointer = ensure(output_buffer, length + 1);
 4690              		.loc 1 1468 30 discriminator 4
 4691 0102 488B45F0 		movq	-16(%rbp), %rax
 4692 0106 488D5001 		leaq	1(%rax), %rdx
 4693 010a 488B45D0 		movq	-48(%rbp), %rax
 4694 010e 4889D6   		movq	%rdx, %rsi
 4695 0111 4889C7   		movq	%rax, %rdi
 4696 0114 E8000000 		call	ensure
GAS LISTING /tmp/ccabgRKQ.s 			page 122


 4696      00
 4697 0119 488945E0 		movq	%rax, -32(%rbp)
1469:/home/xingli/share/1205tiny/cJSON/cJSON.c ****             if (output_pointer == NULL)
 4698              		.loc 1 1469 16 discriminator 4
 4699 011d 48837DE0 		cmpq	$0, -32(%rbp)
 4699      00
 4700 0122 750A     		jne	.L374
1470:/home/xingli/share/1205tiny/cJSON/cJSON.c ****             {
1471:/home/xingli/share/1205tiny/cJSON/cJSON.c ****                 return false;
 4701              		.loc 1 1471 24
 4702 0124 B8000000 		movl	$0, %eax
 4702      00
 4703 0129 E9AF0000 		jmp	.L367
 4703      00
 4704              	.L374:
1472:/home/xingli/share/1205tiny/cJSON/cJSON.c ****             }
1473:/home/xingli/share/1205tiny/cJSON/cJSON.c ****             *output_pointer++ = ',';
 4705              		.loc 1 1473 28
 4706 012e 488B45E0 		movq	-32(%rbp), %rax
 4707 0132 488D5001 		leaq	1(%rax), %rdx
 4708 0136 488955E0 		movq	%rdx, -32(%rbp)
 4709              		.loc 1 1473 31
 4710 013a C6002C   		movb	$44, (%rax)
1474:/home/xingli/share/1205tiny/cJSON/cJSON.c ****             if(output_buffer->format)
 4711              		.loc 1 1474 29
 4712 013d 488B45D0 		movq	-48(%rbp), %rax
 4713 0141 8B4024   		movl	36(%rax), %eax
 4714              		.loc 1 1474 15
 4715 0144 85C0     		testl	%eax, %eax
 4716 0146 740F     		je	.L375
1475:/home/xingli/share/1205tiny/cJSON/cJSON.c ****             {
1476:/home/xingli/share/1205tiny/cJSON/cJSON.c ****                 *output_pointer++ = ' ';
 4717              		.loc 1 1476 32
 4718 0148 488B45E0 		movq	-32(%rbp), %rax
 4719 014c 488D5001 		leaq	1(%rax), %rdx
 4720 0150 488955E0 		movq	%rdx, -32(%rbp)
 4721              		.loc 1 1476 35
 4722 0154 C60020   		movb	$32, (%rax)
 4723              	.L375:
1477:/home/xingli/share/1205tiny/cJSON/cJSON.c ****             }
1478:/home/xingli/share/1205tiny/cJSON/cJSON.c ****             *output_pointer = '\0';
 4724              		.loc 1 1478 29
 4725 0157 488B45E0 		movq	-32(%rbp), %rax
 4726 015b C60000   		movb	$0, (%rax)
1479:/home/xingli/share/1205tiny/cJSON/cJSON.c ****             output_buffer->offset += length;
 4727              		.loc 1 1479 35
 4728 015e 488B45D0 		movq	-48(%rbp), %rax
 4729 0162 488B5010 		movq	16(%rax), %rdx
 4730 0166 488B45F0 		movq	-16(%rbp), %rax
 4731 016a 4801C2   		addq	%rax, %rdx
 4732 016d 488B45D0 		movq	-48(%rbp), %rax
 4733 0171 48895010 		movq	%rdx, 16(%rax)
 4734              	.L371:
1480:/home/xingli/share/1205tiny/cJSON/cJSON.c ****         }
1481:/home/xingli/share/1205tiny/cJSON/cJSON.c ****         current_element = current_element->next;
 4735              		.loc 1 1481 25
 4736 0175 488B45E8 		movq	-24(%rbp), %rax
GAS LISTING /tmp/ccabgRKQ.s 			page 123


 4737 0179 488B00   		movq	(%rax), %rax
 4738 017c 488945E8 		movq	%rax, -24(%rbp)
 4739              	.L369:
1458:/home/xingli/share/1205tiny/cJSON/cJSON.c ****     {
 4740              		.loc 1 1458 11
 4741 0180 48837DE8 		cmpq	$0, -24(%rbp)
 4741      00
 4742 0185 0F851FFF 		jne	.L376
 4742      FFFF
1482:/home/xingli/share/1205tiny/cJSON/cJSON.c ****     }
1483:/home/xingli/share/1205tiny/cJSON/cJSON.c **** 
1484:/home/xingli/share/1205tiny/cJSON/cJSON.c ****     output_pointer = ensure(output_buffer, 2);
 4743              		.loc 1 1484 22
 4744 018b 488B45D0 		movq	-48(%rbp), %rax
 4745 018f BE020000 		movl	$2, %esi
 4745      00
 4746 0194 4889C7   		movq	%rax, %rdi
 4747 0197 E8000000 		call	ensure
 4747      00
 4748 019c 488945E0 		movq	%rax, -32(%rbp)
1485:/home/xingli/share/1205tiny/cJSON/cJSON.c ****     if (output_pointer == NULL)
 4749              		.loc 1 1485 8
 4750 01a0 48837DE0 		cmpq	$0, -32(%rbp)
 4750      00
 4751 01a5 7507     		jne	.L377
1486:/home/xingli/share/1205tiny/cJSON/cJSON.c ****     {
1487:/home/xingli/share/1205tiny/cJSON/cJSON.c ****         return false;
 4752              		.loc 1 1487 16
 4753 01a7 B8000000 		movl	$0, %eax
 4753      00
 4754 01ac EB2F     		jmp	.L367
 4755              	.L377:
1488:/home/xingli/share/1205tiny/cJSON/cJSON.c ****     }
1489:/home/xingli/share/1205tiny/cJSON/cJSON.c ****     *output_pointer++ = ']';
 4756              		.loc 1 1489 20
 4757 01ae 488B45E0 		movq	-32(%rbp), %rax
 4758 01b2 488D5001 		leaq	1(%rax), %rdx
 4759 01b6 488955E0 		movq	%rdx, -32(%rbp)
 4760              		.loc 1 1489 23
 4761 01ba C6005D   		movb	$93, (%rax)
1490:/home/xingli/share/1205tiny/cJSON/cJSON.c ****     *output_pointer = '\0';
 4762              		.loc 1 1490 21
 4763 01bd 488B45E0 		movq	-32(%rbp), %rax
 4764 01c1 C60000   		movb	$0, (%rax)
1491:/home/xingli/share/1205tiny/cJSON/cJSON.c ****     output_buffer->depth--;
 4765              		.loc 1 1491 18
 4766 01c4 488B45D0 		movq	-48(%rbp), %rax
 4767 01c8 488B4018 		movq	24(%rax), %rax
 4768              		.loc 1 1491 25
 4769 01cc 488D50FF 		leaq	-1(%rax), %rdx
 4770 01d0 488B45D0 		movq	-48(%rbp), %rax
 4771 01d4 48895018 		movq	%rdx, 24(%rax)
1492:/home/xingli/share/1205tiny/cJSON/cJSON.c **** 
1493:/home/xingli/share/1205tiny/cJSON/cJSON.c ****     return true;
 4772              		.loc 1 1493 12
 4773 01d8 B8010000 		movl	$1, %eax
 4773      00
GAS LISTING /tmp/ccabgRKQ.s 			page 124


 4774              	.L367:
1494:/home/xingli/share/1205tiny/cJSON/cJSON.c **** }
 4775              		.loc 1 1494 1
 4776 01dd 488B4DF8 		movq	-8(%rbp), %rcx
 4777 01e1 6448330C 		xorq	%fs:40, %rcx
 4777      25280000 
 4777      00
 4778 01ea 7405     		je	.L378
 4779 01ec E8000000 		call	__stack_chk_fail@PLT
 4779      00
 4780              	.L378:
 4781 01f1 C9       		leave
 4782              	.LCFI95:
 4783              		.cfi_def_cfa 7, 8
 4784 01f2 C3       		ret
 4785              		.cfi_endproc
 4786              	.LFE37:
 4788              		.section	.text.parse_object,"ax",@progbits
 4790              	parse_object:
 4791              	.LFB38:
1495:/home/xingli/share/1205tiny/cJSON/cJSON.c **** 
1496:/home/xingli/share/1205tiny/cJSON/cJSON.c **** /* Build an object from the text. */
1497:/home/xingli/share/1205tiny/cJSON/cJSON.c **** static cJSON_bool parse_object(cJSON * const item, parse_buffer * const input_buffer)
1498:/home/xingli/share/1205tiny/cJSON/cJSON.c **** {
 4792              		.loc 1 1498 1
 4793              		.cfi_startproc
 4794 0000 F30F1EFA 		endbr64
 4795 0004 55       		pushq	%rbp
 4796              	.LCFI96:
 4797              		.cfi_def_cfa_offset 16
 4798              		.cfi_offset 6, -16
 4799 0005 4889E5   		movq	%rsp, %rbp
 4800              	.LCFI97:
 4801              		.cfi_def_cfa_register 6
 4802 0008 4883EC30 		subq	$48, %rsp
 4803 000c 48897DD8 		movq	%rdi, -40(%rbp)
 4804 0010 488975D0 		movq	%rsi, -48(%rbp)
 4805              		.loc 1 1498 1
 4806 0014 64488B04 		movq	%fs:40, %rax
 4806      25280000 
 4806      00
 4807 001d 488945F8 		movq	%rax, -8(%rbp)
 4808 0021 31C0     		xorl	%eax, %eax
1499:/home/xingli/share/1205tiny/cJSON/cJSON.c ****     cJSON *head = NULL; /* linked list head */
 4809              		.loc 1 1499 12
 4810 0023 48C745E0 		movq	$0, -32(%rbp)
 4810      00000000 
1500:/home/xingli/share/1205tiny/cJSON/cJSON.c ****     cJSON *current_item = NULL;
 4811              		.loc 1 1500 12
 4812 002b 48C745E8 		movq	$0, -24(%rbp)
 4812      00000000 
1501:/home/xingli/share/1205tiny/cJSON/cJSON.c **** 
1502:/home/xingli/share/1205tiny/cJSON/cJSON.c ****     if (input_buffer->depth >= CJSON_NESTING_LIMIT)
 4813              		.loc 1 1502 21
 4814 0033 488B45D0 		movq	-48(%rbp), %rax
 4815 0037 488B4018 		movq	24(%rax), %rax
 4816              		.loc 1 1502 8
GAS LISTING /tmp/ccabgRKQ.s 			page 125


 4817 003b 4883F809 		cmpq	$9, %rax
 4818 003f 760A     		jbe	.L380
1503:/home/xingli/share/1205tiny/cJSON/cJSON.c ****     {
1504:/home/xingli/share/1205tiny/cJSON/cJSON.c ****         return false; /* to deeply nested */
 4819              		.loc 1 1504 16
 4820 0041 B8000000 		movl	$0, %eax
 4820      00
 4821 0046 E91C0300 		jmp	.L381
 4821      00
 4822              	.L380:
1505:/home/xingli/share/1205tiny/cJSON/cJSON.c ****     }
1506:/home/xingli/share/1205tiny/cJSON/cJSON.c ****     input_buffer->depth++;
 4823              		.loc 1 1506 17
 4824 004b 488B45D0 		movq	-48(%rbp), %rax
 4825 004f 488B4018 		movq	24(%rax), %rax
 4826              		.loc 1 1506 24
 4827 0053 488D5001 		leaq	1(%rax), %rdx
 4828 0057 488B45D0 		movq	-48(%rbp), %rax
 4829 005b 48895018 		movq	%rdx, 24(%rax)
1507:/home/xingli/share/1205tiny/cJSON/cJSON.c **** 
1508:/home/xingli/share/1205tiny/cJSON/cJSON.c ****     if (cannot_access_at_index(input_buffer, 0) || (buffer_at_offset(input_buffer)[0] != '{'))
 4830              		.loc 1 1508 8
 4831 005f 48837DD0 		cmpq	$0, -48(%rbp)
 4831      00
 4832 0064 0F84D502 		je	.L401
 4832      0000
 4833              		.loc 1 1508 9 discriminator 1
 4834 006a 488B45D0 		movq	-48(%rbp), %rax
 4835 006e 488B5010 		movq	16(%rax), %rdx
 4836 0072 488B45D0 		movq	-48(%rbp), %rax
 4837 0076 488B4008 		movq	8(%rax), %rax
 4838 007a 4839C2   		cmpq	%rax, %rdx
 4839 007d 0F83BC02 		jnb	.L401
 4839      0000
 4840              		.loc 1 1508 53 discriminator 2
 4841 0083 488B45D0 		movq	-48(%rbp), %rax
 4842 0087 488B10   		movq	(%rax), %rdx
 4843 008a 488B45D0 		movq	-48(%rbp), %rax
 4844 008e 488B4010 		movq	16(%rax), %rax
 4845              		.loc 1 1508 83 discriminator 2
 4846 0092 4801D0   		addq	%rdx, %rax
 4847 0095 0FB600   		movzbl	(%rax), %eax
 4848              		.loc 1 1508 49 discriminator 2
 4849 0098 3C7B     		cmpb	$123, %al
 4850 009a 0F859F02 		jne	.L401
 4850      0000
1509:/home/xingli/share/1205tiny/cJSON/cJSON.c ****     {
1510:/home/xingli/share/1205tiny/cJSON/cJSON.c ****         goto fail; /* not an object */
1511:/home/xingli/share/1205tiny/cJSON/cJSON.c ****     }
1512:/home/xingli/share/1205tiny/cJSON/cJSON.c **** 
1513:/home/xingli/share/1205tiny/cJSON/cJSON.c ****     input_buffer->offset++;
 4851              		.loc 1 1513 17
 4852 00a0 488B45D0 		movq	-48(%rbp), %rax
 4853 00a4 488B4010 		movq	16(%rax), %rax
 4854              		.loc 1 1513 25
 4855 00a8 488D5001 		leaq	1(%rax), %rdx
 4856 00ac 488B45D0 		movq	-48(%rbp), %rax
GAS LISTING /tmp/ccabgRKQ.s 			page 126


 4857 00b0 48895010 		movq	%rdx, 16(%rax)
1514:/home/xingli/share/1205tiny/cJSON/cJSON.c ****     buffer_skip_whitespace(input_buffer);
 4858              		.loc 1 1514 5
 4859 00b4 488B45D0 		movq	-48(%rbp), %rax
 4860 00b8 4889C7   		movq	%rax, %rdi
 4861 00bb E8000000 		call	buffer_skip_whitespace
 4861      00
1515:/home/xingli/share/1205tiny/cJSON/cJSON.c ****     if (can_access_at_index(input_buffer, 0) && (buffer_at_offset(input_buffer)[0] == '}'))
 4862              		.loc 1 1515 8
 4863 00c0 48837DD0 		cmpq	$0, -48(%rbp)
 4863      00
 4864 00c5 7432     		je	.L385
 4865              		.loc 1 1515 9 discriminator 1
 4866 00c7 488B45D0 		movq	-48(%rbp), %rax
 4867 00cb 488B5010 		movq	16(%rax), %rdx
 4868 00cf 488B45D0 		movq	-48(%rbp), %rax
 4869 00d3 488B4008 		movq	8(%rax), %rax
 4870 00d7 4839C2   		cmpq	%rax, %rdx
 4871 00da 731D     		jnb	.L385
 4872              		.loc 1 1515 50 discriminator 2
 4873 00dc 488B45D0 		movq	-48(%rbp), %rax
 4874 00e0 488B10   		movq	(%rax), %rdx
 4875 00e3 488B45D0 		movq	-48(%rbp), %rax
 4876 00e7 488B4010 		movq	16(%rax), %rax
 4877              		.loc 1 1515 80 discriminator 2
 4878 00eb 4801D0   		addq	%rdx, %rax
 4879 00ee 0FB600   		movzbl	(%rax), %eax
 4880              		.loc 1 1515 46 discriminator 2
 4881 00f1 3C7D     		cmpb	$125, %al
 4882 00f3 0F84FF01 		je	.L402
 4882      0000
 4883              	.L385:
1516:/home/xingli/share/1205tiny/cJSON/cJSON.c ****     {
1517:/home/xingli/share/1205tiny/cJSON/cJSON.c ****         goto success; /* empty object */
1518:/home/xingli/share/1205tiny/cJSON/cJSON.c ****     }
1519:/home/xingli/share/1205tiny/cJSON/cJSON.c **** 
1520:/home/xingli/share/1205tiny/cJSON/cJSON.c ****     /* check if we skipped to the end of the buffer */
1521:/home/xingli/share/1205tiny/cJSON/cJSON.c ****     if (cannot_access_at_index(input_buffer, 0))
 4884              		.loc 1 1521 8
 4885 00f9 48837DD0 		cmpq	$0, -48(%rbp)
 4885      00
 4886 00fe 7415     		je	.L387
 4887              		.loc 1 1521 9 discriminator 1
 4888 0100 488B45D0 		movq	-48(%rbp), %rax
 4889 0104 488B5010 		movq	16(%rax), %rdx
 4890 0108 488B45D0 		movq	-48(%rbp), %rax
 4891 010c 488B4008 		movq	8(%rax), %rax
 4892 0110 4839C2   		cmpq	%rax, %rdx
 4893 0113 7219     		jb	.L388
 4894              	.L387:
1522:/home/xingli/share/1205tiny/cJSON/cJSON.c ****     {
1523:/home/xingli/share/1205tiny/cJSON/cJSON.c ****         input_buffer->offset--;
 4895              		.loc 1 1523 21
 4896 0115 488B45D0 		movq	-48(%rbp), %rax
 4897 0119 488B4010 		movq	16(%rax), %rax
 4898              		.loc 1 1523 29
 4899 011d 488D50FF 		leaq	-1(%rax), %rdx
GAS LISTING /tmp/ccabgRKQ.s 			page 127


 4900 0121 488B45D0 		movq	-48(%rbp), %rax
 4901 0125 48895010 		movq	%rdx, 16(%rax)
1524:/home/xingli/share/1205tiny/cJSON/cJSON.c ****         goto fail;
 4902              		.loc 1 1524 9
 4903 0129 E9210200 		jmp	.L384
 4903      00
 4904              	.L388:
1525:/home/xingli/share/1205tiny/cJSON/cJSON.c ****     }
1526:/home/xingli/share/1205tiny/cJSON/cJSON.c **** 
1527:/home/xingli/share/1205tiny/cJSON/cJSON.c ****     /* step back to character in front of the first element */
1528:/home/xingli/share/1205tiny/cJSON/cJSON.c ****     input_buffer->offset--;
 4905              		.loc 1 1528 17
 4906 012e 488B45D0 		movq	-48(%rbp), %rax
 4907 0132 488B4010 		movq	16(%rax), %rax
 4908              		.loc 1 1528 25
 4909 0136 488D50FF 		leaq	-1(%rax), %rdx
 4910 013a 488B45D0 		movq	-48(%rbp), %rax
 4911 013e 48895010 		movq	%rdx, 16(%rax)
 4912              	.L397:
 4913              	.LBB12:
1529:/home/xingli/share/1205tiny/cJSON/cJSON.c ****     /* loop through the comma separated array elements */
1530:/home/xingli/share/1205tiny/cJSON/cJSON.c ****     do
1531:/home/xingli/share/1205tiny/cJSON/cJSON.c ****     {
1532:/home/xingli/share/1205tiny/cJSON/cJSON.c ****         /* allocate next item */
1533:/home/xingli/share/1205tiny/cJSON/cJSON.c ****         cJSON *new_item = cJSON_New_Item(&(input_buffer->hooks));
 4914              		.loc 1 1533 42
 4915 0142 488B45D0 		movq	-48(%rbp), %rax
 4916 0146 4883C020 		addq	$32, %rax
 4917              		.loc 1 1533 27
 4918 014a 4889C7   		movq	%rax, %rdi
 4919 014d E8000000 		call	cJSON_New_Item
 4919      00
 4920 0152 488945F0 		movq	%rax, -16(%rbp)
1534:/home/xingli/share/1205tiny/cJSON/cJSON.c ****         if (new_item == NULL)
 4921              		.loc 1 1534 12
 4922 0156 48837DF0 		cmpq	$0, -16(%rbp)
 4922      00
 4923 015b 0F84E101 		je	.L403
 4923      0000
1535:/home/xingli/share/1205tiny/cJSON/cJSON.c ****         {
1536:/home/xingli/share/1205tiny/cJSON/cJSON.c ****             goto fail; /* allocation failure */
1537:/home/xingli/share/1205tiny/cJSON/cJSON.c ****         }
1538:/home/xingli/share/1205tiny/cJSON/cJSON.c **** 
1539:/home/xingli/share/1205tiny/cJSON/cJSON.c ****         /* attach next item to list */
1540:/home/xingli/share/1205tiny/cJSON/cJSON.c ****         if (head == NULL)
 4924              		.loc 1 1540 12
 4925 0161 48837DE0 		cmpq	$0, -32(%rbp)
 4925      00
 4926 0166 7512     		jne	.L390
1541:/home/xingli/share/1205tiny/cJSON/cJSON.c ****         {
1542:/home/xingli/share/1205tiny/cJSON/cJSON.c ****             /* start the linked list */
1543:/home/xingli/share/1205tiny/cJSON/cJSON.c ****             current_item = head = new_item;
 4927              		.loc 1 1543 33
 4928 0168 488B45F0 		movq	-16(%rbp), %rax
 4929 016c 488945E0 		movq	%rax, -32(%rbp)
 4930              		.loc 1 1543 26
 4931 0170 488B45E0 		movq	-32(%rbp), %rax
GAS LISTING /tmp/ccabgRKQ.s 			page 128


 4932 0174 488945E8 		movq	%rax, -24(%rbp)
 4933 0178 EB1F     		jmp	.L391
 4934              	.L390:
1544:/home/xingli/share/1205tiny/cJSON/cJSON.c ****         }
1545:/home/xingli/share/1205tiny/cJSON/cJSON.c ****         else
1546:/home/xingli/share/1205tiny/cJSON/cJSON.c ****         {
1547:/home/xingli/share/1205tiny/cJSON/cJSON.c ****             /* add to the end and advance */
1548:/home/xingli/share/1205tiny/cJSON/cJSON.c ****             current_item->next = new_item;
 4935              		.loc 1 1548 32
 4936 017a 488B45E8 		movq	-24(%rbp), %rax
 4937 017e 488B55F0 		movq	-16(%rbp), %rdx
 4938 0182 488910   		movq	%rdx, (%rax)
1549:/home/xingli/share/1205tiny/cJSON/cJSON.c ****             new_item->prev = current_item;
 4939              		.loc 1 1549 28
 4940 0185 488B45F0 		movq	-16(%rbp), %rax
 4941 0189 488B55E8 		movq	-24(%rbp), %rdx
 4942 018d 48895008 		movq	%rdx, 8(%rax)
1550:/home/xingli/share/1205tiny/cJSON/cJSON.c ****             current_item = new_item;
 4943              		.loc 1 1550 26
 4944 0191 488B45F0 		movq	-16(%rbp), %rax
 4945 0195 488945E8 		movq	%rax, -24(%rbp)
 4946              	.L391:
1551:/home/xingli/share/1205tiny/cJSON/cJSON.c ****         }
1552:/home/xingli/share/1205tiny/cJSON/cJSON.c **** 
1553:/home/xingli/share/1205tiny/cJSON/cJSON.c ****         /* parse the name of the child */
1554:/home/xingli/share/1205tiny/cJSON/cJSON.c ****         input_buffer->offset++;
 4947              		.loc 1 1554 21
 4948 0199 488B45D0 		movq	-48(%rbp), %rax
 4949 019d 488B4010 		movq	16(%rax), %rax
 4950              		.loc 1 1554 29
 4951 01a1 488D5001 		leaq	1(%rax), %rdx
 4952 01a5 488B45D0 		movq	-48(%rbp), %rax
 4953 01a9 48895010 		movq	%rdx, 16(%rax)
1555:/home/xingli/share/1205tiny/cJSON/cJSON.c ****         buffer_skip_whitespace(input_buffer);
 4954              		.loc 1 1555 9
 4955 01ad 488B45D0 		movq	-48(%rbp), %rax
 4956 01b1 4889C7   		movq	%rax, %rdi
 4957 01b4 E8000000 		call	buffer_skip_whitespace
 4957      00
1556:/home/xingli/share/1205tiny/cJSON/cJSON.c ****         if (!parse_string(current_item, input_buffer))
 4958              		.loc 1 1556 14
 4959 01b9 488B55D0 		movq	-48(%rbp), %rdx
 4960 01bd 488B45E8 		movq	-24(%rbp), %rax
 4961 01c1 4889D6   		movq	%rdx, %rsi
 4962 01c4 4889C7   		movq	%rax, %rdi
 4963 01c7 E8000000 		call	parse_string
 4963      00
 4964              		.loc 1 1556 12
 4965 01cc 85C0     		testl	%eax, %eax
 4966 01ce 0F847101 		je	.L404
 4966      0000
1557:/home/xingli/share/1205tiny/cJSON/cJSON.c ****         {
1558:/home/xingli/share/1205tiny/cJSON/cJSON.c ****             goto fail; /* faile to parse name */
1559:/home/xingli/share/1205tiny/cJSON/cJSON.c ****         }
1560:/home/xingli/share/1205tiny/cJSON/cJSON.c ****         buffer_skip_whitespace(input_buffer);
 4967              		.loc 1 1560 9
 4968 01d4 488B45D0 		movq	-48(%rbp), %rax
GAS LISTING /tmp/ccabgRKQ.s 			page 129


 4969 01d8 4889C7   		movq	%rax, %rdi
 4970 01db E8000000 		call	buffer_skip_whitespace
 4970      00
1561:/home/xingli/share/1205tiny/cJSON/cJSON.c **** 
1562:/home/xingli/share/1205tiny/cJSON/cJSON.c ****         /* swap valuestring and string, because we parsed the name */
1563:/home/xingli/share/1205tiny/cJSON/cJSON.c ****         current_item->string = current_item->valuestring;
 4971              		.loc 1 1563 44
 4972 01e0 488B45E8 		movq	-24(%rbp), %rax
 4973 01e4 488B5020 		movq	32(%rax), %rdx
 4974              		.loc 1 1563 30
 4975 01e8 488B45E8 		movq	-24(%rbp), %rax
 4976 01ec 48895038 		movq	%rdx, 56(%rax)
1564:/home/xingli/share/1205tiny/cJSON/cJSON.c ****         current_item->valuestring = NULL;
 4977              		.loc 1 1564 35
 4978 01f0 488B45E8 		movq	-24(%rbp), %rax
 4979 01f4 48C74020 		movq	$0, 32(%rax)
 4979      00000000 
1565:/home/xingli/share/1205tiny/cJSON/cJSON.c **** 
1566:/home/xingli/share/1205tiny/cJSON/cJSON.c ****         if (cannot_access_at_index(input_buffer, 0) || (buffer_at_offset(input_buffer)[0] != ':'))
 4980              		.loc 1 1566 12
 4981 01fc 48837DD0 		cmpq	$0, -48(%rbp)
 4981      00
 4982 0201 0F844101 		je	.L405
 4982      0000
 4983              		.loc 1 1566 13 discriminator 1
 4984 0207 488B45D0 		movq	-48(%rbp), %rax
 4985 020b 488B5010 		movq	16(%rax), %rdx
 4986 020f 488B45D0 		movq	-48(%rbp), %rax
 4987 0213 488B4008 		movq	8(%rax), %rax
 4988 0217 4839C2   		cmpq	%rax, %rdx
 4989 021a 0F832801 		jnb	.L405
 4989      0000
 4990              		.loc 1 1566 57 discriminator 2
 4991 0220 488B45D0 		movq	-48(%rbp), %rax
 4992 0224 488B10   		movq	(%rax), %rdx
 4993 0227 488B45D0 		movq	-48(%rbp), %rax
 4994 022b 488B4010 		movq	16(%rax), %rax
 4995              		.loc 1 1566 87 discriminator 2
 4996 022f 4801D0   		addq	%rdx, %rax
 4997 0232 0FB600   		movzbl	(%rax), %eax
 4998              		.loc 1 1566 53 discriminator 2
 4999 0235 3C3A     		cmpb	$58, %al
 5000 0237 0F850B01 		jne	.L405
 5000      0000
1567:/home/xingli/share/1205tiny/cJSON/cJSON.c ****         {
1568:/home/xingli/share/1205tiny/cJSON/cJSON.c ****             goto fail; /* invalid object */
1569:/home/xingli/share/1205tiny/cJSON/cJSON.c ****         }
1570:/home/xingli/share/1205tiny/cJSON/cJSON.c **** 
1571:/home/xingli/share/1205tiny/cJSON/cJSON.c ****         /* parse the value */
1572:/home/xingli/share/1205tiny/cJSON/cJSON.c ****         input_buffer->offset++;
 5001              		.loc 1 1572 21
 5002 023d 488B45D0 		movq	-48(%rbp), %rax
 5003 0241 488B4010 		movq	16(%rax), %rax
 5004              		.loc 1 1572 29
 5005 0245 488D5001 		leaq	1(%rax), %rdx
 5006 0249 488B45D0 		movq	-48(%rbp), %rax
 5007 024d 48895010 		movq	%rdx, 16(%rax)
GAS LISTING /tmp/ccabgRKQ.s 			page 130


1573:/home/xingli/share/1205tiny/cJSON/cJSON.c ****         buffer_skip_whitespace(input_buffer);
 5008              		.loc 1 1573 9
 5009 0251 488B45D0 		movq	-48(%rbp), %rax
 5010 0255 4889C7   		movq	%rax, %rdi
 5011 0258 E8000000 		call	buffer_skip_whitespace
 5011      00
1574:/home/xingli/share/1205tiny/cJSON/cJSON.c ****         if (!parse_value(current_item, input_buffer))
 5012              		.loc 1 1574 14
 5013 025d 488B55D0 		movq	-48(%rbp), %rdx
 5014 0261 488B45E8 		movq	-24(%rbp), %rax
 5015 0265 4889D6   		movq	%rdx, %rsi
 5016 0268 4889C7   		movq	%rax, %rdi
 5017 026b E8000000 		call	parse_value
 5017      00
 5018              		.loc 1 1574 12
 5019 0270 85C0     		testl	%eax, %eax
 5020 0272 0F84D300 		je	.L406
 5020      0000
1575:/home/xingli/share/1205tiny/cJSON/cJSON.c ****         {
1576:/home/xingli/share/1205tiny/cJSON/cJSON.c ****             goto fail; /* failed to parse value */
1577:/home/xingli/share/1205tiny/cJSON/cJSON.c ****         }
1578:/home/xingli/share/1205tiny/cJSON/cJSON.c ****         buffer_skip_whitespace(input_buffer);
 5021              		.loc 1 1578 9
 5022 0278 488B45D0 		movq	-48(%rbp), %rax
 5023 027c 4889C7   		movq	%rax, %rdi
 5024 027f E8000000 		call	buffer_skip_whitespace
 5024      00
 5025              	.LBE12:
1579:/home/xingli/share/1205tiny/cJSON/cJSON.c ****     }
1580:/home/xingli/share/1205tiny/cJSON/cJSON.c ****     while (can_access_at_index(input_buffer, 0) && (buffer_at_offset(input_buffer)[0] == ','));
 5026              		.loc 1 1580 5
 5027 0284 48837DD0 		cmpq	$0, -48(%rbp)
 5027      00
 5028 0289 7432     		je	.L396
 5029              		.loc 1 1580 12 discriminator 1
 5030 028b 488B45D0 		movq	-48(%rbp), %rax
 5031 028f 488B5010 		movq	16(%rax), %rdx
 5032 0293 488B45D0 		movq	-48(%rbp), %rax
 5033 0297 488B4008 		movq	8(%rax), %rax
 5034 029b 4839C2   		cmpq	%rax, %rdx
 5035 029e 731D     		jnb	.L396
 5036              		.loc 1 1580 53 discriminator 2
 5037 02a0 488B45D0 		movq	-48(%rbp), %rax
 5038 02a4 488B10   		movq	(%rax), %rdx
 5039 02a7 488B45D0 		movq	-48(%rbp), %rax
 5040 02ab 488B4010 		movq	16(%rax), %rax
 5041              		.loc 1 1580 83 discriminator 2
 5042 02af 4801D0   		addq	%rdx, %rax
 5043 02b2 0FB600   		movzbl	(%rax), %eax
 5044              		.loc 1 1580 49 discriminator 2
 5045 02b5 3C2C     		cmpb	$44, %al
 5046 02b7 0F8485FE 		je	.L397
 5046      FFFF
 5047              	.L396:
1581:/home/xingli/share/1205tiny/cJSON/cJSON.c **** 
1582:/home/xingli/share/1205tiny/cJSON/cJSON.c ****     if (cannot_access_at_index(input_buffer, 0) || (buffer_at_offset(input_buffer)[0] != '}'))
 5048              		.loc 1 1582 8
GAS LISTING /tmp/ccabgRKQ.s 			page 131


 5049 02bd 48837DD0 		cmpq	$0, -48(%rbp)
 5049      00
 5050 02c2 0F848600 		je	.L407
 5050      0000
 5051              		.loc 1 1582 9 discriminator 1
 5052 02c8 488B45D0 		movq	-48(%rbp), %rax
 5053 02cc 488B5010 		movq	16(%rax), %rdx
 5054 02d0 488B45D0 		movq	-48(%rbp), %rax
 5055 02d4 488B4008 		movq	8(%rax), %rax
 5056 02d8 4839C2   		cmpq	%rax, %rdx
 5057 02db 7371     		jnb	.L407
 5058              		.loc 1 1582 53 discriminator 2
 5059 02dd 488B45D0 		movq	-48(%rbp), %rax
 5060 02e1 488B10   		movq	(%rax), %rdx
 5061 02e4 488B45D0 		movq	-48(%rbp), %rax
 5062 02e8 488B4010 		movq	16(%rax), %rax
 5063              		.loc 1 1582 83 discriminator 2
 5064 02ec 4801D0   		addq	%rdx, %rax
 5065 02ef 0FB600   		movzbl	(%rax), %eax
 5066              		.loc 1 1582 49 discriminator 2
 5067 02f2 3C7D     		cmpb	$125, %al
 5068 02f4 7558     		jne	.L407
1583:/home/xingli/share/1205tiny/cJSON/cJSON.c ****     {
1584:/home/xingli/share/1205tiny/cJSON/cJSON.c ****         goto fail; /* expected end of object */
1585:/home/xingli/share/1205tiny/cJSON/cJSON.c ****     }
1586:/home/xingli/share/1205tiny/cJSON/cJSON.c **** 
1587:/home/xingli/share/1205tiny/cJSON/cJSON.c **** success:
 5069              		.loc 1 1587 1
 5070 02f6 EB01     		jmp	.L386
 5071              	.L402:
1517:/home/xingli/share/1205tiny/cJSON/cJSON.c ****     }
 5072              		.loc 1 1517 9
 5073 02f8 90       		nop
 5074              	.L386:
1588:/home/xingli/share/1205tiny/cJSON/cJSON.c ****     input_buffer->depth--;
 5075              		.loc 1 1588 17
 5076 02f9 488B45D0 		movq	-48(%rbp), %rax
 5077 02fd 488B4018 		movq	24(%rax), %rax
 5078              		.loc 1 1588 24
 5079 0301 488D50FF 		leaq	-1(%rax), %rdx
 5080 0305 488B45D0 		movq	-48(%rbp), %rax
 5081 0309 48895018 		movq	%rdx, 24(%rax)
1589:/home/xingli/share/1205tiny/cJSON/cJSON.c **** 
1590:/home/xingli/share/1205tiny/cJSON/cJSON.c ****     item->type = cJSON_Object;
 5082              		.loc 1 1590 16
 5083 030d 488B45D8 		movq	-40(%rbp), %rax
 5084 0311 C7401840 		movl	$64, 24(%rax)
 5084      000000
1591:/home/xingli/share/1205tiny/cJSON/cJSON.c ****     item->child = head;
 5085              		.loc 1 1591 17
 5086 0318 488B45D8 		movq	-40(%rbp), %rax
 5087 031c 488B55E0 		movq	-32(%rbp), %rdx
 5088 0320 48895010 		movq	%rdx, 16(%rax)
1592:/home/xingli/share/1205tiny/cJSON/cJSON.c **** 
1593:/home/xingli/share/1205tiny/cJSON/cJSON.c ****     input_buffer->offset++;
 5089              		.loc 1 1593 17
 5090 0324 488B45D0 		movq	-48(%rbp), %rax
GAS LISTING /tmp/ccabgRKQ.s 			page 132


 5091 0328 488B4010 		movq	16(%rax), %rax
 5092              		.loc 1 1593 25
 5093 032c 488D5001 		leaq	1(%rax), %rdx
 5094 0330 488B45D0 		movq	-48(%rbp), %rax
 5095 0334 48895010 		movq	%rdx, 16(%rax)
1594:/home/xingli/share/1205tiny/cJSON/cJSON.c ****     return true;
 5096              		.loc 1 1594 12
 5097 0338 B8010000 		movl	$1, %eax
 5097      00
 5098 033d EB28     		jmp	.L381
 5099              	.L401:
1510:/home/xingli/share/1205tiny/cJSON/cJSON.c ****     }
 5100              		.loc 1 1510 9
 5101 033f 90       		nop
 5102 0340 EB0D     		jmp	.L384
 5103              	.L403:
 5104              	.LBB13:
1536:/home/xingli/share/1205tiny/cJSON/cJSON.c ****         }
 5105              		.loc 1 1536 13
 5106 0342 90       		nop
 5107 0343 EB0A     		jmp	.L384
 5108              	.L404:
1558:/home/xingli/share/1205tiny/cJSON/cJSON.c ****         }
 5109              		.loc 1 1558 13
 5110 0345 90       		nop
 5111 0346 EB07     		jmp	.L384
 5112              	.L405:
1568:/home/xingli/share/1205tiny/cJSON/cJSON.c ****         }
 5113              		.loc 1 1568 13
 5114 0348 90       		nop
 5115 0349 EB04     		jmp	.L384
 5116              	.L406:
1576:/home/xingli/share/1205tiny/cJSON/cJSON.c ****         }
 5117              		.loc 1 1576 13
 5118 034b 90       		nop
 5119 034c EB01     		jmp	.L384
 5120              	.L407:
 5121              	.LBE13:
1584:/home/xingli/share/1205tiny/cJSON/cJSON.c ****     }
 5122              		.loc 1 1584 9
 5123 034e 90       		nop
 5124              	.L384:
1595:/home/xingli/share/1205tiny/cJSON/cJSON.c **** 
1596:/home/xingli/share/1205tiny/cJSON/cJSON.c **** fail:
1597:/home/xingli/share/1205tiny/cJSON/cJSON.c ****     if (head != NULL)
 5125              		.loc 1 1597 8
 5126 034f 48837DE0 		cmpq	$0, -32(%rbp)
 5126      00
 5127 0354 740C     		je	.L399
1598:/home/xingli/share/1205tiny/cJSON/cJSON.c ****     {
1599:/home/xingli/share/1205tiny/cJSON/cJSON.c ****         cJSON_Delete(head);
 5128              		.loc 1 1599 9
 5129 0356 488B45E0 		movq	-32(%rbp), %rax
 5130 035a 4889C7   		movq	%rax, %rdi
 5131 035d E8000000 		call	cJSON_Delete
 5131      00
 5132              	.L399:
GAS LISTING /tmp/ccabgRKQ.s 			page 133


1600:/home/xingli/share/1205tiny/cJSON/cJSON.c ****     }
1601:/home/xingli/share/1205tiny/cJSON/cJSON.c **** 
1602:/home/xingli/share/1205tiny/cJSON/cJSON.c ****     return false;
 5133              		.loc 1 1602 12
 5134 0362 B8000000 		movl	$0, %eax
 5134      00
 5135              	.L381:
1603:/home/xingli/share/1205tiny/cJSON/cJSON.c **** }
 5136              		.loc 1 1603 1
 5137 0367 488B4DF8 		movq	-8(%rbp), %rcx
 5138 036b 6448330C 		xorq	%fs:40, %rcx
 5138      25280000 
 5138      00
 5139 0374 7405     		je	.L400
 5140 0376 E8000000 		call	__stack_chk_fail@PLT
 5140      00
 5141              	.L400:
 5142 037b C9       		leave
 5143              	.LCFI98:
 5144              		.cfi_def_cfa 7, 8
 5145 037c C3       		ret
 5146              		.cfi_endproc
 5147              	.LFE38:
 5149              		.section	.text.print_object,"ax",@progbits
 5151              	print_object:
 5152              	.LFB39:
1604:/home/xingli/share/1205tiny/cJSON/cJSON.c **** 
1605:/home/xingli/share/1205tiny/cJSON/cJSON.c **** /* Render an object to text. */
1606:/home/xingli/share/1205tiny/cJSON/cJSON.c **** static cJSON_bool print_object(const cJSON * const item, printbuffer * const output_buffer)
1607:/home/xingli/share/1205tiny/cJSON/cJSON.c **** {
 5153              		.loc 1 1607 1
 5154              		.cfi_startproc
 5155 0000 F30F1EFA 		endbr64
 5156 0004 55       		pushq	%rbp
 5157              	.LCFI99:
 5158              		.cfi_def_cfa_offset 16
 5159              		.cfi_offset 6, -16
 5160 0005 4889E5   		movq	%rsp, %rbp
 5161              	.LCFI100:
 5162              		.cfi_def_cfa_register 6
 5163 0008 4883EC40 		subq	$64, %rsp
 5164 000c 48897DC8 		movq	%rdi, -56(%rbp)
 5165 0010 488975C0 		movq	%rsi, -64(%rbp)
 5166              		.loc 1 1607 1
 5167 0014 64488B04 		movq	%fs:40, %rax
 5167      25280000 
 5167      00
 5168 001d 488945F8 		movq	%rax, -8(%rbp)
 5169 0021 31C0     		xorl	%eax, %eax
1608:/home/xingli/share/1205tiny/cJSON/cJSON.c ****     unsigned char *output_pointer = NULL;
 5170              		.loc 1 1608 20
 5171 0023 48C745D0 		movq	$0, -48(%rbp)
 5171      00000000 
1609:/home/xingli/share/1205tiny/cJSON/cJSON.c ****     size_t length = 0;
 5172              		.loc 1 1609 12
 5173 002b 48C745F0 		movq	$0, -16(%rbp)
 5173      00000000 
GAS LISTING /tmp/ccabgRKQ.s 			page 134


1610:/home/xingli/share/1205tiny/cJSON/cJSON.c ****     cJSON *current_item = item->child;
 5174              		.loc 1 1610 12
 5175 0033 488B45C8 		movq	-56(%rbp), %rax
 5176 0037 488B4010 		movq	16(%rax), %rax
 5177 003b 488945D8 		movq	%rax, -40(%rbp)
1611:/home/xingli/share/1205tiny/cJSON/cJSON.c **** 
1612:/home/xingli/share/1205tiny/cJSON/cJSON.c ****     if (output_buffer == NULL)
 5178              		.loc 1 1612 8
 5179 003f 48837DC0 		cmpq	$0, -64(%rbp)
 5179      00
 5180 0044 750A     		jne	.L409
1613:/home/xingli/share/1205tiny/cJSON/cJSON.c ****     {
1614:/home/xingli/share/1205tiny/cJSON/cJSON.c ****         return false;
 5181              		.loc 1 1614 16
 5182 0046 B8000000 		movl	$0, %eax
 5182      00
 5183 004b E9640300 		jmp	.L410
 5183      00
 5184              	.L409:
1615:/home/xingli/share/1205tiny/cJSON/cJSON.c ****     }
1616:/home/xingli/share/1205tiny/cJSON/cJSON.c **** 
1617:/home/xingli/share/1205tiny/cJSON/cJSON.c ****     /* Compose the output: */
1618:/home/xingli/share/1205tiny/cJSON/cJSON.c ****     length = (size_t) (output_buffer->format ? 2 : 1); /* fmt: {\n */
 5185              		.loc 1 1618 37
 5186 0050 488B45C0 		movq	-64(%rbp), %rax
 5187 0054 8B4024   		movl	36(%rax), %eax
 5188              		.loc 1 1618 14
 5189 0057 85C0     		testl	%eax, %eax
 5190 0059 7407     		je	.L411
 5191              		.loc 1 1618 14 is_stmt 0 discriminator 1
 5192 005b B8020000 		movl	$2, %eax
 5192      00
 5193 0060 EB05     		jmp	.L412
 5194              	.L411:
 5195              		.loc 1 1618 14 discriminator 2
 5196 0062 B8010000 		movl	$1, %eax
 5196      00
 5197              	.L412:
 5198              		.loc 1 1618 12 is_stmt 1 discriminator 4
 5199 0067 488945F0 		movq	%rax, -16(%rbp)
1619:/home/xingli/share/1205tiny/cJSON/cJSON.c ****     output_pointer = ensure(output_buffer, length + 1);
 5200              		.loc 1 1619 22 discriminator 4
 5201 006b 488B45F0 		movq	-16(%rbp), %rax
 5202 006f 488D5001 		leaq	1(%rax), %rdx
 5203 0073 488B45C0 		movq	-64(%rbp), %rax
 5204 0077 4889D6   		movq	%rdx, %rsi
 5205 007a 4889C7   		movq	%rax, %rdi
 5206 007d E8000000 		call	ensure
 5206      00
 5207 0082 488945D0 		movq	%rax, -48(%rbp)
1620:/home/xingli/share/1205tiny/cJSON/cJSON.c ****     if (output_pointer == NULL)
 5208              		.loc 1 1620 8 discriminator 4
 5209 0086 48837DD0 		cmpq	$0, -48(%rbp)
 5209      00
 5210 008b 750A     		jne	.L413
1621:/home/xingli/share/1205tiny/cJSON/cJSON.c ****     {
1622:/home/xingli/share/1205tiny/cJSON/cJSON.c ****         return false;
GAS LISTING /tmp/ccabgRKQ.s 			page 135


 5211              		.loc 1 1622 16
 5212 008d B8000000 		movl	$0, %eax
 5212      00
 5213 0092 E91D0300 		jmp	.L410
 5213      00
 5214              	.L413:
1623:/home/xingli/share/1205tiny/cJSON/cJSON.c ****     }
1624:/home/xingli/share/1205tiny/cJSON/cJSON.c **** 
1625:/home/xingli/share/1205tiny/cJSON/cJSON.c ****     *output_pointer++ = '{';
 5215              		.loc 1 1625 20
 5216 0097 488B45D0 		movq	-48(%rbp), %rax
 5217 009b 488D5001 		leaq	1(%rax), %rdx
 5218 009f 488955D0 		movq	%rdx, -48(%rbp)
 5219              		.loc 1 1625 23
 5220 00a3 C6007B   		movb	$123, (%rax)
1626:/home/xingli/share/1205tiny/cJSON/cJSON.c ****     output_buffer->depth++;
 5221              		.loc 1 1626 18
 5222 00a6 488B45C0 		movq	-64(%rbp), %rax
 5223 00aa 488B4018 		movq	24(%rax), %rax
 5224              		.loc 1 1626 25
 5225 00ae 488D5001 		leaq	1(%rax), %rdx
 5226 00b2 488B45C0 		movq	-64(%rbp), %rax
 5227 00b6 48895018 		movq	%rdx, 24(%rax)
1627:/home/xingli/share/1205tiny/cJSON/cJSON.c ****     if (output_buffer->format)
 5228              		.loc 1 1627 22
 5229 00ba 488B45C0 		movq	-64(%rbp), %rax
 5230 00be 8B4024   		movl	36(%rax), %eax
 5231              		.loc 1 1627 8
 5232 00c1 85C0     		testl	%eax, %eax
 5233 00c3 740F     		je	.L414
1628:/home/xingli/share/1205tiny/cJSON/cJSON.c ****     {
1629:/home/xingli/share/1205tiny/cJSON/cJSON.c ****         *output_pointer++ = '\n';
 5234              		.loc 1 1629 24
 5235 00c5 488B45D0 		movq	-48(%rbp), %rax
 5236 00c9 488D5001 		leaq	1(%rax), %rdx
 5237 00cd 488955D0 		movq	%rdx, -48(%rbp)
 5238              		.loc 1 1629 27
 5239 00d1 C6000A   		movb	$10, (%rax)
 5240              	.L414:
1630:/home/xingli/share/1205tiny/cJSON/cJSON.c ****     }
1631:/home/xingli/share/1205tiny/cJSON/cJSON.c ****     output_buffer->offset += length;
 5241              		.loc 1 1631 27
 5242 00d4 488B45C0 		movq	-64(%rbp), %rax
 5243 00d8 488B5010 		movq	16(%rax), %rdx
 5244 00dc 488B45F0 		movq	-16(%rbp), %rax
 5245 00e0 4801C2   		addq	%rax, %rdx
 5246 00e3 488B45C0 		movq	-64(%rbp), %rax
 5247 00e7 48895010 		movq	%rdx, 16(%rax)
1632:/home/xingli/share/1205tiny/cJSON/cJSON.c **** 
1633:/home/xingli/share/1205tiny/cJSON/cJSON.c ****     while (current_item)
 5248              		.loc 1 1633 11
 5249 00eb E9100200 		jmp	.L415
 5249      00
 5250              	.L429:
1634:/home/xingli/share/1205tiny/cJSON/cJSON.c ****     {
1635:/home/xingli/share/1205tiny/cJSON/cJSON.c ****         if (output_buffer->format)
 5251              		.loc 1 1635 26
GAS LISTING /tmp/ccabgRKQ.s 			page 136


 5252 00f0 488B45C0 		movq	-64(%rbp), %rax
 5253 00f4 8B4024   		movl	36(%rax), %eax
 5254              		.loc 1 1635 12
 5255 00f7 85C0     		testl	%eax, %eax
 5256 00f9 7473     		je	.L416
 5257              	.LBB14:
1636:/home/xingli/share/1205tiny/cJSON/cJSON.c ****         {
1637:/home/xingli/share/1205tiny/cJSON/cJSON.c ****             size_t i;
1638:/home/xingli/share/1205tiny/cJSON/cJSON.c ****             output_pointer = ensure(output_buffer, output_buffer->depth);
 5258              		.loc 1 1638 30
 5259 00fb 488B45C0 		movq	-64(%rbp), %rax
 5260 00ff 488B5018 		movq	24(%rax), %rdx
 5261 0103 488B45C0 		movq	-64(%rbp), %rax
 5262 0107 4889D6   		movq	%rdx, %rsi
 5263 010a 4889C7   		movq	%rax, %rdi
 5264 010d E8000000 		call	ensure
 5264      00
 5265 0112 488945D0 		movq	%rax, -48(%rbp)
1639:/home/xingli/share/1205tiny/cJSON/cJSON.c ****             if (output_pointer == NULL)
 5266              		.loc 1 1639 16
 5267 0116 48837DD0 		cmpq	$0, -48(%rbp)
 5267      00
 5268 011b 750A     		jne	.L417
1640:/home/xingli/share/1205tiny/cJSON/cJSON.c ****             {
1641:/home/xingli/share/1205tiny/cJSON/cJSON.c ****                 return false;
 5269              		.loc 1 1641 24
 5270 011d B8000000 		movl	$0, %eax
 5270      00
 5271 0122 E98D0200 		jmp	.L410
 5271      00
 5272              	.L417:
1642:/home/xingli/share/1205tiny/cJSON/cJSON.c ****             }
1643:/home/xingli/share/1205tiny/cJSON/cJSON.c ****             for (i = 0; i < output_buffer->depth; i++)
 5273              		.loc 1 1643 20
 5274 0127 48C745E0 		movq	$0, -32(%rbp)
 5274      00000000 
 5275              		.loc 1 1643 13
 5276 012f EB14     		jmp	.L418
 5277              	.L419:
1644:/home/xingli/share/1205tiny/cJSON/cJSON.c ****             {
1645:/home/xingli/share/1205tiny/cJSON/cJSON.c ****                 *output_pointer++ = '\t';
 5278              		.loc 1 1645 32 discriminator 3
 5279 0131 488B45D0 		movq	-48(%rbp), %rax
 5280 0135 488D5001 		leaq	1(%rax), %rdx
 5281 0139 488955D0 		movq	%rdx, -48(%rbp)
 5282              		.loc 1 1645 35 discriminator 3
 5283 013d C60009   		movb	$9, (%rax)
1643:/home/xingli/share/1205tiny/cJSON/cJSON.c ****             {
 5284              		.loc 1 1643 52 discriminator 3
 5285 0140 488345E0 		addq	$1, -32(%rbp)
 5285      01
 5286              	.L418:
1643:/home/xingli/share/1205tiny/cJSON/cJSON.c ****             {
 5287              		.loc 1 1643 42 discriminator 1
 5288 0145 488B45C0 		movq	-64(%rbp), %rax
 5289 0149 488B4018 		movq	24(%rax), %rax
1643:/home/xingli/share/1205tiny/cJSON/cJSON.c ****             {
GAS LISTING /tmp/ccabgRKQ.s 			page 137


 5290              		.loc 1 1643 13 discriminator 1
 5291 014d 483945E0 		cmpq	%rax, -32(%rbp)
 5292 0151 72DE     		jb	.L419
1646:/home/xingli/share/1205tiny/cJSON/cJSON.c ****             }
1647:/home/xingli/share/1205tiny/cJSON/cJSON.c ****             output_buffer->offset += output_buffer->depth;
 5293              		.loc 1 1647 35
 5294 0153 488B45C0 		movq	-64(%rbp), %rax
 5295 0157 488B5010 		movq	16(%rax), %rdx
 5296              		.loc 1 1647 51
 5297 015b 488B45C0 		movq	-64(%rbp), %rax
 5298 015f 488B4018 		movq	24(%rax), %rax
 5299              		.loc 1 1647 35
 5300 0163 4801C2   		addq	%rax, %rdx
 5301 0166 488B45C0 		movq	-64(%rbp), %rax
 5302 016a 48895010 		movq	%rdx, 16(%rax)
 5303              	.L416:
 5304              	.LBE14:
1648:/home/xingli/share/1205tiny/cJSON/cJSON.c ****         }
1649:/home/xingli/share/1205tiny/cJSON/cJSON.c **** 
1650:/home/xingli/share/1205tiny/cJSON/cJSON.c ****         /* print key */
1651:/home/xingli/share/1205tiny/cJSON/cJSON.c ****         if (!print_string_ptr((unsigned char*)current_item->string, output_buffer))
 5305              		.loc 1 1651 59
 5306 016e 488B45D8 		movq	-40(%rbp), %rax
 5307 0172 488B4038 		movq	56(%rax), %rax
 5308              		.loc 1 1651 14
 5309 0176 488B55C0 		movq	-64(%rbp), %rdx
 5310 017a 4889D6   		movq	%rdx, %rsi
 5311 017d 4889C7   		movq	%rax, %rdi
 5312 0180 E8000000 		call	print_string_ptr
 5312      00
 5313              		.loc 1 1651 12
 5314 0185 85C0     		testl	%eax, %eax
 5315 0187 750A     		jne	.L420
1652:/home/xingli/share/1205tiny/cJSON/cJSON.c ****         {
1653:/home/xingli/share/1205tiny/cJSON/cJSON.c ****             return false;
 5316              		.loc 1 1653 20
 5317 0189 B8000000 		movl	$0, %eax
 5317      00
 5318 018e E9210200 		jmp	.L410
 5318      00
 5319              	.L420:
1654:/home/xingli/share/1205tiny/cJSON/cJSON.c ****         }
1655:/home/xingli/share/1205tiny/cJSON/cJSON.c ****         update_offset(output_buffer);
 5320              		.loc 1 1655 9
 5321 0193 488B45C0 		movq	-64(%rbp), %rax
 5322 0197 4889C7   		movq	%rax, %rdi
 5323 019a E8000000 		call	update_offset
 5323      00
1656:/home/xingli/share/1205tiny/cJSON/cJSON.c **** 
1657:/home/xingli/share/1205tiny/cJSON/cJSON.c ****         length = (size_t) (output_buffer->format ? 2 : 1);
 5324              		.loc 1 1657 41
 5325 019f 488B45C0 		movq	-64(%rbp), %rax
 5326 01a3 8B4024   		movl	36(%rax), %eax
 5327              		.loc 1 1657 18
 5328 01a6 85C0     		testl	%eax, %eax
 5329 01a8 7407     		je	.L421
 5330              		.loc 1 1657 18 is_stmt 0 discriminator 1
GAS LISTING /tmp/ccabgRKQ.s 			page 138


 5331 01aa B8020000 		movl	$2, %eax
 5331      00
 5332 01af EB05     		jmp	.L422
 5333              	.L421:
 5334              		.loc 1 1657 18 discriminator 2
 5335 01b1 B8010000 		movl	$1, %eax
 5335      00
 5336              	.L422:
 5337              		.loc 1 1657 16 is_stmt 1 discriminator 4
 5338 01b6 488945F0 		movq	%rax, -16(%rbp)
1658:/home/xingli/share/1205tiny/cJSON/cJSON.c ****         output_pointer = ensure(output_buffer, length);
 5339              		.loc 1 1658 26 discriminator 4
 5340 01ba 488B55F0 		movq	-16(%rbp), %rdx
 5341 01be 488B45C0 		movq	-64(%rbp), %rax
 5342 01c2 4889D6   		movq	%rdx, %rsi
 5343 01c5 4889C7   		movq	%rax, %rdi
 5344 01c8 E8000000 		call	ensure
 5344      00
 5345 01cd 488945D0 		movq	%rax, -48(%rbp)
1659:/home/xingli/share/1205tiny/cJSON/cJSON.c ****         if (output_pointer == NULL)
 5346              		.loc 1 1659 12 discriminator 4
 5347 01d1 48837DD0 		cmpq	$0, -48(%rbp)
 5347      00
 5348 01d6 750A     		jne	.L423
1660:/home/xingli/share/1205tiny/cJSON/cJSON.c ****         {
1661:/home/xingli/share/1205tiny/cJSON/cJSON.c ****             return false;
 5349              		.loc 1 1661 20
 5350 01d8 B8000000 		movl	$0, %eax
 5350      00
 5351 01dd E9D20100 		jmp	.L410
 5351      00
 5352              	.L423:
1662:/home/xingli/share/1205tiny/cJSON/cJSON.c ****         }
1663:/home/xingli/share/1205tiny/cJSON/cJSON.c ****         *output_pointer++ = ':';
 5353              		.loc 1 1663 24
 5354 01e2 488B45D0 		movq	-48(%rbp), %rax
 5355 01e6 488D5001 		leaq	1(%rax), %rdx
 5356 01ea 488955D0 		movq	%rdx, -48(%rbp)
 5357              		.loc 1 1663 27
 5358 01ee C6003A   		movb	$58, (%rax)
1664:/home/xingli/share/1205tiny/cJSON/cJSON.c ****         if (output_buffer->format)
 5359              		.loc 1 1664 26
 5360 01f1 488B45C0 		movq	-64(%rbp), %rax
 5361 01f5 8B4024   		movl	36(%rax), %eax
 5362              		.loc 1 1664 12
 5363 01f8 85C0     		testl	%eax, %eax
 5364 01fa 740F     		je	.L424
1665:/home/xingli/share/1205tiny/cJSON/cJSON.c ****         {
1666:/home/xingli/share/1205tiny/cJSON/cJSON.c ****             *output_pointer++ = '\t';
 5365              		.loc 1 1666 28
 5366 01fc 488B45D0 		movq	-48(%rbp), %rax
 5367 0200 488D5001 		leaq	1(%rax), %rdx
 5368 0204 488955D0 		movq	%rdx, -48(%rbp)
 5369              		.loc 1 1666 31
 5370 0208 C60009   		movb	$9, (%rax)
 5371              	.L424:
1667:/home/xingli/share/1205tiny/cJSON/cJSON.c ****         }
GAS LISTING /tmp/ccabgRKQ.s 			page 139


1668:/home/xingli/share/1205tiny/cJSON/cJSON.c ****         output_buffer->offset += length;
 5372              		.loc 1 1668 31
 5373 020b 488B45C0 		movq	-64(%rbp), %rax
 5374 020f 488B5010 		movq	16(%rax), %rdx
 5375 0213 488B45F0 		movq	-16(%rbp), %rax
 5376 0217 4801C2   		addq	%rax, %rdx
 5377 021a 488B45C0 		movq	-64(%rbp), %rax
 5378 021e 48895010 		movq	%rdx, 16(%rax)
1669:/home/xingli/share/1205tiny/cJSON/cJSON.c **** 
1670:/home/xingli/share/1205tiny/cJSON/cJSON.c ****         /* print value */
1671:/home/xingli/share/1205tiny/cJSON/cJSON.c ****         if (!print_value(current_item, output_buffer))
 5379              		.loc 1 1671 14
 5380 0222 488B55C0 		movq	-64(%rbp), %rdx
 5381 0226 488B45D8 		movq	-40(%rbp), %rax
 5382 022a 4889D6   		movq	%rdx, %rsi
 5383 022d 4889C7   		movq	%rax, %rdi
 5384 0230 E8000000 		call	print_value
 5384      00
 5385              		.loc 1 1671 12
 5386 0235 85C0     		testl	%eax, %eax
 5387 0237 750A     		jne	.L425
1672:/home/xingli/share/1205tiny/cJSON/cJSON.c ****         {
1673:/home/xingli/share/1205tiny/cJSON/cJSON.c ****             return false;
 5388              		.loc 1 1673 20
 5389 0239 B8000000 		movl	$0, %eax
 5389      00
 5390 023e E9710100 		jmp	.L410
 5390      00
 5391              	.L425:
1674:/home/xingli/share/1205tiny/cJSON/cJSON.c ****         }
1675:/home/xingli/share/1205tiny/cJSON/cJSON.c ****         update_offset(output_buffer);
 5392              		.loc 1 1675 9
 5393 0243 488B45C0 		movq	-64(%rbp), %rax
 5394 0247 4889C7   		movq	%rax, %rdi
 5395 024a E8000000 		call	update_offset
 5395      00
1676:/home/xingli/share/1205tiny/cJSON/cJSON.c **** 
1677:/home/xingli/share/1205tiny/cJSON/cJSON.c ****         /* print comma if not last */
1678:/home/xingli/share/1205tiny/cJSON/cJSON.c ****         length = (size_t) ((output_buffer->format ? 1 : 0) + (current_item->next ? 1 : 0));
 5396              		.loc 1 1678 42
 5397 024f 488B45C0 		movq	-64(%rbp), %rax
 5398 0253 8B4024   		movl	36(%rax), %eax
 5399              		.loc 1 1678 55
 5400 0256 85C0     		testl	%eax, %eax
 5401 0258 0F95C0   		setne	%al
 5402 025b 0FB6D0   		movzbl	%al, %edx
 5403              		.loc 1 1678 75
 5404 025e 488B45D8 		movq	-40(%rbp), %rax
 5405 0262 488B00   		movq	(%rax), %rax
 5406              		.loc 1 1678 86
 5407 0265 4885C0   		testq	%rax, %rax
 5408 0268 0F95C0   		setne	%al
 5409 026b 0FB6C0   		movzbl	%al, %eax
 5410              		.loc 1 1678 60
 5411 026e 01D0     		addl	%edx, %eax
 5412              		.loc 1 1678 16
 5413 0270 4898     		cltq
GAS LISTING /tmp/ccabgRKQ.s 			page 140


 5414 0272 488945F0 		movq	%rax, -16(%rbp)
1679:/home/xingli/share/1205tiny/cJSON/cJSON.c ****         output_pointer = ensure(output_buffer, length + 1);
 5415              		.loc 1 1679 26
 5416 0276 488B45F0 		movq	-16(%rbp), %rax
 5417 027a 488D5001 		leaq	1(%rax), %rdx
 5418 027e 488B45C0 		movq	-64(%rbp), %rax
 5419 0282 4889D6   		movq	%rdx, %rsi
 5420 0285 4889C7   		movq	%rax, %rdi
 5421 0288 E8000000 		call	ensure
 5421      00
 5422 028d 488945D0 		movq	%rax, -48(%rbp)
1680:/home/xingli/share/1205tiny/cJSON/cJSON.c ****         if (output_pointer == NULL)
 5423              		.loc 1 1680 12
 5424 0291 48837DD0 		cmpq	$0, -48(%rbp)
 5424      00
 5425 0296 750A     		jne	.L426
1681:/home/xingli/share/1205tiny/cJSON/cJSON.c ****         {
1682:/home/xingli/share/1205tiny/cJSON/cJSON.c ****             return false;
 5426              		.loc 1 1682 20
 5427 0298 B8000000 		movl	$0, %eax
 5427      00
 5428 029d E9120100 		jmp	.L410
 5428      00
 5429              	.L426:
1683:/home/xingli/share/1205tiny/cJSON/cJSON.c ****         }
1684:/home/xingli/share/1205tiny/cJSON/cJSON.c ****         if (current_item->next)
 5430              		.loc 1 1684 25
 5431 02a2 488B45D8 		movq	-40(%rbp), %rax
 5432 02a6 488B00   		movq	(%rax), %rax
 5433              		.loc 1 1684 12
 5434 02a9 4885C0   		testq	%rax, %rax
 5435 02ac 740F     		je	.L427
1685:/home/xingli/share/1205tiny/cJSON/cJSON.c ****         {
1686:/home/xingli/share/1205tiny/cJSON/cJSON.c ****             *output_pointer++ = ',';
 5436              		.loc 1 1686 28
 5437 02ae 488B45D0 		movq	-48(%rbp), %rax
 5438 02b2 488D5001 		leaq	1(%rax), %rdx
 5439 02b6 488955D0 		movq	%rdx, -48(%rbp)
 5440              		.loc 1 1686 31
 5441 02ba C6002C   		movb	$44, (%rax)
 5442              	.L427:
1687:/home/xingli/share/1205tiny/cJSON/cJSON.c ****         }
1688:/home/xingli/share/1205tiny/cJSON/cJSON.c **** 
1689:/home/xingli/share/1205tiny/cJSON/cJSON.c ****         if (output_buffer->format)
 5443              		.loc 1 1689 26
 5444 02bd 488B45C0 		movq	-64(%rbp), %rax
 5445 02c1 8B4024   		movl	36(%rax), %eax
 5446              		.loc 1 1689 12
 5447 02c4 85C0     		testl	%eax, %eax
 5448 02c6 740F     		je	.L428
1690:/home/xingli/share/1205tiny/cJSON/cJSON.c ****         {
1691:/home/xingli/share/1205tiny/cJSON/cJSON.c ****             *output_pointer++ = '\n';
 5449              		.loc 1 1691 28
 5450 02c8 488B45D0 		movq	-48(%rbp), %rax
 5451 02cc 488D5001 		leaq	1(%rax), %rdx
 5452 02d0 488955D0 		movq	%rdx, -48(%rbp)
 5453              		.loc 1 1691 31
GAS LISTING /tmp/ccabgRKQ.s 			page 141


 5454 02d4 C6000A   		movb	$10, (%rax)
 5455              	.L428:
1692:/home/xingli/share/1205tiny/cJSON/cJSON.c ****         }
1693:/home/xingli/share/1205tiny/cJSON/cJSON.c ****         *output_pointer = '\0';
 5456              		.loc 1 1693 25
 5457 02d7 488B45D0 		movq	-48(%rbp), %rax
 5458 02db C60000   		movb	$0, (%rax)
1694:/home/xingli/share/1205tiny/cJSON/cJSON.c ****         output_buffer->offset += length;
 5459              		.loc 1 1694 31
 5460 02de 488B45C0 		movq	-64(%rbp), %rax
 5461 02e2 488B5010 		movq	16(%rax), %rdx
 5462 02e6 488B45F0 		movq	-16(%rbp), %rax
 5463 02ea 4801C2   		addq	%rax, %rdx
 5464 02ed 488B45C0 		movq	-64(%rbp), %rax
 5465 02f1 48895010 		movq	%rdx, 16(%rax)
1695:/home/xingli/share/1205tiny/cJSON/cJSON.c **** 
1696:/home/xingli/share/1205tiny/cJSON/cJSON.c ****         current_item = current_item->next;
 5466              		.loc 1 1696 22
 5467 02f5 488B45D8 		movq	-40(%rbp), %rax
 5468 02f9 488B00   		movq	(%rax), %rax
 5469 02fc 488945D8 		movq	%rax, -40(%rbp)
 5470              	.L415:
1633:/home/xingli/share/1205tiny/cJSON/cJSON.c ****     {
 5471              		.loc 1 1633 11
 5472 0300 48837DD8 		cmpq	$0, -40(%rbp)
 5472      00
 5473 0305 0F85E5FD 		jne	.L429
 5473      FFFF
1697:/home/xingli/share/1205tiny/cJSON/cJSON.c ****     }
1698:/home/xingli/share/1205tiny/cJSON/cJSON.c **** 
1699:/home/xingli/share/1205tiny/cJSON/cJSON.c ****     output_pointer = ensure(output_buffer, output_buffer->format ? (output_buffer->depth + 1) : 2);
 5474              		.loc 1 1699 57
 5475 030b 488B45C0 		movq	-64(%rbp), %rax
 5476 030f 8B4024   		movl	36(%rax), %eax
 5477              		.loc 1 1699 22
 5478 0312 85C0     		testl	%eax, %eax
 5479 0314 740E     		je	.L430
 5480              		.loc 1 1699 82 discriminator 1
 5481 0316 488B45C0 		movq	-64(%rbp), %rax
 5482 031a 488B4018 		movq	24(%rax), %rax
 5483              		.loc 1 1699 22 discriminator 1
 5484 031e 488D5001 		leaq	1(%rax), %rdx
 5485 0322 EB05     		jmp	.L431
 5486              	.L430:
 5487              		.loc 1 1699 22 is_stmt 0 discriminator 2
 5488 0324 BA020000 		movl	$2, %edx
 5488      00
 5489              	.L431:
 5490              		.loc 1 1699 22 discriminator 4
 5491 0329 488B45C0 		movq	-64(%rbp), %rax
 5492 032d 4889D6   		movq	%rdx, %rsi
 5493 0330 4889C7   		movq	%rax, %rdi
 5494 0333 E8000000 		call	ensure
 5494      00
 5495 0338 488945D0 		movq	%rax, -48(%rbp)
1700:/home/xingli/share/1205tiny/cJSON/cJSON.c ****     if (output_pointer == NULL)
 5496              		.loc 1 1700 8 is_stmt 1 discriminator 4
GAS LISTING /tmp/ccabgRKQ.s 			page 142


 5497 033c 48837DD0 		cmpq	$0, -48(%rbp)
 5497      00
 5498 0341 7507     		jne	.L432
1701:/home/xingli/share/1205tiny/cJSON/cJSON.c ****     {
1702:/home/xingli/share/1205tiny/cJSON/cJSON.c ****         return false;
 5499              		.loc 1 1702 16
 5500 0343 B8000000 		movl	$0, %eax
 5500      00
 5501 0348 EB6A     		jmp	.L410
 5502              	.L432:
1703:/home/xingli/share/1205tiny/cJSON/cJSON.c ****     }
1704:/home/xingli/share/1205tiny/cJSON/cJSON.c ****     if (output_buffer->format)
 5503              		.loc 1 1704 22
 5504 034a 488B45C0 		movq	-64(%rbp), %rax
 5505 034e 8B4024   		movl	36(%rax), %eax
 5506              		.loc 1 1704 8
 5507 0351 85C0     		testl	%eax, %eax
 5508 0353 7430     		je	.L433
 5509              	.LBB15:
1705:/home/xingli/share/1205tiny/cJSON/cJSON.c ****     {
1706:/home/xingli/share/1205tiny/cJSON/cJSON.c ****         size_t i;
1707:/home/xingli/share/1205tiny/cJSON/cJSON.c ****         for (i = 0; i < (output_buffer->depth - 1); i++)
 5510              		.loc 1 1707 16
 5511 0355 48C745E8 		movq	$0, -24(%rbp)
 5511      00000000 
 5512              		.loc 1 1707 9
 5513 035d EB14     		jmp	.L434
 5514              	.L435:
1708:/home/xingli/share/1205tiny/cJSON/cJSON.c ****         {
1709:/home/xingli/share/1205tiny/cJSON/cJSON.c ****             *output_pointer++ = '\t';
 5515              		.loc 1 1709 28 discriminator 3
 5516 035f 488B45D0 		movq	-48(%rbp), %rax
 5517 0363 488D5001 		leaq	1(%rax), %rdx
 5518 0367 488955D0 		movq	%rdx, -48(%rbp)
 5519              		.loc 1 1709 31 discriminator 3
 5520 036b C60009   		movb	$9, (%rax)
1707:/home/xingli/share/1205tiny/cJSON/cJSON.c ****         {
 5521              		.loc 1 1707 54 discriminator 3
 5522 036e 488345E8 		addq	$1, -24(%rbp)
 5522      01
 5523              	.L434:
1707:/home/xingli/share/1205tiny/cJSON/cJSON.c ****         {
 5524              		.loc 1 1707 39 discriminator 1
 5525 0373 488B45C0 		movq	-64(%rbp), %rax
 5526 0377 488B4018 		movq	24(%rax), %rax
1707:/home/xingli/share/1205tiny/cJSON/cJSON.c ****         {
 5527              		.loc 1 1707 47 discriminator 1
 5528 037b 4883E801 		subq	$1, %rax
1707:/home/xingli/share/1205tiny/cJSON/cJSON.c ****         {
 5529              		.loc 1 1707 9 discriminator 1
 5530 037f 483945E8 		cmpq	%rax, -24(%rbp)
 5531 0383 72DA     		jb	.L435
 5532              	.L433:
 5533              	.LBE15:
1710:/home/xingli/share/1205tiny/cJSON/cJSON.c ****         }
1711:/home/xingli/share/1205tiny/cJSON/cJSON.c ****     }
1712:/home/xingli/share/1205tiny/cJSON/cJSON.c ****     *output_pointer++ = '}';
GAS LISTING /tmp/ccabgRKQ.s 			page 143


 5534              		.loc 1 1712 20
 5535 0385 488B45D0 		movq	-48(%rbp), %rax
 5536 0389 488D5001 		leaq	1(%rax), %rdx
 5537 038d 488955D0 		movq	%rdx, -48(%rbp)
 5538              		.loc 1 1712 23
 5539 0391 C6007D   		movb	$125, (%rax)
1713:/home/xingli/share/1205tiny/cJSON/cJSON.c ****     *output_pointer = '\0';
 5540              		.loc 1 1713 21
 5541 0394 488B45D0 		movq	-48(%rbp), %rax
 5542 0398 C60000   		movb	$0, (%rax)
1714:/home/xingli/share/1205tiny/cJSON/cJSON.c ****     output_buffer->depth--;
 5543              		.loc 1 1714 18
 5544 039b 488B45C0 		movq	-64(%rbp), %rax
 5545 039f 488B4018 		movq	24(%rax), %rax
 5546              		.loc 1 1714 25
 5547 03a3 488D50FF 		leaq	-1(%rax), %rdx
 5548 03a7 488B45C0 		movq	-64(%rbp), %rax
 5549 03ab 48895018 		movq	%rdx, 24(%rax)
1715:/home/xingli/share/1205tiny/cJSON/cJSON.c **** 
1716:/home/xingli/share/1205tiny/cJSON/cJSON.c ****     return true;
 5550              		.loc 1 1716 12
 5551 03af B8010000 		movl	$1, %eax
 5551      00
 5552              	.L410:
1717:/home/xingli/share/1205tiny/cJSON/cJSON.c **** }
 5553              		.loc 1 1717 1
 5554 03b4 488B4DF8 		movq	-8(%rbp), %rcx
 5555 03b8 6448330C 		xorq	%fs:40, %rcx
 5555      25280000 
 5555      00
 5556 03c1 7405     		je	.L436
 5557 03c3 E8000000 		call	__stack_chk_fail@PLT
 5557      00
 5558              	.L436:
 5559 03c8 C9       		leave
 5560              	.LCFI101:
 5561              		.cfi_def_cfa 7, 8
 5562 03c9 C3       		ret
 5563              		.cfi_endproc
 5564              	.LFE39:
 5566              		.section	.text.cJSON_GetArraySize,"ax",@progbits
 5567              		.globl	cJSON_GetArraySize
 5569              	cJSON_GetArraySize:
 5570              	.LFB40:
1718:/home/xingli/share/1205tiny/cJSON/cJSON.c **** 
1719:/home/xingli/share/1205tiny/cJSON/cJSON.c **** /* Get Array size/item / object item. */
1720:/home/xingli/share/1205tiny/cJSON/cJSON.c **** CJSON_PUBLIC(int) cJSON_GetArraySize(const cJSON *array)
1721:/home/xingli/share/1205tiny/cJSON/cJSON.c **** {
 5571              		.loc 1 1721 1
 5572              		.cfi_startproc
 5573 0000 F30F1EFA 		endbr64
 5574 0004 55       		pushq	%rbp
 5575              	.LCFI102:
 5576              		.cfi_def_cfa_offset 16
 5577              		.cfi_offset 6, -16
 5578 0005 4889E5   		movq	%rsp, %rbp
 5579              	.LCFI103:
GAS LISTING /tmp/ccabgRKQ.s 			page 144


 5580              		.cfi_def_cfa_register 6
 5581 0008 4883EC30 		subq	$48, %rsp
 5582 000c 48897DD8 		movq	%rdi, -40(%rbp)
 5583              		.loc 1 1721 1
 5584 0010 64488B04 		movq	%fs:40, %rax
 5584      25280000 
 5584      00
 5585 0019 488945F8 		movq	%rax, -8(%rbp)
 5586 001d 31C0     		xorl	%eax, %eax
1722:/home/xingli/share/1205tiny/cJSON/cJSON.c ****     cJSON *child = NULL;
 5587              		.loc 1 1722 12
 5588 001f 48C745E8 		movq	$0, -24(%rbp)
 5588      00000000 
1723:/home/xingli/share/1205tiny/cJSON/cJSON.c ****     size_t size = 0;
 5589              		.loc 1 1723 12
 5590 0027 48C745F0 		movq	$0, -16(%rbp)
 5590      00000000 
1724:/home/xingli/share/1205tiny/cJSON/cJSON.c **** 
1725:/home/xingli/share/1205tiny/cJSON/cJSON.c ****     if (array == NULL)
 5591              		.loc 1 1725 8
 5592 002f 48837DD8 		cmpq	$0, -40(%rbp)
 5592      00
 5593 0034 7507     		jne	.L438
1726:/home/xingli/share/1205tiny/cJSON/cJSON.c ****     {
1727:/home/xingli/share/1205tiny/cJSON/cJSON.c ****         return 0;
 5594              		.loc 1 1727 16
 5595 0036 B8000000 		movl	$0, %eax
 5595      00
 5596 003b EB29     		jmp	.L439
 5597              	.L438:
1728:/home/xingli/share/1205tiny/cJSON/cJSON.c ****     }
1729:/home/xingli/share/1205tiny/cJSON/cJSON.c **** 
1730:/home/xingli/share/1205tiny/cJSON/cJSON.c ****     child = array->child;
 5598              		.loc 1 1730 11
 5599 003d 488B45D8 		movq	-40(%rbp), %rax
 5600 0041 488B4010 		movq	16(%rax), %rax
 5601 0045 488945E8 		movq	%rax, -24(%rbp)
1731:/home/xingli/share/1205tiny/cJSON/cJSON.c **** 
1732:/home/xingli/share/1205tiny/cJSON/cJSON.c ****     while(child != NULL)
 5602              		.loc 1 1732 10
 5603 0049 EB10     		jmp	.L440
 5604              	.L441:
1733:/home/xingli/share/1205tiny/cJSON/cJSON.c ****     {
1734:/home/xingli/share/1205tiny/cJSON/cJSON.c ****         size++;
 5605              		.loc 1 1734 13
 5606 004b 488345F0 		addq	$1, -16(%rbp)
 5606      01
1735:/home/xingli/share/1205tiny/cJSON/cJSON.c ****         child = child->next;
 5607              		.loc 1 1735 15
 5608 0050 488B45E8 		movq	-24(%rbp), %rax
 5609 0054 488B00   		movq	(%rax), %rax
 5610 0057 488945E8 		movq	%rax, -24(%rbp)
 5611              	.L440:
1732:/home/xingli/share/1205tiny/cJSON/cJSON.c ****     {
 5612              		.loc 1 1732 10
 5613 005b 48837DE8 		cmpq	$0, -24(%rbp)
 5613      00
GAS LISTING /tmp/ccabgRKQ.s 			page 145


 5614 0060 75E9     		jne	.L441
1736:/home/xingli/share/1205tiny/cJSON/cJSON.c ****     }
1737:/home/xingli/share/1205tiny/cJSON/cJSON.c **** 
1738:/home/xingli/share/1205tiny/cJSON/cJSON.c ****     /* FIXME: Can overflow here. Cannot be fixed without breaking the API */
1739:/home/xingli/share/1205tiny/cJSON/cJSON.c **** 
1740:/home/xingli/share/1205tiny/cJSON/cJSON.c ****     return (int)size;
 5615              		.loc 1 1740 12
 5616 0062 488B45F0 		movq	-16(%rbp), %rax
 5617              	.L439:
1741:/home/xingli/share/1205tiny/cJSON/cJSON.c **** }
 5618              		.loc 1 1741 1
 5619 0066 488B55F8 		movq	-8(%rbp), %rdx
 5620 006a 64483314 		xorq	%fs:40, %rdx
 5620      25280000 
 5620      00
 5621 0073 7405     		je	.L442
 5622 0075 E8000000 		call	__stack_chk_fail@PLT
 5622      00
 5623              	.L442:
 5624 007a C9       		leave
 5625              	.LCFI104:
 5626              		.cfi_def_cfa 7, 8
 5627 007b C3       		ret
 5628              		.cfi_endproc
 5629              	.LFE40:
 5631              		.section	.text.get_array_item,"ax",@progbits
 5633              	get_array_item:
 5634              	.LFB41:
1742:/home/xingli/share/1205tiny/cJSON/cJSON.c **** 
1743:/home/xingli/share/1205tiny/cJSON/cJSON.c **** static cJSON* get_array_item(const cJSON *array, size_t index)
1744:/home/xingli/share/1205tiny/cJSON/cJSON.c **** {
 5635              		.loc 1 1744 1
 5636              		.cfi_startproc
 5637 0000 F30F1EFA 		endbr64
 5638 0004 55       		pushq	%rbp
 5639              	.LCFI105:
 5640              		.cfi_def_cfa_offset 16
 5641              		.cfi_offset 6, -16
 5642 0005 4889E5   		movq	%rsp, %rbp
 5643              	.LCFI106:
 5644              		.cfi_def_cfa_register 6
 5645 0008 4883EC20 		subq	$32, %rsp
 5646 000c 48897DE8 		movq	%rdi, -24(%rbp)
 5647 0010 488975E0 		movq	%rsi, -32(%rbp)
 5648              		.loc 1 1744 1
 5649 0014 64488B04 		movq	%fs:40, %rax
 5649      25280000 
 5649      00
 5650 001d 488945F8 		movq	%rax, -8(%rbp)
 5651 0021 31C0     		xorl	%eax, %eax
1745:/home/xingli/share/1205tiny/cJSON/cJSON.c ****     cJSON *current_child = NULL;
 5652              		.loc 1 1745 12
 5653 0023 48C745F0 		movq	$0, -16(%rbp)
 5653      00000000 
1746:/home/xingli/share/1205tiny/cJSON/cJSON.c **** 
1747:/home/xingli/share/1205tiny/cJSON/cJSON.c ****     if (array == NULL)
 5654              		.loc 1 1747 8
GAS LISTING /tmp/ccabgRKQ.s 			page 146


 5655 002b 48837DE8 		cmpq	$0, -24(%rbp)
 5655      00
 5656 0030 7507     		jne	.L444
1748:/home/xingli/share/1205tiny/cJSON/cJSON.c ****     {
1749:/home/xingli/share/1205tiny/cJSON/cJSON.c ****         return NULL;
 5657              		.loc 1 1749 16
 5658 0032 B8000000 		movl	$0, %eax
 5658      00
 5659 0037 EB30     		jmp	.L445
 5660              	.L444:
1750:/home/xingli/share/1205tiny/cJSON/cJSON.c ****     }
1751:/home/xingli/share/1205tiny/cJSON/cJSON.c **** 
1752:/home/xingli/share/1205tiny/cJSON/cJSON.c ****     current_child = array->child;
 5661              		.loc 1 1752 19
 5662 0039 488B45E8 		movq	-24(%rbp), %rax
 5663 003d 488B4010 		movq	16(%rax), %rax
 5664 0041 488945F0 		movq	%rax, -16(%rbp)
1753:/home/xingli/share/1205tiny/cJSON/cJSON.c ****     while ((current_child != NULL) && (index > 0))
 5665              		.loc 1 1753 11
 5666 0045 EB10     		jmp	.L446
 5667              	.L448:
1754:/home/xingli/share/1205tiny/cJSON/cJSON.c ****     {
1755:/home/xingli/share/1205tiny/cJSON/cJSON.c ****         index--;
 5668              		.loc 1 1755 14
 5669 0047 48836DE0 		subq	$1, -32(%rbp)
 5669      01
1756:/home/xingli/share/1205tiny/cJSON/cJSON.c ****         current_child = current_child->next;
 5670              		.loc 1 1756 23
 5671 004c 488B45F0 		movq	-16(%rbp), %rax
 5672 0050 488B00   		movq	(%rax), %rax
 5673 0053 488945F0 		movq	%rax, -16(%rbp)
 5674              	.L446:
1753:/home/xingli/share/1205tiny/cJSON/cJSON.c ****     while ((current_child != NULL) && (index > 0))
 5675              		.loc 1 1753 11
 5676 0057 48837DF0 		cmpq	$0, -16(%rbp)
 5676      00
 5677 005c 7407     		je	.L447
1753:/home/xingli/share/1205tiny/cJSON/cJSON.c ****     while ((current_child != NULL) && (index > 0))
 5678              		.loc 1 1753 36 discriminator 1
 5679 005e 48837DE0 		cmpq	$0, -32(%rbp)
 5679      00
 5680 0063 75E2     		jne	.L448
 5681              	.L447:
1757:/home/xingli/share/1205tiny/cJSON/cJSON.c ****     }
1758:/home/xingli/share/1205tiny/cJSON/cJSON.c **** 
1759:/home/xingli/share/1205tiny/cJSON/cJSON.c ****     return current_child;
 5682              		.loc 1 1759 12
 5683 0065 488B45F0 		movq	-16(%rbp), %rax
 5684              	.L445:
1760:/home/xingli/share/1205tiny/cJSON/cJSON.c **** }
 5685              		.loc 1 1760 1
 5686 0069 488B55F8 		movq	-8(%rbp), %rdx
 5687 006d 64483314 		xorq	%fs:40, %rdx
 5687      25280000 
 5687      00
 5688 0076 7405     		je	.L449
 5689 0078 E8000000 		call	__stack_chk_fail@PLT
GAS LISTING /tmp/ccabgRKQ.s 			page 147


 5689      00
 5690              	.L449:
 5691 007d C9       		leave
 5692              	.LCFI107:
 5693              		.cfi_def_cfa 7, 8
 5694 007e C3       		ret
 5695              		.cfi_endproc
 5696              	.LFE41:
 5698              		.section	.text.cJSON_GetArrayItem,"ax",@progbits
 5699              		.globl	cJSON_GetArrayItem
 5701              	cJSON_GetArrayItem:
 5702              	.LFB42:
1761:/home/xingli/share/1205tiny/cJSON/cJSON.c **** 
1762:/home/xingli/share/1205tiny/cJSON/cJSON.c **** CJSON_PUBLIC(cJSON *) cJSON_GetArrayItem(const cJSON *array, int index)
1763:/home/xingli/share/1205tiny/cJSON/cJSON.c **** {
 5703              		.loc 1 1763 1
 5704              		.cfi_startproc
 5705 0000 F30F1EFA 		endbr64
 5706 0004 55       		pushq	%rbp
 5707              	.LCFI108:
 5708              		.cfi_def_cfa_offset 16
 5709              		.cfi_offset 6, -16
 5710 0005 4889E5   		movq	%rsp, %rbp
 5711              	.LCFI109:
 5712              		.cfi_def_cfa_register 6
 5713 0008 4883EC20 		subq	$32, %rsp
 5714 000c 48897DE8 		movq	%rdi, -24(%rbp)
 5715 0010 8975E4   		movl	%esi, -28(%rbp)
 5716              		.loc 1 1763 1
 5717 0013 64488B04 		movq	%fs:40, %rax
 5717      25280000 
 5717      00
 5718 001c 488945F8 		movq	%rax, -8(%rbp)
 5719 0020 31C0     		xorl	%eax, %eax
1764:/home/xingli/share/1205tiny/cJSON/cJSON.c ****     if (index < 0)
 5720              		.loc 1 1764 8
 5721 0022 837DE400 		cmpl	$0, -28(%rbp)
 5722 0026 7907     		jns	.L451
1765:/home/xingli/share/1205tiny/cJSON/cJSON.c ****     {
1766:/home/xingli/share/1205tiny/cJSON/cJSON.c ****         return NULL;
 5723              		.loc 1 1766 16
 5724 0028 B8000000 		movl	$0, %eax
 5724      00
 5725 002d EB15     		jmp	.L452
 5726              	.L451:
1767:/home/xingli/share/1205tiny/cJSON/cJSON.c ****     }
1768:/home/xingli/share/1205tiny/cJSON/cJSON.c **** 
1769:/home/xingli/share/1205tiny/cJSON/cJSON.c ****     return get_array_item(array, (size_t)index);
 5727              		.loc 1 1769 12
 5728 002f 8B45E4   		movl	-28(%rbp), %eax
 5729 0032 4863D0   		movslq	%eax, %rdx
 5730 0035 488B45E8 		movq	-24(%rbp), %rax
 5731 0039 4889D6   		movq	%rdx, %rsi
 5732 003c 4889C7   		movq	%rax, %rdi
 5733 003f E8000000 		call	get_array_item
 5733      00
 5734              	.L452:
GAS LISTING /tmp/ccabgRKQ.s 			page 148


1770:/home/xingli/share/1205tiny/cJSON/cJSON.c **** }
 5735              		.loc 1 1770 1
 5736 0044 488B4DF8 		movq	-8(%rbp), %rcx
 5737 0048 6448330C 		xorq	%fs:40, %rcx
 5737      25280000 
 5737      00
 5738 0051 7405     		je	.L453
 5739 0053 E8000000 		call	__stack_chk_fail@PLT
 5739      00
 5740              	.L453:
 5741 0058 C9       		leave
 5742              	.LCFI110:
 5743              		.cfi_def_cfa 7, 8
 5744 0059 C3       		ret
 5745              		.cfi_endproc
 5746              	.LFE42:
 5748              		.section	.text.get_object_item,"ax",@progbits
 5750              	get_object_item:
 5751              	.LFB43:
1771:/home/xingli/share/1205tiny/cJSON/cJSON.c **** 
1772:/home/xingli/share/1205tiny/cJSON/cJSON.c **** static cJSON *get_object_item(const cJSON * const object, const char * const name, const cJSON_bool
1773:/home/xingli/share/1205tiny/cJSON/cJSON.c **** {
 5752              		.loc 1 1773 1
 5753              		.cfi_startproc
 5754 0000 F30F1EFA 		endbr64
 5755 0004 55       		pushq	%rbp
 5756              	.LCFI111:
 5757              		.cfi_def_cfa_offset 16
 5758              		.cfi_offset 6, -16
 5759 0005 4889E5   		movq	%rsp, %rbp
 5760              	.LCFI112:
 5761              		.cfi_def_cfa_register 6
 5762 0008 4883EC30 		subq	$48, %rsp
 5763 000c 48897DE8 		movq	%rdi, -24(%rbp)
 5764 0010 488975E0 		movq	%rsi, -32(%rbp)
 5765 0014 8955DC   		movl	%edx, -36(%rbp)
 5766              		.loc 1 1773 1
 5767 0017 64488B04 		movq	%fs:40, %rax
 5767      25280000 
 5767      00
 5768 0020 488945F8 		movq	%rax, -8(%rbp)
 5769 0024 31C0     		xorl	%eax, %eax
1774:/home/xingli/share/1205tiny/cJSON/cJSON.c ****     cJSON *current_element = NULL;
 5770              		.loc 1 1774 12
 5771 0026 48C745F0 		movq	$0, -16(%rbp)
 5771      00000000 
1775:/home/xingli/share/1205tiny/cJSON/cJSON.c **** 
1776:/home/xingli/share/1205tiny/cJSON/cJSON.c ****     if ((object == NULL) || (name == NULL))
 5772              		.loc 1 1776 8
 5773 002e 48837DE8 		cmpq	$0, -24(%rbp)
 5773      00
 5774 0033 7407     		je	.L455
 5775              		.loc 1 1776 26 discriminator 1
 5776 0035 48837DE0 		cmpq	$0, -32(%rbp)
 5776      00
 5777 003a 7507     		jne	.L456
 5778              	.L455:
GAS LISTING /tmp/ccabgRKQ.s 			page 149


1777:/home/xingli/share/1205tiny/cJSON/cJSON.c ****     {
1778:/home/xingli/share/1205tiny/cJSON/cJSON.c ****         return NULL;
 5779              		.loc 1 1778 16
 5780 003c B8000000 		movl	$0, %eax
 5780      00
 5781 0041 EB74     		jmp	.L457
 5782              	.L456:
1779:/home/xingli/share/1205tiny/cJSON/cJSON.c ****     }
1780:/home/xingli/share/1205tiny/cJSON/cJSON.c **** 
1781:/home/xingli/share/1205tiny/cJSON/cJSON.c ****     current_element = object->child;
 5783              		.loc 1 1781 21
 5784 0043 488B45E8 		movq	-24(%rbp), %rax
 5785 0047 488B4010 		movq	16(%rax), %rax
 5786 004b 488945F0 		movq	%rax, -16(%rbp)
1782:/home/xingli/share/1205tiny/cJSON/cJSON.c ****     if (case_sensitive)
 5787              		.loc 1 1782 8
 5788 004f 837DDC00 		cmpl	$0, -36(%rbp)
 5789 0053 743C     		je	.L462
1783:/home/xingli/share/1205tiny/cJSON/cJSON.c ****     {
1784:/home/xingli/share/1205tiny/cJSON/cJSON.c ****         while ((current_element != NULL) && (strcmp(name, current_element->string) != 0))
 5790              		.loc 1 1784 15
 5791 0055 EB0B     		jmp	.L459
 5792              	.L461:
1785:/home/xingli/share/1205tiny/cJSON/cJSON.c ****         {
1786:/home/xingli/share/1205tiny/cJSON/cJSON.c ****             current_element = current_element->next;
 5793              		.loc 1 1786 29
 5794 0057 488B45F0 		movq	-16(%rbp), %rax
 5795 005b 488B00   		movq	(%rax), %rax
 5796 005e 488945F0 		movq	%rax, -16(%rbp)
 5797              	.L459:
1784:/home/xingli/share/1205tiny/cJSON/cJSON.c ****         {
 5798              		.loc 1 1784 15
 5799 0062 48837DF0 		cmpq	$0, -16(%rbp)
 5799      00
 5800 0067 744A     		je	.L460
1784:/home/xingli/share/1205tiny/cJSON/cJSON.c ****         {
 5801              		.loc 1 1784 74 discriminator 1
 5802 0069 488B45F0 		movq	-16(%rbp), %rax
 5803 006d 488B5038 		movq	56(%rax), %rdx
1784:/home/xingli/share/1205tiny/cJSON/cJSON.c ****         {
 5804              		.loc 1 1784 46 discriminator 1
 5805 0071 488B45E0 		movq	-32(%rbp), %rax
 5806 0075 4889D6   		movq	%rdx, %rsi
 5807 0078 4889C7   		movq	%rax, %rdi
 5808 007b E8000000 		call	strcmp@PLT
 5808      00
1784:/home/xingli/share/1205tiny/cJSON/cJSON.c ****         {
 5809              		.loc 1 1784 42 discriminator 1
 5810 0080 85C0     		testl	%eax, %eax
 5811 0082 75D3     		jne	.L461
 5812 0084 EB2D     		jmp	.L460
 5813              	.L463:
1787:/home/xingli/share/1205tiny/cJSON/cJSON.c ****         }
1788:/home/xingli/share/1205tiny/cJSON/cJSON.c ****     }
1789:/home/xingli/share/1205tiny/cJSON/cJSON.c ****     else
1790:/home/xingli/share/1205tiny/cJSON/cJSON.c ****     {
1791:/home/xingli/share/1205tiny/cJSON/cJSON.c ****         while ((current_element != NULL) && (case_insensitive_strcmp((const unsigned char*)name, (c
GAS LISTING /tmp/ccabgRKQ.s 			page 150


1792:/home/xingli/share/1205tiny/cJSON/cJSON.c ****         {
1793:/home/xingli/share/1205tiny/cJSON/cJSON.c ****             current_element = current_element->next;
 5814              		.loc 1 1793 29
 5815 0086 488B45F0 		movq	-16(%rbp), %rax
 5816 008a 488B00   		movq	(%rax), %rax
 5817 008d 488945F0 		movq	%rax, -16(%rbp)
 5818              	.L462:
1791:/home/xingli/share/1205tiny/cJSON/cJSON.c ****         {
 5819              		.loc 1 1791 15
 5820 0091 48837DF0 		cmpq	$0, -16(%rbp)
 5820      00
 5821 0096 741B     		je	.L460
1791:/home/xingli/share/1205tiny/cJSON/cJSON.c ****         {
 5822              		.loc 1 1791 136 discriminator 1
 5823 0098 488B45F0 		movq	-16(%rbp), %rax
 5824 009c 488B5038 		movq	56(%rax), %rdx
1791:/home/xingli/share/1205tiny/cJSON/cJSON.c ****         {
 5825              		.loc 1 1791 46 discriminator 1
 5826 00a0 488B45E0 		movq	-32(%rbp), %rax
 5827 00a4 4889D6   		movq	%rdx, %rsi
 5828 00a7 4889C7   		movq	%rax, %rdi
 5829 00aa E8000000 		call	case_insensitive_strcmp
 5829      00
1791:/home/xingli/share/1205tiny/cJSON/cJSON.c ****         {
 5830              		.loc 1 1791 42 discriminator 1
 5831 00af 85C0     		testl	%eax, %eax
 5832 00b1 75D3     		jne	.L463
 5833              	.L460:
1794:/home/xingli/share/1205tiny/cJSON/cJSON.c ****         }
1795:/home/xingli/share/1205tiny/cJSON/cJSON.c ****     }
1796:/home/xingli/share/1205tiny/cJSON/cJSON.c **** 
1797:/home/xingli/share/1205tiny/cJSON/cJSON.c ****     return current_element;
 5834              		.loc 1 1797 12
 5835 00b3 488B45F0 		movq	-16(%rbp), %rax
 5836              	.L457:
1798:/home/xingli/share/1205tiny/cJSON/cJSON.c **** }
 5837              		.loc 1 1798 1
 5838 00b7 488B4DF8 		movq	-8(%rbp), %rcx
 5839 00bb 6448330C 		xorq	%fs:40, %rcx
 5839      25280000 
 5839      00
 5840 00c4 7405     		je	.L464
 5841 00c6 E8000000 		call	__stack_chk_fail@PLT
 5841      00
 5842              	.L464:
 5843 00cb C9       		leave
 5844              	.LCFI113:
 5845              		.cfi_def_cfa 7, 8
 5846 00cc C3       		ret
 5847              		.cfi_endproc
 5848              	.LFE43:
 5850              		.section	.text.cJSON_GetObjectItem,"ax",@progbits
 5851              		.globl	cJSON_GetObjectItem
 5853              	cJSON_GetObjectItem:
 5854              	.LFB44:
1799:/home/xingli/share/1205tiny/cJSON/cJSON.c **** 
1800:/home/xingli/share/1205tiny/cJSON/cJSON.c **** CJSON_PUBLIC(cJSON *) cJSON_GetObjectItem(const cJSON * const object, const char * const string)
GAS LISTING /tmp/ccabgRKQ.s 			page 151


1801:/home/xingli/share/1205tiny/cJSON/cJSON.c **** {
 5855              		.loc 1 1801 1
 5856              		.cfi_startproc
 5857 0000 F30F1EFA 		endbr64
 5858 0004 55       		pushq	%rbp
 5859              	.LCFI114:
 5860              		.cfi_def_cfa_offset 16
 5861              		.cfi_offset 6, -16
 5862 0005 4889E5   		movq	%rsp, %rbp
 5863              	.LCFI115:
 5864              		.cfi_def_cfa_register 6
 5865 0008 4883EC20 		subq	$32, %rsp
 5866 000c 48897DE8 		movq	%rdi, -24(%rbp)
 5867 0010 488975E0 		movq	%rsi, -32(%rbp)
 5868              		.loc 1 1801 1
 5869 0014 64488B04 		movq	%fs:40, %rax
 5869      25280000 
 5869      00
 5870 001d 488945F8 		movq	%rax, -8(%rbp)
 5871 0021 31C0     		xorl	%eax, %eax
1802:/home/xingli/share/1205tiny/cJSON/cJSON.c ****     return get_object_item(object, string, false);
 5872              		.loc 1 1802 12
 5873 0023 488B4DE0 		movq	-32(%rbp), %rcx
 5874 0027 488B45E8 		movq	-24(%rbp), %rax
 5875 002b BA000000 		movl	$0, %edx
 5875      00
 5876 0030 4889CE   		movq	%rcx, %rsi
 5877 0033 4889C7   		movq	%rax, %rdi
 5878 0036 E8000000 		call	get_object_item
 5878      00
1803:/home/xingli/share/1205tiny/cJSON/cJSON.c **** }
 5879              		.loc 1 1803 1
 5880 003b 488B55F8 		movq	-8(%rbp), %rdx
 5881 003f 64483314 		xorq	%fs:40, %rdx
 5881      25280000 
 5881      00
 5882 0048 7405     		je	.L467
 5883 004a E8000000 		call	__stack_chk_fail@PLT
 5883      00
 5884              	.L467:
 5885 004f C9       		leave
 5886              	.LCFI116:
 5887              		.cfi_def_cfa 7, 8
 5888 0050 C3       		ret
 5889              		.cfi_endproc
 5890              	.LFE44:
 5892              		.section	.text.cJSON_GetObjectItemCaseSensitive,"ax",@progbits
 5893              		.globl	cJSON_GetObjectItemCaseSensitive
 5895              	cJSON_GetObjectItemCaseSensitive:
 5896              	.LFB45:
1804:/home/xingli/share/1205tiny/cJSON/cJSON.c **** 
1805:/home/xingli/share/1205tiny/cJSON/cJSON.c **** CJSON_PUBLIC(cJSON *) cJSON_GetObjectItemCaseSensitive(const cJSON * const object, const char * con
1806:/home/xingli/share/1205tiny/cJSON/cJSON.c **** {
 5897              		.loc 1 1806 1
 5898              		.cfi_startproc
 5899 0000 F30F1EFA 		endbr64
 5900 0004 55       		pushq	%rbp
GAS LISTING /tmp/ccabgRKQ.s 			page 152


 5901              	.LCFI117:
 5902              		.cfi_def_cfa_offset 16
 5903              		.cfi_offset 6, -16
 5904 0005 4889E5   		movq	%rsp, %rbp
 5905              	.LCFI118:
 5906              		.cfi_def_cfa_register 6
 5907 0008 4883EC20 		subq	$32, %rsp
 5908 000c 48897DE8 		movq	%rdi, -24(%rbp)
 5909 0010 488975E0 		movq	%rsi, -32(%rbp)
 5910              		.loc 1 1806 1
 5911 0014 64488B04 		movq	%fs:40, %rax
 5911      25280000 
 5911      00
 5912 001d 488945F8 		movq	%rax, -8(%rbp)
 5913 0021 31C0     		xorl	%eax, %eax
1807:/home/xingli/share/1205tiny/cJSON/cJSON.c ****     return get_object_item(object, string, true);
 5914              		.loc 1 1807 12
 5915 0023 488B4DE0 		movq	-32(%rbp), %rcx
 5916 0027 488B45E8 		movq	-24(%rbp), %rax
 5917 002b BA010000 		movl	$1, %edx
 5917      00
 5918 0030 4889CE   		movq	%rcx, %rsi
 5919 0033 4889C7   		movq	%rax, %rdi
 5920 0036 E8000000 		call	get_object_item
 5920      00
1808:/home/xingli/share/1205tiny/cJSON/cJSON.c **** }
 5921              		.loc 1 1808 1
 5922 003b 488B55F8 		movq	-8(%rbp), %rdx
 5923 003f 64483314 		xorq	%fs:40, %rdx
 5923      25280000 
 5923      00
 5924 0048 7405     		je	.L470
 5925 004a E8000000 		call	__stack_chk_fail@PLT
 5925      00
 5926              	.L470:
 5927 004f C9       		leave
 5928              	.LCFI119:
 5929              		.cfi_def_cfa 7, 8
 5930 0050 C3       		ret
 5931              		.cfi_endproc
 5932              	.LFE45:
 5934              		.section	.text.cJSON_HasObjectItem,"ax",@progbits
 5935              		.globl	cJSON_HasObjectItem
 5937              	cJSON_HasObjectItem:
 5938              	.LFB46:
1809:/home/xingli/share/1205tiny/cJSON/cJSON.c **** 
1810:/home/xingli/share/1205tiny/cJSON/cJSON.c **** CJSON_PUBLIC(cJSON_bool) cJSON_HasObjectItem(const cJSON *object, const char *string)
1811:/home/xingli/share/1205tiny/cJSON/cJSON.c **** {
 5939              		.loc 1 1811 1
 5940              		.cfi_startproc
 5941 0000 F30F1EFA 		endbr64
 5942 0004 55       		pushq	%rbp
 5943              	.LCFI120:
 5944              		.cfi_def_cfa_offset 16
 5945              		.cfi_offset 6, -16
 5946 0005 4889E5   		movq	%rsp, %rbp
 5947              	.LCFI121:
GAS LISTING /tmp/ccabgRKQ.s 			page 153


 5948              		.cfi_def_cfa_register 6
 5949 0008 4883EC20 		subq	$32, %rsp
 5950 000c 48897DE8 		movq	%rdi, -24(%rbp)
 5951 0010 488975E0 		movq	%rsi, -32(%rbp)
 5952              		.loc 1 1811 1
 5953 0014 64488B04 		movq	%fs:40, %rax
 5953      25280000 
 5953      00
 5954 001d 488945F8 		movq	%rax, -8(%rbp)
 5955 0021 31C0     		xorl	%eax, %eax
1812:/home/xingli/share/1205tiny/cJSON/cJSON.c ****     return cJSON_GetObjectItem(object, string) ? 1 : 0;
 5956              		.loc 1 1812 12
 5957 0023 488B55E0 		movq	-32(%rbp), %rdx
 5958 0027 488B45E8 		movq	-24(%rbp), %rax
 5959 002b 4889D6   		movq	%rdx, %rsi
 5960 002e 4889C7   		movq	%rax, %rdi
 5961 0031 E8000000 		call	cJSON_GetObjectItem
 5961      00
 5962              		.loc 1 1812 52
 5963 0036 4885C0   		testq	%rax, %rax
 5964 0039 0F95C0   		setne	%al
 5965 003c 0FB6C0   		movzbl	%al, %eax
1813:/home/xingli/share/1205tiny/cJSON/cJSON.c **** }
 5966              		.loc 1 1813 1
 5967 003f 488B4DF8 		movq	-8(%rbp), %rcx
 5968 0043 6448330C 		xorq	%fs:40, %rcx
 5968      25280000 
 5968      00
 5969 004c 7405     		je	.L473
 5970 004e E8000000 		call	__stack_chk_fail@PLT
 5970      00
 5971              	.L473:
 5972 0053 C9       		leave
 5973              	.LCFI122:
 5974              		.cfi_def_cfa 7, 8
 5975 0054 C3       		ret
 5976              		.cfi_endproc
 5977              	.LFE46:
 5979              		.section	.text.suffix_object,"ax",@progbits
 5981              	suffix_object:
 5982              	.LFB47:
1814:/home/xingli/share/1205tiny/cJSON/cJSON.c **** 
1815:/home/xingli/share/1205tiny/cJSON/cJSON.c **** /* Utility for array list handling. */
1816:/home/xingli/share/1205tiny/cJSON/cJSON.c **** static void suffix_object(cJSON *prev, cJSON *item)
1817:/home/xingli/share/1205tiny/cJSON/cJSON.c **** {
 5983              		.loc 1 1817 1
 5984              		.cfi_startproc
 5985 0000 F30F1EFA 		endbr64
 5986 0004 55       		pushq	%rbp
 5987              	.LCFI123:
 5988              		.cfi_def_cfa_offset 16
 5989              		.cfi_offset 6, -16
 5990 0005 4889E5   		movq	%rsp, %rbp
 5991              	.LCFI124:
 5992              		.cfi_def_cfa_register 6
 5993 0008 4883EC20 		subq	$32, %rsp
 5994 000c 48897DE8 		movq	%rdi, -24(%rbp)
GAS LISTING /tmp/ccabgRKQ.s 			page 154


 5995 0010 488975E0 		movq	%rsi, -32(%rbp)
 5996              		.loc 1 1817 1
 5997 0014 64488B04 		movq	%fs:40, %rax
 5997      25280000 
 5997      00
 5998 001d 488945F8 		movq	%rax, -8(%rbp)
 5999 0021 31C0     		xorl	%eax, %eax
1818:/home/xingli/share/1205tiny/cJSON/cJSON.c ****     prev->next = item;
 6000              		.loc 1 1818 16
 6001 0023 488B45E8 		movq	-24(%rbp), %rax
 6002 0027 488B55E0 		movq	-32(%rbp), %rdx
 6003 002b 488910   		movq	%rdx, (%rax)
1819:/home/xingli/share/1205tiny/cJSON/cJSON.c ****     item->prev = prev;
 6004              		.loc 1 1819 16
 6005 002e 488B45E0 		movq	-32(%rbp), %rax
 6006 0032 488B55E8 		movq	-24(%rbp), %rdx
 6007 0036 48895008 		movq	%rdx, 8(%rax)
1820:/home/xingli/share/1205tiny/cJSON/cJSON.c **** }
 6008              		.loc 1 1820 1
 6009 003a 90       		nop
 6010 003b 488B45F8 		movq	-8(%rbp), %rax
 6011 003f 64483304 		xorq	%fs:40, %rax
 6011      25280000 
 6011      00
 6012 0048 7405     		je	.L475
 6013 004a E8000000 		call	__stack_chk_fail@PLT
 6013      00
 6014              	.L475:
 6015 004f C9       		leave
 6016              	.LCFI125:
 6017              		.cfi_def_cfa 7, 8
 6018 0050 C3       		ret
 6019              		.cfi_endproc
 6020              	.LFE47:
 6022              		.section	.text.create_reference,"ax",@progbits
 6024              	create_reference:
 6025              	.LFB48:
1821:/home/xingli/share/1205tiny/cJSON/cJSON.c **** 
1822:/home/xingli/share/1205tiny/cJSON/cJSON.c **** /* Utility for handling references. */
1823:/home/xingli/share/1205tiny/cJSON/cJSON.c **** static cJSON *create_reference(const cJSON *item, const internal_hooks * const hooks)
1824:/home/xingli/share/1205tiny/cJSON/cJSON.c **** {
 6026              		.loc 1 1824 1
 6027              		.cfi_startproc
 6028 0000 F30F1EFA 		endbr64
 6029 0004 55       		pushq	%rbp
 6030              	.LCFI126:
 6031              		.cfi_def_cfa_offset 16
 6032              		.cfi_offset 6, -16
 6033 0005 4889E5   		movq	%rsp, %rbp
 6034              	.LCFI127:
 6035              		.cfi_def_cfa_register 6
 6036 0008 4883EC20 		subq	$32, %rsp
 6037 000c 48897DE8 		movq	%rdi, -24(%rbp)
 6038 0010 488975E0 		movq	%rsi, -32(%rbp)
 6039              		.loc 1 1824 1
 6040 0014 64488B04 		movq	%fs:40, %rax
 6040      25280000 
GAS LISTING /tmp/ccabgRKQ.s 			page 155


 6040      00
 6041 001d 488945F8 		movq	%rax, -8(%rbp)
 6042 0021 31C0     		xorl	%eax, %eax
1825:/home/xingli/share/1205tiny/cJSON/cJSON.c ****     cJSON *reference = NULL;
 6043              		.loc 1 1825 12
 6044 0023 48C745F0 		movq	$0, -16(%rbp)
 6044      00000000 
1826:/home/xingli/share/1205tiny/cJSON/cJSON.c ****     if (item == NULL)
 6045              		.loc 1 1826 8
 6046 002b 48837DE8 		cmpq	$0, -24(%rbp)
 6046      00
 6047 0030 7507     		jne	.L477
1827:/home/xingli/share/1205tiny/cJSON/cJSON.c ****     {
1828:/home/xingli/share/1205tiny/cJSON/cJSON.c ****         return NULL;
 6048              		.loc 1 1828 16
 6049 0032 B8000000 		movl	$0, %eax
 6049      00
 6050 0037 EB74     		jmp	.L478
 6051              	.L477:
1829:/home/xingli/share/1205tiny/cJSON/cJSON.c ****     }
1830:/home/xingli/share/1205tiny/cJSON/cJSON.c **** 
1831:/home/xingli/share/1205tiny/cJSON/cJSON.c ****     reference = cJSON_New_Item(hooks);
 6052              		.loc 1 1831 17
 6053 0039 488B45E0 		movq	-32(%rbp), %rax
 6054 003d 4889C7   		movq	%rax, %rdi
 6055 0040 E8000000 		call	cJSON_New_Item
 6055      00
 6056 0045 488945F0 		movq	%rax, -16(%rbp)
1832:/home/xingli/share/1205tiny/cJSON/cJSON.c ****     if (reference == NULL)
 6057              		.loc 1 1832 8
 6058 0049 48837DF0 		cmpq	$0, -16(%rbp)
 6058      00
 6059 004e 7507     		jne	.L479
1833:/home/xingli/share/1205tiny/cJSON/cJSON.c ****     {
1834:/home/xingli/share/1205tiny/cJSON/cJSON.c ****         return NULL;
 6060              		.loc 1 1834 16
 6061 0050 B8000000 		movl	$0, %eax
 6061      00
 6062 0055 EB56     		jmp	.L478
 6063              	.L479:
1835:/home/xingli/share/1205tiny/cJSON/cJSON.c ****     }
1836:/home/xingli/share/1205tiny/cJSON/cJSON.c **** 
1837:/home/xingli/share/1205tiny/cJSON/cJSON.c ****     (void) memcpy(reference, item, sizeof(cJSON));
 6064              		.loc 1 1837 12
 6065 0057 488B4DE8 		movq	-24(%rbp), %rcx
 6066 005b 488B45F0 		movq	-16(%rbp), %rax
 6067 005f BA400000 		movl	$64, %edx
 6067      00
 6068 0064 4889CE   		movq	%rcx, %rsi
 6069 0067 4889C7   		movq	%rax, %rdi
 6070 006a E8000000 		call	memcpy@PLT
 6070      00
1838:/home/xingli/share/1205tiny/cJSON/cJSON.c ****     reference->string = NULL;
 6071              		.loc 1 1838 23
 6072 006f 488B45F0 		movq	-16(%rbp), %rax
 6073 0073 48C74038 		movq	$0, 56(%rax)
 6073      00000000 
GAS LISTING /tmp/ccabgRKQ.s 			page 156


1839:/home/xingli/share/1205tiny/cJSON/cJSON.c ****     reference->type |= cJSON_IsReference;
 6074              		.loc 1 1839 21
 6075 007b 488B45F0 		movq	-16(%rbp), %rax
 6076 007f 8B4018   		movl	24(%rax), %eax
 6077 0082 80CC01   		orb	$1, %ah
 6078 0085 89C2     		movl	%eax, %edx
 6079 0087 488B45F0 		movq	-16(%rbp), %rax
 6080 008b 895018   		movl	%edx, 24(%rax)
1840:/home/xingli/share/1205tiny/cJSON/cJSON.c ****     reference->next = reference->prev = NULL;
 6081              		.loc 1 1840 39
 6082 008e 488B45F0 		movq	-16(%rbp), %rax
 6083 0092 48C74008 		movq	$0, 8(%rax)
 6083      00000000 
 6084              		.loc 1 1840 32
 6085 009a 488B45F0 		movq	-16(%rbp), %rax
 6086 009e 488B5008 		movq	8(%rax), %rdx
 6087              		.loc 1 1840 21
 6088 00a2 488B45F0 		movq	-16(%rbp), %rax
 6089 00a6 488910   		movq	%rdx, (%rax)
1841:/home/xingli/share/1205tiny/cJSON/cJSON.c ****     return reference;
 6090              		.loc 1 1841 12
 6091 00a9 488B45F0 		movq	-16(%rbp), %rax
 6092              	.L478:
1842:/home/xingli/share/1205tiny/cJSON/cJSON.c **** }
 6093              		.loc 1 1842 1
 6094 00ad 488B4DF8 		movq	-8(%rbp), %rcx
 6095 00b1 6448330C 		xorq	%fs:40, %rcx
 6095      25280000 
 6095      00
 6096 00ba 7405     		je	.L480
 6097 00bc E8000000 		call	__stack_chk_fail@PLT
 6097      00
 6098              	.L480:
 6099 00c1 C9       		leave
 6100              	.LCFI128:
 6101              		.cfi_def_cfa 7, 8
 6102 00c2 C3       		ret
 6103              		.cfi_endproc
 6104              	.LFE48:
 6106              		.section	.text.add_item_to_array,"ax",@progbits
 6108              	add_item_to_array:
 6109              	.LFB49:
1843:/home/xingli/share/1205tiny/cJSON/cJSON.c **** 
1844:/home/xingli/share/1205tiny/cJSON/cJSON.c **** static cJSON_bool add_item_to_array(cJSON *array, cJSON *item)
1845:/home/xingli/share/1205tiny/cJSON/cJSON.c **** {
 6110              		.loc 1 1845 1
 6111              		.cfi_startproc
 6112 0000 F30F1EFA 		endbr64
 6113 0004 55       		pushq	%rbp
 6114              	.LCFI129:
 6115              		.cfi_def_cfa_offset 16
 6116              		.cfi_offset 6, -16
 6117 0005 4889E5   		movq	%rsp, %rbp
 6118              	.LCFI130:
 6119              		.cfi_def_cfa_register 6
 6120 0008 4883EC20 		subq	$32, %rsp
 6121 000c 48897DE8 		movq	%rdi, -24(%rbp)
GAS LISTING /tmp/ccabgRKQ.s 			page 157


 6122 0010 488975E0 		movq	%rsi, -32(%rbp)
 6123              		.loc 1 1845 1
 6124 0014 64488B04 		movq	%fs:40, %rax
 6124      25280000 
 6124      00
 6125 001d 488945F8 		movq	%rax, -8(%rbp)
 6126 0021 31C0     		xorl	%eax, %eax
1846:/home/xingli/share/1205tiny/cJSON/cJSON.c ****     cJSON *child = NULL;
 6127              		.loc 1 1846 12
 6128 0023 48C745F0 		movq	$0, -16(%rbp)
 6128      00000000 
1847:/home/xingli/share/1205tiny/cJSON/cJSON.c **** 
1848:/home/xingli/share/1205tiny/cJSON/cJSON.c ****     if ((item == NULL) || (array == NULL))
 6129              		.loc 1 1848 8
 6130 002b 48837DE0 		cmpq	$0, -32(%rbp)
 6130      00
 6131 0030 7407     		je	.L482
 6132              		.loc 1 1848 24 discriminator 1
 6133 0032 48837DE8 		cmpq	$0, -24(%rbp)
 6133      00
 6134 0037 7507     		jne	.L483
 6135              	.L482:
1849:/home/xingli/share/1205tiny/cJSON/cJSON.c ****     {
1850:/home/xingli/share/1205tiny/cJSON/cJSON.c ****         return false;
 6136              		.loc 1 1850 16
 6137 0039 B8000000 		movl	$0, %eax
 6137      00
 6138 003e EB50     		jmp	.L484
 6139              	.L483:
1851:/home/xingli/share/1205tiny/cJSON/cJSON.c ****     }
1852:/home/xingli/share/1205tiny/cJSON/cJSON.c **** 
1853:/home/xingli/share/1205tiny/cJSON/cJSON.c ****     child = array->child;
 6140              		.loc 1 1853 11
 6141 0040 488B45E8 		movq	-24(%rbp), %rax
 6142 0044 488B4010 		movq	16(%rax), %rax
 6143 0048 488945F0 		movq	%rax, -16(%rbp)
1854:/home/xingli/share/1205tiny/cJSON/cJSON.c **** 
1855:/home/xingli/share/1205tiny/cJSON/cJSON.c ****     if (child == NULL)
 6144              		.loc 1 1855 8
 6145 004c 48837DF0 		cmpq	$0, -16(%rbp)
 6145      00
 6146 0051 7519     		jne	.L487
1856:/home/xingli/share/1205tiny/cJSON/cJSON.c ****     {
1857:/home/xingli/share/1205tiny/cJSON/cJSON.c ****         /* list is empty, start new one */
1858:/home/xingli/share/1205tiny/cJSON/cJSON.c ****         array->child = item;
 6147              		.loc 1 1858 22
 6148 0053 488B45E8 		movq	-24(%rbp), %rax
 6149 0057 488B55E0 		movq	-32(%rbp), %rdx
 6150 005b 48895010 		movq	%rdx, 16(%rax)
 6151 005f EB2A     		jmp	.L486
 6152              	.L488:
1859:/home/xingli/share/1205tiny/cJSON/cJSON.c ****     }
1860:/home/xingli/share/1205tiny/cJSON/cJSON.c ****     else
1861:/home/xingli/share/1205tiny/cJSON/cJSON.c ****     {
1862:/home/xingli/share/1205tiny/cJSON/cJSON.c ****         /* append to the end */
1863:/home/xingli/share/1205tiny/cJSON/cJSON.c ****         while (child->next)
1864:/home/xingli/share/1205tiny/cJSON/cJSON.c ****         {
GAS LISTING /tmp/ccabgRKQ.s 			page 158


1865:/home/xingli/share/1205tiny/cJSON/cJSON.c ****             child = child->next;
 6153              		.loc 1 1865 19
 6154 0061 488B45F0 		movq	-16(%rbp), %rax
 6155 0065 488B00   		movq	(%rax), %rax
 6156 0068 488945F0 		movq	%rax, -16(%rbp)
 6157              	.L487:
1863:/home/xingli/share/1205tiny/cJSON/cJSON.c ****         {
 6158              		.loc 1 1863 21
 6159 006c 488B45F0 		movq	-16(%rbp), %rax
 6160 0070 488B00   		movq	(%rax), %rax
1863:/home/xingli/share/1205tiny/cJSON/cJSON.c ****         {
 6161              		.loc 1 1863 15
 6162 0073 4885C0   		testq	%rax, %rax
 6163 0076 75E9     		jne	.L488
1866:/home/xingli/share/1205tiny/cJSON/cJSON.c ****         }
1867:/home/xingli/share/1205tiny/cJSON/cJSON.c ****         suffix_object(child, item);
 6164              		.loc 1 1867 9
 6165 0078 488B55E0 		movq	-32(%rbp), %rdx
 6166 007c 488B45F0 		movq	-16(%rbp), %rax
 6167 0080 4889D6   		movq	%rdx, %rsi
 6168 0083 4889C7   		movq	%rax, %rdi
 6169 0086 E8000000 		call	suffix_object
 6169      00
 6170              	.L486:
1868:/home/xingli/share/1205tiny/cJSON/cJSON.c ****     }
1869:/home/xingli/share/1205tiny/cJSON/cJSON.c **** 
1870:/home/xingli/share/1205tiny/cJSON/cJSON.c ****     return true;
 6171              		.loc 1 1870 12
 6172 008b B8010000 		movl	$1, %eax
 6172      00
 6173              	.L484:
1871:/home/xingli/share/1205tiny/cJSON/cJSON.c **** }
 6174              		.loc 1 1871 1
 6175 0090 488B4DF8 		movq	-8(%rbp), %rcx
 6176 0094 6448330C 		xorq	%fs:40, %rcx
 6176      25280000 
 6176      00
 6177 009d 7405     		je	.L489
 6178 009f E8000000 		call	__stack_chk_fail@PLT
 6178      00
 6179              	.L489:
 6180 00a4 C9       		leave
 6181              	.LCFI131:
 6182              		.cfi_def_cfa 7, 8
 6183 00a5 C3       		ret
 6184              		.cfi_endproc
 6185              	.LFE49:
 6187              		.section	.text.cJSON_AddItemToArray,"ax",@progbits
 6188              		.globl	cJSON_AddItemToArray
 6190              	cJSON_AddItemToArray:
 6191              	.LFB50:
1872:/home/xingli/share/1205tiny/cJSON/cJSON.c **** 
1873:/home/xingli/share/1205tiny/cJSON/cJSON.c **** /* Add item to array/object. */
1874:/home/xingli/share/1205tiny/cJSON/cJSON.c **** CJSON_PUBLIC(void) cJSON_AddItemToArray(cJSON *array, cJSON *item)
1875:/home/xingli/share/1205tiny/cJSON/cJSON.c **** {
 6192              		.loc 1 1875 1
 6193              		.cfi_startproc
GAS LISTING /tmp/ccabgRKQ.s 			page 159


 6194 0000 F30F1EFA 		endbr64
 6195 0004 55       		pushq	%rbp
 6196              	.LCFI132:
 6197              		.cfi_def_cfa_offset 16
 6198              		.cfi_offset 6, -16
 6199 0005 4889E5   		movq	%rsp, %rbp
 6200              	.LCFI133:
 6201              		.cfi_def_cfa_register 6
 6202 0008 4883EC20 		subq	$32, %rsp
 6203 000c 48897DE8 		movq	%rdi, -24(%rbp)
 6204 0010 488975E0 		movq	%rsi, -32(%rbp)
 6205              		.loc 1 1875 1
 6206 0014 64488B04 		movq	%fs:40, %rax
 6206      25280000 
 6206      00
 6207 001d 488945F8 		movq	%rax, -8(%rbp)
 6208 0021 31C0     		xorl	%eax, %eax
1876:/home/xingli/share/1205tiny/cJSON/cJSON.c ****     add_item_to_array(array, item);
 6209              		.loc 1 1876 5
 6210 0023 488B55E0 		movq	-32(%rbp), %rdx
 6211 0027 488B45E8 		movq	-24(%rbp), %rax
 6212 002b 4889D6   		movq	%rdx, %rsi
 6213 002e 4889C7   		movq	%rax, %rdi
 6214 0031 E8000000 		call	add_item_to_array
 6214      00
1877:/home/xingli/share/1205tiny/cJSON/cJSON.c **** }
 6215              		.loc 1 1877 1
 6216 0036 90       		nop
 6217 0037 488B45F8 		movq	-8(%rbp), %rax
 6218 003b 64483304 		xorq	%fs:40, %rax
 6218      25280000 
 6218      00
 6219 0044 7405     		je	.L491
 6220 0046 E8000000 		call	__stack_chk_fail@PLT
 6220      00
 6221              	.L491:
 6222 004b C9       		leave
 6223              	.LCFI134:
 6224              		.cfi_def_cfa 7, 8
 6225 004c C3       		ret
 6226              		.cfi_endproc
 6227              	.LFE50:
 6229              		.section	.text.cast_away_const,"ax",@progbits
 6231              	cast_away_const:
 6232              	.LFB51:
1878:/home/xingli/share/1205tiny/cJSON/cJSON.c **** 
1879:/home/xingli/share/1205tiny/cJSON/cJSON.c **** #if defined(__clang__) || (defined(__GNUC__)  && ((__GNUC__ > 4) || ((__GNUC__ == 4) && (__GNUC_MIN
1880:/home/xingli/share/1205tiny/cJSON/cJSON.c ****     #pragma GCC diagnostic push
1881:/home/xingli/share/1205tiny/cJSON/cJSON.c **** #endif
1882:/home/xingli/share/1205tiny/cJSON/cJSON.c **** #ifdef __GNUC__
1883:/home/xingli/share/1205tiny/cJSON/cJSON.c **** #pragma GCC diagnostic ignored "-Wcast-qual"
1884:/home/xingli/share/1205tiny/cJSON/cJSON.c **** #endif
1885:/home/xingli/share/1205tiny/cJSON/cJSON.c **** /* helper function to cast away const */
1886:/home/xingli/share/1205tiny/cJSON/cJSON.c **** static void* cast_away_const(const void* string)
1887:/home/xingli/share/1205tiny/cJSON/cJSON.c **** {
 6233              		.loc 1 1887 1
 6234              		.cfi_startproc
GAS LISTING /tmp/ccabgRKQ.s 			page 160


 6235 0000 F30F1EFA 		endbr64
 6236 0004 55       		pushq	%rbp
 6237              	.LCFI135:
 6238              		.cfi_def_cfa_offset 16
 6239              		.cfi_offset 6, -16
 6240 0005 4889E5   		movq	%rsp, %rbp
 6241              	.LCFI136:
 6242              		.cfi_def_cfa_register 6
 6243 0008 4883EC20 		subq	$32, %rsp
 6244 000c 48897DE8 		movq	%rdi, -24(%rbp)
 6245              		.loc 1 1887 1
 6246 0010 64488B04 		movq	%fs:40, %rax
 6246      25280000 
 6246      00
 6247 0019 488945F8 		movq	%rax, -8(%rbp)
 6248 001d 31C0     		xorl	%eax, %eax
1888:/home/xingli/share/1205tiny/cJSON/cJSON.c ****     return (void*)string;
 6249              		.loc 1 1888 12
 6250 001f 488B45E8 		movq	-24(%rbp), %rax
1889:/home/xingli/share/1205tiny/cJSON/cJSON.c **** }
 6251              		.loc 1 1889 1
 6252 0023 488B55F8 		movq	-8(%rbp), %rdx
 6253 0027 64483314 		xorq	%fs:40, %rdx
 6253      25280000 
 6253      00
 6254 0030 7405     		je	.L494
 6255 0032 E8000000 		call	__stack_chk_fail@PLT
 6255      00
 6256              	.L494:
 6257 0037 C9       		leave
 6258              	.LCFI137:
 6259              		.cfi_def_cfa 7, 8
 6260 0038 C3       		ret
 6261              		.cfi_endproc
 6262              	.LFE51:
 6264              		.section	.text.add_item_to_object,"ax",@progbits
 6266              	add_item_to_object:
 6267              	.LFB52:
1890:/home/xingli/share/1205tiny/cJSON/cJSON.c **** #if defined(__clang__) || (defined(__GNUC__)  && ((__GNUC__ > 4) || ((__GNUC__ == 4) && (__GNUC_MIN
1891:/home/xingli/share/1205tiny/cJSON/cJSON.c ****     #pragma GCC diagnostic pop
1892:/home/xingli/share/1205tiny/cJSON/cJSON.c **** #endif
1893:/home/xingli/share/1205tiny/cJSON/cJSON.c **** 
1894:/home/xingli/share/1205tiny/cJSON/cJSON.c **** 
1895:/home/xingli/share/1205tiny/cJSON/cJSON.c **** static cJSON_bool add_item_to_object(cJSON * const object, const char * const string, cJSON * const
1896:/home/xingli/share/1205tiny/cJSON/cJSON.c **** {
 6268              		.loc 1 1896 1
 6269              		.cfi_startproc
 6270 0000 F30F1EFA 		endbr64
 6271 0004 55       		pushq	%rbp
 6272              	.LCFI138:
 6273              		.cfi_def_cfa_offset 16
 6274              		.cfi_offset 6, -16
 6275 0005 4889E5   		movq	%rsp, %rbp
 6276              	.LCFI139:
 6277              		.cfi_def_cfa_register 6
 6278 0008 4883EC50 		subq	$80, %rsp
 6279 000c 48897DD8 		movq	%rdi, -40(%rbp)
GAS LISTING /tmp/ccabgRKQ.s 			page 161


 6280 0010 488975D0 		movq	%rsi, -48(%rbp)
 6281 0014 488955C8 		movq	%rdx, -56(%rbp)
 6282 0018 48894DC0 		movq	%rcx, -64(%rbp)
 6283 001c 448945BC 		movl	%r8d, -68(%rbp)
 6284              		.loc 1 1896 1
 6285 0020 64488B04 		movq	%fs:40, %rax
 6285      25280000 
 6285      00
 6286 0029 488945F8 		movq	%rax, -8(%rbp)
 6287 002d 31C0     		xorl	%eax, %eax
1897:/home/xingli/share/1205tiny/cJSON/cJSON.c ****     char *new_key = NULL;
 6288              		.loc 1 1897 11
 6289 002f 48C745F0 		movq	$0, -16(%rbp)
 6289      00000000 
1898:/home/xingli/share/1205tiny/cJSON/cJSON.c ****     int new_type = cJSON_Invalid;
 6290              		.loc 1 1898 9
 6291 0037 C745EC00 		movl	$0, -20(%rbp)
 6291      000000
1899:/home/xingli/share/1205tiny/cJSON/cJSON.c **** 
1900:/home/xingli/share/1205tiny/cJSON/cJSON.c ****     if ((object == NULL) || (string == NULL) || (item == NULL))
 6292              		.loc 1 1900 8
 6293 003e 48837DD8 		cmpq	$0, -40(%rbp)
 6293      00
 6294 0043 740E     		je	.L496
 6295              		.loc 1 1900 26 discriminator 1
 6296 0045 48837DD0 		cmpq	$0, -48(%rbp)
 6296      00
 6297 004a 7407     		je	.L496
 6298              		.loc 1 1900 46 discriminator 2
 6299 004c 48837DC8 		cmpq	$0, -56(%rbp)
 6299      00
 6300 0051 750A     		jne	.L497
 6301              	.L496:
1901:/home/xingli/share/1205tiny/cJSON/cJSON.c ****     {
1902:/home/xingli/share/1205tiny/cJSON/cJSON.c ****         return false;
 6302              		.loc 1 1902 16
 6303 0053 B8000000 		movl	$0, %eax
 6303      00
 6304 0058 E9B20000 		jmp	.L498
 6304      00
 6305              	.L497:
1903:/home/xingli/share/1205tiny/cJSON/cJSON.c ****     }
1904:/home/xingli/share/1205tiny/cJSON/cJSON.c **** 
1905:/home/xingli/share/1205tiny/cJSON/cJSON.c ****     if (constant_key)
 6306              		.loc 1 1905 8
 6307 005d 837DBC00 		cmpl	$0, -68(%rbp)
 6308 0061 741F     		je	.L499
1906:/home/xingli/share/1205tiny/cJSON/cJSON.c ****     {
1907:/home/xingli/share/1205tiny/cJSON/cJSON.c ****         new_key = (char*)cast_away_const(string);
 6309              		.loc 1 1907 26
 6310 0063 488B45D0 		movq	-48(%rbp), %rax
 6311 0067 4889C7   		movq	%rax, %rdi
 6312 006a E8000000 		call	cast_away_const
 6312      00
 6313 006f 488945F0 		movq	%rax, -16(%rbp)
1908:/home/xingli/share/1205tiny/cJSON/cJSON.c ****         new_type = item->type | cJSON_StringIsConst;
 6314              		.loc 1 1908 24
GAS LISTING /tmp/ccabgRKQ.s 			page 162


 6315 0073 488B45C8 		movq	-56(%rbp), %rax
 6316 0077 8B4018   		movl	24(%rax), %eax
 6317              		.loc 1 1908 18
 6318 007a 80CC02   		orb	$2, %ah
 6319 007d 8945EC   		movl	%eax, -20(%rbp)
 6320 0080 EB32     		jmp	.L500
 6321              	.L499:
1909:/home/xingli/share/1205tiny/cJSON/cJSON.c ****     }
1910:/home/xingli/share/1205tiny/cJSON/cJSON.c ****     else
1911:/home/xingli/share/1205tiny/cJSON/cJSON.c ****     {
1912:/home/xingli/share/1205tiny/cJSON/cJSON.c ****         new_key = (char*)cJSON_strdup((const unsigned char*)string, hooks);
 6322              		.loc 1 1912 26
 6323 0082 488B55C0 		movq	-64(%rbp), %rdx
 6324 0086 488B45D0 		movq	-48(%rbp), %rax
 6325 008a 4889D6   		movq	%rdx, %rsi
 6326 008d 4889C7   		movq	%rax, %rdi
 6327 0090 E8000000 		call	cJSON_strdup
 6327      00
 6328 0095 488945F0 		movq	%rax, -16(%rbp)
1913:/home/xingli/share/1205tiny/cJSON/cJSON.c ****         if (new_key == NULL)
 6329              		.loc 1 1913 12
 6330 0099 48837DF0 		cmpq	$0, -16(%rbp)
 6330      00
 6331 009e 7507     		jne	.L501
1914:/home/xingli/share/1205tiny/cJSON/cJSON.c ****         {
1915:/home/xingli/share/1205tiny/cJSON/cJSON.c ****             return false;
 6332              		.loc 1 1915 20
 6333 00a0 B8000000 		movl	$0, %eax
 6333      00
 6334 00a5 EB68     		jmp	.L498
 6335              	.L501:
1916:/home/xingli/share/1205tiny/cJSON/cJSON.c ****         }
1917:/home/xingli/share/1205tiny/cJSON/cJSON.c **** 
1918:/home/xingli/share/1205tiny/cJSON/cJSON.c ****         new_type = item->type & ~cJSON_StringIsConst;
 6336              		.loc 1 1918 24
 6337 00a7 488B45C8 		movq	-56(%rbp), %rax
 6338 00ab 8B4018   		movl	24(%rax), %eax
 6339              		.loc 1 1918 18
 6340 00ae 80E4FD   		andb	$-3, %ah
 6341 00b1 8945EC   		movl	%eax, -20(%rbp)
 6342              	.L500:
1919:/home/xingli/share/1205tiny/cJSON/cJSON.c ****     }
1920:/home/xingli/share/1205tiny/cJSON/cJSON.c **** 
1921:/home/xingli/share/1205tiny/cJSON/cJSON.c ****     if (!(item->type & cJSON_StringIsConst) && (item->string != NULL))
 6343              		.loc 1 1921 15
 6344 00b4 488B45C8 		movq	-56(%rbp), %rax
 6345 00b8 8B4018   		movl	24(%rax), %eax
 6346              		.loc 1 1921 22
 6347 00bb 25000200 		andl	$512, %eax
 6347      00
 6348              		.loc 1 1921 8
 6349 00c0 85C0     		testl	%eax, %eax
 6350 00c2 7522     		jne	.L502
 6351              		.loc 1 1921 53 discriminator 1
 6352 00c4 488B45C8 		movq	-56(%rbp), %rax
 6353 00c8 488B4038 		movq	56(%rax), %rax
 6354              		.loc 1 1921 45 discriminator 1
GAS LISTING /tmp/ccabgRKQ.s 			page 163


 6355 00cc 4885C0   		testq	%rax, %rax
 6356 00cf 7415     		je	.L502
1922:/home/xingli/share/1205tiny/cJSON/cJSON.c ****     {
1923:/home/xingli/share/1205tiny/cJSON/cJSON.c ****         hooks->deallocate(item->string);
 6357              		.loc 1 1923 14
 6358 00d1 488B45C0 		movq	-64(%rbp), %rax
 6359 00d5 488B5008 		movq	8(%rax), %rdx
 6360              		.loc 1 1923 31
 6361 00d9 488B45C8 		movq	-56(%rbp), %rax
 6362 00dd 488B4038 		movq	56(%rax), %rax
 6363              		.loc 1 1923 9
 6364 00e1 4889C7   		movq	%rax, %rdi
 6365 00e4 FFD2     		call	*%rdx
 6366              	.LVL20:
 6367              	.L502:
1924:/home/xingli/share/1205tiny/cJSON/cJSON.c ****     }
1925:/home/xingli/share/1205tiny/cJSON/cJSON.c **** 
1926:/home/xingli/share/1205tiny/cJSON/cJSON.c ****     item->string = new_key;
 6368              		.loc 1 1926 18
 6369 00e6 488B45C8 		movq	-56(%rbp), %rax
 6370 00ea 488B55F0 		movq	-16(%rbp), %rdx
 6371 00ee 48895038 		movq	%rdx, 56(%rax)
1927:/home/xingli/share/1205tiny/cJSON/cJSON.c ****     item->type = new_type;
 6372              		.loc 1 1927 16
 6373 00f2 488B45C8 		movq	-56(%rbp), %rax
 6374 00f6 8B55EC   		movl	-20(%rbp), %edx
 6375 00f9 895018   		movl	%edx, 24(%rax)
1928:/home/xingli/share/1205tiny/cJSON/cJSON.c **** 
1929:/home/xingli/share/1205tiny/cJSON/cJSON.c ****     return add_item_to_array(object, item);
 6376              		.loc 1 1929 12
 6377 00fc 488B55C8 		movq	-56(%rbp), %rdx
 6378 0100 488B45D8 		movq	-40(%rbp), %rax
 6379 0104 4889D6   		movq	%rdx, %rsi
 6380 0107 4889C7   		movq	%rax, %rdi
 6381 010a E8000000 		call	add_item_to_array
 6381      00
 6382              	.L498:
1930:/home/xingli/share/1205tiny/cJSON/cJSON.c **** }
 6383              		.loc 1 1930 1
 6384 010f 488B4DF8 		movq	-8(%rbp), %rcx
 6385 0113 6448330C 		xorq	%fs:40, %rcx
 6385      25280000 
 6385      00
 6386 011c 7405     		je	.L503
 6387 011e E8000000 		call	__stack_chk_fail@PLT
 6387      00
 6388              	.L503:
 6389 0123 C9       		leave
 6390              	.LCFI140:
 6391              		.cfi_def_cfa 7, 8
 6392 0124 C3       		ret
 6393              		.cfi_endproc
 6394              	.LFE52:
 6396              		.section	.text.cJSON_AddItemToObject,"ax",@progbits
 6397              		.globl	cJSON_AddItemToObject
 6399              	cJSON_AddItemToObject:
 6400              	.LFB53:
GAS LISTING /tmp/ccabgRKQ.s 			page 164


1931:/home/xingli/share/1205tiny/cJSON/cJSON.c **** 
1932:/home/xingli/share/1205tiny/cJSON/cJSON.c **** CJSON_PUBLIC(void) cJSON_AddItemToObject(cJSON *object, const char *string, cJSON *item)
1933:/home/xingli/share/1205tiny/cJSON/cJSON.c **** {
 6401              		.loc 1 1933 1
 6402              		.cfi_startproc
 6403 0000 F30F1EFA 		endbr64
 6404 0004 55       		pushq	%rbp
 6405              	.LCFI141:
 6406              		.cfi_def_cfa_offset 16
 6407              		.cfi_offset 6, -16
 6408 0005 4889E5   		movq	%rsp, %rbp
 6409              	.LCFI142:
 6410              		.cfi_def_cfa_register 6
 6411 0008 4883EC30 		subq	$48, %rsp
 6412 000c 48897DE8 		movq	%rdi, -24(%rbp)
 6413 0010 488975E0 		movq	%rsi, -32(%rbp)
 6414 0014 488955D8 		movq	%rdx, -40(%rbp)
 6415              		.loc 1 1933 1
 6416 0018 64488B04 		movq	%fs:40, %rax
 6416      25280000 
 6416      00
 6417 0021 488945F8 		movq	%rax, -8(%rbp)
 6418 0025 31C0     		xorl	%eax, %eax
1934:/home/xingli/share/1205tiny/cJSON/cJSON.c ****     add_item_to_object(object, string, item, &global_hooks, false);
 6419              		.loc 1 1934 5
 6420 0027 488B55D8 		movq	-40(%rbp), %rdx
 6421 002b 488B75E0 		movq	-32(%rbp), %rsi
 6422 002f 488B45E8 		movq	-24(%rbp), %rax
 6423 0033 41B80000 		movl	$0, %r8d
 6423      0000
 6424 0039 488D0D00 		leaq	global_hooks(%rip), %rcx
 6424      000000
 6425 0040 4889C7   		movq	%rax, %rdi
 6426 0043 E8000000 		call	add_item_to_object
 6426      00
1935:/home/xingli/share/1205tiny/cJSON/cJSON.c **** }
 6427              		.loc 1 1935 1
 6428 0048 90       		nop
 6429 0049 488B45F8 		movq	-8(%rbp), %rax
 6430 004d 64483304 		xorq	%fs:40, %rax
 6430      25280000 
 6430      00
 6431 0056 7405     		je	.L505
 6432 0058 E8000000 		call	__stack_chk_fail@PLT
 6432      00
 6433              	.L505:
 6434 005d C9       		leave
 6435              	.LCFI143:
 6436              		.cfi_def_cfa 7, 8
 6437 005e C3       		ret
 6438              		.cfi_endproc
 6439              	.LFE53:
 6441              		.section	.text.cJSON_AddItemToObjectCS,"ax",@progbits
 6442              		.globl	cJSON_AddItemToObjectCS
 6444              	cJSON_AddItemToObjectCS:
 6445              	.LFB54:
1936:/home/xingli/share/1205tiny/cJSON/cJSON.c **** 
GAS LISTING /tmp/ccabgRKQ.s 			page 165


1937:/home/xingli/share/1205tiny/cJSON/cJSON.c **** /* Add an item to an object with constant string as key */
1938:/home/xingli/share/1205tiny/cJSON/cJSON.c **** CJSON_PUBLIC(void) cJSON_AddItemToObjectCS(cJSON *object, const char *string, cJSON *item)
1939:/home/xingli/share/1205tiny/cJSON/cJSON.c **** {
 6446              		.loc 1 1939 1
 6447              		.cfi_startproc
 6448 0000 F30F1EFA 		endbr64
 6449 0004 55       		pushq	%rbp
 6450              	.LCFI144:
 6451              		.cfi_def_cfa_offset 16
 6452              		.cfi_offset 6, -16
 6453 0005 4889E5   		movq	%rsp, %rbp
 6454              	.LCFI145:
 6455              		.cfi_def_cfa_register 6
 6456 0008 4883EC30 		subq	$48, %rsp
 6457 000c 48897DE8 		movq	%rdi, -24(%rbp)
 6458 0010 488975E0 		movq	%rsi, -32(%rbp)
 6459 0014 488955D8 		movq	%rdx, -40(%rbp)
 6460              		.loc 1 1939 1
 6461 0018 64488B04 		movq	%fs:40, %rax
 6461      25280000 
 6461      00
 6462 0021 488945F8 		movq	%rax, -8(%rbp)
 6463 0025 31C0     		xorl	%eax, %eax
1940:/home/xingli/share/1205tiny/cJSON/cJSON.c ****     add_item_to_object(object, string, item, &global_hooks, true);
 6464              		.loc 1 1940 5
 6465 0027 488B55D8 		movq	-40(%rbp), %rdx
 6466 002b 488B75E0 		movq	-32(%rbp), %rsi
 6467 002f 488B45E8 		movq	-24(%rbp), %rax
 6468 0033 41B80100 		movl	$1, %r8d
 6468      0000
 6469 0039 488D0D00 		leaq	global_hooks(%rip), %rcx
 6469      000000
 6470 0040 4889C7   		movq	%rax, %rdi
 6471 0043 E8000000 		call	add_item_to_object
 6471      00
1941:/home/xingli/share/1205tiny/cJSON/cJSON.c **** }
 6472              		.loc 1 1941 1
 6473 0048 90       		nop
 6474 0049 488B45F8 		movq	-8(%rbp), %rax
 6475 004d 64483304 		xorq	%fs:40, %rax
 6475      25280000 
 6475      00
 6476 0056 7405     		je	.L507
 6477 0058 E8000000 		call	__stack_chk_fail@PLT
 6477      00
 6478              	.L507:
 6479 005d C9       		leave
 6480              	.LCFI146:
 6481              		.cfi_def_cfa 7, 8
 6482 005e C3       		ret
 6483              		.cfi_endproc
 6484              	.LFE54:
 6486              		.section	.text.cJSON_AddItemReferenceToArray,"ax",@progbits
 6487              		.globl	cJSON_AddItemReferenceToArray
 6489              	cJSON_AddItemReferenceToArray:
 6490              	.LFB55:
1942:/home/xingli/share/1205tiny/cJSON/cJSON.c **** 
GAS LISTING /tmp/ccabgRKQ.s 			page 166


1943:/home/xingli/share/1205tiny/cJSON/cJSON.c **** CJSON_PUBLIC(void) cJSON_AddItemReferenceToArray(cJSON *array, cJSON *item)
1944:/home/xingli/share/1205tiny/cJSON/cJSON.c **** {
 6491              		.loc 1 1944 1
 6492              		.cfi_startproc
 6493 0000 F30F1EFA 		endbr64
 6494 0004 55       		pushq	%rbp
 6495              	.LCFI147:
 6496              		.cfi_def_cfa_offset 16
 6497              		.cfi_offset 6, -16
 6498 0005 4889E5   		movq	%rsp, %rbp
 6499              	.LCFI148:
 6500              		.cfi_def_cfa_register 6
 6501 0008 4883EC20 		subq	$32, %rsp
 6502 000c 48897DE8 		movq	%rdi, -24(%rbp)
 6503 0010 488975E0 		movq	%rsi, -32(%rbp)
 6504              		.loc 1 1944 1
 6505 0014 64488B04 		movq	%fs:40, %rax
 6505      25280000 
 6505      00
 6506 001d 488945F8 		movq	%rax, -8(%rbp)
 6507 0021 31C0     		xorl	%eax, %eax
1945:/home/xingli/share/1205tiny/cJSON/cJSON.c ****     if (array == NULL)
 6508              		.loc 1 1945 8
 6509 0023 48837DE8 		cmpq	$0, -24(%rbp)
 6509      00
 6510 0028 7427     		je	.L512
1946:/home/xingli/share/1205tiny/cJSON/cJSON.c ****     {
1947:/home/xingli/share/1205tiny/cJSON/cJSON.c ****         return;
1948:/home/xingli/share/1205tiny/cJSON/cJSON.c ****     }
1949:/home/xingli/share/1205tiny/cJSON/cJSON.c **** 
1950:/home/xingli/share/1205tiny/cJSON/cJSON.c ****     add_item_to_array(array, create_reference(item, &global_hooks));
 6511              		.loc 1 1950 5
 6512 002a 488B45E0 		movq	-32(%rbp), %rax
 6513 002e 488D3500 		leaq	global_hooks(%rip), %rsi
 6513      000000
 6514 0035 4889C7   		movq	%rax, %rdi
 6515 0038 E8000000 		call	create_reference
 6515      00
 6516 003d 4889C2   		movq	%rax, %rdx
 6517 0040 488B45E8 		movq	-24(%rbp), %rax
 6518 0044 4889D6   		movq	%rdx, %rsi
 6519 0047 4889C7   		movq	%rax, %rdi
 6520 004a E8000000 		call	add_item_to_array
 6520      00
 6521 004f EB01     		jmp	.L508
 6522              	.L512:
1947:/home/xingli/share/1205tiny/cJSON/cJSON.c ****     }
 6523              		.loc 1 1947 9
 6524 0051 90       		nop
 6525              	.L508:
1951:/home/xingli/share/1205tiny/cJSON/cJSON.c **** }
 6526              		.loc 1 1951 1
 6527 0052 488B45F8 		movq	-8(%rbp), %rax
 6528 0056 64483304 		xorq	%fs:40, %rax
 6528      25280000 
 6528      00
 6529 005f 7405     		je	.L511
GAS LISTING /tmp/ccabgRKQ.s 			page 167


 6530 0061 E8000000 		call	__stack_chk_fail@PLT
 6530      00
 6531              	.L511:
 6532 0066 C9       		leave
 6533              	.LCFI149:
 6534              		.cfi_def_cfa 7, 8
 6535 0067 C3       		ret
 6536              		.cfi_endproc
 6537              	.LFE55:
 6539              		.section	.text.cJSON_AddItemReferenceToObject,"ax",@progbits
 6540              		.globl	cJSON_AddItemReferenceToObject
 6542              	cJSON_AddItemReferenceToObject:
 6543              	.LFB56:
1952:/home/xingli/share/1205tiny/cJSON/cJSON.c **** 
1953:/home/xingli/share/1205tiny/cJSON/cJSON.c **** CJSON_PUBLIC(void) cJSON_AddItemReferenceToObject(cJSON *object, const char *string, cJSON *item)
1954:/home/xingli/share/1205tiny/cJSON/cJSON.c **** {
 6544              		.loc 1 1954 1
 6545              		.cfi_startproc
 6546 0000 F30F1EFA 		endbr64
 6547 0004 55       		pushq	%rbp
 6548              	.LCFI150:
 6549              		.cfi_def_cfa_offset 16
 6550              		.cfi_offset 6, -16
 6551 0005 4889E5   		movq	%rsp, %rbp
 6552              	.LCFI151:
 6553              		.cfi_def_cfa_register 6
 6554 0008 4883EC30 		subq	$48, %rsp
 6555 000c 48897DE8 		movq	%rdi, -24(%rbp)
 6556 0010 488975E0 		movq	%rsi, -32(%rbp)
 6557 0014 488955D8 		movq	%rdx, -40(%rbp)
 6558              		.loc 1 1954 1
 6559 0018 64488B04 		movq	%fs:40, %rax
 6559      25280000 
 6559      00
 6560 0021 488945F8 		movq	%rax, -8(%rbp)
 6561 0025 31C0     		xorl	%eax, %eax
1955:/home/xingli/share/1205tiny/cJSON/cJSON.c ****     if ((object == NULL) || (string == NULL))
 6562              		.loc 1 1955 8
 6563 0027 48837DE8 		cmpq	$0, -24(%rbp)
 6563      00
 6564 002c 743C     		je	.L518
 6565              		.loc 1 1955 26 discriminator 1
 6566 002e 48837DE0 		cmpq	$0, -32(%rbp)
 6566      00
 6567 0033 7435     		je	.L518
1956:/home/xingli/share/1205tiny/cJSON/cJSON.c ****     {
1957:/home/xingli/share/1205tiny/cJSON/cJSON.c ****         return;
1958:/home/xingli/share/1205tiny/cJSON/cJSON.c ****     }
1959:/home/xingli/share/1205tiny/cJSON/cJSON.c **** 
1960:/home/xingli/share/1205tiny/cJSON/cJSON.c ****     add_item_to_object(object, string, create_reference(item, &global_hooks), &global_hooks, false)
 6568              		.loc 1 1960 5
 6569 0035 488B45D8 		movq	-40(%rbp), %rax
 6570 0039 488D3500 		leaq	global_hooks(%rip), %rsi
 6570      000000
 6571 0040 4889C7   		movq	%rax, %rdi
 6572 0043 E8000000 		call	create_reference
 6572      00
GAS LISTING /tmp/ccabgRKQ.s 			page 168


 6573 0048 4889C2   		movq	%rax, %rdx
 6574 004b 488B75E0 		movq	-32(%rbp), %rsi
 6575 004f 488B45E8 		movq	-24(%rbp), %rax
 6576 0053 41B80000 		movl	$0, %r8d
 6576      0000
 6577 0059 488D0D00 		leaq	global_hooks(%rip), %rcx
 6577      000000
 6578 0060 4889C7   		movq	%rax, %rdi
 6579 0063 E8000000 		call	add_item_to_object
 6579      00
 6580 0068 EB01     		jmp	.L513
 6581              	.L518:
1957:/home/xingli/share/1205tiny/cJSON/cJSON.c ****     }
 6582              		.loc 1 1957 9
 6583 006a 90       		nop
 6584              	.L513:
1961:/home/xingli/share/1205tiny/cJSON/cJSON.c **** }
 6585              		.loc 1 1961 1
 6586 006b 488B45F8 		movq	-8(%rbp), %rax
 6587 006f 64483304 		xorq	%fs:40, %rax
 6587      25280000 
 6587      00
 6588 0078 7405     		je	.L517
 6589 007a E8000000 		call	__stack_chk_fail@PLT
 6589      00
 6590              	.L517:
 6591 007f C9       		leave
 6592              	.LCFI152:
 6593              		.cfi_def_cfa 7, 8
 6594 0080 C3       		ret
 6595              		.cfi_endproc
 6596              	.LFE56:
 6598              		.section	.text.cJSON_AddNullToObject,"ax",@progbits
 6599              		.globl	cJSON_AddNullToObject
 6601              	cJSON_AddNullToObject:
 6602              	.LFB57:
1962:/home/xingli/share/1205tiny/cJSON/cJSON.c **** 
1963:/home/xingli/share/1205tiny/cJSON/cJSON.c **** CJSON_PUBLIC(cJSON*) cJSON_AddNullToObject(cJSON * const object, const char * const name)
1964:/home/xingli/share/1205tiny/cJSON/cJSON.c **** {
 6603              		.loc 1 1964 1
 6604              		.cfi_startproc
 6605 0000 F30F1EFA 		endbr64
 6606 0004 55       		pushq	%rbp
 6607              	.LCFI153:
 6608              		.cfi_def_cfa_offset 16
 6609              		.cfi_offset 6, -16
 6610 0005 4889E5   		movq	%rsp, %rbp
 6611              	.LCFI154:
 6612              		.cfi_def_cfa_register 6
 6613 0008 4883EC20 		subq	$32, %rsp
 6614 000c 48897DE8 		movq	%rdi, -24(%rbp)
 6615 0010 488975E0 		movq	%rsi, -32(%rbp)
 6616              		.loc 1 1964 1
 6617 0014 64488B04 		movq	%fs:40, %rax
 6617      25280000 
 6617      00
 6618 001d 488945F8 		movq	%rax, -8(%rbp)
GAS LISTING /tmp/ccabgRKQ.s 			page 169


 6619 0021 31C0     		xorl	%eax, %eax
1965:/home/xingli/share/1205tiny/cJSON/cJSON.c ****     cJSON *null = cJSON_CreateNull();
 6620              		.loc 1 1965 19
 6621 0023 E8000000 		call	cJSON_CreateNull
 6621      00
 6622 0028 488945F0 		movq	%rax, -16(%rbp)
1966:/home/xingli/share/1205tiny/cJSON/cJSON.c ****     if (add_item_to_object(object, name, null, &global_hooks, false))
 6623              		.loc 1 1966 9
 6624 002c 488B55F0 		movq	-16(%rbp), %rdx
 6625 0030 488B75E0 		movq	-32(%rbp), %rsi
 6626 0034 488B45E8 		movq	-24(%rbp), %rax
 6627 0038 41B80000 		movl	$0, %r8d
 6627      0000
 6628 003e 488D0D00 		leaq	global_hooks(%rip), %rcx
 6628      000000
 6629 0045 4889C7   		movq	%rax, %rdi
 6630 0048 E8000000 		call	add_item_to_object
 6630      00
 6631              		.loc 1 1966 8
 6632 004d 85C0     		testl	%eax, %eax
 6633 004f 7406     		je	.L520
1967:/home/xingli/share/1205tiny/cJSON/cJSON.c ****     {
1968:/home/xingli/share/1205tiny/cJSON/cJSON.c ****         return null;
 6634              		.loc 1 1968 16
 6635 0051 488B45F0 		movq	-16(%rbp), %rax
 6636 0055 EB11     		jmp	.L521
 6637              	.L520:
1969:/home/xingli/share/1205tiny/cJSON/cJSON.c ****     }
1970:/home/xingli/share/1205tiny/cJSON/cJSON.c **** 
1971:/home/xingli/share/1205tiny/cJSON/cJSON.c ****     cJSON_Delete(null);
 6638              		.loc 1 1971 5
 6639 0057 488B45F0 		movq	-16(%rbp), %rax
 6640 005b 4889C7   		movq	%rax, %rdi
 6641 005e E8000000 		call	cJSON_Delete
 6641      00
1972:/home/xingli/share/1205tiny/cJSON/cJSON.c ****     return NULL;
 6642              		.loc 1 1972 12
 6643 0063 B8000000 		movl	$0, %eax
 6643      00
 6644              	.L521:
1973:/home/xingli/share/1205tiny/cJSON/cJSON.c **** }
 6645              		.loc 1 1973 1
 6646 0068 488B4DF8 		movq	-8(%rbp), %rcx
 6647 006c 6448330C 		xorq	%fs:40, %rcx
 6647      25280000 
 6647      00
 6648 0075 7405     		je	.L522
 6649 0077 E8000000 		call	__stack_chk_fail@PLT
 6649      00
 6650              	.L522:
 6651 007c C9       		leave
 6652              	.LCFI155:
 6653              		.cfi_def_cfa 7, 8
 6654 007d C3       		ret
 6655              		.cfi_endproc
 6656              	.LFE57:
 6658              		.section	.text.cJSON_AddTrueToObject,"ax",@progbits
GAS LISTING /tmp/ccabgRKQ.s 			page 170


 6659              		.globl	cJSON_AddTrueToObject
 6661              	cJSON_AddTrueToObject:
 6662              	.LFB58:
1974:/home/xingli/share/1205tiny/cJSON/cJSON.c **** 
1975:/home/xingli/share/1205tiny/cJSON/cJSON.c **** CJSON_PUBLIC(cJSON*) cJSON_AddTrueToObject(cJSON * const object, const char * const name)
1976:/home/xingli/share/1205tiny/cJSON/cJSON.c **** {
 6663              		.loc 1 1976 1
 6664              		.cfi_startproc
 6665 0000 F30F1EFA 		endbr64
 6666 0004 55       		pushq	%rbp
 6667              	.LCFI156:
 6668              		.cfi_def_cfa_offset 16
 6669              		.cfi_offset 6, -16
 6670 0005 4889E5   		movq	%rsp, %rbp
 6671              	.LCFI157:
 6672              		.cfi_def_cfa_register 6
 6673 0008 4883EC20 		subq	$32, %rsp
 6674 000c 48897DE8 		movq	%rdi, -24(%rbp)
 6675 0010 488975E0 		movq	%rsi, -32(%rbp)
 6676              		.loc 1 1976 1
 6677 0014 64488B04 		movq	%fs:40, %rax
 6677      25280000 
 6677      00
 6678 001d 488945F8 		movq	%rax, -8(%rbp)
 6679 0021 31C0     		xorl	%eax, %eax
1977:/home/xingli/share/1205tiny/cJSON/cJSON.c ****     cJSON *true_item = cJSON_CreateTrue();
 6680              		.loc 1 1977 24
 6681 0023 E8000000 		call	cJSON_CreateTrue
 6681      00
 6682 0028 488945F0 		movq	%rax, -16(%rbp)
1978:/home/xingli/share/1205tiny/cJSON/cJSON.c ****     if (add_item_to_object(object, name, true_item, &global_hooks, false))
 6683              		.loc 1 1978 9
 6684 002c 488B55F0 		movq	-16(%rbp), %rdx
 6685 0030 488B75E0 		movq	-32(%rbp), %rsi
 6686 0034 488B45E8 		movq	-24(%rbp), %rax
 6687 0038 41B80000 		movl	$0, %r8d
 6687      0000
 6688 003e 488D0D00 		leaq	global_hooks(%rip), %rcx
 6688      000000
 6689 0045 4889C7   		movq	%rax, %rdi
 6690 0048 E8000000 		call	add_item_to_object
 6690      00
 6691              		.loc 1 1978 8
 6692 004d 85C0     		testl	%eax, %eax
 6693 004f 7406     		je	.L524
1979:/home/xingli/share/1205tiny/cJSON/cJSON.c ****     {
1980:/home/xingli/share/1205tiny/cJSON/cJSON.c ****         return true_item;
 6694              		.loc 1 1980 16
 6695 0051 488B45F0 		movq	-16(%rbp), %rax
 6696 0055 EB11     		jmp	.L525
 6697              	.L524:
1981:/home/xingli/share/1205tiny/cJSON/cJSON.c ****     }
1982:/home/xingli/share/1205tiny/cJSON/cJSON.c **** 
1983:/home/xingli/share/1205tiny/cJSON/cJSON.c ****     cJSON_Delete(true_item);
 6698              		.loc 1 1983 5
 6699 0057 488B45F0 		movq	-16(%rbp), %rax
 6700 005b 4889C7   		movq	%rax, %rdi
GAS LISTING /tmp/ccabgRKQ.s 			page 171


 6701 005e E8000000 		call	cJSON_Delete
 6701      00
1984:/home/xingli/share/1205tiny/cJSON/cJSON.c ****     return NULL;
 6702              		.loc 1 1984 12
 6703 0063 B8000000 		movl	$0, %eax
 6703      00
 6704              	.L525:
1985:/home/xingli/share/1205tiny/cJSON/cJSON.c **** }
 6705              		.loc 1 1985 1
 6706 0068 488B4DF8 		movq	-8(%rbp), %rcx
 6707 006c 6448330C 		xorq	%fs:40, %rcx
 6707      25280000 
 6707      00
 6708 0075 7405     		je	.L526
 6709 0077 E8000000 		call	__stack_chk_fail@PLT
 6709      00
 6710              	.L526:
 6711 007c C9       		leave
 6712              	.LCFI158:
 6713              		.cfi_def_cfa 7, 8
 6714 007d C3       		ret
 6715              		.cfi_endproc
 6716              	.LFE58:
 6718              		.section	.text.cJSON_AddFalseToObject,"ax",@progbits
 6719              		.globl	cJSON_AddFalseToObject
 6721              	cJSON_AddFalseToObject:
 6722              	.LFB59:
1986:/home/xingli/share/1205tiny/cJSON/cJSON.c **** 
1987:/home/xingli/share/1205tiny/cJSON/cJSON.c **** CJSON_PUBLIC(cJSON*) cJSON_AddFalseToObject(cJSON * const object, const char * const name)
1988:/home/xingli/share/1205tiny/cJSON/cJSON.c **** {
 6723              		.loc 1 1988 1
 6724              		.cfi_startproc
 6725 0000 F30F1EFA 		endbr64
 6726 0004 55       		pushq	%rbp
 6727              	.LCFI159:
 6728              		.cfi_def_cfa_offset 16
 6729              		.cfi_offset 6, -16
 6730 0005 4889E5   		movq	%rsp, %rbp
 6731              	.LCFI160:
 6732              		.cfi_def_cfa_register 6
 6733 0008 4883EC20 		subq	$32, %rsp
 6734 000c 48897DE8 		movq	%rdi, -24(%rbp)
 6735 0010 488975E0 		movq	%rsi, -32(%rbp)
 6736              		.loc 1 1988 1
 6737 0014 64488B04 		movq	%fs:40, %rax
 6737      25280000 
 6737      00
 6738 001d 488945F8 		movq	%rax, -8(%rbp)
 6739 0021 31C0     		xorl	%eax, %eax
1989:/home/xingli/share/1205tiny/cJSON/cJSON.c ****     cJSON *false_item = cJSON_CreateFalse();
 6740              		.loc 1 1989 25
 6741 0023 E8000000 		call	cJSON_CreateFalse
 6741      00
 6742 0028 488945F0 		movq	%rax, -16(%rbp)
1990:/home/xingli/share/1205tiny/cJSON/cJSON.c ****     if (add_item_to_object(object, name, false_item, &global_hooks, false))
 6743              		.loc 1 1990 9
 6744 002c 488B55F0 		movq	-16(%rbp), %rdx
GAS LISTING /tmp/ccabgRKQ.s 			page 172


 6745 0030 488B75E0 		movq	-32(%rbp), %rsi
 6746 0034 488B45E8 		movq	-24(%rbp), %rax
 6747 0038 41B80000 		movl	$0, %r8d
 6747      0000
 6748 003e 488D0D00 		leaq	global_hooks(%rip), %rcx
 6748      000000
 6749 0045 4889C7   		movq	%rax, %rdi
 6750 0048 E8000000 		call	add_item_to_object
 6750      00
 6751              		.loc 1 1990 8
 6752 004d 85C0     		testl	%eax, %eax
 6753 004f 7406     		je	.L528
1991:/home/xingli/share/1205tiny/cJSON/cJSON.c ****     {
1992:/home/xingli/share/1205tiny/cJSON/cJSON.c ****         return false_item;
 6754              		.loc 1 1992 16
 6755 0051 488B45F0 		movq	-16(%rbp), %rax
 6756 0055 EB11     		jmp	.L529
 6757              	.L528:
1993:/home/xingli/share/1205tiny/cJSON/cJSON.c ****     }
1994:/home/xingli/share/1205tiny/cJSON/cJSON.c **** 
1995:/home/xingli/share/1205tiny/cJSON/cJSON.c ****     cJSON_Delete(false_item);
 6758              		.loc 1 1995 5
 6759 0057 488B45F0 		movq	-16(%rbp), %rax
 6760 005b 4889C7   		movq	%rax, %rdi
 6761 005e E8000000 		call	cJSON_Delete
 6761      00
1996:/home/xingli/share/1205tiny/cJSON/cJSON.c ****     return NULL;
 6762              		.loc 1 1996 12
 6763 0063 B8000000 		movl	$0, %eax
 6763      00
 6764              	.L529:
1997:/home/xingli/share/1205tiny/cJSON/cJSON.c **** }
 6765              		.loc 1 1997 1
 6766 0068 488B4DF8 		movq	-8(%rbp), %rcx
 6767 006c 6448330C 		xorq	%fs:40, %rcx
 6767      25280000 
 6767      00
 6768 0075 7405     		je	.L530
 6769 0077 E8000000 		call	__stack_chk_fail@PLT
 6769      00
 6770              	.L530:
 6771 007c C9       		leave
 6772              	.LCFI161:
 6773              		.cfi_def_cfa 7, 8
 6774 007d C3       		ret
 6775              		.cfi_endproc
 6776              	.LFE59:
 6778              		.section	.text.cJSON_AddBoolToObject,"ax",@progbits
 6779              		.globl	cJSON_AddBoolToObject
 6781              	cJSON_AddBoolToObject:
 6782              	.LFB60:
1998:/home/xingli/share/1205tiny/cJSON/cJSON.c **** 
1999:/home/xingli/share/1205tiny/cJSON/cJSON.c **** CJSON_PUBLIC(cJSON*) cJSON_AddBoolToObject(cJSON * const object, const char * const name, const cJS
2000:/home/xingli/share/1205tiny/cJSON/cJSON.c **** {
 6783              		.loc 1 2000 1
 6784              		.cfi_startproc
 6785 0000 F30F1EFA 		endbr64
GAS LISTING /tmp/ccabgRKQ.s 			page 173


 6786 0004 55       		pushq	%rbp
 6787              	.LCFI162:
 6788              		.cfi_def_cfa_offset 16
 6789              		.cfi_offset 6, -16
 6790 0005 4889E5   		movq	%rsp, %rbp
 6791              	.LCFI163:
 6792              		.cfi_def_cfa_register 6
 6793 0008 4883EC30 		subq	$48, %rsp
 6794 000c 48897DE8 		movq	%rdi, -24(%rbp)
 6795 0010 488975E0 		movq	%rsi, -32(%rbp)
 6796 0014 8955DC   		movl	%edx, -36(%rbp)
 6797              		.loc 1 2000 1
 6798 0017 64488B04 		movq	%fs:40, %rax
 6798      25280000 
 6798      00
 6799 0020 488945F8 		movq	%rax, -8(%rbp)
 6800 0024 31C0     		xorl	%eax, %eax
2001:/home/xingli/share/1205tiny/cJSON/cJSON.c ****     cJSON *bool_item = cJSON_CreateBool(boolean);
 6801              		.loc 1 2001 24
 6802 0026 8B45DC   		movl	-36(%rbp), %eax
 6803 0029 89C7     		movl	%eax, %edi
 6804 002b E8000000 		call	cJSON_CreateBool
 6804      00
 6805 0030 488945F0 		movq	%rax, -16(%rbp)
2002:/home/xingli/share/1205tiny/cJSON/cJSON.c ****     if (add_item_to_object(object, name, bool_item, &global_hooks, false))
 6806              		.loc 1 2002 9
 6807 0034 488B55F0 		movq	-16(%rbp), %rdx
 6808 0038 488B75E0 		movq	-32(%rbp), %rsi
 6809 003c 488B45E8 		movq	-24(%rbp), %rax
 6810 0040 41B80000 		movl	$0, %r8d
 6810      0000
 6811 0046 488D0D00 		leaq	global_hooks(%rip), %rcx
 6811      000000
 6812 004d 4889C7   		movq	%rax, %rdi
 6813 0050 E8000000 		call	add_item_to_object
 6813      00
 6814              		.loc 1 2002 8
 6815 0055 85C0     		testl	%eax, %eax
 6816 0057 7406     		je	.L532
2003:/home/xingli/share/1205tiny/cJSON/cJSON.c ****     {
2004:/home/xingli/share/1205tiny/cJSON/cJSON.c ****         return bool_item;
 6817              		.loc 1 2004 16
 6818 0059 488B45F0 		movq	-16(%rbp), %rax
 6819 005d EB11     		jmp	.L533
 6820              	.L532:
2005:/home/xingli/share/1205tiny/cJSON/cJSON.c ****     }
2006:/home/xingli/share/1205tiny/cJSON/cJSON.c **** 
2007:/home/xingli/share/1205tiny/cJSON/cJSON.c ****     cJSON_Delete(bool_item);
 6821              		.loc 1 2007 5
 6822 005f 488B45F0 		movq	-16(%rbp), %rax
 6823 0063 4889C7   		movq	%rax, %rdi
 6824 0066 E8000000 		call	cJSON_Delete
 6824      00
2008:/home/xingli/share/1205tiny/cJSON/cJSON.c ****     return NULL;
 6825              		.loc 1 2008 12
 6826 006b B8000000 		movl	$0, %eax
 6826      00
GAS LISTING /tmp/ccabgRKQ.s 			page 174


 6827              	.L533:
2009:/home/xingli/share/1205tiny/cJSON/cJSON.c **** }
 6828              		.loc 1 2009 1
 6829 0070 488B4DF8 		movq	-8(%rbp), %rcx
 6830 0074 6448330C 		xorq	%fs:40, %rcx
 6830      25280000 
 6830      00
 6831 007d 7405     		je	.L534
 6832 007f E8000000 		call	__stack_chk_fail@PLT
 6832      00
 6833              	.L534:
 6834 0084 C9       		leave
 6835              	.LCFI164:
 6836              		.cfi_def_cfa 7, 8
 6837 0085 C3       		ret
 6838              		.cfi_endproc
 6839              	.LFE60:
 6841              		.section	.text.cJSON_AddNumberToObject,"ax",@progbits
 6842              		.globl	cJSON_AddNumberToObject
 6844              	cJSON_AddNumberToObject:
 6845              	.LFB61:
2010:/home/xingli/share/1205tiny/cJSON/cJSON.c **** 
2011:/home/xingli/share/1205tiny/cJSON/cJSON.c **** CJSON_PUBLIC(cJSON*) cJSON_AddNumberToObject(cJSON * const object, const char * const name, const d
2012:/home/xingli/share/1205tiny/cJSON/cJSON.c **** {
 6846              		.loc 1 2012 1
 6847              		.cfi_startproc
 6848 0000 F30F1EFA 		endbr64
 6849 0004 55       		pushq	%rbp
 6850              	.LCFI165:
 6851              		.cfi_def_cfa_offset 16
 6852              		.cfi_offset 6, -16
 6853 0005 4889E5   		movq	%rsp, %rbp
 6854              	.LCFI166:
 6855              		.cfi_def_cfa_register 6
 6856 0008 4883EC30 		subq	$48, %rsp
 6857 000c 48897DE8 		movq	%rdi, -24(%rbp)
 6858 0010 488975E0 		movq	%rsi, -32(%rbp)
 6859 0014 F20F1145 		movsd	%xmm0, -40(%rbp)
 6859      D8
 6860              		.loc 1 2012 1
 6861 0019 64488B04 		movq	%fs:40, %rax
 6861      25280000 
 6861      00
 6862 0022 488945F8 		movq	%rax, -8(%rbp)
 6863 0026 31C0     		xorl	%eax, %eax
2013:/home/xingli/share/1205tiny/cJSON/cJSON.c ****     cJSON *number_item = cJSON_CreateNumber(number);
 6864              		.loc 1 2013 26
 6865 0028 488B45D8 		movq	-40(%rbp), %rax
 6866 002c 66480F6E 		movq	%rax, %xmm0
 6866      C0
 6867 0031 E8000000 		call	cJSON_CreateNumber
 6867      00
 6868 0036 488945F0 		movq	%rax, -16(%rbp)
2014:/home/xingli/share/1205tiny/cJSON/cJSON.c ****     if (add_item_to_object(object, name, number_item, &global_hooks, false))
 6869              		.loc 1 2014 9
 6870 003a 488B55F0 		movq	-16(%rbp), %rdx
 6871 003e 488B75E0 		movq	-32(%rbp), %rsi
GAS LISTING /tmp/ccabgRKQ.s 			page 175


 6872 0042 488B45E8 		movq	-24(%rbp), %rax
 6873 0046 41B80000 		movl	$0, %r8d
 6873      0000
 6874 004c 488D0D00 		leaq	global_hooks(%rip), %rcx
 6874      000000
 6875 0053 4889C7   		movq	%rax, %rdi
 6876 0056 E8000000 		call	add_item_to_object
 6876      00
 6877              		.loc 1 2014 8
 6878 005b 85C0     		testl	%eax, %eax
 6879 005d 7406     		je	.L536
2015:/home/xingli/share/1205tiny/cJSON/cJSON.c ****     {
2016:/home/xingli/share/1205tiny/cJSON/cJSON.c ****         return number_item;
 6880              		.loc 1 2016 16
 6881 005f 488B45F0 		movq	-16(%rbp), %rax
 6882 0063 EB11     		jmp	.L537
 6883              	.L536:
2017:/home/xingli/share/1205tiny/cJSON/cJSON.c ****     }
2018:/home/xingli/share/1205tiny/cJSON/cJSON.c **** 
2019:/home/xingli/share/1205tiny/cJSON/cJSON.c ****     cJSON_Delete(number_item);
 6884              		.loc 1 2019 5
 6885 0065 488B45F0 		movq	-16(%rbp), %rax
 6886 0069 4889C7   		movq	%rax, %rdi
 6887 006c E8000000 		call	cJSON_Delete
 6887      00
2020:/home/xingli/share/1205tiny/cJSON/cJSON.c ****     return NULL;
 6888              		.loc 1 2020 12
 6889 0071 B8000000 		movl	$0, %eax
 6889      00
 6890              	.L537:
2021:/home/xingli/share/1205tiny/cJSON/cJSON.c **** }
 6891              		.loc 1 2021 1
 6892 0076 488B4DF8 		movq	-8(%rbp), %rcx
 6893 007a 6448330C 		xorq	%fs:40, %rcx
 6893      25280000 
 6893      00
 6894 0083 7405     		je	.L538
 6895 0085 E8000000 		call	__stack_chk_fail@PLT
 6895      00
 6896              	.L538:
 6897 008a C9       		leave
 6898              	.LCFI167:
 6899              		.cfi_def_cfa 7, 8
 6900 008b C3       		ret
 6901              		.cfi_endproc
 6902              	.LFE61:
 6904              		.section	.text.cJSON_AddStringToObject,"ax",@progbits
 6905              		.globl	cJSON_AddStringToObject
 6907              	cJSON_AddStringToObject:
 6908              	.LFB62:
2022:/home/xingli/share/1205tiny/cJSON/cJSON.c **** 
2023:/home/xingli/share/1205tiny/cJSON/cJSON.c **** CJSON_PUBLIC(cJSON*) cJSON_AddStringToObject(cJSON * const object, const char * const name, const c
2024:/home/xingli/share/1205tiny/cJSON/cJSON.c **** {
 6909              		.loc 1 2024 1
 6910              		.cfi_startproc
 6911 0000 F30F1EFA 		endbr64
 6912 0004 55       		pushq	%rbp
GAS LISTING /tmp/ccabgRKQ.s 			page 176


 6913              	.LCFI168:
 6914              		.cfi_def_cfa_offset 16
 6915              		.cfi_offset 6, -16
 6916 0005 4889E5   		movq	%rsp, %rbp
 6917              	.LCFI169:
 6918              		.cfi_def_cfa_register 6
 6919 0008 4883EC30 		subq	$48, %rsp
 6920 000c 48897DE8 		movq	%rdi, -24(%rbp)
 6921 0010 488975E0 		movq	%rsi, -32(%rbp)
 6922 0014 488955D8 		movq	%rdx, -40(%rbp)
 6923              		.loc 1 2024 1
 6924 0018 64488B04 		movq	%fs:40, %rax
 6924      25280000 
 6924      00
 6925 0021 488945F8 		movq	%rax, -8(%rbp)
 6926 0025 31C0     		xorl	%eax, %eax
2025:/home/xingli/share/1205tiny/cJSON/cJSON.c ****     cJSON *string_item = cJSON_CreateString(string);
 6927              		.loc 1 2025 26
 6928 0027 488B45D8 		movq	-40(%rbp), %rax
 6929 002b 4889C7   		movq	%rax, %rdi
 6930 002e E8000000 		call	cJSON_CreateString
 6930      00
 6931 0033 488945F0 		movq	%rax, -16(%rbp)
2026:/home/xingli/share/1205tiny/cJSON/cJSON.c ****     if (add_item_to_object(object, name, string_item, &global_hooks, false))
 6932              		.loc 1 2026 9
 6933 0037 488B55F0 		movq	-16(%rbp), %rdx
 6934 003b 488B75E0 		movq	-32(%rbp), %rsi
 6935 003f 488B45E8 		movq	-24(%rbp), %rax
 6936 0043 41B80000 		movl	$0, %r8d
 6936      0000
 6937 0049 488D0D00 		leaq	global_hooks(%rip), %rcx
 6937      000000
 6938 0050 4889C7   		movq	%rax, %rdi
 6939 0053 E8000000 		call	add_item_to_object
 6939      00
 6940              		.loc 1 2026 8
 6941 0058 85C0     		testl	%eax, %eax
 6942 005a 7406     		je	.L540
2027:/home/xingli/share/1205tiny/cJSON/cJSON.c ****     {
2028:/home/xingli/share/1205tiny/cJSON/cJSON.c ****         return string_item;
 6943              		.loc 1 2028 16
 6944 005c 488B45F0 		movq	-16(%rbp), %rax
 6945 0060 EB11     		jmp	.L541
 6946              	.L540:
2029:/home/xingli/share/1205tiny/cJSON/cJSON.c ****     }
2030:/home/xingli/share/1205tiny/cJSON/cJSON.c **** 
2031:/home/xingli/share/1205tiny/cJSON/cJSON.c ****     cJSON_Delete(string_item);
 6947              		.loc 1 2031 5
 6948 0062 488B45F0 		movq	-16(%rbp), %rax
 6949 0066 4889C7   		movq	%rax, %rdi
 6950 0069 E8000000 		call	cJSON_Delete
 6950      00
2032:/home/xingli/share/1205tiny/cJSON/cJSON.c ****     return NULL;
 6951              		.loc 1 2032 12
 6952 006e B8000000 		movl	$0, %eax
 6952      00
 6953              	.L541:
GAS LISTING /tmp/ccabgRKQ.s 			page 177


2033:/home/xingli/share/1205tiny/cJSON/cJSON.c **** }
 6954              		.loc 1 2033 1
 6955 0073 488B4DF8 		movq	-8(%rbp), %rcx
 6956 0077 6448330C 		xorq	%fs:40, %rcx
 6956      25280000 
 6956      00
 6957 0080 7405     		je	.L542
 6958 0082 E8000000 		call	__stack_chk_fail@PLT
 6958      00
 6959              	.L542:
 6960 0087 C9       		leave
 6961              	.LCFI170:
 6962              		.cfi_def_cfa 7, 8
 6963 0088 C3       		ret
 6964              		.cfi_endproc
 6965              	.LFE62:
 6967              		.section	.text.cJSON_AddRawToObject,"ax",@progbits
 6968              		.globl	cJSON_AddRawToObject
 6970              	cJSON_AddRawToObject:
 6971              	.LFB63:
2034:/home/xingli/share/1205tiny/cJSON/cJSON.c **** 
2035:/home/xingli/share/1205tiny/cJSON/cJSON.c **** CJSON_PUBLIC(cJSON*) cJSON_AddRawToObject(cJSON * const object, const char * const name, const char
2036:/home/xingli/share/1205tiny/cJSON/cJSON.c **** {
 6972              		.loc 1 2036 1
 6973              		.cfi_startproc
 6974 0000 F30F1EFA 		endbr64
 6975 0004 55       		pushq	%rbp
 6976              	.LCFI171:
 6977              		.cfi_def_cfa_offset 16
 6978              		.cfi_offset 6, -16
 6979 0005 4889E5   		movq	%rsp, %rbp
 6980              	.LCFI172:
 6981              		.cfi_def_cfa_register 6
 6982 0008 4883EC30 		subq	$48, %rsp
 6983 000c 48897DE8 		movq	%rdi, -24(%rbp)
 6984 0010 488975E0 		movq	%rsi, -32(%rbp)
 6985 0014 488955D8 		movq	%rdx, -40(%rbp)
 6986              		.loc 1 2036 1
 6987 0018 64488B04 		movq	%fs:40, %rax
 6987      25280000 
 6987      00
 6988 0021 488945F8 		movq	%rax, -8(%rbp)
 6989 0025 31C0     		xorl	%eax, %eax
2037:/home/xingli/share/1205tiny/cJSON/cJSON.c ****     cJSON *raw_item = cJSON_CreateRaw(raw);
 6990              		.loc 1 2037 23
 6991 0027 488B45D8 		movq	-40(%rbp), %rax
 6992 002b 4889C7   		movq	%rax, %rdi
 6993 002e E8000000 		call	cJSON_CreateRaw
 6993      00
 6994 0033 488945F0 		movq	%rax, -16(%rbp)
2038:/home/xingli/share/1205tiny/cJSON/cJSON.c ****     if (add_item_to_object(object, name, raw_item, &global_hooks, false))
 6995              		.loc 1 2038 9
 6996 0037 488B55F0 		movq	-16(%rbp), %rdx
 6997 003b 488B75E0 		movq	-32(%rbp), %rsi
 6998 003f 488B45E8 		movq	-24(%rbp), %rax
 6999 0043 41B80000 		movl	$0, %r8d
 6999      0000
GAS LISTING /tmp/ccabgRKQ.s 			page 178


 7000 0049 488D0D00 		leaq	global_hooks(%rip), %rcx
 7000      000000
 7001 0050 4889C7   		movq	%rax, %rdi
 7002 0053 E8000000 		call	add_item_to_object
 7002      00
 7003              		.loc 1 2038 8
 7004 0058 85C0     		testl	%eax, %eax
 7005 005a 7406     		je	.L544
2039:/home/xingli/share/1205tiny/cJSON/cJSON.c ****     {
2040:/home/xingli/share/1205tiny/cJSON/cJSON.c ****         return raw_item;
 7006              		.loc 1 2040 16
 7007 005c 488B45F0 		movq	-16(%rbp), %rax
 7008 0060 EB11     		jmp	.L545
 7009              	.L544:
2041:/home/xingli/share/1205tiny/cJSON/cJSON.c ****     }
2042:/home/xingli/share/1205tiny/cJSON/cJSON.c **** 
2043:/home/xingli/share/1205tiny/cJSON/cJSON.c ****     cJSON_Delete(raw_item);
 7010              		.loc 1 2043 5
 7011 0062 488B45F0 		movq	-16(%rbp), %rax
 7012 0066 4889C7   		movq	%rax, %rdi
 7013 0069 E8000000 		call	cJSON_Delete
 7013      00
2044:/home/xingli/share/1205tiny/cJSON/cJSON.c ****     return NULL;
 7014              		.loc 1 2044 12
 7015 006e B8000000 		movl	$0, %eax
 7015      00
 7016              	.L545:
2045:/home/xingli/share/1205tiny/cJSON/cJSON.c **** }
 7017              		.loc 1 2045 1
 7018 0073 488B4DF8 		movq	-8(%rbp), %rcx
 7019 0077 6448330C 		xorq	%fs:40, %rcx
 7019      25280000 
 7019      00
 7020 0080 7405     		je	.L546
 7021 0082 E8000000 		call	__stack_chk_fail@PLT
 7021      00
 7022              	.L546:
 7023 0087 C9       		leave
 7024              	.LCFI173:
 7025              		.cfi_def_cfa 7, 8
 7026 0088 C3       		ret
 7027              		.cfi_endproc
 7028              	.LFE63:
 7030              		.section	.text.cJSON_AddObjectToObject,"ax",@progbits
 7031              		.globl	cJSON_AddObjectToObject
 7033              	cJSON_AddObjectToObject:
 7034              	.LFB64:
2046:/home/xingli/share/1205tiny/cJSON/cJSON.c **** 
2047:/home/xingli/share/1205tiny/cJSON/cJSON.c **** CJSON_PUBLIC(cJSON*) cJSON_AddObjectToObject(cJSON * const object, const char * const name)
2048:/home/xingli/share/1205tiny/cJSON/cJSON.c **** {
 7035              		.loc 1 2048 1
 7036              		.cfi_startproc
 7037 0000 F30F1EFA 		endbr64
 7038 0004 55       		pushq	%rbp
 7039              	.LCFI174:
 7040              		.cfi_def_cfa_offset 16
 7041              		.cfi_offset 6, -16
GAS LISTING /tmp/ccabgRKQ.s 			page 179


 7042 0005 4889E5   		movq	%rsp, %rbp
 7043              	.LCFI175:
 7044              		.cfi_def_cfa_register 6
 7045 0008 4883EC20 		subq	$32, %rsp
 7046 000c 48897DE8 		movq	%rdi, -24(%rbp)
 7047 0010 488975E0 		movq	%rsi, -32(%rbp)
 7048              		.loc 1 2048 1
 7049 0014 64488B04 		movq	%fs:40, %rax
 7049      25280000 
 7049      00
 7050 001d 488945F8 		movq	%rax, -8(%rbp)
 7051 0021 31C0     		xorl	%eax, %eax
2049:/home/xingli/share/1205tiny/cJSON/cJSON.c ****     cJSON *object_item = cJSON_CreateObject();
 7052              		.loc 1 2049 26
 7053 0023 E8000000 		call	cJSON_CreateObject
 7053      00
 7054 0028 488945F0 		movq	%rax, -16(%rbp)
2050:/home/xingli/share/1205tiny/cJSON/cJSON.c ****     if (add_item_to_object(object, name, object_item, &global_hooks, false))
 7055              		.loc 1 2050 9
 7056 002c 488B55F0 		movq	-16(%rbp), %rdx
 7057 0030 488B75E0 		movq	-32(%rbp), %rsi
 7058 0034 488B45E8 		movq	-24(%rbp), %rax
 7059 0038 41B80000 		movl	$0, %r8d
 7059      0000
 7060 003e 488D0D00 		leaq	global_hooks(%rip), %rcx
 7060      000000
 7061 0045 4889C7   		movq	%rax, %rdi
 7062 0048 E8000000 		call	add_item_to_object
 7062      00
 7063              		.loc 1 2050 8
 7064 004d 85C0     		testl	%eax, %eax
 7065 004f 7406     		je	.L548
2051:/home/xingli/share/1205tiny/cJSON/cJSON.c ****     {
2052:/home/xingli/share/1205tiny/cJSON/cJSON.c ****         return object_item;
 7066              		.loc 1 2052 16
 7067 0051 488B45F0 		movq	-16(%rbp), %rax
 7068 0055 EB11     		jmp	.L549
 7069              	.L548:
2053:/home/xingli/share/1205tiny/cJSON/cJSON.c ****     }
2054:/home/xingli/share/1205tiny/cJSON/cJSON.c **** 
2055:/home/xingli/share/1205tiny/cJSON/cJSON.c ****     cJSON_Delete(object_item);
 7070              		.loc 1 2055 5
 7071 0057 488B45F0 		movq	-16(%rbp), %rax
 7072 005b 4889C7   		movq	%rax, %rdi
 7073 005e E8000000 		call	cJSON_Delete
 7073      00
2056:/home/xingli/share/1205tiny/cJSON/cJSON.c ****     return NULL;
 7074              		.loc 1 2056 12
 7075 0063 B8000000 		movl	$0, %eax
 7075      00
 7076              	.L549:
2057:/home/xingli/share/1205tiny/cJSON/cJSON.c **** }
 7077              		.loc 1 2057 1
 7078 0068 488B4DF8 		movq	-8(%rbp), %rcx
 7079 006c 6448330C 		xorq	%fs:40, %rcx
 7079      25280000 
 7079      00
GAS LISTING /tmp/ccabgRKQ.s 			page 180


 7080 0075 7405     		je	.L550
 7081 0077 E8000000 		call	__stack_chk_fail@PLT
 7081      00
 7082              	.L550:
 7083 007c C9       		leave
 7084              	.LCFI176:
 7085              		.cfi_def_cfa 7, 8
 7086 007d C3       		ret
 7087              		.cfi_endproc
 7088              	.LFE64:
 7090              		.section	.text.cJSON_AddArrayToObject,"ax",@progbits
 7091              		.globl	cJSON_AddArrayToObject
 7093              	cJSON_AddArrayToObject:
 7094              	.LFB65:
2058:/home/xingli/share/1205tiny/cJSON/cJSON.c **** 
2059:/home/xingli/share/1205tiny/cJSON/cJSON.c **** CJSON_PUBLIC(cJSON*) cJSON_AddArrayToObject(cJSON * const object, const char * const name)
2060:/home/xingli/share/1205tiny/cJSON/cJSON.c **** {
 7095              		.loc 1 2060 1
 7096              		.cfi_startproc
 7097 0000 F30F1EFA 		endbr64
 7098 0004 55       		pushq	%rbp
 7099              	.LCFI177:
 7100              		.cfi_def_cfa_offset 16
 7101              		.cfi_offset 6, -16
 7102 0005 4889E5   		movq	%rsp, %rbp
 7103              	.LCFI178:
 7104              		.cfi_def_cfa_register 6
 7105 0008 4883EC20 		subq	$32, %rsp
 7106 000c 48897DE8 		movq	%rdi, -24(%rbp)
 7107 0010 488975E0 		movq	%rsi, -32(%rbp)
 7108              		.loc 1 2060 1
 7109 0014 64488B04 		movq	%fs:40, %rax
 7109      25280000 
 7109      00
 7110 001d 488945F8 		movq	%rax, -8(%rbp)
 7111 0021 31C0     		xorl	%eax, %eax
2061:/home/xingli/share/1205tiny/cJSON/cJSON.c ****     cJSON *array = cJSON_CreateArray();
 7112              		.loc 1 2061 20
 7113 0023 E8000000 		call	cJSON_CreateArray
 7113      00
 7114 0028 488945F0 		movq	%rax, -16(%rbp)
2062:/home/xingli/share/1205tiny/cJSON/cJSON.c ****     if (add_item_to_object(object, name, array, &global_hooks, false))
 7115              		.loc 1 2062 9
 7116 002c 488B55F0 		movq	-16(%rbp), %rdx
 7117 0030 488B75E0 		movq	-32(%rbp), %rsi
 7118 0034 488B45E8 		movq	-24(%rbp), %rax
 7119 0038 41B80000 		movl	$0, %r8d
 7119      0000
 7120 003e 488D0D00 		leaq	global_hooks(%rip), %rcx
 7120      000000
 7121 0045 4889C7   		movq	%rax, %rdi
 7122 0048 E8000000 		call	add_item_to_object
 7122      00
 7123              		.loc 1 2062 8
 7124 004d 85C0     		testl	%eax, %eax
 7125 004f 7406     		je	.L552
2063:/home/xingli/share/1205tiny/cJSON/cJSON.c ****     {
GAS LISTING /tmp/ccabgRKQ.s 			page 181


2064:/home/xingli/share/1205tiny/cJSON/cJSON.c ****         return array;
 7126              		.loc 1 2064 16
 7127 0051 488B45F0 		movq	-16(%rbp), %rax
 7128 0055 EB11     		jmp	.L553
 7129              	.L552:
2065:/home/xingli/share/1205tiny/cJSON/cJSON.c ****     }
2066:/home/xingli/share/1205tiny/cJSON/cJSON.c **** 
2067:/home/xingli/share/1205tiny/cJSON/cJSON.c ****     cJSON_Delete(array);
 7130              		.loc 1 2067 5
 7131 0057 488B45F0 		movq	-16(%rbp), %rax
 7132 005b 4889C7   		movq	%rax, %rdi
 7133 005e E8000000 		call	cJSON_Delete
 7133      00
2068:/home/xingli/share/1205tiny/cJSON/cJSON.c ****     return NULL;
 7134              		.loc 1 2068 12
 7135 0063 B8000000 		movl	$0, %eax
 7135      00
 7136              	.L553:
2069:/home/xingli/share/1205tiny/cJSON/cJSON.c **** }
 7137              		.loc 1 2069 1
 7138 0068 488B4DF8 		movq	-8(%rbp), %rcx
 7139 006c 6448330C 		xorq	%fs:40, %rcx
 7139      25280000 
 7139      00
 7140 0075 7405     		je	.L554
 7141 0077 E8000000 		call	__stack_chk_fail@PLT
 7141      00
 7142              	.L554:
 7143 007c C9       		leave
 7144              	.LCFI179:
 7145              		.cfi_def_cfa 7, 8
 7146 007d C3       		ret
 7147              		.cfi_endproc
 7148              	.LFE65:
 7150              		.section	.text.cJSON_DetachItemViaPointer,"ax",@progbits
 7151              		.globl	cJSON_DetachItemViaPointer
 7153              	cJSON_DetachItemViaPointer:
 7154              	.LFB66:
2070:/home/xingli/share/1205tiny/cJSON/cJSON.c **** 
2071:/home/xingli/share/1205tiny/cJSON/cJSON.c **** CJSON_PUBLIC(cJSON *) cJSON_DetachItemViaPointer(cJSON *parent, cJSON * const item)
2072:/home/xingli/share/1205tiny/cJSON/cJSON.c **** {
 7155              		.loc 1 2072 1
 7156              		.cfi_startproc
 7157 0000 F30F1EFA 		endbr64
 7158 0004 55       		pushq	%rbp
 7159              	.LCFI180:
 7160              		.cfi_def_cfa_offset 16
 7161              		.cfi_offset 6, -16
 7162 0005 4889E5   		movq	%rsp, %rbp
 7163              	.LCFI181:
 7164              		.cfi_def_cfa_register 6
 7165 0008 4883EC20 		subq	$32, %rsp
 7166 000c 48897DE8 		movq	%rdi, -24(%rbp)
 7167 0010 488975E0 		movq	%rsi, -32(%rbp)
 7168              		.loc 1 2072 1
 7169 0014 64488B04 		movq	%fs:40, %rax
 7169      25280000 
GAS LISTING /tmp/ccabgRKQ.s 			page 182


 7169      00
 7170 001d 488945F8 		movq	%rax, -8(%rbp)
 7171 0021 31C0     		xorl	%eax, %eax
2073:/home/xingli/share/1205tiny/cJSON/cJSON.c ****     if ((parent == NULL) || (item == NULL))
 7172              		.loc 1 2073 8
 7173 0023 48837DE8 		cmpq	$0, -24(%rbp)
 7173      00
 7174 0028 7407     		je	.L556
 7175              		.loc 1 2073 26 discriminator 1
 7176 002a 48837DE0 		cmpq	$0, -32(%rbp)
 7176      00
 7177 002f 7507     		jne	.L557
 7178              	.L556:
2074:/home/xingli/share/1205tiny/cJSON/cJSON.c ****     {
2075:/home/xingli/share/1205tiny/cJSON/cJSON.c ****         return NULL;
 7179              		.loc 1 2075 16
 7180 0031 B8000000 		movl	$0, %eax
 7180      00
 7181 0036 EB76     		jmp	.L558
 7182              	.L557:
2076:/home/xingli/share/1205tiny/cJSON/cJSON.c ****     }
2077:/home/xingli/share/1205tiny/cJSON/cJSON.c **** 
2078:/home/xingli/share/1205tiny/cJSON/cJSON.c ****     if (item->prev != NULL)
 7183              		.loc 1 2078 13
 7184 0038 488B45E0 		movq	-32(%rbp), %rax
 7185 003c 488B4008 		movq	8(%rax), %rax
 7186              		.loc 1 2078 8
 7187 0040 4885C0   		testq	%rax, %rax
 7188 0043 7412     		je	.L559
2079:/home/xingli/share/1205tiny/cJSON/cJSON.c ****     {
2080:/home/xingli/share/1205tiny/cJSON/cJSON.c ****         /* not the first element */
2081:/home/xingli/share/1205tiny/cJSON/cJSON.c ****         item->prev->next = item->next;
 7189              		.loc 1 2081 13
 7190 0045 488B45E0 		movq	-32(%rbp), %rax
 7191 0049 488B4008 		movq	8(%rax), %rax
 7192              		.loc 1 2081 32
 7193 004d 488B55E0 		movq	-32(%rbp), %rdx
 7194 0051 488B12   		movq	(%rdx), %rdx
 7195              		.loc 1 2081 26
 7196 0054 488910   		movq	%rdx, (%rax)
 7197              	.L559:
2082:/home/xingli/share/1205tiny/cJSON/cJSON.c ****     }
2083:/home/xingli/share/1205tiny/cJSON/cJSON.c ****     if (item->next != NULL)
 7198              		.loc 1 2083 13
 7199 0057 488B45E0 		movq	-32(%rbp), %rax
 7200 005b 488B00   		movq	(%rax), %rax
 7201              		.loc 1 2083 8
 7202 005e 4885C0   		testq	%rax, %rax
 7203 0061 7413     		je	.L560
2084:/home/xingli/share/1205tiny/cJSON/cJSON.c ****     {
2085:/home/xingli/share/1205tiny/cJSON/cJSON.c ****         /* not the last element */
2086:/home/xingli/share/1205tiny/cJSON/cJSON.c ****         item->next->prev = item->prev;
 7204              		.loc 1 2086 13
 7205 0063 488B45E0 		movq	-32(%rbp), %rax
 7206 0067 488B00   		movq	(%rax), %rax
 7207              		.loc 1 2086 32
 7208 006a 488B55E0 		movq	-32(%rbp), %rdx
GAS LISTING /tmp/ccabgRKQ.s 			page 183


 7209 006e 488B5208 		movq	8(%rdx), %rdx
 7210              		.loc 1 2086 26
 7211 0072 48895008 		movq	%rdx, 8(%rax)
 7212              	.L560:
2087:/home/xingli/share/1205tiny/cJSON/cJSON.c ****     }
2088:/home/xingli/share/1205tiny/cJSON/cJSON.c **** 
2089:/home/xingli/share/1205tiny/cJSON/cJSON.c ****     if (item == parent->child)
 7213              		.loc 1 2089 23
 7214 0076 488B45E8 		movq	-24(%rbp), %rax
 7215 007a 488B4010 		movq	16(%rax), %rax
 7216              		.loc 1 2089 8
 7217 007e 483945E0 		cmpq	%rax, -32(%rbp)
 7218 0082 750F     		jne	.L561
2090:/home/xingli/share/1205tiny/cJSON/cJSON.c ****     {
2091:/home/xingli/share/1205tiny/cJSON/cJSON.c ****         /* first element */
2092:/home/xingli/share/1205tiny/cJSON/cJSON.c ****         parent->child = item->next;
 7219              		.loc 1 2092 29
 7220 0084 488B45E0 		movq	-32(%rbp), %rax
 7221 0088 488B10   		movq	(%rax), %rdx
 7222              		.loc 1 2092 23
 7223 008b 488B45E8 		movq	-24(%rbp), %rax
 7224 008f 48895010 		movq	%rdx, 16(%rax)
 7225              	.L561:
2093:/home/xingli/share/1205tiny/cJSON/cJSON.c ****     }
2094:/home/xingli/share/1205tiny/cJSON/cJSON.c ****     /* make sure the detached item doesn't point anywhere anymore */
2095:/home/xingli/share/1205tiny/cJSON/cJSON.c ****     item->prev = NULL;
 7226              		.loc 1 2095 16
 7227 0093 488B45E0 		movq	-32(%rbp), %rax
 7228 0097 48C74008 		movq	$0, 8(%rax)
 7228      00000000 
2096:/home/xingli/share/1205tiny/cJSON/cJSON.c ****     item->next = NULL;
 7229              		.loc 1 2096 16
 7230 009f 488B45E0 		movq	-32(%rbp), %rax
 7231 00a3 48C70000 		movq	$0, (%rax)
 7231      000000
2097:/home/xingli/share/1205tiny/cJSON/cJSON.c **** 
2098:/home/xingli/share/1205tiny/cJSON/cJSON.c ****     return item;
 7232              		.loc 1 2098 12
 7233 00aa 488B45E0 		movq	-32(%rbp), %rax
 7234              	.L558:
2099:/home/xingli/share/1205tiny/cJSON/cJSON.c **** }
 7235              		.loc 1 2099 1
 7236 00ae 488B4DF8 		movq	-8(%rbp), %rcx
 7237 00b2 6448330C 		xorq	%fs:40, %rcx
 7237      25280000 
 7237      00
 7238 00bb 7405     		je	.L562
 7239 00bd E8000000 		call	__stack_chk_fail@PLT
 7239      00
 7240              	.L562:
 7241 00c2 C9       		leave
 7242              	.LCFI182:
 7243              		.cfi_def_cfa 7, 8
 7244 00c3 C3       		ret
 7245              		.cfi_endproc
 7246              	.LFE66:
 7248              		.section	.text.cJSON_DetachItemFromArray,"ax",@progbits
GAS LISTING /tmp/ccabgRKQ.s 			page 184


 7249              		.globl	cJSON_DetachItemFromArray
 7251              	cJSON_DetachItemFromArray:
 7252              	.LFB67:
2100:/home/xingli/share/1205tiny/cJSON/cJSON.c **** 
2101:/home/xingli/share/1205tiny/cJSON/cJSON.c **** CJSON_PUBLIC(cJSON *) cJSON_DetachItemFromArray(cJSON *array, int which)
2102:/home/xingli/share/1205tiny/cJSON/cJSON.c **** {
 7253              		.loc 1 2102 1
 7254              		.cfi_startproc
 7255 0000 F30F1EFA 		endbr64
 7256 0004 55       		pushq	%rbp
 7257              	.LCFI183:
 7258              		.cfi_def_cfa_offset 16
 7259              		.cfi_offset 6, -16
 7260 0005 4889E5   		movq	%rsp, %rbp
 7261              	.LCFI184:
 7262              		.cfi_def_cfa_register 6
 7263 0008 4883EC20 		subq	$32, %rsp
 7264 000c 48897DE8 		movq	%rdi, -24(%rbp)
 7265 0010 8975E4   		movl	%esi, -28(%rbp)
 7266              		.loc 1 2102 1
 7267 0013 64488B04 		movq	%fs:40, %rax
 7267      25280000 
 7267      00
 7268 001c 488945F8 		movq	%rax, -8(%rbp)
 7269 0020 31C0     		xorl	%eax, %eax
2103:/home/xingli/share/1205tiny/cJSON/cJSON.c ****     if (which < 0)
 7270              		.loc 1 2103 8
 7271 0022 837DE400 		cmpl	$0, -28(%rbp)
 7272 0026 7907     		jns	.L564
2104:/home/xingli/share/1205tiny/cJSON/cJSON.c ****     {
2105:/home/xingli/share/1205tiny/cJSON/cJSON.c ****         return NULL;
 7273              		.loc 1 2105 16
 7274 0028 B8000000 		movl	$0, %eax
 7274      00
 7275 002d EB27     		jmp	.L565
 7276              	.L564:
2106:/home/xingli/share/1205tiny/cJSON/cJSON.c ****     }
2107:/home/xingli/share/1205tiny/cJSON/cJSON.c **** 
2108:/home/xingli/share/1205tiny/cJSON/cJSON.c ****     return cJSON_DetachItemViaPointer(array, get_array_item(array, (size_t)which));
 7277              		.loc 1 2108 12
 7278 002f 8B45E4   		movl	-28(%rbp), %eax
 7279 0032 4863D0   		movslq	%eax, %rdx
 7280 0035 488B45E8 		movq	-24(%rbp), %rax
 7281 0039 4889D6   		movq	%rdx, %rsi
 7282 003c 4889C7   		movq	%rax, %rdi
 7283 003f E8000000 		call	get_array_item
 7283      00
 7284 0044 4889C2   		movq	%rax, %rdx
 7285 0047 488B45E8 		movq	-24(%rbp), %rax
 7286 004b 4889D6   		movq	%rdx, %rsi
 7287 004e 4889C7   		movq	%rax, %rdi
 7288 0051 E8000000 		call	cJSON_DetachItemViaPointer
 7288      00
 7289              	.L565:
2109:/home/xingli/share/1205tiny/cJSON/cJSON.c **** }
 7290              		.loc 1 2109 1
 7291 0056 488B4DF8 		movq	-8(%rbp), %rcx
GAS LISTING /tmp/ccabgRKQ.s 			page 185


 7292 005a 6448330C 		xorq	%fs:40, %rcx
 7292      25280000 
 7292      00
 7293 0063 7405     		je	.L566
 7294 0065 E8000000 		call	__stack_chk_fail@PLT
 7294      00
 7295              	.L566:
 7296 006a C9       		leave
 7297              	.LCFI185:
 7298              		.cfi_def_cfa 7, 8
 7299 006b C3       		ret
 7300              		.cfi_endproc
 7301              	.LFE67:
 7303              		.section	.text.cJSON_DeleteItemFromArray,"ax",@progbits
 7304              		.globl	cJSON_DeleteItemFromArray
 7306              	cJSON_DeleteItemFromArray:
 7307              	.LFB68:
2110:/home/xingli/share/1205tiny/cJSON/cJSON.c **** 
2111:/home/xingli/share/1205tiny/cJSON/cJSON.c **** CJSON_PUBLIC(void) cJSON_DeleteItemFromArray(cJSON *array, int which)
2112:/home/xingli/share/1205tiny/cJSON/cJSON.c **** {
 7308              		.loc 1 2112 1
 7309              		.cfi_startproc
 7310 0000 F30F1EFA 		endbr64
 7311 0004 55       		pushq	%rbp
 7312              	.LCFI186:
 7313              		.cfi_def_cfa_offset 16
 7314              		.cfi_offset 6, -16
 7315 0005 4889E5   		movq	%rsp, %rbp
 7316              	.LCFI187:
 7317              		.cfi_def_cfa_register 6
 7318 0008 4883EC20 		subq	$32, %rsp
 7319 000c 48897DE8 		movq	%rdi, -24(%rbp)
 7320 0010 8975E4   		movl	%esi, -28(%rbp)
 7321              		.loc 1 2112 1
 7322 0013 64488B04 		movq	%fs:40, %rax
 7322      25280000 
 7322      00
 7323 001c 488945F8 		movq	%rax, -8(%rbp)
 7324 0020 31C0     		xorl	%eax, %eax
2113:/home/xingli/share/1205tiny/cJSON/cJSON.c ****     cJSON_Delete(cJSON_DetachItemFromArray(array, which));
 7325              		.loc 1 2113 5
 7326 0022 8B55E4   		movl	-28(%rbp), %edx
 7327 0025 488B45E8 		movq	-24(%rbp), %rax
 7328 0029 89D6     		movl	%edx, %esi
 7329 002b 4889C7   		movq	%rax, %rdi
 7330 002e E8000000 		call	cJSON_DetachItemFromArray
 7330      00
 7331 0033 4889C7   		movq	%rax, %rdi
 7332 0036 E8000000 		call	cJSON_Delete
 7332      00
2114:/home/xingli/share/1205tiny/cJSON/cJSON.c **** }
 7333              		.loc 1 2114 1
 7334 003b 90       		nop
 7335 003c 488B45F8 		movq	-8(%rbp), %rax
 7336 0040 64483304 		xorq	%fs:40, %rax
 7336      25280000 
 7336      00
GAS LISTING /tmp/ccabgRKQ.s 			page 186


 7337 0049 7405     		je	.L568
 7338 004b E8000000 		call	__stack_chk_fail@PLT
 7338      00
 7339              	.L568:
 7340 0050 C9       		leave
 7341              	.LCFI188:
 7342              		.cfi_def_cfa 7, 8
 7343 0051 C3       		ret
 7344              		.cfi_endproc
 7345              	.LFE68:
 7347              		.section	.text.cJSON_DetachItemFromObject,"ax",@progbits
 7348              		.globl	cJSON_DetachItemFromObject
 7350              	cJSON_DetachItemFromObject:
 7351              	.LFB69:
2115:/home/xingli/share/1205tiny/cJSON/cJSON.c **** 
2116:/home/xingli/share/1205tiny/cJSON/cJSON.c **** CJSON_PUBLIC(cJSON *) cJSON_DetachItemFromObject(cJSON *object, const char *string)
2117:/home/xingli/share/1205tiny/cJSON/cJSON.c **** {
 7352              		.loc 1 2117 1
 7353              		.cfi_startproc
 7354 0000 F30F1EFA 		endbr64
 7355 0004 55       		pushq	%rbp
 7356              	.LCFI189:
 7357              		.cfi_def_cfa_offset 16
 7358              		.cfi_offset 6, -16
 7359 0005 4889E5   		movq	%rsp, %rbp
 7360              	.LCFI190:
 7361              		.cfi_def_cfa_register 6
 7362 0008 4883EC20 		subq	$32, %rsp
 7363 000c 48897DE8 		movq	%rdi, -24(%rbp)
 7364 0010 488975E0 		movq	%rsi, -32(%rbp)
 7365              		.loc 1 2117 1
 7366 0014 64488B04 		movq	%fs:40, %rax
 7366      25280000 
 7366      00
 7367 001d 488945F8 		movq	%rax, -8(%rbp)
 7368 0021 31C0     		xorl	%eax, %eax
2118:/home/xingli/share/1205tiny/cJSON/cJSON.c ****     cJSON *to_detach = cJSON_GetObjectItem(object, string);
 7369              		.loc 1 2118 24
 7370 0023 488B55E0 		movq	-32(%rbp), %rdx
 7371 0027 488B45E8 		movq	-24(%rbp), %rax
 7372 002b 4889D6   		movq	%rdx, %rsi
 7373 002e 4889C7   		movq	%rax, %rdi
 7374 0031 E8000000 		call	cJSON_GetObjectItem
 7374      00
 7375 0036 488945F0 		movq	%rax, -16(%rbp)
2119:/home/xingli/share/1205tiny/cJSON/cJSON.c **** 
2120:/home/xingli/share/1205tiny/cJSON/cJSON.c ****     return cJSON_DetachItemViaPointer(object, to_detach);
 7376              		.loc 1 2120 12
 7377 003a 488B55F0 		movq	-16(%rbp), %rdx
 7378 003e 488B45E8 		movq	-24(%rbp), %rax
 7379 0042 4889D6   		movq	%rdx, %rsi
 7380 0045 4889C7   		movq	%rax, %rdi
 7381 0048 E8000000 		call	cJSON_DetachItemViaPointer
 7381      00
2121:/home/xingli/share/1205tiny/cJSON/cJSON.c **** }
 7382              		.loc 1 2121 1
 7383 004d 488B4DF8 		movq	-8(%rbp), %rcx
GAS LISTING /tmp/ccabgRKQ.s 			page 187


 7384 0051 6448330C 		xorq	%fs:40, %rcx
 7384      25280000 
 7384      00
 7385 005a 7405     		je	.L571
 7386 005c E8000000 		call	__stack_chk_fail@PLT
 7386      00
 7387              	.L571:
 7388 0061 C9       		leave
 7389              	.LCFI191:
 7390              		.cfi_def_cfa 7, 8
 7391 0062 C3       		ret
 7392              		.cfi_endproc
 7393              	.LFE69:
 7395              		.section	.text.cJSON_DetachItemFromObjectCaseSensitive,"ax",@progbits
 7396              		.globl	cJSON_DetachItemFromObjectCaseSensitive
 7398              	cJSON_DetachItemFromObjectCaseSensitive:
 7399              	.LFB70:
2122:/home/xingli/share/1205tiny/cJSON/cJSON.c **** 
2123:/home/xingli/share/1205tiny/cJSON/cJSON.c **** CJSON_PUBLIC(cJSON *) cJSON_DetachItemFromObjectCaseSensitive(cJSON *object, const char *string)
2124:/home/xingli/share/1205tiny/cJSON/cJSON.c **** {
 7400              		.loc 1 2124 1
 7401              		.cfi_startproc
 7402 0000 F30F1EFA 		endbr64
 7403 0004 55       		pushq	%rbp
 7404              	.LCFI192:
 7405              		.cfi_def_cfa_offset 16
 7406              		.cfi_offset 6, -16
 7407 0005 4889E5   		movq	%rsp, %rbp
 7408              	.LCFI193:
 7409              		.cfi_def_cfa_register 6
 7410 0008 4883EC20 		subq	$32, %rsp
 7411 000c 48897DE8 		movq	%rdi, -24(%rbp)
 7412 0010 488975E0 		movq	%rsi, -32(%rbp)
 7413              		.loc 1 2124 1
 7414 0014 64488B04 		movq	%fs:40, %rax
 7414      25280000 
 7414      00
 7415 001d 488945F8 		movq	%rax, -8(%rbp)
 7416 0021 31C0     		xorl	%eax, %eax
2125:/home/xingli/share/1205tiny/cJSON/cJSON.c ****     cJSON *to_detach = cJSON_GetObjectItemCaseSensitive(object, string);
 7417              		.loc 1 2125 24
 7418 0023 488B55E0 		movq	-32(%rbp), %rdx
 7419 0027 488B45E8 		movq	-24(%rbp), %rax
 7420 002b 4889D6   		movq	%rdx, %rsi
 7421 002e 4889C7   		movq	%rax, %rdi
 7422 0031 E8000000 		call	cJSON_GetObjectItemCaseSensitive
 7422      00
 7423 0036 488945F0 		movq	%rax, -16(%rbp)
2126:/home/xingli/share/1205tiny/cJSON/cJSON.c **** 
2127:/home/xingli/share/1205tiny/cJSON/cJSON.c ****     return cJSON_DetachItemViaPointer(object, to_detach);
 7424              		.loc 1 2127 12
 7425 003a 488B55F0 		movq	-16(%rbp), %rdx
 7426 003e 488B45E8 		movq	-24(%rbp), %rax
 7427 0042 4889D6   		movq	%rdx, %rsi
 7428 0045 4889C7   		movq	%rax, %rdi
 7429 0048 E8000000 		call	cJSON_DetachItemViaPointer
 7429      00
GAS LISTING /tmp/ccabgRKQ.s 			page 188


2128:/home/xingli/share/1205tiny/cJSON/cJSON.c **** }
 7430              		.loc 1 2128 1
 7431 004d 488B4DF8 		movq	-8(%rbp), %rcx
 7432 0051 6448330C 		xorq	%fs:40, %rcx
 7432      25280000 
 7432      00
 7433 005a 7405     		je	.L574
 7434 005c E8000000 		call	__stack_chk_fail@PLT
 7434      00
 7435              	.L574:
 7436 0061 C9       		leave
 7437              	.LCFI194:
 7438              		.cfi_def_cfa 7, 8
 7439 0062 C3       		ret
 7440              		.cfi_endproc
 7441              	.LFE70:
 7443              		.section	.text.cJSON_DeleteItemFromObject,"ax",@progbits
 7444              		.globl	cJSON_DeleteItemFromObject
 7446              	cJSON_DeleteItemFromObject:
 7447              	.LFB71:
2129:/home/xingli/share/1205tiny/cJSON/cJSON.c **** 
2130:/home/xingli/share/1205tiny/cJSON/cJSON.c **** CJSON_PUBLIC(void) cJSON_DeleteItemFromObject(cJSON *object, const char *string)
2131:/home/xingli/share/1205tiny/cJSON/cJSON.c **** {
 7448              		.loc 1 2131 1
 7449              		.cfi_startproc
 7450 0000 F30F1EFA 		endbr64
 7451 0004 55       		pushq	%rbp
 7452              	.LCFI195:
 7453              		.cfi_def_cfa_offset 16
 7454              		.cfi_offset 6, -16
 7455 0005 4889E5   		movq	%rsp, %rbp
 7456              	.LCFI196:
 7457              		.cfi_def_cfa_register 6
 7458 0008 4883EC20 		subq	$32, %rsp
 7459 000c 48897DE8 		movq	%rdi, -24(%rbp)
 7460 0010 488975E0 		movq	%rsi, -32(%rbp)
 7461              		.loc 1 2131 1
 7462 0014 64488B04 		movq	%fs:40, %rax
 7462      25280000 
 7462      00
 7463 001d 488945F8 		movq	%rax, -8(%rbp)
 7464 0021 31C0     		xorl	%eax, %eax
2132:/home/xingli/share/1205tiny/cJSON/cJSON.c ****     cJSON_Delete(cJSON_DetachItemFromObject(object, string));
 7465              		.loc 1 2132 5
 7466 0023 488B55E0 		movq	-32(%rbp), %rdx
 7467 0027 488B45E8 		movq	-24(%rbp), %rax
 7468 002b 4889D6   		movq	%rdx, %rsi
 7469 002e 4889C7   		movq	%rax, %rdi
 7470 0031 E8000000 		call	cJSON_DetachItemFromObject
 7470      00
 7471 0036 4889C7   		movq	%rax, %rdi
 7472 0039 E8000000 		call	cJSON_Delete
 7472      00
2133:/home/xingli/share/1205tiny/cJSON/cJSON.c **** }
 7473              		.loc 1 2133 1
 7474 003e 90       		nop
 7475 003f 488B45F8 		movq	-8(%rbp), %rax
GAS LISTING /tmp/ccabgRKQ.s 			page 189


 7476 0043 64483304 		xorq	%fs:40, %rax
 7476      25280000 
 7476      00
 7477 004c 7405     		je	.L576
 7478 004e E8000000 		call	__stack_chk_fail@PLT
 7478      00
 7479              	.L576:
 7480 0053 C9       		leave
 7481              	.LCFI197:
 7482              		.cfi_def_cfa 7, 8
 7483 0054 C3       		ret
 7484              		.cfi_endproc
 7485              	.LFE71:
 7487              		.section	.text.cJSON_DeleteItemFromObjectCaseSensitive,"ax",@progbits
 7488              		.globl	cJSON_DeleteItemFromObjectCaseSensitive
 7490              	cJSON_DeleteItemFromObjectCaseSensitive:
 7491              	.LFB72:
2134:/home/xingli/share/1205tiny/cJSON/cJSON.c **** 
2135:/home/xingli/share/1205tiny/cJSON/cJSON.c **** CJSON_PUBLIC(void) cJSON_DeleteItemFromObjectCaseSensitive(cJSON *object, const char *string)
2136:/home/xingli/share/1205tiny/cJSON/cJSON.c **** {
 7492              		.loc 1 2136 1
 7493              		.cfi_startproc
 7494 0000 F30F1EFA 		endbr64
 7495 0004 55       		pushq	%rbp
 7496              	.LCFI198:
 7497              		.cfi_def_cfa_offset 16
 7498              		.cfi_offset 6, -16
 7499 0005 4889E5   		movq	%rsp, %rbp
 7500              	.LCFI199:
 7501              		.cfi_def_cfa_register 6
 7502 0008 4883EC20 		subq	$32, %rsp
 7503 000c 48897DE8 		movq	%rdi, -24(%rbp)
 7504 0010 488975E0 		movq	%rsi, -32(%rbp)
 7505              		.loc 1 2136 1
 7506 0014 64488B04 		movq	%fs:40, %rax
 7506      25280000 
 7506      00
 7507 001d 488945F8 		movq	%rax, -8(%rbp)
 7508 0021 31C0     		xorl	%eax, %eax
2137:/home/xingli/share/1205tiny/cJSON/cJSON.c ****     cJSON_Delete(cJSON_DetachItemFromObjectCaseSensitive(object, string));
 7509              		.loc 1 2137 5
 7510 0023 488B55E0 		movq	-32(%rbp), %rdx
 7511 0027 488B45E8 		movq	-24(%rbp), %rax
 7512 002b 4889D6   		movq	%rdx, %rsi
 7513 002e 4889C7   		movq	%rax, %rdi
 7514 0031 E8000000 		call	cJSON_DetachItemFromObjectCaseSensitive
 7514      00
 7515 0036 4889C7   		movq	%rax, %rdi
 7516 0039 E8000000 		call	cJSON_Delete
 7516      00
2138:/home/xingli/share/1205tiny/cJSON/cJSON.c **** }
 7517              		.loc 1 2138 1
 7518 003e 90       		nop
 7519 003f 488B45F8 		movq	-8(%rbp), %rax
 7520 0043 64483304 		xorq	%fs:40, %rax
 7520      25280000 
 7520      00
GAS LISTING /tmp/ccabgRKQ.s 			page 190


 7521 004c 7405     		je	.L578
 7522 004e E8000000 		call	__stack_chk_fail@PLT
 7522      00
 7523              	.L578:
 7524 0053 C9       		leave
 7525              	.LCFI200:
 7526              		.cfi_def_cfa 7, 8
 7527 0054 C3       		ret
 7528              		.cfi_endproc
 7529              	.LFE72:
 7531              		.section	.text.cJSON_InsertItemInArray,"ax",@progbits
 7532              		.globl	cJSON_InsertItemInArray
 7534              	cJSON_InsertItemInArray:
 7535              	.LFB73:
2139:/home/xingli/share/1205tiny/cJSON/cJSON.c **** 
2140:/home/xingli/share/1205tiny/cJSON/cJSON.c **** /* Replace array/object items with new ones. */
2141:/home/xingli/share/1205tiny/cJSON/cJSON.c **** CJSON_PUBLIC(void) cJSON_InsertItemInArray(cJSON *array, int which, cJSON *newitem)
2142:/home/xingli/share/1205tiny/cJSON/cJSON.c **** {
 7536              		.loc 1 2142 1
 7537              		.cfi_startproc
 7538 0000 F30F1EFA 		endbr64
 7539 0004 55       		pushq	%rbp
 7540              	.LCFI201:
 7541              		.cfi_def_cfa_offset 16
 7542              		.cfi_offset 6, -16
 7543 0005 4889E5   		movq	%rsp, %rbp
 7544              	.LCFI202:
 7545              		.cfi_def_cfa_register 6
 7546 0008 4883EC30 		subq	$48, %rsp
 7547 000c 48897DE8 		movq	%rdi, -24(%rbp)
 7548 0010 8975E4   		movl	%esi, -28(%rbp)
 7549 0013 488955D8 		movq	%rdx, -40(%rbp)
 7550              		.loc 1 2142 1
 7551 0017 64488B04 		movq	%fs:40, %rax
 7551      25280000 
 7551      00
 7552 0020 488945F8 		movq	%rax, -8(%rbp)
 7553 0024 31C0     		xorl	%eax, %eax
2143:/home/xingli/share/1205tiny/cJSON/cJSON.c ****     cJSON *after_inserted = NULL;
 7554              		.loc 1 2143 12
 7555 0026 48C745F0 		movq	$0, -16(%rbp)
 7555      00000000 
2144:/home/xingli/share/1205tiny/cJSON/cJSON.c **** 
2145:/home/xingli/share/1205tiny/cJSON/cJSON.c ****     if (which < 0)
 7556              		.loc 1 2145 8
 7557 002e 837DE400 		cmpl	$0, -28(%rbp)
 7558 0032 0F888900 		js	.L585
 7558      0000
2146:/home/xingli/share/1205tiny/cJSON/cJSON.c ****     {
2147:/home/xingli/share/1205tiny/cJSON/cJSON.c ****         return;
2148:/home/xingli/share/1205tiny/cJSON/cJSON.c ****     }
2149:/home/xingli/share/1205tiny/cJSON/cJSON.c **** 
2150:/home/xingli/share/1205tiny/cJSON/cJSON.c ****     after_inserted = get_array_item(array, (size_t)which);
 7559              		.loc 1 2150 22
 7560 0038 8B45E4   		movl	-28(%rbp), %eax
 7561 003b 4863D0   		movslq	%eax, %rdx
 7562 003e 488B45E8 		movq	-24(%rbp), %rax
GAS LISTING /tmp/ccabgRKQ.s 			page 191


 7563 0042 4889D6   		movq	%rdx, %rsi
 7564 0045 4889C7   		movq	%rax, %rdi
 7565 0048 E8000000 		call	get_array_item
 7565      00
 7566 004d 488945F0 		movq	%rax, -16(%rbp)
2151:/home/xingli/share/1205tiny/cJSON/cJSON.c ****     if (after_inserted == NULL)
 7567              		.loc 1 2151 8
 7568 0051 48837DF0 		cmpq	$0, -16(%rbp)
 7568      00
 7569 0056 7515     		jne	.L582
2152:/home/xingli/share/1205tiny/cJSON/cJSON.c ****     {
2153:/home/xingli/share/1205tiny/cJSON/cJSON.c ****         add_item_to_array(array, newitem);
 7570              		.loc 1 2153 9
 7571 0058 488B55D8 		movq	-40(%rbp), %rdx
 7572 005c 488B45E8 		movq	-24(%rbp), %rax
 7573 0060 4889D6   		movq	%rdx, %rsi
 7574 0063 4889C7   		movq	%rax, %rdi
 7575 0066 E8000000 		call	add_item_to_array
 7575      00
2154:/home/xingli/share/1205tiny/cJSON/cJSON.c ****         return;
 7576              		.loc 1 2154 9
 7577 006b EB55     		jmp	.L579
 7578              	.L582:
2155:/home/xingli/share/1205tiny/cJSON/cJSON.c ****     }
2156:/home/xingli/share/1205tiny/cJSON/cJSON.c **** 
2157:/home/xingli/share/1205tiny/cJSON/cJSON.c ****     newitem->next = after_inserted;
 7579              		.loc 1 2157 19
 7580 006d 488B45D8 		movq	-40(%rbp), %rax
 7581 0071 488B55F0 		movq	-16(%rbp), %rdx
 7582 0075 488910   		movq	%rdx, (%rax)
2158:/home/xingli/share/1205tiny/cJSON/cJSON.c ****     newitem->prev = after_inserted->prev;
 7583              		.loc 1 2158 35
 7584 0078 488B45F0 		movq	-16(%rbp), %rax
 7585 007c 488B5008 		movq	8(%rax), %rdx
 7586              		.loc 1 2158 19
 7587 0080 488B45D8 		movq	-40(%rbp), %rax
 7588 0084 48895008 		movq	%rdx, 8(%rax)
2159:/home/xingli/share/1205tiny/cJSON/cJSON.c ****     after_inserted->prev = newitem;
 7589              		.loc 1 2159 26
 7590 0088 488B45F0 		movq	-16(%rbp), %rax
 7591 008c 488B55D8 		movq	-40(%rbp), %rdx
 7592 0090 48895008 		movq	%rdx, 8(%rax)
2160:/home/xingli/share/1205tiny/cJSON/cJSON.c ****     if (after_inserted == array->child)
 7593              		.loc 1 2160 32
 7594 0094 488B45E8 		movq	-24(%rbp), %rax
 7595 0098 488B4010 		movq	16(%rax), %rax
 7596              		.loc 1 2160 8
 7597 009c 483945F0 		cmpq	%rax, -16(%rbp)
 7598 00a0 750E     		jne	.L583
2161:/home/xingli/share/1205tiny/cJSON/cJSON.c ****     {
2162:/home/xingli/share/1205tiny/cJSON/cJSON.c ****         array->child = newitem;
 7599              		.loc 1 2162 22
 7600 00a2 488B45E8 		movq	-24(%rbp), %rax
 7601 00a6 488B55D8 		movq	-40(%rbp), %rdx
 7602 00aa 48895010 		movq	%rdx, 16(%rax)
 7603 00ae EB12     		jmp	.L579
 7604              	.L583:
GAS LISTING /tmp/ccabgRKQ.s 			page 192


2163:/home/xingli/share/1205tiny/cJSON/cJSON.c ****     }
2164:/home/xingli/share/1205tiny/cJSON/cJSON.c ****     else
2165:/home/xingli/share/1205tiny/cJSON/cJSON.c ****     {
2166:/home/xingli/share/1205tiny/cJSON/cJSON.c ****         newitem->prev->next = newitem;
 7605              		.loc 1 2166 16
 7606 00b0 488B45D8 		movq	-40(%rbp), %rax
 7607 00b4 488B4008 		movq	8(%rax), %rax
 7608              		.loc 1 2166 29
 7609 00b8 488B55D8 		movq	-40(%rbp), %rdx
 7610 00bc 488910   		movq	%rdx, (%rax)
 7611 00bf EB01     		jmp	.L579
 7612              	.L585:
2147:/home/xingli/share/1205tiny/cJSON/cJSON.c ****     }
 7613              		.loc 1 2147 9
 7614 00c1 90       		nop
 7615              	.L579:
2167:/home/xingli/share/1205tiny/cJSON/cJSON.c ****     }
2168:/home/xingli/share/1205tiny/cJSON/cJSON.c **** }
 7616              		.loc 1 2168 1
 7617 00c2 488B45F8 		movq	-8(%rbp), %rax
 7618 00c6 64483304 		xorq	%fs:40, %rax
 7618      25280000 
 7618      00
 7619 00cf 7405     		je	.L584
 7620 00d1 E8000000 		call	__stack_chk_fail@PLT
 7620      00
 7621              	.L584:
 7622 00d6 C9       		leave
 7623              	.LCFI203:
 7624              		.cfi_def_cfa 7, 8
 7625 00d7 C3       		ret
 7626              		.cfi_endproc
 7627              	.LFE73:
 7629              		.section	.text.cJSON_ReplaceItemViaPointer,"ax",@progbits
 7630              		.globl	cJSON_ReplaceItemViaPointer
 7632              	cJSON_ReplaceItemViaPointer:
 7633              	.LFB74:
2169:/home/xingli/share/1205tiny/cJSON/cJSON.c **** 
2170:/home/xingli/share/1205tiny/cJSON/cJSON.c **** CJSON_PUBLIC(cJSON_bool) cJSON_ReplaceItemViaPointer(cJSON * const parent, cJSON * const item, cJSO
2171:/home/xingli/share/1205tiny/cJSON/cJSON.c **** {
 7634              		.loc 1 2171 1
 7635              		.cfi_startproc
 7636 0000 F30F1EFA 		endbr64
 7637 0004 55       		pushq	%rbp
 7638              	.LCFI204:
 7639              		.cfi_def_cfa_offset 16
 7640              		.cfi_offset 6, -16
 7641 0005 4889E5   		movq	%rsp, %rbp
 7642              	.LCFI205:
 7643              		.cfi_def_cfa_register 6
 7644 0008 4883EC30 		subq	$48, %rsp
 7645 000c 48897DE8 		movq	%rdi, -24(%rbp)
 7646 0010 488975E0 		movq	%rsi, -32(%rbp)
 7647 0014 488955D8 		movq	%rdx, -40(%rbp)
 7648              		.loc 1 2171 1
 7649 0018 64488B04 		movq	%fs:40, %rax
 7649      25280000 
GAS LISTING /tmp/ccabgRKQ.s 			page 193


 7649      00
 7650 0021 488945F8 		movq	%rax, -8(%rbp)
 7651 0025 31C0     		xorl	%eax, %eax
2172:/home/xingli/share/1205tiny/cJSON/cJSON.c ****     if ((parent == NULL) || (replacement == NULL) || (item == NULL))
 7652              		.loc 1 2172 8
 7653 0027 48837DE8 		cmpq	$0, -24(%rbp)
 7653      00
 7654 002c 740E     		je	.L587
 7655              		.loc 1 2172 26 discriminator 1
 7656 002e 48837DD8 		cmpq	$0, -40(%rbp)
 7656      00
 7657 0033 7407     		je	.L587
 7658              		.loc 1 2172 51 discriminator 2
 7659 0035 48837DE0 		cmpq	$0, -32(%rbp)
 7659      00
 7660 003a 750A     		jne	.L588
 7661              	.L587:
2173:/home/xingli/share/1205tiny/cJSON/cJSON.c ****     {
2174:/home/xingli/share/1205tiny/cJSON/cJSON.c ****         return false;
 7662              		.loc 1 2174 16
 7663 003c B8000000 		movl	$0, %eax
 7663      00
 7664 0041 E9AB0000 		jmp	.L589
 7664      00
 7665              	.L588:
2175:/home/xingli/share/1205tiny/cJSON/cJSON.c ****     }
2176:/home/xingli/share/1205tiny/cJSON/cJSON.c **** 
2177:/home/xingli/share/1205tiny/cJSON/cJSON.c ****     if (replacement == item)
 7666              		.loc 1 2177 8
 7667 0046 488B45D8 		movq	-40(%rbp), %rax
 7668 004a 483B45E0 		cmpq	-32(%rbp), %rax
 7669 004e 750A     		jne	.L590
2178:/home/xingli/share/1205tiny/cJSON/cJSON.c ****     {
2179:/home/xingli/share/1205tiny/cJSON/cJSON.c ****         return true;
 7670              		.loc 1 2179 16
 7671 0050 B8010000 		movl	$1, %eax
 7671      00
 7672 0055 E9970000 		jmp	.L589
 7672      00
 7673              	.L590:
2180:/home/xingli/share/1205tiny/cJSON/cJSON.c ****     }
2181:/home/xingli/share/1205tiny/cJSON/cJSON.c **** 
2182:/home/xingli/share/1205tiny/cJSON/cJSON.c ****     replacement->next = item->next;
 7674              		.loc 1 2182 29
 7675 005a 488B45E0 		movq	-32(%rbp), %rax
 7676 005e 488B10   		movq	(%rax), %rdx
 7677              		.loc 1 2182 23
 7678 0061 488B45D8 		movq	-40(%rbp), %rax
 7679 0065 488910   		movq	%rdx, (%rax)
2183:/home/xingli/share/1205tiny/cJSON/cJSON.c ****     replacement->prev = item->prev;
 7680              		.loc 1 2183 29
 7681 0068 488B45E0 		movq	-32(%rbp), %rax
 7682 006c 488B5008 		movq	8(%rax), %rdx
 7683              		.loc 1 2183 23
 7684 0070 488B45D8 		movq	-40(%rbp), %rax
 7685 0074 48895008 		movq	%rdx, 8(%rax)
2184:/home/xingli/share/1205tiny/cJSON/cJSON.c **** 
GAS LISTING /tmp/ccabgRKQ.s 			page 194


2185:/home/xingli/share/1205tiny/cJSON/cJSON.c ****     if (replacement->next != NULL)
 7686              		.loc 1 2185 20
 7687 0078 488B45D8 		movq	-40(%rbp), %rax
 7688 007c 488B00   		movq	(%rax), %rax
 7689              		.loc 1 2185 8
 7690 007f 4885C0   		testq	%rax, %rax
 7691 0082 740F     		je	.L591
2186:/home/xingli/share/1205tiny/cJSON/cJSON.c ****     {
2187:/home/xingli/share/1205tiny/cJSON/cJSON.c ****         replacement->next->prev = replacement;
 7692              		.loc 1 2187 20
 7693 0084 488B45D8 		movq	-40(%rbp), %rax
 7694 0088 488B00   		movq	(%rax), %rax
 7695              		.loc 1 2187 33
 7696 008b 488B55D8 		movq	-40(%rbp), %rdx
 7697 008f 48895008 		movq	%rdx, 8(%rax)
 7698              	.L591:
2188:/home/xingli/share/1205tiny/cJSON/cJSON.c ****     }
2189:/home/xingli/share/1205tiny/cJSON/cJSON.c ****     if (replacement->prev != NULL)
 7699              		.loc 1 2189 20
 7700 0093 488B45D8 		movq	-40(%rbp), %rax
 7701 0097 488B4008 		movq	8(%rax), %rax
 7702              		.loc 1 2189 8
 7703 009b 4885C0   		testq	%rax, %rax
 7704 009e 740F     		je	.L592
2190:/home/xingli/share/1205tiny/cJSON/cJSON.c ****     {
2191:/home/xingli/share/1205tiny/cJSON/cJSON.c ****         replacement->prev->next = replacement;
 7705              		.loc 1 2191 20
 7706 00a0 488B45D8 		movq	-40(%rbp), %rax
 7707 00a4 488B4008 		movq	8(%rax), %rax
 7708              		.loc 1 2191 33
 7709 00a8 488B55D8 		movq	-40(%rbp), %rdx
 7710 00ac 488910   		movq	%rdx, (%rax)
 7711              	.L592:
2192:/home/xingli/share/1205tiny/cJSON/cJSON.c ****     }
2193:/home/xingli/share/1205tiny/cJSON/cJSON.c ****     if (parent->child == item)
 7712              		.loc 1 2193 15
 7713 00af 488B45E8 		movq	-24(%rbp), %rax
 7714 00b3 488B4010 		movq	16(%rax), %rax
 7715              		.loc 1 2193 8
 7716 00b7 483945E0 		cmpq	%rax, -32(%rbp)
 7717 00bb 750C     		jne	.L593
2194:/home/xingli/share/1205tiny/cJSON/cJSON.c ****     {
2195:/home/xingli/share/1205tiny/cJSON/cJSON.c ****         parent->child = replacement;
 7718              		.loc 1 2195 23
 7719 00bd 488B45E8 		movq	-24(%rbp), %rax
 7720 00c1 488B55D8 		movq	-40(%rbp), %rdx
 7721 00c5 48895010 		movq	%rdx, 16(%rax)
 7722              	.L593:
2196:/home/xingli/share/1205tiny/cJSON/cJSON.c ****     }
2197:/home/xingli/share/1205tiny/cJSON/cJSON.c **** 
2198:/home/xingli/share/1205tiny/cJSON/cJSON.c ****     item->next = NULL;
 7723              		.loc 1 2198 16
 7724 00c9 488B45E0 		movq	-32(%rbp), %rax
 7725 00cd 48C70000 		movq	$0, (%rax)
 7725      000000
2199:/home/xingli/share/1205tiny/cJSON/cJSON.c ****     item->prev = NULL;
 7726              		.loc 1 2199 16
GAS LISTING /tmp/ccabgRKQ.s 			page 195


 7727 00d4 488B45E0 		movq	-32(%rbp), %rax
 7728 00d8 48C74008 		movq	$0, 8(%rax)
 7728      00000000 
2200:/home/xingli/share/1205tiny/cJSON/cJSON.c ****     cJSON_Delete(item);
 7729              		.loc 1 2200 5
 7730 00e0 488B45E0 		movq	-32(%rbp), %rax
 7731 00e4 4889C7   		movq	%rax, %rdi
 7732 00e7 E8000000 		call	cJSON_Delete
 7732      00
2201:/home/xingli/share/1205tiny/cJSON/cJSON.c **** 
2202:/home/xingli/share/1205tiny/cJSON/cJSON.c ****     return true;
 7733              		.loc 1 2202 12
 7734 00ec B8010000 		movl	$1, %eax
 7734      00
 7735              	.L589:
2203:/home/xingli/share/1205tiny/cJSON/cJSON.c **** }
 7736              		.loc 1 2203 1
 7737 00f1 488B4DF8 		movq	-8(%rbp), %rcx
 7738 00f5 6448330C 		xorq	%fs:40, %rcx
 7738      25280000 
 7738      00
 7739 00fe 7405     		je	.L594
 7740 0100 E8000000 		call	__stack_chk_fail@PLT
 7740      00
 7741              	.L594:
 7742 0105 C9       		leave
 7743              	.LCFI206:
 7744              		.cfi_def_cfa 7, 8
 7745 0106 C3       		ret
 7746              		.cfi_endproc
 7747              	.LFE74:
 7749              		.section	.text.cJSON_ReplaceItemInArray,"ax",@progbits
 7750              		.globl	cJSON_ReplaceItemInArray
 7752              	cJSON_ReplaceItemInArray:
 7753              	.LFB75:
2204:/home/xingli/share/1205tiny/cJSON/cJSON.c **** 
2205:/home/xingli/share/1205tiny/cJSON/cJSON.c **** CJSON_PUBLIC(void) cJSON_ReplaceItemInArray(cJSON *array, int which, cJSON *newitem)
2206:/home/xingli/share/1205tiny/cJSON/cJSON.c **** {
 7754              		.loc 1 2206 1
 7755              		.cfi_startproc
 7756 0000 F30F1EFA 		endbr64
 7757 0004 55       		pushq	%rbp
 7758              	.LCFI207:
 7759              		.cfi_def_cfa_offset 16
 7760              		.cfi_offset 6, -16
 7761 0005 4889E5   		movq	%rsp, %rbp
 7762              	.LCFI208:
 7763              		.cfi_def_cfa_register 6
 7764 0008 4883EC30 		subq	$48, %rsp
 7765 000c 48897DE8 		movq	%rdi, -24(%rbp)
 7766 0010 8975E4   		movl	%esi, -28(%rbp)
 7767 0013 488955D8 		movq	%rdx, -40(%rbp)
 7768              		.loc 1 2206 1
 7769 0017 64488B04 		movq	%fs:40, %rax
 7769      25280000 
 7769      00
 7770 0020 488945F8 		movq	%rax, -8(%rbp)
GAS LISTING /tmp/ccabgRKQ.s 			page 196


 7771 0024 31C0     		xorl	%eax, %eax
2207:/home/xingli/share/1205tiny/cJSON/cJSON.c ****     if (which < 0)
 7772              		.loc 1 2207 8
 7773 0026 837DE400 		cmpl	$0, -28(%rbp)
 7774 002a 782D     		js	.L599
2208:/home/xingli/share/1205tiny/cJSON/cJSON.c ****     {
2209:/home/xingli/share/1205tiny/cJSON/cJSON.c ****         return;
2210:/home/xingli/share/1205tiny/cJSON/cJSON.c ****     }
2211:/home/xingli/share/1205tiny/cJSON/cJSON.c **** 
2212:/home/xingli/share/1205tiny/cJSON/cJSON.c ****     cJSON_ReplaceItemViaPointer(array, get_array_item(array, (size_t)which), newitem);
 7775              		.loc 1 2212 5
 7776 002c 8B45E4   		movl	-28(%rbp), %eax
 7777 002f 4863D0   		movslq	%eax, %rdx
 7778 0032 488B45E8 		movq	-24(%rbp), %rax
 7779 0036 4889D6   		movq	%rdx, %rsi
 7780 0039 4889C7   		movq	%rax, %rdi
 7781 003c E8000000 		call	get_array_item
 7781      00
 7782 0041 4889C1   		movq	%rax, %rcx
 7783 0044 488B55D8 		movq	-40(%rbp), %rdx
 7784 0048 488B45E8 		movq	-24(%rbp), %rax
 7785 004c 4889CE   		movq	%rcx, %rsi
 7786 004f 4889C7   		movq	%rax, %rdi
 7787 0052 E8000000 		call	cJSON_ReplaceItemViaPointer
 7787      00
 7788 0057 EB01     		jmp	.L595
 7789              	.L599:
2209:/home/xingli/share/1205tiny/cJSON/cJSON.c ****     }
 7790              		.loc 1 2209 9
 7791 0059 90       		nop
 7792              	.L595:
2213:/home/xingli/share/1205tiny/cJSON/cJSON.c **** }
 7793              		.loc 1 2213 1
 7794 005a 488B45F8 		movq	-8(%rbp), %rax
 7795 005e 64483304 		xorq	%fs:40, %rax
 7795      25280000 
 7795      00
 7796 0067 7405     		je	.L598
 7797 0069 E8000000 		call	__stack_chk_fail@PLT
 7797      00
 7798              	.L598:
 7799 006e C9       		leave
 7800              	.LCFI209:
 7801              		.cfi_def_cfa 7, 8
 7802 006f C3       		ret
 7803              		.cfi_endproc
 7804              	.LFE75:
 7806              		.section	.text.replace_item_in_object,"ax",@progbits
 7808              	replace_item_in_object:
 7809              	.LFB76:
2214:/home/xingli/share/1205tiny/cJSON/cJSON.c **** 
2215:/home/xingli/share/1205tiny/cJSON/cJSON.c **** static cJSON_bool replace_item_in_object(cJSON *object, const char *string, cJSON *replacement, cJS
2216:/home/xingli/share/1205tiny/cJSON/cJSON.c **** {
 7810              		.loc 1 2216 1
 7811              		.cfi_startproc
 7812 0000 F30F1EFA 		endbr64
 7813 0004 55       		pushq	%rbp
GAS LISTING /tmp/ccabgRKQ.s 			page 197


 7814              	.LCFI210:
 7815              		.cfi_def_cfa_offset 16
 7816              		.cfi_offset 6, -16
 7817 0005 4889E5   		movq	%rsp, %rbp
 7818              	.LCFI211:
 7819              		.cfi_def_cfa_register 6
 7820 0008 4883EC30 		subq	$48, %rsp
 7821 000c 48897DE8 		movq	%rdi, -24(%rbp)
 7822 0010 488975E0 		movq	%rsi, -32(%rbp)
 7823 0014 488955D8 		movq	%rdx, -40(%rbp)
 7824 0018 894DD4   		movl	%ecx, -44(%rbp)
 7825              		.loc 1 2216 1
 7826 001b 64488B04 		movq	%fs:40, %rax
 7826      25280000 
 7826      00
 7827 0024 488945F8 		movq	%rax, -8(%rbp)
 7828 0028 31C0     		xorl	%eax, %eax
2217:/home/xingli/share/1205tiny/cJSON/cJSON.c ****     if ((replacement == NULL) || (string == NULL))
 7829              		.loc 1 2217 8
 7830 002a 48837DD8 		cmpq	$0, -40(%rbp)
 7830      00
 7831 002f 7407     		je	.L601
 7832              		.loc 1 2217 31 discriminator 1
 7833 0031 48837DE0 		cmpq	$0, -32(%rbp)
 7833      00
 7834 0036 750A     		jne	.L602
 7835              	.L601:
2218:/home/xingli/share/1205tiny/cJSON/cJSON.c ****     {
2219:/home/xingli/share/1205tiny/cJSON/cJSON.c ****         return false;
 7836              		.loc 1 2219 16
 7837 0038 B8000000 		movl	$0, %eax
 7837      00
 7838 003d E98C0000 		jmp	.L603
 7838      00
 7839              	.L602:
2220:/home/xingli/share/1205tiny/cJSON/cJSON.c ****     }
2221:/home/xingli/share/1205tiny/cJSON/cJSON.c **** 
2222:/home/xingli/share/1205tiny/cJSON/cJSON.c ****     /* replace the name in the replacement */
2223:/home/xingli/share/1205tiny/cJSON/cJSON.c ****     if (!(replacement->type & cJSON_StringIsConst) && (replacement->string != NULL))
 7840              		.loc 1 2223 22
 7841 0042 488B45D8 		movq	-40(%rbp), %rax
 7842 0046 8B4018   		movl	24(%rax), %eax
 7843              		.loc 1 2223 29
 7844 0049 25000200 		andl	$512, %eax
 7844      00
 7845              		.loc 1 2223 8
 7846 004e 85C0     		testl	%eax, %eax
 7847 0050 751D     		jne	.L604
 7848              		.loc 1 2223 67 discriminator 1
 7849 0052 488B45D8 		movq	-40(%rbp), %rax
 7850 0056 488B4038 		movq	56(%rax), %rax
 7851              		.loc 1 2223 52 discriminator 1
 7852 005a 4885C0   		testq	%rax, %rax
 7853 005d 7410     		je	.L604
2224:/home/xingli/share/1205tiny/cJSON/cJSON.c ****     {
2225:/home/xingli/share/1205tiny/cJSON/cJSON.c ****         cJSON_free(replacement->string);
 7854              		.loc 1 2225 31
GAS LISTING /tmp/ccabgRKQ.s 			page 198


 7855 005f 488B45D8 		movq	-40(%rbp), %rax
 7856 0063 488B4038 		movq	56(%rax), %rax
 7857              		.loc 1 2225 9
 7858 0067 4889C7   		movq	%rax, %rdi
 7859 006a E8000000 		call	cJSON_free
 7859      00
 7860              	.L604:
2226:/home/xingli/share/1205tiny/cJSON/cJSON.c ****     }
2227:/home/xingli/share/1205tiny/cJSON/cJSON.c ****     replacement->string = (char*)cJSON_strdup((const unsigned char*)string, &global_hooks);
 7861              		.loc 1 2227 34
 7862 006f 488B45E0 		movq	-32(%rbp), %rax
 7863 0073 488D3500 		leaq	global_hooks(%rip), %rsi
 7863      000000
 7864 007a 4889C7   		movq	%rax, %rdi
 7865 007d E8000000 		call	cJSON_strdup
 7865      00
 7866              		.loc 1 2227 25
 7867 0082 488B55D8 		movq	-40(%rbp), %rdx
 7868 0086 48894238 		movq	%rax, 56(%rdx)
2228:/home/xingli/share/1205tiny/cJSON/cJSON.c ****     replacement->type &= ~cJSON_StringIsConst;
 7869              		.loc 1 2228 23
 7870 008a 488B45D8 		movq	-40(%rbp), %rax
 7871 008e 8B4018   		movl	24(%rax), %eax
 7872 0091 80E4FD   		andb	$-3, %ah
 7873 0094 89C2     		movl	%eax, %edx
 7874 0096 488B45D8 		movq	-40(%rbp), %rax
 7875 009a 895018   		movl	%edx, 24(%rax)
2229:/home/xingli/share/1205tiny/cJSON/cJSON.c **** 
2230:/home/xingli/share/1205tiny/cJSON/cJSON.c ****     cJSON_ReplaceItemViaPointer(object, get_object_item(object, string, case_sensitive), replacemen
 7876              		.loc 1 2230 5
 7877 009d 8B55D4   		movl	-44(%rbp), %edx
 7878 00a0 488B4DE0 		movq	-32(%rbp), %rcx
 7879 00a4 488B45E8 		movq	-24(%rbp), %rax
 7880 00a8 4889CE   		movq	%rcx, %rsi
 7881 00ab 4889C7   		movq	%rax, %rdi
 7882 00ae E8000000 		call	get_object_item
 7882      00
 7883 00b3 4889C1   		movq	%rax, %rcx
 7884 00b6 488B55D8 		movq	-40(%rbp), %rdx
 7885 00ba 488B45E8 		movq	-24(%rbp), %rax
 7886 00be 4889CE   		movq	%rcx, %rsi
 7887 00c1 4889C7   		movq	%rax, %rdi
 7888 00c4 E8000000 		call	cJSON_ReplaceItemViaPointer
 7888      00
2231:/home/xingli/share/1205tiny/cJSON/cJSON.c **** 
2232:/home/xingli/share/1205tiny/cJSON/cJSON.c ****     return true;
 7889              		.loc 1 2232 12
 7890 00c9 B8010000 		movl	$1, %eax
 7890      00
 7891              	.L603:
2233:/home/xingli/share/1205tiny/cJSON/cJSON.c **** }
 7892              		.loc 1 2233 1
 7893 00ce 488B75F8 		movq	-8(%rbp), %rsi
 7894 00d2 64483334 		xorq	%fs:40, %rsi
 7894      25280000 
 7894      00
 7895 00db 7405     		je	.L605
GAS LISTING /tmp/ccabgRKQ.s 			page 199


 7896 00dd E8000000 		call	__stack_chk_fail@PLT
 7896      00
 7897              	.L605:
 7898 00e2 C9       		leave
 7899              	.LCFI212:
 7900              		.cfi_def_cfa 7, 8
 7901 00e3 C3       		ret
 7902              		.cfi_endproc
 7903              	.LFE76:
 7905              		.section	.text.cJSON_ReplaceItemInObject,"ax",@progbits
 7906              		.globl	cJSON_ReplaceItemInObject
 7908              	cJSON_ReplaceItemInObject:
 7909              	.LFB77:
2234:/home/xingli/share/1205tiny/cJSON/cJSON.c **** 
2235:/home/xingli/share/1205tiny/cJSON/cJSON.c **** CJSON_PUBLIC(void) cJSON_ReplaceItemInObject(cJSON *object, const char *string, cJSON *newitem)
2236:/home/xingli/share/1205tiny/cJSON/cJSON.c **** {
 7910              		.loc 1 2236 1
 7911              		.cfi_startproc
 7912 0000 F30F1EFA 		endbr64
 7913 0004 55       		pushq	%rbp
 7914              	.LCFI213:
 7915              		.cfi_def_cfa_offset 16
 7916              		.cfi_offset 6, -16
 7917 0005 4889E5   		movq	%rsp, %rbp
 7918              	.LCFI214:
 7919              		.cfi_def_cfa_register 6
 7920 0008 4883EC30 		subq	$48, %rsp
 7921 000c 48897DE8 		movq	%rdi, -24(%rbp)
 7922 0010 488975E0 		movq	%rsi, -32(%rbp)
 7923 0014 488955D8 		movq	%rdx, -40(%rbp)
 7924              		.loc 1 2236 1
 7925 0018 64488B04 		movq	%fs:40, %rax
 7925      25280000 
 7925      00
 7926 0021 488945F8 		movq	%rax, -8(%rbp)
 7927 0025 31C0     		xorl	%eax, %eax
2237:/home/xingli/share/1205tiny/cJSON/cJSON.c ****     replace_item_in_object(object, string, newitem, false);
 7928              		.loc 1 2237 5
 7929 0027 488B55D8 		movq	-40(%rbp), %rdx
 7930 002b 488B75E0 		movq	-32(%rbp), %rsi
 7931 002f 488B45E8 		movq	-24(%rbp), %rax
 7932 0033 B9000000 		movl	$0, %ecx
 7932      00
 7933 0038 4889C7   		movq	%rax, %rdi
 7934 003b E8000000 		call	replace_item_in_object
 7934      00
2238:/home/xingli/share/1205tiny/cJSON/cJSON.c **** }
 7935              		.loc 1 2238 1
 7936 0040 90       		nop
 7937 0041 488B45F8 		movq	-8(%rbp), %rax
 7938 0045 64483304 		xorq	%fs:40, %rax
 7938      25280000 
 7938      00
 7939 004e 7405     		je	.L607
 7940 0050 E8000000 		call	__stack_chk_fail@PLT
 7940      00
 7941              	.L607:
GAS LISTING /tmp/ccabgRKQ.s 			page 200


 7942 0055 C9       		leave
 7943              	.LCFI215:
 7944              		.cfi_def_cfa 7, 8
 7945 0056 C3       		ret
 7946              		.cfi_endproc
 7947              	.LFE77:
 7949              		.section	.text.cJSON_ReplaceItemInObjectCaseSensitive,"ax",@progbits
 7950              		.globl	cJSON_ReplaceItemInObjectCaseSensitive
 7952              	cJSON_ReplaceItemInObjectCaseSensitive:
 7953              	.LFB78:
2239:/home/xingli/share/1205tiny/cJSON/cJSON.c **** 
2240:/home/xingli/share/1205tiny/cJSON/cJSON.c **** CJSON_PUBLIC(void) cJSON_ReplaceItemInObjectCaseSensitive(cJSON *object, const char *string, cJSON 
2241:/home/xingli/share/1205tiny/cJSON/cJSON.c **** {
 7954              		.loc 1 2241 1
 7955              		.cfi_startproc
 7956 0000 F30F1EFA 		endbr64
 7957 0004 55       		pushq	%rbp
 7958              	.LCFI216:
 7959              		.cfi_def_cfa_offset 16
 7960              		.cfi_offset 6, -16
 7961 0005 4889E5   		movq	%rsp, %rbp
 7962              	.LCFI217:
 7963              		.cfi_def_cfa_register 6
 7964 0008 4883EC30 		subq	$48, %rsp
 7965 000c 48897DE8 		movq	%rdi, -24(%rbp)
 7966 0010 488975E0 		movq	%rsi, -32(%rbp)
 7967 0014 488955D8 		movq	%rdx, -40(%rbp)
 7968              		.loc 1 2241 1
 7969 0018 64488B04 		movq	%fs:40, %rax
 7969      25280000 
 7969      00
 7970 0021 488945F8 		movq	%rax, -8(%rbp)
 7971 0025 31C0     		xorl	%eax, %eax
2242:/home/xingli/share/1205tiny/cJSON/cJSON.c ****     replace_item_in_object(object, string, newitem, true);
 7972              		.loc 1 2242 5
 7973 0027 488B55D8 		movq	-40(%rbp), %rdx
 7974 002b 488B75E0 		movq	-32(%rbp), %rsi
 7975 002f 488B45E8 		movq	-24(%rbp), %rax
 7976 0033 B9010000 		movl	$1, %ecx
 7976      00
 7977 0038 4889C7   		movq	%rax, %rdi
 7978 003b E8000000 		call	replace_item_in_object
 7978      00
2243:/home/xingli/share/1205tiny/cJSON/cJSON.c **** }
 7979              		.loc 1 2243 1
 7980 0040 90       		nop
 7981 0041 488B45F8 		movq	-8(%rbp), %rax
 7982 0045 64483304 		xorq	%fs:40, %rax
 7982      25280000 
 7982      00
 7983 004e 7405     		je	.L609
 7984 0050 E8000000 		call	__stack_chk_fail@PLT
 7984      00
 7985              	.L609:
 7986 0055 C9       		leave
 7987              	.LCFI218:
 7988              		.cfi_def_cfa 7, 8
GAS LISTING /tmp/ccabgRKQ.s 			page 201


 7989 0056 C3       		ret
 7990              		.cfi_endproc
 7991              	.LFE78:
 7993              		.section	.text.cJSON_CreateNull,"ax",@progbits
 7994              		.globl	cJSON_CreateNull
 7996              	cJSON_CreateNull:
 7997              	.LFB79:
2244:/home/xingli/share/1205tiny/cJSON/cJSON.c **** 
2245:/home/xingli/share/1205tiny/cJSON/cJSON.c **** /* Create basic types: */
2246:/home/xingli/share/1205tiny/cJSON/cJSON.c **** CJSON_PUBLIC(cJSON *) cJSON_CreateNull(void)
2247:/home/xingli/share/1205tiny/cJSON/cJSON.c **** {
 7998              		.loc 1 2247 1
 7999              		.cfi_startproc
 8000 0000 F30F1EFA 		endbr64
 8001 0004 55       		pushq	%rbp
 8002              	.LCFI219:
 8003              		.cfi_def_cfa_offset 16
 8004              		.cfi_offset 6, -16
 8005 0005 4889E5   		movq	%rsp, %rbp
 8006              	.LCFI220:
 8007              		.cfi_def_cfa_register 6
 8008 0008 4883EC10 		subq	$16, %rsp
 8009              		.loc 1 2247 1
 8010 000c 64488B04 		movq	%fs:40, %rax
 8010      25280000 
 8010      00
 8011 0015 488945F8 		movq	%rax, -8(%rbp)
 8012 0019 31C0     		xorl	%eax, %eax
2248:/home/xingli/share/1205tiny/cJSON/cJSON.c ****     cJSON *item = cJSON_New_Item(&global_hooks);
 8013              		.loc 1 2248 19
 8014 001b 488D3D00 		leaq	global_hooks(%rip), %rdi
 8014      000000
 8015 0022 E8000000 		call	cJSON_New_Item
 8015      00
 8016 0027 488945F0 		movq	%rax, -16(%rbp)
2249:/home/xingli/share/1205tiny/cJSON/cJSON.c ****     if(item)
 8017              		.loc 1 2249 7
 8018 002b 48837DF0 		cmpq	$0, -16(%rbp)
 8018      00
 8019 0030 740B     		je	.L611
2250:/home/xingli/share/1205tiny/cJSON/cJSON.c ****     {
2251:/home/xingli/share/1205tiny/cJSON/cJSON.c ****         item->type = cJSON_NULL;
 8020              		.loc 1 2251 20
 8021 0032 488B45F0 		movq	-16(%rbp), %rax
 8022 0036 C7401804 		movl	$4, 24(%rax)
 8022      000000
 8023              	.L611:
2252:/home/xingli/share/1205tiny/cJSON/cJSON.c ****     }
2253:/home/xingli/share/1205tiny/cJSON/cJSON.c **** 
2254:/home/xingli/share/1205tiny/cJSON/cJSON.c ****     return item;
 8024              		.loc 1 2254 12
 8025 003d 488B45F0 		movq	-16(%rbp), %rax
2255:/home/xingli/share/1205tiny/cJSON/cJSON.c **** }
 8026              		.loc 1 2255 1
 8027 0041 488B55F8 		movq	-8(%rbp), %rdx
 8028 0045 64483314 		xorq	%fs:40, %rdx
 8028      25280000 
GAS LISTING /tmp/ccabgRKQ.s 			page 202


 8028      00
 8029 004e 7405     		je	.L613
 8030 0050 E8000000 		call	__stack_chk_fail@PLT
 8030      00
 8031              	.L613:
 8032 0055 C9       		leave
 8033              	.LCFI221:
 8034              		.cfi_def_cfa 7, 8
 8035 0056 C3       		ret
 8036              		.cfi_endproc
 8037              	.LFE79:
 8039              		.section	.text.cJSON_CreateTrue,"ax",@progbits
 8040              		.globl	cJSON_CreateTrue
 8042              	cJSON_CreateTrue:
 8043              	.LFB80:
2256:/home/xingli/share/1205tiny/cJSON/cJSON.c **** 
2257:/home/xingli/share/1205tiny/cJSON/cJSON.c **** CJSON_PUBLIC(cJSON *) cJSON_CreateTrue(void)
2258:/home/xingli/share/1205tiny/cJSON/cJSON.c **** {
 8044              		.loc 1 2258 1
 8045              		.cfi_startproc
 8046 0000 F30F1EFA 		endbr64
 8047 0004 55       		pushq	%rbp
 8048              	.LCFI222:
 8049              		.cfi_def_cfa_offset 16
 8050              		.cfi_offset 6, -16
 8051 0005 4889E5   		movq	%rsp, %rbp
 8052              	.LCFI223:
 8053              		.cfi_def_cfa_register 6
 8054 0008 4883EC10 		subq	$16, %rsp
 8055              		.loc 1 2258 1
 8056 000c 64488B04 		movq	%fs:40, %rax
 8056      25280000 
 8056      00
 8057 0015 488945F8 		movq	%rax, -8(%rbp)
 8058 0019 31C0     		xorl	%eax, %eax
2259:/home/xingli/share/1205tiny/cJSON/cJSON.c ****     cJSON *item = cJSON_New_Item(&global_hooks);
 8059              		.loc 1 2259 19
 8060 001b 488D3D00 		leaq	global_hooks(%rip), %rdi
 8060      000000
 8061 0022 E8000000 		call	cJSON_New_Item
 8061      00
 8062 0027 488945F0 		movq	%rax, -16(%rbp)
2260:/home/xingli/share/1205tiny/cJSON/cJSON.c ****     if(item)
 8063              		.loc 1 2260 7
 8064 002b 48837DF0 		cmpq	$0, -16(%rbp)
 8064      00
 8065 0030 740B     		je	.L615
2261:/home/xingli/share/1205tiny/cJSON/cJSON.c ****     {
2262:/home/xingli/share/1205tiny/cJSON/cJSON.c ****         item->type = cJSON_True;
 8066              		.loc 1 2262 20
 8067 0032 488B45F0 		movq	-16(%rbp), %rax
 8068 0036 C7401802 		movl	$2, 24(%rax)
 8068      000000
 8069              	.L615:
2263:/home/xingli/share/1205tiny/cJSON/cJSON.c ****     }
2264:/home/xingli/share/1205tiny/cJSON/cJSON.c **** 
2265:/home/xingli/share/1205tiny/cJSON/cJSON.c ****     return item;
GAS LISTING /tmp/ccabgRKQ.s 			page 203


 8070              		.loc 1 2265 12
 8071 003d 488B45F0 		movq	-16(%rbp), %rax
2266:/home/xingli/share/1205tiny/cJSON/cJSON.c **** }
 8072              		.loc 1 2266 1
 8073 0041 488B55F8 		movq	-8(%rbp), %rdx
 8074 0045 64483314 		xorq	%fs:40, %rdx
 8074      25280000 
 8074      00
 8075 004e 7405     		je	.L617
 8076 0050 E8000000 		call	__stack_chk_fail@PLT
 8076      00
 8077              	.L617:
 8078 0055 C9       		leave
 8079              	.LCFI224:
 8080              		.cfi_def_cfa 7, 8
 8081 0056 C3       		ret
 8082              		.cfi_endproc
 8083              	.LFE80:
 8085              		.section	.text.cJSON_CreateFalse,"ax",@progbits
 8086              		.globl	cJSON_CreateFalse
 8088              	cJSON_CreateFalse:
 8089              	.LFB81:
2267:/home/xingli/share/1205tiny/cJSON/cJSON.c **** 
2268:/home/xingli/share/1205tiny/cJSON/cJSON.c **** CJSON_PUBLIC(cJSON *) cJSON_CreateFalse(void)
2269:/home/xingli/share/1205tiny/cJSON/cJSON.c **** {
 8090              		.loc 1 2269 1
 8091              		.cfi_startproc
 8092 0000 F30F1EFA 		endbr64
 8093 0004 55       		pushq	%rbp
 8094              	.LCFI225:
 8095              		.cfi_def_cfa_offset 16
 8096              		.cfi_offset 6, -16
 8097 0005 4889E5   		movq	%rsp, %rbp
 8098              	.LCFI226:
 8099              		.cfi_def_cfa_register 6
 8100 0008 4883EC10 		subq	$16, %rsp
 8101              		.loc 1 2269 1
 8102 000c 64488B04 		movq	%fs:40, %rax
 8102      25280000 
 8102      00
 8103 0015 488945F8 		movq	%rax, -8(%rbp)
 8104 0019 31C0     		xorl	%eax, %eax
2270:/home/xingli/share/1205tiny/cJSON/cJSON.c ****     cJSON *item = cJSON_New_Item(&global_hooks);
 8105              		.loc 1 2270 19
 8106 001b 488D3D00 		leaq	global_hooks(%rip), %rdi
 8106      000000
 8107 0022 E8000000 		call	cJSON_New_Item
 8107      00
 8108 0027 488945F0 		movq	%rax, -16(%rbp)
2271:/home/xingli/share/1205tiny/cJSON/cJSON.c ****     if(item)
 8109              		.loc 1 2271 7
 8110 002b 48837DF0 		cmpq	$0, -16(%rbp)
 8110      00
 8111 0030 740B     		je	.L619
2272:/home/xingli/share/1205tiny/cJSON/cJSON.c ****     {
2273:/home/xingli/share/1205tiny/cJSON/cJSON.c ****         item->type = cJSON_False;
 8112              		.loc 1 2273 20
GAS LISTING /tmp/ccabgRKQ.s 			page 204


 8113 0032 488B45F0 		movq	-16(%rbp), %rax
 8114 0036 C7401801 		movl	$1, 24(%rax)
 8114      000000
 8115              	.L619:
2274:/home/xingli/share/1205tiny/cJSON/cJSON.c ****     }
2275:/home/xingli/share/1205tiny/cJSON/cJSON.c **** 
2276:/home/xingli/share/1205tiny/cJSON/cJSON.c ****     return item;
 8116              		.loc 1 2276 12
 8117 003d 488B45F0 		movq	-16(%rbp), %rax
2277:/home/xingli/share/1205tiny/cJSON/cJSON.c **** }
 8118              		.loc 1 2277 1
 8119 0041 488B55F8 		movq	-8(%rbp), %rdx
 8120 0045 64483314 		xorq	%fs:40, %rdx
 8120      25280000 
 8120      00
 8121 004e 7405     		je	.L621
 8122 0050 E8000000 		call	__stack_chk_fail@PLT
 8122      00
 8123              	.L621:
 8124 0055 C9       		leave
 8125              	.LCFI227:
 8126              		.cfi_def_cfa 7, 8
 8127 0056 C3       		ret
 8128              		.cfi_endproc
 8129              	.LFE81:
 8131              		.section	.text.cJSON_CreateBool,"ax",@progbits
 8132              		.globl	cJSON_CreateBool
 8134              	cJSON_CreateBool:
 8135              	.LFB82:
2278:/home/xingli/share/1205tiny/cJSON/cJSON.c **** 
2279:/home/xingli/share/1205tiny/cJSON/cJSON.c **** CJSON_PUBLIC(cJSON *) cJSON_CreateBool(cJSON_bool b)
2280:/home/xingli/share/1205tiny/cJSON/cJSON.c **** {
 8136              		.loc 1 2280 1
 8137              		.cfi_startproc
 8138 0000 F30F1EFA 		endbr64
 8139 0004 55       		pushq	%rbp
 8140              	.LCFI228:
 8141              		.cfi_def_cfa_offset 16
 8142              		.cfi_offset 6, -16
 8143 0005 4889E5   		movq	%rsp, %rbp
 8144              	.LCFI229:
 8145              		.cfi_def_cfa_register 6
 8146 0008 4883EC20 		subq	$32, %rsp
 8147 000c 897DEC   		movl	%edi, -20(%rbp)
 8148              		.loc 1 2280 1
 8149 000f 64488B04 		movq	%fs:40, %rax
 8149      25280000 
 8149      00
 8150 0018 488945F8 		movq	%rax, -8(%rbp)
 8151 001c 31C0     		xorl	%eax, %eax
2281:/home/xingli/share/1205tiny/cJSON/cJSON.c ****     cJSON *item = cJSON_New_Item(&global_hooks);
 8152              		.loc 1 2281 19
 8153 001e 488D3D00 		leaq	global_hooks(%rip), %rdi
 8153      000000
 8154 0025 E8000000 		call	cJSON_New_Item
 8154      00
 8155 002a 488945F0 		movq	%rax, -16(%rbp)
GAS LISTING /tmp/ccabgRKQ.s 			page 205


2282:/home/xingli/share/1205tiny/cJSON/cJSON.c ****     if(item)
 8156              		.loc 1 2282 7
 8157 002e 48837DF0 		cmpq	$0, -16(%rbp)
 8157      00
 8158 0033 7419     		je	.L623
2283:/home/xingli/share/1205tiny/cJSON/cJSON.c ****     {
2284:/home/xingli/share/1205tiny/cJSON/cJSON.c ****         item->type = b ? cJSON_True : cJSON_False;
 8159              		.loc 1 2284 37
 8160 0035 837DEC00 		cmpl	$0, -20(%rbp)
 8161 0039 7407     		je	.L624
 8162              		.loc 1 2284 37 is_stmt 0 discriminator 1
 8163 003b BA020000 		movl	$2, %edx
 8163      00
 8164 0040 EB05     		jmp	.L625
 8165              	.L624:
 8166              		.loc 1 2284 37 discriminator 2
 8167 0042 BA010000 		movl	$1, %edx
 8167      00
 8168              	.L625:
 8169              		.loc 1 2284 20 is_stmt 1 discriminator 4
 8170 0047 488B45F0 		movq	-16(%rbp), %rax
 8171 004b 895018   		movl	%edx, 24(%rax)
 8172              	.L623:
2285:/home/xingli/share/1205tiny/cJSON/cJSON.c ****     }
2286:/home/xingli/share/1205tiny/cJSON/cJSON.c **** 
2287:/home/xingli/share/1205tiny/cJSON/cJSON.c ****     return item;
 8173              		.loc 1 2287 12
 8174 004e 488B45F0 		movq	-16(%rbp), %rax
2288:/home/xingli/share/1205tiny/cJSON/cJSON.c **** }
 8175              		.loc 1 2288 1
 8176 0052 488B4DF8 		movq	-8(%rbp), %rcx
 8177 0056 6448330C 		xorq	%fs:40, %rcx
 8177      25280000 
 8177      00
 8178 005f 7405     		je	.L627
 8179 0061 E8000000 		call	__stack_chk_fail@PLT
 8179      00
 8180              	.L627:
 8181 0066 C9       		leave
 8182              	.LCFI230:
 8183              		.cfi_def_cfa 7, 8
 8184 0067 C3       		ret
 8185              		.cfi_endproc
 8186              	.LFE82:
 8188              		.section	.text.cJSON_CreateNumber,"ax",@progbits
 8189              		.globl	cJSON_CreateNumber
 8191              	cJSON_CreateNumber:
 8192              	.LFB83:
2289:/home/xingli/share/1205tiny/cJSON/cJSON.c **** 
2290:/home/xingli/share/1205tiny/cJSON/cJSON.c **** CJSON_PUBLIC(cJSON *) cJSON_CreateNumber(double num)
2291:/home/xingli/share/1205tiny/cJSON/cJSON.c **** {
 8193              		.loc 1 2291 1
 8194              		.cfi_startproc
 8195 0000 F30F1EFA 		endbr64
 8196 0004 55       		pushq	%rbp
 8197              	.LCFI231:
 8198              		.cfi_def_cfa_offset 16
GAS LISTING /tmp/ccabgRKQ.s 			page 206


 8199              		.cfi_offset 6, -16
 8200 0005 4889E5   		movq	%rsp, %rbp
 8201              	.LCFI232:
 8202              		.cfi_def_cfa_register 6
 8203 0008 4883EC20 		subq	$32, %rsp
 8204 000c F20F1145 		movsd	%xmm0, -24(%rbp)
 8204      E8
 8205              		.loc 1 2291 1
 8206 0011 64488B04 		movq	%fs:40, %rax
 8206      25280000 
 8206      00
 8207 001a 488945F8 		movq	%rax, -8(%rbp)
 8208 001e 31C0     		xorl	%eax, %eax
2292:/home/xingli/share/1205tiny/cJSON/cJSON.c ****     cJSON *item = cJSON_New_Item(&global_hooks);
 8209              		.loc 1 2292 19
 8210 0020 488D3D00 		leaq	global_hooks(%rip), %rdi
 8210      000000
 8211 0027 E8000000 		call	cJSON_New_Item
 8211      00
 8212 002c 488945F0 		movq	%rax, -16(%rbp)
2293:/home/xingli/share/1205tiny/cJSON/cJSON.c ****     if(item)
 8213              		.loc 1 2293 7
 8214 0030 48837DF0 		cmpq	$0, -16(%rbp)
 8214      00
 8215 0035 7461     		je	.L629
2294:/home/xingli/share/1205tiny/cJSON/cJSON.c ****     {
2295:/home/xingli/share/1205tiny/cJSON/cJSON.c ****         item->type = cJSON_Number;
 8216              		.loc 1 2295 20
 8217 0037 488B45F0 		movq	-16(%rbp), %rax
 8218 003b C7401808 		movl	$8, 24(%rax)
 8218      000000
2296:/home/xingli/share/1205tiny/cJSON/cJSON.c ****         item->valuedouble = num;
 8219              		.loc 1 2296 27
 8220 0042 488B45F0 		movq	-16(%rbp), %rax
 8221 0046 F20F1045 		movsd	-24(%rbp), %xmm0
 8221      E8
 8222 004b F20F1140 		movsd	%xmm0, 48(%rax)
 8222      30
2297:/home/xingli/share/1205tiny/cJSON/cJSON.c **** 
2298:/home/xingli/share/1205tiny/cJSON/cJSON.c ****         /* use saturation in case of overflow */
2299:/home/xingli/share/1205tiny/cJSON/cJSON.c ****         if (num >= INT_MAX)
 8223              		.loc 1 2299 12
 8224 0050 F20F1045 		movsd	-24(%rbp), %xmm0
 8224      E8
 8225 0055 660F2F05 		comisd	.LC2(%rip), %xmm0
 8225      00000000 
 8226 005d 720D     		jb	.L638
2300:/home/xingli/share/1205tiny/cJSON/cJSON.c ****         {
2301:/home/xingli/share/1205tiny/cJSON/cJSON.c ****             item->valueint = INT_MAX;
 8227              		.loc 1 2301 28
 8228 005f 488B45F0 		movq	-16(%rbp), %rax
 8229 0063 C74028FF 		movl	$2147483647, 40(%rax)
 8229      FFFF7F
 8230 006a EB2C     		jmp	.L629
 8231              	.L638:
2302:/home/xingli/share/1205tiny/cJSON/cJSON.c ****         }
2303:/home/xingli/share/1205tiny/cJSON/cJSON.c ****         else if (num <= INT_MIN)
GAS LISTING /tmp/ccabgRKQ.s 			page 207


 8232              		.loc 1 2303 17
 8233 006c F20F1005 		movsd	.LC3(%rip), %xmm0
 8233      00000000 
 8234 0074 660F2F45 		comisd	-24(%rbp), %xmm0
 8234      E8
 8235 0079 720D     		jb	.L639
2304:/home/xingli/share/1205tiny/cJSON/cJSON.c ****         {
2305:/home/xingli/share/1205tiny/cJSON/cJSON.c ****             item->valueint = INT_MIN;
 8236              		.loc 1 2305 28
 8237 007b 488B45F0 		movq	-16(%rbp), %rax
 8238 007f C7402800 		movl	$-2147483648, 40(%rax)
 8238      000080
 8239 0086 EB10     		jmp	.L629
 8240              	.L639:
2306:/home/xingli/share/1205tiny/cJSON/cJSON.c ****         }
2307:/home/xingli/share/1205tiny/cJSON/cJSON.c ****         else
2308:/home/xingli/share/1205tiny/cJSON/cJSON.c ****         {
2309:/home/xingli/share/1205tiny/cJSON/cJSON.c ****             item->valueint = (int)num;
 8241              		.loc 1 2309 30
 8242 0088 F20F1045 		movsd	-24(%rbp), %xmm0
 8242      E8
 8243 008d F20F2CD0 		cvttsd2sil	%xmm0, %edx
 8244              		.loc 1 2309 28
 8245 0091 488B45F0 		movq	-16(%rbp), %rax
 8246 0095 895028   		movl	%edx, 40(%rax)
 8247              	.L629:
2310:/home/xingli/share/1205tiny/cJSON/cJSON.c ****         }
2311:/home/xingli/share/1205tiny/cJSON/cJSON.c ****     }
2312:/home/xingli/share/1205tiny/cJSON/cJSON.c **** 
2313:/home/xingli/share/1205tiny/cJSON/cJSON.c ****     return item;
 8248              		.loc 1 2313 12
 8249 0098 488B45F0 		movq	-16(%rbp), %rax
2314:/home/xingli/share/1205tiny/cJSON/cJSON.c **** }
 8250              		.loc 1 2314 1
 8251 009c 488B4DF8 		movq	-8(%rbp), %rcx
 8252 00a0 6448330C 		xorq	%fs:40, %rcx
 8252      25280000 
 8252      00
 8253 00a9 7405     		je	.L635
 8254 00ab E8000000 		call	__stack_chk_fail@PLT
 8254      00
 8255              	.L635:
 8256 00b0 C9       		leave
 8257              	.LCFI233:
 8258              		.cfi_def_cfa 7, 8
 8259 00b1 C3       		ret
 8260              		.cfi_endproc
 8261              	.LFE83:
 8263              		.section	.text.cJSON_CreateString,"ax",@progbits
 8264              		.globl	cJSON_CreateString
 8266              	cJSON_CreateString:
 8267              	.LFB84:
2315:/home/xingli/share/1205tiny/cJSON/cJSON.c **** 
2316:/home/xingli/share/1205tiny/cJSON/cJSON.c **** CJSON_PUBLIC(cJSON *) cJSON_CreateString(const char *string)
2317:/home/xingli/share/1205tiny/cJSON/cJSON.c **** {
 8268              		.loc 1 2317 1
 8269              		.cfi_startproc
GAS LISTING /tmp/ccabgRKQ.s 			page 208


 8270 0000 F30F1EFA 		endbr64
 8271 0004 55       		pushq	%rbp
 8272              	.LCFI234:
 8273              		.cfi_def_cfa_offset 16
 8274              		.cfi_offset 6, -16
 8275 0005 4889E5   		movq	%rsp, %rbp
 8276              	.LCFI235:
 8277              		.cfi_def_cfa_register 6
 8278 0008 4883EC20 		subq	$32, %rsp
 8279 000c 48897DE8 		movq	%rdi, -24(%rbp)
 8280              		.loc 1 2317 1
 8281 0010 64488B04 		movq	%fs:40, %rax
 8281      25280000 
 8281      00
 8282 0019 488945F8 		movq	%rax, -8(%rbp)
 8283 001d 31C0     		xorl	%eax, %eax
2318:/home/xingli/share/1205tiny/cJSON/cJSON.c ****     cJSON *item = cJSON_New_Item(&global_hooks);
 8284              		.loc 1 2318 19
 8285 001f 488D3D00 		leaq	global_hooks(%rip), %rdi
 8285      000000
 8286 0026 E8000000 		call	cJSON_New_Item
 8286      00
 8287 002b 488945F0 		movq	%rax, -16(%rbp)
2319:/home/xingli/share/1205tiny/cJSON/cJSON.c ****     if(item)
 8288              		.loc 1 2319 7
 8289 002f 48837DF0 		cmpq	$0, -16(%rbp)
 8289      00
 8290 0034 7446     		je	.L641
2320:/home/xingli/share/1205tiny/cJSON/cJSON.c ****     {
2321:/home/xingli/share/1205tiny/cJSON/cJSON.c ****         item->type = cJSON_String;
 8291              		.loc 1 2321 20
 8292 0036 488B45F0 		movq	-16(%rbp), %rax
 8293 003a C7401810 		movl	$16, 24(%rax)
 8293      000000
2322:/home/xingli/share/1205tiny/cJSON/cJSON.c ****         item->valuestring = (char*)cJSON_strdup((const unsigned char*)string, &global_hooks);
 8294              		.loc 1 2322 36
 8295 0041 488B45E8 		movq	-24(%rbp), %rax
 8296 0045 488D3500 		leaq	global_hooks(%rip), %rsi
 8296      000000
 8297 004c 4889C7   		movq	%rax, %rdi
 8298 004f E8000000 		call	cJSON_strdup
 8298      00
 8299              		.loc 1 2322 27
 8300 0054 488B55F0 		movq	-16(%rbp), %rdx
 8301 0058 48894220 		movq	%rax, 32(%rdx)
2323:/home/xingli/share/1205tiny/cJSON/cJSON.c ****         if(!item->valuestring)
 8302              		.loc 1 2323 17
 8303 005c 488B45F0 		movq	-16(%rbp), %rax
 8304 0060 488B4020 		movq	32(%rax), %rax
 8305              		.loc 1 2323 11
 8306 0064 4885C0   		testq	%rax, %rax
 8307 0067 7513     		jne	.L641
2324:/home/xingli/share/1205tiny/cJSON/cJSON.c ****         {
2325:/home/xingli/share/1205tiny/cJSON/cJSON.c ****             cJSON_Delete(item);
 8308              		.loc 1 2325 13
 8309 0069 488B45F0 		movq	-16(%rbp), %rax
 8310 006d 4889C7   		movq	%rax, %rdi
GAS LISTING /tmp/ccabgRKQ.s 			page 209


 8311 0070 E8000000 		call	cJSON_Delete
 8311      00
2326:/home/xingli/share/1205tiny/cJSON/cJSON.c ****             return NULL;
 8312              		.loc 1 2326 20
 8313 0075 B8000000 		movl	$0, %eax
 8313      00
 8314 007a EB04     		jmp	.L642
 8315              	.L641:
2327:/home/xingli/share/1205tiny/cJSON/cJSON.c ****         }
2328:/home/xingli/share/1205tiny/cJSON/cJSON.c ****     }
2329:/home/xingli/share/1205tiny/cJSON/cJSON.c **** 
2330:/home/xingli/share/1205tiny/cJSON/cJSON.c ****     return item;
 8316              		.loc 1 2330 12
 8317 007c 488B45F0 		movq	-16(%rbp), %rax
 8318              	.L642:
2331:/home/xingli/share/1205tiny/cJSON/cJSON.c **** }
 8319              		.loc 1 2331 1
 8320 0080 488B4DF8 		movq	-8(%rbp), %rcx
 8321 0084 6448330C 		xorq	%fs:40, %rcx
 8321      25280000 
 8321      00
 8322 008d 7405     		je	.L643
 8323 008f E8000000 		call	__stack_chk_fail@PLT
 8323      00
 8324              	.L643:
 8325 0094 C9       		leave
 8326              	.LCFI236:
 8327              		.cfi_def_cfa 7, 8
 8328 0095 C3       		ret
 8329              		.cfi_endproc
 8330              	.LFE84:
 8332              		.section	.text.cJSON_CreateStringReference,"ax",@progbits
 8333              		.globl	cJSON_CreateStringReference
 8335              	cJSON_CreateStringReference:
 8336              	.LFB85:
2332:/home/xingli/share/1205tiny/cJSON/cJSON.c **** 
2333:/home/xingli/share/1205tiny/cJSON/cJSON.c **** CJSON_PUBLIC(cJSON *) cJSON_CreateStringReference(const char *string)
2334:/home/xingli/share/1205tiny/cJSON/cJSON.c **** {
 8337              		.loc 1 2334 1
 8338              		.cfi_startproc
 8339 0000 F30F1EFA 		endbr64
 8340 0004 55       		pushq	%rbp
 8341              	.LCFI237:
 8342              		.cfi_def_cfa_offset 16
 8343              		.cfi_offset 6, -16
 8344 0005 4889E5   		movq	%rsp, %rbp
 8345              	.LCFI238:
 8346              		.cfi_def_cfa_register 6
 8347 0008 4883EC20 		subq	$32, %rsp
 8348 000c 48897DE8 		movq	%rdi, -24(%rbp)
 8349              		.loc 1 2334 1
 8350 0010 64488B04 		movq	%fs:40, %rax
 8350      25280000 
 8350      00
 8351 0019 488945F8 		movq	%rax, -8(%rbp)
 8352 001d 31C0     		xorl	%eax, %eax
2335:/home/xingli/share/1205tiny/cJSON/cJSON.c ****     cJSON *item = cJSON_New_Item(&global_hooks);
GAS LISTING /tmp/ccabgRKQ.s 			page 210


 8353              		.loc 1 2335 19
 8354 001f 488D3D00 		leaq	global_hooks(%rip), %rdi
 8354      000000
 8355 0026 E8000000 		call	cJSON_New_Item
 8355      00
 8356 002b 488945F0 		movq	%rax, -16(%rbp)
2336:/home/xingli/share/1205tiny/cJSON/cJSON.c ****     if (item != NULL)
 8357              		.loc 1 2336 8
 8358 002f 48837DF0 		cmpq	$0, -16(%rbp)
 8358      00
 8359 0034 741F     		je	.L645
2337:/home/xingli/share/1205tiny/cJSON/cJSON.c ****     {
2338:/home/xingli/share/1205tiny/cJSON/cJSON.c ****         item->type = cJSON_String | cJSON_IsReference;
 8360              		.loc 1 2338 20
 8361 0036 488B45F0 		movq	-16(%rbp), %rax
 8362 003a C7401810 		movl	$272, 24(%rax)
 8362      010000
2339:/home/xingli/share/1205tiny/cJSON/cJSON.c ****         item->valuestring = (char*)cast_away_const(string);
 8363              		.loc 1 2339 36
 8364 0041 488B45E8 		movq	-24(%rbp), %rax
 8365 0045 4889C7   		movq	%rax, %rdi
 8366 0048 E8000000 		call	cast_away_const
 8366      00
 8367              		.loc 1 2339 27
 8368 004d 488B55F0 		movq	-16(%rbp), %rdx
 8369 0051 48894220 		movq	%rax, 32(%rdx)
 8370              	.L645:
2340:/home/xingli/share/1205tiny/cJSON/cJSON.c ****     }
2341:/home/xingli/share/1205tiny/cJSON/cJSON.c **** 
2342:/home/xingli/share/1205tiny/cJSON/cJSON.c ****     return item;
 8371              		.loc 1 2342 12
 8372 0055 488B45F0 		movq	-16(%rbp), %rax
2343:/home/xingli/share/1205tiny/cJSON/cJSON.c **** }
 8373              		.loc 1 2343 1
 8374 0059 488B4DF8 		movq	-8(%rbp), %rcx
 8375 005d 6448330C 		xorq	%fs:40, %rcx
 8375      25280000 
 8375      00
 8376 0066 7405     		je	.L647
 8377 0068 E8000000 		call	__stack_chk_fail@PLT
 8377      00
 8378              	.L647:
 8379 006d C9       		leave
 8380              	.LCFI239:
 8381              		.cfi_def_cfa 7, 8
 8382 006e C3       		ret
 8383              		.cfi_endproc
 8384              	.LFE85:
 8386              		.section	.text.cJSON_CreateObjectReference,"ax",@progbits
 8387              		.globl	cJSON_CreateObjectReference
 8389              	cJSON_CreateObjectReference:
 8390              	.LFB86:
2344:/home/xingli/share/1205tiny/cJSON/cJSON.c **** 
2345:/home/xingli/share/1205tiny/cJSON/cJSON.c **** CJSON_PUBLIC(cJSON *) cJSON_CreateObjectReference(const cJSON *child)
2346:/home/xingli/share/1205tiny/cJSON/cJSON.c **** {
 8391              		.loc 1 2346 1
 8392              		.cfi_startproc
GAS LISTING /tmp/ccabgRKQ.s 			page 211


 8393 0000 F30F1EFA 		endbr64
 8394 0004 55       		pushq	%rbp
 8395              	.LCFI240:
 8396              		.cfi_def_cfa_offset 16
 8397              		.cfi_offset 6, -16
 8398 0005 4889E5   		movq	%rsp, %rbp
 8399              	.LCFI241:
 8400              		.cfi_def_cfa_register 6
 8401 0008 4883EC20 		subq	$32, %rsp
 8402 000c 48897DE8 		movq	%rdi, -24(%rbp)
 8403              		.loc 1 2346 1
 8404 0010 64488B04 		movq	%fs:40, %rax
 8404      25280000 
 8404      00
 8405 0019 488945F8 		movq	%rax, -8(%rbp)
 8406 001d 31C0     		xorl	%eax, %eax
2347:/home/xingli/share/1205tiny/cJSON/cJSON.c ****     cJSON *item = cJSON_New_Item(&global_hooks);
 8407              		.loc 1 2347 19
 8408 001f 488D3D00 		leaq	global_hooks(%rip), %rdi
 8408      000000
 8409 0026 E8000000 		call	cJSON_New_Item
 8409      00
 8410 002b 488945F0 		movq	%rax, -16(%rbp)
2348:/home/xingli/share/1205tiny/cJSON/cJSON.c ****     if (item != NULL) {
 8411              		.loc 1 2348 8
 8412 002f 48837DF0 		cmpq	$0, -16(%rbp)
 8412      00
 8413 0034 741F     		je	.L649
2349:/home/xingli/share/1205tiny/cJSON/cJSON.c ****         item->type = cJSON_Object | cJSON_IsReference;
 8414              		.loc 1 2349 20
 8415 0036 488B45F0 		movq	-16(%rbp), %rax
 8416 003a C7401840 		movl	$320, 24(%rax)
 8416      010000
2350:/home/xingli/share/1205tiny/cJSON/cJSON.c ****         item->child = (cJSON*)cast_away_const(child);
 8417              		.loc 1 2350 31
 8418 0041 488B45E8 		movq	-24(%rbp), %rax
 8419 0045 4889C7   		movq	%rax, %rdi
 8420 0048 E8000000 		call	cast_away_const
 8420      00
 8421              		.loc 1 2350 21
 8422 004d 488B55F0 		movq	-16(%rbp), %rdx
 8423 0051 48894210 		movq	%rax, 16(%rdx)
 8424              	.L649:
2351:/home/xingli/share/1205tiny/cJSON/cJSON.c ****     }
2352:/home/xingli/share/1205tiny/cJSON/cJSON.c **** 
2353:/home/xingli/share/1205tiny/cJSON/cJSON.c ****     return item;
 8425              		.loc 1 2353 12
 8426 0055 488B45F0 		movq	-16(%rbp), %rax
2354:/home/xingli/share/1205tiny/cJSON/cJSON.c **** }
 8427              		.loc 1 2354 1
 8428 0059 488B4DF8 		movq	-8(%rbp), %rcx
 8429 005d 6448330C 		xorq	%fs:40, %rcx
 8429      25280000 
 8429      00
 8430 0066 7405     		je	.L651
 8431 0068 E8000000 		call	__stack_chk_fail@PLT
 8431      00
GAS LISTING /tmp/ccabgRKQ.s 			page 212


 8432              	.L651:
 8433 006d C9       		leave
 8434              	.LCFI242:
 8435              		.cfi_def_cfa 7, 8
 8436 006e C3       		ret
 8437              		.cfi_endproc
 8438              	.LFE86:
 8440              		.section	.text.cJSON_CreateArrayReference,"ax",@progbits
 8441              		.globl	cJSON_CreateArrayReference
 8443              	cJSON_CreateArrayReference:
 8444              	.LFB87:
2355:/home/xingli/share/1205tiny/cJSON/cJSON.c **** 
2356:/home/xingli/share/1205tiny/cJSON/cJSON.c **** CJSON_PUBLIC(cJSON *) cJSON_CreateArrayReference(const cJSON *child) {
 8445              		.loc 1 2356 70
 8446              		.cfi_startproc
 8447 0000 F30F1EFA 		endbr64
 8448 0004 55       		pushq	%rbp
 8449              	.LCFI243:
 8450              		.cfi_def_cfa_offset 16
 8451              		.cfi_offset 6, -16
 8452 0005 4889E5   		movq	%rsp, %rbp
 8453              	.LCFI244:
 8454              		.cfi_def_cfa_register 6
 8455 0008 4883EC20 		subq	$32, %rsp
 8456 000c 48897DE8 		movq	%rdi, -24(%rbp)
 8457              		.loc 1 2356 70
 8458 0010 64488B04 		movq	%fs:40, %rax
 8458      25280000 
 8458      00
 8459 0019 488945F8 		movq	%rax, -8(%rbp)
 8460 001d 31C0     		xorl	%eax, %eax
2357:/home/xingli/share/1205tiny/cJSON/cJSON.c ****     cJSON *item = cJSON_New_Item(&global_hooks);
 8461              		.loc 1 2357 19
 8462 001f 488D3D00 		leaq	global_hooks(%rip), %rdi
 8462      000000
 8463 0026 E8000000 		call	cJSON_New_Item
 8463      00
 8464 002b 488945F0 		movq	%rax, -16(%rbp)
2358:/home/xingli/share/1205tiny/cJSON/cJSON.c ****     if (item != NULL) {
 8465              		.loc 1 2358 8
 8466 002f 48837DF0 		cmpq	$0, -16(%rbp)
 8466      00
 8467 0034 741F     		je	.L653
2359:/home/xingli/share/1205tiny/cJSON/cJSON.c ****         item->type = cJSON_Array | cJSON_IsReference;
 8468              		.loc 1 2359 20
 8469 0036 488B45F0 		movq	-16(%rbp), %rax
 8470 003a C7401820 		movl	$288, 24(%rax)
 8470      010000
2360:/home/xingli/share/1205tiny/cJSON/cJSON.c ****         item->child = (cJSON*)cast_away_const(child);
 8471              		.loc 1 2360 31
 8472 0041 488B45E8 		movq	-24(%rbp), %rax
 8473 0045 4889C7   		movq	%rax, %rdi
 8474 0048 E8000000 		call	cast_away_const
 8474      00
 8475              		.loc 1 2360 21
 8476 004d 488B55F0 		movq	-16(%rbp), %rdx
 8477 0051 48894210 		movq	%rax, 16(%rdx)
GAS LISTING /tmp/ccabgRKQ.s 			page 213


 8478              	.L653:
2361:/home/xingli/share/1205tiny/cJSON/cJSON.c ****     }
2362:/home/xingli/share/1205tiny/cJSON/cJSON.c **** 
2363:/home/xingli/share/1205tiny/cJSON/cJSON.c ****     return item;
 8479              		.loc 1 2363 12
 8480 0055 488B45F0 		movq	-16(%rbp), %rax
2364:/home/xingli/share/1205tiny/cJSON/cJSON.c **** }
 8481              		.loc 1 2364 1
 8482 0059 488B4DF8 		movq	-8(%rbp), %rcx
 8483 005d 6448330C 		xorq	%fs:40, %rcx
 8483      25280000 
 8483      00
 8484 0066 7405     		je	.L655
 8485 0068 E8000000 		call	__stack_chk_fail@PLT
 8485      00
 8486              	.L655:
 8487 006d C9       		leave
 8488              	.LCFI245:
 8489              		.cfi_def_cfa 7, 8
 8490 006e C3       		ret
 8491              		.cfi_endproc
 8492              	.LFE87:
 8494              		.section	.text.cJSON_CreateRaw,"ax",@progbits
 8495              		.globl	cJSON_CreateRaw
 8497              	cJSON_CreateRaw:
 8498              	.LFB88:
2365:/home/xingli/share/1205tiny/cJSON/cJSON.c **** 
2366:/home/xingli/share/1205tiny/cJSON/cJSON.c **** CJSON_PUBLIC(cJSON *) cJSON_CreateRaw(const char *raw)
2367:/home/xingli/share/1205tiny/cJSON/cJSON.c **** {
 8499              		.loc 1 2367 1
 8500              		.cfi_startproc
 8501 0000 F30F1EFA 		endbr64
 8502 0004 55       		pushq	%rbp
 8503              	.LCFI246:
 8504              		.cfi_def_cfa_offset 16
 8505              		.cfi_offset 6, -16
 8506 0005 4889E5   		movq	%rsp, %rbp
 8507              	.LCFI247:
 8508              		.cfi_def_cfa_register 6
 8509 0008 4883EC20 		subq	$32, %rsp
 8510 000c 48897DE8 		movq	%rdi, -24(%rbp)
 8511              		.loc 1 2367 1
 8512 0010 64488B04 		movq	%fs:40, %rax
 8512      25280000 
 8512      00
 8513 0019 488945F8 		movq	%rax, -8(%rbp)
 8514 001d 31C0     		xorl	%eax, %eax
2368:/home/xingli/share/1205tiny/cJSON/cJSON.c ****     cJSON *item = cJSON_New_Item(&global_hooks);
 8515              		.loc 1 2368 19
 8516 001f 488D3D00 		leaq	global_hooks(%rip), %rdi
 8516      000000
 8517 0026 E8000000 		call	cJSON_New_Item
 8517      00
 8518 002b 488945F0 		movq	%rax, -16(%rbp)
2369:/home/xingli/share/1205tiny/cJSON/cJSON.c ****     if(item)
 8519              		.loc 1 2369 7
 8520 002f 48837DF0 		cmpq	$0, -16(%rbp)
GAS LISTING /tmp/ccabgRKQ.s 			page 214


 8520      00
 8521 0034 7446     		je	.L657
2370:/home/xingli/share/1205tiny/cJSON/cJSON.c ****     {
2371:/home/xingli/share/1205tiny/cJSON/cJSON.c ****         item->type = cJSON_Raw;
 8522              		.loc 1 2371 20
 8523 0036 488B45F0 		movq	-16(%rbp), %rax
 8524 003a C7401880 		movl	$128, 24(%rax)
 8524      000000
2372:/home/xingli/share/1205tiny/cJSON/cJSON.c ****         item->valuestring = (char*)cJSON_strdup((const unsigned char*)raw, &global_hooks);
 8525              		.loc 1 2372 36
 8526 0041 488B45E8 		movq	-24(%rbp), %rax
 8527 0045 488D3500 		leaq	global_hooks(%rip), %rsi
 8527      000000
 8528 004c 4889C7   		movq	%rax, %rdi
 8529 004f E8000000 		call	cJSON_strdup
 8529      00
 8530              		.loc 1 2372 27
 8531 0054 488B55F0 		movq	-16(%rbp), %rdx
 8532 0058 48894220 		movq	%rax, 32(%rdx)
2373:/home/xingli/share/1205tiny/cJSON/cJSON.c ****         if(!item->valuestring)
 8533              		.loc 1 2373 17
 8534 005c 488B45F0 		movq	-16(%rbp), %rax
 8535 0060 488B4020 		movq	32(%rax), %rax
 8536              		.loc 1 2373 11
 8537 0064 4885C0   		testq	%rax, %rax
 8538 0067 7513     		jne	.L657
2374:/home/xingli/share/1205tiny/cJSON/cJSON.c ****         {
2375:/home/xingli/share/1205tiny/cJSON/cJSON.c ****             cJSON_Delete(item);
 8539              		.loc 1 2375 13
 8540 0069 488B45F0 		movq	-16(%rbp), %rax
 8541 006d 4889C7   		movq	%rax, %rdi
 8542 0070 E8000000 		call	cJSON_Delete
 8542      00
2376:/home/xingli/share/1205tiny/cJSON/cJSON.c ****             return NULL;
 8543              		.loc 1 2376 20
 8544 0075 B8000000 		movl	$0, %eax
 8544      00
 8545 007a EB04     		jmp	.L658
 8546              	.L657:
2377:/home/xingli/share/1205tiny/cJSON/cJSON.c ****         }
2378:/home/xingli/share/1205tiny/cJSON/cJSON.c ****     }
2379:/home/xingli/share/1205tiny/cJSON/cJSON.c **** 
2380:/home/xingli/share/1205tiny/cJSON/cJSON.c ****     return item;
 8547              		.loc 1 2380 12
 8548 007c 488B45F0 		movq	-16(%rbp), %rax
 8549              	.L658:
2381:/home/xingli/share/1205tiny/cJSON/cJSON.c **** }
 8550              		.loc 1 2381 1
 8551 0080 488B4DF8 		movq	-8(%rbp), %rcx
 8552 0084 6448330C 		xorq	%fs:40, %rcx
 8552      25280000 
 8552      00
 8553 008d 7405     		je	.L659
 8554 008f E8000000 		call	__stack_chk_fail@PLT
 8554      00
 8555              	.L659:
 8556 0094 C9       		leave
GAS LISTING /tmp/ccabgRKQ.s 			page 215


 8557              	.LCFI248:
 8558              		.cfi_def_cfa 7, 8
 8559 0095 C3       		ret
 8560              		.cfi_endproc
 8561              	.LFE88:
 8563              		.section	.text.cJSON_CreateArray,"ax",@progbits
 8564              		.globl	cJSON_CreateArray
 8566              	cJSON_CreateArray:
 8567              	.LFB89:
2382:/home/xingli/share/1205tiny/cJSON/cJSON.c **** 
2383:/home/xingli/share/1205tiny/cJSON/cJSON.c **** CJSON_PUBLIC(cJSON *) cJSON_CreateArray(void)
2384:/home/xingli/share/1205tiny/cJSON/cJSON.c **** {
 8568              		.loc 1 2384 1
 8569              		.cfi_startproc
 8570 0000 F30F1EFA 		endbr64
 8571 0004 55       		pushq	%rbp
 8572              	.LCFI249:
 8573              		.cfi_def_cfa_offset 16
 8574              		.cfi_offset 6, -16
 8575 0005 4889E5   		movq	%rsp, %rbp
 8576              	.LCFI250:
 8577              		.cfi_def_cfa_register 6
 8578 0008 4883EC10 		subq	$16, %rsp
 8579              		.loc 1 2384 1
 8580 000c 64488B04 		movq	%fs:40, %rax
 8580      25280000 
 8580      00
 8581 0015 488945F8 		movq	%rax, -8(%rbp)
 8582 0019 31C0     		xorl	%eax, %eax
2385:/home/xingli/share/1205tiny/cJSON/cJSON.c ****     cJSON *item = cJSON_New_Item(&global_hooks);
 8583              		.loc 1 2385 19
 8584 001b 488D3D00 		leaq	global_hooks(%rip), %rdi
 8584      000000
 8585 0022 E8000000 		call	cJSON_New_Item
 8585      00
 8586 0027 488945F0 		movq	%rax, -16(%rbp)
2386:/home/xingli/share/1205tiny/cJSON/cJSON.c ****     if(item)
 8587              		.loc 1 2386 7
 8588 002b 48837DF0 		cmpq	$0, -16(%rbp)
 8588      00
 8589 0030 740B     		je	.L661
2387:/home/xingli/share/1205tiny/cJSON/cJSON.c ****     {
2388:/home/xingli/share/1205tiny/cJSON/cJSON.c ****         item->type=cJSON_Array;
 8590              		.loc 1 2388 19
 8591 0032 488B45F0 		movq	-16(%rbp), %rax
 8592 0036 C7401820 		movl	$32, 24(%rax)
 8592      000000
 8593              	.L661:
2389:/home/xingli/share/1205tiny/cJSON/cJSON.c ****     }
2390:/home/xingli/share/1205tiny/cJSON/cJSON.c **** 
2391:/home/xingli/share/1205tiny/cJSON/cJSON.c ****     return item;
 8594              		.loc 1 2391 12
 8595 003d 488B45F0 		movq	-16(%rbp), %rax
2392:/home/xingli/share/1205tiny/cJSON/cJSON.c **** }
 8596              		.loc 1 2392 1
 8597 0041 488B55F8 		movq	-8(%rbp), %rdx
 8598 0045 64483314 		xorq	%fs:40, %rdx
GAS LISTING /tmp/ccabgRKQ.s 			page 216


 8598      25280000 
 8598      00
 8599 004e 7405     		je	.L663
 8600 0050 E8000000 		call	__stack_chk_fail@PLT
 8600      00
 8601              	.L663:
 8602 0055 C9       		leave
 8603              	.LCFI251:
 8604              		.cfi_def_cfa 7, 8
 8605 0056 C3       		ret
 8606              		.cfi_endproc
 8607              	.LFE89:
 8609              		.section	.text.cJSON_CreateObject,"ax",@progbits
 8610              		.globl	cJSON_CreateObject
 8612              	cJSON_CreateObject:
 8613              	.LFB90:
2393:/home/xingli/share/1205tiny/cJSON/cJSON.c **** 
2394:/home/xingli/share/1205tiny/cJSON/cJSON.c **** CJSON_PUBLIC(cJSON *) cJSON_CreateObject(void)
2395:/home/xingli/share/1205tiny/cJSON/cJSON.c **** {
 8614              		.loc 1 2395 1
 8615              		.cfi_startproc
 8616 0000 F30F1EFA 		endbr64
 8617 0004 55       		pushq	%rbp
 8618              	.LCFI252:
 8619              		.cfi_def_cfa_offset 16
 8620              		.cfi_offset 6, -16
 8621 0005 4889E5   		movq	%rsp, %rbp
 8622              	.LCFI253:
 8623              		.cfi_def_cfa_register 6
 8624 0008 4883EC10 		subq	$16, %rsp
 8625              		.loc 1 2395 1
 8626 000c 64488B04 		movq	%fs:40, %rax
 8626      25280000 
 8626      00
 8627 0015 488945F8 		movq	%rax, -8(%rbp)
 8628 0019 31C0     		xorl	%eax, %eax
2396:/home/xingli/share/1205tiny/cJSON/cJSON.c ****     cJSON *item = cJSON_New_Item(&global_hooks);
 8629              		.loc 1 2396 19
 8630 001b 488D3D00 		leaq	global_hooks(%rip), %rdi
 8630      000000
 8631 0022 E8000000 		call	cJSON_New_Item
 8631      00
 8632 0027 488945F0 		movq	%rax, -16(%rbp)
2397:/home/xingli/share/1205tiny/cJSON/cJSON.c ****     if (item)
 8633              		.loc 1 2397 8
 8634 002b 48837DF0 		cmpq	$0, -16(%rbp)
 8634      00
 8635 0030 740B     		je	.L665
2398:/home/xingli/share/1205tiny/cJSON/cJSON.c ****     {
2399:/home/xingli/share/1205tiny/cJSON/cJSON.c ****         item->type = cJSON_Object;
 8636              		.loc 1 2399 20
 8637 0032 488B45F0 		movq	-16(%rbp), %rax
 8638 0036 C7401840 		movl	$64, 24(%rax)
 8638      000000
 8639              	.L665:
2400:/home/xingli/share/1205tiny/cJSON/cJSON.c ****     }
2401:/home/xingli/share/1205tiny/cJSON/cJSON.c **** 
GAS LISTING /tmp/ccabgRKQ.s 			page 217


2402:/home/xingli/share/1205tiny/cJSON/cJSON.c ****     return item;
 8640              		.loc 1 2402 12
 8641 003d 488B45F0 		movq	-16(%rbp), %rax
2403:/home/xingli/share/1205tiny/cJSON/cJSON.c **** }
 8642              		.loc 1 2403 1
 8643 0041 488B55F8 		movq	-8(%rbp), %rdx
 8644 0045 64483314 		xorq	%fs:40, %rdx
 8644      25280000 
 8644      00
 8645 004e 7405     		je	.L667
 8646 0050 E8000000 		call	__stack_chk_fail@PLT
 8646      00
 8647              	.L667:
 8648 0055 C9       		leave
 8649              	.LCFI254:
 8650              		.cfi_def_cfa 7, 8
 8651 0056 C3       		ret
 8652              		.cfi_endproc
 8653              	.LFE90:
 8655              		.section	.text.cJSON_CreateIntArray,"ax",@progbits
 8656              		.globl	cJSON_CreateIntArray
 8658              	cJSON_CreateIntArray:
 8659              	.LFB91:
2404:/home/xingli/share/1205tiny/cJSON/cJSON.c **** 
2405:/home/xingli/share/1205tiny/cJSON/cJSON.c **** /* Create Arrays: */
2406:/home/xingli/share/1205tiny/cJSON/cJSON.c **** CJSON_PUBLIC(cJSON *) cJSON_CreateIntArray(const int *numbers, int count)
2407:/home/xingli/share/1205tiny/cJSON/cJSON.c **** {
 8660              		.loc 1 2407 1
 8661              		.cfi_startproc
 8662 0000 F30F1EFA 		endbr64
 8663 0004 55       		pushq	%rbp
 8664              	.LCFI255:
 8665              		.cfi_def_cfa_offset 16
 8666              		.cfi_offset 6, -16
 8667 0005 4889E5   		movq	%rsp, %rbp
 8668              	.LCFI256:
 8669              		.cfi_def_cfa_register 6
 8670 0008 4883EC40 		subq	$64, %rsp
 8671 000c 48897DC8 		movq	%rdi, -56(%rbp)
 8672 0010 8975C4   		movl	%esi, -60(%rbp)
 8673              		.loc 1 2407 1
 8674 0013 64488B04 		movq	%fs:40, %rax
 8674      25280000 
 8674      00
 8675 001c 488945F8 		movq	%rax, -8(%rbp)
 8676 0020 31C0     		xorl	%eax, %eax
2408:/home/xingli/share/1205tiny/cJSON/cJSON.c ****     size_t i = 0;
 8677              		.loc 1 2408 12
 8678 0022 48C745D8 		movq	$0, -40(%rbp)
 8678      00000000 
2409:/home/xingli/share/1205tiny/cJSON/cJSON.c ****     cJSON *n = NULL;
 8679              		.loc 1 2409 12
 8680 002a 48C745E8 		movq	$0, -24(%rbp)
 8680      00000000 
2410:/home/xingli/share/1205tiny/cJSON/cJSON.c ****     cJSON *p = NULL;
 8681              		.loc 1 2410 12
 8682 0032 48C745E0 		movq	$0, -32(%rbp)
GAS LISTING /tmp/ccabgRKQ.s 			page 218


 8682      00000000 
2411:/home/xingli/share/1205tiny/cJSON/cJSON.c ****     cJSON *a = NULL;
 8683              		.loc 1 2411 12
 8684 003a 48C745F0 		movq	$0, -16(%rbp)
 8684      00000000 
2412:/home/xingli/share/1205tiny/cJSON/cJSON.c **** 
2413:/home/xingli/share/1205tiny/cJSON/cJSON.c ****     if ((count < 0) || (numbers == NULL))
 8685              		.loc 1 2413 8
 8686 0042 837DC400 		cmpl	$0, -60(%rbp)
 8687 0046 7807     		js	.L669
 8688              		.loc 1 2413 21 discriminator 1
 8689 0048 48837DC8 		cmpq	$0, -56(%rbp)
 8689      00
 8690 004d 750A     		jne	.L670
 8691              	.L669:
2414:/home/xingli/share/1205tiny/cJSON/cJSON.c ****     {
2415:/home/xingli/share/1205tiny/cJSON/cJSON.c ****         return NULL;
 8692              		.loc 1 2415 16
 8693 004f B8000000 		movl	$0, %eax
 8693      00
 8694 0054 E99E0000 		jmp	.L671
 8694      00
 8695              	.L670:
2416:/home/xingli/share/1205tiny/cJSON/cJSON.c ****     }
2417:/home/xingli/share/1205tiny/cJSON/cJSON.c **** 
2418:/home/xingli/share/1205tiny/cJSON/cJSON.c ****     a = cJSON_CreateArray();
 8696              		.loc 1 2418 9
 8697 0059 E8000000 		call	cJSON_CreateArray
 8697      00
 8698 005e 488945F0 		movq	%rax, -16(%rbp)
2419:/home/xingli/share/1205tiny/cJSON/cJSON.c ****     for(i = 0; a && (i < (size_t)count); i++)
 8699              		.loc 1 2419 11
 8700 0062 48C745D8 		movq	$0, -40(%rbp)
 8700      00000000 
 8701              		.loc 1 2419 5
 8702 006a EB71     		jmp	.L672
 8703              	.L677:
2420:/home/xingli/share/1205tiny/cJSON/cJSON.c ****     {
2421:/home/xingli/share/1205tiny/cJSON/cJSON.c ****         n = cJSON_CreateNumber(numbers[i]);
 8704              		.loc 1 2421 39
 8705 006c 488B45D8 		movq	-40(%rbp), %rax
 8706 0070 488D1485 		leaq	0(,%rax,4), %rdx
 8706      00000000 
 8707 0078 488B45C8 		movq	-56(%rbp), %rax
 8708 007c 4801D0   		addq	%rdx, %rax
 8709 007f 8B00     		movl	(%rax), %eax
 8710              		.loc 1 2421 13
 8711 0081 F20F2AC0 		cvtsi2sdl	%eax, %xmm0
 8712 0085 E8000000 		call	cJSON_CreateNumber
 8712      00
 8713 008a 488945E8 		movq	%rax, -24(%rbp)
2422:/home/xingli/share/1205tiny/cJSON/cJSON.c ****         if (!n)
 8714              		.loc 1 2422 12
 8715 008e 48837DE8 		cmpq	$0, -24(%rbp)
 8715      00
 8716 0093 7513     		jne	.L673
2423:/home/xingli/share/1205tiny/cJSON/cJSON.c ****         {
GAS LISTING /tmp/ccabgRKQ.s 			page 219


2424:/home/xingli/share/1205tiny/cJSON/cJSON.c ****             cJSON_Delete(a);
 8717              		.loc 1 2424 13
 8718 0095 488B45F0 		movq	-16(%rbp), %rax
 8719 0099 4889C7   		movq	%rax, %rdi
 8720 009c E8000000 		call	cJSON_Delete
 8720      00
2425:/home/xingli/share/1205tiny/cJSON/cJSON.c ****             return NULL;
 8721              		.loc 1 2425 20
 8722 00a1 B8000000 		movl	$0, %eax
 8722      00
 8723 00a6 EB4F     		jmp	.L671
 8724              	.L673:
2426:/home/xingli/share/1205tiny/cJSON/cJSON.c ****         }
2427:/home/xingli/share/1205tiny/cJSON/cJSON.c ****         if(!i)
 8725              		.loc 1 2427 11
 8726 00a8 48837DD8 		cmpq	$0, -40(%rbp)
 8726      00
 8727 00ad 750E     		jne	.L674
2428:/home/xingli/share/1205tiny/cJSON/cJSON.c ****         {
2429:/home/xingli/share/1205tiny/cJSON/cJSON.c ****             a->child = n;
 8728              		.loc 1 2429 22
 8729 00af 488B45F0 		movq	-16(%rbp), %rax
 8730 00b3 488B55E8 		movq	-24(%rbp), %rdx
 8731 00b7 48895010 		movq	%rdx, 16(%rax)
 8732 00bb EB13     		jmp	.L675
 8733              	.L674:
2430:/home/xingli/share/1205tiny/cJSON/cJSON.c ****         }
2431:/home/xingli/share/1205tiny/cJSON/cJSON.c ****         else
2432:/home/xingli/share/1205tiny/cJSON/cJSON.c ****         {
2433:/home/xingli/share/1205tiny/cJSON/cJSON.c ****             suffix_object(p, n);
 8734              		.loc 1 2433 13
 8735 00bd 488B55E8 		movq	-24(%rbp), %rdx
 8736 00c1 488B45E0 		movq	-32(%rbp), %rax
 8737 00c5 4889D6   		movq	%rdx, %rsi
 8738 00c8 4889C7   		movq	%rax, %rdi
 8739 00cb E8000000 		call	suffix_object
 8739      00
 8740              	.L675:
2434:/home/xingli/share/1205tiny/cJSON/cJSON.c ****         }
2435:/home/xingli/share/1205tiny/cJSON/cJSON.c ****         p = n;
 8741              		.loc 1 2435 11 discriminator 2
 8742 00d0 488B45E8 		movq	-24(%rbp), %rax
 8743 00d4 488945E0 		movq	%rax, -32(%rbp)
2419:/home/xingli/share/1205tiny/cJSON/cJSON.c ****     {
 8744              		.loc 1 2419 43 discriminator 2
 8745 00d8 488345D8 		addq	$1, -40(%rbp)
 8745      01
 8746              	.L672:
2419:/home/xingli/share/1205tiny/cJSON/cJSON.c ****     {
 8747              		.loc 1 2419 5 discriminator 1
 8748 00dd 48837DF0 		cmpq	$0, -16(%rbp)
 8748      00
 8749 00e2 740F     		je	.L676
2419:/home/xingli/share/1205tiny/cJSON/cJSON.c ****     {
 8750              		.loc 1 2419 26 discriminator 3
 8751 00e4 8B45C4   		movl	-60(%rbp), %eax
 8752 00e7 4898     		cltq
GAS LISTING /tmp/ccabgRKQ.s 			page 220


2419:/home/xingli/share/1205tiny/cJSON/cJSON.c ****     {
 8753              		.loc 1 2419 18 discriminator 3
 8754 00e9 483945D8 		cmpq	%rax, -40(%rbp)
 8755 00ed 0F8279FF 		jb	.L677
 8755      FFFF
 8756              	.L676:
2436:/home/xingli/share/1205tiny/cJSON/cJSON.c ****     }
2437:/home/xingli/share/1205tiny/cJSON/cJSON.c **** 
2438:/home/xingli/share/1205tiny/cJSON/cJSON.c ****     return a;
 8757              		.loc 1 2438 12
 8758 00f3 488B45F0 		movq	-16(%rbp), %rax
 8759              	.L671:
2439:/home/xingli/share/1205tiny/cJSON/cJSON.c **** }
 8760              		.loc 1 2439 1
 8761 00f7 488B4DF8 		movq	-8(%rbp), %rcx
 8762 00fb 6448330C 		xorq	%fs:40, %rcx
 8762      25280000 
 8762      00
 8763 0104 7405     		je	.L678
 8764 0106 E8000000 		call	__stack_chk_fail@PLT
 8764      00
 8765              	.L678:
 8766 010b C9       		leave
 8767              	.LCFI257:
 8768              		.cfi_def_cfa 7, 8
 8769 010c C3       		ret
 8770              		.cfi_endproc
 8771              	.LFE91:
 8773              		.section	.text.cJSON_CreateFloatArray,"ax",@progbits
 8774              		.globl	cJSON_CreateFloatArray
 8776              	cJSON_CreateFloatArray:
 8777              	.LFB92:
2440:/home/xingli/share/1205tiny/cJSON/cJSON.c **** 
2441:/home/xingli/share/1205tiny/cJSON/cJSON.c **** CJSON_PUBLIC(cJSON *) cJSON_CreateFloatArray(const float *numbers, int count)
2442:/home/xingli/share/1205tiny/cJSON/cJSON.c **** {
 8778              		.loc 1 2442 1
 8779              		.cfi_startproc
 8780 0000 F30F1EFA 		endbr64
 8781 0004 55       		pushq	%rbp
 8782              	.LCFI258:
 8783              		.cfi_def_cfa_offset 16
 8784              		.cfi_offset 6, -16
 8785 0005 4889E5   		movq	%rsp, %rbp
 8786              	.LCFI259:
 8787              		.cfi_def_cfa_register 6
 8788 0008 4883EC40 		subq	$64, %rsp
 8789 000c 48897DC8 		movq	%rdi, -56(%rbp)
 8790 0010 8975C4   		movl	%esi, -60(%rbp)
 8791              		.loc 1 2442 1
 8792 0013 64488B04 		movq	%fs:40, %rax
 8792      25280000 
 8792      00
 8793 001c 488945F8 		movq	%rax, -8(%rbp)
 8794 0020 31C0     		xorl	%eax, %eax
2443:/home/xingli/share/1205tiny/cJSON/cJSON.c ****     size_t i = 0;
 8795              		.loc 1 2443 12
 8796 0022 48C745D8 		movq	$0, -40(%rbp)
GAS LISTING /tmp/ccabgRKQ.s 			page 221


 8796      00000000 
2444:/home/xingli/share/1205tiny/cJSON/cJSON.c ****     cJSON *n = NULL;
 8797              		.loc 1 2444 12
 8798 002a 48C745E8 		movq	$0, -24(%rbp)
 8798      00000000 
2445:/home/xingli/share/1205tiny/cJSON/cJSON.c ****     cJSON *p = NULL;
 8799              		.loc 1 2445 12
 8800 0032 48C745E0 		movq	$0, -32(%rbp)
 8800      00000000 
2446:/home/xingli/share/1205tiny/cJSON/cJSON.c ****     cJSON *a = NULL;
 8801              		.loc 1 2446 12
 8802 003a 48C745F0 		movq	$0, -16(%rbp)
 8802      00000000 
2447:/home/xingli/share/1205tiny/cJSON/cJSON.c **** 
2448:/home/xingli/share/1205tiny/cJSON/cJSON.c ****     if ((count < 0) || (numbers == NULL))
 8803              		.loc 1 2448 8
 8804 0042 837DC400 		cmpl	$0, -60(%rbp)
 8805 0046 7807     		js	.L680
 8806              		.loc 1 2448 21 discriminator 1
 8807 0048 48837DC8 		cmpq	$0, -56(%rbp)
 8807      00
 8808 004d 750A     		jne	.L681
 8809              	.L680:
2449:/home/xingli/share/1205tiny/cJSON/cJSON.c ****     {
2450:/home/xingli/share/1205tiny/cJSON/cJSON.c ****         return NULL;
 8810              		.loc 1 2450 16
 8811 004f B8000000 		movl	$0, %eax
 8811      00
 8812 0054 E9A00000 		jmp	.L682
 8812      00
 8813              	.L681:
2451:/home/xingli/share/1205tiny/cJSON/cJSON.c ****     }
2452:/home/xingli/share/1205tiny/cJSON/cJSON.c **** 
2453:/home/xingli/share/1205tiny/cJSON/cJSON.c ****     a = cJSON_CreateArray();
 8814              		.loc 1 2453 9
 8815 0059 E8000000 		call	cJSON_CreateArray
 8815      00
 8816 005e 488945F0 		movq	%rax, -16(%rbp)
2454:/home/xingli/share/1205tiny/cJSON/cJSON.c **** 
2455:/home/xingli/share/1205tiny/cJSON/cJSON.c ****     for(i = 0; a && (i < (size_t)count); i++)
 8817              		.loc 1 2455 11
 8818 0062 48C745D8 		movq	$0, -40(%rbp)
 8818      00000000 
 8819              		.loc 1 2455 5
 8820 006a EB73     		jmp	.L683
 8821              	.L688:
2456:/home/xingli/share/1205tiny/cJSON/cJSON.c ****     {
2457:/home/xingli/share/1205tiny/cJSON/cJSON.c ****         n = cJSON_CreateNumber((double)numbers[i]);
 8822              		.loc 1 2457 47
 8823 006c 488B45D8 		movq	-40(%rbp), %rax
 8824 0070 488D1485 		leaq	0(,%rax,4), %rdx
 8824      00000000 
 8825 0078 488B45C8 		movq	-56(%rbp), %rax
 8826 007c 4801D0   		addq	%rdx, %rax
 8827 007f F30F1000 		movss	(%rax), %xmm0
 8828              		.loc 1 2457 13
 8829 0083 F30F5AC0 		cvtss2sd	%xmm0, %xmm0
GAS LISTING /tmp/ccabgRKQ.s 			page 222


 8830 0087 E8000000 		call	cJSON_CreateNumber
 8830      00
 8831 008c 488945E8 		movq	%rax, -24(%rbp)
2458:/home/xingli/share/1205tiny/cJSON/cJSON.c ****         if(!n)
 8832              		.loc 1 2458 11
 8833 0090 48837DE8 		cmpq	$0, -24(%rbp)
 8833      00
 8834 0095 7513     		jne	.L684
2459:/home/xingli/share/1205tiny/cJSON/cJSON.c ****         {
2460:/home/xingli/share/1205tiny/cJSON/cJSON.c ****             cJSON_Delete(a);
 8835              		.loc 1 2460 13
 8836 0097 488B45F0 		movq	-16(%rbp), %rax
 8837 009b 4889C7   		movq	%rax, %rdi
 8838 009e E8000000 		call	cJSON_Delete
 8838      00
2461:/home/xingli/share/1205tiny/cJSON/cJSON.c ****             return NULL;
 8839              		.loc 1 2461 20
 8840 00a3 B8000000 		movl	$0, %eax
 8840      00
 8841 00a8 EB4F     		jmp	.L682
 8842              	.L684:
2462:/home/xingli/share/1205tiny/cJSON/cJSON.c ****         }
2463:/home/xingli/share/1205tiny/cJSON/cJSON.c ****         if(!i)
 8843              		.loc 1 2463 11
 8844 00aa 48837DD8 		cmpq	$0, -40(%rbp)
 8844      00
 8845 00af 750E     		jne	.L685
2464:/home/xingli/share/1205tiny/cJSON/cJSON.c ****         {
2465:/home/xingli/share/1205tiny/cJSON/cJSON.c ****             a->child = n;
 8846              		.loc 1 2465 22
 8847 00b1 488B45F0 		movq	-16(%rbp), %rax
 8848 00b5 488B55E8 		movq	-24(%rbp), %rdx
 8849 00b9 48895010 		movq	%rdx, 16(%rax)
 8850 00bd EB13     		jmp	.L686
 8851              	.L685:
2466:/home/xingli/share/1205tiny/cJSON/cJSON.c ****         }
2467:/home/xingli/share/1205tiny/cJSON/cJSON.c ****         else
2468:/home/xingli/share/1205tiny/cJSON/cJSON.c ****         {
2469:/home/xingli/share/1205tiny/cJSON/cJSON.c ****             suffix_object(p, n);
 8852              		.loc 1 2469 13
 8853 00bf 488B55E8 		movq	-24(%rbp), %rdx
 8854 00c3 488B45E0 		movq	-32(%rbp), %rax
 8855 00c7 4889D6   		movq	%rdx, %rsi
 8856 00ca 4889C7   		movq	%rax, %rdi
 8857 00cd E8000000 		call	suffix_object
 8857      00
 8858              	.L686:
2470:/home/xingli/share/1205tiny/cJSON/cJSON.c ****         }
2471:/home/xingli/share/1205tiny/cJSON/cJSON.c ****         p = n;
 8859              		.loc 1 2471 11 discriminator 2
 8860 00d2 488B45E8 		movq	-24(%rbp), %rax
 8861 00d6 488945E0 		movq	%rax, -32(%rbp)
2455:/home/xingli/share/1205tiny/cJSON/cJSON.c ****     {
 8862              		.loc 1 2455 43 discriminator 2
 8863 00da 488345D8 		addq	$1, -40(%rbp)
 8863      01
 8864              	.L683:
GAS LISTING /tmp/ccabgRKQ.s 			page 223


2455:/home/xingli/share/1205tiny/cJSON/cJSON.c ****     {
 8865              		.loc 1 2455 5 discriminator 1
 8866 00df 48837DF0 		cmpq	$0, -16(%rbp)
 8866      00
 8867 00e4 740F     		je	.L687
2455:/home/xingli/share/1205tiny/cJSON/cJSON.c ****     {
 8868              		.loc 1 2455 26 discriminator 3
 8869 00e6 8B45C4   		movl	-60(%rbp), %eax
 8870 00e9 4898     		cltq
2455:/home/xingli/share/1205tiny/cJSON/cJSON.c ****     {
 8871              		.loc 1 2455 18 discriminator 3
 8872 00eb 483945D8 		cmpq	%rax, -40(%rbp)
 8873 00ef 0F8277FF 		jb	.L688
 8873      FFFF
 8874              	.L687:
2472:/home/xingli/share/1205tiny/cJSON/cJSON.c ****     }
2473:/home/xingli/share/1205tiny/cJSON/cJSON.c **** 
2474:/home/xingli/share/1205tiny/cJSON/cJSON.c ****     return a;
 8875              		.loc 1 2474 12
 8876 00f5 488B45F0 		movq	-16(%rbp), %rax
 8877              	.L682:
2475:/home/xingli/share/1205tiny/cJSON/cJSON.c **** }
 8878              		.loc 1 2475 1
 8879 00f9 488B4DF8 		movq	-8(%rbp), %rcx
 8880 00fd 6448330C 		xorq	%fs:40, %rcx
 8880      25280000 
 8880      00
 8881 0106 7405     		je	.L689
 8882 0108 E8000000 		call	__stack_chk_fail@PLT
 8882      00
 8883              	.L689:
 8884 010d C9       		leave
 8885              	.LCFI260:
 8886              		.cfi_def_cfa 7, 8
 8887 010e C3       		ret
 8888              		.cfi_endproc
 8889              	.LFE92:
 8891              		.section	.text.cJSON_CreateDoubleArray,"ax",@progbits
 8892              		.globl	cJSON_CreateDoubleArray
 8894              	cJSON_CreateDoubleArray:
 8895              	.LFB93:
2476:/home/xingli/share/1205tiny/cJSON/cJSON.c **** 
2477:/home/xingli/share/1205tiny/cJSON/cJSON.c **** CJSON_PUBLIC(cJSON *) cJSON_CreateDoubleArray(const double *numbers, int count)
2478:/home/xingli/share/1205tiny/cJSON/cJSON.c **** {
 8896              		.loc 1 2478 1
 8897              		.cfi_startproc
 8898 0000 F30F1EFA 		endbr64
 8899 0004 55       		pushq	%rbp
 8900              	.LCFI261:
 8901              		.cfi_def_cfa_offset 16
 8902              		.cfi_offset 6, -16
 8903 0005 4889E5   		movq	%rsp, %rbp
 8904              	.LCFI262:
 8905              		.cfi_def_cfa_register 6
 8906 0008 4883EC40 		subq	$64, %rsp
 8907 000c 48897DC8 		movq	%rdi, -56(%rbp)
 8908 0010 8975C4   		movl	%esi, -60(%rbp)
GAS LISTING /tmp/ccabgRKQ.s 			page 224


 8909              		.loc 1 2478 1
 8910 0013 64488B04 		movq	%fs:40, %rax
 8910      25280000 
 8910      00
 8911 001c 488945F8 		movq	%rax, -8(%rbp)
 8912 0020 31C0     		xorl	%eax, %eax
2479:/home/xingli/share/1205tiny/cJSON/cJSON.c ****     size_t i = 0;
 8913              		.loc 1 2479 12
 8914 0022 48C745D8 		movq	$0, -40(%rbp)
 8914      00000000 
2480:/home/xingli/share/1205tiny/cJSON/cJSON.c ****     cJSON *n = NULL;
 8915              		.loc 1 2480 12
 8916 002a 48C745E8 		movq	$0, -24(%rbp)
 8916      00000000 
2481:/home/xingli/share/1205tiny/cJSON/cJSON.c ****     cJSON *p = NULL;
 8917              		.loc 1 2481 12
 8918 0032 48C745E0 		movq	$0, -32(%rbp)
 8918      00000000 
2482:/home/xingli/share/1205tiny/cJSON/cJSON.c ****     cJSON *a = NULL;
 8919              		.loc 1 2482 12
 8920 003a 48C745F0 		movq	$0, -16(%rbp)
 8920      00000000 
2483:/home/xingli/share/1205tiny/cJSON/cJSON.c **** 
2484:/home/xingli/share/1205tiny/cJSON/cJSON.c ****     if ((count < 0) || (numbers == NULL))
 8921              		.loc 1 2484 8
 8922 0042 837DC400 		cmpl	$0, -60(%rbp)
 8923 0046 7807     		js	.L691
 8924              		.loc 1 2484 21 discriminator 1
 8925 0048 48837DC8 		cmpq	$0, -56(%rbp)
 8925      00
 8926 004d 750A     		jne	.L692
 8927              	.L691:
2485:/home/xingli/share/1205tiny/cJSON/cJSON.c ****     {
2486:/home/xingli/share/1205tiny/cJSON/cJSON.c ****         return NULL;
 8928              		.loc 1 2486 16
 8929 004f B8000000 		movl	$0, %eax
 8929      00
 8930 0054 E9A00000 		jmp	.L693
 8930      00
 8931              	.L692:
2487:/home/xingli/share/1205tiny/cJSON/cJSON.c ****     }
2488:/home/xingli/share/1205tiny/cJSON/cJSON.c **** 
2489:/home/xingli/share/1205tiny/cJSON/cJSON.c ****     a = cJSON_CreateArray();
 8932              		.loc 1 2489 9
 8933 0059 E8000000 		call	cJSON_CreateArray
 8933      00
 8934 005e 488945F0 		movq	%rax, -16(%rbp)
2490:/home/xingli/share/1205tiny/cJSON/cJSON.c **** 
2491:/home/xingli/share/1205tiny/cJSON/cJSON.c ****     for(i = 0;a && (i < (size_t)count); i++)
 8935              		.loc 1 2491 11
 8936 0062 48C745D8 		movq	$0, -40(%rbp)
 8936      00000000 
 8937              		.loc 1 2491 5
 8938 006a EB73     		jmp	.L694
 8939              	.L699:
2492:/home/xingli/share/1205tiny/cJSON/cJSON.c ****     {
2493:/home/xingli/share/1205tiny/cJSON/cJSON.c ****         n = cJSON_CreateNumber(numbers[i]);
GAS LISTING /tmp/ccabgRKQ.s 			page 225


 8940              		.loc 1 2493 39
 8941 006c 488B45D8 		movq	-40(%rbp), %rax
 8942 0070 488D14C5 		leaq	0(,%rax,8), %rdx
 8942      00000000 
 8943 0078 488B45C8 		movq	-56(%rbp), %rax
 8944 007c 4801D0   		addq	%rdx, %rax
 8945              		.loc 1 2493 13
 8946 007f 488B00   		movq	(%rax), %rax
 8947 0082 66480F6E 		movq	%rax, %xmm0
 8947      C0
 8948 0087 E8000000 		call	cJSON_CreateNumber
 8948      00
 8949 008c 488945E8 		movq	%rax, -24(%rbp)
2494:/home/xingli/share/1205tiny/cJSON/cJSON.c ****         if(!n)
 8950              		.loc 1 2494 11
 8951 0090 48837DE8 		cmpq	$0, -24(%rbp)
 8951      00
 8952 0095 7513     		jne	.L695
2495:/home/xingli/share/1205tiny/cJSON/cJSON.c ****         {
2496:/home/xingli/share/1205tiny/cJSON/cJSON.c ****             cJSON_Delete(a);
 8953              		.loc 1 2496 13
 8954 0097 488B45F0 		movq	-16(%rbp), %rax
 8955 009b 4889C7   		movq	%rax, %rdi
 8956 009e E8000000 		call	cJSON_Delete
 8956      00
2497:/home/xingli/share/1205tiny/cJSON/cJSON.c ****             return NULL;
 8957              		.loc 1 2497 20
 8958 00a3 B8000000 		movl	$0, %eax
 8958      00
 8959 00a8 EB4F     		jmp	.L693
 8960              	.L695:
2498:/home/xingli/share/1205tiny/cJSON/cJSON.c ****         }
2499:/home/xingli/share/1205tiny/cJSON/cJSON.c ****         if(!i)
 8961              		.loc 1 2499 11
 8962 00aa 48837DD8 		cmpq	$0, -40(%rbp)
 8962      00
 8963 00af 750E     		jne	.L696
2500:/home/xingli/share/1205tiny/cJSON/cJSON.c ****         {
2501:/home/xingli/share/1205tiny/cJSON/cJSON.c ****             a->child = n;
 8964              		.loc 1 2501 22
 8965 00b1 488B45F0 		movq	-16(%rbp), %rax
 8966 00b5 488B55E8 		movq	-24(%rbp), %rdx
 8967 00b9 48895010 		movq	%rdx, 16(%rax)
 8968 00bd EB13     		jmp	.L697
 8969              	.L696:
2502:/home/xingli/share/1205tiny/cJSON/cJSON.c ****         }
2503:/home/xingli/share/1205tiny/cJSON/cJSON.c ****         else
2504:/home/xingli/share/1205tiny/cJSON/cJSON.c ****         {
2505:/home/xingli/share/1205tiny/cJSON/cJSON.c ****             suffix_object(p, n);
 8970              		.loc 1 2505 13
 8971 00bf 488B55E8 		movq	-24(%rbp), %rdx
 8972 00c3 488B45E0 		movq	-32(%rbp), %rax
 8973 00c7 4889D6   		movq	%rdx, %rsi
 8974 00ca 4889C7   		movq	%rax, %rdi
 8975 00cd E8000000 		call	suffix_object
 8975      00
 8976              	.L697:
GAS LISTING /tmp/ccabgRKQ.s 			page 226


2506:/home/xingli/share/1205tiny/cJSON/cJSON.c ****         }
2507:/home/xingli/share/1205tiny/cJSON/cJSON.c ****         p = n;
 8977              		.loc 1 2507 11 discriminator 2
 8978 00d2 488B45E8 		movq	-24(%rbp), %rax
 8979 00d6 488945E0 		movq	%rax, -32(%rbp)
2491:/home/xingli/share/1205tiny/cJSON/cJSON.c ****     {
 8980              		.loc 1 2491 42 discriminator 2
 8981 00da 488345D8 		addq	$1, -40(%rbp)
 8981      01
 8982              	.L694:
2491:/home/xingli/share/1205tiny/cJSON/cJSON.c ****     {
 8983              		.loc 1 2491 5 discriminator 1
 8984 00df 48837DF0 		cmpq	$0, -16(%rbp)
 8984      00
 8985 00e4 740F     		je	.L698
2491:/home/xingli/share/1205tiny/cJSON/cJSON.c ****     {
 8986              		.loc 1 2491 25 discriminator 3
 8987 00e6 8B45C4   		movl	-60(%rbp), %eax
 8988 00e9 4898     		cltq
2491:/home/xingli/share/1205tiny/cJSON/cJSON.c ****     {
 8989              		.loc 1 2491 17 discriminator 3
 8990 00eb 483945D8 		cmpq	%rax, -40(%rbp)
 8991 00ef 0F8277FF 		jb	.L699
 8991      FFFF
 8992              	.L698:
2508:/home/xingli/share/1205tiny/cJSON/cJSON.c ****     }
2509:/home/xingli/share/1205tiny/cJSON/cJSON.c **** 
2510:/home/xingli/share/1205tiny/cJSON/cJSON.c ****     return a;
 8993              		.loc 1 2510 12
 8994 00f5 488B45F0 		movq	-16(%rbp), %rax
 8995              	.L693:
2511:/home/xingli/share/1205tiny/cJSON/cJSON.c **** }
 8996              		.loc 1 2511 1
 8997 00f9 488B4DF8 		movq	-8(%rbp), %rcx
 8998 00fd 6448330C 		xorq	%fs:40, %rcx
 8998      25280000 
 8998      00
 8999 0106 7405     		je	.L700
 9000 0108 E8000000 		call	__stack_chk_fail@PLT
 9000      00
 9001              	.L700:
 9002 010d C9       		leave
 9003              	.LCFI263:
 9004              		.cfi_def_cfa 7, 8
 9005 010e C3       		ret
 9006              		.cfi_endproc
 9007              	.LFE93:
 9009              		.section	.text.cJSON_CreateStringArray,"ax",@progbits
 9010              		.globl	cJSON_CreateStringArray
 9012              	cJSON_CreateStringArray:
 9013              	.LFB94:
2512:/home/xingli/share/1205tiny/cJSON/cJSON.c **** 
2513:/home/xingli/share/1205tiny/cJSON/cJSON.c **** CJSON_PUBLIC(cJSON *) cJSON_CreateStringArray(const char **strings, int count)
2514:/home/xingli/share/1205tiny/cJSON/cJSON.c **** {
 9014              		.loc 1 2514 1
 9015              		.cfi_startproc
 9016 0000 F30F1EFA 		endbr64
GAS LISTING /tmp/ccabgRKQ.s 			page 227


 9017 0004 55       		pushq	%rbp
 9018              	.LCFI264:
 9019              		.cfi_def_cfa_offset 16
 9020              		.cfi_offset 6, -16
 9021 0005 4889E5   		movq	%rsp, %rbp
 9022              	.LCFI265:
 9023              		.cfi_def_cfa_register 6
 9024 0008 4883EC40 		subq	$64, %rsp
 9025 000c 48897DC8 		movq	%rdi, -56(%rbp)
 9026 0010 8975C4   		movl	%esi, -60(%rbp)
 9027              		.loc 1 2514 1
 9028 0013 64488B04 		movq	%fs:40, %rax
 9028      25280000 
 9028      00
 9029 001c 488945F8 		movq	%rax, -8(%rbp)
 9030 0020 31C0     		xorl	%eax, %eax
2515:/home/xingli/share/1205tiny/cJSON/cJSON.c ****     size_t i = 0;
 9031              		.loc 1 2515 12
 9032 0022 48C745D8 		movq	$0, -40(%rbp)
 9032      00000000 
2516:/home/xingli/share/1205tiny/cJSON/cJSON.c ****     cJSON *n = NULL;
 9033              		.loc 1 2516 12
 9034 002a 48C745E8 		movq	$0, -24(%rbp)
 9034      00000000 
2517:/home/xingli/share/1205tiny/cJSON/cJSON.c ****     cJSON *p = NULL;
 9035              		.loc 1 2517 12
 9036 0032 48C745E0 		movq	$0, -32(%rbp)
 9036      00000000 
2518:/home/xingli/share/1205tiny/cJSON/cJSON.c ****     cJSON *a = NULL;
 9037              		.loc 1 2518 12
 9038 003a 48C745F0 		movq	$0, -16(%rbp)
 9038      00000000 
2519:/home/xingli/share/1205tiny/cJSON/cJSON.c **** 
2520:/home/xingli/share/1205tiny/cJSON/cJSON.c ****     if ((count < 0) || (strings == NULL))
 9039              		.loc 1 2520 8
 9040 0042 837DC400 		cmpl	$0, -60(%rbp)
 9041 0046 7807     		js	.L702
 9042              		.loc 1 2520 21 discriminator 1
 9043 0048 48837DC8 		cmpq	$0, -56(%rbp)
 9043      00
 9044 004d 750A     		jne	.L703
 9045              	.L702:
2521:/home/xingli/share/1205tiny/cJSON/cJSON.c ****     {
2522:/home/xingli/share/1205tiny/cJSON/cJSON.c ****         return NULL;
 9046              		.loc 1 2522 16
 9047 004f B8000000 		movl	$0, %eax
 9047      00
 9048 0054 E99E0000 		jmp	.L704
 9048      00
 9049              	.L703:
2523:/home/xingli/share/1205tiny/cJSON/cJSON.c ****     }
2524:/home/xingli/share/1205tiny/cJSON/cJSON.c **** 
2525:/home/xingli/share/1205tiny/cJSON/cJSON.c ****     a = cJSON_CreateArray();
 9050              		.loc 1 2525 9
 9051 0059 E8000000 		call	cJSON_CreateArray
 9051      00
 9052 005e 488945F0 		movq	%rax, -16(%rbp)
GAS LISTING /tmp/ccabgRKQ.s 			page 228


2526:/home/xingli/share/1205tiny/cJSON/cJSON.c **** 
2527:/home/xingli/share/1205tiny/cJSON/cJSON.c ****     for (i = 0; a && (i < (size_t)count); i++)
 9053              		.loc 1 2527 12
 9054 0062 48C745D8 		movq	$0, -40(%rbp)
 9054      00000000 
 9055              		.loc 1 2527 5
 9056 006a EB71     		jmp	.L705
 9057              	.L710:
2528:/home/xingli/share/1205tiny/cJSON/cJSON.c ****     {
2529:/home/xingli/share/1205tiny/cJSON/cJSON.c ****         n = cJSON_CreateString(strings[i]);
 9058              		.loc 1 2529 39
 9059 006c 488B45D8 		movq	-40(%rbp), %rax
 9060 0070 488D14C5 		leaq	0(,%rax,8), %rdx
 9060      00000000 
 9061 0078 488B45C8 		movq	-56(%rbp), %rax
 9062 007c 4801D0   		addq	%rdx, %rax
 9063              		.loc 1 2529 13
 9064 007f 488B00   		movq	(%rax), %rax
 9065 0082 4889C7   		movq	%rax, %rdi
 9066 0085 E8000000 		call	cJSON_CreateString
 9066      00
 9067 008a 488945E8 		movq	%rax, -24(%rbp)
2530:/home/xingli/share/1205tiny/cJSON/cJSON.c ****         if(!n)
 9068              		.loc 1 2530 11
 9069 008e 48837DE8 		cmpq	$0, -24(%rbp)
 9069      00
 9070 0093 7513     		jne	.L706
2531:/home/xingli/share/1205tiny/cJSON/cJSON.c ****         {
2532:/home/xingli/share/1205tiny/cJSON/cJSON.c ****             cJSON_Delete(a);
 9071              		.loc 1 2532 13
 9072 0095 488B45F0 		movq	-16(%rbp), %rax
 9073 0099 4889C7   		movq	%rax, %rdi
 9074 009c E8000000 		call	cJSON_Delete
 9074      00
2533:/home/xingli/share/1205tiny/cJSON/cJSON.c ****             return NULL;
 9075              		.loc 1 2533 20
 9076 00a1 B8000000 		movl	$0, %eax
 9076      00
 9077 00a6 EB4F     		jmp	.L704
 9078              	.L706:
2534:/home/xingli/share/1205tiny/cJSON/cJSON.c ****         }
2535:/home/xingli/share/1205tiny/cJSON/cJSON.c ****         if(!i)
 9079              		.loc 1 2535 11
 9080 00a8 48837DD8 		cmpq	$0, -40(%rbp)
 9080      00
 9081 00ad 750E     		jne	.L707
2536:/home/xingli/share/1205tiny/cJSON/cJSON.c ****         {
2537:/home/xingli/share/1205tiny/cJSON/cJSON.c ****             a->child = n;
 9082              		.loc 1 2537 22
 9083 00af 488B45F0 		movq	-16(%rbp), %rax
 9084 00b3 488B55E8 		movq	-24(%rbp), %rdx
 9085 00b7 48895010 		movq	%rdx, 16(%rax)
 9086 00bb EB13     		jmp	.L708
 9087              	.L707:
2538:/home/xingli/share/1205tiny/cJSON/cJSON.c ****         }
2539:/home/xingli/share/1205tiny/cJSON/cJSON.c ****         else
2540:/home/xingli/share/1205tiny/cJSON/cJSON.c ****         {
GAS LISTING /tmp/ccabgRKQ.s 			page 229


2541:/home/xingli/share/1205tiny/cJSON/cJSON.c ****             suffix_object(p,n);
 9088              		.loc 1 2541 13
 9089 00bd 488B55E8 		movq	-24(%rbp), %rdx
 9090 00c1 488B45E0 		movq	-32(%rbp), %rax
 9091 00c5 4889D6   		movq	%rdx, %rsi
 9092 00c8 4889C7   		movq	%rax, %rdi
 9093 00cb E8000000 		call	suffix_object
 9093      00
 9094              	.L708:
2542:/home/xingli/share/1205tiny/cJSON/cJSON.c ****         }
2543:/home/xingli/share/1205tiny/cJSON/cJSON.c ****         p = n;
 9095              		.loc 1 2543 11 discriminator 2
 9096 00d0 488B45E8 		movq	-24(%rbp), %rax
 9097 00d4 488945E0 		movq	%rax, -32(%rbp)
2527:/home/xingli/share/1205tiny/cJSON/cJSON.c ****     {
 9098              		.loc 1 2527 44 discriminator 2
 9099 00d8 488345D8 		addq	$1, -40(%rbp)
 9099      01
 9100              	.L705:
2527:/home/xingli/share/1205tiny/cJSON/cJSON.c ****     {
 9101              		.loc 1 2527 5 discriminator 1
 9102 00dd 48837DF0 		cmpq	$0, -16(%rbp)
 9102      00
 9103 00e2 740F     		je	.L709
2527:/home/xingli/share/1205tiny/cJSON/cJSON.c ****     {
 9104              		.loc 1 2527 27 discriminator 3
 9105 00e4 8B45C4   		movl	-60(%rbp), %eax
 9106 00e7 4898     		cltq
2527:/home/xingli/share/1205tiny/cJSON/cJSON.c ****     {
 9107              		.loc 1 2527 19 discriminator 3
 9108 00e9 483945D8 		cmpq	%rax, -40(%rbp)
 9109 00ed 0F8279FF 		jb	.L710
 9109      FFFF
 9110              	.L709:
2544:/home/xingli/share/1205tiny/cJSON/cJSON.c ****     }
2545:/home/xingli/share/1205tiny/cJSON/cJSON.c **** 
2546:/home/xingli/share/1205tiny/cJSON/cJSON.c ****     return a;
 9111              		.loc 1 2546 12
 9112 00f3 488B45F0 		movq	-16(%rbp), %rax
 9113              	.L704:
2547:/home/xingli/share/1205tiny/cJSON/cJSON.c **** }
 9114              		.loc 1 2547 1
 9115 00f7 488B4DF8 		movq	-8(%rbp), %rcx
 9116 00fb 6448330C 		xorq	%fs:40, %rcx
 9116      25280000 
 9116      00
 9117 0104 7405     		je	.L711
 9118 0106 E8000000 		call	__stack_chk_fail@PLT
 9118      00
 9119              	.L711:
 9120 010b C9       		leave
 9121              	.LCFI266:
 9122              		.cfi_def_cfa 7, 8
 9123 010c C3       		ret
 9124              		.cfi_endproc
 9125              	.LFE94:
 9127              		.section	.text.cJSON_Duplicate,"ax",@progbits
GAS LISTING /tmp/ccabgRKQ.s 			page 230


 9128              		.globl	cJSON_Duplicate
 9130              	cJSON_Duplicate:
 9131              	.LFB95:
2548:/home/xingli/share/1205tiny/cJSON/cJSON.c **** 
2549:/home/xingli/share/1205tiny/cJSON/cJSON.c **** /* Duplication */
2550:/home/xingli/share/1205tiny/cJSON/cJSON.c **** CJSON_PUBLIC(cJSON *) cJSON_Duplicate(const cJSON *item, cJSON_bool recurse)
2551:/home/xingli/share/1205tiny/cJSON/cJSON.c **** {
 9132              		.loc 1 2551 1
 9133              		.cfi_startproc
 9134 0000 F30F1EFA 		endbr64
 9135 0004 55       		pushq	%rbp
 9136              	.LCFI267:
 9137              		.cfi_def_cfa_offset 16
 9138              		.cfi_offset 6, -16
 9139 0005 4889E5   		movq	%rsp, %rbp
 9140              	.LCFI268:
 9141              		.cfi_def_cfa_register 6
 9142 0008 4883EC40 		subq	$64, %rsp
 9143 000c 48897DC8 		movq	%rdi, -56(%rbp)
 9144 0010 8975C4   		movl	%esi, -60(%rbp)
 9145              		.loc 1 2551 1
 9146 0013 64488B04 		movq	%fs:40, %rax
 9146      25280000 
 9146      00
 9147 001c 488945F8 		movq	%rax, -8(%rbp)
 9148 0020 31C0     		xorl	%eax, %eax
2552:/home/xingli/share/1205tiny/cJSON/cJSON.c ****     cJSON *newitem = NULL;
 9149              		.loc 1 2552 12
 9150 0022 48C745D8 		movq	$0, -40(%rbp)
 9150      00000000 
2553:/home/xingli/share/1205tiny/cJSON/cJSON.c ****     cJSON *child = NULL;
 9151              		.loc 1 2553 12
 9152 002a 48C745E0 		movq	$0, -32(%rbp)
 9152      00000000 
2554:/home/xingli/share/1205tiny/cJSON/cJSON.c ****     cJSON *next = NULL;
 9153              		.loc 1 2554 12
 9154 0032 48C745E8 		movq	$0, -24(%rbp)
 9154      00000000 
2555:/home/xingli/share/1205tiny/cJSON/cJSON.c ****     cJSON *newchild = NULL;
 9155              		.loc 1 2555 12
 9156 003a 48C745F0 		movq	$0, -16(%rbp)
 9156      00000000 
2556:/home/xingli/share/1205tiny/cJSON/cJSON.c **** 
2557:/home/xingli/share/1205tiny/cJSON/cJSON.c ****     /* Bail on bad ptr */
2558:/home/xingli/share/1205tiny/cJSON/cJSON.c ****     if (!item)
 9157              		.loc 1 2558 8
 9158 0042 48837DC8 		cmpq	$0, -56(%rbp)
 9158      00
 9159 0047 0F846F01 		je	.L729
 9159      0000
2559:/home/xingli/share/1205tiny/cJSON/cJSON.c ****     {
2560:/home/xingli/share/1205tiny/cJSON/cJSON.c ****         goto fail;
2561:/home/xingli/share/1205tiny/cJSON/cJSON.c ****     }
2562:/home/xingli/share/1205tiny/cJSON/cJSON.c ****     /* Create new item */
2563:/home/xingli/share/1205tiny/cJSON/cJSON.c ****     newitem = cJSON_New_Item(&global_hooks);
 9160              		.loc 1 2563 15
 9161 004d 488D3D00 		leaq	global_hooks(%rip), %rdi
GAS LISTING /tmp/ccabgRKQ.s 			page 231


 9161      000000
 9162 0054 E8000000 		call	cJSON_New_Item
 9162      00
 9163 0059 488945D8 		movq	%rax, -40(%rbp)
2564:/home/xingli/share/1205tiny/cJSON/cJSON.c ****     if (!newitem)
 9164              		.loc 1 2564 8
 9165 005d 48837DD8 		cmpq	$0, -40(%rbp)
 9165      00
 9166 0062 0F845701 		je	.L730
 9166      0000
2565:/home/xingli/share/1205tiny/cJSON/cJSON.c ****     {
2566:/home/xingli/share/1205tiny/cJSON/cJSON.c ****         goto fail;
2567:/home/xingli/share/1205tiny/cJSON/cJSON.c ****     }
2568:/home/xingli/share/1205tiny/cJSON/cJSON.c ****     /* Copy over all vars */
2569:/home/xingli/share/1205tiny/cJSON/cJSON.c ****     newitem->type = item->type & (~cJSON_IsReference);
 9167              		.loc 1 2569 25
 9168 0068 488B45C8 		movq	-56(%rbp), %rax
 9169 006c 8B4018   		movl	24(%rax), %eax
 9170              		.loc 1 2569 32
 9171 006f 80E4FE   		andb	$-2, %ah
 9172 0072 89C2     		movl	%eax, %edx
 9173              		.loc 1 2569 19
 9174 0074 488B45D8 		movq	-40(%rbp), %rax
 9175 0078 895018   		movl	%edx, 24(%rax)
2570:/home/xingli/share/1205tiny/cJSON/cJSON.c ****     newitem->valueint = item->valueint;
 9176              		.loc 1 2570 29
 9177 007b 488B45C8 		movq	-56(%rbp), %rax
 9178 007f 8B5028   		movl	40(%rax), %edx
 9179              		.loc 1 2570 23
 9180 0082 488B45D8 		movq	-40(%rbp), %rax
 9181 0086 895028   		movl	%edx, 40(%rax)
2571:/home/xingli/share/1205tiny/cJSON/cJSON.c ****     newitem->valuedouble = item->valuedouble;
 9182              		.loc 1 2571 32
 9183 0089 488B45C8 		movq	-56(%rbp), %rax
 9184 008d F20F1040 		movsd	48(%rax), %xmm0
 9184      30
 9185              		.loc 1 2571 26
 9186 0092 488B45D8 		movq	-40(%rbp), %rax
 9187 0096 F20F1140 		movsd	%xmm0, 48(%rax)
 9187      30
2572:/home/xingli/share/1205tiny/cJSON/cJSON.c ****     if (item->valuestring)
 9188              		.loc 1 2572 13
 9189 009b 488B45C8 		movq	-56(%rbp), %rax
 9190 009f 488B4020 		movq	32(%rax), %rax
 9191              		.loc 1 2572 8
 9192 00a3 4885C0   		testq	%rax, %rax
 9193 00a6 7430     		je	.L716
2573:/home/xingli/share/1205tiny/cJSON/cJSON.c ****     {
2574:/home/xingli/share/1205tiny/cJSON/cJSON.c ****         newitem->valuestring = (char*)cJSON_strdup((unsigned char*)item->valuestring, &global_hooks
 9194              		.loc 1 2574 72
 9195 00a8 488B45C8 		movq	-56(%rbp), %rax
 9196 00ac 488B4020 		movq	32(%rax), %rax
 9197              		.loc 1 2574 39
 9198 00b0 488D3500 		leaq	global_hooks(%rip), %rsi
 9198      000000
 9199 00b7 4889C7   		movq	%rax, %rdi
 9200 00ba E8000000 		call	cJSON_strdup
GAS LISTING /tmp/ccabgRKQ.s 			page 232


 9200      00
 9201              		.loc 1 2574 30
 9202 00bf 488B55D8 		movq	-40(%rbp), %rdx
 9203 00c3 48894220 		movq	%rax, 32(%rdx)
2575:/home/xingli/share/1205tiny/cJSON/cJSON.c ****         if (!newitem->valuestring)
 9204              		.loc 1 2575 21
 9205 00c7 488B45D8 		movq	-40(%rbp), %rax
 9206 00cb 488B4020 		movq	32(%rax), %rax
 9207              		.loc 1 2575 12
 9208 00cf 4885C0   		testq	%rax, %rax
 9209 00d2 0F84EA00 		je	.L731
 9209      0000
 9210              	.L716:
2576:/home/xingli/share/1205tiny/cJSON/cJSON.c ****         {
2577:/home/xingli/share/1205tiny/cJSON/cJSON.c ****             goto fail;
2578:/home/xingli/share/1205tiny/cJSON/cJSON.c ****         }
2579:/home/xingli/share/1205tiny/cJSON/cJSON.c ****     }
2580:/home/xingli/share/1205tiny/cJSON/cJSON.c ****     if (item->string)
 9211              		.loc 1 2580 13
 9212 00d8 488B45C8 		movq	-56(%rbp), %rax
 9213 00dc 488B4038 		movq	56(%rax), %rax
 9214              		.loc 1 2580 8
 9215 00e0 4885C0   		testq	%rax, %rax
 9216 00e3 744A     		je	.L717
2581:/home/xingli/share/1205tiny/cJSON/cJSON.c ****     {
2582:/home/xingli/share/1205tiny/cJSON/cJSON.c ****         newitem->string = (item->type&cJSON_StringIsConst) ? item->string : (char*)cJSON_strdup((un
 9217              		.loc 1 2582 32
 9218 00e5 488B45C8 		movq	-56(%rbp), %rax
 9219 00e9 8B4018   		movl	24(%rax), %eax
 9220              		.loc 1 2582 38
 9221 00ec 25000200 		andl	$512, %eax
 9221      00
 9222              		.loc 1 2582 75
 9223 00f1 85C0     		testl	%eax, %eax
 9224 00f3 740A     		je	.L718
 9225              		.loc 1 2582 75 is_stmt 0 discriminator 1
 9226 00f5 488B45C8 		movq	-56(%rbp), %rax
 9227 00f9 488B4038 		movq	56(%rax), %rax
 9228 00fd EB17     		jmp	.L719
 9229              	.L718:
 9230              		.loc 1 2582 117 is_stmt 1 discriminator 2
 9231 00ff 488B45C8 		movq	-56(%rbp), %rax
 9232 0103 488B4038 		movq	56(%rax), %rax
 9233              		.loc 1 2582 84 discriminator 2
 9234 0107 488D3500 		leaq	global_hooks(%rip), %rsi
 9234      000000
 9235 010e 4889C7   		movq	%rax, %rdi
 9236 0111 E8000000 		call	cJSON_strdup
 9236      00
 9237              	.L719:
 9238              		.loc 1 2582 25 discriminator 4
 9239 0116 488B55D8 		movq	-40(%rbp), %rdx
 9240 011a 48894238 		movq	%rax, 56(%rdx)
2583:/home/xingli/share/1205tiny/cJSON/cJSON.c ****         if (!newitem->string)
 9241              		.loc 1 2583 21 discriminator 4
 9242 011e 488B45D8 		movq	-40(%rbp), %rax
 9243 0122 488B4038 		movq	56(%rax), %rax
GAS LISTING /tmp/ccabgRKQ.s 			page 233


 9244              		.loc 1 2583 12 discriminator 4
 9245 0126 4885C0   		testq	%rax, %rax
 9246 0129 0F849600 		je	.L732
 9246      0000
 9247              	.L717:
2584:/home/xingli/share/1205tiny/cJSON/cJSON.c ****         {
2585:/home/xingli/share/1205tiny/cJSON/cJSON.c ****             goto fail;
2586:/home/xingli/share/1205tiny/cJSON/cJSON.c ****         }
2587:/home/xingli/share/1205tiny/cJSON/cJSON.c ****     }
2588:/home/xingli/share/1205tiny/cJSON/cJSON.c ****     /* If non-recursive, then we're done! */
2589:/home/xingli/share/1205tiny/cJSON/cJSON.c ****     if (!recurse)
 9248              		.loc 1 2589 8
 9249 012f 837DC400 		cmpl	$0, -60(%rbp)
 9250 0133 7509     		jne	.L720
2590:/home/xingli/share/1205tiny/cJSON/cJSON.c ****     {
2591:/home/xingli/share/1205tiny/cJSON/cJSON.c ****         return newitem;
 9251              		.loc 1 2591 16
 9252 0135 488B45D8 		movq	-40(%rbp), %rax
 9253 0139 E9A30000 		jmp	.L721
 9253      00
 9254              	.L720:
2592:/home/xingli/share/1205tiny/cJSON/cJSON.c ****     }
2593:/home/xingli/share/1205tiny/cJSON/cJSON.c ****     /* Walk the ->next chain for the child. */
2594:/home/xingli/share/1205tiny/cJSON/cJSON.c ****     child = item->child;
 9255              		.loc 1 2594 11
 9256 013e 488B45C8 		movq	-56(%rbp), %rax
 9257 0142 488B4010 		movq	16(%rax), %rax
 9258 0146 488945E0 		movq	%rax, -32(%rbp)
2595:/home/xingli/share/1205tiny/cJSON/cJSON.c ****     while (child != NULL)
 9259              		.loc 1 2595 11
 9260 014a EB63     		jmp	.L722
 9261              	.L726:
2596:/home/xingli/share/1205tiny/cJSON/cJSON.c ****     {
2597:/home/xingli/share/1205tiny/cJSON/cJSON.c ****         newchild = cJSON_Duplicate(child, true); /* Duplicate (with recurse) each item in the ->nex
 9262              		.loc 1 2597 20
 9263 014c 488B45E0 		movq	-32(%rbp), %rax
 9264 0150 BE010000 		movl	$1, %esi
 9264      00
 9265 0155 4889C7   		movq	%rax, %rdi
 9266 0158 E8000000 		call	cJSON_Duplicate
 9266      00
 9267 015d 488945F0 		movq	%rax, -16(%rbp)
2598:/home/xingli/share/1205tiny/cJSON/cJSON.c ****         if (!newchild)
 9268              		.loc 1 2598 12
 9269 0161 48837DF0 		cmpq	$0, -16(%rbp)
 9269      00
 9270 0166 7460     		je	.L733
2599:/home/xingli/share/1205tiny/cJSON/cJSON.c ****         {
2600:/home/xingli/share/1205tiny/cJSON/cJSON.c ****             goto fail;
2601:/home/xingli/share/1205tiny/cJSON/cJSON.c ****         }
2602:/home/xingli/share/1205tiny/cJSON/cJSON.c ****         if (next != NULL)
 9271              		.loc 1 2602 12
 9272 0168 48837DE8 		cmpq	$0, -24(%rbp)
 9272      00
 9273 016d 7421     		je	.L724
2603:/home/xingli/share/1205tiny/cJSON/cJSON.c ****         {
2604:/home/xingli/share/1205tiny/cJSON/cJSON.c ****             /* If newitem->child already set, then crosswire ->prev and ->next and move on */
GAS LISTING /tmp/ccabgRKQ.s 			page 234


2605:/home/xingli/share/1205tiny/cJSON/cJSON.c ****             next->next = newchild;
 9274              		.loc 1 2605 24
 9275 016f 488B45E8 		movq	-24(%rbp), %rax
 9276 0173 488B55F0 		movq	-16(%rbp), %rdx
 9277 0177 488910   		movq	%rdx, (%rax)
2606:/home/xingli/share/1205tiny/cJSON/cJSON.c ****             newchild->prev = next;
 9278              		.loc 1 2606 28
 9279 017a 488B45F0 		movq	-16(%rbp), %rax
 9280 017e 488B55E8 		movq	-24(%rbp), %rdx
 9281 0182 48895008 		movq	%rdx, 8(%rax)
2607:/home/xingli/share/1205tiny/cJSON/cJSON.c ****             next = newchild;
 9282              		.loc 1 2607 18
 9283 0186 488B45F0 		movq	-16(%rbp), %rax
 9284 018a 488945E8 		movq	%rax, -24(%rbp)
 9285 018e EB14     		jmp	.L725
 9286              	.L724:
2608:/home/xingli/share/1205tiny/cJSON/cJSON.c ****         }
2609:/home/xingli/share/1205tiny/cJSON/cJSON.c ****         else
2610:/home/xingli/share/1205tiny/cJSON/cJSON.c ****         {
2611:/home/xingli/share/1205tiny/cJSON/cJSON.c ****             /* Set newitem->child and move to it */
2612:/home/xingli/share/1205tiny/cJSON/cJSON.c ****             newitem->child = newchild;
 9287              		.loc 1 2612 28
 9288 0190 488B45D8 		movq	-40(%rbp), %rax
 9289 0194 488B55F0 		movq	-16(%rbp), %rdx
 9290 0198 48895010 		movq	%rdx, 16(%rax)
2613:/home/xingli/share/1205tiny/cJSON/cJSON.c ****             next = newchild;
 9291              		.loc 1 2613 18
 9292 019c 488B45F0 		movq	-16(%rbp), %rax
 9293 01a0 488945E8 		movq	%rax, -24(%rbp)
 9294              	.L725:
2614:/home/xingli/share/1205tiny/cJSON/cJSON.c ****         }
2615:/home/xingli/share/1205tiny/cJSON/cJSON.c ****         child = child->next;
 9295              		.loc 1 2615 15
 9296 01a4 488B45E0 		movq	-32(%rbp), %rax
 9297 01a8 488B00   		movq	(%rax), %rax
 9298 01ab 488945E0 		movq	%rax, -32(%rbp)
 9299              	.L722:
2595:/home/xingli/share/1205tiny/cJSON/cJSON.c ****     {
 9300              		.loc 1 2595 11
 9301 01af 48837DE0 		cmpq	$0, -32(%rbp)
 9301      00
 9302 01b4 7596     		jne	.L726
2616:/home/xingli/share/1205tiny/cJSON/cJSON.c ****     }
2617:/home/xingli/share/1205tiny/cJSON/cJSON.c **** 
2618:/home/xingli/share/1205tiny/cJSON/cJSON.c ****     return newitem;
 9303              		.loc 1 2618 12
 9304 01b6 488B45D8 		movq	-40(%rbp), %rax
 9305 01ba EB25     		jmp	.L721
 9306              	.L729:
2560:/home/xingli/share/1205tiny/cJSON/cJSON.c ****     }
 9307              		.loc 1 2560 9
 9308 01bc 90       		nop
 9309 01bd EB0A     		jmp	.L714
 9310              	.L730:
2566:/home/xingli/share/1205tiny/cJSON/cJSON.c ****     }
 9311              		.loc 1 2566 9
 9312 01bf 90       		nop
GAS LISTING /tmp/ccabgRKQ.s 			page 235


 9313 01c0 EB07     		jmp	.L714
 9314              	.L731:
2577:/home/xingli/share/1205tiny/cJSON/cJSON.c ****         }
 9315              		.loc 1 2577 13
 9316 01c2 90       		nop
 9317 01c3 EB04     		jmp	.L714
 9318              	.L732:
2585:/home/xingli/share/1205tiny/cJSON/cJSON.c ****         }
 9319              		.loc 1 2585 13
 9320 01c5 90       		nop
 9321 01c6 EB01     		jmp	.L714
 9322              	.L733:
2600:/home/xingli/share/1205tiny/cJSON/cJSON.c ****         }
 9323              		.loc 1 2600 13
 9324 01c8 90       		nop
 9325              	.L714:
2619:/home/xingli/share/1205tiny/cJSON/cJSON.c **** 
2620:/home/xingli/share/1205tiny/cJSON/cJSON.c **** fail:
2621:/home/xingli/share/1205tiny/cJSON/cJSON.c ****     if (newitem != NULL)
 9326              		.loc 1 2621 8
 9327 01c9 48837DD8 		cmpq	$0, -40(%rbp)
 9327      00
 9328 01ce 740C     		je	.L727
2622:/home/xingli/share/1205tiny/cJSON/cJSON.c ****     {
2623:/home/xingli/share/1205tiny/cJSON/cJSON.c ****         cJSON_Delete(newitem);
 9329              		.loc 1 2623 9
 9330 01d0 488B45D8 		movq	-40(%rbp), %rax
 9331 01d4 4889C7   		movq	%rax, %rdi
 9332 01d7 E8000000 		call	cJSON_Delete
 9332      00
 9333              	.L727:
2624:/home/xingli/share/1205tiny/cJSON/cJSON.c ****     }
2625:/home/xingli/share/1205tiny/cJSON/cJSON.c **** 
2626:/home/xingli/share/1205tiny/cJSON/cJSON.c ****     return NULL;
 9334              		.loc 1 2626 12
 9335 01dc B8000000 		movl	$0, %eax
 9335      00
 9336              	.L721:
2627:/home/xingli/share/1205tiny/cJSON/cJSON.c **** }
 9337              		.loc 1 2627 1
 9338 01e1 488B4DF8 		movq	-8(%rbp), %rcx
 9339 01e5 6448330C 		xorq	%fs:40, %rcx
 9339      25280000 
 9339      00
 9340 01ee 7405     		je	.L728
 9341 01f0 E8000000 		call	__stack_chk_fail@PLT
 9341      00
 9342              	.L728:
 9343 01f5 C9       		leave
 9344              	.LCFI269:
 9345              		.cfi_def_cfa 7, 8
 9346 01f6 C3       		ret
 9347              		.cfi_endproc
 9348              	.LFE95:
 9350              		.section	.text.cJSON_Minify,"ax",@progbits
 9351              		.globl	cJSON_Minify
 9353              	cJSON_Minify:
GAS LISTING /tmp/ccabgRKQ.s 			page 236


 9354              	.LFB96:
2628:/home/xingli/share/1205tiny/cJSON/cJSON.c **** 
2629:/home/xingli/share/1205tiny/cJSON/cJSON.c **** CJSON_PUBLIC(void) cJSON_Minify(char *json)
2630:/home/xingli/share/1205tiny/cJSON/cJSON.c **** {
 9355              		.loc 1 2630 1
 9356              		.cfi_startproc
 9357 0000 F30F1EFA 		endbr64
 9358 0004 55       		pushq	%rbp
 9359              	.LCFI270:
 9360              		.cfi_def_cfa_offset 16
 9361              		.cfi_offset 6, -16
 9362 0005 4889E5   		movq	%rsp, %rbp
 9363              	.LCFI271:
 9364              		.cfi_def_cfa_register 6
 9365 0008 4883EC20 		subq	$32, %rsp
 9366 000c 48897DE8 		movq	%rdi, -24(%rbp)
 9367              		.loc 1 2630 1
 9368 0010 64488B04 		movq	%fs:40, %rax
 9368      25280000 
 9368      00
 9369 0019 488945F8 		movq	%rax, -8(%rbp)
 9370 001d 31C0     		xorl	%eax, %eax
2631:/home/xingli/share/1205tiny/cJSON/cJSON.c ****     unsigned char *into = (unsigned char*)json;
 9371              		.loc 1 2631 20
 9372 001f 488B45E8 		movq	-24(%rbp), %rax
 9373 0023 488945F0 		movq	%rax, -16(%rbp)
2632:/home/xingli/share/1205tiny/cJSON/cJSON.c **** 
2633:/home/xingli/share/1205tiny/cJSON/cJSON.c ****     if (json == NULL)
 9374              		.loc 1 2633 8
 9375 0027 48837DE8 		cmpq	$0, -24(%rbp)
 9375      00
 9376 002c 0F84D001 		je	.L757
 9376      0000
2634:/home/xingli/share/1205tiny/cJSON/cJSON.c ****     {
2635:/home/xingli/share/1205tiny/cJSON/cJSON.c ****         return;
2636:/home/xingli/share/1205tiny/cJSON/cJSON.c ****     }
2637:/home/xingli/share/1205tiny/cJSON/cJSON.c **** 
2638:/home/xingli/share/1205tiny/cJSON/cJSON.c ****     while (*json)
 9377              		.loc 1 2638 11
 9378 0032 E9B30100 		jmp	.L737
 9378      00
 9379              	.L755:
2639:/home/xingli/share/1205tiny/cJSON/cJSON.c ****     {
2640:/home/xingli/share/1205tiny/cJSON/cJSON.c ****         if (*json == ' ')
 9380              		.loc 1 2640 13
 9381 0037 488B45E8 		movq	-24(%rbp), %rax
 9382 003b 0FB600   		movzbl	(%rax), %eax
 9383              		.loc 1 2640 12
 9384 003e 3C20     		cmpb	$32, %al
 9385 0040 750A     		jne	.L738
2641:/home/xingli/share/1205tiny/cJSON/cJSON.c ****         {
2642:/home/xingli/share/1205tiny/cJSON/cJSON.c ****             json++;
 9386              		.loc 1 2642 17
 9387 0042 488345E8 		addq	$1, -24(%rbp)
 9387      01
 9388 0047 E99E0100 		jmp	.L737
 9388      00
GAS LISTING /tmp/ccabgRKQ.s 			page 237


 9389              	.L738:
2643:/home/xingli/share/1205tiny/cJSON/cJSON.c ****         }
2644:/home/xingli/share/1205tiny/cJSON/cJSON.c ****         else if (*json == '\t')
 9390              		.loc 1 2644 18
 9391 004c 488B45E8 		movq	-24(%rbp), %rax
 9392 0050 0FB600   		movzbl	(%rax), %eax
 9393              		.loc 1 2644 17
 9394 0053 3C09     		cmpb	$9, %al
 9395 0055 750A     		jne	.L739
2645:/home/xingli/share/1205tiny/cJSON/cJSON.c ****         {
2646:/home/xingli/share/1205tiny/cJSON/cJSON.c ****             /* Whitespace characters. */
2647:/home/xingli/share/1205tiny/cJSON/cJSON.c ****             json++;
 9396              		.loc 1 2647 17
 9397 0057 488345E8 		addq	$1, -24(%rbp)
 9397      01
 9398 005c E9890100 		jmp	.L737
 9398      00
 9399              	.L739:
2648:/home/xingli/share/1205tiny/cJSON/cJSON.c ****         }
2649:/home/xingli/share/1205tiny/cJSON/cJSON.c ****         else if (*json == '\r')
 9400              		.loc 1 2649 18
 9401 0061 488B45E8 		movq	-24(%rbp), %rax
 9402 0065 0FB600   		movzbl	(%rax), %eax
 9403              		.loc 1 2649 17
 9404 0068 3C0D     		cmpb	$13, %al
 9405 006a 750A     		jne	.L740
2650:/home/xingli/share/1205tiny/cJSON/cJSON.c ****         {
2651:/home/xingli/share/1205tiny/cJSON/cJSON.c ****             json++;
 9406              		.loc 1 2651 17
 9407 006c 488345E8 		addq	$1, -24(%rbp)
 9407      01
 9408 0071 E9740100 		jmp	.L737
 9408      00
 9409              	.L740:
2652:/home/xingli/share/1205tiny/cJSON/cJSON.c ****         }
2653:/home/xingli/share/1205tiny/cJSON/cJSON.c ****         else if (*json=='\n')
 9410              		.loc 1 2653 18
 9411 0076 488B45E8 		movq	-24(%rbp), %rax
 9412 007a 0FB600   		movzbl	(%rax), %eax
 9413              		.loc 1 2653 17
 9414 007d 3C0A     		cmpb	$10, %al
 9415 007f 750A     		jne	.L741
2654:/home/xingli/share/1205tiny/cJSON/cJSON.c ****         {
2655:/home/xingli/share/1205tiny/cJSON/cJSON.c ****             json++;
 9416              		.loc 1 2655 17
 9417 0081 488345E8 		addq	$1, -24(%rbp)
 9417      01
 9418 0086 E95F0100 		jmp	.L737
 9418      00
 9419              	.L741:
2656:/home/xingli/share/1205tiny/cJSON/cJSON.c ****         }
2657:/home/xingli/share/1205tiny/cJSON/cJSON.c ****         else if ((*json == '/') && (json[1] == '/'))
 9420              		.loc 1 2657 19
 9421 008b 488B45E8 		movq	-24(%rbp), %rax
 9422 008f 0FB600   		movzbl	(%rax), %eax
 9423              		.loc 1 2657 17
 9424 0092 3C2F     		cmpb	$47, %al
GAS LISTING /tmp/ccabgRKQ.s 			page 238


 9425 0094 7535     		jne	.L742
 9426              		.loc 1 2657 41 discriminator 1
 9427 0096 488B45E8 		movq	-24(%rbp), %rax
 9428 009a 4883C001 		addq	$1, %rax
 9429 009e 0FB600   		movzbl	(%rax), %eax
 9430              		.loc 1 2657 33 discriminator 1
 9431 00a1 3C2F     		cmpb	$47, %al
 9432 00a3 7526     		jne	.L742
2658:/home/xingli/share/1205tiny/cJSON/cJSON.c ****         {
2659:/home/xingli/share/1205tiny/cJSON/cJSON.c ****             /* double-slash comments, to end of line. */
2660:/home/xingli/share/1205tiny/cJSON/cJSON.c ****             while (*json && (*json != '\n'))
 9433              		.loc 1 2660 19
 9434 00a5 EB05     		jmp	.L743
 9435              	.L745:
2661:/home/xingli/share/1205tiny/cJSON/cJSON.c ****             {
2662:/home/xingli/share/1205tiny/cJSON/cJSON.c ****                 json++;
 9436              		.loc 1 2662 21
 9437 00a7 488345E8 		addq	$1, -24(%rbp)
 9437      01
 9438              	.L743:
2660:/home/xingli/share/1205tiny/cJSON/cJSON.c ****             {
 9439              		.loc 1 2660 20
 9440 00ac 488B45E8 		movq	-24(%rbp), %rax
 9441 00b0 0FB600   		movzbl	(%rax), %eax
2660:/home/xingli/share/1205tiny/cJSON/cJSON.c ****             {
 9442              		.loc 1 2660 19
 9443 00b3 84C0     		testb	%al, %al
 9444 00b5 0F842F01 		je	.L737
 9444      0000
2660:/home/xingli/share/1205tiny/cJSON/cJSON.c ****             {
 9445              		.loc 1 2660 30 discriminator 1
 9446 00bb 488B45E8 		movq	-24(%rbp), %rax
 9447 00bf 0FB600   		movzbl	(%rax), %eax
2660:/home/xingli/share/1205tiny/cJSON/cJSON.c ****             {
 9448              		.loc 1 2660 26 discriminator 1
 9449 00c2 3C0A     		cmpb	$10, %al
 9450 00c4 75E1     		jne	.L745
2657:/home/xingli/share/1205tiny/cJSON/cJSON.c ****         {
 9451              		.loc 1 2657 17
 9452 00c6 E91F0100 		jmp	.L737
 9452      00
 9453              	.L742:
2663:/home/xingli/share/1205tiny/cJSON/cJSON.c ****             }
2664:/home/xingli/share/1205tiny/cJSON/cJSON.c ****         }
2665:/home/xingli/share/1205tiny/cJSON/cJSON.c ****         else if ((*json == '/') && (json[1] == '*'))
 9454              		.loc 1 2665 19
 9455 00cb 488B45E8 		movq	-24(%rbp), %rax
 9456 00cf 0FB600   		movzbl	(%rax), %eax
 9457              		.loc 1 2665 17
 9458 00d2 3C2F     		cmpb	$47, %al
 9459 00d4 7545     		jne	.L746
 9460              		.loc 1 2665 41 discriminator 1
 9461 00d6 488B45E8 		movq	-24(%rbp), %rax
 9462 00da 4883C001 		addq	$1, %rax
 9463 00de 0FB600   		movzbl	(%rax), %eax
 9464              		.loc 1 2665 33 discriminator 1
 9465 00e1 3C2A     		cmpb	$42, %al
GAS LISTING /tmp/ccabgRKQ.s 			page 239


 9466 00e3 7536     		jne	.L746
2666:/home/xingli/share/1205tiny/cJSON/cJSON.c ****         {
2667:/home/xingli/share/1205tiny/cJSON/cJSON.c ****             /* multiline comments. */
2668:/home/xingli/share/1205tiny/cJSON/cJSON.c ****             while (*json && !((*json == '*') && (json[1] == '/')))
 9467              		.loc 1 2668 19
 9468 00e5 EB05     		jmp	.L747
 9469              	.L749:
2669:/home/xingli/share/1205tiny/cJSON/cJSON.c ****             {
2670:/home/xingli/share/1205tiny/cJSON/cJSON.c ****                 json++;
 9470              		.loc 1 2670 21
 9471 00e7 488345E8 		addq	$1, -24(%rbp)
 9471      01
 9472              	.L747:
2668:/home/xingli/share/1205tiny/cJSON/cJSON.c ****             {
 9473              		.loc 1 2668 20
 9474 00ec 488B45E8 		movq	-24(%rbp), %rax
 9475 00f0 0FB600   		movzbl	(%rax), %eax
2668:/home/xingli/share/1205tiny/cJSON/cJSON.c ****             {
 9476              		.loc 1 2668 19
 9477 00f3 84C0     		testb	%al, %al
 9478 00f5 741A     		je	.L748
2668:/home/xingli/share/1205tiny/cJSON/cJSON.c ****             {
 9479              		.loc 1 2668 32 discriminator 1
 9480 00f7 488B45E8 		movq	-24(%rbp), %rax
 9481 00fb 0FB600   		movzbl	(%rax), %eax
2668:/home/xingli/share/1205tiny/cJSON/cJSON.c ****             {
 9482              		.loc 1 2668 26 discriminator 1
 9483 00fe 3C2A     		cmpb	$42, %al
 9484 0100 75E5     		jne	.L749
2668:/home/xingli/share/1205tiny/cJSON/cJSON.c ****             {
 9485              		.loc 1 2668 54 discriminator 2
 9486 0102 488B45E8 		movq	-24(%rbp), %rax
 9487 0106 4883C001 		addq	$1, %rax
 9488 010a 0FB600   		movzbl	(%rax), %eax
2668:/home/xingli/share/1205tiny/cJSON/cJSON.c ****             {
 9489              		.loc 1 2668 29 discriminator 2
 9490 010d 3C2F     		cmpb	$47, %al
 9491 010f 75D6     		jne	.L749
 9492              	.L748:
2671:/home/xingli/share/1205tiny/cJSON/cJSON.c ****             }
2672:/home/xingli/share/1205tiny/cJSON/cJSON.c ****             json += 2;
 9493              		.loc 1 2672 18
 9494 0111 488345E8 		addq	$2, -24(%rbp)
 9494      02
 9495 0116 E9CF0000 		jmp	.L737
 9495      00
 9496              	.L746:
2673:/home/xingli/share/1205tiny/cJSON/cJSON.c ****         }
2674:/home/xingli/share/1205tiny/cJSON/cJSON.c ****         else if (*json == '\"')
 9497              		.loc 1 2674 18
 9498 011b 488B45E8 		movq	-24(%rbp), %rax
 9499 011f 0FB600   		movzbl	(%rax), %eax
 9500              		.loc 1 2674 17
 9501 0122 3C22     		cmpb	$34, %al
 9502 0124 0F85A100 		jne	.L750
 9502      0000
2675:/home/xingli/share/1205tiny/cJSON/cJSON.c ****         {
GAS LISTING /tmp/ccabgRKQ.s 			page 240


2676:/home/xingli/share/1205tiny/cJSON/cJSON.c ****             /* string literals, which are \" sensitive. */
2677:/home/xingli/share/1205tiny/cJSON/cJSON.c ****             *into++ = (unsigned char)*json++;
 9503              		.loc 1 2677 43
 9504 012a 488B45E8 		movq	-24(%rbp), %rax
 9505 012e 488D5001 		leaq	1(%rax), %rdx
 9506 0132 488955E8 		movq	%rdx, -24(%rbp)
 9507              		.loc 1 2677 38
 9508 0136 0FB608   		movzbl	(%rax), %ecx
 9509              		.loc 1 2677 18
 9510 0139 488B45F0 		movq	-16(%rbp), %rax
 9511 013d 488D5001 		leaq	1(%rax), %rdx
 9512 0141 488955F0 		movq	%rdx, -16(%rbp)
 9513              		.loc 1 2677 23
 9514 0145 89CA     		movl	%ecx, %edx
 9515              		.loc 1 2677 21
 9516 0147 8810     		movb	%dl, (%rax)
2678:/home/xingli/share/1205tiny/cJSON/cJSON.c ****             while (*json && (*json != '\"'))
 9517              		.loc 1 2678 19
 9518 0149 EB49     		jmp	.L751
 9519              	.L754:
2679:/home/xingli/share/1205tiny/cJSON/cJSON.c ****             {
2680:/home/xingli/share/1205tiny/cJSON/cJSON.c ****                 if (*json == '\\')
 9520              		.loc 1 2680 21
 9521 014b 488B45E8 		movq	-24(%rbp), %rax
 9522 014f 0FB600   		movzbl	(%rax), %eax
 9523              		.loc 1 2680 20
 9524 0152 3C5C     		cmpb	$92, %al
 9525 0154 751F     		jne	.L752
2681:/home/xingli/share/1205tiny/cJSON/cJSON.c ****                 {
2682:/home/xingli/share/1205tiny/cJSON/cJSON.c ****                     *into++ = (unsigned char)*json++;
 9526              		.loc 1 2682 51
 9527 0156 488B45E8 		movq	-24(%rbp), %rax
 9528 015a 488D5001 		leaq	1(%rax), %rdx
 9529 015e 488955E8 		movq	%rdx, -24(%rbp)
 9530              		.loc 1 2682 46
 9531 0162 0FB608   		movzbl	(%rax), %ecx
 9532              		.loc 1 2682 26
 9533 0165 488B45F0 		movq	-16(%rbp), %rax
 9534 0169 488D5001 		leaq	1(%rax), %rdx
 9535 016d 488955F0 		movq	%rdx, -16(%rbp)
 9536              		.loc 1 2682 31
 9537 0171 89CA     		movl	%ecx, %edx
 9538              		.loc 1 2682 29
 9539 0173 8810     		movb	%dl, (%rax)
 9540              	.L752:
2683:/home/xingli/share/1205tiny/cJSON/cJSON.c ****                 }
2684:/home/xingli/share/1205tiny/cJSON/cJSON.c ****                 *into++ = (unsigned char)*json++;
 9541              		.loc 1 2684 47
 9542 0175 488B45E8 		movq	-24(%rbp), %rax
 9543 0179 488D5001 		leaq	1(%rax), %rdx
 9544 017d 488955E8 		movq	%rdx, -24(%rbp)
 9545              		.loc 1 2684 42
 9546 0181 0FB608   		movzbl	(%rax), %ecx
 9547              		.loc 1 2684 22
 9548 0184 488B45F0 		movq	-16(%rbp), %rax
 9549 0188 488D5001 		leaq	1(%rax), %rdx
 9550 018c 488955F0 		movq	%rdx, -16(%rbp)
GAS LISTING /tmp/ccabgRKQ.s 			page 241


 9551              		.loc 1 2684 27
 9552 0190 89CA     		movl	%ecx, %edx
 9553              		.loc 1 2684 25
 9554 0192 8810     		movb	%dl, (%rax)
 9555              	.L751:
2678:/home/xingli/share/1205tiny/cJSON/cJSON.c ****             {
 9556              		.loc 1 2678 20
 9557 0194 488B45E8 		movq	-24(%rbp), %rax
 9558 0198 0FB600   		movzbl	(%rax), %eax
2678:/home/xingli/share/1205tiny/cJSON/cJSON.c ****             {
 9559              		.loc 1 2678 19
 9560 019b 84C0     		testb	%al, %al
 9561 019d 740B     		je	.L753
2678:/home/xingli/share/1205tiny/cJSON/cJSON.c ****             {
 9562              		.loc 1 2678 30 discriminator 1
 9563 019f 488B45E8 		movq	-24(%rbp), %rax
 9564 01a3 0FB600   		movzbl	(%rax), %eax
2678:/home/xingli/share/1205tiny/cJSON/cJSON.c ****             {
 9565              		.loc 1 2678 26 discriminator 1
 9566 01a6 3C22     		cmpb	$34, %al
 9567 01a8 75A1     		jne	.L754
 9568              	.L753:
2685:/home/xingli/share/1205tiny/cJSON/cJSON.c ****             }
2686:/home/xingli/share/1205tiny/cJSON/cJSON.c ****             *into++ = (unsigned char)*json++;
 9569              		.loc 1 2686 43
 9570 01aa 488B45E8 		movq	-24(%rbp), %rax
 9571 01ae 488D5001 		leaq	1(%rax), %rdx
 9572 01b2 488955E8 		movq	%rdx, -24(%rbp)
 9573              		.loc 1 2686 38
 9574 01b6 0FB608   		movzbl	(%rax), %ecx
 9575              		.loc 1 2686 18
 9576 01b9 488B45F0 		movq	-16(%rbp), %rax
 9577 01bd 488D5001 		leaq	1(%rax), %rdx
 9578 01c1 488955F0 		movq	%rdx, -16(%rbp)
 9579              		.loc 1 2686 23
 9580 01c5 89CA     		movl	%ecx, %edx
 9581              		.loc 1 2686 21
 9582 01c7 8810     		movb	%dl, (%rax)
 9583 01c9 EB1F     		jmp	.L737
 9584              	.L750:
2687:/home/xingli/share/1205tiny/cJSON/cJSON.c ****         }
2688:/home/xingli/share/1205tiny/cJSON/cJSON.c ****         else
2689:/home/xingli/share/1205tiny/cJSON/cJSON.c ****         {
2690:/home/xingli/share/1205tiny/cJSON/cJSON.c ****             /* All other characters. */
2691:/home/xingli/share/1205tiny/cJSON/cJSON.c ****             *into++ = (unsigned char)*json++;
 9585              		.loc 1 2691 43
 9586 01cb 488B45E8 		movq	-24(%rbp), %rax
 9587 01cf 488D5001 		leaq	1(%rax), %rdx
 9588 01d3 488955E8 		movq	%rdx, -24(%rbp)
 9589              		.loc 1 2691 38
 9590 01d7 0FB608   		movzbl	(%rax), %ecx
 9591              		.loc 1 2691 18
 9592 01da 488B45F0 		movq	-16(%rbp), %rax
 9593 01de 488D5001 		leaq	1(%rax), %rdx
 9594 01e2 488955F0 		movq	%rdx, -16(%rbp)
 9595              		.loc 1 2691 23
 9596 01e6 89CA     		movl	%ecx, %edx
GAS LISTING /tmp/ccabgRKQ.s 			page 242


 9597              		.loc 1 2691 21
 9598 01e8 8810     		movb	%dl, (%rax)
 9599              	.L737:
2638:/home/xingli/share/1205tiny/cJSON/cJSON.c ****     {
 9600              		.loc 1 2638 12
 9601 01ea 488B45E8 		movq	-24(%rbp), %rax
 9602 01ee 0FB600   		movzbl	(%rax), %eax
2638:/home/xingli/share/1205tiny/cJSON/cJSON.c ****     {
 9603              		.loc 1 2638 11
 9604 01f1 84C0     		testb	%al, %al
 9605 01f3 0F853EFE 		jne	.L755
 9605      FFFF
2692:/home/xingli/share/1205tiny/cJSON/cJSON.c ****         }
2693:/home/xingli/share/1205tiny/cJSON/cJSON.c ****     }
2694:/home/xingli/share/1205tiny/cJSON/cJSON.c **** 
2695:/home/xingli/share/1205tiny/cJSON/cJSON.c ****     /* and null-terminate. */
2696:/home/xingli/share/1205tiny/cJSON/cJSON.c ****     *into = '\0';
 9606              		.loc 1 2696 11
 9607 01f9 488B45F0 		movq	-16(%rbp), %rax
 9608 01fd C60000   		movb	$0, (%rax)
 9609 0200 EB01     		jmp	.L734
 9610              	.L757:
2635:/home/xingli/share/1205tiny/cJSON/cJSON.c ****     }
 9611              		.loc 1 2635 9
 9612 0202 90       		nop
 9613              	.L734:
2697:/home/xingli/share/1205tiny/cJSON/cJSON.c **** }
 9614              		.loc 1 2697 1
 9615 0203 488B45F8 		movq	-8(%rbp), %rax
 9616 0207 64483304 		xorq	%fs:40, %rax
 9616      25280000 
 9616      00
 9617 0210 7405     		je	.L756
 9618 0212 E8000000 		call	__stack_chk_fail@PLT
 9618      00
 9619              	.L756:
 9620 0217 C9       		leave
 9621              	.LCFI272:
 9622              		.cfi_def_cfa 7, 8
 9623 0218 C3       		ret
 9624              		.cfi_endproc
 9625              	.LFE96:
 9627              		.section	.text.cJSON_IsInvalid,"ax",@progbits
 9628              		.globl	cJSON_IsInvalid
 9630              	cJSON_IsInvalid:
 9631              	.LFB97:
2698:/home/xingli/share/1205tiny/cJSON/cJSON.c **** 
2699:/home/xingli/share/1205tiny/cJSON/cJSON.c **** CJSON_PUBLIC(cJSON_bool) cJSON_IsInvalid(const cJSON * const item)
2700:/home/xingli/share/1205tiny/cJSON/cJSON.c **** {
 9632              		.loc 1 2700 1
 9633              		.cfi_startproc
 9634 0000 F30F1EFA 		endbr64
 9635 0004 55       		pushq	%rbp
 9636              	.LCFI273:
 9637              		.cfi_def_cfa_offset 16
 9638              		.cfi_offset 6, -16
 9639 0005 4889E5   		movq	%rsp, %rbp
GAS LISTING /tmp/ccabgRKQ.s 			page 243


 9640              	.LCFI274:
 9641              		.cfi_def_cfa_register 6
 9642 0008 4883EC20 		subq	$32, %rsp
 9643 000c 48897DE8 		movq	%rdi, -24(%rbp)
 9644              		.loc 1 2700 1
 9645 0010 64488B04 		movq	%fs:40, %rax
 9645      25280000 
 9645      00
 9646 0019 488945F8 		movq	%rax, -8(%rbp)
 9647 001d 31C0     		xorl	%eax, %eax
2701:/home/xingli/share/1205tiny/cJSON/cJSON.c ****     if (item == NULL)
 9648              		.loc 1 2701 8
 9649 001f 48837DE8 		cmpq	$0, -24(%rbp)
 9649      00
 9650 0024 7507     		jne	.L759
2702:/home/xingli/share/1205tiny/cJSON/cJSON.c ****     {
2703:/home/xingli/share/1205tiny/cJSON/cJSON.c ****         return false;
 9651              		.loc 1 2703 16
 9652 0026 B8000000 		movl	$0, %eax
 9652      00
 9653 002b EB12     		jmp	.L760
 9654              	.L759:
2704:/home/xingli/share/1205tiny/cJSON/cJSON.c ****     }
2705:/home/xingli/share/1205tiny/cJSON/cJSON.c **** 
2706:/home/xingli/share/1205tiny/cJSON/cJSON.c ****     return (item->type & 0xFF) == cJSON_Invalid;
 9655              		.loc 1 2706 17
 9656 002d 488B45E8 		movq	-24(%rbp), %rax
 9657 0031 8B4018   		movl	24(%rax), %eax
 9658              		.loc 1 2706 24
 9659 0034 0FB6C0   		movzbl	%al, %eax
 9660              		.loc 1 2706 32
 9661 0037 85C0     		testl	%eax, %eax
 9662 0039 0F94C0   		sete	%al
 9663 003c 0FB6C0   		movzbl	%al, %eax
 9664              	.L760:
2707:/home/xingli/share/1205tiny/cJSON/cJSON.c **** }
 9665              		.loc 1 2707 1
 9666 003f 488B55F8 		movq	-8(%rbp), %rdx
 9667 0043 64483314 		xorq	%fs:40, %rdx
 9667      25280000 
 9667      00
 9668 004c 7405     		je	.L761
 9669 004e E8000000 		call	__stack_chk_fail@PLT
 9669      00
 9670              	.L761:
 9671 0053 C9       		leave
 9672              	.LCFI275:
 9673              		.cfi_def_cfa 7, 8
 9674 0054 C3       		ret
 9675              		.cfi_endproc
 9676              	.LFE97:
 9678              		.section	.text.cJSON_IsFalse,"ax",@progbits
 9679              		.globl	cJSON_IsFalse
 9681              	cJSON_IsFalse:
 9682              	.LFB98:
2708:/home/xingli/share/1205tiny/cJSON/cJSON.c **** 
2709:/home/xingli/share/1205tiny/cJSON/cJSON.c **** CJSON_PUBLIC(cJSON_bool) cJSON_IsFalse(const cJSON * const item)
GAS LISTING /tmp/ccabgRKQ.s 			page 244


2710:/home/xingli/share/1205tiny/cJSON/cJSON.c **** {
 9683              		.loc 1 2710 1
 9684              		.cfi_startproc
 9685 0000 F30F1EFA 		endbr64
 9686 0004 55       		pushq	%rbp
 9687              	.LCFI276:
 9688              		.cfi_def_cfa_offset 16
 9689              		.cfi_offset 6, -16
 9690 0005 4889E5   		movq	%rsp, %rbp
 9691              	.LCFI277:
 9692              		.cfi_def_cfa_register 6
 9693 0008 4883EC20 		subq	$32, %rsp
 9694 000c 48897DE8 		movq	%rdi, -24(%rbp)
 9695              		.loc 1 2710 1
 9696 0010 64488B04 		movq	%fs:40, %rax
 9696      25280000 
 9696      00
 9697 0019 488945F8 		movq	%rax, -8(%rbp)
 9698 001d 31C0     		xorl	%eax, %eax
2711:/home/xingli/share/1205tiny/cJSON/cJSON.c ****     if (item == NULL)
 9699              		.loc 1 2711 8
 9700 001f 48837DE8 		cmpq	$0, -24(%rbp)
 9700      00
 9701 0024 7507     		jne	.L763
2712:/home/xingli/share/1205tiny/cJSON/cJSON.c ****     {
2713:/home/xingli/share/1205tiny/cJSON/cJSON.c ****         return false;
 9702              		.loc 1 2713 16
 9703 0026 B8000000 		movl	$0, %eax
 9703      00
 9704 002b EB13     		jmp	.L764
 9705              	.L763:
2714:/home/xingli/share/1205tiny/cJSON/cJSON.c ****     }
2715:/home/xingli/share/1205tiny/cJSON/cJSON.c **** 
2716:/home/xingli/share/1205tiny/cJSON/cJSON.c ****     return (item->type & 0xFF) == cJSON_False;
 9706              		.loc 1 2716 17
 9707 002d 488B45E8 		movq	-24(%rbp), %rax
 9708 0031 8B4018   		movl	24(%rax), %eax
 9709              		.loc 1 2716 24
 9710 0034 0FB6C0   		movzbl	%al, %eax
 9711              		.loc 1 2716 32
 9712 0037 83F801   		cmpl	$1, %eax
 9713 003a 0F94C0   		sete	%al
 9714 003d 0FB6C0   		movzbl	%al, %eax
 9715              	.L764:
2717:/home/xingli/share/1205tiny/cJSON/cJSON.c **** }
 9716              		.loc 1 2717 1
 9717 0040 488B55F8 		movq	-8(%rbp), %rdx
 9718 0044 64483314 		xorq	%fs:40, %rdx
 9718      25280000 
 9718      00
 9719 004d 7405     		je	.L765
 9720 004f E8000000 		call	__stack_chk_fail@PLT
 9720      00
 9721              	.L765:
 9722 0054 C9       		leave
 9723              	.LCFI278:
 9724              		.cfi_def_cfa 7, 8
GAS LISTING /tmp/ccabgRKQ.s 			page 245


 9725 0055 C3       		ret
 9726              		.cfi_endproc
 9727              	.LFE98:
 9729              		.section	.text.cJSON_IsTrue,"ax",@progbits
 9730              		.globl	cJSON_IsTrue
 9732              	cJSON_IsTrue:
 9733              	.LFB99:
2718:/home/xingli/share/1205tiny/cJSON/cJSON.c **** 
2719:/home/xingli/share/1205tiny/cJSON/cJSON.c **** CJSON_PUBLIC(cJSON_bool) cJSON_IsTrue(const cJSON * const item)
2720:/home/xingli/share/1205tiny/cJSON/cJSON.c **** {
 9734              		.loc 1 2720 1
 9735              		.cfi_startproc
 9736 0000 F30F1EFA 		endbr64
 9737 0004 55       		pushq	%rbp
 9738              	.LCFI279:
 9739              		.cfi_def_cfa_offset 16
 9740              		.cfi_offset 6, -16
 9741 0005 4889E5   		movq	%rsp, %rbp
 9742              	.LCFI280:
 9743              		.cfi_def_cfa_register 6
 9744 0008 4883EC20 		subq	$32, %rsp
 9745 000c 48897DE8 		movq	%rdi, -24(%rbp)
 9746              		.loc 1 2720 1
 9747 0010 64488B04 		movq	%fs:40, %rax
 9747      25280000 
 9747      00
 9748 0019 488945F8 		movq	%rax, -8(%rbp)
 9749 001d 31C0     		xorl	%eax, %eax
2721:/home/xingli/share/1205tiny/cJSON/cJSON.c ****     if (item == NULL)
 9750              		.loc 1 2721 8
 9751 001f 48837DE8 		cmpq	$0, -24(%rbp)
 9751      00
 9752 0024 7507     		jne	.L767
2722:/home/xingli/share/1205tiny/cJSON/cJSON.c ****     {
2723:/home/xingli/share/1205tiny/cJSON/cJSON.c ****         return false;
 9753              		.loc 1 2723 16
 9754 0026 B8000000 		movl	$0, %eax
 9754      00
 9755 002b EB13     		jmp	.L768
 9756              	.L767:
2724:/home/xingli/share/1205tiny/cJSON/cJSON.c ****     }
2725:/home/xingli/share/1205tiny/cJSON/cJSON.c **** 
2726:/home/xingli/share/1205tiny/cJSON/cJSON.c ****     return (item->type & 0xff) == cJSON_True;
 9757              		.loc 1 2726 17
 9758 002d 488B45E8 		movq	-24(%rbp), %rax
 9759 0031 8B4018   		movl	24(%rax), %eax
 9760              		.loc 1 2726 24
 9761 0034 0FB6C0   		movzbl	%al, %eax
 9762              		.loc 1 2726 32
 9763 0037 83F802   		cmpl	$2, %eax
 9764 003a 0F94C0   		sete	%al
 9765 003d 0FB6C0   		movzbl	%al, %eax
 9766              	.L768:
2727:/home/xingli/share/1205tiny/cJSON/cJSON.c **** }
 9767              		.loc 1 2727 1
 9768 0040 488B55F8 		movq	-8(%rbp), %rdx
 9769 0044 64483314 		xorq	%fs:40, %rdx
GAS LISTING /tmp/ccabgRKQ.s 			page 246


 9769      25280000 
 9769      00
 9770 004d 7405     		je	.L769
 9771 004f E8000000 		call	__stack_chk_fail@PLT
 9771      00
 9772              	.L769:
 9773 0054 C9       		leave
 9774              	.LCFI281:
 9775              		.cfi_def_cfa 7, 8
 9776 0055 C3       		ret
 9777              		.cfi_endproc
 9778              	.LFE99:
 9780              		.section	.text.cJSON_IsBool,"ax",@progbits
 9781              		.globl	cJSON_IsBool
 9783              	cJSON_IsBool:
 9784              	.LFB100:
2728:/home/xingli/share/1205tiny/cJSON/cJSON.c **** 
2729:/home/xingli/share/1205tiny/cJSON/cJSON.c **** 
2730:/home/xingli/share/1205tiny/cJSON/cJSON.c **** CJSON_PUBLIC(cJSON_bool) cJSON_IsBool(const cJSON * const item)
2731:/home/xingli/share/1205tiny/cJSON/cJSON.c **** {
 9785              		.loc 1 2731 1
 9786              		.cfi_startproc
 9787 0000 F30F1EFA 		endbr64
 9788 0004 55       		pushq	%rbp
 9789              	.LCFI282:
 9790              		.cfi_def_cfa_offset 16
 9791              		.cfi_offset 6, -16
 9792 0005 4889E5   		movq	%rsp, %rbp
 9793              	.LCFI283:
 9794              		.cfi_def_cfa_register 6
 9795 0008 4883EC20 		subq	$32, %rsp
 9796 000c 48897DE8 		movq	%rdi, -24(%rbp)
 9797              		.loc 1 2731 1
 9798 0010 64488B04 		movq	%fs:40, %rax
 9798      25280000 
 9798      00
 9799 0019 488945F8 		movq	%rax, -8(%rbp)
 9800 001d 31C0     		xorl	%eax, %eax
2732:/home/xingli/share/1205tiny/cJSON/cJSON.c ****     if (item == NULL)
 9801              		.loc 1 2732 8
 9802 001f 48837DE8 		cmpq	$0, -24(%rbp)
 9802      00
 9803 0024 7507     		jne	.L771
2733:/home/xingli/share/1205tiny/cJSON/cJSON.c ****     {
2734:/home/xingli/share/1205tiny/cJSON/cJSON.c ****         return false;
 9804              		.loc 1 2734 16
 9805 0026 B8000000 		movl	$0, %eax
 9805      00
 9806 002b EB12     		jmp	.L772
 9807              	.L771:
2735:/home/xingli/share/1205tiny/cJSON/cJSON.c ****     }
2736:/home/xingli/share/1205tiny/cJSON/cJSON.c **** 
2737:/home/xingli/share/1205tiny/cJSON/cJSON.c ****     return (item->type & (cJSON_True | cJSON_False)) != 0;
 9808              		.loc 1 2737 17
 9809 002d 488B45E8 		movq	-24(%rbp), %rax
 9810 0031 8B4018   		movl	24(%rax), %eax
 9811              		.loc 1 2737 24
GAS LISTING /tmp/ccabgRKQ.s 			page 247


 9812 0034 83E003   		andl	$3, %eax
 9813              		.loc 1 2737 54
 9814 0037 85C0     		testl	%eax, %eax
 9815 0039 0F95C0   		setne	%al
 9816 003c 0FB6C0   		movzbl	%al, %eax
 9817              	.L772:
2738:/home/xingli/share/1205tiny/cJSON/cJSON.c **** }
 9818              		.loc 1 2738 1
 9819 003f 488B55F8 		movq	-8(%rbp), %rdx
 9820 0043 64483314 		xorq	%fs:40, %rdx
 9820      25280000 
 9820      00
 9821 004c 7405     		je	.L773
 9822 004e E8000000 		call	__stack_chk_fail@PLT
 9822      00
 9823              	.L773:
 9824 0053 C9       		leave
 9825              	.LCFI284:
 9826              		.cfi_def_cfa 7, 8
 9827 0054 C3       		ret
 9828              		.cfi_endproc
 9829              	.LFE100:
 9831              		.section	.text.cJSON_IsNull,"ax",@progbits
 9832              		.globl	cJSON_IsNull
 9834              	cJSON_IsNull:
 9835              	.LFB101:
2739:/home/xingli/share/1205tiny/cJSON/cJSON.c **** CJSON_PUBLIC(cJSON_bool) cJSON_IsNull(const cJSON * const item)
2740:/home/xingli/share/1205tiny/cJSON/cJSON.c **** {
 9836              		.loc 1 2740 1
 9837              		.cfi_startproc
 9838 0000 F30F1EFA 		endbr64
 9839 0004 55       		pushq	%rbp
 9840              	.LCFI285:
 9841              		.cfi_def_cfa_offset 16
 9842              		.cfi_offset 6, -16
 9843 0005 4889E5   		movq	%rsp, %rbp
 9844              	.LCFI286:
 9845              		.cfi_def_cfa_register 6
 9846 0008 4883EC20 		subq	$32, %rsp
 9847 000c 48897DE8 		movq	%rdi, -24(%rbp)
 9848              		.loc 1 2740 1
 9849 0010 64488B04 		movq	%fs:40, %rax
 9849      25280000 
 9849      00
 9850 0019 488945F8 		movq	%rax, -8(%rbp)
 9851 001d 31C0     		xorl	%eax, %eax
2741:/home/xingli/share/1205tiny/cJSON/cJSON.c ****     if (item == NULL)
 9852              		.loc 1 2741 8
 9853 001f 48837DE8 		cmpq	$0, -24(%rbp)
 9853      00
 9854 0024 7507     		jne	.L775
2742:/home/xingli/share/1205tiny/cJSON/cJSON.c ****     {
2743:/home/xingli/share/1205tiny/cJSON/cJSON.c ****         return false;
 9855              		.loc 1 2743 16
 9856 0026 B8000000 		movl	$0, %eax
 9856      00
 9857 002b EB13     		jmp	.L776
GAS LISTING /tmp/ccabgRKQ.s 			page 248


 9858              	.L775:
2744:/home/xingli/share/1205tiny/cJSON/cJSON.c ****     }
2745:/home/xingli/share/1205tiny/cJSON/cJSON.c **** 
2746:/home/xingli/share/1205tiny/cJSON/cJSON.c ****     return (item->type & 0xFF) == cJSON_NULL;
 9859              		.loc 1 2746 17
 9860 002d 488B45E8 		movq	-24(%rbp), %rax
 9861 0031 8B4018   		movl	24(%rax), %eax
 9862              		.loc 1 2746 24
 9863 0034 0FB6C0   		movzbl	%al, %eax
 9864              		.loc 1 2746 32
 9865 0037 83F804   		cmpl	$4, %eax
 9866 003a 0F94C0   		sete	%al
 9867 003d 0FB6C0   		movzbl	%al, %eax
 9868              	.L776:
2747:/home/xingli/share/1205tiny/cJSON/cJSON.c **** }
 9869              		.loc 1 2747 1
 9870 0040 488B55F8 		movq	-8(%rbp), %rdx
 9871 0044 64483314 		xorq	%fs:40, %rdx
 9871      25280000 
 9871      00
 9872 004d 7405     		je	.L777
 9873 004f E8000000 		call	__stack_chk_fail@PLT
 9873      00
 9874              	.L777:
 9875 0054 C9       		leave
 9876              	.LCFI287:
 9877              		.cfi_def_cfa 7, 8
 9878 0055 C3       		ret
 9879              		.cfi_endproc
 9880              	.LFE101:
 9882              		.section	.text.cJSON_IsNumber,"ax",@progbits
 9883              		.globl	cJSON_IsNumber
 9885              	cJSON_IsNumber:
 9886              	.LFB102:
2748:/home/xingli/share/1205tiny/cJSON/cJSON.c **** 
2749:/home/xingli/share/1205tiny/cJSON/cJSON.c **** CJSON_PUBLIC(cJSON_bool) cJSON_IsNumber(const cJSON * const item)
2750:/home/xingli/share/1205tiny/cJSON/cJSON.c **** {
 9887              		.loc 1 2750 1
 9888              		.cfi_startproc
 9889 0000 F30F1EFA 		endbr64
 9890 0004 55       		pushq	%rbp
 9891              	.LCFI288:
 9892              		.cfi_def_cfa_offset 16
 9893              		.cfi_offset 6, -16
 9894 0005 4889E5   		movq	%rsp, %rbp
 9895              	.LCFI289:
 9896              		.cfi_def_cfa_register 6
 9897 0008 4883EC20 		subq	$32, %rsp
 9898 000c 48897DE8 		movq	%rdi, -24(%rbp)
 9899              		.loc 1 2750 1
 9900 0010 64488B04 		movq	%fs:40, %rax
 9900      25280000 
 9900      00
 9901 0019 488945F8 		movq	%rax, -8(%rbp)
 9902 001d 31C0     		xorl	%eax, %eax
2751:/home/xingli/share/1205tiny/cJSON/cJSON.c ****     if (item == NULL)
 9903              		.loc 1 2751 8
GAS LISTING /tmp/ccabgRKQ.s 			page 249


 9904 001f 48837DE8 		cmpq	$0, -24(%rbp)
 9904      00
 9905 0024 7507     		jne	.L779
2752:/home/xingli/share/1205tiny/cJSON/cJSON.c ****     {
2753:/home/xingli/share/1205tiny/cJSON/cJSON.c ****         return false;
 9906              		.loc 1 2753 16
 9907 0026 B8000000 		movl	$0, %eax
 9907      00
 9908 002b EB13     		jmp	.L780
 9909              	.L779:
2754:/home/xingli/share/1205tiny/cJSON/cJSON.c ****     }
2755:/home/xingli/share/1205tiny/cJSON/cJSON.c **** 
2756:/home/xingli/share/1205tiny/cJSON/cJSON.c ****     return (item->type & 0xFF) == cJSON_Number;
 9910              		.loc 1 2756 17
 9911 002d 488B45E8 		movq	-24(%rbp), %rax
 9912 0031 8B4018   		movl	24(%rax), %eax
 9913              		.loc 1 2756 24
 9914 0034 0FB6C0   		movzbl	%al, %eax
 9915              		.loc 1 2756 32
 9916 0037 83F808   		cmpl	$8, %eax
 9917 003a 0F94C0   		sete	%al
 9918 003d 0FB6C0   		movzbl	%al, %eax
 9919              	.L780:
2757:/home/xingli/share/1205tiny/cJSON/cJSON.c **** }
 9920              		.loc 1 2757 1
 9921 0040 488B55F8 		movq	-8(%rbp), %rdx
 9922 0044 64483314 		xorq	%fs:40, %rdx
 9922      25280000 
 9922      00
 9923 004d 7405     		je	.L781
 9924 004f E8000000 		call	__stack_chk_fail@PLT
 9924      00
 9925              	.L781:
 9926 0054 C9       		leave
 9927              	.LCFI290:
 9928              		.cfi_def_cfa 7, 8
 9929 0055 C3       		ret
 9930              		.cfi_endproc
 9931              	.LFE102:
 9933              		.section	.text.cJSON_IsString,"ax",@progbits
 9934              		.globl	cJSON_IsString
 9936              	cJSON_IsString:
 9937              	.LFB103:
2758:/home/xingli/share/1205tiny/cJSON/cJSON.c **** 
2759:/home/xingli/share/1205tiny/cJSON/cJSON.c **** CJSON_PUBLIC(cJSON_bool) cJSON_IsString(const cJSON * const item)
2760:/home/xingli/share/1205tiny/cJSON/cJSON.c **** {
 9938              		.loc 1 2760 1
 9939              		.cfi_startproc
 9940 0000 F30F1EFA 		endbr64
 9941 0004 55       		pushq	%rbp
 9942              	.LCFI291:
 9943              		.cfi_def_cfa_offset 16
 9944              		.cfi_offset 6, -16
 9945 0005 4889E5   		movq	%rsp, %rbp
 9946              	.LCFI292:
 9947              		.cfi_def_cfa_register 6
 9948 0008 4883EC20 		subq	$32, %rsp
GAS LISTING /tmp/ccabgRKQ.s 			page 250


 9949 000c 48897DE8 		movq	%rdi, -24(%rbp)
 9950              		.loc 1 2760 1
 9951 0010 64488B04 		movq	%fs:40, %rax
 9951      25280000 
 9951      00
 9952 0019 488945F8 		movq	%rax, -8(%rbp)
 9953 001d 31C0     		xorl	%eax, %eax
2761:/home/xingli/share/1205tiny/cJSON/cJSON.c ****     if (item == NULL)
 9954              		.loc 1 2761 8
 9955 001f 48837DE8 		cmpq	$0, -24(%rbp)
 9955      00
 9956 0024 7507     		jne	.L783
2762:/home/xingli/share/1205tiny/cJSON/cJSON.c ****     {
2763:/home/xingli/share/1205tiny/cJSON/cJSON.c ****         return false;
 9957              		.loc 1 2763 16
 9958 0026 B8000000 		movl	$0, %eax
 9958      00
 9959 002b EB13     		jmp	.L784
 9960              	.L783:
2764:/home/xingli/share/1205tiny/cJSON/cJSON.c ****     }
2765:/home/xingli/share/1205tiny/cJSON/cJSON.c **** 
2766:/home/xingli/share/1205tiny/cJSON/cJSON.c ****     return (item->type & 0xFF) == cJSON_String;
 9961              		.loc 1 2766 17
 9962 002d 488B45E8 		movq	-24(%rbp), %rax
 9963 0031 8B4018   		movl	24(%rax), %eax
 9964              		.loc 1 2766 24
 9965 0034 0FB6C0   		movzbl	%al, %eax
 9966              		.loc 1 2766 32
 9967 0037 83F810   		cmpl	$16, %eax
 9968 003a 0F94C0   		sete	%al
 9969 003d 0FB6C0   		movzbl	%al, %eax
 9970              	.L784:
2767:/home/xingli/share/1205tiny/cJSON/cJSON.c **** }
 9971              		.loc 1 2767 1
 9972 0040 488B55F8 		movq	-8(%rbp), %rdx
 9973 0044 64483314 		xorq	%fs:40, %rdx
 9973      25280000 
 9973      00
 9974 004d 7405     		je	.L785
 9975 004f E8000000 		call	__stack_chk_fail@PLT
 9975      00
 9976              	.L785:
 9977 0054 C9       		leave
 9978              	.LCFI293:
 9979              		.cfi_def_cfa 7, 8
 9980 0055 C3       		ret
 9981              		.cfi_endproc
 9982              	.LFE103:
 9984              		.section	.text.cJSON_IsArray,"ax",@progbits
 9985              		.globl	cJSON_IsArray
 9987              	cJSON_IsArray:
 9988              	.LFB104:
2768:/home/xingli/share/1205tiny/cJSON/cJSON.c **** 
2769:/home/xingli/share/1205tiny/cJSON/cJSON.c **** CJSON_PUBLIC(cJSON_bool) cJSON_IsArray(const cJSON * const item)
2770:/home/xingli/share/1205tiny/cJSON/cJSON.c **** {
 9989              		.loc 1 2770 1
 9990              		.cfi_startproc
GAS LISTING /tmp/ccabgRKQ.s 			page 251


 9991 0000 F30F1EFA 		endbr64
 9992 0004 55       		pushq	%rbp
 9993              	.LCFI294:
 9994              		.cfi_def_cfa_offset 16
 9995              		.cfi_offset 6, -16
 9996 0005 4889E5   		movq	%rsp, %rbp
 9997              	.LCFI295:
 9998              		.cfi_def_cfa_register 6
 9999 0008 4883EC20 		subq	$32, %rsp
 10000 000c 48897DE8 		movq	%rdi, -24(%rbp)
 10001              		.loc 1 2770 1
 10002 0010 64488B04 		movq	%fs:40, %rax
 10002      25280000 
 10002      00
 10003 0019 488945F8 		movq	%rax, -8(%rbp)
 10004 001d 31C0     		xorl	%eax, %eax
2771:/home/xingli/share/1205tiny/cJSON/cJSON.c ****     if (item == NULL)
 10005              		.loc 1 2771 8
 10006 001f 48837DE8 		cmpq	$0, -24(%rbp)
 10006      00
 10007 0024 7507     		jne	.L787
2772:/home/xingli/share/1205tiny/cJSON/cJSON.c ****     {
2773:/home/xingli/share/1205tiny/cJSON/cJSON.c ****         return false;
 10008              		.loc 1 2773 16
 10009 0026 B8000000 		movl	$0, %eax
 10009      00
 10010 002b EB13     		jmp	.L788
 10011              	.L787:
2774:/home/xingli/share/1205tiny/cJSON/cJSON.c ****     }
2775:/home/xingli/share/1205tiny/cJSON/cJSON.c **** 
2776:/home/xingli/share/1205tiny/cJSON/cJSON.c ****     return (item->type & 0xFF) == cJSON_Array;
 10012              		.loc 1 2776 17
 10013 002d 488B45E8 		movq	-24(%rbp), %rax
 10014 0031 8B4018   		movl	24(%rax), %eax
 10015              		.loc 1 2776 24
 10016 0034 0FB6C0   		movzbl	%al, %eax
 10017              		.loc 1 2776 32
 10018 0037 83F820   		cmpl	$32, %eax
 10019 003a 0F94C0   		sete	%al
 10020 003d 0FB6C0   		movzbl	%al, %eax
 10021              	.L788:
2777:/home/xingli/share/1205tiny/cJSON/cJSON.c **** }
 10022              		.loc 1 2777 1
 10023 0040 488B55F8 		movq	-8(%rbp), %rdx
 10024 0044 64483314 		xorq	%fs:40, %rdx
 10024      25280000 
 10024      00
 10025 004d 7405     		je	.L789
 10026 004f E8000000 		call	__stack_chk_fail@PLT
 10026      00
 10027              	.L789:
 10028 0054 C9       		leave
 10029              	.LCFI296:
 10030              		.cfi_def_cfa 7, 8
 10031 0055 C3       		ret
 10032              		.cfi_endproc
 10033              	.LFE104:
GAS LISTING /tmp/ccabgRKQ.s 			page 252


 10035              		.section	.text.cJSON_IsObject,"ax",@progbits
 10036              		.globl	cJSON_IsObject
 10038              	cJSON_IsObject:
 10039              	.LFB105:
2778:/home/xingli/share/1205tiny/cJSON/cJSON.c **** 
2779:/home/xingli/share/1205tiny/cJSON/cJSON.c **** CJSON_PUBLIC(cJSON_bool) cJSON_IsObject(const cJSON * const item)
2780:/home/xingli/share/1205tiny/cJSON/cJSON.c **** {
 10040              		.loc 1 2780 1
 10041              		.cfi_startproc
 10042 0000 F30F1EFA 		endbr64
 10043 0004 55       		pushq	%rbp
 10044              	.LCFI297:
 10045              		.cfi_def_cfa_offset 16
 10046              		.cfi_offset 6, -16
 10047 0005 4889E5   		movq	%rsp, %rbp
 10048              	.LCFI298:
 10049              		.cfi_def_cfa_register 6
 10050 0008 4883EC20 		subq	$32, %rsp
 10051 000c 48897DE8 		movq	%rdi, -24(%rbp)
 10052              		.loc 1 2780 1
 10053 0010 64488B04 		movq	%fs:40, %rax
 10053      25280000 
 10053      00
 10054 0019 488945F8 		movq	%rax, -8(%rbp)
 10055 001d 31C0     		xorl	%eax, %eax
2781:/home/xingli/share/1205tiny/cJSON/cJSON.c ****     if (item == NULL)
 10056              		.loc 1 2781 8
 10057 001f 48837DE8 		cmpq	$0, -24(%rbp)
 10057      00
 10058 0024 7507     		jne	.L791
2782:/home/xingli/share/1205tiny/cJSON/cJSON.c ****     {
2783:/home/xingli/share/1205tiny/cJSON/cJSON.c ****         return false;
 10059              		.loc 1 2783 16
 10060 0026 B8000000 		movl	$0, %eax
 10060      00
 10061 002b EB13     		jmp	.L792
 10062              	.L791:
2784:/home/xingli/share/1205tiny/cJSON/cJSON.c ****     }
2785:/home/xingli/share/1205tiny/cJSON/cJSON.c **** 
2786:/home/xingli/share/1205tiny/cJSON/cJSON.c ****     return (item->type & 0xFF) == cJSON_Object;
 10063              		.loc 1 2786 17
 10064 002d 488B45E8 		movq	-24(%rbp), %rax
 10065 0031 8B4018   		movl	24(%rax), %eax
 10066              		.loc 1 2786 24
 10067 0034 0FB6C0   		movzbl	%al, %eax
 10068              		.loc 1 2786 32
 10069 0037 83F840   		cmpl	$64, %eax
 10070 003a 0F94C0   		sete	%al
 10071 003d 0FB6C0   		movzbl	%al, %eax
 10072              	.L792:
2787:/home/xingli/share/1205tiny/cJSON/cJSON.c **** }
 10073              		.loc 1 2787 1
 10074 0040 488B55F8 		movq	-8(%rbp), %rdx
 10075 0044 64483314 		xorq	%fs:40, %rdx
 10075      25280000 
 10075      00
 10076 004d 7405     		je	.L793
GAS LISTING /tmp/ccabgRKQ.s 			page 253


 10077 004f E8000000 		call	__stack_chk_fail@PLT
 10077      00
 10078              	.L793:
 10079 0054 C9       		leave
 10080              	.LCFI299:
 10081              		.cfi_def_cfa 7, 8
 10082 0055 C3       		ret
 10083              		.cfi_endproc
 10084              	.LFE105:
 10086              		.section	.text.cJSON_IsRaw,"ax",@progbits
 10087              		.globl	cJSON_IsRaw
 10089              	cJSON_IsRaw:
 10090              	.LFB106:
2788:/home/xingli/share/1205tiny/cJSON/cJSON.c **** 
2789:/home/xingli/share/1205tiny/cJSON/cJSON.c **** CJSON_PUBLIC(cJSON_bool) cJSON_IsRaw(const cJSON * const item)
2790:/home/xingli/share/1205tiny/cJSON/cJSON.c **** {
 10091              		.loc 1 2790 1
 10092              		.cfi_startproc
 10093 0000 F30F1EFA 		endbr64
 10094 0004 55       		pushq	%rbp
 10095              	.LCFI300:
 10096              		.cfi_def_cfa_offset 16
 10097              		.cfi_offset 6, -16
 10098 0005 4889E5   		movq	%rsp, %rbp
 10099              	.LCFI301:
 10100              		.cfi_def_cfa_register 6
 10101 0008 4883EC20 		subq	$32, %rsp
 10102 000c 48897DE8 		movq	%rdi, -24(%rbp)
 10103              		.loc 1 2790 1
 10104 0010 64488B04 		movq	%fs:40, %rax
 10104      25280000 
 10104      00
 10105 0019 488945F8 		movq	%rax, -8(%rbp)
 10106 001d 31C0     		xorl	%eax, %eax
2791:/home/xingli/share/1205tiny/cJSON/cJSON.c ****     if (item == NULL)
 10107              		.loc 1 2791 8
 10108 001f 48837DE8 		cmpq	$0, -24(%rbp)
 10108      00
 10109 0024 7507     		jne	.L795
2792:/home/xingli/share/1205tiny/cJSON/cJSON.c ****     {
2793:/home/xingli/share/1205tiny/cJSON/cJSON.c ****         return false;
 10110              		.loc 1 2793 16
 10111 0026 B8000000 		movl	$0, %eax
 10111      00
 10112 002b EB15     		jmp	.L796
 10113              	.L795:
2794:/home/xingli/share/1205tiny/cJSON/cJSON.c ****     }
2795:/home/xingli/share/1205tiny/cJSON/cJSON.c **** 
2796:/home/xingli/share/1205tiny/cJSON/cJSON.c ****     return (item->type & 0xFF) == cJSON_Raw;
 10114              		.loc 1 2796 17
 10115 002d 488B45E8 		movq	-24(%rbp), %rax
 10116 0031 8B4018   		movl	24(%rax), %eax
 10117              		.loc 1 2796 24
 10118 0034 0FB6C0   		movzbl	%al, %eax
 10119              		.loc 1 2796 32
 10120 0037 3D800000 		cmpl	$128, %eax
 10120      00
GAS LISTING /tmp/ccabgRKQ.s 			page 254


 10121 003c 0F94C0   		sete	%al
 10122 003f 0FB6C0   		movzbl	%al, %eax
 10123              	.L796:
2797:/home/xingli/share/1205tiny/cJSON/cJSON.c **** }
 10124              		.loc 1 2797 1
 10125 0042 488B55F8 		movq	-8(%rbp), %rdx
 10126 0046 64483314 		xorq	%fs:40, %rdx
 10126      25280000 
 10126      00
 10127 004f 7405     		je	.L797
 10128 0051 E8000000 		call	__stack_chk_fail@PLT
 10128      00
 10129              	.L797:
 10130 0056 C9       		leave
 10131              	.LCFI302:
 10132              		.cfi_def_cfa 7, 8
 10133 0057 C3       		ret
 10134              		.cfi_endproc
 10135              	.LFE106:
 10137              		.section	.text.cJSON_Compare,"ax",@progbits
 10138              		.globl	cJSON_Compare
 10140              	cJSON_Compare:
 10141              	.LFB107:
2798:/home/xingli/share/1205tiny/cJSON/cJSON.c **** 
2799:/home/xingli/share/1205tiny/cJSON/cJSON.c **** CJSON_PUBLIC(cJSON_bool) cJSON_Compare(const cJSON * const a, const cJSON * const b, const cJSON_bo
2800:/home/xingli/share/1205tiny/cJSON/cJSON.c **** {
 10142              		.loc 1 2800 1
 10143              		.cfi_startproc
 10144 0000 F30F1EFA 		endbr64
 10145 0004 55       		pushq	%rbp
 10146              	.LCFI303:
 10147              		.cfi_def_cfa_offset 16
 10148              		.cfi_offset 6, -16
 10149 0005 4889E5   		movq	%rsp, %rbp
 10150              	.LCFI304:
 10151              		.cfi_def_cfa_register 6
 10152 0008 4883EC50 		subq	$80, %rsp
 10153 000c 48897DC8 		movq	%rdi, -56(%rbp)
 10154 0010 488975C0 		movq	%rsi, -64(%rbp)
 10155 0014 8955BC   		movl	%edx, -68(%rbp)
 10156              		.loc 1 2800 1
 10157 0017 64488B04 		movq	%fs:40, %rax
 10157      25280000 
 10157      00
 10158 0020 488945F8 		movq	%rax, -8(%rbp)
 10159 0024 31C0     		xorl	%eax, %eax
2801:/home/xingli/share/1205tiny/cJSON/cJSON.c ****     if ((a == NULL) || (b == NULL) || ((a->type & 0xFF) != (b->type & 0xFF)) || cJSON_IsInvalid(a))
 10160              		.loc 1 2801 8
 10161 0026 48837DC8 		cmpq	$0, -56(%rbp)
 10161      00
 10162 002b 742E     		je	.L799
 10163              		.loc 1 2801 21 discriminator 1
 10164 002d 48837DC0 		cmpq	$0, -64(%rbp)
 10164      00
 10165 0032 7427     		je	.L799
 10166              		.loc 1 2801 42 discriminator 2
 10167 0034 488B45C8 		movq	-56(%rbp), %rax
GAS LISTING /tmp/ccabgRKQ.s 			page 255


 10168 0038 8B5018   		movl	24(%rax), %edx
 10169              		.loc 1 2801 62 discriminator 2
 10170 003b 488B45C0 		movq	-64(%rbp), %rax
 10171 003f 8B4018   		movl	24(%rax), %eax
 10172              		.loc 1 2801 57 discriminator 2
 10173 0042 31D0     		xorl	%edx, %eax
 10174 0044 0FB6C0   		movzbl	%al, %eax
 10175              		.loc 1 2801 36 discriminator 2
 10176 0047 85C0     		testl	%eax, %eax
 10177 0049 7510     		jne	.L799
 10178              		.loc 1 2801 81 discriminator 3
 10179 004b 488B45C8 		movq	-56(%rbp), %rax
 10180 004f 4889C7   		movq	%rax, %rdi
 10181 0052 E8000000 		call	cJSON_IsInvalid
 10181      00
 10182              		.loc 1 2801 78 discriminator 3
 10183 0057 85C0     		testl	%eax, %eax
 10184 0059 740A     		je	.L800
 10185              	.L799:
2802:/home/xingli/share/1205tiny/cJSON/cJSON.c ****     {
2803:/home/xingli/share/1205tiny/cJSON/cJSON.c ****         return false;
 10186              		.loc 1 2803 16
 10187 005b B8000000 		movl	$0, %eax
 10187      00
 10188 0060 E9FF0200 		jmp	.L801
 10188      00
 10189              	.L800:
2804:/home/xingli/share/1205tiny/cJSON/cJSON.c ****     }
2805:/home/xingli/share/1205tiny/cJSON/cJSON.c **** 
2806:/home/xingli/share/1205tiny/cJSON/cJSON.c ****     /* check if type is valid */
2807:/home/xingli/share/1205tiny/cJSON/cJSON.c ****     switch (a->type & 0xFF)
 10190              		.loc 1 2807 14
 10191 0065 488B45C8 		movq	-56(%rbp), %rax
 10192 0069 8B4018   		movl	24(%rax), %eax
 10193              		.loc 1 2807 21
 10194 006c 0FB6C0   		movzbl	%al, %eax
 10195              		.loc 1 2807 5
 10196 006f 3D800000 		cmpl	$128, %eax
 10196      00
 10197 0074 7447     		je	.L840
 10198 0076 3D800000 		cmpl	$128, %eax
 10198      00
 10199 007b 7F36     		jg	.L803
 10200 007d 83F820   		cmpl	$32, %eax
 10201 0080 7F2C     		jg	.L804
 10202 0082 85C0     		testl	%eax, %eax
 10203 0084 7E2D     		jle	.L803
 10204 0086 83F820   		cmpl	$32, %eax
 10205 0089 7728     		ja	.L803
 10206 008b 89C0     		movl	%eax, %eax
 10207 008d 488D1485 		leaq	0(,%rax,4), %rdx
 10207      00000000 
 10208 0095 488D0500 		leaq	.L805(%rip), %rax
 10208      000000
 10209 009c 8B0402   		movl	(%rdx,%rax), %eax
 10210 009f 4898     		cltq
 10211 00a1 488D1500 		leaq	.L805(%rip), %rdx
GAS LISTING /tmp/ccabgRKQ.s 			page 256


 10211      000000
 10212 00a8 4801D0   		addq	%rdx, %rax
 10213 00ab 3EFFE0   		notrack jmp	*%rax
 10214              		.section	.rodata.cJSON_Compare,"a",@progbits
 10215              		.align 4
 10216              		.align 4
 10217              	.L805:
 10218 0000 00000000 		.long	.L803-.L805
 10219 0004 00000000 		.long	.L840-.L805
 10220 0008 00000000 		.long	.L840-.L805
 10221 000c 00000000 		.long	.L803-.L805
 10222 0010 00000000 		.long	.L840-.L805
 10223 0014 00000000 		.long	.L803-.L805
 10224 0018 00000000 		.long	.L803-.L805
 10225 001c 00000000 		.long	.L803-.L805
 10226 0020 00000000 		.long	.L840-.L805
 10227 0024 00000000 		.long	.L803-.L805
 10228 0028 00000000 		.long	.L803-.L805
 10229 002c 00000000 		.long	.L803-.L805
 10230 0030 00000000 		.long	.L803-.L805
 10231 0034 00000000 		.long	.L803-.L805
 10232 0038 00000000 		.long	.L803-.L805
 10233 003c 00000000 		.long	.L803-.L805
 10234 0040 00000000 		.long	.L840-.L805
 10235 0044 00000000 		.long	.L803-.L805
 10236 0048 00000000 		.long	.L803-.L805
 10237 004c 00000000 		.long	.L803-.L805
 10238 0050 00000000 		.long	.L803-.L805
 10239 0054 00000000 		.long	.L803-.L805
 10240 0058 00000000 		.long	.L803-.L805
 10241 005c 00000000 		.long	.L803-.L805
 10242 0060 00000000 		.long	.L803-.L805
 10243 0064 00000000 		.long	.L803-.L805
 10244 0068 00000000 		.long	.L803-.L805
 10245 006c 00000000 		.long	.L803-.L805
 10246 0070 00000000 		.long	.L803-.L805
 10247 0074 00000000 		.long	.L803-.L805
 10248 0078 00000000 		.long	.L803-.L805
 10249 007c 00000000 		.long	.L803-.L805
 10250 0080 00000000 		.long	.L840-.L805
 10251              		.section	.text.cJSON_Compare
 10252              	.L804:
 10253 00ae 83F840   		cmpl	$64, %eax
 10254 00b1 740A     		je	.L840
 10255              	.L803:
2808:/home/xingli/share/1205tiny/cJSON/cJSON.c ****     {
2809:/home/xingli/share/1205tiny/cJSON/cJSON.c ****         case cJSON_False:
2810:/home/xingli/share/1205tiny/cJSON/cJSON.c ****         case cJSON_True:
2811:/home/xingli/share/1205tiny/cJSON/cJSON.c ****         case cJSON_NULL:
2812:/home/xingli/share/1205tiny/cJSON/cJSON.c ****         case cJSON_Number:
2813:/home/xingli/share/1205tiny/cJSON/cJSON.c ****         case cJSON_String:
2814:/home/xingli/share/1205tiny/cJSON/cJSON.c ****         case cJSON_Raw:
2815:/home/xingli/share/1205tiny/cJSON/cJSON.c ****         case cJSON_Array:
2816:/home/xingli/share/1205tiny/cJSON/cJSON.c ****         case cJSON_Object:
2817:/home/xingli/share/1205tiny/cJSON/cJSON.c ****             break;
2818:/home/xingli/share/1205tiny/cJSON/cJSON.c **** 
2819:/home/xingli/share/1205tiny/cJSON/cJSON.c ****         default:
GAS LISTING /tmp/ccabgRKQ.s 			page 257


2820:/home/xingli/share/1205tiny/cJSON/cJSON.c ****             return false;
 10256              		.loc 1 2820 20
 10257 00b3 B8000000 		movl	$0, %eax
 10257      00
 10258 00b8 E9A70200 		jmp	.L801
 10258      00
 10259              	.L840:
2817:/home/xingli/share/1205tiny/cJSON/cJSON.c **** 
 10260              		.loc 1 2817 13
 10261 00bd 90       		nop
2821:/home/xingli/share/1205tiny/cJSON/cJSON.c ****     }
2822:/home/xingli/share/1205tiny/cJSON/cJSON.c **** 
2823:/home/xingli/share/1205tiny/cJSON/cJSON.c ****     /* identical objects are equal */
2824:/home/xingli/share/1205tiny/cJSON/cJSON.c ****     if (a == b)
 10262              		.loc 1 2824 8
 10263 00be 488B45C8 		movq	-56(%rbp), %rax
 10264 00c2 483B45C0 		cmpq	-64(%rbp), %rax
 10265 00c6 750A     		jne	.L807
2825:/home/xingli/share/1205tiny/cJSON/cJSON.c ****     {
2826:/home/xingli/share/1205tiny/cJSON/cJSON.c ****         return true;
 10266              		.loc 1 2826 16
 10267 00c8 B8010000 		movl	$1, %eax
 10267      00
 10268 00cd E9920200 		jmp	.L801
 10268      00
 10269              	.L807:
2827:/home/xingli/share/1205tiny/cJSON/cJSON.c ****     }
2828:/home/xingli/share/1205tiny/cJSON/cJSON.c **** 
2829:/home/xingli/share/1205tiny/cJSON/cJSON.c ****     switch (a->type & 0xFF)
 10270              		.loc 1 2829 14
 10271 00d2 488B45C8 		movq	-56(%rbp), %rax
 10272 00d6 8B4018   		movl	24(%rax), %eax
 10273              		.loc 1 2829 21
 10274 00d9 0FB6C0   		movzbl	%al, %eax
 10275              		.loc 1 2829 5
 10276 00dc 3D800000 		cmpl	$128, %eax
 10276      00
 10277 00e1 0F848E00 		je	.L808
 10277      0000
 10278 00e7 3D800000 		cmpl	$128, %eax
 10278      00
 10279 00ec 0F8F6D02 		jg	.L809
 10279      0000
 10280 00f2 83F820   		cmpl	$32, %eax
 10281 00f5 7F34     		jg	.L810
 10282 00f7 85C0     		testl	%eax, %eax
 10283 00f9 0F8E6002 		jle	.L809
 10283      0000
 10284 00ff 83F820   		cmpl	$32, %eax
 10285 0102 0F875702 		ja	.L809
 10285      0000
 10286 0108 89C0     		movl	%eax, %eax
 10287 010a 488D1485 		leaq	0(,%rax,4), %rdx
 10287      00000000 
 10288 0112 488D0500 		leaq	.L812(%rip), %rax
 10288      000000
 10289 0119 8B0402   		movl	(%rdx,%rax), %eax
GAS LISTING /tmp/ccabgRKQ.s 			page 258


 10290 011c 4898     		cltq
 10291 011e 488D1500 		leaq	.L812(%rip), %rdx
 10291      000000
 10292 0125 4801D0   		addq	%rdx, %rax
 10293 0128 3EFFE0   		notrack jmp	*%rax
 10294              		.section	.rodata.cJSON_Compare
 10295              		.align 4
 10296              		.align 4
 10297              	.L812:
 10298 0084 00000000 		.long	.L809-.L812
 10299 0088 00000000 		.long	.L814-.L812
 10300 008c 00000000 		.long	.L814-.L812
 10301 0090 00000000 		.long	.L809-.L812
 10302 0094 00000000 		.long	.L814-.L812
 10303 0098 00000000 		.long	.L809-.L812
 10304 009c 00000000 		.long	.L809-.L812
 10305 00a0 00000000 		.long	.L809-.L812
 10306 00a4 00000000 		.long	.L813-.L812
 10307 00a8 00000000 		.long	.L809-.L812
 10308 00ac 00000000 		.long	.L809-.L812
 10309 00b0 00000000 		.long	.L809-.L812
 10310 00b4 00000000 		.long	.L809-.L812
 10311 00b8 00000000 		.long	.L809-.L812
 10312 00bc 00000000 		.long	.L809-.L812
 10313 00c0 00000000 		.long	.L809-.L812
 10314 00c4 00000000 		.long	.L808-.L812
 10315 00c8 00000000 		.long	.L809-.L812
 10316 00cc 00000000 		.long	.L809-.L812
 10317 00d0 00000000 		.long	.L809-.L812
 10318 00d4 00000000 		.long	.L809-.L812
 10319 00d8 00000000 		.long	.L809-.L812
 10320 00dc 00000000 		.long	.L809-.L812
 10321 00e0 00000000 		.long	.L809-.L812
 10322 00e4 00000000 		.long	.L809-.L812
 10323 00e8 00000000 		.long	.L809-.L812
 10324 00ec 00000000 		.long	.L809-.L812
 10325 00f0 00000000 		.long	.L809-.L812
 10326 00f4 00000000 		.long	.L809-.L812
 10327 00f8 00000000 		.long	.L809-.L812
 10328 00fc 00000000 		.long	.L809-.L812
 10329 0100 00000000 		.long	.L809-.L812
 10330 0104 00000000 		.long	.L811-.L812
 10331              		.section	.text.cJSON_Compare
 10332              	.L810:
 10333 012b 83F840   		cmpl	$64, %eax
 10334 012e 0F841801 		je	.L815
 10334      0000
 10335 0134 E9260200 		jmp	.L809
 10335      00
 10336              	.L814:
2830:/home/xingli/share/1205tiny/cJSON/cJSON.c ****     {
2831:/home/xingli/share/1205tiny/cJSON/cJSON.c ****         /* in these cases and equal type is enough */
2832:/home/xingli/share/1205tiny/cJSON/cJSON.c ****         case cJSON_False:
2833:/home/xingli/share/1205tiny/cJSON/cJSON.c ****         case cJSON_True:
2834:/home/xingli/share/1205tiny/cJSON/cJSON.c ****         case cJSON_NULL:
2835:/home/xingli/share/1205tiny/cJSON/cJSON.c ****             return true;
 10337              		.loc 1 2835 20
GAS LISTING /tmp/ccabgRKQ.s 			page 259


 10338 0139 B8010000 		movl	$1, %eax
 10338      00
 10339 013e E9210200 		jmp	.L801
 10339      00
 10340              	.L813:
2836:/home/xingli/share/1205tiny/cJSON/cJSON.c **** 
2837:/home/xingli/share/1205tiny/cJSON/cJSON.c ****         case cJSON_Number:
2838:/home/xingli/share/1205tiny/cJSON/cJSON.c ****             if (a->valuedouble == b->valuedouble)
 10341              		.loc 1 2838 18
 10342 0143 488B45C8 		movq	-56(%rbp), %rax
 10343 0147 F20F1040 		movsd	48(%rax), %xmm0
 10343      30
 10344              		.loc 1 2838 36
 10345 014c 488B45C0 		movq	-64(%rbp), %rax
 10346 0150 F20F1048 		movsd	48(%rax), %xmm1
 10346      30
 10347              		.loc 1 2838 16
 10348 0155 660F2EC1 		ucomisd	%xmm1, %xmm0
 10349 0159 7A10     		jp	.L816
 10350 015b 660F2EC1 		ucomisd	%xmm1, %xmm0
 10351 015f 750A     		jne	.L816
2839:/home/xingli/share/1205tiny/cJSON/cJSON.c ****             {
2840:/home/xingli/share/1205tiny/cJSON/cJSON.c ****                 return true;
 10352              		.loc 1 2840 24
 10353 0161 B8010000 		movl	$1, %eax
 10353      00
 10354 0166 E9F90100 		jmp	.L801
 10354      00
 10355              	.L816:
2841:/home/xingli/share/1205tiny/cJSON/cJSON.c ****             }
2842:/home/xingli/share/1205tiny/cJSON/cJSON.c ****             return false;
 10356              		.loc 1 2842 20
 10357 016b B8000000 		movl	$0, %eax
 10357      00
 10358 0170 E9EF0100 		jmp	.L801
 10358      00
 10359              	.L808:
2843:/home/xingli/share/1205tiny/cJSON/cJSON.c **** 
2844:/home/xingli/share/1205tiny/cJSON/cJSON.c ****         case cJSON_String:
2845:/home/xingli/share/1205tiny/cJSON/cJSON.c ****         case cJSON_Raw:
2846:/home/xingli/share/1205tiny/cJSON/cJSON.c ****             if ((a->valuestring == NULL) || (b->valuestring == NULL))
 10360              		.loc 1 2846 19
 10361 0175 488B45C8 		movq	-56(%rbp), %rax
 10362 0179 488B4020 		movq	32(%rax), %rax
 10363              		.loc 1 2846 16
 10364 017d 4885C0   		testq	%rax, %rax
 10365 0180 740D     		je	.L818
 10366              		.loc 1 2846 47 discriminator 1
 10367 0182 488B45C0 		movq	-64(%rbp), %rax
 10368 0186 488B4020 		movq	32(%rax), %rax
 10369              		.loc 1 2846 42 discriminator 1
 10370 018a 4885C0   		testq	%rax, %rax
 10371 018d 750A     		jne	.L819
 10372              	.L818:
2847:/home/xingli/share/1205tiny/cJSON/cJSON.c ****             {
2848:/home/xingli/share/1205tiny/cJSON/cJSON.c ****                 return false;
 10373              		.loc 1 2848 24
GAS LISTING /tmp/ccabgRKQ.s 			page 260


 10374 018f B8000000 		movl	$0, %eax
 10374      00
 10375 0194 E9CB0100 		jmp	.L801
 10375      00
 10376              	.L819:
2849:/home/xingli/share/1205tiny/cJSON/cJSON.c ****             }
2850:/home/xingli/share/1205tiny/cJSON/cJSON.c ****             if (strcmp(a->valuestring, b->valuestring) == 0)
 10377              		.loc 1 2850 41
 10378 0199 488B45C0 		movq	-64(%rbp), %rax
 10379 019d 488B5020 		movq	32(%rax), %rdx
 10380              		.loc 1 2850 25
 10381 01a1 488B45C8 		movq	-56(%rbp), %rax
 10382 01a5 488B4020 		movq	32(%rax), %rax
 10383              		.loc 1 2850 17
 10384 01a9 4889D6   		movq	%rdx, %rsi
 10385 01ac 4889C7   		movq	%rax, %rdi
 10386 01af E8000000 		call	strcmp@PLT
 10386      00
 10387              		.loc 1 2850 16
 10388 01b4 85C0     		testl	%eax, %eax
 10389 01b6 750A     		jne	.L820
2851:/home/xingli/share/1205tiny/cJSON/cJSON.c ****             {
2852:/home/xingli/share/1205tiny/cJSON/cJSON.c ****                 return true;
 10390              		.loc 1 2852 24
 10391 01b8 B8010000 		movl	$1, %eax
 10391      00
 10392 01bd E9A20100 		jmp	.L801
 10392      00
 10393              	.L820:
2853:/home/xingli/share/1205tiny/cJSON/cJSON.c ****             }
2854:/home/xingli/share/1205tiny/cJSON/cJSON.c **** 
2855:/home/xingli/share/1205tiny/cJSON/cJSON.c ****             return false;
 10394              		.loc 1 2855 20
 10395 01c2 B8000000 		movl	$0, %eax
 10395      00
 10396 01c7 E9980100 		jmp	.L801
 10396      00
 10397              	.L811:
 10398              	.LBB16:
2856:/home/xingli/share/1205tiny/cJSON/cJSON.c **** 
2857:/home/xingli/share/1205tiny/cJSON/cJSON.c ****         case cJSON_Array:
2858:/home/xingli/share/1205tiny/cJSON/cJSON.c ****         {
2859:/home/xingli/share/1205tiny/cJSON/cJSON.c ****             cJSON *a_element = a->child;
 10399              		.loc 1 2859 20
 10400 01cc 488B45C8 		movq	-56(%rbp), %rax
 10401 01d0 488B4010 		movq	16(%rax), %rax
 10402 01d4 488945D8 		movq	%rax, -40(%rbp)
2860:/home/xingli/share/1205tiny/cJSON/cJSON.c ****             cJSON *b_element = b->child;
 10403              		.loc 1 2860 20
 10404 01d8 488B45C0 		movq	-64(%rbp), %rax
 10405 01dc 488B4010 		movq	16(%rax), %rax
 10406 01e0 488945E0 		movq	%rax, -32(%rbp)
2861:/home/xingli/share/1205tiny/cJSON/cJSON.c **** 
2862:/home/xingli/share/1205tiny/cJSON/cJSON.c ****             for (; (a_element != NULL) && (b_element != NULL);)
 10407              		.loc 1 2862 13
 10408 01e4 EB3A     		jmp	.L821
 10409              	.L824:
GAS LISTING /tmp/ccabgRKQ.s 			page 261


2863:/home/xingli/share/1205tiny/cJSON/cJSON.c ****             {
2864:/home/xingli/share/1205tiny/cJSON/cJSON.c ****                 if (!cJSON_Compare(a_element, b_element, case_sensitive))
 10410              		.loc 1 2864 22
 10411 01e6 8B55BC   		movl	-68(%rbp), %edx
 10412 01e9 488B4DE0 		movq	-32(%rbp), %rcx
 10413 01ed 488B45D8 		movq	-40(%rbp), %rax
 10414 01f1 4889CE   		movq	%rcx, %rsi
 10415 01f4 4889C7   		movq	%rax, %rdi
 10416 01f7 E8000000 		call	cJSON_Compare
 10416      00
 10417              		.loc 1 2864 20
 10418 01fc 85C0     		testl	%eax, %eax
 10419 01fe 750A     		jne	.L822
2865:/home/xingli/share/1205tiny/cJSON/cJSON.c ****                 {
2866:/home/xingli/share/1205tiny/cJSON/cJSON.c ****                     return false;
 10420              		.loc 1 2866 28
 10421 0200 B8000000 		movl	$0, %eax
 10421      00
 10422 0205 E95A0100 		jmp	.L801
 10422      00
 10423              	.L822:
2867:/home/xingli/share/1205tiny/cJSON/cJSON.c ****                 }
2868:/home/xingli/share/1205tiny/cJSON/cJSON.c **** 
2869:/home/xingli/share/1205tiny/cJSON/cJSON.c ****                 a_element = a_element->next;
 10424              		.loc 1 2869 27
 10425 020a 488B45D8 		movq	-40(%rbp), %rax
 10426 020e 488B00   		movq	(%rax), %rax
 10427 0211 488945D8 		movq	%rax, -40(%rbp)
2870:/home/xingli/share/1205tiny/cJSON/cJSON.c ****                 b_element = b_element->next;
 10428              		.loc 1 2870 27
 10429 0215 488B45E0 		movq	-32(%rbp), %rax
 10430 0219 488B00   		movq	(%rax), %rax
 10431 021c 488945E0 		movq	%rax, -32(%rbp)
 10432              	.L821:
2862:/home/xingli/share/1205tiny/cJSON/cJSON.c ****             {
 10433              		.loc 1 2862 13
 10434 0220 48837DD8 		cmpq	$0, -40(%rbp)
 10434      00
 10435 0225 7407     		je	.L823
2862:/home/xingli/share/1205tiny/cJSON/cJSON.c ****             {
 10436              		.loc 1 2862 40 discriminator 1
 10437 0227 48837DE0 		cmpq	$0, -32(%rbp)
 10437      00
 10438 022c 75B8     		jne	.L824
 10439              	.L823:
2871:/home/xingli/share/1205tiny/cJSON/cJSON.c ****             }
2872:/home/xingli/share/1205tiny/cJSON/cJSON.c **** 
2873:/home/xingli/share/1205tiny/cJSON/cJSON.c ****             /* one of the arrays is longer than the other */
2874:/home/xingli/share/1205tiny/cJSON/cJSON.c ****             if (a_element != b_element) {
 10440              		.loc 1 2874 16
 10441 022e 488B45D8 		movq	-40(%rbp), %rax
 10442 0232 483B45E0 		cmpq	-32(%rbp), %rax
 10443 0236 740A     		je	.L825
2875:/home/xingli/share/1205tiny/cJSON/cJSON.c ****                 return false;
 10444              		.loc 1 2875 24
 10445 0238 B8000000 		movl	$0, %eax
 10445      00
GAS LISTING /tmp/ccabgRKQ.s 			page 262


 10446 023d E9220100 		jmp	.L801
 10446      00
 10447              	.L825:
2876:/home/xingli/share/1205tiny/cJSON/cJSON.c ****             }
2877:/home/xingli/share/1205tiny/cJSON/cJSON.c **** 
2878:/home/xingli/share/1205tiny/cJSON/cJSON.c ****             return true;
 10448              		.loc 1 2878 20
 10449 0242 B8010000 		movl	$1, %eax
 10449      00
 10450 0247 E9180100 		jmp	.L801
 10450      00
 10451              	.L815:
 10452              	.LBE16:
 10453              	.LBB17:
2879:/home/xingli/share/1205tiny/cJSON/cJSON.c ****         }
2880:/home/xingli/share/1205tiny/cJSON/cJSON.c **** 
2881:/home/xingli/share/1205tiny/cJSON/cJSON.c ****         case cJSON_Object:
2882:/home/xingli/share/1205tiny/cJSON/cJSON.c ****         {
2883:/home/xingli/share/1205tiny/cJSON/cJSON.c ****             cJSON *a_element = NULL;
 10454              		.loc 1 2883 20
 10455 024c 48C745E8 		movq	$0, -24(%rbp)
 10455      00000000 
2884:/home/xingli/share/1205tiny/cJSON/cJSON.c ****             cJSON *b_element = NULL;
 10456              		.loc 1 2884 20
 10457 0254 48C745F0 		movq	$0, -16(%rbp)
 10457      00000000 
2885:/home/xingli/share/1205tiny/cJSON/cJSON.c ****             cJSON_ArrayForEach(a_element, a)
 10458              		.loc 1 2885 13
 10459 025c 48837DC8 		cmpq	$0, -56(%rbp)
 10459      00
 10460 0261 740A     		je	.L826
 10461              		.loc 1 2885 13 is_stmt 0 discriminator 1
 10462 0263 488B45C8 		movq	-56(%rbp), %rax
 10463 0267 488B4010 		movq	16(%rax), %rax
 10464 026b EB05     		jmp	.L827
 10465              	.L826:
 10466              		.loc 1 2885 13 discriminator 2
 10467 026d B8000000 		movl	$0, %eax
 10467      00
 10468              	.L827:
 10469              		.loc 1 2885 13 discriminator 4
 10470 0272 488945E8 		movq	%rax, -24(%rbp)
 10471 0276 EB5E     		jmp	.L828
 10472              	.L831:
2886:/home/xingli/share/1205tiny/cJSON/cJSON.c ****             {
2887:/home/xingli/share/1205tiny/cJSON/cJSON.c ****                 /* TODO This has O(n^2) runtime, which is horrible! */
2888:/home/xingli/share/1205tiny/cJSON/cJSON.c ****                 b_element = get_object_item(b, a_element->string, case_sensitive);
 10473              		.loc 1 2888 57 is_stmt 1
 10474 0278 488B45E8 		movq	-24(%rbp), %rax
 10475 027c 488B4838 		movq	56(%rax), %rcx
 10476              		.loc 1 2888 29
 10477 0280 8B55BC   		movl	-68(%rbp), %edx
 10478 0283 488B45C0 		movq	-64(%rbp), %rax
 10479 0287 4889CE   		movq	%rcx, %rsi
 10480 028a 4889C7   		movq	%rax, %rdi
 10481 028d E8000000 		call	get_object_item
 10481      00
GAS LISTING /tmp/ccabgRKQ.s 			page 263


 10482 0292 488945F0 		movq	%rax, -16(%rbp)
2889:/home/xingli/share/1205tiny/cJSON/cJSON.c ****                 if (b_element == NULL)
 10483              		.loc 1 2889 20
 10484 0296 48837DF0 		cmpq	$0, -16(%rbp)
 10484      00
 10485 029b 750A     		jne	.L829
2890:/home/xingli/share/1205tiny/cJSON/cJSON.c ****                 {
2891:/home/xingli/share/1205tiny/cJSON/cJSON.c ****                     return false;
 10486              		.loc 1 2891 28
 10487 029d B8000000 		movl	$0, %eax
 10487      00
 10488 02a2 E9BD0000 		jmp	.L801
 10488      00
 10489              	.L829:
2892:/home/xingli/share/1205tiny/cJSON/cJSON.c ****                 }
2893:/home/xingli/share/1205tiny/cJSON/cJSON.c **** 
2894:/home/xingli/share/1205tiny/cJSON/cJSON.c ****                 if (!cJSON_Compare(a_element, b_element, case_sensitive))
 10490              		.loc 1 2894 22
 10491 02a7 8B55BC   		movl	-68(%rbp), %edx
 10492 02aa 488B4DF0 		movq	-16(%rbp), %rcx
 10493 02ae 488B45E8 		movq	-24(%rbp), %rax
 10494 02b2 4889CE   		movq	%rcx, %rsi
 10495 02b5 4889C7   		movq	%rax, %rdi
 10496 02b8 E8000000 		call	cJSON_Compare
 10496      00
 10497              		.loc 1 2894 20
 10498 02bd 85C0     		testl	%eax, %eax
 10499 02bf 750A     		jne	.L830
2895:/home/xingli/share/1205tiny/cJSON/cJSON.c ****                 {
2896:/home/xingli/share/1205tiny/cJSON/cJSON.c ****                     return false;
 10500              		.loc 1 2896 28
 10501 02c1 B8000000 		movl	$0, %eax
 10501      00
 10502 02c6 E9990000 		jmp	.L801
 10502      00
 10503              	.L830:
2885:/home/xingli/share/1205tiny/cJSON/cJSON.c ****             {
 10504              		.loc 1 2885 13 discriminator 6
 10505 02cb 488B45E8 		movq	-24(%rbp), %rax
 10506 02cf 488B00   		movq	(%rax), %rax
 10507 02d2 488945E8 		movq	%rax, -24(%rbp)
 10508              	.L828:
2885:/home/xingli/share/1205tiny/cJSON/cJSON.c ****             {
 10509              		.loc 1 2885 13 is_stmt 0 discriminator 5
 10510 02d6 48837DE8 		cmpq	$0, -24(%rbp)
 10510      00
 10511 02db 759B     		jne	.L831
2897:/home/xingli/share/1205tiny/cJSON/cJSON.c ****                 }
2898:/home/xingli/share/1205tiny/cJSON/cJSON.c ****             }
2899:/home/xingli/share/1205tiny/cJSON/cJSON.c **** 
2900:/home/xingli/share/1205tiny/cJSON/cJSON.c ****             /* doing this twice, once on a and b to prevent true comparison if a subset of b
2901:/home/xingli/share/1205tiny/cJSON/cJSON.c ****              * TODO: Do this the proper way, this is just a fix for now */
2902:/home/xingli/share/1205tiny/cJSON/cJSON.c ****             cJSON_ArrayForEach(b_element, b)
 10512              		.loc 1 2902 13 is_stmt 1
 10513 02dd 48837DC0 		cmpq	$0, -64(%rbp)
 10513      00
 10514 02e2 740A     		je	.L832
GAS LISTING /tmp/ccabgRKQ.s 			page 264


 10515              		.loc 1 2902 13 is_stmt 0 discriminator 1
 10516 02e4 488B45C0 		movq	-64(%rbp), %rax
 10517 02e8 488B4010 		movq	16(%rax), %rax
 10518 02ec EB05     		jmp	.L833
 10519              	.L832:
 10520              		.loc 1 2902 13 discriminator 2
 10521 02ee B8000000 		movl	$0, %eax
 10521      00
 10522              	.L833:
 10523              		.loc 1 2902 13 discriminator 4
 10524 02f3 488945F0 		movq	%rax, -16(%rbp)
 10525 02f7 EB58     		jmp	.L834
 10526              	.L837:
2903:/home/xingli/share/1205tiny/cJSON/cJSON.c ****             {
2904:/home/xingli/share/1205tiny/cJSON/cJSON.c ****                 a_element = get_object_item(a, b_element->string, case_sensitive);
 10527              		.loc 1 2904 57 is_stmt 1
 10528 02f9 488B45F0 		movq	-16(%rbp), %rax
 10529 02fd 488B4838 		movq	56(%rax), %rcx
 10530              		.loc 1 2904 29
 10531 0301 8B55BC   		movl	-68(%rbp), %edx
 10532 0304 488B45C8 		movq	-56(%rbp), %rax
 10533 0308 4889CE   		movq	%rcx, %rsi
 10534 030b 4889C7   		movq	%rax, %rdi
 10535 030e E8000000 		call	get_object_item
 10535      00
 10536 0313 488945E8 		movq	%rax, -24(%rbp)
2905:/home/xingli/share/1205tiny/cJSON/cJSON.c ****                 if (a_element == NULL)
 10537              		.loc 1 2905 20
 10538 0317 48837DE8 		cmpq	$0, -24(%rbp)
 10538      00
 10539 031c 7507     		jne	.L835
2906:/home/xingli/share/1205tiny/cJSON/cJSON.c ****                 {
2907:/home/xingli/share/1205tiny/cJSON/cJSON.c ****                     return false;
 10540              		.loc 1 2907 28
 10541 031e B8000000 		movl	$0, %eax
 10541      00
 10542 0323 EB3F     		jmp	.L801
 10543              	.L835:
2908:/home/xingli/share/1205tiny/cJSON/cJSON.c ****                 }
2909:/home/xingli/share/1205tiny/cJSON/cJSON.c **** 
2910:/home/xingli/share/1205tiny/cJSON/cJSON.c ****                 if (!cJSON_Compare(b_element, a_element, case_sensitive))
 10544              		.loc 1 2910 22
 10545 0325 8B55BC   		movl	-68(%rbp), %edx
 10546 0328 488B4DE8 		movq	-24(%rbp), %rcx
 10547 032c 488B45F0 		movq	-16(%rbp), %rax
 10548 0330 4889CE   		movq	%rcx, %rsi
 10549 0333 4889C7   		movq	%rax, %rdi
 10550 0336 E8000000 		call	cJSON_Compare
 10550      00
 10551              		.loc 1 2910 20
 10552 033b 85C0     		testl	%eax, %eax
 10553 033d 7507     		jne	.L836
2911:/home/xingli/share/1205tiny/cJSON/cJSON.c ****                 {
2912:/home/xingli/share/1205tiny/cJSON/cJSON.c ****                     return false;
 10554              		.loc 1 2912 28
 10555 033f B8000000 		movl	$0, %eax
 10555      00
GAS LISTING /tmp/ccabgRKQ.s 			page 265


 10556 0344 EB1E     		jmp	.L801
 10557              	.L836:
2902:/home/xingli/share/1205tiny/cJSON/cJSON.c ****             {
 10558              		.loc 1 2902 13 discriminator 6
 10559 0346 488B45F0 		movq	-16(%rbp), %rax
 10560 034a 488B00   		movq	(%rax), %rax
 10561 034d 488945F0 		movq	%rax, -16(%rbp)
 10562              	.L834:
2902:/home/xingli/share/1205tiny/cJSON/cJSON.c ****             {
 10563              		.loc 1 2902 13 is_stmt 0 discriminator 5
 10564 0351 48837DF0 		cmpq	$0, -16(%rbp)
 10564      00
 10565 0356 75A1     		jne	.L837
2913:/home/xingli/share/1205tiny/cJSON/cJSON.c ****                 }
2914:/home/xingli/share/1205tiny/cJSON/cJSON.c ****             }
2915:/home/xingli/share/1205tiny/cJSON/cJSON.c **** 
2916:/home/xingli/share/1205tiny/cJSON/cJSON.c ****             return true;
 10566              		.loc 1 2916 20 is_stmt 1
 10567 0358 B8010000 		movl	$1, %eax
 10567      00
 10568 035d EB05     		jmp	.L801
 10569              	.L809:
 10570              	.LBE17:
2917:/home/xingli/share/1205tiny/cJSON/cJSON.c ****         }
2918:/home/xingli/share/1205tiny/cJSON/cJSON.c **** 
2919:/home/xingli/share/1205tiny/cJSON/cJSON.c ****         default:
2920:/home/xingli/share/1205tiny/cJSON/cJSON.c ****             return false;
 10571              		.loc 1 2920 20
 10572 035f B8000000 		movl	$0, %eax
 10572      00
 10573              	.L801:
2921:/home/xingli/share/1205tiny/cJSON/cJSON.c ****     }
2922:/home/xingli/share/1205tiny/cJSON/cJSON.c **** }
 10574              		.loc 1 2922 1
 10575 0364 488B75F8 		movq	-8(%rbp), %rsi
 10576 0368 64483334 		xorq	%fs:40, %rsi
 10576      25280000 
 10576      00
 10577 0371 7405     		je	.L838
 10578 0373 E8000000 		call	__stack_chk_fail@PLT
 10578      00
 10579              	.L838:
 10580 0378 C9       		leave
 10581              	.LCFI305:
 10582              		.cfi_def_cfa 7, 8
 10583 0379 C3       		ret
 10584              		.cfi_endproc
 10585              	.LFE107:
 10587              		.section	.text.cJSON_malloc,"ax",@progbits
 10588              		.globl	cJSON_malloc
 10590              	cJSON_malloc:
 10591              	.LFB108:
2923:/home/xingli/share/1205tiny/cJSON/cJSON.c **** 
2924:/home/xingli/share/1205tiny/cJSON/cJSON.c **** CJSON_PUBLIC(void *) cJSON_malloc(size_t size)
2925:/home/xingli/share/1205tiny/cJSON/cJSON.c **** {
 10592              		.loc 1 2925 1
 10593              		.cfi_startproc
GAS LISTING /tmp/ccabgRKQ.s 			page 266


 10594 0000 F30F1EFA 		endbr64
 10595 0004 55       		pushq	%rbp
 10596              	.LCFI306:
 10597              		.cfi_def_cfa_offset 16
 10598              		.cfi_offset 6, -16
 10599 0005 4889E5   		movq	%rsp, %rbp
 10600              	.LCFI307:
 10601              		.cfi_def_cfa_register 6
 10602 0008 4883EC20 		subq	$32, %rsp
 10603 000c 48897DE8 		movq	%rdi, -24(%rbp)
 10604              		.loc 1 2925 1
 10605 0010 64488B04 		movq	%fs:40, %rax
 10605      25280000 
 10605      00
 10606 0019 488945F8 		movq	%rax, -8(%rbp)
 10607 001d 31C0     		xorl	%eax, %eax
2926:/home/xingli/share/1205tiny/cJSON/cJSON.c ****     return global_hooks.allocate(size);
 10608              		.loc 1 2926 24
 10609 001f 488B1500 		movq	global_hooks(%rip), %rdx
 10609      000000
 10610              		.loc 1 2926 12
 10611 0026 488B45E8 		movq	-24(%rbp), %rax
 10612 002a 4889C7   		movq	%rax, %rdi
 10613 002d FFD2     		call	*%rdx
 10614              	.LVL21:
2927:/home/xingli/share/1205tiny/cJSON/cJSON.c **** }
 10615              		.loc 1 2927 1
 10616 002f 488B4DF8 		movq	-8(%rbp), %rcx
 10617 0033 6448330C 		xorq	%fs:40, %rcx
 10617      25280000 
 10617      00
 10618 003c 7405     		je	.L843
 10619 003e E8000000 		call	__stack_chk_fail@PLT
 10619      00
 10620              	.L843:
 10621 0043 C9       		leave
 10622              	.LCFI308:
 10623              		.cfi_def_cfa 7, 8
 10624 0044 C3       		ret
 10625              		.cfi_endproc
 10626              	.LFE108:
 10628              		.section	.text.cJSON_free,"ax",@progbits
 10629              		.globl	cJSON_free
 10631              	cJSON_free:
 10632              	.LFB109:
2928:/home/xingli/share/1205tiny/cJSON/cJSON.c **** 
2929:/home/xingli/share/1205tiny/cJSON/cJSON.c **** CJSON_PUBLIC(void) cJSON_free(void *object)
2930:/home/xingli/share/1205tiny/cJSON/cJSON.c **** {
 10633              		.loc 1 2930 1
 10634              		.cfi_startproc
 10635 0000 F30F1EFA 		endbr64
 10636 0004 55       		pushq	%rbp
 10637              	.LCFI309:
 10638              		.cfi_def_cfa_offset 16
 10639              		.cfi_offset 6, -16
 10640 0005 4889E5   		movq	%rsp, %rbp
 10641              	.LCFI310:
GAS LISTING /tmp/ccabgRKQ.s 			page 267


 10642              		.cfi_def_cfa_register 6
 10643 0008 4883EC20 		subq	$32, %rsp
 10644 000c 48897DE8 		movq	%rdi, -24(%rbp)
 10645              		.loc 1 2930 1
 10646 0010 64488B04 		movq	%fs:40, %rax
 10646      25280000 
 10646      00
 10647 0019 488945F8 		movq	%rax, -8(%rbp)
 10648 001d 31C0     		xorl	%eax, %eax
2931:/home/xingli/share/1205tiny/cJSON/cJSON.c ****     global_hooks.deallocate(object);
 10649              		.loc 1 2931 17
 10650 001f 488B1500 		movq	8+global_hooks(%rip), %rdx
 10650      000000
 10651              		.loc 1 2931 5
 10652 0026 488B45E8 		movq	-24(%rbp), %rax
 10653 002a 4889C7   		movq	%rax, %rdi
 10654 002d FFD2     		call	*%rdx
 10655              	.LVL22:
2932:/home/xingli/share/1205tiny/cJSON/cJSON.c **** }
 10656              		.loc 1 2932 1
 10657 002f 90       		nop
 10658 0030 488B45F8 		movq	-8(%rbp), %rax
 10659 0034 64483304 		xorq	%fs:40, %rax
 10659      25280000 
 10659      00
 10660 003d 7405     		je	.L845
 10661 003f E8000000 		call	__stack_chk_fail@PLT
 10661      00
 10662              	.L845:
 10663 0044 C9       		leave
 10664              	.LCFI311:
 10665              		.cfi_def_cfa 7, 8
 10666 0045 C3       		ret
 10667              		.cfi_endproc
 10668              	.LFE109:
 10670              		.section	.bss.version.4407,"aw",@nobits
 10671              		.align 8
 10674              	version.4407:
 10675 0000 00000000 		.zero	15
 10675      00000000 
 10675      00000000 
 10675      000000
 10676              		.section	.rodata.default_buffer_size.4659,"a"
 10677              		.align 8
 10680              	default_buffer_size.4659:
 10681 0000 00010000 		.quad	256
 10681      00000000 
 10682              		.section	.rodata
 10683 0035 000000   		.align 8
 10684              	.LC2:
 10685 0038 0000C0FF 		.long	4290772992
 10686 003c FFFFDF41 		.long	1105199103
 10687              		.align 8
 10688              	.LC3:
 10689 0040 00000000 		.long	0
 10690 0044 0000E0C1 		.long	-1042284544
 10691              		.text
GAS LISTING /tmp/ccabgRKQ.s 			page 268


 10692              	.Letext0:
 10693              		.file 2 "/usr/lib/gcc/x86_64-linux-gnu/9/include/stddef.h"
 10694              		.file 3 "/usr/include/x86_64-linux-gnu/bits/types.h"
 10695              		.file 4 "/usr/include/x86_64-linux-gnu/bits/types/struct_FILE.h"
 10696              		.file 5 "/usr/include/x86_64-linux-gnu/bits/types/FILE.h"
 10697              		.file 6 "/usr/include/stdio.h"
 10698              		.file 7 "/usr/include/x86_64-linux-gnu/bits/sys_errlist.h"
 10699              		.file 8 "/usr/include/math.h"
 10700              		.file 9 "/home/xingli/share/1205tiny/cJSON/cJSON.h"
 20050              		.section	.note.gnu.property,"a"
 20051              		.align 8
 20052 0000 04000000 		.long	 1f - 0f
 20053 0004 10000000 		.long	 4f - 1f
 20054 0008 05000000 		.long	 5
 20055              	0:
 20056 000c 474E5500 		.string	 "GNU"
 20057              	1:
 20058              		.align 8
 20059 0010 020000C0 		.long	 0xc0000002
 20060 0014 04000000 		.long	 3f - 2f
 20061              	2:
 20062 0018 03000000 		.long	 0x3
 20063              	3:
 20064 001c 00000000 		.align 8
 20065              	4:
GAS LISTING /tmp/ccabgRKQ.s 			page 269


DEFINED SYMBOLS
                            *ABS*:0000000000000000 cJSON.c
     /tmp/ccabgRKQ.s:8      .bss.global_error:0000000000000000 global_error
     /tmp/ccabgRKQ.s:13     .text.cJSON_GetErrorPtr:0000000000000000 cJSON_GetErrorPtr
     /tmp/ccabgRKQ.s:53     .text.cJSON_GetStringValue:0000000000000000 cJSON_GetStringValue
     /tmp/ccabgRKQ.s:9936   .text.cJSON_IsString:0000000000000000 cJSON_IsString
     /tmp/ccabgRKQ.s:105    .text.cJSON_Version:0000000000000000 cJSON_Version
     /tmp/ccabgRKQ.s:10674  .bss.version.4407:0000000000000000 version.4407
     /tmp/ccabgRKQ.s:147    .text.case_insensitive_strcmp:0000000000000000 case_insensitive_strcmp
     /tmp/ccabgRKQ.s:258    .data.rel.global_hooks:0000000000000000 global_hooks
     /tmp/ccabgRKQ.s:264    .text.cJSON_strdup:0000000000000000 cJSON_strdup
     /tmp/ccabgRKQ.s:343    .text.cJSON_InitHooks:0000000000000000 cJSON_InitHooks
     /tmp/ccabgRKQ.s:439    .text.cJSON_New_Item:0000000000000000 cJSON_New_Item
     /tmp/ccabgRKQ.s:493    .text.cJSON_Delete:0000000000000000 cJSON_Delete
     /tmp/ccabgRKQ.s:619    .text.get_decimal_point:0000000000000000 get_decimal_point
     /tmp/ccabgRKQ.s:653    .text.parse_number:0000000000000000 parse_number
     /tmp/ccabgRKQ.s:906    .text.cJSON_SetNumberHelper:0000000000000000 cJSON_SetNumberHelper
     /tmp/ccabgRKQ.s:971    .text.ensure:0000000000000000 ensure
     /tmp/ccabgRKQ.s:1221   .text.update_offset:0000000000000000 update_offset
     /tmp/ccabgRKQ.s:1303   .text.print_number:0000000000000000 print_number
     /tmp/ccabgRKQ.s:1506   .text.parse_hex4:0000000000000000 parse_hex4
     /tmp/ccabgRKQ.s:1655   .text.utf16_literal_to_utf8:0000000000000000 utf16_literal_to_utf8
     /tmp/ccabgRKQ.s:1925   .text.parse_string:0000000000000000 parse_string
     /tmp/ccabgRKQ.s:2376   .text.print_string_ptr:0000000000000000 print_string_ptr
     /tmp/ccabgRKQ.s:2748   .text.print_string:0000000000000000 print_string
     /tmp/ccabgRKQ.s:2790   .text.buffer_skip_whitespace:0000000000000000 buffer_skip_whitespace
     /tmp/ccabgRKQ.s:2890   .text.skip_utf8_bom:0000000000000000 skip_utf8_bom
     /tmp/ccabgRKQ.s:2979   .text.cJSON_ParseWithOpts:0000000000000000 cJSON_ParseWithOpts
     /tmp/ccabgRKQ.s:3727   .text.parse_value:0000000000000000 parse_value
     /tmp/ccabgRKQ.s:3193   .text.cJSON_Parse:0000000000000000 cJSON_Parse
     /tmp/ccabgRKQ.s:3232   .text.print:0000000000000000 print
     /tmp/ccabgRKQ.s:10680  .rodata.default_buffer_size.4659:0000000000000000 default_buffer_size.4659
     /tmp/ccabgRKQ.s:4034   .text.print_value:0000000000000000 print_value
     /tmp/ccabgRKQ.s:3441   .text.cJSON_Print:0000000000000000 cJSON_Print
     /tmp/ccabgRKQ.s:3481   .text.cJSON_PrintUnformatted:0000000000000000 cJSON_PrintUnformatted
     /tmp/ccabgRKQ.s:3521   .text.cJSON_PrintBuffered:0000000000000000 cJSON_PrintBuffered
     /tmp/ccabgRKQ.s:3636   .text.cJSON_PrintPreallocated:0000000000000000 cJSON_PrintPreallocated
     /tmp/ccabgRKQ.s:4296   .text.parse_array:0000000000000000 parse_array
     /tmp/ccabgRKQ.s:4790   .text.parse_object:0000000000000000 parse_object
     /tmp/ccabgRKQ.s:4585   .text.print_array:0000000000000000 print_array
     /tmp/ccabgRKQ.s:5151   .text.print_object:0000000000000000 print_object
     /tmp/ccabgRKQ.s:5569   .text.cJSON_GetArraySize:0000000000000000 cJSON_GetArraySize
     /tmp/ccabgRKQ.s:5633   .text.get_array_item:0000000000000000 get_array_item
     /tmp/ccabgRKQ.s:5701   .text.cJSON_GetArrayItem:0000000000000000 cJSON_GetArrayItem
     /tmp/ccabgRKQ.s:5750   .text.get_object_item:0000000000000000 get_object_item
     /tmp/ccabgRKQ.s:5853   .text.cJSON_GetObjectItem:0000000000000000 cJSON_GetObjectItem
     /tmp/ccabgRKQ.s:5895   .text.cJSON_GetObjectItemCaseSensitive:0000000000000000 cJSON_GetObjectItemCaseSensitive
     /tmp/ccabgRKQ.s:5937   .text.cJSON_HasObjectItem:0000000000000000 cJSON_HasObjectItem
     /tmp/ccabgRKQ.s:5981   .text.suffix_object:0000000000000000 suffix_object
     /tmp/ccabgRKQ.s:6024   .text.create_reference:0000000000000000 create_reference
     /tmp/ccabgRKQ.s:6108   .text.add_item_to_array:0000000000000000 add_item_to_array
     /tmp/ccabgRKQ.s:6190   .text.cJSON_AddItemToArray:0000000000000000 cJSON_AddItemToArray
     /tmp/ccabgRKQ.s:6231   .text.cast_away_const:0000000000000000 cast_away_const
     /tmp/ccabgRKQ.s:6266   .text.add_item_to_object:0000000000000000 add_item_to_object
     /tmp/ccabgRKQ.s:6399   .text.cJSON_AddItemToObject:0000000000000000 cJSON_AddItemToObject
     /tmp/ccabgRKQ.s:6444   .text.cJSON_AddItemToObjectCS:0000000000000000 cJSON_AddItemToObjectCS
     /tmp/ccabgRKQ.s:6489   .text.cJSON_AddItemReferenceToArray:0000000000000000 cJSON_AddItemReferenceToArray
GAS LISTING /tmp/ccabgRKQ.s 			page 270


     /tmp/ccabgRKQ.s:6542   .text.cJSON_AddItemReferenceToObject:0000000000000000 cJSON_AddItemReferenceToObject
     /tmp/ccabgRKQ.s:6601   .text.cJSON_AddNullToObject:0000000000000000 cJSON_AddNullToObject
     /tmp/ccabgRKQ.s:7996   .text.cJSON_CreateNull:0000000000000000 cJSON_CreateNull
     /tmp/ccabgRKQ.s:6661   .text.cJSON_AddTrueToObject:0000000000000000 cJSON_AddTrueToObject
     /tmp/ccabgRKQ.s:8042   .text.cJSON_CreateTrue:0000000000000000 cJSON_CreateTrue
     /tmp/ccabgRKQ.s:6721   .text.cJSON_AddFalseToObject:0000000000000000 cJSON_AddFalseToObject
     /tmp/ccabgRKQ.s:8088   .text.cJSON_CreateFalse:0000000000000000 cJSON_CreateFalse
     /tmp/ccabgRKQ.s:6781   .text.cJSON_AddBoolToObject:0000000000000000 cJSON_AddBoolToObject
     /tmp/ccabgRKQ.s:8134   .text.cJSON_CreateBool:0000000000000000 cJSON_CreateBool
     /tmp/ccabgRKQ.s:6844   .text.cJSON_AddNumberToObject:0000000000000000 cJSON_AddNumberToObject
     /tmp/ccabgRKQ.s:8191   .text.cJSON_CreateNumber:0000000000000000 cJSON_CreateNumber
     /tmp/ccabgRKQ.s:6907   .text.cJSON_AddStringToObject:0000000000000000 cJSON_AddStringToObject
     /tmp/ccabgRKQ.s:8266   .text.cJSON_CreateString:0000000000000000 cJSON_CreateString
     /tmp/ccabgRKQ.s:6970   .text.cJSON_AddRawToObject:0000000000000000 cJSON_AddRawToObject
     /tmp/ccabgRKQ.s:8497   .text.cJSON_CreateRaw:0000000000000000 cJSON_CreateRaw
     /tmp/ccabgRKQ.s:7033   .text.cJSON_AddObjectToObject:0000000000000000 cJSON_AddObjectToObject
     /tmp/ccabgRKQ.s:8612   .text.cJSON_CreateObject:0000000000000000 cJSON_CreateObject
     /tmp/ccabgRKQ.s:7093   .text.cJSON_AddArrayToObject:0000000000000000 cJSON_AddArrayToObject
     /tmp/ccabgRKQ.s:8566   .text.cJSON_CreateArray:0000000000000000 cJSON_CreateArray
     /tmp/ccabgRKQ.s:7153   .text.cJSON_DetachItemViaPointer:0000000000000000 cJSON_DetachItemViaPointer
     /tmp/ccabgRKQ.s:7251   .text.cJSON_DetachItemFromArray:0000000000000000 cJSON_DetachItemFromArray
     /tmp/ccabgRKQ.s:7306   .text.cJSON_DeleteItemFromArray:0000000000000000 cJSON_DeleteItemFromArray
     /tmp/ccabgRKQ.s:7350   .text.cJSON_DetachItemFromObject:0000000000000000 cJSON_DetachItemFromObject
     /tmp/ccabgRKQ.s:7398   .text.cJSON_DetachItemFromObjectCaseSensitive:0000000000000000 cJSON_DetachItemFromObjectCaseSensitive
     /tmp/ccabgRKQ.s:7446   .text.cJSON_DeleteItemFromObject:0000000000000000 cJSON_DeleteItemFromObject
     /tmp/ccabgRKQ.s:7490   .text.cJSON_DeleteItemFromObjectCaseSensitive:0000000000000000 cJSON_DeleteItemFromObjectCaseSensitive
     /tmp/ccabgRKQ.s:7534   .text.cJSON_InsertItemInArray:0000000000000000 cJSON_InsertItemInArray
     /tmp/ccabgRKQ.s:7632   .text.cJSON_ReplaceItemViaPointer:0000000000000000 cJSON_ReplaceItemViaPointer
     /tmp/ccabgRKQ.s:7752   .text.cJSON_ReplaceItemInArray:0000000000000000 cJSON_ReplaceItemInArray
     /tmp/ccabgRKQ.s:7808   .text.replace_item_in_object:0000000000000000 replace_item_in_object
     /tmp/ccabgRKQ.s:10631  .text.cJSON_free:0000000000000000 cJSON_free
     /tmp/ccabgRKQ.s:7908   .text.cJSON_ReplaceItemInObject:0000000000000000 cJSON_ReplaceItemInObject
     /tmp/ccabgRKQ.s:7952   .text.cJSON_ReplaceItemInObjectCaseSensitive:0000000000000000 cJSON_ReplaceItemInObjectCaseSensitive
     /tmp/ccabgRKQ.s:8335   .text.cJSON_CreateStringReference:0000000000000000 cJSON_CreateStringReference
     /tmp/ccabgRKQ.s:8389   .text.cJSON_CreateObjectReference:0000000000000000 cJSON_CreateObjectReference
     /tmp/ccabgRKQ.s:8443   .text.cJSON_CreateArrayReference:0000000000000000 cJSON_CreateArrayReference
     /tmp/ccabgRKQ.s:8658   .text.cJSON_CreateIntArray:0000000000000000 cJSON_CreateIntArray
     /tmp/ccabgRKQ.s:8776   .text.cJSON_CreateFloatArray:0000000000000000 cJSON_CreateFloatArray
     /tmp/ccabgRKQ.s:8894   .text.cJSON_CreateDoubleArray:0000000000000000 cJSON_CreateDoubleArray
     /tmp/ccabgRKQ.s:9012   .text.cJSON_CreateStringArray:0000000000000000 cJSON_CreateStringArray
     /tmp/ccabgRKQ.s:9130   .text.cJSON_Duplicate:0000000000000000 cJSON_Duplicate
     /tmp/ccabgRKQ.s:9353   .text.cJSON_Minify:0000000000000000 cJSON_Minify
     /tmp/ccabgRKQ.s:9630   .text.cJSON_IsInvalid:0000000000000000 cJSON_IsInvalid
     /tmp/ccabgRKQ.s:9681   .text.cJSON_IsFalse:0000000000000000 cJSON_IsFalse
     /tmp/ccabgRKQ.s:9732   .text.cJSON_IsTrue:0000000000000000 cJSON_IsTrue
     /tmp/ccabgRKQ.s:9783   .text.cJSON_IsBool:0000000000000000 cJSON_IsBool
     /tmp/ccabgRKQ.s:9834   .text.cJSON_IsNull:0000000000000000 cJSON_IsNull
     /tmp/ccabgRKQ.s:9885   .text.cJSON_IsNumber:0000000000000000 cJSON_IsNumber
     /tmp/ccabgRKQ.s:9987   .text.cJSON_IsArray:0000000000000000 cJSON_IsArray
     /tmp/ccabgRKQ.s:10038  .text.cJSON_IsObject:0000000000000000 cJSON_IsObject
     /tmp/ccabgRKQ.s:10089  .text.cJSON_IsRaw:0000000000000000 cJSON_IsRaw
     /tmp/ccabgRKQ.s:10140  .text.cJSON_Compare:0000000000000000 cJSON_Compare
     /tmp/ccabgRKQ.s:10590  .text.cJSON_malloc:0000000000000000 cJSON_malloc

UNDEFINED SYMBOLS
_GLOBAL_OFFSET_TABLE_
__stack_chk_fail
GAS LISTING /tmp/ccabgRKQ.s 			page 271


sprintf
tolower
malloc
free
realloc
strlen
memcpy
memset
strtod
__isoc99_sscanf
strncmp
strcmp
