GAS LISTING /tmp/ccabgRKQ.s 			page 1


   1              		.file	"cJSON.c"
   2              		.text
   3              	.Ltext0:
   4              		.section	.bss.global_error,"aw",@nobits
   5              		.align 16
   8              	global_error:
   9 0000 00000000 		.zero	16
   9      00000000 
   9      00000000 
   9      00000000 
  10              		.section	.text.cJSON_GetErrorPtr,"ax",@progbits
  11              		.globl	cJSON_GetErrorPtr
  13              	cJSON_GetErrorPtr:
  14              	.LFB6:
  15              		.file 1 "/home/xingli/share/1205tiny/cJSON/cJSON.c"
   1:/home/xingli/share/1205tiny/cJSON/cJSON.c **** /*
   2:/home/xingli/share/1205tiny/cJSON/cJSON.c ****   Copyright (c) 2009-2017 Dave Gamble and cJSON contributors
   3:/home/xingli/share/1205tiny/cJSON/cJSON.c **** 
   4:/home/xingli/share/1205tiny/cJSON/cJSON.c ****   Permission is hereby granted, free of charge, to any person obtaining a copy
   5:/home/xingli/share/1205tiny/cJSON/cJSON.c ****   of this software and associated documentation files (the "Software"), to deal
   6:/home/xingli/share/1205tiny/cJSON/cJSON.c ****   in the Software without restriction, including without limitation the rights
   7:/home/xingli/share/1205tiny/cJSON/cJSON.c ****   to use, copy, modify, merge, publish, distribute, sublicense, and/or sell
   8:/home/xingli/share/1205tiny/cJSON/cJSON.c ****   copies of the Software, and to permit persons to whom the Software is
   9:/home/xingli/share/1205tiny/cJSON/cJSON.c ****   furnished to do so, subject to the following conditions:
  10:/home/xingli/share/1205tiny/cJSON/cJSON.c **** 
  11:/home/xingli/share/1205tiny/cJSON/cJSON.c ****   The above copyright notice and this permission notice shall be included in
  12:/home/xingli/share/1205tiny/cJSON/cJSON.c ****   all copies or substantial portions of the Software.
  13:/home/xingli/share/1205tiny/cJSON/cJSON.c **** 
  14:/home/xingli/share/1205tiny/cJSON/cJSON.c ****   THE SOFTWARE IS PROVIDED "AS IS", WITHOUT WARRANTY OF ANY KIND, EXPRESS OR
  15:/home/xingli/share/1205tiny/cJSON/cJSON.c ****   IMPLIED, INCLUDING BUT NOT LIMITED TO THE WARRANTIES OF MERCHANTABILITY,
  16:/home/xingli/share/1205tiny/cJSON/cJSON.c ****   FITNESS FOR A PARTICULAR PURPOSE AND NONINFRINGEMENT. IN NO EVENT SHALL THE
  17:/home/xingli/share/1205tiny/cJSON/cJSON.c ****   AUTHORS OR COPYRIGHT HOLDERS BE LIABLE FOR ANY CLAIM, DAMAGES OR OTHER
  18:/home/xingli/share/1205tiny/cJSON/cJSON.c ****   LIABILITY, WHETHER IN AN ACTION OF CONTRACT, TORT OR OTHERWISE, ARISING FROM,
  19:/home/xingli/share/1205tiny/cJSON/cJSON.c ****   OUT OF OR IN CONNECTION WITH THE SOFTWARE OR THE USE OR OTHER DEALINGS IN
  20:/home/xingli/share/1205tiny/cJSON/cJSON.c ****   THE SOFTWARE.
  21:/home/xingli/share/1205tiny/cJSON/cJSON.c **** */
  22:/home/xingli/share/1205tiny/cJSON/cJSON.c **** 
  23:/home/xingli/share/1205tiny/cJSON/cJSON.c **** /* cJSON */
  24:/home/xingli/share/1205tiny/cJSON/cJSON.c **** /* JSON parser in C. */
  25:/home/xingli/share/1205tiny/cJSON/cJSON.c **** 
  26:/home/xingli/share/1205tiny/cJSON/cJSON.c **** /* disable warnings about old C89 functions in MSVC */
  27:/home/xingli/share/1205tiny/cJSON/cJSON.c **** #if !defined(_CRT_SECURE_NO_DEPRECATE) && defined(_MSC_VER)
  28:/home/xingli/share/1205tiny/cJSON/cJSON.c **** #define _CRT_SECURE_NO_DEPRECATE
  29:/home/xingli/share/1205tiny/cJSON/cJSON.c **** #endif
  30:/home/xingli/share/1205tiny/cJSON/cJSON.c **** 
  31:/home/xingli/share/1205tiny/cJSON/cJSON.c **** #ifdef __GNUC__
  32:/home/xingli/share/1205tiny/cJSON/cJSON.c **** #pragma GCC visibility push(default)
  33:/home/xingli/share/1205tiny/cJSON/cJSON.c **** #endif
  34:/home/xingli/share/1205tiny/cJSON/cJSON.c **** #if defined(_MSC_VER)
  35:/home/xingli/share/1205tiny/cJSON/cJSON.c **** #pragma warning (push)
  36:/home/xingli/share/1205tiny/cJSON/cJSON.c **** /* disable warning about single line comments in system headers */
  37:/home/xingli/share/1205tiny/cJSON/cJSON.c **** #pragma warning (disable : 4001)
  38:/home/xingli/share/1205tiny/cJSON/cJSON.c **** #endif
  39:/home/xingli/share/1205tiny/cJSON/cJSON.c **** 
  40:/home/xingli/share/1205tiny/cJSON/cJSON.c **** #include <string.h>
  41:/home/xingli/share/1205tiny/cJSON/cJSON.c **** #include <stdio.h>
  42:/home/xingli/share/1205tiny/cJSON/cJSON.c **** #include <math.h>
GAS LISTING /tmp/ccabgRKQ.s 			page 2


  43:/home/xingli/share/1205tiny/cJSON/cJSON.c **** #include <stdlib.h>
  44:/home/xingli/share/1205tiny/cJSON/cJSON.c **** #include <limits.h>
  45:/home/xingli/share/1205tiny/cJSON/cJSON.c **** #include <ctype.h>
  46:/home/xingli/share/1205tiny/cJSON/cJSON.c **** 
  47:/home/xingli/share/1205tiny/cJSON/cJSON.c **** #ifdef ENABLE_LOCALES
  48:/home/xingli/share/1205tiny/cJSON/cJSON.c **** #include <locale.h>
  49:/home/xingli/share/1205tiny/cJSON/cJSON.c **** #endif
  50:/home/xingli/share/1205tiny/cJSON/cJSON.c **** 
  51:/home/xingli/share/1205tiny/cJSON/cJSON.c **** #if defined(_MSC_VER)
  52:/home/xingli/share/1205tiny/cJSON/cJSON.c **** #pragma warning (pop)
  53:/home/xingli/share/1205tiny/cJSON/cJSON.c **** #endif
  54:/home/xingli/share/1205tiny/cJSON/cJSON.c **** #ifdef __GNUC__
  55:/home/xingli/share/1205tiny/cJSON/cJSON.c **** #pragma GCC visibility pop
  56:/home/xingli/share/1205tiny/cJSON/cJSON.c **** #endif
  57:/home/xingli/share/1205tiny/cJSON/cJSON.c **** 
  58:/home/xingli/share/1205tiny/cJSON/cJSON.c **** #include "cJSON.h"
  59:/home/xingli/share/1205tiny/cJSON/cJSON.c **** 
  60:/home/xingli/share/1205tiny/cJSON/cJSON.c **** /* define our own boolean type */
  61:/home/xingli/share/1205tiny/cJSON/cJSON.c **** #define true ((cJSON_bool)1)
  62:/home/xingli/share/1205tiny/cJSON/cJSON.c **** #define false ((cJSON_bool)0)
  63:/home/xingli/share/1205tiny/cJSON/cJSON.c **** 
  64:/home/xingli/share/1205tiny/cJSON/cJSON.c **** typedef struct {
  65:/home/xingli/share/1205tiny/cJSON/cJSON.c ****     const unsigned char *json;
  66:/home/xingli/share/1205tiny/cJSON/cJSON.c ****     size_t position;
  67:/home/xingli/share/1205tiny/cJSON/cJSON.c **** } error;
  68:/home/xingli/share/1205tiny/cJSON/cJSON.c **** static error global_error = { NULL, 0 };
  69:/home/xingli/share/1205tiny/cJSON/cJSON.c **** 
  70:/home/xingli/share/1205tiny/cJSON/cJSON.c **** CJSON_PUBLIC(const char *) cJSON_GetErrorPtr(void)
  71:/home/xingli/share/1205tiny/cJSON/cJSON.c **** {
  16              		.loc 1 71 1
  17              		.cfi_startproc
  18 0000 F30F1EFA 		endbr64
  19 0004 55       		pushq	%rbp
  20              	.LCFI0:
  21              		.cfi_def_cfa_offset 16
  22              		.cfi_offset 6, -16
  23 0005 4889E5   		movq	%rsp, %rbp
  24              	.LCFI1:
  25              		.cfi_def_cfa_register 6
  26 0008 4883EC10 		subq	$16, %rsp
  27              		.loc 1 71 1
  28 000c 64488B04 		movq	%fs:40, %rax
  28      25280000 
  28      00
  29 0015 488945F8 		movq	%rax, -8(%rbp)
  30 0019 31C0     		xorl	%eax, %eax
  72:/home/xingli/share/1205tiny/cJSON/cJSON.c ****     return (const char*) (global_error.json + global_error.position);
  31              		.loc 1 72 39
  32 001b 488B1500 		movq	global_error(%rip), %rdx
  32      000000
  33              		.loc 1 72 59
  34 0022 488B0500 		movq	8+global_error(%rip), %rax
  34      000000
  35              		.loc 1 72 12
  36 0029 4801D0   		addq	%rdx, %rax
  73:/home/xingli/share/1205tiny/cJSON/cJSON.c **** }
  37              		.loc 1 73 1
GAS LISTING /tmp/ccabgRKQ.s 			page 3


  38 002c 488B4DF8 		movq	-8(%rbp), %rcx
  39 0030 6448330C 		xorq	%fs:40, %rcx
  39      25280000 
  39      00
  40 0039 7405     		je	.L3
  41 003b E8000000 		call	__stack_chk_fail@PLT
  41      00
  42              	.L3:
  43 0040 C9       		leave
  44              	.LCFI2:
  45              		.cfi_def_cfa 7, 8
  46 0041 C3       		ret
  47              		.cfi_endproc
  48              	.LFE6:
  50              		.section	.text.cJSON_GetStringValue,"ax",@progbits
  51              		.globl	cJSON_GetStringValue
  53              	cJSON_GetStringValue:
  54              	.LFB7:
  74:/home/xingli/share/1205tiny/cJSON/cJSON.c **** 
  75:/home/xingli/share/1205tiny/cJSON/cJSON.c **** CJSON_PUBLIC(char *) cJSON_GetStringValue(cJSON *item) {
  55              		.loc 1 75 56
  56              		.cfi_startproc
  57 0000 F30F1EFA 		endbr64
  58 0004 55       		pushq	%rbp
  59              	.LCFI3:
  60              		.cfi_def_cfa_offset 16
  61              		.cfi_offset 6, -16
  62 0005 4889E5   		movq	%rsp, %rbp
  63              	.LCFI4:
  64              		.cfi_def_cfa_register 6
  65 0008 4883EC20 		subq	$32, %rsp
  66 000c 48897DE8 		movq	%rdi, -24(%rbp)
  67              		.loc 1 75 56
  68 0010 64488B04 		movq	%fs:40, %rax
  68      25280000 
  68      00
  69 0019 488945F8 		movq	%rax, -8(%rbp)
  70 001d 31C0     		xorl	%eax, %eax
  76:/home/xingli/share/1205tiny/cJSON/cJSON.c ****     if (!cJSON_IsString(item)) {
  71              		.loc 1 76 10
  72 001f 488B45E8 		movq	-24(%rbp), %rax
  73 0023 4889C7   		movq	%rax, %rdi
  74 0026 E8000000 		call	cJSON_IsString
  74      00
  75              		.loc 1 76 8
  76 002b 85C0     		testl	%eax, %eax
  77 002d 7507     		jne	.L5
  77:/home/xingli/share/1205tiny/cJSON/cJSON.c ****         return NULL;
  78              		.loc 1 77 16
  79 002f B8000000 		movl	$0, %eax
  79      00
  80 0034 EB08     		jmp	.L6
  81              	.L5:
  78:/home/xingli/share/1205tiny/cJSON/cJSON.c ****     }
  79:/home/xingli/share/1205tiny/cJSON/cJSON.c **** 
  80:/home/xingli/share/1205tiny/cJSON/cJSON.c ****     return item->valuestring;
  82              		.loc 1 80 16
GAS LISTING /tmp/ccabgRKQ.s 			page 4


  83 0036 488B45E8 		movq	-24(%rbp), %rax
  84 003a 488B4020 		movq	32(%rax), %rax
  85              	.L6:
  81:/home/xingli/share/1205tiny/cJSON/cJSON.c **** }
  86              		.loc 1 81 1
  87 003e 488B55F8 		movq	-8(%rbp), %rdx
  88 0042 64483314 		xorq	%fs:40, %rdx
  88      25280000 
  88      00
  89 004b 7405     		je	.L7
  90 004d E8000000 		call	__stack_chk_fail@PLT
  90      00
  91              	.L7:
  92 0052 C9       		leave
  93              	.LCFI5:
  94              		.cfi_def_cfa 7, 8
  95 0053 C3       		ret
  96              		.cfi_endproc
  97              	.LFE7:
  99              		.section	.rodata
 100              	.LC0:
 101 0000 25692E25 		.string	"%i.%i.%i"
 101      692E2569 
 101      00
 102              		.section	.text.cJSON_Version,"ax",@progbits
 103              		.globl	cJSON_Version
 105              	cJSON_Version:
 106              	.LFB8:
  82:/home/xingli/share/1205tiny/cJSON/cJSON.c **** 
  83:/home/xingli/share/1205tiny/cJSON/cJSON.c **** /* This is a safeguard to prevent copy-pasters from using incompatible C and header files */
  84:/home/xingli/share/1205tiny/cJSON/cJSON.c **** #if (CJSON_VERSION_MAJOR != 1) || (CJSON_VERSION_MINOR != 7) || (CJSON_VERSION_PATCH != 8)
  85:/home/xingli/share/1205tiny/cJSON/cJSON.c ****     #error cJSON.h and cJSON.c have different versions. Make sure that both have the same.
  86:/home/xingli/share/1205tiny/cJSON/cJSON.c **** #endif
  87:/home/xingli/share/1205tiny/cJSON/cJSON.c **** 
  88:/home/xingli/share/1205tiny/cJSON/cJSON.c **** CJSON_PUBLIC(const char*) cJSON_Version(void)
  89:/home/xingli/share/1205tiny/cJSON/cJSON.c **** {
 107              		.loc 1 89 1
 108              		.cfi_startproc
 109 0000 F30F1EFA 		endbr64
 110 0004 55       		pushq	%rbp
 111              	.LCFI6:
 112              		.cfi_def_cfa_offset 16
 113              		.cfi_offset 6, -16
 114 0005 4889E5   		movq	%rsp, %rbp
 115              	.LCFI7:
 116              		.cfi_def_cfa_register 6
 117 0008 4883EC10 		subq	$16, %rsp
 118              		.loc 1 89 1
 119 000c 64488B04 		movq	%fs:40, %rax
 119      25280000 
 119      00
 120 0015 488945F8 		movq	%rax, -8(%rbp)
 121 0019 31C0     		xorl	%eax, %eax
  90:/home/xingli/share/1205tiny/cJSON/cJSON.c ****     static char version[15];
  91:/home/xingli/share/1205tiny/cJSON/cJSON.c ****     sprintf(version, "%i.%i.%i", CJSON_VERSION_MAJOR, CJSON_VERSION_MINOR, CJSON_VERSION_PATCH);
 122              		.loc 1 91 5
 123 001b 41B80800 		movl	$8, %r8d
GAS LISTING /tmp/ccabgRKQ.s 			page 5


 123      0000
 124 0021 B9070000 		movl	$7, %ecx
 124      00
 125 0026 BA010000 		movl	$1, %edx
 125      00
 126 002b 488D3500 		leaq	.LC0(%rip), %rsi
 126      000000
 127 0032 488D3D00 		leaq	version.4407(%rip), %rdi
 127      000000
 128 0039 B8000000 		movl	$0, %eax
 128      00
 129 003e E8000000 		call	sprintf@PLT
 129      00
  92:/home/xingli/share/1205tiny/cJSON/cJSON.c **** 
  93:/home/xingli/share/1205tiny/cJSON/cJSON.c ****     return version;
 130              		.loc 1 93 12
 131 0043 488D0500 		leaq	version.4407(%rip), %rax
 131      000000
  94:/home/xingli/share/1205tiny/cJSON/cJSON.c **** }
 132              		.loc 1 94 1
 133 004a 488B55F8 		movq	-8(%rbp), %rdx
 134 004e 64483314 		xorq	%fs:40, %rdx
 134      25280000 
 134      00
 135 0057 7405     		je	.L10
 136 0059 E8000000 		call	__stack_chk_fail@PLT
 136      00
 137              	.L10:
 138 005e C9       		leave
 139              	.LCFI8:
 140              		.cfi_def_cfa 7, 8
 141 005f C3       		ret
 142              		.cfi_endproc
 143              	.LFE8:
 145              		.section	.text.case_insensitive_strcmp,"ax",@progbits
 147              	case_insensitive_strcmp:
 148              	.LFB9:
  95:/home/xingli/share/1205tiny/cJSON/cJSON.c **** 
  96:/home/xingli/share/1205tiny/cJSON/cJSON.c **** /* Case insensitive string comparison, doesn't consider two NULL pointers equal though */
  97:/home/xingli/share/1205tiny/cJSON/cJSON.c **** static int case_insensitive_strcmp(const unsigned char *string1, const unsigned char *string2)
  98:/home/xingli/share/1205tiny/cJSON/cJSON.c **** {
 149              		.loc 1 98 1
 150              		.cfi_startproc
 151 0000 F30F1EFA 		endbr64
 152 0004 55       		pushq	%rbp
 153              	.LCFI9:
 154              		.cfi_def_cfa_offset 16
 155              		.cfi_offset 6, -16
 156 0005 4889E5   		movq	%rsp, %rbp
 157              	.LCFI10:
 158              		.cfi_def_cfa_register 6
 159 0008 53       		pushq	%rbx
 160 0009 4883EC28 		subq	$40, %rsp
 161              		.cfi_offset 3, -24
 162 000d 48897DD8 		movq	%rdi, -40(%rbp)
 163 0011 488975D0 		movq	%rsi, -48(%rbp)
 164              		.loc 1 98 1
GAS LISTING /tmp/ccabgRKQ.s 			page 6


 165 0015 64488B04 		movq	%fs:40, %rax
 165      25280000 
 165      00
 166 001e 488945E8 		movq	%rax, -24(%rbp)
 167 0022 31C0     		xorl	%eax, %eax
  99:/home/xingli/share/1205tiny/cJSON/cJSON.c ****     if ((string1 == NULL) || (string2 == NULL))
 168              		.loc 1 99 8
 169 0024 48837DD8 		cmpq	$0, -40(%rbp)
 169      00
 170 0029 7407     		je	.L12
 171              		.loc 1 99 27 discriminator 1
 172 002b 48837DD0 		cmpq	$0, -48(%rbp)
 172      00
 173 0030 7507     		jne	.L13
 174              	.L12:
 100:/home/xingli/share/1205tiny/cJSON/cJSON.c ****     {
 101:/home/xingli/share/1205tiny/cJSON/cJSON.c ****         return 1;
 175              		.loc 1 101 16
 176 0032 B8010000 		movl	$1, %eax
 176      00
 177 0037 EB7D     		jmp	.L14
 178              	.L13:
 102:/home/xingli/share/1205tiny/cJSON/cJSON.c ****     }
 103:/home/xingli/share/1205tiny/cJSON/cJSON.c **** 
 104:/home/xingli/share/1205tiny/cJSON/cJSON.c ****     if (string1 == string2)
 179              		.loc 1 104 8
 180 0039 488B45D8 		movq	-40(%rbp), %rax
 181 003d 483B45D0 		cmpq	-48(%rbp), %rax
 182 0041 7523     		jne	.L16
 105:/home/xingli/share/1205tiny/cJSON/cJSON.c ****     {
 106:/home/xingli/share/1205tiny/cJSON/cJSON.c ****         return 0;
 183              		.loc 1 106 16
 184 0043 B8000000 		movl	$0, %eax
 184      00
 185 0048 EB6C     		jmp	.L14
 186              	.L18:
 107:/home/xingli/share/1205tiny/cJSON/cJSON.c ****     }
 108:/home/xingli/share/1205tiny/cJSON/cJSON.c **** 
 109:/home/xingli/share/1205tiny/cJSON/cJSON.c ****     for(; tolower(*string1) == tolower(*string2); (void)string1++, string2++)
 110:/home/xingli/share/1205tiny/cJSON/cJSON.c ****     {
 111:/home/xingli/share/1205tiny/cJSON/cJSON.c ****         if (*string1 == '\0')
 187              		.loc 1 111 13
 188 004a 488B45D8 		movq	-40(%rbp), %rax
 189 004e 0FB600   		movzbl	(%rax), %eax
 190              		.loc 1 111 12
 191 0051 84C0     		testb	%al, %al
 192 0053 7507     		jne	.L17
 112:/home/xingli/share/1205tiny/cJSON/cJSON.c ****         {
 113:/home/xingli/share/1205tiny/cJSON/cJSON.c ****             return 0;
 193              		.loc 1 113 20
 194 0055 B8000000 		movl	$0, %eax
 194      00
 195 005a EB5A     		jmp	.L14
 196              	.L17:
 109:/home/xingli/share/1205tiny/cJSON/cJSON.c ****     {
 197              		.loc 1 109 51
 198 005c 488345D8 		addq	$1, -40(%rbp)
GAS LISTING /tmp/ccabgRKQ.s 			page 7


 198      01
 109:/home/xingli/share/1205tiny/cJSON/cJSON.c ****     {
 199              		.loc 1 109 75
 200 0061 488345D0 		addq	$1, -48(%rbp)
 200      01
 201              	.L16:
 109:/home/xingli/share/1205tiny/cJSON/cJSON.c ****     {
 202              		.loc 1 109 19 discriminator 1
 203 0066 488B45D8 		movq	-40(%rbp), %rax
 204 006a 0FB600   		movzbl	(%rax), %eax
 109:/home/xingli/share/1205tiny/cJSON/cJSON.c ****     {
 205              		.loc 1 109 11 discriminator 1
 206 006d 0FB6C0   		movzbl	%al, %eax
 207 0070 89C7     		movl	%eax, %edi
 208 0072 E8000000 		call	tolower@PLT
 208      00
 209 0077 89C3     		movl	%eax, %ebx
 109:/home/xingli/share/1205tiny/cJSON/cJSON.c ****     {
 210              		.loc 1 109 40 discriminator 1
 211 0079 488B45D0 		movq	-48(%rbp), %rax
 212 007d 0FB600   		movzbl	(%rax), %eax
 109:/home/xingli/share/1205tiny/cJSON/cJSON.c ****     {
 213              		.loc 1 109 32 discriminator 1
 214 0080 0FB6C0   		movzbl	%al, %eax
 215 0083 89C7     		movl	%eax, %edi
 216 0085 E8000000 		call	tolower@PLT
 216      00
 109:/home/xingli/share/1205tiny/cJSON/cJSON.c ****     {
 217              		.loc 1 109 5 discriminator 1
 218 008a 39C3     		cmpl	%eax, %ebx
 219 008c 74BC     		je	.L18
 114:/home/xingli/share/1205tiny/cJSON/cJSON.c ****         }
 115:/home/xingli/share/1205tiny/cJSON/cJSON.c ****     }
 116:/home/xingli/share/1205tiny/cJSON/cJSON.c **** 
 117:/home/xingli/share/1205tiny/cJSON/cJSON.c ****     return tolower(*string1) - tolower(*string2);
 220              		.loc 1 117 20
 221 008e 488B45D8 		movq	-40(%rbp), %rax
 222 0092 0FB600   		movzbl	(%rax), %eax
 223              		.loc 1 117 12
 224 0095 0FB6C0   		movzbl	%al, %eax
 225 0098 89C7     		movl	%eax, %edi
 226 009a E8000000 		call	tolower@PLT
 226      00
 227 009f 89C3     		movl	%eax, %ebx
 228              		.loc 1 117 40
 229 00a1 488B45D0 		movq	-48(%rbp), %rax
 230 00a5 0FB600   		movzbl	(%rax), %eax
 231              		.loc 1 117 32
 232 00a8 0FB6C0   		movzbl	%al, %eax
 233 00ab 89C7     		movl	%eax, %edi
 234 00ad E8000000 		call	tolower@PLT
 234      00
 235              		.loc 1 117 30
 236 00b2 29C3     		subl	%eax, %ebx
 237 00b4 89D8     		movl	%ebx, %eax
 238              	.L14:
 118:/home/xingli/share/1205tiny/cJSON/cJSON.c **** }
GAS LISTING /tmp/ccabgRKQ.s 			page 8


 239              		.loc 1 118 1
 240 00b6 488B55E8 		movq	-24(%rbp), %rdx
 241 00ba 64483314 		xorq	%fs:40, %rdx
 241      25280000 
 241      00
 242 00c3 7405     		je	.L19
 243 00c5 E8000000 		call	__stack_chk_fail@PLT
 243      00
 244              	.L19:
 245 00ca 4883C428 		addq	$40, %rsp
 246 00ce 5B       		popq	%rbx
 247 00cf 5D       		popq	%rbp
 248              	.LCFI11:
 249              		.cfi_def_cfa 7, 8
 250 00d0 C3       		ret
 251              		.cfi_endproc
 252              	.LFE9:
 254              		.section	.data.rel.global_hooks,"aw"
 255              		.align 16
 258              	global_hooks:
 259 0000 00000000 		.quad	malloc
 259      00000000 
 260 0008 00000000 		.quad	free
 260      00000000 
 261 0010 00000000 		.quad	realloc
 261      00000000 
 262              		.section	.text.cJSON_strdup,"ax",@progbits
 264              	cJSON_strdup:
 265              	.LFB10:
 119:/home/xingli/share/1205tiny/cJSON/cJSON.c **** 
 120:/home/xingli/share/1205tiny/cJSON/cJSON.c **** typedef struct internal_hooks
 121:/home/xingli/share/1205tiny/cJSON/cJSON.c **** {
 122:/home/xingli/share/1205tiny/cJSON/cJSON.c ****     void *(CJSON_CDECL *allocate)(size_t size);
 123:/home/xingli/share/1205tiny/cJSON/cJSON.c ****     void (CJSON_CDECL *deallocate)(void *pointer);
 124:/home/xingli/share/1205tiny/cJSON/cJSON.c ****     void *(CJSON_CDECL *reallocate)(void *pointer, size_t size);
 125:/home/xingli/share/1205tiny/cJSON/cJSON.c **** } internal_hooks;
 126:/home/xingli/share/1205tiny/cJSON/cJSON.c **** 
 127:/home/xingli/share/1205tiny/cJSON/cJSON.c **** #if defined(_MSC_VER)
 128:/home/xingli/share/1205tiny/cJSON/cJSON.c **** /* work around MSVC error C2322: '...' address of dillimport '...' is not static */
 129:/home/xingli/share/1205tiny/cJSON/cJSON.c **** static void * CJSON_CDECL internal_malloc(size_t size)
 130:/home/xingli/share/1205tiny/cJSON/cJSON.c **** {
 131:/home/xingli/share/1205tiny/cJSON/cJSON.c ****     return malloc(size);
 132:/home/xingli/share/1205tiny/cJSON/cJSON.c **** }
 133:/home/xingli/share/1205tiny/cJSON/cJSON.c **** static void CJSON_CDECL internal_free(void *pointer)
 134:/home/xingli/share/1205tiny/cJSON/cJSON.c **** {
 135:/home/xingli/share/1205tiny/cJSON/cJSON.c ****     free(pointer);
 136:/home/xingli/share/1205tiny/cJSON/cJSON.c **** }
 137:/home/xingli/share/1205tiny/cJSON/cJSON.c **** static void * CJSON_CDECL internal_realloc(void *pointer, size_t size)
 138:/home/xingli/share/1205tiny/cJSON/cJSON.c **** {
 139:/home/xingli/share/1205tiny/cJSON/cJSON.c ****     return realloc(pointer, size);
 140:/home/xingli/share/1205tiny/cJSON/cJSON.c **** }
 141:/home/xingli/share/1205tiny/cJSON/cJSON.c **** #else
 142:/home/xingli/share/1205tiny/cJSON/cJSON.c **** #define internal_malloc malloc
 143:/home/xingli/share/1205tiny/cJSON/cJSON.c **** #define internal_free free
 144:/home/xingli/share/1205tiny/cJSON/cJSON.c **** #define internal_realloc realloc
 145:/home/xingli/share/1205tiny/cJSON/cJSON.c **** #endif
 146:/home/xingli/share/1205tiny/cJSON/cJSON.c **** 
GAS LISTING /tmp/ccabgRKQ.s 			page 9


 147:/home/xingli/share/1205tiny/cJSON/cJSON.c **** static internal_hooks global_hooks = { internal_malloc, internal_free, internal_realloc };
 148:/home/xingli/share/1205tiny/cJSON/cJSON.c **** 
 149:/home/xingli/share/1205tiny/cJSON/cJSON.c **** static unsigned char* cJSON_strdup(const unsigned char* string, const internal_hooks * const hooks)
 150:/home/xingli/share/1205tiny/cJSON/cJSON.c **** {
 266              		.loc 1 150 1
 267              		.cfi_startproc
 268 0000 F30F1EFA 		endbr64
 269 0004 55       		pushq	%rbp
 270              	.LCFI12:
 271              		.cfi_def_cfa_offset 16
 272              		.cfi_offset 6, -16
 273 0005 4889E5   		movq	%rsp, %rbp
 274              	.LCFI13:
 275              		.cfi_def_cfa_register 6
 276 0008 4883EC30 		subq	$48, %rsp
 277 000c 48897DD8 		movq	%rdi, -40(%rbp)
 278 0010 488975D0 		movq	%rsi, -48(%rbp)
 279              		.loc 1 150 1
 280 0014 64488B04 		movq	%fs:40, %rax
 280      25280000 
 280      00
 281 001d 488945F8 		movq	%rax, -8(%rbp)
 282 0021 31C0     		xorl	%eax, %eax
 151:/home/xingli/share/1205tiny/cJSON/cJSON.c ****     size_t length = 0;
 283              		.loc 1 151 12
 284 0023 48C745E8 		movq	$0, -24(%rbp)
 284      00000000 
 152:/home/xingli/share/1205tiny/cJSON/cJSON.c ****     unsigned char *copy = NULL;
 285              		.loc 1 152 20
 286 002b 48C745F0 		movq	$0, -16(%rbp)
 286      00000000 
 153:/home/xingli/share/1205tiny/cJSON/cJSON.c **** 
 154:/home/xingli/share/1205tiny/cJSON/cJSON.c ****     if (string == NULL)
 287              		.loc 1 154 8
 288 0033 48837DD8 		cmpq	$0, -40(%rbp)
 288      00
 289 0038 7507     		jne	.L21
 155:/home/xingli/share/1205tiny/cJSON/cJSON.c ****     {
 156:/home/xingli/share/1205tiny/cJSON/cJSON.c ****         return NULL;
 290              		.loc 1 156 16
 291 003a B8000000 		movl	$0, %eax
 291      00
 292 003f EB51     		jmp	.L22
 293              	.L21:
 157:/home/xingli/share/1205tiny/cJSON/cJSON.c ****     }
 158:/home/xingli/share/1205tiny/cJSON/cJSON.c **** 
 159:/home/xingli/share/1205tiny/cJSON/cJSON.c ****     length = strlen((const char*)string) + sizeof("");
 294              		.loc 1 159 14
 295 0041 488B45D8 		movq	-40(%rbp), %rax
 296 0045 4889C7   		movq	%rax, %rdi
 297 0048 E8000000 		call	strlen@PLT
 297      00
 298              		.loc 1 159 12
 299 004d 4883C001 		addq	$1, %rax
 300 0051 488945E8 		movq	%rax, -24(%rbp)
 160:/home/xingli/share/1205tiny/cJSON/cJSON.c ****     copy = (unsigned char*)hooks->allocate(length);
 301              		.loc 1 160 33
GAS LISTING /tmp/ccabgRKQ.s 			page 10


 302 0055 488B45D0 		movq	-48(%rbp), %rax
 303 0059 488B10   		movq	(%rax), %rdx
 304              		.loc 1 160 28
 305 005c 488B45E8 		movq	-24(%rbp), %rax
 306 0060 4889C7   		movq	%rax, %rdi
 307 0063 FFD2     		call	*%rdx
 308              	.LVL0:
 309 0065 488945F0 		movq	%rax, -16(%rbp)
 161:/home/xingli/share/1205tiny/cJSON/cJSON.c ****     if (copy == NULL)
 310              		.loc 1 161 8
 311 0069 48837DF0 		cmpq	$0, -16(%rbp)
 311      00
 312 006e 7507     		jne	.L23
 162:/home/xingli/share/1205tiny/cJSON/cJSON.c ****     {
 163:/home/xingli/share/1205tiny/cJSON/cJSON.c ****         return NULL;
 313              		.loc 1 163 16
 314 0070 B8000000 		movl	$0, %eax
 314      00
 315 0075 EB1B     		jmp	.L22
 316              	.L23:
 164:/home/xingli/share/1205tiny/cJSON/cJSON.c ****     }
 165:/home/xingli/share/1205tiny/cJSON/cJSON.c ****     (void) memcpy(copy, string, length);
 317              		.loc 1 165 12
 318 0077 488B55E8 		movq	-24(%rbp), %rdx
 319 007b 488B4DD8 		movq	-40(%rbp), %rcx
 320 007f 488B45F0 		movq	-16(%rbp), %rax
 321 0083 4889CE   		movq	%rcx, %rsi
 322 0086 4889C7   		movq	%rax, %rdi
 323 0089 E8000000 		call	memcpy@PLT
 323      00
 166:/home/xingli/share/1205tiny/cJSON/cJSON.c **** 
 167:/home/xingli/share/1205tiny/cJSON/cJSON.c ****     return copy;
 324              		.loc 1 167 12
 325 008e 488B45F0 		movq	-16(%rbp), %rax
 326              	.L22:
 168:/home/xingli/share/1205tiny/cJSON/cJSON.c **** }
 327              		.loc 1 168 1
 328 0092 488B4DF8 		movq	-8(%rbp), %rcx
 329 0096 6448330C 		xorq	%fs:40, %rcx
 329      25280000 
 329      00
 330 009f 7405     		je	.L24
 331 00a1 E8000000 		call	__stack_chk_fail@PLT
 331      00
 332              	.L24:
 333 00a6 C9       		leave
 334              	.LCFI14:
 335              		.cfi_def_cfa 7, 8
 336 00a7 C3       		ret
 337              		.cfi_endproc
 338              	.LFE10:
 340              		.section	.text.cJSON_InitHooks,"ax",@progbits
 341              		.globl	cJSON_InitHooks
 343              	cJSON_InitHooks:
 344              	.LFB11:
 169:/home/xingli/share/1205tiny/cJSON/cJSON.c **** 
 170:/home/xingli/share/1205tiny/cJSON/cJSON.c **** CJSON_PUBLIC(void) cJSON_InitHooks(cJSON_Hooks* hooks)
GAS LISTING /tmp/ccabgRKQ.s 			page 11


 171:/home/xingli/share/1205tiny/cJSON/cJSON.c **** {
 345              		.loc 1 171 1
 346              		.cfi_startproc
 347 0000 F30F1EFA 		endbr64
 348 0004 55       		pushq	%rbp
 349              	.LCFI15:
 350              		.cfi_def_cfa_offset 16
 351              		.cfi_offset 6, -16
 352 0005 4889E5   		movq	%rsp, %rbp
 353              	.LCFI16:
 354              		.cfi_def_cfa_register 6
 355 0008 4883EC20 		subq	$32, %rsp
 356 000c 48897DE8 		movq	%rdi, -24(%rbp)
 357              		.loc 1 171 1
 358 0010 64488B04 		movq	%fs:40, %rax
 358      25280000 
 358      00
 359 0019 488945F8 		movq	%rax, -8(%rbp)
 360 001d 31C0     		xorl	%eax, %eax
 172:/home/xingli/share/1205tiny/cJSON/cJSON.c ****     if (hooks == NULL)
 361              		.loc 1 172 8
 362 001f 48837DE8 		cmpq	$0, -24(%rbp)
 362      00
 363 0024 752F     		jne	.L26
 173:/home/xingli/share/1205tiny/cJSON/cJSON.c ****     {
 174:/home/xingli/share/1205tiny/cJSON/cJSON.c ****         /* Reset hooks */
 175:/home/xingli/share/1205tiny/cJSON/cJSON.c ****         global_hooks.allocate = malloc;
 364              		.loc 1 175 31
 365 0026 488B0500 		movq	malloc@GOTPCREL(%rip), %rax
 365      000000
 366 002d 48890500 		movq	%rax, global_hooks(%rip)
 366      000000
 176:/home/xingli/share/1205tiny/cJSON/cJSON.c ****         global_hooks.deallocate = free;
 367              		.loc 1 176 33
 368 0034 488B0500 		movq	free@GOTPCREL(%rip), %rax
 368      000000
 369 003b 48890500 		movq	%rax, 8+global_hooks(%rip)
 369      000000
 177:/home/xingli/share/1205tiny/cJSON/cJSON.c ****         global_hooks.reallocate = realloc;
 370              		.loc 1 177 33
 371 0042 488B0500 		movq	realloc@GOTPCREL(%rip), %rax
 371      000000
 372 0049 48890500 		movq	%rax, 16+global_hooks(%rip)
 372      000000
 178:/home/xingli/share/1205tiny/cJSON/cJSON.c ****         return;
 373              		.loc 1 178 9
 374 0050 E9910000 		jmp	.L25
 374      00
 375              	.L26:
 179:/home/xingli/share/1205tiny/cJSON/cJSON.c ****     }
 180:/home/xingli/share/1205tiny/cJSON/cJSON.c **** 
 181:/home/xingli/share/1205tiny/cJSON/cJSON.c ****     global_hooks.allocate = malloc;
 376              		.loc 1 181 27
 377 0055 488B0500 		movq	malloc@GOTPCREL(%rip), %rax
 377      000000
 378 005c 48890500 		movq	%rax, global_hooks(%rip)
 378      000000
GAS LISTING /tmp/ccabgRKQ.s 			page 12


 182:/home/xingli/share/1205tiny/cJSON/cJSON.c ****     if (hooks->malloc_fn != NULL)
 379              		.loc 1 182 14
 380 0063 488B45E8 		movq	-24(%rbp), %rax
 381 0067 488B00   		movq	(%rax), %rax
 382              		.loc 1 182 8
 383 006a 4885C0   		testq	%rax, %rax
 384 006d 740E     		je	.L28
 183:/home/xingli/share/1205tiny/cJSON/cJSON.c ****     {
 184:/home/xingli/share/1205tiny/cJSON/cJSON.c ****         global_hooks.allocate = hooks->malloc_fn;
 385              		.loc 1 184 38
 386 006f 488B45E8 		movq	-24(%rbp), %rax
 387 0073 488B00   		movq	(%rax), %rax
 388              		.loc 1 184 31
 389 0076 48890500 		movq	%rax, global_hooks(%rip)
 389      000000
 390              	.L28:
 185:/home/xingli/share/1205tiny/cJSON/cJSON.c ****     }
 186:/home/xingli/share/1205tiny/cJSON/cJSON.c **** 
 187:/home/xingli/share/1205tiny/cJSON/cJSON.c ****     global_hooks.deallocate = free;
 391              		.loc 1 187 29
 392 007d 488B0500 		movq	free@GOTPCREL(%rip), %rax
 392      000000
 393 0084 48890500 		movq	%rax, 8+global_hooks(%rip)
 393      000000
 188:/home/xingli/share/1205tiny/cJSON/cJSON.c ****     if (hooks->free_fn != NULL)
 394              		.loc 1 188 14
 395 008b 488B45E8 		movq	-24(%rbp), %rax
 396 008f 488B4008 		movq	8(%rax), %rax
 397              		.loc 1 188 8
 398 0093 4885C0   		testq	%rax, %rax
 399 0096 740F     		je	.L29
 189:/home/xingli/share/1205tiny/cJSON/cJSON.c ****     {
 190:/home/xingli/share/1205tiny/cJSON/cJSON.c ****         global_hooks.deallocate = hooks->free_fn;
 400              		.loc 1 190 40
 401 0098 488B45E8 		movq	-24(%rbp), %rax
 402 009c 488B4008 		movq	8(%rax), %rax
 403              		.loc 1 190 33
 404 00a0 48890500 		movq	%rax, 8+global_hooks(%rip)
 404      000000
 405              	.L29:
 191:/home/xingli/share/1205tiny/cJSON/cJSON.c ****     }
 192:/home/xingli/share/1205tiny/cJSON/cJSON.c **** 
 193:/home/xingli/share/1205tiny/cJSON/cJSON.c ****     /* use realloc only if both free and malloc are used */
 194:/home/xingli/share/1205tiny/cJSON/cJSON.c ****     global_hooks.reallocate = NULL;
 406              		.loc 1 194 29
 407 00a7 48C70500 		movq	$0, 16+global_hooks(%rip)
 407      00000000 
 407      000000
 195:/home/xingli/share/1205tiny/cJSON/cJSON.c ****     if ((global_hooks.allocate == malloc) && (global_hooks.deallocate == free))
 408              		.loc 1 195 22
 409 00b2 488B0500 		movq	global_hooks(%rip), %rax
 409      000000
 410              		.loc 1 195 8
 411 00b9 488B1500 		movq	malloc@GOTPCREL(%rip), %rdx
 411      000000
 412 00c0 4839D0   		cmpq	%rdx, %rax
 413 00c3 7521     		jne	.L25
GAS LISTING /tmp/ccabgRKQ.s 			page 13


 414              		.loc 1 195 59 discriminator 1
 415 00c5 488B0500 		movq	8+global_hooks(%rip), %rax
 415      000000
 416              		.loc 1 195 43 discriminator 1
 417 00cc 488B1500 		movq	free@GOTPCREL(%rip), %rdx
 417      000000
 418 00d3 4839D0   		cmpq	%rdx, %rax
 419 00d6 750E     		jne	.L25
 196:/home/xingli/share/1205tiny/cJSON/cJSON.c ****     {
 197:/home/xingli/share/1205tiny/cJSON/cJSON.c ****         global_hooks.reallocate = realloc;
 420              		.loc 1 197 33
 421 00d8 488B0500 		movq	realloc@GOTPCREL(%rip), %rax
 421      000000
 422 00df 48890500 		movq	%rax, 16+global_hooks(%rip)
 422      000000
 423              	.L25:
 198:/home/xingli/share/1205tiny/cJSON/cJSON.c ****     }
 199:/home/xingli/share/1205tiny/cJSON/cJSON.c **** }
 424              		.loc 1 199 1
 425 00e6 488B45F8 		movq	-8(%rbp), %rax
 426 00ea 64483304 		xorq	%fs:40, %rax
 426      25280000 
 426      00
 427 00f3 7405     		je	.L30
 428 00f5 E8000000 		call	__stack_chk_fail@PLT
 428      00
 429              	.L30:
 430 00fa C9       		leave
 431              	.LCFI17:
 432              		.cfi_def_cfa 7, 8
 433 00fb C3       		ret
 434              		.cfi_endproc
 435              	.LFE11:
 437              		.section	.text.cJSON_New_Item,"ax",@progbits
 439              	cJSON_New_Item:
 440              	.LFB12:
 200:/home/xingli/share/1205tiny/cJSON/cJSON.c **** 
 201:/home/xingli/share/1205tiny/cJSON/cJSON.c **** /* Internal constructor. */
 202:/home/xingli/share/1205tiny/cJSON/cJSON.c **** static cJSON *cJSON_New_Item(const internal_hooks * const hooks)
 203:/home/xingli/share/1205tiny/cJSON/cJSON.c **** {
 441              		.loc 1 203 1
 442              		.cfi_startproc
 443 0000 F30F1EFA 		endbr64
 444 0004 55       		pushq	%rbp
 445              	.LCFI18:
 446              		.cfi_def_cfa_offset 16
 447              		.cfi_offset 6, -16
 448 0005 4889E5   		movq	%rsp, %rbp
 449              	.LCFI19:
 450              		.cfi_def_cfa_register 6
 451 0008 4883EC20 		subq	$32, %rsp
 452 000c 48897DE8 		movq	%rdi, -24(%rbp)
 453              		.loc 1 203 1
 454 0010 64488B04 		movq	%fs:40, %rax
 454      25280000 
 454      00
 455 0019 488945F8 		movq	%rax, -8(%rbp)
GAS LISTING /tmp/ccabgRKQ.s 			page 14


 456 001d 31C0     		xorl	%eax, %eax
 204:/home/xingli/share/1205tiny/cJSON/cJSON.c ****     cJSON* node = (cJSON*)hooks->allocate(sizeof(cJSON));
 457              		.loc 1 204 32
 458 001f 488B45E8 		movq	-24(%rbp), %rax
 459 0023 488B00   		movq	(%rax), %rax
 460              		.loc 1 204 27
 461 0026 BF400000 		movl	$64, %edi
 461      00
 462 002b FFD0     		call	*%rax
 463              	.LVL1:
 464 002d 488945F0 		movq	%rax, -16(%rbp)
 205:/home/xingli/share/1205tiny/cJSON/cJSON.c ****     if (node)
 465              		.loc 1 205 8
 466 0031 48837DF0 		cmpq	$0, -16(%rbp)
 466      00
 467 0036 7416     		je	.L32
 206:/home/xingli/share/1205tiny/cJSON/cJSON.c ****     {
 207:/home/xingli/share/1205tiny/cJSON/cJSON.c ****         memset(node, '\0', sizeof(cJSON));
 468              		.loc 1 207 9
 469 0038 488B45F0 		movq	-16(%rbp), %rax
 470 003c BA400000 		movl	$64, %edx
 470      00
 471 0041 BE000000 		movl	$0, %esi
 471      00
 472 0046 4889C7   		movq	%rax, %rdi
 473 0049 E8000000 		call	memset@PLT
 473      00
 474              	.L32:
 208:/home/xingli/share/1205tiny/cJSON/cJSON.c ****     }
 209:/home/xingli/share/1205tiny/cJSON/cJSON.c **** 
 210:/home/xingli/share/1205tiny/cJSON/cJSON.c ****     return node;
 475              		.loc 1 210 12
 476 004e 488B45F0 		movq	-16(%rbp), %rax
 211:/home/xingli/share/1205tiny/cJSON/cJSON.c **** }
 477              		.loc 1 211 1
 478 0052 488B4DF8 		movq	-8(%rbp), %rcx
 479 0056 6448330C 		xorq	%fs:40, %rcx
 479      25280000 
 479      00
 480 005f 7405     		je	.L34
 481 0061 E8000000 		call	__stack_chk_fail@PLT
 481      00
 482              	.L34:
 483 0066 C9       		leave
 484              	.LCFI20:
 485              		.cfi_def_cfa 7, 8
 486 0067 C3       		ret
 487              		.cfi_endproc
 488              	.LFE12:
 490              		.section	.text.cJSON_Delete,"ax",@progbits
 491              		.globl	cJSON_Delete
 493              	cJSON_Delete:
 494              	.LFB13:
 212:/home/xingli/share/1205tiny/cJSON/cJSON.c **** 
 213:/home/xingli/share/1205tiny/cJSON/cJSON.c **** /* Delete a cJSON structure. */
 214:/home/xingli/share/1205tiny/cJSON/cJSON.c **** CJSON_PUBLIC(void) cJSON_Delete(cJSON *item)
 215:/home/xingli/share/1205tiny/cJSON/cJSON.c **** {
GAS LISTING /tmp/ccabgRKQ.s 			page 15


 495              		.loc 1 215 1
 496              		.cfi_startproc
 497 0000 F30F1EFA 		endbr64
 498 0004 55       		pushq	%rbp
 499              	.LCFI21:
 500              		.cfi_def_cfa_offset 16
 501              		.cfi_offset 6, -16
 502 0005 4889E5   		movq	%rsp, %rbp
 503              	.LCFI22:
 504              		.cfi_def_cfa_register 6
 505 0008 4883EC20 		subq	$32, %rsp
 506 000c 48897DE8 		movq	%rdi, -24(%rbp)
 507              		.loc 1 215 1
 508 0010 64488B04 		movq	%fs:40, %rax
 508      25280000 
 508      00
 509 0019 488945F8 		movq	%rax, -8(%rbp)
 510 001d 31C0     		xorl	%eax, %eax
 216:/home/xingli/share/1205tiny/cJSON/cJSON.c ****     cJSON *next = NULL;
 511              		.loc 1 216 12
 512 001f 48C745F0 		movq	$0, -16(%rbp)
 512      00000000 
 217:/home/xingli/share/1205tiny/cJSON/cJSON.c ****     while (item != NULL)
 513              		.loc 1 217 11
 514 0027 E9B20000 		jmp	.L36
 514      00
 515              	.L40:
 218:/home/xingli/share/1205tiny/cJSON/cJSON.c ****     {
 219:/home/xingli/share/1205tiny/cJSON/cJSON.c ****         next = item->next;
 516              		.loc 1 219 14
 517 002c 488B45E8 		movq	-24(%rbp), %rax
 518 0030 488B00   		movq	(%rax), %rax
 519 0033 488945F0 		movq	%rax, -16(%rbp)
 220:/home/xingli/share/1205tiny/cJSON/cJSON.c ****         if (!(item->type & cJSON_IsReference) && (item->child != NULL))
 520              		.loc 1 220 19
 521 0037 488B45E8 		movq	-24(%rbp), %rax
 522 003b 8B4018   		movl	24(%rax), %eax
 523              		.loc 1 220 26
 524 003e 25000100 		andl	$256, %eax
 524      00
 525              		.loc 1 220 12
 526 0043 85C0     		testl	%eax, %eax
 527 0045 751D     		jne	.L37
 528              		.loc 1 220 55 discriminator 1
 529 0047 488B45E8 		movq	-24(%rbp), %rax
 530 004b 488B4010 		movq	16(%rax), %rax
 531              		.loc 1 220 47 discriminator 1
 532 004f 4885C0   		testq	%rax, %rax
 533 0052 7410     		je	.L37
 221:/home/xingli/share/1205tiny/cJSON/cJSON.c ****         {
 222:/home/xingli/share/1205tiny/cJSON/cJSON.c ****             cJSON_Delete(item->child);
 534              		.loc 1 222 30
 535 0054 488B45E8 		movq	-24(%rbp), %rax
 536 0058 488B4010 		movq	16(%rax), %rax
 537              		.loc 1 222 13
 538 005c 4889C7   		movq	%rax, %rdi
 539 005f E8000000 		call	cJSON_Delete
GAS LISTING /tmp/ccabgRKQ.s 			page 16


 539      00
 540              	.L37:
 223:/home/xingli/share/1205tiny/cJSON/cJSON.c ****         }
 224:/home/xingli/share/1205tiny/cJSON/cJSON.c ****         if (!(item->type & cJSON_IsReference) && (item->valuestring != NULL))
 541              		.loc 1 224 19
 542 0064 488B45E8 		movq	-24(%rbp), %rax
 543 0068 8B4018   		movl	24(%rax), %eax
 544              		.loc 1 224 26
 545 006b 25000100 		andl	$256, %eax
 545      00
 546              		.loc 1 224 12
 547 0070 85C0     		testl	%eax, %eax
 548 0072 7521     		jne	.L38
 549              		.loc 1 224 55 discriminator 1
 550 0074 488B45E8 		movq	-24(%rbp), %rax
 551 0078 488B4020 		movq	32(%rax), %rax
 552              		.loc 1 224 47 discriminator 1
 553 007c 4885C0   		testq	%rax, %rax
 554 007f 7414     		je	.L38
 225:/home/xingli/share/1205tiny/cJSON/cJSON.c ****         {
 226:/home/xingli/share/1205tiny/cJSON/cJSON.c ****             global_hooks.deallocate(item->valuestring);
 555              		.loc 1 226 25
 556 0081 488B1500 		movq	8+global_hooks(%rip), %rdx
 556      000000
 557              		.loc 1 226 41
 558 0088 488B45E8 		movq	-24(%rbp), %rax
 559 008c 488B4020 		movq	32(%rax), %rax
 560              		.loc 1 226 13
 561 0090 4889C7   		movq	%rax, %rdi
 562 0093 FFD2     		call	*%rdx
 563              	.LVL2:
 564              	.L38:
 227:/home/xingli/share/1205tiny/cJSON/cJSON.c ****         }
 228:/home/xingli/share/1205tiny/cJSON/cJSON.c ****         if (!(item->type & cJSON_StringIsConst) && (item->string != NULL))
 565              		.loc 1 228 19
 566 0095 488B45E8 		movq	-24(%rbp), %rax
 567 0099 8B4018   		movl	24(%rax), %eax
 568              		.loc 1 228 26
 569 009c 25000200 		andl	$512, %eax
 569      00
 570              		.loc 1 228 12
 571 00a1 85C0     		testl	%eax, %eax
 572 00a3 7521     		jne	.L39
 573              		.loc 1 228 57 discriminator 1
 574 00a5 488B45E8 		movq	-24(%rbp), %rax
 575 00a9 488B4038 		movq	56(%rax), %rax
 576              		.loc 1 228 49 discriminator 1
 577 00ad 4885C0   		testq	%rax, %rax
 578 00b0 7414     		je	.L39
 229:/home/xingli/share/1205tiny/cJSON/cJSON.c ****         {
 230:/home/xingli/share/1205tiny/cJSON/cJSON.c ****             global_hooks.deallocate(item->string);
 579              		.loc 1 230 25
 580 00b2 488B1500 		movq	8+global_hooks(%rip), %rdx
 580      000000
 581              		.loc 1 230 41
 582 00b9 488B45E8 		movq	-24(%rbp), %rax
 583 00bd 488B4038 		movq	56(%rax), %rax
GAS LISTING /tmp/ccabgRKQ.s 			page 17


 584              		.loc 1 230 13
 585 00c1 4889C7   		movq	%rax, %rdi
 586 00c4 FFD2     		call	*%rdx
 587              	.LVL3:
 588              	.L39:
 231:/home/xingli/share/1205tiny/cJSON/cJSON.c ****         }
 232:/home/xingli/share/1205tiny/cJSON/cJSON.c ****         global_hooks.deallocate(item);
 589              		.loc 1 232 21
 590 00c6 488B1500 		movq	8+global_hooks(%rip), %rdx
 590      000000
 591              		.loc 1 232 9
 592 00cd 488B45E8 		movq	-24(%rbp), %rax
 593 00d1 4889C7   		movq	%rax, %rdi
 594 00d4 FFD2     		call	*%rdx
 595              	.LVL4:
 233:/home/xingli/share/1205tiny/cJSON/cJSON.c ****         item = next;
 596              		.loc 1 233 14
 597 00d6 488B45F0 		movq	-16(%rbp), %rax
 598 00da 488945E8 		movq	%rax, -24(%rbp)
 599              	.L36:
 217:/home/xingli/share/1205tiny/cJSON/cJSON.c ****     {
 600              		.loc 1 217 11
 601 00de 48837DE8 		cmpq	$0, -24(%rbp)
 601      00
 602 00e3 0F8543FF 		jne	.L40
 602      FFFF
 234:/home/xingli/share/1205tiny/cJSON/cJSON.c ****     }
 235:/home/xingli/share/1205tiny/cJSON/cJSON.c **** }
 603              		.loc 1 235 1
 604 00e9 90       		nop
 605 00ea 488B45F8 		movq	-8(%rbp), %rax
 606 00ee 64483304 		xorq	%fs:40, %rax
 606      25280000 
 606      00
 607 00f7 7405     		je	.L41
 608 00f9 E8000000 		call	__stack_chk_fail@PLT
 608      00
 609              	.L41:
 610 00fe C9       		leave
 611              	.LCFI23:
 612              		.cfi_def_cfa 7, 8
 613 00ff C3       		ret
 614              		.cfi_endproc
 615              	.LFE13:
 617              		.section	.text.get_decimal_point,"ax",@progbits
 619              	get_decimal_point:
 620              	.LFB14:
 236:/home/xingli/share/1205tiny/cJSON/cJSON.c **** 
 237:/home/xingli/share/1205tiny/cJSON/cJSON.c **** /* get the decimal point character of the current locale */
 238:/home/xingli/share/1205tiny/cJSON/cJSON.c **** static unsigned char get_decimal_point(void)
 239:/home/xingli/share/1205tiny/cJSON/cJSON.c **** {
 621              		.loc 1 239 1
 622              		.cfi_startproc
 623 0000 F30F1EFA 		endbr64
 624 0004 55       		pushq	%rbp
 625              	.LCFI24:
 626              		.cfi_def_cfa_offset 16
GAS LISTING /tmp/ccabgRKQ.s 			page 18


 627              		.cfi_offset 6, -16
 628 0005 4889E5   		movq	%rsp, %rbp
 629              	.LCFI25:
 630              		.cfi_def_cfa_register 6
 631 0008 4883EC10 		subq	$16, %rsp
 632              		.loc 1 239 1
 633 000c 64488B04 		movq	%fs:40, %rax
 633      25280000 
 633      00
 634 0015 488945F8 		movq	%rax, -8(%rbp)
 635 0019 31C0     		xorl	%eax, %eax
 240:/home/xingli/share/1205tiny/cJSON/cJSON.c **** #ifdef ENABLE_LOCALES
 241:/home/xingli/share/1205tiny/cJSON/cJSON.c ****     struct lconv *lconv = localeconv();
 242:/home/xingli/share/1205tiny/cJSON/cJSON.c ****     return (unsigned char) lconv->decimal_point[0];
 243:/home/xingli/share/1205tiny/cJSON/cJSON.c **** #else
 244:/home/xingli/share/1205tiny/cJSON/cJSON.c ****     return '.';
 636              		.loc 1 244 12
 637 001b B82E0000 		movl	$46, %eax
 637      00
 245:/home/xingli/share/1205tiny/cJSON/cJSON.c **** #endif
 246:/home/xingli/share/1205tiny/cJSON/cJSON.c **** }
 638              		.loc 1 246 1
 639 0020 488B55F8 		movq	-8(%rbp), %rdx
 640 0024 64483314 		xorq	%fs:40, %rdx
 640      25280000 
 640      00
 641 002d 7405     		je	.L44
 642 002f E8000000 		call	__stack_chk_fail@PLT
 642      00
 643              	.L44:
 644 0034 C9       		leave
 645              	.LCFI26:
 646              		.cfi_def_cfa 7, 8
 647 0035 C3       		ret
 648              		.cfi_endproc
 649              	.LFE14:
 651              		.section	.text.parse_number,"ax",@progbits
 653              	parse_number:
 654              	.LFB15:
 247:/home/xingli/share/1205tiny/cJSON/cJSON.c **** 
 248:/home/xingli/share/1205tiny/cJSON/cJSON.c **** typedef struct
 249:/home/xingli/share/1205tiny/cJSON/cJSON.c **** {
 250:/home/xingli/share/1205tiny/cJSON/cJSON.c ****     const unsigned char *content;
 251:/home/xingli/share/1205tiny/cJSON/cJSON.c ****     size_t length;
 252:/home/xingli/share/1205tiny/cJSON/cJSON.c ****     size_t offset;
 253:/home/xingli/share/1205tiny/cJSON/cJSON.c ****     size_t depth; /* How deeply nested (in arrays/objects) is the input at the current offset. */
 254:/home/xingli/share/1205tiny/cJSON/cJSON.c ****     internal_hooks hooks;
 255:/home/xingli/share/1205tiny/cJSON/cJSON.c **** } parse_buffer;
 256:/home/xingli/share/1205tiny/cJSON/cJSON.c **** 
 257:/home/xingli/share/1205tiny/cJSON/cJSON.c **** /* check if the given size is left to read in a given parse buffer (starting with 1) */
 258:/home/xingli/share/1205tiny/cJSON/cJSON.c **** #define can_read(buffer, size) ((buffer != NULL) && (((buffer)->offset + size) <= (buffer)->length)
 259:/home/xingli/share/1205tiny/cJSON/cJSON.c **** /* check if the buffer can be accessed at the given index (starting with 0) */
 260:/home/xingli/share/1205tiny/cJSON/cJSON.c **** #define can_access_at_index(buffer, index) ((buffer != NULL) && (((buffer)->offset + index) < (buff
 261:/home/xingli/share/1205tiny/cJSON/cJSON.c **** #define cannot_access_at_index(buffer, index) (!can_access_at_index(buffer, index))
 262:/home/xingli/share/1205tiny/cJSON/cJSON.c **** /* get a pointer to the buffer at the position */
 263:/home/xingli/share/1205tiny/cJSON/cJSON.c **** #define buffer_at_offset(buffer) ((buffer)->content + (buffer)->offset)
 264:/home/xingli/share/1205tiny/cJSON/cJSON.c **** 
GAS LISTING /tmp/ccabgRKQ.s 			page 19


 265:/home/xingli/share/1205tiny/cJSON/cJSON.c **** /* Parse the input text to generate a number, and populate the result into item. */
 266:/home/xingli/share/1205tiny/cJSON/cJSON.c **** static cJSON_bool parse_number(cJSON * const item, parse_buffer * const input_buffer)
 267:/home/xingli/share/1205tiny/cJSON/cJSON.c **** {
 655              		.loc 1 267 1
 656              		.cfi_startproc
 657 0000 F30F1EFA 		endbr64
 658 0004 55       		pushq	%rbp
 659              	.LCFI27:
 660              		.cfi_def_cfa_offset 16
 661              		.cfi_offset 6, -16
 662 0005 4889E5   		movq	%rsp, %rbp
 663              	.LCFI28:
 664              		.cfi_def_cfa_register 6
 665 0008 4883C480 		addq	$-128, %rsp
 666 000c 48897D88 		movq	%rdi, -120(%rbp)
 667 0010 48897580 		movq	%rsi, -128(%rbp)
 668              		.loc 1 267 1
 669 0014 64488B04 		movq	%fs:40, %rax
 669      25280000 
 669      00
 670 001d 488945F8 		movq	%rax, -8(%rbp)
 671 0021 31C0     		xorl	%eax, %eax
 268:/home/xingli/share/1205tiny/cJSON/cJSON.c ****     double number = 0;
 672              		.loc 1 268 12
 673 0023 660FEFC0 		pxor	%xmm0, %xmm0
 674 0027 F20F1145 		movsd	%xmm0, -88(%rbp)
 674      A8
 269:/home/xingli/share/1205tiny/cJSON/cJSON.c ****     unsigned char *after_end = NULL;
 675              		.loc 1 269 20
 676 002c 48C74598 		movq	$0, -104(%rbp)
 676      00000000 
 270:/home/xingli/share/1205tiny/cJSON/cJSON.c ****     unsigned char number_c_string[64];
 271:/home/xingli/share/1205tiny/cJSON/cJSON.c ****     unsigned char decimal_point = get_decimal_point();
 677              		.loc 1 271 35
 678 0034 E8000000 		call	get_decimal_point
 678      00
 679 0039 884597   		movb	%al, -105(%rbp)
 272:/home/xingli/share/1205tiny/cJSON/cJSON.c ****     size_t i = 0;
 680              		.loc 1 272 12
 681 003c 48C745A0 		movq	$0, -96(%rbp)
 681      00000000 
 273:/home/xingli/share/1205tiny/cJSON/cJSON.c **** 
 274:/home/xingli/share/1205tiny/cJSON/cJSON.c ****     if ((input_buffer == NULL) || (input_buffer->content == NULL))
 682              		.loc 1 274 8
 683 0044 48837D80 		cmpq	$0, -128(%rbp)
 683      00
 684 0049 740C     		je	.L46
 685              		.loc 1 274 48 discriminator 1
 686 004b 488B4580 		movq	-128(%rbp), %rax
 687 004f 488B00   		movq	(%rax), %rax
 688              		.loc 1 274 32 discriminator 1
 689 0052 4885C0   		testq	%rax, %rax
 690 0055 750A     		jne	.L47
 691              	.L46:
 275:/home/xingli/share/1205tiny/cJSON/cJSON.c ****     {
 276:/home/xingli/share/1205tiny/cJSON/cJSON.c ****         return false;
 692              		.loc 1 276 16
GAS LISTING /tmp/ccabgRKQ.s 			page 20


 693 0057 B8000000 		movl	$0, %eax
 693      00
 694 005c E9AC0100 		jmp	.L64
 694      00
 695              	.L47:
 277:/home/xingli/share/1205tiny/cJSON/cJSON.c ****     }
 278:/home/xingli/share/1205tiny/cJSON/cJSON.c **** 
 279:/home/xingli/share/1205tiny/cJSON/cJSON.c ****     /* copy the number into a temporary buffer and replace '.' with the decimal point
 280:/home/xingli/share/1205tiny/cJSON/cJSON.c ****      * of the current locale (for strtod)
 281:/home/xingli/share/1205tiny/cJSON/cJSON.c ****      * This also takes care of '\0' not necessarily being available for marking the end of the inpu
 282:/home/xingli/share/1205tiny/cJSON/cJSON.c ****     for (i = 0; (i < (sizeof(number_c_string) - 1)) && can_access_at_index(input_buffer, i); i++)
 696              		.loc 1 282 12
 697 0061 48C745A0 		movq	$0, -96(%rbp)
 697      00000000 
 698              		.loc 1 282 5
 699 0069 E9A30000 		jmp	.L49
 699      00
 700              	.L57:
 283:/home/xingli/share/1205tiny/cJSON/cJSON.c ****     {
 284:/home/xingli/share/1205tiny/cJSON/cJSON.c ****         switch (buffer_at_offset(input_buffer)[i])
 701              		.loc 1 284 17
 702 006e 488B4580 		movq	-128(%rbp), %rax
 703 0072 488B10   		movq	(%rax), %rdx
 704 0075 488B4580 		movq	-128(%rbp), %rax
 705 0079 488B4810 		movq	16(%rax), %rcx
 706              		.loc 1 284 47
 707 007d 488B45A0 		movq	-96(%rbp), %rax
 708 0081 4801C8   		addq	%rcx, %rax
 709 0084 4801D0   		addq	%rdx, %rax
 710 0087 0FB600   		movzbl	(%rax), %eax
 711 008a 0FB6C0   		movzbl	%al, %eax
 712              		.loc 1 284 9
 713 008d 83F845   		cmpl	$69, %eax
 714 0090 7F38     		jg	.L50
 715 0092 83F82B   		cmpl	$43, %eax
 716 0095 0F8CA600 		jl	.L70
 716      0000
 717 009b 83E82B   		subl	$43, %eax
 718 009e 83F81A   		cmpl	$26, %eax
 719 00a1 0F879A00 		ja	.L70
 719      0000
 720 00a7 89C0     		movl	%eax, %eax
 721 00a9 488D1485 		leaq	0(,%rax,4), %rdx
 721      00000000 
 722 00b1 488D0500 		leaq	.L53(%rip), %rax
 722      000000
 723 00b8 8B0402   		movl	(%rdx,%rax), %eax
 724 00bb 4898     		cltq
 725 00bd 488D1500 		leaq	.L53(%rip), %rdx
 725      000000
 726 00c4 4801D0   		addq	%rdx, %rax
 727 00c7 3EFFE0   		notrack jmp	*%rax
 728              		.section	.rodata.parse_number,"a",@progbits
 729              		.align 4
 730              		.align 4
 731              	.L53:
 732 0000 00000000 		.long	.L52-.L53
GAS LISTING /tmp/ccabgRKQ.s 			page 21


 733 0004 00000000 		.long	.L70-.L53
 734 0008 00000000 		.long	.L52-.L53
 735 000c 00000000 		.long	.L54-.L53
 736 0010 00000000 		.long	.L70-.L53
 737 0014 00000000 		.long	.L52-.L53
 738 0018 00000000 		.long	.L52-.L53
 739 001c 00000000 		.long	.L52-.L53
 740 0020 00000000 		.long	.L52-.L53
 741 0024 00000000 		.long	.L52-.L53
 742 0028 00000000 		.long	.L52-.L53
 743 002c 00000000 		.long	.L52-.L53
 744 0030 00000000 		.long	.L52-.L53
 745 0034 00000000 		.long	.L52-.L53
 746 0038 00000000 		.long	.L52-.L53
 747 003c 00000000 		.long	.L70-.L53
 748 0040 00000000 		.long	.L70-.L53
 749 0044 00000000 		.long	.L70-.L53
 750 0048 00000000 		.long	.L70-.L53
 751 004c 00000000 		.long	.L70-.L53
 752 0050 00000000 		.long	.L70-.L53
 753 0054 00000000 		.long	.L70-.L53
 754 0058 00000000 		.long	.L70-.L53
 755 005c 00000000 		.long	.L70-.L53
 756 0060 00000000 		.long	.L70-.L53
 757 0064 00000000 		.long	.L70-.L53
 758 0068 00000000 		.long	.L52-.L53
 759              		.section	.text.parse_number
 760              	.L50:
 761 00ca 83F865   		cmpl	$101, %eax
 762 00cd 7572     		jne	.L70
 763              	.L52:
 285:/home/xingli/share/1205tiny/cJSON/cJSON.c ****         {
 286:/home/xingli/share/1205tiny/cJSON/cJSON.c ****             case '0':
 287:/home/xingli/share/1205tiny/cJSON/cJSON.c ****             case '1':
 288:/home/xingli/share/1205tiny/cJSON/cJSON.c ****             case '2':
 289:/home/xingli/share/1205tiny/cJSON/cJSON.c ****             case '3':
 290:/home/xingli/share/1205tiny/cJSON/cJSON.c ****             case '4':
 291:/home/xingli/share/1205tiny/cJSON/cJSON.c ****             case '5':
 292:/home/xingli/share/1205tiny/cJSON/cJSON.c ****             case '6':
 293:/home/xingli/share/1205tiny/cJSON/cJSON.c ****             case '7':
 294:/home/xingli/share/1205tiny/cJSON/cJSON.c ****             case '8':
 295:/home/xingli/share/1205tiny/cJSON/cJSON.c ****             case '9':
 296:/home/xingli/share/1205tiny/cJSON/cJSON.c ****             case '+':
 297:/home/xingli/share/1205tiny/cJSON/cJSON.c ****             case '-':
 298:/home/xingli/share/1205tiny/cJSON/cJSON.c ****             case 'e':
 299:/home/xingli/share/1205tiny/cJSON/cJSON.c ****             case 'E':
 300:/home/xingli/share/1205tiny/cJSON/cJSON.c ****                 number_c_string[i] = buffer_at_offset(input_buffer)[i];
 764              		.loc 1 300 38
 765 00cf 488B4580 		movq	-128(%rbp), %rax
 766 00d3 488B10   		movq	(%rax), %rdx
 767 00d6 488B4580 		movq	-128(%rbp), %rax
 768 00da 488B4810 		movq	16(%rax), %rcx
 769              		.loc 1 300 68
 770 00de 488B45A0 		movq	-96(%rbp), %rax
 771 00e2 4801C8   		addq	%rcx, %rax
 772 00e5 4801D0   		addq	%rdx, %rax
 773 00e8 0FB600   		movzbl	(%rax), %eax
GAS LISTING /tmp/ccabgRKQ.s 			page 22


 774              		.loc 1 300 36
 775 00eb 488D4DB0 		leaq	-80(%rbp), %rcx
 776 00ef 488B55A0 		movq	-96(%rbp), %rdx
 777 00f3 4801CA   		addq	%rcx, %rdx
 778 00f6 8802     		movb	%al, (%rdx)
 301:/home/xingli/share/1205tiny/cJSON/cJSON.c ****                 break;
 779              		.loc 1 301 17
 780 00f8 EB12     		jmp	.L55
 781              	.L54:
 302:/home/xingli/share/1205tiny/cJSON/cJSON.c **** 
 303:/home/xingli/share/1205tiny/cJSON/cJSON.c ****             case '.':
 304:/home/xingli/share/1205tiny/cJSON/cJSON.c ****                 number_c_string[i] = decimal_point;
 782              		.loc 1 304 36
 783 00fa 488D55B0 		leaq	-80(%rbp), %rdx
 784 00fe 488B45A0 		movq	-96(%rbp), %rax
 785 0102 4801C2   		addq	%rax, %rdx
 786 0105 0FB64597 		movzbl	-105(%rbp), %eax
 787 0109 8802     		movb	%al, (%rdx)
 305:/home/xingli/share/1205tiny/cJSON/cJSON.c ****                 break;
 788              		.loc 1 305 17
 789 010b 90       		nop
 790              	.L55:
 282:/home/xingli/share/1205tiny/cJSON/cJSON.c ****     {
 791              		.loc 1 282 95 discriminator 2
 792 010c 488345A0 		addq	$1, -96(%rbp)
 792      01
 793              	.L49:
 282:/home/xingli/share/1205tiny/cJSON/cJSON.c ****     {
 794              		.loc 1 282 5 discriminator 1
 795 0111 48837DA0 		cmpq	$62, -96(%rbp)
 795      3E
 796 0116 772C     		ja	.L71
 282:/home/xingli/share/1205tiny/cJSON/cJSON.c ****     {
 797              		.loc 1 282 53 discriminator 3
 798 0118 48837D80 		cmpq	$0, -128(%rbp)
 798      00
 799 011d 7425     		je	.L71
 282:/home/xingli/share/1205tiny/cJSON/cJSON.c ****     {
 800              		.loc 1 282 56 discriminator 4
 801 011f 488B4580 		movq	-128(%rbp), %rax
 802 0123 488B5010 		movq	16(%rax), %rdx
 803 0127 488B45A0 		movq	-96(%rbp), %rax
 804 012b 4801C2   		addq	%rax, %rdx
 805 012e 488B4580 		movq	-128(%rbp), %rax
 806 0132 488B4008 		movq	8(%rax), %rax
 807 0136 4839C2   		cmpq	%rax, %rdx
 808 0139 0F822FFF 		jb	.L57
 808      FFFF
 306:/home/xingli/share/1205tiny/cJSON/cJSON.c **** 
 307:/home/xingli/share/1205tiny/cJSON/cJSON.c ****             default:
 308:/home/xingli/share/1205tiny/cJSON/cJSON.c ****                 goto loop_end;
 309:/home/xingli/share/1205tiny/cJSON/cJSON.c ****         }
 310:/home/xingli/share/1205tiny/cJSON/cJSON.c ****     }
 311:/home/xingli/share/1205tiny/cJSON/cJSON.c **** loop_end:
 809              		.loc 1 311 1
 810 013f EB03     		jmp	.L71
 811              	.L70:
GAS LISTING /tmp/ccabgRKQ.s 			page 23


 308:/home/xingli/share/1205tiny/cJSON/cJSON.c ****         }
 812              		.loc 1 308 17
 813 0141 90       		nop
 814 0142 EB01     		jmp	.L56
 815              	.L71:
 816              		.loc 1 311 1
 817 0144 90       		nop
 818              	.L56:
 312:/home/xingli/share/1205tiny/cJSON/cJSON.c ****     number_c_string[i] = '\0';
 819              		.loc 1 312 24
 820 0145 488D55B0 		leaq	-80(%rbp), %rdx
 821 0149 488B45A0 		movq	-96(%rbp), %rax
 822 014d 4801D0   		addq	%rdx, %rax
 823 0150 C60000   		movb	$0, (%rax)
 313:/home/xingli/share/1205tiny/cJSON/cJSON.c **** 
 314:/home/xingli/share/1205tiny/cJSON/cJSON.c ****     number = strtod((const char*)number_c_string, (char**)&after_end);
 824              		.loc 1 314 14
 825 0153 488D5598 		leaq	-104(%rbp), %rdx
 826 0157 488D45B0 		leaq	-80(%rbp), %rax
 827 015b 4889D6   		movq	%rdx, %rsi
 828 015e 4889C7   		movq	%rax, %rdi
 829 0161 E8000000 		call	strtod@PLT
 829      00
 830 0166 66480F7E 		movq	%xmm0, %rax
 830      C0
 831 016b 488945A8 		movq	%rax, -88(%rbp)
 315:/home/xingli/share/1205tiny/cJSON/cJSON.c ****     if (number_c_string == after_end)
 832              		.loc 1 315 25
 833 016f 488B5598 		movq	-104(%rbp), %rdx
 834              		.loc 1 315 8
 835 0173 488D45B0 		leaq	-80(%rbp), %rax
 836 0177 4839C2   		cmpq	%rax, %rdx
 837 017a 750A     		jne	.L58
 316:/home/xingli/share/1205tiny/cJSON/cJSON.c ****     {
 317:/home/xingli/share/1205tiny/cJSON/cJSON.c ****         return false; /* parse_error */
 838              		.loc 1 317 16
 839 017c B8000000 		movl	$0, %eax
 839      00
 840 0181 E9870000 		jmp	.L64
 840      00
 841              	.L58:
 318:/home/xingli/share/1205tiny/cJSON/cJSON.c ****     }
 319:/home/xingli/share/1205tiny/cJSON/cJSON.c **** 
 320:/home/xingli/share/1205tiny/cJSON/cJSON.c ****     item->valuedouble = number;
 842              		.loc 1 320 23
 843 0186 488B4588 		movq	-120(%rbp), %rax
 844 018a F20F1045 		movsd	-88(%rbp), %xmm0
 844      A8
 845 018f F20F1140 		movsd	%xmm0, 48(%rax)
 845      30
 321:/home/xingli/share/1205tiny/cJSON/cJSON.c **** 
 322:/home/xingli/share/1205tiny/cJSON/cJSON.c ****     /* use saturation in case of overflow */
 323:/home/xingli/share/1205tiny/cJSON/cJSON.c ****     if (number >= INT_MAX)
 846              		.loc 1 323 8
 847 0194 F20F1045 		movsd	-88(%rbp), %xmm0
 847      A8
 848 0199 660F2F05 		comisd	.LC2(%rip), %xmm0
GAS LISTING /tmp/ccabgRKQ.s 			page 24


 848      00000000 
 849 01a1 720D     		jb	.L68
 324:/home/xingli/share/1205tiny/cJSON/cJSON.c ****     {
 325:/home/xingli/share/1205tiny/cJSON/cJSON.c ****         item->valueint = INT_MAX;
 850              		.loc 1 325 24
 851 01a3 488B4588 		movq	-120(%rbp), %rax
 852 01a7 C74028FF 		movl	$2147483647, 40(%rax)
 852      FFFF7F
 853 01ae EB2C     		jmp	.L61
 854              	.L68:
 326:/home/xingli/share/1205tiny/cJSON/cJSON.c ****     }
 327:/home/xingli/share/1205tiny/cJSON/cJSON.c ****     else if (number <= INT_MIN)
 855              		.loc 1 327 13
 856 01b0 F20F1005 		movsd	.LC3(%rip), %xmm0
 856      00000000 
 857 01b8 660F2F45 		comisd	-88(%rbp), %xmm0
 857      A8
 858 01bd 720D     		jb	.L69
 328:/home/xingli/share/1205tiny/cJSON/cJSON.c ****     {
 329:/home/xingli/share/1205tiny/cJSON/cJSON.c ****         item->valueint = INT_MIN;
 859              		.loc 1 329 24
 860 01bf 488B4588 		movq	-120(%rbp), %rax
 861 01c3 C7402800 		movl	$-2147483648, 40(%rax)
 861      000080
 862 01ca EB10     		jmp	.L61
 863              	.L69:
 330:/home/xingli/share/1205tiny/cJSON/cJSON.c ****     }
 331:/home/xingli/share/1205tiny/cJSON/cJSON.c ****     else
 332:/home/xingli/share/1205tiny/cJSON/cJSON.c ****     {
 333:/home/xingli/share/1205tiny/cJSON/cJSON.c ****         item->valueint = (int)number;
 864              		.loc 1 333 26
 865 01cc F20F1045 		movsd	-88(%rbp), %xmm0
 865      A8
 866 01d1 F20F2CD0 		cvttsd2sil	%xmm0, %edx
 867              		.loc 1 333 24
 868 01d5 488B4588 		movq	-120(%rbp), %rax
 869 01d9 895028   		movl	%edx, 40(%rax)
 870              	.L61:
 334:/home/xingli/share/1205tiny/cJSON/cJSON.c ****     }
 335:/home/xingli/share/1205tiny/cJSON/cJSON.c **** 
 336:/home/xingli/share/1205tiny/cJSON/cJSON.c ****     item->type = cJSON_Number;
 871              		.loc 1 336 16
 872 01dc 488B4588 		movq	-120(%rbp), %rax
 873 01e0 C7401808 		movl	$8, 24(%rax)
 873      000000
 337:/home/xingli/share/1205tiny/cJSON/cJSON.c **** 
 338:/home/xingli/share/1205tiny/cJSON/cJSON.c ****     input_buffer->offset += (size_t)(after_end - number_c_string);
 874              		.loc 1 338 26
 875 01e7 488B4580 		movq	-128(%rbp), %rax
 876 01eb 488B4010 		movq	16(%rax), %rax
 877              		.loc 1 338 48
 878 01ef 488B4D98 		movq	-104(%rbp), %rcx
 879 01f3 488D55B0 		leaq	-80(%rbp), %rdx
 880 01f7 4829D1   		subq	%rdx, %rcx
 881 01fa 4889CA   		movq	%rcx, %rdx
 882              		.loc 1 338 26
 883 01fd 4801C2   		addq	%rax, %rdx
GAS LISTING /tmp/ccabgRKQ.s 			page 25


 884 0200 488B4580 		movq	-128(%rbp), %rax
 885 0204 48895010 		movq	%rdx, 16(%rax)
 339:/home/xingli/share/1205tiny/cJSON/cJSON.c ****     return true;
 886              		.loc 1 339 12
 887 0208 B8010000 		movl	$1, %eax
 887      00
 888              	.L64:
 340:/home/xingli/share/1205tiny/cJSON/cJSON.c **** }
 889              		.loc 1 340 1 discriminator 1
 890 020d 488B75F8 		movq	-8(%rbp), %rsi
 891 0211 64483334 		xorq	%fs:40, %rsi
 891      25280000 
 891      00
 892 021a 7405     		je	.L65
 893              		.loc 1 340 1 is_stmt 0
 894 021c E8000000 		call	__stack_chk_fail@PLT
 894      00
 895              	.L65:
 896 0221 C9       		leave
 897              	.LCFI29:
 898              		.cfi_def_cfa 7, 8
 899 0222 C3       		ret
 900              		.cfi_endproc
 901              	.LFE15:
 903              		.section	.text.cJSON_SetNumberHelper,"ax",@progbits
 904              		.globl	cJSON_SetNumberHelper
 906              	cJSON_SetNumberHelper:
 907              	.LFB16:
 341:/home/xingli/share/1205tiny/cJSON/cJSON.c **** 
 342:/home/xingli/share/1205tiny/cJSON/cJSON.c **** /* don't ask me, but the original cJSON_SetNumberValue returns an integer or double */
 343:/home/xingli/share/1205tiny/cJSON/cJSON.c **** CJSON_PUBLIC(double) cJSON_SetNumberHelper(cJSON *object, double number)
 344:/home/xingli/share/1205tiny/cJSON/cJSON.c **** {
 908              		.loc 1 344 1 is_stmt 1
 909              		.cfi_startproc
 910 0000 F30F1EFA 		endbr64
 911 0004 55       		pushq	%rbp
 912              	.LCFI30:
 913              		.cfi_def_cfa_offset 16
 914              		.cfi_offset 6, -16
 915 0005 4889E5   		movq	%rsp, %rbp
 916              	.LCFI31:
 917              		.cfi_def_cfa_register 6
 918 0008 4883EC20 		subq	$32, %rsp
 919 000c 48897DE8 		movq	%rdi, -24(%rbp)
 920 0010 F20F1145 		movsd	%xmm0, -32(%rbp)
 920      E0
 921              		.loc 1 344 1
 922 0015 64488B04 		movq	%fs:40, %rax
 922      25280000 
 922      00
 923 001e 488945F8 		movq	%rax, -8(%rbp)
 924 0022 31C0     		xorl	%eax, %eax
 345:/home/xingli/share/1205tiny/cJSON/cJSON.c ****     if (number >= INT_MAX)
 925              		.loc 1 345 8
 926 0024 F20F1045 		movsd	-32(%rbp), %xmm0
 926      E0
 927 0029 660F2F05 		comisd	.LC2(%rip), %xmm0
GAS LISTING /tmp/ccabgRKQ.s 			page 26


 927      00000000 
 928 0031 720D     		jb	.L82
 346:/home/xingli/share/1205tiny/cJSON/cJSON.c ****     {
 347:/home/xingli/share/1205tiny/cJSON/cJSON.c ****         object->valueint = INT_MAX;
 929              		.loc 1 347 26
 930 0033 488B45E8 		movq	-24(%rbp), %rax
 931 0037 C74028FF 		movl	$2147483647, 40(%rax)
 931      FFFF7F
 932 003e EB2C     		jmp	.L75
 933              	.L82:
 348:/home/xingli/share/1205tiny/cJSON/cJSON.c ****     }
 349:/home/xingli/share/1205tiny/cJSON/cJSON.c ****     else if (number <= INT_MIN)
 934              		.loc 1 349 13
 935 0040 F20F1005 		movsd	.LC3(%rip), %xmm0
 935      00000000 
 936 0048 660F2F45 		comisd	-32(%rbp), %xmm0
 936      E0
 937 004d 720D     		jb	.L83
 350:/home/xingli/share/1205tiny/cJSON/cJSON.c ****     {
 351:/home/xingli/share/1205tiny/cJSON/cJSON.c ****         object->valueint = INT_MIN;
 938              		.loc 1 351 26
 939 004f 488B45E8 		movq	-24(%rbp), %rax
 940 0053 C7402800 		movl	$-2147483648, 40(%rax)
 940      000080
 941 005a EB10     		jmp	.L75
 942              	.L83:
 352:/home/xingli/share/1205tiny/cJSON/cJSON.c ****     }
 353:/home/xingli/share/1205tiny/cJSON/cJSON.c ****     else
 354:/home/xingli/share/1205tiny/cJSON/cJSON.c ****     {
 355:/home/xingli/share/1205tiny/cJSON/cJSON.c ****         object->valueint = (int)number;
 943              		.loc 1 355 28
 944 005c F20F1045 		movsd	-32(%rbp), %xmm0
 944      E0
 945 0061 F20F2CD0 		cvttsd2sil	%xmm0, %edx
 946              		.loc 1 355 26
 947 0065 488B45E8 		movq	-24(%rbp), %rax
 948 0069 895028   		movl	%edx, 40(%rax)
 949              	.L75:
 356:/home/xingli/share/1205tiny/cJSON/cJSON.c ****     }
 357:/home/xingli/share/1205tiny/cJSON/cJSON.c **** 
 358:/home/xingli/share/1205tiny/cJSON/cJSON.c ****     return object->valuedouble = number;
 950              		.loc 1 358 32
 951 006c 488B45E8 		movq	-24(%rbp), %rax
 952 0070 F20F1045 		movsd	-32(%rbp), %xmm0
 952      E0
 953 0075 F20F1140 		movsd	%xmm0, 48(%rax)
 953      30
 954 007a 488B45E8 		movq	-24(%rbp), %rax
 955 007e F20F1040 		movsd	48(%rax), %xmm0
 955      30
 359:/home/xingli/share/1205tiny/cJSON/cJSON.c **** }
 956              		.loc 1 359 1
 957 0083 488B45F8 		movq	-8(%rbp), %rax
 958 0087 64483304 		xorq	%fs:40, %rax
 958      25280000 
 958      00
 959 0090 7405     		je	.L79
GAS LISTING /tmp/ccabgRKQ.s 			page 27


 960 0092 E8000000 		call	__stack_chk_fail@PLT
 960      00
 961              	.L79:
 962 0097 C9       		leave
 963              	.LCFI32:
 964              		.cfi_def_cfa 7, 8
 965 0098 C3       		ret
 966              		.cfi_endproc
 967              	.LFE16:
 969              		.section	.text.ensure,"ax",@progbits
 971              	ensure:
 972              	.LFB17:
 360:/home/xingli/share/1205tiny/cJSON/cJSON.c **** 
 361:/home/xingli/share/1205tiny/cJSON/cJSON.c **** typedef struct
 362:/home/xingli/share/1205tiny/cJSON/cJSON.c **** {
 363:/home/xingli/share/1205tiny/cJSON/cJSON.c ****     unsigned char *buffer;
 364:/home/xingli/share/1205tiny/cJSON/cJSON.c ****     size_t length;
 365:/home/xingli/share/1205tiny/cJSON/cJSON.c ****     size_t offset;
 366:/home/xingli/share/1205tiny/cJSON/cJSON.c ****     size_t depth; /* current nesting depth (for formatted printing) */
 367:/home/xingli/share/1205tiny/cJSON/cJSON.c ****     cJSON_bool noalloc;
 368:/home/xingli/share/1205tiny/cJSON/cJSON.c ****     cJSON_bool format; /* is this print a formatted print */
 369:/home/xingli/share/1205tiny/cJSON/cJSON.c ****     internal_hooks hooks;
 370:/home/xingli/share/1205tiny/cJSON/cJSON.c **** } printbuffer;
 371:/home/xingli/share/1205tiny/cJSON/cJSON.c **** 
 372:/home/xingli/share/1205tiny/cJSON/cJSON.c **** /* realloc printbuffer if necessary to have at least "needed" bytes more */
 373:/home/xingli/share/1205tiny/cJSON/cJSON.c **** static unsigned char* ensure(printbuffer * const p, size_t needed)
 374:/home/xingli/share/1205tiny/cJSON/cJSON.c **** {
 973              		.loc 1 374 1
 974              		.cfi_startproc
 975 0000 F30F1EFA 		endbr64
 976 0004 55       		pushq	%rbp
 977              	.LCFI33:
 978              		.cfi_def_cfa_offset 16
 979              		.cfi_offset 6, -16
 980 0005 4889E5   		movq	%rsp, %rbp
 981              	.LCFI34:
 982              		.cfi_def_cfa_register 6
 983 0008 4883EC30 		subq	$48, %rsp
 984 000c 48897DD8 		movq	%rdi, -40(%rbp)
 985 0010 488975D0 		movq	%rsi, -48(%rbp)
 986              		.loc 1 374 1
 987 0014 64488B04 		movq	%fs:40, %rax
 987      25280000 
 987      00
 988 001d 488945F8 		movq	%rax, -8(%rbp)
 989 0021 31C0     		xorl	%eax, %eax
 375:/home/xingli/share/1205tiny/cJSON/cJSON.c ****     unsigned char *newbuffer = NULL;
 990              		.loc 1 375 20
 991 0023 48C745E8 		movq	$0, -24(%rbp)
 991      00000000 
 376:/home/xingli/share/1205tiny/cJSON/cJSON.c ****     size_t newsize = 0;
 992              		.loc 1 376 12
 993 002b 48C745F0 		movq	$0, -16(%rbp)
 993      00000000 
 377:/home/xingli/share/1205tiny/cJSON/cJSON.c **** 
 378:/home/xingli/share/1205tiny/cJSON/cJSON.c ****     if ((p == NULL) || (p->buffer == NULL))
 994              		.loc 1 378 8
GAS LISTING /tmp/ccabgRKQ.s 			page 28


 995 0033 48837DD8 		cmpq	$0, -40(%rbp)
 995      00
 996 0038 740C     		je	.L85
 997              		.loc 1 378 26 discriminator 1
 998 003a 488B45D8 		movq	-40(%rbp), %rax
 999 003e 488B00   		movq	(%rax), %rax
 1000              		.loc 1 378 21 discriminator 1
 1001 0041 4885C0   		testq	%rax, %rax
 1002 0044 750A     		jne	.L86
 1003              	.L85:
 379:/home/xingli/share/1205tiny/cJSON/cJSON.c ****     {
 380:/home/xingli/share/1205tiny/cJSON/cJSON.c ****         return NULL;
 1004              		.loc 1 380 16
 1005 0046 B8000000 		movl	$0, %eax
 1005      00
 1006 004b E9E30100 		jmp	.L87
 1006      00
 1007              	.L86:
 381:/home/xingli/share/1205tiny/cJSON/cJSON.c ****     }
 382:/home/xingli/share/1205tiny/cJSON/cJSON.c **** 
 383:/home/xingli/share/1205tiny/cJSON/cJSON.c ****     if ((p->length > 0) && (p->offset >= p->length))
 1008              		.loc 1 383 11
 1009 0050 488B45D8 		movq	-40(%rbp), %rax
 1010 0054 488B4008 		movq	8(%rax), %rax
 1011              		.loc 1 383 8
 1012 0058 4885C0   		testq	%rax, %rax
 1013 005b 741F     		je	.L88
 1014              		.loc 1 383 30 discriminator 1
 1015 005d 488B45D8 		movq	-40(%rbp), %rax
 1016 0061 488B5010 		movq	16(%rax), %rdx
 1017              		.loc 1 383 43 discriminator 1
 1018 0065 488B45D8 		movq	-40(%rbp), %rax
 1019 0069 488B4008 		movq	8(%rax), %rax
 1020              		.loc 1 383 25 discriminator 1
 1021 006d 4839C2   		cmpq	%rax, %rdx
 1022 0070 720A     		jb	.L88
 384:/home/xingli/share/1205tiny/cJSON/cJSON.c ****     {
 385:/home/xingli/share/1205tiny/cJSON/cJSON.c ****         /* make sure that offset is valid */
 386:/home/xingli/share/1205tiny/cJSON/cJSON.c ****         return NULL;
 1023              		.loc 1 386 16
 1024 0072 B8000000 		movl	$0, %eax
 1024      00
 1025 0077 E9B70100 		jmp	.L87
 1025      00
 1026              	.L88:
 387:/home/xingli/share/1205tiny/cJSON/cJSON.c ****     }
 388:/home/xingli/share/1205tiny/cJSON/cJSON.c **** 
 389:/home/xingli/share/1205tiny/cJSON/cJSON.c ****     if (needed > INT_MAX)
 1027              		.loc 1 389 8
 1028 007c B8000000 		movl	$2147483648, %eax
 1028      80
 1029 0081 483945D0 		cmpq	%rax, -48(%rbp)
 1030 0085 720A     		jb	.L89
 390:/home/xingli/share/1205tiny/cJSON/cJSON.c ****     {
 391:/home/xingli/share/1205tiny/cJSON/cJSON.c ****         /* sizes bigger than INT_MAX are currently not supported */
 392:/home/xingli/share/1205tiny/cJSON/cJSON.c ****         return NULL;
 1031              		.loc 1 392 16
GAS LISTING /tmp/ccabgRKQ.s 			page 29


 1032 0087 B8000000 		movl	$0, %eax
 1032      00
 1033 008c E9A20100 		jmp	.L87
 1033      00
 1034              	.L89:
 393:/home/xingli/share/1205tiny/cJSON/cJSON.c ****     }
 394:/home/xingli/share/1205tiny/cJSON/cJSON.c **** 
 395:/home/xingli/share/1205tiny/cJSON/cJSON.c ****     needed += p->offset + 1;
 1035              		.loc 1 395 16
 1036 0091 488B45D8 		movq	-40(%rbp), %rax
 1037 0095 488B5010 		movq	16(%rax), %rdx
 1038              		.loc 1 395 12
 1039 0099 488B45D0 		movq	-48(%rbp), %rax
 1040 009d 4801D0   		addq	%rdx, %rax
 1041 00a0 4883C001 		addq	$1, %rax
 1042 00a4 488945D0 		movq	%rax, -48(%rbp)
 396:/home/xingli/share/1205tiny/cJSON/cJSON.c ****     if (needed <= p->length)
 1043              		.loc 1 396 20
 1044 00a8 488B45D8 		movq	-40(%rbp), %rax
 1045 00ac 488B4008 		movq	8(%rax), %rax
 1046              		.loc 1 396 8
 1047 00b0 483945D0 		cmpq	%rax, -48(%rbp)
 1048 00b4 7717     		ja	.L90
 397:/home/xingli/share/1205tiny/cJSON/cJSON.c ****     {
 398:/home/xingli/share/1205tiny/cJSON/cJSON.c ****         return p->buffer + p->offset;
 1049              		.loc 1 398 17
 1050 00b6 488B45D8 		movq	-40(%rbp), %rax
 1051 00ba 488B10   		movq	(%rax), %rdx
 1052              		.loc 1 398 29
 1053 00bd 488B45D8 		movq	-40(%rbp), %rax
 1054 00c1 488B4010 		movq	16(%rax), %rax
 1055              		.loc 1 398 26
 1056 00c5 4801D0   		addq	%rdx, %rax
 1057 00c8 E9660100 		jmp	.L87
 1057      00
 1058              	.L90:
 399:/home/xingli/share/1205tiny/cJSON/cJSON.c ****     }
 400:/home/xingli/share/1205tiny/cJSON/cJSON.c **** 
 401:/home/xingli/share/1205tiny/cJSON/cJSON.c ****     if (p->noalloc) {
 1059              		.loc 1 401 10
 1060 00cd 488B45D8 		movq	-40(%rbp), %rax
 1061 00d1 8B4020   		movl	32(%rax), %eax
 1062              		.loc 1 401 8
 1063 00d4 85C0     		testl	%eax, %eax
 1064 00d6 740A     		je	.L91
 402:/home/xingli/share/1205tiny/cJSON/cJSON.c ****         return NULL;
 1065              		.loc 1 402 16
 1066 00d8 B8000000 		movl	$0, %eax
 1066      00
 1067 00dd E9510100 		jmp	.L87
 1067      00
 1068              	.L91:
 403:/home/xingli/share/1205tiny/cJSON/cJSON.c ****     }
 404:/home/xingli/share/1205tiny/cJSON/cJSON.c **** 
 405:/home/xingli/share/1205tiny/cJSON/cJSON.c ****     /* calculate new buffer size */
 406:/home/xingli/share/1205tiny/cJSON/cJSON.c ****     if (needed > (INT_MAX / 2))
 1069              		.loc 1 406 8
GAS LISTING /tmp/ccabgRKQ.s 			page 30


 1070 00e2 48817DD0 		cmpq	$1073741823, -48(%rbp)
 1070      FFFFFF3F 
 1071 00ea 761F     		jbe	.L92
 407:/home/xingli/share/1205tiny/cJSON/cJSON.c ****     {
 408:/home/xingli/share/1205tiny/cJSON/cJSON.c ****         /* overflow of int, use INT_MAX if possible */
 409:/home/xingli/share/1205tiny/cJSON/cJSON.c ****         if (needed <= INT_MAX)
 1072              		.loc 1 409 12
 1073 00ec B8000000 		movl	$2147483648, %eax
 1073      80
 1074 00f1 483945D0 		cmpq	%rax, -48(%rbp)
 1075 00f5 730A     		jnb	.L93
 410:/home/xingli/share/1205tiny/cJSON/cJSON.c ****         {
 411:/home/xingli/share/1205tiny/cJSON/cJSON.c ****             newsize = INT_MAX;
 1076              		.loc 1 411 21
 1077 00f7 48C745F0 		movq	$2147483647, -16(%rbp)
 1077      FFFFFF7F 
 1078 00ff EB15     		jmp	.L94
 1079              	.L93:
 412:/home/xingli/share/1205tiny/cJSON/cJSON.c ****         }
 413:/home/xingli/share/1205tiny/cJSON/cJSON.c ****         else
 414:/home/xingli/share/1205tiny/cJSON/cJSON.c ****         {
 415:/home/xingli/share/1205tiny/cJSON/cJSON.c ****             return NULL;
 1080              		.loc 1 415 20
 1081 0101 B8000000 		movl	$0, %eax
 1081      00
 1082 0106 E9280100 		jmp	.L87
 1082      00
 1083              	.L92:
 416:/home/xingli/share/1205tiny/cJSON/cJSON.c ****         }
 417:/home/xingli/share/1205tiny/cJSON/cJSON.c ****     }
 418:/home/xingli/share/1205tiny/cJSON/cJSON.c ****     else
 419:/home/xingli/share/1205tiny/cJSON/cJSON.c ****     {
 420:/home/xingli/share/1205tiny/cJSON/cJSON.c ****         newsize = needed * 2;
 1084              		.loc 1 420 17
 1085 010b 488B45D0 		movq	-48(%rbp), %rax
 1086 010f 4801C0   		addq	%rax, %rax
 1087 0112 488945F0 		movq	%rax, -16(%rbp)
 1088              	.L94:
 421:/home/xingli/share/1205tiny/cJSON/cJSON.c ****     }
 422:/home/xingli/share/1205tiny/cJSON/cJSON.c **** 
 423:/home/xingli/share/1205tiny/cJSON/cJSON.c ****     if (p->hooks.reallocate != NULL)
 1089              		.loc 1 423 17
 1090 0116 488B45D8 		movq	-40(%rbp), %rax
 1091 011a 488B4038 		movq	56(%rax), %rax
 1092              		.loc 1 423 8
 1093 011e 4885C0   		testq	%rax, %rax
 1094 0121 745F     		je	.L95
 424:/home/xingli/share/1205tiny/cJSON/cJSON.c ****     {
 425:/home/xingli/share/1205tiny/cJSON/cJSON.c ****         /* reallocate with realloc if available */
 426:/home/xingli/share/1205tiny/cJSON/cJSON.c ****         newbuffer = (unsigned char*)p->hooks.reallocate(p->buffer, newsize);
 1095              		.loc 1 426 45
 1096 0123 488B45D8 		movq	-40(%rbp), %rax
 1097 0127 488B4838 		movq	56(%rax), %rcx
 1098              		.loc 1 426 58
 1099 012b 488B45D8 		movq	-40(%rbp), %rax
 1100 012f 488B00   		movq	(%rax), %rax
 1101              		.loc 1 426 37
GAS LISTING /tmp/ccabgRKQ.s 			page 31


 1102 0132 488B55F0 		movq	-16(%rbp), %rdx
 1103 0136 4889D6   		movq	%rdx, %rsi
 1104 0139 4889C7   		movq	%rax, %rdi
 1105 013c FFD1     		call	*%rcx
 1106              	.LVL5:
 1107 013e 488945E8 		movq	%rax, -24(%rbp)
 427:/home/xingli/share/1205tiny/cJSON/cJSON.c ****         if (newbuffer == NULL)
 1108              		.loc 1 427 12
 1109 0142 48837DE8 		cmpq	$0, -24(%rbp)
 1109      00
 1110 0147 0F85C000 		jne	.L96
 1110      0000
 428:/home/xingli/share/1205tiny/cJSON/cJSON.c ****         {
 429:/home/xingli/share/1205tiny/cJSON/cJSON.c ****             p->hooks.deallocate(p->buffer);
 1111              		.loc 1 429 21
 1112 014d 488B45D8 		movq	-40(%rbp), %rax
 1113 0151 488B5030 		movq	48(%rax), %rdx
 1114              		.loc 1 429 34
 1115 0155 488B45D8 		movq	-40(%rbp), %rax
 1116 0159 488B00   		movq	(%rax), %rax
 1117              		.loc 1 429 13
 1118 015c 4889C7   		movq	%rax, %rdi
 1119 015f FFD2     		call	*%rdx
 1120              	.LVL6:
 430:/home/xingli/share/1205tiny/cJSON/cJSON.c ****             p->length = 0;
 1121              		.loc 1 430 23
 1122 0161 488B45D8 		movq	-40(%rbp), %rax
 1123 0165 48C74008 		movq	$0, 8(%rax)
 1123      00000000 
 431:/home/xingli/share/1205tiny/cJSON/cJSON.c ****             p->buffer = NULL;
 1124              		.loc 1 431 23
 1125 016d 488B45D8 		movq	-40(%rbp), %rax
 1126 0171 48C70000 		movq	$0, (%rax)
 1126      000000
 432:/home/xingli/share/1205tiny/cJSON/cJSON.c **** 
 433:/home/xingli/share/1205tiny/cJSON/cJSON.c ****             return NULL;
 1127              		.loc 1 433 20
 1128 0178 B8000000 		movl	$0, %eax
 1128      00
 1129 017d E9B10000 		jmp	.L87
 1129      00
 1130              	.L95:
 434:/home/xingli/share/1205tiny/cJSON/cJSON.c ****         }
 435:/home/xingli/share/1205tiny/cJSON/cJSON.c ****     }
 436:/home/xingli/share/1205tiny/cJSON/cJSON.c ****     else
 437:/home/xingli/share/1205tiny/cJSON/cJSON.c ****     {
 438:/home/xingli/share/1205tiny/cJSON/cJSON.c ****         /* otherwise reallocate manually */
 439:/home/xingli/share/1205tiny/cJSON/cJSON.c ****         newbuffer = (unsigned char*)p->hooks.allocate(newsize);
 1131              		.loc 1 439 45
 1132 0182 488B45D8 		movq	-40(%rbp), %rax
 1133 0186 488B5028 		movq	40(%rax), %rdx
 1134              		.loc 1 439 37
 1135 018a 488B45F0 		movq	-16(%rbp), %rax
 1136 018e 4889C7   		movq	%rax, %rdi
 1137 0191 FFD2     		call	*%rdx
 1138              	.LVL7:
 1139 0193 488945E8 		movq	%rax, -24(%rbp)
GAS LISTING /tmp/ccabgRKQ.s 			page 32


 440:/home/xingli/share/1205tiny/cJSON/cJSON.c ****         if (!newbuffer)
 1140              		.loc 1 440 12
 1141 0197 48837DE8 		cmpq	$0, -24(%rbp)
 1141      00
 1142 019c 7532     		jne	.L97
 441:/home/xingli/share/1205tiny/cJSON/cJSON.c ****         {
 442:/home/xingli/share/1205tiny/cJSON/cJSON.c ****             p->hooks.deallocate(p->buffer);
 1143              		.loc 1 442 21
 1144 019e 488B45D8 		movq	-40(%rbp), %rax
 1145 01a2 488B5030 		movq	48(%rax), %rdx
 1146              		.loc 1 442 34
 1147 01a6 488B45D8 		movq	-40(%rbp), %rax
 1148 01aa 488B00   		movq	(%rax), %rax
 1149              		.loc 1 442 13
 1150 01ad 4889C7   		movq	%rax, %rdi
 1151 01b0 FFD2     		call	*%rdx
 1152              	.LVL8:
 443:/home/xingli/share/1205tiny/cJSON/cJSON.c ****             p->length = 0;
 1153              		.loc 1 443 23
 1154 01b2 488B45D8 		movq	-40(%rbp), %rax
 1155 01b6 48C74008 		movq	$0, 8(%rax)
 1155      00000000 
 444:/home/xingli/share/1205tiny/cJSON/cJSON.c ****             p->buffer = NULL;
 1156              		.loc 1 444 23
 1157 01be 488B45D8 		movq	-40(%rbp), %rax
 1158 01c2 48C70000 		movq	$0, (%rax)
 1158      000000
 445:/home/xingli/share/1205tiny/cJSON/cJSON.c **** 
 446:/home/xingli/share/1205tiny/cJSON/cJSON.c ****             return NULL;
 1159              		.loc 1 446 20
 1160 01c9 B8000000 		movl	$0, %eax
 1160      00
 1161 01ce EB63     		jmp	.L87
 1162              	.L97:
 447:/home/xingli/share/1205tiny/cJSON/cJSON.c ****         }
 448:/home/xingli/share/1205tiny/cJSON/cJSON.c ****         if (newbuffer)
 1163              		.loc 1 448 12
 1164 01d0 48837DE8 		cmpq	$0, -24(%rbp)
 1164      00
 1165 01d5 7422     		je	.L98
 449:/home/xingli/share/1205tiny/cJSON/cJSON.c ****         {
 450:/home/xingli/share/1205tiny/cJSON/cJSON.c ****             (void) memcpy(newbuffer, p->buffer, p->offset + 1);
 1166              		.loc 1 450 50
 1167 01d7 488B45D8 		movq	-40(%rbp), %rax
 1168 01db 488B4010 		movq	16(%rax), %rax
 1169              		.loc 1 450 20
 1170 01df 488D5001 		leaq	1(%rax), %rdx
 1171              		.loc 1 450 39
 1172 01e3 488B45D8 		movq	-40(%rbp), %rax
 1173 01e7 488B08   		movq	(%rax), %rcx
 1174              		.loc 1 450 20
 1175 01ea 488B45E8 		movq	-24(%rbp), %rax
 1176 01ee 4889CE   		movq	%rcx, %rsi
 1177 01f1 4889C7   		movq	%rax, %rdi
 1178 01f4 E8000000 		call	memcpy@PLT
 1178      00
 1179              	.L98:
GAS LISTING /tmp/ccabgRKQ.s 			page 33


 451:/home/xingli/share/1205tiny/cJSON/cJSON.c ****         }
 452:/home/xingli/share/1205tiny/cJSON/cJSON.c ****         p->hooks.deallocate(p->buffer);
 1180              		.loc 1 452 17
 1181 01f9 488B45D8 		movq	-40(%rbp), %rax
 1182 01fd 488B5030 		movq	48(%rax), %rdx
 1183              		.loc 1 452 30
 1184 0201 488B45D8 		movq	-40(%rbp), %rax
 1185 0205 488B00   		movq	(%rax), %rax
 1186              		.loc 1 452 9
 1187 0208 4889C7   		movq	%rax, %rdi
 1188 020b FFD2     		call	*%rdx
 1189              	.LVL9:
 1190              	.L96:
 453:/home/xingli/share/1205tiny/cJSON/cJSON.c ****     }
 454:/home/xingli/share/1205tiny/cJSON/cJSON.c ****     p->length = newsize;
 1191              		.loc 1 454 15
 1192 020d 488B45D8 		movq	-40(%rbp), %rax
 1193 0211 488B55F0 		movq	-16(%rbp), %rdx
 1194 0215 48895008 		movq	%rdx, 8(%rax)
 455:/home/xingli/share/1205tiny/cJSON/cJSON.c ****     p->buffer = newbuffer;
 1195              		.loc 1 455 15
 1196 0219 488B45D8 		movq	-40(%rbp), %rax
 1197 021d 488B55E8 		movq	-24(%rbp), %rdx
 1198 0221 488910   		movq	%rdx, (%rax)
 456:/home/xingli/share/1205tiny/cJSON/cJSON.c **** 
 457:/home/xingli/share/1205tiny/cJSON/cJSON.c ****     return newbuffer + p->offset;
 1199              		.loc 1 457 25
 1200 0224 488B45D8 		movq	-40(%rbp), %rax
 1201 0228 488B5010 		movq	16(%rax), %rdx
 1202              		.loc 1 457 22
 1203 022c 488B45E8 		movq	-24(%rbp), %rax
 1204 0230 4801D0   		addq	%rdx, %rax
 1205              	.L87:
 458:/home/xingli/share/1205tiny/cJSON/cJSON.c **** }
 1206              		.loc 1 458 1
 1207 0233 488B75F8 		movq	-8(%rbp), %rsi
 1208 0237 64483334 		xorq	%fs:40, %rsi
 1208      25280000 
 1208      00
 1209 0240 7405     		je	.L99
 1210 0242 E8000000 		call	__stack_chk_fail@PLT
 1210      00
 1211              	.L99:
 1212 0247 C9       		leave
 1213              	.LCFI35:
 1214              		.cfi_def_cfa 7, 8
 1215 0248 C3       		ret
 1216              		.cfi_endproc
 1217              	.LFE17:
 1219              		.section	.text.update_offset,"ax",@progbits
 1221              	update_offset:
 1222              	.LFB18:
 459:/home/xingli/share/1205tiny/cJSON/cJSON.c **** 
 460:/home/xingli/share/1205tiny/cJSON/cJSON.c **** /* calculate the new length of the string in a printbuffer and update the offset */
 461:/home/xingli/share/1205tiny/cJSON/cJSON.c **** static void update_offset(printbuffer * const buffer)
 462:/home/xingli/share/1205tiny/cJSON/cJSON.c **** {
 1223              		.loc 1 462 1
GAS LISTING /tmp/ccabgRKQ.s 			page 34


 1224              		.cfi_startproc
 1225 0000 F30F1EFA 		endbr64
 1226 0004 55       		pushq	%rbp
 1227              	.LCFI36:
 1228              		.cfi_def_cfa_offset 16
 1229              		.cfi_offset 6, -16
 1230 0005 4889E5   		movq	%rsp, %rbp
 1231              	.LCFI37:
 1232              		.cfi_def_cfa_register 6
 1233 0008 53       		pushq	%rbx
 1234 0009 4883EC28 		subq	$40, %rsp
 1235              		.cfi_offset 3, -24
 1236 000d 48897DD8 		movq	%rdi, -40(%rbp)
 1237              		.loc 1 462 1
 1238 0011 64488B04 		movq	%fs:40, %rax
 1238      25280000 
 1238      00
 1239 001a 488945E8 		movq	%rax, -24(%rbp)
 1240 001e 31C0     		xorl	%eax, %eax
 463:/home/xingli/share/1205tiny/cJSON/cJSON.c ****     const unsigned char *buffer_pointer = NULL;
 1241              		.loc 1 463 26
 1242 0020 48C745E0 		movq	$0, -32(%rbp)
 1242      00000000 
 464:/home/xingli/share/1205tiny/cJSON/cJSON.c ****     if ((buffer == NULL) || (buffer->buffer == NULL))
 1243              		.loc 1 464 8
 1244 0028 48837DD8 		cmpq	$0, -40(%rbp)
 1244      00
 1245 002d 7444     		je	.L105
 1246              		.loc 1 464 36 discriminator 1
 1247 002f 488B45D8 		movq	-40(%rbp), %rax
 1248 0033 488B00   		movq	(%rax), %rax
 1249              		.loc 1 464 26 discriminator 1
 1250 0036 4885C0   		testq	%rax, %rax
 1251 0039 7438     		je	.L105
 465:/home/xingli/share/1205tiny/cJSON/cJSON.c ****     {
 466:/home/xingli/share/1205tiny/cJSON/cJSON.c ****         return;
 467:/home/xingli/share/1205tiny/cJSON/cJSON.c ****     }
 468:/home/xingli/share/1205tiny/cJSON/cJSON.c ****     buffer_pointer = buffer->buffer + buffer->offset;
 1252              		.loc 1 468 28
 1253 003b 488B45D8 		movq	-40(%rbp), %rax
 1254 003f 488B10   		movq	(%rax), %rdx
 1255              		.loc 1 468 45
 1256 0042 488B45D8 		movq	-40(%rbp), %rax
 1257 0046 488B4010 		movq	16(%rax), %rax
 1258              		.loc 1 468 20
 1259 004a 4801D0   		addq	%rdx, %rax
 1260 004d 488945E0 		movq	%rax, -32(%rbp)
 469:/home/xingli/share/1205tiny/cJSON/cJSON.c **** 
 470:/home/xingli/share/1205tiny/cJSON/cJSON.c ****     buffer->offset += strlen((const char*)buffer_pointer);
 1261              		.loc 1 470 20
 1262 0051 488B45D8 		movq	-40(%rbp), %rax
 1263 0055 488B5810 		movq	16(%rax), %rbx
 1264              		.loc 1 470 23
 1265 0059 488B45E0 		movq	-32(%rbp), %rax
 1266 005d 4889C7   		movq	%rax, %rdi
 1267 0060 E8000000 		call	strlen@PLT
 1267      00
GAS LISTING /tmp/ccabgRKQ.s 			page 35


 1268              		.loc 1 470 20
 1269 0065 488D1403 		leaq	(%rbx,%rax), %rdx
 1270 0069 488B45D8 		movq	-40(%rbp), %rax
 1271 006d 48895010 		movq	%rdx, 16(%rax)
 1272 0071 EB01     		jmp	.L100
 1273              	.L105:
 466:/home/xingli/share/1205tiny/cJSON/cJSON.c ****     }
 1274              		.loc 1 466 9
 1275 0073 90       		nop
 1276              	.L100:
 471:/home/xingli/share/1205tiny/cJSON/cJSON.c **** }
 1277              		.loc 1 471 1
 1278 0074 488B45E8 		movq	-24(%rbp), %rax
 1279 0078 64483304 		xorq	%fs:40, %rax
 1279      25280000 
 1279      00
 1280 0081 7405     		je	.L104
 1281 0083 E8000000 		call	__stack_chk_fail@PLT
 1281      00
 1282              	.L104:
 1283 0088 4883C428 		addq	$40, %rsp
 1284 008c 5B       		popq	%rbx
 1285 008d 5D       		popq	%rbp
 1286              	.LCFI38:
 1287              		.cfi_def_cfa 7, 8
 1288 008e C3       		ret
 1289              		.cfi_endproc
 1290              	.LFE18:
 1292              		.section	.rodata
 1293              	.LC4:
 1294 0009 6E756C6C 		.string	"null"
 1294      00
 1295              	.LC5:
 1296 000e 25312E31 		.string	"%1.15g"
 1296      356700
 1297              	.LC6:
 1298 0015 256C6700 		.string	"%lg"
 1299              	.LC7:
 1300 0019 25312E31 		.string	"%1.17g"
 1300      376700
 1301              		.section	.text.print_number,"ax",@progbits
 1303              	print_number:
 1304              	.LFB19:
 472:/home/xingli/share/1205tiny/cJSON/cJSON.c **** 
 473:/home/xingli/share/1205tiny/cJSON/cJSON.c **** /* Render the number nicely from the given item into a string. */
 474:/home/xingli/share/1205tiny/cJSON/cJSON.c **** static cJSON_bool print_number(const cJSON * const item, printbuffer * const output_buffer)
 475:/home/xingli/share/1205tiny/cJSON/cJSON.c **** {
 1305              		.loc 1 475 1
 1306              		.cfi_startproc
 1307 0000 F30F1EFA 		endbr64
 1308 0004 55       		pushq	%rbp
 1309              	.LCFI39:
 1310              		.cfi_def_cfa_offset 16
 1311              		.cfi_offset 6, -16
 1312 0005 4889E5   		movq	%rsp, %rbp
 1313              	.LCFI40:
 1314              		.cfi_def_cfa_register 6
GAS LISTING /tmp/ccabgRKQ.s 			page 36


 1315 0008 4883EC70 		subq	$112, %rsp
 1316 000c 48897D98 		movq	%rdi, -104(%rbp)
 1317 0010 48897590 		movq	%rsi, -112(%rbp)
 1318              		.loc 1 475 1
 1319 0014 64488B04 		movq	%fs:40, %rax
 1319      25280000 
 1319      00
 1320 001d 488945F8 		movq	%rax, -8(%rbp)
 1321 0021 31C0     		xorl	%eax, %eax
 476:/home/xingli/share/1205tiny/cJSON/cJSON.c ****     unsigned char *output_pointer = NULL;
 1322              		.loc 1 476 20
 1323 0023 48C745C0 		movq	$0, -64(%rbp)
 1323      00000000 
 477:/home/xingli/share/1205tiny/cJSON/cJSON.c ****     double d = item->valuedouble;
 1324              		.loc 1 477 12
 1325 002b 488B4598 		movq	-104(%rbp), %rax
 1326 002f F20F1040 		movsd	48(%rax), %xmm0
 1326      30
 1327 0034 F20F1145 		movsd	%xmm0, -56(%rbp)
 1327      C8
 478:/home/xingli/share/1205tiny/cJSON/cJSON.c ****     int length = 0;
 1328              		.loc 1 478 9
 1329 0039 C745AC00 		movl	$0, -84(%rbp)
 1329      000000
 479:/home/xingli/share/1205tiny/cJSON/cJSON.c ****     size_t i = 0;
 1330              		.loc 1 479 12
 1331 0040 48C745B8 		movq	$0, -72(%rbp)
 1331      00000000 
 480:/home/xingli/share/1205tiny/cJSON/cJSON.c ****     unsigned char number_buffer[26]; /* temporary buffer to print the number into */
 481:/home/xingli/share/1205tiny/cJSON/cJSON.c ****     unsigned char decimal_point = get_decimal_point();
 1332              		.loc 1 481 35
 1333 0048 E8000000 		call	get_decimal_point
 1333      00
 1334 004d 8845AB   		movb	%al, -85(%rbp)
 482:/home/xingli/share/1205tiny/cJSON/cJSON.c ****     double test;
 483:/home/xingli/share/1205tiny/cJSON/cJSON.c **** 
 484:/home/xingli/share/1205tiny/cJSON/cJSON.c ****     if (output_buffer == NULL)
 1335              		.loc 1 484 8
 1336 0050 48837D90 		cmpq	$0, -112(%rbp)
 1336      00
 1337 0055 750A     		jne	.L107
 485:/home/xingli/share/1205tiny/cJSON/cJSON.c ****     {
 486:/home/xingli/share/1205tiny/cJSON/cJSON.c ****         return false;
 1338              		.loc 1 486 16
 1339 0057 B8000000 		movl	$0, %eax
 1339      00
 1340 005c E9800100 		jmp	.L121
 1340      00
 1341              	.L107:
 487:/home/xingli/share/1205tiny/cJSON/cJSON.c ****     }
 488:/home/xingli/share/1205tiny/cJSON/cJSON.c **** 
 489:/home/xingli/share/1205tiny/cJSON/cJSON.c ****     /* This checks for NaN and Infinity */
 490:/home/xingli/share/1205tiny/cJSON/cJSON.c ****     if ((d * 0) != 0)
 1342              		.loc 1 490 12
 1343 0061 F20F104D 		movsd	-56(%rbp), %xmm1
 1343      C8
 1344 0066 660FEFC0 		pxor	%xmm0, %xmm0
GAS LISTING /tmp/ccabgRKQ.s 			page 37


 1345 006a F20F59C1 		mulsd	%xmm1, %xmm0
 1346              		.loc 1 490 8
 1347 006e 660FEFC9 		pxor	%xmm1, %xmm1
 1348 0072 660F2EC1 		ucomisd	%xmm1, %xmm0
 1349 0076 7A0A     		jp	.L123
 1350 0078 660FEFC9 		pxor	%xmm1, %xmm1
 1351 007c 660F2EC1 		ucomisd	%xmm1, %xmm0
 1352 0080 741D     		je	.L124
 1353              	.L123:
 491:/home/xingli/share/1205tiny/cJSON/cJSON.c ****     {
 492:/home/xingli/share/1205tiny/cJSON/cJSON.c ****         length = sprintf((char*)number_buffer, "null");
 1354              		.loc 1 492 18
 1355 0082 488D45D0 		leaq	-48(%rbp), %rax
 1356 0086 488D3500 		leaq	.LC4(%rip), %rsi
 1356      000000
 1357 008d 4889C7   		movq	%rax, %rdi
 1358 0090 B8000000 		movl	$0, %eax
 1358      00
 1359 0095 E8000000 		call	sprintf@PLT
 1359      00
 1360 009a 8945AC   		movl	%eax, -84(%rbp)
 1361 009d EB7C     		jmp	.L111
 1362              	.L124:
 493:/home/xingli/share/1205tiny/cJSON/cJSON.c ****     }
 494:/home/xingli/share/1205tiny/cJSON/cJSON.c ****     else
 495:/home/xingli/share/1205tiny/cJSON/cJSON.c ****     {
 496:/home/xingli/share/1205tiny/cJSON/cJSON.c ****         /* Try 15 decimal places of precision to avoid nonsignificant nonzero digits */
 497:/home/xingli/share/1205tiny/cJSON/cJSON.c ****         length = sprintf((char*)number_buffer, "%1.15g", d);
 1363              		.loc 1 497 18
 1364 009f 488B55C8 		movq	-56(%rbp), %rdx
 1365 00a3 488D45D0 		leaq	-48(%rbp), %rax
 1366 00a7 66480F6E 		movq	%rdx, %xmm0
 1366      C2
 1367 00ac 488D3500 		leaq	.LC5(%rip), %rsi
 1367      000000
 1368 00b3 4889C7   		movq	%rax, %rdi
 1369 00b6 B8010000 		movl	$1, %eax
 1369      00
 1370 00bb E8000000 		call	sprintf@PLT
 1370      00
 1371 00c0 8945AC   		movl	%eax, -84(%rbp)
 498:/home/xingli/share/1205tiny/cJSON/cJSON.c **** 
 499:/home/xingli/share/1205tiny/cJSON/cJSON.c ****         /* Check whether the original double can be recovered */
 500:/home/xingli/share/1205tiny/cJSON/cJSON.c ****         if ((sscanf((char*)number_buffer, "%lg", &test) != 1) || ((double)test != d))
 1372              		.loc 1 500 14
 1373 00c3 488D55B0 		leaq	-80(%rbp), %rdx
 1374 00c7 488D45D0 		leaq	-48(%rbp), %rax
 1375 00cb 488D3500 		leaq	.LC6(%rip), %rsi
 1375      000000
 1376 00d2 4889C7   		movq	%rax, %rdi
 1377 00d5 B8000000 		movl	$0, %eax
 1377      00
 1378 00da E8000000 		call	__isoc99_sscanf@PLT
 1378      00
 1379              		.loc 1 500 12
 1380 00df 83F801   		cmpl	$1, %eax
 1381 00e2 7513     		jne	.L112
GAS LISTING /tmp/ccabgRKQ.s 			page 38


 1382              		.loc 1 500 80 discriminator 1
 1383 00e4 F20F1045 		movsd	-80(%rbp), %xmm0
 1383      B0
 1384              		.loc 1 500 63 discriminator 1
 1385 00e9 660F2E45 		ucomisd	-56(%rbp), %xmm0
 1385      C8
 1386 00ee 7A07     		jp	.L112
 1387 00f0 660F2E45 		ucomisd	-56(%rbp), %xmm0
 1387      C8
 1388 00f5 7424     		je	.L111
 1389              	.L112:
 501:/home/xingli/share/1205tiny/cJSON/cJSON.c ****         {
 502:/home/xingli/share/1205tiny/cJSON/cJSON.c ****             /* If not, print with 17 decimal places of precision */
 503:/home/xingli/share/1205tiny/cJSON/cJSON.c ****             length = sprintf((char*)number_buffer, "%1.17g", d);
 1390              		.loc 1 503 22
 1391 00f7 488B55C8 		movq	-56(%rbp), %rdx
 1392 00fb 488D45D0 		leaq	-48(%rbp), %rax
 1393 00ff 66480F6E 		movq	%rdx, %xmm0
 1393      C2
 1394 0104 488D3500 		leaq	.LC7(%rip), %rsi
 1394      000000
 1395 010b 4889C7   		movq	%rax, %rdi
 1396 010e B8010000 		movl	$1, %eax
 1396      00
 1397 0113 E8000000 		call	sprintf@PLT
 1397      00
 1398 0118 8945AC   		movl	%eax, -84(%rbp)
 1399              	.L111:
 504:/home/xingli/share/1205tiny/cJSON/cJSON.c ****         }
 505:/home/xingli/share/1205tiny/cJSON/cJSON.c ****     }
 506:/home/xingli/share/1205tiny/cJSON/cJSON.c **** 
 507:/home/xingli/share/1205tiny/cJSON/cJSON.c ****     /* sprintf failed or buffer overrun occured */
 508:/home/xingli/share/1205tiny/cJSON/cJSON.c ****     if ((length < 0) || (length > (int)(sizeof(number_buffer) - 1)))
 1400              		.loc 1 508 8
 1401 011b 837DAC00 		cmpl	$0, -84(%rbp)
 1402 011f 7806     		js	.L114
 1403              		.loc 1 508 22 discriminator 1
 1404 0121 837DAC19 		cmpl	$25, -84(%rbp)
 1405 0125 7E0A     		jle	.L115
 1406              	.L114:
 509:/home/xingli/share/1205tiny/cJSON/cJSON.c ****     {
 510:/home/xingli/share/1205tiny/cJSON/cJSON.c ****         return false;
 1407              		.loc 1 510 16
 1408 0127 B8000000 		movl	$0, %eax
 1408      00
 1409 012c E9B00000 		jmp	.L121
 1409      00
 1410              	.L115:
 511:/home/xingli/share/1205tiny/cJSON/cJSON.c ****     }
 512:/home/xingli/share/1205tiny/cJSON/cJSON.c **** 
 513:/home/xingli/share/1205tiny/cJSON/cJSON.c ****     /* reserve appropriate space in the output */
 514:/home/xingli/share/1205tiny/cJSON/cJSON.c ****     output_pointer = ensure(output_buffer, (size_t)length + sizeof(""));
 1411              		.loc 1 514 44
 1412 0131 8B45AC   		movl	-84(%rbp), %eax
 1413 0134 4898     		cltq
 1414              		.loc 1 514 22
 1415 0136 488D5001 		leaq	1(%rax), %rdx
GAS LISTING /tmp/ccabgRKQ.s 			page 39


 1416 013a 488B4590 		movq	-112(%rbp), %rax
 1417 013e 4889D6   		movq	%rdx, %rsi
 1418 0141 4889C7   		movq	%rax, %rdi
 1419 0144 E8000000 		call	ensure
 1419      00
 1420 0149 488945C0 		movq	%rax, -64(%rbp)
 515:/home/xingli/share/1205tiny/cJSON/cJSON.c ****     if (output_pointer == NULL)
 1421              		.loc 1 515 8
 1422 014d 48837DC0 		cmpq	$0, -64(%rbp)
 1422      00
 1423 0152 750A     		jne	.L116
 516:/home/xingli/share/1205tiny/cJSON/cJSON.c ****     {
 517:/home/xingli/share/1205tiny/cJSON/cJSON.c ****         return false;
 1424              		.loc 1 517 16
 1425 0154 B8000000 		movl	$0, %eax
 1425      00
 1426 0159 E9830000 		jmp	.L121
 1426      00
 1427              	.L116:
 518:/home/xingli/share/1205tiny/cJSON/cJSON.c ****     }
 519:/home/xingli/share/1205tiny/cJSON/cJSON.c **** 
 520:/home/xingli/share/1205tiny/cJSON/cJSON.c ****     /* copy the printed number to the output and replace locale
 521:/home/xingli/share/1205tiny/cJSON/cJSON.c ****      * dependent decimal point with '.' */
 522:/home/xingli/share/1205tiny/cJSON/cJSON.c ****     for (i = 0; i < ((size_t)length); i++)
 1428              		.loc 1 522 12
 1429 015e 48C745B8 		movq	$0, -72(%rbp)
 1429      00000000 
 1430              		.loc 1 522 5
 1431 0166 EB43     		jmp	.L117
 1432              	.L120:
 523:/home/xingli/share/1205tiny/cJSON/cJSON.c ****     {
 524:/home/xingli/share/1205tiny/cJSON/cJSON.c ****         if (number_buffer[i] == decimal_point)
 1433              		.loc 1 524 26
 1434 0168 488D55D0 		leaq	-48(%rbp), %rdx
 1435 016c 488B45B8 		movq	-72(%rbp), %rax
 1436 0170 4801D0   		addq	%rdx, %rax
 1437 0173 0FB600   		movzbl	(%rax), %eax
 1438              		.loc 1 524 12
 1439 0176 3845AB   		cmpb	%al, -85(%rbp)
 1440 0179 7510     		jne	.L118
 525:/home/xingli/share/1205tiny/cJSON/cJSON.c ****         {
 526:/home/xingli/share/1205tiny/cJSON/cJSON.c ****             output_pointer[i] = '.';
 1441              		.loc 1 526 27
 1442 017b 488B55C0 		movq	-64(%rbp), %rdx
 1443 017f 488B45B8 		movq	-72(%rbp), %rax
 1444 0183 4801D0   		addq	%rdx, %rax
 1445              		.loc 1 526 31
 1446 0186 C6002E   		movb	$46, (%rax)
 527:/home/xingli/share/1205tiny/cJSON/cJSON.c ****             continue;
 1447              		.loc 1 527 13
 1448 0189 EB1B     		jmp	.L119
 1449              	.L118:
 528:/home/xingli/share/1205tiny/cJSON/cJSON.c ****         }
 529:/home/xingli/share/1205tiny/cJSON/cJSON.c **** 
 530:/home/xingli/share/1205tiny/cJSON/cJSON.c ****         output_pointer[i] = number_buffer[i];
 1450              		.loc 1 530 23
 1451 018b 488B55C0 		movq	-64(%rbp), %rdx
GAS LISTING /tmp/ccabgRKQ.s 			page 40


 1452 018f 488B45B8 		movq	-72(%rbp), %rax
 1453 0193 4801C2   		addq	%rax, %rdx
 1454              		.loc 1 530 42
 1455 0196 488D4DD0 		leaq	-48(%rbp), %rcx
 1456 019a 488B45B8 		movq	-72(%rbp), %rax
 1457 019e 4801C8   		addq	%rcx, %rax
 1458 01a1 0FB600   		movzbl	(%rax), %eax
 1459              		.loc 1 530 27
 1460 01a4 8802     		movb	%al, (%rdx)
 1461              	.L119:
 522:/home/xingli/share/1205tiny/cJSON/cJSON.c ****     {
 1462              		.loc 1 522 40 discriminator 2
 1463 01a6 488345B8 		addq	$1, -72(%rbp)
 1463      01
 1464              	.L117:
 522:/home/xingli/share/1205tiny/cJSON/cJSON.c ****     {
 1465              		.loc 1 522 22 discriminator 1
 1466 01ab 8B45AC   		movl	-84(%rbp), %eax
 1467 01ae 4898     		cltq
 522:/home/xingli/share/1205tiny/cJSON/cJSON.c ****     {
 1468              		.loc 1 522 5 discriminator 1
 1469 01b0 483945B8 		cmpq	%rax, -72(%rbp)
 1470 01b4 72B2     		jb	.L120
 531:/home/xingli/share/1205tiny/cJSON/cJSON.c ****     }
 532:/home/xingli/share/1205tiny/cJSON/cJSON.c ****     output_pointer[i] = '\0';
 1471              		.loc 1 532 19
 1472 01b6 488B55C0 		movq	-64(%rbp), %rdx
 1473 01ba 488B45B8 		movq	-72(%rbp), %rax
 1474 01be 4801D0   		addq	%rdx, %rax
 1475              		.loc 1 532 23
 1476 01c1 C60000   		movb	$0, (%rax)
 533:/home/xingli/share/1205tiny/cJSON/cJSON.c **** 
 534:/home/xingli/share/1205tiny/cJSON/cJSON.c ****     output_buffer->offset += (size_t)length;
 1477              		.loc 1 534 27
 1478 01c4 488B4590 		movq	-112(%rbp), %rax
 1479 01c8 488B5010 		movq	16(%rax), %rdx
 1480              		.loc 1 534 30
 1481 01cc 8B45AC   		movl	-84(%rbp), %eax
 1482 01cf 4898     		cltq
 1483              		.loc 1 534 27
 1484 01d1 4801C2   		addq	%rax, %rdx
 1485 01d4 488B4590 		movq	-112(%rbp), %rax
 1486 01d8 48895010 		movq	%rdx, 16(%rax)
 535:/home/xingli/share/1205tiny/cJSON/cJSON.c **** 
 536:/home/xingli/share/1205tiny/cJSON/cJSON.c ****     return true;
 1487              		.loc 1 536 12
 1488 01dc B8010000 		movl	$1, %eax
 1488      00
 1489              	.L121:
 537:/home/xingli/share/1205tiny/cJSON/cJSON.c **** }
 1490              		.loc 1 537 1 discriminator 1
 1491 01e1 488B4DF8 		movq	-8(%rbp), %rcx
 1492 01e5 6448330C 		xorq	%fs:40, %rcx
 1492      25280000 
 1492      00
 1493 01ee 7405     		je	.L122
 1494              		.loc 1 537 1 is_stmt 0
GAS LISTING /tmp/ccabgRKQ.s 			page 41


 1495 01f0 E8000000 		call	__stack_chk_fail@PLT
 1495      00
 1496              	.L122:
 1497 01f5 C9       		leave
 1498              	.LCFI41:
 1499              		.cfi_def_cfa 7, 8
 1500 01f6 C3       		ret
 1501              		.cfi_endproc
 1502              	.LFE19:
 1504              		.section	.text.parse_hex4,"ax",@progbits
 1506              	parse_hex4:
 1507              	.LFB20:
 538:/home/xingli/share/1205tiny/cJSON/cJSON.c **** 
 539:/home/xingli/share/1205tiny/cJSON/cJSON.c **** /* parse 4 digit hexadecimal number */
 540:/home/xingli/share/1205tiny/cJSON/cJSON.c **** static unsigned parse_hex4(const unsigned char * const input)
 541:/home/xingli/share/1205tiny/cJSON/cJSON.c **** {
 1508              		.loc 1 541 1 is_stmt 1
 1509              		.cfi_startproc
 1510 0000 F30F1EFA 		endbr64
 1511 0004 55       		pushq	%rbp
 1512              	.LCFI42:
 1513              		.cfi_def_cfa_offset 16
 1514              		.cfi_offset 6, -16
 1515 0005 4889E5   		movq	%rsp, %rbp
 1516              	.LCFI43:
 1517              		.cfi_def_cfa_register 6
 1518 0008 4883EC30 		subq	$48, %rsp
 1519 000c 48897DD8 		movq	%rdi, -40(%rbp)
 1520              		.loc 1 541 1
 1521 0010 64488B04 		movq	%fs:40, %rax
 1521      25280000 
 1521      00
 1522 0019 488945F8 		movq	%rax, -8(%rbp)
 1523 001d 31C0     		xorl	%eax, %eax
 542:/home/xingli/share/1205tiny/cJSON/cJSON.c ****     unsigned int h = 0;
 1524              		.loc 1 542 18
 1525 001f C745EC00 		movl	$0, -20(%rbp)
 1525      000000
 543:/home/xingli/share/1205tiny/cJSON/cJSON.c ****     size_t i = 0;
 1526              		.loc 1 543 12
 1527 0026 48C745F0 		movq	$0, -16(%rbp)
 1527      00000000 
 544:/home/xingli/share/1205tiny/cJSON/cJSON.c **** 
 545:/home/xingli/share/1205tiny/cJSON/cJSON.c ****     for (i = 0; i < 4; i++)
 1528              		.loc 1 545 12
 1529 002e 48C745F0 		movq	$0, -16(%rbp)
 1529      00000000 
 1530              		.loc 1 545 5
 1531 0036 E9E00000 		jmp	.L126
 1531      00
 1532              	.L133:
 546:/home/xingli/share/1205tiny/cJSON/cJSON.c ****     {
 547:/home/xingli/share/1205tiny/cJSON/cJSON.c ****         /* parse digit */
 548:/home/xingli/share/1205tiny/cJSON/cJSON.c ****         if ((input[i] >= '0') && (input[i] <= '9'))
 1533              		.loc 1 548 19
 1534 003b 488B55D8 		movq	-40(%rbp), %rdx
 1535 003f 488B45F0 		movq	-16(%rbp), %rax
GAS LISTING /tmp/ccabgRKQ.s 			page 42


 1536 0043 4801D0   		addq	%rdx, %rax
 1537 0046 0FB600   		movzbl	(%rax), %eax
 1538              		.loc 1 548 12
 1539 0049 3C2F     		cmpb	$47, %al
 1540 004b 7633     		jbe	.L127
 1541              		.loc 1 548 40 discriminator 1
 1542 004d 488B55D8 		movq	-40(%rbp), %rdx
 1543 0051 488B45F0 		movq	-16(%rbp), %rax
 1544 0055 4801D0   		addq	%rdx, %rax
 1545 0058 0FB600   		movzbl	(%rax), %eax
 1546              		.loc 1 548 31 discriminator 1
 1547 005b 3C39     		cmpb	$57, %al
 1548 005d 7721     		ja	.L127
 549:/home/xingli/share/1205tiny/cJSON/cJSON.c ****         {
 550:/home/xingli/share/1205tiny/cJSON/cJSON.c ****             h += (unsigned int) input[i] - '0';
 1549              		.loc 1 550 38
 1550 005f 488B55D8 		movq	-40(%rbp), %rdx
 1551 0063 488B45F0 		movq	-16(%rbp), %rax
 1552 0067 4801D0   		addq	%rdx, %rax
 1553 006a 0FB600   		movzbl	(%rax), %eax
 1554              		.loc 1 550 18
 1555 006d 0FB6D0   		movzbl	%al, %edx
 1556              		.loc 1 550 15
 1557 0070 8B45EC   		movl	-20(%rbp), %eax
 1558 0073 01D0     		addl	%edx, %eax
 1559 0075 83E830   		subl	$48, %eax
 1560 0078 8945EC   		movl	%eax, -20(%rbp)
 1561 007b E98B0000 		jmp	.L128
 1561      00
 1562              	.L127:
 551:/home/xingli/share/1205tiny/cJSON/cJSON.c ****         }
 552:/home/xingli/share/1205tiny/cJSON/cJSON.c ****         else if ((input[i] >= 'A') && (input[i] <= 'F'))
 1563              		.loc 1 552 24
 1564 0080 488B55D8 		movq	-40(%rbp), %rdx
 1565 0084 488B45F0 		movq	-16(%rbp), %rax
 1566 0088 4801D0   		addq	%rdx, %rax
 1567 008b 0FB600   		movzbl	(%rax), %eax
 1568              		.loc 1 552 17
 1569 008e 3C40     		cmpb	$64, %al
 1570 0090 7630     		jbe	.L129
 1571              		.loc 1 552 45 discriminator 1
 1572 0092 488B55D8 		movq	-40(%rbp), %rdx
 1573 0096 488B45F0 		movq	-16(%rbp), %rax
 1574 009a 4801D0   		addq	%rdx, %rax
 1575 009d 0FB600   		movzbl	(%rax), %eax
 1576              		.loc 1 552 36 discriminator 1
 1577 00a0 3C46     		cmpb	$70, %al
 1578 00a2 771E     		ja	.L129
 553:/home/xingli/share/1205tiny/cJSON/cJSON.c ****         {
 554:/home/xingli/share/1205tiny/cJSON/cJSON.c ****             h += (unsigned int) 10 + input[i] - 'A';
 1579              		.loc 1 554 43
 1580 00a4 488B55D8 		movq	-40(%rbp), %rdx
 1581 00a8 488B45F0 		movq	-16(%rbp), %rax
 1582 00ac 4801D0   		addq	%rdx, %rax
 1583 00af 0FB600   		movzbl	(%rax), %eax
 1584 00b2 0FB6D0   		movzbl	%al, %edx
 1585              		.loc 1 554 15
GAS LISTING /tmp/ccabgRKQ.s 			page 43


 1586 00b5 8B45EC   		movl	-20(%rbp), %eax
 1587 00b8 01D0     		addl	%edx, %eax
 1588 00ba 83E837   		subl	$55, %eax
 1589 00bd 8945EC   		movl	%eax, -20(%rbp)
 1590 00c0 EB49     		jmp	.L128
 1591              	.L129:
 555:/home/xingli/share/1205tiny/cJSON/cJSON.c ****         }
 556:/home/xingli/share/1205tiny/cJSON/cJSON.c ****         else if ((input[i] >= 'a') && (input[i] <= 'f'))
 1592              		.loc 1 556 24
 1593 00c2 488B55D8 		movq	-40(%rbp), %rdx
 1594 00c6 488B45F0 		movq	-16(%rbp), %rax
 1595 00ca 4801D0   		addq	%rdx, %rax
 1596 00cd 0FB600   		movzbl	(%rax), %eax
 1597              		.loc 1 556 17
 1598 00d0 3C60     		cmpb	$96, %al
 1599 00d2 7630     		jbe	.L130
 1600              		.loc 1 556 45 discriminator 1
 1601 00d4 488B55D8 		movq	-40(%rbp), %rdx
 1602 00d8 488B45F0 		movq	-16(%rbp), %rax
 1603 00dc 4801D0   		addq	%rdx, %rax
 1604 00df 0FB600   		movzbl	(%rax), %eax
 1605              		.loc 1 556 36 discriminator 1
 1606 00e2 3C66     		cmpb	$102, %al
 1607 00e4 771E     		ja	.L130
 557:/home/xingli/share/1205tiny/cJSON/cJSON.c ****         {
 558:/home/xingli/share/1205tiny/cJSON/cJSON.c ****             h += (unsigned int) 10 + input[i] - 'a';
 1608              		.loc 1 558 43
 1609 00e6 488B55D8 		movq	-40(%rbp), %rdx
 1610 00ea 488B45F0 		movq	-16(%rbp), %rax
 1611 00ee 4801D0   		addq	%rdx, %rax
 1612 00f1 0FB600   		movzbl	(%rax), %eax
 1613 00f4 0FB6D0   		movzbl	%al, %edx
 1614              		.loc 1 558 15
 1615 00f7 8B45EC   		movl	-20(%rbp), %eax
 1616 00fa 01D0     		addl	%edx, %eax
 1617 00fc 83E857   		subl	$87, %eax
 1618 00ff 8945EC   		movl	%eax, -20(%rbp)
 1619 0102 EB07     		jmp	.L128
 1620              	.L130:
 559:/home/xingli/share/1205tiny/cJSON/cJSON.c ****         }
 560:/home/xingli/share/1205tiny/cJSON/cJSON.c ****         else /* invalid */
 561:/home/xingli/share/1205tiny/cJSON/cJSON.c ****         {
 562:/home/xingli/share/1205tiny/cJSON/cJSON.c ****             return 0;
 1621              		.loc 1 562 20
 1622 0104 B8000000 		movl	$0, %eax
 1622      00
 1623 0109 EB1E     		jmp	.L131
 1624              	.L128:
 563:/home/xingli/share/1205tiny/cJSON/cJSON.c ****         }
 564:/home/xingli/share/1205tiny/cJSON/cJSON.c **** 
 565:/home/xingli/share/1205tiny/cJSON/cJSON.c ****         if (i < 3)
 1625              		.loc 1 565 12
 1626 010b 48837DF0 		cmpq	$2, -16(%rbp)
 1626      02
 1627 0110 7704     		ja	.L132
 566:/home/xingli/share/1205tiny/cJSON/cJSON.c ****         {
 567:/home/xingli/share/1205tiny/cJSON/cJSON.c ****             /* shift left to make place for the next nibble */
GAS LISTING /tmp/ccabgRKQ.s 			page 44


 568:/home/xingli/share/1205tiny/cJSON/cJSON.c ****             h = h << 4;
 1628              		.loc 1 568 15
 1629 0112 C165EC04 		sall	$4, -20(%rbp)
 1630              	.L132:
 545:/home/xingli/share/1205tiny/cJSON/cJSON.c ****     {
 1631              		.loc 1 545 25 discriminator 2
 1632 0116 488345F0 		addq	$1, -16(%rbp)
 1632      01
 1633              	.L126:
 545:/home/xingli/share/1205tiny/cJSON/cJSON.c ****     {
 1634              		.loc 1 545 5 discriminator 1
 1635 011b 48837DF0 		cmpq	$3, -16(%rbp)
 1635      03
 1636 0120 0F8615FF 		jbe	.L133
 1636      FFFF
 569:/home/xingli/share/1205tiny/cJSON/cJSON.c ****         }
 570:/home/xingli/share/1205tiny/cJSON/cJSON.c ****     }
 571:/home/xingli/share/1205tiny/cJSON/cJSON.c **** 
 572:/home/xingli/share/1205tiny/cJSON/cJSON.c ****     return h;
 1637              		.loc 1 572 12
 1638 0126 8B45EC   		movl	-20(%rbp), %eax
 1639              	.L131:
 573:/home/xingli/share/1205tiny/cJSON/cJSON.c **** }
 1640              		.loc 1 573 1
 1641 0129 488B4DF8 		movq	-8(%rbp), %rcx
 1642 012d 6448330C 		xorq	%fs:40, %rcx
 1642      25280000 
 1642      00
 1643 0136 7405     		je	.L134
 1644 0138 E8000000 		call	__stack_chk_fail@PLT
 1644      00
 1645              	.L134:
 1646 013d C9       		leave
 1647              	.LCFI44:
 1648              		.cfi_def_cfa 7, 8
 1649 013e C3       		ret
 1650              		.cfi_endproc
 1651              	.LFE20:
 1653              		.section	.text.utf16_literal_to_utf8,"ax",@progbits
 1655              	utf16_literal_to_utf8:
 1656              	.LFB21:
 574:/home/xingli/share/1205tiny/cJSON/cJSON.c **** 
 575:/home/xingli/share/1205tiny/cJSON/cJSON.c **** /* converts a UTF-16 literal to UTF-8
 576:/home/xingli/share/1205tiny/cJSON/cJSON.c ****  * A literal can be one or two sequences of the form \uXXXX */
 577:/home/xingli/share/1205tiny/cJSON/cJSON.c **** static unsigned char utf16_literal_to_utf8(const unsigned char * const input_pointer, const unsigne
 578:/home/xingli/share/1205tiny/cJSON/cJSON.c **** {
 1657              		.loc 1 578 1
 1658              		.cfi_startproc
 1659 0000 F30F1EFA 		endbr64
 1660 0004 55       		pushq	%rbp
 1661              	.LCFI45:
 1662              		.cfi_def_cfa_offset 16
 1663              		.cfi_offset 6, -16
 1664 0005 4889E5   		movq	%rsp, %rbp
 1665              	.LCFI46:
 1666              		.cfi_def_cfa_register 6
 1667 0008 4883EC50 		subq	$80, %rsp
GAS LISTING /tmp/ccabgRKQ.s 			page 45


 1668 000c 48897DC8 		movq	%rdi, -56(%rbp)
 1669 0010 488975C0 		movq	%rsi, -64(%rbp)
 1670 0014 488955B8 		movq	%rdx, -72(%rbp)
 1671              		.loc 1 578 1
 1672 0018 64488B04 		movq	%fs:40, %rax
 1672      25280000 
 1672      00
 1673 0021 488945F8 		movq	%rax, -8(%rbp)
 1674 0025 31C0     		xorl	%eax, %eax
 579:/home/xingli/share/1205tiny/cJSON/cJSON.c ****     long unsigned int codepoint = 0;
 1675              		.loc 1 579 23
 1676 0027 48C745E0 		movq	$0, -32(%rbp)
 1676      00000000 
 580:/home/xingli/share/1205tiny/cJSON/cJSON.c ****     unsigned int first_code = 0;
 1677              		.loc 1 580 18
 1678 002f C745D800 		movl	$0, -40(%rbp)
 1678      000000
 581:/home/xingli/share/1205tiny/cJSON/cJSON.c ****     const unsigned char *first_sequence = input_pointer;
 1679              		.loc 1 581 26
 1680 0036 488B45C8 		movq	-56(%rbp), %rax
 1681 003a 488945E8 		movq	%rax, -24(%rbp)
 582:/home/xingli/share/1205tiny/cJSON/cJSON.c ****     unsigned char utf8_length = 0;
 1682              		.loc 1 582 19
 1683 003e C645D400 		movb	$0, -44(%rbp)
 583:/home/xingli/share/1205tiny/cJSON/cJSON.c ****     unsigned char utf8_position = 0;
 1684              		.loc 1 583 19
 1685 0042 C645D500 		movb	$0, -43(%rbp)
 584:/home/xingli/share/1205tiny/cJSON/cJSON.c ****     unsigned char sequence_length = 0;
 1686              		.loc 1 584 19
 1687 0046 C645D600 		movb	$0, -42(%rbp)
 585:/home/xingli/share/1205tiny/cJSON/cJSON.c ****     unsigned char first_byte_mark = 0;
 1688              		.loc 1 585 19
 1689 004a C645D700 		movb	$0, -41(%rbp)
 586:/home/xingli/share/1205tiny/cJSON/cJSON.c **** 
 587:/home/xingli/share/1205tiny/cJSON/cJSON.c ****     if ((input_end - first_sequence) < 6)
 1690              		.loc 1 587 20
 1691 004e 488B45C0 		movq	-64(%rbp), %rax
 1692 0052 482B45E8 		subq	-24(%rbp), %rax
 1693              		.loc 1 587 8
 1694 0056 4883F805 		cmpq	$5, %rax
 1695 005a 0F8EBB01 		jle	.L157
 1695      0000
 588:/home/xingli/share/1205tiny/cJSON/cJSON.c ****     {
 589:/home/xingli/share/1205tiny/cJSON/cJSON.c ****         /* input ends unexpectedly */
 590:/home/xingli/share/1205tiny/cJSON/cJSON.c ****         goto fail;
 591:/home/xingli/share/1205tiny/cJSON/cJSON.c ****     }
 592:/home/xingli/share/1205tiny/cJSON/cJSON.c **** 
 593:/home/xingli/share/1205tiny/cJSON/cJSON.c ****     /* get the first utf16 sequence */
 594:/home/xingli/share/1205tiny/cJSON/cJSON.c ****     first_code = parse_hex4(first_sequence + 2);
 1696              		.loc 1 594 18
 1697 0060 488B45E8 		movq	-24(%rbp), %rax
 1698 0064 4883C002 		addq	$2, %rax
 1699 0068 4889C7   		movq	%rax, %rdi
 1700 006b E8000000 		call	parse_hex4
 1700      00
 1701 0070 8945D8   		movl	%eax, -40(%rbp)
 595:/home/xingli/share/1205tiny/cJSON/cJSON.c **** 
GAS LISTING /tmp/ccabgRKQ.s 			page 46


 596:/home/xingli/share/1205tiny/cJSON/cJSON.c ****     /* check that the code is valid */
 597:/home/xingli/share/1205tiny/cJSON/cJSON.c ****     if (((first_code >= 0xDC00) && (first_code <= 0xDFFF)))
 1702              		.loc 1 597 8
 1703 0073 817DD8FF 		cmpl	$56319, -40(%rbp)
 1703      DB0000
 1704 007a 760D     		jbe	.L138
 1705              		.loc 1 597 33 discriminator 1
 1706 007c 817DD8FF 		cmpl	$57343, -40(%rbp)
 1706      DF0000
 1707 0083 0F869501 		jbe	.L158
 1707      0000
 1708              	.L138:
 598:/home/xingli/share/1205tiny/cJSON/cJSON.c ****     {
 599:/home/xingli/share/1205tiny/cJSON/cJSON.c ****         goto fail;
 600:/home/xingli/share/1205tiny/cJSON/cJSON.c ****     }
 601:/home/xingli/share/1205tiny/cJSON/cJSON.c **** 
 602:/home/xingli/share/1205tiny/cJSON/cJSON.c ****     /* UTF16 surrogate pair */
 603:/home/xingli/share/1205tiny/cJSON/cJSON.c ****     if ((first_code >= 0xD800) && (first_code <= 0xDBFF))
 1709              		.loc 1 603 8
 1710 0089 817DD8FF 		cmpl	$55295, -40(%rbp)
 1710      D70000
 1711 0090 0F86A900 		jbe	.L139
 1711      0000
 1712              		.loc 1 603 32 discriminator 1
 1713 0096 817DD8FF 		cmpl	$56319, -40(%rbp)
 1713      DB0000
 1714 009d 0F879C00 		ja	.L139
 1714      0000
 1715              	.LBB2:
 604:/home/xingli/share/1205tiny/cJSON/cJSON.c ****     {
 605:/home/xingli/share/1205tiny/cJSON/cJSON.c ****         const unsigned char *second_sequence = first_sequence + 6;
 1716              		.loc 1 605 30
 1717 00a3 488B45E8 		movq	-24(%rbp), %rax
 1718 00a7 4883C006 		addq	$6, %rax
 1719 00ab 488945F0 		movq	%rax, -16(%rbp)
 606:/home/xingli/share/1205tiny/cJSON/cJSON.c ****         unsigned int second_code = 0;
 1720              		.loc 1 606 22
 1721 00af C745DC00 		movl	$0, -36(%rbp)
 1721      000000
 607:/home/xingli/share/1205tiny/cJSON/cJSON.c ****         sequence_length = 12; /* \uXXXX\uXXXX */
 1722              		.loc 1 607 25
 1723 00b6 C645D60C 		movb	$12, -42(%rbp)
 608:/home/xingli/share/1205tiny/cJSON/cJSON.c **** 
 609:/home/xingli/share/1205tiny/cJSON/cJSON.c ****         if ((input_end - second_sequence) < 6)
 1724              		.loc 1 609 24
 1725 00ba 488B45C0 		movq	-64(%rbp), %rax
 1726 00be 482B45F0 		subq	-16(%rbp), %rax
 1727              		.loc 1 609 12
 1728 00c2 4883F805 		cmpq	$5, %rax
 1729 00c6 0F8E5501 		jle	.L159
 1729      0000
 610:/home/xingli/share/1205tiny/cJSON/cJSON.c ****         {
 611:/home/xingli/share/1205tiny/cJSON/cJSON.c ****             /* input ends unexpectedly */
 612:/home/xingli/share/1205tiny/cJSON/cJSON.c ****             goto fail;
 613:/home/xingli/share/1205tiny/cJSON/cJSON.c ****         }
 614:/home/xingli/share/1205tiny/cJSON/cJSON.c **** 
 615:/home/xingli/share/1205tiny/cJSON/cJSON.c ****         if ((second_sequence[0] != '\\') || (second_sequence[1] != 'u'))
GAS LISTING /tmp/ccabgRKQ.s 			page 47


 1730              		.loc 1 615 29
 1731 00cc 488B45F0 		movq	-16(%rbp), %rax
 1732 00d0 0FB600   		movzbl	(%rax), %eax
 1733              		.loc 1 615 12
 1734 00d3 3C5C     		cmpb	$92, %al
 1735 00d5 0F854901 		jne	.L160
 1735      0000
 1736              		.loc 1 615 61 discriminator 1
 1737 00db 488B45F0 		movq	-16(%rbp), %rax
 1738 00df 4883C001 		addq	$1, %rax
 1739 00e3 0FB600   		movzbl	(%rax), %eax
 1740              		.loc 1 615 42 discriminator 1
 1741 00e6 3C75     		cmpb	$117, %al
 1742 00e8 0F853601 		jne	.L160
 1742      0000
 616:/home/xingli/share/1205tiny/cJSON/cJSON.c ****         {
 617:/home/xingli/share/1205tiny/cJSON/cJSON.c ****             /* missing second half of the surrogate pair */
 618:/home/xingli/share/1205tiny/cJSON/cJSON.c ****             goto fail;
 619:/home/xingli/share/1205tiny/cJSON/cJSON.c ****         }
 620:/home/xingli/share/1205tiny/cJSON/cJSON.c **** 
 621:/home/xingli/share/1205tiny/cJSON/cJSON.c ****         /* get the second utf16 sequence */
 622:/home/xingli/share/1205tiny/cJSON/cJSON.c ****         second_code = parse_hex4(second_sequence + 2);
 1743              		.loc 1 622 23
 1744 00ee 488B45F0 		movq	-16(%rbp), %rax
 1745 00f2 4883C002 		addq	$2, %rax
 1746 00f6 4889C7   		movq	%rax, %rdi
 1747 00f9 E8000000 		call	parse_hex4
 1747      00
 1748 00fe 8945DC   		movl	%eax, -36(%rbp)
 623:/home/xingli/share/1205tiny/cJSON/cJSON.c ****         /* check that the code is valid */
 624:/home/xingli/share/1205tiny/cJSON/cJSON.c ****         if ((second_code < 0xDC00) || (second_code > 0xDFFF))
 1749              		.loc 1 624 12
 1750 0101 817DDCFF 		cmpl	$56319, -36(%rbp)
 1750      DB0000
 1751 0108 0F861901 		jbe	.L161
 1751      0000
 1752              		.loc 1 624 36 discriminator 1
 1753 010e 817DDCFF 		cmpl	$57343, -36(%rbp)
 1753      DF0000
 1754 0115 0F870C01 		ja	.L161
 1754      0000
 625:/home/xingli/share/1205tiny/cJSON/cJSON.c ****         {
 626:/home/xingli/share/1205tiny/cJSON/cJSON.c ****             /* invalid second half of the surrogate pair */
 627:/home/xingli/share/1205tiny/cJSON/cJSON.c ****             goto fail;
 628:/home/xingli/share/1205tiny/cJSON/cJSON.c ****         }
 629:/home/xingli/share/1205tiny/cJSON/cJSON.c **** 
 630:/home/xingli/share/1205tiny/cJSON/cJSON.c **** 
 631:/home/xingli/share/1205tiny/cJSON/cJSON.c ****         /* calculate the unicode codepoint from the surrogate pair */
 632:/home/xingli/share/1205tiny/cJSON/cJSON.c ****         codepoint = 0x10000 + (((first_code & 0x3FF) << 10) | (second_code & 0x3FF));
 1755              		.loc 1 632 54
 1756 011b 8B45D8   		movl	-40(%rbp), %eax
 1757 011e C1E00A   		sall	$10, %eax
 1758 0121 2500FC0F 		andl	$1047552, %eax
 1758      00
 1759 0126 89C2     		movl	%eax, %edx
 1760              		.loc 1 632 76
 1761 0128 8B45DC   		movl	-36(%rbp), %eax
GAS LISTING /tmp/ccabgRKQ.s 			page 48


 1762 012b 25FF0300 		andl	$1023, %eax
 1762      00
 1763              		.loc 1 632 61
 1764 0130 09D0     		orl	%edx, %eax
 1765              		.loc 1 632 29
 1766 0132 05000001 		addl	$65536, %eax
 1766      00
 1767              		.loc 1 632 19
 1768 0137 89C0     		movl	%eax, %eax
 1769 0139 488945E0 		movq	%rax, -32(%rbp)
 1770              	.LBE2:
 604:/home/xingli/share/1205tiny/cJSON/cJSON.c ****         const unsigned char *second_sequence = first_sequence + 6;
 1771              		.loc 1 604 5
 1772 013d EB0B     		jmp	.L145
 1773              	.L139:
 633:/home/xingli/share/1205tiny/cJSON/cJSON.c ****     }
 634:/home/xingli/share/1205tiny/cJSON/cJSON.c ****     else
 635:/home/xingli/share/1205tiny/cJSON/cJSON.c ****     {
 636:/home/xingli/share/1205tiny/cJSON/cJSON.c ****         sequence_length = 6; /* \uXXXX */
 1774              		.loc 1 636 25
 1775 013f C645D606 		movb	$6, -42(%rbp)
 637:/home/xingli/share/1205tiny/cJSON/cJSON.c ****         codepoint = first_code;
 1776              		.loc 1 637 19
 1777 0143 8B45D8   		movl	-40(%rbp), %eax
 1778 0146 488945E0 		movq	%rax, -32(%rbp)
 1779              	.L145:
 638:/home/xingli/share/1205tiny/cJSON/cJSON.c ****     }
 639:/home/xingli/share/1205tiny/cJSON/cJSON.c **** 
 640:/home/xingli/share/1205tiny/cJSON/cJSON.c ****     /* encode as UTF-8
 641:/home/xingli/share/1205tiny/cJSON/cJSON.c ****      * takes at maximum 4 bytes to encode:
 642:/home/xingli/share/1205tiny/cJSON/cJSON.c ****      * 11110xxx 10xxxxxx 10xxxxxx 10xxxxxx */
 643:/home/xingli/share/1205tiny/cJSON/cJSON.c ****     if (codepoint < 0x80)
 1780              		.loc 1 643 8
 1781 014a 48837DE0 		cmpq	$127, -32(%rbp)
 1781      7F
 1782 014f 7706     		ja	.L146
 644:/home/xingli/share/1205tiny/cJSON/cJSON.c ****     {
 645:/home/xingli/share/1205tiny/cJSON/cJSON.c ****         /* normal ascii, encoding 0xxxxxxx */
 646:/home/xingli/share/1205tiny/cJSON/cJSON.c ****         utf8_length = 1;
 1783              		.loc 1 646 21
 1784 0151 C645D401 		movb	$1, -44(%rbp)
 1785 0155 EB3E     		jmp	.L147
 1786              	.L146:
 647:/home/xingli/share/1205tiny/cJSON/cJSON.c ****     }
 648:/home/xingli/share/1205tiny/cJSON/cJSON.c ****     else if (codepoint < 0x800)
 1787              		.loc 1 648 13
 1788 0157 48817DE0 		cmpq	$2047, -32(%rbp)
 1788      FF070000 
 1789 015f 770A     		ja	.L148
 649:/home/xingli/share/1205tiny/cJSON/cJSON.c ****     {
 650:/home/xingli/share/1205tiny/cJSON/cJSON.c ****         /* two bytes, encoding 110xxxxx 10xxxxxx */
 651:/home/xingli/share/1205tiny/cJSON/cJSON.c ****         utf8_length = 2;
 1790              		.loc 1 651 21
 1791 0161 C645D402 		movb	$2, -44(%rbp)
 652:/home/xingli/share/1205tiny/cJSON/cJSON.c ****         first_byte_mark = 0xC0; /* 11000000 */
 1792              		.loc 1 652 25
 1793 0165 C645D7C0 		movb	$-64, -41(%rbp)
GAS LISTING /tmp/ccabgRKQ.s 			page 49


 1794 0169 EB2A     		jmp	.L147
 1795              	.L148:
 653:/home/xingli/share/1205tiny/cJSON/cJSON.c ****     }
 654:/home/xingli/share/1205tiny/cJSON/cJSON.c ****     else if (codepoint < 0x10000)
 1796              		.loc 1 654 13
 1797 016b 48817DE0 		cmpq	$65535, -32(%rbp)
 1797      FFFF0000 
 1798 0173 770A     		ja	.L149
 655:/home/xingli/share/1205tiny/cJSON/cJSON.c ****     {
 656:/home/xingli/share/1205tiny/cJSON/cJSON.c ****         /* three bytes, encoding 1110xxxx 10xxxxxx 10xxxxxx */
 657:/home/xingli/share/1205tiny/cJSON/cJSON.c ****         utf8_length = 3;
 1799              		.loc 1 657 21
 1800 0175 C645D403 		movb	$3, -44(%rbp)
 658:/home/xingli/share/1205tiny/cJSON/cJSON.c ****         first_byte_mark = 0xE0; /* 11100000 */
 1801              		.loc 1 658 25
 1802 0179 C645D7E0 		movb	$-32, -41(%rbp)
 1803 017d EB16     		jmp	.L147
 1804              	.L149:
 659:/home/xingli/share/1205tiny/cJSON/cJSON.c ****     }
 660:/home/xingli/share/1205tiny/cJSON/cJSON.c ****     else if (codepoint <= 0x10FFFF)
 1805              		.loc 1 660 13
 1806 017f 48817DE0 		cmpq	$1114111, -32(%rbp)
 1806      FFFF1000 
 1807 0187 0F879D00 		ja	.L162
 1807      0000
 661:/home/xingli/share/1205tiny/cJSON/cJSON.c ****     {
 662:/home/xingli/share/1205tiny/cJSON/cJSON.c ****         /* four bytes, encoding 1110xxxx 10xxxxxx 10xxxxxx 10xxxxxx */
 663:/home/xingli/share/1205tiny/cJSON/cJSON.c ****         utf8_length = 4;
 1808              		.loc 1 663 21
 1809 018d C645D404 		movb	$4, -44(%rbp)
 664:/home/xingli/share/1205tiny/cJSON/cJSON.c ****         first_byte_mark = 0xF0; /* 11110000 */
 1810              		.loc 1 664 25
 1811 0191 C645D7F0 		movb	$-16, -41(%rbp)
 1812              	.L147:
 665:/home/xingli/share/1205tiny/cJSON/cJSON.c ****     }
 666:/home/xingli/share/1205tiny/cJSON/cJSON.c ****     else
 667:/home/xingli/share/1205tiny/cJSON/cJSON.c ****     {
 668:/home/xingli/share/1205tiny/cJSON/cJSON.c ****         /* invalid unicode codepoint */
 669:/home/xingli/share/1205tiny/cJSON/cJSON.c ****         goto fail;
 670:/home/xingli/share/1205tiny/cJSON/cJSON.c ****     }
 671:/home/xingli/share/1205tiny/cJSON/cJSON.c **** 
 672:/home/xingli/share/1205tiny/cJSON/cJSON.c ****     /* encode as utf8 */
 673:/home/xingli/share/1205tiny/cJSON/cJSON.c ****     for (utf8_position = (unsigned char)(utf8_length - 1); utf8_position > 0; utf8_position--)
 1813              		.loc 1 673 24
 1814 0195 0FB645D4 		movzbl	-44(%rbp), %eax
 1815 0199 83E801   		subl	$1, %eax
 1816 019c 8845D5   		movb	%al, -43(%rbp)
 1817              		.loc 1 673 5
 1818 019f EB2D     		jmp	.L151
 1819              	.L152:
 674:/home/xingli/share/1205tiny/cJSON/cJSON.c ****     {
 675:/home/xingli/share/1205tiny/cJSON/cJSON.c ****         /* 10xxxxxx */
 676:/home/xingli/share/1205tiny/cJSON/cJSON.c ****         (*output_pointer)[utf8_position] = (unsigned char)((codepoint | 0x80) & 0xBF);
 1820              		.loc 1 676 79 discriminator 3
 1821 01a1 488B45E0 		movq	-32(%rbp), %rax
 1822 01a5 83E03F   		andl	$63, %eax
 1823 01a8 89C1     		movl	%eax, %ecx
GAS LISTING /tmp/ccabgRKQ.s 			page 50


 1824              		.loc 1 676 10 discriminator 3
 1825 01aa 488B45B8 		movq	-72(%rbp), %rax
 1826 01ae 488B10   		movq	(%rax), %rdx
 1827              		.loc 1 676 26 discriminator 3
 1828 01b1 0FB645D5 		movzbl	-43(%rbp), %eax
 1829 01b5 4801D0   		addq	%rdx, %rax
 1830              		.loc 1 676 44 discriminator 3
 1831 01b8 83C980   		orl	$-128, %ecx
 1832 01bb 89CA     		movl	%ecx, %edx
 1833              		.loc 1 676 42 discriminator 3
 1834 01bd 8810     		movb	%dl, (%rax)
 677:/home/xingli/share/1205tiny/cJSON/cJSON.c ****         codepoint >>= 6;
 1835              		.loc 1 677 19 discriminator 3
 1836 01bf 48C16DE0 		shrq	$6, -32(%rbp)
 1836      06
 673:/home/xingli/share/1205tiny/cJSON/cJSON.c ****     {
 1837              		.loc 1 673 92 discriminator 3
 1838 01c4 0FB645D5 		movzbl	-43(%rbp), %eax
 1839 01c8 83E801   		subl	$1, %eax
 1840 01cb 8845D5   		movb	%al, -43(%rbp)
 1841              	.L151:
 673:/home/xingli/share/1205tiny/cJSON/cJSON.c ****     {
 1842              		.loc 1 673 5 discriminator 1
 1843 01ce 807DD500 		cmpb	$0, -43(%rbp)
 1844 01d2 75CD     		jne	.L152
 678:/home/xingli/share/1205tiny/cJSON/cJSON.c ****     }
 679:/home/xingli/share/1205tiny/cJSON/cJSON.c ****     /* encode first byte */
 680:/home/xingli/share/1205tiny/cJSON/cJSON.c ****     if (utf8_length > 1)
 1845              		.loc 1 680 8
 1846 01d4 807DD401 		cmpb	$1, -44(%rbp)
 1847 01d8 7614     		jbe	.L153
 681:/home/xingli/share/1205tiny/cJSON/cJSON.c ****     {
 682:/home/xingli/share/1205tiny/cJSON/cJSON.c ****         (*output_pointer)[0] = (unsigned char)((codepoint | first_byte_mark) & 0xFF);
 1848              		.loc 1 682 32
 1849 01da 488B45E0 		movq	-32(%rbp), %rax
 1850 01de 89C2     		movl	%eax, %edx
 1851              		.loc 1 682 10
 1852 01e0 488B45B8 		movq	-72(%rbp), %rax
 1853 01e4 488B00   		movq	(%rax), %rax
 1854              		.loc 1 682 32
 1855 01e7 0A55D7   		orb	-41(%rbp), %dl
 1856              		.loc 1 682 30
 1857 01ea 8810     		movb	%dl, (%rax)
 1858 01ec EB12     		jmp	.L154
 1859              	.L153:
 683:/home/xingli/share/1205tiny/cJSON/cJSON.c ****     }
 684:/home/xingli/share/1205tiny/cJSON/cJSON.c ****     else
 685:/home/xingli/share/1205tiny/cJSON/cJSON.c ****     {
 686:/home/xingli/share/1205tiny/cJSON/cJSON.c ****         (*output_pointer)[0] = (unsigned char)(codepoint & 0x7F);
 1860              		.loc 1 686 32
 1861 01ee 488B45E0 		movq	-32(%rbp), %rax
 1862 01f2 89C2     		movl	%eax, %edx
 1863              		.loc 1 686 10
 1864 01f4 488B45B8 		movq	-72(%rbp), %rax
 1865 01f8 488B00   		movq	(%rax), %rax
 1866              		.loc 1 686 32
 1867 01fb 83E27F   		andl	$127, %edx
GAS LISTING /tmp/ccabgRKQ.s 			page 51


 1868              		.loc 1 686 30
 1869 01fe 8810     		movb	%dl, (%rax)
 1870              	.L154:
 687:/home/xingli/share/1205tiny/cJSON/cJSON.c ****     }
 688:/home/xingli/share/1205tiny/cJSON/cJSON.c **** 
 689:/home/xingli/share/1205tiny/cJSON/cJSON.c ****     *output_pointer += utf8_length;
 1871              		.loc 1 689 21
 1872 0200 488B45B8 		movq	-72(%rbp), %rax
 1873 0204 488B10   		movq	(%rax), %rdx
 1874 0207 0FB645D4 		movzbl	-44(%rbp), %eax
 1875 020b 4801C2   		addq	%rax, %rdx
 1876 020e 488B45B8 		movq	-72(%rbp), %rax
 1877 0212 488910   		movq	%rdx, (%rax)
 690:/home/xingli/share/1205tiny/cJSON/cJSON.c **** 
 691:/home/xingli/share/1205tiny/cJSON/cJSON.c ****     return sequence_length;
 1878              		.loc 1 691 12
 1879 0215 0FB645D6 		movzbl	-42(%rbp), %eax
 1880 0219 EB15     		jmp	.L155
 1881              	.L157:
 590:/home/xingli/share/1205tiny/cJSON/cJSON.c ****     }
 1882              		.loc 1 590 9
 1883 021b 90       		nop
 1884 021c EB0D     		jmp	.L137
 1885              	.L158:
 599:/home/xingli/share/1205tiny/cJSON/cJSON.c ****     }
 1886              		.loc 1 599 9
 1887 021e 90       		nop
 1888 021f EB0A     		jmp	.L137
 1889              	.L159:
 1890              	.LBB3:
 612:/home/xingli/share/1205tiny/cJSON/cJSON.c ****         }
 1891              		.loc 1 612 13
 1892 0221 90       		nop
 1893 0222 EB07     		jmp	.L137
 1894              	.L160:
 618:/home/xingli/share/1205tiny/cJSON/cJSON.c ****         }
 1895              		.loc 1 618 13
 1896 0224 90       		nop
 1897 0225 EB04     		jmp	.L137
 1898              	.L161:
 627:/home/xingli/share/1205tiny/cJSON/cJSON.c ****         }
 1899              		.loc 1 627 13
 1900 0227 90       		nop
 1901 0228 EB01     		jmp	.L137
 1902              	.L162:
 1903              	.LBE3:
 669:/home/xingli/share/1205tiny/cJSON/cJSON.c ****     }
 1904              		.loc 1 669 9
 1905 022a 90       		nop
 1906              	.L137:
 692:/home/xingli/share/1205tiny/cJSON/cJSON.c **** 
 693:/home/xingli/share/1205tiny/cJSON/cJSON.c **** fail:
 694:/home/xingli/share/1205tiny/cJSON/cJSON.c ****     return 0;
 1907              		.loc 1 694 12
 1908 022b B8000000 		movl	$0, %eax
 1908      00
 1909              	.L155:
GAS LISTING /tmp/ccabgRKQ.s 			page 52


 695:/home/xingli/share/1205tiny/cJSON/cJSON.c **** }
 1910              		.loc 1 695 1
 1911 0230 488B75F8 		movq	-8(%rbp), %rsi
 1912 0234 64483334 		xorq	%fs:40, %rsi
 1912      25280000 
 1912      00
 1913 023d 7405     		je	.L156
 1914 023f E8000000 		call	__stack_chk_fail@PLT
 1914      00
 1915              	.L156:
 1916 0244 C9       		leave
 1917              	.LCFI47:
 1918              		.cfi_def_cfa 7, 8
 1919 0245 C3       		ret
 1920              		.cfi_endproc
 1921              	.LFE21:
 1923              		.section	.text.parse_string,"ax",@progbits
 1925              	parse_string:
 1926              	.LFB22:
 696:/home/xingli/share/1205tiny/cJSON/cJSON.c **** 
 697:/home/xingli/share/1205tiny/cJSON/cJSON.c **** /* Parse the input text into an unescaped cinput, and populate item. */
 698:/home/xingli/share/1205tiny/cJSON/cJSON.c **** static cJSON_bool parse_string(cJSON * const item, parse_buffer * const input_buffer)
 699:/home/xingli/share/1205tiny/cJSON/cJSON.c **** {
 1927              		.loc 1 699 1
 1928              		.cfi_startproc
 1929 0000 F30F1EFA 		endbr64
 1930 0004 55       		pushq	%rbp
 1931              	.LCFI48:
 1932              		.cfi_def_cfa_offset 16
 1933              		.cfi_offset 6, -16
 1934 0005 4889E5   		movq	%rsp, %rbp
 1935              	.LCFI49:
 1936              		.cfi_def_cfa_register 6
 1937 0008 4883EC50 		subq	$80, %rsp
 1938 000c 48897DB8 		movq	%rdi, -72(%rbp)
 1939 0010 488975B0 		movq	%rsi, -80(%rbp)
 1940              		.loc 1 699 1
 1941 0014 64488B04 		movq	%fs:40, %rax
 1941      25280000 
 1941      00
 1942 001d 488945F8 		movq	%rax, -8(%rbp)
 1943 0021 31C0     		xorl	%eax, %eax
 700:/home/xingli/share/1205tiny/cJSON/cJSON.c ****     const unsigned char *input_pointer = buffer_at_offset(input_buffer) + 1;
 1944              		.loc 1 700 42
 1945 0023 488B45B0 		movq	-80(%rbp), %rax
 1946 0027 488B10   		movq	(%rax), %rdx
 1947 002a 488B45B0 		movq	-80(%rbp), %rax
 1948 002e 488B4010 		movq	16(%rax), %rax
 1949              		.loc 1 700 73
 1950 0032 4883C001 		addq	$1, %rax
 1951              		.loc 1 700 26
 1952 0036 4801D0   		addq	%rdx, %rax
 1953 0039 488945D0 		movq	%rax, -48(%rbp)
 701:/home/xingli/share/1205tiny/cJSON/cJSON.c ****     const unsigned char *input_end = buffer_at_offset(input_buffer) + 1;
 1954              		.loc 1 701 38
 1955 003d 488B45B0 		movq	-80(%rbp), %rax
 1956 0041 488B10   		movq	(%rax), %rdx
GAS LISTING /tmp/ccabgRKQ.s 			page 53


 1957 0044 488B45B0 		movq	-80(%rbp), %rax
 1958 0048 488B4010 		movq	16(%rax), %rax
 1959              		.loc 1 701 69
 1960 004c 4883C001 		addq	$1, %rax
 1961              		.loc 1 701 26
 1962 0050 4801D0   		addq	%rdx, %rax
 1963 0053 488945D8 		movq	%rax, -40(%rbp)
 702:/home/xingli/share/1205tiny/cJSON/cJSON.c ****     unsigned char *output_pointer = NULL;
 1964              		.loc 1 702 20
 1965 0057 48C745C8 		movq	$0, -56(%rbp)
 1965      00000000 
 703:/home/xingli/share/1205tiny/cJSON/cJSON.c ****     unsigned char *output = NULL;
 1966              		.loc 1 703 20
 1967 005f 48C745E0 		movq	$0, -32(%rbp)
 1967      00000000 
 704:/home/xingli/share/1205tiny/cJSON/cJSON.c **** 
 705:/home/xingli/share/1205tiny/cJSON/cJSON.c ****     /* not a string */
 706:/home/xingli/share/1205tiny/cJSON/cJSON.c ****     if (buffer_at_offset(input_buffer)[0] != '\"')
 1968              		.loc 1 706 9
 1969 0067 488B45B0 		movq	-80(%rbp), %rax
 1970 006b 488B10   		movq	(%rax), %rdx
 1971 006e 488B45B0 		movq	-80(%rbp), %rax
 1972 0072 488B4010 		movq	16(%rax), %rax
 1973              		.loc 1 706 39
 1974 0076 4801D0   		addq	%rdx, %rax
 1975 0079 0FB600   		movzbl	(%rax), %eax
 1976              		.loc 1 706 8
 1977 007c 3C22     		cmpb	$34, %al
 1978 007e 0F85A402 		jne	.L195
 1978      0000
 1979              	.LBB4:
 707:/home/xingli/share/1205tiny/cJSON/cJSON.c ****     {
 708:/home/xingli/share/1205tiny/cJSON/cJSON.c ****         goto fail;
 709:/home/xingli/share/1205tiny/cJSON/cJSON.c ****     }
 710:/home/xingli/share/1205tiny/cJSON/cJSON.c **** 
 711:/home/xingli/share/1205tiny/cJSON/cJSON.c ****     {
 712:/home/xingli/share/1205tiny/cJSON/cJSON.c ****         /* calculate approximate size of the output (overestimate) */
 713:/home/xingli/share/1205tiny/cJSON/cJSON.c ****         size_t allocation_length = 0;
 1980              		.loc 1 713 16
 1981 0084 48C745F0 		movq	$0, -16(%rbp)
 1981      00000000 
 714:/home/xingli/share/1205tiny/cJSON/cJSON.c ****         size_t skipped_bytes = 0;
 1982              		.loc 1 714 16
 1983 008c 48C745E8 		movq	$0, -24(%rbp)
 1983      00000000 
 715:/home/xingli/share/1205tiny/cJSON/cJSON.c ****         while (((size_t)(input_end - input_buffer->content) < input_buffer->length) && (*input_end 
 1984              		.loc 1 715 15
 1985 0094 EB43     		jmp	.L166
 1986              	.L170:
 716:/home/xingli/share/1205tiny/cJSON/cJSON.c ****         {
 717:/home/xingli/share/1205tiny/cJSON/cJSON.c ****             /* is escape sequence */
 718:/home/xingli/share/1205tiny/cJSON/cJSON.c ****             if (input_end[0] == '\\')
 1987              		.loc 1 718 26
 1988 0096 488B45D8 		movq	-40(%rbp), %rax
 1989 009a 0FB600   		movzbl	(%rax), %eax
 1990              		.loc 1 718 16
 1991 009d 3C5C     		cmpb	$92, %al
GAS LISTING /tmp/ccabgRKQ.s 			page 54


 1992 009f 7533     		jne	.L167
 719:/home/xingli/share/1205tiny/cJSON/cJSON.c ****             {
 720:/home/xingli/share/1205tiny/cJSON/cJSON.c ****                 if ((size_t)(input_end + 1 - input_buffer->content) >= input_buffer->length)
 1993              		.loc 1 720 40
 1994 00a1 488B45D8 		movq	-40(%rbp), %rax
 1995 00a5 488D5001 		leaq	1(%rax), %rdx
 1996              		.loc 1 720 58
 1997 00a9 488B45B0 		movq	-80(%rbp), %rax
 1998 00ad 488B00   		movq	(%rax), %rax
 1999              		.loc 1 720 44
 2000 00b0 4829C2   		subq	%rax, %rdx
 2001 00b3 4889D0   		movq	%rdx, %rax
 2002              		.loc 1 720 21
 2003 00b6 4889C2   		movq	%rax, %rdx
 2004              		.loc 1 720 84
 2005 00b9 488B45B0 		movq	-80(%rbp), %rax
 2006 00bd 488B4008 		movq	8(%rax), %rax
 2007              		.loc 1 720 20
 2008 00c1 4839C2   		cmpq	%rax, %rdx
 2009 00c4 0F836102 		jnb	.L196
 2009      0000
 721:/home/xingli/share/1205tiny/cJSON/cJSON.c ****                 {
 722:/home/xingli/share/1205tiny/cJSON/cJSON.c ****                     /* prevent buffer overflow when last input character is a backslash */
 723:/home/xingli/share/1205tiny/cJSON/cJSON.c ****                     goto fail;
 724:/home/xingli/share/1205tiny/cJSON/cJSON.c ****                 }
 725:/home/xingli/share/1205tiny/cJSON/cJSON.c ****                 skipped_bytes++;
 2010              		.loc 1 725 30
 2011 00ca 488345E8 		addq	$1, -24(%rbp)
 2011      01
 726:/home/xingli/share/1205tiny/cJSON/cJSON.c ****                 input_end++;
 2012              		.loc 1 726 26
 2013 00cf 488345D8 		addq	$1, -40(%rbp)
 2013      01
 2014              	.L167:
 727:/home/xingli/share/1205tiny/cJSON/cJSON.c ****             }
 728:/home/xingli/share/1205tiny/cJSON/cJSON.c ****             input_end++;
 2015              		.loc 1 728 22
 2016 00d4 488345D8 		addq	$1, -40(%rbp)
 2016      01
 2017              	.L166:
 715:/home/xingli/share/1205tiny/cJSON/cJSON.c ****         {
 2018              		.loc 1 715 50
 2019 00d9 488B45B0 		movq	-80(%rbp), %rax
 2020 00dd 488B00   		movq	(%rax), %rax
 715:/home/xingli/share/1205tiny/cJSON/cJSON.c ****         {
 2021              		.loc 1 715 36
 2022 00e0 488B55D8 		movq	-40(%rbp), %rdx
 2023 00e4 4829C2   		subq	%rax, %rdx
 2024 00e7 4889D0   		movq	%rdx, %rax
 715:/home/xingli/share/1205tiny/cJSON/cJSON.c ****         {
 2025              		.loc 1 715 17
 2026 00ea 4889C2   		movq	%rax, %rdx
 715:/home/xingli/share/1205tiny/cJSON/cJSON.c ****         {
 2027              		.loc 1 715 75
 2028 00ed 488B45B0 		movq	-80(%rbp), %rax
 2029 00f1 488B4008 		movq	8(%rax), %rax
 715:/home/xingli/share/1205tiny/cJSON/cJSON.c ****         {
GAS LISTING /tmp/ccabgRKQ.s 			page 55


 2030              		.loc 1 715 15
 2031 00f5 4839C2   		cmpq	%rax, %rdx
 2032 00f8 730B     		jnb	.L169
 715:/home/xingli/share/1205tiny/cJSON/cJSON.c ****         {
 2033              		.loc 1 715 89 discriminator 1
 2034 00fa 488B45D8 		movq	-40(%rbp), %rax
 2035 00fe 0FB600   		movzbl	(%rax), %eax
 715:/home/xingli/share/1205tiny/cJSON/cJSON.c ****         {
 2036              		.loc 1 715 85 discriminator 1
 2037 0101 3C22     		cmpb	$34, %al
 2038 0103 7591     		jne	.L170
 2039              	.L169:
 729:/home/xingli/share/1205tiny/cJSON/cJSON.c ****         }
 730:/home/xingli/share/1205tiny/cJSON/cJSON.c ****         if (((size_t)(input_end - input_buffer->content) >= input_buffer->length) || (*input_end !=
 2040              		.loc 1 730 47
 2041 0105 488B45B0 		movq	-80(%rbp), %rax
 2042 0109 488B00   		movq	(%rax), %rax
 2043              		.loc 1 730 33
 2044 010c 488B55D8 		movq	-40(%rbp), %rdx
 2045 0110 4829C2   		subq	%rax, %rdx
 2046 0113 4889D0   		movq	%rdx, %rax
 2047              		.loc 1 730 14
 2048 0116 4889C2   		movq	%rax, %rdx
 2049              		.loc 1 730 73
 2050 0119 488B45B0 		movq	-80(%rbp), %rax
 2051 011d 488B4008 		movq	8(%rax), %rax
 2052              		.loc 1 730 12
 2053 0121 4839C2   		cmpq	%rax, %rdx
 2054 0124 0F830402 		jnb	.L197
 2054      0000
 2055              		.loc 1 730 87 discriminator 1
 2056 012a 488B45D8 		movq	-40(%rbp), %rax
 2057 012e 0FB600   		movzbl	(%rax), %eax
 2058              		.loc 1 730 83 discriminator 1
 2059 0131 3C22     		cmpb	$34, %al
 2060 0133 0F85F501 		jne	.L197
 2060      0000
 731:/home/xingli/share/1205tiny/cJSON/cJSON.c ****         {
 732:/home/xingli/share/1205tiny/cJSON/cJSON.c ****             goto fail; /* string ended unexpectedly */
 733:/home/xingli/share/1205tiny/cJSON/cJSON.c ****         }
 734:/home/xingli/share/1205tiny/cJSON/cJSON.c **** 
 735:/home/xingli/share/1205tiny/cJSON/cJSON.c ****         /* This is at most how much we need for the output */
 736:/home/xingli/share/1205tiny/cJSON/cJSON.c ****         allocation_length = (size_t) (input_end - buffer_at_offset(input_buffer)) - skipped_bytes;
 2061              		.loc 1 736 51
 2062 0139 488B45B0 		movq	-80(%rbp), %rax
 2063 013d 488B10   		movq	(%rax), %rdx
 2064 0140 488B45B0 		movq	-80(%rbp), %rax
 2065 0144 488B4010 		movq	16(%rax), %rax
 2066 0148 4801C2   		addq	%rax, %rdx
 2067              		.loc 1 736 49
 2068 014b 488B45D8 		movq	-40(%rbp), %rax
 2069 014f 4829D0   		subq	%rdx, %rax
 2070              		.loc 1 736 27
 2071 0152 482B45E8 		subq	-24(%rbp), %rax
 2072 0156 488945F0 		movq	%rax, -16(%rbp)
 737:/home/xingli/share/1205tiny/cJSON/cJSON.c ****         output = (unsigned char*)input_buffer->hooks.allocate(allocation_length + sizeof(""));
 2073              		.loc 1 737 53
GAS LISTING /tmp/ccabgRKQ.s 			page 56


 2074 015a 488B45B0 		movq	-80(%rbp), %rax
 2075 015e 488B4020 		movq	32(%rax), %rax
 2076              		.loc 1 737 34
 2077 0162 488B55F0 		movq	-16(%rbp), %rdx
 2078 0166 4883C201 		addq	$1, %rdx
 2079 016a 4889D7   		movq	%rdx, %rdi
 2080 016d FFD0     		call	*%rax
 2081              	.LVL10:
 2082 016f 488945E0 		movq	%rax, -32(%rbp)
 738:/home/xingli/share/1205tiny/cJSON/cJSON.c ****         if (output == NULL)
 2083              		.loc 1 738 12
 2084 0173 48837DE0 		cmpq	$0, -32(%rbp)
 2084      00
 2085 0178 0F84B301 		je	.L198
 2085      0000
 2086              	.LBE4:
 739:/home/xingli/share/1205tiny/cJSON/cJSON.c ****         {
 740:/home/xingli/share/1205tiny/cJSON/cJSON.c ****             goto fail; /* allocation failure */
 741:/home/xingli/share/1205tiny/cJSON/cJSON.c ****         }
 742:/home/xingli/share/1205tiny/cJSON/cJSON.c ****     }
 743:/home/xingli/share/1205tiny/cJSON/cJSON.c **** 
 744:/home/xingli/share/1205tiny/cJSON/cJSON.c ****     output_pointer = output;
 2087              		.loc 1 744 20
 2088 017e 488B45E0 		movq	-32(%rbp), %rax
 2089 0182 488945C8 		movq	%rax, -56(%rbp)
 745:/home/xingli/share/1205tiny/cJSON/cJSON.c ****     /* loop through the string literal */
 746:/home/xingli/share/1205tiny/cJSON/cJSON.c ****     while (input_pointer < input_end)
 2090              		.loc 1 746 11
 2091 0186 E93A0100 		jmp	.L174
 2091      00
 2092              	.L189:
 747:/home/xingli/share/1205tiny/cJSON/cJSON.c ****     {
 748:/home/xingli/share/1205tiny/cJSON/cJSON.c ****         if (*input_pointer != '\\')
 2093              		.loc 1 748 13
 2094 018b 488B45D0 		movq	-48(%rbp), %rax
 2095 018f 0FB600   		movzbl	(%rax), %eax
 2096              		.loc 1 748 12
 2097 0192 3C5C     		cmpb	$92, %al
 2098 0194 7422     		je	.L175
 749:/home/xingli/share/1205tiny/cJSON/cJSON.c ****         {
 750:/home/xingli/share/1205tiny/cJSON/cJSON.c ****             *output_pointer++ = *input_pointer++;
 2099              		.loc 1 750 47
 2100 0196 488B55D0 		movq	-48(%rbp), %rdx
 2101 019a 488D4201 		leaq	1(%rdx), %rax
 2102 019e 488945D0 		movq	%rax, -48(%rbp)
 2103              		.loc 1 750 28
 2104 01a2 488B45C8 		movq	-56(%rbp), %rax
 2105 01a6 488D4801 		leaq	1(%rax), %rcx
 2106 01aa 48894DC8 		movq	%rcx, -56(%rbp)
 2107              		.loc 1 750 33
 2108 01ae 0FB612   		movzbl	(%rdx), %edx
 2109              		.loc 1 750 31
 2110 01b1 8810     		movb	%dl, (%rax)
 2111 01b3 E90D0100 		jmp	.L174
 2111      00
 2112              	.L175:
 2113              	.LBB5:
GAS LISTING /tmp/ccabgRKQ.s 			page 57


 751:/home/xingli/share/1205tiny/cJSON/cJSON.c ****         }
 752:/home/xingli/share/1205tiny/cJSON/cJSON.c ****         /* escape sequence */
 753:/home/xingli/share/1205tiny/cJSON/cJSON.c ****         else
 754:/home/xingli/share/1205tiny/cJSON/cJSON.c ****         {
 755:/home/xingli/share/1205tiny/cJSON/cJSON.c ****             unsigned char sequence_length = 2;
 2114              		.loc 1 755 27
 2115 01b8 C645C702 		movb	$2, -57(%rbp)
 756:/home/xingli/share/1205tiny/cJSON/cJSON.c ****             if ((input_end - input_pointer) < 1)
 2116              		.loc 1 756 28
 2117 01bc 488B45D8 		movq	-40(%rbp), %rax
 2118 01c0 482B45D0 		subq	-48(%rbp), %rax
 2119              		.loc 1 756 16
 2120 01c4 4885C0   		testq	%rax, %rax
 2121 01c7 0F8E6701 		jle	.L199
 2121      0000
 757:/home/xingli/share/1205tiny/cJSON/cJSON.c ****             {
 758:/home/xingli/share/1205tiny/cJSON/cJSON.c ****                 goto fail;
 759:/home/xingli/share/1205tiny/cJSON/cJSON.c ****             }
 760:/home/xingli/share/1205tiny/cJSON/cJSON.c **** 
 761:/home/xingli/share/1205tiny/cJSON/cJSON.c ****             switch (input_pointer[1])
 2122              		.loc 1 761 34
 2123 01cd 488B45D0 		movq	-48(%rbp), %rax
 2124 01d1 4883C001 		addq	$1, %rax
 2125 01d5 0FB600   		movzbl	(%rax), %eax
 2126 01d8 0FB6C0   		movzbl	%al, %eax
 2127              		.loc 1 761 13
 2128 01db 83F875   		cmpl	$117, %eax
 2129 01de 0F8F5301 		jg	.L200
 2129      0000
 2130 01e4 83F85C   		cmpl	$92, %eax
 2131 01e7 7D17     		jge	.L178
 2132 01e9 83F822   		cmpl	$34, %eax
 2133 01ec 0F849200 		je	.L179
 2133      0000
 2134 01f2 83F82F   		cmpl	$47, %eax
 2135 01f5 0F848900 		je	.L179
 2135      0000
 762:/home/xingli/share/1205tiny/cJSON/cJSON.c ****             {
 763:/home/xingli/share/1205tiny/cJSON/cJSON.c ****                 case 'b':
 764:/home/xingli/share/1205tiny/cJSON/cJSON.c ****                     *output_pointer++ = '\b';
 765:/home/xingli/share/1205tiny/cJSON/cJSON.c ****                     break;
 766:/home/xingli/share/1205tiny/cJSON/cJSON.c ****                 case 'f':
 767:/home/xingli/share/1205tiny/cJSON/cJSON.c ****                     *output_pointer++ = '\f';
 768:/home/xingli/share/1205tiny/cJSON/cJSON.c ****                     break;
 769:/home/xingli/share/1205tiny/cJSON/cJSON.c ****                 case 'n':
 770:/home/xingli/share/1205tiny/cJSON/cJSON.c ****                     *output_pointer++ = '\n';
 771:/home/xingli/share/1205tiny/cJSON/cJSON.c ****                     break;
 772:/home/xingli/share/1205tiny/cJSON/cJSON.c ****                 case 'r':
 773:/home/xingli/share/1205tiny/cJSON/cJSON.c ****                     *output_pointer++ = '\r';
 774:/home/xingli/share/1205tiny/cJSON/cJSON.c ****                     break;
 775:/home/xingli/share/1205tiny/cJSON/cJSON.c ****                 case 't':
 776:/home/xingli/share/1205tiny/cJSON/cJSON.c ****                     *output_pointer++ = '\t';
 777:/home/xingli/share/1205tiny/cJSON/cJSON.c ****                     break;
 778:/home/xingli/share/1205tiny/cJSON/cJSON.c ****                 case '\"':
 779:/home/xingli/share/1205tiny/cJSON/cJSON.c ****                 case '\\':
 780:/home/xingli/share/1205tiny/cJSON/cJSON.c ****                 case '/':
 781:/home/xingli/share/1205tiny/cJSON/cJSON.c ****                     *output_pointer++ = input_pointer[1];
GAS LISTING /tmp/ccabgRKQ.s 			page 58


 782:/home/xingli/share/1205tiny/cJSON/cJSON.c ****                     break;
 783:/home/xingli/share/1205tiny/cJSON/cJSON.c **** 
 784:/home/xingli/share/1205tiny/cJSON/cJSON.c ****                 /* UTF-16 literal */
 785:/home/xingli/share/1205tiny/cJSON/cJSON.c ****                 case 'u':
 786:/home/xingli/share/1205tiny/cJSON/cJSON.c ****                     sequence_length = utf16_literal_to_utf8(input_pointer, input_end, &output_point
 787:/home/xingli/share/1205tiny/cJSON/cJSON.c ****                     if (sequence_length == 0)
 788:/home/xingli/share/1205tiny/cJSON/cJSON.c ****                     {
 789:/home/xingli/share/1205tiny/cJSON/cJSON.c ****                         /* failed to convert UTF16-literal to UTF-8 */
 790:/home/xingli/share/1205tiny/cJSON/cJSON.c ****                         goto fail;
 791:/home/xingli/share/1205tiny/cJSON/cJSON.c ****                     }
 792:/home/xingli/share/1205tiny/cJSON/cJSON.c ****                     break;
 793:/home/xingli/share/1205tiny/cJSON/cJSON.c **** 
 794:/home/xingli/share/1205tiny/cJSON/cJSON.c ****                 default:
 795:/home/xingli/share/1205tiny/cJSON/cJSON.c ****                     goto fail;
 2136              		.loc 1 795 21
 2137 01fb E9370100 		jmp	.L200
 2137      00
 2138              	.L178:
 2139 0200 83E85C   		subl	$92, %eax
 2140 0203 83F819   		cmpl	$25, %eax
 2141 0206 0F872B01 		ja	.L200
 2141      0000
 2142 020c 89C0     		movl	%eax, %eax
 2143 020e 488D1485 		leaq	0(,%rax,4), %rdx
 2143      00000000 
 2144 0216 488D0500 		leaq	.L181(%rip), %rax
 2144      000000
 2145 021d 8B0402   		movl	(%rdx,%rax), %eax
 2146 0220 4898     		cltq
 2147 0222 488D1500 		leaq	.L181(%rip), %rdx
 2147      000000
 2148 0229 4801D0   		addq	%rdx, %rax
 2149 022c 3EFFE0   		notrack jmp	*%rax
 2150              		.section	.rodata.parse_string,"a",@progbits
 2151              		.align 4
 2152              		.align 4
 2153              	.L181:
 2154 0000 00000000 		.long	.L179-.L181
 2155 0004 00000000 		.long	.L200-.L181
 2156 0008 00000000 		.long	.L200-.L181
 2157 000c 00000000 		.long	.L200-.L181
 2158 0010 00000000 		.long	.L200-.L181
 2159 0014 00000000 		.long	.L200-.L181
 2160 0018 00000000 		.long	.L186-.L181
 2161 001c 00000000 		.long	.L200-.L181
 2162 0020 00000000 		.long	.L200-.L181
 2163 0024 00000000 		.long	.L200-.L181
 2164 0028 00000000 		.long	.L185-.L181
 2165 002c 00000000 		.long	.L200-.L181
 2166 0030 00000000 		.long	.L200-.L181
 2167 0034 00000000 		.long	.L200-.L181
 2168 0038 00000000 		.long	.L200-.L181
 2169 003c 00000000 		.long	.L200-.L181
 2170 0040 00000000 		.long	.L200-.L181
 2171 0044 00000000 		.long	.L200-.L181
 2172 0048 00000000 		.long	.L184-.L181
 2173 004c 00000000 		.long	.L200-.L181
GAS LISTING /tmp/ccabgRKQ.s 			page 59


 2174 0050 00000000 		.long	.L200-.L181
 2175 0054 00000000 		.long	.L200-.L181
 2176 0058 00000000 		.long	.L183-.L181
 2177 005c 00000000 		.long	.L200-.L181
 2178 0060 00000000 		.long	.L182-.L181
 2179 0064 00000000 		.long	.L180-.L181
 2180              		.section	.text.parse_string
 2181              	.L186:
 764:/home/xingli/share/1205tiny/cJSON/cJSON.c ****                     break;
 2182              		.loc 1 764 36
 2183 022f 488B45C8 		movq	-56(%rbp), %rax
 2184 0233 488D5001 		leaq	1(%rax), %rdx
 2185 0237 488955C8 		movq	%rdx, -56(%rbp)
 764:/home/xingli/share/1205tiny/cJSON/cJSON.c ****                     break;
 2186              		.loc 1 764 39
 2187 023b C60008   		movb	$8, (%rax)
 765:/home/xingli/share/1205tiny/cJSON/cJSON.c ****                 case 'f':
 2188              		.loc 1 765 21
 2189 023e EB7D     		jmp	.L187
 2190              	.L185:
 767:/home/xingli/share/1205tiny/cJSON/cJSON.c ****                     break;
 2191              		.loc 1 767 36
 2192 0240 488B45C8 		movq	-56(%rbp), %rax
 2193 0244 488D5001 		leaq	1(%rax), %rdx
 2194 0248 488955C8 		movq	%rdx, -56(%rbp)
 767:/home/xingli/share/1205tiny/cJSON/cJSON.c ****                     break;
 2195              		.loc 1 767 39
 2196 024c C6000C   		movb	$12, (%rax)
 768:/home/xingli/share/1205tiny/cJSON/cJSON.c ****                 case 'n':
 2197              		.loc 1 768 21
 2198 024f EB6C     		jmp	.L187
 2199              	.L184:
 770:/home/xingli/share/1205tiny/cJSON/cJSON.c ****                     break;
 2200              		.loc 1 770 36
 2201 0251 488B45C8 		movq	-56(%rbp), %rax
 2202 0255 488D5001 		leaq	1(%rax), %rdx
 2203 0259 488955C8 		movq	%rdx, -56(%rbp)
 770:/home/xingli/share/1205tiny/cJSON/cJSON.c ****                     break;
 2204              		.loc 1 770 39
 2205 025d C6000A   		movb	$10, (%rax)
 771:/home/xingli/share/1205tiny/cJSON/cJSON.c ****                 case 'r':
 2206              		.loc 1 771 21
 2207 0260 EB5B     		jmp	.L187
 2208              	.L183:
 773:/home/xingli/share/1205tiny/cJSON/cJSON.c ****                     break;
 2209              		.loc 1 773 36
 2210 0262 488B45C8 		movq	-56(%rbp), %rax
 2211 0266 488D5001 		leaq	1(%rax), %rdx
 2212 026a 488955C8 		movq	%rdx, -56(%rbp)
 773:/home/xingli/share/1205tiny/cJSON/cJSON.c ****                     break;
 2213              		.loc 1 773 39
 2214 026e C6000D   		movb	$13, (%rax)
 774:/home/xingli/share/1205tiny/cJSON/cJSON.c ****                 case 't':
 2215              		.loc 1 774 21
 2216 0271 EB4A     		jmp	.L187
 2217              	.L182:
 776:/home/xingli/share/1205tiny/cJSON/cJSON.c ****                     break;
GAS LISTING /tmp/ccabgRKQ.s 			page 60


 2218              		.loc 1 776 36
 2219 0273 488B45C8 		movq	-56(%rbp), %rax
 2220 0277 488D5001 		leaq	1(%rax), %rdx
 2221 027b 488955C8 		movq	%rdx, -56(%rbp)
 776:/home/xingli/share/1205tiny/cJSON/cJSON.c ****                     break;
 2222              		.loc 1 776 39
 2223 027f C60009   		movb	$9, (%rax)
 777:/home/xingli/share/1205tiny/cJSON/cJSON.c ****                 case '\"':
 2224              		.loc 1 777 21
 2225 0282 EB39     		jmp	.L187
 2226              	.L179:
 781:/home/xingli/share/1205tiny/cJSON/cJSON.c ****                     break;
 2227              		.loc 1 781 36
 2228 0284 488B45C8 		movq	-56(%rbp), %rax
 2229 0288 488D5001 		leaq	1(%rax), %rdx
 2230 028c 488955C8 		movq	%rdx, -56(%rbp)
 781:/home/xingli/share/1205tiny/cJSON/cJSON.c ****                     break;
 2231              		.loc 1 781 39
 2232 0290 488B55D0 		movq	-48(%rbp), %rdx
 2233 0294 0FB65201 		movzbl	1(%rdx), %edx
 2234 0298 8810     		movb	%dl, (%rax)
 782:/home/xingli/share/1205tiny/cJSON/cJSON.c **** 
 2235              		.loc 1 782 21
 2236 029a EB21     		jmp	.L187
 2237              	.L180:
 786:/home/xingli/share/1205tiny/cJSON/cJSON.c ****                     if (sequence_length == 0)
 2238              		.loc 1 786 39
 2239 029c 488D55C8 		leaq	-56(%rbp), %rdx
 2240 02a0 488B4DD8 		movq	-40(%rbp), %rcx
 2241 02a4 488B45D0 		movq	-48(%rbp), %rax
 2242 02a8 4889CE   		movq	%rcx, %rsi
 2243 02ab 4889C7   		movq	%rax, %rdi
 2244 02ae E8000000 		call	utf16_literal_to_utf8
 2244      00
 2245 02b3 8845C7   		movb	%al, -57(%rbp)
 787:/home/xingli/share/1205tiny/cJSON/cJSON.c ****                     {
 2246              		.loc 1 787 24
 2247 02b6 807DC700 		cmpb	$0, -57(%rbp)
 2248 02ba 747E     		je	.L201
 792:/home/xingli/share/1205tiny/cJSON/cJSON.c **** 
 2249              		.loc 1 792 21
 2250 02bc 90       		nop
 2251              	.L187:
 796:/home/xingli/share/1205tiny/cJSON/cJSON.c ****             }
 797:/home/xingli/share/1205tiny/cJSON/cJSON.c ****             input_pointer += sequence_length;
 2252              		.loc 1 797 27
 2253 02bd 0FB645C7 		movzbl	-57(%rbp), %eax
 2254 02c1 480145D0 		addq	%rax, -48(%rbp)
 2255              	.L174:
 2256              	.LBE5:
 746:/home/xingli/share/1205tiny/cJSON/cJSON.c ****     {
 2257              		.loc 1 746 11
 2258 02c5 488B45D0 		movq	-48(%rbp), %rax
 2259 02c9 483B45D8 		cmpq	-40(%rbp), %rax
 2260 02cd 0F82B8FE 		jb	.L189
 2260      FFFF
 798:/home/xingli/share/1205tiny/cJSON/cJSON.c ****         }
GAS LISTING /tmp/ccabgRKQ.s 			page 61


 799:/home/xingli/share/1205tiny/cJSON/cJSON.c ****     }
 800:/home/xingli/share/1205tiny/cJSON/cJSON.c **** 
 801:/home/xingli/share/1205tiny/cJSON/cJSON.c ****     /* zero terminate the output */
 802:/home/xingli/share/1205tiny/cJSON/cJSON.c ****     *output_pointer = '\0';
 2261              		.loc 1 802 5
 2262 02d3 488B45C8 		movq	-56(%rbp), %rax
 2263              		.loc 1 802 21
 2264 02d7 C60000   		movb	$0, (%rax)
 803:/home/xingli/share/1205tiny/cJSON/cJSON.c **** 
 804:/home/xingli/share/1205tiny/cJSON/cJSON.c ****     item->type = cJSON_String;
 2265              		.loc 1 804 16
 2266 02da 488B45B8 		movq	-72(%rbp), %rax
 2267 02de C7401810 		movl	$16, 24(%rax)
 2267      000000
 805:/home/xingli/share/1205tiny/cJSON/cJSON.c ****     item->valuestring = (char*)output;
 2268              		.loc 1 805 23
 2269 02e5 488B45B8 		movq	-72(%rbp), %rax
 2270 02e9 488B55E0 		movq	-32(%rbp), %rdx
 2271 02ed 48895020 		movq	%rdx, 32(%rax)
 806:/home/xingli/share/1205tiny/cJSON/cJSON.c **** 
 807:/home/xingli/share/1205tiny/cJSON/cJSON.c ****     input_buffer->offset = (size_t) (input_end - input_buffer->content);
 2272              		.loc 1 807 62
 2273 02f1 488B45B0 		movq	-80(%rbp), %rax
 2274 02f5 488B00   		movq	(%rax), %rax
 2275              		.loc 1 807 48
 2276 02f8 488B55D8 		movq	-40(%rbp), %rdx
 2277 02fc 4829C2   		subq	%rax, %rdx
 2278 02ff 4889D0   		movq	%rdx, %rax
 2279              		.loc 1 807 28
 2280 0302 4889C2   		movq	%rax, %rdx
 2281              		.loc 1 807 26
 2282 0305 488B45B0 		movq	-80(%rbp), %rax
 2283 0309 48895010 		movq	%rdx, 16(%rax)
 808:/home/xingli/share/1205tiny/cJSON/cJSON.c ****     input_buffer->offset++;
 2284              		.loc 1 808 17
 2285 030d 488B45B0 		movq	-80(%rbp), %rax
 2286 0311 488B4010 		movq	16(%rax), %rax
 2287              		.loc 1 808 25
 2288 0315 488D5001 		leaq	1(%rax), %rdx
 2289 0319 488B45B0 		movq	-80(%rbp), %rax
 2290 031d 48895010 		movq	%rdx, 16(%rax)
 809:/home/xingli/share/1205tiny/cJSON/cJSON.c **** 
 810:/home/xingli/share/1205tiny/cJSON/cJSON.c ****     return true;
 2291              		.loc 1 810 12
 2292 0321 B8010000 		movl	$1, %eax
 2292      00
 2293 0326 EB53     		jmp	.L193
 2294              	.L195:
 708:/home/xingli/share/1205tiny/cJSON/cJSON.c ****     }
 2295              		.loc 1 708 9
 2296 0328 90       		nop
 2297 0329 EB10     		jmp	.L165
 2298              	.L196:
 2299              	.LBB6:
 723:/home/xingli/share/1205tiny/cJSON/cJSON.c ****                 }
 2300              		.loc 1 723 21
 2301 032b 90       		nop
GAS LISTING /tmp/ccabgRKQ.s 			page 62


 2302 032c EB0D     		jmp	.L165
 2303              	.L197:
 732:/home/xingli/share/1205tiny/cJSON/cJSON.c ****         }
 2304              		.loc 1 732 13
 2305 032e 90       		nop
 2306 032f EB0A     		jmp	.L165
 2307              	.L198:
 740:/home/xingli/share/1205tiny/cJSON/cJSON.c ****         }
 2308              		.loc 1 740 13
 2309 0331 90       		nop
 2310 0332 EB07     		jmp	.L165
 2311              	.L199:
 2312              	.LBE6:
 2313              	.LBB7:
 758:/home/xingli/share/1205tiny/cJSON/cJSON.c ****             }
 2314              		.loc 1 758 17
 2315 0334 90       		nop
 2316 0335 EB04     		jmp	.L165
 2317              	.L200:
 795:/home/xingli/share/1205tiny/cJSON/cJSON.c ****             }
 2318              		.loc 1 795 21
 2319 0337 90       		nop
 2320 0338 EB01     		jmp	.L165
 2321              	.L201:
 790:/home/xingli/share/1205tiny/cJSON/cJSON.c ****                     }
 2322              		.loc 1 790 25
 2323 033a 90       		nop
 2324              	.L165:
 2325              	.LBE7:
 811:/home/xingli/share/1205tiny/cJSON/cJSON.c **** 
 812:/home/xingli/share/1205tiny/cJSON/cJSON.c **** fail:
 813:/home/xingli/share/1205tiny/cJSON/cJSON.c ****     if (output != NULL)
 2326              		.loc 1 813 8
 2327 033b 48837DE0 		cmpq	$0, -32(%rbp)
 2327      00
 2328 0340 7411     		je	.L191
 814:/home/xingli/share/1205tiny/cJSON/cJSON.c ****     {
 815:/home/xingli/share/1205tiny/cJSON/cJSON.c ****         input_buffer->hooks.deallocate(output);
 2329              		.loc 1 815 28
 2330 0342 488B45B0 		movq	-80(%rbp), %rax
 2331 0346 488B5028 		movq	40(%rax), %rdx
 2332              		.loc 1 815 9
 2333 034a 488B45E0 		movq	-32(%rbp), %rax
 2334 034e 4889C7   		movq	%rax, %rdi
 2335 0351 FFD2     		call	*%rdx
 2336              	.LVL11:
 2337              	.L191:
 816:/home/xingli/share/1205tiny/cJSON/cJSON.c ****     }
 817:/home/xingli/share/1205tiny/cJSON/cJSON.c **** 
 818:/home/xingli/share/1205tiny/cJSON/cJSON.c ****     if (input_pointer != NULL)
 2338              		.loc 1 818 8
 2339 0353 48837DD0 		cmpq	$0, -48(%rbp)
 2339      00
 2340 0358 741C     		je	.L192
 819:/home/xingli/share/1205tiny/cJSON/cJSON.c ****     {
 820:/home/xingli/share/1205tiny/cJSON/cJSON.c ****         input_buffer->offset = (size_t)(input_pointer - input_buffer->content);
 2341              		.loc 1 820 69
GAS LISTING /tmp/ccabgRKQ.s 			page 63


 2342 035a 488B45B0 		movq	-80(%rbp), %rax
 2343 035e 488B00   		movq	(%rax), %rax
 2344              		.loc 1 820 55
 2345 0361 488B55D0 		movq	-48(%rbp), %rdx
 2346 0365 4829C2   		subq	%rax, %rdx
 2347 0368 4889D0   		movq	%rdx, %rax
 2348              		.loc 1 820 32
 2349 036b 4889C2   		movq	%rax, %rdx
 2350              		.loc 1 820 30
 2351 036e 488B45B0 		movq	-80(%rbp), %rax
 2352 0372 48895010 		movq	%rdx, 16(%rax)
 2353              	.L192:
 821:/home/xingli/share/1205tiny/cJSON/cJSON.c ****     }
 822:/home/xingli/share/1205tiny/cJSON/cJSON.c **** 
 823:/home/xingli/share/1205tiny/cJSON/cJSON.c ****     return false;
 2354              		.loc 1 823 12
 2355 0376 B8000000 		movl	$0, %eax
 2355      00
 2356              	.L193:
 824:/home/xingli/share/1205tiny/cJSON/cJSON.c **** }
 2357              		.loc 1 824 1 discriminator 1
 2358 037b 488B75F8 		movq	-8(%rbp), %rsi
 2359 037f 64483334 		xorq	%fs:40, %rsi
 2359      25280000 
 2359      00
 2360 0388 7405     		je	.L194
 2361              		.loc 1 824 1 is_stmt 0
 2362 038a E8000000 		call	__stack_chk_fail@PLT
 2362      00
 2363              	.L194:
 2364 038f C9       		leave
 2365              	.LCFI50:
 2366              		.cfi_def_cfa 7, 8
 2367 0390 C3       		ret
 2368              		.cfi_endproc
 2369              	.LFE22:
 2371              		.section	.rodata
 2372              	.LC8:
 2373 0020 75253034 		.string	"u%04x"
 2373      7800
 2374              		.section	.text.print_string_ptr,"ax",@progbits
 2376              	print_string_ptr:
 2377              	.LFB23:
 825:/home/xingli/share/1205tiny/cJSON/cJSON.c **** 
 826:/home/xingli/share/1205tiny/cJSON/cJSON.c **** /* Render the cstring provided to an escaped version that can be printed. */
 827:/home/xingli/share/1205tiny/cJSON/cJSON.c **** static cJSON_bool print_string_ptr(const unsigned char * const input, printbuffer * const output_bu
 828:/home/xingli/share/1205tiny/cJSON/cJSON.c **** {
 2378              		.loc 1 828 1 is_stmt 1
 2379              		.cfi_startproc
 2380 0000 F30F1EFA 		endbr64
 2381 0004 55       		pushq	%rbp
 2382              	.LCFI51:
 2383              		.cfi_def_cfa_offset 16
 2384              		.cfi_offset 6, -16
 2385 0005 4889E5   		movq	%rsp, %rbp
 2386              	.LCFI52:
 2387              		.cfi_def_cfa_register 6
GAS LISTING /tmp/ccabgRKQ.s 			page 64


 2388 0008 4883EC40 		subq	$64, %rsp
 2389 000c 48897DC8 		movq	%rdi, -56(%rbp)
 2390 0010 488975C0 		movq	%rsi, -64(%rbp)
 2391              		.loc 1 828 1
 2392 0014 64488B04 		movq	%fs:40, %rax
 2392      25280000 
 2392      00
 2393 001d 488945F8 		movq	%rax, -8(%rbp)
 2394 0021 31C0     		xorl	%eax, %eax
 829:/home/xingli/share/1205tiny/cJSON/cJSON.c ****     const unsigned char *input_pointer = NULL;
 2395              		.loc 1 829 26
 2396 0023 48C745D0 		movq	$0, -48(%rbp)
 2396      00000000 
 830:/home/xingli/share/1205tiny/cJSON/cJSON.c ****     unsigned char *output = NULL;
 2397              		.loc 1 830 20
 2398 002b 48C745E8 		movq	$0, -24(%rbp)
 2398      00000000 
 831:/home/xingli/share/1205tiny/cJSON/cJSON.c ****     unsigned char *output_pointer = NULL;
 2399              		.loc 1 831 20
 2400 0033 48C745D8 		movq	$0, -40(%rbp)
 2400      00000000 
 832:/home/xingli/share/1205tiny/cJSON/cJSON.c ****     size_t output_length = 0;
 2401              		.loc 1 832 12
 2402 003b 48C745F0 		movq	$0, -16(%rbp)
 2402      00000000 
 833:/home/xingli/share/1205tiny/cJSON/cJSON.c ****     /* numbers of additional characters needed for escaping */
 834:/home/xingli/share/1205tiny/cJSON/cJSON.c ****     size_t escape_characters = 0;
 2403              		.loc 1 834 12
 2404 0043 48C745E0 		movq	$0, -32(%rbp)
 2404      00000000 
 835:/home/xingli/share/1205tiny/cJSON/cJSON.c **** 
 836:/home/xingli/share/1205tiny/cJSON/cJSON.c ****     if (output_buffer == NULL)
 2405              		.loc 1 836 8
 2406 004b 48837DC0 		cmpq	$0, -64(%rbp)
 2406      00
 2407 0050 750A     		jne	.L203
 837:/home/xingli/share/1205tiny/cJSON/cJSON.c ****     {
 838:/home/xingli/share/1205tiny/cJSON/cJSON.c ****         return false;
 2408              		.loc 1 838 16
 2409 0052 B8000000 		movl	$0, %eax
 2409      00
 2410 0057 E9900200 		jmp	.L204
 2410      00
 2411              	.L203:
 839:/home/xingli/share/1205tiny/cJSON/cJSON.c ****     }
 840:/home/xingli/share/1205tiny/cJSON/cJSON.c **** 
 841:/home/xingli/share/1205tiny/cJSON/cJSON.c ****     /* empty string */
 842:/home/xingli/share/1205tiny/cJSON/cJSON.c ****     if (input == NULL)
 2412              		.loc 1 842 8
 2413 005c 48837DC8 		cmpq	$0, -56(%rbp)
 2413      00
 2414 0061 753D     		jne	.L205
 843:/home/xingli/share/1205tiny/cJSON/cJSON.c ****     {
 844:/home/xingli/share/1205tiny/cJSON/cJSON.c ****         output = ensure(output_buffer, sizeof("\"\""));
 2415              		.loc 1 844 18
 2416 0063 488B45C0 		movq	-64(%rbp), %rax
 2417 0067 BE030000 		movl	$3, %esi
GAS LISTING /tmp/ccabgRKQ.s 			page 65


 2417      00
 2418 006c 4889C7   		movq	%rax, %rdi
 2419 006f E8000000 		call	ensure
 2419      00
 2420 0074 488945E8 		movq	%rax, -24(%rbp)
 845:/home/xingli/share/1205tiny/cJSON/cJSON.c ****         if (output == NULL)
 2421              		.loc 1 845 12
 2422 0078 48837DE8 		cmpq	$0, -24(%rbp)
 2422      00
 2423 007d 750A     		jne	.L206
 846:/home/xingli/share/1205tiny/cJSON/cJSON.c ****         {
 847:/home/xingli/share/1205tiny/cJSON/cJSON.c ****             return false;
 2424              		.loc 1 847 20
 2425 007f B8000000 		movl	$0, %eax
 2425      00
 2426 0084 E9630200 		jmp	.L204
 2426      00
 2427              	.L206:
 848:/home/xingli/share/1205tiny/cJSON/cJSON.c ****         }
 849:/home/xingli/share/1205tiny/cJSON/cJSON.c ****         strcpy((char*)output, "\"\"");
 2428              		.loc 1 849 9
 2429 0089 488B45E8 		movq	-24(%rbp), %rax
 2430 008d 66C70022 		movw	$8738, (%rax)
 2430      22
 2431 0092 C6400200 		movb	$0, 2(%rax)
 850:/home/xingli/share/1205tiny/cJSON/cJSON.c **** 
 851:/home/xingli/share/1205tiny/cJSON/cJSON.c ****         return true;
 2432              		.loc 1 851 16
 2433 0096 B8010000 		movl	$1, %eax
 2433      00
 2434 009b E94C0200 		jmp	.L204
 2434      00
 2435              	.L205:
 852:/home/xingli/share/1205tiny/cJSON/cJSON.c ****     }
 853:/home/xingli/share/1205tiny/cJSON/cJSON.c **** 
 854:/home/xingli/share/1205tiny/cJSON/cJSON.c ****     /* set "flag" to 1 if something needs to be escaped */
 855:/home/xingli/share/1205tiny/cJSON/cJSON.c ****     for (input_pointer = input; *input_pointer; input_pointer++)
 2436              		.loc 1 855 24
 2437 00a0 488B45C8 		movq	-56(%rbp), %rax
 2438 00a4 488945D0 		movq	%rax, -48(%rbp)
 2439              		.loc 1 855 5
 2440 00a8 EB4F     		jmp	.L207
 2441              	.L213:
 856:/home/xingli/share/1205tiny/cJSON/cJSON.c ****     {
 857:/home/xingli/share/1205tiny/cJSON/cJSON.c ****         switch (*input_pointer)
 2442              		.loc 1 857 17
 2443 00aa 488B45D0 		movq	-48(%rbp), %rax
 2444 00ae 0FB600   		movzbl	(%rax), %eax
 2445 00b1 0FB6C0   		movzbl	%al, %eax
 2446              		.loc 1 857 9
 2447 00b4 83F85C   		cmpl	$92, %eax
 2448 00b7 7423     		je	.L208
 2449 00b9 83F85C   		cmpl	$92, %eax
 2450 00bc 7F25     		jg	.L209
 2451 00be 83F822   		cmpl	$34, %eax
 2452 00c1 7419     		je	.L208
 2453 00c3 83F822   		cmpl	$34, %eax
GAS LISTING /tmp/ccabgRKQ.s 			page 66


 2454 00c6 7F1B     		jg	.L209
 2455 00c8 83F80A   		cmpl	$10, %eax
 2456 00cb 7F07     		jg	.L210
 2457 00cd 83F808   		cmpl	$8, %eax
 2458 00d0 7D0A     		jge	.L208
 2459 00d2 EB0F     		jmp	.L209
 2460              	.L210:
 2461 00d4 83E80C   		subl	$12, %eax
 2462 00d7 83F801   		cmpl	$1, %eax
 2463 00da 7707     		ja	.L209
 2464              	.L208:
 858:/home/xingli/share/1205tiny/cJSON/cJSON.c ****         {
 859:/home/xingli/share/1205tiny/cJSON/cJSON.c ****             case '\"':
 860:/home/xingli/share/1205tiny/cJSON/cJSON.c ****             case '\\':
 861:/home/xingli/share/1205tiny/cJSON/cJSON.c ****             case '\b':
 862:/home/xingli/share/1205tiny/cJSON/cJSON.c ****             case '\f':
 863:/home/xingli/share/1205tiny/cJSON/cJSON.c ****             case '\n':
 864:/home/xingli/share/1205tiny/cJSON/cJSON.c ****             case '\r':
 865:/home/xingli/share/1205tiny/cJSON/cJSON.c ****             case '\t':
 866:/home/xingli/share/1205tiny/cJSON/cJSON.c ****                 /* one character escape sequence */
 867:/home/xingli/share/1205tiny/cJSON/cJSON.c ****                 escape_characters++;
 2465              		.loc 1 867 34
 2466 00dc 488345E0 		addq	$1, -32(%rbp)
 2466      01
 868:/home/xingli/share/1205tiny/cJSON/cJSON.c ****                 break;
 2467              		.loc 1 868 17
 2468 00e1 EB11     		jmp	.L211
 2469              	.L209:
 869:/home/xingli/share/1205tiny/cJSON/cJSON.c ****             default:
 870:/home/xingli/share/1205tiny/cJSON/cJSON.c ****                 if (*input_pointer < 32)
 2470              		.loc 1 870 21
 2471 00e3 488B45D0 		movq	-48(%rbp), %rax
 2472 00e7 0FB600   		movzbl	(%rax), %eax
 2473              		.loc 1 870 20
 2474 00ea 3C1F     		cmpb	$31, %al
 2475 00ec 7705     		ja	.L230
 871:/home/xingli/share/1205tiny/cJSON/cJSON.c ****                 {
 872:/home/xingli/share/1205tiny/cJSON/cJSON.c ****                     /* UTF-16 escape sequence uXXXX */
 873:/home/xingli/share/1205tiny/cJSON/cJSON.c ****                     escape_characters += 5;
 2476              		.loc 1 873 39
 2477 00ee 488345E0 		addq	$5, -32(%rbp)
 2477      05
 2478              	.L230:
 874:/home/xingli/share/1205tiny/cJSON/cJSON.c ****                 }
 875:/home/xingli/share/1205tiny/cJSON/cJSON.c ****                 break;
 2479              		.loc 1 875 17
 2480 00f3 90       		nop
 2481              	.L211:
 855:/home/xingli/share/1205tiny/cJSON/cJSON.c ****     {
 2482              		.loc 1 855 62 discriminator 2
 2483 00f4 488345D0 		addq	$1, -48(%rbp)
 2483      01
 2484              	.L207:
 855:/home/xingli/share/1205tiny/cJSON/cJSON.c ****     {
 2485              		.loc 1 855 33 discriminator 1
 2486 00f9 488B45D0 		movq	-48(%rbp), %rax
 2487 00fd 0FB600   		movzbl	(%rax), %eax
GAS LISTING /tmp/ccabgRKQ.s 			page 67


 855:/home/xingli/share/1205tiny/cJSON/cJSON.c ****     {
 2488              		.loc 1 855 5 discriminator 1
 2489 0100 84C0     		testb	%al, %al
 2490 0102 75A6     		jne	.L213
 876:/home/xingli/share/1205tiny/cJSON/cJSON.c ****         }
 877:/home/xingli/share/1205tiny/cJSON/cJSON.c ****     }
 878:/home/xingli/share/1205tiny/cJSON/cJSON.c ****     output_length = (size_t)(input_pointer - input) + escape_characters;
 2491              		.loc 1 878 44
 2492 0104 488B45D0 		movq	-48(%rbp), %rax
 2493 0108 482B45C8 		subq	-56(%rbp), %rax
 2494              		.loc 1 878 21
 2495 010c 4889C2   		movq	%rax, %rdx
 2496              		.loc 1 878 19
 2497 010f 488B45E0 		movq	-32(%rbp), %rax
 2498 0113 4801D0   		addq	%rdx, %rax
 2499 0116 488945F0 		movq	%rax, -16(%rbp)
 879:/home/xingli/share/1205tiny/cJSON/cJSON.c **** 
 880:/home/xingli/share/1205tiny/cJSON/cJSON.c ****     output = ensure(output_buffer, output_length + sizeof("\"\""));
 2500              		.loc 1 880 14
 2501 011a 488B45F0 		movq	-16(%rbp), %rax
 2502 011e 488D5003 		leaq	3(%rax), %rdx
 2503 0122 488B45C0 		movq	-64(%rbp), %rax
 2504 0126 4889D6   		movq	%rdx, %rsi
 2505 0129 4889C7   		movq	%rax, %rdi
 2506 012c E8000000 		call	ensure
 2506      00
 2507 0131 488945E8 		movq	%rax, -24(%rbp)
 881:/home/xingli/share/1205tiny/cJSON/cJSON.c ****     if (output == NULL)
 2508              		.loc 1 881 8
 2509 0135 48837DE8 		cmpq	$0, -24(%rbp)
 2509      00
 2510 013a 750A     		jne	.L214
 882:/home/xingli/share/1205tiny/cJSON/cJSON.c ****     {
 883:/home/xingli/share/1205tiny/cJSON/cJSON.c ****         return false;
 2511              		.loc 1 883 16
 2512 013c B8000000 		movl	$0, %eax
 2512      00
 2513 0141 E9A60100 		jmp	.L204
 2513      00
 2514              	.L214:
 884:/home/xingli/share/1205tiny/cJSON/cJSON.c ****     }
 885:/home/xingli/share/1205tiny/cJSON/cJSON.c **** 
 886:/home/xingli/share/1205tiny/cJSON/cJSON.c ****     /* no characters have to be escaped */
 887:/home/xingli/share/1205tiny/cJSON/cJSON.c ****     if (escape_characters == 0)
 2515              		.loc 1 887 8
 2516 0146 48837DE0 		cmpq	$0, -32(%rbp)
 2516      00
 2517 014b 7550     		jne	.L215
 888:/home/xingli/share/1205tiny/cJSON/cJSON.c ****     {
 889:/home/xingli/share/1205tiny/cJSON/cJSON.c ****         output[0] = '\"';
 2518              		.loc 1 889 19
 2519 014d 488B45E8 		movq	-24(%rbp), %rax
 2520 0151 C60022   		movb	$34, (%rax)
 890:/home/xingli/share/1205tiny/cJSON/cJSON.c ****         (void) memcpy(output + 1, input, output_length);
 2521              		.loc 1 890 30
 2522 0154 488B45E8 		movq	-24(%rbp), %rax
 2523 0158 488D4801 		leaq	1(%rax), %rcx
GAS LISTING /tmp/ccabgRKQ.s 			page 68


 2524              		.loc 1 890 16
 2525 015c 488B55F0 		movq	-16(%rbp), %rdx
 2526 0160 488B45C8 		movq	-56(%rbp), %rax
 2527 0164 4889C6   		movq	%rax, %rsi
 2528 0167 4889CF   		movq	%rcx, %rdi
 2529 016a E8000000 		call	memcpy@PLT
 2529      00
 891:/home/xingli/share/1205tiny/cJSON/cJSON.c ****         output[output_length + 1] = '\"';
 2530              		.loc 1 891 15
 2531 016f 488B45F0 		movq	-16(%rbp), %rax
 2532 0173 488D5001 		leaq	1(%rax), %rdx
 2533 0177 488B45E8 		movq	-24(%rbp), %rax
 2534 017b 4801D0   		addq	%rdx, %rax
 2535              		.loc 1 891 35
 2536 017e C60022   		movb	$34, (%rax)
 892:/home/xingli/share/1205tiny/cJSON/cJSON.c ****         output[output_length + 2] = '\0';
 2537              		.loc 1 892 15
 2538 0181 488B45F0 		movq	-16(%rbp), %rax
 2539 0185 488D5002 		leaq	2(%rax), %rdx
 2540 0189 488B45E8 		movq	-24(%rbp), %rax
 2541 018d 4801D0   		addq	%rdx, %rax
 2542              		.loc 1 892 35
 2543 0190 C60000   		movb	$0, (%rax)
 893:/home/xingli/share/1205tiny/cJSON/cJSON.c **** 
 894:/home/xingli/share/1205tiny/cJSON/cJSON.c ****         return true;
 2544              		.loc 1 894 16
 2545 0193 B8010000 		movl	$1, %eax
 2545      00
 2546 0198 E94F0100 		jmp	.L204
 2546      00
 2547              	.L215:
 895:/home/xingli/share/1205tiny/cJSON/cJSON.c ****     }
 896:/home/xingli/share/1205tiny/cJSON/cJSON.c **** 
 897:/home/xingli/share/1205tiny/cJSON/cJSON.c ****     output[0] = '\"';
 2548              		.loc 1 897 15
 2549 019d 488B45E8 		movq	-24(%rbp), %rax
 2550 01a1 C60022   		movb	$34, (%rax)
 898:/home/xingli/share/1205tiny/cJSON/cJSON.c ****     output_pointer = output + 1;
 2551              		.loc 1 898 20
 2552 01a4 488B45E8 		movq	-24(%rbp), %rax
 2553 01a8 4883C001 		addq	$1, %rax
 2554 01ac 488945D8 		movq	%rax, -40(%rbp)
 899:/home/xingli/share/1205tiny/cJSON/cJSON.c ****     /* copy the string */
 900:/home/xingli/share/1205tiny/cJSON/cJSON.c ****     for (input_pointer = input; *input_pointer != '\0'; (void)input_pointer++, output_pointer++)
 2555              		.loc 1 900 24
 2556 01b0 488B45C8 		movq	-56(%rbp), %rax
 2557 01b4 488945D0 		movq	%rax, -48(%rbp)
 2558              		.loc 1 900 5
 2559 01b8 E9F70000 		jmp	.L216
 2559      00
 2560              	.L228:
 901:/home/xingli/share/1205tiny/cJSON/cJSON.c ****     {
 902:/home/xingli/share/1205tiny/cJSON/cJSON.c ****         if ((*input_pointer > 31) && (*input_pointer != '\"') && (*input_pointer != '\\'))
 2561              		.loc 1 902 14
 2562 01bd 488B45D0 		movq	-48(%rbp), %rax
 2563 01c1 0FB600   		movzbl	(%rax), %eax
 2564              		.loc 1 902 12
GAS LISTING /tmp/ccabgRKQ.s 			page 69


 2565 01c4 3C1F     		cmpb	$31, %al
 2566 01c6 7628     		jbe	.L217
 2567              		.loc 1 902 39 discriminator 1
 2568 01c8 488B45D0 		movq	-48(%rbp), %rax
 2569 01cc 0FB600   		movzbl	(%rax), %eax
 2570              		.loc 1 902 35 discriminator 1
 2571 01cf 3C22     		cmpb	$34, %al
 2572 01d1 741D     		je	.L217
 2573              		.loc 1 902 67 discriminator 2
 2574 01d3 488B45D0 		movq	-48(%rbp), %rax
 2575 01d7 0FB600   		movzbl	(%rax), %eax
 2576              		.loc 1 902 63 discriminator 2
 2577 01da 3C5C     		cmpb	$92, %al
 2578 01dc 7412     		je	.L217
 903:/home/xingli/share/1205tiny/cJSON/cJSON.c ****         {
 904:/home/xingli/share/1205tiny/cJSON/cJSON.c ****             /* normal character, copy */
 905:/home/xingli/share/1205tiny/cJSON/cJSON.c ****             *output_pointer = *input_pointer;
 2579              		.loc 1 905 31
 2580 01de 488B45D0 		movq	-48(%rbp), %rax
 2581 01e2 0FB610   		movzbl	(%rax), %edx
 2582              		.loc 1 905 29
 2583 01e5 488B45D8 		movq	-40(%rbp), %rax
 2584 01e9 8810     		movb	%dl, (%rax)
 2585 01eb E9BA0000 		jmp	.L218
 2585      00
 2586              	.L217:
 906:/home/xingli/share/1205tiny/cJSON/cJSON.c ****         }
 907:/home/xingli/share/1205tiny/cJSON/cJSON.c ****         else
 908:/home/xingli/share/1205tiny/cJSON/cJSON.c ****         {
 909:/home/xingli/share/1205tiny/cJSON/cJSON.c ****             /* character needs to be escaped */
 910:/home/xingli/share/1205tiny/cJSON/cJSON.c ****             *output_pointer++ = '\\';
 2587              		.loc 1 910 28
 2588 01f0 488B45D8 		movq	-40(%rbp), %rax
 2589 01f4 488D5001 		leaq	1(%rax), %rdx
 2590 01f8 488955D8 		movq	%rdx, -40(%rbp)
 2591              		.loc 1 910 31
 2592 01fc C6005C   		movb	$92, (%rax)
 911:/home/xingli/share/1205tiny/cJSON/cJSON.c ****             switch (*input_pointer)
 2593              		.loc 1 911 21
 2594 01ff 488B45D0 		movq	-48(%rbp), %rax
 2595 0203 0FB600   		movzbl	(%rax), %eax
 2596 0206 0FB6C0   		movzbl	%al, %eax
 2597              		.loc 1 911 13
 2598 0209 83F822   		cmpl	$34, %eax
 2599 020c 7F30     		jg	.L219
 2600 020e 83F808   		cmpl	$8, %eax
 2601 0211 7C6F     		jl	.L220
 2602 0213 83E808   		subl	$8, %eax
 2603 0216 83F81A   		cmpl	$26, %eax
 2604 0219 7767     		ja	.L220
 2605 021b 89C0     		movl	%eax, %eax
 2606 021d 488D1485 		leaq	0(,%rax,4), %rdx
 2606      00000000 
 2607 0225 488D0500 		leaq	.L222(%rip), %rax
 2607      000000
 2608 022c 8B0402   		movl	(%rdx,%rax), %eax
 2609 022f 4898     		cltq
GAS LISTING /tmp/ccabgRKQ.s 			page 70


 2610 0231 488D1500 		leaq	.L222(%rip), %rdx
 2610      000000
 2611 0238 4801D0   		addq	%rdx, %rax
 2612 023b 3EFFE0   		notrack jmp	*%rax
 2613              		.section	.rodata.print_string_ptr,"a",@progbits
 2614              		.align 4
 2615              		.align 4
 2616              	.L222:
 2617 0000 00000000 		.long	.L227-.L222
 2618 0004 00000000 		.long	.L226-.L222
 2619 0008 00000000 		.long	.L225-.L222
 2620 000c 00000000 		.long	.L220-.L222
 2621 0010 00000000 		.long	.L224-.L222
 2622 0014 00000000 		.long	.L223-.L222
 2623 0018 00000000 		.long	.L220-.L222
 2624 001c 00000000 		.long	.L220-.L222
 2625 0020 00000000 		.long	.L220-.L222
 2626 0024 00000000 		.long	.L220-.L222
 2627 0028 00000000 		.long	.L220-.L222
 2628 002c 00000000 		.long	.L220-.L222
 2629 0030 00000000 		.long	.L220-.L222
 2630 0034 00000000 		.long	.L220-.L222
 2631 0038 00000000 		.long	.L220-.L222
 2632 003c 00000000 		.long	.L220-.L222
 2633 0040 00000000 		.long	.L220-.L222
 2634 0044 00000000 		.long	.L220-.L222
 2635 0048 00000000 		.long	.L220-.L222
 2636 004c 00000000 		.long	.L220-.L222
 2637 0050 00000000 		.long	.L220-.L222
 2638 0054 00000000 		.long	.L220-.L222
 2639 0058 00000000 		.long	.L220-.L222
 2640 005c 00000000 		.long	.L220-.L222
 2641 0060 00000000 		.long	.L220-.L222
 2642 0064 00000000 		.long	.L220-.L222
 2643 0068 00000000 		.long	.L221-.L222
 2644              		.section	.text.print_string_ptr
 2645              	.L219:
 2646 023e 83F85C   		cmpl	$92, %eax
 2647 0241 753F     		jne	.L220
 912:/home/xingli/share/1205tiny/cJSON/cJSON.c ****             {
 913:/home/xingli/share/1205tiny/cJSON/cJSON.c ****                 case '\\':
 914:/home/xingli/share/1205tiny/cJSON/cJSON.c ****                     *output_pointer = '\\';
 2648              		.loc 1 914 37
 2649 0243 488B45D8 		movq	-40(%rbp), %rax
 2650 0247 C6005C   		movb	$92, (%rax)
 915:/home/xingli/share/1205tiny/cJSON/cJSON.c ****                     break;
 2651              		.loc 1 915 21
 2652 024a EB5E     		jmp	.L218
 2653              	.L221:
 916:/home/xingli/share/1205tiny/cJSON/cJSON.c ****                 case '\"':
 917:/home/xingli/share/1205tiny/cJSON/cJSON.c ****                     *output_pointer = '\"';
 2654              		.loc 1 917 37
 2655 024c 488B45D8 		movq	-40(%rbp), %rax
 2656 0250 C60022   		movb	$34, (%rax)
 918:/home/xingli/share/1205tiny/cJSON/cJSON.c ****                     break;
 2657              		.loc 1 918 21
 2658 0253 EB55     		jmp	.L218
GAS LISTING /tmp/ccabgRKQ.s 			page 71


 2659              	.L227:
 919:/home/xingli/share/1205tiny/cJSON/cJSON.c ****                 case '\b':
 920:/home/xingli/share/1205tiny/cJSON/cJSON.c ****                     *output_pointer = 'b';
 2660              		.loc 1 920 37
 2661 0255 488B45D8 		movq	-40(%rbp), %rax
 2662 0259 C60062   		movb	$98, (%rax)
 921:/home/xingli/share/1205tiny/cJSON/cJSON.c ****                     break;
 2663              		.loc 1 921 21
 2664 025c EB4C     		jmp	.L218
 2665              	.L224:
 922:/home/xingli/share/1205tiny/cJSON/cJSON.c ****                 case '\f':
 923:/home/xingli/share/1205tiny/cJSON/cJSON.c ****                     *output_pointer = 'f';
 2666              		.loc 1 923 37
 2667 025e 488B45D8 		movq	-40(%rbp), %rax
 2668 0262 C60066   		movb	$102, (%rax)
 924:/home/xingli/share/1205tiny/cJSON/cJSON.c ****                     break;
 2669              		.loc 1 924 21
 2670 0265 EB43     		jmp	.L218
 2671              	.L225:
 925:/home/xingli/share/1205tiny/cJSON/cJSON.c ****                 case '\n':
 926:/home/xingli/share/1205tiny/cJSON/cJSON.c ****                     *output_pointer = 'n';
 2672              		.loc 1 926 37
 2673 0267 488B45D8 		movq	-40(%rbp), %rax
 2674 026b C6006E   		movb	$110, (%rax)
 927:/home/xingli/share/1205tiny/cJSON/cJSON.c ****                     break;
 2675              		.loc 1 927 21
 2676 026e EB3A     		jmp	.L218
 2677              	.L223:
 928:/home/xingli/share/1205tiny/cJSON/cJSON.c ****                 case '\r':
 929:/home/xingli/share/1205tiny/cJSON/cJSON.c ****                     *output_pointer = 'r';
 2678              		.loc 1 929 37
 2679 0270 488B45D8 		movq	-40(%rbp), %rax
 2680 0274 C60072   		movb	$114, (%rax)
 930:/home/xingli/share/1205tiny/cJSON/cJSON.c ****                     break;
 2681              		.loc 1 930 21
 2682 0277 EB31     		jmp	.L218
 2683              	.L226:
 931:/home/xingli/share/1205tiny/cJSON/cJSON.c ****                 case '\t':
 932:/home/xingli/share/1205tiny/cJSON/cJSON.c ****                     *output_pointer = 't';
 2684              		.loc 1 932 37
 2685 0279 488B45D8 		movq	-40(%rbp), %rax
 2686 027d C60074   		movb	$116, (%rax)
 933:/home/xingli/share/1205tiny/cJSON/cJSON.c ****                     break;
 2687              		.loc 1 933 21
 2688 0280 EB28     		jmp	.L218
 2689              	.L220:
 934:/home/xingli/share/1205tiny/cJSON/cJSON.c ****                 default:
 935:/home/xingli/share/1205tiny/cJSON/cJSON.c ****                     /* escape and print as unicode codepoint */
 936:/home/xingli/share/1205tiny/cJSON/cJSON.c ****                     sprintf((char*)output_pointer, "u%04x", *input_pointer);
 2690              		.loc 1 936 61
 2691 0282 488B45D0 		movq	-48(%rbp), %rax
 2692 0286 0FB600   		movzbl	(%rax), %eax
 2693              		.loc 1 936 21
 2694 0289 0FB6D0   		movzbl	%al, %edx
 2695 028c 488B45D8 		movq	-40(%rbp), %rax
 2696 0290 488D3500 		leaq	.LC8(%rip), %rsi
 2696      000000
GAS LISTING /tmp/ccabgRKQ.s 			page 72


 2697 0297 4889C7   		movq	%rax, %rdi
 2698 029a B8000000 		movl	$0, %eax
 2698      00
 2699 029f E8000000 		call	sprintf@PLT
 2699      00
 937:/home/xingli/share/1205tiny/cJSON/cJSON.c ****                     output_pointer += 4;
 2700              		.loc 1 937 36
 2701 02a4 488345D8 		addq	$4, -40(%rbp)
 2701      04
 938:/home/xingli/share/1205tiny/cJSON/cJSON.c ****                     break;
 2702              		.loc 1 938 21
 2703 02a9 90       		nop
 2704              	.L218:
 900:/home/xingli/share/1205tiny/cJSON/cJSON.c ****     {
 2705              		.loc 1 900 57 discriminator 2
 2706 02aa 488345D0 		addq	$1, -48(%rbp)
 2706      01
 900:/home/xingli/share/1205tiny/cJSON/cJSON.c ****     {
 2707              		.loc 1 900 94 discriminator 2
 2708 02af 488345D8 		addq	$1, -40(%rbp)
 2708      01
 2709              	.L216:
 900:/home/xingli/share/1205tiny/cJSON/cJSON.c ****     {
 2710              		.loc 1 900 33 discriminator 1
 2711 02b4 488B45D0 		movq	-48(%rbp), %rax
 2712 02b8 0FB600   		movzbl	(%rax), %eax
 900:/home/xingli/share/1205tiny/cJSON/cJSON.c ****     {
 2713              		.loc 1 900 5 discriminator 1
 2714 02bb 84C0     		testb	%al, %al
 2715 02bd 0F85FAFE 		jne	.L228
 2715      FFFF
 939:/home/xingli/share/1205tiny/cJSON/cJSON.c ****             }
 940:/home/xingli/share/1205tiny/cJSON/cJSON.c ****         }
 941:/home/xingli/share/1205tiny/cJSON/cJSON.c ****     }
 942:/home/xingli/share/1205tiny/cJSON/cJSON.c ****     output[output_length + 1] = '\"';
 2716              		.loc 1 942 11
 2717 02c3 488B45F0 		movq	-16(%rbp), %rax
 2718 02c7 488D5001 		leaq	1(%rax), %rdx
 2719 02cb 488B45E8 		movq	-24(%rbp), %rax
 2720 02cf 4801D0   		addq	%rdx, %rax
 2721              		.loc 1 942 31
 2722 02d2 C60022   		movb	$34, (%rax)
 943:/home/xingli/share/1205tiny/cJSON/cJSON.c ****     output[output_length + 2] = '\0';
 2723              		.loc 1 943 11
 2724 02d5 488B45F0 		movq	-16(%rbp), %rax
 2725 02d9 488D5002 		leaq	2(%rax), %rdx
 2726 02dd 488B45E8 		movq	-24(%rbp), %rax
 2727 02e1 4801D0   		addq	%rdx, %rax
 2728              		.loc 1 943 31
 2729 02e4 C60000   		movb	$0, (%rax)
 944:/home/xingli/share/1205tiny/cJSON/cJSON.c **** 
 945:/home/xingli/share/1205tiny/cJSON/cJSON.c ****     return true;
 2730              		.loc 1 945 12
 2731 02e7 B8010000 		movl	$1, %eax
 2731      00
 2732              	.L204:
 946:/home/xingli/share/1205tiny/cJSON/cJSON.c **** }
GAS LISTING /tmp/ccabgRKQ.s 			page 73


 2733              		.loc 1 946 1
 2734 02ec 488B4DF8 		movq	-8(%rbp), %rcx
 2735 02f0 6448330C 		xorq	%fs:40, %rcx
 2735      25280000 
 2735      00
 2736 02f9 7405     		je	.L229
 2737 02fb E8000000 		call	__stack_chk_fail@PLT
 2737      00
 2738              	.L229:
 2739 0300 C9       		leave
 2740              	.LCFI53:
 2741              		.cfi_def_cfa 7, 8
 2742 0301 C3       		ret
 2743              		.cfi_endproc
 2744              	.LFE23:
 2746              		.section	.text.print_string,"ax",@progbits
 2748              	print_string:
 2749              	.LFB24:
 947:/home/xingli/share/1205tiny/cJSON/cJSON.c **** 
 948:/home/xingli/share/1205tiny/cJSON/cJSON.c **** /* Invoke print_string_ptr (which is useful) on an item. */
 949:/home/xingli/share/1205tiny/cJSON/cJSON.c **** static cJSON_bool print_string(const cJSON * const item, printbuffer * const p)
 950:/home/xingli/share/1205tiny/cJSON/cJSON.c **** {
 2750              		.loc 1 950 1
 2751              		.cfi_startproc
 2752 0000 F30F1EFA 		endbr64
 2753 0004 55       		pushq	%rbp
 2754              	.LCFI54:
 2755              		.cfi_def_cfa_offset 16
 2756              		.cfi_offset 6, -16
 2757 0005 4889E5   		movq	%rsp, %rbp
 2758              	.LCFI55:
 2759              		.cfi_def_cfa_register 6
 2760 0008 4883EC20 		subq	$32, %rsp
 2761 000c 48897DE8 		movq	%rdi, -24(%rbp)
 2762 0010 488975E0 		movq	%rsi, -32(%rbp)
 2763              		.loc 1 950 1
 2764 0014 64488B04 		movq	%fs:40, %rax
 2764      25280000 
 2764      00
 2765 001d 488945F8 		movq	%rax, -8(%rbp)
 2766 0021 31C0     		xorl	%eax, %eax
 951:/home/xingli/share/1205tiny/cJSON/cJSON.c ****     return print_string_ptr((unsigned char*)item->valuestring, p);
 2767              		.loc 1 951 49
 2768 0023 488B45E8 		movq	-24(%rbp), %rax
 2769 0027 488B4020 		movq	32(%rax), %rax
 2770              		.loc 1 951 12
 2771 002b 488B55E0 		movq	-32(%rbp), %rdx
 2772 002f 4889D6   		movq	%rdx, %rsi
 2773 0032 4889C7   		movq	%rax, %rdi
 2774 0035 E8000000 		call	print_string_ptr
 2774      00
 952:/home/xingli/share/1205tiny/cJSON/cJSON.c **** }
 2775              		.loc 1 952 1
 2776 003a 488B4DF8 		movq	-8(%rbp), %rcx
 2777 003e 6448330C 		xorq	%fs:40, %rcx
 2777      25280000 
 2777      00
GAS LISTING /tmp/ccabgRKQ.s 			page 74


 2778 0047 7405     		je	.L233
 2779 0049 E8000000 		call	__stack_chk_fail@PLT
 2779      00
 2780              	.L233:
 2781 004e C9       		leave
 2782              	.LCFI56:
 2783              		.cfi_def_cfa 7, 8
 2784 004f C3       		ret
 2785              		.cfi_endproc
 2786              	.LFE24:
 2788              		.section	.text.buffer_skip_whitespace,"ax",@progbits
 2790              	buffer_skip_whitespace:
 2791              	.LFB25:
 953:/home/xingli/share/1205tiny/cJSON/cJSON.c **** 
 954:/home/xingli/share/1205tiny/cJSON/cJSON.c **** /* Predeclare these prototypes. */
 955:/home/xingli/share/1205tiny/cJSON/cJSON.c **** static cJSON_bool parse_value(cJSON * const item, parse_buffer * const input_buffer);
 956:/home/xingli/share/1205tiny/cJSON/cJSON.c **** static cJSON_bool print_value(const cJSON * const item, printbuffer * const output_buffer);
 957:/home/xingli/share/1205tiny/cJSON/cJSON.c **** static cJSON_bool parse_array(cJSON * const item, parse_buffer * const input_buffer);
 958:/home/xingli/share/1205tiny/cJSON/cJSON.c **** static cJSON_bool print_array(const cJSON * const item, printbuffer * const output_buffer);
 959:/home/xingli/share/1205tiny/cJSON/cJSON.c **** static cJSON_bool parse_object(cJSON * const item, parse_buffer * const input_buffer);
 960:/home/xingli/share/1205tiny/cJSON/cJSON.c **** static cJSON_bool print_object(const cJSON * const item, printbuffer * const output_buffer);
 961:/home/xingli/share/1205tiny/cJSON/cJSON.c **** 
 962:/home/xingli/share/1205tiny/cJSON/cJSON.c **** /* Utility to jump whitespace and cr/lf */
 963:/home/xingli/share/1205tiny/cJSON/cJSON.c **** static parse_buffer *buffer_skip_whitespace(parse_buffer * const buffer)
 964:/home/xingli/share/1205tiny/cJSON/cJSON.c **** {
 2792              		.loc 1 964 1
 2793              		.cfi_startproc
 2794 0000 F30F1EFA 		endbr64
 2795 0004 55       		pushq	%rbp
 2796              	.LCFI57:
 2797              		.cfi_def_cfa_offset 16
 2798              		.cfi_offset 6, -16
 2799 0005 4889E5   		movq	%rsp, %rbp
 2800              	.LCFI58:
 2801              		.cfi_def_cfa_register 6
 2802 0008 4883EC20 		subq	$32, %rsp
 2803 000c 48897DE8 		movq	%rdi, -24(%rbp)
 2804              		.loc 1 964 1
 2805 0010 64488B04 		movq	%fs:40, %rax
 2805      25280000 
 2805      00
 2806 0019 488945F8 		movq	%rax, -8(%rbp)
 2807 001d 31C0     		xorl	%eax, %eax
 965:/home/xingli/share/1205tiny/cJSON/cJSON.c ****     if ((buffer == NULL) || (buffer->content == NULL))
 2808              		.loc 1 965 8
 2809 001f 48837DE8 		cmpq	$0, -24(%rbp)
 2809      00
 2810 0024 740C     		je	.L235
 2811              		.loc 1 965 36 discriminator 1
 2812 0026 488B45E8 		movq	-24(%rbp), %rax
 2813 002a 488B00   		movq	(%rax), %rax
 2814              		.loc 1 965 26 discriminator 1
 2815 002d 4885C0   		testq	%rax, %rax
 2816 0030 751B     		jne	.L238
 2817              	.L235:
 966:/home/xingli/share/1205tiny/cJSON/cJSON.c ****     {
 967:/home/xingli/share/1205tiny/cJSON/cJSON.c ****         return NULL;
GAS LISTING /tmp/ccabgRKQ.s 			page 75


 2818              		.loc 1 967 16
 2819 0032 B8000000 		movl	$0, %eax
 2819      00
 2820 0037 EB76     		jmp	.L237
 2821              	.L240:
 968:/home/xingli/share/1205tiny/cJSON/cJSON.c ****     }
 969:/home/xingli/share/1205tiny/cJSON/cJSON.c **** 
 970:/home/xingli/share/1205tiny/cJSON/cJSON.c ****     while (can_access_at_index(buffer, 0) && (buffer_at_offset(buffer)[0] <= 32))
 971:/home/xingli/share/1205tiny/cJSON/cJSON.c ****     {
 972:/home/xingli/share/1205tiny/cJSON/cJSON.c ****        buffer->offset++;
 2822              		.loc 1 972 14
 2823 0039 488B45E8 		movq	-24(%rbp), %rax
 2824 003d 488B4010 		movq	16(%rax), %rax
 2825              		.loc 1 972 22
 2826 0041 488D5001 		leaq	1(%rax), %rdx
 2827 0045 488B45E8 		movq	-24(%rbp), %rax
 2828 0049 48895010 		movq	%rdx, 16(%rax)
 2829              	.L238:
 970:/home/xingli/share/1205tiny/cJSON/cJSON.c ****     {
 2830              		.loc 1 970 11
 2831 004d 48837DE8 		cmpq	$0, -24(%rbp)
 2831      00
 2832 0052 742E     		je	.L239
 970:/home/xingli/share/1205tiny/cJSON/cJSON.c ****     {
 2833              		.loc 1 970 12 discriminator 1
 2834 0054 488B45E8 		movq	-24(%rbp), %rax
 2835 0058 488B5010 		movq	16(%rax), %rdx
 2836 005c 488B45E8 		movq	-24(%rbp), %rax
 2837 0060 488B4008 		movq	8(%rax), %rax
 2838 0064 4839C2   		cmpq	%rax, %rdx
 2839 0067 7319     		jnb	.L239
 970:/home/xingli/share/1205tiny/cJSON/cJSON.c ****     {
 2840              		.loc 1 970 47 discriminator 2
 2841 0069 488B45E8 		movq	-24(%rbp), %rax
 2842 006d 488B10   		movq	(%rax), %rdx
 2843 0070 488B45E8 		movq	-24(%rbp), %rax
 2844 0074 488B4010 		movq	16(%rax), %rax
 970:/home/xingli/share/1205tiny/cJSON/cJSON.c ****     {
 2845              		.loc 1 970 71 discriminator 2
 2846 0078 4801D0   		addq	%rdx, %rax
 2847 007b 0FB600   		movzbl	(%rax), %eax
 970:/home/xingli/share/1205tiny/cJSON/cJSON.c ****     {
 2848              		.loc 1 970 43 discriminator 2
 2849 007e 3C20     		cmpb	$32, %al
 2850 0080 76B7     		jbe	.L240
 2851              	.L239:
 973:/home/xingli/share/1205tiny/cJSON/cJSON.c ****     }
 974:/home/xingli/share/1205tiny/cJSON/cJSON.c **** 
 975:/home/xingli/share/1205tiny/cJSON/cJSON.c ****     if (buffer->offset == buffer->length)
 2852              		.loc 1 975 15
 2853 0082 488B45E8 		movq	-24(%rbp), %rax
 2854 0086 488B5010 		movq	16(%rax), %rdx
 2855              		.loc 1 975 33
 2856 008a 488B45E8 		movq	-24(%rbp), %rax
 2857 008e 488B4008 		movq	8(%rax), %rax
 2858              		.loc 1 975 8
 2859 0092 4839C2   		cmpq	%rax, %rdx
GAS LISTING /tmp/ccabgRKQ.s 			page 76


 2860 0095 7514     		jne	.L241
 976:/home/xingli/share/1205tiny/cJSON/cJSON.c ****     {
 977:/home/xingli/share/1205tiny/cJSON/cJSON.c ****         buffer->offset--;
 2861              		.loc 1 977 15
 2862 0097 488B45E8 		movq	-24(%rbp), %rax
 2863 009b 488B4010 		movq	16(%rax), %rax
 2864              		.loc 1 977 23
 2865 009f 488D50FF 		leaq	-1(%rax), %rdx
 2866 00a3 488B45E8 		movq	-24(%rbp), %rax
 2867 00a7 48895010 		movq	%rdx, 16(%rax)
 2868              	.L241:
 978:/home/xingli/share/1205tiny/cJSON/cJSON.c ****     }
 979:/home/xingli/share/1205tiny/cJSON/cJSON.c **** 
 980:/home/xingli/share/1205tiny/cJSON/cJSON.c ****     return buffer;
 2869              		.loc 1 980 12
 2870 00ab 488B45E8 		movq	-24(%rbp), %rax
 2871              	.L237:
 981:/home/xingli/share/1205tiny/cJSON/cJSON.c **** }
 2872              		.loc 1 981 1
 2873 00af 488B4DF8 		movq	-8(%rbp), %rcx
 2874 00b3 6448330C 		xorq	%fs:40, %rcx
 2874      25280000 
 2874      00
 2875 00bc 7405     		je	.L242
 2876 00be E8000000 		call	__stack_chk_fail@PLT
 2876      00
 2877              	.L242:
 2878 00c3 C9       		leave
 2879              	.LCFI59:
 2880              		.cfi_def_cfa 7, 8
 2881 00c4 C3       		ret
 2882              		.cfi_endproc
 2883              	.LFE25:
 2885              		.section	.rodata
 2886              	.LC9:
 2887 0026 EFBBBF00 		.string	"\357\273\277"
 2888              		.section	.text.skip_utf8_bom,"ax",@progbits
 2890              	skip_utf8_bom:
 2891              	.LFB26:
 982:/home/xingli/share/1205tiny/cJSON/cJSON.c **** 
 983:/home/xingli/share/1205tiny/cJSON/cJSON.c **** /* skip the UTF-8 BOM (byte order mark) if it is at the beginning of a buffer */
 984:/home/xingli/share/1205tiny/cJSON/cJSON.c **** static parse_buffer *skip_utf8_bom(parse_buffer * const buffer)
 985:/home/xingli/share/1205tiny/cJSON/cJSON.c **** {
 2892              		.loc 1 985 1
 2893              		.cfi_startproc
 2894 0000 F30F1EFA 		endbr64
 2895 0004 55       		pushq	%rbp
 2896              	.LCFI60:
 2897              		.cfi_def_cfa_offset 16
 2898              		.cfi_offset 6, -16
 2899 0005 4889E5   		movq	%rsp, %rbp
 2900              	.LCFI61:
 2901              		.cfi_def_cfa_register 6
 2902 0008 4883EC20 		subq	$32, %rsp
 2903 000c 48897DE8 		movq	%rdi, -24(%rbp)
 2904              		.loc 1 985 1
 2905 0010 64488B04 		movq	%fs:40, %rax
GAS LISTING /tmp/ccabgRKQ.s 			page 77


 2905      25280000 
 2905      00
 2906 0019 488945F8 		movq	%rax, -8(%rbp)
 2907 001d 31C0     		xorl	%eax, %eax
 986:/home/xingli/share/1205tiny/cJSON/cJSON.c ****     if ((buffer == NULL) || (buffer->content == NULL) || (buffer->offset != 0))
 2908              		.loc 1 986 8
 2909 001f 48837DE8 		cmpq	$0, -24(%rbp)
 2909      00
 2910 0024 7419     		je	.L244
 2911              		.loc 1 986 36 discriminator 1
 2912 0026 488B45E8 		movq	-24(%rbp), %rax
 2913 002a 488B00   		movq	(%rax), %rax
 2914              		.loc 1 986 26 discriminator 1
 2915 002d 4885C0   		testq	%rax, %rax
 2916 0030 740D     		je	.L244
 2917              		.loc 1 986 65 discriminator 2
 2918 0032 488B45E8 		movq	-24(%rbp), %rax
 2919 0036 488B4010 		movq	16(%rax), %rax
 2920              		.loc 1 986 55 discriminator 2
 2921 003a 4885C0   		testq	%rax, %rax
 2922 003d 7407     		je	.L245
 2923              	.L244:
 987:/home/xingli/share/1205tiny/cJSON/cJSON.c ****     {
 988:/home/xingli/share/1205tiny/cJSON/cJSON.c ****         return NULL;
 2924              		.loc 1 988 16
 2925 003f B8000000 		movl	$0, %eax
 2925      00
 2926 0044 EB62     		jmp	.L246
 2927              	.L245:
 989:/home/xingli/share/1205tiny/cJSON/cJSON.c ****     }
 990:/home/xingli/share/1205tiny/cJSON/cJSON.c **** 
 991:/home/xingli/share/1205tiny/cJSON/cJSON.c ****     if (can_access_at_index(buffer, 4) && (strncmp((const char*)buffer_at_offset(buffer), "\xEF\xBB
 2928              		.loc 1 991 8
 2929 0046 48837DE8 		cmpq	$0, -24(%rbp)
 2929      00
 2930 004b 7457     		je	.L247
 2931              		.loc 1 991 9 discriminator 1
 2932 004d 488B45E8 		movq	-24(%rbp), %rax
 2933 0051 488B4010 		movq	16(%rax), %rax
 2934 0055 488D5004 		leaq	4(%rax), %rdx
 2935 0059 488B45E8 		movq	-24(%rbp), %rax
 2936 005d 488B4008 		movq	8(%rax), %rax
 2937 0061 4839C2   		cmpq	%rax, %rdx
 2938 0064 733E     		jnb	.L247
 2939              		.loc 1 991 65 discriminator 2
 2940 0066 488B45E8 		movq	-24(%rbp), %rax
 2941 006a 488B10   		movq	(%rax), %rdx
 2942 006d 488B45E8 		movq	-24(%rbp), %rax
 2943 0071 488B4010 		movq	16(%rax), %rax
 2944 0075 4801D0   		addq	%rdx, %rax
 2945              		.loc 1 991 44 discriminator 2
 2946 0078 BA030000 		movl	$3, %edx
 2946      00
 2947 007d 488D3500 		leaq	.LC9(%rip), %rsi
 2947      000000
 2948 0084 4889C7   		movq	%rax, %rdi
 2949 0087 E8000000 		call	strncmp@PLT
GAS LISTING /tmp/ccabgRKQ.s 			page 78


 2949      00
 2950              		.loc 1 991 40 discriminator 2
 2951 008c 85C0     		testl	%eax, %eax
 2952 008e 7514     		jne	.L247
 992:/home/xingli/share/1205tiny/cJSON/cJSON.c ****     {
 993:/home/xingli/share/1205tiny/cJSON/cJSON.c ****         buffer->offset += 3;
 2953              		.loc 1 993 24
 2954 0090 488B45E8 		movq	-24(%rbp), %rax
 2955 0094 488B4010 		movq	16(%rax), %rax
 2956 0098 488D5003 		leaq	3(%rax), %rdx
 2957 009c 488B45E8 		movq	-24(%rbp), %rax
 2958 00a0 48895010 		movq	%rdx, 16(%rax)
 2959              	.L247:
 994:/home/xingli/share/1205tiny/cJSON/cJSON.c ****     }
 995:/home/xingli/share/1205tiny/cJSON/cJSON.c **** 
 996:/home/xingli/share/1205tiny/cJSON/cJSON.c ****     return buffer;
 2960              		.loc 1 996 12
 2961 00a4 488B45E8 		movq	-24(%rbp), %rax
 2962              	.L246:
 997:/home/xingli/share/1205tiny/cJSON/cJSON.c **** }
 2963              		.loc 1 997 1
 2964 00a8 488B4DF8 		movq	-8(%rbp), %rcx
 2965 00ac 6448330C 		xorq	%fs:40, %rcx
 2965      25280000 
 2965      00
 2966 00b5 7405     		je	.L248
 2967 00b7 E8000000 		call	__stack_chk_fail@PLT
 2967      00
 2968              	.L248:
 2969 00bc C9       		leave
 2970              	.LCFI62:
 2971              		.cfi_def_cfa 7, 8
 2972 00bd C3       		ret
 2973              		.cfi_endproc
 2974              	.LFE26:
 2976              		.section	.text.cJSON_ParseWithOpts,"ax",@progbits
 2977              		.globl	cJSON_ParseWithOpts
 2979              	cJSON_ParseWithOpts:
 2980              	.LFB27:
 998:/home/xingli/share/1205tiny/cJSON/cJSON.c **** 
 999:/home/xingli/share/1205tiny/cJSON/cJSON.c **** /* Parse an object - create a new root, and populate. */
1000:/home/xingli/share/1205tiny/cJSON/cJSON.c **** CJSON_PUBLIC(cJSON *) cJSON_ParseWithOpts(const char *value, const char **return_parse_end, cJSON_b
1001:/home/xingli/share/1205tiny/cJSON/cJSON.c **** {
 2981              		.loc 1 1001 1
 2982              		.cfi_startproc
 2983 0000 F30F1EFA 		endbr64
 2984 0004 55       		pushq	%rbp
 2985              	.LCFI63:
 2986              		.cfi_def_cfa_offset 16
 2987              		.cfi_offset 6, -16
 2988 0005 4889E5   		movq	%rsp, %rbp
 2989              	.LCFI64:
 2990              		.cfi_def_cfa_register 6
 2991 0008 4883C480 		addq	$-128, %rsp
 2992 000c 48897D98 		movq	%rdi, -104(%rbp)
 2993 0010 48897590 		movq	%rsi, -112(%rbp)
 2994 0014 89558C   		movl	%edx, -116(%rbp)
GAS LISTING /tmp/ccabgRKQ.s 			page 79


 2995              		.loc 1 1001 1
 2996 0017 64488B04 		movq	%fs:40, %rax
 2996      25280000 
 2996      00
 2997 0020 488945F8 		movq	%rax, -8(%rbp)
 2998 0024 31C0     		xorl	%eax, %eax
1002:/home/xingli/share/1205tiny/cJSON/cJSON.c ****     parse_buffer buffer = { 0, 0, 0, 0, { 0, 0, 0 } };
 2999              		.loc 1 1002 18
 3000 0026 48C745C0 		movq	$0, -64(%rbp)
 3000      00000000 
 3001 002e 48C745C8 		movq	$0, -56(%rbp)
 3001      00000000 
 3002 0036 48C745D0 		movq	$0, -48(%rbp)
 3002      00000000 
 3003 003e 48C745D8 		movq	$0, -40(%rbp)
 3003      00000000 
 3004 0046 48C745E0 		movq	$0, -32(%rbp)
 3004      00000000 
 3005 004e 48C745E8 		movq	$0, -24(%rbp)
 3005      00000000 
 3006 0056 48C745F0 		movq	$0, -16(%rbp)
 3006      00000000 
1003:/home/xingli/share/1205tiny/cJSON/cJSON.c ****     cJSON *item = NULL;
 3007              		.loc 1 1003 12
 3008 005e 48C745A8 		movq	$0, -88(%rbp)
 3008      00000000 
1004:/home/xingli/share/1205tiny/cJSON/cJSON.c **** 
1005:/home/xingli/share/1205tiny/cJSON/cJSON.c ****     /* reset error position */
1006:/home/xingli/share/1205tiny/cJSON/cJSON.c ****     global_error.json = NULL;
 3009              		.loc 1 1006 23
 3010 0066 48C70500 		movq	$0, global_error(%rip)
 3010      00000000 
 3010      000000
1007:/home/xingli/share/1205tiny/cJSON/cJSON.c ****     global_error.position = 0;
 3011              		.loc 1 1007 27
 3012 0071 48C70500 		movq	$0, 8+global_error(%rip)
 3012      00000000 
 3012      000000
1008:/home/xingli/share/1205tiny/cJSON/cJSON.c **** 
1009:/home/xingli/share/1205tiny/cJSON/cJSON.c ****     if (value == NULL)
 3013              		.loc 1 1009 8
 3014 007c 48837D98 		cmpq	$0, -104(%rbp)
 3014      00
 3015 0081 0F84DD00 		je	.L265
 3015      0000
1010:/home/xingli/share/1205tiny/cJSON/cJSON.c ****     {
1011:/home/xingli/share/1205tiny/cJSON/cJSON.c ****         goto fail;
1012:/home/xingli/share/1205tiny/cJSON/cJSON.c ****     }
1013:/home/xingli/share/1205tiny/cJSON/cJSON.c **** 
1014:/home/xingli/share/1205tiny/cJSON/cJSON.c ****     buffer.content = (const unsigned char*)value;
 3016              		.loc 1 1014 20
 3017 0087 488B4598 		movq	-104(%rbp), %rax
 3018 008b 488945C0 		movq	%rax, -64(%rbp)
1015:/home/xingli/share/1205tiny/cJSON/cJSON.c ****     buffer.length = strlen((const char*)value) + sizeof("");
 3019              		.loc 1 1015 21
 3020 008f 488B4598 		movq	-104(%rbp), %rax
 3021 0093 4889C7   		movq	%rax, %rdi
GAS LISTING /tmp/ccabgRKQ.s 			page 80


 3022 0096 E8000000 		call	strlen@PLT
 3022      00
 3023              		.loc 1 1015 48
 3024 009b 4883C001 		addq	$1, %rax
 3025              		.loc 1 1015 19
 3026 009f 488945C8 		movq	%rax, -56(%rbp)
1016:/home/xingli/share/1205tiny/cJSON/cJSON.c ****     buffer.offset = 0;
 3027              		.loc 1 1016 19
 3028 00a3 48C745D0 		movq	$0, -48(%rbp)
 3028      00000000 
1017:/home/xingli/share/1205tiny/cJSON/cJSON.c ****     buffer.hooks = global_hooks;
 3029              		.loc 1 1017 18
 3030 00ab 488B0500 		movq	global_hooks(%rip), %rax
 3030      000000
 3031 00b2 488B1500 		movq	8+global_hooks(%rip), %rdx
 3031      000000
 3032 00b9 488945E0 		movq	%rax, -32(%rbp)
 3033 00bd 488955E8 		movq	%rdx, -24(%rbp)
 3034 00c1 488B0500 		movq	16+global_hooks(%rip), %rax
 3034      000000
 3035 00c8 488945F0 		movq	%rax, -16(%rbp)
1018:/home/xingli/share/1205tiny/cJSON/cJSON.c **** 
1019:/home/xingli/share/1205tiny/cJSON/cJSON.c ****     item = cJSON_New_Item(&global_hooks);
 3036              		.loc 1 1019 12
 3037 00cc 488D3D00 		leaq	global_hooks(%rip), %rdi
 3037      000000
 3038 00d3 E8000000 		call	cJSON_New_Item
 3038      00
 3039 00d8 488945A8 		movq	%rax, -88(%rbp)
1020:/home/xingli/share/1205tiny/cJSON/cJSON.c ****     if (item == NULL) /* memory fail */
 3040              		.loc 1 1020 8
 3041 00dc 48837DA8 		cmpq	$0, -88(%rbp)
 3041      00
 3042 00e1 0F848000 		je	.L266
 3042      0000
1021:/home/xingli/share/1205tiny/cJSON/cJSON.c ****     {
1022:/home/xingli/share/1205tiny/cJSON/cJSON.c ****         goto fail;
1023:/home/xingli/share/1205tiny/cJSON/cJSON.c ****     }
1024:/home/xingli/share/1205tiny/cJSON/cJSON.c **** 
1025:/home/xingli/share/1205tiny/cJSON/cJSON.c ****     if (!parse_value(item, buffer_skip_whitespace(skip_utf8_bom(&buffer))))
 3043              		.loc 1 1025 10
 3044 00e7 488D45C0 		leaq	-64(%rbp), %rax
 3045 00eb 4889C7   		movq	%rax, %rdi
 3046 00ee E8000000 		call	skip_utf8_bom
 3046      00
 3047 00f3 4889C7   		movq	%rax, %rdi
 3048 00f6 E8000000 		call	buffer_skip_whitespace
 3048      00
 3049 00fb 4889C2   		movq	%rax, %rdx
 3050 00fe 488B45A8 		movq	-88(%rbp), %rax
 3051 0102 4889D6   		movq	%rdx, %rsi
 3052 0105 4889C7   		movq	%rax, %rdi
 3053 0108 E8000000 		call	parse_value
 3053      00
 3054              		.loc 1 1025 8
 3055 010d 85C0     		testl	%eax, %eax
 3056 010f 7459     		je	.L267
GAS LISTING /tmp/ccabgRKQ.s 			page 81


1026:/home/xingli/share/1205tiny/cJSON/cJSON.c ****     {
1027:/home/xingli/share/1205tiny/cJSON/cJSON.c ****         /* parse failure. ep is set. */
1028:/home/xingli/share/1205tiny/cJSON/cJSON.c ****         goto fail;
1029:/home/xingli/share/1205tiny/cJSON/cJSON.c ****     }
1030:/home/xingli/share/1205tiny/cJSON/cJSON.c **** 
1031:/home/xingli/share/1205tiny/cJSON/cJSON.c ****     /* if we require null-terminated JSON without appended garbage, skip and then check for a null 
1032:/home/xingli/share/1205tiny/cJSON/cJSON.c ****     if (require_null_terminated)
 3057              		.loc 1 1032 8
 3058 0111 837D8C00 		cmpl	$0, -116(%rbp)
 3059 0115 742B     		je	.L254
1033:/home/xingli/share/1205tiny/cJSON/cJSON.c ****     {
1034:/home/xingli/share/1205tiny/cJSON/cJSON.c ****         buffer_skip_whitespace(&buffer);
 3060              		.loc 1 1034 9
 3061 0117 488D45C0 		leaq	-64(%rbp), %rax
 3062 011b 4889C7   		movq	%rax, %rdi
 3063 011e E8000000 		call	buffer_skip_whitespace
 3063      00
1035:/home/xingli/share/1205tiny/cJSON/cJSON.c ****         if ((buffer.offset >= buffer.length) || buffer_at_offset(&buffer)[0] != '\0')
 3064              		.loc 1 1035 20
 3065 0123 488B55D0 		movq	-48(%rbp), %rdx
 3066              		.loc 1 1035 37
 3067 0127 488B45C8 		movq	-56(%rbp), %rax
 3068              		.loc 1 1035 12
 3069 012b 4839C2   		cmpq	%rax, %rdx
 3070 012e 733D     		jnb	.L268
 3071              		.loc 1 1035 49 discriminator 1
 3072 0130 488B55C0 		movq	-64(%rbp), %rdx
 3073 0134 488B45D0 		movq	-48(%rbp), %rax
 3074              		.loc 1 1035 74 discriminator 1
 3075 0138 4801D0   		addq	%rdx, %rax
 3076 013b 0FB600   		movzbl	(%rax), %eax
 3077              		.loc 1 1035 46 discriminator 1
 3078 013e 84C0     		testb	%al, %al
 3079 0140 752B     		jne	.L268
 3080              	.L254:
1036:/home/xingli/share/1205tiny/cJSON/cJSON.c ****         {
1037:/home/xingli/share/1205tiny/cJSON/cJSON.c ****             goto fail;
1038:/home/xingli/share/1205tiny/cJSON/cJSON.c ****         }
1039:/home/xingli/share/1205tiny/cJSON/cJSON.c ****     }
1040:/home/xingli/share/1205tiny/cJSON/cJSON.c ****     if (return_parse_end)
 3081              		.loc 1 1040 8
 3082 0142 48837D90 		cmpq	$0, -112(%rbp)
 3082      00
 3083 0147 7412     		je	.L256
1041:/home/xingli/share/1205tiny/cJSON/cJSON.c ****     {
1042:/home/xingli/share/1205tiny/cJSON/cJSON.c ****         *return_parse_end = (const char*)buffer_at_offset(&buffer);
 3084              		.loc 1 1042 42
 3085 0149 488B55C0 		movq	-64(%rbp), %rdx
 3086 014d 488B45D0 		movq	-48(%rbp), %rax
 3087 0151 4801C2   		addq	%rax, %rdx
 3088              		.loc 1 1042 27
 3089 0154 488B4590 		movq	-112(%rbp), %rax
 3090 0158 488910   		movq	%rdx, (%rax)
 3091              	.L256:
1043:/home/xingli/share/1205tiny/cJSON/cJSON.c ****     }
1044:/home/xingli/share/1205tiny/cJSON/cJSON.c **** 
1045:/home/xingli/share/1205tiny/cJSON/cJSON.c ****     return item;
GAS LISTING /tmp/ccabgRKQ.s 			page 82


 3092              		.loc 1 1045 12
 3093 015b 488B45A8 		movq	-88(%rbp), %rax
 3094 015f E9940000 		jmp	.L263
 3094      00
 3095              	.L265:
1011:/home/xingli/share/1205tiny/cJSON/cJSON.c ****     }
 3096              		.loc 1 1011 9
 3097 0164 90       		nop
 3098 0165 EB07     		jmp	.L251
 3099              	.L266:
1022:/home/xingli/share/1205tiny/cJSON/cJSON.c ****     }
 3100              		.loc 1 1022 9
 3101 0167 90       		nop
 3102 0168 EB04     		jmp	.L251
 3103              	.L267:
1028:/home/xingli/share/1205tiny/cJSON/cJSON.c ****     }
 3104              		.loc 1 1028 9
 3105 016a 90       		nop
 3106 016b EB01     		jmp	.L251
 3107              	.L268:
1037:/home/xingli/share/1205tiny/cJSON/cJSON.c ****         }
 3108              		.loc 1 1037 13
 3109 016d 90       		nop
 3110              	.L251:
1046:/home/xingli/share/1205tiny/cJSON/cJSON.c **** 
1047:/home/xingli/share/1205tiny/cJSON/cJSON.c **** fail:
1048:/home/xingli/share/1205tiny/cJSON/cJSON.c ****     if (item != NULL)
 3111              		.loc 1 1048 8
 3112 016e 48837DA8 		cmpq	$0, -88(%rbp)
 3112      00
 3113 0173 740C     		je	.L258
1049:/home/xingli/share/1205tiny/cJSON/cJSON.c ****     {
1050:/home/xingli/share/1205tiny/cJSON/cJSON.c ****         cJSON_Delete(item);
 3114              		.loc 1 1050 9
 3115 0175 488B45A8 		movq	-88(%rbp), %rax
 3116 0179 4889C7   		movq	%rax, %rdi
 3117 017c E8000000 		call	cJSON_Delete
 3117      00
 3118              	.L258:
1051:/home/xingli/share/1205tiny/cJSON/cJSON.c ****     }
1052:/home/xingli/share/1205tiny/cJSON/cJSON.c **** 
1053:/home/xingli/share/1205tiny/cJSON/cJSON.c ****     if (value != NULL)
 3119              		.loc 1 1053 8
 3120 0181 48837D98 		cmpq	$0, -104(%rbp)
 3120      00
 3121 0186 746B     		je	.L259
 3122              	.LBB8:
1054:/home/xingli/share/1205tiny/cJSON/cJSON.c ****     {
1055:/home/xingli/share/1205tiny/cJSON/cJSON.c ****         error local_error;
1056:/home/xingli/share/1205tiny/cJSON/cJSON.c ****         local_error.json = (const unsigned char*)value;
 3123              		.loc 1 1056 26
 3124 0188 488B4598 		movq	-104(%rbp), %rax
 3125 018c 488945B0 		movq	%rax, -80(%rbp)
1057:/home/xingli/share/1205tiny/cJSON/cJSON.c ****         local_error.position = 0;
 3126              		.loc 1 1057 30
 3127 0190 48C745B8 		movq	$0, -72(%rbp)
 3127      00000000 
GAS LISTING /tmp/ccabgRKQ.s 			page 83


1058:/home/xingli/share/1205tiny/cJSON/cJSON.c **** 
1059:/home/xingli/share/1205tiny/cJSON/cJSON.c ****         if (buffer.offset < buffer.length)
 3128              		.loc 1 1059 19
 3129 0198 488B55D0 		movq	-48(%rbp), %rdx
 3130              		.loc 1 1059 35
 3131 019c 488B45C8 		movq	-56(%rbp), %rax
 3132              		.loc 1 1059 12
 3133 01a0 4839C2   		cmpq	%rax, %rdx
 3134 01a3 730A     		jnb	.L260
1060:/home/xingli/share/1205tiny/cJSON/cJSON.c ****         {
1061:/home/xingli/share/1205tiny/cJSON/cJSON.c ****             local_error.position = buffer.offset;
 3135              		.loc 1 1061 42
 3136 01a5 488B45D0 		movq	-48(%rbp), %rax
 3137              		.loc 1 1061 34
 3138 01a9 488945B8 		movq	%rax, -72(%rbp)
 3139 01ad EB15     		jmp	.L261
 3140              	.L260:
1062:/home/xingli/share/1205tiny/cJSON/cJSON.c ****         }
1063:/home/xingli/share/1205tiny/cJSON/cJSON.c ****         else if (buffer.length > 0)
 3141              		.loc 1 1063 24
 3142 01af 488B45C8 		movq	-56(%rbp), %rax
 3143              		.loc 1 1063 17
 3144 01b3 4885C0   		testq	%rax, %rax
 3145 01b6 740C     		je	.L261
1064:/home/xingli/share/1205tiny/cJSON/cJSON.c ****         {
1065:/home/xingli/share/1205tiny/cJSON/cJSON.c ****             local_error.position = buffer.length - 1;
 3146              		.loc 1 1065 42
 3147 01b8 488B45C8 		movq	-56(%rbp), %rax
 3148              		.loc 1 1065 50
 3149 01bc 4883E801 		subq	$1, %rax
 3150              		.loc 1 1065 34
 3151 01c0 488945B8 		movq	%rax, -72(%rbp)
 3152              	.L261:
1066:/home/xingli/share/1205tiny/cJSON/cJSON.c ****         }
1067:/home/xingli/share/1205tiny/cJSON/cJSON.c **** 
1068:/home/xingli/share/1205tiny/cJSON/cJSON.c ****         if (return_parse_end != NULL)
 3153              		.loc 1 1068 12
 3154 01c4 48837D90 		cmpq	$0, -112(%rbp)
 3154      00
 3155 01c9 7412     		je	.L262
1069:/home/xingli/share/1205tiny/cJSON/cJSON.c ****         {
1070:/home/xingli/share/1205tiny/cJSON/cJSON.c ****             *return_parse_end = (const char*)local_error.json + local_error.position;
 3156              		.loc 1 1070 57
 3157 01cb 488B55B0 		movq	-80(%rbp), %rdx
 3158              		.loc 1 1070 76
 3159 01cf 488B45B8 		movq	-72(%rbp), %rax
 3160              		.loc 1 1070 63
 3161 01d3 4801C2   		addq	%rax, %rdx
 3162              		.loc 1 1070 31
 3163 01d6 488B4590 		movq	-112(%rbp), %rax
 3164 01da 488910   		movq	%rdx, (%rax)
 3165              	.L262:
1071:/home/xingli/share/1205tiny/cJSON/cJSON.c ****         }
1072:/home/xingli/share/1205tiny/cJSON/cJSON.c **** 
1073:/home/xingli/share/1205tiny/cJSON/cJSON.c ****         global_error = local_error;
 3166              		.loc 1 1073 22
 3167 01dd 488B45B0 		movq	-80(%rbp), %rax
GAS LISTING /tmp/ccabgRKQ.s 			page 84


 3168 01e1 488B55B8 		movq	-72(%rbp), %rdx
 3169 01e5 48890500 		movq	%rax, global_error(%rip)
 3169      000000
 3170 01ec 48891500 		movq	%rdx, 8+global_error(%rip)
 3170      000000
 3171              	.L259:
 3172              	.LBE8:
1074:/home/xingli/share/1205tiny/cJSON/cJSON.c ****     }
1075:/home/xingli/share/1205tiny/cJSON/cJSON.c **** 
1076:/home/xingli/share/1205tiny/cJSON/cJSON.c ****     return NULL;
 3173              		.loc 1 1076 12
 3174 01f3 B8000000 		movl	$0, %eax
 3174      00
 3175              	.L263:
1077:/home/xingli/share/1205tiny/cJSON/cJSON.c **** }
 3176              		.loc 1 1077 1 discriminator 1
 3177 01f8 488B4DF8 		movq	-8(%rbp), %rcx
 3178 01fc 6448330C 		xorq	%fs:40, %rcx
 3178      25280000 
 3178      00
 3179 0205 7405     		je	.L264
 3180              		.loc 1 1077 1 is_stmt 0
 3181 0207 E8000000 		call	__stack_chk_fail@PLT
 3181      00
 3182              	.L264:
 3183 020c C9       		leave
 3184              	.LCFI65:
 3185              		.cfi_def_cfa 7, 8
 3186 020d C3       		ret
 3187              		.cfi_endproc
 3188              	.LFE27:
 3190              		.section	.text.cJSON_Parse,"ax",@progbits
 3191              		.globl	cJSON_Parse
 3193              	cJSON_Parse:
 3194              	.LFB28:
1078:/home/xingli/share/1205tiny/cJSON/cJSON.c **** 
1079:/home/xingli/share/1205tiny/cJSON/cJSON.c **** /* Default options for cJSON_Parse */
1080:/home/xingli/share/1205tiny/cJSON/cJSON.c **** CJSON_PUBLIC(cJSON *) cJSON_Parse(const char *value)
1081:/home/xingli/share/1205tiny/cJSON/cJSON.c **** {
 3195              		.loc 1 1081 1 is_stmt 1
 3196              		.cfi_startproc
 3197 0000 F30F1EFA 		endbr64
 3198 0004 55       		pushq	%rbp
 3199              	.LCFI66:
 3200              		.cfi_def_cfa_offset 16
 3201              		.cfi_offset 6, -16
 3202 0005 4889E5   		movq	%rsp, %rbp
 3203              	.LCFI67:
 3204              		.cfi_def_cfa_register 6
 3205 0008 4883EC20 		subq	$32, %rsp
 3206 000c 48897DE8 		movq	%rdi, -24(%rbp)
 3207              		.loc 1 1081 1
 3208 0010 64488B04 		movq	%fs:40, %rax
 3208      25280000 
 3208      00
 3209 0019 488945F8 		movq	%rax, -8(%rbp)
 3210 001d 31C0     		xorl	%eax, %eax
GAS LISTING /tmp/ccabgRKQ.s 			page 85


1082:/home/xingli/share/1205tiny/cJSON/cJSON.c ****     return cJSON_ParseWithOpts(value, 0, 0);
 3211              		.loc 1 1082 12
 3212 001f 488B45E8 		movq	-24(%rbp), %rax
 3213 0023 BA000000 		movl	$0, %edx
 3213      00
 3214 0028 BE000000 		movl	$0, %esi
 3214      00
 3215 002d 4889C7   		movq	%rax, %rdi
 3216 0030 E8000000 		call	cJSON_ParseWithOpts
 3216      00
1083:/home/xingli/share/1205tiny/cJSON/cJSON.c **** }
 3217              		.loc 1 1083 1
 3218 0035 488B4DF8 		movq	-8(%rbp), %rcx
 3219 0039 6448330C 		xorq	%fs:40, %rcx
 3219      25280000 
 3219      00
 3220 0042 7405     		je	.L271
 3221 0044 E8000000 		call	__stack_chk_fail@PLT
 3221      00
 3222              	.L271:
 3223 0049 C9       		leave
 3224              	.LCFI68:
 3225              		.cfi_def_cfa 7, 8
 3226 004a C3       		ret
 3227              		.cfi_endproc
 3228              	.LFE28:
 3230              		.section	.text.print,"ax",@progbits
 3232              	print:
 3233              	.LFB29:
1084:/home/xingli/share/1205tiny/cJSON/cJSON.c **** 
1085:/home/xingli/share/1205tiny/cJSON/cJSON.c **** #define cjson_min(a, b) ((a < b) ? a : b)
1086:/home/xingli/share/1205tiny/cJSON/cJSON.c **** 
1087:/home/xingli/share/1205tiny/cJSON/cJSON.c **** static unsigned char *print(const cJSON * const item, cJSON_bool format, const internal_hooks * con
1088:/home/xingli/share/1205tiny/cJSON/cJSON.c **** {
 3234              		.loc 1 1088 1
 3235              		.cfi_startproc
 3236 0000 F30F1EFA 		endbr64
 3237 0004 55       		pushq	%rbp
 3238              	.LCFI69:
 3239              		.cfi_def_cfa_offset 16
 3240              		.cfi_offset 6, -16
 3241 0005 4889E5   		movq	%rsp, %rbp
 3242              	.LCFI70:
 3243              		.cfi_def_cfa_register 6
 3244 0008 4883C480 		addq	$-128, %rsp
 3245 000c 48897D98 		movq	%rdi, -104(%rbp)
 3246 0010 897594   		movl	%esi, -108(%rbp)
 3247 0013 48895588 		movq	%rdx, -120(%rbp)
 3248              		.loc 1 1088 1
 3249 0017 64488B04 		movq	%fs:40, %rax
 3249      25280000 
 3249      00
 3250 0020 488945F8 		movq	%rax, -8(%rbp)
 3251 0024 31C0     		xorl	%eax, %eax
1089:/home/xingli/share/1205tiny/cJSON/cJSON.c ****     static const size_t default_buffer_size = 256;
1090:/home/xingli/share/1205tiny/cJSON/cJSON.c ****     printbuffer buffer[1];
1091:/home/xingli/share/1205tiny/cJSON/cJSON.c ****     unsigned char *printed = NULL;
GAS LISTING /tmp/ccabgRKQ.s 			page 86


 3252              		.loc 1 1091 20
 3253 0026 48C745A8 		movq	$0, -88(%rbp)
 3253      00000000 
1092:/home/xingli/share/1205tiny/cJSON/cJSON.c **** 
1093:/home/xingli/share/1205tiny/cJSON/cJSON.c ****     memset(buffer, 0, sizeof(buffer));
 3254              		.loc 1 1093 5
 3255 002e 488D45B0 		leaq	-80(%rbp), %rax
 3256 0032 BA400000 		movl	$64, %edx
 3256      00
 3257 0037 BE000000 		movl	$0, %esi
 3257      00
 3258 003c 4889C7   		movq	%rax, %rdi
 3259 003f E8000000 		call	memset@PLT
 3259      00
1094:/home/xingli/share/1205tiny/cJSON/cJSON.c **** 
1095:/home/xingli/share/1205tiny/cJSON/cJSON.c ****     /* create buffer */
1096:/home/xingli/share/1205tiny/cJSON/cJSON.c ****     buffer->buffer = (unsigned char*) hooks->allocate(default_buffer_size);
 3260              		.loc 1 1096 44
 3261 0044 488B4588 		movq	-120(%rbp), %rax
 3262 0048 488B10   		movq	(%rax), %rdx
 3263              		.loc 1 1096 39
 3264 004b 488B0500 		movq	default_buffer_size.4659(%rip), %rax
 3264      000000
 3265 0052 4889C7   		movq	%rax, %rdi
 3266 0055 FFD2     		call	*%rdx
 3267              	.LVL12:
 3268              		.loc 1 1096 20
 3269 0057 488945B0 		movq	%rax, -80(%rbp)
1097:/home/xingli/share/1205tiny/cJSON/cJSON.c ****     buffer->length = default_buffer_size;
 3270              		.loc 1 1097 20
 3271 005b 488B0500 		movq	default_buffer_size.4659(%rip), %rax
 3271      000000
 3272 0062 488945B8 		movq	%rax, -72(%rbp)
1098:/home/xingli/share/1205tiny/cJSON/cJSON.c ****     buffer->format = format;
 3273              		.loc 1 1098 20
 3274 0066 8B4594   		movl	-108(%rbp), %eax
 3275 0069 8945D4   		movl	%eax, -44(%rbp)
1099:/home/xingli/share/1205tiny/cJSON/cJSON.c ****     buffer->hooks = *hooks;
 3276              		.loc 1 1099 19
 3277 006c 488B4D88 		movq	-120(%rbp), %rcx
 3278 0070 488B01   		movq	(%rcx), %rax
 3279 0073 488B5108 		movq	8(%rcx), %rdx
 3280 0077 488945D8 		movq	%rax, -40(%rbp)
 3281 007b 488955E0 		movq	%rdx, -32(%rbp)
 3282 007f 488B4110 		movq	16(%rcx), %rax
 3283 0083 488945E8 		movq	%rax, -24(%rbp)
1100:/home/xingli/share/1205tiny/cJSON/cJSON.c ****     if (buffer->buffer == NULL)
 3284              		.loc 1 1100 15
 3285 0087 488B45B0 		movq	-80(%rbp), %rax
 3286              		.loc 1 1100 8
 3287 008b 4885C0   		testq	%rax, %rax
 3288 008e 0F84CF00 		je	.L285
 3288      0000
1101:/home/xingli/share/1205tiny/cJSON/cJSON.c ****     {
1102:/home/xingli/share/1205tiny/cJSON/cJSON.c ****         goto fail;
1103:/home/xingli/share/1205tiny/cJSON/cJSON.c ****     }
1104:/home/xingli/share/1205tiny/cJSON/cJSON.c **** 
GAS LISTING /tmp/ccabgRKQ.s 			page 87


1105:/home/xingli/share/1205tiny/cJSON/cJSON.c ****     /* print the value */
1106:/home/xingli/share/1205tiny/cJSON/cJSON.c ****     if (!print_value(item, buffer))
 3289              		.loc 1 1106 10
 3290 0094 488D55B0 		leaq	-80(%rbp), %rdx
 3291 0098 488B4598 		movq	-104(%rbp), %rax
 3292 009c 4889D6   		movq	%rdx, %rsi
 3293 009f 4889C7   		movq	%rax, %rdi
 3294 00a2 E8000000 		call	print_value
 3294      00
 3295              		.loc 1 1106 8
 3296 00a7 85C0     		testl	%eax, %eax
 3297 00a9 0F84B700 		je	.L286
 3297      0000
1107:/home/xingli/share/1205tiny/cJSON/cJSON.c ****     {
1108:/home/xingli/share/1205tiny/cJSON/cJSON.c ****         goto fail;
1109:/home/xingli/share/1205tiny/cJSON/cJSON.c ****     }
1110:/home/xingli/share/1205tiny/cJSON/cJSON.c ****     update_offset(buffer);
 3298              		.loc 1 1110 5
 3299 00af 488D45B0 		leaq	-80(%rbp), %rax
 3300 00b3 4889C7   		movq	%rax, %rdi
 3301 00b6 E8000000 		call	update_offset
 3301      00
1111:/home/xingli/share/1205tiny/cJSON/cJSON.c **** 
1112:/home/xingli/share/1205tiny/cJSON/cJSON.c ****     /* check if reallocate is available */
1113:/home/xingli/share/1205tiny/cJSON/cJSON.c ****     if (hooks->reallocate != NULL)
 3302              		.loc 1 1113 14
 3303 00bb 488B4588 		movq	-120(%rbp), %rax
 3304 00bf 488B4010 		movq	16(%rax), %rax
 3305              		.loc 1 1113 8
 3306 00c3 4885C0   		testq	%rax, %rax
 3307 00c6 7431     		je	.L276
1114:/home/xingli/share/1205tiny/cJSON/cJSON.c ****     {
1115:/home/xingli/share/1205tiny/cJSON/cJSON.c ****         printed = (unsigned char*) hooks->reallocate(buffer->buffer, buffer->offset + 1);
 3308              		.loc 1 1115 41
 3309 00c8 488B4588 		movq	-120(%rbp), %rax
 3310 00cc 488B5010 		movq	16(%rax), %rdx
 3311              		.loc 1 1115 76
 3312 00d0 488B45C0 		movq	-64(%rbp), %rax
 3313              		.loc 1 1115 36
 3314 00d4 488D4801 		leaq	1(%rax), %rcx
 3315              		.loc 1 1115 60
 3316 00d8 488B45B0 		movq	-80(%rbp), %rax
 3317              		.loc 1 1115 36
 3318 00dc 4889CE   		movq	%rcx, %rsi
 3319 00df 4889C7   		movq	%rax, %rdi
 3320 00e2 FFD2     		call	*%rdx
 3321              	.LVL13:
 3322 00e4 488945A8 		movq	%rax, -88(%rbp)
1116:/home/xingli/share/1205tiny/cJSON/cJSON.c ****         if (printed == NULL) {
 3323              		.loc 1 1116 12
 3324 00e8 48837DA8 		cmpq	$0, -88(%rbp)
 3324      00
 3325 00ed 747A     		je	.L287
1117:/home/xingli/share/1205tiny/cJSON/cJSON.c ****             goto fail;
1118:/home/xingli/share/1205tiny/cJSON/cJSON.c ****         }
1119:/home/xingli/share/1205tiny/cJSON/cJSON.c ****         buffer->buffer = NULL;
 3326              		.loc 1 1119 24
GAS LISTING /tmp/ccabgRKQ.s 			page 88


 3327 00ef 48C745B0 		movq	$0, -80(%rbp)
 3327      00000000 
 3328 00f7 EB64     		jmp	.L278
 3329              	.L276:
1120:/home/xingli/share/1205tiny/cJSON/cJSON.c ****     }
1121:/home/xingli/share/1205tiny/cJSON/cJSON.c ****     else /* otherwise copy the JSON over to a new buffer */
1122:/home/xingli/share/1205tiny/cJSON/cJSON.c ****     {
1123:/home/xingli/share/1205tiny/cJSON/cJSON.c ****         printed = (unsigned char*) hooks->allocate(buffer->offset + 1);
 3330              		.loc 1 1123 41
 3331 00f9 488B4588 		movq	-120(%rbp), %rax
 3332 00fd 488B00   		movq	(%rax), %rax
 3333              		.loc 1 1123 58
 3334 0100 488B55C0 		movq	-64(%rbp), %rdx
 3335              		.loc 1 1123 36
 3336 0104 4883C201 		addq	$1, %rdx
 3337 0108 4889D7   		movq	%rdx, %rdi
 3338 010b FFD0     		call	*%rax
 3339              	.LVL14:
 3340 010d 488945A8 		movq	%rax, -88(%rbp)
1124:/home/xingli/share/1205tiny/cJSON/cJSON.c ****         if (printed == NULL)
 3341              		.loc 1 1124 12
 3342 0111 48837DA8 		cmpq	$0, -88(%rbp)
 3342      00
 3343 0116 7454     		je	.L288
1125:/home/xingli/share/1205tiny/cJSON/cJSON.c ****         {
1126:/home/xingli/share/1205tiny/cJSON/cJSON.c ****             goto fail;
1127:/home/xingli/share/1205tiny/cJSON/cJSON.c ****         }
1128:/home/xingli/share/1205tiny/cJSON/cJSON.c ****         (void) memcpy(printed, buffer->buffer, cjson_min(buffer->length, buffer->offset + 1));
 3344              		.loc 1 1128 48
 3345 0118 488B45C0 		movq	-64(%rbp), %rax
 3346 011c 488D5001 		leaq	1(%rax), %rdx
 3347 0120 488B45B8 		movq	-72(%rbp), %rax
 3348              		.loc 1 1128 16
 3349 0124 4839C2   		cmpq	%rax, %rdx
 3350 0127 480F47D0 		cmova	%rax, %rdx
 3351              		.loc 1 1128 38
 3352 012b 488B4DB0 		movq	-80(%rbp), %rcx
 3353              		.loc 1 1128 16
 3354 012f 488B45A8 		movq	-88(%rbp), %rax
 3355 0133 4889CE   		movq	%rcx, %rsi
 3356 0136 4889C7   		movq	%rax, %rdi
 3357 0139 E8000000 		call	memcpy@PLT
 3357      00
1129:/home/xingli/share/1205tiny/cJSON/cJSON.c ****         printed[buffer->offset] = '\0'; /* just to be sure */
 3358              		.loc 1 1129 23
 3359 013e 488B55C0 		movq	-64(%rbp), %rdx
 3360              		.loc 1 1129 16
 3361 0142 488B45A8 		movq	-88(%rbp), %rax
 3362 0146 4801D0   		addq	%rdx, %rax
 3363              		.loc 1 1129 33
 3364 0149 C60000   		movb	$0, (%rax)
1130:/home/xingli/share/1205tiny/cJSON/cJSON.c **** 
1131:/home/xingli/share/1205tiny/cJSON/cJSON.c ****         /* free the buffer */
1132:/home/xingli/share/1205tiny/cJSON/cJSON.c ****         hooks->deallocate(buffer->buffer);
 3365              		.loc 1 1132 14
 3366 014c 488B4588 		movq	-120(%rbp), %rax
 3367 0150 488B5008 		movq	8(%rax), %rdx
GAS LISTING /tmp/ccabgRKQ.s 			page 89


 3368              		.loc 1 1132 33
 3369 0154 488B45B0 		movq	-80(%rbp), %rax
 3370              		.loc 1 1132 9
 3371 0158 4889C7   		movq	%rax, %rdi
 3372 015b FFD2     		call	*%rdx
 3373              	.LVL15:
 3374              	.L278:
1133:/home/xingli/share/1205tiny/cJSON/cJSON.c ****     }
1134:/home/xingli/share/1205tiny/cJSON/cJSON.c **** 
1135:/home/xingli/share/1205tiny/cJSON/cJSON.c ****     return printed;
 3375              		.loc 1 1135 12
 3376 015d 488B45A8 		movq	-88(%rbp), %rax
 3377 0161 EB41     		jmp	.L283
 3378              	.L285:
1102:/home/xingli/share/1205tiny/cJSON/cJSON.c ****     }
 3379              		.loc 1 1102 9
 3380 0163 90       		nop
 3381 0164 EB07     		jmp	.L274
 3382              	.L286:
1108:/home/xingli/share/1205tiny/cJSON/cJSON.c ****     }
 3383              		.loc 1 1108 9
 3384 0166 90       		nop
 3385 0167 EB04     		jmp	.L274
 3386              	.L287:
1117:/home/xingli/share/1205tiny/cJSON/cJSON.c ****         }
 3387              		.loc 1 1117 13
 3388 0169 90       		nop
 3389 016a EB01     		jmp	.L274
 3390              	.L288:
1126:/home/xingli/share/1205tiny/cJSON/cJSON.c ****         }
 3391              		.loc 1 1126 13
 3392 016c 90       		nop
 3393              	.L274:
1136:/home/xingli/share/1205tiny/cJSON/cJSON.c **** 
1137:/home/xingli/share/1205tiny/cJSON/cJSON.c **** fail:
1138:/home/xingli/share/1205tiny/cJSON/cJSON.c ****     if (buffer->buffer != NULL)
 3394              		.loc 1 1138 15
 3395 016d 488B45B0 		movq	-80(%rbp), %rax
 3396              		.loc 1 1138 8
 3397 0171 4885C0   		testq	%rax, %rax
 3398 0174 7411     		je	.L281
1139:/home/xingli/share/1205tiny/cJSON/cJSON.c ****     {
1140:/home/xingli/share/1205tiny/cJSON/cJSON.c ****         hooks->deallocate(buffer->buffer);
 3399              		.loc 1 1140 14
 3400 0176 488B4588 		movq	-120(%rbp), %rax
 3401 017a 488B5008 		movq	8(%rax), %rdx
 3402              		.loc 1 1140 33
 3403 017e 488B45B0 		movq	-80(%rbp), %rax
 3404              		.loc 1 1140 9
 3405 0182 4889C7   		movq	%rax, %rdi
 3406 0185 FFD2     		call	*%rdx
 3407              	.LVL16:
 3408              	.L281:
1141:/home/xingli/share/1205tiny/cJSON/cJSON.c ****     }
1142:/home/xingli/share/1205tiny/cJSON/cJSON.c **** 
1143:/home/xingli/share/1205tiny/cJSON/cJSON.c ****     if (printed != NULL)
 3409              		.loc 1 1143 8
GAS LISTING /tmp/ccabgRKQ.s 			page 90


 3410 0187 48837DA8 		cmpq	$0, -88(%rbp)
 3410      00
 3411 018c 7411     		je	.L282
1144:/home/xingli/share/1205tiny/cJSON/cJSON.c ****     {
1145:/home/xingli/share/1205tiny/cJSON/cJSON.c ****         hooks->deallocate(printed);
 3412              		.loc 1 1145 14
 3413 018e 488B4588 		movq	-120(%rbp), %rax
 3414 0192 488B5008 		movq	8(%rax), %rdx
 3415              		.loc 1 1145 9
 3416 0196 488B45A8 		movq	-88(%rbp), %rax
 3417 019a 4889C7   		movq	%rax, %rdi
 3418 019d FFD2     		call	*%rdx
 3419              	.LVL17:
 3420              	.L282:
1146:/home/xingli/share/1205tiny/cJSON/cJSON.c ****     }
1147:/home/xingli/share/1205tiny/cJSON/cJSON.c **** 
1148:/home/xingli/share/1205tiny/cJSON/cJSON.c ****     return NULL;
 3421              		.loc 1 1148 12
 3422 019f B8000000 		movl	$0, %eax
 3422      00
 3423              	.L283:
1149:/home/xingli/share/1205tiny/cJSON/cJSON.c **** }
 3424              		.loc 1 1149 1 discriminator 1
 3425 01a4 488B75F8 		movq	-8(%rbp), %rsi
 3426 01a8 64483334 		xorq	%fs:40, %rsi
 3426      25280000 
 3426      00
 3427 01b1 7405     		je	.L284
 3428              		.loc 1 1149 1 is_stmt 0
 3429 01b3 E8000000 		call	__stack_chk_fail@PLT
 3429      00
 3430              	.L284:
 3431 01b8 C9       		leave
 3432              	.LCFI71:
 3433              		.cfi_def_cfa 7, 8
 3434 01b9 C3       		ret
 3435              		.cfi_endproc
 3436              	.LFE29:
 3438              		.section	.text.cJSON_Print,"ax",@progbits
 3439              		.globl	cJSON_Print
 3441              	cJSON_Print:
 3442              	.LFB30:
1150:/home/xingli/share/1205tiny/cJSON/cJSON.c **** 
1151:/home/xingli/share/1205tiny/cJSON/cJSON.c **** /* Render a cJSON item/entity/structure to text. */
1152:/home/xingli/share/1205tiny/cJSON/cJSON.c **** CJSON_PUBLIC(char *) cJSON_Print(const cJSON *item)
1153:/home/xingli/share/1205tiny/cJSON/cJSON.c **** {
 3443              		.loc 1 1153 1 is_stmt 1
 3444              		.cfi_startproc
 3445 0000 F30F1EFA 		endbr64
 3446 0004 55       		pushq	%rbp
 3447              	.LCFI72:
 3448              		.cfi_def_cfa_offset 16
 3449              		.cfi_offset 6, -16
 3450 0005 4889E5   		movq	%rsp, %rbp
 3451              	.LCFI73:
 3452              		.cfi_def_cfa_register 6
 3453 0008 4883EC20 		subq	$32, %rsp
GAS LISTING /tmp/ccabgRKQ.s 			page 91


 3454 000c 48897DE8 		movq	%rdi, -24(%rbp)
 3455              		.loc 1 1153 1
 3456 0010 64488B04 		movq	%fs:40, %rax
 3456      25280000 
 3456      00
 3457 0019 488945F8 		movq	%rax, -8(%rbp)
 3458 001d 31C0     		xorl	%eax, %eax
1154:/home/xingli/share/1205tiny/cJSON/cJSON.c ****     return (char*)print(item, true, &global_hooks);
 3459              		.loc 1 1154 19
 3460 001f 488B45E8 		movq	-24(%rbp), %rax
 3461 0023 488D1500 		leaq	global_hooks(%rip), %rdx
 3461      000000
 3462 002a BE010000 		movl	$1, %esi
 3462      00
 3463 002f 4889C7   		movq	%rax, %rdi
 3464 0032 E8000000 		call	print
 3464      00
1155:/home/xingli/share/1205tiny/cJSON/cJSON.c **** }
 3465              		.loc 1 1155 1
 3466 0037 488B4DF8 		movq	-8(%rbp), %rcx
 3467 003b 6448330C 		xorq	%fs:40, %rcx
 3467      25280000 
 3467      00
 3468 0044 7405     		je	.L291
 3469 0046 E8000000 		call	__stack_chk_fail@PLT
 3469      00
 3470              	.L291:
 3471 004b C9       		leave
 3472              	.LCFI74:
 3473              		.cfi_def_cfa 7, 8
 3474 004c C3       		ret
 3475              		.cfi_endproc
 3476              	.LFE30:
 3478              		.section	.text.cJSON_PrintUnformatted,"ax",@progbits
 3479              		.globl	cJSON_PrintUnformatted
 3481              	cJSON_PrintUnformatted:
 3482              	.LFB31:
1156:/home/xingli/share/1205tiny/cJSON/cJSON.c **** 
1157:/home/xingli/share/1205tiny/cJSON/cJSON.c **** CJSON_PUBLIC(char *) cJSON_PrintUnformatted(const cJSON *item)
1158:/home/xingli/share/1205tiny/cJSON/cJSON.c **** {
 3483              		.loc 1 1158 1
 3484              		.cfi_startproc
 3485 0000 F30F1EFA 		endbr64
 3486 0004 55       		pushq	%rbp
 3487              	.LCFI75:
 3488              		.cfi_def_cfa_offset 16
 3489              		.cfi_offset 6, -16
 3490 0005 4889E5   		movq	%rsp, %rbp
 3491              	.LCFI76:
 3492              		.cfi_def_cfa_register 6
 3493 0008 4883EC20 		subq	$32, %rsp
 3494 000c 48897DE8 		movq	%rdi, -24(%rbp)
 3495              		.loc 1 1158 1
 3496 0010 64488B04 		movq	%fs:40, %rax
 3496      25280000 
 3496      00
 3497 0019 488945F8 		movq	%rax, -8(%rbp)
GAS LISTING /tmp/ccabgRKQ.s 			page 92


 3498 001d 31C0     		xorl	%eax, %eax
1159:/home/xingli/share/1205tiny/cJSON/cJSON.c ****     return (char*)print(item, false, &global_hooks);
 3499              		.loc 1 1159 19
 3500 001f 488B45E8 		movq	-24(%rbp), %rax
 3501 0023 488D1500 		leaq	global_hooks(%rip), %rdx
 3501      000000
 3502 002a BE000000 		movl	$0, %esi
 3502      00
 3503 002f 4889C7   		movq	%rax, %rdi
 3504 0032 E8000000 		call	print
 3504      00
1160:/home/xingli/share/1205tiny/cJSON/cJSON.c **** }
 3505              		.loc 1 1160 1
 3506 0037 488B4DF8 		movq	-8(%rbp), %rcx
 3507 003b 6448330C 		xorq	%fs:40, %rcx
 3507      25280000 
 3507      00
 3508 0044 7405     		je	.L294
 3509 0046 E8000000 		call	__stack_chk_fail@PLT
 3509      00
 3510              	.L294:
 3511 004b C9       		leave
 3512              	.LCFI77:
 3513              		.cfi_def_cfa 7, 8
 3514 004c C3       		ret
 3515              		.cfi_endproc
 3516              	.LFE31:
 3518              		.section	.text.cJSON_PrintBuffered,"ax",@progbits
 3519              		.globl	cJSON_PrintBuffered
 3521              	cJSON_PrintBuffered:
 3522              	.LFB32:
1161:/home/xingli/share/1205tiny/cJSON/cJSON.c **** 
1162:/home/xingli/share/1205tiny/cJSON/cJSON.c **** CJSON_PUBLIC(char *) cJSON_PrintBuffered(const cJSON *item, int prebuffer, cJSON_bool fmt)
1163:/home/xingli/share/1205tiny/cJSON/cJSON.c **** {
 3523              		.loc 1 1163 1
 3524              		.cfi_startproc
 3525 0000 F30F1EFA 		endbr64
 3526 0004 55       		pushq	%rbp
 3527              	.LCFI78:
 3528              		.cfi_def_cfa_offset 16
 3529              		.cfi_offset 6, -16
 3530 0005 4889E5   		movq	%rsp, %rbp
 3531              	.LCFI79:
 3532              		.cfi_def_cfa_register 6
 3533 0008 4883EC60 		subq	$96, %rsp
 3534 000c 48897DA8 		movq	%rdi, -88(%rbp)
 3535 0010 8975A4   		movl	%esi, -92(%rbp)
 3536 0013 8955A0   		movl	%edx, -96(%rbp)
 3537              		.loc 1 1163 1
 3538 0016 64488B04 		movq	%fs:40, %rax
 3538      25280000 
 3538      00
 3539 001f 488945F8 		movq	%rax, -8(%rbp)
 3540 0023 31C0     		xorl	%eax, %eax
1164:/home/xingli/share/1205tiny/cJSON/cJSON.c ****     printbuffer p = { 0, 0, 0, 0, 0, 0, { 0, 0, 0 } };
 3541              		.loc 1 1164 17
 3542 0025 48C745B0 		movq	$0, -80(%rbp)
GAS LISTING /tmp/ccabgRKQ.s 			page 93


 3542      00000000 
 3543 002d 48C745B8 		movq	$0, -72(%rbp)
 3543      00000000 
 3544 0035 48C745C0 		movq	$0, -64(%rbp)
 3544      00000000 
 3545 003d 48C745C8 		movq	$0, -56(%rbp)
 3545      00000000 
 3546 0045 48C745D0 		movq	$0, -48(%rbp)
 3546      00000000 
 3547 004d 48C745D8 		movq	$0, -40(%rbp)
 3547      00000000 
 3548 0055 48C745E0 		movq	$0, -32(%rbp)
 3548      00000000 
 3549 005d 48C745E8 		movq	$0, -24(%rbp)
 3549      00000000 
1165:/home/xingli/share/1205tiny/cJSON/cJSON.c **** 
1166:/home/xingli/share/1205tiny/cJSON/cJSON.c ****     if (prebuffer < 0)
 3550              		.loc 1 1166 8
 3551 0065 837DA400 		cmpl	$0, -92(%rbp)
 3552 0069 790A     		jns	.L296
1167:/home/xingli/share/1205tiny/cJSON/cJSON.c ****     {
1168:/home/xingli/share/1205tiny/cJSON/cJSON.c ****         return NULL;
 3553              		.loc 1 1168 16
 3554 006b B8000000 		movl	$0, %eax
 3554      00
 3555 0070 E9960000 		jmp	.L300
 3555      00
 3556              	.L296:
1169:/home/xingli/share/1205tiny/cJSON/cJSON.c ****     }
1170:/home/xingli/share/1205tiny/cJSON/cJSON.c **** 
1171:/home/xingli/share/1205tiny/cJSON/cJSON.c ****     p.buffer = (unsigned char*)global_hooks.allocate((size_t)prebuffer);
 3557              		.loc 1 1171 44
 3558 0075 488B1500 		movq	global_hooks(%rip), %rdx
 3558      000000
 3559              		.loc 1 1171 32
 3560 007c 8B45A4   		movl	-92(%rbp), %eax
 3561 007f 4898     		cltq
 3562 0081 4889C7   		movq	%rax, %rdi
 3563 0084 FFD2     		call	*%rdx
 3564              	.LVL18:
 3565              		.loc 1 1171 14
 3566 0086 488945B0 		movq	%rax, -80(%rbp)
1172:/home/xingli/share/1205tiny/cJSON/cJSON.c ****     if (!p.buffer)
 3567              		.loc 1 1172 11
 3568 008a 488B45B0 		movq	-80(%rbp), %rax
 3569              		.loc 1 1172 8
 3570 008e 4885C0   		testq	%rax, %rax
 3571 0091 7507     		jne	.L298
1173:/home/xingli/share/1205tiny/cJSON/cJSON.c ****     {
1174:/home/xingli/share/1205tiny/cJSON/cJSON.c ****         return NULL;
 3572              		.loc 1 1174 16
 3573 0093 B8000000 		movl	$0, %eax
 3573      00
 3574 0098 EB71     		jmp	.L300
 3575              	.L298:
1175:/home/xingli/share/1205tiny/cJSON/cJSON.c ****     }
1176:/home/xingli/share/1205tiny/cJSON/cJSON.c **** 
GAS LISTING /tmp/ccabgRKQ.s 			page 94


1177:/home/xingli/share/1205tiny/cJSON/cJSON.c ****     p.length = (size_t)prebuffer;
 3576              		.loc 1 1177 16
 3577 009a 8B45A4   		movl	-92(%rbp), %eax
 3578 009d 4898     		cltq
 3579              		.loc 1 1177 14
 3580 009f 488945B8 		movq	%rax, -72(%rbp)
1178:/home/xingli/share/1205tiny/cJSON/cJSON.c ****     p.offset = 0;
 3581              		.loc 1 1178 14
 3582 00a3 48C745C0 		movq	$0, -64(%rbp)
 3582      00000000 
1179:/home/xingli/share/1205tiny/cJSON/cJSON.c ****     p.noalloc = false;
 3583              		.loc 1 1179 15
 3584 00ab C745D000 		movl	$0, -48(%rbp)
 3584      000000
1180:/home/xingli/share/1205tiny/cJSON/cJSON.c ****     p.format = fmt;
 3585              		.loc 1 1180 14
 3586 00b2 8B45A0   		movl	-96(%rbp), %eax
 3587 00b5 8945D4   		movl	%eax, -44(%rbp)
1181:/home/xingli/share/1205tiny/cJSON/cJSON.c ****     p.hooks = global_hooks;
 3588              		.loc 1 1181 13
 3589 00b8 488B0500 		movq	global_hooks(%rip), %rax
 3589      000000
 3590 00bf 488B1500 		movq	8+global_hooks(%rip), %rdx
 3590      000000
 3591 00c6 488945D8 		movq	%rax, -40(%rbp)
 3592 00ca 488955E0 		movq	%rdx, -32(%rbp)
 3593 00ce 488B0500 		movq	16+global_hooks(%rip), %rax
 3593      000000
 3594 00d5 488945E8 		movq	%rax, -24(%rbp)
1182:/home/xingli/share/1205tiny/cJSON/cJSON.c **** 
1183:/home/xingli/share/1205tiny/cJSON/cJSON.c ****     if (!print_value(item, &p))
 3595              		.loc 1 1183 10
 3596 00d9 488D55B0 		leaq	-80(%rbp), %rdx
 3597 00dd 488B45A8 		movq	-88(%rbp), %rax
 3598 00e1 4889D6   		movq	%rdx, %rsi
 3599 00e4 4889C7   		movq	%rax, %rdi
 3600 00e7 E8000000 		call	print_value
 3600      00
 3601              		.loc 1 1183 8
 3602 00ec 85C0     		testl	%eax, %eax
 3603 00ee 7517     		jne	.L299
1184:/home/xingli/share/1205tiny/cJSON/cJSON.c ****     {
1185:/home/xingli/share/1205tiny/cJSON/cJSON.c ****         global_hooks.deallocate(p.buffer);
 3604              		.loc 1 1185 21
 3605 00f0 488B1500 		movq	8+global_hooks(%rip), %rdx
 3605      000000
 3606              		.loc 1 1185 34
 3607 00f7 488B45B0 		movq	-80(%rbp), %rax
 3608              		.loc 1 1185 9
 3609 00fb 4889C7   		movq	%rax, %rdi
 3610 00fe FFD2     		call	*%rdx
 3611              	.LVL19:
1186:/home/xingli/share/1205tiny/cJSON/cJSON.c ****         return NULL;
 3612              		.loc 1 1186 16
 3613 0100 B8000000 		movl	$0, %eax
 3613      00
 3614 0105 EB04     		jmp	.L300
GAS LISTING /tmp/ccabgRKQ.s 			page 95


 3615              	.L299:
1187:/home/xingli/share/1205tiny/cJSON/cJSON.c ****     }
1188:/home/xingli/share/1205tiny/cJSON/cJSON.c **** 
1189:/home/xingli/share/1205tiny/cJSON/cJSON.c ****     return (char*)p.buffer;
 3616              		.loc 1 1189 12
 3617 0107 488B45B0 		movq	-80(%rbp), %rax
 3618              	.L300:
1190:/home/xingli/share/1205tiny/cJSON/cJSON.c **** }
 3619              		.loc 1 1190 1 discriminator 1
 3620 010b 488B4DF8 		movq	-8(%rbp), %rcx
 3621 010f 6448330C 		xorq	%fs:40, %rcx
 3621      25280000 
 3621      00
 3622 0118 7405     		je	.L301
 3623              		.loc 1 1190 1 is_stmt 0
 3624 011a E8000000 		call	__stack_chk_fail@PLT
 3624      00
 3625              	.L301:
 3626 011f C9       		leave
 3627              	.LCFI80:
 3628              		.cfi_def_cfa 7, 8
 3629 0120 C3       		ret
 3630              		.cfi_endproc
 3631              	.LFE32:
 3633              		.section	.text.cJSON_PrintPreallocated,"ax",@progbits
 3634              		.globl	cJSON_PrintPreallocated
 3636              	cJSON_PrintPreallocated:
 3637              	.LFB33:
1191:/home/xingli/share/1205tiny/cJSON/cJSON.c **** 
1192:/home/xingli/share/1205tiny/cJSON/cJSON.c **** CJSON_PUBLIC(cJSON_bool) cJSON_PrintPreallocated(cJSON *item, char *buf, const int len, const cJSON
1193:/home/xingli/share/1205tiny/cJSON/cJSON.c **** {
 3638              		.loc 1 1193 1 is_stmt 1
 3639              		.cfi_startproc
 3640 0000 F30F1EFA 		endbr64
 3641 0004 55       		pushq	%rbp
 3642              	.LCFI81:
 3643              		.cfi_def_cfa_offset 16
 3644              		.cfi_offset 6, -16
 3645 0005 4889E5   		movq	%rsp, %rbp
 3646              	.LCFI82:
 3647              		.cfi_def_cfa_register 6
 3648 0008 4883EC70 		subq	$112, %rsp
 3649 000c 48897DA8 		movq	%rdi, -88(%rbp)
 3650 0010 488975A0 		movq	%rsi, -96(%rbp)
 3651 0014 89559C   		movl	%edx, -100(%rbp)
 3652 0017 894D98   		movl	%ecx, -104(%rbp)
 3653              		.loc 1 1193 1
 3654 001a 64488B04 		movq	%fs:40, %rax
 3654      25280000 
 3654      00
 3655 0023 488945F8 		movq	%rax, -8(%rbp)
 3656 0027 31C0     		xorl	%eax, %eax
1194:/home/xingli/share/1205tiny/cJSON/cJSON.c ****     printbuffer p = { 0, 0, 0, 0, 0, 0, { 0, 0, 0 } };
 3657              		.loc 1 1194 17
 3658 0029 48C745B0 		movq	$0, -80(%rbp)
 3658      00000000 
 3659 0031 48C745B8 		movq	$0, -72(%rbp)
GAS LISTING /tmp/ccabgRKQ.s 			page 96


 3659      00000000 
 3660 0039 48C745C0 		movq	$0, -64(%rbp)
 3660      00000000 
 3661 0041 48C745C8 		movq	$0, -56(%rbp)
 3661      00000000 
 3662 0049 48C745D0 		movq	$0, -48(%rbp)
 3662      00000000 
 3663 0051 48C745D8 		movq	$0, -40(%rbp)
 3663      00000000 
 3664 0059 48C745E0 		movq	$0, -32(%rbp)
 3664      00000000 
 3665 0061 48C745E8 		movq	$0, -24(%rbp)
 3665      00000000 
1195:/home/xingli/share/1205tiny/cJSON/cJSON.c **** 
1196:/home/xingli/share/1205tiny/cJSON/cJSON.c ****     if ((len < 0) || (buf == NULL))
 3666              		.loc 1 1196 8
 3667 0069 837D9C00 		cmpl	$0, -100(%rbp)
 3668 006d 7807     		js	.L303
 3669              		.loc 1 1196 19 discriminator 1
 3670 006f 48837DA0 		cmpq	$0, -96(%rbp)
 3670      00
 3671 0074 7507     		jne	.L304
 3672              	.L303:
1197:/home/xingli/share/1205tiny/cJSON/cJSON.c ****     {
1198:/home/xingli/share/1205tiny/cJSON/cJSON.c ****         return false;
 3673              		.loc 1 1198 16
 3674 0076 B8000000 		movl	$0, %eax
 3674      00
 3675 007b EB5A     		jmp	.L306
 3676              	.L304:
1199:/home/xingli/share/1205tiny/cJSON/cJSON.c ****     }
1200:/home/xingli/share/1205tiny/cJSON/cJSON.c **** 
1201:/home/xingli/share/1205tiny/cJSON/cJSON.c ****     p.buffer = (unsigned char*)buf;
 3677              		.loc 1 1201 14
 3678 007d 488B45A0 		movq	-96(%rbp), %rax
 3679 0081 488945B0 		movq	%rax, -80(%rbp)
1202:/home/xingli/share/1205tiny/cJSON/cJSON.c ****     p.length = (size_t)len;
 3680              		.loc 1 1202 16
 3681 0085 8B459C   		movl	-100(%rbp), %eax
 3682 0088 4898     		cltq
 3683              		.loc 1 1202 14
 3684 008a 488945B8 		movq	%rax, -72(%rbp)
1203:/home/xingli/share/1205tiny/cJSON/cJSON.c ****     p.offset = 0;
 3685              		.loc 1 1203 14
 3686 008e 48C745C0 		movq	$0, -64(%rbp)
 3686      00000000 
1204:/home/xingli/share/1205tiny/cJSON/cJSON.c ****     p.noalloc = true;
 3687              		.loc 1 1204 15
 3688 0096 C745D001 		movl	$1, -48(%rbp)
 3688      000000
1205:/home/xingli/share/1205tiny/cJSON/cJSON.c ****     p.format = fmt;
 3689              		.loc 1 1205 14
 3690 009d 8B4598   		movl	-104(%rbp), %eax
 3691 00a0 8945D4   		movl	%eax, -44(%rbp)
1206:/home/xingli/share/1205tiny/cJSON/cJSON.c ****     p.hooks = global_hooks;
 3692              		.loc 1 1206 13
 3693 00a3 488B0500 		movq	global_hooks(%rip), %rax
GAS LISTING /tmp/ccabgRKQ.s 			page 97


 3693      000000
 3694 00aa 488B1500 		movq	8+global_hooks(%rip), %rdx
 3694      000000
 3695 00b1 488945D8 		movq	%rax, -40(%rbp)
 3696 00b5 488955E0 		movq	%rdx, -32(%rbp)
 3697 00b9 488B0500 		movq	16+global_hooks(%rip), %rax
 3697      000000
 3698 00c0 488945E8 		movq	%rax, -24(%rbp)
1207:/home/xingli/share/1205tiny/cJSON/cJSON.c **** 
1208:/home/xingli/share/1205tiny/cJSON/cJSON.c ****     return print_value(item, &p);
 3699              		.loc 1 1208 12
 3700 00c4 488D55B0 		leaq	-80(%rbp), %rdx
 3701 00c8 488B45A8 		movq	-88(%rbp), %rax
 3702 00cc 4889D6   		movq	%rdx, %rsi
 3703 00cf 4889C7   		movq	%rax, %rdi
 3704 00d2 E8000000 		call	print_value
 3704      00
 3705              	.L306:
1209:/home/xingli/share/1205tiny/cJSON/cJSON.c **** }
 3706              		.loc 1 1209 1 discriminator 1
 3707 00d7 488B4DF8 		movq	-8(%rbp), %rcx
 3708 00db 6448330C 		xorq	%fs:40, %rcx
 3708      25280000 
 3708      00
 3709 00e4 7405     		je	.L307
 3710              		.loc 1 1209 1 is_stmt 0
 3711 00e6 E8000000 		call	__stack_chk_fail@PLT
 3711      00
 3712              	.L307:
 3713 00eb C9       		leave
 3714              	.LCFI83:
 3715              		.cfi_def_cfa 7, 8
 3716 00ec C3       		ret
 3717              		.cfi_endproc
 3718              	.LFE33:
 3720              		.section	.rodata
 3721              	.LC10:
 3722 002a 66616C73 		.string	"false"
 3722      6500
 3723              	.LC11:
