ARM GAS  /tmp/ccwGjgVI.s 			page 1


   1              		.cpu cortex-m4
   2              		.eabi_attribute 27, 1
   3              		.eabi_attribute 28, 1
   4              		.eabi_attribute 20, 1
   5              		.eabi_attribute 21, 1
   6              		.eabi_attribute 23, 3
   7              		.eabi_attribute 24, 1
   8              		.eabi_attribute 25, 1
   9              		.eabi_attribute 26, 1
  10              		.eabi_attribute 30, 6
  11              		.eabi_attribute 34, 1
  12              		.eabi_attribute 18, 4
  13              		.file	"stm32l4xx_hal_pwr_ex.c"
  14              		.text
  15              	.Ltext0:
  16              		.cfi_sections	.debug_frame
  17              		.section	.text.HAL_PWREx_GetVoltageRange,"ax",%progbits
  18              		.align	1
  19              		.global	HAL_PWREx_GetVoltageRange
  20              		.arch armv7e-m
  21              		.syntax unified
  22              		.thumb
  23              		.thumb_func
  24              		.fpu fpv4-sp-d16
  26              	HAL_PWREx_GetVoltageRange:
  27              	.LFB126:
  28              		.file 1 "/home/fanxinhao/Work/LiteOS_Lab/drivers/third_party/ST/STM32L4xx_HAL_Driver/Src/stm32l4xx
   1:/home/fanxinhao/Work/LiteOS_Lab/drivers/third_party/ST/STM32L4xx_HAL_Driver/Src/stm32l4xx_hal_pwr_ex.c **** /**
   2:/home/fanxinhao/Work/LiteOS_Lab/drivers/third_party/ST/STM32L4xx_HAL_Driver/Src/stm32l4xx_hal_pwr_ex.c ****   ******************************************************************************
   3:/home/fanxinhao/Work/LiteOS_Lab/drivers/third_party/ST/STM32L4xx_HAL_Driver/Src/stm32l4xx_hal_pwr_ex.c ****   * @file    stm32l4xx_hal_pwr_ex.c
   4:/home/fanxinhao/Work/LiteOS_Lab/drivers/third_party/ST/STM32L4xx_HAL_Driver/Src/stm32l4xx_hal_pwr_ex.c ****   * @author  MCD Application Team
   5:/home/fanxinhao/Work/LiteOS_Lab/drivers/third_party/ST/STM32L4xx_HAL_Driver/Src/stm32l4xx_hal_pwr_ex.c ****   * @brief   Extended PWR HAL module driver.
   6:/home/fanxinhao/Work/LiteOS_Lab/drivers/third_party/ST/STM32L4xx_HAL_Driver/Src/stm32l4xx_hal_pwr_ex.c ****   *          This file provides firmware functions to manage the following
   7:/home/fanxinhao/Work/LiteOS_Lab/drivers/third_party/ST/STM32L4xx_HAL_Driver/Src/stm32l4xx_hal_pwr_ex.c ****   *          functionalities of the Power Controller (PWR) peripheral:
   8:/home/fanxinhao/Work/LiteOS_Lab/drivers/third_party/ST/STM32L4xx_HAL_Driver/Src/stm32l4xx_hal_pwr_ex.c ****   *           + Extended Initialization and de-initialization functions
   9:/home/fanxinhao/Work/LiteOS_Lab/drivers/third_party/ST/STM32L4xx_HAL_Driver/Src/stm32l4xx_hal_pwr_ex.c ****   *           + Extended Peripheral Control functions
  10:/home/fanxinhao/Work/LiteOS_Lab/drivers/third_party/ST/STM32L4xx_HAL_Driver/Src/stm32l4xx_hal_pwr_ex.c ****   *         
  11:/home/fanxinhao/Work/LiteOS_Lab/drivers/third_party/ST/STM32L4xx_HAL_Driver/Src/stm32l4xx_hal_pwr_ex.c ****   ******************************************************************************
  12:/home/fanxinhao/Work/LiteOS_Lab/drivers/third_party/ST/STM32L4xx_HAL_Driver/Src/stm32l4xx_hal_pwr_ex.c ****   * @attention
  13:/home/fanxinhao/Work/LiteOS_Lab/drivers/third_party/ST/STM32L4xx_HAL_Driver/Src/stm32l4xx_hal_pwr_ex.c ****   *
  14:/home/fanxinhao/Work/LiteOS_Lab/drivers/third_party/ST/STM32L4xx_HAL_Driver/Src/stm32l4xx_hal_pwr_ex.c ****   * <h2><center>&copy; COPYRIGHT(c) 2017 STMicroelectronics</center></h2>
  15:/home/fanxinhao/Work/LiteOS_Lab/drivers/third_party/ST/STM32L4xx_HAL_Driver/Src/stm32l4xx_hal_pwr_ex.c ****   *
  16:/home/fanxinhao/Work/LiteOS_Lab/drivers/third_party/ST/STM32L4xx_HAL_Driver/Src/stm32l4xx_hal_pwr_ex.c ****   * Redistribution and use in source and binary forms, with or without modification,
  17:/home/fanxinhao/Work/LiteOS_Lab/drivers/third_party/ST/STM32L4xx_HAL_Driver/Src/stm32l4xx_hal_pwr_ex.c ****   * are permitted provided that the following conditions are met:
  18:/home/fanxinhao/Work/LiteOS_Lab/drivers/third_party/ST/STM32L4xx_HAL_Driver/Src/stm32l4xx_hal_pwr_ex.c ****   *   1. Redistributions of source code must retain the above copyright notice,
  19:/home/fanxinhao/Work/LiteOS_Lab/drivers/third_party/ST/STM32L4xx_HAL_Driver/Src/stm32l4xx_hal_pwr_ex.c ****   *      this list of conditions and the following disclaimer.
  20:/home/fanxinhao/Work/LiteOS_Lab/drivers/third_party/ST/STM32L4xx_HAL_Driver/Src/stm32l4xx_hal_pwr_ex.c ****   *   2. Redistributions in binary form must reproduce the above copyright notice,
  21:/home/fanxinhao/Work/LiteOS_Lab/drivers/third_party/ST/STM32L4xx_HAL_Driver/Src/stm32l4xx_hal_pwr_ex.c ****   *      this list of conditions and the following disclaimer in the documentation
  22:/home/fanxinhao/Work/LiteOS_Lab/drivers/third_party/ST/STM32L4xx_HAL_Driver/Src/stm32l4xx_hal_pwr_ex.c ****   *      and/or other materials provided with the distribution.
  23:/home/fanxinhao/Work/LiteOS_Lab/drivers/third_party/ST/STM32L4xx_HAL_Driver/Src/stm32l4xx_hal_pwr_ex.c ****   *   3. Neither the name of STMicroelectronics nor the names of its contributors
  24:/home/fanxinhao/Work/LiteOS_Lab/drivers/third_party/ST/STM32L4xx_HAL_Driver/Src/stm32l4xx_hal_pwr_ex.c ****   *      may be used to endorse or promote products derived from this software
  25:/home/fanxinhao/Work/LiteOS_Lab/drivers/third_party/ST/STM32L4xx_HAL_Driver/Src/stm32l4xx_hal_pwr_ex.c ****   *      without specific prior written permission.
  26:/home/fanxinhao/Work/LiteOS_Lab/drivers/third_party/ST/STM32L4xx_HAL_Driver/Src/stm32l4xx_hal_pwr_ex.c ****   *
  27:/home/fanxinhao/Work/LiteOS_Lab/drivers/third_party/ST/STM32L4xx_HAL_Driver/Src/stm32l4xx_hal_pwr_ex.c ****   * THIS SOFTWARE IS PROVIDED BY THE COPYRIGHT HOLDERS AND CONTRIBUTORS "AS IS"
  28:/home/fanxinhao/Work/LiteOS_Lab/drivers/third_party/ST/STM32L4xx_HAL_Driver/Src/stm32l4xx_hal_pwr_ex.c ****   * AND ANY EXPRESS OR IMPLIED WARRANTIES, INCLUDING, BUT NOT LIMITED TO, THE
  29:/home/fanxinhao/Work/LiteOS_Lab/drivers/third_party/ST/STM32L4xx_HAL_Driver/Src/stm32l4xx_hal_pwr_ex.c ****   * IMPLIED WARRANTIES OF MERCHANTABILITY AND FITNESS FOR A PARTICULAR PURPOSE ARE
  30:/home/fanxinhao/Work/LiteOS_Lab/drivers/third_party/ST/STM32L4xx_HAL_Driver/Src/stm32l4xx_hal_pwr_ex.c ****   * DISCLAIMED. IN NO EVENT SHALL THE COPYRIGHT HOLDER OR CONTRIBUTORS BE LIABLE
ARM GAS  /tmp/ccwGjgVI.s 			page 2


  31:/home/fanxinhao/Work/LiteOS_Lab/drivers/third_party/ST/STM32L4xx_HAL_Driver/Src/stm32l4xx_hal_pwr_ex.c ****   * FOR ANY DIRECT, INDIRECT, INCIDENTAL, SPECIAL, EXEMPLARY, OR CONSEQUENTIAL
  32:/home/fanxinhao/Work/LiteOS_Lab/drivers/third_party/ST/STM32L4xx_HAL_Driver/Src/stm32l4xx_hal_pwr_ex.c ****   * DAMAGES (INCLUDING, BUT NOT LIMITED TO, PROCUREMENT OF SUBSTITUTE GOODS OR
  33:/home/fanxinhao/Work/LiteOS_Lab/drivers/third_party/ST/STM32L4xx_HAL_Driver/Src/stm32l4xx_hal_pwr_ex.c ****   * SERVICES; LOSS OF USE, DATA, OR PROFITS; OR BUSINESS INTERRUPTION) HOWEVER
  34:/home/fanxinhao/Work/LiteOS_Lab/drivers/third_party/ST/STM32L4xx_HAL_Driver/Src/stm32l4xx_hal_pwr_ex.c ****   * CAUSED AND ON ANY THEORY OF LIABILITY, WHETHER IN CONTRACT, STRICT LIABILITY,
  35:/home/fanxinhao/Work/LiteOS_Lab/drivers/third_party/ST/STM32L4xx_HAL_Driver/Src/stm32l4xx_hal_pwr_ex.c ****   * OR TORT (INCLUDING NEGLIGENCE OR OTHERWISE) ARISING IN ANY WAY OUT OF THE USE
  36:/home/fanxinhao/Work/LiteOS_Lab/drivers/third_party/ST/STM32L4xx_HAL_Driver/Src/stm32l4xx_hal_pwr_ex.c ****   * OF THIS SOFTWARE, EVEN IF ADVISED OF THE POSSIBILITY OF SUCH DAMAGE.
  37:/home/fanxinhao/Work/LiteOS_Lab/drivers/third_party/ST/STM32L4xx_HAL_Driver/Src/stm32l4xx_hal_pwr_ex.c ****   *
  38:/home/fanxinhao/Work/LiteOS_Lab/drivers/third_party/ST/STM32L4xx_HAL_Driver/Src/stm32l4xx_hal_pwr_ex.c ****   ******************************************************************************
  39:/home/fanxinhao/Work/LiteOS_Lab/drivers/third_party/ST/STM32L4xx_HAL_Driver/Src/stm32l4xx_hal_pwr_ex.c ****   */
  40:/home/fanxinhao/Work/LiteOS_Lab/drivers/third_party/ST/STM32L4xx_HAL_Driver/Src/stm32l4xx_hal_pwr_ex.c **** 
  41:/home/fanxinhao/Work/LiteOS_Lab/drivers/third_party/ST/STM32L4xx_HAL_Driver/Src/stm32l4xx_hal_pwr_ex.c **** /* Includes ------------------------------------------------------------------*/
  42:/home/fanxinhao/Work/LiteOS_Lab/drivers/third_party/ST/STM32L4xx_HAL_Driver/Src/stm32l4xx_hal_pwr_ex.c **** #include "stm32l4xx_hal.h"
  43:/home/fanxinhao/Work/LiteOS_Lab/drivers/third_party/ST/STM32L4xx_HAL_Driver/Src/stm32l4xx_hal_pwr_ex.c **** 
  44:/home/fanxinhao/Work/LiteOS_Lab/drivers/third_party/ST/STM32L4xx_HAL_Driver/Src/stm32l4xx_hal_pwr_ex.c **** /** @addtogroup STM32L4xx_HAL_Driver
  45:/home/fanxinhao/Work/LiteOS_Lab/drivers/third_party/ST/STM32L4xx_HAL_Driver/Src/stm32l4xx_hal_pwr_ex.c ****   * @{
  46:/home/fanxinhao/Work/LiteOS_Lab/drivers/third_party/ST/STM32L4xx_HAL_Driver/Src/stm32l4xx_hal_pwr_ex.c ****   */
  47:/home/fanxinhao/Work/LiteOS_Lab/drivers/third_party/ST/STM32L4xx_HAL_Driver/Src/stm32l4xx_hal_pwr_ex.c **** 
  48:/home/fanxinhao/Work/LiteOS_Lab/drivers/third_party/ST/STM32L4xx_HAL_Driver/Src/stm32l4xx_hal_pwr_ex.c **** /** @defgroup PWREx PWREx
  49:/home/fanxinhao/Work/LiteOS_Lab/drivers/third_party/ST/STM32L4xx_HAL_Driver/Src/stm32l4xx_hal_pwr_ex.c ****   * @brief PWR Extended HAL module driver
  50:/home/fanxinhao/Work/LiteOS_Lab/drivers/third_party/ST/STM32L4xx_HAL_Driver/Src/stm32l4xx_hal_pwr_ex.c ****   * @{
  51:/home/fanxinhao/Work/LiteOS_Lab/drivers/third_party/ST/STM32L4xx_HAL_Driver/Src/stm32l4xx_hal_pwr_ex.c ****   */
  52:/home/fanxinhao/Work/LiteOS_Lab/drivers/third_party/ST/STM32L4xx_HAL_Driver/Src/stm32l4xx_hal_pwr_ex.c **** 
  53:/home/fanxinhao/Work/LiteOS_Lab/drivers/third_party/ST/STM32L4xx_HAL_Driver/Src/stm32l4xx_hal_pwr_ex.c **** #ifdef HAL_PWR_MODULE_ENABLED
  54:/home/fanxinhao/Work/LiteOS_Lab/drivers/third_party/ST/STM32L4xx_HAL_Driver/Src/stm32l4xx_hal_pwr_ex.c **** 
  55:/home/fanxinhao/Work/LiteOS_Lab/drivers/third_party/ST/STM32L4xx_HAL_Driver/Src/stm32l4xx_hal_pwr_ex.c **** /* Private typedef -----------------------------------------------------------*/
  56:/home/fanxinhao/Work/LiteOS_Lab/drivers/third_party/ST/STM32L4xx_HAL_Driver/Src/stm32l4xx_hal_pwr_ex.c **** /* Private define ------------------------------------------------------------*/
  57:/home/fanxinhao/Work/LiteOS_Lab/drivers/third_party/ST/STM32L4xx_HAL_Driver/Src/stm32l4xx_hal_pwr_ex.c **** 
  58:/home/fanxinhao/Work/LiteOS_Lab/drivers/third_party/ST/STM32L4xx_HAL_Driver/Src/stm32l4xx_hal_pwr_ex.c **** #if defined (STM32L431xx) || defined (STM32L432xx) || defined (STM32L433xx) || defined (STM32L442xx
  59:/home/fanxinhao/Work/LiteOS_Lab/drivers/third_party/ST/STM32L4xx_HAL_Driver/Src/stm32l4xx_hal_pwr_ex.c **** #define PWR_PORTH_AVAILABLE_PINS   ((uint32_t)0x0000000B) /* PH0/PH1/PH3 */
  60:/home/fanxinhao/Work/LiteOS_Lab/drivers/third_party/ST/STM32L4xx_HAL_Driver/Src/stm32l4xx_hal_pwr_ex.c **** #elif defined (STM32L451xx) || defined (STM32L452xx) || defined (STM32L462xx)
  61:/home/fanxinhao/Work/LiteOS_Lab/drivers/third_party/ST/STM32L4xx_HAL_Driver/Src/stm32l4xx_hal_pwr_ex.c **** #define PWR_PORTH_AVAILABLE_PINS   ((uint32_t)0x0000000B) /* PH0/PH1/PH3 */
  62:/home/fanxinhao/Work/LiteOS_Lab/drivers/third_party/ST/STM32L4xx_HAL_Driver/Src/stm32l4xx_hal_pwr_ex.c **** #elif defined (STM32L471xx) || defined (STM32L475xx) || defined (STM32L476xx) || defined (STM32L485
  63:/home/fanxinhao/Work/LiteOS_Lab/drivers/third_party/ST/STM32L4xx_HAL_Driver/Src/stm32l4xx_hal_pwr_ex.c **** #define PWR_PORTH_AVAILABLE_PINS   ((uint32_t)0x00000003) /* PH0/PH1 */
  64:/home/fanxinhao/Work/LiteOS_Lab/drivers/third_party/ST/STM32L4xx_HAL_Driver/Src/stm32l4xx_hal_pwr_ex.c **** #elif defined (STM32L496xx) || defined (STM32L4A6xx) || defined (STM32L4R5xx) || defined (STM32L4R7
  65:/home/fanxinhao/Work/LiteOS_Lab/drivers/third_party/ST/STM32L4xx_HAL_Driver/Src/stm32l4xx_hal_pwr_ex.c **** #define PWR_PORTH_AVAILABLE_PINS   ((uint32_t)0x0000FFFF) /* PH0..PH15 */
  66:/home/fanxinhao/Work/LiteOS_Lab/drivers/third_party/ST/STM32L4xx_HAL_Driver/Src/stm32l4xx_hal_pwr_ex.c **** #endif
  67:/home/fanxinhao/Work/LiteOS_Lab/drivers/third_party/ST/STM32L4xx_HAL_Driver/Src/stm32l4xx_hal_pwr_ex.c **** 
  68:/home/fanxinhao/Work/LiteOS_Lab/drivers/third_party/ST/STM32L4xx_HAL_Driver/Src/stm32l4xx_hal_pwr_ex.c **** #if defined (STM32L496xx) || defined (STM32L4A6xx) || defined (STM32L4R5xx) || defined (STM32L4R7xx
  69:/home/fanxinhao/Work/LiteOS_Lab/drivers/third_party/ST/STM32L4xx_HAL_Driver/Src/stm32l4xx_hal_pwr_ex.c **** #define PWR_PORTI_AVAILABLE_PINS   ((uint32_t)0x00000FFF) /* PI0..PI11 */
  70:/home/fanxinhao/Work/LiteOS_Lab/drivers/third_party/ST/STM32L4xx_HAL_Driver/Src/stm32l4xx_hal_pwr_ex.c **** #endif
  71:/home/fanxinhao/Work/LiteOS_Lab/drivers/third_party/ST/STM32L4xx_HAL_Driver/Src/stm32l4xx_hal_pwr_ex.c **** 
  72:/home/fanxinhao/Work/LiteOS_Lab/drivers/third_party/ST/STM32L4xx_HAL_Driver/Src/stm32l4xx_hal_pwr_ex.c **** /** @defgroup PWR_Extended_Private_Defines PWR Extended Private Defines
  73:/home/fanxinhao/Work/LiteOS_Lab/drivers/third_party/ST/STM32L4xx_HAL_Driver/Src/stm32l4xx_hal_pwr_ex.c ****   * @{
  74:/home/fanxinhao/Work/LiteOS_Lab/drivers/third_party/ST/STM32L4xx_HAL_Driver/Src/stm32l4xx_hal_pwr_ex.c ****   */
  75:/home/fanxinhao/Work/LiteOS_Lab/drivers/third_party/ST/STM32L4xx_HAL_Driver/Src/stm32l4xx_hal_pwr_ex.c ****   
  76:/home/fanxinhao/Work/LiteOS_Lab/drivers/third_party/ST/STM32L4xx_HAL_Driver/Src/stm32l4xx_hal_pwr_ex.c **** /** @defgroup PWREx_PVM_Mode_Mask PWR PVM Mode Mask
  77:/home/fanxinhao/Work/LiteOS_Lab/drivers/third_party/ST/STM32L4xx_HAL_Driver/Src/stm32l4xx_hal_pwr_ex.c ****   * @{
  78:/home/fanxinhao/Work/LiteOS_Lab/drivers/third_party/ST/STM32L4xx_HAL_Driver/Src/stm32l4xx_hal_pwr_ex.c ****   */ 
  79:/home/fanxinhao/Work/LiteOS_Lab/drivers/third_party/ST/STM32L4xx_HAL_Driver/Src/stm32l4xx_hal_pwr_ex.c **** #define PVM_MODE_IT               ((uint32_t)0x00010000)  /*!< Mask for interruption yielded by PVM
  80:/home/fanxinhao/Work/LiteOS_Lab/drivers/third_party/ST/STM32L4xx_HAL_Driver/Src/stm32l4xx_hal_pwr_ex.c **** #define PVM_MODE_EVT              ((uint32_t)0x00020000)  /*!< Mask for event yielded by PVM thresh
  81:/home/fanxinhao/Work/LiteOS_Lab/drivers/third_party/ST/STM32L4xx_HAL_Driver/Src/stm32l4xx_hal_pwr_ex.c **** #define PVM_RISING_EDGE           ((uint32_t)0x00000001)  /*!< Mask for rising edge set as PVM trig
  82:/home/fanxinhao/Work/LiteOS_Lab/drivers/third_party/ST/STM32L4xx_HAL_Driver/Src/stm32l4xx_hal_pwr_ex.c **** #define PVM_FALLING_EDGE          ((uint32_t)0x00000002)  /*!< Mask for falling edge set as PVM tri
  83:/home/fanxinhao/Work/LiteOS_Lab/drivers/third_party/ST/STM32L4xx_HAL_Driver/Src/stm32l4xx_hal_pwr_ex.c **** /**
  84:/home/fanxinhao/Work/LiteOS_Lab/drivers/third_party/ST/STM32L4xx_HAL_Driver/Src/stm32l4xx_hal_pwr_ex.c ****   * @}
  85:/home/fanxinhao/Work/LiteOS_Lab/drivers/third_party/ST/STM32L4xx_HAL_Driver/Src/stm32l4xx_hal_pwr_ex.c ****   */
  86:/home/fanxinhao/Work/LiteOS_Lab/drivers/third_party/ST/STM32L4xx_HAL_Driver/Src/stm32l4xx_hal_pwr_ex.c ****   
  87:/home/fanxinhao/Work/LiteOS_Lab/drivers/third_party/ST/STM32L4xx_HAL_Driver/Src/stm32l4xx_hal_pwr_ex.c **** /** @defgroup PWREx_TimeOut_Value PWR Extended Flag Setting Time Out Value
ARM GAS  /tmp/ccwGjgVI.s 			page 3


  88:/home/fanxinhao/Work/LiteOS_Lab/drivers/third_party/ST/STM32L4xx_HAL_Driver/Src/stm32l4xx_hal_pwr_ex.c ****   * @{
  89:/home/fanxinhao/Work/LiteOS_Lab/drivers/third_party/ST/STM32L4xx_HAL_Driver/Src/stm32l4xx_hal_pwr_ex.c ****   */ 
  90:/home/fanxinhao/Work/LiteOS_Lab/drivers/third_party/ST/STM32L4xx_HAL_Driver/Src/stm32l4xx_hal_pwr_ex.c **** #define PWR_FLAG_SETTING_DELAY_US                      50   /*!< Time out value for REGLPF and VOSF
  91:/home/fanxinhao/Work/LiteOS_Lab/drivers/third_party/ST/STM32L4xx_HAL_Driver/Src/stm32l4xx_hal_pwr_ex.c **** /**
  92:/home/fanxinhao/Work/LiteOS_Lab/drivers/third_party/ST/STM32L4xx_HAL_Driver/Src/stm32l4xx_hal_pwr_ex.c ****   * @}
  93:/home/fanxinhao/Work/LiteOS_Lab/drivers/third_party/ST/STM32L4xx_HAL_Driver/Src/stm32l4xx_hal_pwr_ex.c ****   */
  94:/home/fanxinhao/Work/LiteOS_Lab/drivers/third_party/ST/STM32L4xx_HAL_Driver/Src/stm32l4xx_hal_pwr_ex.c ****     
  95:/home/fanxinhao/Work/LiteOS_Lab/drivers/third_party/ST/STM32L4xx_HAL_Driver/Src/stm32l4xx_hal_pwr_ex.c ****   
  96:/home/fanxinhao/Work/LiteOS_Lab/drivers/third_party/ST/STM32L4xx_HAL_Driver/Src/stm32l4xx_hal_pwr_ex.c **** 
  97:/home/fanxinhao/Work/LiteOS_Lab/drivers/third_party/ST/STM32L4xx_HAL_Driver/Src/stm32l4xx_hal_pwr_ex.c **** /**
  98:/home/fanxinhao/Work/LiteOS_Lab/drivers/third_party/ST/STM32L4xx_HAL_Driver/Src/stm32l4xx_hal_pwr_ex.c ****   * @}
  99:/home/fanxinhao/Work/LiteOS_Lab/drivers/third_party/ST/STM32L4xx_HAL_Driver/Src/stm32l4xx_hal_pwr_ex.c ****   */
 100:/home/fanxinhao/Work/LiteOS_Lab/drivers/third_party/ST/STM32L4xx_HAL_Driver/Src/stm32l4xx_hal_pwr_ex.c **** 
 101:/home/fanxinhao/Work/LiteOS_Lab/drivers/third_party/ST/STM32L4xx_HAL_Driver/Src/stm32l4xx_hal_pwr_ex.c **** 
 102:/home/fanxinhao/Work/LiteOS_Lab/drivers/third_party/ST/STM32L4xx_HAL_Driver/Src/stm32l4xx_hal_pwr_ex.c **** 
 103:/home/fanxinhao/Work/LiteOS_Lab/drivers/third_party/ST/STM32L4xx_HAL_Driver/Src/stm32l4xx_hal_pwr_ex.c **** /* Private macro -------------------------------------------------------------*/
 104:/home/fanxinhao/Work/LiteOS_Lab/drivers/third_party/ST/STM32L4xx_HAL_Driver/Src/stm32l4xx_hal_pwr_ex.c **** /* Private variables ---------------------------------------------------------*/
 105:/home/fanxinhao/Work/LiteOS_Lab/drivers/third_party/ST/STM32L4xx_HAL_Driver/Src/stm32l4xx_hal_pwr_ex.c **** /* Private function prototypes -----------------------------------------------*/
 106:/home/fanxinhao/Work/LiteOS_Lab/drivers/third_party/ST/STM32L4xx_HAL_Driver/Src/stm32l4xx_hal_pwr_ex.c **** /* Exported functions --------------------------------------------------------*/
 107:/home/fanxinhao/Work/LiteOS_Lab/drivers/third_party/ST/STM32L4xx_HAL_Driver/Src/stm32l4xx_hal_pwr_ex.c ****   
 108:/home/fanxinhao/Work/LiteOS_Lab/drivers/third_party/ST/STM32L4xx_HAL_Driver/Src/stm32l4xx_hal_pwr_ex.c **** /** @defgroup PWREx_Exported_Functions PWR Extended Exported Functions
 109:/home/fanxinhao/Work/LiteOS_Lab/drivers/third_party/ST/STM32L4xx_HAL_Driver/Src/stm32l4xx_hal_pwr_ex.c ****   * @{
 110:/home/fanxinhao/Work/LiteOS_Lab/drivers/third_party/ST/STM32L4xx_HAL_Driver/Src/stm32l4xx_hal_pwr_ex.c ****   */
 111:/home/fanxinhao/Work/LiteOS_Lab/drivers/third_party/ST/STM32L4xx_HAL_Driver/Src/stm32l4xx_hal_pwr_ex.c **** 
 112:/home/fanxinhao/Work/LiteOS_Lab/drivers/third_party/ST/STM32L4xx_HAL_Driver/Src/stm32l4xx_hal_pwr_ex.c **** /** @defgroup PWREx_Exported_Functions_Group1 Extended Peripheral Control functions
 113:/home/fanxinhao/Work/LiteOS_Lab/drivers/third_party/ST/STM32L4xx_HAL_Driver/Src/stm32l4xx_hal_pwr_ex.c ****   *  @brief   Extended Peripheral Control functions
 114:/home/fanxinhao/Work/LiteOS_Lab/drivers/third_party/ST/STM32L4xx_HAL_Driver/Src/stm32l4xx_hal_pwr_ex.c ****   *
 115:/home/fanxinhao/Work/LiteOS_Lab/drivers/third_party/ST/STM32L4xx_HAL_Driver/Src/stm32l4xx_hal_pwr_ex.c **** @verbatim
 116:/home/fanxinhao/Work/LiteOS_Lab/drivers/third_party/ST/STM32L4xx_HAL_Driver/Src/stm32l4xx_hal_pwr_ex.c ****  ===============================================================================
 117:/home/fanxinhao/Work/LiteOS_Lab/drivers/third_party/ST/STM32L4xx_HAL_Driver/Src/stm32l4xx_hal_pwr_ex.c ****               ##### Extended Peripheral Initialization and de-initialization functions #####
 118:/home/fanxinhao/Work/LiteOS_Lab/drivers/third_party/ST/STM32L4xx_HAL_Driver/Src/stm32l4xx_hal_pwr_ex.c ****  ===============================================================================
 119:/home/fanxinhao/Work/LiteOS_Lab/drivers/third_party/ST/STM32L4xx_HAL_Driver/Src/stm32l4xx_hal_pwr_ex.c ****     [..]
 120:/home/fanxinhao/Work/LiteOS_Lab/drivers/third_party/ST/STM32L4xx_HAL_Driver/Src/stm32l4xx_hal_pwr_ex.c **** 
 121:/home/fanxinhao/Work/LiteOS_Lab/drivers/third_party/ST/STM32L4xx_HAL_Driver/Src/stm32l4xx_hal_pwr_ex.c **** @endverbatim
 122:/home/fanxinhao/Work/LiteOS_Lab/drivers/third_party/ST/STM32L4xx_HAL_Driver/Src/stm32l4xx_hal_pwr_ex.c ****   * @{
 123:/home/fanxinhao/Work/LiteOS_Lab/drivers/third_party/ST/STM32L4xx_HAL_Driver/Src/stm32l4xx_hal_pwr_ex.c ****   */
 124:/home/fanxinhao/Work/LiteOS_Lab/drivers/third_party/ST/STM32L4xx_HAL_Driver/Src/stm32l4xx_hal_pwr_ex.c ****   
 125:/home/fanxinhao/Work/LiteOS_Lab/drivers/third_party/ST/STM32L4xx_HAL_Driver/Src/stm32l4xx_hal_pwr_ex.c **** 
 126:/home/fanxinhao/Work/LiteOS_Lab/drivers/third_party/ST/STM32L4xx_HAL_Driver/Src/stm32l4xx_hal_pwr_ex.c **** /**
 127:/home/fanxinhao/Work/LiteOS_Lab/drivers/third_party/ST/STM32L4xx_HAL_Driver/Src/stm32l4xx_hal_pwr_ex.c ****   * @brief Return Voltage Scaling Range.
 128:/home/fanxinhao/Work/LiteOS_Lab/drivers/third_party/ST/STM32L4xx_HAL_Driver/Src/stm32l4xx_hal_pwr_ex.c ****   * @retval VOS bit field (PWR_REGULATOR_VOLTAGE_RANGE1 or PWR_REGULATOR_VOLTAGE_RANGE2 
 129:/home/fanxinhao/Work/LiteOS_Lab/drivers/third_party/ST/STM32L4xx_HAL_Driver/Src/stm32l4xx_hal_pwr_ex.c ****   *         or PWR_REGULATOR_VOLTAGE_SCALE1_BOOST when applicable)
 130:/home/fanxinhao/Work/LiteOS_Lab/drivers/third_party/ST/STM32L4xx_HAL_Driver/Src/stm32l4xx_hal_pwr_ex.c ****   */  
 131:/home/fanxinhao/Work/LiteOS_Lab/drivers/third_party/ST/STM32L4xx_HAL_Driver/Src/stm32l4xx_hal_pwr_ex.c **** uint32_t HAL_PWREx_GetVoltageRange(void)
 132:/home/fanxinhao/Work/LiteOS_Lab/drivers/third_party/ST/STM32L4xx_HAL_Driver/Src/stm32l4xx_hal_pwr_ex.c **** {
  29              		.loc 1 132 1
  30              		.cfi_startproc
  31              		@ args = 0, pretend = 0, frame = 0
  32              		@ frame_needed = 1, uses_anonymous_args = 0
  33              		@ link register save eliminated.
  34 0000 80B4     		push	{r7}
  35              	.LCFI0:
  36              		.cfi_def_cfa_offset 4
  37              		.cfi_offset 7, -4
  38 0002 00AF     		add	r7, sp, #0
  39              	.LCFI1:
  40              		.cfi_def_cfa_register 7
ARM GAS  /tmp/ccwGjgVI.s 			page 4


 133:/home/fanxinhao/Work/LiteOS_Lab/drivers/third_party/ST/STM32L4xx_HAL_Driver/Src/stm32l4xx_hal_pwr_ex.c **** #if defined(PWR_CR5_R1MODE)
 134:/home/fanxinhao/Work/LiteOS_Lab/drivers/third_party/ST/STM32L4xx_HAL_Driver/Src/stm32l4xx_hal_pwr_ex.c ****     if (READ_BIT(PWR->CR1, PWR_CR1_VOS) == PWR_REGULATOR_VOLTAGE_SCALE2)
 135:/home/fanxinhao/Work/LiteOS_Lab/drivers/third_party/ST/STM32L4xx_HAL_Driver/Src/stm32l4xx_hal_pwr_ex.c ****     {
 136:/home/fanxinhao/Work/LiteOS_Lab/drivers/third_party/ST/STM32L4xx_HAL_Driver/Src/stm32l4xx_hal_pwr_ex.c ****       return PWR_REGULATOR_VOLTAGE_SCALE2;
 137:/home/fanxinhao/Work/LiteOS_Lab/drivers/third_party/ST/STM32L4xx_HAL_Driver/Src/stm32l4xx_hal_pwr_ex.c ****     }
 138:/home/fanxinhao/Work/LiteOS_Lab/drivers/third_party/ST/STM32L4xx_HAL_Driver/Src/stm32l4xx_hal_pwr_ex.c ****     else if (READ_BIT(PWR->CR5, PWR_CR5_R1MODE) == PWR_CR5_R1MODE)
 139:/home/fanxinhao/Work/LiteOS_Lab/drivers/third_party/ST/STM32L4xx_HAL_Driver/Src/stm32l4xx_hal_pwr_ex.c ****     {
 140:/home/fanxinhao/Work/LiteOS_Lab/drivers/third_party/ST/STM32L4xx_HAL_Driver/Src/stm32l4xx_hal_pwr_ex.c ****       /* PWR_CR5_R1MODE bit set means that Range 1 Boost is disabled */
 141:/home/fanxinhao/Work/LiteOS_Lab/drivers/third_party/ST/STM32L4xx_HAL_Driver/Src/stm32l4xx_hal_pwr_ex.c ****       return PWR_REGULATOR_VOLTAGE_SCALE1;
 142:/home/fanxinhao/Work/LiteOS_Lab/drivers/third_party/ST/STM32L4xx_HAL_Driver/Src/stm32l4xx_hal_pwr_ex.c ****     }
 143:/home/fanxinhao/Work/LiteOS_Lab/drivers/third_party/ST/STM32L4xx_HAL_Driver/Src/stm32l4xx_hal_pwr_ex.c ****     else
 144:/home/fanxinhao/Work/LiteOS_Lab/drivers/third_party/ST/STM32L4xx_HAL_Driver/Src/stm32l4xx_hal_pwr_ex.c ****     {
 145:/home/fanxinhao/Work/LiteOS_Lab/drivers/third_party/ST/STM32L4xx_HAL_Driver/Src/stm32l4xx_hal_pwr_ex.c ****       return PWR_REGULATOR_VOLTAGE_SCALE1_BOOST;
 146:/home/fanxinhao/Work/LiteOS_Lab/drivers/third_party/ST/STM32L4xx_HAL_Driver/Src/stm32l4xx_hal_pwr_ex.c ****     }
 147:/home/fanxinhao/Work/LiteOS_Lab/drivers/third_party/ST/STM32L4xx_HAL_Driver/Src/stm32l4xx_hal_pwr_ex.c **** #else
 148:/home/fanxinhao/Work/LiteOS_Lab/drivers/third_party/ST/STM32L4xx_HAL_Driver/Src/stm32l4xx_hal_pwr_ex.c ****   return  (PWR->CR1 & PWR_CR1_VOS);
  41              		.loc 1 148 15
  42 0004 044B     		ldr	r3, .L3
  43 0006 1B68     		ldr	r3, [r3]
  44              		.loc 1 148 21
  45 0008 03F4C063 		and	r3, r3, #1536
 149:/home/fanxinhao/Work/LiteOS_Lab/drivers/third_party/ST/STM32L4xx_HAL_Driver/Src/stm32l4xx_hal_pwr_ex.c **** #endif  
 150:/home/fanxinhao/Work/LiteOS_Lab/drivers/third_party/ST/STM32L4xx_HAL_Driver/Src/stm32l4xx_hal_pwr_ex.c **** }
  46              		.loc 1 150 1
  47 000c 1846     		mov	r0, r3
  48 000e BD46     		mov	sp, r7
  49              	.LCFI2:
  50              		.cfi_def_cfa_register 13
  51              		@ sp needed
  52 0010 5DF8047B 		ldr	r7, [sp], #4
  53              	.LCFI3:
  54              		.cfi_restore 7
  55              		.cfi_def_cfa_offset 0
  56 0014 7047     		bx	lr
  57              	.L4:
  58 0016 00BF     		.align	2
  59              	.L3:
  60 0018 00700040 		.word	1073770496
  61              		.cfi_endproc
  62              	.LFE126:
  64              		.section	.text.HAL_PWREx_ControlVoltageScaling,"ax",%progbits
  65              		.align	1
  66              		.global	HAL_PWREx_ControlVoltageScaling
  67              		.syntax unified
  68              		.thumb
  69              		.thumb_func
  70              		.fpu fpv4-sp-d16
  72              	HAL_PWREx_ControlVoltageScaling:
  73              	.LFB127:
 151:/home/fanxinhao/Work/LiteOS_Lab/drivers/third_party/ST/STM32L4xx_HAL_Driver/Src/stm32l4xx_hal_pwr_ex.c **** 
 152:/home/fanxinhao/Work/LiteOS_Lab/drivers/third_party/ST/STM32L4xx_HAL_Driver/Src/stm32l4xx_hal_pwr_ex.c ****   
 153:/home/fanxinhao/Work/LiteOS_Lab/drivers/third_party/ST/STM32L4xx_HAL_Driver/Src/stm32l4xx_hal_pwr_ex.c **** 
 154:/home/fanxinhao/Work/LiteOS_Lab/drivers/third_party/ST/STM32L4xx_HAL_Driver/Src/stm32l4xx_hal_pwr_ex.c **** /**
 155:/home/fanxinhao/Work/LiteOS_Lab/drivers/third_party/ST/STM32L4xx_HAL_Driver/Src/stm32l4xx_hal_pwr_ex.c ****   * @brief Configure the main internal regulator output voltage.
 156:/home/fanxinhao/Work/LiteOS_Lab/drivers/third_party/ST/STM32L4xx_HAL_Driver/Src/stm32l4xx_hal_pwr_ex.c ****   * @param  VoltageScaling: specifies the regulator output voltage to achieve
 157:/home/fanxinhao/Work/LiteOS_Lab/drivers/third_party/ST/STM32L4xx_HAL_Driver/Src/stm32l4xx_hal_pwr_ex.c ****   *         a tradeoff between performance and power consumption.
 158:/home/fanxinhao/Work/LiteOS_Lab/drivers/third_party/ST/STM32L4xx_HAL_Driver/Src/stm32l4xx_hal_pwr_ex.c ****   *          This parameter can be one of the following values:
ARM GAS  /tmp/ccwGjgVI.s 			page 5


 159:/home/fanxinhao/Work/LiteOS_Lab/drivers/third_party/ST/STM32L4xx_HAL_Driver/Src/stm32l4xx_hal_pwr_ex.c ****   @if STM32L4S9xx
 160:/home/fanxinhao/Work/LiteOS_Lab/drivers/third_party/ST/STM32L4xx_HAL_Driver/Src/stm32l4xx_hal_pwr_ex.c ****   *            @arg @ref PWR_REGULATOR_VOLTAGE_SCALE1_BOOST when available, Regulator voltage outpu
 161:/home/fanxinhao/Work/LiteOS_Lab/drivers/third_party/ST/STM32L4xx_HAL_Driver/Src/stm32l4xx_hal_pwr_ex.c ****   *                                                typical output voltage at 1.2 V,                
 162:/home/fanxinhao/Work/LiteOS_Lab/drivers/third_party/ST/STM32L4xx_HAL_Driver/Src/stm32l4xx_hal_pwr_ex.c ****   *                                                system frequency up to 120 MHz.  
 163:/home/fanxinhao/Work/LiteOS_Lab/drivers/third_party/ST/STM32L4xx_HAL_Driver/Src/stm32l4xx_hal_pwr_ex.c ****   @endif
 164:/home/fanxinhao/Work/LiteOS_Lab/drivers/third_party/ST/STM32L4xx_HAL_Driver/Src/stm32l4xx_hal_pwr_ex.c ****   *            @arg @ref PWR_REGULATOR_VOLTAGE_SCALE1 Regulator voltage output range 1 mode,
 165:/home/fanxinhao/Work/LiteOS_Lab/drivers/third_party/ST/STM32L4xx_HAL_Driver/Src/stm32l4xx_hal_pwr_ex.c ****   *                                                typical output voltage at 1.2 V,  
 166:/home/fanxinhao/Work/LiteOS_Lab/drivers/third_party/ST/STM32L4xx_HAL_Driver/Src/stm32l4xx_hal_pwr_ex.c ****   *                                                system frequency up to 80 MHz.
 167:/home/fanxinhao/Work/LiteOS_Lab/drivers/third_party/ST/STM32L4xx_HAL_Driver/Src/stm32l4xx_hal_pwr_ex.c ****   *            @arg @ref PWR_REGULATOR_VOLTAGE_SCALE2 Regulator voltage output range 2 mode,
 168:/home/fanxinhao/Work/LiteOS_Lab/drivers/third_party/ST/STM32L4xx_HAL_Driver/Src/stm32l4xx_hal_pwr_ex.c ****   *                                                typical output voltage at 1.0 V,                
 169:/home/fanxinhao/Work/LiteOS_Lab/drivers/third_party/ST/STM32L4xx_HAL_Driver/Src/stm32l4xx_hal_pwr_ex.c ****   *                                                system frequency up to 26 MHz.
 170:/home/fanxinhao/Work/LiteOS_Lab/drivers/third_party/ST/STM32L4xx_HAL_Driver/Src/stm32l4xx_hal_pwr_ex.c ****   * @note  When moving from Range 1 to Range 2, the system frequency must be decreased to
 171:/home/fanxinhao/Work/LiteOS_Lab/drivers/third_party/ST/STM32L4xx_HAL_Driver/Src/stm32l4xx_hal_pwr_ex.c ****   *        a value below 26 MHz before calling HAL_PWREx_ControlVoltageScaling() API.
 172:/home/fanxinhao/Work/LiteOS_Lab/drivers/third_party/ST/STM32L4xx_HAL_Driver/Src/stm32l4xx_hal_pwr_ex.c ****   *        When moving from Range 2 to Range 1, the system frequency can be increased to
 173:/home/fanxinhao/Work/LiteOS_Lab/drivers/third_party/ST/STM32L4xx_HAL_Driver/Src/stm32l4xx_hal_pwr_ex.c ****   *        a value up to 80 MHz after calling HAL_PWREx_ControlVoltageScaling() API. For
 174:/home/fanxinhao/Work/LiteOS_Lab/drivers/third_party/ST/STM32L4xx_HAL_Driver/Src/stm32l4xx_hal_pwr_ex.c ****   *        some devices, the system frequency can be increased up to 120 MHz.  
 175:/home/fanxinhao/Work/LiteOS_Lab/drivers/third_party/ST/STM32L4xx_HAL_Driver/Src/stm32l4xx_hal_pwr_ex.c ****   * @note  When moving from Range 2 to Range 1, the API waits for VOSF flag to be
 176:/home/fanxinhao/Work/LiteOS_Lab/drivers/third_party/ST/STM32L4xx_HAL_Driver/Src/stm32l4xx_hal_pwr_ex.c ****   *        cleared before returning the status. If the flag is not cleared within
 177:/home/fanxinhao/Work/LiteOS_Lab/drivers/third_party/ST/STM32L4xx_HAL_Driver/Src/stm32l4xx_hal_pwr_ex.c ****   *        50 microseconds, HAL_TIMEOUT status is reported.                    
 178:/home/fanxinhao/Work/LiteOS_Lab/drivers/third_party/ST/STM32L4xx_HAL_Driver/Src/stm32l4xx_hal_pwr_ex.c ****   * @retval HAL Status
 179:/home/fanxinhao/Work/LiteOS_Lab/drivers/third_party/ST/STM32L4xx_HAL_Driver/Src/stm32l4xx_hal_pwr_ex.c ****   */
 180:/home/fanxinhao/Work/LiteOS_Lab/drivers/third_party/ST/STM32L4xx_HAL_Driver/Src/stm32l4xx_hal_pwr_ex.c **** HAL_StatusTypeDef HAL_PWREx_ControlVoltageScaling(uint32_t VoltageScaling)
 181:/home/fanxinhao/Work/LiteOS_Lab/drivers/third_party/ST/STM32L4xx_HAL_Driver/Src/stm32l4xx_hal_pwr_ex.c **** {
  74              		.loc 1 181 1
  75              		.cfi_startproc
  76              		@ args = 0, pretend = 0, frame = 16
  77              		@ frame_needed = 1, uses_anonymous_args = 0
  78              		@ link register save eliminated.
  79 0000 80B4     		push	{r7}
  80              	.LCFI4:
  81              		.cfi_def_cfa_offset 4
  82              		.cfi_offset 7, -4
  83 0002 85B0     		sub	sp, sp, #20
  84              	.LCFI5:
  85              		.cfi_def_cfa_offset 24
  86 0004 00AF     		add	r7, sp, #0
  87              	.LCFI6:
  88              		.cfi_def_cfa_register 7
  89 0006 7860     		str	r0, [r7, #4]
 182:/home/fanxinhao/Work/LiteOS_Lab/drivers/third_party/ST/STM32L4xx_HAL_Driver/Src/stm32l4xx_hal_pwr_ex.c ****   uint32_t wait_loop_index = 0;  
  90              		.loc 1 182 12
  91 0008 0023     		movs	r3, #0
  92 000a FB60     		str	r3, [r7, #12]
 183:/home/fanxinhao/Work/LiteOS_Lab/drivers/third_party/ST/STM32L4xx_HAL_Driver/Src/stm32l4xx_hal_pwr_ex.c **** 
 184:/home/fanxinhao/Work/LiteOS_Lab/drivers/third_party/ST/STM32L4xx_HAL_Driver/Src/stm32l4xx_hal_pwr_ex.c ****   assert_param(IS_PWR_VOLTAGE_SCALING_RANGE(VoltageScaling));
 185:/home/fanxinhao/Work/LiteOS_Lab/drivers/third_party/ST/STM32L4xx_HAL_Driver/Src/stm32l4xx_hal_pwr_ex.c **** 
 186:/home/fanxinhao/Work/LiteOS_Lab/drivers/third_party/ST/STM32L4xx_HAL_Driver/Src/stm32l4xx_hal_pwr_ex.c **** #if defined(PWR_CR5_R1MODE)
 187:/home/fanxinhao/Work/LiteOS_Lab/drivers/third_party/ST/STM32L4xx_HAL_Driver/Src/stm32l4xx_hal_pwr_ex.c ****   if (VoltageScaling == PWR_REGULATOR_VOLTAGE_SCALE1_BOOST)
 188:/home/fanxinhao/Work/LiteOS_Lab/drivers/third_party/ST/STM32L4xx_HAL_Driver/Src/stm32l4xx_hal_pwr_ex.c ****   {
 189:/home/fanxinhao/Work/LiteOS_Lab/drivers/third_party/ST/STM32L4xx_HAL_Driver/Src/stm32l4xx_hal_pwr_ex.c ****     /* If current range is range 2 */
 190:/home/fanxinhao/Work/LiteOS_Lab/drivers/third_party/ST/STM32L4xx_HAL_Driver/Src/stm32l4xx_hal_pwr_ex.c ****     if (READ_BIT(PWR->CR1, PWR_CR1_VOS) == PWR_REGULATOR_VOLTAGE_SCALE2)
 191:/home/fanxinhao/Work/LiteOS_Lab/drivers/third_party/ST/STM32L4xx_HAL_Driver/Src/stm32l4xx_hal_pwr_ex.c ****     {
 192:/home/fanxinhao/Work/LiteOS_Lab/drivers/third_party/ST/STM32L4xx_HAL_Driver/Src/stm32l4xx_hal_pwr_ex.c ****       /* Make sure Range 1 Boost is enabled */
 193:/home/fanxinhao/Work/LiteOS_Lab/drivers/third_party/ST/STM32L4xx_HAL_Driver/Src/stm32l4xx_hal_pwr_ex.c ****       CLEAR_BIT(PWR->CR5, PWR_CR5_R1MODE);
 194:/home/fanxinhao/Work/LiteOS_Lab/drivers/third_party/ST/STM32L4xx_HAL_Driver/Src/stm32l4xx_hal_pwr_ex.c ****       
 195:/home/fanxinhao/Work/LiteOS_Lab/drivers/third_party/ST/STM32L4xx_HAL_Driver/Src/stm32l4xx_hal_pwr_ex.c ****       /* Set Range 1 */
 196:/home/fanxinhao/Work/LiteOS_Lab/drivers/third_party/ST/STM32L4xx_HAL_Driver/Src/stm32l4xx_hal_pwr_ex.c ****       MODIFY_REG(PWR->CR1, PWR_CR1_VOS, PWR_REGULATOR_VOLTAGE_SCALE1);
ARM GAS  /tmp/ccwGjgVI.s 			page 6


 197:/home/fanxinhao/Work/LiteOS_Lab/drivers/third_party/ST/STM32L4xx_HAL_Driver/Src/stm32l4xx_hal_pwr_ex.c ****       
 198:/home/fanxinhao/Work/LiteOS_Lab/drivers/third_party/ST/STM32L4xx_HAL_Driver/Src/stm32l4xx_hal_pwr_ex.c ****       /* Wait until VOSF is cleared */      
 199:/home/fanxinhao/Work/LiteOS_Lab/drivers/third_party/ST/STM32L4xx_HAL_Driver/Src/stm32l4xx_hal_pwr_ex.c ****       wait_loop_index = (PWR_FLAG_SETTING_DELAY_US * (SystemCoreClock / 1000000));
 200:/home/fanxinhao/Work/LiteOS_Lab/drivers/third_party/ST/STM32L4xx_HAL_Driver/Src/stm32l4xx_hal_pwr_ex.c ****       while ((wait_loop_index != 0) && (HAL_IS_BIT_SET(PWR->SR2, PWR_SR2_VOSF)))
 201:/home/fanxinhao/Work/LiteOS_Lab/drivers/third_party/ST/STM32L4xx_HAL_Driver/Src/stm32l4xx_hal_pwr_ex.c ****       {
 202:/home/fanxinhao/Work/LiteOS_Lab/drivers/third_party/ST/STM32L4xx_HAL_Driver/Src/stm32l4xx_hal_pwr_ex.c ****         wait_loop_index--;
 203:/home/fanxinhao/Work/LiteOS_Lab/drivers/third_party/ST/STM32L4xx_HAL_Driver/Src/stm32l4xx_hal_pwr_ex.c ****       }
 204:/home/fanxinhao/Work/LiteOS_Lab/drivers/third_party/ST/STM32L4xx_HAL_Driver/Src/stm32l4xx_hal_pwr_ex.c ****       if (HAL_IS_BIT_SET(PWR->SR2, PWR_SR2_VOSF))
 205:/home/fanxinhao/Work/LiteOS_Lab/drivers/third_party/ST/STM32L4xx_HAL_Driver/Src/stm32l4xx_hal_pwr_ex.c ****       {
 206:/home/fanxinhao/Work/LiteOS_Lab/drivers/third_party/ST/STM32L4xx_HAL_Driver/Src/stm32l4xx_hal_pwr_ex.c ****         return HAL_TIMEOUT;
 207:/home/fanxinhao/Work/LiteOS_Lab/drivers/third_party/ST/STM32L4xx_HAL_Driver/Src/stm32l4xx_hal_pwr_ex.c ****       }    
 208:/home/fanxinhao/Work/LiteOS_Lab/drivers/third_party/ST/STM32L4xx_HAL_Driver/Src/stm32l4xx_hal_pwr_ex.c ****     } 
 209:/home/fanxinhao/Work/LiteOS_Lab/drivers/third_party/ST/STM32L4xx_HAL_Driver/Src/stm32l4xx_hal_pwr_ex.c ****     /* If current range is range 1 normal or boost mode */
 210:/home/fanxinhao/Work/LiteOS_Lab/drivers/third_party/ST/STM32L4xx_HAL_Driver/Src/stm32l4xx_hal_pwr_ex.c ****     else
 211:/home/fanxinhao/Work/LiteOS_Lab/drivers/third_party/ST/STM32L4xx_HAL_Driver/Src/stm32l4xx_hal_pwr_ex.c ****     {
 212:/home/fanxinhao/Work/LiteOS_Lab/drivers/third_party/ST/STM32L4xx_HAL_Driver/Src/stm32l4xx_hal_pwr_ex.c ****       /* Enable Range 1 Boost (no issue if bit already reset) */
 213:/home/fanxinhao/Work/LiteOS_Lab/drivers/third_party/ST/STM32L4xx_HAL_Driver/Src/stm32l4xx_hal_pwr_ex.c ****       CLEAR_BIT(PWR->CR5, PWR_CR5_R1MODE);
 214:/home/fanxinhao/Work/LiteOS_Lab/drivers/third_party/ST/STM32L4xx_HAL_Driver/Src/stm32l4xx_hal_pwr_ex.c ****     }
 215:/home/fanxinhao/Work/LiteOS_Lab/drivers/third_party/ST/STM32L4xx_HAL_Driver/Src/stm32l4xx_hal_pwr_ex.c ****   }
 216:/home/fanxinhao/Work/LiteOS_Lab/drivers/third_party/ST/STM32L4xx_HAL_Driver/Src/stm32l4xx_hal_pwr_ex.c ****   else if (VoltageScaling == PWR_REGULATOR_VOLTAGE_SCALE1)
 217:/home/fanxinhao/Work/LiteOS_Lab/drivers/third_party/ST/STM32L4xx_HAL_Driver/Src/stm32l4xx_hal_pwr_ex.c ****   {
 218:/home/fanxinhao/Work/LiteOS_Lab/drivers/third_party/ST/STM32L4xx_HAL_Driver/Src/stm32l4xx_hal_pwr_ex.c ****     /* If current range is range 2 */
 219:/home/fanxinhao/Work/LiteOS_Lab/drivers/third_party/ST/STM32L4xx_HAL_Driver/Src/stm32l4xx_hal_pwr_ex.c ****     if (READ_BIT(PWR->CR1, PWR_CR1_VOS) == PWR_REGULATOR_VOLTAGE_SCALE2)
 220:/home/fanxinhao/Work/LiteOS_Lab/drivers/third_party/ST/STM32L4xx_HAL_Driver/Src/stm32l4xx_hal_pwr_ex.c ****     {
 221:/home/fanxinhao/Work/LiteOS_Lab/drivers/third_party/ST/STM32L4xx_HAL_Driver/Src/stm32l4xx_hal_pwr_ex.c ****       /* Make sure Range 1 Boost is disabled */
 222:/home/fanxinhao/Work/LiteOS_Lab/drivers/third_party/ST/STM32L4xx_HAL_Driver/Src/stm32l4xx_hal_pwr_ex.c ****       SET_BIT(PWR->CR5, PWR_CR5_R1MODE);
 223:/home/fanxinhao/Work/LiteOS_Lab/drivers/third_party/ST/STM32L4xx_HAL_Driver/Src/stm32l4xx_hal_pwr_ex.c ****       
 224:/home/fanxinhao/Work/LiteOS_Lab/drivers/third_party/ST/STM32L4xx_HAL_Driver/Src/stm32l4xx_hal_pwr_ex.c ****       /* Set Range 1 */
 225:/home/fanxinhao/Work/LiteOS_Lab/drivers/third_party/ST/STM32L4xx_HAL_Driver/Src/stm32l4xx_hal_pwr_ex.c ****       MODIFY_REG(PWR->CR1, PWR_CR1_VOS, PWR_REGULATOR_VOLTAGE_SCALE1);
 226:/home/fanxinhao/Work/LiteOS_Lab/drivers/third_party/ST/STM32L4xx_HAL_Driver/Src/stm32l4xx_hal_pwr_ex.c ****       
 227:/home/fanxinhao/Work/LiteOS_Lab/drivers/third_party/ST/STM32L4xx_HAL_Driver/Src/stm32l4xx_hal_pwr_ex.c ****       /* Wait until VOSF is cleared */      
 228:/home/fanxinhao/Work/LiteOS_Lab/drivers/third_party/ST/STM32L4xx_HAL_Driver/Src/stm32l4xx_hal_pwr_ex.c ****       wait_loop_index = (PWR_FLAG_SETTING_DELAY_US * (SystemCoreClock / 1000000));
 229:/home/fanxinhao/Work/LiteOS_Lab/drivers/third_party/ST/STM32L4xx_HAL_Driver/Src/stm32l4xx_hal_pwr_ex.c ****       while ((wait_loop_index != 0) && (HAL_IS_BIT_SET(PWR->SR2, PWR_SR2_VOSF)))
 230:/home/fanxinhao/Work/LiteOS_Lab/drivers/third_party/ST/STM32L4xx_HAL_Driver/Src/stm32l4xx_hal_pwr_ex.c ****       {
 231:/home/fanxinhao/Work/LiteOS_Lab/drivers/third_party/ST/STM32L4xx_HAL_Driver/Src/stm32l4xx_hal_pwr_ex.c ****         wait_loop_index--;
 232:/home/fanxinhao/Work/LiteOS_Lab/drivers/third_party/ST/STM32L4xx_HAL_Driver/Src/stm32l4xx_hal_pwr_ex.c ****       }
 233:/home/fanxinhao/Work/LiteOS_Lab/drivers/third_party/ST/STM32L4xx_HAL_Driver/Src/stm32l4xx_hal_pwr_ex.c ****       if (HAL_IS_BIT_SET(PWR->SR2, PWR_SR2_VOSF))
 234:/home/fanxinhao/Work/LiteOS_Lab/drivers/third_party/ST/STM32L4xx_HAL_Driver/Src/stm32l4xx_hal_pwr_ex.c ****       {
 235:/home/fanxinhao/Work/LiteOS_Lab/drivers/third_party/ST/STM32L4xx_HAL_Driver/Src/stm32l4xx_hal_pwr_ex.c ****         return HAL_TIMEOUT;
 236:/home/fanxinhao/Work/LiteOS_Lab/drivers/third_party/ST/STM32L4xx_HAL_Driver/Src/stm32l4xx_hal_pwr_ex.c ****       }    
 237:/home/fanxinhao/Work/LiteOS_Lab/drivers/third_party/ST/STM32L4xx_HAL_Driver/Src/stm32l4xx_hal_pwr_ex.c ****     } 
 238:/home/fanxinhao/Work/LiteOS_Lab/drivers/third_party/ST/STM32L4xx_HAL_Driver/Src/stm32l4xx_hal_pwr_ex.c ****      /* If current range is range 1 normal or boost mode */
 239:/home/fanxinhao/Work/LiteOS_Lab/drivers/third_party/ST/STM32L4xx_HAL_Driver/Src/stm32l4xx_hal_pwr_ex.c ****     else
 240:/home/fanxinhao/Work/LiteOS_Lab/drivers/third_party/ST/STM32L4xx_HAL_Driver/Src/stm32l4xx_hal_pwr_ex.c ****     {
 241:/home/fanxinhao/Work/LiteOS_Lab/drivers/third_party/ST/STM32L4xx_HAL_Driver/Src/stm32l4xx_hal_pwr_ex.c ****       /* Disable Range 1 Boost (no issue if bit already set) */
 242:/home/fanxinhao/Work/LiteOS_Lab/drivers/third_party/ST/STM32L4xx_HAL_Driver/Src/stm32l4xx_hal_pwr_ex.c ****       SET_BIT(PWR->CR5, PWR_CR5_R1MODE);
 243:/home/fanxinhao/Work/LiteOS_Lab/drivers/third_party/ST/STM32L4xx_HAL_Driver/Src/stm32l4xx_hal_pwr_ex.c ****     } 
 244:/home/fanxinhao/Work/LiteOS_Lab/drivers/third_party/ST/STM32L4xx_HAL_Driver/Src/stm32l4xx_hal_pwr_ex.c ****   }
 245:/home/fanxinhao/Work/LiteOS_Lab/drivers/third_party/ST/STM32L4xx_HAL_Driver/Src/stm32l4xx_hal_pwr_ex.c ****   else
 246:/home/fanxinhao/Work/LiteOS_Lab/drivers/third_party/ST/STM32L4xx_HAL_Driver/Src/stm32l4xx_hal_pwr_ex.c ****   {
 247:/home/fanxinhao/Work/LiteOS_Lab/drivers/third_party/ST/STM32L4xx_HAL_Driver/Src/stm32l4xx_hal_pwr_ex.c ****     /* Set Range 2 */
 248:/home/fanxinhao/Work/LiteOS_Lab/drivers/third_party/ST/STM32L4xx_HAL_Driver/Src/stm32l4xx_hal_pwr_ex.c ****     MODIFY_REG(PWR->CR1, PWR_CR1_VOS, PWR_REGULATOR_VOLTAGE_SCALE2);
 249:/home/fanxinhao/Work/LiteOS_Lab/drivers/third_party/ST/STM32L4xx_HAL_Driver/Src/stm32l4xx_hal_pwr_ex.c ****     /* No need to wait for VOSF to be cleared for this transition */
 250:/home/fanxinhao/Work/LiteOS_Lab/drivers/third_party/ST/STM32L4xx_HAL_Driver/Src/stm32l4xx_hal_pwr_ex.c ****     /* PWR_CR5_R1MODE bit setting has no effect in Range 2        */    
 251:/home/fanxinhao/Work/LiteOS_Lab/drivers/third_party/ST/STM32L4xx_HAL_Driver/Src/stm32l4xx_hal_pwr_ex.c ****   }
 252:/home/fanxinhao/Work/LiteOS_Lab/drivers/third_party/ST/STM32L4xx_HAL_Driver/Src/stm32l4xx_hal_pwr_ex.c ****   
 253:/home/fanxinhao/Work/LiteOS_Lab/drivers/third_party/ST/STM32L4xx_HAL_Driver/Src/stm32l4xx_hal_pwr_ex.c **** #else
ARM GAS  /tmp/ccwGjgVI.s 			page 7


 254:/home/fanxinhao/Work/LiteOS_Lab/drivers/third_party/ST/STM32L4xx_HAL_Driver/Src/stm32l4xx_hal_pwr_ex.c **** 
 255:/home/fanxinhao/Work/LiteOS_Lab/drivers/third_party/ST/STM32L4xx_HAL_Driver/Src/stm32l4xx_hal_pwr_ex.c ****   /* If Set Range 1 */
 256:/home/fanxinhao/Work/LiteOS_Lab/drivers/third_party/ST/STM32L4xx_HAL_Driver/Src/stm32l4xx_hal_pwr_ex.c ****   if (VoltageScaling == PWR_REGULATOR_VOLTAGE_SCALE1)
  93              		.loc 1 256 6
  94 000c 7B68     		ldr	r3, [r7, #4]
  95 000e B3F5007F 		cmp	r3, #512
  96 0012 2FD1     		bne	.L6
 257:/home/fanxinhao/Work/LiteOS_Lab/drivers/third_party/ST/STM32L4xx_HAL_Driver/Src/stm32l4xx_hal_pwr_ex.c ****   {
 258:/home/fanxinhao/Work/LiteOS_Lab/drivers/third_party/ST/STM32L4xx_HAL_Driver/Src/stm32l4xx_hal_pwr_ex.c ****     if (READ_BIT(PWR->CR1, PWR_CR1_VOS) != PWR_REGULATOR_VOLTAGE_SCALE1)
  97              		.loc 1 258 9
  98 0014 224B     		ldr	r3, .L12
  99 0016 1B68     		ldr	r3, [r3]
 100 0018 03F4C063 		and	r3, r3, #1536
 101              		.loc 1 258 8
 102 001c B3F5007F 		cmp	r3, #512
 103 0020 37D0     		beq	.L7
 259:/home/fanxinhao/Work/LiteOS_Lab/drivers/third_party/ST/STM32L4xx_HAL_Driver/Src/stm32l4xx_hal_pwr_ex.c ****     {
 260:/home/fanxinhao/Work/LiteOS_Lab/drivers/third_party/ST/STM32L4xx_HAL_Driver/Src/stm32l4xx_hal_pwr_ex.c ****       /* Set Range 1 */
 261:/home/fanxinhao/Work/LiteOS_Lab/drivers/third_party/ST/STM32L4xx_HAL_Driver/Src/stm32l4xx_hal_pwr_ex.c ****       MODIFY_REG(PWR->CR1, PWR_CR1_VOS, PWR_REGULATOR_VOLTAGE_SCALE1);
 104              		.loc 1 261 7
 105 0022 1F4B     		ldr	r3, .L12
 106 0024 1B68     		ldr	r3, [r3]
 107 0026 23F4C063 		bic	r3, r3, #1536
 108 002a 1D4A     		ldr	r2, .L12
 109 002c 43F40073 		orr	r3, r3, #512
 110 0030 1360     		str	r3, [r2]
 262:/home/fanxinhao/Work/LiteOS_Lab/drivers/third_party/ST/STM32L4xx_HAL_Driver/Src/stm32l4xx_hal_pwr_ex.c ****       
 263:/home/fanxinhao/Work/LiteOS_Lab/drivers/third_party/ST/STM32L4xx_HAL_Driver/Src/stm32l4xx_hal_pwr_ex.c ****       /* Wait until VOSF is cleared */      
 264:/home/fanxinhao/Work/LiteOS_Lab/drivers/third_party/ST/STM32L4xx_HAL_Driver/Src/stm32l4xx_hal_pwr_ex.c ****       wait_loop_index = (PWR_FLAG_SETTING_DELAY_US * (SystemCoreClock / 1000000));
 111              		.loc 1 264 71
 112 0032 1C4B     		ldr	r3, .L12+4
 113 0034 1B68     		ldr	r3, [r3]
 114 0036 1C4A     		ldr	r2, .L12+8
 115 0038 A2FB0323 		umull	r2, r3, r2, r3
 116 003c 9B0C     		lsrs	r3, r3, #18
 117              		.loc 1 264 23
 118 003e 3222     		movs	r2, #50
 119 0040 02FB03F3 		mul	r3, r2, r3
 120 0044 FB60     		str	r3, [r7, #12]
 265:/home/fanxinhao/Work/LiteOS_Lab/drivers/third_party/ST/STM32L4xx_HAL_Driver/Src/stm32l4xx_hal_pwr_ex.c ****       while ((wait_loop_index != 0) && (HAL_IS_BIT_SET(PWR->SR2, PWR_SR2_VOSF)))
 121              		.loc 1 265 13
 122 0046 02E0     		b	.L8
 123              	.L10:
 266:/home/fanxinhao/Work/LiteOS_Lab/drivers/third_party/ST/STM32L4xx_HAL_Driver/Src/stm32l4xx_hal_pwr_ex.c ****       {
 267:/home/fanxinhao/Work/LiteOS_Lab/drivers/third_party/ST/STM32L4xx_HAL_Driver/Src/stm32l4xx_hal_pwr_ex.c ****         wait_loop_index--;
 124              		.loc 1 267 24
 125 0048 FB68     		ldr	r3, [r7, #12]
 126 004a 013B     		subs	r3, r3, #1
 127 004c FB60     		str	r3, [r7, #12]
 128              	.L8:
 265:/home/fanxinhao/Work/LiteOS_Lab/drivers/third_party/ST/STM32L4xx_HAL_Driver/Src/stm32l4xx_hal_pwr_ex.c ****       while ((wait_loop_index != 0) && (HAL_IS_BIT_SET(PWR->SR2, PWR_SR2_VOSF)))
 129              		.loc 1 265 13
 130 004e FB68     		ldr	r3, [r7, #12]
 131 0050 002B     		cmp	r3, #0
 132 0052 06D0     		beq	.L9
 265:/home/fanxinhao/Work/LiteOS_Lab/drivers/third_party/ST/STM32L4xx_HAL_Driver/Src/stm32l4xx_hal_pwr_ex.c ****       while ((wait_loop_index != 0) && (HAL_IS_BIT_SET(PWR->SR2, PWR_SR2_VOSF)))
 133              		.loc 1 265 41 discriminator 1
ARM GAS  /tmp/ccwGjgVI.s 			page 8


 134 0054 124B     		ldr	r3, .L12
 135 0056 5B69     		ldr	r3, [r3, #20]
 136 0058 03F48063 		and	r3, r3, #1024
 265:/home/fanxinhao/Work/LiteOS_Lab/drivers/third_party/ST/STM32L4xx_HAL_Driver/Src/stm32l4xx_hal_pwr_ex.c ****       while ((wait_loop_index != 0) && (HAL_IS_BIT_SET(PWR->SR2, PWR_SR2_VOSF)))
 137              		.loc 1 265 37 discriminator 1
 138 005c B3F5806F 		cmp	r3, #1024
 139 0060 F2D0     		beq	.L10
 140              	.L9:
 268:/home/fanxinhao/Work/LiteOS_Lab/drivers/third_party/ST/STM32L4xx_HAL_Driver/Src/stm32l4xx_hal_pwr_ex.c ****       }
 269:/home/fanxinhao/Work/LiteOS_Lab/drivers/third_party/ST/STM32L4xx_HAL_Driver/Src/stm32l4xx_hal_pwr_ex.c ****       if (HAL_IS_BIT_SET(PWR->SR2, PWR_SR2_VOSF))
 141              		.loc 1 269 11
 142 0062 0F4B     		ldr	r3, .L12
 143 0064 5B69     		ldr	r3, [r3, #20]
 144 0066 03F48063 		and	r3, r3, #1024
 145              		.loc 1 269 10
 146 006a B3F5806F 		cmp	r3, #1024
 147 006e 10D1     		bne	.L7
 270:/home/fanxinhao/Work/LiteOS_Lab/drivers/third_party/ST/STM32L4xx_HAL_Driver/Src/stm32l4xx_hal_pwr_ex.c ****       {
 271:/home/fanxinhao/Work/LiteOS_Lab/drivers/third_party/ST/STM32L4xx_HAL_Driver/Src/stm32l4xx_hal_pwr_ex.c ****         return HAL_TIMEOUT;
 148              		.loc 1 271 16
 149 0070 0323     		movs	r3, #3
 150 0072 0FE0     		b	.L11
 151              	.L6:
 272:/home/fanxinhao/Work/LiteOS_Lab/drivers/third_party/ST/STM32L4xx_HAL_Driver/Src/stm32l4xx_hal_pwr_ex.c ****       }
 273:/home/fanxinhao/Work/LiteOS_Lab/drivers/third_party/ST/STM32L4xx_HAL_Driver/Src/stm32l4xx_hal_pwr_ex.c ****     }
 274:/home/fanxinhao/Work/LiteOS_Lab/drivers/third_party/ST/STM32L4xx_HAL_Driver/Src/stm32l4xx_hal_pwr_ex.c ****   }
 275:/home/fanxinhao/Work/LiteOS_Lab/drivers/third_party/ST/STM32L4xx_HAL_Driver/Src/stm32l4xx_hal_pwr_ex.c ****   else
 276:/home/fanxinhao/Work/LiteOS_Lab/drivers/third_party/ST/STM32L4xx_HAL_Driver/Src/stm32l4xx_hal_pwr_ex.c ****   {
 277:/home/fanxinhao/Work/LiteOS_Lab/drivers/third_party/ST/STM32L4xx_HAL_Driver/Src/stm32l4xx_hal_pwr_ex.c ****     if (READ_BIT(PWR->CR1, PWR_CR1_VOS) != PWR_REGULATOR_VOLTAGE_SCALE2)
 152              		.loc 1 277 9
 153 0074 0A4B     		ldr	r3, .L12
 154 0076 1B68     		ldr	r3, [r3]
 155 0078 03F4C063 		and	r3, r3, #1536
 156              		.loc 1 277 8
 157 007c B3F5806F 		cmp	r3, #1024
 158 0080 07D0     		beq	.L7
 278:/home/fanxinhao/Work/LiteOS_Lab/drivers/third_party/ST/STM32L4xx_HAL_Driver/Src/stm32l4xx_hal_pwr_ex.c ****     {
 279:/home/fanxinhao/Work/LiteOS_Lab/drivers/third_party/ST/STM32L4xx_HAL_Driver/Src/stm32l4xx_hal_pwr_ex.c ****       /* Set Range 2 */
 280:/home/fanxinhao/Work/LiteOS_Lab/drivers/third_party/ST/STM32L4xx_HAL_Driver/Src/stm32l4xx_hal_pwr_ex.c ****       MODIFY_REG(PWR->CR1, PWR_CR1_VOS, PWR_REGULATOR_VOLTAGE_SCALE2);
 159              		.loc 1 280 7
 160 0082 074B     		ldr	r3, .L12
 161 0084 1B68     		ldr	r3, [r3]
 162 0086 23F4C063 		bic	r3, r3, #1536
 163 008a 054A     		ldr	r2, .L12
 164 008c 43F48063 		orr	r3, r3, #1024
 165 0090 1360     		str	r3, [r2]
 166              	.L7:
 281:/home/fanxinhao/Work/LiteOS_Lab/drivers/third_party/ST/STM32L4xx_HAL_Driver/Src/stm32l4xx_hal_pwr_ex.c ****       /* No need to wait for VOSF to be cleared for this transition */
 282:/home/fanxinhao/Work/LiteOS_Lab/drivers/third_party/ST/STM32L4xx_HAL_Driver/Src/stm32l4xx_hal_pwr_ex.c ****     }
 283:/home/fanxinhao/Work/LiteOS_Lab/drivers/third_party/ST/STM32L4xx_HAL_Driver/Src/stm32l4xx_hal_pwr_ex.c ****   }
 284:/home/fanxinhao/Work/LiteOS_Lab/drivers/third_party/ST/STM32L4xx_HAL_Driver/Src/stm32l4xx_hal_pwr_ex.c **** #endif  
 285:/home/fanxinhao/Work/LiteOS_Lab/drivers/third_party/ST/STM32L4xx_HAL_Driver/Src/stm32l4xx_hal_pwr_ex.c ****   
 286:/home/fanxinhao/Work/LiteOS_Lab/drivers/third_party/ST/STM32L4xx_HAL_Driver/Src/stm32l4xx_hal_pwr_ex.c ****   return HAL_OK;
 167              		.loc 1 286 10
 168 0092 0023     		movs	r3, #0
 169              	.L11:
 287:/home/fanxinhao/Work/LiteOS_Lab/drivers/third_party/ST/STM32L4xx_HAL_Driver/Src/stm32l4xx_hal_pwr_ex.c **** }  
ARM GAS  /tmp/ccwGjgVI.s 			page 9


 170              		.loc 1 287 1
 171 0094 1846     		mov	r0, r3
 172 0096 1437     		adds	r7, r7, #20
 173              	.LCFI7:
 174              		.cfi_def_cfa_offset 4
 175 0098 BD46     		mov	sp, r7
 176              	.LCFI8:
 177              		.cfi_def_cfa_register 13
 178              		@ sp needed
 179 009a 5DF8047B 		ldr	r7, [sp], #4
 180              	.LCFI9:
 181              		.cfi_restore 7
 182              		.cfi_def_cfa_offset 0
 183 009e 7047     		bx	lr
 184              	.L13:
 185              		.align	2
 186              	.L12:
 187 00a0 00700040 		.word	1073770496
 188 00a4 00000000 		.word	SystemCoreClock
 189 00a8 83DE1B43 		.word	1125899907
 190              		.cfi_endproc
 191              	.LFE127:
 193              		.section	.text.HAL_PWREx_EnableBatteryCharging,"ax",%progbits
 194              		.align	1
 195              		.global	HAL_PWREx_EnableBatteryCharging
 196              		.syntax unified
 197              		.thumb
 198              		.thumb_func
 199              		.fpu fpv4-sp-d16
 201              	HAL_PWREx_EnableBatteryCharging:
 202              	.LFB128:
 288:/home/fanxinhao/Work/LiteOS_Lab/drivers/third_party/ST/STM32L4xx_HAL_Driver/Src/stm32l4xx_hal_pwr_ex.c **** 
 289:/home/fanxinhao/Work/LiteOS_Lab/drivers/third_party/ST/STM32L4xx_HAL_Driver/Src/stm32l4xx_hal_pwr_ex.c **** 
 290:/home/fanxinhao/Work/LiteOS_Lab/drivers/third_party/ST/STM32L4xx_HAL_Driver/Src/stm32l4xx_hal_pwr_ex.c **** /**
 291:/home/fanxinhao/Work/LiteOS_Lab/drivers/third_party/ST/STM32L4xx_HAL_Driver/Src/stm32l4xx_hal_pwr_ex.c ****   * @brief Enable battery charging.
 292:/home/fanxinhao/Work/LiteOS_Lab/drivers/third_party/ST/STM32L4xx_HAL_Driver/Src/stm32l4xx_hal_pwr_ex.c ****   *        When VDD is present, charge the external battery on VBAT thru an internal resistor.  
 293:/home/fanxinhao/Work/LiteOS_Lab/drivers/third_party/ST/STM32L4xx_HAL_Driver/Src/stm32l4xx_hal_pwr_ex.c ****   * @param  ResistorSelection: specifies the resistor impedance.
 294:/home/fanxinhao/Work/LiteOS_Lab/drivers/third_party/ST/STM32L4xx_HAL_Driver/Src/stm32l4xx_hal_pwr_ex.c ****   *          This parameter can be one of the following values:
 295:/home/fanxinhao/Work/LiteOS_Lab/drivers/third_party/ST/STM32L4xx_HAL_Driver/Src/stm32l4xx_hal_pwr_ex.c ****   *            @arg @ref PWR_BATTERY_CHARGING_RESISTOR_5     5 kOhms resistor
 296:/home/fanxinhao/Work/LiteOS_Lab/drivers/third_party/ST/STM32L4xx_HAL_Driver/Src/stm32l4xx_hal_pwr_ex.c ****   *            @arg @ref PWR_BATTERY_CHARGING_RESISTOR_1_5 1.5 kOhms resistor 
 297:/home/fanxinhao/Work/LiteOS_Lab/drivers/third_party/ST/STM32L4xx_HAL_Driver/Src/stm32l4xx_hal_pwr_ex.c ****   * @retval None
 298:/home/fanxinhao/Work/LiteOS_Lab/drivers/third_party/ST/STM32L4xx_HAL_Driver/Src/stm32l4xx_hal_pwr_ex.c ****   */
 299:/home/fanxinhao/Work/LiteOS_Lab/drivers/third_party/ST/STM32L4xx_HAL_Driver/Src/stm32l4xx_hal_pwr_ex.c **** void HAL_PWREx_EnableBatteryCharging(uint32_t ResistorSelection)
 300:/home/fanxinhao/Work/LiteOS_Lab/drivers/third_party/ST/STM32L4xx_HAL_Driver/Src/stm32l4xx_hal_pwr_ex.c **** {
 203              		.loc 1 300 1
 204              		.cfi_startproc
 205              		@ args = 0, pretend = 0, frame = 8
 206              		@ frame_needed = 1, uses_anonymous_args = 0
 207              		@ link register save eliminated.
 208 0000 80B4     		push	{r7}
 209              	.LCFI10:
 210              		.cfi_def_cfa_offset 4
 211              		.cfi_offset 7, -4
 212 0002 83B0     		sub	sp, sp, #12
 213              	.LCFI11:
 214              		.cfi_def_cfa_offset 16
 215 0004 00AF     		add	r7, sp, #0
ARM GAS  /tmp/ccwGjgVI.s 			page 10


 216              	.LCFI12:
 217              		.cfi_def_cfa_register 7
 218 0006 7860     		str	r0, [r7, #4]
 301:/home/fanxinhao/Work/LiteOS_Lab/drivers/third_party/ST/STM32L4xx_HAL_Driver/Src/stm32l4xx_hal_pwr_ex.c ****   assert_param(IS_PWR_BATTERY_RESISTOR_SELECT(ResistorSelection));
 302:/home/fanxinhao/Work/LiteOS_Lab/drivers/third_party/ST/STM32L4xx_HAL_Driver/Src/stm32l4xx_hal_pwr_ex.c ****   
 303:/home/fanxinhao/Work/LiteOS_Lab/drivers/third_party/ST/STM32L4xx_HAL_Driver/Src/stm32l4xx_hal_pwr_ex.c ****   /* Specify resistor selection */
 304:/home/fanxinhao/Work/LiteOS_Lab/drivers/third_party/ST/STM32L4xx_HAL_Driver/Src/stm32l4xx_hal_pwr_ex.c ****   MODIFY_REG(PWR->CR4, PWR_CR4_VBRS, ResistorSelection);
 219              		.loc 1 304 3
 220 0008 094B     		ldr	r3, .L15
 221 000a DB68     		ldr	r3, [r3, #12]
 222 000c 23F40072 		bic	r2, r3, #512
 223 0010 0749     		ldr	r1, .L15
 224 0012 7B68     		ldr	r3, [r7, #4]
 225 0014 1343     		orrs	r3, r3, r2
 226 0016 CB60     		str	r3, [r1, #12]
 305:/home/fanxinhao/Work/LiteOS_Lab/drivers/third_party/ST/STM32L4xx_HAL_Driver/Src/stm32l4xx_hal_pwr_ex.c ****   
 306:/home/fanxinhao/Work/LiteOS_Lab/drivers/third_party/ST/STM32L4xx_HAL_Driver/Src/stm32l4xx_hal_pwr_ex.c ****   /* Enable battery charging */
 307:/home/fanxinhao/Work/LiteOS_Lab/drivers/third_party/ST/STM32L4xx_HAL_Driver/Src/stm32l4xx_hal_pwr_ex.c ****   SET_BIT(PWR->CR4, PWR_CR4_VBE);
 227              		.loc 1 307 3
 228 0018 054B     		ldr	r3, .L15
 229 001a DB68     		ldr	r3, [r3, #12]
 230 001c 044A     		ldr	r2, .L15
 231 001e 43F48073 		orr	r3, r3, #256
 232 0022 D360     		str	r3, [r2, #12]
 308:/home/fanxinhao/Work/LiteOS_Lab/drivers/third_party/ST/STM32L4xx_HAL_Driver/Src/stm32l4xx_hal_pwr_ex.c **** }
 233              		.loc 1 308 1
 234 0024 00BF     		nop
 235 0026 0C37     		adds	r7, r7, #12
 236              	.LCFI13:
 237              		.cfi_def_cfa_offset 4
 238 0028 BD46     		mov	sp, r7
 239              	.LCFI14:
 240              		.cfi_def_cfa_register 13
 241              		@ sp needed
 242 002a 5DF8047B 		ldr	r7, [sp], #4
 243              	.LCFI15:
 244              		.cfi_restore 7
 245              		.cfi_def_cfa_offset 0
 246 002e 7047     		bx	lr
 247              	.L16:
 248              		.align	2
 249              	.L15:
 250 0030 00700040 		.word	1073770496
 251              		.cfi_endproc
 252              	.LFE128:
 254              		.section	.text.HAL_PWREx_DisableBatteryCharging,"ax",%progbits
 255              		.align	1
 256              		.global	HAL_PWREx_DisableBatteryCharging
 257              		.syntax unified
 258              		.thumb
 259              		.thumb_func
 260              		.fpu fpv4-sp-d16
 262              	HAL_PWREx_DisableBatteryCharging:
 263              	.LFB129:
 309:/home/fanxinhao/Work/LiteOS_Lab/drivers/third_party/ST/STM32L4xx_HAL_Driver/Src/stm32l4xx_hal_pwr_ex.c **** 
 310:/home/fanxinhao/Work/LiteOS_Lab/drivers/third_party/ST/STM32L4xx_HAL_Driver/Src/stm32l4xx_hal_pwr_ex.c **** 
 311:/home/fanxinhao/Work/LiteOS_Lab/drivers/third_party/ST/STM32L4xx_HAL_Driver/Src/stm32l4xx_hal_pwr_ex.c **** /**
ARM GAS  /tmp/ccwGjgVI.s 			page 11


 312:/home/fanxinhao/Work/LiteOS_Lab/drivers/third_party/ST/STM32L4xx_HAL_Driver/Src/stm32l4xx_hal_pwr_ex.c ****   * @brief Disable battery charging.  
 313:/home/fanxinhao/Work/LiteOS_Lab/drivers/third_party/ST/STM32L4xx_HAL_Driver/Src/stm32l4xx_hal_pwr_ex.c ****   * @retval None
 314:/home/fanxinhao/Work/LiteOS_Lab/drivers/third_party/ST/STM32L4xx_HAL_Driver/Src/stm32l4xx_hal_pwr_ex.c ****   */
 315:/home/fanxinhao/Work/LiteOS_Lab/drivers/third_party/ST/STM32L4xx_HAL_Driver/Src/stm32l4xx_hal_pwr_ex.c **** void HAL_PWREx_DisableBatteryCharging(void)
 316:/home/fanxinhao/Work/LiteOS_Lab/drivers/third_party/ST/STM32L4xx_HAL_Driver/Src/stm32l4xx_hal_pwr_ex.c **** {
 264              		.loc 1 316 1
 265              		.cfi_startproc
 266              		@ args = 0, pretend = 0, frame = 0
 267              		@ frame_needed = 1, uses_anonymous_args = 0
 268              		@ link register save eliminated.
 269 0000 80B4     		push	{r7}
 270              	.LCFI16:
 271              		.cfi_def_cfa_offset 4
 272              		.cfi_offset 7, -4
 273 0002 00AF     		add	r7, sp, #0
 274              	.LCFI17:
 275              		.cfi_def_cfa_register 7
 317:/home/fanxinhao/Work/LiteOS_Lab/drivers/third_party/ST/STM32L4xx_HAL_Driver/Src/stm32l4xx_hal_pwr_ex.c ****   CLEAR_BIT(PWR->CR4, PWR_CR4_VBE); 
 276              		.loc 1 317 3
 277 0004 054B     		ldr	r3, .L18
 278 0006 DB68     		ldr	r3, [r3, #12]
 279 0008 044A     		ldr	r2, .L18
 280 000a 23F48073 		bic	r3, r3, #256
 281 000e D360     		str	r3, [r2, #12]
 318:/home/fanxinhao/Work/LiteOS_Lab/drivers/third_party/ST/STM32L4xx_HAL_Driver/Src/stm32l4xx_hal_pwr_ex.c **** }  
 282              		.loc 1 318 1
 283 0010 00BF     		nop
 284 0012 BD46     		mov	sp, r7
 285              	.LCFI18:
 286              		.cfi_def_cfa_register 13
 287              		@ sp needed
 288 0014 5DF8047B 		ldr	r7, [sp], #4
 289              	.LCFI19:
 290              		.cfi_restore 7
 291              		.cfi_def_cfa_offset 0
 292 0018 7047     		bx	lr
 293              	.L19:
 294 001a 00BF     		.align	2
 295              	.L18:
 296 001c 00700040 		.word	1073770496
 297              		.cfi_endproc
 298              	.LFE129:
 300              		.section	.text.HAL_PWREx_EnableVddUSB,"ax",%progbits
 301              		.align	1
 302              		.global	HAL_PWREx_EnableVddUSB
 303              		.syntax unified
 304              		.thumb
 305              		.thumb_func
 306              		.fpu fpv4-sp-d16
 308              	HAL_PWREx_EnableVddUSB:
 309              	.LFB130:
 319:/home/fanxinhao/Work/LiteOS_Lab/drivers/third_party/ST/STM32L4xx_HAL_Driver/Src/stm32l4xx_hal_pwr_ex.c **** 
 320:/home/fanxinhao/Work/LiteOS_Lab/drivers/third_party/ST/STM32L4xx_HAL_Driver/Src/stm32l4xx_hal_pwr_ex.c **** 
 321:/home/fanxinhao/Work/LiteOS_Lab/drivers/third_party/ST/STM32L4xx_HAL_Driver/Src/stm32l4xx_hal_pwr_ex.c **** #if defined(PWR_CR2_USV)
 322:/home/fanxinhao/Work/LiteOS_Lab/drivers/third_party/ST/STM32L4xx_HAL_Driver/Src/stm32l4xx_hal_pwr_ex.c **** /**
 323:/home/fanxinhao/Work/LiteOS_Lab/drivers/third_party/ST/STM32L4xx_HAL_Driver/Src/stm32l4xx_hal_pwr_ex.c ****   * @brief Enable VDDUSB supply. 
 324:/home/fanxinhao/Work/LiteOS_Lab/drivers/third_party/ST/STM32L4xx_HAL_Driver/Src/stm32l4xx_hal_pwr_ex.c ****   * @note  Remove VDDUSB electrical and logical isolation, once VDDUSB supply is present.  
ARM GAS  /tmp/ccwGjgVI.s 			page 12


 325:/home/fanxinhao/Work/LiteOS_Lab/drivers/third_party/ST/STM32L4xx_HAL_Driver/Src/stm32l4xx_hal_pwr_ex.c ****   * @retval None
 326:/home/fanxinhao/Work/LiteOS_Lab/drivers/third_party/ST/STM32L4xx_HAL_Driver/Src/stm32l4xx_hal_pwr_ex.c ****   */
 327:/home/fanxinhao/Work/LiteOS_Lab/drivers/third_party/ST/STM32L4xx_HAL_Driver/Src/stm32l4xx_hal_pwr_ex.c **** void HAL_PWREx_EnableVddUSB(void)
 328:/home/fanxinhao/Work/LiteOS_Lab/drivers/third_party/ST/STM32L4xx_HAL_Driver/Src/stm32l4xx_hal_pwr_ex.c **** {
 310              		.loc 1 328 1
 311              		.cfi_startproc
 312              		@ args = 0, pretend = 0, frame = 0
 313              		@ frame_needed = 1, uses_anonymous_args = 0
 314              		@ link register save eliminated.
 315 0000 80B4     		push	{r7}
 316              	.LCFI20:
 317              		.cfi_def_cfa_offset 4
 318              		.cfi_offset 7, -4
 319 0002 00AF     		add	r7, sp, #0
 320              	.LCFI21:
 321              		.cfi_def_cfa_register 7
 329:/home/fanxinhao/Work/LiteOS_Lab/drivers/third_party/ST/STM32L4xx_HAL_Driver/Src/stm32l4xx_hal_pwr_ex.c ****   SET_BIT(PWR->CR2, PWR_CR2_USV);
 322              		.loc 1 329 3
 323 0004 054B     		ldr	r3, .L21
 324 0006 5B68     		ldr	r3, [r3, #4]
 325 0008 044A     		ldr	r2, .L21
 326 000a 43F48063 		orr	r3, r3, #1024
 327 000e 5360     		str	r3, [r2, #4]
 330:/home/fanxinhao/Work/LiteOS_Lab/drivers/third_party/ST/STM32L4xx_HAL_Driver/Src/stm32l4xx_hal_pwr_ex.c **** }
 328              		.loc 1 330 1
 329 0010 00BF     		nop
 330 0012 BD46     		mov	sp, r7
 331              	.LCFI22:
 332              		.cfi_def_cfa_register 13
 333              		@ sp needed
 334 0014 5DF8047B 		ldr	r7, [sp], #4
 335              	.LCFI23:
 336              		.cfi_restore 7
 337              		.cfi_def_cfa_offset 0
 338 0018 7047     		bx	lr
 339              	.L22:
 340 001a 00BF     		.align	2
 341              	.L21:
 342 001c 00700040 		.word	1073770496
 343              		.cfi_endproc
 344              	.LFE130:
 346              		.section	.text.HAL_PWREx_DisableVddUSB,"ax",%progbits
 347              		.align	1
 348              		.global	HAL_PWREx_DisableVddUSB
 349              		.syntax unified
 350              		.thumb
 351              		.thumb_func
 352              		.fpu fpv4-sp-d16
 354              	HAL_PWREx_DisableVddUSB:
 355              	.LFB131:
 331:/home/fanxinhao/Work/LiteOS_Lab/drivers/third_party/ST/STM32L4xx_HAL_Driver/Src/stm32l4xx_hal_pwr_ex.c **** 
 332:/home/fanxinhao/Work/LiteOS_Lab/drivers/third_party/ST/STM32L4xx_HAL_Driver/Src/stm32l4xx_hal_pwr_ex.c **** 
 333:/home/fanxinhao/Work/LiteOS_Lab/drivers/third_party/ST/STM32L4xx_HAL_Driver/Src/stm32l4xx_hal_pwr_ex.c **** /**
 334:/home/fanxinhao/Work/LiteOS_Lab/drivers/third_party/ST/STM32L4xx_HAL_Driver/Src/stm32l4xx_hal_pwr_ex.c ****   * @brief Disable VDDUSB supply. 
 335:/home/fanxinhao/Work/LiteOS_Lab/drivers/third_party/ST/STM32L4xx_HAL_Driver/Src/stm32l4xx_hal_pwr_ex.c ****   * @retval None
 336:/home/fanxinhao/Work/LiteOS_Lab/drivers/third_party/ST/STM32L4xx_HAL_Driver/Src/stm32l4xx_hal_pwr_ex.c ****   */
 337:/home/fanxinhao/Work/LiteOS_Lab/drivers/third_party/ST/STM32L4xx_HAL_Driver/Src/stm32l4xx_hal_pwr_ex.c **** void HAL_PWREx_DisableVddUSB(void)
ARM GAS  /tmp/ccwGjgVI.s 			page 13


 338:/home/fanxinhao/Work/LiteOS_Lab/drivers/third_party/ST/STM32L4xx_HAL_Driver/Src/stm32l4xx_hal_pwr_ex.c **** {
 356              		.loc 1 338 1
 357              		.cfi_startproc
 358              		@ args = 0, pretend = 0, frame = 0
 359              		@ frame_needed = 1, uses_anonymous_args = 0
 360              		@ link register save eliminated.
 361 0000 80B4     		push	{r7}
 362              	.LCFI24:
 363              		.cfi_def_cfa_offset 4
 364              		.cfi_offset 7, -4
 365 0002 00AF     		add	r7, sp, #0
 366              	.LCFI25:
 367              		.cfi_def_cfa_register 7
 339:/home/fanxinhao/Work/LiteOS_Lab/drivers/third_party/ST/STM32L4xx_HAL_Driver/Src/stm32l4xx_hal_pwr_ex.c ****   CLEAR_BIT(PWR->CR2, PWR_CR2_USV);
 368              		.loc 1 339 3
 369 0004 054B     		ldr	r3, .L24
 370 0006 5B68     		ldr	r3, [r3, #4]
 371 0008 044A     		ldr	r2, .L24
 372 000a 23F48063 		bic	r3, r3, #1024
 373 000e 5360     		str	r3, [r2, #4]
 340:/home/fanxinhao/Work/LiteOS_Lab/drivers/third_party/ST/STM32L4xx_HAL_Driver/Src/stm32l4xx_hal_pwr_ex.c **** }
 374              		.loc 1 340 1
 375 0010 00BF     		nop
 376 0012 BD46     		mov	sp, r7
 377              	.LCFI26:
 378              		.cfi_def_cfa_register 13
 379              		@ sp needed
 380 0014 5DF8047B 		ldr	r7, [sp], #4
 381              	.LCFI27:
 382              		.cfi_restore 7
 383              		.cfi_def_cfa_offset 0
 384 0018 7047     		bx	lr
 385              	.L25:
 386 001a 00BF     		.align	2
 387              	.L24:
 388 001c 00700040 		.word	1073770496
 389              		.cfi_endproc
 390              	.LFE131:
 392              		.section	.text.HAL_PWREx_EnableVddIO2,"ax",%progbits
 393              		.align	1
 394              		.global	HAL_PWREx_EnableVddIO2
 395              		.syntax unified
 396              		.thumb
 397              		.thumb_func
 398              		.fpu fpv4-sp-d16
 400              	HAL_PWREx_EnableVddIO2:
 401              	.LFB132:
 341:/home/fanxinhao/Work/LiteOS_Lab/drivers/third_party/ST/STM32L4xx_HAL_Driver/Src/stm32l4xx_hal_pwr_ex.c **** #endif /* PWR_CR2_USV */
 342:/home/fanxinhao/Work/LiteOS_Lab/drivers/third_party/ST/STM32L4xx_HAL_Driver/Src/stm32l4xx_hal_pwr_ex.c **** 
 343:/home/fanxinhao/Work/LiteOS_Lab/drivers/third_party/ST/STM32L4xx_HAL_Driver/Src/stm32l4xx_hal_pwr_ex.c **** #if defined(PWR_CR2_IOSV)
 344:/home/fanxinhao/Work/LiteOS_Lab/drivers/third_party/ST/STM32L4xx_HAL_Driver/Src/stm32l4xx_hal_pwr_ex.c **** /**
 345:/home/fanxinhao/Work/LiteOS_Lab/drivers/third_party/ST/STM32L4xx_HAL_Driver/Src/stm32l4xx_hal_pwr_ex.c ****   * @brief Enable VDDIO2 supply. 
 346:/home/fanxinhao/Work/LiteOS_Lab/drivers/third_party/ST/STM32L4xx_HAL_Driver/Src/stm32l4xx_hal_pwr_ex.c ****   * @note  Remove VDDIO2 electrical and logical isolation, once VDDIO2 supply is present. 
 347:/home/fanxinhao/Work/LiteOS_Lab/drivers/third_party/ST/STM32L4xx_HAL_Driver/Src/stm32l4xx_hal_pwr_ex.c ****   * @retval None
 348:/home/fanxinhao/Work/LiteOS_Lab/drivers/third_party/ST/STM32L4xx_HAL_Driver/Src/stm32l4xx_hal_pwr_ex.c ****   */
 349:/home/fanxinhao/Work/LiteOS_Lab/drivers/third_party/ST/STM32L4xx_HAL_Driver/Src/stm32l4xx_hal_pwr_ex.c **** void HAL_PWREx_EnableVddIO2(void)
 350:/home/fanxinhao/Work/LiteOS_Lab/drivers/third_party/ST/STM32L4xx_HAL_Driver/Src/stm32l4xx_hal_pwr_ex.c **** {
ARM GAS  /tmp/ccwGjgVI.s 			page 14


 402              		.loc 1 350 1
 403              		.cfi_startproc
 404              		@ args = 0, pretend = 0, frame = 0
 405              		@ frame_needed = 1, uses_anonymous_args = 0
 406              		@ link register save eliminated.
 407 0000 80B4     		push	{r7}
 408              	.LCFI28:
 409              		.cfi_def_cfa_offset 4
 410              		.cfi_offset 7, -4
 411 0002 00AF     		add	r7, sp, #0
 412              	.LCFI29:
 413              		.cfi_def_cfa_register 7
 351:/home/fanxinhao/Work/LiteOS_Lab/drivers/third_party/ST/STM32L4xx_HAL_Driver/Src/stm32l4xx_hal_pwr_ex.c ****   SET_BIT(PWR->CR2, PWR_CR2_IOSV);
 414              		.loc 1 351 3
 415 0004 054B     		ldr	r3, .L27
 416 0006 5B68     		ldr	r3, [r3, #4]
 417 0008 044A     		ldr	r2, .L27
 418 000a 43F40073 		orr	r3, r3, #512
 419 000e 5360     		str	r3, [r2, #4]
 352:/home/fanxinhao/Work/LiteOS_Lab/drivers/third_party/ST/STM32L4xx_HAL_Driver/Src/stm32l4xx_hal_pwr_ex.c **** }
 420              		.loc 1 352 1
 421 0010 00BF     		nop
 422 0012 BD46     		mov	sp, r7
 423              	.LCFI30:
 424              		.cfi_def_cfa_register 13
 425              		@ sp needed
 426 0014 5DF8047B 		ldr	r7, [sp], #4
 427              	.LCFI31:
 428              		.cfi_restore 7
 429              		.cfi_def_cfa_offset 0
 430 0018 7047     		bx	lr
 431              	.L28:
 432 001a 00BF     		.align	2
 433              	.L27:
 434 001c 00700040 		.word	1073770496
 435              		.cfi_endproc
 436              	.LFE132:
 438              		.section	.text.HAL_PWREx_DisableVddIO2,"ax",%progbits
 439              		.align	1
 440              		.global	HAL_PWREx_DisableVddIO2
 441              		.syntax unified
 442              		.thumb
 443              		.thumb_func
 444              		.fpu fpv4-sp-d16
 446              	HAL_PWREx_DisableVddIO2:
 447              	.LFB133:
 353:/home/fanxinhao/Work/LiteOS_Lab/drivers/third_party/ST/STM32L4xx_HAL_Driver/Src/stm32l4xx_hal_pwr_ex.c **** 
 354:/home/fanxinhao/Work/LiteOS_Lab/drivers/third_party/ST/STM32L4xx_HAL_Driver/Src/stm32l4xx_hal_pwr_ex.c **** 
 355:/home/fanxinhao/Work/LiteOS_Lab/drivers/third_party/ST/STM32L4xx_HAL_Driver/Src/stm32l4xx_hal_pwr_ex.c **** /**
 356:/home/fanxinhao/Work/LiteOS_Lab/drivers/third_party/ST/STM32L4xx_HAL_Driver/Src/stm32l4xx_hal_pwr_ex.c ****   * @brief Disable VDDIO2 supply. 
 357:/home/fanxinhao/Work/LiteOS_Lab/drivers/third_party/ST/STM32L4xx_HAL_Driver/Src/stm32l4xx_hal_pwr_ex.c ****   * @retval None
 358:/home/fanxinhao/Work/LiteOS_Lab/drivers/third_party/ST/STM32L4xx_HAL_Driver/Src/stm32l4xx_hal_pwr_ex.c ****   */
 359:/home/fanxinhao/Work/LiteOS_Lab/drivers/third_party/ST/STM32L4xx_HAL_Driver/Src/stm32l4xx_hal_pwr_ex.c **** void HAL_PWREx_DisableVddIO2(void)
 360:/home/fanxinhao/Work/LiteOS_Lab/drivers/third_party/ST/STM32L4xx_HAL_Driver/Src/stm32l4xx_hal_pwr_ex.c **** {
 448              		.loc 1 360 1
 449              		.cfi_startproc
 450              		@ args = 0, pretend = 0, frame = 0
ARM GAS  /tmp/ccwGjgVI.s 			page 15


 451              		@ frame_needed = 1, uses_anonymous_args = 0
 452              		@ link register save eliminated.
 453 0000 80B4     		push	{r7}
 454              	.LCFI32:
 455              		.cfi_def_cfa_offset 4
 456              		.cfi_offset 7, -4
 457 0002 00AF     		add	r7, sp, #0
 458              	.LCFI33:
 459              		.cfi_def_cfa_register 7
 361:/home/fanxinhao/Work/LiteOS_Lab/drivers/third_party/ST/STM32L4xx_HAL_Driver/Src/stm32l4xx_hal_pwr_ex.c ****   CLEAR_BIT(PWR->CR2, PWR_CR2_IOSV);
 460              		.loc 1 361 3
 461 0004 054B     		ldr	r3, .L30
 462 0006 5B68     		ldr	r3, [r3, #4]
 463 0008 044A     		ldr	r2, .L30
 464 000a 23F40073 		bic	r3, r3, #512
 465 000e 5360     		str	r3, [r2, #4]
 362:/home/fanxinhao/Work/LiteOS_Lab/drivers/third_party/ST/STM32L4xx_HAL_Driver/Src/stm32l4xx_hal_pwr_ex.c **** }
 466              		.loc 1 362 1
 467 0010 00BF     		nop
 468 0012 BD46     		mov	sp, r7
 469              	.LCFI34:
 470              		.cfi_def_cfa_register 13
 471              		@ sp needed
 472 0014 5DF8047B 		ldr	r7, [sp], #4
 473              	.LCFI35:
 474              		.cfi_restore 7
 475              		.cfi_def_cfa_offset 0
 476 0018 7047     		bx	lr
 477              	.L31:
 478 001a 00BF     		.align	2
 479              	.L30:
 480 001c 00700040 		.word	1073770496
 481              		.cfi_endproc
 482              	.LFE133:
 484              		.section	.text.HAL_PWREx_EnableInternalWakeUpLine,"ax",%progbits
 485              		.align	1
 486              		.global	HAL_PWREx_EnableInternalWakeUpLine
 487              		.syntax unified
 488              		.thumb
 489              		.thumb_func
 490              		.fpu fpv4-sp-d16
 492              	HAL_PWREx_EnableInternalWakeUpLine:
 493              	.LFB134:
 363:/home/fanxinhao/Work/LiteOS_Lab/drivers/third_party/ST/STM32L4xx_HAL_Driver/Src/stm32l4xx_hal_pwr_ex.c **** #endif /* PWR_CR2_IOSV */
 364:/home/fanxinhao/Work/LiteOS_Lab/drivers/third_party/ST/STM32L4xx_HAL_Driver/Src/stm32l4xx_hal_pwr_ex.c **** 
 365:/home/fanxinhao/Work/LiteOS_Lab/drivers/third_party/ST/STM32L4xx_HAL_Driver/Src/stm32l4xx_hal_pwr_ex.c **** 
 366:/home/fanxinhao/Work/LiteOS_Lab/drivers/third_party/ST/STM32L4xx_HAL_Driver/Src/stm32l4xx_hal_pwr_ex.c **** /**
 367:/home/fanxinhao/Work/LiteOS_Lab/drivers/third_party/ST/STM32L4xx_HAL_Driver/Src/stm32l4xx_hal_pwr_ex.c ****   * @brief Enable Internal Wake-up Line. 
 368:/home/fanxinhao/Work/LiteOS_Lab/drivers/third_party/ST/STM32L4xx_HAL_Driver/Src/stm32l4xx_hal_pwr_ex.c ****   * @retval None
 369:/home/fanxinhao/Work/LiteOS_Lab/drivers/third_party/ST/STM32L4xx_HAL_Driver/Src/stm32l4xx_hal_pwr_ex.c ****   */
 370:/home/fanxinhao/Work/LiteOS_Lab/drivers/third_party/ST/STM32L4xx_HAL_Driver/Src/stm32l4xx_hal_pwr_ex.c **** void HAL_PWREx_EnableInternalWakeUpLine(void)
 371:/home/fanxinhao/Work/LiteOS_Lab/drivers/third_party/ST/STM32L4xx_HAL_Driver/Src/stm32l4xx_hal_pwr_ex.c **** {
 494              		.loc 1 371 1
 495              		.cfi_startproc
 496              		@ args = 0, pretend = 0, frame = 0
 497              		@ frame_needed = 1, uses_anonymous_args = 0
 498              		@ link register save eliminated.
ARM GAS  /tmp/ccwGjgVI.s 			page 16


 499 0000 80B4     		push	{r7}
 500              	.LCFI36:
 501              		.cfi_def_cfa_offset 4
 502              		.cfi_offset 7, -4
 503 0002 00AF     		add	r7, sp, #0
 504              	.LCFI37:
 505              		.cfi_def_cfa_register 7
 372:/home/fanxinhao/Work/LiteOS_Lab/drivers/third_party/ST/STM32L4xx_HAL_Driver/Src/stm32l4xx_hal_pwr_ex.c ****   SET_BIT(PWR->CR3, PWR_CR3_EIWF);
 506              		.loc 1 372 3
 507 0004 054B     		ldr	r3, .L33
 508 0006 9B68     		ldr	r3, [r3, #8]
 509 0008 044A     		ldr	r2, .L33
 510 000a 43F40043 		orr	r3, r3, #32768
 511 000e 9360     		str	r3, [r2, #8]
 373:/home/fanxinhao/Work/LiteOS_Lab/drivers/third_party/ST/STM32L4xx_HAL_Driver/Src/stm32l4xx_hal_pwr_ex.c **** }
 512              		.loc 1 373 1
 513 0010 00BF     		nop
 514 0012 BD46     		mov	sp, r7
 515              	.LCFI38:
 516              		.cfi_def_cfa_register 13
 517              		@ sp needed
 518 0014 5DF8047B 		ldr	r7, [sp], #4
 519              	.LCFI39:
 520              		.cfi_restore 7
 521              		.cfi_def_cfa_offset 0
 522 0018 7047     		bx	lr
 523              	.L34:
 524 001a 00BF     		.align	2
 525              	.L33:
 526 001c 00700040 		.word	1073770496
 527              		.cfi_endproc
 528              	.LFE134:
 530              		.section	.text.HAL_PWREx_DisableInternalWakeUpLine,"ax",%progbits
 531              		.align	1
 532              		.global	HAL_PWREx_DisableInternalWakeUpLine
 533              		.syntax unified
 534              		.thumb
 535              		.thumb_func
 536              		.fpu fpv4-sp-d16
 538              	HAL_PWREx_DisableInternalWakeUpLine:
 539              	.LFB135:
 374:/home/fanxinhao/Work/LiteOS_Lab/drivers/third_party/ST/STM32L4xx_HAL_Driver/Src/stm32l4xx_hal_pwr_ex.c **** 
 375:/home/fanxinhao/Work/LiteOS_Lab/drivers/third_party/ST/STM32L4xx_HAL_Driver/Src/stm32l4xx_hal_pwr_ex.c **** 
 376:/home/fanxinhao/Work/LiteOS_Lab/drivers/third_party/ST/STM32L4xx_HAL_Driver/Src/stm32l4xx_hal_pwr_ex.c **** /**
 377:/home/fanxinhao/Work/LiteOS_Lab/drivers/third_party/ST/STM32L4xx_HAL_Driver/Src/stm32l4xx_hal_pwr_ex.c ****   * @brief Disable Internal Wake-up Line. 
 378:/home/fanxinhao/Work/LiteOS_Lab/drivers/third_party/ST/STM32L4xx_HAL_Driver/Src/stm32l4xx_hal_pwr_ex.c ****   * @retval None
 379:/home/fanxinhao/Work/LiteOS_Lab/drivers/third_party/ST/STM32L4xx_HAL_Driver/Src/stm32l4xx_hal_pwr_ex.c ****   */
 380:/home/fanxinhao/Work/LiteOS_Lab/drivers/third_party/ST/STM32L4xx_HAL_Driver/Src/stm32l4xx_hal_pwr_ex.c **** void HAL_PWREx_DisableInternalWakeUpLine(void)
 381:/home/fanxinhao/Work/LiteOS_Lab/drivers/third_party/ST/STM32L4xx_HAL_Driver/Src/stm32l4xx_hal_pwr_ex.c **** {
 540              		.loc 1 381 1
 541              		.cfi_startproc
 542              		@ args = 0, pretend = 0, frame = 0
 543              		@ frame_needed = 1, uses_anonymous_args = 0
 544              		@ link register save eliminated.
 545 0000 80B4     		push	{r7}
 546              	.LCFI40:
 547              		.cfi_def_cfa_offset 4
ARM GAS  /tmp/ccwGjgVI.s 			page 17


 548              		.cfi_offset 7, -4
 549 0002 00AF     		add	r7, sp, #0
 550              	.LCFI41:
 551              		.cfi_def_cfa_register 7
 382:/home/fanxinhao/Work/LiteOS_Lab/drivers/third_party/ST/STM32L4xx_HAL_Driver/Src/stm32l4xx_hal_pwr_ex.c ****   CLEAR_BIT(PWR->CR3, PWR_CR3_EIWF);
 552              		.loc 1 382 3
 553 0004 054B     		ldr	r3, .L36
 554 0006 9B68     		ldr	r3, [r3, #8]
 555 0008 044A     		ldr	r2, .L36
 556 000a 23F40043 		bic	r3, r3, #32768
 557 000e 9360     		str	r3, [r2, #8]
 383:/home/fanxinhao/Work/LiteOS_Lab/drivers/third_party/ST/STM32L4xx_HAL_Driver/Src/stm32l4xx_hal_pwr_ex.c **** }
 558              		.loc 1 383 1
 559 0010 00BF     		nop
 560 0012 BD46     		mov	sp, r7
 561              	.LCFI42:
 562              		.cfi_def_cfa_register 13
 563              		@ sp needed
 564 0014 5DF8047B 		ldr	r7, [sp], #4
 565              	.LCFI43:
 566              		.cfi_restore 7
 567              		.cfi_def_cfa_offset 0
 568 0018 7047     		bx	lr
 569              	.L37:
 570 001a 00BF     		.align	2
 571              	.L36:
 572 001c 00700040 		.word	1073770496
 573              		.cfi_endproc
 574              	.LFE135:
 576              		.section	.text.HAL_PWREx_EnableGPIOPullUp,"ax",%progbits
 577              		.align	1
 578              		.global	HAL_PWREx_EnableGPIOPullUp
 579              		.syntax unified
 580              		.thumb
 581              		.thumb_func
 582              		.fpu fpv4-sp-d16
 584              	HAL_PWREx_EnableGPIOPullUp:
 585              	.LFB136:
 384:/home/fanxinhao/Work/LiteOS_Lab/drivers/third_party/ST/STM32L4xx_HAL_Driver/Src/stm32l4xx_hal_pwr_ex.c **** 
 385:/home/fanxinhao/Work/LiteOS_Lab/drivers/third_party/ST/STM32L4xx_HAL_Driver/Src/stm32l4xx_hal_pwr_ex.c **** 
 386:/home/fanxinhao/Work/LiteOS_Lab/drivers/third_party/ST/STM32L4xx_HAL_Driver/Src/stm32l4xx_hal_pwr_ex.c **** 
 387:/home/fanxinhao/Work/LiteOS_Lab/drivers/third_party/ST/STM32L4xx_HAL_Driver/Src/stm32l4xx_hal_pwr_ex.c **** /**
 388:/home/fanxinhao/Work/LiteOS_Lab/drivers/third_party/ST/STM32L4xx_HAL_Driver/Src/stm32l4xx_hal_pwr_ex.c ****   * @brief Enable GPIO pull-up state in Standby and Shutdown modes.
 389:/home/fanxinhao/Work/LiteOS_Lab/drivers/third_party/ST/STM32L4xx_HAL_Driver/Src/stm32l4xx_hal_pwr_ex.c ****   * @note  Set the relevant PUy bits of PWR_PUCRx register to configure the I/O in 
 390:/home/fanxinhao/Work/LiteOS_Lab/drivers/third_party/ST/STM32L4xx_HAL_Driver/Src/stm32l4xx_hal_pwr_ex.c ****   *        pull-up state in Standby and Shutdown modes. 
 391:/home/fanxinhao/Work/LiteOS_Lab/drivers/third_party/ST/STM32L4xx_HAL_Driver/Src/stm32l4xx_hal_pwr_ex.c ****   * @note  This state is effective in Standby and Shutdown modes only if APC bit 
 392:/home/fanxinhao/Work/LiteOS_Lab/drivers/third_party/ST/STM32L4xx_HAL_Driver/Src/stm32l4xx_hal_pwr_ex.c ****   *        is set through HAL_PWREx_EnablePullUpPullDownConfig() API.
 393:/home/fanxinhao/Work/LiteOS_Lab/drivers/third_party/ST/STM32L4xx_HAL_Driver/Src/stm32l4xx_hal_pwr_ex.c ****   * @note  The configuration is lost when exiting the Shutdown mode due to the 
 394:/home/fanxinhao/Work/LiteOS_Lab/drivers/third_party/ST/STM32L4xx_HAL_Driver/Src/stm32l4xx_hal_pwr_ex.c ****   *        power-on reset, maintained when exiting the Standby mode. 
 395:/home/fanxinhao/Work/LiteOS_Lab/drivers/third_party/ST/STM32L4xx_HAL_Driver/Src/stm32l4xx_hal_pwr_ex.c ****   * @note  To avoid any conflict at Standby and Shutdown modes exits, the corresponding
 396:/home/fanxinhao/Work/LiteOS_Lab/drivers/third_party/ST/STM32L4xx_HAL_Driver/Src/stm32l4xx_hal_pwr_ex.c ****   *        PDy bit of PWR_PDCRx register is cleared unless it is reserved. 
 397:/home/fanxinhao/Work/LiteOS_Lab/drivers/third_party/ST/STM32L4xx_HAL_Driver/Src/stm32l4xx_hal_pwr_ex.c ****   * @note  Even if a PUy bit to set is reserved, the other PUy bits entered as input 
 398:/home/fanxinhao/Work/LiteOS_Lab/drivers/third_party/ST/STM32L4xx_HAL_Driver/Src/stm32l4xx_hal_pwr_ex.c ****   *        parameter at the same time are set.     
 399:/home/fanxinhao/Work/LiteOS_Lab/drivers/third_party/ST/STM32L4xx_HAL_Driver/Src/stm32l4xx_hal_pwr_ex.c ****   * @param  GPIO: Specify the IO port. This parameter can be PWR_GPIO_A, ..., PWR_GPIO_H 
 400:/home/fanxinhao/Work/LiteOS_Lab/drivers/third_party/ST/STM32L4xx_HAL_Driver/Src/stm32l4xx_hal_pwr_ex.c ****   *         (or PWR_GPIO_I depending on the devices) to select the GPIO peripheral.
 401:/home/fanxinhao/Work/LiteOS_Lab/drivers/third_party/ST/STM32L4xx_HAL_Driver/Src/stm32l4xx_hal_pwr_ex.c ****   * @param  GPIONumber: Specify the I/O pins numbers.
 402:/home/fanxinhao/Work/LiteOS_Lab/drivers/third_party/ST/STM32L4xx_HAL_Driver/Src/stm32l4xx_hal_pwr_ex.c ****   *         This parameter can be one of the following values:
ARM GAS  /tmp/ccwGjgVI.s 			page 18


 403:/home/fanxinhao/Work/LiteOS_Lab/drivers/third_party/ST/STM32L4xx_HAL_Driver/Src/stm32l4xx_hal_pwr_ex.c ****   *         PWR_GPIO_BIT_0, ..., PWR_GPIO_BIT_15 (except for the port where less  
 404:/home/fanxinhao/Work/LiteOS_Lab/drivers/third_party/ST/STM32L4xx_HAL_Driver/Src/stm32l4xx_hal_pwr_ex.c ****   *         I/O pins are available) or the logical OR of several of them to set 
 405:/home/fanxinhao/Work/LiteOS_Lab/drivers/third_party/ST/STM32L4xx_HAL_Driver/Src/stm32l4xx_hal_pwr_ex.c ****   *         several bits for a given port in a single API call.    
 406:/home/fanxinhao/Work/LiteOS_Lab/drivers/third_party/ST/STM32L4xx_HAL_Driver/Src/stm32l4xx_hal_pwr_ex.c ****   * @retval HAL Status
 407:/home/fanxinhao/Work/LiteOS_Lab/drivers/third_party/ST/STM32L4xx_HAL_Driver/Src/stm32l4xx_hal_pwr_ex.c ****   */   
 408:/home/fanxinhao/Work/LiteOS_Lab/drivers/third_party/ST/STM32L4xx_HAL_Driver/Src/stm32l4xx_hal_pwr_ex.c **** HAL_StatusTypeDef HAL_PWREx_EnableGPIOPullUp(uint32_t GPIO, uint32_t GPIONumber)
 409:/home/fanxinhao/Work/LiteOS_Lab/drivers/third_party/ST/STM32L4xx_HAL_Driver/Src/stm32l4xx_hal_pwr_ex.c **** {  
 586              		.loc 1 409 1
 587              		.cfi_startproc
 588              		@ args = 0, pretend = 0, frame = 8
 589              		@ frame_needed = 1, uses_anonymous_args = 0
 590              		@ link register save eliminated.
 591 0000 80B4     		push	{r7}
 592              	.LCFI44:
 593              		.cfi_def_cfa_offset 4
 594              		.cfi_offset 7, -4
 595 0002 83B0     		sub	sp, sp, #12
 596              	.LCFI45:
 597              		.cfi_def_cfa_offset 16
 598 0004 00AF     		add	r7, sp, #0
 599              	.LCFI46:
 600              		.cfi_def_cfa_register 7
 601 0006 7860     		str	r0, [r7, #4]
 602 0008 3960     		str	r1, [r7]
 603 000a 7B68     		ldr	r3, [r7, #4]
 604 000c 072B     		cmp	r3, #7
 605 000e 00F28D80 		bhi	.L39
 606 0012 01A2     		adr	r2, .L41
 607 0014 52F823F0 		ldr	pc, [r2, r3, lsl #2]
 608              		.p2align 2
 609              	.L41:
 610 0018 39000000 		.word	.L48+1
 611 001c 5D000000 		.word	.L47+1
 612 0020 7D000000 		.word	.L46+1
 613 0024 99000000 		.word	.L45+1
 614 0028 B5000000 		.word	.L44+1
 615 002c D1000000 		.word	.L43+1
 616 0030 ED000000 		.word	.L42+1
 617 0034 09010000 		.word	.L40+1
 618              		.p2align 1
 619              	.L48:
 410:/home/fanxinhao/Work/LiteOS_Lab/drivers/third_party/ST/STM32L4xx_HAL_Driver/Src/stm32l4xx_hal_pwr_ex.c ****   assert_param(IS_PWR_GPIO(GPIO));
 411:/home/fanxinhao/Work/LiteOS_Lab/drivers/third_party/ST/STM32L4xx_HAL_Driver/Src/stm32l4xx_hal_pwr_ex.c ****   assert_param(IS_PWR_GPIO_BIT_NUMBER(GPIONumber));
 412:/home/fanxinhao/Work/LiteOS_Lab/drivers/third_party/ST/STM32L4xx_HAL_Driver/Src/stm32l4xx_hal_pwr_ex.c **** 
 413:/home/fanxinhao/Work/LiteOS_Lab/drivers/third_party/ST/STM32L4xx_HAL_Driver/Src/stm32l4xx_hal_pwr_ex.c ****   switch (GPIO)
 414:/home/fanxinhao/Work/LiteOS_Lab/drivers/third_party/ST/STM32L4xx_HAL_Driver/Src/stm32l4xx_hal_pwr_ex.c ****   {
 415:/home/fanxinhao/Work/LiteOS_Lab/drivers/third_party/ST/STM32L4xx_HAL_Driver/Src/stm32l4xx_hal_pwr_ex.c ****     case PWR_GPIO_A:
 416:/home/fanxinhao/Work/LiteOS_Lab/drivers/third_party/ST/STM32L4xx_HAL_Driver/Src/stm32l4xx_hal_pwr_ex.c ****        SET_BIT(PWR->PUCRA, (GPIONumber & (~(PWR_GPIO_BIT_14))));
 620              		.loc 1 416 8
 621 0038 414B     		ldr	r3, .L51
 622 003a 1A6A     		ldr	r2, [r3, #32]
 623 003c 3B68     		ldr	r3, [r7]
 624 003e 23F48043 		bic	r3, r3, #16384
 625 0042 3F49     		ldr	r1, .L51
 626 0044 1343     		orrs	r3, r3, r2
 627 0046 0B62     		str	r3, [r1, #32]
 417:/home/fanxinhao/Work/LiteOS_Lab/drivers/third_party/ST/STM32L4xx_HAL_Driver/Src/stm32l4xx_hal_pwr_ex.c ****        CLEAR_BIT(PWR->PDCRA, (GPIONumber & (~(PWR_GPIO_BIT_13|PWR_GPIO_BIT_15))));
ARM GAS  /tmp/ccwGjgVI.s 			page 19


 628              		.loc 1 417 8
 629 0048 3D4B     		ldr	r3, .L51
 630 004a 5A6A     		ldr	r2, [r3, #36]
 631 004c 3B68     		ldr	r3, [r7]
 632 004e 23F42043 		bic	r3, r3, #40960
 633 0052 DB43     		mvns	r3, r3
 634 0054 3A49     		ldr	r1, .L51
 635 0056 1340     		ands	r3, r3, r2
 636 0058 4B62     		str	r3, [r1, #36]
 418:/home/fanxinhao/Work/LiteOS_Lab/drivers/third_party/ST/STM32L4xx_HAL_Driver/Src/stm32l4xx_hal_pwr_ex.c ****        break;
 637              		.loc 1 418 8
 638 005a 69E0     		b	.L49
 639              	.L47:
 419:/home/fanxinhao/Work/LiteOS_Lab/drivers/third_party/ST/STM32L4xx_HAL_Driver/Src/stm32l4xx_hal_pwr_ex.c ****     case PWR_GPIO_B:
 420:/home/fanxinhao/Work/LiteOS_Lab/drivers/third_party/ST/STM32L4xx_HAL_Driver/Src/stm32l4xx_hal_pwr_ex.c ****        SET_BIT(PWR->PUCRB, GPIONumber);
 640              		.loc 1 420 8
 641 005c 384B     		ldr	r3, .L51
 642 005e 9A6A     		ldr	r2, [r3, #40]
 643 0060 3749     		ldr	r1, .L51
 644 0062 3B68     		ldr	r3, [r7]
 645 0064 1343     		orrs	r3, r3, r2
 646 0066 8B62     		str	r3, [r1, #40]
 421:/home/fanxinhao/Work/LiteOS_Lab/drivers/third_party/ST/STM32L4xx_HAL_Driver/Src/stm32l4xx_hal_pwr_ex.c ****        CLEAR_BIT(PWR->PDCRB, (GPIONumber & (~(PWR_GPIO_BIT_4))));
 647              		.loc 1 421 8
 648 0068 354B     		ldr	r3, .L51
 649 006a DA6A     		ldr	r2, [r3, #44]
 650 006c 3B68     		ldr	r3, [r7]
 651 006e 23F01003 		bic	r3, r3, #16
 652 0072 DB43     		mvns	r3, r3
 653 0074 3249     		ldr	r1, .L51
 654 0076 1340     		ands	r3, r3, r2
 655 0078 CB62     		str	r3, [r1, #44]
 422:/home/fanxinhao/Work/LiteOS_Lab/drivers/third_party/ST/STM32L4xx_HAL_Driver/Src/stm32l4xx_hal_pwr_ex.c ****        break;
 656              		.loc 1 422 8
 657 007a 59E0     		b	.L49
 658              	.L46:
 423:/home/fanxinhao/Work/LiteOS_Lab/drivers/third_party/ST/STM32L4xx_HAL_Driver/Src/stm32l4xx_hal_pwr_ex.c ****     case PWR_GPIO_C:
 424:/home/fanxinhao/Work/LiteOS_Lab/drivers/third_party/ST/STM32L4xx_HAL_Driver/Src/stm32l4xx_hal_pwr_ex.c ****        SET_BIT(PWR->PUCRC, GPIONumber);
 659              		.loc 1 424 8
 660 007c 304B     		ldr	r3, .L51
 661 007e 1A6B     		ldr	r2, [r3, #48]
 662 0080 2F49     		ldr	r1, .L51
 663 0082 3B68     		ldr	r3, [r7]
 664 0084 1343     		orrs	r3, r3, r2
 665 0086 0B63     		str	r3, [r1, #48]
 425:/home/fanxinhao/Work/LiteOS_Lab/drivers/third_party/ST/STM32L4xx_HAL_Driver/Src/stm32l4xx_hal_pwr_ex.c ****        CLEAR_BIT(PWR->PDCRC, GPIONumber);
 666              		.loc 1 425 8
 667 0088 2D4B     		ldr	r3, .L51
 668 008a 5A6B     		ldr	r2, [r3, #52]
 669 008c 3B68     		ldr	r3, [r7]
 670 008e DB43     		mvns	r3, r3
 671 0090 2B49     		ldr	r1, .L51
 672 0092 1340     		ands	r3, r3, r2
 673 0094 4B63     		str	r3, [r1, #52]
 426:/home/fanxinhao/Work/LiteOS_Lab/drivers/third_party/ST/STM32L4xx_HAL_Driver/Src/stm32l4xx_hal_pwr_ex.c ****        break;
 674              		.loc 1 426 8
 675 0096 4BE0     		b	.L49
ARM GAS  /tmp/ccwGjgVI.s 			page 20


 676              	.L45:
 427:/home/fanxinhao/Work/LiteOS_Lab/drivers/third_party/ST/STM32L4xx_HAL_Driver/Src/stm32l4xx_hal_pwr_ex.c **** #if defined(GPIOD)
 428:/home/fanxinhao/Work/LiteOS_Lab/drivers/third_party/ST/STM32L4xx_HAL_Driver/Src/stm32l4xx_hal_pwr_ex.c ****     case PWR_GPIO_D:
 429:/home/fanxinhao/Work/LiteOS_Lab/drivers/third_party/ST/STM32L4xx_HAL_Driver/Src/stm32l4xx_hal_pwr_ex.c ****        SET_BIT(PWR->PUCRD, GPIONumber);
 677              		.loc 1 429 8
 678 0098 294B     		ldr	r3, .L51
 679 009a 9A6B     		ldr	r2, [r3, #56]
 680 009c 2849     		ldr	r1, .L51
 681 009e 3B68     		ldr	r3, [r7]
 682 00a0 1343     		orrs	r3, r3, r2
 683 00a2 8B63     		str	r3, [r1, #56]
 430:/home/fanxinhao/Work/LiteOS_Lab/drivers/third_party/ST/STM32L4xx_HAL_Driver/Src/stm32l4xx_hal_pwr_ex.c ****        CLEAR_BIT(PWR->PDCRD, GPIONumber);
 684              		.loc 1 430 8
 685 00a4 264B     		ldr	r3, .L51
 686 00a6 DA6B     		ldr	r2, [r3, #60]
 687 00a8 3B68     		ldr	r3, [r7]
 688 00aa DB43     		mvns	r3, r3
 689 00ac 2449     		ldr	r1, .L51
 690 00ae 1340     		ands	r3, r3, r2
 691 00b0 CB63     		str	r3, [r1, #60]
 431:/home/fanxinhao/Work/LiteOS_Lab/drivers/third_party/ST/STM32L4xx_HAL_Driver/Src/stm32l4xx_hal_pwr_ex.c ****        break;
 692              		.loc 1 431 8
 693 00b2 3DE0     		b	.L49
 694              	.L44:
 432:/home/fanxinhao/Work/LiteOS_Lab/drivers/third_party/ST/STM32L4xx_HAL_Driver/Src/stm32l4xx_hal_pwr_ex.c **** #endif
 433:/home/fanxinhao/Work/LiteOS_Lab/drivers/third_party/ST/STM32L4xx_HAL_Driver/Src/stm32l4xx_hal_pwr_ex.c **** #if defined(GPIOE)
 434:/home/fanxinhao/Work/LiteOS_Lab/drivers/third_party/ST/STM32L4xx_HAL_Driver/Src/stm32l4xx_hal_pwr_ex.c ****     case PWR_GPIO_E:
 435:/home/fanxinhao/Work/LiteOS_Lab/drivers/third_party/ST/STM32L4xx_HAL_Driver/Src/stm32l4xx_hal_pwr_ex.c ****        SET_BIT(PWR->PUCRE, GPIONumber);
 695              		.loc 1 435 8
 696 00b4 224B     		ldr	r3, .L51
 697 00b6 1A6C     		ldr	r2, [r3, #64]
 698 00b8 2149     		ldr	r1, .L51
 699 00ba 3B68     		ldr	r3, [r7]
 700 00bc 1343     		orrs	r3, r3, r2
 701 00be 0B64     		str	r3, [r1, #64]
 436:/home/fanxinhao/Work/LiteOS_Lab/drivers/third_party/ST/STM32L4xx_HAL_Driver/Src/stm32l4xx_hal_pwr_ex.c ****        CLEAR_BIT(PWR->PDCRE, GPIONumber);
 702              		.loc 1 436 8
 703 00c0 1F4B     		ldr	r3, .L51
 704 00c2 5A6C     		ldr	r2, [r3, #68]
 705 00c4 3B68     		ldr	r3, [r7]
 706 00c6 DB43     		mvns	r3, r3
 707 00c8 1D49     		ldr	r1, .L51
 708 00ca 1340     		ands	r3, r3, r2
 709 00cc 4B64     		str	r3, [r1, #68]
 437:/home/fanxinhao/Work/LiteOS_Lab/drivers/third_party/ST/STM32L4xx_HAL_Driver/Src/stm32l4xx_hal_pwr_ex.c ****        break;
 710              		.loc 1 437 8
 711 00ce 2FE0     		b	.L49
 712              	.L43:
 438:/home/fanxinhao/Work/LiteOS_Lab/drivers/third_party/ST/STM32L4xx_HAL_Driver/Src/stm32l4xx_hal_pwr_ex.c **** #endif
 439:/home/fanxinhao/Work/LiteOS_Lab/drivers/third_party/ST/STM32L4xx_HAL_Driver/Src/stm32l4xx_hal_pwr_ex.c **** #if defined(GPIOF)
 440:/home/fanxinhao/Work/LiteOS_Lab/drivers/third_party/ST/STM32L4xx_HAL_Driver/Src/stm32l4xx_hal_pwr_ex.c ****     case PWR_GPIO_F:
 441:/home/fanxinhao/Work/LiteOS_Lab/drivers/third_party/ST/STM32L4xx_HAL_Driver/Src/stm32l4xx_hal_pwr_ex.c ****        SET_BIT(PWR->PUCRF, GPIONumber);
 713              		.loc 1 441 8
 714 00d0 1B4B     		ldr	r3, .L51
 715 00d2 9A6C     		ldr	r2, [r3, #72]
 716 00d4 1A49     		ldr	r1, .L51
 717 00d6 3B68     		ldr	r3, [r7]
ARM GAS  /tmp/ccwGjgVI.s 			page 21


 718 00d8 1343     		orrs	r3, r3, r2
 719 00da 8B64     		str	r3, [r1, #72]
 442:/home/fanxinhao/Work/LiteOS_Lab/drivers/third_party/ST/STM32L4xx_HAL_Driver/Src/stm32l4xx_hal_pwr_ex.c ****        CLEAR_BIT(PWR->PDCRF, GPIONumber);
 720              		.loc 1 442 8
 721 00dc 184B     		ldr	r3, .L51
 722 00de DA6C     		ldr	r2, [r3, #76]
 723 00e0 3B68     		ldr	r3, [r7]
 724 00e2 DB43     		mvns	r3, r3
 725 00e4 1649     		ldr	r1, .L51
 726 00e6 1340     		ands	r3, r3, r2
 727 00e8 CB64     		str	r3, [r1, #76]
 443:/home/fanxinhao/Work/LiteOS_Lab/drivers/third_party/ST/STM32L4xx_HAL_Driver/Src/stm32l4xx_hal_pwr_ex.c ****        break;
 728              		.loc 1 443 8
 729 00ea 21E0     		b	.L49
 730              	.L42:
 444:/home/fanxinhao/Work/LiteOS_Lab/drivers/third_party/ST/STM32L4xx_HAL_Driver/Src/stm32l4xx_hal_pwr_ex.c **** #endif
 445:/home/fanxinhao/Work/LiteOS_Lab/drivers/third_party/ST/STM32L4xx_HAL_Driver/Src/stm32l4xx_hal_pwr_ex.c **** #if defined(GPIOG)
 446:/home/fanxinhao/Work/LiteOS_Lab/drivers/third_party/ST/STM32L4xx_HAL_Driver/Src/stm32l4xx_hal_pwr_ex.c ****     case PWR_GPIO_G:
 447:/home/fanxinhao/Work/LiteOS_Lab/drivers/third_party/ST/STM32L4xx_HAL_Driver/Src/stm32l4xx_hal_pwr_ex.c ****        SET_BIT(PWR->PUCRG, GPIONumber);
 731              		.loc 1 447 8
 732 00ec 144B     		ldr	r3, .L51
 733 00ee 1A6D     		ldr	r2, [r3, #80]
 734 00f0 1349     		ldr	r1, .L51
 735 00f2 3B68     		ldr	r3, [r7]
 736 00f4 1343     		orrs	r3, r3, r2
 737 00f6 0B65     		str	r3, [r1, #80]
 448:/home/fanxinhao/Work/LiteOS_Lab/drivers/third_party/ST/STM32L4xx_HAL_Driver/Src/stm32l4xx_hal_pwr_ex.c ****        CLEAR_BIT(PWR->PDCRG, GPIONumber);
 738              		.loc 1 448 8
 739 00f8 114B     		ldr	r3, .L51
 740 00fa 5A6D     		ldr	r2, [r3, #84]
 741 00fc 3B68     		ldr	r3, [r7]
 742 00fe DB43     		mvns	r3, r3
 743 0100 0F49     		ldr	r1, .L51
 744 0102 1340     		ands	r3, r3, r2
 745 0104 4B65     		str	r3, [r1, #84]
 449:/home/fanxinhao/Work/LiteOS_Lab/drivers/third_party/ST/STM32L4xx_HAL_Driver/Src/stm32l4xx_hal_pwr_ex.c ****        break;
 746              		.loc 1 449 8
 747 0106 13E0     		b	.L49
 748              	.L40:
 450:/home/fanxinhao/Work/LiteOS_Lab/drivers/third_party/ST/STM32L4xx_HAL_Driver/Src/stm32l4xx_hal_pwr_ex.c **** #endif
 451:/home/fanxinhao/Work/LiteOS_Lab/drivers/third_party/ST/STM32L4xx_HAL_Driver/Src/stm32l4xx_hal_pwr_ex.c ****     case PWR_GPIO_H:
 452:/home/fanxinhao/Work/LiteOS_Lab/drivers/third_party/ST/STM32L4xx_HAL_Driver/Src/stm32l4xx_hal_pwr_ex.c ****        SET_BIT(PWR->PUCRH, (GPIONumber & PWR_PORTH_AVAILABLE_PINS));
 749              		.loc 1 452 8
 750 0108 0D4B     		ldr	r3, .L51
 751 010a 9A6D     		ldr	r2, [r3, #88]
 752 010c 3B68     		ldr	r3, [r7]
 753 010e 03F00303 		and	r3, r3, #3
 754 0112 0B49     		ldr	r1, .L51
 755 0114 1343     		orrs	r3, r3, r2
 756 0116 8B65     		str	r3, [r1, #88]
 453:/home/fanxinhao/Work/LiteOS_Lab/drivers/third_party/ST/STM32L4xx_HAL_Driver/Src/stm32l4xx_hal_pwr_ex.c **** #if defined (STM32L496xx) || defined (STM32L4A6xx)
 454:/home/fanxinhao/Work/LiteOS_Lab/drivers/third_party/ST/STM32L4xx_HAL_Driver/Src/stm32l4xx_hal_pwr_ex.c ****        CLEAR_BIT(PWR->PDCRH, ((GPIONumber & PWR_PORTH_AVAILABLE_PINS) & (~(PWR_GPIO_BIT_3))));
 455:/home/fanxinhao/Work/LiteOS_Lab/drivers/third_party/ST/STM32L4xx_HAL_Driver/Src/stm32l4xx_hal_pwr_ex.c **** #else       
 456:/home/fanxinhao/Work/LiteOS_Lab/drivers/third_party/ST/STM32L4xx_HAL_Driver/Src/stm32l4xx_hal_pwr_ex.c ****        CLEAR_BIT(PWR->PDCRH, (GPIONumber & PWR_PORTH_AVAILABLE_PINS));
 757              		.loc 1 456 8
 758 0118 094B     		ldr	r3, .L51
 759 011a DA6D     		ldr	r2, [r3, #92]
ARM GAS  /tmp/ccwGjgVI.s 			page 22


 760 011c 3B68     		ldr	r3, [r7]
 761 011e 03F00303 		and	r3, r3, #3
 762 0122 DB43     		mvns	r3, r3
 763 0124 0649     		ldr	r1, .L51
 764 0126 1340     		ands	r3, r3, r2
 765 0128 CB65     		str	r3, [r1, #92]
 457:/home/fanxinhao/Work/LiteOS_Lab/drivers/third_party/ST/STM32L4xx_HAL_Driver/Src/stm32l4xx_hal_pwr_ex.c **** #endif       
 458:/home/fanxinhao/Work/LiteOS_Lab/drivers/third_party/ST/STM32L4xx_HAL_Driver/Src/stm32l4xx_hal_pwr_ex.c ****        break;
 766              		.loc 1 458 8
 767 012a 01E0     		b	.L49
 768              	.L39:
 459:/home/fanxinhao/Work/LiteOS_Lab/drivers/third_party/ST/STM32L4xx_HAL_Driver/Src/stm32l4xx_hal_pwr_ex.c **** #if defined(GPIOI)
 460:/home/fanxinhao/Work/LiteOS_Lab/drivers/third_party/ST/STM32L4xx_HAL_Driver/Src/stm32l4xx_hal_pwr_ex.c ****     case PWR_GPIO_I:
 461:/home/fanxinhao/Work/LiteOS_Lab/drivers/third_party/ST/STM32L4xx_HAL_Driver/Src/stm32l4xx_hal_pwr_ex.c ****        SET_BIT(PWR->PUCRI, (GPIONumber & PWR_PORTI_AVAILABLE_PINS));
 462:/home/fanxinhao/Work/LiteOS_Lab/drivers/third_party/ST/STM32L4xx_HAL_Driver/Src/stm32l4xx_hal_pwr_ex.c ****        CLEAR_BIT(PWR->PDCRI, (GPIONumber & PWR_PORTI_AVAILABLE_PINS));
 463:/home/fanxinhao/Work/LiteOS_Lab/drivers/third_party/ST/STM32L4xx_HAL_Driver/Src/stm32l4xx_hal_pwr_ex.c ****        break;
 464:/home/fanxinhao/Work/LiteOS_Lab/drivers/third_party/ST/STM32L4xx_HAL_Driver/Src/stm32l4xx_hal_pwr_ex.c **** #endif
 465:/home/fanxinhao/Work/LiteOS_Lab/drivers/third_party/ST/STM32L4xx_HAL_Driver/Src/stm32l4xx_hal_pwr_ex.c ****     default:
 466:/home/fanxinhao/Work/LiteOS_Lab/drivers/third_party/ST/STM32L4xx_HAL_Driver/Src/stm32l4xx_hal_pwr_ex.c ****        return HAL_ERROR;
 769              		.loc 1 466 15
 770 012c 0123     		movs	r3, #1
 771 012e 00E0     		b	.L50
 772              	.L49:
 467:/home/fanxinhao/Work/LiteOS_Lab/drivers/third_party/ST/STM32L4xx_HAL_Driver/Src/stm32l4xx_hal_pwr_ex.c ****   }
 468:/home/fanxinhao/Work/LiteOS_Lab/drivers/third_party/ST/STM32L4xx_HAL_Driver/Src/stm32l4xx_hal_pwr_ex.c ****   
 469:/home/fanxinhao/Work/LiteOS_Lab/drivers/third_party/ST/STM32L4xx_HAL_Driver/Src/stm32l4xx_hal_pwr_ex.c ****   return HAL_OK;
 773              		.loc 1 469 10
 774 0130 0023     		movs	r3, #0
 775              	.L50:
 470:/home/fanxinhao/Work/LiteOS_Lab/drivers/third_party/ST/STM32L4xx_HAL_Driver/Src/stm32l4xx_hal_pwr_ex.c **** }
 776              		.loc 1 470 1
 777 0132 1846     		mov	r0, r3
 778 0134 0C37     		adds	r7, r7, #12
 779              	.LCFI47:
 780              		.cfi_def_cfa_offset 4
 781 0136 BD46     		mov	sp, r7
 782              	.LCFI48:
 783              		.cfi_def_cfa_register 13
 784              		@ sp needed
 785 0138 5DF8047B 		ldr	r7, [sp], #4
 786              	.LCFI49:
 787              		.cfi_restore 7
 788              		.cfi_def_cfa_offset 0
 789 013c 7047     		bx	lr
 790              	.L52:
 791 013e 00BF     		.align	2
 792              	.L51:
 793 0140 00700040 		.word	1073770496
 794              		.cfi_endproc
 795              	.LFE136:
 797              		.section	.text.HAL_PWREx_DisableGPIOPullUp,"ax",%progbits
 798              		.align	1
 799              		.global	HAL_PWREx_DisableGPIOPullUp
 800              		.syntax unified
 801              		.thumb
 802              		.thumb_func
 803              		.fpu fpv4-sp-d16
ARM GAS  /tmp/ccwGjgVI.s 			page 23


 805              	HAL_PWREx_DisableGPIOPullUp:
 806              	.LFB137:
 471:/home/fanxinhao/Work/LiteOS_Lab/drivers/third_party/ST/STM32L4xx_HAL_Driver/Src/stm32l4xx_hal_pwr_ex.c **** 
 472:/home/fanxinhao/Work/LiteOS_Lab/drivers/third_party/ST/STM32L4xx_HAL_Driver/Src/stm32l4xx_hal_pwr_ex.c **** 
 473:/home/fanxinhao/Work/LiteOS_Lab/drivers/third_party/ST/STM32L4xx_HAL_Driver/Src/stm32l4xx_hal_pwr_ex.c **** /**
 474:/home/fanxinhao/Work/LiteOS_Lab/drivers/third_party/ST/STM32L4xx_HAL_Driver/Src/stm32l4xx_hal_pwr_ex.c ****   * @brief Disable GPIO pull-up state in Standby mode and Shutdown modes.
 475:/home/fanxinhao/Work/LiteOS_Lab/drivers/third_party/ST/STM32L4xx_HAL_Driver/Src/stm32l4xx_hal_pwr_ex.c ****   * @note  Reset the relevant PUy bits of PWR_PUCRx register used to configure the I/O
 476:/home/fanxinhao/Work/LiteOS_Lab/drivers/third_party/ST/STM32L4xx_HAL_Driver/Src/stm32l4xx_hal_pwr_ex.c ****   *        in pull-up state in Standby and Shutdown modes.
 477:/home/fanxinhao/Work/LiteOS_Lab/drivers/third_party/ST/STM32L4xx_HAL_Driver/Src/stm32l4xx_hal_pwr_ex.c ****   * @note  Even if a PUy bit to reset is reserved, the other PUy bits entered as input 
 478:/home/fanxinhao/Work/LiteOS_Lab/drivers/third_party/ST/STM32L4xx_HAL_Driver/Src/stm32l4xx_hal_pwr_ex.c ****   *        parameter at the same time are reset.      
 479:/home/fanxinhao/Work/LiteOS_Lab/drivers/third_party/ST/STM32L4xx_HAL_Driver/Src/stm32l4xx_hal_pwr_ex.c ****   * @param  GPIO: Specifies the IO port. This parameter can be PWR_GPIO_A, ..., PWR_GPIO_H 
 480:/home/fanxinhao/Work/LiteOS_Lab/drivers/third_party/ST/STM32L4xx_HAL_Driver/Src/stm32l4xx_hal_pwr_ex.c ****   *          (or PWR_GPIO_I depending on the devices) to select the GPIO peripheral.
 481:/home/fanxinhao/Work/LiteOS_Lab/drivers/third_party/ST/STM32L4xx_HAL_Driver/Src/stm32l4xx_hal_pwr_ex.c ****   * @param  GPIONumber: Specify the I/O pins numbers.
 482:/home/fanxinhao/Work/LiteOS_Lab/drivers/third_party/ST/STM32L4xx_HAL_Driver/Src/stm32l4xx_hal_pwr_ex.c ****   *         This parameter can be one of the following values:
 483:/home/fanxinhao/Work/LiteOS_Lab/drivers/third_party/ST/STM32L4xx_HAL_Driver/Src/stm32l4xx_hal_pwr_ex.c ****   *         PWR_GPIO_BIT_0, ..., PWR_GPIO_BIT_15 (except for the port where less  
 484:/home/fanxinhao/Work/LiteOS_Lab/drivers/third_party/ST/STM32L4xx_HAL_Driver/Src/stm32l4xx_hal_pwr_ex.c ****   *         I/O pins are available) or the logical OR of several of them to reset 
 485:/home/fanxinhao/Work/LiteOS_Lab/drivers/third_party/ST/STM32L4xx_HAL_Driver/Src/stm32l4xx_hal_pwr_ex.c ****   *         several bits for a given port in a single API call. 
 486:/home/fanxinhao/Work/LiteOS_Lab/drivers/third_party/ST/STM32L4xx_HAL_Driver/Src/stm32l4xx_hal_pwr_ex.c ****   * @retval HAL Status
 487:/home/fanxinhao/Work/LiteOS_Lab/drivers/third_party/ST/STM32L4xx_HAL_Driver/Src/stm32l4xx_hal_pwr_ex.c ****   */   
 488:/home/fanxinhao/Work/LiteOS_Lab/drivers/third_party/ST/STM32L4xx_HAL_Driver/Src/stm32l4xx_hal_pwr_ex.c **** HAL_StatusTypeDef HAL_PWREx_DisableGPIOPullUp(uint32_t GPIO, uint32_t GPIONumber)
 489:/home/fanxinhao/Work/LiteOS_Lab/drivers/third_party/ST/STM32L4xx_HAL_Driver/Src/stm32l4xx_hal_pwr_ex.c **** {  
 807              		.loc 1 489 1
 808              		.cfi_startproc
 809              		@ args = 0, pretend = 0, frame = 8
 810              		@ frame_needed = 1, uses_anonymous_args = 0
 811              		@ link register save eliminated.
 812 0000 80B4     		push	{r7}
 813              	.LCFI50:
 814              		.cfi_def_cfa_offset 4
 815              		.cfi_offset 7, -4
 816 0002 83B0     		sub	sp, sp, #12
 817              	.LCFI51:
 818              		.cfi_def_cfa_offset 16
 819 0004 00AF     		add	r7, sp, #0
 820              	.LCFI52:
 821              		.cfi_def_cfa_register 7
 822 0006 7860     		str	r0, [r7, #4]
 823 0008 3960     		str	r1, [r7]
 824 000a 7B68     		ldr	r3, [r7, #4]
 825 000c 072B     		cmp	r3, #7
 826 000e 57D8     		bhi	.L54
 827 0010 01A2     		adr	r2, .L56
 828 0012 52F823F0 		ldr	pc, [r2, r3, lsl #2]
 829 0016 00BF     		.p2align 2
 830              	.L56:
 831 0018 39000000 		.word	.L63+1
 832 001c 4D000000 		.word	.L62+1
 833 0020 5D000000 		.word	.L61+1
 834 0024 6D000000 		.word	.L60+1
 835 0028 7D000000 		.word	.L59+1
 836 002c 8D000000 		.word	.L58+1
 837 0030 9D000000 		.word	.L57+1
 838 0034 AD000000 		.word	.L55+1
 839              		.p2align 1
 840              	.L63:
 490:/home/fanxinhao/Work/LiteOS_Lab/drivers/third_party/ST/STM32L4xx_HAL_Driver/Src/stm32l4xx_hal_pwr_ex.c ****   assert_param(IS_PWR_GPIO(GPIO));
 491:/home/fanxinhao/Work/LiteOS_Lab/drivers/third_party/ST/STM32L4xx_HAL_Driver/Src/stm32l4xx_hal_pwr_ex.c ****   assert_param(IS_PWR_GPIO_BIT_NUMBER(GPIONumber));
ARM GAS  /tmp/ccwGjgVI.s 			page 24


 492:/home/fanxinhao/Work/LiteOS_Lab/drivers/third_party/ST/STM32L4xx_HAL_Driver/Src/stm32l4xx_hal_pwr_ex.c ****   
 493:/home/fanxinhao/Work/LiteOS_Lab/drivers/third_party/ST/STM32L4xx_HAL_Driver/Src/stm32l4xx_hal_pwr_ex.c ****   switch (GPIO)
 494:/home/fanxinhao/Work/LiteOS_Lab/drivers/third_party/ST/STM32L4xx_HAL_Driver/Src/stm32l4xx_hal_pwr_ex.c ****   {
 495:/home/fanxinhao/Work/LiteOS_Lab/drivers/third_party/ST/STM32L4xx_HAL_Driver/Src/stm32l4xx_hal_pwr_ex.c ****     case PWR_GPIO_A:
 496:/home/fanxinhao/Work/LiteOS_Lab/drivers/third_party/ST/STM32L4xx_HAL_Driver/Src/stm32l4xx_hal_pwr_ex.c ****        CLEAR_BIT(PWR->PUCRA, (GPIONumber & (~(PWR_GPIO_BIT_14))));
 841              		.loc 1 496 8
 842 0038 264B     		ldr	r3, .L66
 843 003a 1A6A     		ldr	r2, [r3, #32]
 844 003c 3B68     		ldr	r3, [r7]
 845 003e 23F48043 		bic	r3, r3, #16384
 846 0042 DB43     		mvns	r3, r3
 847 0044 2349     		ldr	r1, .L66
 848 0046 1340     		ands	r3, r3, r2
 849 0048 0B62     		str	r3, [r1, #32]
 497:/home/fanxinhao/Work/LiteOS_Lab/drivers/third_party/ST/STM32L4xx_HAL_Driver/Src/stm32l4xx_hal_pwr_ex.c ****        break;
 850              		.loc 1 497 8
 851 004a 3BE0     		b	.L64
 852              	.L62:
 498:/home/fanxinhao/Work/LiteOS_Lab/drivers/third_party/ST/STM32L4xx_HAL_Driver/Src/stm32l4xx_hal_pwr_ex.c ****     case PWR_GPIO_B:
 499:/home/fanxinhao/Work/LiteOS_Lab/drivers/third_party/ST/STM32L4xx_HAL_Driver/Src/stm32l4xx_hal_pwr_ex.c ****        CLEAR_BIT(PWR->PUCRB, GPIONumber);
 853              		.loc 1 499 8
 854 004c 214B     		ldr	r3, .L66
 855 004e 9A6A     		ldr	r2, [r3, #40]
 856 0050 3B68     		ldr	r3, [r7]
 857 0052 DB43     		mvns	r3, r3
 858 0054 1F49     		ldr	r1, .L66
 859 0056 1340     		ands	r3, r3, r2
 860 0058 8B62     		str	r3, [r1, #40]
 500:/home/fanxinhao/Work/LiteOS_Lab/drivers/third_party/ST/STM32L4xx_HAL_Driver/Src/stm32l4xx_hal_pwr_ex.c ****        break;
 861              		.loc 1 500 8
 862 005a 33E0     		b	.L64
 863              	.L61:
 501:/home/fanxinhao/Work/LiteOS_Lab/drivers/third_party/ST/STM32L4xx_HAL_Driver/Src/stm32l4xx_hal_pwr_ex.c ****     case PWR_GPIO_C:
 502:/home/fanxinhao/Work/LiteOS_Lab/drivers/third_party/ST/STM32L4xx_HAL_Driver/Src/stm32l4xx_hal_pwr_ex.c ****        CLEAR_BIT(PWR->PUCRC, GPIONumber);
 864              		.loc 1 502 8
 865 005c 1D4B     		ldr	r3, .L66
 866 005e 1A6B     		ldr	r2, [r3, #48]
 867 0060 3B68     		ldr	r3, [r7]
 868 0062 DB43     		mvns	r3, r3
 869 0064 1B49     		ldr	r1, .L66
 870 0066 1340     		ands	r3, r3, r2
 871 0068 0B63     		str	r3, [r1, #48]
 503:/home/fanxinhao/Work/LiteOS_Lab/drivers/third_party/ST/STM32L4xx_HAL_Driver/Src/stm32l4xx_hal_pwr_ex.c ****        break;
 872              		.loc 1 503 8
 873 006a 2BE0     		b	.L64
 874              	.L60:
 504:/home/fanxinhao/Work/LiteOS_Lab/drivers/third_party/ST/STM32L4xx_HAL_Driver/Src/stm32l4xx_hal_pwr_ex.c **** #if defined(GPIOD)
 505:/home/fanxinhao/Work/LiteOS_Lab/drivers/third_party/ST/STM32L4xx_HAL_Driver/Src/stm32l4xx_hal_pwr_ex.c ****     case PWR_GPIO_D:
 506:/home/fanxinhao/Work/LiteOS_Lab/drivers/third_party/ST/STM32L4xx_HAL_Driver/Src/stm32l4xx_hal_pwr_ex.c ****        CLEAR_BIT(PWR->PUCRD, GPIONumber);
 875              		.loc 1 506 8
 876 006c 194B     		ldr	r3, .L66
 877 006e 9A6B     		ldr	r2, [r3, #56]
 878 0070 3B68     		ldr	r3, [r7]
 879 0072 DB43     		mvns	r3, r3
 880 0074 1749     		ldr	r1, .L66
 881 0076 1340     		ands	r3, r3, r2
 882 0078 8B63     		str	r3, [r1, #56]
ARM GAS  /tmp/ccwGjgVI.s 			page 25


 507:/home/fanxinhao/Work/LiteOS_Lab/drivers/third_party/ST/STM32L4xx_HAL_Driver/Src/stm32l4xx_hal_pwr_ex.c ****        break;
 883              		.loc 1 507 8
 884 007a 23E0     		b	.L64
 885              	.L59:
 508:/home/fanxinhao/Work/LiteOS_Lab/drivers/third_party/ST/STM32L4xx_HAL_Driver/Src/stm32l4xx_hal_pwr_ex.c **** #endif
 509:/home/fanxinhao/Work/LiteOS_Lab/drivers/third_party/ST/STM32L4xx_HAL_Driver/Src/stm32l4xx_hal_pwr_ex.c **** #if defined(GPIOE)
 510:/home/fanxinhao/Work/LiteOS_Lab/drivers/third_party/ST/STM32L4xx_HAL_Driver/Src/stm32l4xx_hal_pwr_ex.c ****     case PWR_GPIO_E:
 511:/home/fanxinhao/Work/LiteOS_Lab/drivers/third_party/ST/STM32L4xx_HAL_Driver/Src/stm32l4xx_hal_pwr_ex.c ****        CLEAR_BIT(PWR->PUCRE, GPIONumber);
 886              		.loc 1 511 8
 887 007c 154B     		ldr	r3, .L66
 888 007e 1A6C     		ldr	r2, [r3, #64]
 889 0080 3B68     		ldr	r3, [r7]
 890 0082 DB43     		mvns	r3, r3
 891 0084 1349     		ldr	r1, .L66
 892 0086 1340     		ands	r3, r3, r2
 893 0088 0B64     		str	r3, [r1, #64]
 512:/home/fanxinhao/Work/LiteOS_Lab/drivers/third_party/ST/STM32L4xx_HAL_Driver/Src/stm32l4xx_hal_pwr_ex.c ****        break;
 894              		.loc 1 512 8
 895 008a 1BE0     		b	.L64
 896              	.L58:
 513:/home/fanxinhao/Work/LiteOS_Lab/drivers/third_party/ST/STM32L4xx_HAL_Driver/Src/stm32l4xx_hal_pwr_ex.c **** #endif
 514:/home/fanxinhao/Work/LiteOS_Lab/drivers/third_party/ST/STM32L4xx_HAL_Driver/Src/stm32l4xx_hal_pwr_ex.c **** #if defined(GPIOF)
 515:/home/fanxinhao/Work/LiteOS_Lab/drivers/third_party/ST/STM32L4xx_HAL_Driver/Src/stm32l4xx_hal_pwr_ex.c ****     case PWR_GPIO_F:
 516:/home/fanxinhao/Work/LiteOS_Lab/drivers/third_party/ST/STM32L4xx_HAL_Driver/Src/stm32l4xx_hal_pwr_ex.c ****        CLEAR_BIT(PWR->PUCRF, GPIONumber);
 897              		.loc 1 516 8
 898 008c 114B     		ldr	r3, .L66
 899 008e 9A6C     		ldr	r2, [r3, #72]
 900 0090 3B68     		ldr	r3, [r7]
 901 0092 DB43     		mvns	r3, r3
 902 0094 0F49     		ldr	r1, .L66
 903 0096 1340     		ands	r3, r3, r2
 904 0098 8B64     		str	r3, [r1, #72]
 517:/home/fanxinhao/Work/LiteOS_Lab/drivers/third_party/ST/STM32L4xx_HAL_Driver/Src/stm32l4xx_hal_pwr_ex.c ****        break;
 905              		.loc 1 517 8
 906 009a 13E0     		b	.L64
 907              	.L57:
 518:/home/fanxinhao/Work/LiteOS_Lab/drivers/third_party/ST/STM32L4xx_HAL_Driver/Src/stm32l4xx_hal_pwr_ex.c **** #endif
 519:/home/fanxinhao/Work/LiteOS_Lab/drivers/third_party/ST/STM32L4xx_HAL_Driver/Src/stm32l4xx_hal_pwr_ex.c **** #if defined(GPIOG)
 520:/home/fanxinhao/Work/LiteOS_Lab/drivers/third_party/ST/STM32L4xx_HAL_Driver/Src/stm32l4xx_hal_pwr_ex.c ****     case PWR_GPIO_G:
 521:/home/fanxinhao/Work/LiteOS_Lab/drivers/third_party/ST/STM32L4xx_HAL_Driver/Src/stm32l4xx_hal_pwr_ex.c ****        CLEAR_BIT(PWR->PUCRG, GPIONumber);
 908              		.loc 1 521 8
 909 009c 0D4B     		ldr	r3, .L66
 910 009e 1A6D     		ldr	r2, [r3, #80]
 911 00a0 3B68     		ldr	r3, [r7]
 912 00a2 DB43     		mvns	r3, r3
 913 00a4 0B49     		ldr	r1, .L66
 914 00a6 1340     		ands	r3, r3, r2
 915 00a8 0B65     		str	r3, [r1, #80]
 522:/home/fanxinhao/Work/LiteOS_Lab/drivers/third_party/ST/STM32L4xx_HAL_Driver/Src/stm32l4xx_hal_pwr_ex.c ****        break;
 916              		.loc 1 522 8
 917 00aa 0BE0     		b	.L64
 918              	.L55:
 523:/home/fanxinhao/Work/LiteOS_Lab/drivers/third_party/ST/STM32L4xx_HAL_Driver/Src/stm32l4xx_hal_pwr_ex.c **** #endif
 524:/home/fanxinhao/Work/LiteOS_Lab/drivers/third_party/ST/STM32L4xx_HAL_Driver/Src/stm32l4xx_hal_pwr_ex.c ****     case PWR_GPIO_H:    
 525:/home/fanxinhao/Work/LiteOS_Lab/drivers/third_party/ST/STM32L4xx_HAL_Driver/Src/stm32l4xx_hal_pwr_ex.c ****        CLEAR_BIT(PWR->PUCRH, (GPIONumber & PWR_PORTH_AVAILABLE_PINS));
 919              		.loc 1 525 8
 920 00ac 094B     		ldr	r3, .L66
ARM GAS  /tmp/ccwGjgVI.s 			page 26


 921 00ae 9A6D     		ldr	r2, [r3, #88]
 922 00b0 3B68     		ldr	r3, [r7]
 923 00b2 03F00303 		and	r3, r3, #3
 924 00b6 DB43     		mvns	r3, r3
 925 00b8 0649     		ldr	r1, .L66
 926 00ba 1340     		ands	r3, r3, r2
 927 00bc 8B65     		str	r3, [r1, #88]
 526:/home/fanxinhao/Work/LiteOS_Lab/drivers/third_party/ST/STM32L4xx_HAL_Driver/Src/stm32l4xx_hal_pwr_ex.c ****        break;
 928              		.loc 1 526 8
 929 00be 01E0     		b	.L64
 930              	.L54:
 527:/home/fanxinhao/Work/LiteOS_Lab/drivers/third_party/ST/STM32L4xx_HAL_Driver/Src/stm32l4xx_hal_pwr_ex.c **** #if defined(GPIOI)
 528:/home/fanxinhao/Work/LiteOS_Lab/drivers/third_party/ST/STM32L4xx_HAL_Driver/Src/stm32l4xx_hal_pwr_ex.c ****     case PWR_GPIO_I:
 529:/home/fanxinhao/Work/LiteOS_Lab/drivers/third_party/ST/STM32L4xx_HAL_Driver/Src/stm32l4xx_hal_pwr_ex.c ****        CLEAR_BIT(PWR->PUCRI, (GPIONumber & PWR_PORTI_AVAILABLE_PINS));
 530:/home/fanxinhao/Work/LiteOS_Lab/drivers/third_party/ST/STM32L4xx_HAL_Driver/Src/stm32l4xx_hal_pwr_ex.c ****        break;
 531:/home/fanxinhao/Work/LiteOS_Lab/drivers/third_party/ST/STM32L4xx_HAL_Driver/Src/stm32l4xx_hal_pwr_ex.c **** #endif
 532:/home/fanxinhao/Work/LiteOS_Lab/drivers/third_party/ST/STM32L4xx_HAL_Driver/Src/stm32l4xx_hal_pwr_ex.c ****     default:
 533:/home/fanxinhao/Work/LiteOS_Lab/drivers/third_party/ST/STM32L4xx_HAL_Driver/Src/stm32l4xx_hal_pwr_ex.c ****        return HAL_ERROR;
 931              		.loc 1 533 15
 932 00c0 0123     		movs	r3, #1
 933 00c2 00E0     		b	.L65
 934              	.L64:
 534:/home/fanxinhao/Work/LiteOS_Lab/drivers/third_party/ST/STM32L4xx_HAL_Driver/Src/stm32l4xx_hal_pwr_ex.c ****   }
 535:/home/fanxinhao/Work/LiteOS_Lab/drivers/third_party/ST/STM32L4xx_HAL_Driver/Src/stm32l4xx_hal_pwr_ex.c ****   
 536:/home/fanxinhao/Work/LiteOS_Lab/drivers/third_party/ST/STM32L4xx_HAL_Driver/Src/stm32l4xx_hal_pwr_ex.c ****   return HAL_OK;
 935              		.loc 1 536 10
 936 00c4 0023     		movs	r3, #0
 937              	.L65:
 537:/home/fanxinhao/Work/LiteOS_Lab/drivers/third_party/ST/STM32L4xx_HAL_Driver/Src/stm32l4xx_hal_pwr_ex.c **** }
 938              		.loc 1 537 1
 939 00c6 1846     		mov	r0, r3
 940 00c8 0C37     		adds	r7, r7, #12
 941              	.LCFI53:
 942              		.cfi_def_cfa_offset 4
 943 00ca BD46     		mov	sp, r7
 944              	.LCFI54:
 945              		.cfi_def_cfa_register 13
 946              		@ sp needed
 947 00cc 5DF8047B 		ldr	r7, [sp], #4
 948              	.LCFI55:
 949              		.cfi_restore 7
 950              		.cfi_def_cfa_offset 0
 951 00d0 7047     		bx	lr
 952              	.L67:
 953 00d2 00BF     		.align	2
 954              	.L66:
 955 00d4 00700040 		.word	1073770496
 956              		.cfi_endproc
 957              	.LFE137:
 959              		.section	.text.HAL_PWREx_EnableGPIOPullDown,"ax",%progbits
 960              		.align	1
 961              		.global	HAL_PWREx_EnableGPIOPullDown
 962              		.syntax unified
 963              		.thumb
 964              		.thumb_func
 965              		.fpu fpv4-sp-d16
 967              	HAL_PWREx_EnableGPIOPullDown:
ARM GAS  /tmp/ccwGjgVI.s 			page 27


 968              	.LFB138:
 538:/home/fanxinhao/Work/LiteOS_Lab/drivers/third_party/ST/STM32L4xx_HAL_Driver/Src/stm32l4xx_hal_pwr_ex.c **** 
 539:/home/fanxinhao/Work/LiteOS_Lab/drivers/third_party/ST/STM32L4xx_HAL_Driver/Src/stm32l4xx_hal_pwr_ex.c **** 
 540:/home/fanxinhao/Work/LiteOS_Lab/drivers/third_party/ST/STM32L4xx_HAL_Driver/Src/stm32l4xx_hal_pwr_ex.c **** 
 541:/home/fanxinhao/Work/LiteOS_Lab/drivers/third_party/ST/STM32L4xx_HAL_Driver/Src/stm32l4xx_hal_pwr_ex.c **** /**
 542:/home/fanxinhao/Work/LiteOS_Lab/drivers/third_party/ST/STM32L4xx_HAL_Driver/Src/stm32l4xx_hal_pwr_ex.c ****   * @brief Enable GPIO pull-down state in Standby and Shutdown modes.
 543:/home/fanxinhao/Work/LiteOS_Lab/drivers/third_party/ST/STM32L4xx_HAL_Driver/Src/stm32l4xx_hal_pwr_ex.c ****   * @note  Set the relevant PDy bits of PWR_PDCRx register to configure the I/O in 
 544:/home/fanxinhao/Work/LiteOS_Lab/drivers/third_party/ST/STM32L4xx_HAL_Driver/Src/stm32l4xx_hal_pwr_ex.c ****   *        pull-down state in Standby and Shutdown modes. 
 545:/home/fanxinhao/Work/LiteOS_Lab/drivers/third_party/ST/STM32L4xx_HAL_Driver/Src/stm32l4xx_hal_pwr_ex.c ****   * @note  This state is effective in Standby and Shutdown modes only if APC bit
 546:/home/fanxinhao/Work/LiteOS_Lab/drivers/third_party/ST/STM32L4xx_HAL_Driver/Src/stm32l4xx_hal_pwr_ex.c ****   *        is set through HAL_PWREx_EnablePullUpPullDownConfig() API. 
 547:/home/fanxinhao/Work/LiteOS_Lab/drivers/third_party/ST/STM32L4xx_HAL_Driver/Src/stm32l4xx_hal_pwr_ex.c ****   * @note  The configuration is lost when exiting the Shutdown mode due to the 
 548:/home/fanxinhao/Work/LiteOS_Lab/drivers/third_party/ST/STM32L4xx_HAL_Driver/Src/stm32l4xx_hal_pwr_ex.c ****   *        power-on reset, maintained when exiting the Standby mode. 
 549:/home/fanxinhao/Work/LiteOS_Lab/drivers/third_party/ST/STM32L4xx_HAL_Driver/Src/stm32l4xx_hal_pwr_ex.c ****   * @note  To avoid any conflict at Standby and Shutdown modes exits, the corresponding
 550:/home/fanxinhao/Work/LiteOS_Lab/drivers/third_party/ST/STM32L4xx_HAL_Driver/Src/stm32l4xx_hal_pwr_ex.c ****   *        PUy bit of PWR_PUCRx register is cleared unless it is reserved. 
 551:/home/fanxinhao/Work/LiteOS_Lab/drivers/third_party/ST/STM32L4xx_HAL_Driver/Src/stm32l4xx_hal_pwr_ex.c ****   * @note  Even if a PDy bit to set is reserved, the other PDy bits entered as input 
 552:/home/fanxinhao/Work/LiteOS_Lab/drivers/third_party/ST/STM32L4xx_HAL_Driver/Src/stm32l4xx_hal_pwr_ex.c ****   *        parameter at the same time are set.         
 553:/home/fanxinhao/Work/LiteOS_Lab/drivers/third_party/ST/STM32L4xx_HAL_Driver/Src/stm32l4xx_hal_pwr_ex.c ****   * @param  GPIO: Specify the IO port. This parameter can be PWR_GPIO_A..PWR_GPIO_H 
 554:/home/fanxinhao/Work/LiteOS_Lab/drivers/third_party/ST/STM32L4xx_HAL_Driver/Src/stm32l4xx_hal_pwr_ex.c ****   *         (or PWR_GPIO_I depending on the devices) to select the GPIO peripheral.
 555:/home/fanxinhao/Work/LiteOS_Lab/drivers/third_party/ST/STM32L4xx_HAL_Driver/Src/stm32l4xx_hal_pwr_ex.c ****   * @param  GPIONumber: Specify the I/O pins numbers.
 556:/home/fanxinhao/Work/LiteOS_Lab/drivers/third_party/ST/STM32L4xx_HAL_Driver/Src/stm32l4xx_hal_pwr_ex.c ****   *         This parameter can be one of the following values:
 557:/home/fanxinhao/Work/LiteOS_Lab/drivers/third_party/ST/STM32L4xx_HAL_Driver/Src/stm32l4xx_hal_pwr_ex.c ****   *         PWR_GPIO_BIT_0, ..., PWR_GPIO_BIT_15 (except for the port where less  
 558:/home/fanxinhao/Work/LiteOS_Lab/drivers/third_party/ST/STM32L4xx_HAL_Driver/Src/stm32l4xx_hal_pwr_ex.c ****   *         I/O pins are available) or the logical OR of several of them to set 
 559:/home/fanxinhao/Work/LiteOS_Lab/drivers/third_party/ST/STM32L4xx_HAL_Driver/Src/stm32l4xx_hal_pwr_ex.c ****   *         several bits for a given port in a single API call. 
 560:/home/fanxinhao/Work/LiteOS_Lab/drivers/third_party/ST/STM32L4xx_HAL_Driver/Src/stm32l4xx_hal_pwr_ex.c ****   * @retval HAL Status
 561:/home/fanxinhao/Work/LiteOS_Lab/drivers/third_party/ST/STM32L4xx_HAL_Driver/Src/stm32l4xx_hal_pwr_ex.c ****   */   
 562:/home/fanxinhao/Work/LiteOS_Lab/drivers/third_party/ST/STM32L4xx_HAL_Driver/Src/stm32l4xx_hal_pwr_ex.c **** HAL_StatusTypeDef HAL_PWREx_EnableGPIOPullDown(uint32_t GPIO, uint32_t GPIONumber)
 563:/home/fanxinhao/Work/LiteOS_Lab/drivers/third_party/ST/STM32L4xx_HAL_Driver/Src/stm32l4xx_hal_pwr_ex.c **** {
 969              		.loc 1 563 1
 970              		.cfi_startproc
 971              		@ args = 0, pretend = 0, frame = 8
 972              		@ frame_needed = 1, uses_anonymous_args = 0
 973              		@ link register save eliminated.
 974 0000 80B4     		push	{r7}
 975              	.LCFI56:
 976              		.cfi_def_cfa_offset 4
 977              		.cfi_offset 7, -4
 978 0002 83B0     		sub	sp, sp, #12
 979              	.LCFI57:
 980              		.cfi_def_cfa_offset 16
 981 0004 00AF     		add	r7, sp, #0
 982              	.LCFI58:
 983              		.cfi_def_cfa_register 7
 984 0006 7860     		str	r0, [r7, #4]
 985 0008 3960     		str	r1, [r7]
 986 000a 7B68     		ldr	r3, [r7, #4]
 987 000c 072B     		cmp	r3, #7
 988 000e 00F28D80 		bhi	.L69
 989 0012 01A2     		adr	r2, .L71
 990 0014 52F823F0 		ldr	pc, [r2, r3, lsl #2]
 991              		.p2align 2
 992              	.L71:
 993 0018 39000000 		.word	.L78+1
 994 001c 5D000000 		.word	.L77+1
 995 0020 7D000000 		.word	.L76+1
 996 0024 99000000 		.word	.L75+1
 997 0028 B5000000 		.word	.L74+1
 998 002c D1000000 		.word	.L73+1
ARM GAS  /tmp/ccwGjgVI.s 			page 28


 999 0030 ED000000 		.word	.L72+1
 1000 0034 09010000 		.word	.L70+1
 1001              		.p2align 1
 1002              	.L78:
 564:/home/fanxinhao/Work/LiteOS_Lab/drivers/third_party/ST/STM32L4xx_HAL_Driver/Src/stm32l4xx_hal_pwr_ex.c ****   assert_param(IS_PWR_GPIO(GPIO));
 565:/home/fanxinhao/Work/LiteOS_Lab/drivers/third_party/ST/STM32L4xx_HAL_Driver/Src/stm32l4xx_hal_pwr_ex.c ****   assert_param(IS_PWR_GPIO_BIT_NUMBER(GPIONumber));
 566:/home/fanxinhao/Work/LiteOS_Lab/drivers/third_party/ST/STM32L4xx_HAL_Driver/Src/stm32l4xx_hal_pwr_ex.c ****   
 567:/home/fanxinhao/Work/LiteOS_Lab/drivers/third_party/ST/STM32L4xx_HAL_Driver/Src/stm32l4xx_hal_pwr_ex.c ****   switch (GPIO)
 568:/home/fanxinhao/Work/LiteOS_Lab/drivers/third_party/ST/STM32L4xx_HAL_Driver/Src/stm32l4xx_hal_pwr_ex.c ****   {
 569:/home/fanxinhao/Work/LiteOS_Lab/drivers/third_party/ST/STM32L4xx_HAL_Driver/Src/stm32l4xx_hal_pwr_ex.c ****     case PWR_GPIO_A:
 570:/home/fanxinhao/Work/LiteOS_Lab/drivers/third_party/ST/STM32L4xx_HAL_Driver/Src/stm32l4xx_hal_pwr_ex.c ****        SET_BIT(PWR->PDCRA, (GPIONumber & (~(PWR_GPIO_BIT_13|PWR_GPIO_BIT_15))));
 1003              		.loc 1 570 8
 1004 0038 414B     		ldr	r3, .L81
 1005 003a 5A6A     		ldr	r2, [r3, #36]
 1006 003c 3B68     		ldr	r3, [r7]
 1007 003e 23F42043 		bic	r3, r3, #40960
 1008 0042 3F49     		ldr	r1, .L81
 1009 0044 1343     		orrs	r3, r3, r2
 1010 0046 4B62     		str	r3, [r1, #36]
 571:/home/fanxinhao/Work/LiteOS_Lab/drivers/third_party/ST/STM32L4xx_HAL_Driver/Src/stm32l4xx_hal_pwr_ex.c ****        CLEAR_BIT(PWR->PUCRA, (GPIONumber & (~(PWR_GPIO_BIT_14))));
 1011              		.loc 1 571 8
 1012 0048 3D4B     		ldr	r3, .L81
 1013 004a 1A6A     		ldr	r2, [r3, #32]
 1014 004c 3B68     		ldr	r3, [r7]
 1015 004e 23F48043 		bic	r3, r3, #16384
 1016 0052 DB43     		mvns	r3, r3
 1017 0054 3A49     		ldr	r1, .L81
 1018 0056 1340     		ands	r3, r3, r2
 1019 0058 0B62     		str	r3, [r1, #32]
 572:/home/fanxinhao/Work/LiteOS_Lab/drivers/third_party/ST/STM32L4xx_HAL_Driver/Src/stm32l4xx_hal_pwr_ex.c ****        break;
 1020              		.loc 1 572 8
 1021 005a 69E0     		b	.L79
 1022              	.L77:
 573:/home/fanxinhao/Work/LiteOS_Lab/drivers/third_party/ST/STM32L4xx_HAL_Driver/Src/stm32l4xx_hal_pwr_ex.c ****     case PWR_GPIO_B:
 574:/home/fanxinhao/Work/LiteOS_Lab/drivers/third_party/ST/STM32L4xx_HAL_Driver/Src/stm32l4xx_hal_pwr_ex.c ****        SET_BIT(PWR->PDCRB, (GPIONumber & (~(PWR_GPIO_BIT_4))));
 1023              		.loc 1 574 8
 1024 005c 384B     		ldr	r3, .L81
 1025 005e DA6A     		ldr	r2, [r3, #44]
 1026 0060 3B68     		ldr	r3, [r7]
 1027 0062 23F01003 		bic	r3, r3, #16
 1028 0066 3649     		ldr	r1, .L81
 1029 0068 1343     		orrs	r3, r3, r2
 1030 006a CB62     		str	r3, [r1, #44]
 575:/home/fanxinhao/Work/LiteOS_Lab/drivers/third_party/ST/STM32L4xx_HAL_Driver/Src/stm32l4xx_hal_pwr_ex.c ****        CLEAR_BIT(PWR->PUCRB, GPIONumber);
 1031              		.loc 1 575 8
 1032 006c 344B     		ldr	r3, .L81
 1033 006e 9A6A     		ldr	r2, [r3, #40]
 1034 0070 3B68     		ldr	r3, [r7]
 1035 0072 DB43     		mvns	r3, r3
 1036 0074 3249     		ldr	r1, .L81
 1037 0076 1340     		ands	r3, r3, r2
 1038 0078 8B62     		str	r3, [r1, #40]
 576:/home/fanxinhao/Work/LiteOS_Lab/drivers/third_party/ST/STM32L4xx_HAL_Driver/Src/stm32l4xx_hal_pwr_ex.c ****        break;
 1039              		.loc 1 576 8
 1040 007a 59E0     		b	.L79
 1041              	.L76:
 577:/home/fanxinhao/Work/LiteOS_Lab/drivers/third_party/ST/STM32L4xx_HAL_Driver/Src/stm32l4xx_hal_pwr_ex.c ****     case PWR_GPIO_C:
ARM GAS  /tmp/ccwGjgVI.s 			page 29


 578:/home/fanxinhao/Work/LiteOS_Lab/drivers/third_party/ST/STM32L4xx_HAL_Driver/Src/stm32l4xx_hal_pwr_ex.c ****        SET_BIT(PWR->PDCRC, GPIONumber);
 1042              		.loc 1 578 8
 1043 007c 304B     		ldr	r3, .L81
 1044 007e 5A6B     		ldr	r2, [r3, #52]
 1045 0080 2F49     		ldr	r1, .L81
 1046 0082 3B68     		ldr	r3, [r7]
 1047 0084 1343     		orrs	r3, r3, r2
 1048 0086 4B63     		str	r3, [r1, #52]
 579:/home/fanxinhao/Work/LiteOS_Lab/drivers/third_party/ST/STM32L4xx_HAL_Driver/Src/stm32l4xx_hal_pwr_ex.c ****        CLEAR_BIT(PWR->PUCRC, GPIONumber);
 1049              		.loc 1 579 8
 1050 0088 2D4B     		ldr	r3, .L81
 1051 008a 1A6B     		ldr	r2, [r3, #48]
 1052 008c 3B68     		ldr	r3, [r7]
 1053 008e DB43     		mvns	r3, r3
 1054 0090 2B49     		ldr	r1, .L81
 1055 0092 1340     		ands	r3, r3, r2
 1056 0094 0B63     		str	r3, [r1, #48]
 580:/home/fanxinhao/Work/LiteOS_Lab/drivers/third_party/ST/STM32L4xx_HAL_Driver/Src/stm32l4xx_hal_pwr_ex.c ****        break;
 1057              		.loc 1 580 8
 1058 0096 4BE0     		b	.L79
 1059              	.L75:
 581:/home/fanxinhao/Work/LiteOS_Lab/drivers/third_party/ST/STM32L4xx_HAL_Driver/Src/stm32l4xx_hal_pwr_ex.c **** #if defined(GPIOD)
 582:/home/fanxinhao/Work/LiteOS_Lab/drivers/third_party/ST/STM32L4xx_HAL_Driver/Src/stm32l4xx_hal_pwr_ex.c ****     case PWR_GPIO_D:
 583:/home/fanxinhao/Work/LiteOS_Lab/drivers/third_party/ST/STM32L4xx_HAL_Driver/Src/stm32l4xx_hal_pwr_ex.c ****        SET_BIT(PWR->PDCRD, GPIONumber);
 1060              		.loc 1 583 8
 1061 0098 294B     		ldr	r3, .L81
 1062 009a DA6B     		ldr	r2, [r3, #60]
 1063 009c 2849     		ldr	r1, .L81
 1064 009e 3B68     		ldr	r3, [r7]
 1065 00a0 1343     		orrs	r3, r3, r2
 1066 00a2 CB63     		str	r3, [r1, #60]
 584:/home/fanxinhao/Work/LiteOS_Lab/drivers/third_party/ST/STM32L4xx_HAL_Driver/Src/stm32l4xx_hal_pwr_ex.c ****        CLEAR_BIT(PWR->PUCRD, GPIONumber);
 1067              		.loc 1 584 8
 1068 00a4 264B     		ldr	r3, .L81
 1069 00a6 9A6B     		ldr	r2, [r3, #56]
 1070 00a8 3B68     		ldr	r3, [r7]
 1071 00aa DB43     		mvns	r3, r3
 1072 00ac 2449     		ldr	r1, .L81
 1073 00ae 1340     		ands	r3, r3, r2
 1074 00b0 8B63     		str	r3, [r1, #56]
 585:/home/fanxinhao/Work/LiteOS_Lab/drivers/third_party/ST/STM32L4xx_HAL_Driver/Src/stm32l4xx_hal_pwr_ex.c ****        break;
 1075              		.loc 1 585 8
 1076 00b2 3DE0     		b	.L79
 1077              	.L74:
 586:/home/fanxinhao/Work/LiteOS_Lab/drivers/third_party/ST/STM32L4xx_HAL_Driver/Src/stm32l4xx_hal_pwr_ex.c **** #endif
 587:/home/fanxinhao/Work/LiteOS_Lab/drivers/third_party/ST/STM32L4xx_HAL_Driver/Src/stm32l4xx_hal_pwr_ex.c **** #if defined(GPIOE)
 588:/home/fanxinhao/Work/LiteOS_Lab/drivers/third_party/ST/STM32L4xx_HAL_Driver/Src/stm32l4xx_hal_pwr_ex.c ****     case PWR_GPIO_E:
 589:/home/fanxinhao/Work/LiteOS_Lab/drivers/third_party/ST/STM32L4xx_HAL_Driver/Src/stm32l4xx_hal_pwr_ex.c ****        SET_BIT(PWR->PDCRE, GPIONumber);
 1078              		.loc 1 589 8
 1079 00b4 224B     		ldr	r3, .L81
 1080 00b6 5A6C     		ldr	r2, [r3, #68]
 1081 00b8 2149     		ldr	r1, .L81
 1082 00ba 3B68     		ldr	r3, [r7]
 1083 00bc 1343     		orrs	r3, r3, r2
 1084 00be 4B64     		str	r3, [r1, #68]
 590:/home/fanxinhao/Work/LiteOS_Lab/drivers/third_party/ST/STM32L4xx_HAL_Driver/Src/stm32l4xx_hal_pwr_ex.c ****        CLEAR_BIT(PWR->PUCRE, GPIONumber);
 1085              		.loc 1 590 8
ARM GAS  /tmp/ccwGjgVI.s 			page 30


 1086 00c0 1F4B     		ldr	r3, .L81
 1087 00c2 1A6C     		ldr	r2, [r3, #64]
 1088 00c4 3B68     		ldr	r3, [r7]
 1089 00c6 DB43     		mvns	r3, r3
 1090 00c8 1D49     		ldr	r1, .L81
 1091 00ca 1340     		ands	r3, r3, r2
 1092 00cc 0B64     		str	r3, [r1, #64]
 591:/home/fanxinhao/Work/LiteOS_Lab/drivers/third_party/ST/STM32L4xx_HAL_Driver/Src/stm32l4xx_hal_pwr_ex.c ****        break;
 1093              		.loc 1 591 8
 1094 00ce 2FE0     		b	.L79
 1095              	.L73:
 592:/home/fanxinhao/Work/LiteOS_Lab/drivers/third_party/ST/STM32L4xx_HAL_Driver/Src/stm32l4xx_hal_pwr_ex.c **** #endif
 593:/home/fanxinhao/Work/LiteOS_Lab/drivers/third_party/ST/STM32L4xx_HAL_Driver/Src/stm32l4xx_hal_pwr_ex.c **** #if defined(GPIOF)
 594:/home/fanxinhao/Work/LiteOS_Lab/drivers/third_party/ST/STM32L4xx_HAL_Driver/Src/stm32l4xx_hal_pwr_ex.c ****     case PWR_GPIO_F:
 595:/home/fanxinhao/Work/LiteOS_Lab/drivers/third_party/ST/STM32L4xx_HAL_Driver/Src/stm32l4xx_hal_pwr_ex.c ****        SET_BIT(PWR->PDCRF, GPIONumber);
 1096              		.loc 1 595 8
 1097 00d0 1B4B     		ldr	r3, .L81
 1098 00d2 DA6C     		ldr	r2, [r3, #76]
 1099 00d4 1A49     		ldr	r1, .L81
 1100 00d6 3B68     		ldr	r3, [r7]
 1101 00d8 1343     		orrs	r3, r3, r2
 1102 00da CB64     		str	r3, [r1, #76]
 596:/home/fanxinhao/Work/LiteOS_Lab/drivers/third_party/ST/STM32L4xx_HAL_Driver/Src/stm32l4xx_hal_pwr_ex.c ****        CLEAR_BIT(PWR->PUCRF, GPIONumber);
 1103              		.loc 1 596 8
 1104 00dc 184B     		ldr	r3, .L81
 1105 00de 9A6C     		ldr	r2, [r3, #72]
 1106 00e0 3B68     		ldr	r3, [r7]
 1107 00e2 DB43     		mvns	r3, r3
 1108 00e4 1649     		ldr	r1, .L81
 1109 00e6 1340     		ands	r3, r3, r2
 1110 00e8 8B64     		str	r3, [r1, #72]
 597:/home/fanxinhao/Work/LiteOS_Lab/drivers/third_party/ST/STM32L4xx_HAL_Driver/Src/stm32l4xx_hal_pwr_ex.c ****        break;
 1111              		.loc 1 597 8
 1112 00ea 21E0     		b	.L79
 1113              	.L72:
 598:/home/fanxinhao/Work/LiteOS_Lab/drivers/third_party/ST/STM32L4xx_HAL_Driver/Src/stm32l4xx_hal_pwr_ex.c **** #endif
 599:/home/fanxinhao/Work/LiteOS_Lab/drivers/third_party/ST/STM32L4xx_HAL_Driver/Src/stm32l4xx_hal_pwr_ex.c **** #if defined(GPIOG)
 600:/home/fanxinhao/Work/LiteOS_Lab/drivers/third_party/ST/STM32L4xx_HAL_Driver/Src/stm32l4xx_hal_pwr_ex.c ****     case PWR_GPIO_G:
 601:/home/fanxinhao/Work/LiteOS_Lab/drivers/third_party/ST/STM32L4xx_HAL_Driver/Src/stm32l4xx_hal_pwr_ex.c ****        SET_BIT(PWR->PDCRG, GPIONumber);
 1114              		.loc 1 601 8
 1115 00ec 144B     		ldr	r3, .L81
 1116 00ee 5A6D     		ldr	r2, [r3, #84]
 1117 00f0 1349     		ldr	r1, .L81
 1118 00f2 3B68     		ldr	r3, [r7]
 1119 00f4 1343     		orrs	r3, r3, r2
 1120 00f6 4B65     		str	r3, [r1, #84]
 602:/home/fanxinhao/Work/LiteOS_Lab/drivers/third_party/ST/STM32L4xx_HAL_Driver/Src/stm32l4xx_hal_pwr_ex.c ****        CLEAR_BIT(PWR->PUCRG, GPIONumber);
 1121              		.loc 1 602 8
 1122 00f8 114B     		ldr	r3, .L81
 1123 00fa 1A6D     		ldr	r2, [r3, #80]
 1124 00fc 3B68     		ldr	r3, [r7]
 1125 00fe DB43     		mvns	r3, r3
 1126 0100 0F49     		ldr	r1, .L81
 1127 0102 1340     		ands	r3, r3, r2
 1128 0104 0B65     		str	r3, [r1, #80]
 603:/home/fanxinhao/Work/LiteOS_Lab/drivers/third_party/ST/STM32L4xx_HAL_Driver/Src/stm32l4xx_hal_pwr_ex.c ****        break;
 1129              		.loc 1 603 8
ARM GAS  /tmp/ccwGjgVI.s 			page 31


 1130 0106 13E0     		b	.L79
 1131              	.L70:
 604:/home/fanxinhao/Work/LiteOS_Lab/drivers/third_party/ST/STM32L4xx_HAL_Driver/Src/stm32l4xx_hal_pwr_ex.c **** #endif
 605:/home/fanxinhao/Work/LiteOS_Lab/drivers/third_party/ST/STM32L4xx_HAL_Driver/Src/stm32l4xx_hal_pwr_ex.c ****     case PWR_GPIO_H:
 606:/home/fanxinhao/Work/LiteOS_Lab/drivers/third_party/ST/STM32L4xx_HAL_Driver/Src/stm32l4xx_hal_pwr_ex.c **** #if defined (STM32L496xx) || defined (STM32L4A6xx)
 607:/home/fanxinhao/Work/LiteOS_Lab/drivers/third_party/ST/STM32L4xx_HAL_Driver/Src/stm32l4xx_hal_pwr_ex.c ****        SET_BIT(PWR->PDCRH, ((GPIONumber & PWR_PORTH_AVAILABLE_PINS) & (~(PWR_GPIO_BIT_3))));
 608:/home/fanxinhao/Work/LiteOS_Lab/drivers/third_party/ST/STM32L4xx_HAL_Driver/Src/stm32l4xx_hal_pwr_ex.c **** #else       
 609:/home/fanxinhao/Work/LiteOS_Lab/drivers/third_party/ST/STM32L4xx_HAL_Driver/Src/stm32l4xx_hal_pwr_ex.c ****        SET_BIT(PWR->PDCRH, (GPIONumber & PWR_PORTH_AVAILABLE_PINS));
 1132              		.loc 1 609 8
 1133 0108 0D4B     		ldr	r3, .L81
 1134 010a DA6D     		ldr	r2, [r3, #92]
 1135 010c 3B68     		ldr	r3, [r7]
 1136 010e 03F00303 		and	r3, r3, #3
 1137 0112 0B49     		ldr	r1, .L81
 1138 0114 1343     		orrs	r3, r3, r2
 1139 0116 CB65     		str	r3, [r1, #92]
 610:/home/fanxinhao/Work/LiteOS_Lab/drivers/third_party/ST/STM32L4xx_HAL_Driver/Src/stm32l4xx_hal_pwr_ex.c **** #endif  
 611:/home/fanxinhao/Work/LiteOS_Lab/drivers/third_party/ST/STM32L4xx_HAL_Driver/Src/stm32l4xx_hal_pwr_ex.c ****        CLEAR_BIT(PWR->PUCRH, (GPIONumber & PWR_PORTH_AVAILABLE_PINS));
 1140              		.loc 1 611 8
 1141 0118 094B     		ldr	r3, .L81
 1142 011a 9A6D     		ldr	r2, [r3, #88]
 1143 011c 3B68     		ldr	r3, [r7]
 1144 011e 03F00303 		and	r3, r3, #3
 1145 0122 DB43     		mvns	r3, r3
 1146 0124 0649     		ldr	r1, .L81
 1147 0126 1340     		ands	r3, r3, r2
 1148 0128 8B65     		str	r3, [r1, #88]
 612:/home/fanxinhao/Work/LiteOS_Lab/drivers/third_party/ST/STM32L4xx_HAL_Driver/Src/stm32l4xx_hal_pwr_ex.c ****        break;
 1149              		.loc 1 612 8
 1150 012a 01E0     		b	.L79
 1151              	.L69:
 613:/home/fanxinhao/Work/LiteOS_Lab/drivers/third_party/ST/STM32L4xx_HAL_Driver/Src/stm32l4xx_hal_pwr_ex.c **** #if defined(GPIOI)
 614:/home/fanxinhao/Work/LiteOS_Lab/drivers/third_party/ST/STM32L4xx_HAL_Driver/Src/stm32l4xx_hal_pwr_ex.c ****     case PWR_GPIO_I:
 615:/home/fanxinhao/Work/LiteOS_Lab/drivers/third_party/ST/STM32L4xx_HAL_Driver/Src/stm32l4xx_hal_pwr_ex.c ****        SET_BIT(PWR->PDCRI, (GPIONumber & PWR_PORTI_AVAILABLE_PINS));
 616:/home/fanxinhao/Work/LiteOS_Lab/drivers/third_party/ST/STM32L4xx_HAL_Driver/Src/stm32l4xx_hal_pwr_ex.c ****        CLEAR_BIT(PWR->PUCRI, (GPIONumber & PWR_PORTI_AVAILABLE_PINS));
 617:/home/fanxinhao/Work/LiteOS_Lab/drivers/third_party/ST/STM32L4xx_HAL_Driver/Src/stm32l4xx_hal_pwr_ex.c ****        break;
 618:/home/fanxinhao/Work/LiteOS_Lab/drivers/third_party/ST/STM32L4xx_HAL_Driver/Src/stm32l4xx_hal_pwr_ex.c **** #endif
 619:/home/fanxinhao/Work/LiteOS_Lab/drivers/third_party/ST/STM32L4xx_HAL_Driver/Src/stm32l4xx_hal_pwr_ex.c ****     default:
 620:/home/fanxinhao/Work/LiteOS_Lab/drivers/third_party/ST/STM32L4xx_HAL_Driver/Src/stm32l4xx_hal_pwr_ex.c ****        return HAL_ERROR;
 1152              		.loc 1 620 15
 1153 012c 0123     		movs	r3, #1
 1154 012e 00E0     		b	.L80
 1155              	.L79:
 621:/home/fanxinhao/Work/LiteOS_Lab/drivers/third_party/ST/STM32L4xx_HAL_Driver/Src/stm32l4xx_hal_pwr_ex.c ****   }
 622:/home/fanxinhao/Work/LiteOS_Lab/drivers/third_party/ST/STM32L4xx_HAL_Driver/Src/stm32l4xx_hal_pwr_ex.c ****   
 623:/home/fanxinhao/Work/LiteOS_Lab/drivers/third_party/ST/STM32L4xx_HAL_Driver/Src/stm32l4xx_hal_pwr_ex.c ****   return HAL_OK;
 1156              		.loc 1 623 10
 1157 0130 0023     		movs	r3, #0
 1158              	.L80:
 624:/home/fanxinhao/Work/LiteOS_Lab/drivers/third_party/ST/STM32L4xx_HAL_Driver/Src/stm32l4xx_hal_pwr_ex.c **** }
 1159              		.loc 1 624 1
 1160 0132 1846     		mov	r0, r3
 1161 0134 0C37     		adds	r7, r7, #12
 1162              	.LCFI59:
 1163              		.cfi_def_cfa_offset 4
 1164 0136 BD46     		mov	sp, r7
 1165              	.LCFI60:
ARM GAS  /tmp/ccwGjgVI.s 			page 32


 1166              		.cfi_def_cfa_register 13
 1167              		@ sp needed
 1168 0138 5DF8047B 		ldr	r7, [sp], #4
 1169              	.LCFI61:
 1170              		.cfi_restore 7
 1171              		.cfi_def_cfa_offset 0
 1172 013c 7047     		bx	lr
 1173              	.L82:
 1174 013e 00BF     		.align	2
 1175              	.L81:
 1176 0140 00700040 		.word	1073770496
 1177              		.cfi_endproc
 1178              	.LFE138:
 1180              		.section	.text.HAL_PWREx_DisableGPIOPullDown,"ax",%progbits
 1181              		.align	1
 1182              		.global	HAL_PWREx_DisableGPIOPullDown
 1183              		.syntax unified
 1184              		.thumb
 1185              		.thumb_func
 1186              		.fpu fpv4-sp-d16
 1188              	HAL_PWREx_DisableGPIOPullDown:
 1189              	.LFB139:
 625:/home/fanxinhao/Work/LiteOS_Lab/drivers/third_party/ST/STM32L4xx_HAL_Driver/Src/stm32l4xx_hal_pwr_ex.c **** 
 626:/home/fanxinhao/Work/LiteOS_Lab/drivers/third_party/ST/STM32L4xx_HAL_Driver/Src/stm32l4xx_hal_pwr_ex.c **** 
 627:/home/fanxinhao/Work/LiteOS_Lab/drivers/third_party/ST/STM32L4xx_HAL_Driver/Src/stm32l4xx_hal_pwr_ex.c **** /**
 628:/home/fanxinhao/Work/LiteOS_Lab/drivers/third_party/ST/STM32L4xx_HAL_Driver/Src/stm32l4xx_hal_pwr_ex.c ****   * @brief Disable GPIO pull-down state in Standby and Shutdown modes.
 629:/home/fanxinhao/Work/LiteOS_Lab/drivers/third_party/ST/STM32L4xx_HAL_Driver/Src/stm32l4xx_hal_pwr_ex.c ****   * @note  Reset the relevant PDy bits of PWR_PDCRx register used to configure the I/O
 630:/home/fanxinhao/Work/LiteOS_Lab/drivers/third_party/ST/STM32L4xx_HAL_Driver/Src/stm32l4xx_hal_pwr_ex.c ****   *        in pull-down state in Standby and Shutdown modes. 
 631:/home/fanxinhao/Work/LiteOS_Lab/drivers/third_party/ST/STM32L4xx_HAL_Driver/Src/stm32l4xx_hal_pwr_ex.c ****   * @note  Even if a PDy bit to reset is reserved, the other PDy bits entered as input 
 632:/home/fanxinhao/Work/LiteOS_Lab/drivers/third_party/ST/STM32L4xx_HAL_Driver/Src/stm32l4xx_hal_pwr_ex.c ****   *        parameter at the same time are reset.   
 633:/home/fanxinhao/Work/LiteOS_Lab/drivers/third_party/ST/STM32L4xx_HAL_Driver/Src/stm32l4xx_hal_pwr_ex.c ****   * @param  GPIO: Specifies the IO port. This parameter can be PWR_GPIO_A..PWR_GPIO_H 
 634:/home/fanxinhao/Work/LiteOS_Lab/drivers/third_party/ST/STM32L4xx_HAL_Driver/Src/stm32l4xx_hal_pwr_ex.c ****   *         (or PWR_GPIO_I depending on the devices) to select the GPIO peripheral.
 635:/home/fanxinhao/Work/LiteOS_Lab/drivers/third_party/ST/STM32L4xx_HAL_Driver/Src/stm32l4xx_hal_pwr_ex.c ****   * @param  GPIONumber: Specify the I/O pins numbers.
 636:/home/fanxinhao/Work/LiteOS_Lab/drivers/third_party/ST/STM32L4xx_HAL_Driver/Src/stm32l4xx_hal_pwr_ex.c ****   *         This parameter can be one of the following values:
 637:/home/fanxinhao/Work/LiteOS_Lab/drivers/third_party/ST/STM32L4xx_HAL_Driver/Src/stm32l4xx_hal_pwr_ex.c ****   *         PWR_GPIO_BIT_0, ..., PWR_GPIO_BIT_15 (except for the port where less  
 638:/home/fanxinhao/Work/LiteOS_Lab/drivers/third_party/ST/STM32L4xx_HAL_Driver/Src/stm32l4xx_hal_pwr_ex.c ****   *         I/O pins are available) or the logical OR of several of them to reset 
 639:/home/fanxinhao/Work/LiteOS_Lab/drivers/third_party/ST/STM32L4xx_HAL_Driver/Src/stm32l4xx_hal_pwr_ex.c ****   *         several bits for a given port in a single API call. 
 640:/home/fanxinhao/Work/LiteOS_Lab/drivers/third_party/ST/STM32L4xx_HAL_Driver/Src/stm32l4xx_hal_pwr_ex.c ****   * @retval HAL Status
 641:/home/fanxinhao/Work/LiteOS_Lab/drivers/third_party/ST/STM32L4xx_HAL_Driver/Src/stm32l4xx_hal_pwr_ex.c ****   */   
 642:/home/fanxinhao/Work/LiteOS_Lab/drivers/third_party/ST/STM32L4xx_HAL_Driver/Src/stm32l4xx_hal_pwr_ex.c **** HAL_StatusTypeDef HAL_PWREx_DisableGPIOPullDown(uint32_t GPIO, uint32_t GPIONumber)
 643:/home/fanxinhao/Work/LiteOS_Lab/drivers/third_party/ST/STM32L4xx_HAL_Driver/Src/stm32l4xx_hal_pwr_ex.c **** {
 1190              		.loc 1 643 1
 1191              		.cfi_startproc
 1192              		@ args = 0, pretend = 0, frame = 8
 1193              		@ frame_needed = 1, uses_anonymous_args = 0
 1194              		@ link register save eliminated.
 1195 0000 80B4     		push	{r7}
 1196              	.LCFI62:
 1197              		.cfi_def_cfa_offset 4
 1198              		.cfi_offset 7, -4
 1199 0002 83B0     		sub	sp, sp, #12
 1200              	.LCFI63:
 1201              		.cfi_def_cfa_offset 16
 1202 0004 00AF     		add	r7, sp, #0
 1203              	.LCFI64:
 1204              		.cfi_def_cfa_register 7
 1205 0006 7860     		str	r0, [r7, #4]
ARM GAS  /tmp/ccwGjgVI.s 			page 33


 1206 0008 3960     		str	r1, [r7]
 1207 000a 7B68     		ldr	r3, [r7, #4]
 1208 000c 072B     		cmp	r3, #7
 1209 000e 59D8     		bhi	.L84
 1210 0010 01A2     		adr	r2, .L86
 1211 0012 52F823F0 		ldr	pc, [r2, r3, lsl #2]
 1212 0016 00BF     		.p2align 2
 1213              	.L86:
 1214 0018 39000000 		.word	.L93+1
 1215 001c 4D000000 		.word	.L92+1
 1216 0020 61000000 		.word	.L91+1
 1217 0024 71000000 		.word	.L90+1
 1218 0028 81000000 		.word	.L89+1
 1219 002c 91000000 		.word	.L88+1
 1220 0030 A1000000 		.word	.L87+1
 1221 0034 B1000000 		.word	.L85+1
 1222              		.p2align 1
 1223              	.L93:
 644:/home/fanxinhao/Work/LiteOS_Lab/drivers/third_party/ST/STM32L4xx_HAL_Driver/Src/stm32l4xx_hal_pwr_ex.c ****   assert_param(IS_PWR_GPIO(GPIO));
 645:/home/fanxinhao/Work/LiteOS_Lab/drivers/third_party/ST/STM32L4xx_HAL_Driver/Src/stm32l4xx_hal_pwr_ex.c ****   assert_param(IS_PWR_GPIO_BIT_NUMBER(GPIONumber));
 646:/home/fanxinhao/Work/LiteOS_Lab/drivers/third_party/ST/STM32L4xx_HAL_Driver/Src/stm32l4xx_hal_pwr_ex.c ****    
 647:/home/fanxinhao/Work/LiteOS_Lab/drivers/third_party/ST/STM32L4xx_HAL_Driver/Src/stm32l4xx_hal_pwr_ex.c ****   switch (GPIO)
 648:/home/fanxinhao/Work/LiteOS_Lab/drivers/third_party/ST/STM32L4xx_HAL_Driver/Src/stm32l4xx_hal_pwr_ex.c ****   {
 649:/home/fanxinhao/Work/LiteOS_Lab/drivers/third_party/ST/STM32L4xx_HAL_Driver/Src/stm32l4xx_hal_pwr_ex.c ****     case PWR_GPIO_A:
 650:/home/fanxinhao/Work/LiteOS_Lab/drivers/third_party/ST/STM32L4xx_HAL_Driver/Src/stm32l4xx_hal_pwr_ex.c ****        CLEAR_BIT(PWR->PDCRA, (GPIONumber & (~(PWR_GPIO_BIT_13|PWR_GPIO_BIT_15))));
 1224              		.loc 1 650 8
 1225 0038 274B     		ldr	r3, .L96
 1226 003a 5A6A     		ldr	r2, [r3, #36]
 1227 003c 3B68     		ldr	r3, [r7]
 1228 003e 23F42043 		bic	r3, r3, #40960
 1229 0042 DB43     		mvns	r3, r3
 1230 0044 2449     		ldr	r1, .L96
 1231 0046 1340     		ands	r3, r3, r2
 1232 0048 4B62     		str	r3, [r1, #36]
 651:/home/fanxinhao/Work/LiteOS_Lab/drivers/third_party/ST/STM32L4xx_HAL_Driver/Src/stm32l4xx_hal_pwr_ex.c ****        break;
 1233              		.loc 1 651 8
 1234 004a 3DE0     		b	.L94
 1235              	.L92:
 652:/home/fanxinhao/Work/LiteOS_Lab/drivers/third_party/ST/STM32L4xx_HAL_Driver/Src/stm32l4xx_hal_pwr_ex.c ****     case PWR_GPIO_B:
 653:/home/fanxinhao/Work/LiteOS_Lab/drivers/third_party/ST/STM32L4xx_HAL_Driver/Src/stm32l4xx_hal_pwr_ex.c ****        CLEAR_BIT(PWR->PDCRB, (GPIONumber & (~(PWR_GPIO_BIT_4))));
 1236              		.loc 1 653 8
 1237 004c 224B     		ldr	r3, .L96
 1238 004e DA6A     		ldr	r2, [r3, #44]
 1239 0050 3B68     		ldr	r3, [r7]
 1240 0052 23F01003 		bic	r3, r3, #16
 1241 0056 DB43     		mvns	r3, r3
 1242 0058 1F49     		ldr	r1, .L96
 1243 005a 1340     		ands	r3, r3, r2
 1244 005c CB62     		str	r3, [r1, #44]
 654:/home/fanxinhao/Work/LiteOS_Lab/drivers/third_party/ST/STM32L4xx_HAL_Driver/Src/stm32l4xx_hal_pwr_ex.c ****        break; 
 1245              		.loc 1 654 8
 1246 005e 33E0     		b	.L94
 1247              	.L91:
 655:/home/fanxinhao/Work/LiteOS_Lab/drivers/third_party/ST/STM32L4xx_HAL_Driver/Src/stm32l4xx_hal_pwr_ex.c ****     case PWR_GPIO_C:
 656:/home/fanxinhao/Work/LiteOS_Lab/drivers/third_party/ST/STM32L4xx_HAL_Driver/Src/stm32l4xx_hal_pwr_ex.c ****        CLEAR_BIT(PWR->PDCRC, GPIONumber);
 1248              		.loc 1 656 8
 1249 0060 1D4B     		ldr	r3, .L96
ARM GAS  /tmp/ccwGjgVI.s 			page 34


 1250 0062 5A6B     		ldr	r2, [r3, #52]
 1251 0064 3B68     		ldr	r3, [r7]
 1252 0066 DB43     		mvns	r3, r3
 1253 0068 1B49     		ldr	r1, .L96
 1254 006a 1340     		ands	r3, r3, r2
 1255 006c 4B63     		str	r3, [r1, #52]
 657:/home/fanxinhao/Work/LiteOS_Lab/drivers/third_party/ST/STM32L4xx_HAL_Driver/Src/stm32l4xx_hal_pwr_ex.c ****        break;
 1256              		.loc 1 657 8
 1257 006e 2BE0     		b	.L94
 1258              	.L90:
 658:/home/fanxinhao/Work/LiteOS_Lab/drivers/third_party/ST/STM32L4xx_HAL_Driver/Src/stm32l4xx_hal_pwr_ex.c **** #if defined(GPIOD)
 659:/home/fanxinhao/Work/LiteOS_Lab/drivers/third_party/ST/STM32L4xx_HAL_Driver/Src/stm32l4xx_hal_pwr_ex.c ****     case PWR_GPIO_D:
 660:/home/fanxinhao/Work/LiteOS_Lab/drivers/third_party/ST/STM32L4xx_HAL_Driver/Src/stm32l4xx_hal_pwr_ex.c ****        CLEAR_BIT(PWR->PDCRD, GPIONumber);
 1259              		.loc 1 660 8
 1260 0070 194B     		ldr	r3, .L96
 1261 0072 DA6B     		ldr	r2, [r3, #60]
 1262 0074 3B68     		ldr	r3, [r7]
 1263 0076 DB43     		mvns	r3, r3
 1264 0078 1749     		ldr	r1, .L96
 1265 007a 1340     		ands	r3, r3, r2
 1266 007c CB63     		str	r3, [r1, #60]
 661:/home/fanxinhao/Work/LiteOS_Lab/drivers/third_party/ST/STM32L4xx_HAL_Driver/Src/stm32l4xx_hal_pwr_ex.c ****        break;
 1267              		.loc 1 661 8
 1268 007e 23E0     		b	.L94
 1269              	.L89:
 662:/home/fanxinhao/Work/LiteOS_Lab/drivers/third_party/ST/STM32L4xx_HAL_Driver/Src/stm32l4xx_hal_pwr_ex.c **** #endif
 663:/home/fanxinhao/Work/LiteOS_Lab/drivers/third_party/ST/STM32L4xx_HAL_Driver/Src/stm32l4xx_hal_pwr_ex.c **** #if defined(GPIOE)
 664:/home/fanxinhao/Work/LiteOS_Lab/drivers/third_party/ST/STM32L4xx_HAL_Driver/Src/stm32l4xx_hal_pwr_ex.c ****     case PWR_GPIO_E:
 665:/home/fanxinhao/Work/LiteOS_Lab/drivers/third_party/ST/STM32L4xx_HAL_Driver/Src/stm32l4xx_hal_pwr_ex.c ****        CLEAR_BIT(PWR->PDCRE, GPIONumber);
 1270              		.loc 1 665 8
 1271 0080 154B     		ldr	r3, .L96
 1272 0082 5A6C     		ldr	r2, [r3, #68]
 1273 0084 3B68     		ldr	r3, [r7]
 1274 0086 DB43     		mvns	r3, r3
 1275 0088 1349     		ldr	r1, .L96
 1276 008a 1340     		ands	r3, r3, r2
 1277 008c 4B64     		str	r3, [r1, #68]
 666:/home/fanxinhao/Work/LiteOS_Lab/drivers/third_party/ST/STM32L4xx_HAL_Driver/Src/stm32l4xx_hal_pwr_ex.c ****        break;
 1278              		.loc 1 666 8
 1279 008e 1BE0     		b	.L94
 1280              	.L88:
 667:/home/fanxinhao/Work/LiteOS_Lab/drivers/third_party/ST/STM32L4xx_HAL_Driver/Src/stm32l4xx_hal_pwr_ex.c **** #endif
 668:/home/fanxinhao/Work/LiteOS_Lab/drivers/third_party/ST/STM32L4xx_HAL_Driver/Src/stm32l4xx_hal_pwr_ex.c **** #if defined(GPIOF) 
 669:/home/fanxinhao/Work/LiteOS_Lab/drivers/third_party/ST/STM32L4xx_HAL_Driver/Src/stm32l4xx_hal_pwr_ex.c ****     case PWR_GPIO_F:
 670:/home/fanxinhao/Work/LiteOS_Lab/drivers/third_party/ST/STM32L4xx_HAL_Driver/Src/stm32l4xx_hal_pwr_ex.c ****        CLEAR_BIT(PWR->PDCRF, GPIONumber);
 1281              		.loc 1 670 8
 1282 0090 114B     		ldr	r3, .L96
 1283 0092 DA6C     		ldr	r2, [r3, #76]
 1284 0094 3B68     		ldr	r3, [r7]
 1285 0096 DB43     		mvns	r3, r3
 1286 0098 0F49     		ldr	r1, .L96
 1287 009a 1340     		ands	r3, r3, r2
 1288 009c CB64     		str	r3, [r1, #76]
 671:/home/fanxinhao/Work/LiteOS_Lab/drivers/third_party/ST/STM32L4xx_HAL_Driver/Src/stm32l4xx_hal_pwr_ex.c ****        break;
 1289              		.loc 1 671 8
 1290 009e 13E0     		b	.L94
 1291              	.L87:
ARM GAS  /tmp/ccwGjgVI.s 			page 35


 672:/home/fanxinhao/Work/LiteOS_Lab/drivers/third_party/ST/STM32L4xx_HAL_Driver/Src/stm32l4xx_hal_pwr_ex.c **** #endif
 673:/home/fanxinhao/Work/LiteOS_Lab/drivers/third_party/ST/STM32L4xx_HAL_Driver/Src/stm32l4xx_hal_pwr_ex.c **** #if defined(GPIOG)
 674:/home/fanxinhao/Work/LiteOS_Lab/drivers/third_party/ST/STM32L4xx_HAL_Driver/Src/stm32l4xx_hal_pwr_ex.c ****     case PWR_GPIO_G:
 675:/home/fanxinhao/Work/LiteOS_Lab/drivers/third_party/ST/STM32L4xx_HAL_Driver/Src/stm32l4xx_hal_pwr_ex.c ****        CLEAR_BIT(PWR->PDCRG, GPIONumber);
 1292              		.loc 1 675 8
 1293 00a0 0D4B     		ldr	r3, .L96
 1294 00a2 5A6D     		ldr	r2, [r3, #84]
 1295 00a4 3B68     		ldr	r3, [r7]
 1296 00a6 DB43     		mvns	r3, r3
 1297 00a8 0B49     		ldr	r1, .L96
 1298 00aa 1340     		ands	r3, r3, r2
 1299 00ac 4B65     		str	r3, [r1, #84]
 676:/home/fanxinhao/Work/LiteOS_Lab/drivers/third_party/ST/STM32L4xx_HAL_Driver/Src/stm32l4xx_hal_pwr_ex.c ****        break;
 1300              		.loc 1 676 8
 1301 00ae 0BE0     		b	.L94
 1302              	.L85:
 677:/home/fanxinhao/Work/LiteOS_Lab/drivers/third_party/ST/STM32L4xx_HAL_Driver/Src/stm32l4xx_hal_pwr_ex.c **** #endif
 678:/home/fanxinhao/Work/LiteOS_Lab/drivers/third_party/ST/STM32L4xx_HAL_Driver/Src/stm32l4xx_hal_pwr_ex.c ****     case PWR_GPIO_H:
 679:/home/fanxinhao/Work/LiteOS_Lab/drivers/third_party/ST/STM32L4xx_HAL_Driver/Src/stm32l4xx_hal_pwr_ex.c **** #if defined (STM32L496xx) || defined (STM32L4A6xx)
 680:/home/fanxinhao/Work/LiteOS_Lab/drivers/third_party/ST/STM32L4xx_HAL_Driver/Src/stm32l4xx_hal_pwr_ex.c ****        CLEAR_BIT(PWR->PDCRH, ((GPIONumber & PWR_PORTH_AVAILABLE_PINS) & (~(PWR_GPIO_BIT_3))));
 681:/home/fanxinhao/Work/LiteOS_Lab/drivers/third_party/ST/STM32L4xx_HAL_Driver/Src/stm32l4xx_hal_pwr_ex.c **** #else       
 682:/home/fanxinhao/Work/LiteOS_Lab/drivers/third_party/ST/STM32L4xx_HAL_Driver/Src/stm32l4xx_hal_pwr_ex.c ****        CLEAR_BIT(PWR->PDCRH, (GPIONumber & PWR_PORTH_AVAILABLE_PINS));
 1303              		.loc 1 682 8
 1304 00b0 094B     		ldr	r3, .L96
 1305 00b2 DA6D     		ldr	r2, [r3, #92]
 1306 00b4 3B68     		ldr	r3, [r7]
 1307 00b6 03F00303 		and	r3, r3, #3
 1308 00ba DB43     		mvns	r3, r3
 1309 00bc 0649     		ldr	r1, .L96
 1310 00be 1340     		ands	r3, r3, r2
 1311 00c0 CB65     		str	r3, [r1, #92]
 683:/home/fanxinhao/Work/LiteOS_Lab/drivers/third_party/ST/STM32L4xx_HAL_Driver/Src/stm32l4xx_hal_pwr_ex.c **** #endif     
 684:/home/fanxinhao/Work/LiteOS_Lab/drivers/third_party/ST/STM32L4xx_HAL_Driver/Src/stm32l4xx_hal_pwr_ex.c ****        break; 
 1312              		.loc 1 684 8
 1313 00c2 01E0     		b	.L94
 1314              	.L84:
 685:/home/fanxinhao/Work/LiteOS_Lab/drivers/third_party/ST/STM32L4xx_HAL_Driver/Src/stm32l4xx_hal_pwr_ex.c **** #if defined(GPIOI)
 686:/home/fanxinhao/Work/LiteOS_Lab/drivers/third_party/ST/STM32L4xx_HAL_Driver/Src/stm32l4xx_hal_pwr_ex.c ****     case PWR_GPIO_I:
 687:/home/fanxinhao/Work/LiteOS_Lab/drivers/third_party/ST/STM32L4xx_HAL_Driver/Src/stm32l4xx_hal_pwr_ex.c ****        CLEAR_BIT(PWR->PDCRI, (GPIONumber & PWR_PORTI_AVAILABLE_PINS));
 688:/home/fanxinhao/Work/LiteOS_Lab/drivers/third_party/ST/STM32L4xx_HAL_Driver/Src/stm32l4xx_hal_pwr_ex.c ****        break;
 689:/home/fanxinhao/Work/LiteOS_Lab/drivers/third_party/ST/STM32L4xx_HAL_Driver/Src/stm32l4xx_hal_pwr_ex.c **** #endif
 690:/home/fanxinhao/Work/LiteOS_Lab/drivers/third_party/ST/STM32L4xx_HAL_Driver/Src/stm32l4xx_hal_pwr_ex.c ****     default:
 691:/home/fanxinhao/Work/LiteOS_Lab/drivers/third_party/ST/STM32L4xx_HAL_Driver/Src/stm32l4xx_hal_pwr_ex.c ****        return HAL_ERROR;
 1315              		.loc 1 691 15
 1316 00c4 0123     		movs	r3, #1
 1317 00c6 00E0     		b	.L95
 1318              	.L94:
 692:/home/fanxinhao/Work/LiteOS_Lab/drivers/third_party/ST/STM32L4xx_HAL_Driver/Src/stm32l4xx_hal_pwr_ex.c ****   }
 693:/home/fanxinhao/Work/LiteOS_Lab/drivers/third_party/ST/STM32L4xx_HAL_Driver/Src/stm32l4xx_hal_pwr_ex.c ****   
 694:/home/fanxinhao/Work/LiteOS_Lab/drivers/third_party/ST/STM32L4xx_HAL_Driver/Src/stm32l4xx_hal_pwr_ex.c ****   return HAL_OK;
 1319              		.loc 1 694 10
 1320 00c8 0023     		movs	r3, #0
 1321              	.L95:
 695:/home/fanxinhao/Work/LiteOS_Lab/drivers/third_party/ST/STM32L4xx_HAL_Driver/Src/stm32l4xx_hal_pwr_ex.c **** }
 1322              		.loc 1 695 1
 1323 00ca 1846     		mov	r0, r3
 1324 00cc 0C37     		adds	r7, r7, #12
ARM GAS  /tmp/ccwGjgVI.s 			page 36


 1325              	.LCFI65:
 1326              		.cfi_def_cfa_offset 4
 1327 00ce BD46     		mov	sp, r7
 1328              	.LCFI66:
 1329              		.cfi_def_cfa_register 13
 1330              		@ sp needed
 1331 00d0 5DF8047B 		ldr	r7, [sp], #4
 1332              	.LCFI67:
 1333              		.cfi_restore 7
 1334              		.cfi_def_cfa_offset 0
 1335 00d4 7047     		bx	lr
 1336              	.L97:
 1337 00d6 00BF     		.align	2
 1338              	.L96:
 1339 00d8 00700040 		.word	1073770496
 1340              		.cfi_endproc
 1341              	.LFE139:
 1343              		.section	.text.HAL_PWREx_EnablePullUpPullDownConfig,"ax",%progbits
 1344              		.align	1
 1345              		.global	HAL_PWREx_EnablePullUpPullDownConfig
 1346              		.syntax unified
 1347              		.thumb
 1348              		.thumb_func
 1349              		.fpu fpv4-sp-d16
 1351              	HAL_PWREx_EnablePullUpPullDownConfig:
 1352              	.LFB140:
 696:/home/fanxinhao/Work/LiteOS_Lab/drivers/third_party/ST/STM32L4xx_HAL_Driver/Src/stm32l4xx_hal_pwr_ex.c **** 
 697:/home/fanxinhao/Work/LiteOS_Lab/drivers/third_party/ST/STM32L4xx_HAL_Driver/Src/stm32l4xx_hal_pwr_ex.c **** 
 698:/home/fanxinhao/Work/LiteOS_Lab/drivers/third_party/ST/STM32L4xx_HAL_Driver/Src/stm32l4xx_hal_pwr_ex.c **** 
 699:/home/fanxinhao/Work/LiteOS_Lab/drivers/third_party/ST/STM32L4xx_HAL_Driver/Src/stm32l4xx_hal_pwr_ex.c **** /**
 700:/home/fanxinhao/Work/LiteOS_Lab/drivers/third_party/ST/STM32L4xx_HAL_Driver/Src/stm32l4xx_hal_pwr_ex.c ****   * @brief Enable pull-up and pull-down configuration.
 701:/home/fanxinhao/Work/LiteOS_Lab/drivers/third_party/ST/STM32L4xx_HAL_Driver/Src/stm32l4xx_hal_pwr_ex.c ****   * @note  When APC bit is set, the I/O pull-up and pull-down configurations defined in 
 702:/home/fanxinhao/Work/LiteOS_Lab/drivers/third_party/ST/STM32L4xx_HAL_Driver/Src/stm32l4xx_hal_pwr_ex.c ****   *        PWR_PUCRx and PWR_PDCRx registers are applied in Standby and Shutdown modes.    
 703:/home/fanxinhao/Work/LiteOS_Lab/drivers/third_party/ST/STM32L4xx_HAL_Driver/Src/stm32l4xx_hal_pwr_ex.c ****   * @note  Pull-up set by PUy bit of PWR_PUCRx register is not activated if the corresponding
 704:/home/fanxinhao/Work/LiteOS_Lab/drivers/third_party/ST/STM32L4xx_HAL_Driver/Src/stm32l4xx_hal_pwr_ex.c ****   *        PDy bit of PWR_PDCRx register is also set (pull-down configuration priority is higher). 
 705:/home/fanxinhao/Work/LiteOS_Lab/drivers/third_party/ST/STM32L4xx_HAL_Driver/Src/stm32l4xx_hal_pwr_ex.c ****   *        HAL_PWREx_EnableGPIOPullUp() and HAL_PWREx_EnableGPIOPullDown() API's ensure there 
 706:/home/fanxinhao/Work/LiteOS_Lab/drivers/third_party/ST/STM32L4xx_HAL_Driver/Src/stm32l4xx_hal_pwr_ex.c ****   *        is no conflict when setting PUy or PDy bit.         
 707:/home/fanxinhao/Work/LiteOS_Lab/drivers/third_party/ST/STM32L4xx_HAL_Driver/Src/stm32l4xx_hal_pwr_ex.c ****   * @retval None
 708:/home/fanxinhao/Work/LiteOS_Lab/drivers/third_party/ST/STM32L4xx_HAL_Driver/Src/stm32l4xx_hal_pwr_ex.c ****   */
 709:/home/fanxinhao/Work/LiteOS_Lab/drivers/third_party/ST/STM32L4xx_HAL_Driver/Src/stm32l4xx_hal_pwr_ex.c **** void HAL_PWREx_EnablePullUpPullDownConfig(void)
 710:/home/fanxinhao/Work/LiteOS_Lab/drivers/third_party/ST/STM32L4xx_HAL_Driver/Src/stm32l4xx_hal_pwr_ex.c **** {
 1353              		.loc 1 710 1
 1354              		.cfi_startproc
 1355              		@ args = 0, pretend = 0, frame = 0
 1356              		@ frame_needed = 1, uses_anonymous_args = 0
 1357              		@ link register save eliminated.
 1358 0000 80B4     		push	{r7}
 1359              	.LCFI68:
 1360              		.cfi_def_cfa_offset 4
 1361              		.cfi_offset 7, -4
 1362 0002 00AF     		add	r7, sp, #0
 1363              	.LCFI69:
 1364              		.cfi_def_cfa_register 7
 711:/home/fanxinhao/Work/LiteOS_Lab/drivers/third_party/ST/STM32L4xx_HAL_Driver/Src/stm32l4xx_hal_pwr_ex.c ****   SET_BIT(PWR->CR3, PWR_CR3_APC);
 1365              		.loc 1 711 3
 1366 0004 054B     		ldr	r3, .L99
 1367 0006 9B68     		ldr	r3, [r3, #8]
ARM GAS  /tmp/ccwGjgVI.s 			page 37


 1368 0008 044A     		ldr	r2, .L99
 1369 000a 43F48063 		orr	r3, r3, #1024
 1370 000e 9360     		str	r3, [r2, #8]
 712:/home/fanxinhao/Work/LiteOS_Lab/drivers/third_party/ST/STM32L4xx_HAL_Driver/Src/stm32l4xx_hal_pwr_ex.c **** }
 1371              		.loc 1 712 1
 1372 0010 00BF     		nop
 1373 0012 BD46     		mov	sp, r7
 1374              	.LCFI70:
 1375              		.cfi_def_cfa_register 13
 1376              		@ sp needed
 1377 0014 5DF8047B 		ldr	r7, [sp], #4
 1378              	.LCFI71:
 1379              		.cfi_restore 7
 1380              		.cfi_def_cfa_offset 0
 1381 0018 7047     		bx	lr
 1382              	.L100:
 1383 001a 00BF     		.align	2
 1384              	.L99:
 1385 001c 00700040 		.word	1073770496
 1386              		.cfi_endproc
 1387              	.LFE140:
 1389              		.section	.text.HAL_PWREx_DisablePullUpPullDownConfig,"ax",%progbits
 1390              		.align	1
 1391              		.global	HAL_PWREx_DisablePullUpPullDownConfig
 1392              		.syntax unified
 1393              		.thumb
 1394              		.thumb_func
 1395              		.fpu fpv4-sp-d16
 1397              	HAL_PWREx_DisablePullUpPullDownConfig:
 1398              	.LFB141:
 713:/home/fanxinhao/Work/LiteOS_Lab/drivers/third_party/ST/STM32L4xx_HAL_Driver/Src/stm32l4xx_hal_pwr_ex.c **** 
 714:/home/fanxinhao/Work/LiteOS_Lab/drivers/third_party/ST/STM32L4xx_HAL_Driver/Src/stm32l4xx_hal_pwr_ex.c **** 
 715:/home/fanxinhao/Work/LiteOS_Lab/drivers/third_party/ST/STM32L4xx_HAL_Driver/Src/stm32l4xx_hal_pwr_ex.c **** /**
 716:/home/fanxinhao/Work/LiteOS_Lab/drivers/third_party/ST/STM32L4xx_HAL_Driver/Src/stm32l4xx_hal_pwr_ex.c ****   * @brief Disable pull-up and pull-down configuration.
 717:/home/fanxinhao/Work/LiteOS_Lab/drivers/third_party/ST/STM32L4xx_HAL_Driver/Src/stm32l4xx_hal_pwr_ex.c ****   * @note  When APC bit is cleared, the I/O pull-up and pull-down configurations defined in 
 718:/home/fanxinhao/Work/LiteOS_Lab/drivers/third_party/ST/STM32L4xx_HAL_Driver/Src/stm32l4xx_hal_pwr_ex.c ****   *        PWR_PUCRx and PWR_PDCRx registers are not applied in Standby and Shutdown modes.     
 719:/home/fanxinhao/Work/LiteOS_Lab/drivers/third_party/ST/STM32L4xx_HAL_Driver/Src/stm32l4xx_hal_pwr_ex.c ****   * @retval None
 720:/home/fanxinhao/Work/LiteOS_Lab/drivers/third_party/ST/STM32L4xx_HAL_Driver/Src/stm32l4xx_hal_pwr_ex.c ****   */
 721:/home/fanxinhao/Work/LiteOS_Lab/drivers/third_party/ST/STM32L4xx_HAL_Driver/Src/stm32l4xx_hal_pwr_ex.c **** void HAL_PWREx_DisablePullUpPullDownConfig(void)
 722:/home/fanxinhao/Work/LiteOS_Lab/drivers/third_party/ST/STM32L4xx_HAL_Driver/Src/stm32l4xx_hal_pwr_ex.c **** {
 1399              		.loc 1 722 1
 1400              		.cfi_startproc
 1401              		@ args = 0, pretend = 0, frame = 0
 1402              		@ frame_needed = 1, uses_anonymous_args = 0
 1403              		@ link register save eliminated.
 1404 0000 80B4     		push	{r7}
 1405              	.LCFI72:
 1406              		.cfi_def_cfa_offset 4
 1407              		.cfi_offset 7, -4
 1408 0002 00AF     		add	r7, sp, #0
 1409              	.LCFI73:
 1410              		.cfi_def_cfa_register 7
 723:/home/fanxinhao/Work/LiteOS_Lab/drivers/third_party/ST/STM32L4xx_HAL_Driver/Src/stm32l4xx_hal_pwr_ex.c ****   CLEAR_BIT(PWR->CR3, PWR_CR3_APC);
 1411              		.loc 1 723 3
 1412 0004 054B     		ldr	r3, .L102
 1413 0006 9B68     		ldr	r3, [r3, #8]
 1414 0008 044A     		ldr	r2, .L102
ARM GAS  /tmp/ccwGjgVI.s 			page 38


 1415 000a 23F48063 		bic	r3, r3, #1024
 1416 000e 9360     		str	r3, [r2, #8]
 724:/home/fanxinhao/Work/LiteOS_Lab/drivers/third_party/ST/STM32L4xx_HAL_Driver/Src/stm32l4xx_hal_pwr_ex.c **** }
 1417              		.loc 1 724 1
 1418 0010 00BF     		nop
 1419 0012 BD46     		mov	sp, r7
 1420              	.LCFI74:
 1421              		.cfi_def_cfa_register 13
 1422              		@ sp needed
 1423 0014 5DF8047B 		ldr	r7, [sp], #4
 1424              	.LCFI75:
 1425              		.cfi_restore 7
 1426              		.cfi_def_cfa_offset 0
 1427 0018 7047     		bx	lr
 1428              	.L103:
 1429 001a 00BF     		.align	2
 1430              	.L102:
 1431 001c 00700040 		.word	1073770496
 1432              		.cfi_endproc
 1433              	.LFE141:
 1435              		.section	.text.HAL_PWREx_EnableSRAM2ContentRetention,"ax",%progbits
 1436              		.align	1
 1437              		.global	HAL_PWREx_EnableSRAM2ContentRetention
 1438              		.syntax unified
 1439              		.thumb
 1440              		.thumb_func
 1441              		.fpu fpv4-sp-d16
 1443              	HAL_PWREx_EnableSRAM2ContentRetention:
 1444              	.LFB142:
 725:/home/fanxinhao/Work/LiteOS_Lab/drivers/third_party/ST/STM32L4xx_HAL_Driver/Src/stm32l4xx_hal_pwr_ex.c **** 
 726:/home/fanxinhao/Work/LiteOS_Lab/drivers/third_party/ST/STM32L4xx_HAL_Driver/Src/stm32l4xx_hal_pwr_ex.c **** 
 727:/home/fanxinhao/Work/LiteOS_Lab/drivers/third_party/ST/STM32L4xx_HAL_Driver/Src/stm32l4xx_hal_pwr_ex.c **** 
 728:/home/fanxinhao/Work/LiteOS_Lab/drivers/third_party/ST/STM32L4xx_HAL_Driver/Src/stm32l4xx_hal_pwr_ex.c **** /**
 729:/home/fanxinhao/Work/LiteOS_Lab/drivers/third_party/ST/STM32L4xx_HAL_Driver/Src/stm32l4xx_hal_pwr_ex.c ****   * @brief Enable SRAM2 content retention in Standby mode.
 730:/home/fanxinhao/Work/LiteOS_Lab/drivers/third_party/ST/STM32L4xx_HAL_Driver/Src/stm32l4xx_hal_pwr_ex.c ****   * @note  When RRS bit is set, SRAM2 is powered by the low-power regulator in 
 731:/home/fanxinhao/Work/LiteOS_Lab/drivers/third_party/ST/STM32L4xx_HAL_Driver/Src/stm32l4xx_hal_pwr_ex.c ****   *         Standby mode and its content is kept.    
 732:/home/fanxinhao/Work/LiteOS_Lab/drivers/third_party/ST/STM32L4xx_HAL_Driver/Src/stm32l4xx_hal_pwr_ex.c ****   * @retval None
 733:/home/fanxinhao/Work/LiteOS_Lab/drivers/third_party/ST/STM32L4xx_HAL_Driver/Src/stm32l4xx_hal_pwr_ex.c ****   */
 734:/home/fanxinhao/Work/LiteOS_Lab/drivers/third_party/ST/STM32L4xx_HAL_Driver/Src/stm32l4xx_hal_pwr_ex.c **** void HAL_PWREx_EnableSRAM2ContentRetention(void)
 735:/home/fanxinhao/Work/LiteOS_Lab/drivers/third_party/ST/STM32L4xx_HAL_Driver/Src/stm32l4xx_hal_pwr_ex.c **** {
 1445              		.loc 1 735 1
 1446              		.cfi_startproc
 1447              		@ args = 0, pretend = 0, frame = 0
 1448              		@ frame_needed = 1, uses_anonymous_args = 0
 1449              		@ link register save eliminated.
 1450 0000 80B4     		push	{r7}
 1451              	.LCFI76:
 1452              		.cfi_def_cfa_offset 4
 1453              		.cfi_offset 7, -4
 1454 0002 00AF     		add	r7, sp, #0
 1455              	.LCFI77:
 1456              		.cfi_def_cfa_register 7
 736:/home/fanxinhao/Work/LiteOS_Lab/drivers/third_party/ST/STM32L4xx_HAL_Driver/Src/stm32l4xx_hal_pwr_ex.c ****   SET_BIT(PWR->CR3, PWR_CR3_RRS);
 1457              		.loc 1 736 3
 1458 0004 054B     		ldr	r3, .L105
 1459 0006 9B68     		ldr	r3, [r3, #8]
 1460 0008 044A     		ldr	r2, .L105
ARM GAS  /tmp/ccwGjgVI.s 			page 39


 1461 000a 43F48073 		orr	r3, r3, #256
 1462 000e 9360     		str	r3, [r2, #8]
 737:/home/fanxinhao/Work/LiteOS_Lab/drivers/third_party/ST/STM32L4xx_HAL_Driver/Src/stm32l4xx_hal_pwr_ex.c **** }
 1463              		.loc 1 737 1
 1464 0010 00BF     		nop
 1465 0012 BD46     		mov	sp, r7
 1466              	.LCFI78:
 1467              		.cfi_def_cfa_register 13
 1468              		@ sp needed
 1469 0014 5DF8047B 		ldr	r7, [sp], #4
 1470              	.LCFI79:
 1471              		.cfi_restore 7
 1472              		.cfi_def_cfa_offset 0
 1473 0018 7047     		bx	lr
 1474              	.L106:
 1475 001a 00BF     		.align	2
 1476              	.L105:
 1477 001c 00700040 		.word	1073770496
 1478              		.cfi_endproc
 1479              	.LFE142:
 1481              		.section	.text.HAL_PWREx_DisableSRAM2ContentRetention,"ax",%progbits
 1482              		.align	1
 1483              		.global	HAL_PWREx_DisableSRAM2ContentRetention
 1484              		.syntax unified
 1485              		.thumb
 1486              		.thumb_func
 1487              		.fpu fpv4-sp-d16
 1489              	HAL_PWREx_DisableSRAM2ContentRetention:
 1490              	.LFB143:
 738:/home/fanxinhao/Work/LiteOS_Lab/drivers/third_party/ST/STM32L4xx_HAL_Driver/Src/stm32l4xx_hal_pwr_ex.c **** 
 739:/home/fanxinhao/Work/LiteOS_Lab/drivers/third_party/ST/STM32L4xx_HAL_Driver/Src/stm32l4xx_hal_pwr_ex.c **** 
 740:/home/fanxinhao/Work/LiteOS_Lab/drivers/third_party/ST/STM32L4xx_HAL_Driver/Src/stm32l4xx_hal_pwr_ex.c **** /**
 741:/home/fanxinhao/Work/LiteOS_Lab/drivers/third_party/ST/STM32L4xx_HAL_Driver/Src/stm32l4xx_hal_pwr_ex.c ****   * @brief Disable SRAM2 content retention in Standby mode.
 742:/home/fanxinhao/Work/LiteOS_Lab/drivers/third_party/ST/STM32L4xx_HAL_Driver/Src/stm32l4xx_hal_pwr_ex.c ****   * @note  When RRS bit is reset, SRAM2 is powered off in Standby mode 
 743:/home/fanxinhao/Work/LiteOS_Lab/drivers/third_party/ST/STM32L4xx_HAL_Driver/Src/stm32l4xx_hal_pwr_ex.c ****   *        and its content is lost.      
 744:/home/fanxinhao/Work/LiteOS_Lab/drivers/third_party/ST/STM32L4xx_HAL_Driver/Src/stm32l4xx_hal_pwr_ex.c ****   * @retval None
 745:/home/fanxinhao/Work/LiteOS_Lab/drivers/third_party/ST/STM32L4xx_HAL_Driver/Src/stm32l4xx_hal_pwr_ex.c ****   */
 746:/home/fanxinhao/Work/LiteOS_Lab/drivers/third_party/ST/STM32L4xx_HAL_Driver/Src/stm32l4xx_hal_pwr_ex.c **** void HAL_PWREx_DisableSRAM2ContentRetention(void)
 747:/home/fanxinhao/Work/LiteOS_Lab/drivers/third_party/ST/STM32L4xx_HAL_Driver/Src/stm32l4xx_hal_pwr_ex.c **** {
 1491              		.loc 1 747 1
 1492              		.cfi_startproc
 1493              		@ args = 0, pretend = 0, frame = 0
 1494              		@ frame_needed = 1, uses_anonymous_args = 0
 1495              		@ link register save eliminated.
 1496 0000 80B4     		push	{r7}
 1497              	.LCFI80:
 1498              		.cfi_def_cfa_offset 4
 1499              		.cfi_offset 7, -4
 1500 0002 00AF     		add	r7, sp, #0
 1501              	.LCFI81:
 1502              		.cfi_def_cfa_register 7
 748:/home/fanxinhao/Work/LiteOS_Lab/drivers/third_party/ST/STM32L4xx_HAL_Driver/Src/stm32l4xx_hal_pwr_ex.c ****   CLEAR_BIT(PWR->CR3, PWR_CR3_RRS);
 1503              		.loc 1 748 3
 1504 0004 054B     		ldr	r3, .L108
 1505 0006 9B68     		ldr	r3, [r3, #8]
 1506 0008 044A     		ldr	r2, .L108
 1507 000a 23F48073 		bic	r3, r3, #256
ARM GAS  /tmp/ccwGjgVI.s 			page 40


 1508 000e 9360     		str	r3, [r2, #8]
 749:/home/fanxinhao/Work/LiteOS_Lab/drivers/third_party/ST/STM32L4xx_HAL_Driver/Src/stm32l4xx_hal_pwr_ex.c **** }
 1509              		.loc 1 749 1
 1510 0010 00BF     		nop
 1511 0012 BD46     		mov	sp, r7
 1512              	.LCFI82:
 1513              		.cfi_def_cfa_register 13
 1514              		@ sp needed
 1515 0014 5DF8047B 		ldr	r7, [sp], #4
 1516              	.LCFI83:
 1517              		.cfi_restore 7
 1518              		.cfi_def_cfa_offset 0
 1519 0018 7047     		bx	lr
 1520              	.L109:
 1521 001a 00BF     		.align	2
 1522              	.L108:
 1523 001c 00700040 		.word	1073770496
 1524              		.cfi_endproc
 1525              	.LFE143:
 1527              		.section	.text.HAL_PWREx_EnablePVM1,"ax",%progbits
 1528              		.align	1
 1529              		.global	HAL_PWREx_EnablePVM1
 1530              		.syntax unified
 1531              		.thumb
 1532              		.thumb_func
 1533              		.fpu fpv4-sp-d16
 1535              	HAL_PWREx_EnablePVM1:
 1536              	.LFB144:
 750:/home/fanxinhao/Work/LiteOS_Lab/drivers/third_party/ST/STM32L4xx_HAL_Driver/Src/stm32l4xx_hal_pwr_ex.c **** 
 751:/home/fanxinhao/Work/LiteOS_Lab/drivers/third_party/ST/STM32L4xx_HAL_Driver/Src/stm32l4xx_hal_pwr_ex.c **** 
 752:/home/fanxinhao/Work/LiteOS_Lab/drivers/third_party/ST/STM32L4xx_HAL_Driver/Src/stm32l4xx_hal_pwr_ex.c **** #if defined(PWR_CR1_RRSTP)
 753:/home/fanxinhao/Work/LiteOS_Lab/drivers/third_party/ST/STM32L4xx_HAL_Driver/Src/stm32l4xx_hal_pwr_ex.c **** /**
 754:/home/fanxinhao/Work/LiteOS_Lab/drivers/third_party/ST/STM32L4xx_HAL_Driver/Src/stm32l4xx_hal_pwr_ex.c ****   * @brief Enable SRAM3 content retention in Stop 2 mode.
 755:/home/fanxinhao/Work/LiteOS_Lab/drivers/third_party/ST/STM32L4xx_HAL_Driver/Src/stm32l4xx_hal_pwr_ex.c ****   * @note  When RRSTP bit is set, SRAM3 is powered by the low-power regulator in 
 756:/home/fanxinhao/Work/LiteOS_Lab/drivers/third_party/ST/STM32L4xx_HAL_Driver/Src/stm32l4xx_hal_pwr_ex.c ****   *        Stop 2 mode and its content is kept.    
 757:/home/fanxinhao/Work/LiteOS_Lab/drivers/third_party/ST/STM32L4xx_HAL_Driver/Src/stm32l4xx_hal_pwr_ex.c ****   * @retval None
 758:/home/fanxinhao/Work/LiteOS_Lab/drivers/third_party/ST/STM32L4xx_HAL_Driver/Src/stm32l4xx_hal_pwr_ex.c ****   */
 759:/home/fanxinhao/Work/LiteOS_Lab/drivers/third_party/ST/STM32L4xx_HAL_Driver/Src/stm32l4xx_hal_pwr_ex.c **** void HAL_PWREx_EnableSRAM3ContentRetention(void)
 760:/home/fanxinhao/Work/LiteOS_Lab/drivers/third_party/ST/STM32L4xx_HAL_Driver/Src/stm32l4xx_hal_pwr_ex.c **** {
 761:/home/fanxinhao/Work/LiteOS_Lab/drivers/third_party/ST/STM32L4xx_HAL_Driver/Src/stm32l4xx_hal_pwr_ex.c ****   SET_BIT(PWR->CR1, PWR_CR1_RRSTP);
 762:/home/fanxinhao/Work/LiteOS_Lab/drivers/third_party/ST/STM32L4xx_HAL_Driver/Src/stm32l4xx_hal_pwr_ex.c **** }
 763:/home/fanxinhao/Work/LiteOS_Lab/drivers/third_party/ST/STM32L4xx_HAL_Driver/Src/stm32l4xx_hal_pwr_ex.c **** 
 764:/home/fanxinhao/Work/LiteOS_Lab/drivers/third_party/ST/STM32L4xx_HAL_Driver/Src/stm32l4xx_hal_pwr_ex.c **** 
 765:/home/fanxinhao/Work/LiteOS_Lab/drivers/third_party/ST/STM32L4xx_HAL_Driver/Src/stm32l4xx_hal_pwr_ex.c **** /**
 766:/home/fanxinhao/Work/LiteOS_Lab/drivers/third_party/ST/STM32L4xx_HAL_Driver/Src/stm32l4xx_hal_pwr_ex.c ****   * @brief Disable SRAM3 content retention in Stop 2 mode.
 767:/home/fanxinhao/Work/LiteOS_Lab/drivers/third_party/ST/STM32L4xx_HAL_Driver/Src/stm32l4xx_hal_pwr_ex.c ****   * @note  When RRSTP bit is reset, SRAM3 is powered off in Stop 2 mode 
 768:/home/fanxinhao/Work/LiteOS_Lab/drivers/third_party/ST/STM32L4xx_HAL_Driver/Src/stm32l4xx_hal_pwr_ex.c ****   *        and its content is lost.      
 769:/home/fanxinhao/Work/LiteOS_Lab/drivers/third_party/ST/STM32L4xx_HAL_Driver/Src/stm32l4xx_hal_pwr_ex.c ****   * @retval None
 770:/home/fanxinhao/Work/LiteOS_Lab/drivers/third_party/ST/STM32L4xx_HAL_Driver/Src/stm32l4xx_hal_pwr_ex.c ****   */
 771:/home/fanxinhao/Work/LiteOS_Lab/drivers/third_party/ST/STM32L4xx_HAL_Driver/Src/stm32l4xx_hal_pwr_ex.c **** void HAL_PWREx_DisableSRAM3ContentRetention(void)
 772:/home/fanxinhao/Work/LiteOS_Lab/drivers/third_party/ST/STM32L4xx_HAL_Driver/Src/stm32l4xx_hal_pwr_ex.c **** {
 773:/home/fanxinhao/Work/LiteOS_Lab/drivers/third_party/ST/STM32L4xx_HAL_Driver/Src/stm32l4xx_hal_pwr_ex.c ****   CLEAR_BIT(PWR->CR1, PWR_CR1_RRSTP);
 774:/home/fanxinhao/Work/LiteOS_Lab/drivers/third_party/ST/STM32L4xx_HAL_Driver/Src/stm32l4xx_hal_pwr_ex.c **** }
 775:/home/fanxinhao/Work/LiteOS_Lab/drivers/third_party/ST/STM32L4xx_HAL_Driver/Src/stm32l4xx_hal_pwr_ex.c **** #endif /* PWR_CR1_RRSTP */
 776:/home/fanxinhao/Work/LiteOS_Lab/drivers/third_party/ST/STM32L4xx_HAL_Driver/Src/stm32l4xx_hal_pwr_ex.c **** 
 777:/home/fanxinhao/Work/LiteOS_Lab/drivers/third_party/ST/STM32L4xx_HAL_Driver/Src/stm32l4xx_hal_pwr_ex.c **** #if defined(PWR_CR3_DSIPDEN)
 778:/home/fanxinhao/Work/LiteOS_Lab/drivers/third_party/ST/STM32L4xx_HAL_Driver/Src/stm32l4xx_hal_pwr_ex.c **** /**
ARM GAS  /tmp/ccwGjgVI.s 			page 41


 779:/home/fanxinhao/Work/LiteOS_Lab/drivers/third_party/ST/STM32L4xx_HAL_Driver/Src/stm32l4xx_hal_pwr_ex.c ****   * @brief Enable pull-down activation on DSI pins.   
 780:/home/fanxinhao/Work/LiteOS_Lab/drivers/third_party/ST/STM32L4xx_HAL_Driver/Src/stm32l4xx_hal_pwr_ex.c ****   * @retval None
 781:/home/fanxinhao/Work/LiteOS_Lab/drivers/third_party/ST/STM32L4xx_HAL_Driver/Src/stm32l4xx_hal_pwr_ex.c ****   */
 782:/home/fanxinhao/Work/LiteOS_Lab/drivers/third_party/ST/STM32L4xx_HAL_Driver/Src/stm32l4xx_hal_pwr_ex.c **** void HAL_PWREx_EnableDSIPinsPDActivation(void)
 783:/home/fanxinhao/Work/LiteOS_Lab/drivers/third_party/ST/STM32L4xx_HAL_Driver/Src/stm32l4xx_hal_pwr_ex.c **** {
 784:/home/fanxinhao/Work/LiteOS_Lab/drivers/third_party/ST/STM32L4xx_HAL_Driver/Src/stm32l4xx_hal_pwr_ex.c ****   SET_BIT(PWR->CR3, PWR_CR3_DSIPDEN);
 785:/home/fanxinhao/Work/LiteOS_Lab/drivers/third_party/ST/STM32L4xx_HAL_Driver/Src/stm32l4xx_hal_pwr_ex.c **** }
 786:/home/fanxinhao/Work/LiteOS_Lab/drivers/third_party/ST/STM32L4xx_HAL_Driver/Src/stm32l4xx_hal_pwr_ex.c **** 
 787:/home/fanxinhao/Work/LiteOS_Lab/drivers/third_party/ST/STM32L4xx_HAL_Driver/Src/stm32l4xx_hal_pwr_ex.c **** 
 788:/home/fanxinhao/Work/LiteOS_Lab/drivers/third_party/ST/STM32L4xx_HAL_Driver/Src/stm32l4xx_hal_pwr_ex.c **** /**
 789:/home/fanxinhao/Work/LiteOS_Lab/drivers/third_party/ST/STM32L4xx_HAL_Driver/Src/stm32l4xx_hal_pwr_ex.c ****   * @brief Disable pull-down activation on DSI pins.    
 790:/home/fanxinhao/Work/LiteOS_Lab/drivers/third_party/ST/STM32L4xx_HAL_Driver/Src/stm32l4xx_hal_pwr_ex.c ****   * @retval None
 791:/home/fanxinhao/Work/LiteOS_Lab/drivers/third_party/ST/STM32L4xx_HAL_Driver/Src/stm32l4xx_hal_pwr_ex.c ****   */
 792:/home/fanxinhao/Work/LiteOS_Lab/drivers/third_party/ST/STM32L4xx_HAL_Driver/Src/stm32l4xx_hal_pwr_ex.c **** void HAL_PWREx_DisableDSIPinsPDActivation(void)
 793:/home/fanxinhao/Work/LiteOS_Lab/drivers/third_party/ST/STM32L4xx_HAL_Driver/Src/stm32l4xx_hal_pwr_ex.c **** {
 794:/home/fanxinhao/Work/LiteOS_Lab/drivers/third_party/ST/STM32L4xx_HAL_Driver/Src/stm32l4xx_hal_pwr_ex.c ****   CLEAR_BIT(PWR->CR3, PWR_CR3_DSIPDEN);
 795:/home/fanxinhao/Work/LiteOS_Lab/drivers/third_party/ST/STM32L4xx_HAL_Driver/Src/stm32l4xx_hal_pwr_ex.c **** }
 796:/home/fanxinhao/Work/LiteOS_Lab/drivers/third_party/ST/STM32L4xx_HAL_Driver/Src/stm32l4xx_hal_pwr_ex.c **** #endif /* PWR_CR3_DSIPDEN */
 797:/home/fanxinhao/Work/LiteOS_Lab/drivers/third_party/ST/STM32L4xx_HAL_Driver/Src/stm32l4xx_hal_pwr_ex.c **** 
 798:/home/fanxinhao/Work/LiteOS_Lab/drivers/third_party/ST/STM32L4xx_HAL_Driver/Src/stm32l4xx_hal_pwr_ex.c **** #if defined(PWR_CR2_PVME1)
 799:/home/fanxinhao/Work/LiteOS_Lab/drivers/third_party/ST/STM32L4xx_HAL_Driver/Src/stm32l4xx_hal_pwr_ex.c **** /**
 800:/home/fanxinhao/Work/LiteOS_Lab/drivers/third_party/ST/STM32L4xx_HAL_Driver/Src/stm32l4xx_hal_pwr_ex.c ****   * @brief Enable the Power Voltage Monitoring 1: VDDUSB versus 1.2V.
 801:/home/fanxinhao/Work/LiteOS_Lab/drivers/third_party/ST/STM32L4xx_HAL_Driver/Src/stm32l4xx_hal_pwr_ex.c ****   * @retval None
 802:/home/fanxinhao/Work/LiteOS_Lab/drivers/third_party/ST/STM32L4xx_HAL_Driver/Src/stm32l4xx_hal_pwr_ex.c ****   */
 803:/home/fanxinhao/Work/LiteOS_Lab/drivers/third_party/ST/STM32L4xx_HAL_Driver/Src/stm32l4xx_hal_pwr_ex.c **** void HAL_PWREx_EnablePVM1(void)
 804:/home/fanxinhao/Work/LiteOS_Lab/drivers/third_party/ST/STM32L4xx_HAL_Driver/Src/stm32l4xx_hal_pwr_ex.c **** {
 1537              		.loc 1 804 1
 1538              		.cfi_startproc
 1539              		@ args = 0, pretend = 0, frame = 0
 1540              		@ frame_needed = 1, uses_anonymous_args = 0
 1541              		@ link register save eliminated.
 1542 0000 80B4     		push	{r7}
 1543              	.LCFI84:
 1544              		.cfi_def_cfa_offset 4
 1545              		.cfi_offset 7, -4
 1546 0002 00AF     		add	r7, sp, #0
 1547              	.LCFI85:
 1548              		.cfi_def_cfa_register 7
 805:/home/fanxinhao/Work/LiteOS_Lab/drivers/third_party/ST/STM32L4xx_HAL_Driver/Src/stm32l4xx_hal_pwr_ex.c ****   SET_BIT(PWR->CR2, PWR_PVM_1);    
 1549              		.loc 1 805 3
 1550 0004 054B     		ldr	r3, .L111
 1551 0006 5B68     		ldr	r3, [r3, #4]
 1552 0008 044A     		ldr	r2, .L111
 1553 000a 43F01003 		orr	r3, r3, #16
 1554 000e 5360     		str	r3, [r2, #4]
 806:/home/fanxinhao/Work/LiteOS_Lab/drivers/third_party/ST/STM32L4xx_HAL_Driver/Src/stm32l4xx_hal_pwr_ex.c **** }
 1555              		.loc 1 806 1
 1556 0010 00BF     		nop
 1557 0012 BD46     		mov	sp, r7
 1558              	.LCFI86:
 1559              		.cfi_def_cfa_register 13
 1560              		@ sp needed
 1561 0014 5DF8047B 		ldr	r7, [sp], #4
 1562              	.LCFI87:
 1563              		.cfi_restore 7
 1564              		.cfi_def_cfa_offset 0
 1565 0018 7047     		bx	lr
ARM GAS  /tmp/ccwGjgVI.s 			page 42


 1566              	.L112:
 1567 001a 00BF     		.align	2
 1568              	.L111:
 1569 001c 00700040 		.word	1073770496
 1570              		.cfi_endproc
 1571              	.LFE144:
 1573              		.section	.text.HAL_PWREx_DisablePVM1,"ax",%progbits
 1574              		.align	1
 1575              		.global	HAL_PWREx_DisablePVM1
 1576              		.syntax unified
 1577              		.thumb
 1578              		.thumb_func
 1579              		.fpu fpv4-sp-d16
 1581              	HAL_PWREx_DisablePVM1:
 1582              	.LFB145:
 807:/home/fanxinhao/Work/LiteOS_Lab/drivers/third_party/ST/STM32L4xx_HAL_Driver/Src/stm32l4xx_hal_pwr_ex.c **** 
 808:/home/fanxinhao/Work/LiteOS_Lab/drivers/third_party/ST/STM32L4xx_HAL_Driver/Src/stm32l4xx_hal_pwr_ex.c **** /**
 809:/home/fanxinhao/Work/LiteOS_Lab/drivers/third_party/ST/STM32L4xx_HAL_Driver/Src/stm32l4xx_hal_pwr_ex.c ****   * @brief Disable the Power Voltage Monitoring 1: VDDUSB versus 1.2V.
 810:/home/fanxinhao/Work/LiteOS_Lab/drivers/third_party/ST/STM32L4xx_HAL_Driver/Src/stm32l4xx_hal_pwr_ex.c ****   * @retval None
 811:/home/fanxinhao/Work/LiteOS_Lab/drivers/third_party/ST/STM32L4xx_HAL_Driver/Src/stm32l4xx_hal_pwr_ex.c ****   */
 812:/home/fanxinhao/Work/LiteOS_Lab/drivers/third_party/ST/STM32L4xx_HAL_Driver/Src/stm32l4xx_hal_pwr_ex.c **** void HAL_PWREx_DisablePVM1(void)
 813:/home/fanxinhao/Work/LiteOS_Lab/drivers/third_party/ST/STM32L4xx_HAL_Driver/Src/stm32l4xx_hal_pwr_ex.c **** {
 1583              		.loc 1 813 1
 1584              		.cfi_startproc
 1585              		@ args = 0, pretend = 0, frame = 0
 1586              		@ frame_needed = 1, uses_anonymous_args = 0
 1587              		@ link register save eliminated.
 1588 0000 80B4     		push	{r7}
 1589              	.LCFI88:
 1590              		.cfi_def_cfa_offset 4
 1591              		.cfi_offset 7, -4
 1592 0002 00AF     		add	r7, sp, #0
 1593              	.LCFI89:
 1594              		.cfi_def_cfa_register 7
 814:/home/fanxinhao/Work/LiteOS_Lab/drivers/third_party/ST/STM32L4xx_HAL_Driver/Src/stm32l4xx_hal_pwr_ex.c ****   CLEAR_BIT(PWR->CR2, PWR_PVM_1);    
 1595              		.loc 1 814 3
 1596 0004 054B     		ldr	r3, .L114
 1597 0006 5B68     		ldr	r3, [r3, #4]
 1598 0008 044A     		ldr	r2, .L114
 1599 000a 23F01003 		bic	r3, r3, #16
 1600 000e 5360     		str	r3, [r2, #4]
 815:/home/fanxinhao/Work/LiteOS_Lab/drivers/third_party/ST/STM32L4xx_HAL_Driver/Src/stm32l4xx_hal_pwr_ex.c **** }
 1601              		.loc 1 815 1
 1602 0010 00BF     		nop
 1603 0012 BD46     		mov	sp, r7
 1604              	.LCFI90:
 1605              		.cfi_def_cfa_register 13
 1606              		@ sp needed
 1607 0014 5DF8047B 		ldr	r7, [sp], #4
 1608              	.LCFI91:
 1609              		.cfi_restore 7
 1610              		.cfi_def_cfa_offset 0
 1611 0018 7047     		bx	lr
 1612              	.L115:
 1613 001a 00BF     		.align	2
 1614              	.L114:
 1615 001c 00700040 		.word	1073770496
ARM GAS  /tmp/ccwGjgVI.s 			page 43


 1616              		.cfi_endproc
 1617              	.LFE145:
 1619              		.section	.text.HAL_PWREx_EnablePVM2,"ax",%progbits
 1620              		.align	1
 1621              		.global	HAL_PWREx_EnablePVM2
 1622              		.syntax unified
 1623              		.thumb
 1624              		.thumb_func
 1625              		.fpu fpv4-sp-d16
 1627              	HAL_PWREx_EnablePVM2:
 1628              	.LFB146:
 816:/home/fanxinhao/Work/LiteOS_Lab/drivers/third_party/ST/STM32L4xx_HAL_Driver/Src/stm32l4xx_hal_pwr_ex.c **** #endif /* PWR_CR2_PVME1 */
 817:/home/fanxinhao/Work/LiteOS_Lab/drivers/third_party/ST/STM32L4xx_HAL_Driver/Src/stm32l4xx_hal_pwr_ex.c **** 
 818:/home/fanxinhao/Work/LiteOS_Lab/drivers/third_party/ST/STM32L4xx_HAL_Driver/Src/stm32l4xx_hal_pwr_ex.c **** 
 819:/home/fanxinhao/Work/LiteOS_Lab/drivers/third_party/ST/STM32L4xx_HAL_Driver/Src/stm32l4xx_hal_pwr_ex.c **** #if defined(PWR_CR2_PVME2)
 820:/home/fanxinhao/Work/LiteOS_Lab/drivers/third_party/ST/STM32L4xx_HAL_Driver/Src/stm32l4xx_hal_pwr_ex.c **** /**
 821:/home/fanxinhao/Work/LiteOS_Lab/drivers/third_party/ST/STM32L4xx_HAL_Driver/Src/stm32l4xx_hal_pwr_ex.c ****   * @brief Enable the Power Voltage Monitoring 2: VDDIO2 versus 0.9V.
 822:/home/fanxinhao/Work/LiteOS_Lab/drivers/third_party/ST/STM32L4xx_HAL_Driver/Src/stm32l4xx_hal_pwr_ex.c ****   * @retval None
 823:/home/fanxinhao/Work/LiteOS_Lab/drivers/third_party/ST/STM32L4xx_HAL_Driver/Src/stm32l4xx_hal_pwr_ex.c ****   */
 824:/home/fanxinhao/Work/LiteOS_Lab/drivers/third_party/ST/STM32L4xx_HAL_Driver/Src/stm32l4xx_hal_pwr_ex.c **** void HAL_PWREx_EnablePVM2(void)
 825:/home/fanxinhao/Work/LiteOS_Lab/drivers/third_party/ST/STM32L4xx_HAL_Driver/Src/stm32l4xx_hal_pwr_ex.c **** {
 1629              		.loc 1 825 1
 1630              		.cfi_startproc
 1631              		@ args = 0, pretend = 0, frame = 0
 1632              		@ frame_needed = 1, uses_anonymous_args = 0
 1633              		@ link register save eliminated.
 1634 0000 80B4     		push	{r7}
 1635              	.LCFI92:
 1636              		.cfi_def_cfa_offset 4
 1637              		.cfi_offset 7, -4
 1638 0002 00AF     		add	r7, sp, #0
 1639              	.LCFI93:
 1640              		.cfi_def_cfa_register 7
 826:/home/fanxinhao/Work/LiteOS_Lab/drivers/third_party/ST/STM32L4xx_HAL_Driver/Src/stm32l4xx_hal_pwr_ex.c ****   SET_BIT(PWR->CR2, PWR_PVM_2);    
 1641              		.loc 1 826 3
 1642 0004 054B     		ldr	r3, .L117
 1643 0006 5B68     		ldr	r3, [r3, #4]
 1644 0008 044A     		ldr	r2, .L117
 1645 000a 43F02003 		orr	r3, r3, #32
 1646 000e 5360     		str	r3, [r2, #4]
 827:/home/fanxinhao/Work/LiteOS_Lab/drivers/third_party/ST/STM32L4xx_HAL_Driver/Src/stm32l4xx_hal_pwr_ex.c **** }
 1647              		.loc 1 827 1
 1648 0010 00BF     		nop
 1649 0012 BD46     		mov	sp, r7
 1650              	.LCFI94:
 1651              		.cfi_def_cfa_register 13
 1652              		@ sp needed
 1653 0014 5DF8047B 		ldr	r7, [sp], #4
 1654              	.LCFI95:
 1655              		.cfi_restore 7
 1656              		.cfi_def_cfa_offset 0
 1657 0018 7047     		bx	lr
 1658              	.L118:
 1659 001a 00BF     		.align	2
 1660              	.L117:
 1661 001c 00700040 		.word	1073770496
 1662              		.cfi_endproc
ARM GAS  /tmp/ccwGjgVI.s 			page 44


 1663              	.LFE146:
 1665              		.section	.text.HAL_PWREx_DisablePVM2,"ax",%progbits
 1666              		.align	1
 1667              		.global	HAL_PWREx_DisablePVM2
 1668              		.syntax unified
 1669              		.thumb
 1670              		.thumb_func
 1671              		.fpu fpv4-sp-d16
 1673              	HAL_PWREx_DisablePVM2:
 1674              	.LFB147:
 828:/home/fanxinhao/Work/LiteOS_Lab/drivers/third_party/ST/STM32L4xx_HAL_Driver/Src/stm32l4xx_hal_pwr_ex.c **** 
 829:/home/fanxinhao/Work/LiteOS_Lab/drivers/third_party/ST/STM32L4xx_HAL_Driver/Src/stm32l4xx_hal_pwr_ex.c **** /**
 830:/home/fanxinhao/Work/LiteOS_Lab/drivers/third_party/ST/STM32L4xx_HAL_Driver/Src/stm32l4xx_hal_pwr_ex.c ****   * @brief Disable the Power Voltage Monitoring 2: VDDIO2 versus 0.9V.
 831:/home/fanxinhao/Work/LiteOS_Lab/drivers/third_party/ST/STM32L4xx_HAL_Driver/Src/stm32l4xx_hal_pwr_ex.c ****   * @retval None
 832:/home/fanxinhao/Work/LiteOS_Lab/drivers/third_party/ST/STM32L4xx_HAL_Driver/Src/stm32l4xx_hal_pwr_ex.c ****   */
 833:/home/fanxinhao/Work/LiteOS_Lab/drivers/third_party/ST/STM32L4xx_HAL_Driver/Src/stm32l4xx_hal_pwr_ex.c **** void HAL_PWREx_DisablePVM2(void)
 834:/home/fanxinhao/Work/LiteOS_Lab/drivers/third_party/ST/STM32L4xx_HAL_Driver/Src/stm32l4xx_hal_pwr_ex.c **** {
 1675              		.loc 1 834 1
 1676              		.cfi_startproc
 1677              		@ args = 0, pretend = 0, frame = 0
 1678              		@ frame_needed = 1, uses_anonymous_args = 0
 1679              		@ link register save eliminated.
 1680 0000 80B4     		push	{r7}
 1681              	.LCFI96:
 1682              		.cfi_def_cfa_offset 4
 1683              		.cfi_offset 7, -4
 1684 0002 00AF     		add	r7, sp, #0
 1685              	.LCFI97:
 1686              		.cfi_def_cfa_register 7
 835:/home/fanxinhao/Work/LiteOS_Lab/drivers/third_party/ST/STM32L4xx_HAL_Driver/Src/stm32l4xx_hal_pwr_ex.c ****   CLEAR_BIT(PWR->CR2, PWR_PVM_2);    
 1687              		.loc 1 835 3
 1688 0004 054B     		ldr	r3, .L120
 1689 0006 5B68     		ldr	r3, [r3, #4]
 1690 0008 044A     		ldr	r2, .L120
 1691 000a 23F02003 		bic	r3, r3, #32
 1692 000e 5360     		str	r3, [r2, #4]
 836:/home/fanxinhao/Work/LiteOS_Lab/drivers/third_party/ST/STM32L4xx_HAL_Driver/Src/stm32l4xx_hal_pwr_ex.c **** }
 1693              		.loc 1 836 1
 1694 0010 00BF     		nop
 1695 0012 BD46     		mov	sp, r7
 1696              	.LCFI98:
 1697              		.cfi_def_cfa_register 13
 1698              		@ sp needed
 1699 0014 5DF8047B 		ldr	r7, [sp], #4
 1700              	.LCFI99:
 1701              		.cfi_restore 7
 1702              		.cfi_def_cfa_offset 0
 1703 0018 7047     		bx	lr
 1704              	.L121:
 1705 001a 00BF     		.align	2
 1706              	.L120:
 1707 001c 00700040 		.word	1073770496
 1708              		.cfi_endproc
 1709              	.LFE147:
 1711              		.section	.text.HAL_PWREx_EnablePVM3,"ax",%progbits
 1712              		.align	1
 1713              		.global	HAL_PWREx_EnablePVM3
ARM GAS  /tmp/ccwGjgVI.s 			page 45


 1714              		.syntax unified
 1715              		.thumb
 1716              		.thumb_func
 1717              		.fpu fpv4-sp-d16
 1719              	HAL_PWREx_EnablePVM3:
 1720              	.LFB148:
 837:/home/fanxinhao/Work/LiteOS_Lab/drivers/third_party/ST/STM32L4xx_HAL_Driver/Src/stm32l4xx_hal_pwr_ex.c **** #endif /* PWR_CR2_PVME2 */
 838:/home/fanxinhao/Work/LiteOS_Lab/drivers/third_party/ST/STM32L4xx_HAL_Driver/Src/stm32l4xx_hal_pwr_ex.c **** 
 839:/home/fanxinhao/Work/LiteOS_Lab/drivers/third_party/ST/STM32L4xx_HAL_Driver/Src/stm32l4xx_hal_pwr_ex.c **** 
 840:/home/fanxinhao/Work/LiteOS_Lab/drivers/third_party/ST/STM32L4xx_HAL_Driver/Src/stm32l4xx_hal_pwr_ex.c **** /**
 841:/home/fanxinhao/Work/LiteOS_Lab/drivers/third_party/ST/STM32L4xx_HAL_Driver/Src/stm32l4xx_hal_pwr_ex.c ****   * @brief Enable the Power Voltage Monitoring 3: VDDA versus 1.62V.
 842:/home/fanxinhao/Work/LiteOS_Lab/drivers/third_party/ST/STM32L4xx_HAL_Driver/Src/stm32l4xx_hal_pwr_ex.c ****   * @retval None
 843:/home/fanxinhao/Work/LiteOS_Lab/drivers/third_party/ST/STM32L4xx_HAL_Driver/Src/stm32l4xx_hal_pwr_ex.c ****   */
 844:/home/fanxinhao/Work/LiteOS_Lab/drivers/third_party/ST/STM32L4xx_HAL_Driver/Src/stm32l4xx_hal_pwr_ex.c **** void HAL_PWREx_EnablePVM3(void)
 845:/home/fanxinhao/Work/LiteOS_Lab/drivers/third_party/ST/STM32L4xx_HAL_Driver/Src/stm32l4xx_hal_pwr_ex.c **** {
 1721              		.loc 1 845 1
 1722              		.cfi_startproc
 1723              		@ args = 0, pretend = 0, frame = 0
 1724              		@ frame_needed = 1, uses_anonymous_args = 0
 1725              		@ link register save eliminated.
 1726 0000 80B4     		push	{r7}
 1727              	.LCFI100:
 1728              		.cfi_def_cfa_offset 4
 1729              		.cfi_offset 7, -4
 1730 0002 00AF     		add	r7, sp, #0
 1731              	.LCFI101:
 1732              		.cfi_def_cfa_register 7
 846:/home/fanxinhao/Work/LiteOS_Lab/drivers/third_party/ST/STM32L4xx_HAL_Driver/Src/stm32l4xx_hal_pwr_ex.c ****   SET_BIT(PWR->CR2, PWR_PVM_3);    
 1733              		.loc 1 846 3
 1734 0004 054B     		ldr	r3, .L123
 1735 0006 5B68     		ldr	r3, [r3, #4]
 1736 0008 044A     		ldr	r2, .L123
 1737 000a 43F04003 		orr	r3, r3, #64
 1738 000e 5360     		str	r3, [r2, #4]
 847:/home/fanxinhao/Work/LiteOS_Lab/drivers/third_party/ST/STM32L4xx_HAL_Driver/Src/stm32l4xx_hal_pwr_ex.c **** }
 1739              		.loc 1 847 1
 1740 0010 00BF     		nop
 1741 0012 BD46     		mov	sp, r7
 1742              	.LCFI102:
 1743              		.cfi_def_cfa_register 13
 1744              		@ sp needed
 1745 0014 5DF8047B 		ldr	r7, [sp], #4
 1746              	.LCFI103:
 1747              		.cfi_restore 7
 1748              		.cfi_def_cfa_offset 0
 1749 0018 7047     		bx	lr
 1750              	.L124:
 1751 001a 00BF     		.align	2
 1752              	.L123:
 1753 001c 00700040 		.word	1073770496
 1754              		.cfi_endproc
 1755              	.LFE148:
 1757              		.section	.text.HAL_PWREx_DisablePVM3,"ax",%progbits
 1758              		.align	1
 1759              		.global	HAL_PWREx_DisablePVM3
 1760              		.syntax unified
 1761              		.thumb
ARM GAS  /tmp/ccwGjgVI.s 			page 46


 1762              		.thumb_func
 1763              		.fpu fpv4-sp-d16
 1765              	HAL_PWREx_DisablePVM3:
 1766              	.LFB149:
 848:/home/fanxinhao/Work/LiteOS_Lab/drivers/third_party/ST/STM32L4xx_HAL_Driver/Src/stm32l4xx_hal_pwr_ex.c **** 
 849:/home/fanxinhao/Work/LiteOS_Lab/drivers/third_party/ST/STM32L4xx_HAL_Driver/Src/stm32l4xx_hal_pwr_ex.c **** /**
 850:/home/fanxinhao/Work/LiteOS_Lab/drivers/third_party/ST/STM32L4xx_HAL_Driver/Src/stm32l4xx_hal_pwr_ex.c ****   * @brief Disable the Power Voltage Monitoring 3: VDDA versus 1.62V.
 851:/home/fanxinhao/Work/LiteOS_Lab/drivers/third_party/ST/STM32L4xx_HAL_Driver/Src/stm32l4xx_hal_pwr_ex.c ****   * @retval None
 852:/home/fanxinhao/Work/LiteOS_Lab/drivers/third_party/ST/STM32L4xx_HAL_Driver/Src/stm32l4xx_hal_pwr_ex.c ****   */
 853:/home/fanxinhao/Work/LiteOS_Lab/drivers/third_party/ST/STM32L4xx_HAL_Driver/Src/stm32l4xx_hal_pwr_ex.c **** void HAL_PWREx_DisablePVM3(void)
 854:/home/fanxinhao/Work/LiteOS_Lab/drivers/third_party/ST/STM32L4xx_HAL_Driver/Src/stm32l4xx_hal_pwr_ex.c **** {
 1767              		.loc 1 854 1
 1768              		.cfi_startproc
 1769              		@ args = 0, pretend = 0, frame = 0
 1770              		@ frame_needed = 1, uses_anonymous_args = 0
 1771              		@ link register save eliminated.
 1772 0000 80B4     		push	{r7}
 1773              	.LCFI104:
 1774              		.cfi_def_cfa_offset 4
 1775              		.cfi_offset 7, -4
 1776 0002 00AF     		add	r7, sp, #0
 1777              	.LCFI105:
 1778              		.cfi_def_cfa_register 7
 855:/home/fanxinhao/Work/LiteOS_Lab/drivers/third_party/ST/STM32L4xx_HAL_Driver/Src/stm32l4xx_hal_pwr_ex.c ****   CLEAR_BIT(PWR->CR2, PWR_PVM_3);    
 1779              		.loc 1 855 3
 1780 0004 054B     		ldr	r3, .L126
 1781 0006 5B68     		ldr	r3, [r3, #4]
 1782 0008 044A     		ldr	r2, .L126
 1783 000a 23F04003 		bic	r3, r3, #64
 1784 000e 5360     		str	r3, [r2, #4]
 856:/home/fanxinhao/Work/LiteOS_Lab/drivers/third_party/ST/STM32L4xx_HAL_Driver/Src/stm32l4xx_hal_pwr_ex.c **** }
 1785              		.loc 1 856 1
 1786 0010 00BF     		nop
 1787 0012 BD46     		mov	sp, r7
 1788              	.LCFI106:
 1789              		.cfi_def_cfa_register 13
 1790              		@ sp needed
 1791 0014 5DF8047B 		ldr	r7, [sp], #4
 1792              	.LCFI107:
 1793              		.cfi_restore 7
 1794              		.cfi_def_cfa_offset 0
 1795 0018 7047     		bx	lr
 1796              	.L127:
 1797 001a 00BF     		.align	2
 1798              	.L126:
 1799 001c 00700040 		.word	1073770496
 1800              		.cfi_endproc
 1801              	.LFE149:
 1803              		.section	.text.HAL_PWREx_EnablePVM4,"ax",%progbits
 1804              		.align	1
 1805              		.global	HAL_PWREx_EnablePVM4
 1806              		.syntax unified
 1807              		.thumb
 1808              		.thumb_func
 1809              		.fpu fpv4-sp-d16
 1811              	HAL_PWREx_EnablePVM4:
 1812              	.LFB150:
ARM GAS  /tmp/ccwGjgVI.s 			page 47


 857:/home/fanxinhao/Work/LiteOS_Lab/drivers/third_party/ST/STM32L4xx_HAL_Driver/Src/stm32l4xx_hal_pwr_ex.c **** 
 858:/home/fanxinhao/Work/LiteOS_Lab/drivers/third_party/ST/STM32L4xx_HAL_Driver/Src/stm32l4xx_hal_pwr_ex.c **** 
 859:/home/fanxinhao/Work/LiteOS_Lab/drivers/third_party/ST/STM32L4xx_HAL_Driver/Src/stm32l4xx_hal_pwr_ex.c **** /**
 860:/home/fanxinhao/Work/LiteOS_Lab/drivers/third_party/ST/STM32L4xx_HAL_Driver/Src/stm32l4xx_hal_pwr_ex.c ****   * @brief Enable the Power Voltage Monitoring 4:  VDDA versus 2.2V.
 861:/home/fanxinhao/Work/LiteOS_Lab/drivers/third_party/ST/STM32L4xx_HAL_Driver/Src/stm32l4xx_hal_pwr_ex.c ****   * @retval None
 862:/home/fanxinhao/Work/LiteOS_Lab/drivers/third_party/ST/STM32L4xx_HAL_Driver/Src/stm32l4xx_hal_pwr_ex.c ****   */
 863:/home/fanxinhao/Work/LiteOS_Lab/drivers/third_party/ST/STM32L4xx_HAL_Driver/Src/stm32l4xx_hal_pwr_ex.c **** void HAL_PWREx_EnablePVM4(void)
 864:/home/fanxinhao/Work/LiteOS_Lab/drivers/third_party/ST/STM32L4xx_HAL_Driver/Src/stm32l4xx_hal_pwr_ex.c **** {
 1813              		.loc 1 864 1
 1814              		.cfi_startproc
 1815              		@ args = 0, pretend = 0, frame = 0
 1816              		@ frame_needed = 1, uses_anonymous_args = 0
 1817              		@ link register save eliminated.
 1818 0000 80B4     		push	{r7}
 1819              	.LCFI108:
 1820              		.cfi_def_cfa_offset 4
 1821              		.cfi_offset 7, -4
 1822 0002 00AF     		add	r7, sp, #0
 1823              	.LCFI109:
 1824              		.cfi_def_cfa_register 7
 865:/home/fanxinhao/Work/LiteOS_Lab/drivers/third_party/ST/STM32L4xx_HAL_Driver/Src/stm32l4xx_hal_pwr_ex.c ****   SET_BIT(PWR->CR2, PWR_PVM_4);    
 1825              		.loc 1 865 3
 1826 0004 054B     		ldr	r3, .L129
 1827 0006 5B68     		ldr	r3, [r3, #4]
 1828 0008 044A     		ldr	r2, .L129
 1829 000a 43F08003 		orr	r3, r3, #128
 1830 000e 5360     		str	r3, [r2, #4]
 866:/home/fanxinhao/Work/LiteOS_Lab/drivers/third_party/ST/STM32L4xx_HAL_Driver/Src/stm32l4xx_hal_pwr_ex.c **** }
 1831              		.loc 1 866 1
 1832 0010 00BF     		nop
 1833 0012 BD46     		mov	sp, r7
 1834              	.LCFI110:
 1835              		.cfi_def_cfa_register 13
 1836              		@ sp needed
 1837 0014 5DF8047B 		ldr	r7, [sp], #4
 1838              	.LCFI111:
 1839              		.cfi_restore 7
 1840              		.cfi_def_cfa_offset 0
 1841 0018 7047     		bx	lr
 1842              	.L130:
 1843 001a 00BF     		.align	2
 1844              	.L129:
 1845 001c 00700040 		.word	1073770496
 1846              		.cfi_endproc
 1847              	.LFE150:
 1849              		.section	.text.HAL_PWREx_DisablePVM4,"ax",%progbits
 1850              		.align	1
 1851              		.global	HAL_PWREx_DisablePVM4
 1852              		.syntax unified
 1853              		.thumb
 1854              		.thumb_func
 1855              		.fpu fpv4-sp-d16
 1857              	HAL_PWREx_DisablePVM4:
 1858              	.LFB151:
 867:/home/fanxinhao/Work/LiteOS_Lab/drivers/third_party/ST/STM32L4xx_HAL_Driver/Src/stm32l4xx_hal_pwr_ex.c **** 
 868:/home/fanxinhao/Work/LiteOS_Lab/drivers/third_party/ST/STM32L4xx_HAL_Driver/Src/stm32l4xx_hal_pwr_ex.c **** /**
 869:/home/fanxinhao/Work/LiteOS_Lab/drivers/third_party/ST/STM32L4xx_HAL_Driver/Src/stm32l4xx_hal_pwr_ex.c ****   * @brief Disable the Power Voltage Monitoring 4:  VDDA versus 2.2V.
ARM GAS  /tmp/ccwGjgVI.s 			page 48


 870:/home/fanxinhao/Work/LiteOS_Lab/drivers/third_party/ST/STM32L4xx_HAL_Driver/Src/stm32l4xx_hal_pwr_ex.c ****   * @retval None
 871:/home/fanxinhao/Work/LiteOS_Lab/drivers/third_party/ST/STM32L4xx_HAL_Driver/Src/stm32l4xx_hal_pwr_ex.c ****   */
 872:/home/fanxinhao/Work/LiteOS_Lab/drivers/third_party/ST/STM32L4xx_HAL_Driver/Src/stm32l4xx_hal_pwr_ex.c **** void HAL_PWREx_DisablePVM4(void)
 873:/home/fanxinhao/Work/LiteOS_Lab/drivers/third_party/ST/STM32L4xx_HAL_Driver/Src/stm32l4xx_hal_pwr_ex.c **** {
 1859              		.loc 1 873 1
 1860              		.cfi_startproc
 1861              		@ args = 0, pretend = 0, frame = 0
 1862              		@ frame_needed = 1, uses_anonymous_args = 0
 1863              		@ link register save eliminated.
 1864 0000 80B4     		push	{r7}
 1865              	.LCFI112:
 1866              		.cfi_def_cfa_offset 4
 1867              		.cfi_offset 7, -4
 1868 0002 00AF     		add	r7, sp, #0
 1869              	.LCFI113:
 1870              		.cfi_def_cfa_register 7
 874:/home/fanxinhao/Work/LiteOS_Lab/drivers/third_party/ST/STM32L4xx_HAL_Driver/Src/stm32l4xx_hal_pwr_ex.c ****   CLEAR_BIT(PWR->CR2, PWR_PVM_4);    
 1871              		.loc 1 874 3
 1872 0004 054B     		ldr	r3, .L132
 1873 0006 5B68     		ldr	r3, [r3, #4]
 1874 0008 044A     		ldr	r2, .L132
 1875 000a 23F08003 		bic	r3, r3, #128
 1876 000e 5360     		str	r3, [r2, #4]
 875:/home/fanxinhao/Work/LiteOS_Lab/drivers/third_party/ST/STM32L4xx_HAL_Driver/Src/stm32l4xx_hal_pwr_ex.c **** }
 1877              		.loc 1 875 1
 1878 0010 00BF     		nop
 1879 0012 BD46     		mov	sp, r7
 1880              	.LCFI114:
 1881              		.cfi_def_cfa_register 13
 1882              		@ sp needed
 1883 0014 5DF8047B 		ldr	r7, [sp], #4
 1884              	.LCFI115:
 1885              		.cfi_restore 7
 1886              		.cfi_def_cfa_offset 0
 1887 0018 7047     		bx	lr
 1888              	.L133:
 1889 001a 00BF     		.align	2
 1890              	.L132:
 1891 001c 00700040 		.word	1073770496
 1892              		.cfi_endproc
 1893              	.LFE151:
 1895              		.section	.text.HAL_PWREx_ConfigPVM,"ax",%progbits
 1896              		.align	1
 1897              		.global	HAL_PWREx_ConfigPVM
 1898              		.syntax unified
 1899              		.thumb
 1900              		.thumb_func
 1901              		.fpu fpv4-sp-d16
 1903              	HAL_PWREx_ConfigPVM:
 1904              	.LFB152:
 876:/home/fanxinhao/Work/LiteOS_Lab/drivers/third_party/ST/STM32L4xx_HAL_Driver/Src/stm32l4xx_hal_pwr_ex.c **** 
 877:/home/fanxinhao/Work/LiteOS_Lab/drivers/third_party/ST/STM32L4xx_HAL_Driver/Src/stm32l4xx_hal_pwr_ex.c **** 
 878:/home/fanxinhao/Work/LiteOS_Lab/drivers/third_party/ST/STM32L4xx_HAL_Driver/Src/stm32l4xx_hal_pwr_ex.c **** 
 879:/home/fanxinhao/Work/LiteOS_Lab/drivers/third_party/ST/STM32L4xx_HAL_Driver/Src/stm32l4xx_hal_pwr_ex.c **** 
 880:/home/fanxinhao/Work/LiteOS_Lab/drivers/third_party/ST/STM32L4xx_HAL_Driver/Src/stm32l4xx_hal_pwr_ex.c **** /**
 881:/home/fanxinhao/Work/LiteOS_Lab/drivers/third_party/ST/STM32L4xx_HAL_Driver/Src/stm32l4xx_hal_pwr_ex.c ****   * @brief Configure the Peripheral Voltage Monitoring (PVM).
 882:/home/fanxinhao/Work/LiteOS_Lab/drivers/third_party/ST/STM32L4xx_HAL_Driver/Src/stm32l4xx_hal_pwr_ex.c ****   * @param sConfigPVM: pointer to a PWR_PVMTypeDef structure that contains the
ARM GAS  /tmp/ccwGjgVI.s 			page 49


 883:/home/fanxinhao/Work/LiteOS_Lab/drivers/third_party/ST/STM32L4xx_HAL_Driver/Src/stm32l4xx_hal_pwr_ex.c ****   *        PVM configuration information.
 884:/home/fanxinhao/Work/LiteOS_Lab/drivers/third_party/ST/STM32L4xx_HAL_Driver/Src/stm32l4xx_hal_pwr_ex.c ****   * @note The API configures a single PVM according to the information contained 
 885:/home/fanxinhao/Work/LiteOS_Lab/drivers/third_party/ST/STM32L4xx_HAL_Driver/Src/stm32l4xx_hal_pwr_ex.c ****   *       in the input structure. To configure several PVMs, the API must be singly 
 886:/home/fanxinhao/Work/LiteOS_Lab/drivers/third_party/ST/STM32L4xx_HAL_Driver/Src/stm32l4xx_hal_pwr_ex.c ****   *       called for each PVM used.
 887:/home/fanxinhao/Work/LiteOS_Lab/drivers/third_party/ST/STM32L4xx_HAL_Driver/Src/stm32l4xx_hal_pwr_ex.c ****   * @note Refer to the electrical characteristics of your device datasheet for
 888:/home/fanxinhao/Work/LiteOS_Lab/drivers/third_party/ST/STM32L4xx_HAL_Driver/Src/stm32l4xx_hal_pwr_ex.c ****   *         more details about the voltage thresholds corresponding to each
 889:/home/fanxinhao/Work/LiteOS_Lab/drivers/third_party/ST/STM32L4xx_HAL_Driver/Src/stm32l4xx_hal_pwr_ex.c ****   *         detection level and to each monitored supply.
 890:/home/fanxinhao/Work/LiteOS_Lab/drivers/third_party/ST/STM32L4xx_HAL_Driver/Src/stm32l4xx_hal_pwr_ex.c ****   * @retval HAL status
 891:/home/fanxinhao/Work/LiteOS_Lab/drivers/third_party/ST/STM32L4xx_HAL_Driver/Src/stm32l4xx_hal_pwr_ex.c ****   */
 892:/home/fanxinhao/Work/LiteOS_Lab/drivers/third_party/ST/STM32L4xx_HAL_Driver/Src/stm32l4xx_hal_pwr_ex.c **** HAL_StatusTypeDef HAL_PWREx_ConfigPVM(PWR_PVMTypeDef *sConfigPVM)
 893:/home/fanxinhao/Work/LiteOS_Lab/drivers/third_party/ST/STM32L4xx_HAL_Driver/Src/stm32l4xx_hal_pwr_ex.c **** {  
 1905              		.loc 1 893 1
 1906              		.cfi_startproc
 1907              		@ args = 0, pretend = 0, frame = 8
 1908              		@ frame_needed = 1, uses_anonymous_args = 0
 1909              		@ link register save eliminated.
 1910 0000 80B4     		push	{r7}
 1911              	.LCFI116:
 1912              		.cfi_def_cfa_offset 4
 1913              		.cfi_offset 7, -4
 1914 0002 83B0     		sub	sp, sp, #12
 1915              	.LCFI117:
 1916              		.cfi_def_cfa_offset 16
 1917 0004 00AF     		add	r7, sp, #0
 1918              	.LCFI118:
 1919              		.cfi_def_cfa_register 7
 1920 0006 7860     		str	r0, [r7, #4]
 894:/home/fanxinhao/Work/LiteOS_Lab/drivers/third_party/ST/STM32L4xx_HAL_Driver/Src/stm32l4xx_hal_pwr_ex.c ****   /* Check the parameters */
 895:/home/fanxinhao/Work/LiteOS_Lab/drivers/third_party/ST/STM32L4xx_HAL_Driver/Src/stm32l4xx_hal_pwr_ex.c ****   assert_param(IS_PWR_PVM_TYPE(sConfigPVM->PVMType));
 896:/home/fanxinhao/Work/LiteOS_Lab/drivers/third_party/ST/STM32L4xx_HAL_Driver/Src/stm32l4xx_hal_pwr_ex.c ****   assert_param(IS_PWR_PVM_MODE(sConfigPVM->Mode));
 897:/home/fanxinhao/Work/LiteOS_Lab/drivers/third_party/ST/STM32L4xx_HAL_Driver/Src/stm32l4xx_hal_pwr_ex.c **** 
 898:/home/fanxinhao/Work/LiteOS_Lab/drivers/third_party/ST/STM32L4xx_HAL_Driver/Src/stm32l4xx_hal_pwr_ex.c **** 
 899:/home/fanxinhao/Work/LiteOS_Lab/drivers/third_party/ST/STM32L4xx_HAL_Driver/Src/stm32l4xx_hal_pwr_ex.c ****   /* Configure EXTI 35 to 38 interrupts if so required:
 900:/home/fanxinhao/Work/LiteOS_Lab/drivers/third_party/ST/STM32L4xx_HAL_Driver/Src/stm32l4xx_hal_pwr_ex.c ****      scan thru PVMType to detect which PVMx is set and
 901:/home/fanxinhao/Work/LiteOS_Lab/drivers/third_party/ST/STM32L4xx_HAL_Driver/Src/stm32l4xx_hal_pwr_ex.c ****      configure the corresponding EXTI line accordingly. */
 902:/home/fanxinhao/Work/LiteOS_Lab/drivers/third_party/ST/STM32L4xx_HAL_Driver/Src/stm32l4xx_hal_pwr_ex.c ****   switch (sConfigPVM->PVMType)
 1921              		.loc 1 902 21
 1922 0008 7B68     		ldr	r3, [r7, #4]
 1923 000a 1B68     		ldr	r3, [r3]
 1924              		.loc 1 902 3
 1925 000c 802B     		cmp	r3, #128
 1926 000e 00F0EB80 		beq	.L135
 1927 0012 802B     		cmp	r3, #128
 1928 0014 00F23181 		bhi	.L136
 1929 0018 402B     		cmp	r3, #64
 1930 001a 00F09C80 		beq	.L137
 1931 001e 402B     		cmp	r3, #64
 1932 0020 00F22B81 		bhi	.L136
 1933 0024 102B     		cmp	r3, #16
 1934 0026 02D0     		beq	.L138
 1935 0028 202B     		cmp	r3, #32
 1936 002a 4AD0     		beq	.L139
 1937 002c 25E1     		b	.L136
 1938              	.L138:
 903:/home/fanxinhao/Work/LiteOS_Lab/drivers/third_party/ST/STM32L4xx_HAL_Driver/Src/stm32l4xx_hal_pwr_ex.c ****   {
 904:/home/fanxinhao/Work/LiteOS_Lab/drivers/third_party/ST/STM32L4xx_HAL_Driver/Src/stm32l4xx_hal_pwr_ex.c **** #if defined(PWR_CR2_PVME1)  
 905:/home/fanxinhao/Work/LiteOS_Lab/drivers/third_party/ST/STM32L4xx_HAL_Driver/Src/stm32l4xx_hal_pwr_ex.c ****     case PWR_PVM_1:
ARM GAS  /tmp/ccwGjgVI.s 			page 50


 906:/home/fanxinhao/Work/LiteOS_Lab/drivers/third_party/ST/STM32L4xx_HAL_Driver/Src/stm32l4xx_hal_pwr_ex.c ****       /* Clear any previous config. Keep it clear if no event or IT mode is selected */
 907:/home/fanxinhao/Work/LiteOS_Lab/drivers/third_party/ST/STM32L4xx_HAL_Driver/Src/stm32l4xx_hal_pwr_ex.c ****       __HAL_PWR_PVM1_EXTI_DISABLE_EVENT();
 1939              		.loc 1 907 7
 1940 002e 9B4B     		ldr	r3, .L162
 1941 0030 5B6A     		ldr	r3, [r3, #36]
 1942 0032 9A4A     		ldr	r2, .L162
 1943 0034 23F00803 		bic	r3, r3, #8
 1944 0038 5362     		str	r3, [r2, #36]
 908:/home/fanxinhao/Work/LiteOS_Lab/drivers/third_party/ST/STM32L4xx_HAL_Driver/Src/stm32l4xx_hal_pwr_ex.c ****       __HAL_PWR_PVM1_EXTI_DISABLE_IT();
 1945              		.loc 1 908 7
 1946 003a 984B     		ldr	r3, .L162
 1947 003c 1B6A     		ldr	r3, [r3, #32]
 1948 003e 974A     		ldr	r2, .L162
 1949 0040 23F00803 		bic	r3, r3, #8
 1950 0044 1362     		str	r3, [r2, #32]
 909:/home/fanxinhao/Work/LiteOS_Lab/drivers/third_party/ST/STM32L4xx_HAL_Driver/Src/stm32l4xx_hal_pwr_ex.c ****       __HAL_PWR_PVM1_EXTI_DISABLE_FALLING_EDGE(); 
 1951              		.loc 1 909 7
 1952 0046 954B     		ldr	r3, .L162
 1953 0048 DB6A     		ldr	r3, [r3, #44]
 1954 004a 944A     		ldr	r2, .L162
 1955 004c 23F00803 		bic	r3, r3, #8
 1956 0050 D362     		str	r3, [r2, #44]
 910:/home/fanxinhao/Work/LiteOS_Lab/drivers/third_party/ST/STM32L4xx_HAL_Driver/Src/stm32l4xx_hal_pwr_ex.c ****       __HAL_PWR_PVM1_EXTI_DISABLE_RISING_EDGE();
 1957              		.loc 1 910 7
 1958 0052 924B     		ldr	r3, .L162
 1959 0054 9B6A     		ldr	r3, [r3, #40]
 1960 0056 914A     		ldr	r2, .L162
 1961 0058 23F00803 		bic	r3, r3, #8
 1962 005c 9362     		str	r3, [r2, #40]
 911:/home/fanxinhao/Work/LiteOS_Lab/drivers/third_party/ST/STM32L4xx_HAL_Driver/Src/stm32l4xx_hal_pwr_ex.c **** 
 912:/home/fanxinhao/Work/LiteOS_Lab/drivers/third_party/ST/STM32L4xx_HAL_Driver/Src/stm32l4xx_hal_pwr_ex.c ****       /* Configure interrupt mode */
 913:/home/fanxinhao/Work/LiteOS_Lab/drivers/third_party/ST/STM32L4xx_HAL_Driver/Src/stm32l4xx_hal_pwr_ex.c ****       if((sConfigPVM->Mode & PVM_MODE_IT) == PVM_MODE_IT)
 1963              		.loc 1 913 21
 1964 005e 7B68     		ldr	r3, [r7, #4]
 1965 0060 5B68     		ldr	r3, [r3, #4]
 1966              		.loc 1 913 28
 1967 0062 03F48033 		and	r3, r3, #65536
 1968              		.loc 1 913 9
 1969 0066 002B     		cmp	r3, #0
 1970 0068 05D0     		beq	.L140
 914:/home/fanxinhao/Work/LiteOS_Lab/drivers/third_party/ST/STM32L4xx_HAL_Driver/Src/stm32l4xx_hal_pwr_ex.c ****       {
 915:/home/fanxinhao/Work/LiteOS_Lab/drivers/third_party/ST/STM32L4xx_HAL_Driver/Src/stm32l4xx_hal_pwr_ex.c ****         __HAL_PWR_PVM1_EXTI_ENABLE_IT();
 1971              		.loc 1 915 9
 1972 006a 8C4B     		ldr	r3, .L162
 1973 006c 1B6A     		ldr	r3, [r3, #32]
 1974 006e 8B4A     		ldr	r2, .L162
 1975 0070 43F00803 		orr	r3, r3, #8
 1976 0074 1362     		str	r3, [r2, #32]
 1977              	.L140:
 916:/home/fanxinhao/Work/LiteOS_Lab/drivers/third_party/ST/STM32L4xx_HAL_Driver/Src/stm32l4xx_hal_pwr_ex.c ****       }
 917:/home/fanxinhao/Work/LiteOS_Lab/drivers/third_party/ST/STM32L4xx_HAL_Driver/Src/stm32l4xx_hal_pwr_ex.c ****   
 918:/home/fanxinhao/Work/LiteOS_Lab/drivers/third_party/ST/STM32L4xx_HAL_Driver/Src/stm32l4xx_hal_pwr_ex.c ****       /* Configure event mode */
 919:/home/fanxinhao/Work/LiteOS_Lab/drivers/third_party/ST/STM32L4xx_HAL_Driver/Src/stm32l4xx_hal_pwr_ex.c ****       if((sConfigPVM->Mode & PVM_MODE_EVT) == PVM_MODE_EVT)
 1978              		.loc 1 919 21
 1979 0076 7B68     		ldr	r3, [r7, #4]
 1980 0078 5B68     		ldr	r3, [r3, #4]
 1981              		.loc 1 919 28
ARM GAS  /tmp/ccwGjgVI.s 			page 51


 1982 007a 03F40033 		and	r3, r3, #131072
 1983              		.loc 1 919 9
 1984 007e 002B     		cmp	r3, #0
 1985 0080 05D0     		beq	.L141
 920:/home/fanxinhao/Work/LiteOS_Lab/drivers/third_party/ST/STM32L4xx_HAL_Driver/Src/stm32l4xx_hal_pwr_ex.c ****       {
 921:/home/fanxinhao/Work/LiteOS_Lab/drivers/third_party/ST/STM32L4xx_HAL_Driver/Src/stm32l4xx_hal_pwr_ex.c ****         __HAL_PWR_PVM1_EXTI_ENABLE_EVENT();
 1986              		.loc 1 921 9
 1987 0082 864B     		ldr	r3, .L162
 1988 0084 5B6A     		ldr	r3, [r3, #36]
 1989 0086 854A     		ldr	r2, .L162
 1990 0088 43F00803 		orr	r3, r3, #8
 1991 008c 5362     		str	r3, [r2, #36]
 1992              	.L141:
 922:/home/fanxinhao/Work/LiteOS_Lab/drivers/third_party/ST/STM32L4xx_HAL_Driver/Src/stm32l4xx_hal_pwr_ex.c ****       }
 923:/home/fanxinhao/Work/LiteOS_Lab/drivers/third_party/ST/STM32L4xx_HAL_Driver/Src/stm32l4xx_hal_pwr_ex.c ****   
 924:/home/fanxinhao/Work/LiteOS_Lab/drivers/third_party/ST/STM32L4xx_HAL_Driver/Src/stm32l4xx_hal_pwr_ex.c ****       /* Configure the edge */
 925:/home/fanxinhao/Work/LiteOS_Lab/drivers/third_party/ST/STM32L4xx_HAL_Driver/Src/stm32l4xx_hal_pwr_ex.c ****       if((sConfigPVM->Mode & PVM_RISING_EDGE) == PVM_RISING_EDGE)
 1993              		.loc 1 925 21
 1994 008e 7B68     		ldr	r3, [r7, #4]
 1995 0090 5B68     		ldr	r3, [r3, #4]
 1996              		.loc 1 925 28
 1997 0092 03F00103 		and	r3, r3, #1
 1998              		.loc 1 925 9
 1999 0096 002B     		cmp	r3, #0
 2000 0098 05D0     		beq	.L142
 926:/home/fanxinhao/Work/LiteOS_Lab/drivers/third_party/ST/STM32L4xx_HAL_Driver/Src/stm32l4xx_hal_pwr_ex.c ****       {
 927:/home/fanxinhao/Work/LiteOS_Lab/drivers/third_party/ST/STM32L4xx_HAL_Driver/Src/stm32l4xx_hal_pwr_ex.c ****         __HAL_PWR_PVM1_EXTI_ENABLE_RISING_EDGE();
 2001              		.loc 1 927 9
 2002 009a 804B     		ldr	r3, .L162
 2003 009c 9B6A     		ldr	r3, [r3, #40]
 2004 009e 7F4A     		ldr	r2, .L162
 2005 00a0 43F00803 		orr	r3, r3, #8
 2006 00a4 9362     		str	r3, [r2, #40]
 2007              	.L142:
 928:/home/fanxinhao/Work/LiteOS_Lab/drivers/third_party/ST/STM32L4xx_HAL_Driver/Src/stm32l4xx_hal_pwr_ex.c ****       }
 929:/home/fanxinhao/Work/LiteOS_Lab/drivers/third_party/ST/STM32L4xx_HAL_Driver/Src/stm32l4xx_hal_pwr_ex.c ****   
 930:/home/fanxinhao/Work/LiteOS_Lab/drivers/third_party/ST/STM32L4xx_HAL_Driver/Src/stm32l4xx_hal_pwr_ex.c ****       if((sConfigPVM->Mode & PVM_FALLING_EDGE) == PVM_FALLING_EDGE)
 2008              		.loc 1 930 21
 2009 00a6 7B68     		ldr	r3, [r7, #4]
 2010 00a8 5B68     		ldr	r3, [r3, #4]
 2011              		.loc 1 930 28
 2012 00aa 03F00203 		and	r3, r3, #2
 2013              		.loc 1 930 9
 2014 00ae 002B     		cmp	r3, #0
 2015 00b0 00F0E580 		beq	.L158
 931:/home/fanxinhao/Work/LiteOS_Lab/drivers/third_party/ST/STM32L4xx_HAL_Driver/Src/stm32l4xx_hal_pwr_ex.c ****       {
 932:/home/fanxinhao/Work/LiteOS_Lab/drivers/third_party/ST/STM32L4xx_HAL_Driver/Src/stm32l4xx_hal_pwr_ex.c ****         __HAL_PWR_PVM1_EXTI_ENABLE_FALLING_EDGE();
 2016              		.loc 1 932 9
 2017 00b4 794B     		ldr	r3, .L162
 2018 00b6 DB6A     		ldr	r3, [r3, #44]
 2019 00b8 784A     		ldr	r2, .L162
 2020 00ba 43F00803 		orr	r3, r3, #8
 2021 00be D362     		str	r3, [r2, #44]
 933:/home/fanxinhao/Work/LiteOS_Lab/drivers/third_party/ST/STM32L4xx_HAL_Driver/Src/stm32l4xx_hal_pwr_ex.c ****       }
 934:/home/fanxinhao/Work/LiteOS_Lab/drivers/third_party/ST/STM32L4xx_HAL_Driver/Src/stm32l4xx_hal_pwr_ex.c ****       break; 
 2022              		.loc 1 934 7
 2023 00c0 DDE0     		b	.L158
ARM GAS  /tmp/ccwGjgVI.s 			page 52


 2024              	.L139:
 935:/home/fanxinhao/Work/LiteOS_Lab/drivers/third_party/ST/STM32L4xx_HAL_Driver/Src/stm32l4xx_hal_pwr_ex.c **** #endif /* PWR_CR2_PVME1 */        
 936:/home/fanxinhao/Work/LiteOS_Lab/drivers/third_party/ST/STM32L4xx_HAL_Driver/Src/stm32l4xx_hal_pwr_ex.c ****     
 937:/home/fanxinhao/Work/LiteOS_Lab/drivers/third_party/ST/STM32L4xx_HAL_Driver/Src/stm32l4xx_hal_pwr_ex.c **** #if defined(PWR_CR2_PVME2)    
 938:/home/fanxinhao/Work/LiteOS_Lab/drivers/third_party/ST/STM32L4xx_HAL_Driver/Src/stm32l4xx_hal_pwr_ex.c ****     case PWR_PVM_2:
 939:/home/fanxinhao/Work/LiteOS_Lab/drivers/third_party/ST/STM32L4xx_HAL_Driver/Src/stm32l4xx_hal_pwr_ex.c ****       /* Clear any previous config. Keep it clear if no event or IT mode is selected */
 940:/home/fanxinhao/Work/LiteOS_Lab/drivers/third_party/ST/STM32L4xx_HAL_Driver/Src/stm32l4xx_hal_pwr_ex.c ****       __HAL_PWR_PVM2_EXTI_DISABLE_EVENT();
 2025              		.loc 1 940 7
 2026 00c2 764B     		ldr	r3, .L162
 2027 00c4 5B6A     		ldr	r3, [r3, #36]
 2028 00c6 754A     		ldr	r2, .L162
 2029 00c8 23F01003 		bic	r3, r3, #16
 2030 00cc 5362     		str	r3, [r2, #36]
 941:/home/fanxinhao/Work/LiteOS_Lab/drivers/third_party/ST/STM32L4xx_HAL_Driver/Src/stm32l4xx_hal_pwr_ex.c ****       __HAL_PWR_PVM2_EXTI_DISABLE_IT();
 2031              		.loc 1 941 7
 2032 00ce 734B     		ldr	r3, .L162
 2033 00d0 1B6A     		ldr	r3, [r3, #32]
 2034 00d2 724A     		ldr	r2, .L162
 2035 00d4 23F01003 		bic	r3, r3, #16
 2036 00d8 1362     		str	r3, [r2, #32]
 942:/home/fanxinhao/Work/LiteOS_Lab/drivers/third_party/ST/STM32L4xx_HAL_Driver/Src/stm32l4xx_hal_pwr_ex.c ****       __HAL_PWR_PVM2_EXTI_DISABLE_FALLING_EDGE(); 
 2037              		.loc 1 942 7
 2038 00da 704B     		ldr	r3, .L162
 2039 00dc DB6A     		ldr	r3, [r3, #44]
 2040 00de 6F4A     		ldr	r2, .L162
 2041 00e0 23F01003 		bic	r3, r3, #16
 2042 00e4 D362     		str	r3, [r2, #44]
 943:/home/fanxinhao/Work/LiteOS_Lab/drivers/third_party/ST/STM32L4xx_HAL_Driver/Src/stm32l4xx_hal_pwr_ex.c ****       __HAL_PWR_PVM2_EXTI_DISABLE_RISING_EDGE();
 2043              		.loc 1 943 7
 2044 00e6 6D4B     		ldr	r3, .L162
 2045 00e8 9B6A     		ldr	r3, [r3, #40]
 2046 00ea 6C4A     		ldr	r2, .L162
 2047 00ec 23F01003 		bic	r3, r3, #16
 2048 00f0 9362     		str	r3, [r2, #40]
 944:/home/fanxinhao/Work/LiteOS_Lab/drivers/third_party/ST/STM32L4xx_HAL_Driver/Src/stm32l4xx_hal_pwr_ex.c **** 
 945:/home/fanxinhao/Work/LiteOS_Lab/drivers/third_party/ST/STM32L4xx_HAL_Driver/Src/stm32l4xx_hal_pwr_ex.c ****       /* Configure interrupt mode */
 946:/home/fanxinhao/Work/LiteOS_Lab/drivers/third_party/ST/STM32L4xx_HAL_Driver/Src/stm32l4xx_hal_pwr_ex.c ****       if((sConfigPVM->Mode & PVM_MODE_IT) == PVM_MODE_IT)
 2049              		.loc 1 946 21
 2050 00f2 7B68     		ldr	r3, [r7, #4]
 2051 00f4 5B68     		ldr	r3, [r3, #4]
 2052              		.loc 1 946 28
 2053 00f6 03F48033 		and	r3, r3, #65536
 2054              		.loc 1 946 9
 2055 00fa 002B     		cmp	r3, #0
 2056 00fc 05D0     		beq	.L145
 947:/home/fanxinhao/Work/LiteOS_Lab/drivers/third_party/ST/STM32L4xx_HAL_Driver/Src/stm32l4xx_hal_pwr_ex.c ****       {
 948:/home/fanxinhao/Work/LiteOS_Lab/drivers/third_party/ST/STM32L4xx_HAL_Driver/Src/stm32l4xx_hal_pwr_ex.c ****         __HAL_PWR_PVM2_EXTI_ENABLE_IT();
 2057              		.loc 1 948 9
 2058 00fe 674B     		ldr	r3, .L162
 2059 0100 1B6A     		ldr	r3, [r3, #32]
 2060 0102 664A     		ldr	r2, .L162
 2061 0104 43F01003 		orr	r3, r3, #16
 2062 0108 1362     		str	r3, [r2, #32]
 2063              	.L145:
 949:/home/fanxinhao/Work/LiteOS_Lab/drivers/third_party/ST/STM32L4xx_HAL_Driver/Src/stm32l4xx_hal_pwr_ex.c ****       }
 950:/home/fanxinhao/Work/LiteOS_Lab/drivers/third_party/ST/STM32L4xx_HAL_Driver/Src/stm32l4xx_hal_pwr_ex.c ****   
 951:/home/fanxinhao/Work/LiteOS_Lab/drivers/third_party/ST/STM32L4xx_HAL_Driver/Src/stm32l4xx_hal_pwr_ex.c ****       /* Configure event mode */
ARM GAS  /tmp/ccwGjgVI.s 			page 53


 952:/home/fanxinhao/Work/LiteOS_Lab/drivers/third_party/ST/STM32L4xx_HAL_Driver/Src/stm32l4xx_hal_pwr_ex.c ****       if((sConfigPVM->Mode & PVM_MODE_EVT) == PVM_MODE_EVT)
 2064              		.loc 1 952 21
 2065 010a 7B68     		ldr	r3, [r7, #4]
 2066 010c 5B68     		ldr	r3, [r3, #4]
 2067              		.loc 1 952 28
 2068 010e 03F40033 		and	r3, r3, #131072
 2069              		.loc 1 952 9
 2070 0112 002B     		cmp	r3, #0
 2071 0114 05D0     		beq	.L146
 953:/home/fanxinhao/Work/LiteOS_Lab/drivers/third_party/ST/STM32L4xx_HAL_Driver/Src/stm32l4xx_hal_pwr_ex.c ****       {
 954:/home/fanxinhao/Work/LiteOS_Lab/drivers/third_party/ST/STM32L4xx_HAL_Driver/Src/stm32l4xx_hal_pwr_ex.c ****         __HAL_PWR_PVM2_EXTI_ENABLE_EVENT();
 2072              		.loc 1 954 9
 2073 0116 614B     		ldr	r3, .L162
 2074 0118 5B6A     		ldr	r3, [r3, #36]
 2075 011a 604A     		ldr	r2, .L162
 2076 011c 43F01003 		orr	r3, r3, #16
 2077 0120 5362     		str	r3, [r2, #36]
 2078              	.L146:
 955:/home/fanxinhao/Work/LiteOS_Lab/drivers/third_party/ST/STM32L4xx_HAL_Driver/Src/stm32l4xx_hal_pwr_ex.c ****       }
 956:/home/fanxinhao/Work/LiteOS_Lab/drivers/third_party/ST/STM32L4xx_HAL_Driver/Src/stm32l4xx_hal_pwr_ex.c ****   
 957:/home/fanxinhao/Work/LiteOS_Lab/drivers/third_party/ST/STM32L4xx_HAL_Driver/Src/stm32l4xx_hal_pwr_ex.c ****       /* Configure the edge */
 958:/home/fanxinhao/Work/LiteOS_Lab/drivers/third_party/ST/STM32L4xx_HAL_Driver/Src/stm32l4xx_hal_pwr_ex.c ****       if((sConfigPVM->Mode & PVM_RISING_EDGE) == PVM_RISING_EDGE)
 2079              		.loc 1 958 21
 2080 0122 7B68     		ldr	r3, [r7, #4]
 2081 0124 5B68     		ldr	r3, [r3, #4]
 2082              		.loc 1 958 28
 2083 0126 03F00103 		and	r3, r3, #1
 2084              		.loc 1 958 9
 2085 012a 002B     		cmp	r3, #0
 2086 012c 05D0     		beq	.L147
 959:/home/fanxinhao/Work/LiteOS_Lab/drivers/third_party/ST/STM32L4xx_HAL_Driver/Src/stm32l4xx_hal_pwr_ex.c ****       {
 960:/home/fanxinhao/Work/LiteOS_Lab/drivers/third_party/ST/STM32L4xx_HAL_Driver/Src/stm32l4xx_hal_pwr_ex.c ****         __HAL_PWR_PVM2_EXTI_ENABLE_RISING_EDGE();
 2087              		.loc 1 960 9
 2088 012e 5B4B     		ldr	r3, .L162
 2089 0130 9B6A     		ldr	r3, [r3, #40]
 2090 0132 5A4A     		ldr	r2, .L162
 2091 0134 43F01003 		orr	r3, r3, #16
 2092 0138 9362     		str	r3, [r2, #40]
 2093              	.L147:
 961:/home/fanxinhao/Work/LiteOS_Lab/drivers/third_party/ST/STM32L4xx_HAL_Driver/Src/stm32l4xx_hal_pwr_ex.c ****       }
 962:/home/fanxinhao/Work/LiteOS_Lab/drivers/third_party/ST/STM32L4xx_HAL_Driver/Src/stm32l4xx_hal_pwr_ex.c ****   
 963:/home/fanxinhao/Work/LiteOS_Lab/drivers/third_party/ST/STM32L4xx_HAL_Driver/Src/stm32l4xx_hal_pwr_ex.c ****       if((sConfigPVM->Mode & PVM_FALLING_EDGE) == PVM_FALLING_EDGE)
 2094              		.loc 1 963 21
 2095 013a 7B68     		ldr	r3, [r7, #4]
 2096 013c 5B68     		ldr	r3, [r3, #4]
 2097              		.loc 1 963 28
 2098 013e 03F00203 		and	r3, r3, #2
 2099              		.loc 1 963 9
 2100 0142 002B     		cmp	r3, #0
 2101 0144 00F09D80 		beq	.L159
 964:/home/fanxinhao/Work/LiteOS_Lab/drivers/third_party/ST/STM32L4xx_HAL_Driver/Src/stm32l4xx_hal_pwr_ex.c ****       {
 965:/home/fanxinhao/Work/LiteOS_Lab/drivers/third_party/ST/STM32L4xx_HAL_Driver/Src/stm32l4xx_hal_pwr_ex.c ****         __HAL_PWR_PVM2_EXTI_ENABLE_FALLING_EDGE();
 2102              		.loc 1 965 9
 2103 0148 544B     		ldr	r3, .L162
 2104 014a DB6A     		ldr	r3, [r3, #44]
 2105 014c 534A     		ldr	r2, .L162
 2106 014e 43F01003 		orr	r3, r3, #16
ARM GAS  /tmp/ccwGjgVI.s 			page 54


 2107 0152 D362     		str	r3, [r2, #44]
 966:/home/fanxinhao/Work/LiteOS_Lab/drivers/third_party/ST/STM32L4xx_HAL_Driver/Src/stm32l4xx_hal_pwr_ex.c ****       }
 967:/home/fanxinhao/Work/LiteOS_Lab/drivers/third_party/ST/STM32L4xx_HAL_Driver/Src/stm32l4xx_hal_pwr_ex.c ****       break;
 2108              		.loc 1 967 7
 2109 0154 95E0     		b	.L159
 2110              	.L137:
 968:/home/fanxinhao/Work/LiteOS_Lab/drivers/third_party/ST/STM32L4xx_HAL_Driver/Src/stm32l4xx_hal_pwr_ex.c **** #endif /* PWR_CR2_PVME2 */      
 969:/home/fanxinhao/Work/LiteOS_Lab/drivers/third_party/ST/STM32L4xx_HAL_Driver/Src/stm32l4xx_hal_pwr_ex.c ****       
 970:/home/fanxinhao/Work/LiteOS_Lab/drivers/third_party/ST/STM32L4xx_HAL_Driver/Src/stm32l4xx_hal_pwr_ex.c ****     case PWR_PVM_3:
 971:/home/fanxinhao/Work/LiteOS_Lab/drivers/third_party/ST/STM32L4xx_HAL_Driver/Src/stm32l4xx_hal_pwr_ex.c ****       /* Clear any previous config. Keep it clear if no event or IT mode is selected */
 972:/home/fanxinhao/Work/LiteOS_Lab/drivers/third_party/ST/STM32L4xx_HAL_Driver/Src/stm32l4xx_hal_pwr_ex.c ****       __HAL_PWR_PVM3_EXTI_DISABLE_EVENT();
 2111              		.loc 1 972 7
 2112 0156 514B     		ldr	r3, .L162
 2113 0158 5B6A     		ldr	r3, [r3, #36]
 2114 015a 504A     		ldr	r2, .L162
 2115 015c 23F02003 		bic	r3, r3, #32
 2116 0160 5362     		str	r3, [r2, #36]
 973:/home/fanxinhao/Work/LiteOS_Lab/drivers/third_party/ST/STM32L4xx_HAL_Driver/Src/stm32l4xx_hal_pwr_ex.c ****       __HAL_PWR_PVM3_EXTI_DISABLE_IT();
 2117              		.loc 1 973 7
 2118 0162 4E4B     		ldr	r3, .L162
 2119 0164 1B6A     		ldr	r3, [r3, #32]
 2120 0166 4D4A     		ldr	r2, .L162
 2121 0168 23F02003 		bic	r3, r3, #32
 2122 016c 1362     		str	r3, [r2, #32]
 974:/home/fanxinhao/Work/LiteOS_Lab/drivers/third_party/ST/STM32L4xx_HAL_Driver/Src/stm32l4xx_hal_pwr_ex.c ****       __HAL_PWR_PVM3_EXTI_DISABLE_FALLING_EDGE(); 
 2123              		.loc 1 974 7
 2124 016e 4B4B     		ldr	r3, .L162
 2125 0170 DB6A     		ldr	r3, [r3, #44]
 2126 0172 4A4A     		ldr	r2, .L162
 2127 0174 23F02003 		bic	r3, r3, #32
 2128 0178 D362     		str	r3, [r2, #44]
 975:/home/fanxinhao/Work/LiteOS_Lab/drivers/third_party/ST/STM32L4xx_HAL_Driver/Src/stm32l4xx_hal_pwr_ex.c ****       __HAL_PWR_PVM3_EXTI_DISABLE_RISING_EDGE();
 2129              		.loc 1 975 7
 2130 017a 484B     		ldr	r3, .L162
 2131 017c 9B6A     		ldr	r3, [r3, #40]
 2132 017e 474A     		ldr	r2, .L162
 2133 0180 23F02003 		bic	r3, r3, #32
 2134 0184 9362     		str	r3, [r2, #40]
 976:/home/fanxinhao/Work/LiteOS_Lab/drivers/third_party/ST/STM32L4xx_HAL_Driver/Src/stm32l4xx_hal_pwr_ex.c **** 
 977:/home/fanxinhao/Work/LiteOS_Lab/drivers/third_party/ST/STM32L4xx_HAL_Driver/Src/stm32l4xx_hal_pwr_ex.c ****       /* Configure interrupt mode */
 978:/home/fanxinhao/Work/LiteOS_Lab/drivers/third_party/ST/STM32L4xx_HAL_Driver/Src/stm32l4xx_hal_pwr_ex.c ****       if((sConfigPVM->Mode & PVM_MODE_IT) == PVM_MODE_IT)
 2135              		.loc 1 978 21
 2136 0186 7B68     		ldr	r3, [r7, #4]
 2137 0188 5B68     		ldr	r3, [r3, #4]
 2138              		.loc 1 978 28
 2139 018a 03F48033 		and	r3, r3, #65536
 2140              		.loc 1 978 9
 2141 018e 002B     		cmp	r3, #0
 2142 0190 05D0     		beq	.L149
 979:/home/fanxinhao/Work/LiteOS_Lab/drivers/third_party/ST/STM32L4xx_HAL_Driver/Src/stm32l4xx_hal_pwr_ex.c ****       {
 980:/home/fanxinhao/Work/LiteOS_Lab/drivers/third_party/ST/STM32L4xx_HAL_Driver/Src/stm32l4xx_hal_pwr_ex.c ****         __HAL_PWR_PVM3_EXTI_ENABLE_IT();
 2143              		.loc 1 980 9
 2144 0192 424B     		ldr	r3, .L162
 2145 0194 1B6A     		ldr	r3, [r3, #32]
 2146 0196 414A     		ldr	r2, .L162
 2147 0198 43F02003 		orr	r3, r3, #32
 2148 019c 1362     		str	r3, [r2, #32]
ARM GAS  /tmp/ccwGjgVI.s 			page 55


 2149              	.L149:
 981:/home/fanxinhao/Work/LiteOS_Lab/drivers/third_party/ST/STM32L4xx_HAL_Driver/Src/stm32l4xx_hal_pwr_ex.c ****       }
 982:/home/fanxinhao/Work/LiteOS_Lab/drivers/third_party/ST/STM32L4xx_HAL_Driver/Src/stm32l4xx_hal_pwr_ex.c ****   
 983:/home/fanxinhao/Work/LiteOS_Lab/drivers/third_party/ST/STM32L4xx_HAL_Driver/Src/stm32l4xx_hal_pwr_ex.c ****       /* Configure event mode */
 984:/home/fanxinhao/Work/LiteOS_Lab/drivers/third_party/ST/STM32L4xx_HAL_Driver/Src/stm32l4xx_hal_pwr_ex.c ****       if((sConfigPVM->Mode & PVM_MODE_EVT) == PVM_MODE_EVT)
 2150              		.loc 1 984 21
 2151 019e 7B68     		ldr	r3, [r7, #4]
 2152 01a0 5B68     		ldr	r3, [r3, #4]
 2153              		.loc 1 984 28
 2154 01a2 03F40033 		and	r3, r3, #131072
 2155              		.loc 1 984 9
 2156 01a6 002B     		cmp	r3, #0
 2157 01a8 05D0     		beq	.L150
 985:/home/fanxinhao/Work/LiteOS_Lab/drivers/third_party/ST/STM32L4xx_HAL_Driver/Src/stm32l4xx_hal_pwr_ex.c ****       {
 986:/home/fanxinhao/Work/LiteOS_Lab/drivers/third_party/ST/STM32L4xx_HAL_Driver/Src/stm32l4xx_hal_pwr_ex.c ****         __HAL_PWR_PVM3_EXTI_ENABLE_EVENT();
 2158              		.loc 1 986 9
 2159 01aa 3C4B     		ldr	r3, .L162
 2160 01ac 5B6A     		ldr	r3, [r3, #36]
 2161 01ae 3B4A     		ldr	r2, .L162
 2162 01b0 43F02003 		orr	r3, r3, #32
 2163 01b4 5362     		str	r3, [r2, #36]
 2164              	.L150:
 987:/home/fanxinhao/Work/LiteOS_Lab/drivers/third_party/ST/STM32L4xx_HAL_Driver/Src/stm32l4xx_hal_pwr_ex.c ****       }
 988:/home/fanxinhao/Work/LiteOS_Lab/drivers/third_party/ST/STM32L4xx_HAL_Driver/Src/stm32l4xx_hal_pwr_ex.c ****   
 989:/home/fanxinhao/Work/LiteOS_Lab/drivers/third_party/ST/STM32L4xx_HAL_Driver/Src/stm32l4xx_hal_pwr_ex.c ****       /* Configure the edge */
 990:/home/fanxinhao/Work/LiteOS_Lab/drivers/third_party/ST/STM32L4xx_HAL_Driver/Src/stm32l4xx_hal_pwr_ex.c ****       if((sConfigPVM->Mode & PVM_RISING_EDGE) == PVM_RISING_EDGE)
 2165              		.loc 1 990 21
 2166 01b6 7B68     		ldr	r3, [r7, #4]
 2167 01b8 5B68     		ldr	r3, [r3, #4]
 2168              		.loc 1 990 28
 2169 01ba 03F00103 		and	r3, r3, #1
 2170              		.loc 1 990 9
 2171 01be 002B     		cmp	r3, #0
 2172 01c0 05D0     		beq	.L151
 991:/home/fanxinhao/Work/LiteOS_Lab/drivers/third_party/ST/STM32L4xx_HAL_Driver/Src/stm32l4xx_hal_pwr_ex.c ****       {
 992:/home/fanxinhao/Work/LiteOS_Lab/drivers/third_party/ST/STM32L4xx_HAL_Driver/Src/stm32l4xx_hal_pwr_ex.c ****         __HAL_PWR_PVM3_EXTI_ENABLE_RISING_EDGE();
 2173              		.loc 1 992 9
 2174 01c2 364B     		ldr	r3, .L162
 2175 01c4 9B6A     		ldr	r3, [r3, #40]
 2176 01c6 354A     		ldr	r2, .L162
 2177 01c8 43F02003 		orr	r3, r3, #32
 2178 01cc 9362     		str	r3, [r2, #40]
 2179              	.L151:
 993:/home/fanxinhao/Work/LiteOS_Lab/drivers/third_party/ST/STM32L4xx_HAL_Driver/Src/stm32l4xx_hal_pwr_ex.c ****       }
 994:/home/fanxinhao/Work/LiteOS_Lab/drivers/third_party/ST/STM32L4xx_HAL_Driver/Src/stm32l4xx_hal_pwr_ex.c ****   
 995:/home/fanxinhao/Work/LiteOS_Lab/drivers/third_party/ST/STM32L4xx_HAL_Driver/Src/stm32l4xx_hal_pwr_ex.c ****       if((sConfigPVM->Mode & PVM_FALLING_EDGE) == PVM_FALLING_EDGE)
 2180              		.loc 1 995 21
 2181 01ce 7B68     		ldr	r3, [r7, #4]
 2182 01d0 5B68     		ldr	r3, [r3, #4]
 2183              		.loc 1 995 28
 2184 01d2 03F00203 		and	r3, r3, #2
 2185              		.loc 1 995 9
 2186 01d6 002B     		cmp	r3, #0
 2187 01d8 55D0     		beq	.L160
 996:/home/fanxinhao/Work/LiteOS_Lab/drivers/third_party/ST/STM32L4xx_HAL_Driver/Src/stm32l4xx_hal_pwr_ex.c ****       {
 997:/home/fanxinhao/Work/LiteOS_Lab/drivers/third_party/ST/STM32L4xx_HAL_Driver/Src/stm32l4xx_hal_pwr_ex.c ****         __HAL_PWR_PVM3_EXTI_ENABLE_FALLING_EDGE();
 2188              		.loc 1 997 9
ARM GAS  /tmp/ccwGjgVI.s 			page 56


 2189 01da 304B     		ldr	r3, .L162
 2190 01dc DB6A     		ldr	r3, [r3, #44]
 2191 01de 2F4A     		ldr	r2, .L162
 2192 01e0 43F02003 		orr	r3, r3, #32
 2193 01e4 D362     		str	r3, [r2, #44]
 998:/home/fanxinhao/Work/LiteOS_Lab/drivers/third_party/ST/STM32L4xx_HAL_Driver/Src/stm32l4xx_hal_pwr_ex.c ****       }
 999:/home/fanxinhao/Work/LiteOS_Lab/drivers/third_party/ST/STM32L4xx_HAL_Driver/Src/stm32l4xx_hal_pwr_ex.c ****       break;
 2194              		.loc 1 999 7
 2195 01e6 4EE0     		b	.L160
 2196              	.L135:
1000:/home/fanxinhao/Work/LiteOS_Lab/drivers/third_party/ST/STM32L4xx_HAL_Driver/Src/stm32l4xx_hal_pwr_ex.c ****       
1001:/home/fanxinhao/Work/LiteOS_Lab/drivers/third_party/ST/STM32L4xx_HAL_Driver/Src/stm32l4xx_hal_pwr_ex.c ****     case PWR_PVM_4:
1002:/home/fanxinhao/Work/LiteOS_Lab/drivers/third_party/ST/STM32L4xx_HAL_Driver/Src/stm32l4xx_hal_pwr_ex.c ****       /* Clear any previous config. Keep it clear if no event or IT mode is selected */
1003:/home/fanxinhao/Work/LiteOS_Lab/drivers/third_party/ST/STM32L4xx_HAL_Driver/Src/stm32l4xx_hal_pwr_ex.c ****       __HAL_PWR_PVM4_EXTI_DISABLE_EVENT();
 2197              		.loc 1 1003 7
 2198 01e8 2C4B     		ldr	r3, .L162
 2199 01ea 5B6A     		ldr	r3, [r3, #36]
 2200 01ec 2B4A     		ldr	r2, .L162
 2201 01ee 23F04003 		bic	r3, r3, #64
 2202 01f2 5362     		str	r3, [r2, #36]
1004:/home/fanxinhao/Work/LiteOS_Lab/drivers/third_party/ST/STM32L4xx_HAL_Driver/Src/stm32l4xx_hal_pwr_ex.c ****       __HAL_PWR_PVM4_EXTI_DISABLE_IT();
 2203              		.loc 1 1004 7
 2204 01f4 294B     		ldr	r3, .L162
 2205 01f6 1B6A     		ldr	r3, [r3, #32]
 2206 01f8 284A     		ldr	r2, .L162
 2207 01fa 23F04003 		bic	r3, r3, #64
 2208 01fe 1362     		str	r3, [r2, #32]
1005:/home/fanxinhao/Work/LiteOS_Lab/drivers/third_party/ST/STM32L4xx_HAL_Driver/Src/stm32l4xx_hal_pwr_ex.c ****       __HAL_PWR_PVM4_EXTI_DISABLE_FALLING_EDGE(); 
 2209              		.loc 1 1005 7
 2210 0200 264B     		ldr	r3, .L162
 2211 0202 DB6A     		ldr	r3, [r3, #44]
 2212 0204 254A     		ldr	r2, .L162
 2213 0206 23F04003 		bic	r3, r3, #64
 2214 020a D362     		str	r3, [r2, #44]
1006:/home/fanxinhao/Work/LiteOS_Lab/drivers/third_party/ST/STM32L4xx_HAL_Driver/Src/stm32l4xx_hal_pwr_ex.c ****       __HAL_PWR_PVM4_EXTI_DISABLE_RISING_EDGE();
 2215              		.loc 1 1006 7
 2216 020c 234B     		ldr	r3, .L162
 2217 020e 9B6A     		ldr	r3, [r3, #40]
 2218 0210 224A     		ldr	r2, .L162
 2219 0212 23F04003 		bic	r3, r3, #64
 2220 0216 9362     		str	r3, [r2, #40]
1007:/home/fanxinhao/Work/LiteOS_Lab/drivers/third_party/ST/STM32L4xx_HAL_Driver/Src/stm32l4xx_hal_pwr_ex.c **** 
1008:/home/fanxinhao/Work/LiteOS_Lab/drivers/third_party/ST/STM32L4xx_HAL_Driver/Src/stm32l4xx_hal_pwr_ex.c ****       /* Configure interrupt mode */
1009:/home/fanxinhao/Work/LiteOS_Lab/drivers/third_party/ST/STM32L4xx_HAL_Driver/Src/stm32l4xx_hal_pwr_ex.c ****       if((sConfigPVM->Mode & PVM_MODE_IT) == PVM_MODE_IT)
 2221              		.loc 1 1009 21
 2222 0218 7B68     		ldr	r3, [r7, #4]
 2223 021a 5B68     		ldr	r3, [r3, #4]
 2224              		.loc 1 1009 28
 2225 021c 03F48033 		and	r3, r3, #65536
 2226              		.loc 1 1009 9
 2227 0220 002B     		cmp	r3, #0
 2228 0222 05D0     		beq	.L153
1010:/home/fanxinhao/Work/LiteOS_Lab/drivers/third_party/ST/STM32L4xx_HAL_Driver/Src/stm32l4xx_hal_pwr_ex.c ****       {
1011:/home/fanxinhao/Work/LiteOS_Lab/drivers/third_party/ST/STM32L4xx_HAL_Driver/Src/stm32l4xx_hal_pwr_ex.c ****         __HAL_PWR_PVM4_EXTI_ENABLE_IT();
 2229              		.loc 1 1011 9
 2230 0224 1D4B     		ldr	r3, .L162
 2231 0226 1B6A     		ldr	r3, [r3, #32]
ARM GAS  /tmp/ccwGjgVI.s 			page 57


 2232 0228 1C4A     		ldr	r2, .L162
 2233 022a 43F04003 		orr	r3, r3, #64
 2234 022e 1362     		str	r3, [r2, #32]
 2235              	.L153:
1012:/home/fanxinhao/Work/LiteOS_Lab/drivers/third_party/ST/STM32L4xx_HAL_Driver/Src/stm32l4xx_hal_pwr_ex.c ****       }
1013:/home/fanxinhao/Work/LiteOS_Lab/drivers/third_party/ST/STM32L4xx_HAL_Driver/Src/stm32l4xx_hal_pwr_ex.c ****   
1014:/home/fanxinhao/Work/LiteOS_Lab/drivers/third_party/ST/STM32L4xx_HAL_Driver/Src/stm32l4xx_hal_pwr_ex.c ****       /* Configure event mode */
1015:/home/fanxinhao/Work/LiteOS_Lab/drivers/third_party/ST/STM32L4xx_HAL_Driver/Src/stm32l4xx_hal_pwr_ex.c ****       if((sConfigPVM->Mode & PVM_MODE_EVT) == PVM_MODE_EVT)
 2236              		.loc 1 1015 21
 2237 0230 7B68     		ldr	r3, [r7, #4]
 2238 0232 5B68     		ldr	r3, [r3, #4]
 2239              		.loc 1 1015 28
 2240 0234 03F40033 		and	r3, r3, #131072
 2241              		.loc 1 1015 9
 2242 0238 002B     		cmp	r3, #0
 2243 023a 05D0     		beq	.L154
1016:/home/fanxinhao/Work/LiteOS_Lab/drivers/third_party/ST/STM32L4xx_HAL_Driver/Src/stm32l4xx_hal_pwr_ex.c ****       {
1017:/home/fanxinhao/Work/LiteOS_Lab/drivers/third_party/ST/STM32L4xx_HAL_Driver/Src/stm32l4xx_hal_pwr_ex.c ****         __HAL_PWR_PVM4_EXTI_ENABLE_EVENT();
 2244              		.loc 1 1017 9
 2245 023c 174B     		ldr	r3, .L162
 2246 023e 5B6A     		ldr	r3, [r3, #36]
 2247 0240 164A     		ldr	r2, .L162
 2248 0242 43F04003 		orr	r3, r3, #64
 2249 0246 5362     		str	r3, [r2, #36]
 2250              	.L154:
1018:/home/fanxinhao/Work/LiteOS_Lab/drivers/third_party/ST/STM32L4xx_HAL_Driver/Src/stm32l4xx_hal_pwr_ex.c ****       }
1019:/home/fanxinhao/Work/LiteOS_Lab/drivers/third_party/ST/STM32L4xx_HAL_Driver/Src/stm32l4xx_hal_pwr_ex.c ****   
1020:/home/fanxinhao/Work/LiteOS_Lab/drivers/third_party/ST/STM32L4xx_HAL_Driver/Src/stm32l4xx_hal_pwr_ex.c ****       /* Configure the edge */
1021:/home/fanxinhao/Work/LiteOS_Lab/drivers/third_party/ST/STM32L4xx_HAL_Driver/Src/stm32l4xx_hal_pwr_ex.c ****       if((sConfigPVM->Mode & PVM_RISING_EDGE) == PVM_RISING_EDGE)
 2251              		.loc 1 1021 21
 2252 0248 7B68     		ldr	r3, [r7, #4]
 2253 024a 5B68     		ldr	r3, [r3, #4]
 2254              		.loc 1 1021 28
 2255 024c 03F00103 		and	r3, r3, #1
 2256              		.loc 1 1021 9
 2257 0250 002B     		cmp	r3, #0
 2258 0252 05D0     		beq	.L155
1022:/home/fanxinhao/Work/LiteOS_Lab/drivers/third_party/ST/STM32L4xx_HAL_Driver/Src/stm32l4xx_hal_pwr_ex.c ****       {
1023:/home/fanxinhao/Work/LiteOS_Lab/drivers/third_party/ST/STM32L4xx_HAL_Driver/Src/stm32l4xx_hal_pwr_ex.c ****         __HAL_PWR_PVM4_EXTI_ENABLE_RISING_EDGE();
 2259              		.loc 1 1023 9
 2260 0254 114B     		ldr	r3, .L162
 2261 0256 9B6A     		ldr	r3, [r3, #40]
 2262 0258 104A     		ldr	r2, .L162
 2263 025a 43F04003 		orr	r3, r3, #64
 2264 025e 9362     		str	r3, [r2, #40]
 2265              	.L155:
1024:/home/fanxinhao/Work/LiteOS_Lab/drivers/third_party/ST/STM32L4xx_HAL_Driver/Src/stm32l4xx_hal_pwr_ex.c ****       }
1025:/home/fanxinhao/Work/LiteOS_Lab/drivers/third_party/ST/STM32L4xx_HAL_Driver/Src/stm32l4xx_hal_pwr_ex.c ****   
1026:/home/fanxinhao/Work/LiteOS_Lab/drivers/third_party/ST/STM32L4xx_HAL_Driver/Src/stm32l4xx_hal_pwr_ex.c ****       if((sConfigPVM->Mode & PVM_FALLING_EDGE) == PVM_FALLING_EDGE)
 2266              		.loc 1 1026 21
 2267 0260 7B68     		ldr	r3, [r7, #4]
 2268 0262 5B68     		ldr	r3, [r3, #4]
 2269              		.loc 1 1026 28
 2270 0264 03F00203 		and	r3, r3, #2
 2271              		.loc 1 1026 9
 2272 0268 002B     		cmp	r3, #0
 2273 026a 0ED0     		beq	.L161
ARM GAS  /tmp/ccwGjgVI.s 			page 58


1027:/home/fanxinhao/Work/LiteOS_Lab/drivers/third_party/ST/STM32L4xx_HAL_Driver/Src/stm32l4xx_hal_pwr_ex.c ****       {
1028:/home/fanxinhao/Work/LiteOS_Lab/drivers/third_party/ST/STM32L4xx_HAL_Driver/Src/stm32l4xx_hal_pwr_ex.c ****         __HAL_PWR_PVM4_EXTI_ENABLE_FALLING_EDGE();
 2274              		.loc 1 1028 9
 2275 026c 0B4B     		ldr	r3, .L162
 2276 026e DB6A     		ldr	r3, [r3, #44]
 2277 0270 0A4A     		ldr	r2, .L162
 2278 0272 43F04003 		orr	r3, r3, #64
 2279 0276 D362     		str	r3, [r2, #44]
1029:/home/fanxinhao/Work/LiteOS_Lab/drivers/third_party/ST/STM32L4xx_HAL_Driver/Src/stm32l4xx_hal_pwr_ex.c ****       }
1030:/home/fanxinhao/Work/LiteOS_Lab/drivers/third_party/ST/STM32L4xx_HAL_Driver/Src/stm32l4xx_hal_pwr_ex.c ****       break;  
 2280              		.loc 1 1030 7
 2281 0278 07E0     		b	.L161
 2282              	.L136:
1031:/home/fanxinhao/Work/LiteOS_Lab/drivers/third_party/ST/STM32L4xx_HAL_Driver/Src/stm32l4xx_hal_pwr_ex.c ****       
1032:/home/fanxinhao/Work/LiteOS_Lab/drivers/third_party/ST/STM32L4xx_HAL_Driver/Src/stm32l4xx_hal_pwr_ex.c ****     default:
1033:/home/fanxinhao/Work/LiteOS_Lab/drivers/third_party/ST/STM32L4xx_HAL_Driver/Src/stm32l4xx_hal_pwr_ex.c ****       return HAL_ERROR;                      
 2283              		.loc 1 1033 14
 2284 027a 0123     		movs	r3, #1
 2285 027c 07E0     		b	.L157
 2286              	.L158:
 934:/home/fanxinhao/Work/LiteOS_Lab/drivers/third_party/ST/STM32L4xx_HAL_Driver/Src/stm32l4xx_hal_pwr_ex.c **** #endif /* PWR_CR2_PVME1 */        
 2287              		.loc 1 934 7
 2288 027e 00BF     		nop
 2289 0280 04E0     		b	.L144
 2290              	.L159:
 967:/home/fanxinhao/Work/LiteOS_Lab/drivers/third_party/ST/STM32L4xx_HAL_Driver/Src/stm32l4xx_hal_pwr_ex.c **** #endif /* PWR_CR2_PVME2 */      
 2291              		.loc 1 967 7
 2292 0282 00BF     		nop
 2293 0284 02E0     		b	.L144
 2294              	.L160:
 999:/home/fanxinhao/Work/LiteOS_Lab/drivers/third_party/ST/STM32L4xx_HAL_Driver/Src/stm32l4xx_hal_pwr_ex.c ****       
 2295              		.loc 1 999 7
 2296 0286 00BF     		nop
 2297 0288 00E0     		b	.L144
 2298              	.L161:
1030:/home/fanxinhao/Work/LiteOS_Lab/drivers/third_party/ST/STM32L4xx_HAL_Driver/Src/stm32l4xx_hal_pwr_ex.c ****       
 2299              		.loc 1 1030 7
 2300 028a 00BF     		nop
 2301              	.L144:
1034:/home/fanxinhao/Work/LiteOS_Lab/drivers/third_party/ST/STM32L4xx_HAL_Driver/Src/stm32l4xx_hal_pwr_ex.c ****     
1035:/home/fanxinhao/Work/LiteOS_Lab/drivers/third_party/ST/STM32L4xx_HAL_Driver/Src/stm32l4xx_hal_pwr_ex.c ****   }   
1036:/home/fanxinhao/Work/LiteOS_Lab/drivers/third_party/ST/STM32L4xx_HAL_Driver/Src/stm32l4xx_hal_pwr_ex.c **** 
1037:/home/fanxinhao/Work/LiteOS_Lab/drivers/third_party/ST/STM32L4xx_HAL_Driver/Src/stm32l4xx_hal_pwr_ex.c ****   
1038:/home/fanxinhao/Work/LiteOS_Lab/drivers/third_party/ST/STM32L4xx_HAL_Driver/Src/stm32l4xx_hal_pwr_ex.c ****   return HAL_OK;
 2302              		.loc 1 1038 10
 2303 028c 0023     		movs	r3, #0
 2304              	.L157:
1039:/home/fanxinhao/Work/LiteOS_Lab/drivers/third_party/ST/STM32L4xx_HAL_Driver/Src/stm32l4xx_hal_pwr_ex.c **** }
 2305              		.loc 1 1039 1
 2306 028e 1846     		mov	r0, r3
 2307 0290 0C37     		adds	r7, r7, #12
 2308              	.LCFI119:
 2309              		.cfi_def_cfa_offset 4
 2310 0292 BD46     		mov	sp, r7
 2311              	.LCFI120:
 2312              		.cfi_def_cfa_register 13
 2313              		@ sp needed
ARM GAS  /tmp/ccwGjgVI.s 			page 59


 2314 0294 5DF8047B 		ldr	r7, [sp], #4
 2315              	.LCFI121:
 2316              		.cfi_restore 7
 2317              		.cfi_def_cfa_offset 0
 2318 0298 7047     		bx	lr
 2319              	.L163:
 2320 029a 00BF     		.align	2
 2321              	.L162:
 2322 029c 00040140 		.word	1073808384
 2323              		.cfi_endproc
 2324              	.LFE152:
 2326              		.section	.text.HAL_PWREx_EnableLowPowerRunMode,"ax",%progbits
 2327              		.align	1
 2328              		.global	HAL_PWREx_EnableLowPowerRunMode
 2329              		.syntax unified
 2330              		.thumb
 2331              		.thumb_func
 2332              		.fpu fpv4-sp-d16
 2334              	HAL_PWREx_EnableLowPowerRunMode:
 2335              	.LFB153:
1040:/home/fanxinhao/Work/LiteOS_Lab/drivers/third_party/ST/STM32L4xx_HAL_Driver/Src/stm32l4xx_hal_pwr_ex.c **** 
1041:/home/fanxinhao/Work/LiteOS_Lab/drivers/third_party/ST/STM32L4xx_HAL_Driver/Src/stm32l4xx_hal_pwr_ex.c **** 
1042:/home/fanxinhao/Work/LiteOS_Lab/drivers/third_party/ST/STM32L4xx_HAL_Driver/Src/stm32l4xx_hal_pwr_ex.c **** 
1043:/home/fanxinhao/Work/LiteOS_Lab/drivers/third_party/ST/STM32L4xx_HAL_Driver/Src/stm32l4xx_hal_pwr_ex.c **** /**
1044:/home/fanxinhao/Work/LiteOS_Lab/drivers/third_party/ST/STM32L4xx_HAL_Driver/Src/stm32l4xx_hal_pwr_ex.c ****   * @brief Enter Low-power Run mode
1045:/home/fanxinhao/Work/LiteOS_Lab/drivers/third_party/ST/STM32L4xx_HAL_Driver/Src/stm32l4xx_hal_pwr_ex.c ****   * @note  In Low-power Run mode, all I/O pins keep the same state as in Run mode.  
1046:/home/fanxinhao/Work/LiteOS_Lab/drivers/third_party/ST/STM32L4xx_HAL_Driver/Src/stm32l4xx_hal_pwr_ex.c ****   * @note  When Regulator is set to PWR_LOWPOWERREGULATOR_ON, the user can optionally configure the
1047:/home/fanxinhao/Work/LiteOS_Lab/drivers/third_party/ST/STM32L4xx_HAL_Driver/Src/stm32l4xx_hal_pwr_ex.c ****   *        Flash in power-down monde in setting the RUN_PD bit in FLASH_ACR register.
1048:/home/fanxinhao/Work/LiteOS_Lab/drivers/third_party/ST/STM32L4xx_HAL_Driver/Src/stm32l4xx_hal_pwr_ex.c ****   *        Additionally, the clock frequency must be reduced below 2 MHz.
1049:/home/fanxinhao/Work/LiteOS_Lab/drivers/third_party/ST/STM32L4xx_HAL_Driver/Src/stm32l4xx_hal_pwr_ex.c ****   *        Setting RUN_PD in FLASH_ACR then appropriately reducing the clock frequency must 
1050:/home/fanxinhao/Work/LiteOS_Lab/drivers/third_party/ST/STM32L4xx_HAL_Driver/Src/stm32l4xx_hal_pwr_ex.c ****   *        be done before calling HAL_PWREx_EnableLowPowerRunMode() API.     
1051:/home/fanxinhao/Work/LiteOS_Lab/drivers/third_party/ST/STM32L4xx_HAL_Driver/Src/stm32l4xx_hal_pwr_ex.c ****   * @retval None
1052:/home/fanxinhao/Work/LiteOS_Lab/drivers/third_party/ST/STM32L4xx_HAL_Driver/Src/stm32l4xx_hal_pwr_ex.c ****   */
1053:/home/fanxinhao/Work/LiteOS_Lab/drivers/third_party/ST/STM32L4xx_HAL_Driver/Src/stm32l4xx_hal_pwr_ex.c **** void HAL_PWREx_EnableLowPowerRunMode(void)
1054:/home/fanxinhao/Work/LiteOS_Lab/drivers/third_party/ST/STM32L4xx_HAL_Driver/Src/stm32l4xx_hal_pwr_ex.c **** {
 2336              		.loc 1 1054 1
 2337              		.cfi_startproc
 2338              		@ args = 0, pretend = 0, frame = 0
 2339              		@ frame_needed = 1, uses_anonymous_args = 0
 2340              		@ link register save eliminated.
 2341 0000 80B4     		push	{r7}
 2342              	.LCFI122:
 2343              		.cfi_def_cfa_offset 4
 2344              		.cfi_offset 7, -4
 2345 0002 00AF     		add	r7, sp, #0
 2346              	.LCFI123:
 2347              		.cfi_def_cfa_register 7
1055:/home/fanxinhao/Work/LiteOS_Lab/drivers/third_party/ST/STM32L4xx_HAL_Driver/Src/stm32l4xx_hal_pwr_ex.c ****   /* Set Regulator parameter */
1056:/home/fanxinhao/Work/LiteOS_Lab/drivers/third_party/ST/STM32L4xx_HAL_Driver/Src/stm32l4xx_hal_pwr_ex.c ****   SET_BIT(PWR->CR1, PWR_CR1_LPR); 
 2348              		.loc 1 1056 3
 2349 0004 054B     		ldr	r3, .L165
 2350 0006 1B68     		ldr	r3, [r3]
 2351 0008 044A     		ldr	r2, .L165
 2352 000a 43F48043 		orr	r3, r3, #16384
 2353 000e 1360     		str	r3, [r2]
1057:/home/fanxinhao/Work/LiteOS_Lab/drivers/third_party/ST/STM32L4xx_HAL_Driver/Src/stm32l4xx_hal_pwr_ex.c **** }
 2354              		.loc 1 1057 1
ARM GAS  /tmp/ccwGjgVI.s 			page 60


 2355 0010 00BF     		nop
 2356 0012 BD46     		mov	sp, r7
 2357              	.LCFI124:
 2358              		.cfi_def_cfa_register 13
 2359              		@ sp needed
 2360 0014 5DF8047B 		ldr	r7, [sp], #4
 2361              	.LCFI125:
 2362              		.cfi_restore 7
 2363              		.cfi_def_cfa_offset 0
 2364 0018 7047     		bx	lr
 2365              	.L166:
 2366 001a 00BF     		.align	2
 2367              	.L165:
 2368 001c 00700040 		.word	1073770496
 2369              		.cfi_endproc
 2370              	.LFE153:
 2372              		.section	.text.HAL_PWREx_DisableLowPowerRunMode,"ax",%progbits
 2373              		.align	1
 2374              		.global	HAL_PWREx_DisableLowPowerRunMode
 2375              		.syntax unified
 2376              		.thumb
 2377              		.thumb_func
 2378              		.fpu fpv4-sp-d16
 2380              	HAL_PWREx_DisableLowPowerRunMode:
 2381              	.LFB154:
1058:/home/fanxinhao/Work/LiteOS_Lab/drivers/third_party/ST/STM32L4xx_HAL_Driver/Src/stm32l4xx_hal_pwr_ex.c **** 
1059:/home/fanxinhao/Work/LiteOS_Lab/drivers/third_party/ST/STM32L4xx_HAL_Driver/Src/stm32l4xx_hal_pwr_ex.c **** 
1060:/home/fanxinhao/Work/LiteOS_Lab/drivers/third_party/ST/STM32L4xx_HAL_Driver/Src/stm32l4xx_hal_pwr_ex.c **** /**
1061:/home/fanxinhao/Work/LiteOS_Lab/drivers/third_party/ST/STM32L4xx_HAL_Driver/Src/stm32l4xx_hal_pwr_ex.c ****   * @brief Exit Low-power Run mode.
1062:/home/fanxinhao/Work/LiteOS_Lab/drivers/third_party/ST/STM32L4xx_HAL_Driver/Src/stm32l4xx_hal_pwr_ex.c ****   * @note  Before HAL_PWREx_DisableLowPowerRunMode() completion, the function checks that 
1063:/home/fanxinhao/Work/LiteOS_Lab/drivers/third_party/ST/STM32L4xx_HAL_Driver/Src/stm32l4xx_hal_pwr_ex.c ****   *        REGLPF has been properly reset (otherwise, HAL_PWREx_DisableLowPowerRunMode 
1064:/home/fanxinhao/Work/LiteOS_Lab/drivers/third_party/ST/STM32L4xx_HAL_Driver/Src/stm32l4xx_hal_pwr_ex.c ****   *        returns HAL_TIMEOUT status). The system clock frequency can then be
1065:/home/fanxinhao/Work/LiteOS_Lab/drivers/third_party/ST/STM32L4xx_HAL_Driver/Src/stm32l4xx_hal_pwr_ex.c ****   *        increased above 2 MHz.   
1066:/home/fanxinhao/Work/LiteOS_Lab/drivers/third_party/ST/STM32L4xx_HAL_Driver/Src/stm32l4xx_hal_pwr_ex.c ****   * @retval HAL Status
1067:/home/fanxinhao/Work/LiteOS_Lab/drivers/third_party/ST/STM32L4xx_HAL_Driver/Src/stm32l4xx_hal_pwr_ex.c ****   */
1068:/home/fanxinhao/Work/LiteOS_Lab/drivers/third_party/ST/STM32L4xx_HAL_Driver/Src/stm32l4xx_hal_pwr_ex.c **** HAL_StatusTypeDef HAL_PWREx_DisableLowPowerRunMode(void)
1069:/home/fanxinhao/Work/LiteOS_Lab/drivers/third_party/ST/STM32L4xx_HAL_Driver/Src/stm32l4xx_hal_pwr_ex.c **** {
 2382              		.loc 1 1069 1
 2383              		.cfi_startproc
 2384              		@ args = 0, pretend = 0, frame = 8
 2385              		@ frame_needed = 1, uses_anonymous_args = 0
 2386              		@ link register save eliminated.
 2387 0000 80B4     		push	{r7}
 2388              	.LCFI126:
 2389              		.cfi_def_cfa_offset 4
 2390              		.cfi_offset 7, -4
 2391 0002 83B0     		sub	sp, sp, #12
 2392              	.LCFI127:
 2393              		.cfi_def_cfa_offset 16
 2394 0004 00AF     		add	r7, sp, #0
 2395              	.LCFI128:
 2396              		.cfi_def_cfa_register 7
1070:/home/fanxinhao/Work/LiteOS_Lab/drivers/third_party/ST/STM32L4xx_HAL_Driver/Src/stm32l4xx_hal_pwr_ex.c ****   uint32_t wait_loop_index = 0;
 2397              		.loc 1 1070 12
 2398 0006 0023     		movs	r3, #0
 2399 0008 7B60     		str	r3, [r7, #4]
1071:/home/fanxinhao/Work/LiteOS_Lab/drivers/third_party/ST/STM32L4xx_HAL_Driver/Src/stm32l4xx_hal_pwr_ex.c ****   
ARM GAS  /tmp/ccwGjgVI.s 			page 61


1072:/home/fanxinhao/Work/LiteOS_Lab/drivers/third_party/ST/STM32L4xx_HAL_Driver/Src/stm32l4xx_hal_pwr_ex.c ****   /* Clear LPR bit */
1073:/home/fanxinhao/Work/LiteOS_Lab/drivers/third_party/ST/STM32L4xx_HAL_Driver/Src/stm32l4xx_hal_pwr_ex.c ****   CLEAR_BIT(PWR->CR1, PWR_CR1_LPR); 
 2400              		.loc 1 1073 3
 2401 000a 174B     		ldr	r3, .L173
 2402 000c 1B68     		ldr	r3, [r3]
 2403 000e 164A     		ldr	r2, .L173
 2404 0010 23F48043 		bic	r3, r3, #16384
 2405 0014 1360     		str	r3, [r2]
1074:/home/fanxinhao/Work/LiteOS_Lab/drivers/third_party/ST/STM32L4xx_HAL_Driver/Src/stm32l4xx_hal_pwr_ex.c **** 
1075:/home/fanxinhao/Work/LiteOS_Lab/drivers/third_party/ST/STM32L4xx_HAL_Driver/Src/stm32l4xx_hal_pwr_ex.c ****   /* Wait until REGLPF is reset */
1076:/home/fanxinhao/Work/LiteOS_Lab/drivers/third_party/ST/STM32L4xx_HAL_Driver/Src/stm32l4xx_hal_pwr_ex.c ****   wait_loop_index = (PWR_FLAG_SETTING_DELAY_US * (SystemCoreClock / 1000000));
 2406              		.loc 1 1076 67
 2407 0016 154B     		ldr	r3, .L173+4
 2408 0018 1B68     		ldr	r3, [r3]
 2409 001a 154A     		ldr	r2, .L173+8
 2410 001c A2FB0323 		umull	r2, r3, r2, r3
 2411 0020 9B0C     		lsrs	r3, r3, #18
 2412              		.loc 1 1076 19
 2413 0022 3222     		movs	r2, #50
 2414 0024 02FB03F3 		mul	r3, r2, r3
 2415 0028 7B60     		str	r3, [r7, #4]
1077:/home/fanxinhao/Work/LiteOS_Lab/drivers/third_party/ST/STM32L4xx_HAL_Driver/Src/stm32l4xx_hal_pwr_ex.c ****   while ((wait_loop_index != 0) && (HAL_IS_BIT_SET(PWR->SR2, PWR_SR2_REGLPF)))
 2416              		.loc 1 1077 9
 2417 002a 02E0     		b	.L168
 2418              	.L170:
1078:/home/fanxinhao/Work/LiteOS_Lab/drivers/third_party/ST/STM32L4xx_HAL_Driver/Src/stm32l4xx_hal_pwr_ex.c ****   {
1079:/home/fanxinhao/Work/LiteOS_Lab/drivers/third_party/ST/STM32L4xx_HAL_Driver/Src/stm32l4xx_hal_pwr_ex.c ****     wait_loop_index--;
 2419              		.loc 1 1079 20
 2420 002c 7B68     		ldr	r3, [r7, #4]
 2421 002e 013B     		subs	r3, r3, #1
 2422 0030 7B60     		str	r3, [r7, #4]
 2423              	.L168:
1077:/home/fanxinhao/Work/LiteOS_Lab/drivers/third_party/ST/STM32L4xx_HAL_Driver/Src/stm32l4xx_hal_pwr_ex.c ****   while ((wait_loop_index != 0) && (HAL_IS_BIT_SET(PWR->SR2, PWR_SR2_REGLPF)))
 2424              		.loc 1 1077 9
 2425 0032 7B68     		ldr	r3, [r7, #4]
 2426 0034 002B     		cmp	r3, #0
 2427 0036 06D0     		beq	.L169
1077:/home/fanxinhao/Work/LiteOS_Lab/drivers/third_party/ST/STM32L4xx_HAL_Driver/Src/stm32l4xx_hal_pwr_ex.c ****   while ((wait_loop_index != 0) && (HAL_IS_BIT_SET(PWR->SR2, PWR_SR2_REGLPF)))
 2428              		.loc 1 1077 37 discriminator 1
 2429 0038 0B4B     		ldr	r3, .L173
 2430 003a 5B69     		ldr	r3, [r3, #20]
 2431 003c 03F40073 		and	r3, r3, #512
1077:/home/fanxinhao/Work/LiteOS_Lab/drivers/third_party/ST/STM32L4xx_HAL_Driver/Src/stm32l4xx_hal_pwr_ex.c ****   while ((wait_loop_index != 0) && (HAL_IS_BIT_SET(PWR->SR2, PWR_SR2_REGLPF)))
 2432              		.loc 1 1077 33 discriminator 1
 2433 0040 B3F5007F 		cmp	r3, #512
 2434 0044 F2D0     		beq	.L170
 2435              	.L169:
1080:/home/fanxinhao/Work/LiteOS_Lab/drivers/third_party/ST/STM32L4xx_HAL_Driver/Src/stm32l4xx_hal_pwr_ex.c ****   }
1081:/home/fanxinhao/Work/LiteOS_Lab/drivers/third_party/ST/STM32L4xx_HAL_Driver/Src/stm32l4xx_hal_pwr_ex.c ****   if (HAL_IS_BIT_SET(PWR->SR2, PWR_SR2_REGLPF))
 2436              		.loc 1 1081 7
 2437 0046 084B     		ldr	r3, .L173
 2438 0048 5B69     		ldr	r3, [r3, #20]
 2439 004a 03F40073 		and	r3, r3, #512
 2440              		.loc 1 1081 6
 2441 004e B3F5007F 		cmp	r3, #512
 2442 0052 01D1     		bne	.L171
1082:/home/fanxinhao/Work/LiteOS_Lab/drivers/third_party/ST/STM32L4xx_HAL_Driver/Src/stm32l4xx_hal_pwr_ex.c ****   {
ARM GAS  /tmp/ccwGjgVI.s 			page 62


1083:/home/fanxinhao/Work/LiteOS_Lab/drivers/third_party/ST/STM32L4xx_HAL_Driver/Src/stm32l4xx_hal_pwr_ex.c ****     return HAL_TIMEOUT;
 2443              		.loc 1 1083 12
 2444 0054 0323     		movs	r3, #3
 2445 0056 00E0     		b	.L172
 2446              	.L171:
1084:/home/fanxinhao/Work/LiteOS_Lab/drivers/third_party/ST/STM32L4xx_HAL_Driver/Src/stm32l4xx_hal_pwr_ex.c ****   }
1085:/home/fanxinhao/Work/LiteOS_Lab/drivers/third_party/ST/STM32L4xx_HAL_Driver/Src/stm32l4xx_hal_pwr_ex.c ****   
1086:/home/fanxinhao/Work/LiteOS_Lab/drivers/third_party/ST/STM32L4xx_HAL_Driver/Src/stm32l4xx_hal_pwr_ex.c ****   return HAL_OK;
 2447              		.loc 1 1086 10
 2448 0058 0023     		movs	r3, #0
 2449              	.L172:
1087:/home/fanxinhao/Work/LiteOS_Lab/drivers/third_party/ST/STM32L4xx_HAL_Driver/Src/stm32l4xx_hal_pwr_ex.c **** }
 2450              		.loc 1 1087 1
 2451 005a 1846     		mov	r0, r3
 2452 005c 0C37     		adds	r7, r7, #12
 2453              	.LCFI129:
 2454              		.cfi_def_cfa_offset 4
 2455 005e BD46     		mov	sp, r7
 2456              	.LCFI130:
 2457              		.cfi_def_cfa_register 13
 2458              		@ sp needed
 2459 0060 5DF8047B 		ldr	r7, [sp], #4
 2460              	.LCFI131:
 2461              		.cfi_restore 7
 2462              		.cfi_def_cfa_offset 0
 2463 0064 7047     		bx	lr
 2464              	.L174:
 2465 0066 00BF     		.align	2
 2466              	.L173:
 2467 0068 00700040 		.word	1073770496
 2468 006c 00000000 		.word	SystemCoreClock
 2469 0070 83DE1B43 		.word	1125899907
 2470              		.cfi_endproc
 2471              	.LFE154:
 2473              		.section	.text.HAL_PWREx_EnterSTOP0Mode,"ax",%progbits
 2474              		.align	1
 2475              		.global	HAL_PWREx_EnterSTOP0Mode
 2476              		.syntax unified
 2477              		.thumb
 2478              		.thumb_func
 2479              		.fpu fpv4-sp-d16
 2481              	HAL_PWREx_EnterSTOP0Mode:
 2482              	.LFB155:
1088:/home/fanxinhao/Work/LiteOS_Lab/drivers/third_party/ST/STM32L4xx_HAL_Driver/Src/stm32l4xx_hal_pwr_ex.c **** 
1089:/home/fanxinhao/Work/LiteOS_Lab/drivers/third_party/ST/STM32L4xx_HAL_Driver/Src/stm32l4xx_hal_pwr_ex.c **** 
1090:/home/fanxinhao/Work/LiteOS_Lab/drivers/third_party/ST/STM32L4xx_HAL_Driver/Src/stm32l4xx_hal_pwr_ex.c **** /**
