ARM GAS  /tmp/ccuQhhnt.s 			page 1


   1              		.cpu cortex-m4
   2              		.eabi_attribute 27, 1
   3              		.eabi_attribute 28, 1
   4              		.eabi_attribute 20, 1
   5              		.eabi_attribute 21, 1
   6              		.eabi_attribute 23, 3
   7              		.eabi_attribute 24, 1
   8              		.eabi_attribute 25, 1
   9              		.eabi_attribute 26, 1
  10              		.eabi_attribute 30, 6
  11              		.eabi_attribute 34, 1
  12              		.eabi_attribute 18, 4
  13              		.file	"stm32l4xx_hal_rcc.c"
  14              		.text
  15              	.Ltext0:
  16              		.cfi_sections	.debug_frame
  17              		.section	.text.HAL_RCC_DeInit,"ax",%progbits
  18              		.align	1
  19              		.global	HAL_RCC_DeInit
  20              		.arch armv7e-m
  21              		.syntax unified
  22              		.thumb
  23              		.thumb_func
  24              		.fpu fpv4-sp-d16
  26              	HAL_RCC_DeInit:
  27              	.LFB126:
  28              		.file 1 "/home/fanxinhao/Work/LiteOS_Lab/drivers/third_party/ST/STM32L4xx_HAL_Driver/Src/stm32l4xx
   1:/home/fanxinhao/Work/LiteOS_Lab/drivers/third_party/ST/STM32L4xx_HAL_Driver/Src/stm32l4xx_hal_rcc.c **** /**
   2:/home/fanxinhao/Work/LiteOS_Lab/drivers/third_party/ST/STM32L4xx_HAL_Driver/Src/stm32l4xx_hal_rcc.c ****   ******************************************************************************
   3:/home/fanxinhao/Work/LiteOS_Lab/drivers/third_party/ST/STM32L4xx_HAL_Driver/Src/stm32l4xx_hal_rcc.c ****   * @file    stm32l4xx_hal_rcc.c
   4:/home/fanxinhao/Work/LiteOS_Lab/drivers/third_party/ST/STM32L4xx_HAL_Driver/Src/stm32l4xx_hal_rcc.c ****   * @author  MCD Application Team
   5:/home/fanxinhao/Work/LiteOS_Lab/drivers/third_party/ST/STM32L4xx_HAL_Driver/Src/stm32l4xx_hal_rcc.c ****   * @brief   RCC HAL module driver.
   6:/home/fanxinhao/Work/LiteOS_Lab/drivers/third_party/ST/STM32L4xx_HAL_Driver/Src/stm32l4xx_hal_rcc.c ****   *          This file provides firmware functions to manage the following
   7:/home/fanxinhao/Work/LiteOS_Lab/drivers/third_party/ST/STM32L4xx_HAL_Driver/Src/stm32l4xx_hal_rcc.c ****   *          functionalities of the Reset and Clock Control (RCC) peripheral:
   8:/home/fanxinhao/Work/LiteOS_Lab/drivers/third_party/ST/STM32L4xx_HAL_Driver/Src/stm32l4xx_hal_rcc.c ****   *           + Initialization and de-initialization functions
   9:/home/fanxinhao/Work/LiteOS_Lab/drivers/third_party/ST/STM32L4xx_HAL_Driver/Src/stm32l4xx_hal_rcc.c ****   *           + Peripheral Control functions
  10:/home/fanxinhao/Work/LiteOS_Lab/drivers/third_party/ST/STM32L4xx_HAL_Driver/Src/stm32l4xx_hal_rcc.c ****   *
  11:/home/fanxinhao/Work/LiteOS_Lab/drivers/third_party/ST/STM32L4xx_HAL_Driver/Src/stm32l4xx_hal_rcc.c ****   @verbatim
  12:/home/fanxinhao/Work/LiteOS_Lab/drivers/third_party/ST/STM32L4xx_HAL_Driver/Src/stm32l4xx_hal_rcc.c ****   ==============================================================================
  13:/home/fanxinhao/Work/LiteOS_Lab/drivers/third_party/ST/STM32L4xx_HAL_Driver/Src/stm32l4xx_hal_rcc.c ****                       ##### RCC specific features #####
  14:/home/fanxinhao/Work/LiteOS_Lab/drivers/third_party/ST/STM32L4xx_HAL_Driver/Src/stm32l4xx_hal_rcc.c ****   ==============================================================================
  15:/home/fanxinhao/Work/LiteOS_Lab/drivers/third_party/ST/STM32L4xx_HAL_Driver/Src/stm32l4xx_hal_rcc.c ****     [..]
  16:/home/fanxinhao/Work/LiteOS_Lab/drivers/third_party/ST/STM32L4xx_HAL_Driver/Src/stm32l4xx_hal_rcc.c ****       After reset the device is running from Multiple Speed Internal oscillator
  17:/home/fanxinhao/Work/LiteOS_Lab/drivers/third_party/ST/STM32L4xx_HAL_Driver/Src/stm32l4xx_hal_rcc.c ****       (4 MHz) with Flash 0 wait state. Flash prefetch buffer, D-Cache
  18:/home/fanxinhao/Work/LiteOS_Lab/drivers/third_party/ST/STM32L4xx_HAL_Driver/Src/stm32l4xx_hal_rcc.c ****       and I-Cache are disabled, and all peripherals are off except internal
  19:/home/fanxinhao/Work/LiteOS_Lab/drivers/third_party/ST/STM32L4xx_HAL_Driver/Src/stm32l4xx_hal_rcc.c ****       SRAM, Flash and JTAG.
  20:/home/fanxinhao/Work/LiteOS_Lab/drivers/third_party/ST/STM32L4xx_HAL_Driver/Src/stm32l4xx_hal_rcc.c **** 
  21:/home/fanxinhao/Work/LiteOS_Lab/drivers/third_party/ST/STM32L4xx_HAL_Driver/Src/stm32l4xx_hal_rcc.c ****       (+) There is no prescaler on High speed (AHBs) and Low speed (APBs) busses:
  22:/home/fanxinhao/Work/LiteOS_Lab/drivers/third_party/ST/STM32L4xx_HAL_Driver/Src/stm32l4xx_hal_rcc.c ****           all peripherals mapped on these busses are running at MSI speed.
  23:/home/fanxinhao/Work/LiteOS_Lab/drivers/third_party/ST/STM32L4xx_HAL_Driver/Src/stm32l4xx_hal_rcc.c ****       (+) The clock for all peripherals is switched off, except the SRAM and FLASH.
  24:/home/fanxinhao/Work/LiteOS_Lab/drivers/third_party/ST/STM32L4xx_HAL_Driver/Src/stm32l4xx_hal_rcc.c ****       (+) All GPIOs are in analog mode, except the JTAG pins which
  25:/home/fanxinhao/Work/LiteOS_Lab/drivers/third_party/ST/STM32L4xx_HAL_Driver/Src/stm32l4xx_hal_rcc.c ****           are assigned to be used for debug purpose.
  26:/home/fanxinhao/Work/LiteOS_Lab/drivers/third_party/ST/STM32L4xx_HAL_Driver/Src/stm32l4xx_hal_rcc.c **** 
  27:/home/fanxinhao/Work/LiteOS_Lab/drivers/third_party/ST/STM32L4xx_HAL_Driver/Src/stm32l4xx_hal_rcc.c ****     [..]
  28:/home/fanxinhao/Work/LiteOS_Lab/drivers/third_party/ST/STM32L4xx_HAL_Driver/Src/stm32l4xx_hal_rcc.c ****       Once the device started from reset, the user application has to:
  29:/home/fanxinhao/Work/LiteOS_Lab/drivers/third_party/ST/STM32L4xx_HAL_Driver/Src/stm32l4xx_hal_rcc.c ****       (+) Configure the clock source to be used to drive the System clock
  30:/home/fanxinhao/Work/LiteOS_Lab/drivers/third_party/ST/STM32L4xx_HAL_Driver/Src/stm32l4xx_hal_rcc.c ****           (if the application needs higher frequency/performance)
ARM GAS  /tmp/ccuQhhnt.s 			page 2


  31:/home/fanxinhao/Work/LiteOS_Lab/drivers/third_party/ST/STM32L4xx_HAL_Driver/Src/stm32l4xx_hal_rcc.c ****       (+) Configure the System clock frequency and Flash settings
  32:/home/fanxinhao/Work/LiteOS_Lab/drivers/third_party/ST/STM32L4xx_HAL_Driver/Src/stm32l4xx_hal_rcc.c ****       (+) Configure the AHB and APB busses prescalers
  33:/home/fanxinhao/Work/LiteOS_Lab/drivers/third_party/ST/STM32L4xx_HAL_Driver/Src/stm32l4xx_hal_rcc.c ****       (+) Enable the clock for the peripheral(s) to be used
  34:/home/fanxinhao/Work/LiteOS_Lab/drivers/third_party/ST/STM32L4xx_HAL_Driver/Src/stm32l4xx_hal_rcc.c ****       (+) Configure the clock source(s) for peripherals which clocks are not
  35:/home/fanxinhao/Work/LiteOS_Lab/drivers/third_party/ST/STM32L4xx_HAL_Driver/Src/stm32l4xx_hal_rcc.c ****           derived from the System clock (SAIx, RTC, ADC, USB OTG FS/SDMMC1/RNG)
  36:/home/fanxinhao/Work/LiteOS_Lab/drivers/third_party/ST/STM32L4xx_HAL_Driver/Src/stm32l4xx_hal_rcc.c **** 
  37:/home/fanxinhao/Work/LiteOS_Lab/drivers/third_party/ST/STM32L4xx_HAL_Driver/Src/stm32l4xx_hal_rcc.c ****   @endverbatim
  38:/home/fanxinhao/Work/LiteOS_Lab/drivers/third_party/ST/STM32L4xx_HAL_Driver/Src/stm32l4xx_hal_rcc.c ****   ******************************************************************************
  39:/home/fanxinhao/Work/LiteOS_Lab/drivers/third_party/ST/STM32L4xx_HAL_Driver/Src/stm32l4xx_hal_rcc.c ****   * @attention
  40:/home/fanxinhao/Work/LiteOS_Lab/drivers/third_party/ST/STM32L4xx_HAL_Driver/Src/stm32l4xx_hal_rcc.c ****   *
  41:/home/fanxinhao/Work/LiteOS_Lab/drivers/third_party/ST/STM32L4xx_HAL_Driver/Src/stm32l4xx_hal_rcc.c ****   * <h2><center>&copy; COPYRIGHT(c) 2017 STMicroelectronics</center></h2>
  42:/home/fanxinhao/Work/LiteOS_Lab/drivers/third_party/ST/STM32L4xx_HAL_Driver/Src/stm32l4xx_hal_rcc.c ****   *
  43:/home/fanxinhao/Work/LiteOS_Lab/drivers/third_party/ST/STM32L4xx_HAL_Driver/Src/stm32l4xx_hal_rcc.c ****   * Redistribution and use in source and binary forms, with or without modification,
  44:/home/fanxinhao/Work/LiteOS_Lab/drivers/third_party/ST/STM32L4xx_HAL_Driver/Src/stm32l4xx_hal_rcc.c ****   * are permitted provided that the following conditions are met:
  45:/home/fanxinhao/Work/LiteOS_Lab/drivers/third_party/ST/STM32L4xx_HAL_Driver/Src/stm32l4xx_hal_rcc.c ****   *   1. Redistributions of source code must retain the above copyright notice,
  46:/home/fanxinhao/Work/LiteOS_Lab/drivers/third_party/ST/STM32L4xx_HAL_Driver/Src/stm32l4xx_hal_rcc.c ****   *      this list of conditions and the following disclaimer.
  47:/home/fanxinhao/Work/LiteOS_Lab/drivers/third_party/ST/STM32L4xx_HAL_Driver/Src/stm32l4xx_hal_rcc.c ****   *   2. Redistributions in binary form must reproduce the above copyright notice,
  48:/home/fanxinhao/Work/LiteOS_Lab/drivers/third_party/ST/STM32L4xx_HAL_Driver/Src/stm32l4xx_hal_rcc.c ****   *      this list of conditions and the following disclaimer in the documentation
  49:/home/fanxinhao/Work/LiteOS_Lab/drivers/third_party/ST/STM32L4xx_HAL_Driver/Src/stm32l4xx_hal_rcc.c ****   *      and/or other materials provided with the distribution.
  50:/home/fanxinhao/Work/LiteOS_Lab/drivers/third_party/ST/STM32L4xx_HAL_Driver/Src/stm32l4xx_hal_rcc.c ****   *   3. Neither the name of STMicroelectronics nor the names of its contributors
  51:/home/fanxinhao/Work/LiteOS_Lab/drivers/third_party/ST/STM32L4xx_HAL_Driver/Src/stm32l4xx_hal_rcc.c ****   *      may be used to endorse or promote products derived from this software
  52:/home/fanxinhao/Work/LiteOS_Lab/drivers/third_party/ST/STM32L4xx_HAL_Driver/Src/stm32l4xx_hal_rcc.c ****   *      without specific prior written permission.
  53:/home/fanxinhao/Work/LiteOS_Lab/drivers/third_party/ST/STM32L4xx_HAL_Driver/Src/stm32l4xx_hal_rcc.c ****   *
  54:/home/fanxinhao/Work/LiteOS_Lab/drivers/third_party/ST/STM32L4xx_HAL_Driver/Src/stm32l4xx_hal_rcc.c ****   * THIS SOFTWARE IS PROVIDED BY THE COPYRIGHT HOLDERS AND CONTRIBUTORS "AS IS"
  55:/home/fanxinhao/Work/LiteOS_Lab/drivers/third_party/ST/STM32L4xx_HAL_Driver/Src/stm32l4xx_hal_rcc.c ****   * AND ANY EXPRESS OR IMPLIED WARRANTIES, INCLUDING, BUT NOT LIMITED TO, THE
  56:/home/fanxinhao/Work/LiteOS_Lab/drivers/third_party/ST/STM32L4xx_HAL_Driver/Src/stm32l4xx_hal_rcc.c ****   * IMPLIED WARRANTIES OF MERCHANTABILITY AND FITNESS FOR A PARTICULAR PURPOSE ARE
  57:/home/fanxinhao/Work/LiteOS_Lab/drivers/third_party/ST/STM32L4xx_HAL_Driver/Src/stm32l4xx_hal_rcc.c ****   * DISCLAIMED. IN NO EVENT SHALL THE COPYRIGHT HOLDER OR CONTRIBUTORS BE LIABLE
  58:/home/fanxinhao/Work/LiteOS_Lab/drivers/third_party/ST/STM32L4xx_HAL_Driver/Src/stm32l4xx_hal_rcc.c ****   * FOR ANY DIRECT, INDIRECT, INCIDENTAL, SPECIAL, EXEMPLARY, OR CONSEQUENTIAL
  59:/home/fanxinhao/Work/LiteOS_Lab/drivers/third_party/ST/STM32L4xx_HAL_Driver/Src/stm32l4xx_hal_rcc.c ****   * DAMAGES (INCLUDING, BUT NOT LIMITED TO, PROCUREMENT OF SUBSTITUTE GOODS OR
  60:/home/fanxinhao/Work/LiteOS_Lab/drivers/third_party/ST/STM32L4xx_HAL_Driver/Src/stm32l4xx_hal_rcc.c ****   * SERVICES; LOSS OF USE, DATA, OR PROFITS; OR BUSINESS INTERRUPTION) HOWEVER
  61:/home/fanxinhao/Work/LiteOS_Lab/drivers/third_party/ST/STM32L4xx_HAL_Driver/Src/stm32l4xx_hal_rcc.c ****   * CAUSED AND ON ANY THEORY OF LIABILITY, WHETHER IN CONTRACT, STRICT LIABILITY,
  62:/home/fanxinhao/Work/LiteOS_Lab/drivers/third_party/ST/STM32L4xx_HAL_Driver/Src/stm32l4xx_hal_rcc.c ****   * OR TORT (INCLUDING NEGLIGENCE OR OTHERWISE) ARISING IN ANY WAY OUT OF THE USE
  63:/home/fanxinhao/Work/LiteOS_Lab/drivers/third_party/ST/STM32L4xx_HAL_Driver/Src/stm32l4xx_hal_rcc.c ****   * OF THIS SOFTWARE, EVEN IF ADVISED OF THE POSSIBILITY OF SUCH DAMAGE.
  64:/home/fanxinhao/Work/LiteOS_Lab/drivers/third_party/ST/STM32L4xx_HAL_Driver/Src/stm32l4xx_hal_rcc.c ****   *
  65:/home/fanxinhao/Work/LiteOS_Lab/drivers/third_party/ST/STM32L4xx_HAL_Driver/Src/stm32l4xx_hal_rcc.c ****   ******************************************************************************
  66:/home/fanxinhao/Work/LiteOS_Lab/drivers/third_party/ST/STM32L4xx_HAL_Driver/Src/stm32l4xx_hal_rcc.c ****   */
  67:/home/fanxinhao/Work/LiteOS_Lab/drivers/third_party/ST/STM32L4xx_HAL_Driver/Src/stm32l4xx_hal_rcc.c **** 
  68:/home/fanxinhao/Work/LiteOS_Lab/drivers/third_party/ST/STM32L4xx_HAL_Driver/Src/stm32l4xx_hal_rcc.c **** /* Includes ------------------------------------------------------------------*/
  69:/home/fanxinhao/Work/LiteOS_Lab/drivers/third_party/ST/STM32L4xx_HAL_Driver/Src/stm32l4xx_hal_rcc.c **** #include "stm32l4xx_hal.h"
  70:/home/fanxinhao/Work/LiteOS_Lab/drivers/third_party/ST/STM32L4xx_HAL_Driver/Src/stm32l4xx_hal_rcc.c **** 
  71:/home/fanxinhao/Work/LiteOS_Lab/drivers/third_party/ST/STM32L4xx_HAL_Driver/Src/stm32l4xx_hal_rcc.c **** /** @addtogroup STM32L4xx_HAL_Driver
  72:/home/fanxinhao/Work/LiteOS_Lab/drivers/third_party/ST/STM32L4xx_HAL_Driver/Src/stm32l4xx_hal_rcc.c ****   * @{
  73:/home/fanxinhao/Work/LiteOS_Lab/drivers/third_party/ST/STM32L4xx_HAL_Driver/Src/stm32l4xx_hal_rcc.c ****   */
  74:/home/fanxinhao/Work/LiteOS_Lab/drivers/third_party/ST/STM32L4xx_HAL_Driver/Src/stm32l4xx_hal_rcc.c **** 
  75:/home/fanxinhao/Work/LiteOS_Lab/drivers/third_party/ST/STM32L4xx_HAL_Driver/Src/stm32l4xx_hal_rcc.c **** /** @defgroup RCC RCC
  76:/home/fanxinhao/Work/LiteOS_Lab/drivers/third_party/ST/STM32L4xx_HAL_Driver/Src/stm32l4xx_hal_rcc.c ****   * @brief RCC HAL module driver
  77:/home/fanxinhao/Work/LiteOS_Lab/drivers/third_party/ST/STM32L4xx_HAL_Driver/Src/stm32l4xx_hal_rcc.c ****   * @{
  78:/home/fanxinhao/Work/LiteOS_Lab/drivers/third_party/ST/STM32L4xx_HAL_Driver/Src/stm32l4xx_hal_rcc.c ****   */
  79:/home/fanxinhao/Work/LiteOS_Lab/drivers/third_party/ST/STM32L4xx_HAL_Driver/Src/stm32l4xx_hal_rcc.c **** 
  80:/home/fanxinhao/Work/LiteOS_Lab/drivers/third_party/ST/STM32L4xx_HAL_Driver/Src/stm32l4xx_hal_rcc.c **** #ifdef HAL_RCC_MODULE_ENABLED
  81:/home/fanxinhao/Work/LiteOS_Lab/drivers/third_party/ST/STM32L4xx_HAL_Driver/Src/stm32l4xx_hal_rcc.c **** 
  82:/home/fanxinhao/Work/LiteOS_Lab/drivers/third_party/ST/STM32L4xx_HAL_Driver/Src/stm32l4xx_hal_rcc.c **** /* Private typedef -----------------------------------------------------------*/
  83:/home/fanxinhao/Work/LiteOS_Lab/drivers/third_party/ST/STM32L4xx_HAL_Driver/Src/stm32l4xx_hal_rcc.c **** /* Private define ------------------------------------------------------------*/
  84:/home/fanxinhao/Work/LiteOS_Lab/drivers/third_party/ST/STM32L4xx_HAL_Driver/Src/stm32l4xx_hal_rcc.c **** /** @defgroup RCC_Private_Constants RCC Private Constants
  85:/home/fanxinhao/Work/LiteOS_Lab/drivers/third_party/ST/STM32L4xx_HAL_Driver/Src/stm32l4xx_hal_rcc.c ****  * @{
  86:/home/fanxinhao/Work/LiteOS_Lab/drivers/third_party/ST/STM32L4xx_HAL_Driver/Src/stm32l4xx_hal_rcc.c ****  */
  87:/home/fanxinhao/Work/LiteOS_Lab/drivers/third_party/ST/STM32L4xx_HAL_Driver/Src/stm32l4xx_hal_rcc.c **** #define HSE_TIMEOUT_VALUE          HSE_STARTUP_TIMEOUT
ARM GAS  /tmp/ccuQhhnt.s 			page 3


  88:/home/fanxinhao/Work/LiteOS_Lab/drivers/third_party/ST/STM32L4xx_HAL_Driver/Src/stm32l4xx_hal_rcc.c **** #define HSI_TIMEOUT_VALUE          2U    /* 2 ms (minimum Tick + 1) */
  89:/home/fanxinhao/Work/LiteOS_Lab/drivers/third_party/ST/STM32L4xx_HAL_Driver/Src/stm32l4xx_hal_rcc.c **** #define MSI_TIMEOUT_VALUE          2U    /* 2 ms (minimum Tick + 1) */
  90:/home/fanxinhao/Work/LiteOS_Lab/drivers/third_party/ST/STM32L4xx_HAL_Driver/Src/stm32l4xx_hal_rcc.c **** #define LSI_TIMEOUT_VALUE          2U    /* 2 ms (minimum Tick + 1) */
  91:/home/fanxinhao/Work/LiteOS_Lab/drivers/third_party/ST/STM32L4xx_HAL_Driver/Src/stm32l4xx_hal_rcc.c **** #define HSI48_TIMEOUT_VALUE        2U    /* 2 ms (minimum Tick + 1) */
  92:/home/fanxinhao/Work/LiteOS_Lab/drivers/third_party/ST/STM32L4xx_HAL_Driver/Src/stm32l4xx_hal_rcc.c **** #define PLL_TIMEOUT_VALUE          2U    /* 2 ms (minimum Tick + 1) */
  93:/home/fanxinhao/Work/LiteOS_Lab/drivers/third_party/ST/STM32L4xx_HAL_Driver/Src/stm32l4xx_hal_rcc.c **** #define CLOCKSWITCH_TIMEOUT_VALUE  5000U /* 5 s    */
  94:/home/fanxinhao/Work/LiteOS_Lab/drivers/third_party/ST/STM32L4xx_HAL_Driver/Src/stm32l4xx_hal_rcc.c **** /**
  95:/home/fanxinhao/Work/LiteOS_Lab/drivers/third_party/ST/STM32L4xx_HAL_Driver/Src/stm32l4xx_hal_rcc.c ****   * @}
  96:/home/fanxinhao/Work/LiteOS_Lab/drivers/third_party/ST/STM32L4xx_HAL_Driver/Src/stm32l4xx_hal_rcc.c ****   */
  97:/home/fanxinhao/Work/LiteOS_Lab/drivers/third_party/ST/STM32L4xx_HAL_Driver/Src/stm32l4xx_hal_rcc.c **** 
  98:/home/fanxinhao/Work/LiteOS_Lab/drivers/third_party/ST/STM32L4xx_HAL_Driver/Src/stm32l4xx_hal_rcc.c **** /* Private macro -------------------------------------------------------------*/
  99:/home/fanxinhao/Work/LiteOS_Lab/drivers/third_party/ST/STM32L4xx_HAL_Driver/Src/stm32l4xx_hal_rcc.c **** /** @defgroup RCC_Private_Macros RCC Private Macros
 100:/home/fanxinhao/Work/LiteOS_Lab/drivers/third_party/ST/STM32L4xx_HAL_Driver/Src/stm32l4xx_hal_rcc.c ****   * @{
 101:/home/fanxinhao/Work/LiteOS_Lab/drivers/third_party/ST/STM32L4xx_HAL_Driver/Src/stm32l4xx_hal_rcc.c ****   */
 102:/home/fanxinhao/Work/LiteOS_Lab/drivers/third_party/ST/STM32L4xx_HAL_Driver/Src/stm32l4xx_hal_rcc.c **** #define __MCO1_CLK_ENABLE()   __HAL_RCC_GPIOA_CLK_ENABLE()
 103:/home/fanxinhao/Work/LiteOS_Lab/drivers/third_party/ST/STM32L4xx_HAL_Driver/Src/stm32l4xx_hal_rcc.c **** #define MCO1_GPIO_PORT        GPIOA
 104:/home/fanxinhao/Work/LiteOS_Lab/drivers/third_party/ST/STM32L4xx_HAL_Driver/Src/stm32l4xx_hal_rcc.c **** #define MCO1_PIN              GPIO_PIN_8
 105:/home/fanxinhao/Work/LiteOS_Lab/drivers/third_party/ST/STM32L4xx_HAL_Driver/Src/stm32l4xx_hal_rcc.c **** 
 106:/home/fanxinhao/Work/LiteOS_Lab/drivers/third_party/ST/STM32L4xx_HAL_Driver/Src/stm32l4xx_hal_rcc.c **** #define RCC_PLL_OSCSOURCE_CONFIG(__HAL_RCC_PLLSOURCE__) \
 107:/home/fanxinhao/Work/LiteOS_Lab/drivers/third_party/ST/STM32L4xx_HAL_Driver/Src/stm32l4xx_hal_rcc.c ****             (MODIFY_REG(RCC->PLLCFGR, RCC_PLLCFGR_PLLSRC, (__HAL_RCC_PLLSOURCE__)))
 108:/home/fanxinhao/Work/LiteOS_Lab/drivers/third_party/ST/STM32L4xx_HAL_Driver/Src/stm32l4xx_hal_rcc.c **** /**
 109:/home/fanxinhao/Work/LiteOS_Lab/drivers/third_party/ST/STM32L4xx_HAL_Driver/Src/stm32l4xx_hal_rcc.c ****   * @}
 110:/home/fanxinhao/Work/LiteOS_Lab/drivers/third_party/ST/STM32L4xx_HAL_Driver/Src/stm32l4xx_hal_rcc.c ****   */
 111:/home/fanxinhao/Work/LiteOS_Lab/drivers/third_party/ST/STM32L4xx_HAL_Driver/Src/stm32l4xx_hal_rcc.c **** 
 112:/home/fanxinhao/Work/LiteOS_Lab/drivers/third_party/ST/STM32L4xx_HAL_Driver/Src/stm32l4xx_hal_rcc.c **** /* Private variables ---------------------------------------------------------*/
 113:/home/fanxinhao/Work/LiteOS_Lab/drivers/third_party/ST/STM32L4xx_HAL_Driver/Src/stm32l4xx_hal_rcc.c **** 
 114:/home/fanxinhao/Work/LiteOS_Lab/drivers/third_party/ST/STM32L4xx_HAL_Driver/Src/stm32l4xx_hal_rcc.c **** /* Private function prototypes -----------------------------------------------*/
 115:/home/fanxinhao/Work/LiteOS_Lab/drivers/third_party/ST/STM32L4xx_HAL_Driver/Src/stm32l4xx_hal_rcc.c **** /** @defgroup RCC_Private_Functions RCC Private Functions
 116:/home/fanxinhao/Work/LiteOS_Lab/drivers/third_party/ST/STM32L4xx_HAL_Driver/Src/stm32l4xx_hal_rcc.c ****   * @{
 117:/home/fanxinhao/Work/LiteOS_Lab/drivers/third_party/ST/STM32L4xx_HAL_Driver/Src/stm32l4xx_hal_rcc.c ****   */
 118:/home/fanxinhao/Work/LiteOS_Lab/drivers/third_party/ST/STM32L4xx_HAL_Driver/Src/stm32l4xx_hal_rcc.c **** static HAL_StatusTypeDef RCC_SetFlashLatencyFromMSIRange(uint32_t msirange);
 119:/home/fanxinhao/Work/LiteOS_Lab/drivers/third_party/ST/STM32L4xx_HAL_Driver/Src/stm32l4xx_hal_rcc.c **** #if defined(STM32L4R5xx) || defined(STM32L4R7xx) || defined(STM32L4R9xx) || defined(STM32L4S5xx) ||
 120:/home/fanxinhao/Work/LiteOS_Lab/drivers/third_party/ST/STM32L4xx_HAL_Driver/Src/stm32l4xx_hal_rcc.c **** static uint32_t          RCC_GetSysClockFreqFromPLLSource(void);
 121:/home/fanxinhao/Work/LiteOS_Lab/drivers/third_party/ST/STM32L4xx_HAL_Driver/Src/stm32l4xx_hal_rcc.c **** #endif
 122:/home/fanxinhao/Work/LiteOS_Lab/drivers/third_party/ST/STM32L4xx_HAL_Driver/Src/stm32l4xx_hal_rcc.c **** /**
 123:/home/fanxinhao/Work/LiteOS_Lab/drivers/third_party/ST/STM32L4xx_HAL_Driver/Src/stm32l4xx_hal_rcc.c ****   * @}
 124:/home/fanxinhao/Work/LiteOS_Lab/drivers/third_party/ST/STM32L4xx_HAL_Driver/Src/stm32l4xx_hal_rcc.c ****   */
 125:/home/fanxinhao/Work/LiteOS_Lab/drivers/third_party/ST/STM32L4xx_HAL_Driver/Src/stm32l4xx_hal_rcc.c **** 
 126:/home/fanxinhao/Work/LiteOS_Lab/drivers/third_party/ST/STM32L4xx_HAL_Driver/Src/stm32l4xx_hal_rcc.c **** /* Exported functions --------------------------------------------------------*/
 127:/home/fanxinhao/Work/LiteOS_Lab/drivers/third_party/ST/STM32L4xx_HAL_Driver/Src/stm32l4xx_hal_rcc.c **** 
 128:/home/fanxinhao/Work/LiteOS_Lab/drivers/third_party/ST/STM32L4xx_HAL_Driver/Src/stm32l4xx_hal_rcc.c **** /** @defgroup RCC_Exported_Functions RCC Exported Functions
 129:/home/fanxinhao/Work/LiteOS_Lab/drivers/third_party/ST/STM32L4xx_HAL_Driver/Src/stm32l4xx_hal_rcc.c ****   * @{
 130:/home/fanxinhao/Work/LiteOS_Lab/drivers/third_party/ST/STM32L4xx_HAL_Driver/Src/stm32l4xx_hal_rcc.c ****   */
 131:/home/fanxinhao/Work/LiteOS_Lab/drivers/third_party/ST/STM32L4xx_HAL_Driver/Src/stm32l4xx_hal_rcc.c **** 
 132:/home/fanxinhao/Work/LiteOS_Lab/drivers/third_party/ST/STM32L4xx_HAL_Driver/Src/stm32l4xx_hal_rcc.c **** /** @defgroup RCC_Exported_Functions_Group1 Initialization and de-initialization functions
 133:/home/fanxinhao/Work/LiteOS_Lab/drivers/third_party/ST/STM32L4xx_HAL_Driver/Src/stm32l4xx_hal_rcc.c ****   *  @brief    Initialization and Configuration functions
 134:/home/fanxinhao/Work/LiteOS_Lab/drivers/third_party/ST/STM32L4xx_HAL_Driver/Src/stm32l4xx_hal_rcc.c ****   *
 135:/home/fanxinhao/Work/LiteOS_Lab/drivers/third_party/ST/STM32L4xx_HAL_Driver/Src/stm32l4xx_hal_rcc.c ****   @verbatim
 136:/home/fanxinhao/Work/LiteOS_Lab/drivers/third_party/ST/STM32L4xx_HAL_Driver/Src/stm32l4xx_hal_rcc.c ****  ===============================================================================
 137:/home/fanxinhao/Work/LiteOS_Lab/drivers/third_party/ST/STM32L4xx_HAL_Driver/Src/stm32l4xx_hal_rcc.c ****            ##### Initialization and de-initialization functions #####
 138:/home/fanxinhao/Work/LiteOS_Lab/drivers/third_party/ST/STM32L4xx_HAL_Driver/Src/stm32l4xx_hal_rcc.c ****  ===============================================================================
 139:/home/fanxinhao/Work/LiteOS_Lab/drivers/third_party/ST/STM32L4xx_HAL_Driver/Src/stm32l4xx_hal_rcc.c ****     [..]
 140:/home/fanxinhao/Work/LiteOS_Lab/drivers/third_party/ST/STM32L4xx_HAL_Driver/Src/stm32l4xx_hal_rcc.c ****       This section provides functions allowing to configure the internal and external oscillators
 141:/home/fanxinhao/Work/LiteOS_Lab/drivers/third_party/ST/STM32L4xx_HAL_Driver/Src/stm32l4xx_hal_rcc.c ****       (HSE, HSI, LSE, MSI, LSI, PLL, CSS and MCO) and the System busses clocks (SYSCLK, AHB, APB1
 142:/home/fanxinhao/Work/LiteOS_Lab/drivers/third_party/ST/STM32L4xx_HAL_Driver/Src/stm32l4xx_hal_rcc.c ****        and APB2).
 143:/home/fanxinhao/Work/LiteOS_Lab/drivers/third_party/ST/STM32L4xx_HAL_Driver/Src/stm32l4xx_hal_rcc.c **** 
 144:/home/fanxinhao/Work/LiteOS_Lab/drivers/third_party/ST/STM32L4xx_HAL_Driver/Src/stm32l4xx_hal_rcc.c ****     [..] Internal/external clock and PLL configuration
ARM GAS  /tmp/ccuQhhnt.s 			page 4


 145:/home/fanxinhao/Work/LiteOS_Lab/drivers/third_party/ST/STM32L4xx_HAL_Driver/Src/stm32l4xx_hal_rcc.c ****          (+) HSI (high-speed internal): 16 MHz factory-trimmed RC used directly or through
 146:/home/fanxinhao/Work/LiteOS_Lab/drivers/third_party/ST/STM32L4xx_HAL_Driver/Src/stm32l4xx_hal_rcc.c ****              the PLL as System clock source.
 147:/home/fanxinhao/Work/LiteOS_Lab/drivers/third_party/ST/STM32L4xx_HAL_Driver/Src/stm32l4xx_hal_rcc.c **** 
 148:/home/fanxinhao/Work/LiteOS_Lab/drivers/third_party/ST/STM32L4xx_HAL_Driver/Src/stm32l4xx_hal_rcc.c ****          (+) MSI (Mutiple Speed Internal): Its frequency is software trimmable from 100KHZ to 48MHZ
 149:/home/fanxinhao/Work/LiteOS_Lab/drivers/third_party/ST/STM32L4xx_HAL_Driver/Src/stm32l4xx_hal_rcc.c ****              It can be used to generate the clock for the USB OTG FS (48 MHz).
 150:/home/fanxinhao/Work/LiteOS_Lab/drivers/third_party/ST/STM32L4xx_HAL_Driver/Src/stm32l4xx_hal_rcc.c ****              The number of flash wait states is automatically adjusted when MSI range is updated wi
 151:/home/fanxinhao/Work/LiteOS_Lab/drivers/third_party/ST/STM32L4xx_HAL_Driver/Src/stm32l4xx_hal_rcc.c ****              HAL_RCC_OscConfig() and the MSI is used as System clock source.
 152:/home/fanxinhao/Work/LiteOS_Lab/drivers/third_party/ST/STM32L4xx_HAL_Driver/Src/stm32l4xx_hal_rcc.c **** 
 153:/home/fanxinhao/Work/LiteOS_Lab/drivers/third_party/ST/STM32L4xx_HAL_Driver/Src/stm32l4xx_hal_rcc.c ****          (+) LSI (low-speed internal): 32 KHz low consumption RC used as IWDG and/or RTC
 154:/home/fanxinhao/Work/LiteOS_Lab/drivers/third_party/ST/STM32L4xx_HAL_Driver/Src/stm32l4xx_hal_rcc.c ****              clock source.
 155:/home/fanxinhao/Work/LiteOS_Lab/drivers/third_party/ST/STM32L4xx_HAL_Driver/Src/stm32l4xx_hal_rcc.c **** 
 156:/home/fanxinhao/Work/LiteOS_Lab/drivers/third_party/ST/STM32L4xx_HAL_Driver/Src/stm32l4xx_hal_rcc.c ****          (+) HSE (high-speed external): 4 to 48 MHz crystal oscillator used directly or
 157:/home/fanxinhao/Work/LiteOS_Lab/drivers/third_party/ST/STM32L4xx_HAL_Driver/Src/stm32l4xx_hal_rcc.c ****              through the PLL as System clock source. Can be used also optionally as RTC clock sourc
 158:/home/fanxinhao/Work/LiteOS_Lab/drivers/third_party/ST/STM32L4xx_HAL_Driver/Src/stm32l4xx_hal_rcc.c **** 
 159:/home/fanxinhao/Work/LiteOS_Lab/drivers/third_party/ST/STM32L4xx_HAL_Driver/Src/stm32l4xx_hal_rcc.c ****          (+) LSE (low-speed external): 32.768 KHz oscillator used optionally as RTC clock source.
 160:/home/fanxinhao/Work/LiteOS_Lab/drivers/third_party/ST/STM32L4xx_HAL_Driver/Src/stm32l4xx_hal_rcc.c **** 
 161:/home/fanxinhao/Work/LiteOS_Lab/drivers/third_party/ST/STM32L4xx_HAL_Driver/Src/stm32l4xx_hal_rcc.c ****          (+) PLL (clocked by HSI, HSE or MSI) providing up to three independent output clocks:
 162:/home/fanxinhao/Work/LiteOS_Lab/drivers/third_party/ST/STM32L4xx_HAL_Driver/Src/stm32l4xx_hal_rcc.c ****            (++) The first output is used to generate the high speed system clock (up to 80MHz).
 163:/home/fanxinhao/Work/LiteOS_Lab/drivers/third_party/ST/STM32L4xx_HAL_Driver/Src/stm32l4xx_hal_rcc.c ****            (++) The second output is used to generate the clock for the USB OTG FS (48 MHz),
 164:/home/fanxinhao/Work/LiteOS_Lab/drivers/third_party/ST/STM32L4xx_HAL_Driver/Src/stm32l4xx_hal_rcc.c ****                 the random analog generator (<=48 MHz) and the SDMMC1 (<= 48 MHz).
 165:/home/fanxinhao/Work/LiteOS_Lab/drivers/third_party/ST/STM32L4xx_HAL_Driver/Src/stm32l4xx_hal_rcc.c ****            (++) The third output is used to generate an accurate clock to achieve
 166:/home/fanxinhao/Work/LiteOS_Lab/drivers/third_party/ST/STM32L4xx_HAL_Driver/Src/stm32l4xx_hal_rcc.c ****                 high-quality audio performance on SAI interface.
 167:/home/fanxinhao/Work/LiteOS_Lab/drivers/third_party/ST/STM32L4xx_HAL_Driver/Src/stm32l4xx_hal_rcc.c **** 
 168:/home/fanxinhao/Work/LiteOS_Lab/drivers/third_party/ST/STM32L4xx_HAL_Driver/Src/stm32l4xx_hal_rcc.c ****          (+) PLLSAI1 (clocked by HSI, HSE or MSI) providing up to three independent output clocks:
 169:/home/fanxinhao/Work/LiteOS_Lab/drivers/third_party/ST/STM32L4xx_HAL_Driver/Src/stm32l4xx_hal_rcc.c ****            (++) The first output is used to generate SAR ADC1 clock.
 170:/home/fanxinhao/Work/LiteOS_Lab/drivers/third_party/ST/STM32L4xx_HAL_Driver/Src/stm32l4xx_hal_rcc.c ****            (++) The second output is used to generate the clock for the USB OTG FS (48 MHz),
 171:/home/fanxinhao/Work/LiteOS_Lab/drivers/third_party/ST/STM32L4xx_HAL_Driver/Src/stm32l4xx_hal_rcc.c ****                 the random analog generator (<=48 MHz) and the SDMMC1 (<= 48 MHz).
 172:/home/fanxinhao/Work/LiteOS_Lab/drivers/third_party/ST/STM32L4xx_HAL_Driver/Src/stm32l4xx_hal_rcc.c ****            (++) The Third output is used to generate an accurate clock to achieve
 173:/home/fanxinhao/Work/LiteOS_Lab/drivers/third_party/ST/STM32L4xx_HAL_Driver/Src/stm32l4xx_hal_rcc.c ****                 high-quality audio performance on SAI interface.
 174:/home/fanxinhao/Work/LiteOS_Lab/drivers/third_party/ST/STM32L4xx_HAL_Driver/Src/stm32l4xx_hal_rcc.c **** 
 175:/home/fanxinhao/Work/LiteOS_Lab/drivers/third_party/ST/STM32L4xx_HAL_Driver/Src/stm32l4xx_hal_rcc.c ****          (+) PLLSAI2 (clocked by HSI , HSE or MSI) providing up to two independent output clocks:
 176:/home/fanxinhao/Work/LiteOS_Lab/drivers/third_party/ST/STM32L4xx_HAL_Driver/Src/stm32l4xx_hal_rcc.c ****            (++) The first output is used to generate SAR ADC2 clock.
 177:/home/fanxinhao/Work/LiteOS_Lab/drivers/third_party/ST/STM32L4xx_HAL_Driver/Src/stm32l4xx_hal_rcc.c ****            (++) The second  output is used to generate an accurate clock to achieve
 178:/home/fanxinhao/Work/LiteOS_Lab/drivers/third_party/ST/STM32L4xx_HAL_Driver/Src/stm32l4xx_hal_rcc.c ****                 high-quality audio performance on SAI interface.
 179:/home/fanxinhao/Work/LiteOS_Lab/drivers/third_party/ST/STM32L4xx_HAL_Driver/Src/stm32l4xx_hal_rcc.c **** 
 180:/home/fanxinhao/Work/LiteOS_Lab/drivers/third_party/ST/STM32L4xx_HAL_Driver/Src/stm32l4xx_hal_rcc.c ****          (+) CSS (Clock security system): once enabled, if a HSE clock failure occurs
 181:/home/fanxinhao/Work/LiteOS_Lab/drivers/third_party/ST/STM32L4xx_HAL_Driver/Src/stm32l4xx_hal_rcc.c ****             (HSE used directly or through PLL as System clock source), the System clock
 182:/home/fanxinhao/Work/LiteOS_Lab/drivers/third_party/ST/STM32L4xx_HAL_Driver/Src/stm32l4xx_hal_rcc.c ****              is automatically switched to HSI and an interrupt is generated if enabled.
 183:/home/fanxinhao/Work/LiteOS_Lab/drivers/third_party/ST/STM32L4xx_HAL_Driver/Src/stm32l4xx_hal_rcc.c ****              The interrupt is linked to the Cortex-M4 NMI (Non-Maskable Interrupt)
 184:/home/fanxinhao/Work/LiteOS_Lab/drivers/third_party/ST/STM32L4xx_HAL_Driver/Src/stm32l4xx_hal_rcc.c ****              exception vector.
 185:/home/fanxinhao/Work/LiteOS_Lab/drivers/third_party/ST/STM32L4xx_HAL_Driver/Src/stm32l4xx_hal_rcc.c **** 
 186:/home/fanxinhao/Work/LiteOS_Lab/drivers/third_party/ST/STM32L4xx_HAL_Driver/Src/stm32l4xx_hal_rcc.c ****          (+) MCO (microcontroller clock output): used to output MSI, LSI, HSI, LSE, HSE or
 187:/home/fanxinhao/Work/LiteOS_Lab/drivers/third_party/ST/STM32L4xx_HAL_Driver/Src/stm32l4xx_hal_rcc.c ****              main PLL clock (through a configurable prescaler) on PA8 pin.
 188:/home/fanxinhao/Work/LiteOS_Lab/drivers/third_party/ST/STM32L4xx_HAL_Driver/Src/stm32l4xx_hal_rcc.c **** 
 189:/home/fanxinhao/Work/LiteOS_Lab/drivers/third_party/ST/STM32L4xx_HAL_Driver/Src/stm32l4xx_hal_rcc.c ****     [..] System, AHB and APB busses clocks configuration
 190:/home/fanxinhao/Work/LiteOS_Lab/drivers/third_party/ST/STM32L4xx_HAL_Driver/Src/stm32l4xx_hal_rcc.c ****          (+) Several clock sources can be used to drive the System clock (SYSCLK): MSI, HSI,
 191:/home/fanxinhao/Work/LiteOS_Lab/drivers/third_party/ST/STM32L4xx_HAL_Driver/Src/stm32l4xx_hal_rcc.c ****              HSE and main PLL.
 192:/home/fanxinhao/Work/LiteOS_Lab/drivers/third_party/ST/STM32L4xx_HAL_Driver/Src/stm32l4xx_hal_rcc.c ****              The AHB clock (HCLK) is derived from System clock through configurable
 193:/home/fanxinhao/Work/LiteOS_Lab/drivers/third_party/ST/STM32L4xx_HAL_Driver/Src/stm32l4xx_hal_rcc.c ****              prescaler and used to clock the CPU, memory and peripherals mapped
 194:/home/fanxinhao/Work/LiteOS_Lab/drivers/third_party/ST/STM32L4xx_HAL_Driver/Src/stm32l4xx_hal_rcc.c ****              on AHB bus (DMA, GPIO...). APB1 (PCLK1) and APB2 (PCLK2) clocks are derived
 195:/home/fanxinhao/Work/LiteOS_Lab/drivers/third_party/ST/STM32L4xx_HAL_Driver/Src/stm32l4xx_hal_rcc.c ****              from AHB clock through configurable prescalers and used to clock
 196:/home/fanxinhao/Work/LiteOS_Lab/drivers/third_party/ST/STM32L4xx_HAL_Driver/Src/stm32l4xx_hal_rcc.c ****              the peripherals mapped on these busses. You can use
 197:/home/fanxinhao/Work/LiteOS_Lab/drivers/third_party/ST/STM32L4xx_HAL_Driver/Src/stm32l4xx_hal_rcc.c ****              "HAL_RCC_GetSysClockFreq()" function to retrieve the frequencies of these clocks.
 198:/home/fanxinhao/Work/LiteOS_Lab/drivers/third_party/ST/STM32L4xx_HAL_Driver/Src/stm32l4xx_hal_rcc.c **** 
 199:/home/fanxinhao/Work/LiteOS_Lab/drivers/third_party/ST/STM32L4xx_HAL_Driver/Src/stm32l4xx_hal_rcc.c ****          -@- All the peripheral clocks are derived from the System clock (SYSCLK) except:
 200:/home/fanxinhao/Work/LiteOS_Lab/drivers/third_party/ST/STM32L4xx_HAL_Driver/Src/stm32l4xx_hal_rcc.c **** 
 201:/home/fanxinhao/Work/LiteOS_Lab/drivers/third_party/ST/STM32L4xx_HAL_Driver/Src/stm32l4xx_hal_rcc.c ****            (+@) SAI: the SAI clock can be derived either from a specific PLL (PLLSAI1) or (PLLSAI2)
ARM GAS  /tmp/ccuQhhnt.s 			page 5


 202:/home/fanxinhao/Work/LiteOS_Lab/drivers/third_party/ST/STM32L4xx_HAL_Driver/Src/stm32l4xx_hal_rcc.c ****                 from an external clock mapped on the SAI_CKIN pin.
 203:/home/fanxinhao/Work/LiteOS_Lab/drivers/third_party/ST/STM32L4xx_HAL_Driver/Src/stm32l4xx_hal_rcc.c ****                 You have to use HAL_RCCEx_PeriphCLKConfig() function to configure this clock.
 204:/home/fanxinhao/Work/LiteOS_Lab/drivers/third_party/ST/STM32L4xx_HAL_Driver/Src/stm32l4xx_hal_rcc.c ****            (+@) RTC: the RTC clock can be derived either from the LSI, LSE or HSE clock
 205:/home/fanxinhao/Work/LiteOS_Lab/drivers/third_party/ST/STM32L4xx_HAL_Driver/Src/stm32l4xx_hal_rcc.c ****                 divided by 2 to 31.
 206:/home/fanxinhao/Work/LiteOS_Lab/drivers/third_party/ST/STM32L4xx_HAL_Driver/Src/stm32l4xx_hal_rcc.c ****                 You have to use __HAL_RCC_RTC_ENABLE() and HAL_RCCEx_PeriphCLKConfig() function
 207:/home/fanxinhao/Work/LiteOS_Lab/drivers/third_party/ST/STM32L4xx_HAL_Driver/Src/stm32l4xx_hal_rcc.c ****                 to configure this clock.
 208:/home/fanxinhao/Work/LiteOS_Lab/drivers/third_party/ST/STM32L4xx_HAL_Driver/Src/stm32l4xx_hal_rcc.c ****            (+@) USB OTG FS, SDMMC1 and RNG: USB OTG FS requires a frequency equal to 48 MHz
 209:/home/fanxinhao/Work/LiteOS_Lab/drivers/third_party/ST/STM32L4xx_HAL_Driver/Src/stm32l4xx_hal_rcc.c ****                 to work correctly, while the SDMMC1 and RNG peripherals require a frequency
 210:/home/fanxinhao/Work/LiteOS_Lab/drivers/third_party/ST/STM32L4xx_HAL_Driver/Src/stm32l4xx_hal_rcc.c ****                 equal or lower than to 48 MHz. This clock is derived of the main PLL or PLLSAI1
 211:/home/fanxinhao/Work/LiteOS_Lab/drivers/third_party/ST/STM32L4xx_HAL_Driver/Src/stm32l4xx_hal_rcc.c ****                 through PLLQ divider. You have to enable the peripheral clock and use
 212:/home/fanxinhao/Work/LiteOS_Lab/drivers/third_party/ST/STM32L4xx_HAL_Driver/Src/stm32l4xx_hal_rcc.c ****                 HAL_RCCEx_PeriphCLKConfig() function to configure this clock.
 213:/home/fanxinhao/Work/LiteOS_Lab/drivers/third_party/ST/STM32L4xx_HAL_Driver/Src/stm32l4xx_hal_rcc.c ****            (+@) IWDG clock which is always the LSI clock.
 214:/home/fanxinhao/Work/LiteOS_Lab/drivers/third_party/ST/STM32L4xx_HAL_Driver/Src/stm32l4xx_hal_rcc.c **** 
 215:/home/fanxinhao/Work/LiteOS_Lab/drivers/third_party/ST/STM32L4xx_HAL_Driver/Src/stm32l4xx_hal_rcc.c **** 
 216:/home/fanxinhao/Work/LiteOS_Lab/drivers/third_party/ST/STM32L4xx_HAL_Driver/Src/stm32l4xx_hal_rcc.c ****          (+) The maximum frequency of the SYSCLK, HCLK, PCLK1 and PCLK2 is 80 MHz.
 217:/home/fanxinhao/Work/LiteOS_Lab/drivers/third_party/ST/STM32L4xx_HAL_Driver/Src/stm32l4xx_hal_rcc.c ****              The clock source frequency should be adapted depending on the device voltage range
 218:/home/fanxinhao/Work/LiteOS_Lab/drivers/third_party/ST/STM32L4xx_HAL_Driver/Src/stm32l4xx_hal_rcc.c ****              as listed in the Reference Manual "Clock source frequency versus voltage scaling" chap
 219:/home/fanxinhao/Work/LiteOS_Lab/drivers/third_party/ST/STM32L4xx_HAL_Driver/Src/stm32l4xx_hal_rcc.c **** 
 220:/home/fanxinhao/Work/LiteOS_Lab/drivers/third_party/ST/STM32L4xx_HAL_Driver/Src/stm32l4xx_hal_rcc.c ****   @endverbatim
 221:/home/fanxinhao/Work/LiteOS_Lab/drivers/third_party/ST/STM32L4xx_HAL_Driver/Src/stm32l4xx_hal_rcc.c **** 
 222:/home/fanxinhao/Work/LiteOS_Lab/drivers/third_party/ST/STM32L4xx_HAL_Driver/Src/stm32l4xx_hal_rcc.c ****            Table 1. HCLK clock frequency for STM32L4Rx/STM32L4Sx devices
 223:/home/fanxinhao/Work/LiteOS_Lab/drivers/third_party/ST/STM32L4xx_HAL_Driver/Src/stm32l4xx_hal_rcc.c ****            +--------------------------------------------------------+
 224:/home/fanxinhao/Work/LiteOS_Lab/drivers/third_party/ST/STM32L4xx_HAL_Driver/Src/stm32l4xx_hal_rcc.c ****            | Latency         |     HCLK clock frequency (MHz)       |
 225:/home/fanxinhao/Work/LiteOS_Lab/drivers/third_party/ST/STM32L4xx_HAL_Driver/Src/stm32l4xx_hal_rcc.c ****            |                 |--------------------------------------|
 226:/home/fanxinhao/Work/LiteOS_Lab/drivers/third_party/ST/STM32L4xx_HAL_Driver/Src/stm32l4xx_hal_rcc.c ****            |                 |  voltage range 1  | voltage range 2  |
 227:/home/fanxinhao/Work/LiteOS_Lab/drivers/third_party/ST/STM32L4xx_HAL_Driver/Src/stm32l4xx_hal_rcc.c ****            |                 |       1.2 V       |     1.0 V        |
 228:/home/fanxinhao/Work/LiteOS_Lab/drivers/third_party/ST/STM32L4xx_HAL_Driver/Src/stm32l4xx_hal_rcc.c ****            |-----------------|-------------------|------------------|
 229:/home/fanxinhao/Work/LiteOS_Lab/drivers/third_party/ST/STM32L4xx_HAL_Driver/Src/stm32l4xx_hal_rcc.c ****            |0WS(1 CPU cycles)|   0 < HCLK <= 20  |  0 < HCLK <= 8   |
 230:/home/fanxinhao/Work/LiteOS_Lab/drivers/third_party/ST/STM32L4xx_HAL_Driver/Src/stm32l4xx_hal_rcc.c ****            |-----------------|-------------------|------------------|
 231:/home/fanxinhao/Work/LiteOS_Lab/drivers/third_party/ST/STM32L4xx_HAL_Driver/Src/stm32l4xx_hal_rcc.c ****            |1WS(2 CPU cycles)|  20 < HCLK <= 40  |  8 < HCLK <= 16  |
 232:/home/fanxinhao/Work/LiteOS_Lab/drivers/third_party/ST/STM32L4xx_HAL_Driver/Src/stm32l4xx_hal_rcc.c ****            |-----------------|-------------------|------------------|
 233:/home/fanxinhao/Work/LiteOS_Lab/drivers/third_party/ST/STM32L4xx_HAL_Driver/Src/stm32l4xx_hal_rcc.c ****            |2WS(3 CPU cycles)|  40 < HCLK <= 60  | 16 < HCLK <= 26  |
 234:/home/fanxinhao/Work/LiteOS_Lab/drivers/third_party/ST/STM32L4xx_HAL_Driver/Src/stm32l4xx_hal_rcc.c ****            |-----------------|-------------------|------------------|
 235:/home/fanxinhao/Work/LiteOS_Lab/drivers/third_party/ST/STM32L4xx_HAL_Driver/Src/stm32l4xx_hal_rcc.c ****            |3WS(4 CPU cycles)|  60 < HCLK <= 80  | 16 < HCLK <= 26  |
 236:/home/fanxinhao/Work/LiteOS_Lab/drivers/third_party/ST/STM32L4xx_HAL_Driver/Src/stm32l4xx_hal_rcc.c ****            |-----------------|-------------------|------------------|
 237:/home/fanxinhao/Work/LiteOS_Lab/drivers/third_party/ST/STM32L4xx_HAL_Driver/Src/stm32l4xx_hal_rcc.c ****            |4WS(5 CPU cycles)|  80 < HCLK <= 100 | 16 < HCLK <= 26  |
 238:/home/fanxinhao/Work/LiteOS_Lab/drivers/third_party/ST/STM32L4xx_HAL_Driver/Src/stm32l4xx_hal_rcc.c ****            |-----------------|-------------------|------------------|
 239:/home/fanxinhao/Work/LiteOS_Lab/drivers/third_party/ST/STM32L4xx_HAL_Driver/Src/stm32l4xx_hal_rcc.c ****            |5WS(6 CPU cycles)| 100 < HCLK <= 120 | 16 < HCLK <= 26  |
 240:/home/fanxinhao/Work/LiteOS_Lab/drivers/third_party/ST/STM32L4xx_HAL_Driver/Src/stm32l4xx_hal_rcc.c ****            +--------------------------------------------------------+
 241:/home/fanxinhao/Work/LiteOS_Lab/drivers/third_party/ST/STM32L4xx_HAL_Driver/Src/stm32l4xx_hal_rcc.c **** 
 242:/home/fanxinhao/Work/LiteOS_Lab/drivers/third_party/ST/STM32L4xx_HAL_Driver/Src/stm32l4xx_hal_rcc.c ****            Table 2. HCLK clock frequency for other STM32L4 devices
 243:/home/fanxinhao/Work/LiteOS_Lab/drivers/third_party/ST/STM32L4xx_HAL_Driver/Src/stm32l4xx_hal_rcc.c ****            +-------------------------------------------------------+
 244:/home/fanxinhao/Work/LiteOS_Lab/drivers/third_party/ST/STM32L4xx_HAL_Driver/Src/stm32l4xx_hal_rcc.c ****            | Latency         |    HCLK clock frequency (MHz)       |
 245:/home/fanxinhao/Work/LiteOS_Lab/drivers/third_party/ST/STM32L4xx_HAL_Driver/Src/stm32l4xx_hal_rcc.c ****            |                 |-------------------------------------|
 246:/home/fanxinhao/Work/LiteOS_Lab/drivers/third_party/ST/STM32L4xx_HAL_Driver/Src/stm32l4xx_hal_rcc.c ****            |                 | voltage range 1  | voltage range 2  |
 247:/home/fanxinhao/Work/LiteOS_Lab/drivers/third_party/ST/STM32L4xx_HAL_Driver/Src/stm32l4xx_hal_rcc.c ****            |                 |      1.2 V       |     1.0 V        |
 248:/home/fanxinhao/Work/LiteOS_Lab/drivers/third_party/ST/STM32L4xx_HAL_Driver/Src/stm32l4xx_hal_rcc.c ****            |-----------------|------------------|------------------|
 249:/home/fanxinhao/Work/LiteOS_Lab/drivers/third_party/ST/STM32L4xx_HAL_Driver/Src/stm32l4xx_hal_rcc.c ****            |0WS(1 CPU cycles)|  0 < HCLK <= 16  |  0 < HCLK <= 6   |
 250:/home/fanxinhao/Work/LiteOS_Lab/drivers/third_party/ST/STM32L4xx_HAL_Driver/Src/stm32l4xx_hal_rcc.c ****            |-----------------|------------------|------------------|
 251:/home/fanxinhao/Work/LiteOS_Lab/drivers/third_party/ST/STM32L4xx_HAL_Driver/Src/stm32l4xx_hal_rcc.c ****            |1WS(2 CPU cycles)| 16 < HCLK <= 32  |  6 < HCLK <= 12  |
 252:/home/fanxinhao/Work/LiteOS_Lab/drivers/third_party/ST/STM32L4xx_HAL_Driver/Src/stm32l4xx_hal_rcc.c ****            |-----------------|------------------|------------------|
 253:/home/fanxinhao/Work/LiteOS_Lab/drivers/third_party/ST/STM32L4xx_HAL_Driver/Src/stm32l4xx_hal_rcc.c ****            |2WS(3 CPU cycles)| 32 < HCLK <= 48  | 12 < HCLK <= 18  |
 254:/home/fanxinhao/Work/LiteOS_Lab/drivers/third_party/ST/STM32L4xx_HAL_Driver/Src/stm32l4xx_hal_rcc.c ****            |-----------------|------------------|------------------|
 255:/home/fanxinhao/Work/LiteOS_Lab/drivers/third_party/ST/STM32L4xx_HAL_Driver/Src/stm32l4xx_hal_rcc.c ****            |3WS(4 CPU cycles)| 48 < HCLK <= 64  | 18 < HCLK <= 26  |
 256:/home/fanxinhao/Work/LiteOS_Lab/drivers/third_party/ST/STM32L4xx_HAL_Driver/Src/stm32l4xx_hal_rcc.c ****            |-----------------|------------------|------------------|
 257:/home/fanxinhao/Work/LiteOS_Lab/drivers/third_party/ST/STM32L4xx_HAL_Driver/Src/stm32l4xx_hal_rcc.c ****            |4WS(5 CPU cycles)| 64 < HCLK <= 80  | 18 < HCLK <= 26  |
 258:/home/fanxinhao/Work/LiteOS_Lab/drivers/third_party/ST/STM32L4xx_HAL_Driver/Src/stm32l4xx_hal_rcc.c ****            +-------------------------------------------------------+
ARM GAS  /tmp/ccuQhhnt.s 			page 6


 259:/home/fanxinhao/Work/LiteOS_Lab/drivers/third_party/ST/STM32L4xx_HAL_Driver/Src/stm32l4xx_hal_rcc.c ****   * @{
 260:/home/fanxinhao/Work/LiteOS_Lab/drivers/third_party/ST/STM32L4xx_HAL_Driver/Src/stm32l4xx_hal_rcc.c ****   */
 261:/home/fanxinhao/Work/LiteOS_Lab/drivers/third_party/ST/STM32L4xx_HAL_Driver/Src/stm32l4xx_hal_rcc.c **** 
 262:/home/fanxinhao/Work/LiteOS_Lab/drivers/third_party/ST/STM32L4xx_HAL_Driver/Src/stm32l4xx_hal_rcc.c **** /**
 263:/home/fanxinhao/Work/LiteOS_Lab/drivers/third_party/ST/STM32L4xx_HAL_Driver/Src/stm32l4xx_hal_rcc.c ****   * @brief  Reset the RCC clock configuration to the default reset state.
 264:/home/fanxinhao/Work/LiteOS_Lab/drivers/third_party/ST/STM32L4xx_HAL_Driver/Src/stm32l4xx_hal_rcc.c ****   * @note   The default reset state of the clock configuration is given below:
 265:/home/fanxinhao/Work/LiteOS_Lab/drivers/third_party/ST/STM32L4xx_HAL_Driver/Src/stm32l4xx_hal_rcc.c ****   *            - MSI ON and used as system clock source
 266:/home/fanxinhao/Work/LiteOS_Lab/drivers/third_party/ST/STM32L4xx_HAL_Driver/Src/stm32l4xx_hal_rcc.c ****   *            - HSE, HSI, PLL, PLLSAI1 and PLLISAI2 OFF
 267:/home/fanxinhao/Work/LiteOS_Lab/drivers/third_party/ST/STM32L4xx_HAL_Driver/Src/stm32l4xx_hal_rcc.c ****   *            - AHB, APB1 and APB2 prescaler set to 1.
 268:/home/fanxinhao/Work/LiteOS_Lab/drivers/third_party/ST/STM32L4xx_HAL_Driver/Src/stm32l4xx_hal_rcc.c ****   *            - CSS, MCO1 OFF
 269:/home/fanxinhao/Work/LiteOS_Lab/drivers/third_party/ST/STM32L4xx_HAL_Driver/Src/stm32l4xx_hal_rcc.c ****   *            - All interrupts disabled
 270:/home/fanxinhao/Work/LiteOS_Lab/drivers/third_party/ST/STM32L4xx_HAL_Driver/Src/stm32l4xx_hal_rcc.c ****   *            - All interrupt and reset flags cleared
 271:/home/fanxinhao/Work/LiteOS_Lab/drivers/third_party/ST/STM32L4xx_HAL_Driver/Src/stm32l4xx_hal_rcc.c ****   * @note   This function doesn't modify the configuration of the
 272:/home/fanxinhao/Work/LiteOS_Lab/drivers/third_party/ST/STM32L4xx_HAL_Driver/Src/stm32l4xx_hal_rcc.c ****   *            - Peripheral clocks
 273:/home/fanxinhao/Work/LiteOS_Lab/drivers/third_party/ST/STM32L4xx_HAL_Driver/Src/stm32l4xx_hal_rcc.c ****   *            - LSI, LSE and RTC clocks
 274:/home/fanxinhao/Work/LiteOS_Lab/drivers/third_party/ST/STM32L4xx_HAL_Driver/Src/stm32l4xx_hal_rcc.c ****   * @retval HAL status
 275:/home/fanxinhao/Work/LiteOS_Lab/drivers/third_party/ST/STM32L4xx_HAL_Driver/Src/stm32l4xx_hal_rcc.c ****   */
 276:/home/fanxinhao/Work/LiteOS_Lab/drivers/third_party/ST/STM32L4xx_HAL_Driver/Src/stm32l4xx_hal_rcc.c **** HAL_StatusTypeDef HAL_RCC_DeInit(void)
 277:/home/fanxinhao/Work/LiteOS_Lab/drivers/third_party/ST/STM32L4xx_HAL_Driver/Src/stm32l4xx_hal_rcc.c **** {
  29              		.loc 1 277 1
  30              		.cfi_startproc
  31              		@ args = 0, pretend = 0, frame = 8
  32              		@ frame_needed = 1, uses_anonymous_args = 0
  33 0000 80B5     		push	{r7, lr}
  34              	.LCFI0:
  35              		.cfi_def_cfa_offset 8
  36              		.cfi_offset 7, -8
  37              		.cfi_offset 14, -4
  38 0002 82B0     		sub	sp, sp, #8
  39              	.LCFI1:
  40              		.cfi_def_cfa_offset 16
  41 0004 00AF     		add	r7, sp, #0
  42              	.LCFI2:
  43              		.cfi_def_cfa_register 7
 278:/home/fanxinhao/Work/LiteOS_Lab/drivers/third_party/ST/STM32L4xx_HAL_Driver/Src/stm32l4xx_hal_rcc.c ****   uint32_t tickstart = 0;
  44              		.loc 1 278 12
  45 0006 0023     		movs	r3, #0
  46 0008 7B60     		str	r3, [r7, #4]
 279:/home/fanxinhao/Work/LiteOS_Lab/drivers/third_party/ST/STM32L4xx_HAL_Driver/Src/stm32l4xx_hal_rcc.c **** 
 280:/home/fanxinhao/Work/LiteOS_Lab/drivers/third_party/ST/STM32L4xx_HAL_Driver/Src/stm32l4xx_hal_rcc.c ****   /* Set MSION bit */
 281:/home/fanxinhao/Work/LiteOS_Lab/drivers/third_party/ST/STM32L4xx_HAL_Driver/Src/stm32l4xx_hal_rcc.c ****   SET_BIT(RCC->CR, RCC_CR_MSION);
  47              		.loc 1 281 3
  48 000a 494B     		ldr	r3, .L10
  49 000c 1B68     		ldr	r3, [r3]
  50 000e 484A     		ldr	r2, .L10
  51 0010 43F00103 		orr	r3, r3, #1
  52 0014 1360     		str	r3, [r2]
 282:/home/fanxinhao/Work/LiteOS_Lab/drivers/third_party/ST/STM32L4xx_HAL_Driver/Src/stm32l4xx_hal_rcc.c **** 
 283:/home/fanxinhao/Work/LiteOS_Lab/drivers/third_party/ST/STM32L4xx_HAL_Driver/Src/stm32l4xx_hal_rcc.c ****   /* Insure MSIRDY bit is set before writing default MSIRANGE value */
 284:/home/fanxinhao/Work/LiteOS_Lab/drivers/third_party/ST/STM32L4xx_HAL_Driver/Src/stm32l4xx_hal_rcc.c ****   /* Get start tick */
 285:/home/fanxinhao/Work/LiteOS_Lab/drivers/third_party/ST/STM32L4xx_HAL_Driver/Src/stm32l4xx_hal_rcc.c ****   tickstart = HAL_GetTick();
  53              		.loc 1 285 15
  54 0016 FFF7FEFF 		bl	HAL_GetTick
  55 001a 7860     		str	r0, [r7, #4]
 286:/home/fanxinhao/Work/LiteOS_Lab/drivers/third_party/ST/STM32L4xx_HAL_Driver/Src/stm32l4xx_hal_rcc.c **** 
 287:/home/fanxinhao/Work/LiteOS_Lab/drivers/third_party/ST/STM32L4xx_HAL_Driver/Src/stm32l4xx_hal_rcc.c ****   /* Wait till MSI is ready */
 288:/home/fanxinhao/Work/LiteOS_Lab/drivers/third_party/ST/STM32L4xx_HAL_Driver/Src/stm32l4xx_hal_rcc.c ****   while(READ_BIT(RCC->CR, RCC_CR_MSIRDY) == RESET)
ARM GAS  /tmp/ccuQhhnt.s 			page 7


  56              		.loc 1 288 8
  57 001c 08E0     		b	.L2
  58              	.L4:
 289:/home/fanxinhao/Work/LiteOS_Lab/drivers/third_party/ST/STM32L4xx_HAL_Driver/Src/stm32l4xx_hal_rcc.c ****   {
 290:/home/fanxinhao/Work/LiteOS_Lab/drivers/third_party/ST/STM32L4xx_HAL_Driver/Src/stm32l4xx_hal_rcc.c ****     if((HAL_GetTick() - tickstart) > MSI_TIMEOUT_VALUE)
  59              		.loc 1 290 9
  60 001e FFF7FEFF 		bl	HAL_GetTick
  61 0022 0246     		mov	r2, r0
  62              		.loc 1 290 23
  63 0024 7B68     		ldr	r3, [r7, #4]
  64 0026 D31A     		subs	r3, r2, r3
  65              		.loc 1 290 7
  66 0028 022B     		cmp	r3, #2
  67 002a 01D9     		bls	.L2
 291:/home/fanxinhao/Work/LiteOS_Lab/drivers/third_party/ST/STM32L4xx_HAL_Driver/Src/stm32l4xx_hal_rcc.c ****     {
 292:/home/fanxinhao/Work/LiteOS_Lab/drivers/third_party/ST/STM32L4xx_HAL_Driver/Src/stm32l4xx_hal_rcc.c ****       return HAL_TIMEOUT;
  68              		.loc 1 292 14
  69 002c 0323     		movs	r3, #3
  70 002e 7AE0     		b	.L3
  71              	.L2:
 288:/home/fanxinhao/Work/LiteOS_Lab/drivers/third_party/ST/STM32L4xx_HAL_Driver/Src/stm32l4xx_hal_rcc.c ****   {
  72              		.loc 1 288 9
  73 0030 3F4B     		ldr	r3, .L10
  74 0032 1B68     		ldr	r3, [r3]
  75 0034 03F00203 		and	r3, r3, #2
 288:/home/fanxinhao/Work/LiteOS_Lab/drivers/third_party/ST/STM32L4xx_HAL_Driver/Src/stm32l4xx_hal_rcc.c ****   {
  76              		.loc 1 288 8
  77 0038 002B     		cmp	r3, #0
  78 003a F0D0     		beq	.L4
 293:/home/fanxinhao/Work/LiteOS_Lab/drivers/third_party/ST/STM32L4xx_HAL_Driver/Src/stm32l4xx_hal_rcc.c ****     }
 294:/home/fanxinhao/Work/LiteOS_Lab/drivers/third_party/ST/STM32L4xx_HAL_Driver/Src/stm32l4xx_hal_rcc.c ****   }
 295:/home/fanxinhao/Work/LiteOS_Lab/drivers/third_party/ST/STM32L4xx_HAL_Driver/Src/stm32l4xx_hal_rcc.c **** 
 296:/home/fanxinhao/Work/LiteOS_Lab/drivers/third_party/ST/STM32L4xx_HAL_Driver/Src/stm32l4xx_hal_rcc.c ****   /* Set MSIRANGE default value */
 297:/home/fanxinhao/Work/LiteOS_Lab/drivers/third_party/ST/STM32L4xx_HAL_Driver/Src/stm32l4xx_hal_rcc.c ****   MODIFY_REG(RCC->CR, RCC_CR_MSIRANGE, RCC_MSIRANGE_6);
  79              		.loc 1 297 3
  80 003c 3C4B     		ldr	r3, .L10
  81 003e 1B68     		ldr	r3, [r3]
  82 0040 23F0F003 		bic	r3, r3, #240
  83 0044 3A4A     		ldr	r2, .L10
  84 0046 43F06003 		orr	r3, r3, #96
  85 004a 1360     		str	r3, [r2]
 298:/home/fanxinhao/Work/LiteOS_Lab/drivers/third_party/ST/STM32L4xx_HAL_Driver/Src/stm32l4xx_hal_rcc.c **** 
 299:/home/fanxinhao/Work/LiteOS_Lab/drivers/third_party/ST/STM32L4xx_HAL_Driver/Src/stm32l4xx_hal_rcc.c ****   /* Reset CFGR register (MSI is selected as system clock source) */
 300:/home/fanxinhao/Work/LiteOS_Lab/drivers/third_party/ST/STM32L4xx_HAL_Driver/Src/stm32l4xx_hal_rcc.c ****   CLEAR_REG(RCC->CFGR);
  86              		.loc 1 300 3
  87 004c 384B     		ldr	r3, .L10
  88 004e 0022     		movs	r2, #0
  89 0050 9A60     		str	r2, [r3, #8]
 301:/home/fanxinhao/Work/LiteOS_Lab/drivers/third_party/ST/STM32L4xx_HAL_Driver/Src/stm32l4xx_hal_rcc.c **** 
 302:/home/fanxinhao/Work/LiteOS_Lab/drivers/third_party/ST/STM32L4xx_HAL_Driver/Src/stm32l4xx_hal_rcc.c ****   /* Update the SystemCoreClock global variable for MSI as system clock source */
 303:/home/fanxinhao/Work/LiteOS_Lab/drivers/third_party/ST/STM32L4xx_HAL_Driver/Src/stm32l4xx_hal_rcc.c ****   SystemCoreClock = MSI_VALUE;
  90              		.loc 1 303 19
  91 0052 384B     		ldr	r3, .L10+4
  92 0054 384A     		ldr	r2, .L10+8
  93 0056 1A60     		str	r2, [r3]
 304:/home/fanxinhao/Work/LiteOS_Lab/drivers/third_party/ST/STM32L4xx_HAL_Driver/Src/stm32l4xx_hal_rcc.c **** 
 305:/home/fanxinhao/Work/LiteOS_Lab/drivers/third_party/ST/STM32L4xx_HAL_Driver/Src/stm32l4xx_hal_rcc.c ****   /* Configure the source of time base considering new system clock settings  */
ARM GAS  /tmp/ccuQhhnt.s 			page 8


 306:/home/fanxinhao/Work/LiteOS_Lab/drivers/third_party/ST/STM32L4xx_HAL_Driver/Src/stm32l4xx_hal_rcc.c ****   if(HAL_InitTick(TICK_INT_PRIORITY) != HAL_OK)
  94              		.loc 1 306 6
  95 0058 0020     		movs	r0, #0
  96 005a FFF7FEFF 		bl	HAL_InitTick
  97 005e 0346     		mov	r3, r0
  98              		.loc 1 306 5
  99 0060 002B     		cmp	r3, #0
 100 0062 01D0     		beq	.L5
 307:/home/fanxinhao/Work/LiteOS_Lab/drivers/third_party/ST/STM32L4xx_HAL_Driver/Src/stm32l4xx_hal_rcc.c ****   {
 308:/home/fanxinhao/Work/LiteOS_Lab/drivers/third_party/ST/STM32L4xx_HAL_Driver/Src/stm32l4xx_hal_rcc.c ****     return HAL_ERROR;
 101              		.loc 1 308 12
 102 0064 0123     		movs	r3, #1
 103 0066 5EE0     		b	.L3
 104              	.L5:
 309:/home/fanxinhao/Work/LiteOS_Lab/drivers/third_party/ST/STM32L4xx_HAL_Driver/Src/stm32l4xx_hal_rcc.c ****   }
 310:/home/fanxinhao/Work/LiteOS_Lab/drivers/third_party/ST/STM32L4xx_HAL_Driver/Src/stm32l4xx_hal_rcc.c **** 
 311:/home/fanxinhao/Work/LiteOS_Lab/drivers/third_party/ST/STM32L4xx_HAL_Driver/Src/stm32l4xx_hal_rcc.c ****   /* Insure MSI selected as system clock source */
 312:/home/fanxinhao/Work/LiteOS_Lab/drivers/third_party/ST/STM32L4xx_HAL_Driver/Src/stm32l4xx_hal_rcc.c ****   /* Get start tick */
 313:/home/fanxinhao/Work/LiteOS_Lab/drivers/third_party/ST/STM32L4xx_HAL_Driver/Src/stm32l4xx_hal_rcc.c ****   tickstart = HAL_GetTick();
 105              		.loc 1 313 15
 106 0068 FFF7FEFF 		bl	HAL_GetTick
 107 006c 7860     		str	r0, [r7, #4]
 314:/home/fanxinhao/Work/LiteOS_Lab/drivers/third_party/ST/STM32L4xx_HAL_Driver/Src/stm32l4xx_hal_rcc.c **** 
 315:/home/fanxinhao/Work/LiteOS_Lab/drivers/third_party/ST/STM32L4xx_HAL_Driver/Src/stm32l4xx_hal_rcc.c ****   /* Wait till system clock source is ready */
 316:/home/fanxinhao/Work/LiteOS_Lab/drivers/third_party/ST/STM32L4xx_HAL_Driver/Src/stm32l4xx_hal_rcc.c ****   while(READ_BIT(RCC->CFGR, RCC_CFGR_SWS) != RCC_CFGR_SWS_MSI)
 108              		.loc 1 316 8
 109 006e 0AE0     		b	.L6
 110              	.L7:
 317:/home/fanxinhao/Work/LiteOS_Lab/drivers/third_party/ST/STM32L4xx_HAL_Driver/Src/stm32l4xx_hal_rcc.c ****   {
 318:/home/fanxinhao/Work/LiteOS_Lab/drivers/third_party/ST/STM32L4xx_HAL_Driver/Src/stm32l4xx_hal_rcc.c ****     if((HAL_GetTick() - tickstart) > CLOCKSWITCH_TIMEOUT_VALUE)
 111              		.loc 1 318 9
 112 0070 FFF7FEFF 		bl	HAL_GetTick
 113 0074 0246     		mov	r2, r0
 114              		.loc 1 318 23
 115 0076 7B68     		ldr	r3, [r7, #4]
 116 0078 D31A     		subs	r3, r2, r3
 117              		.loc 1 318 7
 118 007a 41F28832 		movw	r2, #5000
 119 007e 9342     		cmp	r3, r2
 120 0080 01D9     		bls	.L6
 319:/home/fanxinhao/Work/LiteOS_Lab/drivers/third_party/ST/STM32L4xx_HAL_Driver/Src/stm32l4xx_hal_rcc.c ****     {
 320:/home/fanxinhao/Work/LiteOS_Lab/drivers/third_party/ST/STM32L4xx_HAL_Driver/Src/stm32l4xx_hal_rcc.c ****       return HAL_TIMEOUT;
 121              		.loc 1 320 14
 122 0082 0323     		movs	r3, #3
 123 0084 4FE0     		b	.L3
 124              	.L6:
 316:/home/fanxinhao/Work/LiteOS_Lab/drivers/third_party/ST/STM32L4xx_HAL_Driver/Src/stm32l4xx_hal_rcc.c ****   {
 125              		.loc 1 316 9
 126 0086 2A4B     		ldr	r3, .L10
 127 0088 9B68     		ldr	r3, [r3, #8]
 128 008a 03F00C03 		and	r3, r3, #12
 316:/home/fanxinhao/Work/LiteOS_Lab/drivers/third_party/ST/STM32L4xx_HAL_Driver/Src/stm32l4xx_hal_rcc.c ****   {
 129              		.loc 1 316 8
 130 008e 002B     		cmp	r3, #0
 131 0090 EED1     		bne	.L7
 321:/home/fanxinhao/Work/LiteOS_Lab/drivers/third_party/ST/STM32L4xx_HAL_Driver/Src/stm32l4xx_hal_rcc.c ****     }
 322:/home/fanxinhao/Work/LiteOS_Lab/drivers/third_party/ST/STM32L4xx_HAL_Driver/Src/stm32l4xx_hal_rcc.c ****   }
ARM GAS  /tmp/ccuQhhnt.s 			page 9


 323:/home/fanxinhao/Work/LiteOS_Lab/drivers/third_party/ST/STM32L4xx_HAL_Driver/Src/stm32l4xx_hal_rcc.c **** 
 324:/home/fanxinhao/Work/LiteOS_Lab/drivers/third_party/ST/STM32L4xx_HAL_Driver/Src/stm32l4xx_hal_rcc.c ****   /* Reset HSION, HSIKERON, HSIASFS, HSEON, HSECSSON, PLLON, PLLSAIxON bits */
 325:/home/fanxinhao/Work/LiteOS_Lab/drivers/third_party/ST/STM32L4xx_HAL_Driver/Src/stm32l4xx_hal_rcc.c **** #if defined(RCC_PLLSAI2_SUPPORT)
 326:/home/fanxinhao/Work/LiteOS_Lab/drivers/third_party/ST/STM32L4xx_HAL_Driver/Src/stm32l4xx_hal_rcc.c **** 
 327:/home/fanxinhao/Work/LiteOS_Lab/drivers/third_party/ST/STM32L4xx_HAL_Driver/Src/stm32l4xx_hal_rcc.c ****   CLEAR_BIT(RCC->CR, RCC_CR_HSEON | RCC_CR_HSION | RCC_CR_HSIKERON| RCC_CR_HSIASFS | RCC_CR_PLLON |
 132              		.loc 1 327 3
 133 0092 274B     		ldr	r3, .L10
 134 0094 1A68     		ldr	r2, [r3]
 135 0096 2649     		ldr	r1, .L10
 136 0098 284B     		ldr	r3, .L10+12
 137 009a 1340     		ands	r3, r3, r2
 138 009c 0B60     		str	r3, [r1]
 328:/home/fanxinhao/Work/LiteOS_Lab/drivers/third_party/ST/STM32L4xx_HAL_Driver/Src/stm32l4xx_hal_rcc.c **** 
 329:/home/fanxinhao/Work/LiteOS_Lab/drivers/third_party/ST/STM32L4xx_HAL_Driver/Src/stm32l4xx_hal_rcc.c **** #else
 330:/home/fanxinhao/Work/LiteOS_Lab/drivers/third_party/ST/STM32L4xx_HAL_Driver/Src/stm32l4xx_hal_rcc.c **** 
 331:/home/fanxinhao/Work/LiteOS_Lab/drivers/third_party/ST/STM32L4xx_HAL_Driver/Src/stm32l4xx_hal_rcc.c ****   CLEAR_BIT(RCC->CR, RCC_CR_HSEON | RCC_CR_HSION | RCC_CR_HSIKERON| RCC_CR_HSIASFS | RCC_CR_PLLON |
 332:/home/fanxinhao/Work/LiteOS_Lab/drivers/third_party/ST/STM32L4xx_HAL_Driver/Src/stm32l4xx_hal_rcc.c **** 
 333:/home/fanxinhao/Work/LiteOS_Lab/drivers/third_party/ST/STM32L4xx_HAL_Driver/Src/stm32l4xx_hal_rcc.c **** #endif /* RCC_PLLSAI2_SUPPORT */
 334:/home/fanxinhao/Work/LiteOS_Lab/drivers/third_party/ST/STM32L4xx_HAL_Driver/Src/stm32l4xx_hal_rcc.c **** 
 335:/home/fanxinhao/Work/LiteOS_Lab/drivers/third_party/ST/STM32L4xx_HAL_Driver/Src/stm32l4xx_hal_rcc.c ****   /* Insure PLLRDY, PLLSAI1RDY and PLLSAI2RDY (if present) are reset */
 336:/home/fanxinhao/Work/LiteOS_Lab/drivers/third_party/ST/STM32L4xx_HAL_Driver/Src/stm32l4xx_hal_rcc.c ****   /* Get start tick */
 337:/home/fanxinhao/Work/LiteOS_Lab/drivers/third_party/ST/STM32L4xx_HAL_Driver/Src/stm32l4xx_hal_rcc.c ****   tickstart = HAL_GetTick();
 139              		.loc 1 337 15
 140 009e FFF7FEFF 		bl	HAL_GetTick
 141 00a2 7860     		str	r0, [r7, #4]
 338:/home/fanxinhao/Work/LiteOS_Lab/drivers/third_party/ST/STM32L4xx_HAL_Driver/Src/stm32l4xx_hal_rcc.c **** 
 339:/home/fanxinhao/Work/LiteOS_Lab/drivers/third_party/ST/STM32L4xx_HAL_Driver/Src/stm32l4xx_hal_rcc.c **** #if defined(RCC_PLLSAI2_SUPPORT)
 340:/home/fanxinhao/Work/LiteOS_Lab/drivers/third_party/ST/STM32L4xx_HAL_Driver/Src/stm32l4xx_hal_rcc.c **** 
 341:/home/fanxinhao/Work/LiteOS_Lab/drivers/third_party/ST/STM32L4xx_HAL_Driver/Src/stm32l4xx_hal_rcc.c ****   while(READ_BIT(RCC->CR, RCC_CR_PLLRDY | RCC_CR_PLLSAI1RDY | RCC_CR_PLLSAI2RDY) != 0U)
 142              		.loc 1 341 8
 143 00a4 08E0     		b	.L8
 144              	.L9:
 342:/home/fanxinhao/Work/LiteOS_Lab/drivers/third_party/ST/STM32L4xx_HAL_Driver/Src/stm32l4xx_hal_rcc.c **** 
 343:/home/fanxinhao/Work/LiteOS_Lab/drivers/third_party/ST/STM32L4xx_HAL_Driver/Src/stm32l4xx_hal_rcc.c **** #else
 344:/home/fanxinhao/Work/LiteOS_Lab/drivers/third_party/ST/STM32L4xx_HAL_Driver/Src/stm32l4xx_hal_rcc.c **** 
 345:/home/fanxinhao/Work/LiteOS_Lab/drivers/third_party/ST/STM32L4xx_HAL_Driver/Src/stm32l4xx_hal_rcc.c ****   while(READ_BIT(RCC->CR, RCC_CR_PLLRDY | RCC_CR_PLLSAI1RDY) != 0U)
 346:/home/fanxinhao/Work/LiteOS_Lab/drivers/third_party/ST/STM32L4xx_HAL_Driver/Src/stm32l4xx_hal_rcc.c **** 
 347:/home/fanxinhao/Work/LiteOS_Lab/drivers/third_party/ST/STM32L4xx_HAL_Driver/Src/stm32l4xx_hal_rcc.c **** #endif
 348:/home/fanxinhao/Work/LiteOS_Lab/drivers/third_party/ST/STM32L4xx_HAL_Driver/Src/stm32l4xx_hal_rcc.c ****   {
 349:/home/fanxinhao/Work/LiteOS_Lab/drivers/third_party/ST/STM32L4xx_HAL_Driver/Src/stm32l4xx_hal_rcc.c ****     if((HAL_GetTick() - tickstart) > PLL_TIMEOUT_VALUE)
 145              		.loc 1 349 9
 146 00a6 FFF7FEFF 		bl	HAL_GetTick
 147 00aa 0246     		mov	r2, r0
 148              		.loc 1 349 23
 149 00ac 7B68     		ldr	r3, [r7, #4]
 150 00ae D31A     		subs	r3, r2, r3
 151              		.loc 1 349 7
 152 00b0 022B     		cmp	r3, #2
 153 00b2 01D9     		bls	.L8
 350:/home/fanxinhao/Work/LiteOS_Lab/drivers/third_party/ST/STM32L4xx_HAL_Driver/Src/stm32l4xx_hal_rcc.c ****     {
 351:/home/fanxinhao/Work/LiteOS_Lab/drivers/third_party/ST/STM32L4xx_HAL_Driver/Src/stm32l4xx_hal_rcc.c ****       return HAL_TIMEOUT;
 154              		.loc 1 351 14
 155 00b4 0323     		movs	r3, #3
 156 00b6 36E0     		b	.L3
 157              	.L8:
 341:/home/fanxinhao/Work/LiteOS_Lab/drivers/third_party/ST/STM32L4xx_HAL_Driver/Src/stm32l4xx_hal_rcc.c **** 
 158              		.loc 1 341 9
ARM GAS  /tmp/ccuQhhnt.s 			page 10


 159 00b8 1D4B     		ldr	r3, .L10
 160 00ba 1B68     		ldr	r3, [r3]
 161 00bc 03F02853 		and	r3, r3, #704643072
 341:/home/fanxinhao/Work/LiteOS_Lab/drivers/third_party/ST/STM32L4xx_HAL_Driver/Src/stm32l4xx_hal_rcc.c **** 
 162              		.loc 1 341 8
 163 00c0 002B     		cmp	r3, #0
 164 00c2 F0D1     		bne	.L9
 352:/home/fanxinhao/Work/LiteOS_Lab/drivers/third_party/ST/STM32L4xx_HAL_Driver/Src/stm32l4xx_hal_rcc.c ****     }
 353:/home/fanxinhao/Work/LiteOS_Lab/drivers/third_party/ST/STM32L4xx_HAL_Driver/Src/stm32l4xx_hal_rcc.c ****   }
 354:/home/fanxinhao/Work/LiteOS_Lab/drivers/third_party/ST/STM32L4xx_HAL_Driver/Src/stm32l4xx_hal_rcc.c **** 
 355:/home/fanxinhao/Work/LiteOS_Lab/drivers/third_party/ST/STM32L4xx_HAL_Driver/Src/stm32l4xx_hal_rcc.c ****   /* Reset PLLCFGR register */
 356:/home/fanxinhao/Work/LiteOS_Lab/drivers/third_party/ST/STM32L4xx_HAL_Driver/Src/stm32l4xx_hal_rcc.c ****   CLEAR_REG(RCC->PLLCFGR);
 165              		.loc 1 356 3
 166 00c4 1A4B     		ldr	r3, .L10
 167 00c6 0022     		movs	r2, #0
 168 00c8 DA60     		str	r2, [r3, #12]
 357:/home/fanxinhao/Work/LiteOS_Lab/drivers/third_party/ST/STM32L4xx_HAL_Driver/Src/stm32l4xx_hal_rcc.c ****   SET_BIT(RCC->PLLCFGR, RCC_PLLCFGR_PLLN_4 );
 169              		.loc 1 357 3
 170 00ca 194B     		ldr	r3, .L10
 171 00cc DB68     		ldr	r3, [r3, #12]
 172 00ce 184A     		ldr	r2, .L10
 173 00d0 43F48053 		orr	r3, r3, #4096
 174 00d4 D360     		str	r3, [r2, #12]
 358:/home/fanxinhao/Work/LiteOS_Lab/drivers/third_party/ST/STM32L4xx_HAL_Driver/Src/stm32l4xx_hal_rcc.c **** 
 359:/home/fanxinhao/Work/LiteOS_Lab/drivers/third_party/ST/STM32L4xx_HAL_Driver/Src/stm32l4xx_hal_rcc.c ****   /* Reset PLLSAI1CFGR register */
 360:/home/fanxinhao/Work/LiteOS_Lab/drivers/third_party/ST/STM32L4xx_HAL_Driver/Src/stm32l4xx_hal_rcc.c ****   CLEAR_REG(RCC->PLLSAI1CFGR);
 175              		.loc 1 360 3
 176 00d6 164B     		ldr	r3, .L10
 177 00d8 0022     		movs	r2, #0
 178 00da 1A61     		str	r2, [r3, #16]
 361:/home/fanxinhao/Work/LiteOS_Lab/drivers/third_party/ST/STM32L4xx_HAL_Driver/Src/stm32l4xx_hal_rcc.c ****   SET_BIT(RCC->PLLSAI1CFGR,  RCC_PLLSAI1CFGR_PLLSAI1N_4 );
 179              		.loc 1 361 3
 180 00dc 144B     		ldr	r3, .L10
 181 00de 1B69     		ldr	r3, [r3, #16]
 182 00e0 134A     		ldr	r2, .L10
 183 00e2 43F48053 		orr	r3, r3, #4096
 184 00e6 1361     		str	r3, [r2, #16]
 362:/home/fanxinhao/Work/LiteOS_Lab/drivers/third_party/ST/STM32L4xx_HAL_Driver/Src/stm32l4xx_hal_rcc.c **** 
 363:/home/fanxinhao/Work/LiteOS_Lab/drivers/third_party/ST/STM32L4xx_HAL_Driver/Src/stm32l4xx_hal_rcc.c **** #if defined(RCC_PLLSAI2_SUPPORT)
 364:/home/fanxinhao/Work/LiteOS_Lab/drivers/third_party/ST/STM32L4xx_HAL_Driver/Src/stm32l4xx_hal_rcc.c **** 
 365:/home/fanxinhao/Work/LiteOS_Lab/drivers/third_party/ST/STM32L4xx_HAL_Driver/Src/stm32l4xx_hal_rcc.c ****   /* Reset PLLSAI2CFGR register */
 366:/home/fanxinhao/Work/LiteOS_Lab/drivers/third_party/ST/STM32L4xx_HAL_Driver/Src/stm32l4xx_hal_rcc.c ****   CLEAR_REG(RCC->PLLSAI2CFGR);
 185              		.loc 1 366 3
 186 00e8 114B     		ldr	r3, .L10
 187 00ea 0022     		movs	r2, #0
 188 00ec 5A61     		str	r2, [r3, #20]
 367:/home/fanxinhao/Work/LiteOS_Lab/drivers/third_party/ST/STM32L4xx_HAL_Driver/Src/stm32l4xx_hal_rcc.c ****   SET_BIT(RCC->PLLSAI2CFGR,  RCC_PLLSAI2CFGR_PLLSAI2N_4 );
 189              		.loc 1 367 3
 190 00ee 104B     		ldr	r3, .L10
 191 00f0 5B69     		ldr	r3, [r3, #20]
 192 00f2 0F4A     		ldr	r2, .L10
 193 00f4 43F48053 		orr	r3, r3, #4096
 194 00f8 5361     		str	r3, [r2, #20]
 368:/home/fanxinhao/Work/LiteOS_Lab/drivers/third_party/ST/STM32L4xx_HAL_Driver/Src/stm32l4xx_hal_rcc.c **** 
 369:/home/fanxinhao/Work/LiteOS_Lab/drivers/third_party/ST/STM32L4xx_HAL_Driver/Src/stm32l4xx_hal_rcc.c **** #endif /* RCC_PLLSAI2_SUPPORT */
 370:/home/fanxinhao/Work/LiteOS_Lab/drivers/third_party/ST/STM32L4xx_HAL_Driver/Src/stm32l4xx_hal_rcc.c **** 
 371:/home/fanxinhao/Work/LiteOS_Lab/drivers/third_party/ST/STM32L4xx_HAL_Driver/Src/stm32l4xx_hal_rcc.c ****   /* Reset HSEBYP bit */
ARM GAS  /tmp/ccuQhhnt.s 			page 11


 372:/home/fanxinhao/Work/LiteOS_Lab/drivers/third_party/ST/STM32L4xx_HAL_Driver/Src/stm32l4xx_hal_rcc.c ****   CLEAR_BIT(RCC->CR, RCC_CR_HSEBYP);
 195              		.loc 1 372 3
 196 00fa 0D4B     		ldr	r3, .L10
 197 00fc 1B68     		ldr	r3, [r3]
 198 00fe 0C4A     		ldr	r2, .L10
 199 0100 23F48023 		bic	r3, r3, #262144
 200 0104 1360     		str	r3, [r2]
 373:/home/fanxinhao/Work/LiteOS_Lab/drivers/third_party/ST/STM32L4xx_HAL_Driver/Src/stm32l4xx_hal_rcc.c **** 
 374:/home/fanxinhao/Work/LiteOS_Lab/drivers/third_party/ST/STM32L4xx_HAL_Driver/Src/stm32l4xx_hal_rcc.c ****   /* Disable all interrupts */
 375:/home/fanxinhao/Work/LiteOS_Lab/drivers/third_party/ST/STM32L4xx_HAL_Driver/Src/stm32l4xx_hal_rcc.c ****   CLEAR_REG(RCC->CIER);
 201              		.loc 1 375 3
 202 0106 0A4B     		ldr	r3, .L10
 203 0108 0022     		movs	r2, #0
 204 010a 9A61     		str	r2, [r3, #24]
 376:/home/fanxinhao/Work/LiteOS_Lab/drivers/third_party/ST/STM32L4xx_HAL_Driver/Src/stm32l4xx_hal_rcc.c **** 
 377:/home/fanxinhao/Work/LiteOS_Lab/drivers/third_party/ST/STM32L4xx_HAL_Driver/Src/stm32l4xx_hal_rcc.c ****   /* Clear all interrupt flags */
 378:/home/fanxinhao/Work/LiteOS_Lab/drivers/third_party/ST/STM32L4xx_HAL_Driver/Src/stm32l4xx_hal_rcc.c ****   WRITE_REG(RCC->CICR, 0xFFFFFFFFU);
 205              		.loc 1 378 3
 206 010c 084B     		ldr	r3, .L10
 207 010e 4FF0FF32 		mov	r2, #-1
 208 0112 1A62     		str	r2, [r3, #32]
 379:/home/fanxinhao/Work/LiteOS_Lab/drivers/third_party/ST/STM32L4xx_HAL_Driver/Src/stm32l4xx_hal_rcc.c **** 
 380:/home/fanxinhao/Work/LiteOS_Lab/drivers/third_party/ST/STM32L4xx_HAL_Driver/Src/stm32l4xx_hal_rcc.c ****   /* Clear all reset flags */
 381:/home/fanxinhao/Work/LiteOS_Lab/drivers/third_party/ST/STM32L4xx_HAL_Driver/Src/stm32l4xx_hal_rcc.c ****   SET_BIT(RCC->CSR, RCC_CSR_RMVF);
 209              		.loc 1 381 3
 210 0114 064B     		ldr	r3, .L10
 211 0116 D3F89430 		ldr	r3, [r3, #148]
 212 011a 054A     		ldr	r2, .L10
 213 011c 43F40003 		orr	r3, r3, #8388608
 214 0120 C2F89430 		str	r3, [r2, #148]
 382:/home/fanxinhao/Work/LiteOS_Lab/drivers/third_party/ST/STM32L4xx_HAL_Driver/Src/stm32l4xx_hal_rcc.c **** 
 383:/home/fanxinhao/Work/LiteOS_Lab/drivers/third_party/ST/STM32L4xx_HAL_Driver/Src/stm32l4xx_hal_rcc.c ****   return HAL_OK;
 215              		.loc 1 383 10
 216 0124 0023     		movs	r3, #0
 217              	.L3:
 384:/home/fanxinhao/Work/LiteOS_Lab/drivers/third_party/ST/STM32L4xx_HAL_Driver/Src/stm32l4xx_hal_rcc.c **** }
 218              		.loc 1 384 1
 219 0126 1846     		mov	r0, r3
 220 0128 0837     		adds	r7, r7, #8
 221              	.LCFI3:
 222              		.cfi_def_cfa_offset 8
 223 012a BD46     		mov	sp, r7
 224              	.LCFI4:
 225              		.cfi_def_cfa_register 13
 226              		@ sp needed
 227 012c 80BD     		pop	{r7, pc}
 228              	.L11:
 229 012e 00BF     		.align	2
 230              	.L10:
 231 0130 00100240 		.word	1073876992
 232 0134 00000000 		.word	SystemCoreClock
 233 0138 00093D00 		.word	4000000
 234 013c FFF4FEEA 		.word	-352389889
 235              		.cfi_endproc
 236              	.LFE126:
 238              		.section	.text.HAL_RCC_OscConfig,"ax",%progbits
 239              		.align	1
ARM GAS  /tmp/ccuQhhnt.s 			page 12


 240              		.global	HAL_RCC_OscConfig
 241              		.syntax unified
 242              		.thumb
 243              		.thumb_func
 244              		.fpu fpv4-sp-d16
 246              	HAL_RCC_OscConfig:
 247              	.LFB127:
 385:/home/fanxinhao/Work/LiteOS_Lab/drivers/third_party/ST/STM32L4xx_HAL_Driver/Src/stm32l4xx_hal_rcc.c **** 
 386:/home/fanxinhao/Work/LiteOS_Lab/drivers/third_party/ST/STM32L4xx_HAL_Driver/Src/stm32l4xx_hal_rcc.c **** /**
 387:/home/fanxinhao/Work/LiteOS_Lab/drivers/third_party/ST/STM32L4xx_HAL_Driver/Src/stm32l4xx_hal_rcc.c ****   * @brief  Initialize the RCC Oscillators according to the specified parameters in the
 388:/home/fanxinhao/Work/LiteOS_Lab/drivers/third_party/ST/STM32L4xx_HAL_Driver/Src/stm32l4xx_hal_rcc.c ****   *         RCC_OscInitTypeDef.
 389:/home/fanxinhao/Work/LiteOS_Lab/drivers/third_party/ST/STM32L4xx_HAL_Driver/Src/stm32l4xx_hal_rcc.c ****   * @param  RCC_OscInitStruct  pointer to an RCC_OscInitTypeDef structure that
 390:/home/fanxinhao/Work/LiteOS_Lab/drivers/third_party/ST/STM32L4xx_HAL_Driver/Src/stm32l4xx_hal_rcc.c ****   *         contains the configuration information for the RCC Oscillators.
 391:/home/fanxinhao/Work/LiteOS_Lab/drivers/third_party/ST/STM32L4xx_HAL_Driver/Src/stm32l4xx_hal_rcc.c ****   * @note   The PLL is not disabled when used as system clock.
 392:/home/fanxinhao/Work/LiteOS_Lab/drivers/third_party/ST/STM32L4xx_HAL_Driver/Src/stm32l4xx_hal_rcc.c ****   * @note   Transitions LSE Bypass to LSE On and LSE On to LSE Bypass are not
 393:/home/fanxinhao/Work/LiteOS_Lab/drivers/third_party/ST/STM32L4xx_HAL_Driver/Src/stm32l4xx_hal_rcc.c ****   *         supported by this macro. User should request a transition to LSE Off
 394:/home/fanxinhao/Work/LiteOS_Lab/drivers/third_party/ST/STM32L4xx_HAL_Driver/Src/stm32l4xx_hal_rcc.c ****   *         first and then LSE On or LSE Bypass.
 395:/home/fanxinhao/Work/LiteOS_Lab/drivers/third_party/ST/STM32L4xx_HAL_Driver/Src/stm32l4xx_hal_rcc.c ****   * @note   Transition HSE Bypass to HSE On and HSE On to HSE Bypass are not
 396:/home/fanxinhao/Work/LiteOS_Lab/drivers/third_party/ST/STM32L4xx_HAL_Driver/Src/stm32l4xx_hal_rcc.c ****   *         supported by this macro. User should request a transition to HSE Off
 397:/home/fanxinhao/Work/LiteOS_Lab/drivers/third_party/ST/STM32L4xx_HAL_Driver/Src/stm32l4xx_hal_rcc.c ****   *         first and then HSE On or HSE Bypass.
 398:/home/fanxinhao/Work/LiteOS_Lab/drivers/third_party/ST/STM32L4xx_HAL_Driver/Src/stm32l4xx_hal_rcc.c ****   * @retval HAL status
 399:/home/fanxinhao/Work/LiteOS_Lab/drivers/third_party/ST/STM32L4xx_HAL_Driver/Src/stm32l4xx_hal_rcc.c ****   */
 400:/home/fanxinhao/Work/LiteOS_Lab/drivers/third_party/ST/STM32L4xx_HAL_Driver/Src/stm32l4xx_hal_rcc.c **** HAL_StatusTypeDef HAL_RCC_OscConfig(RCC_OscInitTypeDef  *RCC_OscInitStruct)
 401:/home/fanxinhao/Work/LiteOS_Lab/drivers/third_party/ST/STM32L4xx_HAL_Driver/Src/stm32l4xx_hal_rcc.c **** {
 248              		.loc 1 401 1
 249              		.cfi_startproc
 250              		@ args = 0, pretend = 0, frame = 24
 251              		@ frame_needed = 1, uses_anonymous_args = 0
 252 0000 80B5     		push	{r7, lr}
 253              	.LCFI5:
 254              		.cfi_def_cfa_offset 8
 255              		.cfi_offset 7, -8
 256              		.cfi_offset 14, -4
 257 0002 86B0     		sub	sp, sp, #24
 258              	.LCFI6:
 259              		.cfi_def_cfa_offset 32
 260 0004 00AF     		add	r7, sp, #0
 261              	.LCFI7:
 262              		.cfi_def_cfa_register 7
 263 0006 7860     		str	r0, [r7, #4]
 402:/home/fanxinhao/Work/LiteOS_Lab/drivers/third_party/ST/STM32L4xx_HAL_Driver/Src/stm32l4xx_hal_rcc.c ****   uint32_t tickstart = 0;
 264              		.loc 1 402 12
 265 0008 0023     		movs	r3, #0
 266 000a 3B61     		str	r3, [r7, #16]
 403:/home/fanxinhao/Work/LiteOS_Lab/drivers/third_party/ST/STM32L4xx_HAL_Driver/Src/stm32l4xx_hal_rcc.c **** 
 404:/home/fanxinhao/Work/LiteOS_Lab/drivers/third_party/ST/STM32L4xx_HAL_Driver/Src/stm32l4xx_hal_rcc.c ****   /* Check the parameters */
 405:/home/fanxinhao/Work/LiteOS_Lab/drivers/third_party/ST/STM32L4xx_HAL_Driver/Src/stm32l4xx_hal_rcc.c ****   assert_param(RCC_OscInitStruct != NULL);
 406:/home/fanxinhao/Work/LiteOS_Lab/drivers/third_party/ST/STM32L4xx_HAL_Driver/Src/stm32l4xx_hal_rcc.c ****   assert_param(IS_RCC_OSCILLATORTYPE(RCC_OscInitStruct->OscillatorType));
 407:/home/fanxinhao/Work/LiteOS_Lab/drivers/third_party/ST/STM32L4xx_HAL_Driver/Src/stm32l4xx_hal_rcc.c **** 
 408:/home/fanxinhao/Work/LiteOS_Lab/drivers/third_party/ST/STM32L4xx_HAL_Driver/Src/stm32l4xx_hal_rcc.c ****   /*----------------------------- MSI Configuration --------------------------*/
 409:/home/fanxinhao/Work/LiteOS_Lab/drivers/third_party/ST/STM32L4xx_HAL_Driver/Src/stm32l4xx_hal_rcc.c ****   if(((RCC_OscInitStruct->OscillatorType) & RCC_OSCILLATORTYPE_MSI) == RCC_OSCILLATORTYPE_MSI)
 267              		.loc 1 409 25
 268 000c 7B68     		ldr	r3, [r7, #4]
 269 000e 1B68     		ldr	r3, [r3]
 270              		.loc 1 409 43
 271 0010 03F01003 		and	r3, r3, #16
 272              		.loc 1 409 5
ARM GAS  /tmp/ccuQhhnt.s 			page 13


 273 0014 002B     		cmp	r3, #0
 274 0016 00F0D080 		beq	.L13
 410:/home/fanxinhao/Work/LiteOS_Lab/drivers/third_party/ST/STM32L4xx_HAL_Driver/Src/stm32l4xx_hal_rcc.c ****   {
 411:/home/fanxinhao/Work/LiteOS_Lab/drivers/third_party/ST/STM32L4xx_HAL_Driver/Src/stm32l4xx_hal_rcc.c ****     /* Check the parameters */
 412:/home/fanxinhao/Work/LiteOS_Lab/drivers/third_party/ST/STM32L4xx_HAL_Driver/Src/stm32l4xx_hal_rcc.c ****     assert_param(IS_RCC_MSI(RCC_OscInitStruct->MSIState));
 413:/home/fanxinhao/Work/LiteOS_Lab/drivers/third_party/ST/STM32L4xx_HAL_Driver/Src/stm32l4xx_hal_rcc.c ****     assert_param(IS_RCC_MSICALIBRATION_VALUE(RCC_OscInitStruct->MSICalibrationValue));
 414:/home/fanxinhao/Work/LiteOS_Lab/drivers/third_party/ST/STM32L4xx_HAL_Driver/Src/stm32l4xx_hal_rcc.c ****     assert_param(IS_RCC_MSI_CLOCK_RANGE(RCC_OscInitStruct->MSIClockRange));
 415:/home/fanxinhao/Work/LiteOS_Lab/drivers/third_party/ST/STM32L4xx_HAL_Driver/Src/stm32l4xx_hal_rcc.c **** 
 416:/home/fanxinhao/Work/LiteOS_Lab/drivers/third_party/ST/STM32L4xx_HAL_Driver/Src/stm32l4xx_hal_rcc.c ****     /* When the MSI is used as system clock it will not be disabled */
 417:/home/fanxinhao/Work/LiteOS_Lab/drivers/third_party/ST/STM32L4xx_HAL_Driver/Src/stm32l4xx_hal_rcc.c ****     if((__HAL_RCC_GET_SYSCLK_SOURCE() == RCC_CFGR_SWS_MSI) )
 275              		.loc 1 417 9
 276 001a A14B     		ldr	r3, .L79
 277 001c 9B68     		ldr	r3, [r3, #8]
 278 001e 03F00C03 		and	r3, r3, #12
 279              		.loc 1 417 7
 280 0022 002B     		cmp	r3, #0
 281 0024 79D1     		bne	.L14
 418:/home/fanxinhao/Work/LiteOS_Lab/drivers/third_party/ST/STM32L4xx_HAL_Driver/Src/stm32l4xx_hal_rcc.c ****     {
 419:/home/fanxinhao/Work/LiteOS_Lab/drivers/third_party/ST/STM32L4xx_HAL_Driver/Src/stm32l4xx_hal_rcc.c ****       if((READ_BIT(RCC->CR, RCC_CR_MSIRDY) != RESET) && (RCC_OscInitStruct->MSIState == RCC_MSI_OFF
 282              		.loc 1 419 11
 283 0026 9E4B     		ldr	r3, .L79
 284 0028 1B68     		ldr	r3, [r3]
 285 002a 03F00203 		and	r3, r3, #2
 286              		.loc 1 419 9
 287 002e 002B     		cmp	r3, #0
 288 0030 05D0     		beq	.L15
 289              		.loc 1 419 75 discriminator 1
 290 0032 7B68     		ldr	r3, [r7, #4]
 291 0034 9B69     		ldr	r3, [r3, #24]
 292              		.loc 1 419 54 discriminator 1
 293 0036 002B     		cmp	r3, #0
 294 0038 01D1     		bne	.L15
 420:/home/fanxinhao/Work/LiteOS_Lab/drivers/third_party/ST/STM32L4xx_HAL_Driver/Src/stm32l4xx_hal_rcc.c ****       {
 421:/home/fanxinhao/Work/LiteOS_Lab/drivers/third_party/ST/STM32L4xx_HAL_Driver/Src/stm32l4xx_hal_rcc.c ****         return HAL_ERROR;
 295              		.loc 1 421 16
 296 003a 0123     		movs	r3, #1
 297 003c 3CE3     		b	.L16
 298              	.L15:
 422:/home/fanxinhao/Work/LiteOS_Lab/drivers/third_party/ST/STM32L4xx_HAL_Driver/Src/stm32l4xx_hal_rcc.c ****       }
 423:/home/fanxinhao/Work/LiteOS_Lab/drivers/third_party/ST/STM32L4xx_HAL_Driver/Src/stm32l4xx_hal_rcc.c **** 
 424:/home/fanxinhao/Work/LiteOS_Lab/drivers/third_party/ST/STM32L4xx_HAL_Driver/Src/stm32l4xx_hal_rcc.c ****        /* Otherwise, just the calibration and MSI range change are allowed */
 425:/home/fanxinhao/Work/LiteOS_Lab/drivers/third_party/ST/STM32L4xx_HAL_Driver/Src/stm32l4xx_hal_rcc.c ****       else
 426:/home/fanxinhao/Work/LiteOS_Lab/drivers/third_party/ST/STM32L4xx_HAL_Driver/Src/stm32l4xx_hal_rcc.c ****       {
 427:/home/fanxinhao/Work/LiteOS_Lab/drivers/third_party/ST/STM32L4xx_HAL_Driver/Src/stm32l4xx_hal_rcc.c ****         /* To correctly read data from FLASH memory, the number of wait states (LATENCY)
 428:/home/fanxinhao/Work/LiteOS_Lab/drivers/third_party/ST/STM32L4xx_HAL_Driver/Src/stm32l4xx_hal_rcc.c ****            must be correctly programmed according to the frequency of the CPU clock
 429:/home/fanxinhao/Work/LiteOS_Lab/drivers/third_party/ST/STM32L4xx_HAL_Driver/Src/stm32l4xx_hal_rcc.c ****            (HCLK) and the supply voltage of the device. */
 430:/home/fanxinhao/Work/LiteOS_Lab/drivers/third_party/ST/STM32L4xx_HAL_Driver/Src/stm32l4xx_hal_rcc.c ****         if(RCC_OscInitStruct->MSIClockRange > __HAL_RCC_GET_MSI_RANGE())
 299              		.loc 1 430 29
 300 003e 7B68     		ldr	r3, [r7, #4]
 301 0040 1A6A     		ldr	r2, [r3, #32]
 302              		.loc 1 430 47
 303 0042 974B     		ldr	r3, .L79
 304 0044 1B68     		ldr	r3, [r3]
 305 0046 03F00803 		and	r3, r3, #8
 306 004a 002B     		cmp	r3, #0
 307 004c 04D0     		beq	.L17
 308              		.loc 1 430 47 is_stmt 0 discriminator 1
ARM GAS  /tmp/ccuQhhnt.s 			page 14


 309 004e 944B     		ldr	r3, .L79
 310 0050 1B68     		ldr	r3, [r3]
 311 0052 03F0F003 		and	r3, r3, #240
 312 0056 05E0     		b	.L18
 313              	.L17:
 314              		.loc 1 430 47 discriminator 2
 315 0058 914B     		ldr	r3, .L79
 316 005a D3F89430 		ldr	r3, [r3, #148]
 317 005e 1B09     		lsrs	r3, r3, #4
 318 0060 03F0F003 		and	r3, r3, #240
 319              	.L18:
 320              		.loc 1 430 11 is_stmt 1 discriminator 4
 321 0064 9342     		cmp	r3, r2
 322 0066 23D2     		bcs	.L19
 431:/home/fanxinhao/Work/LiteOS_Lab/drivers/third_party/ST/STM32L4xx_HAL_Driver/Src/stm32l4xx_hal_rcc.c ****         {
 432:/home/fanxinhao/Work/LiteOS_Lab/drivers/third_party/ST/STM32L4xx_HAL_Driver/Src/stm32l4xx_hal_rcc.c ****           /* First increase number of wait states update if necessary */
 433:/home/fanxinhao/Work/LiteOS_Lab/drivers/third_party/ST/STM32L4xx_HAL_Driver/Src/stm32l4xx_hal_rcc.c ****           if(RCC_SetFlashLatencyFromMSIRange(RCC_OscInitStruct->MSIClockRange) != HAL_OK)
 323              		.loc 1 433 14
 324 0068 7B68     		ldr	r3, [r7, #4]
 325 006a 1B6A     		ldr	r3, [r3, #32]
 326 006c 1846     		mov	r0, r3
 327 006e FFF7FEFF 		bl	RCC_SetFlashLatencyFromMSIRange
 328 0072 0346     		mov	r3, r0
 329              		.loc 1 433 13
 330 0074 002B     		cmp	r3, #0
 331 0076 01D0     		beq	.L20
 434:/home/fanxinhao/Work/LiteOS_Lab/drivers/third_party/ST/STM32L4xx_HAL_Driver/Src/stm32l4xx_hal_rcc.c ****           {
 435:/home/fanxinhao/Work/LiteOS_Lab/drivers/third_party/ST/STM32L4xx_HAL_Driver/Src/stm32l4xx_hal_rcc.c ****             return HAL_ERROR;
 332              		.loc 1 435 20
 333 0078 0123     		movs	r3, #1
 334 007a 1DE3     		b	.L16
 335              	.L20:
 436:/home/fanxinhao/Work/LiteOS_Lab/drivers/third_party/ST/STM32L4xx_HAL_Driver/Src/stm32l4xx_hal_rcc.c ****           }
 437:/home/fanxinhao/Work/LiteOS_Lab/drivers/third_party/ST/STM32L4xx_HAL_Driver/Src/stm32l4xx_hal_rcc.c **** 
 438:/home/fanxinhao/Work/LiteOS_Lab/drivers/third_party/ST/STM32L4xx_HAL_Driver/Src/stm32l4xx_hal_rcc.c ****           /* Selects the Multiple Speed oscillator (MSI) clock range .*/
 439:/home/fanxinhao/Work/LiteOS_Lab/drivers/third_party/ST/STM32L4xx_HAL_Driver/Src/stm32l4xx_hal_rcc.c ****           __HAL_RCC_MSI_RANGE_CONFIG(RCC_OscInitStruct->MSIClockRange);
 336              		.loc 1 439 11
 337 007c 884B     		ldr	r3, .L79
 338 007e 1B68     		ldr	r3, [r3]
 339 0080 874A     		ldr	r2, .L79
 340 0082 43F00803 		orr	r3, r3, #8
 341 0086 1360     		str	r3, [r2]
 342 0088 854B     		ldr	r3, .L79
 343 008a 1B68     		ldr	r3, [r3]
 344 008c 23F0F002 		bic	r2, r3, #240
 345 0090 7B68     		ldr	r3, [r7, #4]
 346 0092 1B6A     		ldr	r3, [r3, #32]
 347 0094 8249     		ldr	r1, .L79
 348 0096 1343     		orrs	r3, r3, r2
 349 0098 0B60     		str	r3, [r1]
 440:/home/fanxinhao/Work/LiteOS_Lab/drivers/third_party/ST/STM32L4xx_HAL_Driver/Src/stm32l4xx_hal_rcc.c ****           /* Adjusts the Multiple Speed oscillator (MSI) calibration value.*/
 441:/home/fanxinhao/Work/LiteOS_Lab/drivers/third_party/ST/STM32L4xx_HAL_Driver/Src/stm32l4xx_hal_rcc.c ****           __HAL_RCC_MSI_CALIBRATIONVALUE_ADJUST(RCC_OscInitStruct->MSICalibrationValue);
 350              		.loc 1 441 11
 351 009a 814B     		ldr	r3, .L79
 352 009c 5B68     		ldr	r3, [r3, #4]
 353 009e 23F47F42 		bic	r2, r3, #65280
 354 00a2 7B68     		ldr	r3, [r7, #4]
ARM GAS  /tmp/ccuQhhnt.s 			page 15


 355 00a4 DB69     		ldr	r3, [r3, #28]
 356 00a6 1B02     		lsls	r3, r3, #8
 357 00a8 7D49     		ldr	r1, .L79
 358 00aa 1343     		orrs	r3, r3, r2
 359 00ac 4B60     		str	r3, [r1, #4]
 360 00ae 22E0     		b	.L21
 361              	.L19:
 442:/home/fanxinhao/Work/LiteOS_Lab/drivers/third_party/ST/STM32L4xx_HAL_Driver/Src/stm32l4xx_hal_rcc.c ****         }
 443:/home/fanxinhao/Work/LiteOS_Lab/drivers/third_party/ST/STM32L4xx_HAL_Driver/Src/stm32l4xx_hal_rcc.c ****         else
 444:/home/fanxinhao/Work/LiteOS_Lab/drivers/third_party/ST/STM32L4xx_HAL_Driver/Src/stm32l4xx_hal_rcc.c ****         {
 445:/home/fanxinhao/Work/LiteOS_Lab/drivers/third_party/ST/STM32L4xx_HAL_Driver/Src/stm32l4xx_hal_rcc.c ****           /* Else, keep current flash latency while decreasing applies */
 446:/home/fanxinhao/Work/LiteOS_Lab/drivers/third_party/ST/STM32L4xx_HAL_Driver/Src/stm32l4xx_hal_rcc.c ****           /* Selects the Multiple Speed oscillator (MSI) clock range .*/
 447:/home/fanxinhao/Work/LiteOS_Lab/drivers/third_party/ST/STM32L4xx_HAL_Driver/Src/stm32l4xx_hal_rcc.c ****           __HAL_RCC_MSI_RANGE_CONFIG(RCC_OscInitStruct->MSIClockRange);
 362              		.loc 1 447 11
 363 00b0 7B4B     		ldr	r3, .L79
 364 00b2 1B68     		ldr	r3, [r3]
 365 00b4 7A4A     		ldr	r2, .L79
 366 00b6 43F00803 		orr	r3, r3, #8
 367 00ba 1360     		str	r3, [r2]
 368 00bc 784B     		ldr	r3, .L79
 369 00be 1B68     		ldr	r3, [r3]
 370 00c0 23F0F002 		bic	r2, r3, #240
 371 00c4 7B68     		ldr	r3, [r7, #4]
 372 00c6 1B6A     		ldr	r3, [r3, #32]
 373 00c8 7549     		ldr	r1, .L79
 374 00ca 1343     		orrs	r3, r3, r2
 375 00cc 0B60     		str	r3, [r1]
 448:/home/fanxinhao/Work/LiteOS_Lab/drivers/third_party/ST/STM32L4xx_HAL_Driver/Src/stm32l4xx_hal_rcc.c ****           /* Adjusts the Multiple Speed oscillator (MSI) calibration value.*/
 449:/home/fanxinhao/Work/LiteOS_Lab/drivers/third_party/ST/STM32L4xx_HAL_Driver/Src/stm32l4xx_hal_rcc.c ****           __HAL_RCC_MSI_CALIBRATIONVALUE_ADJUST(RCC_OscInitStruct->MSICalibrationValue);
 376              		.loc 1 449 11
 377 00ce 744B     		ldr	r3, .L79
 378 00d0 5B68     		ldr	r3, [r3, #4]
 379 00d2 23F47F42 		bic	r2, r3, #65280
 380 00d6 7B68     		ldr	r3, [r7, #4]
 381 00d8 DB69     		ldr	r3, [r3, #28]
 382 00da 1B02     		lsls	r3, r3, #8
 383 00dc 7049     		ldr	r1, .L79
 384 00de 1343     		orrs	r3, r3, r2
 385 00e0 4B60     		str	r3, [r1, #4]
 450:/home/fanxinhao/Work/LiteOS_Lab/drivers/third_party/ST/STM32L4xx_HAL_Driver/Src/stm32l4xx_hal_rcc.c **** 
 451:/home/fanxinhao/Work/LiteOS_Lab/drivers/third_party/ST/STM32L4xx_HAL_Driver/Src/stm32l4xx_hal_rcc.c ****           /* Decrease number of wait states update if necessary */
 452:/home/fanxinhao/Work/LiteOS_Lab/drivers/third_party/ST/STM32L4xx_HAL_Driver/Src/stm32l4xx_hal_rcc.c ****           if(RCC_SetFlashLatencyFromMSIRange(RCC_OscInitStruct->MSIClockRange) != HAL_OK)
 386              		.loc 1 452 14
 387 00e2 7B68     		ldr	r3, [r7, #4]
 388 00e4 1B6A     		ldr	r3, [r3, #32]
 389 00e6 1846     		mov	r0, r3
 390 00e8 FFF7FEFF 		bl	RCC_SetFlashLatencyFromMSIRange
 391 00ec 0346     		mov	r3, r0
 392              		.loc 1 452 13
 393 00ee 002B     		cmp	r3, #0
 394 00f0 01D0     		beq	.L21
 453:/home/fanxinhao/Work/LiteOS_Lab/drivers/third_party/ST/STM32L4xx_HAL_Driver/Src/stm32l4xx_hal_rcc.c ****           {
 454:/home/fanxinhao/Work/LiteOS_Lab/drivers/third_party/ST/STM32L4xx_HAL_Driver/Src/stm32l4xx_hal_rcc.c ****             return HAL_ERROR;
 395              		.loc 1 454 20
 396 00f2 0123     		movs	r3, #1
 397 00f4 E0E2     		b	.L16
 398              	.L21:
ARM GAS  /tmp/ccuQhhnt.s 			page 16


 455:/home/fanxinhao/Work/LiteOS_Lab/drivers/third_party/ST/STM32L4xx_HAL_Driver/Src/stm32l4xx_hal_rcc.c ****           }
 456:/home/fanxinhao/Work/LiteOS_Lab/drivers/third_party/ST/STM32L4xx_HAL_Driver/Src/stm32l4xx_hal_rcc.c ****         }
 457:/home/fanxinhao/Work/LiteOS_Lab/drivers/third_party/ST/STM32L4xx_HAL_Driver/Src/stm32l4xx_hal_rcc.c **** 
 458:/home/fanxinhao/Work/LiteOS_Lab/drivers/third_party/ST/STM32L4xx_HAL_Driver/Src/stm32l4xx_hal_rcc.c ****         /* Update the SystemCoreClock global variable */
 459:/home/fanxinhao/Work/LiteOS_Lab/drivers/third_party/ST/STM32L4xx_HAL_Driver/Src/stm32l4xx_hal_rcc.c ****         SystemCoreClock = HAL_RCC_GetSysClockFreq() >> AHBPrescTable[READ_BIT(RCC->CFGR, RCC_CFGR_H
 399              		.loc 1 459 27
 400 00f6 FFF7FEFF 		bl	HAL_RCC_GetSysClockFreq
 401 00fa 0246     		mov	r2, r0
 402              		.loc 1 459 70
 403 00fc 684B     		ldr	r3, .L79
 404 00fe 9B68     		ldr	r3, [r3, #8]
 405              		.loc 1 459 105
 406 0100 1B09     		lsrs	r3, r3, #4
 407 0102 03F00F03 		and	r3, r3, #15
 408              		.loc 1 459 69
 409 0106 6749     		ldr	r1, .L79+4
 410 0108 CB5C     		ldrb	r3, [r1, r3]	@ zero_extendqisi2
 411              		.loc 1 459 53
 412 010a 22FA03F3 		lsr	r3, r2, r3
 413              		.loc 1 459 25
 414 010e 664A     		ldr	r2, .L79+8
 415 0110 1360     		str	r3, [r2]
 460:/home/fanxinhao/Work/LiteOS_Lab/drivers/third_party/ST/STM32L4xx_HAL_Driver/Src/stm32l4xx_hal_rcc.c **** 
 461:/home/fanxinhao/Work/LiteOS_Lab/drivers/third_party/ST/STM32L4xx_HAL_Driver/Src/stm32l4xx_hal_rcc.c ****         /* Configure the source of time base considering new system clocks settings*/
 462:/home/fanxinhao/Work/LiteOS_Lab/drivers/third_party/ST/STM32L4xx_HAL_Driver/Src/stm32l4xx_hal_rcc.c ****         HAL_InitTick (TICK_INT_PRIORITY);
 416              		.loc 1 462 9
 417 0112 0020     		movs	r0, #0
 418 0114 FFF7FEFF 		bl	HAL_InitTick
 419 0118 4FE0     		b	.L13
 420              	.L14:
 463:/home/fanxinhao/Work/LiteOS_Lab/drivers/third_party/ST/STM32L4xx_HAL_Driver/Src/stm32l4xx_hal_rcc.c ****       }
 464:/home/fanxinhao/Work/LiteOS_Lab/drivers/third_party/ST/STM32L4xx_HAL_Driver/Src/stm32l4xx_hal_rcc.c ****     }
 465:/home/fanxinhao/Work/LiteOS_Lab/drivers/third_party/ST/STM32L4xx_HAL_Driver/Src/stm32l4xx_hal_rcc.c ****     else
 466:/home/fanxinhao/Work/LiteOS_Lab/drivers/third_party/ST/STM32L4xx_HAL_Driver/Src/stm32l4xx_hal_rcc.c ****     {
 467:/home/fanxinhao/Work/LiteOS_Lab/drivers/third_party/ST/STM32L4xx_HAL_Driver/Src/stm32l4xx_hal_rcc.c ****       /* Check the MSI State */
 468:/home/fanxinhao/Work/LiteOS_Lab/drivers/third_party/ST/STM32L4xx_HAL_Driver/Src/stm32l4xx_hal_rcc.c ****       if(RCC_OscInitStruct->MSIState != RCC_MSI_OFF)
 421              		.loc 1 468 27
 422 011a 7B68     		ldr	r3, [r7, #4]
 423 011c 9B69     		ldr	r3, [r3, #24]
 424              		.loc 1 468 9
 425 011e 002B     		cmp	r3, #0
 426 0120 32D0     		beq	.L22
 469:/home/fanxinhao/Work/LiteOS_Lab/drivers/third_party/ST/STM32L4xx_HAL_Driver/Src/stm32l4xx_hal_rcc.c ****       {
 470:/home/fanxinhao/Work/LiteOS_Lab/drivers/third_party/ST/STM32L4xx_HAL_Driver/Src/stm32l4xx_hal_rcc.c ****         /* Enable the Internal High Speed oscillator (MSI). */
 471:/home/fanxinhao/Work/LiteOS_Lab/drivers/third_party/ST/STM32L4xx_HAL_Driver/Src/stm32l4xx_hal_rcc.c ****         __HAL_RCC_MSI_ENABLE();
 427              		.loc 1 471 9
 428 0122 5F4B     		ldr	r3, .L79
 429 0124 1B68     		ldr	r3, [r3]
 430 0126 5E4A     		ldr	r2, .L79
 431 0128 43F00103 		orr	r3, r3, #1
 432 012c 1360     		str	r3, [r2]
 472:/home/fanxinhao/Work/LiteOS_Lab/drivers/third_party/ST/STM32L4xx_HAL_Driver/Src/stm32l4xx_hal_rcc.c **** 
 473:/home/fanxinhao/Work/LiteOS_Lab/drivers/third_party/ST/STM32L4xx_HAL_Driver/Src/stm32l4xx_hal_rcc.c ****         /* Get timeout */
 474:/home/fanxinhao/Work/LiteOS_Lab/drivers/third_party/ST/STM32L4xx_HAL_Driver/Src/stm32l4xx_hal_rcc.c ****         tickstart = HAL_GetTick();
 433              		.loc 1 474 21
 434 012e FFF7FEFF 		bl	HAL_GetTick
 435 0132 3861     		str	r0, [r7, #16]
ARM GAS  /tmp/ccuQhhnt.s 			page 17


 475:/home/fanxinhao/Work/LiteOS_Lab/drivers/third_party/ST/STM32L4xx_HAL_Driver/Src/stm32l4xx_hal_rcc.c **** 
 476:/home/fanxinhao/Work/LiteOS_Lab/drivers/third_party/ST/STM32L4xx_HAL_Driver/Src/stm32l4xx_hal_rcc.c ****         /* Wait till MSI is ready */
 477:/home/fanxinhao/Work/LiteOS_Lab/drivers/third_party/ST/STM32L4xx_HAL_Driver/Src/stm32l4xx_hal_rcc.c ****         while(READ_BIT(RCC->CR, RCC_CR_MSIRDY) == RESET)
 436              		.loc 1 477 14
 437 0134 08E0     		b	.L23
 438              	.L24:
 478:/home/fanxinhao/Work/LiteOS_Lab/drivers/third_party/ST/STM32L4xx_HAL_Driver/Src/stm32l4xx_hal_rcc.c ****         {
 479:/home/fanxinhao/Work/LiteOS_Lab/drivers/third_party/ST/STM32L4xx_HAL_Driver/Src/stm32l4xx_hal_rcc.c ****           if((HAL_GetTick() - tickstart) > MSI_TIMEOUT_VALUE)
 439              		.loc 1 479 15
 440 0136 FFF7FEFF 		bl	HAL_GetTick
 441 013a 0246     		mov	r2, r0
 442              		.loc 1 479 29
 443 013c 3B69     		ldr	r3, [r7, #16]
 444 013e D31A     		subs	r3, r2, r3
 445              		.loc 1 479 13
 446 0140 022B     		cmp	r3, #2
 447 0142 01D9     		bls	.L23
 480:/home/fanxinhao/Work/LiteOS_Lab/drivers/third_party/ST/STM32L4xx_HAL_Driver/Src/stm32l4xx_hal_rcc.c ****           {
 481:/home/fanxinhao/Work/LiteOS_Lab/drivers/third_party/ST/STM32L4xx_HAL_Driver/Src/stm32l4xx_hal_rcc.c ****             return HAL_TIMEOUT;
 448              		.loc 1 481 20
 449 0144 0323     		movs	r3, #3
 450 0146 B7E2     		b	.L16
 451              	.L23:
 477:/home/fanxinhao/Work/LiteOS_Lab/drivers/third_party/ST/STM32L4xx_HAL_Driver/Src/stm32l4xx_hal_rcc.c ****         {
 452              		.loc 1 477 15
 453 0148 554B     		ldr	r3, .L79
 454 014a 1B68     		ldr	r3, [r3]
 455 014c 03F00203 		and	r3, r3, #2
 477:/home/fanxinhao/Work/LiteOS_Lab/drivers/third_party/ST/STM32L4xx_HAL_Driver/Src/stm32l4xx_hal_rcc.c ****         {
 456              		.loc 1 477 14
 457 0150 002B     		cmp	r3, #0
 458 0152 F0D0     		beq	.L24
 482:/home/fanxinhao/Work/LiteOS_Lab/drivers/third_party/ST/STM32L4xx_HAL_Driver/Src/stm32l4xx_hal_rcc.c ****           }
 483:/home/fanxinhao/Work/LiteOS_Lab/drivers/third_party/ST/STM32L4xx_HAL_Driver/Src/stm32l4xx_hal_rcc.c ****         }
 484:/home/fanxinhao/Work/LiteOS_Lab/drivers/third_party/ST/STM32L4xx_HAL_Driver/Src/stm32l4xx_hal_rcc.c ****          /* Selects the Multiple Speed oscillator (MSI) clock range .*/
 485:/home/fanxinhao/Work/LiteOS_Lab/drivers/third_party/ST/STM32L4xx_HAL_Driver/Src/stm32l4xx_hal_rcc.c ****         __HAL_RCC_MSI_RANGE_CONFIG(RCC_OscInitStruct->MSIClockRange);
 459              		.loc 1 485 9
 460 0154 524B     		ldr	r3, .L79
 461 0156 1B68     		ldr	r3, [r3]
 462 0158 514A     		ldr	r2, .L79
 463 015a 43F00803 		orr	r3, r3, #8
 464 015e 1360     		str	r3, [r2]
 465 0160 4F4B     		ldr	r3, .L79
 466 0162 1B68     		ldr	r3, [r3]
 467 0164 23F0F002 		bic	r2, r3, #240
 468 0168 7B68     		ldr	r3, [r7, #4]
 469 016a 1B6A     		ldr	r3, [r3, #32]
 470 016c 4C49     		ldr	r1, .L79
 471 016e 1343     		orrs	r3, r3, r2
 472 0170 0B60     		str	r3, [r1]
 486:/home/fanxinhao/Work/LiteOS_Lab/drivers/third_party/ST/STM32L4xx_HAL_Driver/Src/stm32l4xx_hal_rcc.c ****          /* Adjusts the Multiple Speed oscillator (MSI) calibration value.*/
 487:/home/fanxinhao/Work/LiteOS_Lab/drivers/third_party/ST/STM32L4xx_HAL_Driver/Src/stm32l4xx_hal_rcc.c ****         __HAL_RCC_MSI_CALIBRATIONVALUE_ADJUST(RCC_OscInitStruct->MSICalibrationValue);
 473              		.loc 1 487 9
 474 0172 4B4B     		ldr	r3, .L79
 475 0174 5B68     		ldr	r3, [r3, #4]
 476 0176 23F47F42 		bic	r2, r3, #65280
 477 017a 7B68     		ldr	r3, [r7, #4]
ARM GAS  /tmp/ccuQhhnt.s 			page 18


 478 017c DB69     		ldr	r3, [r3, #28]
 479 017e 1B02     		lsls	r3, r3, #8
 480 0180 4749     		ldr	r1, .L79
 481 0182 1343     		orrs	r3, r3, r2
 482 0184 4B60     		str	r3, [r1, #4]
 483 0186 18E0     		b	.L13
 484              	.L22:
 488:/home/fanxinhao/Work/LiteOS_Lab/drivers/third_party/ST/STM32L4xx_HAL_Driver/Src/stm32l4xx_hal_rcc.c **** 
 489:/home/fanxinhao/Work/LiteOS_Lab/drivers/third_party/ST/STM32L4xx_HAL_Driver/Src/stm32l4xx_hal_rcc.c ****       }
 490:/home/fanxinhao/Work/LiteOS_Lab/drivers/third_party/ST/STM32L4xx_HAL_Driver/Src/stm32l4xx_hal_rcc.c ****       else
 491:/home/fanxinhao/Work/LiteOS_Lab/drivers/third_party/ST/STM32L4xx_HAL_Driver/Src/stm32l4xx_hal_rcc.c ****       {
 492:/home/fanxinhao/Work/LiteOS_Lab/drivers/third_party/ST/STM32L4xx_HAL_Driver/Src/stm32l4xx_hal_rcc.c ****         /* Disable the Internal High Speed oscillator (MSI). */
 493:/home/fanxinhao/Work/LiteOS_Lab/drivers/third_party/ST/STM32L4xx_HAL_Driver/Src/stm32l4xx_hal_rcc.c ****         __HAL_RCC_MSI_DISABLE();
 485              		.loc 1 493 9
 486 0188 454B     		ldr	r3, .L79
 487 018a 1B68     		ldr	r3, [r3]
 488 018c 444A     		ldr	r2, .L79
 489 018e 23F00103 		bic	r3, r3, #1
 490 0192 1360     		str	r3, [r2]
 494:/home/fanxinhao/Work/LiteOS_Lab/drivers/third_party/ST/STM32L4xx_HAL_Driver/Src/stm32l4xx_hal_rcc.c **** 
 495:/home/fanxinhao/Work/LiteOS_Lab/drivers/third_party/ST/STM32L4xx_HAL_Driver/Src/stm32l4xx_hal_rcc.c ****         /* Get timeout */
 496:/home/fanxinhao/Work/LiteOS_Lab/drivers/third_party/ST/STM32L4xx_HAL_Driver/Src/stm32l4xx_hal_rcc.c ****         tickstart = HAL_GetTick();
 491              		.loc 1 496 21
 492 0194 FFF7FEFF 		bl	HAL_GetTick
 493 0198 3861     		str	r0, [r7, #16]
 497:/home/fanxinhao/Work/LiteOS_Lab/drivers/third_party/ST/STM32L4xx_HAL_Driver/Src/stm32l4xx_hal_rcc.c **** 
 498:/home/fanxinhao/Work/LiteOS_Lab/drivers/third_party/ST/STM32L4xx_HAL_Driver/Src/stm32l4xx_hal_rcc.c ****         /* Wait till MSI is ready */
 499:/home/fanxinhao/Work/LiteOS_Lab/drivers/third_party/ST/STM32L4xx_HAL_Driver/Src/stm32l4xx_hal_rcc.c ****         while(READ_BIT(RCC->CR, RCC_CR_MSIRDY) != RESET)
 494              		.loc 1 499 14
 495 019a 08E0     		b	.L25
 496              	.L26:
 500:/home/fanxinhao/Work/LiteOS_Lab/drivers/third_party/ST/STM32L4xx_HAL_Driver/Src/stm32l4xx_hal_rcc.c ****         {
 501:/home/fanxinhao/Work/LiteOS_Lab/drivers/third_party/ST/STM32L4xx_HAL_Driver/Src/stm32l4xx_hal_rcc.c ****           if((HAL_GetTick() - tickstart) > MSI_TIMEOUT_VALUE)
 497              		.loc 1 501 15
 498 019c FFF7FEFF 		bl	HAL_GetTick
 499 01a0 0246     		mov	r2, r0
 500              		.loc 1 501 29
 501 01a2 3B69     		ldr	r3, [r7, #16]
 502 01a4 D31A     		subs	r3, r2, r3
 503              		.loc 1 501 13
 504 01a6 022B     		cmp	r3, #2
 505 01a8 01D9     		bls	.L25
 502:/home/fanxinhao/Work/LiteOS_Lab/drivers/third_party/ST/STM32L4xx_HAL_Driver/Src/stm32l4xx_hal_rcc.c ****           {
 503:/home/fanxinhao/Work/LiteOS_Lab/drivers/third_party/ST/STM32L4xx_HAL_Driver/Src/stm32l4xx_hal_rcc.c ****             return HAL_TIMEOUT;
 506              		.loc 1 503 20
 507 01aa 0323     		movs	r3, #3
 508 01ac 84E2     		b	.L16
 509              	.L25:
 499:/home/fanxinhao/Work/LiteOS_Lab/drivers/third_party/ST/STM32L4xx_HAL_Driver/Src/stm32l4xx_hal_rcc.c ****         {
 510              		.loc 1 499 15
 511 01ae 3C4B     		ldr	r3, .L79
 512 01b0 1B68     		ldr	r3, [r3]
 513 01b2 03F00203 		and	r3, r3, #2
 499:/home/fanxinhao/Work/LiteOS_Lab/drivers/third_party/ST/STM32L4xx_HAL_Driver/Src/stm32l4xx_hal_rcc.c ****         {
 514              		.loc 1 499 14
 515 01b6 002B     		cmp	r3, #0
 516 01b8 F0D1     		bne	.L26
ARM GAS  /tmp/ccuQhhnt.s 			page 19


 517              	.L13:
 504:/home/fanxinhao/Work/LiteOS_Lab/drivers/third_party/ST/STM32L4xx_HAL_Driver/Src/stm32l4xx_hal_rcc.c ****           }
 505:/home/fanxinhao/Work/LiteOS_Lab/drivers/third_party/ST/STM32L4xx_HAL_Driver/Src/stm32l4xx_hal_rcc.c ****         }
 506:/home/fanxinhao/Work/LiteOS_Lab/drivers/third_party/ST/STM32L4xx_HAL_Driver/Src/stm32l4xx_hal_rcc.c ****       }
 507:/home/fanxinhao/Work/LiteOS_Lab/drivers/third_party/ST/STM32L4xx_HAL_Driver/Src/stm32l4xx_hal_rcc.c ****     }
 508:/home/fanxinhao/Work/LiteOS_Lab/drivers/third_party/ST/STM32L4xx_HAL_Driver/Src/stm32l4xx_hal_rcc.c ****   }
 509:/home/fanxinhao/Work/LiteOS_Lab/drivers/third_party/ST/STM32L4xx_HAL_Driver/Src/stm32l4xx_hal_rcc.c ****   /*------------------------------- HSE Configuration ------------------------*/
 510:/home/fanxinhao/Work/LiteOS_Lab/drivers/third_party/ST/STM32L4xx_HAL_Driver/Src/stm32l4xx_hal_rcc.c ****   if(((RCC_OscInitStruct->OscillatorType) & RCC_OSCILLATORTYPE_HSE) == RCC_OSCILLATORTYPE_HSE)
 518              		.loc 1 510 25
 519 01ba 7B68     		ldr	r3, [r7, #4]
 520 01bc 1B68     		ldr	r3, [r3]
 521              		.loc 1 510 43
 522 01be 03F00103 		and	r3, r3, #1
 523              		.loc 1 510 5
 524 01c2 002B     		cmp	r3, #0
 525 01c4 7AD0     		beq	.L27
 511:/home/fanxinhao/Work/LiteOS_Lab/drivers/third_party/ST/STM32L4xx_HAL_Driver/Src/stm32l4xx_hal_rcc.c ****   {
 512:/home/fanxinhao/Work/LiteOS_Lab/drivers/third_party/ST/STM32L4xx_HAL_Driver/Src/stm32l4xx_hal_rcc.c ****     /* Check the parameters */
 513:/home/fanxinhao/Work/LiteOS_Lab/drivers/third_party/ST/STM32L4xx_HAL_Driver/Src/stm32l4xx_hal_rcc.c ****     assert_param(IS_RCC_HSE(RCC_OscInitStruct->HSEState));
 514:/home/fanxinhao/Work/LiteOS_Lab/drivers/third_party/ST/STM32L4xx_HAL_Driver/Src/stm32l4xx_hal_rcc.c **** 
 515:/home/fanxinhao/Work/LiteOS_Lab/drivers/third_party/ST/STM32L4xx_HAL_Driver/Src/stm32l4xx_hal_rcc.c ****     /* When the HSE is used as system clock or clock source for PLL in these cases it is not allowe
 516:/home/fanxinhao/Work/LiteOS_Lab/drivers/third_party/ST/STM32L4xx_HAL_Driver/Src/stm32l4xx_hal_rcc.c ****     if((__HAL_RCC_GET_SYSCLK_SOURCE() == RCC_CFGR_SWS_HSE) ||
 526              		.loc 1 516 9
 527 01c6 364B     		ldr	r3, .L79
 528 01c8 9B68     		ldr	r3, [r3, #8]
 529 01ca 03F00C03 		and	r3, r3, #12
 530              		.loc 1 516 7
 531 01ce 082B     		cmp	r3, #8
 532 01d0 0BD0     		beq	.L28
 517:/home/fanxinhao/Work/LiteOS_Lab/drivers/third_party/ST/STM32L4xx_HAL_Driver/Src/stm32l4xx_hal_rcc.c ****        ((__HAL_RCC_GET_SYSCLK_SOURCE() == RCC_CFGR_SWS_PLL) && (__HAL_RCC_GET_PLL_OSCSOURCE() == RC
 533              		.loc 1 517 10 discriminator 1
 534 01d2 334B     		ldr	r3, .L79
 535 01d4 9B68     		ldr	r3, [r3, #8]
 536 01d6 03F00C03 		and	r3, r3, #12
 516:/home/fanxinhao/Work/LiteOS_Lab/drivers/third_party/ST/STM32L4xx_HAL_Driver/Src/stm32l4xx_hal_rcc.c ****        ((__HAL_RCC_GET_SYSCLK_SOURCE() == RCC_CFGR_SWS_PLL) && (__HAL_RCC_GET_PLL_OSCSOURCE() == RC
 537              		.loc 1 516 60 discriminator 1
 538 01da 0C2B     		cmp	r3, #12
 539 01dc 11D1     		bne	.L29
 540              		.loc 1 517 65
 541 01de 304B     		ldr	r3, .L79
 542 01e0 DB68     		ldr	r3, [r3, #12]
 543 01e2 03F00303 		and	r3, r3, #3
 544              		.loc 1 517 61
 545 01e6 032B     		cmp	r3, #3
 546 01e8 0BD1     		bne	.L29
 547              	.L28:
 518:/home/fanxinhao/Work/LiteOS_Lab/drivers/third_party/ST/STM32L4xx_HAL_Driver/Src/stm32l4xx_hal_rcc.c ****     {
 519:/home/fanxinhao/Work/LiteOS_Lab/drivers/third_party/ST/STM32L4xx_HAL_Driver/Src/stm32l4xx_hal_rcc.c ****       if((READ_BIT(RCC->CR, RCC_CR_HSERDY) != RESET) && (RCC_OscInitStruct->HSEState == RCC_HSE_OFF
 548              		.loc 1 519 11
 549 01ea 2D4B     		ldr	r3, .L79
 550 01ec 1B68     		ldr	r3, [r3]
 551 01ee 03F40033 		and	r3, r3, #131072
 552              		.loc 1 519 9
 553 01f2 002B     		cmp	r3, #0
 554 01f4 61D0     		beq	.L78
 555              		.loc 1 519 75 discriminator 1
 556 01f6 7B68     		ldr	r3, [r7, #4]
ARM GAS  /tmp/ccuQhhnt.s 			page 20


 557 01f8 5B68     		ldr	r3, [r3, #4]
 558              		.loc 1 519 54 discriminator 1
 559 01fa 002B     		cmp	r3, #0
 560 01fc 5DD1     		bne	.L78
 520:/home/fanxinhao/Work/LiteOS_Lab/drivers/third_party/ST/STM32L4xx_HAL_Driver/Src/stm32l4xx_hal_rcc.c ****       {
 521:/home/fanxinhao/Work/LiteOS_Lab/drivers/third_party/ST/STM32L4xx_HAL_Driver/Src/stm32l4xx_hal_rcc.c ****         return HAL_ERROR;
 561              		.loc 1 521 16
 562 01fe 0123     		movs	r3, #1
 563 0200 5AE2     		b	.L16
 564              	.L29:
 522:/home/fanxinhao/Work/LiteOS_Lab/drivers/third_party/ST/STM32L4xx_HAL_Driver/Src/stm32l4xx_hal_rcc.c ****       }
 523:/home/fanxinhao/Work/LiteOS_Lab/drivers/third_party/ST/STM32L4xx_HAL_Driver/Src/stm32l4xx_hal_rcc.c ****     }
 524:/home/fanxinhao/Work/LiteOS_Lab/drivers/third_party/ST/STM32L4xx_HAL_Driver/Src/stm32l4xx_hal_rcc.c ****     else
 525:/home/fanxinhao/Work/LiteOS_Lab/drivers/third_party/ST/STM32L4xx_HAL_Driver/Src/stm32l4xx_hal_rcc.c ****     {
 526:/home/fanxinhao/Work/LiteOS_Lab/drivers/third_party/ST/STM32L4xx_HAL_Driver/Src/stm32l4xx_hal_rcc.c ****       /* Set the new HSE configuration ---------------------------------------*/
 527:/home/fanxinhao/Work/LiteOS_Lab/drivers/third_party/ST/STM32L4xx_HAL_Driver/Src/stm32l4xx_hal_rcc.c ****       __HAL_RCC_HSE_CONFIG(RCC_OscInitStruct->HSEState);
 565              		.loc 1 527 7
 566 0202 7B68     		ldr	r3, [r7, #4]
 567 0204 5B68     		ldr	r3, [r3, #4]
 568 0206 B3F5803F 		cmp	r3, #65536
 569 020a 06D1     		bne	.L31
 570              		.loc 1 527 7 is_stmt 0 discriminator 1
 571 020c 244B     		ldr	r3, .L79
 572 020e 1B68     		ldr	r3, [r3]
 573 0210 234A     		ldr	r2, .L79
 574 0212 43F48033 		orr	r3, r3, #65536
 575 0216 1360     		str	r3, [r2]
 576 0218 1DE0     		b	.L32
 577              	.L31:
 578              		.loc 1 527 7 discriminator 2
 579 021a 7B68     		ldr	r3, [r7, #4]
 580 021c 5B68     		ldr	r3, [r3, #4]
 581 021e B3F5A02F 		cmp	r3, #327680
 582 0222 0CD1     		bne	.L33
 583              		.loc 1 527 7 discriminator 3
 584 0224 1E4B     		ldr	r3, .L79
 585 0226 1B68     		ldr	r3, [r3]
 586 0228 1D4A     		ldr	r2, .L79
 587 022a 43F48023 		orr	r3, r3, #262144
 588 022e 1360     		str	r3, [r2]
 589 0230 1B4B     		ldr	r3, .L79
 590 0232 1B68     		ldr	r3, [r3]
 591 0234 1A4A     		ldr	r2, .L79
 592 0236 43F48033 		orr	r3, r3, #65536
 593 023a 1360     		str	r3, [r2]
 594 023c 0BE0     		b	.L32
 595              	.L33:
 596              		.loc 1 527 7 discriminator 4
 597 023e 184B     		ldr	r3, .L79
 598 0240 1B68     		ldr	r3, [r3]
 599 0242 174A     		ldr	r2, .L79
 600 0244 23F48033 		bic	r3, r3, #65536
 601 0248 1360     		str	r3, [r2]
 602 024a 154B     		ldr	r3, .L79
 603 024c 1B68     		ldr	r3, [r3]
 604 024e 144A     		ldr	r2, .L79
 605 0250 23F48023 		bic	r3, r3, #262144
ARM GAS  /tmp/ccuQhhnt.s 			page 21


 606 0254 1360     		str	r3, [r2]
 607              	.L32:
 528:/home/fanxinhao/Work/LiteOS_Lab/drivers/third_party/ST/STM32L4xx_HAL_Driver/Src/stm32l4xx_hal_rcc.c **** 
 529:/home/fanxinhao/Work/LiteOS_Lab/drivers/third_party/ST/STM32L4xx_HAL_Driver/Src/stm32l4xx_hal_rcc.c ****       /* Check the HSE State */
 530:/home/fanxinhao/Work/LiteOS_Lab/drivers/third_party/ST/STM32L4xx_HAL_Driver/Src/stm32l4xx_hal_rcc.c ****       if(RCC_OscInitStruct->HSEState != RCC_HSE_OFF)
 608              		.loc 1 530 27 is_stmt 1
 609 0256 7B68     		ldr	r3, [r7, #4]
 610 0258 5B68     		ldr	r3, [r3, #4]
 611              		.loc 1 530 9
 612 025a 002B     		cmp	r3, #0
 613 025c 13D0     		beq	.L34
 531:/home/fanxinhao/Work/LiteOS_Lab/drivers/third_party/ST/STM32L4xx_HAL_Driver/Src/stm32l4xx_hal_rcc.c ****       {
 532:/home/fanxinhao/Work/LiteOS_Lab/drivers/third_party/ST/STM32L4xx_HAL_Driver/Src/stm32l4xx_hal_rcc.c ****         /* Get Start Tick*/
 533:/home/fanxinhao/Work/LiteOS_Lab/drivers/third_party/ST/STM32L4xx_HAL_Driver/Src/stm32l4xx_hal_rcc.c ****         tickstart = HAL_GetTick();
 614              		.loc 1 533 21
 615 025e FFF7FEFF 		bl	HAL_GetTick
 616 0262 3861     		str	r0, [r7, #16]
 534:/home/fanxinhao/Work/LiteOS_Lab/drivers/third_party/ST/STM32L4xx_HAL_Driver/Src/stm32l4xx_hal_rcc.c **** 
 535:/home/fanxinhao/Work/LiteOS_Lab/drivers/third_party/ST/STM32L4xx_HAL_Driver/Src/stm32l4xx_hal_rcc.c ****         /* Wait till HSE is ready */
 536:/home/fanxinhao/Work/LiteOS_Lab/drivers/third_party/ST/STM32L4xx_HAL_Driver/Src/stm32l4xx_hal_rcc.c ****         while(READ_BIT(RCC->CR, RCC_CR_HSERDY) == RESET)
 617              		.loc 1 536 14
 618 0264 08E0     		b	.L35
 619              	.L36:
 537:/home/fanxinhao/Work/LiteOS_Lab/drivers/third_party/ST/STM32L4xx_HAL_Driver/Src/stm32l4xx_hal_rcc.c ****         {
 538:/home/fanxinhao/Work/LiteOS_Lab/drivers/third_party/ST/STM32L4xx_HAL_Driver/Src/stm32l4xx_hal_rcc.c ****           if((HAL_GetTick() - tickstart) > HSE_TIMEOUT_VALUE)
 620              		.loc 1 538 15
 621 0266 FFF7FEFF 		bl	HAL_GetTick
 622 026a 0246     		mov	r2, r0
 623              		.loc 1 538 29
 624 026c 3B69     		ldr	r3, [r7, #16]
 625 026e D31A     		subs	r3, r2, r3
 626              		.loc 1 538 13
 627 0270 642B     		cmp	r3, #100
 628 0272 01D9     		bls	.L35
 539:/home/fanxinhao/Work/LiteOS_Lab/drivers/third_party/ST/STM32L4xx_HAL_Driver/Src/stm32l4xx_hal_rcc.c ****           {
 540:/home/fanxinhao/Work/LiteOS_Lab/drivers/third_party/ST/STM32L4xx_HAL_Driver/Src/stm32l4xx_hal_rcc.c ****             return HAL_TIMEOUT;
 629              		.loc 1 540 20
 630 0274 0323     		movs	r3, #3
 631 0276 1FE2     		b	.L16
 632              	.L35:
 536:/home/fanxinhao/Work/LiteOS_Lab/drivers/third_party/ST/STM32L4xx_HAL_Driver/Src/stm32l4xx_hal_rcc.c ****         {
 633              		.loc 1 536 15
 634 0278 094B     		ldr	r3, .L79
 635 027a 1B68     		ldr	r3, [r3]
 636 027c 03F40033 		and	r3, r3, #131072
 536:/home/fanxinhao/Work/LiteOS_Lab/drivers/third_party/ST/STM32L4xx_HAL_Driver/Src/stm32l4xx_hal_rcc.c ****         {
 637              		.loc 1 536 14
 638 0280 002B     		cmp	r3, #0
 639 0282 F0D0     		beq	.L36
 640 0284 1AE0     		b	.L27
 641              	.L34:
 541:/home/fanxinhao/Work/LiteOS_Lab/drivers/third_party/ST/STM32L4xx_HAL_Driver/Src/stm32l4xx_hal_rcc.c ****           }
 542:/home/fanxinhao/Work/LiteOS_Lab/drivers/third_party/ST/STM32L4xx_HAL_Driver/Src/stm32l4xx_hal_rcc.c ****         }
 543:/home/fanxinhao/Work/LiteOS_Lab/drivers/third_party/ST/STM32L4xx_HAL_Driver/Src/stm32l4xx_hal_rcc.c ****       }
 544:/home/fanxinhao/Work/LiteOS_Lab/drivers/third_party/ST/STM32L4xx_HAL_Driver/Src/stm32l4xx_hal_rcc.c ****       else
 545:/home/fanxinhao/Work/LiteOS_Lab/drivers/third_party/ST/STM32L4xx_HAL_Driver/Src/stm32l4xx_hal_rcc.c ****       {
 546:/home/fanxinhao/Work/LiteOS_Lab/drivers/third_party/ST/STM32L4xx_HAL_Driver/Src/stm32l4xx_hal_rcc.c ****         /* Get Start Tick*/
ARM GAS  /tmp/ccuQhhnt.s 			page 22


 547:/home/fanxinhao/Work/LiteOS_Lab/drivers/third_party/ST/STM32L4xx_HAL_Driver/Src/stm32l4xx_hal_rcc.c ****         tickstart = HAL_GetTick();
 642              		.loc 1 547 21
 643 0286 FFF7FEFF 		bl	HAL_GetTick
 644 028a 3861     		str	r0, [r7, #16]
 548:/home/fanxinhao/Work/LiteOS_Lab/drivers/third_party/ST/STM32L4xx_HAL_Driver/Src/stm32l4xx_hal_rcc.c **** 
 549:/home/fanxinhao/Work/LiteOS_Lab/drivers/third_party/ST/STM32L4xx_HAL_Driver/Src/stm32l4xx_hal_rcc.c ****         /* Wait till HSE is disabled */
 550:/home/fanxinhao/Work/LiteOS_Lab/drivers/third_party/ST/STM32L4xx_HAL_Driver/Src/stm32l4xx_hal_rcc.c ****         while(READ_BIT(RCC->CR, RCC_CR_HSERDY) != RESET)
 645              		.loc 1 550 14
 646 028c 0EE0     		b	.L37
 647              	.L38:
 551:/home/fanxinhao/Work/LiteOS_Lab/drivers/third_party/ST/STM32L4xx_HAL_Driver/Src/stm32l4xx_hal_rcc.c ****         {
 552:/home/fanxinhao/Work/LiteOS_Lab/drivers/third_party/ST/STM32L4xx_HAL_Driver/Src/stm32l4xx_hal_rcc.c ****           if((HAL_GetTick() - tickstart) > HSE_TIMEOUT_VALUE)
 648              		.loc 1 552 15
 649 028e FFF7FEFF 		bl	HAL_GetTick
 650 0292 0246     		mov	r2, r0
 651              		.loc 1 552 29
 652 0294 3B69     		ldr	r3, [r7, #16]
 653 0296 D31A     		subs	r3, r2, r3
 654              		.loc 1 552 13
 655 0298 642B     		cmp	r3, #100
 656 029a 07D9     		bls	.L37
 553:/home/fanxinhao/Work/LiteOS_Lab/drivers/third_party/ST/STM32L4xx_HAL_Driver/Src/stm32l4xx_hal_rcc.c ****           {
 554:/home/fanxinhao/Work/LiteOS_Lab/drivers/third_party/ST/STM32L4xx_HAL_Driver/Src/stm32l4xx_hal_rcc.c ****             return HAL_TIMEOUT;
 657              		.loc 1 554 20
 658 029c 0323     		movs	r3, #3
 659 029e 0BE2     		b	.L16
 660              	.L80:
 661              		.align	2
 662              	.L79:
 663 02a0 00100240 		.word	1073876992
 664 02a4 00000000 		.word	AHBPrescTable
 665 02a8 00000000 		.word	SystemCoreClock
 666              	.L37:
 550:/home/fanxinhao/Work/LiteOS_Lab/drivers/third_party/ST/STM32L4xx_HAL_Driver/Src/stm32l4xx_hal_rcc.c ****         {
 667              		.loc 1 550 15
 668 02ac A94B     		ldr	r3, .L81
 669 02ae 1B68     		ldr	r3, [r3]
 670 02b0 03F40033 		and	r3, r3, #131072
 550:/home/fanxinhao/Work/LiteOS_Lab/drivers/third_party/ST/STM32L4xx_HAL_Driver/Src/stm32l4xx_hal_rcc.c ****         {
 671              		.loc 1 550 14
 672 02b4 002B     		cmp	r3, #0
 673 02b6 EAD1     		bne	.L38
 674 02b8 00E0     		b	.L27
 675              	.L78:
 519:/home/fanxinhao/Work/LiteOS_Lab/drivers/third_party/ST/STM32L4xx_HAL_Driver/Src/stm32l4xx_hal_rcc.c ****       {
 676              		.loc 1 519 9
 677 02ba 00BF     		nop
 678              	.L27:
 555:/home/fanxinhao/Work/LiteOS_Lab/drivers/third_party/ST/STM32L4xx_HAL_Driver/Src/stm32l4xx_hal_rcc.c ****           }
 556:/home/fanxinhao/Work/LiteOS_Lab/drivers/third_party/ST/STM32L4xx_HAL_Driver/Src/stm32l4xx_hal_rcc.c ****         }
 557:/home/fanxinhao/Work/LiteOS_Lab/drivers/third_party/ST/STM32L4xx_HAL_Driver/Src/stm32l4xx_hal_rcc.c ****       }
 558:/home/fanxinhao/Work/LiteOS_Lab/drivers/third_party/ST/STM32L4xx_HAL_Driver/Src/stm32l4xx_hal_rcc.c ****     }
 559:/home/fanxinhao/Work/LiteOS_Lab/drivers/third_party/ST/STM32L4xx_HAL_Driver/Src/stm32l4xx_hal_rcc.c ****   }
 560:/home/fanxinhao/Work/LiteOS_Lab/drivers/third_party/ST/STM32L4xx_HAL_Driver/Src/stm32l4xx_hal_rcc.c ****   /*----------------------------- HSI Configuration --------------------------*/
 561:/home/fanxinhao/Work/LiteOS_Lab/drivers/third_party/ST/STM32L4xx_HAL_Driver/Src/stm32l4xx_hal_rcc.c ****   if(((RCC_OscInitStruct->OscillatorType) & RCC_OSCILLATORTYPE_HSI) == RCC_OSCILLATORTYPE_HSI)
 679              		.loc 1 561 25
 680 02bc 7B68     		ldr	r3, [r7, #4]
ARM GAS  /tmp/ccuQhhnt.s 			page 23


 681 02be 1B68     		ldr	r3, [r3]
 682              		.loc 1 561 43
 683 02c0 03F00203 		and	r3, r3, #2
 684              		.loc 1 561 5
 685 02c4 002B     		cmp	r3, #0
 686 02c6 69D0     		beq	.L39
 562:/home/fanxinhao/Work/LiteOS_Lab/drivers/third_party/ST/STM32L4xx_HAL_Driver/Src/stm32l4xx_hal_rcc.c ****   {
 563:/home/fanxinhao/Work/LiteOS_Lab/drivers/third_party/ST/STM32L4xx_HAL_Driver/Src/stm32l4xx_hal_rcc.c ****     /* Check the parameters */
 564:/home/fanxinhao/Work/LiteOS_Lab/drivers/third_party/ST/STM32L4xx_HAL_Driver/Src/stm32l4xx_hal_rcc.c ****     assert_param(IS_RCC_HSI(RCC_OscInitStruct->HSIState));
 565:/home/fanxinhao/Work/LiteOS_Lab/drivers/third_party/ST/STM32L4xx_HAL_Driver/Src/stm32l4xx_hal_rcc.c ****     assert_param(IS_RCC_HSI_CALIBRATION_VALUE(RCC_OscInitStruct->HSICalibrationValue));
 566:/home/fanxinhao/Work/LiteOS_Lab/drivers/third_party/ST/STM32L4xx_HAL_Driver/Src/stm32l4xx_hal_rcc.c **** 
 567:/home/fanxinhao/Work/LiteOS_Lab/drivers/third_party/ST/STM32L4xx_HAL_Driver/Src/stm32l4xx_hal_rcc.c ****     /* Check if HSI is used as system clock or as PLL source when PLL is selected as system clock *
 568:/home/fanxinhao/Work/LiteOS_Lab/drivers/third_party/ST/STM32L4xx_HAL_Driver/Src/stm32l4xx_hal_rcc.c ****     if((__HAL_RCC_GET_SYSCLK_SOURCE() == RCC_CFGR_SWS_HSI) ||
 687              		.loc 1 568 9
 688 02c8 A24B     		ldr	r3, .L81
 689 02ca 9B68     		ldr	r3, [r3, #8]
 690 02cc 03F00C03 		and	r3, r3, #12
 691              		.loc 1 568 7
 692 02d0 042B     		cmp	r3, #4
 693 02d2 0BD0     		beq	.L40
 569:/home/fanxinhao/Work/LiteOS_Lab/drivers/third_party/ST/STM32L4xx_HAL_Driver/Src/stm32l4xx_hal_rcc.c ****        ((__HAL_RCC_GET_SYSCLK_SOURCE() == RCC_CFGR_SWS_PLL) && (__HAL_RCC_GET_PLL_OSCSOURCE() == RC
 694              		.loc 1 569 10 discriminator 1
 695 02d4 9F4B     		ldr	r3, .L81
 696 02d6 9B68     		ldr	r3, [r3, #8]
 697 02d8 03F00C03 		and	r3, r3, #12
 568:/home/fanxinhao/Work/LiteOS_Lab/drivers/third_party/ST/STM32L4xx_HAL_Driver/Src/stm32l4xx_hal_rcc.c ****        ((__HAL_RCC_GET_SYSCLK_SOURCE() == RCC_CFGR_SWS_PLL) && (__HAL_RCC_GET_PLL_OSCSOURCE() == RC
 698              		.loc 1 568 60 discriminator 1
 699 02dc 0C2B     		cmp	r3, #12
 700 02de 1CD1     		bne	.L41
 701              		.loc 1 569 65
 702 02e0 9C4B     		ldr	r3, .L81
 703 02e2 DB68     		ldr	r3, [r3, #12]
 704 02e4 03F00303 		and	r3, r3, #3
 705              		.loc 1 569 61
 706 02e8 022B     		cmp	r3, #2
 707 02ea 16D1     		bne	.L41
 708              	.L40:
 570:/home/fanxinhao/Work/LiteOS_Lab/drivers/third_party/ST/STM32L4xx_HAL_Driver/Src/stm32l4xx_hal_rcc.c ****     {
 571:/home/fanxinhao/Work/LiteOS_Lab/drivers/third_party/ST/STM32L4xx_HAL_Driver/Src/stm32l4xx_hal_rcc.c ****       /* When HSI is used as system clock it will not be disabled */
 572:/home/fanxinhao/Work/LiteOS_Lab/drivers/third_party/ST/STM32L4xx_HAL_Driver/Src/stm32l4xx_hal_rcc.c ****       if((READ_BIT(RCC->CR, RCC_CR_HSIRDY) != RESET) && (RCC_OscInitStruct->HSIState == RCC_HSI_OFF
 709              		.loc 1 572 11
 710 02ec 994B     		ldr	r3, .L81
 711 02ee 1B68     		ldr	r3, [r3]
 712 02f0 03F48063 		and	r3, r3, #1024
 713              		.loc 1 572 9
 714 02f4 002B     		cmp	r3, #0
 715 02f6 05D0     		beq	.L42
 716              		.loc 1 572 75 discriminator 1
 717 02f8 7B68     		ldr	r3, [r7, #4]
 718 02fa DB68     		ldr	r3, [r3, #12]
 719              		.loc 1 572 54 discriminator 1
 720 02fc 002B     		cmp	r3, #0
 721 02fe 01D1     		bne	.L42
 573:/home/fanxinhao/Work/LiteOS_Lab/drivers/third_party/ST/STM32L4xx_HAL_Driver/Src/stm32l4xx_hal_rcc.c ****       {
 574:/home/fanxinhao/Work/LiteOS_Lab/drivers/third_party/ST/STM32L4xx_HAL_Driver/Src/stm32l4xx_hal_rcc.c ****         return HAL_ERROR;
 722              		.loc 1 574 16
 723 0300 0123     		movs	r3, #1
ARM GAS  /tmp/ccuQhhnt.s 			page 24


 724 0302 D9E1     		b	.L16
 725              	.L42:
 575:/home/fanxinhao/Work/LiteOS_Lab/drivers/third_party/ST/STM32L4xx_HAL_Driver/Src/stm32l4xx_hal_rcc.c ****       }
 576:/home/fanxinhao/Work/LiteOS_Lab/drivers/third_party/ST/STM32L4xx_HAL_Driver/Src/stm32l4xx_hal_rcc.c ****       /* Otherwise, just the calibration is allowed */
 577:/home/fanxinhao/Work/LiteOS_Lab/drivers/third_party/ST/STM32L4xx_HAL_Driver/Src/stm32l4xx_hal_rcc.c ****       else
 578:/home/fanxinhao/Work/LiteOS_Lab/drivers/third_party/ST/STM32L4xx_HAL_Driver/Src/stm32l4xx_hal_rcc.c ****       {
 579:/home/fanxinhao/Work/LiteOS_Lab/drivers/third_party/ST/STM32L4xx_HAL_Driver/Src/stm32l4xx_hal_rcc.c ****         /* Adjusts the Internal High Speed oscillator (HSI) calibration value.*/
 580:/home/fanxinhao/Work/LiteOS_Lab/drivers/third_party/ST/STM32L4xx_HAL_Driver/Src/stm32l4xx_hal_rcc.c ****         __HAL_RCC_HSI_CALIBRATIONVALUE_ADJUST(RCC_OscInitStruct->HSICalibrationValue);
 726              		.loc 1 580 9
 727 0304 934B     		ldr	r3, .L81
 728 0306 5B68     		ldr	r3, [r3, #4]
 729 0308 23F0F852 		bic	r2, r3, #520093696
 730 030c 7B68     		ldr	r3, [r7, #4]
 731 030e 1B69     		ldr	r3, [r3, #16]
 732 0310 1B06     		lsls	r3, r3, #24
 733 0312 9049     		ldr	r1, .L81
 734 0314 1343     		orrs	r3, r3, r2
 735 0316 4B60     		str	r3, [r1, #4]
 572:/home/fanxinhao/Work/LiteOS_Lab/drivers/third_party/ST/STM32L4xx_HAL_Driver/Src/stm32l4xx_hal_rcc.c ****       {
 736              		.loc 1 572 9
 737 0318 40E0     		b	.L39
 738              	.L41:
 581:/home/fanxinhao/Work/LiteOS_Lab/drivers/third_party/ST/STM32L4xx_HAL_Driver/Src/stm32l4xx_hal_rcc.c ****       }
 582:/home/fanxinhao/Work/LiteOS_Lab/drivers/third_party/ST/STM32L4xx_HAL_Driver/Src/stm32l4xx_hal_rcc.c ****     }
 583:/home/fanxinhao/Work/LiteOS_Lab/drivers/third_party/ST/STM32L4xx_HAL_Driver/Src/stm32l4xx_hal_rcc.c ****     else
 584:/home/fanxinhao/Work/LiteOS_Lab/drivers/third_party/ST/STM32L4xx_HAL_Driver/Src/stm32l4xx_hal_rcc.c ****     {
 585:/home/fanxinhao/Work/LiteOS_Lab/drivers/third_party/ST/STM32L4xx_HAL_Driver/Src/stm32l4xx_hal_rcc.c ****       /* Check the HSI State */
 586:/home/fanxinhao/Work/LiteOS_Lab/drivers/third_party/ST/STM32L4xx_HAL_Driver/Src/stm32l4xx_hal_rcc.c ****       if(RCC_OscInitStruct->HSIState != RCC_HSI_OFF)
 739              		.loc 1 586 27
 740 031a 7B68     		ldr	r3, [r7, #4]
 741 031c DB68     		ldr	r3, [r3, #12]
 742              		.loc 1 586 9
 743 031e 002B     		cmp	r3, #0
 744 0320 23D0     		beq	.L43
 587:/home/fanxinhao/Work/LiteOS_Lab/drivers/third_party/ST/STM32L4xx_HAL_Driver/Src/stm32l4xx_hal_rcc.c ****       {
 588:/home/fanxinhao/Work/LiteOS_Lab/drivers/third_party/ST/STM32L4xx_HAL_Driver/Src/stm32l4xx_hal_rcc.c ****         /* Enable the Internal High Speed oscillator (HSI). */
 589:/home/fanxinhao/Work/LiteOS_Lab/drivers/third_party/ST/STM32L4xx_HAL_Driver/Src/stm32l4xx_hal_rcc.c ****         __HAL_RCC_HSI_ENABLE();
 745              		.loc 1 589 9
 746 0322 8C4B     		ldr	r3, .L81
 747 0324 1B68     		ldr	r3, [r3]
 748 0326 8B4A     		ldr	r2, .L81
 749 0328 43F48073 		orr	r3, r3, #256
 750 032c 1360     		str	r3, [r2]
 590:/home/fanxinhao/Work/LiteOS_Lab/drivers/third_party/ST/STM32L4xx_HAL_Driver/Src/stm32l4xx_hal_rcc.c **** 
 591:/home/fanxinhao/Work/LiteOS_Lab/drivers/third_party/ST/STM32L4xx_HAL_Driver/Src/stm32l4xx_hal_rcc.c ****         /* Get Start Tick*/
 592:/home/fanxinhao/Work/LiteOS_Lab/drivers/third_party/ST/STM32L4xx_HAL_Driver/Src/stm32l4xx_hal_rcc.c ****         tickstart = HAL_GetTick();
 751              		.loc 1 592 21
 752 032e FFF7FEFF 		bl	HAL_GetTick
 753 0332 3861     		str	r0, [r7, #16]
 593:/home/fanxinhao/Work/LiteOS_Lab/drivers/third_party/ST/STM32L4xx_HAL_Driver/Src/stm32l4xx_hal_rcc.c **** 
 594:/home/fanxinhao/Work/LiteOS_Lab/drivers/third_party/ST/STM32L4xx_HAL_Driver/Src/stm32l4xx_hal_rcc.c ****         /* Wait till HSI is ready */
 595:/home/fanxinhao/Work/LiteOS_Lab/drivers/third_party/ST/STM32L4xx_HAL_Driver/Src/stm32l4xx_hal_rcc.c ****         while(READ_BIT(RCC->CR, RCC_CR_HSIRDY) == RESET)
 754              		.loc 1 595 14
 755 0334 08E0     		b	.L44
 756              	.L45:
 596:/home/fanxinhao/Work/LiteOS_Lab/drivers/third_party/ST/STM32L4xx_HAL_Driver/Src/stm32l4xx_hal_rcc.c ****         {
 597:/home/fanxinhao/Work/LiteOS_Lab/drivers/third_party/ST/STM32L4xx_HAL_Driver/Src/stm32l4xx_hal_rcc.c ****           if((HAL_GetTick() - tickstart) > HSI_TIMEOUT_VALUE)
ARM GAS  /tmp/ccuQhhnt.s 			page 25


 757              		.loc 1 597 15
 758 0336 FFF7FEFF 		bl	HAL_GetTick
 759 033a 0246     		mov	r2, r0
 760              		.loc 1 597 29
 761 033c 3B69     		ldr	r3, [r7, #16]
 762 033e D31A     		subs	r3, r2, r3
 763              		.loc 1 597 13
 764 0340 022B     		cmp	r3, #2
 765 0342 01D9     		bls	.L44
 598:/home/fanxinhao/Work/LiteOS_Lab/drivers/third_party/ST/STM32L4xx_HAL_Driver/Src/stm32l4xx_hal_rcc.c ****           {
 599:/home/fanxinhao/Work/LiteOS_Lab/drivers/third_party/ST/STM32L4xx_HAL_Driver/Src/stm32l4xx_hal_rcc.c ****             return HAL_TIMEOUT;
 766              		.loc 1 599 20
 767 0344 0323     		movs	r3, #3
 768 0346 B7E1     		b	.L16
 769              	.L44:
 595:/home/fanxinhao/Work/LiteOS_Lab/drivers/third_party/ST/STM32L4xx_HAL_Driver/Src/stm32l4xx_hal_rcc.c ****         {
 770              		.loc 1 595 15
 771 0348 824B     		ldr	r3, .L81
 772 034a 1B68     		ldr	r3, [r3]
 773 034c 03F48063 		and	r3, r3, #1024
 595:/home/fanxinhao/Work/LiteOS_Lab/drivers/third_party/ST/STM32L4xx_HAL_Driver/Src/stm32l4xx_hal_rcc.c ****         {
 774              		.loc 1 595 14
 775 0350 002B     		cmp	r3, #0
 776 0352 F0D0     		beq	.L45
 600:/home/fanxinhao/Work/LiteOS_Lab/drivers/third_party/ST/STM32L4xx_HAL_Driver/Src/stm32l4xx_hal_rcc.c ****           }
 601:/home/fanxinhao/Work/LiteOS_Lab/drivers/third_party/ST/STM32L4xx_HAL_Driver/Src/stm32l4xx_hal_rcc.c ****         }
 602:/home/fanxinhao/Work/LiteOS_Lab/drivers/third_party/ST/STM32L4xx_HAL_Driver/Src/stm32l4xx_hal_rcc.c **** 
 603:/home/fanxinhao/Work/LiteOS_Lab/drivers/third_party/ST/STM32L4xx_HAL_Driver/Src/stm32l4xx_hal_rcc.c ****         /* Adjusts the Internal High Speed oscillator (HSI) calibration value.*/
 604:/home/fanxinhao/Work/LiteOS_Lab/drivers/third_party/ST/STM32L4xx_HAL_Driver/Src/stm32l4xx_hal_rcc.c ****         __HAL_RCC_HSI_CALIBRATIONVALUE_ADJUST(RCC_OscInitStruct->HSICalibrationValue);
 777              		.loc 1 604 9
 778 0354 7F4B     		ldr	r3, .L81
 779 0356 5B68     		ldr	r3, [r3, #4]
 780 0358 23F0F852 		bic	r2, r3, #520093696
 781 035c 7B68     		ldr	r3, [r7, #4]
 782 035e 1B69     		ldr	r3, [r3, #16]
 783 0360 1B06     		lsls	r3, r3, #24
 784 0362 7C49     		ldr	r1, .L81
 785 0364 1343     		orrs	r3, r3, r2
 786 0366 4B60     		str	r3, [r1, #4]
 787 0368 18E0     		b	.L39
 788              	.L43:
 605:/home/fanxinhao/Work/LiteOS_Lab/drivers/third_party/ST/STM32L4xx_HAL_Driver/Src/stm32l4xx_hal_rcc.c ****       }
 606:/home/fanxinhao/Work/LiteOS_Lab/drivers/third_party/ST/STM32L4xx_HAL_Driver/Src/stm32l4xx_hal_rcc.c ****       else
 607:/home/fanxinhao/Work/LiteOS_Lab/drivers/third_party/ST/STM32L4xx_HAL_Driver/Src/stm32l4xx_hal_rcc.c ****       {
 608:/home/fanxinhao/Work/LiteOS_Lab/drivers/third_party/ST/STM32L4xx_HAL_Driver/Src/stm32l4xx_hal_rcc.c ****         /* Disable the Internal High Speed oscillator (HSI). */
 609:/home/fanxinhao/Work/LiteOS_Lab/drivers/third_party/ST/STM32L4xx_HAL_Driver/Src/stm32l4xx_hal_rcc.c ****         __HAL_RCC_HSI_DISABLE();
 789              		.loc 1 609 9
 790 036a 7A4B     		ldr	r3, .L81
 791 036c 1B68     		ldr	r3, [r3]
 792 036e 794A     		ldr	r2, .L81
 793 0370 23F48073 		bic	r3, r3, #256
 794 0374 1360     		str	r3, [r2]
 610:/home/fanxinhao/Work/LiteOS_Lab/drivers/third_party/ST/STM32L4xx_HAL_Driver/Src/stm32l4xx_hal_rcc.c **** 
 611:/home/fanxinhao/Work/LiteOS_Lab/drivers/third_party/ST/STM32L4xx_HAL_Driver/Src/stm32l4xx_hal_rcc.c ****         /* Get Start Tick*/
 612:/home/fanxinhao/Work/LiteOS_Lab/drivers/third_party/ST/STM32L4xx_HAL_Driver/Src/stm32l4xx_hal_rcc.c ****         tickstart = HAL_GetTick();
 795              		.loc 1 612 21
 796 0376 FFF7FEFF 		bl	HAL_GetTick
ARM GAS  /tmp/ccuQhhnt.s 			page 26


 797 037a 3861     		str	r0, [r7, #16]
 613:/home/fanxinhao/Work/LiteOS_Lab/drivers/third_party/ST/STM32L4xx_HAL_Driver/Src/stm32l4xx_hal_rcc.c **** 
 614:/home/fanxinhao/Work/LiteOS_Lab/drivers/third_party/ST/STM32L4xx_HAL_Driver/Src/stm32l4xx_hal_rcc.c ****         /* Wait till HSI is disabled */
 615:/home/fanxinhao/Work/LiteOS_Lab/drivers/third_party/ST/STM32L4xx_HAL_Driver/Src/stm32l4xx_hal_rcc.c ****         while(READ_BIT(RCC->CR, RCC_CR_HSIRDY) != RESET)
 798              		.loc 1 615 14
 799 037c 08E0     		b	.L46
 800              	.L47:
 616:/home/fanxinhao/Work/LiteOS_Lab/drivers/third_party/ST/STM32L4xx_HAL_Driver/Src/stm32l4xx_hal_rcc.c ****         {
 617:/home/fanxinhao/Work/LiteOS_Lab/drivers/third_party/ST/STM32L4xx_HAL_Driver/Src/stm32l4xx_hal_rcc.c ****           if((HAL_GetTick() - tickstart) > HSI_TIMEOUT_VALUE)
 801              		.loc 1 617 15
 802 037e FFF7FEFF 		bl	HAL_GetTick
 803 0382 0246     		mov	r2, r0
 804              		.loc 1 617 29
 805 0384 3B69     		ldr	r3, [r7, #16]
 806 0386 D31A     		subs	r3, r2, r3
 807              		.loc 1 617 13
 808 0388 022B     		cmp	r3, #2
 809 038a 01D9     		bls	.L46
 618:/home/fanxinhao/Work/LiteOS_Lab/drivers/third_party/ST/STM32L4xx_HAL_Driver/Src/stm32l4xx_hal_rcc.c ****           {
 619:/home/fanxinhao/Work/LiteOS_Lab/drivers/third_party/ST/STM32L4xx_HAL_Driver/Src/stm32l4xx_hal_rcc.c ****             return HAL_TIMEOUT;
 810              		.loc 1 619 20
 811 038c 0323     		movs	r3, #3
 812 038e 93E1     		b	.L16
 813              	.L46:
 615:/home/fanxinhao/Work/LiteOS_Lab/drivers/third_party/ST/STM32L4xx_HAL_Driver/Src/stm32l4xx_hal_rcc.c ****         {
 814              		.loc 1 615 15
 815 0390 704B     		ldr	r3, .L81
 816 0392 1B68     		ldr	r3, [r3]
 817 0394 03F48063 		and	r3, r3, #1024
 615:/home/fanxinhao/Work/LiteOS_Lab/drivers/third_party/ST/STM32L4xx_HAL_Driver/Src/stm32l4xx_hal_rcc.c ****         {
 818              		.loc 1 615 14
 819 0398 002B     		cmp	r3, #0
 820 039a F0D1     		bne	.L47
 821              	.L39:
 620:/home/fanxinhao/Work/LiteOS_Lab/drivers/third_party/ST/STM32L4xx_HAL_Driver/Src/stm32l4xx_hal_rcc.c ****           }
 621:/home/fanxinhao/Work/LiteOS_Lab/drivers/third_party/ST/STM32L4xx_HAL_Driver/Src/stm32l4xx_hal_rcc.c ****         }
 622:/home/fanxinhao/Work/LiteOS_Lab/drivers/third_party/ST/STM32L4xx_HAL_Driver/Src/stm32l4xx_hal_rcc.c ****       }
 623:/home/fanxinhao/Work/LiteOS_Lab/drivers/third_party/ST/STM32L4xx_HAL_Driver/Src/stm32l4xx_hal_rcc.c ****     }
 624:/home/fanxinhao/Work/LiteOS_Lab/drivers/third_party/ST/STM32L4xx_HAL_Driver/Src/stm32l4xx_hal_rcc.c ****   }
 625:/home/fanxinhao/Work/LiteOS_Lab/drivers/third_party/ST/STM32L4xx_HAL_Driver/Src/stm32l4xx_hal_rcc.c ****   /*------------------------------ LSI Configuration -------------------------*/
 626:/home/fanxinhao/Work/LiteOS_Lab/drivers/third_party/ST/STM32L4xx_HAL_Driver/Src/stm32l4xx_hal_rcc.c ****   if(((RCC_OscInitStruct->OscillatorType) & RCC_OSCILLATORTYPE_LSI) == RCC_OSCILLATORTYPE_LSI)
 822              		.loc 1 626 25
 823 039c 7B68     		ldr	r3, [r7, #4]
 824 039e 1B68     		ldr	r3, [r3]
 825              		.loc 1 626 43
 826 03a0 03F00803 		and	r3, r3, #8
 827              		.loc 1 626 5
 828 03a4 002B     		cmp	r3, #0
 829 03a6 3CD0     		beq	.L48
 627:/home/fanxinhao/Work/LiteOS_Lab/drivers/third_party/ST/STM32L4xx_HAL_Driver/Src/stm32l4xx_hal_rcc.c ****   {
 628:/home/fanxinhao/Work/LiteOS_Lab/drivers/third_party/ST/STM32L4xx_HAL_Driver/Src/stm32l4xx_hal_rcc.c ****     /* Check the parameters */
 629:/home/fanxinhao/Work/LiteOS_Lab/drivers/third_party/ST/STM32L4xx_HAL_Driver/Src/stm32l4xx_hal_rcc.c ****     assert_param(IS_RCC_LSI(RCC_OscInitStruct->LSIState));
 630:/home/fanxinhao/Work/LiteOS_Lab/drivers/third_party/ST/STM32L4xx_HAL_Driver/Src/stm32l4xx_hal_rcc.c **** 
 631:/home/fanxinhao/Work/LiteOS_Lab/drivers/third_party/ST/STM32L4xx_HAL_Driver/Src/stm32l4xx_hal_rcc.c ****     /* Check the LSI State */
 632:/home/fanxinhao/Work/LiteOS_Lab/drivers/third_party/ST/STM32L4xx_HAL_Driver/Src/stm32l4xx_hal_rcc.c ****     if(RCC_OscInitStruct->LSIState != RCC_LSI_OFF)
 830              		.loc 1 632 25
 831 03a8 7B68     		ldr	r3, [r7, #4]
ARM GAS  /tmp/ccuQhhnt.s 			page 27


 832 03aa 5B69     		ldr	r3, [r3, #20]
 833              		.loc 1 632 7
 834 03ac 002B     		cmp	r3, #0
 835 03ae 1CD0     		beq	.L49
 633:/home/fanxinhao/Work/LiteOS_Lab/drivers/third_party/ST/STM32L4xx_HAL_Driver/Src/stm32l4xx_hal_rcc.c ****     {
 634:/home/fanxinhao/Work/LiteOS_Lab/drivers/third_party/ST/STM32L4xx_HAL_Driver/Src/stm32l4xx_hal_rcc.c ****       /* Enable the Internal Low Speed oscillator (LSI). */
 635:/home/fanxinhao/Work/LiteOS_Lab/drivers/third_party/ST/STM32L4xx_HAL_Driver/Src/stm32l4xx_hal_rcc.c ****       __HAL_RCC_LSI_ENABLE();
 836              		.loc 1 635 7
 837 03b0 684B     		ldr	r3, .L81
 838 03b2 D3F89430 		ldr	r3, [r3, #148]
 839 03b6 674A     		ldr	r2, .L81
 840 03b8 43F00103 		orr	r3, r3, #1
 841 03bc C2F89430 		str	r3, [r2, #148]
 636:/home/fanxinhao/Work/LiteOS_Lab/drivers/third_party/ST/STM32L4xx_HAL_Driver/Src/stm32l4xx_hal_rcc.c **** 
 637:/home/fanxinhao/Work/LiteOS_Lab/drivers/third_party/ST/STM32L4xx_HAL_Driver/Src/stm32l4xx_hal_rcc.c ****       /* Get Start Tick*/
 638:/home/fanxinhao/Work/LiteOS_Lab/drivers/third_party/ST/STM32L4xx_HAL_Driver/Src/stm32l4xx_hal_rcc.c ****       tickstart = HAL_GetTick();
 842              		.loc 1 638 19
 843 03c0 FFF7FEFF 		bl	HAL_GetTick
 844 03c4 3861     		str	r0, [r7, #16]
 639:/home/fanxinhao/Work/LiteOS_Lab/drivers/third_party/ST/STM32L4xx_HAL_Driver/Src/stm32l4xx_hal_rcc.c **** 
 640:/home/fanxinhao/Work/LiteOS_Lab/drivers/third_party/ST/STM32L4xx_HAL_Driver/Src/stm32l4xx_hal_rcc.c ****       /* Wait till LSI is ready */
 641:/home/fanxinhao/Work/LiteOS_Lab/drivers/third_party/ST/STM32L4xx_HAL_Driver/Src/stm32l4xx_hal_rcc.c ****       while(READ_BIT(RCC->CSR, RCC_CSR_LSIRDY) == RESET)
 845              		.loc 1 641 12
 846 03c6 08E0     		b	.L50
 847              	.L51:
 642:/home/fanxinhao/Work/LiteOS_Lab/drivers/third_party/ST/STM32L4xx_HAL_Driver/Src/stm32l4xx_hal_rcc.c ****       {
 643:/home/fanxinhao/Work/LiteOS_Lab/drivers/third_party/ST/STM32L4xx_HAL_Driver/Src/stm32l4xx_hal_rcc.c ****         if((HAL_GetTick() - tickstart) > LSI_TIMEOUT_VALUE)
 848              		.loc 1 643 13
 849 03c8 FFF7FEFF 		bl	HAL_GetTick
 850 03cc 0246     		mov	r2, r0
 851              		.loc 1 643 27
 852 03ce 3B69     		ldr	r3, [r7, #16]
 853 03d0 D31A     		subs	r3, r2, r3
 854              		.loc 1 643 11
 855 03d2 022B     		cmp	r3, #2
 856 03d4 01D9     		bls	.L50
 644:/home/fanxinhao/Work/LiteOS_Lab/drivers/third_party/ST/STM32L4xx_HAL_Driver/Src/stm32l4xx_hal_rcc.c ****         {
 645:/home/fanxinhao/Work/LiteOS_Lab/drivers/third_party/ST/STM32L4xx_HAL_Driver/Src/stm32l4xx_hal_rcc.c ****           return HAL_TIMEOUT;
 857              		.loc 1 645 18
 858 03d6 0323     		movs	r3, #3
 859 03d8 6EE1     		b	.L16
 860              	.L50:
 641:/home/fanxinhao/Work/LiteOS_Lab/drivers/third_party/ST/STM32L4xx_HAL_Driver/Src/stm32l4xx_hal_rcc.c ****       {
 861              		.loc 1 641 13
 862 03da 5E4B     		ldr	r3, .L81
 863 03dc D3F89430 		ldr	r3, [r3, #148]
 864 03e0 03F00203 		and	r3, r3, #2
 641:/home/fanxinhao/Work/LiteOS_Lab/drivers/third_party/ST/STM32L4xx_HAL_Driver/Src/stm32l4xx_hal_rcc.c ****       {
 865              		.loc 1 641 12
 866 03e4 002B     		cmp	r3, #0
 867 03e6 EFD0     		beq	.L51
 868 03e8 1BE0     		b	.L48
 869              	.L49:
 646:/home/fanxinhao/Work/LiteOS_Lab/drivers/third_party/ST/STM32L4xx_HAL_Driver/Src/stm32l4xx_hal_rcc.c ****         }
 647:/home/fanxinhao/Work/LiteOS_Lab/drivers/third_party/ST/STM32L4xx_HAL_Driver/Src/stm32l4xx_hal_rcc.c ****       }
 648:/home/fanxinhao/Work/LiteOS_Lab/drivers/third_party/ST/STM32L4xx_HAL_Driver/Src/stm32l4xx_hal_rcc.c ****     }
 649:/home/fanxinhao/Work/LiteOS_Lab/drivers/third_party/ST/STM32L4xx_HAL_Driver/Src/stm32l4xx_hal_rcc.c ****     else
ARM GAS  /tmp/ccuQhhnt.s 			page 28


 650:/home/fanxinhao/Work/LiteOS_Lab/drivers/third_party/ST/STM32L4xx_HAL_Driver/Src/stm32l4xx_hal_rcc.c ****     {
 651:/home/fanxinhao/Work/LiteOS_Lab/drivers/third_party/ST/STM32L4xx_HAL_Driver/Src/stm32l4xx_hal_rcc.c ****       /* Disable the Internal Low Speed oscillator (LSI). */
 652:/home/fanxinhao/Work/LiteOS_Lab/drivers/third_party/ST/STM32L4xx_HAL_Driver/Src/stm32l4xx_hal_rcc.c ****       __HAL_RCC_LSI_DISABLE();
 870              		.loc 1 652 7
 871 03ea 5A4B     		ldr	r3, .L81
 872 03ec D3F89430 		ldr	r3, [r3, #148]
 873 03f0 584A     		ldr	r2, .L81
 874 03f2 23F00103 		bic	r3, r3, #1
 875 03f6 C2F89430 		str	r3, [r2, #148]
 653:/home/fanxinhao/Work/LiteOS_Lab/drivers/third_party/ST/STM32L4xx_HAL_Driver/Src/stm32l4xx_hal_rcc.c **** 
 654:/home/fanxinhao/Work/LiteOS_Lab/drivers/third_party/ST/STM32L4xx_HAL_Driver/Src/stm32l4xx_hal_rcc.c ****       /* Get Start Tick*/
 655:/home/fanxinhao/Work/LiteOS_Lab/drivers/third_party/ST/STM32L4xx_HAL_Driver/Src/stm32l4xx_hal_rcc.c ****       tickstart = HAL_GetTick();
 876              		.loc 1 655 19
 877 03fa FFF7FEFF 		bl	HAL_GetTick
 878 03fe 3861     		str	r0, [r7, #16]
 656:/home/fanxinhao/Work/LiteOS_Lab/drivers/third_party/ST/STM32L4xx_HAL_Driver/Src/stm32l4xx_hal_rcc.c **** 
 657:/home/fanxinhao/Work/LiteOS_Lab/drivers/third_party/ST/STM32L4xx_HAL_Driver/Src/stm32l4xx_hal_rcc.c ****       /* Wait till LSI is disabled */
 658:/home/fanxinhao/Work/LiteOS_Lab/drivers/third_party/ST/STM32L4xx_HAL_Driver/Src/stm32l4xx_hal_rcc.c ****       while(READ_BIT(RCC->CSR, RCC_CSR_LSIRDY) != RESET)
 879              		.loc 1 658 12
 880 0400 08E0     		b	.L52
 881              	.L53:
 659:/home/fanxinhao/Work/LiteOS_Lab/drivers/third_party/ST/STM32L4xx_HAL_Driver/Src/stm32l4xx_hal_rcc.c ****       {
 660:/home/fanxinhao/Work/LiteOS_Lab/drivers/third_party/ST/STM32L4xx_HAL_Driver/Src/stm32l4xx_hal_rcc.c ****         if((HAL_GetTick() - tickstart) > LSI_TIMEOUT_VALUE)
 882              		.loc 1 660 13
 883 0402 FFF7FEFF 		bl	HAL_GetTick
 884 0406 0246     		mov	r2, r0
 885              		.loc 1 660 27
 886 0408 3B69     		ldr	r3, [r7, #16]
 887 040a D31A     		subs	r3, r2, r3
 888              		.loc 1 660 11
 889 040c 022B     		cmp	r3, #2
 890 040e 01D9     		bls	.L52
 661:/home/fanxinhao/Work/LiteOS_Lab/drivers/third_party/ST/STM32L4xx_HAL_Driver/Src/stm32l4xx_hal_rcc.c ****         {
 662:/home/fanxinhao/Work/LiteOS_Lab/drivers/third_party/ST/STM32L4xx_HAL_Driver/Src/stm32l4xx_hal_rcc.c ****           return HAL_TIMEOUT;
 891              		.loc 1 662 18
 892 0410 0323     		movs	r3, #3
 893 0412 51E1     		b	.L16
 894              	.L52:
 658:/home/fanxinhao/Work/LiteOS_Lab/drivers/third_party/ST/STM32L4xx_HAL_Driver/Src/stm32l4xx_hal_rcc.c ****       {
 895              		.loc 1 658 13
 896 0414 4F4B     		ldr	r3, .L81
 897 0416 D3F89430 		ldr	r3, [r3, #148]
 898 041a 03F00203 		and	r3, r3, #2
 658:/home/fanxinhao/Work/LiteOS_Lab/drivers/third_party/ST/STM32L4xx_HAL_Driver/Src/stm32l4xx_hal_rcc.c ****       {
 899              		.loc 1 658 12
 900 041e 002B     		cmp	r3, #0
 901 0420 EFD1     		bne	.L53
 902              	.L48:
 663:/home/fanxinhao/Work/LiteOS_Lab/drivers/third_party/ST/STM32L4xx_HAL_Driver/Src/stm32l4xx_hal_rcc.c ****         }
 664:/home/fanxinhao/Work/LiteOS_Lab/drivers/third_party/ST/STM32L4xx_HAL_Driver/Src/stm32l4xx_hal_rcc.c ****       }
 665:/home/fanxinhao/Work/LiteOS_Lab/drivers/third_party/ST/STM32L4xx_HAL_Driver/Src/stm32l4xx_hal_rcc.c ****     }
 666:/home/fanxinhao/Work/LiteOS_Lab/drivers/third_party/ST/STM32L4xx_HAL_Driver/Src/stm32l4xx_hal_rcc.c ****   }
 667:/home/fanxinhao/Work/LiteOS_Lab/drivers/third_party/ST/STM32L4xx_HAL_Driver/Src/stm32l4xx_hal_rcc.c ****   /*------------------------------ LSE Configuration -------------------------*/
 668:/home/fanxinhao/Work/LiteOS_Lab/drivers/third_party/ST/STM32L4xx_HAL_Driver/Src/stm32l4xx_hal_rcc.c ****   if(((RCC_OscInitStruct->OscillatorType) & RCC_OSCILLATORTYPE_LSE) == RCC_OSCILLATORTYPE_LSE)
 903              		.loc 1 668 25
 904 0422 7B68     		ldr	r3, [r7, #4]
 905 0424 1B68     		ldr	r3, [r3]
ARM GAS  /tmp/ccuQhhnt.s 			page 29


 906              		.loc 1 668 43
 907 0426 03F00403 		and	r3, r3, #4
 908              		.loc 1 668 5
 909 042a 002B     		cmp	r3, #0
 910 042c 00F0A680 		beq	.L54
 911              	.LBB2:
 669:/home/fanxinhao/Work/LiteOS_Lab/drivers/third_party/ST/STM32L4xx_HAL_Driver/Src/stm32l4xx_hal_rcc.c ****   {
 670:/home/fanxinhao/Work/LiteOS_Lab/drivers/third_party/ST/STM32L4xx_HAL_Driver/Src/stm32l4xx_hal_rcc.c ****     FlagStatus       pwrclkchanged = RESET;
 912              		.loc 1 670 22
 913 0430 0023     		movs	r3, #0
 914 0432 FB75     		strb	r3, [r7, #23]
 671:/home/fanxinhao/Work/LiteOS_Lab/drivers/third_party/ST/STM32L4xx_HAL_Driver/Src/stm32l4xx_hal_rcc.c **** 
 672:/home/fanxinhao/Work/LiteOS_Lab/drivers/third_party/ST/STM32L4xx_HAL_Driver/Src/stm32l4xx_hal_rcc.c ****     /* Check the parameters */
 673:/home/fanxinhao/Work/LiteOS_Lab/drivers/third_party/ST/STM32L4xx_HAL_Driver/Src/stm32l4xx_hal_rcc.c ****     assert_param(IS_RCC_LSE(RCC_OscInitStruct->LSEState));
 674:/home/fanxinhao/Work/LiteOS_Lab/drivers/third_party/ST/STM32L4xx_HAL_Driver/Src/stm32l4xx_hal_rcc.c **** 
 675:/home/fanxinhao/Work/LiteOS_Lab/drivers/third_party/ST/STM32L4xx_HAL_Driver/Src/stm32l4xx_hal_rcc.c ****     /* Update LSE configuration in Backup Domain control register    */
 676:/home/fanxinhao/Work/LiteOS_Lab/drivers/third_party/ST/STM32L4xx_HAL_Driver/Src/stm32l4xx_hal_rcc.c ****     /* Requires to enable write access to Backup Domain of necessary */
 677:/home/fanxinhao/Work/LiteOS_Lab/drivers/third_party/ST/STM32L4xx_HAL_Driver/Src/stm32l4xx_hal_rcc.c ****     if(HAL_IS_BIT_CLR(RCC->APB1ENR1, RCC_APB1ENR1_PWREN))
 915              		.loc 1 677 8
 916 0434 474B     		ldr	r3, .L81
 917 0436 9B6D     		ldr	r3, [r3, #88]
 918 0438 03F08053 		and	r3, r3, #268435456
 919              		.loc 1 677 7
 920 043c 002B     		cmp	r3, #0
 921 043e 0DD1     		bne	.L55
 922              	.LBB3:
 678:/home/fanxinhao/Work/LiteOS_Lab/drivers/third_party/ST/STM32L4xx_HAL_Driver/Src/stm32l4xx_hal_rcc.c ****     {
 679:/home/fanxinhao/Work/LiteOS_Lab/drivers/third_party/ST/STM32L4xx_HAL_Driver/Src/stm32l4xx_hal_rcc.c ****       __HAL_RCC_PWR_CLK_ENABLE();
 923              		.loc 1 679 7
 924 0440 444B     		ldr	r3, .L81
 925 0442 9B6D     		ldr	r3, [r3, #88]
 926 0444 434A     		ldr	r2, .L81
 927 0446 43F08053 		orr	r3, r3, #268435456
 928 044a 9365     		str	r3, [r2, #88]
 929 044c 414B     		ldr	r3, .L81
 930 044e 9B6D     		ldr	r3, [r3, #88]
 931 0450 03F08053 		and	r3, r3, #268435456
 932 0454 FB60     		str	r3, [r7, #12]
 933 0456 FB68     		ldr	r3, [r7, #12]
 934              	.LBE3:
 680:/home/fanxinhao/Work/LiteOS_Lab/drivers/third_party/ST/STM32L4xx_HAL_Driver/Src/stm32l4xx_hal_rcc.c ****       pwrclkchanged = SET;
 935              		.loc 1 680 21
 936 0458 0123     		movs	r3, #1
 937 045a FB75     		strb	r3, [r7, #23]
 938              	.L55:
 681:/home/fanxinhao/Work/LiteOS_Lab/drivers/third_party/ST/STM32L4xx_HAL_Driver/Src/stm32l4xx_hal_rcc.c ****     }
 682:/home/fanxinhao/Work/LiteOS_Lab/drivers/third_party/ST/STM32L4xx_HAL_Driver/Src/stm32l4xx_hal_rcc.c **** 
 683:/home/fanxinhao/Work/LiteOS_Lab/drivers/third_party/ST/STM32L4xx_HAL_Driver/Src/stm32l4xx_hal_rcc.c ****     if(HAL_IS_BIT_CLR(PWR->CR1, PWR_CR1_DBP))
 939              		.loc 1 683 8
 940 045c 3E4B     		ldr	r3, .L81+4
 941 045e 1B68     		ldr	r3, [r3]
 942 0460 03F48073 		and	r3, r3, #256
 943              		.loc 1 683 7
 944 0464 002B     		cmp	r3, #0
 945 0466 18D1     		bne	.L56
 684:/home/fanxinhao/Work/LiteOS_Lab/drivers/third_party/ST/STM32L4xx_HAL_Driver/Src/stm32l4xx_hal_rcc.c ****     {
 685:/home/fanxinhao/Work/LiteOS_Lab/drivers/third_party/ST/STM32L4xx_HAL_Driver/Src/stm32l4xx_hal_rcc.c ****       /* Enable write access to Backup domain */
ARM GAS  /tmp/ccuQhhnt.s 			page 30


 686:/home/fanxinhao/Work/LiteOS_Lab/drivers/third_party/ST/STM32L4xx_HAL_Driver/Src/stm32l4xx_hal_rcc.c ****       SET_BIT(PWR->CR1, PWR_CR1_DBP);
 946              		.loc 1 686 7
 947 0468 3B4B     		ldr	r3, .L81+4
 948 046a 1B68     		ldr	r3, [r3]
 949 046c 3A4A     		ldr	r2, .L81+4
 950 046e 43F48073 		orr	r3, r3, #256
 951 0472 1360     		str	r3, [r2]
 687:/home/fanxinhao/Work/LiteOS_Lab/drivers/third_party/ST/STM32L4xx_HAL_Driver/Src/stm32l4xx_hal_rcc.c **** 
 688:/home/fanxinhao/Work/LiteOS_Lab/drivers/third_party/ST/STM32L4xx_HAL_Driver/Src/stm32l4xx_hal_rcc.c ****       /* Wait for Backup domain Write protection disable */
 689:/home/fanxinhao/Work/LiteOS_Lab/drivers/third_party/ST/STM32L4xx_HAL_Driver/Src/stm32l4xx_hal_rcc.c ****       tickstart = HAL_GetTick();
 952              		.loc 1 689 19
 953 0474 FFF7FEFF 		bl	HAL_GetTick
 954 0478 3861     		str	r0, [r7, #16]
 690:/home/fanxinhao/Work/LiteOS_Lab/drivers/third_party/ST/STM32L4xx_HAL_Driver/Src/stm32l4xx_hal_rcc.c **** 
 691:/home/fanxinhao/Work/LiteOS_Lab/drivers/third_party/ST/STM32L4xx_HAL_Driver/Src/stm32l4xx_hal_rcc.c ****       while(HAL_IS_BIT_CLR(PWR->CR1, PWR_CR1_DBP))
 955              		.loc 1 691 12
 956 047a 08E0     		b	.L57
 957              	.L58:
 692:/home/fanxinhao/Work/LiteOS_Lab/drivers/third_party/ST/STM32L4xx_HAL_Driver/Src/stm32l4xx_hal_rcc.c ****       {
 693:/home/fanxinhao/Work/LiteOS_Lab/drivers/third_party/ST/STM32L4xx_HAL_Driver/Src/stm32l4xx_hal_rcc.c ****         if((HAL_GetTick() - tickstart) > RCC_DBP_TIMEOUT_VALUE)
 958              		.loc 1 693 13
 959 047c FFF7FEFF 		bl	HAL_GetTick
 960 0480 0246     		mov	r2, r0
 961              		.loc 1 693 27
 962 0482 3B69     		ldr	r3, [r7, #16]
 963 0484 D31A     		subs	r3, r2, r3
 964              		.loc 1 693 11
 965 0486 022B     		cmp	r3, #2
 966 0488 01D9     		bls	.L57
 694:/home/fanxinhao/Work/LiteOS_Lab/drivers/third_party/ST/STM32L4xx_HAL_Driver/Src/stm32l4xx_hal_rcc.c ****         {
 695:/home/fanxinhao/Work/LiteOS_Lab/drivers/third_party/ST/STM32L4xx_HAL_Driver/Src/stm32l4xx_hal_rcc.c ****           return HAL_TIMEOUT;
 967              		.loc 1 695 18
 968 048a 0323     		movs	r3, #3
 969 048c 14E1     		b	.L16
 970              	.L57:
 691:/home/fanxinhao/Work/LiteOS_Lab/drivers/third_party/ST/STM32L4xx_HAL_Driver/Src/stm32l4xx_hal_rcc.c ****       {
 971              		.loc 1 691 13
 972 048e 324B     		ldr	r3, .L81+4
 973 0490 1B68     		ldr	r3, [r3]
 974 0492 03F48073 		and	r3, r3, #256
 691:/home/fanxinhao/Work/LiteOS_Lab/drivers/third_party/ST/STM32L4xx_HAL_Driver/Src/stm32l4xx_hal_rcc.c ****       {
 975              		.loc 1 691 12
 976 0496 002B     		cmp	r3, #0
 977 0498 F0D0     		beq	.L58
 978              	.L56:
 696:/home/fanxinhao/Work/LiteOS_Lab/drivers/third_party/ST/STM32L4xx_HAL_Driver/Src/stm32l4xx_hal_rcc.c ****         }
 697:/home/fanxinhao/Work/LiteOS_Lab/drivers/third_party/ST/STM32L4xx_HAL_Driver/Src/stm32l4xx_hal_rcc.c ****       }
 698:/home/fanxinhao/Work/LiteOS_Lab/drivers/third_party/ST/STM32L4xx_HAL_Driver/Src/stm32l4xx_hal_rcc.c ****     }
 699:/home/fanxinhao/Work/LiteOS_Lab/drivers/third_party/ST/STM32L4xx_HAL_Driver/Src/stm32l4xx_hal_rcc.c **** 
 700:/home/fanxinhao/Work/LiteOS_Lab/drivers/third_party/ST/STM32L4xx_HAL_Driver/Src/stm32l4xx_hal_rcc.c ****     /* Set the new LSE configuration -----------------------------------------*/
 701:/home/fanxinhao/Work/LiteOS_Lab/drivers/third_party/ST/STM32L4xx_HAL_Driver/Src/stm32l4xx_hal_rcc.c ****     __HAL_RCC_LSE_CONFIG(RCC_OscInitStruct->LSEState);
 979              		.loc 1 701 5
 980 049a 7B68     		ldr	r3, [r7, #4]
 981 049c 9B68     		ldr	r3, [r3, #8]
 982 049e 012B     		cmp	r3, #1
 983 04a0 08D1     		bne	.L59
 984              		.loc 1 701 5 is_stmt 0 discriminator 1
ARM GAS  /tmp/ccuQhhnt.s 			page 31


 985 04a2 2C4B     		ldr	r3, .L81
 986 04a4 D3F89030 		ldr	r3, [r3, #144]
 987 04a8 2A4A     		ldr	r2, .L81
 988 04aa 43F00103 		orr	r3, r3, #1
 989 04ae C2F89030 		str	r3, [r2, #144]
 990 04b2 24E0     		b	.L60
 991              	.L59:
 992              		.loc 1 701 5 discriminator 2
 993 04b4 7B68     		ldr	r3, [r7, #4]
 994 04b6 9B68     		ldr	r3, [r3, #8]
 995 04b8 052B     		cmp	r3, #5
 996 04ba 10D1     		bne	.L61
 997              		.loc 1 701 5 discriminator 3
 998 04bc 254B     		ldr	r3, .L81
 999 04be D3F89030 		ldr	r3, [r3, #144]
 1000 04c2 244A     		ldr	r2, .L81
 1001 04c4 43F00403 		orr	r3, r3, #4
 1002 04c8 C2F89030 		str	r3, [r2, #144]
 1003 04cc 214B     		ldr	r3, .L81
 1004 04ce D3F89030 		ldr	r3, [r3, #144]
 1005 04d2 204A     		ldr	r2, .L81
 1006 04d4 43F00103 		orr	r3, r3, #1
 1007 04d8 C2F89030 		str	r3, [r2, #144]
 1008 04dc 0FE0     		b	.L60
 1009              	.L61:
 1010              		.loc 1 701 5 discriminator 4
 1011 04de 1D4B     		ldr	r3, .L81
 1012 04e0 D3F89030 		ldr	r3, [r3, #144]
 1013 04e4 1B4A     		ldr	r2, .L81
 1014 04e6 23F00103 		bic	r3, r3, #1
 1015 04ea C2F89030 		str	r3, [r2, #144]
 1016 04ee 194B     		ldr	r3, .L81
 1017 04f0 D3F89030 		ldr	r3, [r3, #144]
 1018 04f4 174A     		ldr	r2, .L81
 1019 04f6 23F00403 		bic	r3, r3, #4
 1020 04fa C2F89030 		str	r3, [r2, #144]
 1021              	.L60:
 702:/home/fanxinhao/Work/LiteOS_Lab/drivers/third_party/ST/STM32L4xx_HAL_Driver/Src/stm32l4xx_hal_rcc.c **** 
 703:/home/fanxinhao/Work/LiteOS_Lab/drivers/third_party/ST/STM32L4xx_HAL_Driver/Src/stm32l4xx_hal_rcc.c ****     /* Check the LSE State */
 704:/home/fanxinhao/Work/LiteOS_Lab/drivers/third_party/ST/STM32L4xx_HAL_Driver/Src/stm32l4xx_hal_rcc.c ****     if(RCC_OscInitStruct->LSEState != RCC_LSE_OFF)
 1022              		.loc 1 704 25 is_stmt 1
 1023 04fe 7B68     		ldr	r3, [r7, #4]
 1024 0500 9B68     		ldr	r3, [r3, #8]
 1025              		.loc 1 704 7
 1026 0502 002B     		cmp	r3, #0
 1027 0504 16D0     		beq	.L62
 705:/home/fanxinhao/Work/LiteOS_Lab/drivers/third_party/ST/STM32L4xx_HAL_Driver/Src/stm32l4xx_hal_rcc.c ****     {
 706:/home/fanxinhao/Work/LiteOS_Lab/drivers/third_party/ST/STM32L4xx_HAL_Driver/Src/stm32l4xx_hal_rcc.c ****       /* Get Start Tick*/
 707:/home/fanxinhao/Work/LiteOS_Lab/drivers/third_party/ST/STM32L4xx_HAL_Driver/Src/stm32l4xx_hal_rcc.c ****       tickstart = HAL_GetTick();
 1028              		.loc 1 707 19
 1029 0506 FFF7FEFF 		bl	HAL_GetTick
 1030 050a 3861     		str	r0, [r7, #16]
 708:/home/fanxinhao/Work/LiteOS_Lab/drivers/third_party/ST/STM32L4xx_HAL_Driver/Src/stm32l4xx_hal_rcc.c **** 
 709:/home/fanxinhao/Work/LiteOS_Lab/drivers/third_party/ST/STM32L4xx_HAL_Driver/Src/stm32l4xx_hal_rcc.c ****       /* Wait till LSE is ready */
 710:/home/fanxinhao/Work/LiteOS_Lab/drivers/third_party/ST/STM32L4xx_HAL_Driver/Src/stm32l4xx_hal_rcc.c ****       while(READ_BIT(RCC->BDCR, RCC_BDCR_LSERDY) == RESET)
 1031              		.loc 1 710 12
 1032 050c 0AE0     		b	.L63
ARM GAS  /tmp/ccuQhhnt.s 			page 32


 1033              	.L64:
 711:/home/fanxinhao/Work/LiteOS_Lab/drivers/third_party/ST/STM32L4xx_HAL_Driver/Src/stm32l4xx_hal_rcc.c ****       {
 712:/home/fanxinhao/Work/LiteOS_Lab/drivers/third_party/ST/STM32L4xx_HAL_Driver/Src/stm32l4xx_hal_rcc.c ****         if((HAL_GetTick() - tickstart) > RCC_LSE_TIMEOUT_VALUE)
 1034              		.loc 1 712 13
 1035 050e FFF7FEFF 		bl	HAL_GetTick
 1036 0512 0246     		mov	r2, r0
 1037              		.loc 1 712 27
 1038 0514 3B69     		ldr	r3, [r7, #16]
 1039 0516 D31A     		subs	r3, r2, r3
 1040              		.loc 1 712 11
 1041 0518 41F28832 		movw	r2, #5000
 1042 051c 9342     		cmp	r3, r2
 1043 051e 01D9     		bls	.L63
 713:/home/fanxinhao/Work/LiteOS_Lab/drivers/third_party/ST/STM32L4xx_HAL_Driver/Src/stm32l4xx_hal_rcc.c ****         {
 714:/home/fanxinhao/Work/LiteOS_Lab/drivers/third_party/ST/STM32L4xx_HAL_Driver/Src/stm32l4xx_hal_rcc.c ****           return HAL_TIMEOUT;
 1044              		.loc 1 714 18
 1045 0520 0323     		movs	r3, #3
 1046 0522 C9E0     		b	.L16
 1047              	.L63:
 710:/home/fanxinhao/Work/LiteOS_Lab/drivers/third_party/ST/STM32L4xx_HAL_Driver/Src/stm32l4xx_hal_rcc.c ****       {
 1048              		.loc 1 710 13
 1049 0524 0B4B     		ldr	r3, .L81
 1050 0526 D3F89030 		ldr	r3, [r3, #144]
 1051 052a 03F00203 		and	r3, r3, #2
 710:/home/fanxinhao/Work/LiteOS_Lab/drivers/third_party/ST/STM32L4xx_HAL_Driver/Src/stm32l4xx_hal_rcc.c ****       {
 1052              		.loc 1 710 12
 1053 052e 002B     		cmp	r3, #0
 1054 0530 EDD0     		beq	.L64
 1055 0532 1AE0     		b	.L65
 1056              	.L62:
 715:/home/fanxinhao/Work/LiteOS_Lab/drivers/third_party/ST/STM32L4xx_HAL_Driver/Src/stm32l4xx_hal_rcc.c ****         }
 716:/home/fanxinhao/Work/LiteOS_Lab/drivers/third_party/ST/STM32L4xx_HAL_Driver/Src/stm32l4xx_hal_rcc.c ****       }
 717:/home/fanxinhao/Work/LiteOS_Lab/drivers/third_party/ST/STM32L4xx_HAL_Driver/Src/stm32l4xx_hal_rcc.c ****     }
 718:/home/fanxinhao/Work/LiteOS_Lab/drivers/third_party/ST/STM32L4xx_HAL_Driver/Src/stm32l4xx_hal_rcc.c ****     else
 719:/home/fanxinhao/Work/LiteOS_Lab/drivers/third_party/ST/STM32L4xx_HAL_Driver/Src/stm32l4xx_hal_rcc.c ****     {
 720:/home/fanxinhao/Work/LiteOS_Lab/drivers/third_party/ST/STM32L4xx_HAL_Driver/Src/stm32l4xx_hal_rcc.c ****       /* Get Start Tick*/
 721:/home/fanxinhao/Work/LiteOS_Lab/drivers/third_party/ST/STM32L4xx_HAL_Driver/Src/stm32l4xx_hal_rcc.c ****       tickstart = HAL_GetTick();
 1057              		.loc 1 721 19
 1058 0534 FFF7FEFF 		bl	HAL_GetTick
 1059 0538 3861     		str	r0, [r7, #16]
 722:/home/fanxinhao/Work/LiteOS_Lab/drivers/third_party/ST/STM32L4xx_HAL_Driver/Src/stm32l4xx_hal_rcc.c **** 
 723:/home/fanxinhao/Work/LiteOS_Lab/drivers/third_party/ST/STM32L4xx_HAL_Driver/Src/stm32l4xx_hal_rcc.c ****       /* Wait till LSE is disabled */
 724:/home/fanxinhao/Work/LiteOS_Lab/drivers/third_party/ST/STM32L4xx_HAL_Driver/Src/stm32l4xx_hal_rcc.c ****       while(READ_BIT(RCC->BDCR, RCC_BDCR_LSERDY) != RESET)
 1060              		.loc 1 724 12
 1061 053a 0FE0     		b	.L66
 1062              	.L67:
 725:/home/fanxinhao/Work/LiteOS_Lab/drivers/third_party/ST/STM32L4xx_HAL_Driver/Src/stm32l4xx_hal_rcc.c ****       {
 726:/home/fanxinhao/Work/LiteOS_Lab/drivers/third_party/ST/STM32L4xx_HAL_Driver/Src/stm32l4xx_hal_rcc.c ****         if((HAL_GetTick() - tickstart) > RCC_LSE_TIMEOUT_VALUE)
 1063              		.loc 1 726 13
 1064 053c FFF7FEFF 		bl	HAL_GetTick
 1065 0540 0246     		mov	r2, r0
 1066              		.loc 1 726 27
 1067 0542 3B69     		ldr	r3, [r7, #16]
 1068 0544 D31A     		subs	r3, r2, r3
 1069              		.loc 1 726 11
 1070 0546 41F28832 		movw	r2, #5000
 1071 054a 9342     		cmp	r3, r2
ARM GAS  /tmp/ccuQhhnt.s 			page 33


 1072 054c 06D9     		bls	.L66
 727:/home/fanxinhao/Work/LiteOS_Lab/drivers/third_party/ST/STM32L4xx_HAL_Driver/Src/stm32l4xx_hal_rcc.c ****         {
 728:/home/fanxinhao/Work/LiteOS_Lab/drivers/third_party/ST/STM32L4xx_HAL_Driver/Src/stm32l4xx_hal_rcc.c ****           return HAL_TIMEOUT;
 1073              		.loc 1 728 18
 1074 054e 0323     		movs	r3, #3
 1075 0550 B2E0     		b	.L16
 1076              	.L82:
 1077 0552 00BF     		.align	2
 1078              	.L81:
 1079 0554 00100240 		.word	1073876992
 1080 0558 00700040 		.word	1073770496
 1081              	.L66:
 724:/home/fanxinhao/Work/LiteOS_Lab/drivers/third_party/ST/STM32L4xx_HAL_Driver/Src/stm32l4xx_hal_rcc.c ****       {
 1082              		.loc 1 724 13
 1083 055c 584B     		ldr	r3, .L83
 1084 055e D3F89030 		ldr	r3, [r3, #144]
 1085 0562 03F00203 		and	r3, r3, #2
 724:/home/fanxinhao/Work/LiteOS_Lab/drivers/third_party/ST/STM32L4xx_HAL_Driver/Src/stm32l4xx_hal_rcc.c ****       {
 1086              		.loc 1 724 12
 1087 0566 002B     		cmp	r3, #0
 1088 0568 E8D1     		bne	.L67
 1089              	.L65:
 729:/home/fanxinhao/Work/LiteOS_Lab/drivers/third_party/ST/STM32L4xx_HAL_Driver/Src/stm32l4xx_hal_rcc.c ****         }
 730:/home/fanxinhao/Work/LiteOS_Lab/drivers/third_party/ST/STM32L4xx_HAL_Driver/Src/stm32l4xx_hal_rcc.c ****       }
 731:/home/fanxinhao/Work/LiteOS_Lab/drivers/third_party/ST/STM32L4xx_HAL_Driver/Src/stm32l4xx_hal_rcc.c ****     }
 732:/home/fanxinhao/Work/LiteOS_Lab/drivers/third_party/ST/STM32L4xx_HAL_Driver/Src/stm32l4xx_hal_rcc.c **** 
 733:/home/fanxinhao/Work/LiteOS_Lab/drivers/third_party/ST/STM32L4xx_HAL_Driver/Src/stm32l4xx_hal_rcc.c ****     /* Restore clock configuration if changed */
 734:/home/fanxinhao/Work/LiteOS_Lab/drivers/third_party/ST/STM32L4xx_HAL_Driver/Src/stm32l4xx_hal_rcc.c ****     if(pwrclkchanged == SET)
 1090              		.loc 1 734 7
 1091 056a FB7D     		ldrb	r3, [r7, #23]	@ zero_extendqisi2
 1092 056c 012B     		cmp	r3, #1
 1093 056e 05D1     		bne	.L54
 735:/home/fanxinhao/Work/LiteOS_Lab/drivers/third_party/ST/STM32L4xx_HAL_Driver/Src/stm32l4xx_hal_rcc.c ****     {
 736:/home/fanxinhao/Work/LiteOS_Lab/drivers/third_party/ST/STM32L4xx_HAL_Driver/Src/stm32l4xx_hal_rcc.c ****       __HAL_RCC_PWR_CLK_DISABLE();
 1094              		.loc 1 736 7
 1095 0570 534B     		ldr	r3, .L83
 1096 0572 9B6D     		ldr	r3, [r3, #88]
 1097 0574 524A     		ldr	r2, .L83
 1098 0576 23F08053 		bic	r3, r3, #268435456
 1099 057a 9365     		str	r3, [r2, #88]
 1100              	.L54:
 1101              	.LBE2:
 737:/home/fanxinhao/Work/LiteOS_Lab/drivers/third_party/ST/STM32L4xx_HAL_Driver/Src/stm32l4xx_hal_rcc.c ****     }
 738:/home/fanxinhao/Work/LiteOS_Lab/drivers/third_party/ST/STM32L4xx_HAL_Driver/Src/stm32l4xx_hal_rcc.c ****   }
 739:/home/fanxinhao/Work/LiteOS_Lab/drivers/third_party/ST/STM32L4xx_HAL_Driver/Src/stm32l4xx_hal_rcc.c **** #if defined(RCC_HSI48_SUPPORT)
 740:/home/fanxinhao/Work/LiteOS_Lab/drivers/third_party/ST/STM32L4xx_HAL_Driver/Src/stm32l4xx_hal_rcc.c ****   /*------------------------------ HSI48 Configuration -----------------------*/
 741:/home/fanxinhao/Work/LiteOS_Lab/drivers/third_party/ST/STM32L4xx_HAL_Driver/Src/stm32l4xx_hal_rcc.c ****   if(((RCC_OscInitStruct->OscillatorType) & RCC_OSCILLATORTYPE_HSI48) == RCC_OSCILLATORTYPE_HSI48)
 742:/home/fanxinhao/Work/LiteOS_Lab/drivers/third_party/ST/STM32L4xx_HAL_Driver/Src/stm32l4xx_hal_rcc.c ****   {
 743:/home/fanxinhao/Work/LiteOS_Lab/drivers/third_party/ST/STM32L4xx_HAL_Driver/Src/stm32l4xx_hal_rcc.c ****     /* Check the parameters */
 744:/home/fanxinhao/Work/LiteOS_Lab/drivers/third_party/ST/STM32L4xx_HAL_Driver/Src/stm32l4xx_hal_rcc.c ****     assert_param(IS_RCC_HSI48(RCC_OscInitStruct->HSI48State));
 745:/home/fanxinhao/Work/LiteOS_Lab/drivers/third_party/ST/STM32L4xx_HAL_Driver/Src/stm32l4xx_hal_rcc.c **** 
 746:/home/fanxinhao/Work/LiteOS_Lab/drivers/third_party/ST/STM32L4xx_HAL_Driver/Src/stm32l4xx_hal_rcc.c ****     /* Check the LSI State */
 747:/home/fanxinhao/Work/LiteOS_Lab/drivers/third_party/ST/STM32L4xx_HAL_Driver/Src/stm32l4xx_hal_rcc.c ****     if(RCC_OscInitStruct->HSI48State != RCC_HSI48_OFF)
 748:/home/fanxinhao/Work/LiteOS_Lab/drivers/third_party/ST/STM32L4xx_HAL_Driver/Src/stm32l4xx_hal_rcc.c ****     {
 749:/home/fanxinhao/Work/LiteOS_Lab/drivers/third_party/ST/STM32L4xx_HAL_Driver/Src/stm32l4xx_hal_rcc.c ****       /* Enable the Internal Low Speed oscillator (HSI48). */
 750:/home/fanxinhao/Work/LiteOS_Lab/drivers/third_party/ST/STM32L4xx_HAL_Driver/Src/stm32l4xx_hal_rcc.c ****       __HAL_RCC_HSI48_ENABLE();
 751:/home/fanxinhao/Work/LiteOS_Lab/drivers/third_party/ST/STM32L4xx_HAL_Driver/Src/stm32l4xx_hal_rcc.c **** 
ARM GAS  /tmp/ccuQhhnt.s 			page 34


 752:/home/fanxinhao/Work/LiteOS_Lab/drivers/third_party/ST/STM32L4xx_HAL_Driver/Src/stm32l4xx_hal_rcc.c ****       /* Get Start Tick*/
 753:/home/fanxinhao/Work/LiteOS_Lab/drivers/third_party/ST/STM32L4xx_HAL_Driver/Src/stm32l4xx_hal_rcc.c ****       tickstart = HAL_GetTick();
 754:/home/fanxinhao/Work/LiteOS_Lab/drivers/third_party/ST/STM32L4xx_HAL_Driver/Src/stm32l4xx_hal_rcc.c **** 
 755:/home/fanxinhao/Work/LiteOS_Lab/drivers/third_party/ST/STM32L4xx_HAL_Driver/Src/stm32l4xx_hal_rcc.c ****       /* Wait till HSI48 is ready */
 756:/home/fanxinhao/Work/LiteOS_Lab/drivers/third_party/ST/STM32L4xx_HAL_Driver/Src/stm32l4xx_hal_rcc.c ****       while(READ_BIT(RCC->CRRCR, RCC_CRRCR_HSI48RDY) == RESET)
 757:/home/fanxinhao/Work/LiteOS_Lab/drivers/third_party/ST/STM32L4xx_HAL_Driver/Src/stm32l4xx_hal_rcc.c ****       {
 758:/home/fanxinhao/Work/LiteOS_Lab/drivers/third_party/ST/STM32L4xx_HAL_Driver/Src/stm32l4xx_hal_rcc.c ****         if((HAL_GetTick() - tickstart) > HSI48_TIMEOUT_VALUE)
 759:/home/fanxinhao/Work/LiteOS_Lab/drivers/third_party/ST/STM32L4xx_HAL_Driver/Src/stm32l4xx_hal_rcc.c ****         {
 760:/home/fanxinhao/Work/LiteOS_Lab/drivers/third_party/ST/STM32L4xx_HAL_Driver/Src/stm32l4xx_hal_rcc.c ****           return HAL_TIMEOUT;
 761:/home/fanxinhao/Work/LiteOS_Lab/drivers/third_party/ST/STM32L4xx_HAL_Driver/Src/stm32l4xx_hal_rcc.c ****         }
 762:/home/fanxinhao/Work/LiteOS_Lab/drivers/third_party/ST/STM32L4xx_HAL_Driver/Src/stm32l4xx_hal_rcc.c ****       }
 763:/home/fanxinhao/Work/LiteOS_Lab/drivers/third_party/ST/STM32L4xx_HAL_Driver/Src/stm32l4xx_hal_rcc.c ****     }
 764:/home/fanxinhao/Work/LiteOS_Lab/drivers/third_party/ST/STM32L4xx_HAL_Driver/Src/stm32l4xx_hal_rcc.c ****     else
 765:/home/fanxinhao/Work/LiteOS_Lab/drivers/third_party/ST/STM32L4xx_HAL_Driver/Src/stm32l4xx_hal_rcc.c ****     {
 766:/home/fanxinhao/Work/LiteOS_Lab/drivers/third_party/ST/STM32L4xx_HAL_Driver/Src/stm32l4xx_hal_rcc.c ****       /* Disable the Internal Low Speed oscillator (HSI48). */
 767:/home/fanxinhao/Work/LiteOS_Lab/drivers/third_party/ST/STM32L4xx_HAL_Driver/Src/stm32l4xx_hal_rcc.c ****       __HAL_RCC_HSI48_DISABLE();
 768:/home/fanxinhao/Work/LiteOS_Lab/drivers/third_party/ST/STM32L4xx_HAL_Driver/Src/stm32l4xx_hal_rcc.c **** 
 769:/home/fanxinhao/Work/LiteOS_Lab/drivers/third_party/ST/STM32L4xx_HAL_Driver/Src/stm32l4xx_hal_rcc.c ****       /* Get Start Tick*/
 770:/home/fanxinhao/Work/LiteOS_Lab/drivers/third_party/ST/STM32L4xx_HAL_Driver/Src/stm32l4xx_hal_rcc.c ****       tickstart = HAL_GetTick();
 771:/home/fanxinhao/Work/LiteOS_Lab/drivers/third_party/ST/STM32L4xx_HAL_Driver/Src/stm32l4xx_hal_rcc.c **** 
 772:/home/fanxinhao/Work/LiteOS_Lab/drivers/third_party/ST/STM32L4xx_HAL_Driver/Src/stm32l4xx_hal_rcc.c ****       /* Wait till HSI48 is disabled */
 773:/home/fanxinhao/Work/LiteOS_Lab/drivers/third_party/ST/STM32L4xx_HAL_Driver/Src/stm32l4xx_hal_rcc.c ****       while(READ_BIT(RCC->CRRCR, RCC_CRRCR_HSI48RDY) != RESET)
 774:/home/fanxinhao/Work/LiteOS_Lab/drivers/third_party/ST/STM32L4xx_HAL_Driver/Src/stm32l4xx_hal_rcc.c ****       {
 775:/home/fanxinhao/Work/LiteOS_Lab/drivers/third_party/ST/STM32L4xx_HAL_Driver/Src/stm32l4xx_hal_rcc.c ****         if((HAL_GetTick() - tickstart) > HSI48_TIMEOUT_VALUE)
 776:/home/fanxinhao/Work/LiteOS_Lab/drivers/third_party/ST/STM32L4xx_HAL_Driver/Src/stm32l4xx_hal_rcc.c ****         {
 777:/home/fanxinhao/Work/LiteOS_Lab/drivers/third_party/ST/STM32L4xx_HAL_Driver/Src/stm32l4xx_hal_rcc.c ****           return HAL_TIMEOUT;
 778:/home/fanxinhao/Work/LiteOS_Lab/drivers/third_party/ST/STM32L4xx_HAL_Driver/Src/stm32l4xx_hal_rcc.c ****         }
 779:/home/fanxinhao/Work/LiteOS_Lab/drivers/third_party/ST/STM32L4xx_HAL_Driver/Src/stm32l4xx_hal_rcc.c ****       }
 780:/home/fanxinhao/Work/LiteOS_Lab/drivers/third_party/ST/STM32L4xx_HAL_Driver/Src/stm32l4xx_hal_rcc.c ****     }
 781:/home/fanxinhao/Work/LiteOS_Lab/drivers/third_party/ST/STM32L4xx_HAL_Driver/Src/stm32l4xx_hal_rcc.c ****   }
 782:/home/fanxinhao/Work/LiteOS_Lab/drivers/third_party/ST/STM32L4xx_HAL_Driver/Src/stm32l4xx_hal_rcc.c **** #endif /* RCC_HSI48_SUPPORT */
 783:/home/fanxinhao/Work/LiteOS_Lab/drivers/third_party/ST/STM32L4xx_HAL_Driver/Src/stm32l4xx_hal_rcc.c ****   /*-------------------------------- PLL Configuration -----------------------*/
 784:/home/fanxinhao/Work/LiteOS_Lab/drivers/third_party/ST/STM32L4xx_HAL_Driver/Src/stm32l4xx_hal_rcc.c ****   /* Check the parameters */
 785:/home/fanxinhao/Work/LiteOS_Lab/drivers/third_party/ST/STM32L4xx_HAL_Driver/Src/stm32l4xx_hal_rcc.c ****   assert_param(IS_RCC_PLL(RCC_OscInitStruct->PLL.PLLState));
 786:/home/fanxinhao/Work/LiteOS_Lab/drivers/third_party/ST/STM32L4xx_HAL_Driver/Src/stm32l4xx_hal_rcc.c **** 
 787:/home/fanxinhao/Work/LiteOS_Lab/drivers/third_party/ST/STM32L4xx_HAL_Driver/Src/stm32l4xx_hal_rcc.c ****   if(RCC_OscInitStruct->PLL.PLLState != RCC_PLL_NONE)
 1102              		.loc 1 787 28
 1103 057c 7B68     		ldr	r3, [r7, #4]
 1104 057e 9B6A     		ldr	r3, [r3, #40]
 1105              		.loc 1 787 5
 1106 0580 002B     		cmp	r3, #0
 1107 0582 00F09880 		beq	.L68
 788:/home/fanxinhao/Work/LiteOS_Lab/drivers/third_party/ST/STM32L4xx_HAL_Driver/Src/stm32l4xx_hal_rcc.c ****   {
 789:/home/fanxinhao/Work/LiteOS_Lab/drivers/third_party/ST/STM32L4xx_HAL_Driver/Src/stm32l4xx_hal_rcc.c ****     /* Check if the PLL is used as system clock or not */
 790:/home/fanxinhao/Work/LiteOS_Lab/drivers/third_party/ST/STM32L4xx_HAL_Driver/Src/stm32l4xx_hal_rcc.c ****     if(__HAL_RCC_GET_SYSCLK_SOURCE() != RCC_CFGR_SWS_PLL)
 1108              		.loc 1 790 8
 1109 0586 4E4B     		ldr	r3, .L83
 1110 0588 9B68     		ldr	r3, [r3, #8]
 1111 058a 03F00C03 		and	r3, r3, #12
 1112              		.loc 1 790 7
 1113 058e 0C2B     		cmp	r3, #12
 1114 0590 00F08F80 		beq	.L69
 791:/home/fanxinhao/Work/LiteOS_Lab/drivers/third_party/ST/STM32L4xx_HAL_Driver/Src/stm32l4xx_hal_rcc.c ****     {
 792:/home/fanxinhao/Work/LiteOS_Lab/drivers/third_party/ST/STM32L4xx_HAL_Driver/Src/stm32l4xx_hal_rcc.c ****       if(RCC_OscInitStruct->PLL.PLLState == RCC_PLL_ON)
 1115              		.loc 1 792 32
 1116 0594 7B68     		ldr	r3, [r7, #4]
 1117 0596 9B6A     		ldr	r3, [r3, #40]
ARM GAS  /tmp/ccuQhhnt.s 			page 35


 1118              		.loc 1 792 9
 1119 0598 022B     		cmp	r3, #2
 1120 059a 56D1     		bne	.L70
 793:/home/fanxinhao/Work/LiteOS_Lab/drivers/third_party/ST/STM32L4xx_HAL_Driver/Src/stm32l4xx_hal_rcc.c ****       {
 794:/home/fanxinhao/Work/LiteOS_Lab/drivers/third_party/ST/STM32L4xx_HAL_Driver/Src/stm32l4xx_hal_rcc.c ****         /* Check the parameters */
 795:/home/fanxinhao/Work/LiteOS_Lab/drivers/third_party/ST/STM32L4xx_HAL_Driver/Src/stm32l4xx_hal_rcc.c ****         assert_param(IS_RCC_PLLSOURCE(RCC_OscInitStruct->PLL.PLLSource));
 796:/home/fanxinhao/Work/LiteOS_Lab/drivers/third_party/ST/STM32L4xx_HAL_Driver/Src/stm32l4xx_hal_rcc.c ****         assert_param(IS_RCC_PLLM_VALUE(RCC_OscInitStruct->PLL.PLLM));
 797:/home/fanxinhao/Work/LiteOS_Lab/drivers/third_party/ST/STM32L4xx_HAL_Driver/Src/stm32l4xx_hal_rcc.c ****         assert_param(IS_RCC_PLLN_VALUE(RCC_OscInitStruct->PLL.PLLN));
 798:/home/fanxinhao/Work/LiteOS_Lab/drivers/third_party/ST/STM32L4xx_HAL_Driver/Src/stm32l4xx_hal_rcc.c ****         assert_param(IS_RCC_PLLP_VALUE(RCC_OscInitStruct->PLL.PLLP));
 799:/home/fanxinhao/Work/LiteOS_Lab/drivers/third_party/ST/STM32L4xx_HAL_Driver/Src/stm32l4xx_hal_rcc.c ****         assert_param(IS_RCC_PLLQ_VALUE(RCC_OscInitStruct->PLL.PLLQ));
 800:/home/fanxinhao/Work/LiteOS_Lab/drivers/third_party/ST/STM32L4xx_HAL_Driver/Src/stm32l4xx_hal_rcc.c ****         assert_param(IS_RCC_PLLR_VALUE(RCC_OscInitStruct->PLL.PLLR));
 801:/home/fanxinhao/Work/LiteOS_Lab/drivers/third_party/ST/STM32L4xx_HAL_Driver/Src/stm32l4xx_hal_rcc.c **** 
 802:/home/fanxinhao/Work/LiteOS_Lab/drivers/third_party/ST/STM32L4xx_HAL_Driver/Src/stm32l4xx_hal_rcc.c ****         /* Disable the main PLL. */
 803:/home/fanxinhao/Work/LiteOS_Lab/drivers/third_party/ST/STM32L4xx_HAL_Driver/Src/stm32l4xx_hal_rcc.c ****         __HAL_RCC_PLL_DISABLE();
 1121              		.loc 1 803 9
 1122 059c 484B     		ldr	r3, .L83
 1123 059e 1B68     		ldr	r3, [r3]
 1124 05a0 474A     		ldr	r2, .L83
 1125 05a2 23F08073 		bic	r3, r3, #16777216
 1126 05a6 1360     		str	r3, [r2]
 804:/home/fanxinhao/Work/LiteOS_Lab/drivers/third_party/ST/STM32L4xx_HAL_Driver/Src/stm32l4xx_hal_rcc.c **** 
 805:/home/fanxinhao/Work/LiteOS_Lab/drivers/third_party/ST/STM32L4xx_HAL_Driver/Src/stm32l4xx_hal_rcc.c ****         /* Get Start Tick*/
 806:/home/fanxinhao/Work/LiteOS_Lab/drivers/third_party/ST/STM32L4xx_HAL_Driver/Src/stm32l4xx_hal_rcc.c ****         tickstart = HAL_GetTick();
 1127              		.loc 1 806 21
 1128 05a8 FFF7FEFF 		bl	HAL_GetTick
 1129 05ac 3861     		str	r0, [r7, #16]
 807:/home/fanxinhao/Work/LiteOS_Lab/drivers/third_party/ST/STM32L4xx_HAL_Driver/Src/stm32l4xx_hal_rcc.c **** 
 808:/home/fanxinhao/Work/LiteOS_Lab/drivers/third_party/ST/STM32L4xx_HAL_Driver/Src/stm32l4xx_hal_rcc.c ****         /* Wait till PLL is ready */
 809:/home/fanxinhao/Work/LiteOS_Lab/drivers/third_party/ST/STM32L4xx_HAL_Driver/Src/stm32l4xx_hal_rcc.c ****         while(READ_BIT(RCC->CR, RCC_CR_PLLRDY) != RESET)
 1130              		.loc 1 809 14
 1131 05ae 08E0     		b	.L71
 1132              	.L72:
 810:/home/fanxinhao/Work/LiteOS_Lab/drivers/third_party/ST/STM32L4xx_HAL_Driver/Src/stm32l4xx_hal_rcc.c ****         {
 811:/home/fanxinhao/Work/LiteOS_Lab/drivers/third_party/ST/STM32L4xx_HAL_Driver/Src/stm32l4xx_hal_rcc.c ****           if((HAL_GetTick() - tickstart) > PLL_TIMEOUT_VALUE)
 1133              		.loc 1 811 15
 1134 05b0 FFF7FEFF 		bl	HAL_GetTick
 1135 05b4 0246     		mov	r2, r0
 1136              		.loc 1 811 29
 1137 05b6 3B69     		ldr	r3, [r7, #16]
 1138 05b8 D31A     		subs	r3, r2, r3
 1139              		.loc 1 811 13
 1140 05ba 022B     		cmp	r3, #2
 1141 05bc 01D9     		bls	.L71
 812:/home/fanxinhao/Work/LiteOS_Lab/drivers/third_party/ST/STM32L4xx_HAL_Driver/Src/stm32l4xx_hal_rcc.c ****           {
 813:/home/fanxinhao/Work/LiteOS_Lab/drivers/third_party/ST/STM32L4xx_HAL_Driver/Src/stm32l4xx_hal_rcc.c ****             return HAL_TIMEOUT;
 1142              		.loc 1 813 20
 1143 05be 0323     		movs	r3, #3
 1144 05c0 7AE0     		b	.L16
 1145              	.L71:
 809:/home/fanxinhao/Work/LiteOS_Lab/drivers/third_party/ST/STM32L4xx_HAL_Driver/Src/stm32l4xx_hal_rcc.c ****         {
 1146              		.loc 1 809 15
 1147 05c2 3F4B     		ldr	r3, .L83
 1148 05c4 1B68     		ldr	r3, [r3]
 1149 05c6 03F00073 		and	r3, r3, #33554432
 809:/home/fanxinhao/Work/LiteOS_Lab/drivers/third_party/ST/STM32L4xx_HAL_Driver/Src/stm32l4xx_hal_rcc.c ****         {
 1150              		.loc 1 809 14
 1151 05ca 002B     		cmp	r3, #0
ARM GAS  /tmp/ccuQhhnt.s 			page 36


 1152 05cc F0D1     		bne	.L72
 814:/home/fanxinhao/Work/LiteOS_Lab/drivers/third_party/ST/STM32L4xx_HAL_Driver/Src/stm32l4xx_hal_rcc.c ****           }
 815:/home/fanxinhao/Work/LiteOS_Lab/drivers/third_party/ST/STM32L4xx_HAL_Driver/Src/stm32l4xx_hal_rcc.c ****         }
 816:/home/fanxinhao/Work/LiteOS_Lab/drivers/third_party/ST/STM32L4xx_HAL_Driver/Src/stm32l4xx_hal_rcc.c **** 
 817:/home/fanxinhao/Work/LiteOS_Lab/drivers/third_party/ST/STM32L4xx_HAL_Driver/Src/stm32l4xx_hal_rcc.c ****         /* Configure the main PLL clock source, multiplication and division factors. */
 818:/home/fanxinhao/Work/LiteOS_Lab/drivers/third_party/ST/STM32L4xx_HAL_Driver/Src/stm32l4xx_hal_rcc.c ****         __HAL_RCC_PLL_CONFIG(RCC_OscInitStruct->PLL.PLLSource,
 1153              		.loc 1 818 9
 1154 05ce 7B68     		ldr	r3, [r7, #4]
 1155 05d0 1B6B     		ldr	r3, [r3, #48]
 1156 05d2 013B     		subs	r3, r3, #1
 1157 05d4 1A01     		lsls	r2, r3, #4
 1158 05d6 7B68     		ldr	r3, [r7, #4]
 1159 05d8 5B6B     		ldr	r3, [r3, #52]
 1160 05da 1B02     		lsls	r3, r3, #8
 1161 05dc 1A43     		orrs	r2, r2, r3
 1162 05de 7B68     		ldr	r3, [r7, #4]
 1163 05e0 9B6B     		ldr	r3, [r3, #56]
 1164 05e2 1B09     		lsrs	r3, r3, #4
 1165 05e4 5B04     		lsls	r3, r3, #17
 1166 05e6 1A43     		orrs	r2, r2, r3
 1167 05e8 7B68     		ldr	r3, [r7, #4]
 1168 05ea DB6A     		ldr	r3, [r3, #44]
 1169 05ec 1A43     		orrs	r2, r2, r3
 1170 05ee 7B68     		ldr	r3, [r7, #4]
 1171 05f0 DB6B     		ldr	r3, [r3, #60]
 1172 05f2 5B08     		lsrs	r3, r3, #1
 1173 05f4 013B     		subs	r3, r3, #1
 1174 05f6 5B05     		lsls	r3, r3, #21
 1175 05f8 1A43     		orrs	r2, r2, r3
 1176 05fa 7B68     		ldr	r3, [r7, #4]
 1177 05fc 1B6C     		ldr	r3, [r3, #64]
 1178 05fe 5B08     		lsrs	r3, r3, #1
 1179 0600 013B     		subs	r3, r3, #1
 1180 0602 5B06     		lsls	r3, r3, #25
 1181 0604 2E49     		ldr	r1, .L83
 1182 0606 1343     		orrs	r3, r3, r2
 1183 0608 CB60     		str	r3, [r1, #12]
 819:/home/fanxinhao/Work/LiteOS_Lab/drivers/third_party/ST/STM32L4xx_HAL_Driver/Src/stm32l4xx_hal_rcc.c ****                              RCC_OscInitStruct->PLL.PLLM,
 820:/home/fanxinhao/Work/LiteOS_Lab/drivers/third_party/ST/STM32L4xx_HAL_Driver/Src/stm32l4xx_hal_rcc.c ****                              RCC_OscInitStruct->PLL.PLLN,
 821:/home/fanxinhao/Work/LiteOS_Lab/drivers/third_party/ST/STM32L4xx_HAL_Driver/Src/stm32l4xx_hal_rcc.c ****                              RCC_OscInitStruct->PLL.PLLP,
 822:/home/fanxinhao/Work/LiteOS_Lab/drivers/third_party/ST/STM32L4xx_HAL_Driver/Src/stm32l4xx_hal_rcc.c ****                              RCC_OscInitStruct->PLL.PLLQ,
 823:/home/fanxinhao/Work/LiteOS_Lab/drivers/third_party/ST/STM32L4xx_HAL_Driver/Src/stm32l4xx_hal_rcc.c ****                              RCC_OscInitStruct->PLL.PLLR);
 824:/home/fanxinhao/Work/LiteOS_Lab/drivers/third_party/ST/STM32L4xx_HAL_Driver/Src/stm32l4xx_hal_rcc.c **** 
 825:/home/fanxinhao/Work/LiteOS_Lab/drivers/third_party/ST/STM32L4xx_HAL_Driver/Src/stm32l4xx_hal_rcc.c ****         /* Enable the main PLL. */
 826:/home/fanxinhao/Work/LiteOS_Lab/drivers/third_party/ST/STM32L4xx_HAL_Driver/Src/stm32l4xx_hal_rcc.c ****         __HAL_RCC_PLL_ENABLE();
 1184              		.loc 1 826 9
 1185 060a 2D4B     		ldr	r3, .L83
 1186 060c 1B68     		ldr	r3, [r3]
 1187 060e 2C4A     		ldr	r2, .L83
 1188 0610 43F08073 		orr	r3, r3, #16777216
 1189 0614 1360     		str	r3, [r2]
 827:/home/fanxinhao/Work/LiteOS_Lab/drivers/third_party/ST/STM32L4xx_HAL_Driver/Src/stm32l4xx_hal_rcc.c **** 
 828:/home/fanxinhao/Work/LiteOS_Lab/drivers/third_party/ST/STM32L4xx_HAL_Driver/Src/stm32l4xx_hal_rcc.c ****         /* Enable PLL System Clock output. */
 829:/home/fanxinhao/Work/LiteOS_Lab/drivers/third_party/ST/STM32L4xx_HAL_Driver/Src/stm32l4xx_hal_rcc.c ****          __HAL_RCC_PLLCLKOUT_ENABLE(RCC_PLL_SYSCLK);
 1190              		.loc 1 829 10
 1191 0616 2A4B     		ldr	r3, .L83
 1192 0618 DB68     		ldr	r3, [r3, #12]
ARM GAS  /tmp/ccuQhhnt.s 			page 37


 1193 061a 294A     		ldr	r2, .L83
 1194 061c 43F08073 		orr	r3, r3, #16777216
 1195 0620 D360     		str	r3, [r2, #12]
 830:/home/fanxinhao/Work/LiteOS_Lab/drivers/third_party/ST/STM32L4xx_HAL_Driver/Src/stm32l4xx_hal_rcc.c **** 
 831:/home/fanxinhao/Work/LiteOS_Lab/drivers/third_party/ST/STM32L4xx_HAL_Driver/Src/stm32l4xx_hal_rcc.c ****         /* Get Start Tick*/
 832:/home/fanxinhao/Work/LiteOS_Lab/drivers/third_party/ST/STM32L4xx_HAL_Driver/Src/stm32l4xx_hal_rcc.c ****         tickstart = HAL_GetTick();
 1196              		.loc 1 832 21
 1197 0622 FFF7FEFF 		bl	HAL_GetTick
 1198 0626 3861     		str	r0, [r7, #16]
 833:/home/fanxinhao/Work/LiteOS_Lab/drivers/third_party/ST/STM32L4xx_HAL_Driver/Src/stm32l4xx_hal_rcc.c **** 
 834:/home/fanxinhao/Work/LiteOS_Lab/drivers/third_party/ST/STM32L4xx_HAL_Driver/Src/stm32l4xx_hal_rcc.c ****         /* Wait till PLL is ready */
 835:/home/fanxinhao/Work/LiteOS_Lab/drivers/third_party/ST/STM32L4xx_HAL_Driver/Src/stm32l4xx_hal_rcc.c ****         while(READ_BIT(RCC->CR, RCC_CR_PLLRDY) == RESET)
 1199              		.loc 1 835 14
 1200 0628 08E0     		b	.L73
 1201              	.L74:
 836:/home/fanxinhao/Work/LiteOS_Lab/drivers/third_party/ST/STM32L4xx_HAL_Driver/Src/stm32l4xx_hal_rcc.c ****         {
 837:/home/fanxinhao/Work/LiteOS_Lab/drivers/third_party/ST/STM32L4xx_HAL_Driver/Src/stm32l4xx_hal_rcc.c ****           if((HAL_GetTick() - tickstart) > PLL_TIMEOUT_VALUE)
 1202              		.loc 1 837 15
 1203 062a FFF7FEFF 		bl	HAL_GetTick
 1204 062e 0246     		mov	r2, r0
 1205              		.loc 1 837 29
 1206 0630 3B69     		ldr	r3, [r7, #16]
 1207 0632 D31A     		subs	r3, r2, r3
 1208              		.loc 1 837 13
 1209 0634 022B     		cmp	r3, #2
 1210 0636 01D9     		bls	.L73
 838:/home/fanxinhao/Work/LiteOS_Lab/drivers/third_party/ST/STM32L4xx_HAL_Driver/Src/stm32l4xx_hal_rcc.c ****           {
 839:/home/fanxinhao/Work/LiteOS_Lab/drivers/third_party/ST/STM32L4xx_HAL_Driver/Src/stm32l4xx_hal_rcc.c ****             return HAL_TIMEOUT;
 1211              		.loc 1 839 20
 1212 0638 0323     		movs	r3, #3
 1213 063a 3DE0     		b	.L16
 1214              	.L73:
 835:/home/fanxinhao/Work/LiteOS_Lab/drivers/third_party/ST/STM32L4xx_HAL_Driver/Src/stm32l4xx_hal_rcc.c ****         {
 1215              		.loc 1 835 15
 1216 063c 204B     		ldr	r3, .L83
 1217 063e 1B68     		ldr	r3, [r3]
 1218 0640 03F00073 		and	r3, r3, #33554432
 835:/home/fanxinhao/Work/LiteOS_Lab/drivers/third_party/ST/STM32L4xx_HAL_Driver/Src/stm32l4xx_hal_rcc.c ****         {
 1219              		.loc 1 835 14
 1220 0644 002B     		cmp	r3, #0
 1221 0646 F0D0     		beq	.L74
 1222 0648 35E0     		b	.L68
 1223              	.L70:
 840:/home/fanxinhao/Work/LiteOS_Lab/drivers/third_party/ST/STM32L4xx_HAL_Driver/Src/stm32l4xx_hal_rcc.c ****           }
 841:/home/fanxinhao/Work/LiteOS_Lab/drivers/third_party/ST/STM32L4xx_HAL_Driver/Src/stm32l4xx_hal_rcc.c ****         }
 842:/home/fanxinhao/Work/LiteOS_Lab/drivers/third_party/ST/STM32L4xx_HAL_Driver/Src/stm32l4xx_hal_rcc.c ****       }
 843:/home/fanxinhao/Work/LiteOS_Lab/drivers/third_party/ST/STM32L4xx_HAL_Driver/Src/stm32l4xx_hal_rcc.c ****       else
 844:/home/fanxinhao/Work/LiteOS_Lab/drivers/third_party/ST/STM32L4xx_HAL_Driver/Src/stm32l4xx_hal_rcc.c ****       {
 845:/home/fanxinhao/Work/LiteOS_Lab/drivers/third_party/ST/STM32L4xx_HAL_Driver/Src/stm32l4xx_hal_rcc.c ****         /* Disable the main PLL. */
 846:/home/fanxinhao/Work/LiteOS_Lab/drivers/third_party/ST/STM32L4xx_HAL_Driver/Src/stm32l4xx_hal_rcc.c ****         __HAL_RCC_PLL_DISABLE();
 1224              		.loc 1 846 9
 1225 064a 1D4B     		ldr	r3, .L83
 1226 064c 1B68     		ldr	r3, [r3]
 1227 064e 1C4A     		ldr	r2, .L83
 1228 0650 23F08073 		bic	r3, r3, #16777216
 1229 0654 1360     		str	r3, [r2]
 847:/home/fanxinhao/Work/LiteOS_Lab/drivers/third_party/ST/STM32L4xx_HAL_Driver/Src/stm32l4xx_hal_rcc.c **** 
ARM GAS  /tmp/ccuQhhnt.s 			page 38


 848:/home/fanxinhao/Work/LiteOS_Lab/drivers/third_party/ST/STM32L4xx_HAL_Driver/Src/stm32l4xx_hal_rcc.c ****         /* Disable all PLL outputs to save power if no PLLs on */
 849:/home/fanxinhao/Work/LiteOS_Lab/drivers/third_party/ST/STM32L4xx_HAL_Driver/Src/stm32l4xx_hal_rcc.c ****         if((READ_BIT(RCC->CR, RCC_CR_PLLSAI1RDY) == RESET)
 1230              		.loc 1 849 13
 1231 0656 1A4B     		ldr	r3, .L83
 1232 0658 1B68     		ldr	r3, [r3]
 1233 065a 03F00063 		and	r3, r3, #134217728
 1234              		.loc 1 849 11
 1235 065e 002B     		cmp	r3, #0
 1236 0660 0BD1     		bne	.L75
 850:/home/fanxinhao/Work/LiteOS_Lab/drivers/third_party/ST/STM32L4xx_HAL_Driver/Src/stm32l4xx_hal_rcc.c **** #if defined(RCC_PLLSAI2_SUPPORT)
 851:/home/fanxinhao/Work/LiteOS_Lab/drivers/third_party/ST/STM32L4xx_HAL_Driver/Src/stm32l4xx_hal_rcc.c ****            &&
 852:/home/fanxinhao/Work/LiteOS_Lab/drivers/third_party/ST/STM32L4xx_HAL_Driver/Src/stm32l4xx_hal_rcc.c ****            (READ_BIT(RCC->CR, RCC_CR_PLLSAI2RDY) == RESET)
 1237              		.loc 1 852 13
 1238 0662 174B     		ldr	r3, .L83
 1239 0664 1B68     		ldr	r3, [r3]
 1240 0666 03F00053 		and	r3, r3, #536870912
 851:/home/fanxinhao/Work/LiteOS_Lab/drivers/third_party/ST/STM32L4xx_HAL_Driver/Src/stm32l4xx_hal_rcc.c ****            (READ_BIT(RCC->CR, RCC_CR_PLLSAI2RDY) == RESET)
 1241              		.loc 1 851 12
 1242 066a 002B     		cmp	r3, #0
 1243 066c 05D1     		bne	.L75
 853:/home/fanxinhao/Work/LiteOS_Lab/drivers/third_party/ST/STM32L4xx_HAL_Driver/Src/stm32l4xx_hal_rcc.c **** #endif /* RCC_PLLSAI2_SUPPORT */
 854:/home/fanxinhao/Work/LiteOS_Lab/drivers/third_party/ST/STM32L4xx_HAL_Driver/Src/stm32l4xx_hal_rcc.c ****           )
 855:/home/fanxinhao/Work/LiteOS_Lab/drivers/third_party/ST/STM32L4xx_HAL_Driver/Src/stm32l4xx_hal_rcc.c ****         {
 856:/home/fanxinhao/Work/LiteOS_Lab/drivers/third_party/ST/STM32L4xx_HAL_Driver/Src/stm32l4xx_hal_rcc.c ****           MODIFY_REG(RCC->PLLCFGR, RCC_PLLCFGR_PLLSRC, RCC_PLLSOURCE_NONE);
 1244              		.loc 1 856 11
 1245 066e 144B     		ldr	r3, .L83
 1246 0670 DB68     		ldr	r3, [r3, #12]
 1247 0672 134A     		ldr	r2, .L83
 1248 0674 23F00303 		bic	r3, r3, #3
 1249 0678 D360     		str	r3, [r2, #12]
 1250              	.L75:
 857:/home/fanxinhao/Work/LiteOS_Lab/drivers/third_party/ST/STM32L4xx_HAL_Driver/Src/stm32l4xx_hal_rcc.c ****         }
 858:/home/fanxinhao/Work/LiteOS_Lab/drivers/third_party/ST/STM32L4xx_HAL_Driver/Src/stm32l4xx_hal_rcc.c **** 
 859:/home/fanxinhao/Work/LiteOS_Lab/drivers/third_party/ST/STM32L4xx_HAL_Driver/Src/stm32l4xx_hal_rcc.c **** #if defined(RCC_PLLSAI2_SUPPORT)
 860:/home/fanxinhao/Work/LiteOS_Lab/drivers/third_party/ST/STM32L4xx_HAL_Driver/Src/stm32l4xx_hal_rcc.c ****         __HAL_RCC_PLLCLKOUT_DISABLE(RCC_PLL_SYSCLK | RCC_PLL_48M1CLK | RCC_PLL_SAI3CLK);
 1251              		.loc 1 860 9
 1252 067a 114B     		ldr	r3, .L83
 1253 067c DB68     		ldr	r3, [r3, #12]
 1254 067e 104A     		ldr	r2, .L83
 1255 0680 23F08873 		bic	r3, r3, #17825792
 1256 0684 23F48033 		bic	r3, r3, #65536
 1257 0688 D360     		str	r3, [r2, #12]
 861:/home/fanxinhao/Work/LiteOS_Lab/drivers/third_party/ST/STM32L4xx_HAL_Driver/Src/stm32l4xx_hal_rcc.c **** #else
 862:/home/fanxinhao/Work/LiteOS_Lab/drivers/third_party/ST/STM32L4xx_HAL_Driver/Src/stm32l4xx_hal_rcc.c ****         __HAL_RCC_PLLCLKOUT_DISABLE(RCC_PLL_SYSCLK | RCC_PLL_48M1CLK | RCC_PLL_SAI2CLK);
 863:/home/fanxinhao/Work/LiteOS_Lab/drivers/third_party/ST/STM32L4xx_HAL_Driver/Src/stm32l4xx_hal_rcc.c **** #endif /* RCC_PLLSAI2_SUPPORT */
 864:/home/fanxinhao/Work/LiteOS_Lab/drivers/third_party/ST/STM32L4xx_HAL_Driver/Src/stm32l4xx_hal_rcc.c **** 
 865:/home/fanxinhao/Work/LiteOS_Lab/drivers/third_party/ST/STM32L4xx_HAL_Driver/Src/stm32l4xx_hal_rcc.c ****         /* Get Start Tick*/
 866:/home/fanxinhao/Work/LiteOS_Lab/drivers/third_party/ST/STM32L4xx_HAL_Driver/Src/stm32l4xx_hal_rcc.c ****         tickstart = HAL_GetTick();
 1258              		.loc 1 866 21
 1259 068a FFF7FEFF 		bl	HAL_GetTick
 1260 068e 3861     		str	r0, [r7, #16]
 867:/home/fanxinhao/Work/LiteOS_Lab/drivers/third_party/ST/STM32L4xx_HAL_Driver/Src/stm32l4xx_hal_rcc.c **** 
 868:/home/fanxinhao/Work/LiteOS_Lab/drivers/third_party/ST/STM32L4xx_HAL_Driver/Src/stm32l4xx_hal_rcc.c ****         /* Wait till PLL is disabled */
 869:/home/fanxinhao/Work/LiteOS_Lab/drivers/third_party/ST/STM32L4xx_HAL_Driver/Src/stm32l4xx_hal_rcc.c ****         while(READ_BIT(RCC->CR, RCC_CR_PLLRDY) != RESET)
 1261              		.loc 1 869 14
 1262 0690 08E0     		b	.L76
 1263              	.L77:
ARM GAS  /tmp/ccuQhhnt.s 			page 39


 870:/home/fanxinhao/Work/LiteOS_Lab/drivers/third_party/ST/STM32L4xx_HAL_Driver/Src/stm32l4xx_hal_rcc.c ****         {
 871:/home/fanxinhao/Work/LiteOS_Lab/drivers/third_party/ST/STM32L4xx_HAL_Driver/Src/stm32l4xx_hal_rcc.c ****           if((HAL_GetTick() - tickstart) > PLL_TIMEOUT_VALUE)
 1264              		.loc 1 871 15
 1265 0692 FFF7FEFF 		bl	HAL_GetTick
 1266 0696 0246     		mov	r2, r0
 1267              		.loc 1 871 29
 1268 0698 3B69     		ldr	r3, [r7, #16]
 1269 069a D31A     		subs	r3, r2, r3
 1270              		.loc 1 871 13
 1271 069c 022B     		cmp	r3, #2
 1272 069e 01D9     		bls	.L76
 872:/home/fanxinhao/Work/LiteOS_Lab/drivers/third_party/ST/STM32L4xx_HAL_Driver/Src/stm32l4xx_hal_rcc.c ****           {
 873:/home/fanxinhao/Work/LiteOS_Lab/drivers/third_party/ST/STM32L4xx_HAL_Driver/Src/stm32l4xx_hal_rcc.c ****             return HAL_TIMEOUT;
 1273              		.loc 1 873 20
 1274 06a0 0323     		movs	r3, #3
 1275 06a2 09E0     		b	.L16
 1276              	.L76:
 869:/home/fanxinhao/Work/LiteOS_Lab/drivers/third_party/ST/STM32L4xx_HAL_Driver/Src/stm32l4xx_hal_rcc.c ****         {
 1277              		.loc 1 869 15
 1278 06a4 064B     		ldr	r3, .L83
 1279 06a6 1B68     		ldr	r3, [r3]
 1280 06a8 03F00073 		and	r3, r3, #33554432
 869:/home/fanxinhao/Work/LiteOS_Lab/drivers/third_party/ST/STM32L4xx_HAL_Driver/Src/stm32l4xx_hal_rcc.c ****         {
 1281              		.loc 1 869 14
 1282 06ac 002B     		cmp	r3, #0
 1283 06ae F0D1     		bne	.L77
 1284 06b0 01E0     		b	.L68
 1285              	.L69:
 874:/home/fanxinhao/Work/LiteOS_Lab/drivers/third_party/ST/STM32L4xx_HAL_Driver/Src/stm32l4xx_hal_rcc.c ****           }
 875:/home/fanxinhao/Work/LiteOS_Lab/drivers/third_party/ST/STM32L4xx_HAL_Driver/Src/stm32l4xx_hal_rcc.c ****         }
 876:/home/fanxinhao/Work/LiteOS_Lab/drivers/third_party/ST/STM32L4xx_HAL_Driver/Src/stm32l4xx_hal_rcc.c ****       }
 877:/home/fanxinhao/Work/LiteOS_Lab/drivers/third_party/ST/STM32L4xx_HAL_Driver/Src/stm32l4xx_hal_rcc.c ****     }
 878:/home/fanxinhao/Work/LiteOS_Lab/drivers/third_party/ST/STM32L4xx_HAL_Driver/Src/stm32l4xx_hal_rcc.c ****     else
 879:/home/fanxinhao/Work/LiteOS_Lab/drivers/third_party/ST/STM32L4xx_HAL_Driver/Src/stm32l4xx_hal_rcc.c ****     {
 880:/home/fanxinhao/Work/LiteOS_Lab/drivers/third_party/ST/STM32L4xx_HAL_Driver/Src/stm32l4xx_hal_rcc.c ****       return HAL_ERROR;
 1286              		.loc 1 880 14
 1287 06b2 0123     		movs	r3, #1
 1288 06b4 00E0     		b	.L16
 1289              	.L68:
 881:/home/fanxinhao/Work/LiteOS_Lab/drivers/third_party/ST/STM32L4xx_HAL_Driver/Src/stm32l4xx_hal_rcc.c ****     }
 882:/home/fanxinhao/Work/LiteOS_Lab/drivers/third_party/ST/STM32L4xx_HAL_Driver/Src/stm32l4xx_hal_rcc.c ****   }
 883:/home/fanxinhao/Work/LiteOS_Lab/drivers/third_party/ST/STM32L4xx_HAL_Driver/Src/stm32l4xx_hal_rcc.c ****   return HAL_OK;
 1290              		.loc 1 883 10
 1291 06b6 0023     		movs	r3, #0
 1292              	.L16:
 884:/home/fanxinhao/Work/LiteOS_Lab/drivers/third_party/ST/STM32L4xx_HAL_Driver/Src/stm32l4xx_hal_rcc.c **** }
 1293              		.loc 1 884 1
 1294 06b8 1846     		mov	r0, r3
 1295 06ba 1837     		adds	r7, r7, #24
 1296              	.LCFI8:
 1297              		.cfi_def_cfa_offset 8
 1298 06bc BD46     		mov	sp, r7
 1299              	.LCFI9:
 1300              		.cfi_def_cfa_register 13
 1301              		@ sp needed
 1302 06be 80BD     		pop	{r7, pc}
 1303              	.L84:
ARM GAS  /tmp/ccuQhhnt.s 			page 40


 1304              		.align	2
 1305              	.L83:
 1306 06c0 00100240 		.word	1073876992
 1307              		.cfi_endproc
 1308              	.LFE127:
 1310              		.section	.text.HAL_RCC_ClockConfig,"ax",%progbits
 1311              		.align	1
 1312              		.global	HAL_RCC_ClockConfig
 1313              		.syntax unified
 1314              		.thumb
 1315              		.thumb_func
 1316              		.fpu fpv4-sp-d16
 1318              	HAL_RCC_ClockConfig:
 1319              	.LFB128:
 885:/home/fanxinhao/Work/LiteOS_Lab/drivers/third_party/ST/STM32L4xx_HAL_Driver/Src/stm32l4xx_hal_rcc.c **** 
 886:/home/fanxinhao/Work/LiteOS_Lab/drivers/third_party/ST/STM32L4xx_HAL_Driver/Src/stm32l4xx_hal_rcc.c **** /**
 887:/home/fanxinhao/Work/LiteOS_Lab/drivers/third_party/ST/STM32L4xx_HAL_Driver/Src/stm32l4xx_hal_rcc.c ****   * @brief  Initialize the CPU, AHB and APB busses clocks according to the specified
 888:/home/fanxinhao/Work/LiteOS_Lab/drivers/third_party/ST/STM32L4xx_HAL_Driver/Src/stm32l4xx_hal_rcc.c ****   *         parameters in the RCC_ClkInitStruct.
 889:/home/fanxinhao/Work/LiteOS_Lab/drivers/third_party/ST/STM32L4xx_HAL_Driver/Src/stm32l4xx_hal_rcc.c ****   * @param  RCC_ClkInitStruct  pointer to an RCC_OscInitTypeDef structure that
 890:/home/fanxinhao/Work/LiteOS_Lab/drivers/third_party/ST/STM32L4xx_HAL_Driver/Src/stm32l4xx_hal_rcc.c ****   *         contains the configuration information for the RCC peripheral.
 891:/home/fanxinhao/Work/LiteOS_Lab/drivers/third_party/ST/STM32L4xx_HAL_Driver/Src/stm32l4xx_hal_rcc.c ****   * @param  FLatency  FLASH Latency
 892:/home/fanxinhao/Work/LiteOS_Lab/drivers/third_party/ST/STM32L4xx_HAL_Driver/Src/stm32l4xx_hal_rcc.c ****   *          This parameter can be one of the following values:
 893:/home/fanxinhao/Work/LiteOS_Lab/drivers/third_party/ST/STM32L4xx_HAL_Driver/Src/stm32l4xx_hal_rcc.c ****   *            @arg FLASH_LATENCY_0   FLASH 0 Latency cycle
 894:/home/fanxinhao/Work/LiteOS_Lab/drivers/third_party/ST/STM32L4xx_HAL_Driver/Src/stm32l4xx_hal_rcc.c ****   *            @arg FLASH_LATENCY_1   FLASH 1 Latency cycle
 895:/home/fanxinhao/Work/LiteOS_Lab/drivers/third_party/ST/STM32L4xx_HAL_Driver/Src/stm32l4xx_hal_rcc.c ****   *            @arg FLASH_LATENCY_2   FLASH 2 Latency cycles
 896:/home/fanxinhao/Work/LiteOS_Lab/drivers/third_party/ST/STM32L4xx_HAL_Driver/Src/stm32l4xx_hal_rcc.c ****   *            @arg FLASH_LATENCY_3   FLASH 3 Latency cycles
 897:/home/fanxinhao/Work/LiteOS_Lab/drivers/third_party/ST/STM32L4xx_HAL_Driver/Src/stm32l4xx_hal_rcc.c ****   *            @arg FLASH_LATENCY_4   FLASH 4 Latency cycles
 898:/home/fanxinhao/Work/LiteOS_Lab/drivers/third_party/ST/STM32L4xx_HAL_Driver/Src/stm32l4xx_hal_rcc.c ****   @if STM32L4S9xx
 899:/home/fanxinhao/Work/LiteOS_Lab/drivers/third_party/ST/STM32L4xx_HAL_Driver/Src/stm32l4xx_hal_rcc.c ****   *            @arg FLASH_LATENCY_5   FLASH 5 Latency cycles
 900:/home/fanxinhao/Work/LiteOS_Lab/drivers/third_party/ST/STM32L4xx_HAL_Driver/Src/stm32l4xx_hal_rcc.c ****   *            @arg FLASH_LATENCY_6   FLASH 6 Latency cycles
 901:/home/fanxinhao/Work/LiteOS_Lab/drivers/third_party/ST/STM32L4xx_HAL_Driver/Src/stm32l4xx_hal_rcc.c ****   *            @arg FLASH_LATENCY_7   FLASH 7 Latency cycles
 902:/home/fanxinhao/Work/LiteOS_Lab/drivers/third_party/ST/STM32L4xx_HAL_Driver/Src/stm32l4xx_hal_rcc.c ****   *            @arg FLASH_LATENCY_8   FLASH 8 Latency cycles
 903:/home/fanxinhao/Work/LiteOS_Lab/drivers/third_party/ST/STM32L4xx_HAL_Driver/Src/stm32l4xx_hal_rcc.c ****   *            @arg FLASH_LATENCY_9   FLASH 9 Latency cycles
 904:/home/fanxinhao/Work/LiteOS_Lab/drivers/third_party/ST/STM32L4xx_HAL_Driver/Src/stm32l4xx_hal_rcc.c ****   *            @arg FLASH_LATENCY_10  FLASH 10 Latency cycles
 905:/home/fanxinhao/Work/LiteOS_Lab/drivers/third_party/ST/STM32L4xx_HAL_Driver/Src/stm32l4xx_hal_rcc.c ****   *            @arg FLASH_LATENCY_11  FLASH 11 Latency cycles
 906:/home/fanxinhao/Work/LiteOS_Lab/drivers/third_party/ST/STM32L4xx_HAL_Driver/Src/stm32l4xx_hal_rcc.c ****   *            @arg FLASH_LATENCY_12  FLASH 12 Latency cycles
 907:/home/fanxinhao/Work/LiteOS_Lab/drivers/third_party/ST/STM32L4xx_HAL_Driver/Src/stm32l4xx_hal_rcc.c ****   *            @arg FLASH_LATENCY_13  FLASH 13 Latency cycles
 908:/home/fanxinhao/Work/LiteOS_Lab/drivers/third_party/ST/STM32L4xx_HAL_Driver/Src/stm32l4xx_hal_rcc.c ****   *            @arg FLASH_LATENCY_14  FLASH 14 Latency cycles
 909:/home/fanxinhao/Work/LiteOS_Lab/drivers/third_party/ST/STM32L4xx_HAL_Driver/Src/stm32l4xx_hal_rcc.c ****   *            @arg FLASH_LATENCY_15  FLASH 15 Latency cycles
 910:/home/fanxinhao/Work/LiteOS_Lab/drivers/third_party/ST/STM32L4xx_HAL_Driver/Src/stm32l4xx_hal_rcc.c ****   @endif
 911:/home/fanxinhao/Work/LiteOS_Lab/drivers/third_party/ST/STM32L4xx_HAL_Driver/Src/stm32l4xx_hal_rcc.c ****   *
 912:/home/fanxinhao/Work/LiteOS_Lab/drivers/third_party/ST/STM32L4xx_HAL_Driver/Src/stm32l4xx_hal_rcc.c ****   * @note   The SystemCoreClock CMSIS variable is used to store System Clock Frequency
 913:/home/fanxinhao/Work/LiteOS_Lab/drivers/third_party/ST/STM32L4xx_HAL_Driver/Src/stm32l4xx_hal_rcc.c ****   *         and updated by HAL_RCC_GetHCLKFreq() function called within this function
 914:/home/fanxinhao/Work/LiteOS_Lab/drivers/third_party/ST/STM32L4xx_HAL_Driver/Src/stm32l4xx_hal_rcc.c ****   *
 915:/home/fanxinhao/Work/LiteOS_Lab/drivers/third_party/ST/STM32L4xx_HAL_Driver/Src/stm32l4xx_hal_rcc.c ****   * @note   The MSI is used by default as system clock source after
 916:/home/fanxinhao/Work/LiteOS_Lab/drivers/third_party/ST/STM32L4xx_HAL_Driver/Src/stm32l4xx_hal_rcc.c ****   *         startup from Reset, wake-up from STANDBY mode. After restart from Reset,
 917:/home/fanxinhao/Work/LiteOS_Lab/drivers/third_party/ST/STM32L4xx_HAL_Driver/Src/stm32l4xx_hal_rcc.c ****   *         the MSI frequency is set to its default value 4 MHz.
 918:/home/fanxinhao/Work/LiteOS_Lab/drivers/third_party/ST/STM32L4xx_HAL_Driver/Src/stm32l4xx_hal_rcc.c ****   *
 919:/home/fanxinhao/Work/LiteOS_Lab/drivers/third_party/ST/STM32L4xx_HAL_Driver/Src/stm32l4xx_hal_rcc.c ****   * @note   The HSI can be selected as system clock source after
 920:/home/fanxinhao/Work/LiteOS_Lab/drivers/third_party/ST/STM32L4xx_HAL_Driver/Src/stm32l4xx_hal_rcc.c ****   *         from STOP modes or in case of failure of the HSE used directly or indirectly
 921:/home/fanxinhao/Work/LiteOS_Lab/drivers/third_party/ST/STM32L4xx_HAL_Driver/Src/stm32l4xx_hal_rcc.c ****   *         as system clock (if the Clock Security System CSS is enabled).
 922:/home/fanxinhao/Work/LiteOS_Lab/drivers/third_party/ST/STM32L4xx_HAL_Driver/Src/stm32l4xx_hal_rcc.c ****   *
 923:/home/fanxinhao/Work/LiteOS_Lab/drivers/third_party/ST/STM32L4xx_HAL_Driver/Src/stm32l4xx_hal_rcc.c ****   * @note   A switch from one clock source to another occurs only if the target
 924:/home/fanxinhao/Work/LiteOS_Lab/drivers/third_party/ST/STM32L4xx_HAL_Driver/Src/stm32l4xx_hal_rcc.c ****   *         clock source is ready (clock stable after startup delay or PLL locked).
 925:/home/fanxinhao/Work/LiteOS_Lab/drivers/third_party/ST/STM32L4xx_HAL_Driver/Src/stm32l4xx_hal_rcc.c ****   *         If a clock source which is not yet ready is selected, the switch will
 926:/home/fanxinhao/Work/LiteOS_Lab/drivers/third_party/ST/STM32L4xx_HAL_Driver/Src/stm32l4xx_hal_rcc.c ****   *         occur when the clock source is ready.
 927:/home/fanxinhao/Work/LiteOS_Lab/drivers/third_party/ST/STM32L4xx_HAL_Driver/Src/stm32l4xx_hal_rcc.c ****   *
ARM GAS  /tmp/ccuQhhnt.s 			page 41


 928:/home/fanxinhao/Work/LiteOS_Lab/drivers/third_party/ST/STM32L4xx_HAL_Driver/Src/stm32l4xx_hal_rcc.c ****   * @note   You can use HAL_RCC_GetClockConfig() function to know which clock is
 929:/home/fanxinhao/Work/LiteOS_Lab/drivers/third_party/ST/STM32L4xx_HAL_Driver/Src/stm32l4xx_hal_rcc.c ****   *         currently used as system clock source.
 930:/home/fanxinhao/Work/LiteOS_Lab/drivers/third_party/ST/STM32L4xx_HAL_Driver/Src/stm32l4xx_hal_rcc.c ****   *
 931:/home/fanxinhao/Work/LiteOS_Lab/drivers/third_party/ST/STM32L4xx_HAL_Driver/Src/stm32l4xx_hal_rcc.c ****   * @note   Depending on the device voltage range, the software has to set correctly
 932:/home/fanxinhao/Work/LiteOS_Lab/drivers/third_party/ST/STM32L4xx_HAL_Driver/Src/stm32l4xx_hal_rcc.c ****   *         HPRE[3:0] bits to ensure that HCLK not exceed the maximum allowed frequency
 933:/home/fanxinhao/Work/LiteOS_Lab/drivers/third_party/ST/STM32L4xx_HAL_Driver/Src/stm32l4xx_hal_rcc.c ****   *         (for more details refer to section above "Initialization/de-initialization functions")
 934:/home/fanxinhao/Work/LiteOS_Lab/drivers/third_party/ST/STM32L4xx_HAL_Driver/Src/stm32l4xx_hal_rcc.c ****   * @retval None
 935:/home/fanxinhao/Work/LiteOS_Lab/drivers/third_party/ST/STM32L4xx_HAL_Driver/Src/stm32l4xx_hal_rcc.c ****   */
 936:/home/fanxinhao/Work/LiteOS_Lab/drivers/third_party/ST/STM32L4xx_HAL_Driver/Src/stm32l4xx_hal_rcc.c **** HAL_StatusTypeDef HAL_RCC_ClockConfig(RCC_ClkInitTypeDef  *RCC_ClkInitStruct, uint32_t FLatency)
 937:/home/fanxinhao/Work/LiteOS_Lab/drivers/third_party/ST/STM32L4xx_HAL_Driver/Src/stm32l4xx_hal_rcc.c **** {
 1320              		.loc 1 937 1
 1321              		.cfi_startproc
 1322              		@ args = 0, pretend = 0, frame = 16
 1323              		@ frame_needed = 1, uses_anonymous_args = 0
 1324 0000 80B5     		push	{r7, lr}
 1325              	.LCFI10:
 1326              		.cfi_def_cfa_offset 8
 1327              		.cfi_offset 7, -8
 1328              		.cfi_offset 14, -4
 1329 0002 84B0     		sub	sp, sp, #16
 1330              	.LCFI11:
 1331              		.cfi_def_cfa_offset 24
 1332 0004 00AF     		add	r7, sp, #0
 1333              	.LCFI12:
 1334              		.cfi_def_cfa_register 7
 1335 0006 7860     		str	r0, [r7, #4]
 1336 0008 3960     		str	r1, [r7]
 938:/home/fanxinhao/Work/LiteOS_Lab/drivers/third_party/ST/STM32L4xx_HAL_Driver/Src/stm32l4xx_hal_rcc.c ****   uint32_t tickstart = 0;
 1337              		.loc 1 938 12
 1338 000a 0023     		movs	r3, #0
 1339 000c FB60     		str	r3, [r7, #12]
 939:/home/fanxinhao/Work/LiteOS_Lab/drivers/third_party/ST/STM32L4xx_HAL_Driver/Src/stm32l4xx_hal_rcc.c **** #if defined(STM32L4R5xx) || defined(STM32L4R7xx) || defined(STM32L4R9xx) || defined(STM32L4S5xx) ||
 940:/home/fanxinhao/Work/LiteOS_Lab/drivers/third_party/ST/STM32L4xx_HAL_Driver/Src/stm32l4xx_hal_rcc.c ****   uint32_t pllfreq = 0;
 941:/home/fanxinhao/Work/LiteOS_Lab/drivers/third_party/ST/STM32L4xx_HAL_Driver/Src/stm32l4xx_hal_rcc.c ****   uint32_t hpre = RCC_SYSCLK_DIV1;
 942:/home/fanxinhao/Work/LiteOS_Lab/drivers/third_party/ST/STM32L4xx_HAL_Driver/Src/stm32l4xx_hal_rcc.c **** #endif
 943:/home/fanxinhao/Work/LiteOS_Lab/drivers/third_party/ST/STM32L4xx_HAL_Driver/Src/stm32l4xx_hal_rcc.c **** 
 944:/home/fanxinhao/Work/LiteOS_Lab/drivers/third_party/ST/STM32L4xx_HAL_Driver/Src/stm32l4xx_hal_rcc.c ****   /* Check the parameters */
 945:/home/fanxinhao/Work/LiteOS_Lab/drivers/third_party/ST/STM32L4xx_HAL_Driver/Src/stm32l4xx_hal_rcc.c ****   assert_param(RCC_ClkInitStruct != NULL);
 946:/home/fanxinhao/Work/LiteOS_Lab/drivers/third_party/ST/STM32L4xx_HAL_Driver/Src/stm32l4xx_hal_rcc.c ****   assert_param(IS_RCC_CLOCKTYPE(RCC_ClkInitStruct->ClockType));
 947:/home/fanxinhao/Work/LiteOS_Lab/drivers/third_party/ST/STM32L4xx_HAL_Driver/Src/stm32l4xx_hal_rcc.c ****   assert_param(IS_FLASH_LATENCY(FLatency));
 948:/home/fanxinhao/Work/LiteOS_Lab/drivers/third_party/ST/STM32L4xx_HAL_Driver/Src/stm32l4xx_hal_rcc.c **** 
 949:/home/fanxinhao/Work/LiteOS_Lab/drivers/third_party/ST/STM32L4xx_HAL_Driver/Src/stm32l4xx_hal_rcc.c ****   /* To correctly read data from FLASH memory, the number of wait states (LATENCY)
 950:/home/fanxinhao/Work/LiteOS_Lab/drivers/third_party/ST/STM32L4xx_HAL_Driver/Src/stm32l4xx_hal_rcc.c ****     must be correctly programmed according to the frequency of the CPU clock
 951:/home/fanxinhao/Work/LiteOS_Lab/drivers/third_party/ST/STM32L4xx_HAL_Driver/Src/stm32l4xx_hal_rcc.c ****     (HCLK) and the supply voltage of the device. */
 952:/home/fanxinhao/Work/LiteOS_Lab/drivers/third_party/ST/STM32L4xx_HAL_Driver/Src/stm32l4xx_hal_rcc.c **** 
 953:/home/fanxinhao/Work/LiteOS_Lab/drivers/third_party/ST/STM32L4xx_HAL_Driver/Src/stm32l4xx_hal_rcc.c ****   /* Increasing the number of wait states because of higher CPU frequency */
 954:/home/fanxinhao/Work/LiteOS_Lab/drivers/third_party/ST/STM32L4xx_HAL_Driver/Src/stm32l4xx_hal_rcc.c ****   if(FLatency > READ_BIT(FLASH->ACR, FLASH_ACR_LATENCY))
 1340              		.loc 1 954 17
 1341 000e 844B     		ldr	r3, .L108
 1342 0010 1B68     		ldr	r3, [r3]
 1343 0012 03F00703 		and	r3, r3, #7
 1344              		.loc 1 954 5
 1345 0016 3A68     		ldr	r2, [r7]
 1346 0018 9A42     		cmp	r2, r3
 1347 001a 10D9     		bls	.L86
 955:/home/fanxinhao/Work/LiteOS_Lab/drivers/third_party/ST/STM32L4xx_HAL_Driver/Src/stm32l4xx_hal_rcc.c ****   {
 956:/home/fanxinhao/Work/LiteOS_Lab/drivers/third_party/ST/STM32L4xx_HAL_Driver/Src/stm32l4xx_hal_rcc.c ****     /* Program the new number of wait states to the LATENCY bits in the FLASH_ACR register */
ARM GAS  /tmp/ccuQhhnt.s 			page 42


 957:/home/fanxinhao/Work/LiteOS_Lab/drivers/third_party/ST/STM32L4xx_HAL_Driver/Src/stm32l4xx_hal_rcc.c ****     __HAL_FLASH_SET_LATENCY(FLatency);
 1348              		.loc 1 957 5
 1349 001c 804B     		ldr	r3, .L108
 1350 001e 1B68     		ldr	r3, [r3]
 1351 0020 23F00702 		bic	r2, r3, #7
 1352 0024 7E49     		ldr	r1, .L108
 1353 0026 3B68     		ldr	r3, [r7]
 1354 0028 1343     		orrs	r3, r3, r2
 1355 002a 0B60     		str	r3, [r1]
 958:/home/fanxinhao/Work/LiteOS_Lab/drivers/third_party/ST/STM32L4xx_HAL_Driver/Src/stm32l4xx_hal_rcc.c **** 
 959:/home/fanxinhao/Work/LiteOS_Lab/drivers/third_party/ST/STM32L4xx_HAL_Driver/Src/stm32l4xx_hal_rcc.c ****     /* Check that the new number of wait states is taken into account to access the Flash
 960:/home/fanxinhao/Work/LiteOS_Lab/drivers/third_party/ST/STM32L4xx_HAL_Driver/Src/stm32l4xx_hal_rcc.c ****     memory by reading the FLASH_ACR register */
 961:/home/fanxinhao/Work/LiteOS_Lab/drivers/third_party/ST/STM32L4xx_HAL_Driver/Src/stm32l4xx_hal_rcc.c ****     if(READ_BIT(FLASH->ACR, FLASH_ACR_LATENCY) != FLatency)
 1356              		.loc 1 961 8
 1357 002c 7C4B     		ldr	r3, .L108
 1358 002e 1B68     		ldr	r3, [r3]
 1359 0030 03F00703 		and	r3, r3, #7
 1360              		.loc 1 961 7
 1361 0034 3A68     		ldr	r2, [r7]
 1362 0036 9A42     		cmp	r2, r3
 1363 0038 01D0     		beq	.L86
 962:/home/fanxinhao/Work/LiteOS_Lab/drivers/third_party/ST/STM32L4xx_HAL_Driver/Src/stm32l4xx_hal_rcc.c ****     {
 963:/home/fanxinhao/Work/LiteOS_Lab/drivers/third_party/ST/STM32L4xx_HAL_Driver/Src/stm32l4xx_hal_rcc.c ****       return HAL_ERROR;
 1364              		.loc 1 963 14
 1365 003a 0123     		movs	r3, #1
 1366 003c ECE0     		b	.L87
 1367              	.L86:
 964:/home/fanxinhao/Work/LiteOS_Lab/drivers/third_party/ST/STM32L4xx_HAL_Driver/Src/stm32l4xx_hal_rcc.c ****     }
 965:/home/fanxinhao/Work/LiteOS_Lab/drivers/third_party/ST/STM32L4xx_HAL_Driver/Src/stm32l4xx_hal_rcc.c ****   }
 966:/home/fanxinhao/Work/LiteOS_Lab/drivers/third_party/ST/STM32L4xx_HAL_Driver/Src/stm32l4xx_hal_rcc.c **** 
 967:/home/fanxinhao/Work/LiteOS_Lab/drivers/third_party/ST/STM32L4xx_HAL_Driver/Src/stm32l4xx_hal_rcc.c ****   /*------------------------- SYSCLK Configuration ---------------------------*/
 968:/home/fanxinhao/Work/LiteOS_Lab/drivers/third_party/ST/STM32L4xx_HAL_Driver/Src/stm32l4xx_hal_rcc.c ****   if(((RCC_ClkInitStruct->ClockType) & RCC_CLOCKTYPE_SYSCLK) == RCC_CLOCKTYPE_SYSCLK)
 1368              		.loc 1 968 25
 1369 003e 7B68     		ldr	r3, [r7, #4]
 1370 0040 1B68     		ldr	r3, [r3]
 1371              		.loc 1 968 38
 1372 0042 03F00103 		and	r3, r3, #1
 1373              		.loc 1 968 5
 1374 0046 002B     		cmp	r3, #0
 1375 0048 00F08E80 		beq	.L88
 969:/home/fanxinhao/Work/LiteOS_Lab/drivers/third_party/ST/STM32L4xx_HAL_Driver/Src/stm32l4xx_hal_rcc.c ****   {
 970:/home/fanxinhao/Work/LiteOS_Lab/drivers/third_party/ST/STM32L4xx_HAL_Driver/Src/stm32l4xx_hal_rcc.c ****     assert_param(IS_RCC_SYSCLKSOURCE(RCC_ClkInitStruct->SYSCLKSource));
 971:/home/fanxinhao/Work/LiteOS_Lab/drivers/third_party/ST/STM32L4xx_HAL_Driver/Src/stm32l4xx_hal_rcc.c **** 
 972:/home/fanxinhao/Work/LiteOS_Lab/drivers/third_party/ST/STM32L4xx_HAL_Driver/Src/stm32l4xx_hal_rcc.c ****     /* PLL is selected as System Clock Source */
 973:/home/fanxinhao/Work/LiteOS_Lab/drivers/third_party/ST/STM32L4xx_HAL_Driver/Src/stm32l4xx_hal_rcc.c ****     if(RCC_ClkInitStruct->SYSCLKSource == RCC_SYSCLKSOURCE_PLLCLK)
 1376              		.loc 1 973 25
 1377 004c 7B68     		ldr	r3, [r7, #4]
 1378 004e 5B68     		ldr	r3, [r3, #4]
 1379              		.loc 1 973 7
 1380 0050 032B     		cmp	r3, #3
 1381 0052 07D1     		bne	.L89
 974:/home/fanxinhao/Work/LiteOS_Lab/drivers/third_party/ST/STM32L4xx_HAL_Driver/Src/stm32l4xx_hal_rcc.c ****     {
 975:/home/fanxinhao/Work/LiteOS_Lab/drivers/third_party/ST/STM32L4xx_HAL_Driver/Src/stm32l4xx_hal_rcc.c ****       /* Check the PLL ready flag */
 976:/home/fanxinhao/Work/LiteOS_Lab/drivers/third_party/ST/STM32L4xx_HAL_Driver/Src/stm32l4xx_hal_rcc.c ****       if(READ_BIT(RCC->CR, RCC_CR_PLLRDY) == RESET)
 1382              		.loc 1 976 10
 1383 0054 734B     		ldr	r3, .L108+4
 1384 0056 1B68     		ldr	r3, [r3]
ARM GAS  /tmp/ccuQhhnt.s 			page 43


 1385 0058 03F00073 		and	r3, r3, #33554432
 1386              		.loc 1 976 9
 1387 005c 002B     		cmp	r3, #0
 1388 005e 21D1     		bne	.L90
 977:/home/fanxinhao/Work/LiteOS_Lab/drivers/third_party/ST/STM32L4xx_HAL_Driver/Src/stm32l4xx_hal_rcc.c ****       {
 978:/home/fanxinhao/Work/LiteOS_Lab/drivers/third_party/ST/STM32L4xx_HAL_Driver/Src/stm32l4xx_hal_rcc.c ****         return HAL_ERROR;
 1389              		.loc 1 978 16
 1390 0060 0123     		movs	r3, #1
 1391 0062 D9E0     		b	.L87
 1392              	.L89:
 979:/home/fanxinhao/Work/LiteOS_Lab/drivers/third_party/ST/STM32L4xx_HAL_Driver/Src/stm32l4xx_hal_rcc.c ****       }
 980:/home/fanxinhao/Work/LiteOS_Lab/drivers/third_party/ST/STM32L4xx_HAL_Driver/Src/stm32l4xx_hal_rcc.c **** #if defined(STM32L4R5xx) || defined(STM32L4R7xx) || defined(STM32L4R9xx) || defined(STM32L4S5xx) ||
 981:/home/fanxinhao/Work/LiteOS_Lab/drivers/third_party/ST/STM32L4xx_HAL_Driver/Src/stm32l4xx_hal_rcc.c ****       /* Undershoot management when selection PLL as SYSCLK source and frequency above 80Mhz */
 982:/home/fanxinhao/Work/LiteOS_Lab/drivers/third_party/ST/STM32L4xx_HAL_Driver/Src/stm32l4xx_hal_rcc.c ****       /* Compute target PLL output frequency */
 983:/home/fanxinhao/Work/LiteOS_Lab/drivers/third_party/ST/STM32L4xx_HAL_Driver/Src/stm32l4xx_hal_rcc.c ****       pllfreq = RCC_GetSysClockFreqFromPLLSource();
 984:/home/fanxinhao/Work/LiteOS_Lab/drivers/third_party/ST/STM32L4xx_HAL_Driver/Src/stm32l4xx_hal_rcc.c **** 
 985:/home/fanxinhao/Work/LiteOS_Lab/drivers/third_party/ST/STM32L4xx_HAL_Driver/Src/stm32l4xx_hal_rcc.c ****       /* Intermediate step with HCLK prescaler 2 necessary before to go over 80Mhz */
 986:/home/fanxinhao/Work/LiteOS_Lab/drivers/third_party/ST/STM32L4xx_HAL_Driver/Src/stm32l4xx_hal_rcc.c ****       if((pllfreq > 80000000U) &&
 987:/home/fanxinhao/Work/LiteOS_Lab/drivers/third_party/ST/STM32L4xx_HAL_Driver/Src/stm32l4xx_hal_rcc.c ****          (((((RCC_ClkInitStruct->ClockType) & RCC_CLOCKTYPE_HCLK) == RCC_CLOCKTYPE_HCLK) && (RCC_Cl
 988:/home/fanxinhao/Work/LiteOS_Lab/drivers/third_party/ST/STM32L4xx_HAL_Driver/Src/stm32l4xx_hal_rcc.c ****           ||
 989:/home/fanxinhao/Work/LiteOS_Lab/drivers/third_party/ST/STM32L4xx_HAL_Driver/Src/stm32l4xx_hal_rcc.c ****           ((READ_BIT(RCC->CFGR, RCC_CFGR_HPRE) == RCC_SYSCLK_DIV1))))
 990:/home/fanxinhao/Work/LiteOS_Lab/drivers/third_party/ST/STM32L4xx_HAL_Driver/Src/stm32l4xx_hal_rcc.c ****       {
 991:/home/fanxinhao/Work/LiteOS_Lab/drivers/third_party/ST/STM32L4xx_HAL_Driver/Src/stm32l4xx_hal_rcc.c ****         MODIFY_REG(RCC->CFGR, RCC_CFGR_HPRE, RCC_SYSCLK_DIV2);
 992:/home/fanxinhao/Work/LiteOS_Lab/drivers/third_party/ST/STM32L4xx_HAL_Driver/Src/stm32l4xx_hal_rcc.c ****         hpre = RCC_SYSCLK_DIV2;
 993:/home/fanxinhao/Work/LiteOS_Lab/drivers/third_party/ST/STM32L4xx_HAL_Driver/Src/stm32l4xx_hal_rcc.c ****       }
 994:/home/fanxinhao/Work/LiteOS_Lab/drivers/third_party/ST/STM32L4xx_HAL_Driver/Src/stm32l4xx_hal_rcc.c **** #endif
 995:/home/fanxinhao/Work/LiteOS_Lab/drivers/third_party/ST/STM32L4xx_HAL_Driver/Src/stm32l4xx_hal_rcc.c ****     }
 996:/home/fanxinhao/Work/LiteOS_Lab/drivers/third_party/ST/STM32L4xx_HAL_Driver/Src/stm32l4xx_hal_rcc.c ****     else
 997:/home/fanxinhao/Work/LiteOS_Lab/drivers/third_party/ST/STM32L4xx_HAL_Driver/Src/stm32l4xx_hal_rcc.c ****     {
 998:/home/fanxinhao/Work/LiteOS_Lab/drivers/third_party/ST/STM32L4xx_HAL_Driver/Src/stm32l4xx_hal_rcc.c ****       /* HSE is selected as System Clock Source */
 999:/home/fanxinhao/Work/LiteOS_Lab/drivers/third_party/ST/STM32L4xx_HAL_Driver/Src/stm32l4xx_hal_rcc.c ****       if(RCC_ClkInitStruct->SYSCLKSource == RCC_SYSCLKSOURCE_HSE)
 1393              		.loc 1 999 27
 1394 0064 7B68     		ldr	r3, [r7, #4]
 1395 0066 5B68     		ldr	r3, [r3, #4]
 1396              		.loc 1 999 9
 1397 0068 022B     		cmp	r3, #2
 1398 006a 07D1     		bne	.L91
1000:/home/fanxinhao/Work/LiteOS_Lab/drivers/third_party/ST/STM32L4xx_HAL_Driver/Src/stm32l4xx_hal_rcc.c ****       {
1001:/home/fanxinhao/Work/LiteOS_Lab/drivers/third_party/ST/STM32L4xx_HAL_Driver/Src/stm32l4xx_hal_rcc.c ****         /* Check the HSE ready flag */
1002:/home/fanxinhao/Work/LiteOS_Lab/drivers/third_party/ST/STM32L4xx_HAL_Driver/Src/stm32l4xx_hal_rcc.c ****         if(READ_BIT(RCC->CR, RCC_CR_HSERDY) == RESET)
 1399              		.loc 1 1002 12
 1400 006c 6D4B     		ldr	r3, .L108+4
 1401 006e 1B68     		ldr	r3, [r3]
 1402 0070 03F40033 		and	r3, r3, #131072
 1403              		.loc 1 1002 11
 1404 0074 002B     		cmp	r3, #0
 1405 0076 15D1     		bne	.L90
1003:/home/fanxinhao/Work/LiteOS_Lab/drivers/third_party/ST/STM32L4xx_HAL_Driver/Src/stm32l4xx_hal_rcc.c ****         {
1004:/home/fanxinhao/Work/LiteOS_Lab/drivers/third_party/ST/STM32L4xx_HAL_Driver/Src/stm32l4xx_hal_rcc.c ****           return HAL_ERROR;
 1406              		.loc 1 1004 18
 1407 0078 0123     		movs	r3, #1
 1408 007a CDE0     		b	.L87
 1409              	.L91:
1005:/home/fanxinhao/Work/LiteOS_Lab/drivers/third_party/ST/STM32L4xx_HAL_Driver/Src/stm32l4xx_hal_rcc.c ****         }
1006:/home/fanxinhao/Work/LiteOS_Lab/drivers/third_party/ST/STM32L4xx_HAL_Driver/Src/stm32l4xx_hal_rcc.c ****       }
1007:/home/fanxinhao/Work/LiteOS_Lab/drivers/third_party/ST/STM32L4xx_HAL_Driver/Src/stm32l4xx_hal_rcc.c ****       /* MSI is selected as System Clock Source */
1008:/home/fanxinhao/Work/LiteOS_Lab/drivers/third_party/ST/STM32L4xx_HAL_Driver/Src/stm32l4xx_hal_rcc.c ****       else if(RCC_ClkInitStruct->SYSCLKSource == RCC_SYSCLKSOURCE_MSI)
ARM GAS  /tmp/ccuQhhnt.s 			page 44


 1410              		.loc 1 1008 32
 1411 007c 7B68     		ldr	r3, [r7, #4]
 1412 007e 5B68     		ldr	r3, [r3, #4]
 1413              		.loc 1 1008 14
 1414 0080 002B     		cmp	r3, #0
 1415 0082 07D1     		bne	.L92
1009:/home/fanxinhao/Work/LiteOS_Lab/drivers/third_party/ST/STM32L4xx_HAL_Driver/Src/stm32l4xx_hal_rcc.c ****       {
1010:/home/fanxinhao/Work/LiteOS_Lab/drivers/third_party/ST/STM32L4xx_HAL_Driver/Src/stm32l4xx_hal_rcc.c ****         /* Check the MSI ready flag */
1011:/home/fanxinhao/Work/LiteOS_Lab/drivers/third_party/ST/STM32L4xx_HAL_Driver/Src/stm32l4xx_hal_rcc.c ****         if(READ_BIT(RCC->CR, RCC_CR_MSIRDY) == RESET)
 1416              		.loc 1 1011 12
 1417 0084 674B     		ldr	r3, .L108+4
 1418 0086 1B68     		ldr	r3, [r3]
 1419 0088 03F00203 		and	r3, r3, #2
 1420              		.loc 1 1011 11
 1421 008c 002B     		cmp	r3, #0
 1422 008e 09D1     		bne	.L90
1012:/home/fanxinhao/Work/LiteOS_Lab/drivers/third_party/ST/STM32L4xx_HAL_Driver/Src/stm32l4xx_hal_rcc.c ****         {
1013:/home/fanxinhao/Work/LiteOS_Lab/drivers/third_party/ST/STM32L4xx_HAL_Driver/Src/stm32l4xx_hal_rcc.c ****           return HAL_ERROR;
 1423              		.loc 1 1013 18
 1424 0090 0123     		movs	r3, #1
 1425 0092 C1E0     		b	.L87
 1426              	.L92:
1014:/home/fanxinhao/Work/LiteOS_Lab/drivers/third_party/ST/STM32L4xx_HAL_Driver/Src/stm32l4xx_hal_rcc.c ****         }
1015:/home/fanxinhao/Work/LiteOS_Lab/drivers/third_party/ST/STM32L4xx_HAL_Driver/Src/stm32l4xx_hal_rcc.c ****       }
1016:/home/fanxinhao/Work/LiteOS_Lab/drivers/third_party/ST/STM32L4xx_HAL_Driver/Src/stm32l4xx_hal_rcc.c ****       /* HSI is selected as System Clock Source */
1017:/home/fanxinhao/Work/LiteOS_Lab/drivers/third_party/ST/STM32L4xx_HAL_Driver/Src/stm32l4xx_hal_rcc.c ****       else
1018:/home/fanxinhao/Work/LiteOS_Lab/drivers/third_party/ST/STM32L4xx_HAL_Driver/Src/stm32l4xx_hal_rcc.c ****       {
1019:/home/fanxinhao/Work/LiteOS_Lab/drivers/third_party/ST/STM32L4xx_HAL_Driver/Src/stm32l4xx_hal_rcc.c ****         /* Check the HSI ready flag */
1020:/home/fanxinhao/Work/LiteOS_Lab/drivers/third_party/ST/STM32L4xx_HAL_Driver/Src/stm32l4xx_hal_rcc.c ****         if(READ_BIT(RCC->CR, RCC_CR_HSIRDY) == RESET)
 1427              		.loc 1 1020 12
 1428 0094 634B     		ldr	r3, .L108+4
 1429 0096 1B68     		ldr	r3, [r3]
 1430 0098 03F48063 		and	r3, r3, #1024
 1431              		.loc 1 1020 11
 1432 009c 002B     		cmp	r3, #0
 1433 009e 01D1     		bne	.L90
1021:/home/fanxinhao/Work/LiteOS_Lab/drivers/third_party/ST/STM32L4xx_HAL_Driver/Src/stm32l4xx_hal_rcc.c ****         {
1022:/home/fanxinhao/Work/LiteOS_Lab/drivers/third_party/ST/STM32L4xx_HAL_Driver/Src/stm32l4xx_hal_rcc.c ****           return HAL_ERROR;
 1434              		.loc 1 1022 18
 1435 00a0 0123     		movs	r3, #1
 1436 00a2 B9E0     		b	.L87
 1437              	.L90:
1023:/home/fanxinhao/Work/LiteOS_Lab/drivers/third_party/ST/STM32L4xx_HAL_Driver/Src/stm32l4xx_hal_rcc.c ****         }
1024:/home/fanxinhao/Work/LiteOS_Lab/drivers/third_party/ST/STM32L4xx_HAL_Driver/Src/stm32l4xx_hal_rcc.c ****       }
1025:/home/fanxinhao/Work/LiteOS_Lab/drivers/third_party/ST/STM32L4xx_HAL_Driver/Src/stm32l4xx_hal_rcc.c **** #if defined(STM32L4R5xx) || defined(STM32L4R7xx) || defined(STM32L4R9xx) || defined(STM32L4S5xx) ||
1026:/home/fanxinhao/Work/LiteOS_Lab/drivers/third_party/ST/STM32L4xx_HAL_Driver/Src/stm32l4xx_hal_rcc.c ****       /* Overshoot management when going down from PLL as SYSCLK source and frequency above 80Mhz *
1027:/home/fanxinhao/Work/LiteOS_Lab/drivers/third_party/ST/STM32L4xx_HAL_Driver/Src/stm32l4xx_hal_rcc.c ****       pllfreq = HAL_RCC_GetSysClockFreq();
1028:/home/fanxinhao/Work/LiteOS_Lab/drivers/third_party/ST/STM32L4xx_HAL_Driver/Src/stm32l4xx_hal_rcc.c **** 
1029:/home/fanxinhao/Work/LiteOS_Lab/drivers/third_party/ST/STM32L4xx_HAL_Driver/Src/stm32l4xx_hal_rcc.c ****       /* Intermediate step with HCLK prescaler 2 necessary before to go under 80Mhz */
1030:/home/fanxinhao/Work/LiteOS_Lab/drivers/third_party/ST/STM32L4xx_HAL_Driver/Src/stm32l4xx_hal_rcc.c ****       if(pllfreq > 80000000U)
1031:/home/fanxinhao/Work/LiteOS_Lab/drivers/third_party/ST/STM32L4xx_HAL_Driver/Src/stm32l4xx_hal_rcc.c ****       {
1032:/home/fanxinhao/Work/LiteOS_Lab/drivers/third_party/ST/STM32L4xx_HAL_Driver/Src/stm32l4xx_hal_rcc.c ****         MODIFY_REG(RCC->CFGR, RCC_CFGR_HPRE, RCC_SYSCLK_DIV2);
1033:/home/fanxinhao/Work/LiteOS_Lab/drivers/third_party/ST/STM32L4xx_HAL_Driver/Src/stm32l4xx_hal_rcc.c ****         hpre = RCC_SYSCLK_DIV2;
1034:/home/fanxinhao/Work/LiteOS_Lab/drivers/third_party/ST/STM32L4xx_HAL_Driver/Src/stm32l4xx_hal_rcc.c ****       }
1035:/home/fanxinhao/Work/LiteOS_Lab/drivers/third_party/ST/STM32L4xx_HAL_Driver/Src/stm32l4xx_hal_rcc.c **** #endif
1036:/home/fanxinhao/Work/LiteOS_Lab/drivers/third_party/ST/STM32L4xx_HAL_Driver/Src/stm32l4xx_hal_rcc.c **** 
1037:/home/fanxinhao/Work/LiteOS_Lab/drivers/third_party/ST/STM32L4xx_HAL_Driver/Src/stm32l4xx_hal_rcc.c ****     }
ARM GAS  /tmp/ccuQhhnt.s 			page 45


1038:/home/fanxinhao/Work/LiteOS_Lab/drivers/third_party/ST/STM32L4xx_HAL_Driver/Src/stm32l4xx_hal_rcc.c **** 
1039:/home/fanxinhao/Work/LiteOS_Lab/drivers/third_party/ST/STM32L4xx_HAL_Driver/Src/stm32l4xx_hal_rcc.c ****     MODIFY_REG(RCC->CFGR, RCC_CFGR_SW, RCC_ClkInitStruct->SYSCLKSource);
 1438              		.loc 1 1039 5
 1439 00a4 5F4B     		ldr	r3, .L108+4
 1440 00a6 9B68     		ldr	r3, [r3, #8]
 1441 00a8 23F00302 		bic	r2, r3, #3
 1442 00ac 7B68     		ldr	r3, [r7, #4]
 1443 00ae 5B68     		ldr	r3, [r3, #4]
 1444 00b0 5C49     		ldr	r1, .L108+4
 1445 00b2 1343     		orrs	r3, r3, r2
 1446 00b4 8B60     		str	r3, [r1, #8]
1040:/home/fanxinhao/Work/LiteOS_Lab/drivers/third_party/ST/STM32L4xx_HAL_Driver/Src/stm32l4xx_hal_rcc.c **** 
1041:/home/fanxinhao/Work/LiteOS_Lab/drivers/third_party/ST/STM32L4xx_HAL_Driver/Src/stm32l4xx_hal_rcc.c ****     /* Get Start Tick*/
1042:/home/fanxinhao/Work/LiteOS_Lab/drivers/third_party/ST/STM32L4xx_HAL_Driver/Src/stm32l4xx_hal_rcc.c ****     tickstart = HAL_GetTick();
 1447              		.loc 1 1042 17
 1448 00b6 FFF7FEFF 		bl	HAL_GetTick
 1449 00ba F860     		str	r0, [r7, #12]
1043:/home/fanxinhao/Work/LiteOS_Lab/drivers/third_party/ST/STM32L4xx_HAL_Driver/Src/stm32l4xx_hal_rcc.c **** 
1044:/home/fanxinhao/Work/LiteOS_Lab/drivers/third_party/ST/STM32L4xx_HAL_Driver/Src/stm32l4xx_hal_rcc.c ****     if(RCC_ClkInitStruct->SYSCLKSource == RCC_SYSCLKSOURCE_PLLCLK)
 1450              		.loc 1 1044 25
 1451 00bc 7B68     		ldr	r3, [r7, #4]
 1452 00be 5B68     		ldr	r3, [r3, #4]
 1453              		.loc 1 1044 7
 1454 00c0 032B     		cmp	r3, #3
 1455 00c2 12D1     		bne	.L93
1045:/home/fanxinhao/Work/LiteOS_Lab/drivers/third_party/ST/STM32L4xx_HAL_Driver/Src/stm32l4xx_hal_rcc.c ****     {
1046:/home/fanxinhao/Work/LiteOS_Lab/drivers/third_party/ST/STM32L4xx_HAL_Driver/Src/stm32l4xx_hal_rcc.c ****       while (__HAL_RCC_GET_SYSCLK_SOURCE() != RCC_CFGR_SWS_PLL)
 1456              		.loc 1 1046 13
 1457 00c4 0AE0     		b	.L94
 1458              	.L95:
1047:/home/fanxinhao/Work/LiteOS_Lab/drivers/third_party/ST/STM32L4xx_HAL_Driver/Src/stm32l4xx_hal_rcc.c ****       {
1048:/home/fanxinhao/Work/LiteOS_Lab/drivers/third_party/ST/STM32L4xx_HAL_Driver/Src/stm32l4xx_hal_rcc.c ****         if((HAL_GetTick() - tickstart) > CLOCKSWITCH_TIMEOUT_VALUE)
 1459              		.loc 1 1048 13
 1460 00c6 FFF7FEFF 		bl	HAL_GetTick
 1461 00ca 0246     		mov	r2, r0
 1462              		.loc 1 1048 27
 1463 00cc FB68     		ldr	r3, [r7, #12]
 1464 00ce D31A     		subs	r3, r2, r3
 1465              		.loc 1 1048 11
 1466 00d0 41F28832 		movw	r2, #5000
 1467 00d4 9342     		cmp	r3, r2
 1468 00d6 01D9     		bls	.L94
1049:/home/fanxinhao/Work/LiteOS_Lab/drivers/third_party/ST/STM32L4xx_HAL_Driver/Src/stm32l4xx_hal_rcc.c ****         {
1050:/home/fanxinhao/Work/LiteOS_Lab/drivers/third_party/ST/STM32L4xx_HAL_Driver/Src/stm32l4xx_hal_rcc.c ****           return HAL_TIMEOUT;
 1469              		.loc 1 1050 18
 1470 00d8 0323     		movs	r3, #3
 1471 00da 9DE0     		b	.L87
 1472              	.L94:
1046:/home/fanxinhao/Work/LiteOS_Lab/drivers/third_party/ST/STM32L4xx_HAL_Driver/Src/stm32l4xx_hal_rcc.c ****       {
 1473              		.loc 1 1046 14
 1474 00dc 514B     		ldr	r3, .L108+4
 1475 00de 9B68     		ldr	r3, [r3, #8]
 1476 00e0 03F00C03 		and	r3, r3, #12
1046:/home/fanxinhao/Work/LiteOS_Lab/drivers/third_party/ST/STM32L4xx_HAL_Driver/Src/stm32l4xx_hal_rcc.c ****       {
 1477              		.loc 1 1046 13
 1478 00e4 0C2B     		cmp	r3, #12
 1479 00e6 EED1     		bne	.L95
ARM GAS  /tmp/ccuQhhnt.s 			page 46


 1480 00e8 3EE0     		b	.L88
 1481              	.L93:
1051:/home/fanxinhao/Work/LiteOS_Lab/drivers/third_party/ST/STM32L4xx_HAL_Driver/Src/stm32l4xx_hal_rcc.c ****         }
1052:/home/fanxinhao/Work/LiteOS_Lab/drivers/third_party/ST/STM32L4xx_HAL_Driver/Src/stm32l4xx_hal_rcc.c ****       }
1053:/home/fanxinhao/Work/LiteOS_Lab/drivers/third_party/ST/STM32L4xx_HAL_Driver/Src/stm32l4xx_hal_rcc.c ****     }
1054:/home/fanxinhao/Work/LiteOS_Lab/drivers/third_party/ST/STM32L4xx_HAL_Driver/Src/stm32l4xx_hal_rcc.c ****     else
1055:/home/fanxinhao/Work/LiteOS_Lab/drivers/third_party/ST/STM32L4xx_HAL_Driver/Src/stm32l4xx_hal_rcc.c ****     {
1056:/home/fanxinhao/Work/LiteOS_Lab/drivers/third_party/ST/STM32L4xx_HAL_Driver/Src/stm32l4xx_hal_rcc.c ****       if(RCC_ClkInitStruct->SYSCLKSource == RCC_SYSCLKSOURCE_HSE)
 1482              		.loc 1 1056 27
 1483 00ea 7B68     		ldr	r3, [r7, #4]
 1484 00ec 5B68     		ldr	r3, [r3, #4]
 1485              		.loc 1 1056 9
 1486 00ee 022B     		cmp	r3, #2
 1487 00f0 12D1     		bne	.L96
1057:/home/fanxinhao/Work/LiteOS_Lab/drivers/third_party/ST/STM32L4xx_HAL_Driver/Src/stm32l4xx_hal_rcc.c ****       {
1058:/home/fanxinhao/Work/LiteOS_Lab/drivers/third_party/ST/STM32L4xx_HAL_Driver/Src/stm32l4xx_hal_rcc.c ****         while (__HAL_RCC_GET_SYSCLK_SOURCE() != RCC_CFGR_SWS_HSE)
 1488              		.loc 1 1058 15
 1489 00f2 0AE0     		b	.L97
 1490              	.L98:
1059:/home/fanxinhao/Work/LiteOS_Lab/drivers/third_party/ST/STM32L4xx_HAL_Driver/Src/stm32l4xx_hal_rcc.c ****         {
1060:/home/fanxinhao/Work/LiteOS_Lab/drivers/third_party/ST/STM32L4xx_HAL_Driver/Src/stm32l4xx_hal_rcc.c ****           if((HAL_GetTick() - tickstart) > CLOCKSWITCH_TIMEOUT_VALUE)
 1491              		.loc 1 1060 15
 1492 00f4 FFF7FEFF 		bl	HAL_GetTick
 1493 00f8 0246     		mov	r2, r0
 1494              		.loc 1 1060 29
 1495 00fa FB68     		ldr	r3, [r7, #12]
 1496 00fc D31A     		subs	r3, r2, r3
 1497              		.loc 1 1060 13
 1498 00fe 41F28832 		movw	r2, #5000
 1499 0102 9342     		cmp	r3, r2
 1500 0104 01D9     		bls	.L97
1061:/home/fanxinhao/Work/LiteOS_Lab/drivers/third_party/ST/STM32L4xx_HAL_Driver/Src/stm32l4xx_hal_rcc.c ****           {
1062:/home/fanxinhao/Work/LiteOS_Lab/drivers/third_party/ST/STM32L4xx_HAL_Driver/Src/stm32l4xx_hal_rcc.c ****             return HAL_TIMEOUT;
 1501              		.loc 1 1062 20
 1502 0106 0323     		movs	r3, #3
 1503 0108 86E0     		b	.L87
 1504              	.L97:
1058:/home/fanxinhao/Work/LiteOS_Lab/drivers/third_party/ST/STM32L4xx_HAL_Driver/Src/stm32l4xx_hal_rcc.c ****         {
 1505              		.loc 1 1058 16
 1506 010a 464B     		ldr	r3, .L108+4
 1507 010c 9B68     		ldr	r3, [r3, #8]
 1508 010e 03F00C03 		and	r3, r3, #12
1058:/home/fanxinhao/Work/LiteOS_Lab/drivers/third_party/ST/STM32L4xx_HAL_Driver/Src/stm32l4xx_hal_rcc.c ****         {
 1509              		.loc 1 1058 15
 1510 0112 082B     		cmp	r3, #8
 1511 0114 EED1     		bne	.L98
 1512 0116 27E0     		b	.L88
 1513              	.L96:
1063:/home/fanxinhao/Work/LiteOS_Lab/drivers/third_party/ST/STM32L4xx_HAL_Driver/Src/stm32l4xx_hal_rcc.c ****           }
1064:/home/fanxinhao/Work/LiteOS_Lab/drivers/third_party/ST/STM32L4xx_HAL_Driver/Src/stm32l4xx_hal_rcc.c ****         }
1065:/home/fanxinhao/Work/LiteOS_Lab/drivers/third_party/ST/STM32L4xx_HAL_Driver/Src/stm32l4xx_hal_rcc.c ****       }
1066:/home/fanxinhao/Work/LiteOS_Lab/drivers/third_party/ST/STM32L4xx_HAL_Driver/Src/stm32l4xx_hal_rcc.c ****       else if(RCC_ClkInitStruct->SYSCLKSource == RCC_SYSCLKSOURCE_MSI)
 1514              		.loc 1 1066 32
 1515 0118 7B68     		ldr	r3, [r7, #4]
 1516 011a 5B68     		ldr	r3, [r3, #4]
 1517              		.loc 1 1066 14
 1518 011c 002B     		cmp	r3, #0
ARM GAS  /tmp/ccuQhhnt.s 			page 47


 1519 011e 1DD1     		bne	.L102
1067:/home/fanxinhao/Work/LiteOS_Lab/drivers/third_party/ST/STM32L4xx_HAL_Driver/Src/stm32l4xx_hal_rcc.c ****       {
1068:/home/fanxinhao/Work/LiteOS_Lab/drivers/third_party/ST/STM32L4xx_HAL_Driver/Src/stm32l4xx_hal_rcc.c ****         while (__HAL_RCC_GET_SYSCLK_SOURCE() != RCC_CFGR_SWS_MSI)
 1520              		.loc 1 1068 15
 1521 0120 0AE0     		b	.L100
 1522              	.L101:
1069:/home/fanxinhao/Work/LiteOS_Lab/drivers/third_party/ST/STM32L4xx_HAL_Driver/Src/stm32l4xx_hal_rcc.c ****         {
1070:/home/fanxinhao/Work/LiteOS_Lab/drivers/third_party/ST/STM32L4xx_HAL_Driver/Src/stm32l4xx_hal_rcc.c ****           if((HAL_GetTick() - tickstart) > CLOCKSWITCH_TIMEOUT_VALUE)
 1523              		.loc 1 1070 15
 1524 0122 FFF7FEFF 		bl	HAL_GetTick
 1525 0126 0246     		mov	r2, r0
 1526              		.loc 1 1070 29
 1527 0128 FB68     		ldr	r3, [r7, #12]
 1528 012a D31A     		subs	r3, r2, r3
 1529              		.loc 1 1070 13
 1530 012c 41F28832 		movw	r2, #5000
 1531 0130 9342     		cmp	r3, r2
 1532 0132 01D9     		bls	.L100
1071:/home/fanxinhao/Work/LiteOS_Lab/drivers/third_party/ST/STM32L4xx_HAL_Driver/Src/stm32l4xx_hal_rcc.c ****           {
1072:/home/fanxinhao/Work/LiteOS_Lab/drivers/third_party/ST/STM32L4xx_HAL_Driver/Src/stm32l4xx_hal_rcc.c ****             return HAL_TIMEOUT;
 1533              		.loc 1 1072 20
 1534 0134 0323     		movs	r3, #3
 1535 0136 6FE0     		b	.L87
 1536              	.L100:
1068:/home/fanxinhao/Work/LiteOS_Lab/drivers/third_party/ST/STM32L4xx_HAL_Driver/Src/stm32l4xx_hal_rcc.c ****         {
 1537              		.loc 1 1068 16
 1538 0138 3A4B     		ldr	r3, .L108+4
 1539 013a 9B68     		ldr	r3, [r3, #8]
 1540 013c 03F00C03 		and	r3, r3, #12
1068:/home/fanxinhao/Work/LiteOS_Lab/drivers/third_party/ST/STM32L4xx_HAL_Driver/Src/stm32l4xx_hal_rcc.c ****         {
 1541              		.loc 1 1068 15
 1542 0140 002B     		cmp	r3, #0
 1543 0142 EED1     		bne	.L101
 1544 0144 10E0     		b	.L88
 1545              	.L103:
1073:/home/fanxinhao/Work/LiteOS_Lab/drivers/third_party/ST/STM32L4xx_HAL_Driver/Src/stm32l4xx_hal_rcc.c ****           }
1074:/home/fanxinhao/Work/LiteOS_Lab/drivers/third_party/ST/STM32L4xx_HAL_Driver/Src/stm32l4xx_hal_rcc.c ****         }
1075:/home/fanxinhao/Work/LiteOS_Lab/drivers/third_party/ST/STM32L4xx_HAL_Driver/Src/stm32l4xx_hal_rcc.c ****       }
1076:/home/fanxinhao/Work/LiteOS_Lab/drivers/third_party/ST/STM32L4xx_HAL_Driver/Src/stm32l4xx_hal_rcc.c ****       else
1077:/home/fanxinhao/Work/LiteOS_Lab/drivers/third_party/ST/STM32L4xx_HAL_Driver/Src/stm32l4xx_hal_rcc.c ****       {
1078:/home/fanxinhao/Work/LiteOS_Lab/drivers/third_party/ST/STM32L4xx_HAL_Driver/Src/stm32l4xx_hal_rcc.c ****         while(__HAL_RCC_GET_SYSCLK_SOURCE() != RCC_CFGR_SWS_HSI)
1079:/home/fanxinhao/Work/LiteOS_Lab/drivers/third_party/ST/STM32L4xx_HAL_Driver/Src/stm32l4xx_hal_rcc.c ****         {
1080:/home/fanxinhao/Work/LiteOS_Lab/drivers/third_party/ST/STM32L4xx_HAL_Driver/Src/stm32l4xx_hal_rcc.c ****           if((HAL_GetTick() - tickstart) > CLOCKSWITCH_TIMEOUT_VALUE)
 1546              		.loc 1 1080 15
 1547 0146 FFF7FEFF 		bl	HAL_GetTick
 1548 014a 0246     		mov	r2, r0
 1549              		.loc 1 1080 29
 1550 014c FB68     		ldr	r3, [r7, #12]
 1551 014e D31A     		subs	r3, r2, r3
 1552              		.loc 1 1080 13
 1553 0150 41F28832 		movw	r2, #5000
 1554 0154 9342     		cmp	r3, r2
 1555 0156 01D9     		bls	.L102
1081:/home/fanxinhao/Work/LiteOS_Lab/drivers/third_party/ST/STM32L4xx_HAL_Driver/Src/stm32l4xx_hal_rcc.c ****           {
1082:/home/fanxinhao/Work/LiteOS_Lab/drivers/third_party/ST/STM32L4xx_HAL_Driver/Src/stm32l4xx_hal_rcc.c ****             return HAL_TIMEOUT;
 1556              		.loc 1 1082 20
 1557 0158 0323     		movs	r3, #3
ARM GAS  /tmp/ccuQhhnt.s 			page 48


 1558 015a 5DE0     		b	.L87
 1559              	.L102:
1078:/home/fanxinhao/Work/LiteOS_Lab/drivers/third_party/ST/STM32L4xx_HAL_Driver/Src/stm32l4xx_hal_rcc.c ****         {
 1560              		.loc 1 1078 15
 1561 015c 314B     		ldr	r3, .L108+4
 1562 015e 9B68     		ldr	r3, [r3, #8]
 1563 0160 03F00C03 		and	r3, r3, #12
1078:/home/fanxinhao/Work/LiteOS_Lab/drivers/third_party/ST/STM32L4xx_HAL_Driver/Src/stm32l4xx_hal_rcc.c ****         {
 1564              		.loc 1 1078 14
 1565 0164 042B     		cmp	r3, #4
 1566 0166 EED1     		bne	.L103
 1567              	.L88:
1083:/home/fanxinhao/Work/LiteOS_Lab/drivers/third_party/ST/STM32L4xx_HAL_Driver/Src/stm32l4xx_hal_rcc.c ****           }
1084:/home/fanxinhao/Work/LiteOS_Lab/drivers/third_party/ST/STM32L4xx_HAL_Driver/Src/stm32l4xx_hal_rcc.c ****         }
1085:/home/fanxinhao/Work/LiteOS_Lab/drivers/third_party/ST/STM32L4xx_HAL_Driver/Src/stm32l4xx_hal_rcc.c ****       }
1086:/home/fanxinhao/Work/LiteOS_Lab/drivers/third_party/ST/STM32L4xx_HAL_Driver/Src/stm32l4xx_hal_rcc.c ****     }
1087:/home/fanxinhao/Work/LiteOS_Lab/drivers/third_party/ST/STM32L4xx_HAL_Driver/Src/stm32l4xx_hal_rcc.c ****   }
1088:/home/fanxinhao/Work/LiteOS_Lab/drivers/third_party/ST/STM32L4xx_HAL_Driver/Src/stm32l4xx_hal_rcc.c **** 
1089:/home/fanxinhao/Work/LiteOS_Lab/drivers/third_party/ST/STM32L4xx_HAL_Driver/Src/stm32l4xx_hal_rcc.c ****   /*-------------------------- HCLK Configuration --------------------------*/
1090:/home/fanxinhao/Work/LiteOS_Lab/drivers/third_party/ST/STM32L4xx_HAL_Driver/Src/stm32l4xx_hal_rcc.c ****   if(((RCC_ClkInitStruct->ClockType) & RCC_CLOCKTYPE_HCLK) == RCC_CLOCKTYPE_HCLK)
 1568              		.loc 1 1090 25
 1569 0168 7B68     		ldr	r3, [r7, #4]
 1570 016a 1B68     		ldr	r3, [r3]
 1571              		.loc 1 1090 38
 1572 016c 03F00203 		and	r3, r3, #2
 1573              		.loc 1 1090 5
 1574 0170 002B     		cmp	r3, #0
 1575 0172 08D0     		beq	.L104
1091:/home/fanxinhao/Work/LiteOS_Lab/drivers/third_party/ST/STM32L4xx_HAL_Driver/Src/stm32l4xx_hal_rcc.c ****   {
1092:/home/fanxinhao/Work/LiteOS_Lab/drivers/third_party/ST/STM32L4xx_HAL_Driver/Src/stm32l4xx_hal_rcc.c ****     assert_param(IS_RCC_HCLK(RCC_ClkInitStruct->AHBCLKDivider));
1093:/home/fanxinhao/Work/LiteOS_Lab/drivers/third_party/ST/STM32L4xx_HAL_Driver/Src/stm32l4xx_hal_rcc.c ****     MODIFY_REG(RCC->CFGR, RCC_CFGR_HPRE, RCC_ClkInitStruct->AHBCLKDivider);
 1576              		.loc 1 1093 5
 1577 0174 2B4B     		ldr	r3, .L108+4
 1578 0176 9B68     		ldr	r3, [r3, #8]
 1579 0178 23F0F002 		bic	r2, r3, #240
 1580 017c 7B68     		ldr	r3, [r7, #4]
 1581 017e 9B68     		ldr	r3, [r3, #8]
 1582 0180 2849     		ldr	r1, .L108+4
 1583 0182 1343     		orrs	r3, r3, r2
 1584 0184 8B60     		str	r3, [r1, #8]
 1585              	.L104:
1094:/home/fanxinhao/Work/LiteOS_Lab/drivers/third_party/ST/STM32L4xx_HAL_Driver/Src/stm32l4xx_hal_rcc.c ****   }
1095:/home/fanxinhao/Work/LiteOS_Lab/drivers/third_party/ST/STM32L4xx_HAL_Driver/Src/stm32l4xx_hal_rcc.c **** #if defined(STM32L4R5xx) || defined(STM32L4R7xx) || defined(STM32L4R9xx) || defined(STM32L4S5xx) ||
1096:/home/fanxinhao/Work/LiteOS_Lab/drivers/third_party/ST/STM32L4xx_HAL_Driver/Src/stm32l4xx_hal_rcc.c ****   else
1097:/home/fanxinhao/Work/LiteOS_Lab/drivers/third_party/ST/STM32L4xx_HAL_Driver/Src/stm32l4xx_hal_rcc.c ****   {
1098:/home/fanxinhao/Work/LiteOS_Lab/drivers/third_party/ST/STM32L4xx_HAL_Driver/Src/stm32l4xx_hal_rcc.c ****     /* Is intermediate HCLK prescaler 2 applied internally, complete with HCLK prescaler 1 */
1099:/home/fanxinhao/Work/LiteOS_Lab/drivers/third_party/ST/STM32L4xx_HAL_Driver/Src/stm32l4xx_hal_rcc.c ****     if(hpre == RCC_SYSCLK_DIV2)
1100:/home/fanxinhao/Work/LiteOS_Lab/drivers/third_party/ST/STM32L4xx_HAL_Driver/Src/stm32l4xx_hal_rcc.c ****     {
1101:/home/fanxinhao/Work/LiteOS_Lab/drivers/third_party/ST/STM32L4xx_HAL_Driver/Src/stm32l4xx_hal_rcc.c ****       MODIFY_REG(RCC->CFGR, RCC_CFGR_HPRE, RCC_SYSCLK_DIV1);
1102:/home/fanxinhao/Work/LiteOS_Lab/drivers/third_party/ST/STM32L4xx_HAL_Driver/Src/stm32l4xx_hal_rcc.c ****     }
1103:/home/fanxinhao/Work/LiteOS_Lab/drivers/third_party/ST/STM32L4xx_HAL_Driver/Src/stm32l4xx_hal_rcc.c ****   }
1104:/home/fanxinhao/Work/LiteOS_Lab/drivers/third_party/ST/STM32L4xx_HAL_Driver/Src/stm32l4xx_hal_rcc.c **** #endif
1105:/home/fanxinhao/Work/LiteOS_Lab/drivers/third_party/ST/STM32L4xx_HAL_Driver/Src/stm32l4xx_hal_rcc.c **** 
1106:/home/fanxinhao/Work/LiteOS_Lab/drivers/third_party/ST/STM32L4xx_HAL_Driver/Src/stm32l4xx_hal_rcc.c ****   /* Decreasing the number of wait states because of lower CPU frequency */
1107:/home/fanxinhao/Work/LiteOS_Lab/drivers/third_party/ST/STM32L4xx_HAL_Driver/Src/stm32l4xx_hal_rcc.c ****   if(FLatency < READ_BIT(FLASH->ACR, FLASH_ACR_LATENCY))
 1586              		.loc 1 1107 17
 1587 0186 264B     		ldr	r3, .L108
ARM GAS  /tmp/ccuQhhnt.s 			page 49


 1588 0188 1B68     		ldr	r3, [r3]
 1589 018a 03F00703 		and	r3, r3, #7
 1590              		.loc 1 1107 5
 1591 018e 3A68     		ldr	r2, [r7]
 1592 0190 9A42     		cmp	r2, r3
 1593 0192 10D2     		bcs	.L105
1108:/home/fanxinhao/Work/LiteOS_Lab/drivers/third_party/ST/STM32L4xx_HAL_Driver/Src/stm32l4xx_hal_rcc.c ****   {
1109:/home/fanxinhao/Work/LiteOS_Lab/drivers/third_party/ST/STM32L4xx_HAL_Driver/Src/stm32l4xx_hal_rcc.c ****     /* Program the new number of wait states to the LATENCY bits in the FLASH_ACR register */
1110:/home/fanxinhao/Work/LiteOS_Lab/drivers/third_party/ST/STM32L4xx_HAL_Driver/Src/stm32l4xx_hal_rcc.c ****     __HAL_FLASH_SET_LATENCY(FLatency);
 1594              		.loc 1 1110 5
 1595 0194 224B     		ldr	r3, .L108
 1596 0196 1B68     		ldr	r3, [r3]
 1597 0198 23F00702 		bic	r2, r3, #7
 1598 019c 2049     		ldr	r1, .L108
 1599 019e 3B68     		ldr	r3, [r7]
 1600 01a0 1343     		orrs	r3, r3, r2
 1601 01a2 0B60     		str	r3, [r1]
1111:/home/fanxinhao/Work/LiteOS_Lab/drivers/third_party/ST/STM32L4xx_HAL_Driver/Src/stm32l4xx_hal_rcc.c **** 
1112:/home/fanxinhao/Work/LiteOS_Lab/drivers/third_party/ST/STM32L4xx_HAL_Driver/Src/stm32l4xx_hal_rcc.c ****     /* Check that the new number of wait states is taken into account to access the Flash
1113:/home/fanxinhao/Work/LiteOS_Lab/drivers/third_party/ST/STM32L4xx_HAL_Driver/Src/stm32l4xx_hal_rcc.c ****     memory by reading the FLASH_ACR register */
1114:/home/fanxinhao/Work/LiteOS_Lab/drivers/third_party/ST/STM32L4xx_HAL_Driver/Src/stm32l4xx_hal_rcc.c ****     if(READ_BIT(FLASH->ACR, FLASH_ACR_LATENCY) != FLatency)
 1602              		.loc 1 1114 8
 1603 01a4 1E4B     		ldr	r3, .L108
 1604 01a6 1B68     		ldr	r3, [r3]
 1605 01a8 03F00703 		and	r3, r3, #7
 1606              		.loc 1 1114 7
 1607 01ac 3A68     		ldr	r2, [r7]
 1608 01ae 9A42     		cmp	r2, r3
 1609 01b0 01D0     		beq	.L105
1115:/home/fanxinhao/Work/LiteOS_Lab/drivers/third_party/ST/STM32L4xx_HAL_Driver/Src/stm32l4xx_hal_rcc.c ****     {
1116:/home/fanxinhao/Work/LiteOS_Lab/drivers/third_party/ST/STM32L4xx_HAL_Driver/Src/stm32l4xx_hal_rcc.c ****       return HAL_ERROR;
 1610              		.loc 1 1116 14
 1611 01b2 0123     		movs	r3, #1
 1612 01b4 30E0     		b	.L87
 1613              	.L105:
1117:/home/fanxinhao/Work/LiteOS_Lab/drivers/third_party/ST/STM32L4xx_HAL_Driver/Src/stm32l4xx_hal_rcc.c ****     }
1118:/home/fanxinhao/Work/LiteOS_Lab/drivers/third_party/ST/STM32L4xx_HAL_Driver/Src/stm32l4xx_hal_rcc.c ****   }
1119:/home/fanxinhao/Work/LiteOS_Lab/drivers/third_party/ST/STM32L4xx_HAL_Driver/Src/stm32l4xx_hal_rcc.c **** 
1120:/home/fanxinhao/Work/LiteOS_Lab/drivers/third_party/ST/STM32L4xx_HAL_Driver/Src/stm32l4xx_hal_rcc.c ****   /*-------------------------- PCLK1 Configuration ---------------------------*/
1121:/home/fanxinhao/Work/LiteOS_Lab/drivers/third_party/ST/STM32L4xx_HAL_Driver/Src/stm32l4xx_hal_rcc.c ****   if(((RCC_ClkInitStruct->ClockType) & RCC_CLOCKTYPE_PCLK1) == RCC_CLOCKTYPE_PCLK1)
 1614              		.loc 1 1121 25
 1615 01b6 7B68     		ldr	r3, [r7, #4]
 1616 01b8 1B68     		ldr	r3, [r3]
 1617              		.loc 1 1121 38
 1618 01ba 03F00403 		and	r3, r3, #4
 1619              		.loc 1 1121 5
 1620 01be 002B     		cmp	r3, #0
 1621 01c0 08D0     		beq	.L106
1122:/home/fanxinhao/Work/LiteOS_Lab/drivers/third_party/ST/STM32L4xx_HAL_Driver/Src/stm32l4xx_hal_rcc.c ****   {
1123:/home/fanxinhao/Work/LiteOS_Lab/drivers/third_party/ST/STM32L4xx_HAL_Driver/Src/stm32l4xx_hal_rcc.c ****     assert_param(IS_RCC_PCLK(RCC_ClkInitStruct->APB1CLKDivider));
1124:/home/fanxinhao/Work/LiteOS_Lab/drivers/third_party/ST/STM32L4xx_HAL_Driver/Src/stm32l4xx_hal_rcc.c ****     MODIFY_REG(RCC->CFGR, RCC_CFGR_PPRE1, RCC_ClkInitStruct->APB1CLKDivider);
 1622              		.loc 1 1124 5
 1623 01c2 184B     		ldr	r3, .L108+4
 1624 01c4 9B68     		ldr	r3, [r3, #8]
 1625 01c6 23F4E062 		bic	r2, r3, #1792
 1626 01ca 7B68     		ldr	r3, [r7, #4]
 1627 01cc DB68     		ldr	r3, [r3, #12]
ARM GAS  /tmp/ccuQhhnt.s 			page 50


 1628 01ce 1549     		ldr	r1, .L108+4
 1629 01d0 1343     		orrs	r3, r3, r2
 1630 01d2 8B60     		str	r3, [r1, #8]
 1631              	.L106:
1125:/home/fanxinhao/Work/LiteOS_Lab/drivers/third_party/ST/STM32L4xx_HAL_Driver/Src/stm32l4xx_hal_rcc.c ****   }
1126:/home/fanxinhao/Work/LiteOS_Lab/drivers/third_party/ST/STM32L4xx_HAL_Driver/Src/stm32l4xx_hal_rcc.c **** 
1127:/home/fanxinhao/Work/LiteOS_Lab/drivers/third_party/ST/STM32L4xx_HAL_Driver/Src/stm32l4xx_hal_rcc.c ****   /*-------------------------- PCLK2 Configuration ---------------------------*/
1128:/home/fanxinhao/Work/LiteOS_Lab/drivers/third_party/ST/STM32L4xx_HAL_Driver/Src/stm32l4xx_hal_rcc.c ****   if(((RCC_ClkInitStruct->ClockType) & RCC_CLOCKTYPE_PCLK2) == RCC_CLOCKTYPE_PCLK2)
 1632              		.loc 1 1128 25
 1633 01d4 7B68     		ldr	r3, [r7, #4]
 1634 01d6 1B68     		ldr	r3, [r3]
 1635              		.loc 1 1128 38
 1636 01d8 03F00803 		and	r3, r3, #8
 1637              		.loc 1 1128 5
 1638 01dc 002B     		cmp	r3, #0
 1639 01de 09D0     		beq	.L107
1129:/home/fanxinhao/Work/LiteOS_Lab/drivers/third_party/ST/STM32L4xx_HAL_Driver/Src/stm32l4xx_hal_rcc.c ****   {
1130:/home/fanxinhao/Work/LiteOS_Lab/drivers/third_party/ST/STM32L4xx_HAL_Driver/Src/stm32l4xx_hal_rcc.c ****     assert_param(IS_RCC_PCLK(RCC_ClkInitStruct->APB2CLKDivider));
1131:/home/fanxinhao/Work/LiteOS_Lab/drivers/third_party/ST/STM32L4xx_HAL_Driver/Src/stm32l4xx_hal_rcc.c ****     MODIFY_REG(RCC->CFGR, RCC_CFGR_PPRE2, ((RCC_ClkInitStruct->APB2CLKDivider) << 3U));
 1640              		.loc 1 1131 5
 1641 01e0 104B     		ldr	r3, .L108+4
 1642 01e2 9B68     		ldr	r3, [r3, #8]
 1643 01e4 23F46052 		bic	r2, r3, #14336
 1644 01e8 7B68     		ldr	r3, [r7, #4]
 1645 01ea 1B69     		ldr	r3, [r3, #16]
 1646 01ec DB00     		lsls	r3, r3, #3
 1647 01ee 0D49     		ldr	r1, .L108+4
 1648 01f0 1343     		orrs	r3, r3, r2
 1649 01f2 8B60     		str	r3, [r1, #8]
 1650              	.L107:
1132:/home/fanxinhao/Work/LiteOS_Lab/drivers/third_party/ST/STM32L4xx_HAL_Driver/Src/stm32l4xx_hal_rcc.c ****   }
1133:/home/fanxinhao/Work/LiteOS_Lab/drivers/third_party/ST/STM32L4xx_HAL_Driver/Src/stm32l4xx_hal_rcc.c **** 
1134:/home/fanxinhao/Work/LiteOS_Lab/drivers/third_party/ST/STM32L4xx_HAL_Driver/Src/stm32l4xx_hal_rcc.c ****   /* Update the SystemCoreClock global variable */
1135:/home/fanxinhao/Work/LiteOS_Lab/drivers/third_party/ST/STM32L4xx_HAL_Driver/Src/stm32l4xx_hal_rcc.c ****   SystemCoreClock = HAL_RCC_GetSysClockFreq() >> AHBPrescTable[READ_BIT(RCC->CFGR, RCC_CFGR_HPRE) >
 1651              		.loc 1 1135 21
 1652 01f4 FFF7FEFF 		bl	HAL_RCC_GetSysClockFreq
 1653 01f8 0246     		mov	r2, r0
 1654              		.loc 1 1135 64
 1655 01fa 0A4B     		ldr	r3, .L108+4
 1656 01fc 9B68     		ldr	r3, [r3, #8]
 1657              		.loc 1 1135 99
 1658 01fe 1B09     		lsrs	r3, r3, #4
 1659 0200 03F00F03 		and	r3, r3, #15
 1660              		.loc 1 1135 63
 1661 0204 0849     		ldr	r1, .L108+8
 1662 0206 CB5C     		ldrb	r3, [r1, r3]	@ zero_extendqisi2
 1663              		.loc 1 1135 47
 1664 0208 22FA03F3 		lsr	r3, r2, r3
 1665              		.loc 1 1135 19
 1666 020c 074A     		ldr	r2, .L108+12
 1667 020e 1360     		str	r3, [r2]
1136:/home/fanxinhao/Work/LiteOS_Lab/drivers/third_party/ST/STM32L4xx_HAL_Driver/Src/stm32l4xx_hal_rcc.c **** 
1137:/home/fanxinhao/Work/LiteOS_Lab/drivers/third_party/ST/STM32L4xx_HAL_Driver/Src/stm32l4xx_hal_rcc.c ****   /* Configure the source of time base considering new system clocks settings*/
1138:/home/fanxinhao/Work/LiteOS_Lab/drivers/third_party/ST/STM32L4xx_HAL_Driver/Src/stm32l4xx_hal_rcc.c ****   HAL_InitTick (TICK_INT_PRIORITY);
 1668              		.loc 1 1138 3
 1669 0210 0020     		movs	r0, #0
 1670 0212 FFF7FEFF 		bl	HAL_InitTick
ARM GAS  /tmp/ccuQhhnt.s 			page 51


1139:/home/fanxinhao/Work/LiteOS_Lab/drivers/third_party/ST/STM32L4xx_HAL_Driver/Src/stm32l4xx_hal_rcc.c **** 
1140:/home/fanxinhao/Work/LiteOS_Lab/drivers/third_party/ST/STM32L4xx_HAL_Driver/Src/stm32l4xx_hal_rcc.c ****   return HAL_OK;
 1671              		.loc 1 1140 10
 1672 0216 0023     		movs	r3, #0
 1673              	.L87:
1141:/home/fanxinhao/Work/LiteOS_Lab/drivers/third_party/ST/STM32L4xx_HAL_Driver/Src/stm32l4xx_hal_rcc.c **** }
 1674              		.loc 1 1141 1
 1675 0218 1846     		mov	r0, r3
 1676 021a 1037     		adds	r7, r7, #16
 1677              	.LCFI13:
 1678              		.cfi_def_cfa_offset 8
 1679 021c BD46     		mov	sp, r7
 1680              	.LCFI14:
 1681              		.cfi_def_cfa_register 13
 1682              		@ sp needed
 1683 021e 80BD     		pop	{r7, pc}
 1684              	.L109:
 1685              		.align	2
 1686              	.L108:
 1687 0220 00200240 		.word	1073881088
 1688 0224 00100240 		.word	1073876992
 1689 0228 00000000 		.word	AHBPrescTable
 1690 022c 00000000 		.word	SystemCoreClock
 1691              		.cfi_endproc
 1692              	.LFE128:
 1694              		.section	.text.HAL_RCC_MCOConfig,"ax",%progbits
 1695              		.align	1
 1696              		.global	HAL_RCC_MCOConfig
 1697              		.syntax unified
 1698              		.thumb
 1699              		.thumb_func
 1700              		.fpu fpv4-sp-d16
 1702              	HAL_RCC_MCOConfig:
 1703              	.LFB129:
1142:/home/fanxinhao/Work/LiteOS_Lab/drivers/third_party/ST/STM32L4xx_HAL_Driver/Src/stm32l4xx_hal_rcc.c **** 
1143:/home/fanxinhao/Work/LiteOS_Lab/drivers/third_party/ST/STM32L4xx_HAL_Driver/Src/stm32l4xx_hal_rcc.c **** /**
1144:/home/fanxinhao/Work/LiteOS_Lab/drivers/third_party/ST/STM32L4xx_HAL_Driver/Src/stm32l4xx_hal_rcc.c ****   * @}
1145:/home/fanxinhao/Work/LiteOS_Lab/drivers/third_party/ST/STM32L4xx_HAL_Driver/Src/stm32l4xx_hal_rcc.c ****   */
1146:/home/fanxinhao/Work/LiteOS_Lab/drivers/third_party/ST/STM32L4xx_HAL_Driver/Src/stm32l4xx_hal_rcc.c **** 
1147:/home/fanxinhao/Work/LiteOS_Lab/drivers/third_party/ST/STM32L4xx_HAL_Driver/Src/stm32l4xx_hal_rcc.c **** /** @defgroup RCC_Exported_Functions_Group2 Peripheral Control functions
1148:/home/fanxinhao/Work/LiteOS_Lab/drivers/third_party/ST/STM32L4xx_HAL_Driver/Src/stm32l4xx_hal_rcc.c ****  *  @brief   RCC clocks control functions
1149:/home/fanxinhao/Work/LiteOS_Lab/drivers/third_party/ST/STM32L4xx_HAL_Driver/Src/stm32l4xx_hal_rcc.c ****  *
1150:/home/fanxinhao/Work/LiteOS_Lab/drivers/third_party/ST/STM32L4xx_HAL_Driver/Src/stm32l4xx_hal_rcc.c **** @verbatim
1151:/home/fanxinhao/Work/LiteOS_Lab/drivers/third_party/ST/STM32L4xx_HAL_Driver/Src/stm32l4xx_hal_rcc.c ****  ===============================================================================
1152:/home/fanxinhao/Work/LiteOS_Lab/drivers/third_party/ST/STM32L4xx_HAL_Driver/Src/stm32l4xx_hal_rcc.c ****                       ##### Peripheral Control functions #####
1153:/home/fanxinhao/Work/LiteOS_Lab/drivers/third_party/ST/STM32L4xx_HAL_Driver/Src/stm32l4xx_hal_rcc.c ****  ===============================================================================
1154:/home/fanxinhao/Work/LiteOS_Lab/drivers/third_party/ST/STM32L4xx_HAL_Driver/Src/stm32l4xx_hal_rcc.c ****     [..]
1155:/home/fanxinhao/Work/LiteOS_Lab/drivers/third_party/ST/STM32L4xx_HAL_Driver/Src/stm32l4xx_hal_rcc.c ****     This subsection provides a set of functions allowing to:
1156:/home/fanxinhao/Work/LiteOS_Lab/drivers/third_party/ST/STM32L4xx_HAL_Driver/Src/stm32l4xx_hal_rcc.c **** 
1157:/home/fanxinhao/Work/LiteOS_Lab/drivers/third_party/ST/STM32L4xx_HAL_Driver/Src/stm32l4xx_hal_rcc.c ****     (+) Ouput clock to MCO pin.
1158:/home/fanxinhao/Work/LiteOS_Lab/drivers/third_party/ST/STM32L4xx_HAL_Driver/Src/stm32l4xx_hal_rcc.c ****     (+) Retrieve current clock frequencies.
1159:/home/fanxinhao/Work/LiteOS_Lab/drivers/third_party/ST/STM32L4xx_HAL_Driver/Src/stm32l4xx_hal_rcc.c ****     (+) Enable the Clock Security System.
1160:/home/fanxinhao/Work/LiteOS_Lab/drivers/third_party/ST/STM32L4xx_HAL_Driver/Src/stm32l4xx_hal_rcc.c **** 
1161:/home/fanxinhao/Work/LiteOS_Lab/drivers/third_party/ST/STM32L4xx_HAL_Driver/Src/stm32l4xx_hal_rcc.c **** @endverbatim
1162:/home/fanxinhao/Work/LiteOS_Lab/drivers/third_party/ST/STM32L4xx_HAL_Driver/Src/stm32l4xx_hal_rcc.c ****   * @{
1163:/home/fanxinhao/Work/LiteOS_Lab/drivers/third_party/ST/STM32L4xx_HAL_Driver/Src/stm32l4xx_hal_rcc.c ****   */
1164:/home/fanxinhao/Work/LiteOS_Lab/drivers/third_party/ST/STM32L4xx_HAL_Driver/Src/stm32l4xx_hal_rcc.c **** 
ARM GAS  /tmp/ccuQhhnt.s 			page 52


1165:/home/fanxinhao/Work/LiteOS_Lab/drivers/third_party/ST/STM32L4xx_HAL_Driver/Src/stm32l4xx_hal_rcc.c **** /**
1166:/home/fanxinhao/Work/LiteOS_Lab/drivers/third_party/ST/STM32L4xx_HAL_Driver/Src/stm32l4xx_hal_rcc.c ****   * @brief  Select the clock source to output on MCO pin(PA8).
1167:/home/fanxinhao/Work/LiteOS_Lab/drivers/third_party/ST/STM32L4xx_HAL_Driver/Src/stm32l4xx_hal_rcc.c ****   * @note   PA8 should be configured in alternate function mode.
1168:/home/fanxinhao/Work/LiteOS_Lab/drivers/third_party/ST/STM32L4xx_HAL_Driver/Src/stm32l4xx_hal_rcc.c ****   * @param  RCC_MCOx  specifies the output direction for the clock source.
1169:/home/fanxinhao/Work/LiteOS_Lab/drivers/third_party/ST/STM32L4xx_HAL_Driver/Src/stm32l4xx_hal_rcc.c ****   *          For STM32L4xx family this parameter can have only one value:
1170:/home/fanxinhao/Work/LiteOS_Lab/drivers/third_party/ST/STM32L4xx_HAL_Driver/Src/stm32l4xx_hal_rcc.c ****   *            @arg @ref RCC_MCO1  Clock source to output on MCO1 pin(PA8).
1171:/home/fanxinhao/Work/LiteOS_Lab/drivers/third_party/ST/STM32L4xx_HAL_Driver/Src/stm32l4xx_hal_rcc.c ****   * @param  RCC_MCOSource  specifies the clock source to output.
1172:/home/fanxinhao/Work/LiteOS_Lab/drivers/third_party/ST/STM32L4xx_HAL_Driver/Src/stm32l4xx_hal_rcc.c ****   *          This parameter can be one of the following values:
1173:/home/fanxinhao/Work/LiteOS_Lab/drivers/third_party/ST/STM32L4xx_HAL_Driver/Src/stm32l4xx_hal_rcc.c ****   *            @arg @ref RCC_MCO1SOURCE_NOCLOCK  MCO output disabled, no clock on MCO
1174:/home/fanxinhao/Work/LiteOS_Lab/drivers/third_party/ST/STM32L4xx_HAL_Driver/Src/stm32l4xx_hal_rcc.c ****   *            @arg @ref RCC_MCO1SOURCE_SYSCLK  system  clock selected as MCO source
1175:/home/fanxinhao/Work/LiteOS_Lab/drivers/third_party/ST/STM32L4xx_HAL_Driver/Src/stm32l4xx_hal_rcc.c ****   *            @arg @ref RCC_MCO1SOURCE_MSI  MSI clock selected as MCO source
1176:/home/fanxinhao/Work/LiteOS_Lab/drivers/third_party/ST/STM32L4xx_HAL_Driver/Src/stm32l4xx_hal_rcc.c ****   *            @arg @ref RCC_MCO1SOURCE_HSI  HSI clock selected as MCO source
1177:/home/fanxinhao/Work/LiteOS_Lab/drivers/third_party/ST/STM32L4xx_HAL_Driver/Src/stm32l4xx_hal_rcc.c ****   *            @arg @ref RCC_MCO1SOURCE_HSE  HSE clock selected as MCO sourcee
1178:/home/fanxinhao/Work/LiteOS_Lab/drivers/third_party/ST/STM32L4xx_HAL_Driver/Src/stm32l4xx_hal_rcc.c ****   *            @arg @ref RCC_MCO1SOURCE_PLLCLK  main PLL clock selected as MCO source
1179:/home/fanxinhao/Work/LiteOS_Lab/drivers/third_party/ST/STM32L4xx_HAL_Driver/Src/stm32l4xx_hal_rcc.c ****   *            @arg @ref RCC_MCO1SOURCE_LSI  LSI clock selected as MCO source
1180:/home/fanxinhao/Work/LiteOS_Lab/drivers/third_party/ST/STM32L4xx_HAL_Driver/Src/stm32l4xx_hal_rcc.c ****   *            @arg @ref RCC_MCO1SOURCE_LSE  LSE clock selected as MCO source
1181:/home/fanxinhao/Work/LiteOS_Lab/drivers/third_party/ST/STM32L4xx_HAL_Driver/Src/stm32l4xx_hal_rcc.c ****   @if STM32L443xx
1182:/home/fanxinhao/Work/LiteOS_Lab/drivers/third_party/ST/STM32L4xx_HAL_Driver/Src/stm32l4xx_hal_rcc.c ****   *            @arg @ref RCC_MCO1SOURCE_HSI48  HSI48 clock selected as MCO source for devices with 
1183:/home/fanxinhao/Work/LiteOS_Lab/drivers/third_party/ST/STM32L4xx_HAL_Driver/Src/stm32l4xx_hal_rcc.c ****   @endif
1184:/home/fanxinhao/Work/LiteOS_Lab/drivers/third_party/ST/STM32L4xx_HAL_Driver/Src/stm32l4xx_hal_rcc.c ****   * @param  RCC_MCODiv  specifies the MCO prescaler.
1185:/home/fanxinhao/Work/LiteOS_Lab/drivers/third_party/ST/STM32L4xx_HAL_Driver/Src/stm32l4xx_hal_rcc.c ****   *          This parameter can be one of the following values:
1186:/home/fanxinhao/Work/LiteOS_Lab/drivers/third_party/ST/STM32L4xx_HAL_Driver/Src/stm32l4xx_hal_rcc.c ****   *            @arg @ref RCC_MCODIV_1  no division applied to MCO clock
1187:/home/fanxinhao/Work/LiteOS_Lab/drivers/third_party/ST/STM32L4xx_HAL_Driver/Src/stm32l4xx_hal_rcc.c ****   *            @arg @ref RCC_MCODIV_2  division by 2 applied to MCO clock
1188:/home/fanxinhao/Work/LiteOS_Lab/drivers/third_party/ST/STM32L4xx_HAL_Driver/Src/stm32l4xx_hal_rcc.c ****   *            @arg @ref RCC_MCODIV_4  division by 4 applied to MCO clock
1189:/home/fanxinhao/Work/LiteOS_Lab/drivers/third_party/ST/STM32L4xx_HAL_Driver/Src/stm32l4xx_hal_rcc.c ****   *            @arg @ref RCC_MCODIV_8  division by 8 applied to MCO clock
1190:/home/fanxinhao/Work/LiteOS_Lab/drivers/third_party/ST/STM32L4xx_HAL_Driver/Src/stm32l4xx_hal_rcc.c ****   *            @arg @ref RCC_MCODIV_16  division by 16 applied to MCO clock
1191:/home/fanxinhao/Work/LiteOS_Lab/drivers/third_party/ST/STM32L4xx_HAL_Driver/Src/stm32l4xx_hal_rcc.c ****   * @retval None
1192:/home/fanxinhao/Work/LiteOS_Lab/drivers/third_party/ST/STM32L4xx_HAL_Driver/Src/stm32l4xx_hal_rcc.c ****   */
1193:/home/fanxinhao/Work/LiteOS_Lab/drivers/third_party/ST/STM32L4xx_HAL_Driver/Src/stm32l4xx_hal_rcc.c **** void HAL_RCC_MCOConfig( uint32_t RCC_MCOx, uint32_t RCC_MCOSource, uint32_t RCC_MCODiv)
1194:/home/fanxinhao/Work/LiteOS_Lab/drivers/third_party/ST/STM32L4xx_HAL_Driver/Src/stm32l4xx_hal_rcc.c **** {
 1704              		.loc 1 1194 1
 1705              		.cfi_startproc
 1706              		@ args = 0, pretend = 0, frame = 40
 1707              		@ frame_needed = 1, uses_anonymous_args = 0
 1708 0000 80B5     		push	{r7, lr}
 1709              	.LCFI15:
 1710              		.cfi_def_cfa_offset 8
 1711              		.cfi_offset 7, -8
 1712              		.cfi_offset 14, -4
 1713 0002 8AB0     		sub	sp, sp, #40
 1714              	.LCFI16:
 1715              		.cfi_def_cfa_offset 48
 1716 0004 00AF     		add	r7, sp, #0
 1717              	.LCFI17:
 1718              		.cfi_def_cfa_register 7
 1719 0006 F860     		str	r0, [r7, #12]
 1720 0008 B960     		str	r1, [r7, #8]
 1721 000a 7A60     		str	r2, [r7, #4]
 1722              	.LBB4:
1195:/home/fanxinhao/Work/LiteOS_Lab/drivers/third_party/ST/STM32L4xx_HAL_Driver/Src/stm32l4xx_hal_rcc.c ****   GPIO_InitTypeDef GPIO_InitStruct;
1196:/home/fanxinhao/Work/LiteOS_Lab/drivers/third_party/ST/STM32L4xx_HAL_Driver/Src/stm32l4xx_hal_rcc.c ****   /* Check the parameters */
1197:/home/fanxinhao/Work/LiteOS_Lab/drivers/third_party/ST/STM32L4xx_HAL_Driver/Src/stm32l4xx_hal_rcc.c ****   assert_param(IS_RCC_MCO(RCC_MCOx));
1198:/home/fanxinhao/Work/LiteOS_Lab/drivers/third_party/ST/STM32L4xx_HAL_Driver/Src/stm32l4xx_hal_rcc.c ****   assert_param(IS_RCC_MCODIV(RCC_MCODiv));
1199:/home/fanxinhao/Work/LiteOS_Lab/drivers/third_party/ST/STM32L4xx_HAL_Driver/Src/stm32l4xx_hal_rcc.c ****   assert_param(IS_RCC_MCO1SOURCE(RCC_MCOSource));
1200:/home/fanxinhao/Work/LiteOS_Lab/drivers/third_party/ST/STM32L4xx_HAL_Driver/Src/stm32l4xx_hal_rcc.c **** 
1201:/home/fanxinhao/Work/LiteOS_Lab/drivers/third_party/ST/STM32L4xx_HAL_Driver/Src/stm32l4xx_hal_rcc.c ****   /* MCO Clock Enable */
1202:/home/fanxinhao/Work/LiteOS_Lab/drivers/third_party/ST/STM32L4xx_HAL_Driver/Src/stm32l4xx_hal_rcc.c ****   __MCO1_CLK_ENABLE();
ARM GAS  /tmp/ccuQhhnt.s 			page 53


 1723              		.loc 1 1202 3
 1724 000c 154B     		ldr	r3, .L111
 1725 000e DB6C     		ldr	r3, [r3, #76]
 1726 0010 144A     		ldr	r2, .L111
 1727 0012 43F00103 		orr	r3, r3, #1
 1728 0016 D364     		str	r3, [r2, #76]
 1729 0018 124B     		ldr	r3, .L111
 1730 001a DB6C     		ldr	r3, [r3, #76]
 1731 001c 03F00103 		and	r3, r3, #1
 1732 0020 3B61     		str	r3, [r7, #16]
 1733 0022 3B69     		ldr	r3, [r7, #16]
 1734              	.LBE4:
1203:/home/fanxinhao/Work/LiteOS_Lab/drivers/third_party/ST/STM32L4xx_HAL_Driver/Src/stm32l4xx_hal_rcc.c **** 
1204:/home/fanxinhao/Work/LiteOS_Lab/drivers/third_party/ST/STM32L4xx_HAL_Driver/Src/stm32l4xx_hal_rcc.c ****   /* Configue the MCO1 pin in alternate function mode */
1205:/home/fanxinhao/Work/LiteOS_Lab/drivers/third_party/ST/STM32L4xx_HAL_Driver/Src/stm32l4xx_hal_rcc.c ****   GPIO_InitStruct.Pin = MCO1_PIN;
 1735              		.loc 1 1205 23
 1736 0024 4FF48073 		mov	r3, #256
 1737 0028 7B61     		str	r3, [r7, #20]
1206:/home/fanxinhao/Work/LiteOS_Lab/drivers/third_party/ST/STM32L4xx_HAL_Driver/Src/stm32l4xx_hal_rcc.c ****   GPIO_InitStruct.Mode = GPIO_MODE_AF_PP;
 1738              		.loc 1 1206 24
 1739 002a 0223     		movs	r3, #2
 1740 002c BB61     		str	r3, [r7, #24]
1207:/home/fanxinhao/Work/LiteOS_Lab/drivers/third_party/ST/STM32L4xx_HAL_Driver/Src/stm32l4xx_hal_rcc.c ****   GPIO_InitStruct.Speed = GPIO_SPEED_FREQ_HIGH;
 1741              		.loc 1 1207 25
 1742 002e 0223     		movs	r3, #2
 1743 0030 3B62     		str	r3, [r7, #32]
1208:/home/fanxinhao/Work/LiteOS_Lab/drivers/third_party/ST/STM32L4xx_HAL_Driver/Src/stm32l4xx_hal_rcc.c ****   GPIO_InitStruct.Pull = GPIO_NOPULL;
 1744              		.loc 1 1208 24
 1745 0032 0023     		movs	r3, #0
 1746 0034 FB61     		str	r3, [r7, #28]
1209:/home/fanxinhao/Work/LiteOS_Lab/drivers/third_party/ST/STM32L4xx_HAL_Driver/Src/stm32l4xx_hal_rcc.c ****   GPIO_InitStruct.Alternate = GPIO_AF0_MCO;
 1747              		.loc 1 1209 29
 1748 0036 0023     		movs	r3, #0
 1749 0038 7B62     		str	r3, [r7, #36]
1210:/home/fanxinhao/Work/LiteOS_Lab/drivers/third_party/ST/STM32L4xx_HAL_Driver/Src/stm32l4xx_hal_rcc.c ****   HAL_GPIO_Init(MCO1_GPIO_PORT, &GPIO_InitStruct);
 1750              		.loc 1 1210 3
 1751 003a 07F11403 		add	r3, r7, #20
 1752 003e 1946     		mov	r1, r3
 1753 0040 4FF09040 		mov	r0, #1207959552
 1754 0044 FFF7FEFF 		bl	HAL_GPIO_Init
1211:/home/fanxinhao/Work/LiteOS_Lab/drivers/third_party/ST/STM32L4xx_HAL_Driver/Src/stm32l4xx_hal_rcc.c **** 
1212:/home/fanxinhao/Work/LiteOS_Lab/drivers/third_party/ST/STM32L4xx_HAL_Driver/Src/stm32l4xx_hal_rcc.c ****   /* Mask MCOSEL[] and MCOPRE[] bits then set MCO1 clock source and prescaler */
1213:/home/fanxinhao/Work/LiteOS_Lab/drivers/third_party/ST/STM32L4xx_HAL_Driver/Src/stm32l4xx_hal_rcc.c ****   MODIFY_REG(RCC->CFGR, (RCC_CFGR_MCOSEL | RCC_CFGR_MCOPRE), (RCC_MCOSource | RCC_MCODiv ));
 1755              		.loc 1 1213 3
 1756 0048 064B     		ldr	r3, .L111
 1757 004a 9B68     		ldr	r3, [r3, #8]
 1758 004c 23F0EE42 		bic	r2, r3, #1996488704
 1759 0050 B968     		ldr	r1, [r7, #8]
 1760 0052 7B68     		ldr	r3, [r7, #4]
 1761 0054 0B43     		orrs	r3, r3, r1
 1762 0056 0349     		ldr	r1, .L111
 1763 0058 1343     		orrs	r3, r3, r2
 1764 005a 8B60     		str	r3, [r1, #8]
1214:/home/fanxinhao/Work/LiteOS_Lab/drivers/third_party/ST/STM32L4xx_HAL_Driver/Src/stm32l4xx_hal_rcc.c **** }
 1765              		.loc 1 1214 1
 1766 005c 00BF     		nop
 1767 005e 2837     		adds	r7, r7, #40
ARM GAS  /tmp/ccuQhhnt.s 			page 54


 1768              	.LCFI18:
 1769              		.cfi_def_cfa_offset 8
 1770 0060 BD46     		mov	sp, r7
 1771              	.LCFI19:
 1772              		.cfi_def_cfa_register 13
 1773              		@ sp needed
 1774 0062 80BD     		pop	{r7, pc}
 1775              	.L112:
 1776              		.align	2
 1777              	.L111:
 1778 0064 00100240 		.word	1073876992
 1779              		.cfi_endproc
 1780              	.LFE129:
 1782              		.section	.text.HAL_RCC_GetSysClockFreq,"ax",%progbits
 1783              		.align	1
