ARM GAS  /tmp/ccKmrB2u.s 			page 1


   1              		.cpu cortex-m4
   2              		.eabi_attribute 27, 1
   3              		.eabi_attribute 28, 1
   4              		.eabi_attribute 20, 1
   5              		.eabi_attribute 21, 1
   6              		.eabi_attribute 23, 3
   7              		.eabi_attribute 24, 1
   8              		.eabi_attribute 25, 1
   9              		.eabi_attribute 26, 1
  10              		.eabi_attribute 30, 6
  11              		.eabi_attribute 34, 1
  12              		.eabi_attribute 18, 4
  13              		.file	"stm32l4xx_hal.c"
  14              		.text
  15              	.Ltext0:
  16              		.cfi_sections	.debug_frame
  17              		.comm	uwTick,4,4
  18              		.section	.text.HAL_Init,"ax",%progbits
  19              		.align	1
  20              		.global	HAL_Init
  21              		.arch armv7e-m
  22              		.syntax unified
  23              		.thumb
  24              		.thumb_func
  25              		.fpu fpv4-sp-d16
  27              	HAL_Init:
  28              	.LFB126:
  29              		.file 1 "/home/fanxinhao/Work/LiteOS_Lab/drivers/third_party/ST/STM32L4xx_HAL_Driver/Src/stm32l4xx
   1:/home/fanxinhao/Work/LiteOS_Lab/drivers/third_party/ST/STM32L4xx_HAL_Driver/Src/stm32l4xx_hal.c **** /**
   2:/home/fanxinhao/Work/LiteOS_Lab/drivers/third_party/ST/STM32L4xx_HAL_Driver/Src/stm32l4xx_hal.c ****   ******************************************************************************
   3:/home/fanxinhao/Work/LiteOS_Lab/drivers/third_party/ST/STM32L4xx_HAL_Driver/Src/stm32l4xx_hal.c ****   * @file    stm32l4xx_hal.c
   4:/home/fanxinhao/Work/LiteOS_Lab/drivers/third_party/ST/STM32L4xx_HAL_Driver/Src/stm32l4xx_hal.c ****   * @author  MCD Application Team
   5:/home/fanxinhao/Work/LiteOS_Lab/drivers/third_party/ST/STM32L4xx_HAL_Driver/Src/stm32l4xx_hal.c ****   * @brief   HAL module driver.
   6:/home/fanxinhao/Work/LiteOS_Lab/drivers/third_party/ST/STM32L4xx_HAL_Driver/Src/stm32l4xx_hal.c ****   *          This is the common part of the HAL initialization
   7:/home/fanxinhao/Work/LiteOS_Lab/drivers/third_party/ST/STM32L4xx_HAL_Driver/Src/stm32l4xx_hal.c ****   *
   8:/home/fanxinhao/Work/LiteOS_Lab/drivers/third_party/ST/STM32L4xx_HAL_Driver/Src/stm32l4xx_hal.c ****   @verbatim
   9:/home/fanxinhao/Work/LiteOS_Lab/drivers/third_party/ST/STM32L4xx_HAL_Driver/Src/stm32l4xx_hal.c ****   ==============================================================================
  10:/home/fanxinhao/Work/LiteOS_Lab/drivers/third_party/ST/STM32L4xx_HAL_Driver/Src/stm32l4xx_hal.c ****                      ##### How to use this driver #####
  11:/home/fanxinhao/Work/LiteOS_Lab/drivers/third_party/ST/STM32L4xx_HAL_Driver/Src/stm32l4xx_hal.c ****   ==============================================================================
  12:/home/fanxinhao/Work/LiteOS_Lab/drivers/third_party/ST/STM32L4xx_HAL_Driver/Src/stm32l4xx_hal.c ****     [..]
  13:/home/fanxinhao/Work/LiteOS_Lab/drivers/third_party/ST/STM32L4xx_HAL_Driver/Src/stm32l4xx_hal.c ****     The common HAL driver contains a set of generic and common APIs that can be
  14:/home/fanxinhao/Work/LiteOS_Lab/drivers/third_party/ST/STM32L4xx_HAL_Driver/Src/stm32l4xx_hal.c ****     used by the PPP peripheral drivers and the user to start using the HAL.
  15:/home/fanxinhao/Work/LiteOS_Lab/drivers/third_party/ST/STM32L4xx_HAL_Driver/Src/stm32l4xx_hal.c ****     [..]
  16:/home/fanxinhao/Work/LiteOS_Lab/drivers/third_party/ST/STM32L4xx_HAL_Driver/Src/stm32l4xx_hal.c ****     The HAL contains two APIs' categories:
  17:/home/fanxinhao/Work/LiteOS_Lab/drivers/third_party/ST/STM32L4xx_HAL_Driver/Src/stm32l4xx_hal.c ****          (+) Common HAL APIs
  18:/home/fanxinhao/Work/LiteOS_Lab/drivers/third_party/ST/STM32L4xx_HAL_Driver/Src/stm32l4xx_hal.c ****          (+) Services HAL APIs
  19:/home/fanxinhao/Work/LiteOS_Lab/drivers/third_party/ST/STM32L4xx_HAL_Driver/Src/stm32l4xx_hal.c **** 
  20:/home/fanxinhao/Work/LiteOS_Lab/drivers/third_party/ST/STM32L4xx_HAL_Driver/Src/stm32l4xx_hal.c ****   @endverbatim
  21:/home/fanxinhao/Work/LiteOS_Lab/drivers/third_party/ST/STM32L4xx_HAL_Driver/Src/stm32l4xx_hal.c ****   ******************************************************************************
  22:/home/fanxinhao/Work/LiteOS_Lab/drivers/third_party/ST/STM32L4xx_HAL_Driver/Src/stm32l4xx_hal.c ****   * @attention
  23:/home/fanxinhao/Work/LiteOS_Lab/drivers/third_party/ST/STM32L4xx_HAL_Driver/Src/stm32l4xx_hal.c ****   *
  24:/home/fanxinhao/Work/LiteOS_Lab/drivers/third_party/ST/STM32L4xx_HAL_Driver/Src/stm32l4xx_hal.c ****   * <h2><center>&copy; COPYRIGHT(c) 2017 STMicroelectronics</center></h2>
  25:/home/fanxinhao/Work/LiteOS_Lab/drivers/third_party/ST/STM32L4xx_HAL_Driver/Src/stm32l4xx_hal.c ****   *
  26:/home/fanxinhao/Work/LiteOS_Lab/drivers/third_party/ST/STM32L4xx_HAL_Driver/Src/stm32l4xx_hal.c ****   * Redistribution and use in source and binary forms, with or without modification,
  27:/home/fanxinhao/Work/LiteOS_Lab/drivers/third_party/ST/STM32L4xx_HAL_Driver/Src/stm32l4xx_hal.c ****   * are permitted provided that the following conditions are met:
  28:/home/fanxinhao/Work/LiteOS_Lab/drivers/third_party/ST/STM32L4xx_HAL_Driver/Src/stm32l4xx_hal.c ****   *   1. Redistributions of source code must retain the above copyright notice,
  29:/home/fanxinhao/Work/LiteOS_Lab/drivers/third_party/ST/STM32L4xx_HAL_Driver/Src/stm32l4xx_hal.c ****   *      this list of conditions and the following disclaimer.
ARM GAS  /tmp/ccKmrB2u.s 			page 2


  30:/home/fanxinhao/Work/LiteOS_Lab/drivers/third_party/ST/STM32L4xx_HAL_Driver/Src/stm32l4xx_hal.c ****   *   2. Redistributions in binary form must reproduce the above copyright notice,
  31:/home/fanxinhao/Work/LiteOS_Lab/drivers/third_party/ST/STM32L4xx_HAL_Driver/Src/stm32l4xx_hal.c ****   *      this list of conditions and the following disclaimer in the documentation
  32:/home/fanxinhao/Work/LiteOS_Lab/drivers/third_party/ST/STM32L4xx_HAL_Driver/Src/stm32l4xx_hal.c ****   *      and/or other materials provided with the distribution.
  33:/home/fanxinhao/Work/LiteOS_Lab/drivers/third_party/ST/STM32L4xx_HAL_Driver/Src/stm32l4xx_hal.c ****   *   3. Neither the name of STMicroelectronics nor the names of its contributors
  34:/home/fanxinhao/Work/LiteOS_Lab/drivers/third_party/ST/STM32L4xx_HAL_Driver/Src/stm32l4xx_hal.c ****   *      may be used to endorse or promote products derived from this software
  35:/home/fanxinhao/Work/LiteOS_Lab/drivers/third_party/ST/STM32L4xx_HAL_Driver/Src/stm32l4xx_hal.c ****   *      without specific prior written permission.
  36:/home/fanxinhao/Work/LiteOS_Lab/drivers/third_party/ST/STM32L4xx_HAL_Driver/Src/stm32l4xx_hal.c ****   *
  37:/home/fanxinhao/Work/LiteOS_Lab/drivers/third_party/ST/STM32L4xx_HAL_Driver/Src/stm32l4xx_hal.c ****   * THIS SOFTWARE IS PROVIDED BY THE COPYRIGHT HOLDERS AND CONTRIBUTORS "AS IS"
  38:/home/fanxinhao/Work/LiteOS_Lab/drivers/third_party/ST/STM32L4xx_HAL_Driver/Src/stm32l4xx_hal.c ****   * AND ANY EXPRESS OR IMPLIED WARRANTIES, INCLUDING, BUT NOT LIMITED TO, THE
  39:/home/fanxinhao/Work/LiteOS_Lab/drivers/third_party/ST/STM32L4xx_HAL_Driver/Src/stm32l4xx_hal.c ****   * IMPLIED WARRANTIES OF MERCHANTABILITY AND FITNESS FOR A PARTICULAR PURPOSE ARE
  40:/home/fanxinhao/Work/LiteOS_Lab/drivers/third_party/ST/STM32L4xx_HAL_Driver/Src/stm32l4xx_hal.c ****   * DISCLAIMED. IN NO EVENT SHALL THE COPYRIGHT HOLDER OR CONTRIBUTORS BE LIABLE
  41:/home/fanxinhao/Work/LiteOS_Lab/drivers/third_party/ST/STM32L4xx_HAL_Driver/Src/stm32l4xx_hal.c ****   * FOR ANY DIRECT, INDIRECT, INCIDENTAL, SPECIAL, EXEMPLARY, OR CONSEQUENTIAL
  42:/home/fanxinhao/Work/LiteOS_Lab/drivers/third_party/ST/STM32L4xx_HAL_Driver/Src/stm32l4xx_hal.c ****   * DAMAGES (INCLUDING, BUT NOT LIMITED TO, PROCUREMENT OF SUBSTITUTE GOODS OR
  43:/home/fanxinhao/Work/LiteOS_Lab/drivers/third_party/ST/STM32L4xx_HAL_Driver/Src/stm32l4xx_hal.c ****   * SERVICES; LOSS OF USE, DATA, OR PROFITS; OR BUSINESS INTERRUPTION) HOWEVER
  44:/home/fanxinhao/Work/LiteOS_Lab/drivers/third_party/ST/STM32L4xx_HAL_Driver/Src/stm32l4xx_hal.c ****   * CAUSED AND ON ANY THEORY OF LIABILITY, WHETHER IN CONTRACT, STRICT LIABILITY,
  45:/home/fanxinhao/Work/LiteOS_Lab/drivers/third_party/ST/STM32L4xx_HAL_Driver/Src/stm32l4xx_hal.c ****   * OR TORT (INCLUDING NEGLIGENCE OR OTHERWISE) ARISING IN ANY WAY OUT OF THE USE
  46:/home/fanxinhao/Work/LiteOS_Lab/drivers/third_party/ST/STM32L4xx_HAL_Driver/Src/stm32l4xx_hal.c ****   * OF THIS SOFTWARE, EVEN IF ADVISED OF THE POSSIBILITY OF SUCH DAMAGE.
  47:/home/fanxinhao/Work/LiteOS_Lab/drivers/third_party/ST/STM32L4xx_HAL_Driver/Src/stm32l4xx_hal.c ****   *
  48:/home/fanxinhao/Work/LiteOS_Lab/drivers/third_party/ST/STM32L4xx_HAL_Driver/Src/stm32l4xx_hal.c ****   ******************************************************************************
  49:/home/fanxinhao/Work/LiteOS_Lab/drivers/third_party/ST/STM32L4xx_HAL_Driver/Src/stm32l4xx_hal.c ****   */
  50:/home/fanxinhao/Work/LiteOS_Lab/drivers/third_party/ST/STM32L4xx_HAL_Driver/Src/stm32l4xx_hal.c **** 
  51:/home/fanxinhao/Work/LiteOS_Lab/drivers/third_party/ST/STM32L4xx_HAL_Driver/Src/stm32l4xx_hal.c **** /* Includes ------------------------------------------------------------------*/
  52:/home/fanxinhao/Work/LiteOS_Lab/drivers/third_party/ST/STM32L4xx_HAL_Driver/Src/stm32l4xx_hal.c **** #include "stm32l4xx_hal.h"
  53:/home/fanxinhao/Work/LiteOS_Lab/drivers/third_party/ST/STM32L4xx_HAL_Driver/Src/stm32l4xx_hal.c **** 
  54:/home/fanxinhao/Work/LiteOS_Lab/drivers/third_party/ST/STM32L4xx_HAL_Driver/Src/stm32l4xx_hal.c **** /** @addtogroup STM32L4xx_HAL_Driver
  55:/home/fanxinhao/Work/LiteOS_Lab/drivers/third_party/ST/STM32L4xx_HAL_Driver/Src/stm32l4xx_hal.c ****   * @{
  56:/home/fanxinhao/Work/LiteOS_Lab/drivers/third_party/ST/STM32L4xx_HAL_Driver/Src/stm32l4xx_hal.c ****   */
  57:/home/fanxinhao/Work/LiteOS_Lab/drivers/third_party/ST/STM32L4xx_HAL_Driver/Src/stm32l4xx_hal.c **** 
  58:/home/fanxinhao/Work/LiteOS_Lab/drivers/third_party/ST/STM32L4xx_HAL_Driver/Src/stm32l4xx_hal.c **** /** @defgroup HAL HAL
  59:/home/fanxinhao/Work/LiteOS_Lab/drivers/third_party/ST/STM32L4xx_HAL_Driver/Src/stm32l4xx_hal.c ****   * @brief HAL module driver
  60:/home/fanxinhao/Work/LiteOS_Lab/drivers/third_party/ST/STM32L4xx_HAL_Driver/Src/stm32l4xx_hal.c ****   * @{
  61:/home/fanxinhao/Work/LiteOS_Lab/drivers/third_party/ST/STM32L4xx_HAL_Driver/Src/stm32l4xx_hal.c ****   */
  62:/home/fanxinhao/Work/LiteOS_Lab/drivers/third_party/ST/STM32L4xx_HAL_Driver/Src/stm32l4xx_hal.c **** 
  63:/home/fanxinhao/Work/LiteOS_Lab/drivers/third_party/ST/STM32L4xx_HAL_Driver/Src/stm32l4xx_hal.c **** #ifdef HAL_MODULE_ENABLED
  64:/home/fanxinhao/Work/LiteOS_Lab/drivers/third_party/ST/STM32L4xx_HAL_Driver/Src/stm32l4xx_hal.c **** 
  65:/home/fanxinhao/Work/LiteOS_Lab/drivers/third_party/ST/STM32L4xx_HAL_Driver/Src/stm32l4xx_hal.c **** /* Private typedef -----------------------------------------------------------*/
  66:/home/fanxinhao/Work/LiteOS_Lab/drivers/third_party/ST/STM32L4xx_HAL_Driver/Src/stm32l4xx_hal.c **** /* Private define ------------------------------------------------------------*/
  67:/home/fanxinhao/Work/LiteOS_Lab/drivers/third_party/ST/STM32L4xx_HAL_Driver/Src/stm32l4xx_hal.c **** /**
  68:/home/fanxinhao/Work/LiteOS_Lab/drivers/third_party/ST/STM32L4xx_HAL_Driver/Src/stm32l4xx_hal.c ****  * @brief STM32L4xx HAL Driver version number
  69:/home/fanxinhao/Work/LiteOS_Lab/drivers/third_party/ST/STM32L4xx_HAL_Driver/Src/stm32l4xx_hal.c ****    */
  70:/home/fanxinhao/Work/LiteOS_Lab/drivers/third_party/ST/STM32L4xx_HAL_Driver/Src/stm32l4xx_hal.c **** #define __STM32L4xx_HAL_VERSION_MAIN   (0x01) /*!< [31:24] main version */
  71:/home/fanxinhao/Work/LiteOS_Lab/drivers/third_party/ST/STM32L4xx_HAL_Driver/Src/stm32l4xx_hal.c **** #define __STM32L4xx_HAL_VERSION_SUB1   (0x08) /*!< [23:16] sub1 version */
  72:/home/fanxinhao/Work/LiteOS_Lab/drivers/third_party/ST/STM32L4xx_HAL_Driver/Src/stm32l4xx_hal.c **** #define __STM32L4xx_HAL_VERSION_SUB2   (0x02) /*!< [15:8]  sub2 version */
  73:/home/fanxinhao/Work/LiteOS_Lab/drivers/third_party/ST/STM32L4xx_HAL_Driver/Src/stm32l4xx_hal.c **** #define __STM32L4xx_HAL_VERSION_RC     (0x00) /*!< [7:0]  release candidate */
  74:/home/fanxinhao/Work/LiteOS_Lab/drivers/third_party/ST/STM32L4xx_HAL_Driver/Src/stm32l4xx_hal.c **** #define __STM32L4xx_HAL_VERSION         ((__STM32L4xx_HAL_VERSION_MAIN << 24)\
  75:/home/fanxinhao/Work/LiteOS_Lab/drivers/third_party/ST/STM32L4xx_HAL_Driver/Src/stm32l4xx_hal.c ****                                         |(__STM32L4xx_HAL_VERSION_SUB1 << 16)\
  76:/home/fanxinhao/Work/LiteOS_Lab/drivers/third_party/ST/STM32L4xx_HAL_Driver/Src/stm32l4xx_hal.c ****                                         |(__STM32L4xx_HAL_VERSION_SUB2 << 8 )\
  77:/home/fanxinhao/Work/LiteOS_Lab/drivers/third_party/ST/STM32L4xx_HAL_Driver/Src/stm32l4xx_hal.c ****                                         |(__STM32L4xx_HAL_VERSION_RC))
  78:/home/fanxinhao/Work/LiteOS_Lab/drivers/third_party/ST/STM32L4xx_HAL_Driver/Src/stm32l4xx_hal.c **** 
  79:/home/fanxinhao/Work/LiteOS_Lab/drivers/third_party/ST/STM32L4xx_HAL_Driver/Src/stm32l4xx_hal.c **** #if defined(VREFBUF)
  80:/home/fanxinhao/Work/LiteOS_Lab/drivers/third_party/ST/STM32L4xx_HAL_Driver/Src/stm32l4xx_hal.c **** #define VREFBUF_TIMEOUT_VALUE     (uint32_t)10   /* 10 ms (to be confirmed) */
  81:/home/fanxinhao/Work/LiteOS_Lab/drivers/third_party/ST/STM32L4xx_HAL_Driver/Src/stm32l4xx_hal.c **** #endif /* VREFBUF */
  82:/home/fanxinhao/Work/LiteOS_Lab/drivers/third_party/ST/STM32L4xx_HAL_Driver/Src/stm32l4xx_hal.c **** 
  83:/home/fanxinhao/Work/LiteOS_Lab/drivers/third_party/ST/STM32L4xx_HAL_Driver/Src/stm32l4xx_hal.c **** /* ------------ SYSCFG registers bit address in the alias region ------------ */
  84:/home/fanxinhao/Work/LiteOS_Lab/drivers/third_party/ST/STM32L4xx_HAL_Driver/Src/stm32l4xx_hal.c **** #define SYSCFG_OFFSET             (SYSCFG_BASE - PERIPH_BASE)
  85:/home/fanxinhao/Work/LiteOS_Lab/drivers/third_party/ST/STM32L4xx_HAL_Driver/Src/stm32l4xx_hal.c **** /* ---  MEMRMP Register ---*/
  86:/home/fanxinhao/Work/LiteOS_Lab/drivers/third_party/ST/STM32L4xx_HAL_Driver/Src/stm32l4xx_hal.c **** /* Alias word address of FB_MODE bit */
ARM GAS  /tmp/ccKmrB2u.s 			page 3


  87:/home/fanxinhao/Work/LiteOS_Lab/drivers/third_party/ST/STM32L4xx_HAL_Driver/Src/stm32l4xx_hal.c **** #define MEMRMP_OFFSET             SYSCFG_OFFSET
  88:/home/fanxinhao/Work/LiteOS_Lab/drivers/third_party/ST/STM32L4xx_HAL_Driver/Src/stm32l4xx_hal.c **** #define FB_MODE_BitNumber         ((uint8_t)0x8)
  89:/home/fanxinhao/Work/LiteOS_Lab/drivers/third_party/ST/STM32L4xx_HAL_Driver/Src/stm32l4xx_hal.c **** #define FB_MODE_BB                (PERIPH_BB_BASE + (MEMRMP_OFFSET * 32) + (FB_MODE_BitNumber * 4))
  90:/home/fanxinhao/Work/LiteOS_Lab/drivers/third_party/ST/STM32L4xx_HAL_Driver/Src/stm32l4xx_hal.c **** 
  91:/home/fanxinhao/Work/LiteOS_Lab/drivers/third_party/ST/STM32L4xx_HAL_Driver/Src/stm32l4xx_hal.c **** /* --- SCSR Register ---*/
  92:/home/fanxinhao/Work/LiteOS_Lab/drivers/third_party/ST/STM32L4xx_HAL_Driver/Src/stm32l4xx_hal.c **** /* Alias word address of SRAM2ER bit */
  93:/home/fanxinhao/Work/LiteOS_Lab/drivers/third_party/ST/STM32L4xx_HAL_Driver/Src/stm32l4xx_hal.c **** #define SCSR_OFFSET              (SYSCFG_OFFSET + 0x18)
  94:/home/fanxinhao/Work/LiteOS_Lab/drivers/third_party/ST/STM32L4xx_HAL_Driver/Src/stm32l4xx_hal.c **** #define BRER_BitNumber           ((uint8_t)0x0)
  95:/home/fanxinhao/Work/LiteOS_Lab/drivers/third_party/ST/STM32L4xx_HAL_Driver/Src/stm32l4xx_hal.c **** #define SCSR_SRAM2ER_BB          (PERIPH_BB_BASE + (SCSR_OFFSET * 32) + (BRER_BitNumber * 4))
  96:/home/fanxinhao/Work/LiteOS_Lab/drivers/third_party/ST/STM32L4xx_HAL_Driver/Src/stm32l4xx_hal.c **** 
  97:/home/fanxinhao/Work/LiteOS_Lab/drivers/third_party/ST/STM32L4xx_HAL_Driver/Src/stm32l4xx_hal.c **** /* Private macro -------------------------------------------------------------*/
  98:/home/fanxinhao/Work/LiteOS_Lab/drivers/third_party/ST/STM32L4xx_HAL_Driver/Src/stm32l4xx_hal.c **** /* Private variables ---------------------------------------------------------*/
  99:/home/fanxinhao/Work/LiteOS_Lab/drivers/third_party/ST/STM32L4xx_HAL_Driver/Src/stm32l4xx_hal.c **** __IO uint32_t uwTick;
 100:/home/fanxinhao/Work/LiteOS_Lab/drivers/third_party/ST/STM32L4xx_HAL_Driver/Src/stm32l4xx_hal.c **** 
 101:/home/fanxinhao/Work/LiteOS_Lab/drivers/third_party/ST/STM32L4xx_HAL_Driver/Src/stm32l4xx_hal.c **** /* Private function prototypes -----------------------------------------------*/
 102:/home/fanxinhao/Work/LiteOS_Lab/drivers/third_party/ST/STM32L4xx_HAL_Driver/Src/stm32l4xx_hal.c **** /* Exported functions --------------------------------------------------------*/
 103:/home/fanxinhao/Work/LiteOS_Lab/drivers/third_party/ST/STM32L4xx_HAL_Driver/Src/stm32l4xx_hal.c **** 
 104:/home/fanxinhao/Work/LiteOS_Lab/drivers/third_party/ST/STM32L4xx_HAL_Driver/Src/stm32l4xx_hal.c **** /** @defgroup HAL_Exported_Functions HAL Exported Functions
 105:/home/fanxinhao/Work/LiteOS_Lab/drivers/third_party/ST/STM32L4xx_HAL_Driver/Src/stm32l4xx_hal.c ****   * @{
 106:/home/fanxinhao/Work/LiteOS_Lab/drivers/third_party/ST/STM32L4xx_HAL_Driver/Src/stm32l4xx_hal.c ****   */
 107:/home/fanxinhao/Work/LiteOS_Lab/drivers/third_party/ST/STM32L4xx_HAL_Driver/Src/stm32l4xx_hal.c **** 
 108:/home/fanxinhao/Work/LiteOS_Lab/drivers/third_party/ST/STM32L4xx_HAL_Driver/Src/stm32l4xx_hal.c **** /** @defgroup HAL_Exported_Functions_Group1 Initialization and de-initialization Functions
 109:/home/fanxinhao/Work/LiteOS_Lab/drivers/third_party/ST/STM32L4xx_HAL_Driver/Src/stm32l4xx_hal.c ****  *  @brief    Initialization and de-initialization functions
 110:/home/fanxinhao/Work/LiteOS_Lab/drivers/third_party/ST/STM32L4xx_HAL_Driver/Src/stm32l4xx_hal.c ****  *
 111:/home/fanxinhao/Work/LiteOS_Lab/drivers/third_party/ST/STM32L4xx_HAL_Driver/Src/stm32l4xx_hal.c **** @verbatim
 112:/home/fanxinhao/Work/LiteOS_Lab/drivers/third_party/ST/STM32L4xx_HAL_Driver/Src/stm32l4xx_hal.c ****  ===============================================================================
 113:/home/fanxinhao/Work/LiteOS_Lab/drivers/third_party/ST/STM32L4xx_HAL_Driver/Src/stm32l4xx_hal.c ****               ##### Initialization and de-initialization functions #####
 114:/home/fanxinhao/Work/LiteOS_Lab/drivers/third_party/ST/STM32L4xx_HAL_Driver/Src/stm32l4xx_hal.c ****  ===============================================================================
 115:/home/fanxinhao/Work/LiteOS_Lab/drivers/third_party/ST/STM32L4xx_HAL_Driver/Src/stm32l4xx_hal.c ****     [..]  This section provides functions allowing to:
 116:/home/fanxinhao/Work/LiteOS_Lab/drivers/third_party/ST/STM32L4xx_HAL_Driver/Src/stm32l4xx_hal.c ****       (+) Initialize the Flash interface the NVIC allocation and initial time base
 117:/home/fanxinhao/Work/LiteOS_Lab/drivers/third_party/ST/STM32L4xx_HAL_Driver/Src/stm32l4xx_hal.c ****           clock configuration.
 118:/home/fanxinhao/Work/LiteOS_Lab/drivers/third_party/ST/STM32L4xx_HAL_Driver/Src/stm32l4xx_hal.c ****       (+) De-initialize common part of the HAL.
 119:/home/fanxinhao/Work/LiteOS_Lab/drivers/third_party/ST/STM32L4xx_HAL_Driver/Src/stm32l4xx_hal.c ****       (+) Configure the time base source to have 1ms time base with a dedicated
 120:/home/fanxinhao/Work/LiteOS_Lab/drivers/third_party/ST/STM32L4xx_HAL_Driver/Src/stm32l4xx_hal.c ****           Tick interrupt priority.
 121:/home/fanxinhao/Work/LiteOS_Lab/drivers/third_party/ST/STM32L4xx_HAL_Driver/Src/stm32l4xx_hal.c ****         (++) SysTick timer is used by default as source of time base, but user
 122:/home/fanxinhao/Work/LiteOS_Lab/drivers/third_party/ST/STM32L4xx_HAL_Driver/Src/stm32l4xx_hal.c ****              can eventually implement his proper time base source (a general purpose
 123:/home/fanxinhao/Work/LiteOS_Lab/drivers/third_party/ST/STM32L4xx_HAL_Driver/Src/stm32l4xx_hal.c ****              timer for example or other time source), keeping in mind that Time base
 124:/home/fanxinhao/Work/LiteOS_Lab/drivers/third_party/ST/STM32L4xx_HAL_Driver/Src/stm32l4xx_hal.c ****              duration should be kept 1ms since PPP_TIMEOUT_VALUEs are defined and
 125:/home/fanxinhao/Work/LiteOS_Lab/drivers/third_party/ST/STM32L4xx_HAL_Driver/Src/stm32l4xx_hal.c ****              handled in milliseconds basis.
 126:/home/fanxinhao/Work/LiteOS_Lab/drivers/third_party/ST/STM32L4xx_HAL_Driver/Src/stm32l4xx_hal.c ****         (++) Time base configuration function (HAL_InitTick ()) is called automatically
 127:/home/fanxinhao/Work/LiteOS_Lab/drivers/third_party/ST/STM32L4xx_HAL_Driver/Src/stm32l4xx_hal.c ****              at the beginning of the program after reset by HAL_Init() or at any time
 128:/home/fanxinhao/Work/LiteOS_Lab/drivers/third_party/ST/STM32L4xx_HAL_Driver/Src/stm32l4xx_hal.c ****              when clock is configured, by HAL_RCC_ClockConfig().
 129:/home/fanxinhao/Work/LiteOS_Lab/drivers/third_party/ST/STM32L4xx_HAL_Driver/Src/stm32l4xx_hal.c ****         (++) Source of time base is configured  to generate interrupts at regular
 130:/home/fanxinhao/Work/LiteOS_Lab/drivers/third_party/ST/STM32L4xx_HAL_Driver/Src/stm32l4xx_hal.c ****              time intervals. Care must be taken if HAL_Delay() is called from a
 131:/home/fanxinhao/Work/LiteOS_Lab/drivers/third_party/ST/STM32L4xx_HAL_Driver/Src/stm32l4xx_hal.c ****              peripheral ISR process, the Tick interrupt line must have higher priority
 132:/home/fanxinhao/Work/LiteOS_Lab/drivers/third_party/ST/STM32L4xx_HAL_Driver/Src/stm32l4xx_hal.c ****             (numerically lower) than the peripheral interrupt. Otherwise the caller
 133:/home/fanxinhao/Work/LiteOS_Lab/drivers/third_party/ST/STM32L4xx_HAL_Driver/Src/stm32l4xx_hal.c ****             ISR process will be blocked.
 134:/home/fanxinhao/Work/LiteOS_Lab/drivers/third_party/ST/STM32L4xx_HAL_Driver/Src/stm32l4xx_hal.c ****        (++) functions affecting time base configurations are declared as __weak
 135:/home/fanxinhao/Work/LiteOS_Lab/drivers/third_party/ST/STM32L4xx_HAL_Driver/Src/stm32l4xx_hal.c ****              to make  override possible  in case of other  implementations in user file.
 136:/home/fanxinhao/Work/LiteOS_Lab/drivers/third_party/ST/STM32L4xx_HAL_Driver/Src/stm32l4xx_hal.c **** @endverbatim
 137:/home/fanxinhao/Work/LiteOS_Lab/drivers/third_party/ST/STM32L4xx_HAL_Driver/Src/stm32l4xx_hal.c ****   * @{
 138:/home/fanxinhao/Work/LiteOS_Lab/drivers/third_party/ST/STM32L4xx_HAL_Driver/Src/stm32l4xx_hal.c ****   */
 139:/home/fanxinhao/Work/LiteOS_Lab/drivers/third_party/ST/STM32L4xx_HAL_Driver/Src/stm32l4xx_hal.c **** 
 140:/home/fanxinhao/Work/LiteOS_Lab/drivers/third_party/ST/STM32L4xx_HAL_Driver/Src/stm32l4xx_hal.c **** /**
 141:/home/fanxinhao/Work/LiteOS_Lab/drivers/third_party/ST/STM32L4xx_HAL_Driver/Src/stm32l4xx_hal.c ****   * @brief  Configure the Flash prefetch, the Instruction and Data caches,
 142:/home/fanxinhao/Work/LiteOS_Lab/drivers/third_party/ST/STM32L4xx_HAL_Driver/Src/stm32l4xx_hal.c ****   *         the time base source, NVIC and any required global low level hardware 
 143:/home/fanxinhao/Work/LiteOS_Lab/drivers/third_party/ST/STM32L4xx_HAL_Driver/Src/stm32l4xx_hal.c ****   *         by calling the HAL_MspInit() callback function to be optionally defined in user file 
ARM GAS  /tmp/ccKmrB2u.s 			page 4


 144:/home/fanxinhao/Work/LiteOS_Lab/drivers/third_party/ST/STM32L4xx_HAL_Driver/Src/stm32l4xx_hal.c ****   *         stm32l4xx_hal_msp.c.
 145:/home/fanxinhao/Work/LiteOS_Lab/drivers/third_party/ST/STM32L4xx_HAL_Driver/Src/stm32l4xx_hal.c ****   *
 146:/home/fanxinhao/Work/LiteOS_Lab/drivers/third_party/ST/STM32L4xx_HAL_Driver/Src/stm32l4xx_hal.c ****   * @note   HAL_Init() function is called at the beginning of program after reset and before 
 147:/home/fanxinhao/Work/LiteOS_Lab/drivers/third_party/ST/STM32L4xx_HAL_Driver/Src/stm32l4xx_hal.c ****   *         the clock configuration.
 148:/home/fanxinhao/Work/LiteOS_Lab/drivers/third_party/ST/STM32L4xx_HAL_Driver/Src/stm32l4xx_hal.c ****   *             
 149:/home/fanxinhao/Work/LiteOS_Lab/drivers/third_party/ST/STM32L4xx_HAL_Driver/Src/stm32l4xx_hal.c ****   * @note   In the default implementation the System Timer (Systick) is used as source of time base
 150:/home/fanxinhao/Work/LiteOS_Lab/drivers/third_party/ST/STM32L4xx_HAL_Driver/Src/stm32l4xx_hal.c ****   *         The Systick configuration is based on MSI clock, as MSI is the clock
 151:/home/fanxinhao/Work/LiteOS_Lab/drivers/third_party/ST/STM32L4xx_HAL_Driver/Src/stm32l4xx_hal.c ****   *         used after a system Reset and the NVIC configuration is set to Priority group 4.
 152:/home/fanxinhao/Work/LiteOS_Lab/drivers/third_party/ST/STM32L4xx_HAL_Driver/Src/stm32l4xx_hal.c ****   *         Once done, time base tick starts incrementing: the tick variable counter is incremented
 153:/home/fanxinhao/Work/LiteOS_Lab/drivers/third_party/ST/STM32L4xx_HAL_Driver/Src/stm32l4xx_hal.c ****   *         each 1ms in the SysTick_Handler() interrupt handler.
 154:/home/fanxinhao/Work/LiteOS_Lab/drivers/third_party/ST/STM32L4xx_HAL_Driver/Src/stm32l4xx_hal.c ****   *
 155:/home/fanxinhao/Work/LiteOS_Lab/drivers/third_party/ST/STM32L4xx_HAL_Driver/Src/stm32l4xx_hal.c ****   * @retval HAL status
 156:/home/fanxinhao/Work/LiteOS_Lab/drivers/third_party/ST/STM32L4xx_HAL_Driver/Src/stm32l4xx_hal.c ****   */
 157:/home/fanxinhao/Work/LiteOS_Lab/drivers/third_party/ST/STM32L4xx_HAL_Driver/Src/stm32l4xx_hal.c **** HAL_StatusTypeDef HAL_Init(void)
 158:/home/fanxinhao/Work/LiteOS_Lab/drivers/third_party/ST/STM32L4xx_HAL_Driver/Src/stm32l4xx_hal.c **** {
  30              		.loc 1 158 1
  31              		.cfi_startproc
  32              		@ args = 0, pretend = 0, frame = 0
  33              		@ frame_needed = 1, uses_anonymous_args = 0
  34 0000 80B5     		push	{r7, lr}
  35              	.LCFI0:
  36              		.cfi_def_cfa_offset 8
  37              		.cfi_offset 7, -8
  38              		.cfi_offset 14, -4
  39 0002 00AF     		add	r7, sp, #0
  40              	.LCFI1:
  41              		.cfi_def_cfa_register 7
 159:/home/fanxinhao/Work/LiteOS_Lab/drivers/third_party/ST/STM32L4xx_HAL_Driver/Src/stm32l4xx_hal.c ****   /* Configure Flash prefetch, Instruction cache, Data cache */
 160:/home/fanxinhao/Work/LiteOS_Lab/drivers/third_party/ST/STM32L4xx_HAL_Driver/Src/stm32l4xx_hal.c ****   /* Default configuration at reset is:                      */
 161:/home/fanxinhao/Work/LiteOS_Lab/drivers/third_party/ST/STM32L4xx_HAL_Driver/Src/stm32l4xx_hal.c ****   /* - Prefetch disabled                                     */
 162:/home/fanxinhao/Work/LiteOS_Lab/drivers/third_party/ST/STM32L4xx_HAL_Driver/Src/stm32l4xx_hal.c ****   /* - Instruction cache enabled                             */
 163:/home/fanxinhao/Work/LiteOS_Lab/drivers/third_party/ST/STM32L4xx_HAL_Driver/Src/stm32l4xx_hal.c ****   /* - Data cache enabled                                    */
 164:/home/fanxinhao/Work/LiteOS_Lab/drivers/third_party/ST/STM32L4xx_HAL_Driver/Src/stm32l4xx_hal.c **** #if (INSTRUCTION_CACHE_ENABLE == 0)
 165:/home/fanxinhao/Work/LiteOS_Lab/drivers/third_party/ST/STM32L4xx_HAL_Driver/Src/stm32l4xx_hal.c ****    __HAL_FLASH_INSTRUCTION_CACHE_DISABLE();
 166:/home/fanxinhao/Work/LiteOS_Lab/drivers/third_party/ST/STM32L4xx_HAL_Driver/Src/stm32l4xx_hal.c **** #endif /* INSTRUCTION_CACHE_ENABLE */
 167:/home/fanxinhao/Work/LiteOS_Lab/drivers/third_party/ST/STM32L4xx_HAL_Driver/Src/stm32l4xx_hal.c **** 
 168:/home/fanxinhao/Work/LiteOS_Lab/drivers/third_party/ST/STM32L4xx_HAL_Driver/Src/stm32l4xx_hal.c **** #if (DATA_CACHE_ENABLE == 0)
 169:/home/fanxinhao/Work/LiteOS_Lab/drivers/third_party/ST/STM32L4xx_HAL_Driver/Src/stm32l4xx_hal.c ****    __HAL_FLASH_DATA_CACHE_DISABLE();
 170:/home/fanxinhao/Work/LiteOS_Lab/drivers/third_party/ST/STM32L4xx_HAL_Driver/Src/stm32l4xx_hal.c **** #endif /* DATA_CACHE_ENABLE */
 171:/home/fanxinhao/Work/LiteOS_Lab/drivers/third_party/ST/STM32L4xx_HAL_Driver/Src/stm32l4xx_hal.c **** 
 172:/home/fanxinhao/Work/LiteOS_Lab/drivers/third_party/ST/STM32L4xx_HAL_Driver/Src/stm32l4xx_hal.c **** #if (PREFETCH_ENABLE != 0)
 173:/home/fanxinhao/Work/LiteOS_Lab/drivers/third_party/ST/STM32L4xx_HAL_Driver/Src/stm32l4xx_hal.c ****   __HAL_FLASH_PREFETCH_BUFFER_ENABLE();
 174:/home/fanxinhao/Work/LiteOS_Lab/drivers/third_party/ST/STM32L4xx_HAL_Driver/Src/stm32l4xx_hal.c **** #endif /* PREFETCH_ENABLE */
 175:/home/fanxinhao/Work/LiteOS_Lab/drivers/third_party/ST/STM32L4xx_HAL_Driver/Src/stm32l4xx_hal.c **** 
 176:/home/fanxinhao/Work/LiteOS_Lab/drivers/third_party/ST/STM32L4xx_HAL_Driver/Src/stm32l4xx_hal.c ****   /* Set Interrupt Group Priority */
 177:/home/fanxinhao/Work/LiteOS_Lab/drivers/third_party/ST/STM32L4xx_HAL_Driver/Src/stm32l4xx_hal.c ****   HAL_NVIC_SetPriorityGrouping(NVIC_PRIORITYGROUP_4);
  42              		.loc 1 177 3
  43 0004 0320     		movs	r0, #3
  44 0006 FFF7FEFF 		bl	HAL_NVIC_SetPriorityGrouping
 178:/home/fanxinhao/Work/LiteOS_Lab/drivers/third_party/ST/STM32L4xx_HAL_Driver/Src/stm32l4xx_hal.c **** 
 179:/home/fanxinhao/Work/LiteOS_Lab/drivers/third_party/ST/STM32L4xx_HAL_Driver/Src/stm32l4xx_hal.c ****   /* Use SysTick as time base source and configure 1ms tick (default clock after Reset is MSI) */
 180:/home/fanxinhao/Work/LiteOS_Lab/drivers/third_party/ST/STM32L4xx_HAL_Driver/Src/stm32l4xx_hal.c ****   HAL_InitTick(TICK_INT_PRIORITY);
  45              		.loc 1 180 3
  46 000a 0020     		movs	r0, #0
  47 000c FFF7FEFF 		bl	HAL_InitTick
 181:/home/fanxinhao/Work/LiteOS_Lab/drivers/third_party/ST/STM32L4xx_HAL_Driver/Src/stm32l4xx_hal.c **** 
 182:/home/fanxinhao/Work/LiteOS_Lab/drivers/third_party/ST/STM32L4xx_HAL_Driver/Src/stm32l4xx_hal.c ****   /* Init the low level hardware */
ARM GAS  /tmp/ccKmrB2u.s 			page 5


 183:/home/fanxinhao/Work/LiteOS_Lab/drivers/third_party/ST/STM32L4xx_HAL_Driver/Src/stm32l4xx_hal.c ****   HAL_MspInit();
  48              		.loc 1 183 3
  49 0010 FFF7FEFF 		bl	HAL_MspInit
 184:/home/fanxinhao/Work/LiteOS_Lab/drivers/third_party/ST/STM32L4xx_HAL_Driver/Src/stm32l4xx_hal.c **** 
 185:/home/fanxinhao/Work/LiteOS_Lab/drivers/third_party/ST/STM32L4xx_HAL_Driver/Src/stm32l4xx_hal.c ****   /* Return function status */
 186:/home/fanxinhao/Work/LiteOS_Lab/drivers/third_party/ST/STM32L4xx_HAL_Driver/Src/stm32l4xx_hal.c ****   return HAL_OK;
  50              		.loc 1 186 10
  51 0014 0023     		movs	r3, #0
 187:/home/fanxinhao/Work/LiteOS_Lab/drivers/third_party/ST/STM32L4xx_HAL_Driver/Src/stm32l4xx_hal.c **** }
  52              		.loc 1 187 1
  53 0016 1846     		mov	r0, r3
  54 0018 80BD     		pop	{r7, pc}
  55              		.cfi_endproc
  56              	.LFE126:
  58              		.section	.text.HAL_DeInit,"ax",%progbits
  59              		.align	1
  60              		.global	HAL_DeInit
  61              		.syntax unified
  62              		.thumb
  63              		.thumb_func
  64              		.fpu fpv4-sp-d16
  66              	HAL_DeInit:
  67              	.LFB127:
 188:/home/fanxinhao/Work/LiteOS_Lab/drivers/third_party/ST/STM32L4xx_HAL_Driver/Src/stm32l4xx_hal.c **** 
 189:/home/fanxinhao/Work/LiteOS_Lab/drivers/third_party/ST/STM32L4xx_HAL_Driver/Src/stm32l4xx_hal.c **** /**
 190:/home/fanxinhao/Work/LiteOS_Lab/drivers/third_party/ST/STM32L4xx_HAL_Driver/Src/stm32l4xx_hal.c ****   * @brief De-initialize common part of the HAL and stop the source of time base.
 191:/home/fanxinhao/Work/LiteOS_Lab/drivers/third_party/ST/STM32L4xx_HAL_Driver/Src/stm32l4xx_hal.c ****   * @note This function is optional.
 192:/home/fanxinhao/Work/LiteOS_Lab/drivers/third_party/ST/STM32L4xx_HAL_Driver/Src/stm32l4xx_hal.c ****   * @retval HAL status
 193:/home/fanxinhao/Work/LiteOS_Lab/drivers/third_party/ST/STM32L4xx_HAL_Driver/Src/stm32l4xx_hal.c ****   */
 194:/home/fanxinhao/Work/LiteOS_Lab/drivers/third_party/ST/STM32L4xx_HAL_Driver/Src/stm32l4xx_hal.c **** HAL_StatusTypeDef HAL_DeInit(void)
 195:/home/fanxinhao/Work/LiteOS_Lab/drivers/third_party/ST/STM32L4xx_HAL_Driver/Src/stm32l4xx_hal.c **** {
  68              		.loc 1 195 1
  69              		.cfi_startproc
  70              		@ args = 0, pretend = 0, frame = 0
  71              		@ frame_needed = 1, uses_anonymous_args = 0
  72 0000 80B5     		push	{r7, lr}
  73              	.LCFI2:
  74              		.cfi_def_cfa_offset 8
  75              		.cfi_offset 7, -8
  76              		.cfi_offset 14, -4
  77 0002 00AF     		add	r7, sp, #0
  78              	.LCFI3:
  79              		.cfi_def_cfa_register 7
 196:/home/fanxinhao/Work/LiteOS_Lab/drivers/third_party/ST/STM32L4xx_HAL_Driver/Src/stm32l4xx_hal.c ****   /* Reset of all peripherals */
 197:/home/fanxinhao/Work/LiteOS_Lab/drivers/third_party/ST/STM32L4xx_HAL_Driver/Src/stm32l4xx_hal.c ****   __HAL_RCC_APB1_FORCE_RESET();
  80              		.loc 1 197 3
  81 0004 134B     		ldr	r3, .L5
  82 0006 4FF0FF32 		mov	r2, #-1
  83 000a 9A63     		str	r2, [r3, #56]
 198:/home/fanxinhao/Work/LiteOS_Lab/drivers/third_party/ST/STM32L4xx_HAL_Driver/Src/stm32l4xx_hal.c ****   __HAL_RCC_APB1_RELEASE_RESET();
  84              		.loc 1 198 3
  85 000c 114B     		ldr	r3, .L5
  86 000e 0022     		movs	r2, #0
  87 0010 9A63     		str	r2, [r3, #56]
 199:/home/fanxinhao/Work/LiteOS_Lab/drivers/third_party/ST/STM32L4xx_HAL_Driver/Src/stm32l4xx_hal.c **** 
 200:/home/fanxinhao/Work/LiteOS_Lab/drivers/third_party/ST/STM32L4xx_HAL_Driver/Src/stm32l4xx_hal.c ****   __HAL_RCC_APB2_FORCE_RESET();
  88              		.loc 1 200 3
ARM GAS  /tmp/ccKmrB2u.s 			page 6


  89 0012 104B     		ldr	r3, .L5
  90 0014 4FF0FF32 		mov	r2, #-1
  91 0018 1A64     		str	r2, [r3, #64]
 201:/home/fanxinhao/Work/LiteOS_Lab/drivers/third_party/ST/STM32L4xx_HAL_Driver/Src/stm32l4xx_hal.c ****   __HAL_RCC_APB2_RELEASE_RESET();
  92              		.loc 1 201 3
  93 001a 0E4B     		ldr	r3, .L5
  94 001c 0022     		movs	r2, #0
  95 001e 1A64     		str	r2, [r3, #64]
 202:/home/fanxinhao/Work/LiteOS_Lab/drivers/third_party/ST/STM32L4xx_HAL_Driver/Src/stm32l4xx_hal.c **** 
 203:/home/fanxinhao/Work/LiteOS_Lab/drivers/third_party/ST/STM32L4xx_HAL_Driver/Src/stm32l4xx_hal.c ****   __HAL_RCC_AHB1_FORCE_RESET();
  96              		.loc 1 203 3
  97 0020 0C4B     		ldr	r3, .L5
  98 0022 4FF0FF32 		mov	r2, #-1
  99 0026 9A62     		str	r2, [r3, #40]
 204:/home/fanxinhao/Work/LiteOS_Lab/drivers/third_party/ST/STM32L4xx_HAL_Driver/Src/stm32l4xx_hal.c ****   __HAL_RCC_AHB1_RELEASE_RESET();
 100              		.loc 1 204 3
 101 0028 0A4B     		ldr	r3, .L5
 102 002a 0022     		movs	r2, #0
 103 002c 9A62     		str	r2, [r3, #40]
 205:/home/fanxinhao/Work/LiteOS_Lab/drivers/third_party/ST/STM32L4xx_HAL_Driver/Src/stm32l4xx_hal.c **** 
 206:/home/fanxinhao/Work/LiteOS_Lab/drivers/third_party/ST/STM32L4xx_HAL_Driver/Src/stm32l4xx_hal.c ****   __HAL_RCC_AHB2_FORCE_RESET();
 104              		.loc 1 206 3
 105 002e 094B     		ldr	r3, .L5
 106 0030 4FF0FF32 		mov	r2, #-1
 107 0034 DA62     		str	r2, [r3, #44]
 207:/home/fanxinhao/Work/LiteOS_Lab/drivers/third_party/ST/STM32L4xx_HAL_Driver/Src/stm32l4xx_hal.c ****   __HAL_RCC_AHB2_RELEASE_RESET();
 108              		.loc 1 207 3
 109 0036 074B     		ldr	r3, .L5
 110 0038 0022     		movs	r2, #0
 111 003a DA62     		str	r2, [r3, #44]
 208:/home/fanxinhao/Work/LiteOS_Lab/drivers/third_party/ST/STM32L4xx_HAL_Driver/Src/stm32l4xx_hal.c **** 
 209:/home/fanxinhao/Work/LiteOS_Lab/drivers/third_party/ST/STM32L4xx_HAL_Driver/Src/stm32l4xx_hal.c ****   __HAL_RCC_AHB3_FORCE_RESET();
 112              		.loc 1 209 3
 113 003c 054B     		ldr	r3, .L5
 114 003e 4FF0FF32 		mov	r2, #-1
 115 0042 1A63     		str	r2, [r3, #48]
 210:/home/fanxinhao/Work/LiteOS_Lab/drivers/third_party/ST/STM32L4xx_HAL_Driver/Src/stm32l4xx_hal.c ****   __HAL_RCC_AHB3_RELEASE_RESET();
 116              		.loc 1 210 3
 117 0044 034B     		ldr	r3, .L5
 118 0046 0022     		movs	r2, #0
 119 0048 1A63     		str	r2, [r3, #48]
 211:/home/fanxinhao/Work/LiteOS_Lab/drivers/third_party/ST/STM32L4xx_HAL_Driver/Src/stm32l4xx_hal.c **** 
 212:/home/fanxinhao/Work/LiteOS_Lab/drivers/third_party/ST/STM32L4xx_HAL_Driver/Src/stm32l4xx_hal.c ****   /* De-Init the low level hardware */
 213:/home/fanxinhao/Work/LiteOS_Lab/drivers/third_party/ST/STM32L4xx_HAL_Driver/Src/stm32l4xx_hal.c ****   HAL_MspDeInit();
 120              		.loc 1 213 3
 121 004a FFF7FEFF 		bl	HAL_MspDeInit
 214:/home/fanxinhao/Work/LiteOS_Lab/drivers/third_party/ST/STM32L4xx_HAL_Driver/Src/stm32l4xx_hal.c **** 
 215:/home/fanxinhao/Work/LiteOS_Lab/drivers/third_party/ST/STM32L4xx_HAL_Driver/Src/stm32l4xx_hal.c ****   /* Return function status */
 216:/home/fanxinhao/Work/LiteOS_Lab/drivers/third_party/ST/STM32L4xx_HAL_Driver/Src/stm32l4xx_hal.c ****   return HAL_OK;
 122              		.loc 1 216 10
 123 004e 0023     		movs	r3, #0
 217:/home/fanxinhao/Work/LiteOS_Lab/drivers/third_party/ST/STM32L4xx_HAL_Driver/Src/stm32l4xx_hal.c **** }
 124              		.loc 1 217 1
 125 0050 1846     		mov	r0, r3
 126 0052 80BD     		pop	{r7, pc}
 127              	.L6:
 128              		.align	2
ARM GAS  /tmp/ccKmrB2u.s 			page 7


 129              	.L5:
 130 0054 00100240 		.word	1073876992
 131              		.cfi_endproc
 132              	.LFE127:
 134              		.section	.text.HAL_MspInit,"ax",%progbits
 135              		.align	1
 136              		.weak	HAL_MspInit
 137              		.syntax unified
 138              		.thumb
 139              		.thumb_func
 140              		.fpu fpv4-sp-d16
 142              	HAL_MspInit:
 143              	.LFB128:
 218:/home/fanxinhao/Work/LiteOS_Lab/drivers/third_party/ST/STM32L4xx_HAL_Driver/Src/stm32l4xx_hal.c **** 
 219:/home/fanxinhao/Work/LiteOS_Lab/drivers/third_party/ST/STM32L4xx_HAL_Driver/Src/stm32l4xx_hal.c **** /**
 220:/home/fanxinhao/Work/LiteOS_Lab/drivers/third_party/ST/STM32L4xx_HAL_Driver/Src/stm32l4xx_hal.c ****   * @brief  Initialize the MSP.
 221:/home/fanxinhao/Work/LiteOS_Lab/drivers/third_party/ST/STM32L4xx_HAL_Driver/Src/stm32l4xx_hal.c ****   * @retval None
 222:/home/fanxinhao/Work/LiteOS_Lab/drivers/third_party/ST/STM32L4xx_HAL_Driver/Src/stm32l4xx_hal.c ****   */
 223:/home/fanxinhao/Work/LiteOS_Lab/drivers/third_party/ST/STM32L4xx_HAL_Driver/Src/stm32l4xx_hal.c **** __weak void HAL_MspInit(void)
 224:/home/fanxinhao/Work/LiteOS_Lab/drivers/third_party/ST/STM32L4xx_HAL_Driver/Src/stm32l4xx_hal.c **** {
 144              		.loc 1 224 1
 145              		.cfi_startproc
 146              		@ args = 0, pretend = 0, frame = 0
 147              		@ frame_needed = 1, uses_anonymous_args = 0
 148              		@ link register save eliminated.
 149 0000 80B4     		push	{r7}
 150              	.LCFI4:
 151              		.cfi_def_cfa_offset 4
 152              		.cfi_offset 7, -4
 153 0002 00AF     		add	r7, sp, #0
 154              	.LCFI5:
 155              		.cfi_def_cfa_register 7
 225:/home/fanxinhao/Work/LiteOS_Lab/drivers/third_party/ST/STM32L4xx_HAL_Driver/Src/stm32l4xx_hal.c ****   /* NOTE : This function should not be modified, when the callback is needed,
 226:/home/fanxinhao/Work/LiteOS_Lab/drivers/third_party/ST/STM32L4xx_HAL_Driver/Src/stm32l4xx_hal.c ****             the HAL_MspInit could be implemented in the user file
 227:/home/fanxinhao/Work/LiteOS_Lab/drivers/third_party/ST/STM32L4xx_HAL_Driver/Src/stm32l4xx_hal.c ****    */
 228:/home/fanxinhao/Work/LiteOS_Lab/drivers/third_party/ST/STM32L4xx_HAL_Driver/Src/stm32l4xx_hal.c **** }
 156              		.loc 1 228 1
 157 0004 00BF     		nop
 158 0006 BD46     		mov	sp, r7
 159              	.LCFI6:
 160              		.cfi_def_cfa_register 13
 161              		@ sp needed
 162 0008 5DF8047B 		ldr	r7, [sp], #4
 163              	.LCFI7:
 164              		.cfi_restore 7
 165              		.cfi_def_cfa_offset 0
 166 000c 7047     		bx	lr
 167              		.cfi_endproc
 168              	.LFE128:
 170              		.section	.text.HAL_MspDeInit,"ax",%progbits
 171              		.align	1
 172              		.weak	HAL_MspDeInit
 173              		.syntax unified
 174              		.thumb
 175              		.thumb_func
 176              		.fpu fpv4-sp-d16
 178              	HAL_MspDeInit:
ARM GAS  /tmp/ccKmrB2u.s 			page 8


 179              	.LFB129:
 229:/home/fanxinhao/Work/LiteOS_Lab/drivers/third_party/ST/STM32L4xx_HAL_Driver/Src/stm32l4xx_hal.c **** 
 230:/home/fanxinhao/Work/LiteOS_Lab/drivers/third_party/ST/STM32L4xx_HAL_Driver/Src/stm32l4xx_hal.c **** /**
 231:/home/fanxinhao/Work/LiteOS_Lab/drivers/third_party/ST/STM32L4xx_HAL_Driver/Src/stm32l4xx_hal.c ****   * @brief  DeInitialize the MSP.
 232:/home/fanxinhao/Work/LiteOS_Lab/drivers/third_party/ST/STM32L4xx_HAL_Driver/Src/stm32l4xx_hal.c ****   * @retval None
 233:/home/fanxinhao/Work/LiteOS_Lab/drivers/third_party/ST/STM32L4xx_HAL_Driver/Src/stm32l4xx_hal.c ****   */
 234:/home/fanxinhao/Work/LiteOS_Lab/drivers/third_party/ST/STM32L4xx_HAL_Driver/Src/stm32l4xx_hal.c **** __weak void HAL_MspDeInit(void)
 235:/home/fanxinhao/Work/LiteOS_Lab/drivers/third_party/ST/STM32L4xx_HAL_Driver/Src/stm32l4xx_hal.c **** {
 180              		.loc 1 235 1
 181              		.cfi_startproc
 182              		@ args = 0, pretend = 0, frame = 0
 183              		@ frame_needed = 1, uses_anonymous_args = 0
 184              		@ link register save eliminated.
 185 0000 80B4     		push	{r7}
 186              	.LCFI8:
 187              		.cfi_def_cfa_offset 4
 188              		.cfi_offset 7, -4
 189 0002 00AF     		add	r7, sp, #0
 190              	.LCFI9:
 191              		.cfi_def_cfa_register 7
 236:/home/fanxinhao/Work/LiteOS_Lab/drivers/third_party/ST/STM32L4xx_HAL_Driver/Src/stm32l4xx_hal.c ****   /* NOTE : This function should not be modified, when the callback is needed,
 237:/home/fanxinhao/Work/LiteOS_Lab/drivers/third_party/ST/STM32L4xx_HAL_Driver/Src/stm32l4xx_hal.c ****             the HAL_MspDeInit could be implemented in the user file
 238:/home/fanxinhao/Work/LiteOS_Lab/drivers/third_party/ST/STM32L4xx_HAL_Driver/Src/stm32l4xx_hal.c ****    */
 239:/home/fanxinhao/Work/LiteOS_Lab/drivers/third_party/ST/STM32L4xx_HAL_Driver/Src/stm32l4xx_hal.c **** }
 192              		.loc 1 239 1
 193 0004 00BF     		nop
 194 0006 BD46     		mov	sp, r7
 195              	.LCFI10:
 196              		.cfi_def_cfa_register 13
 197              		@ sp needed
 198 0008 5DF8047B 		ldr	r7, [sp], #4
 199              	.LCFI11:
 200              		.cfi_restore 7
 201              		.cfi_def_cfa_offset 0
 202 000c 7047     		bx	lr
 203              		.cfi_endproc
 204              	.LFE129:
 206              		.section	.text.HAL_InitTick,"ax",%progbits
 207              		.align	1
 208              		.weak	HAL_InitTick
 209              		.syntax unified
 210              		.thumb
 211              		.thumb_func
 212              		.fpu fpv4-sp-d16
 214              	HAL_InitTick:
 215              	.LFB130:
 240:/home/fanxinhao/Work/LiteOS_Lab/drivers/third_party/ST/STM32L4xx_HAL_Driver/Src/stm32l4xx_hal.c **** 
 241:/home/fanxinhao/Work/LiteOS_Lab/drivers/third_party/ST/STM32L4xx_HAL_Driver/Src/stm32l4xx_hal.c **** /**
 242:/home/fanxinhao/Work/LiteOS_Lab/drivers/third_party/ST/STM32L4xx_HAL_Driver/Src/stm32l4xx_hal.c ****   * @brief This function configures the source of the time base:
 243:/home/fanxinhao/Work/LiteOS_Lab/drivers/third_party/ST/STM32L4xx_HAL_Driver/Src/stm32l4xx_hal.c ****   *        The time source is configured to have 1ms time base with a dedicated
 244:/home/fanxinhao/Work/LiteOS_Lab/drivers/third_party/ST/STM32L4xx_HAL_Driver/Src/stm32l4xx_hal.c ****   *        Tick interrupt priority.
 245:/home/fanxinhao/Work/LiteOS_Lab/drivers/third_party/ST/STM32L4xx_HAL_Driver/Src/stm32l4xx_hal.c ****   * @note This function is called  automatically at the beginning of program after
 246:/home/fanxinhao/Work/LiteOS_Lab/drivers/third_party/ST/STM32L4xx_HAL_Driver/Src/stm32l4xx_hal.c ****   *       reset by HAL_Init() or at any time when clock is reconfigured  by HAL_RCC_ClockConfig().
 247:/home/fanxinhao/Work/LiteOS_Lab/drivers/third_party/ST/STM32L4xx_HAL_Driver/Src/stm32l4xx_hal.c ****   * @note In the default implementation, SysTick timer is the source of time base.
 248:/home/fanxinhao/Work/LiteOS_Lab/drivers/third_party/ST/STM32L4xx_HAL_Driver/Src/stm32l4xx_hal.c ****   *       It is used to generate interrupts at regular time intervals.
 249:/home/fanxinhao/Work/LiteOS_Lab/drivers/third_party/ST/STM32L4xx_HAL_Driver/Src/stm32l4xx_hal.c ****   *       Care must be taken if HAL_Delay() is called from a peripheral ISR process,
 250:/home/fanxinhao/Work/LiteOS_Lab/drivers/third_party/ST/STM32L4xx_HAL_Driver/Src/stm32l4xx_hal.c ****   *       The SysTick interrupt must have higher priority (numerically lower)
ARM GAS  /tmp/ccKmrB2u.s 			page 9


 251:/home/fanxinhao/Work/LiteOS_Lab/drivers/third_party/ST/STM32L4xx_HAL_Driver/Src/stm32l4xx_hal.c ****   *       than the peripheral interrupt. Otherwise the caller ISR process will be blocked.
 252:/home/fanxinhao/Work/LiteOS_Lab/drivers/third_party/ST/STM32L4xx_HAL_Driver/Src/stm32l4xx_hal.c ****   *       The function is declared as __weak  to be overwritten  in case of other
 253:/home/fanxinhao/Work/LiteOS_Lab/drivers/third_party/ST/STM32L4xx_HAL_Driver/Src/stm32l4xx_hal.c ****   *       implementation  in user file.
 254:/home/fanxinhao/Work/LiteOS_Lab/drivers/third_party/ST/STM32L4xx_HAL_Driver/Src/stm32l4xx_hal.c ****   * @param TickPriority  Tick interrupt priority.
 255:/home/fanxinhao/Work/LiteOS_Lab/drivers/third_party/ST/STM32L4xx_HAL_Driver/Src/stm32l4xx_hal.c ****   * @retval HAL status
 256:/home/fanxinhao/Work/LiteOS_Lab/drivers/third_party/ST/STM32L4xx_HAL_Driver/Src/stm32l4xx_hal.c ****   */
 257:/home/fanxinhao/Work/LiteOS_Lab/drivers/third_party/ST/STM32L4xx_HAL_Driver/Src/stm32l4xx_hal.c **** __weak HAL_StatusTypeDef HAL_InitTick(uint32_t TickPriority)
 258:/home/fanxinhao/Work/LiteOS_Lab/drivers/third_party/ST/STM32L4xx_HAL_Driver/Src/stm32l4xx_hal.c **** {
 216              		.loc 1 258 1
 217              		.cfi_startproc
 218              		@ args = 0, pretend = 0, frame = 8
 219              		@ frame_needed = 1, uses_anonymous_args = 0
 220 0000 80B5     		push	{r7, lr}
 221              	.LCFI12:
 222              		.cfi_def_cfa_offset 8
 223              		.cfi_offset 7, -8
 224              		.cfi_offset 14, -4
 225 0002 82B0     		sub	sp, sp, #8
 226              	.LCFI13:
 227              		.cfi_def_cfa_offset 16
 228 0004 00AF     		add	r7, sp, #0
 229              	.LCFI14:
 230              		.cfi_def_cfa_register 7
 231 0006 7860     		str	r0, [r7, #4]
 259:/home/fanxinhao/Work/LiteOS_Lab/drivers/third_party/ST/STM32L4xx_HAL_Driver/Src/stm32l4xx_hal.c ****   /*Configure the SysTick to have interrupt in 1ms time basis*/
 260:/home/fanxinhao/Work/LiteOS_Lab/drivers/third_party/ST/STM32L4xx_HAL_Driver/Src/stm32l4xx_hal.c ****   HAL_SYSTICK_Config(SystemCoreClock/1000);
 232              		.loc 1 260 3
 233 0008 094B     		ldr	r3, .L11
 234 000a 1B68     		ldr	r3, [r3]
 235 000c 094A     		ldr	r2, .L11+4
 236 000e A2FB0323 		umull	r2, r3, r2, r3
 237 0012 9B09     		lsrs	r3, r3, #6
 238 0014 1846     		mov	r0, r3
 239 0016 FFF7FEFF 		bl	HAL_SYSTICK_Config
 261:/home/fanxinhao/Work/LiteOS_Lab/drivers/third_party/ST/STM32L4xx_HAL_Driver/Src/stm32l4xx_hal.c **** 
 262:/home/fanxinhao/Work/LiteOS_Lab/drivers/third_party/ST/STM32L4xx_HAL_Driver/Src/stm32l4xx_hal.c ****   /*Configure the SysTick IRQ priority */
 263:/home/fanxinhao/Work/LiteOS_Lab/drivers/third_party/ST/STM32L4xx_HAL_Driver/Src/stm32l4xx_hal.c ****   HAL_NVIC_SetPriority(SysTick_IRQn, TickPriority ,0);
 240              		.loc 1 263 3
 241 001a 0022     		movs	r2, #0
 242 001c 7968     		ldr	r1, [r7, #4]
 243 001e 4FF0FF30 		mov	r0, #-1
 244 0022 FFF7FEFF 		bl	HAL_NVIC_SetPriority
 264:/home/fanxinhao/Work/LiteOS_Lab/drivers/third_party/ST/STM32L4xx_HAL_Driver/Src/stm32l4xx_hal.c **** 
 265:/home/fanxinhao/Work/LiteOS_Lab/drivers/third_party/ST/STM32L4xx_HAL_Driver/Src/stm32l4xx_hal.c ****   /* Return function status */
 266:/home/fanxinhao/Work/LiteOS_Lab/drivers/third_party/ST/STM32L4xx_HAL_Driver/Src/stm32l4xx_hal.c ****   return HAL_OK;
 245              		.loc 1 266 10
 246 0026 0023     		movs	r3, #0
 267:/home/fanxinhao/Work/LiteOS_Lab/drivers/third_party/ST/STM32L4xx_HAL_Driver/Src/stm32l4xx_hal.c **** }
 247              		.loc 1 267 1
 248 0028 1846     		mov	r0, r3
 249 002a 0837     		adds	r7, r7, #8
 250              	.LCFI15:
 251              		.cfi_def_cfa_offset 8
 252 002c BD46     		mov	sp, r7
 253              	.LCFI16:
 254              		.cfi_def_cfa_register 13
 255              		@ sp needed
ARM GAS  /tmp/ccKmrB2u.s 			page 10


 256 002e 80BD     		pop	{r7, pc}
 257              	.L12:
 258              		.align	2
 259              	.L11:
 260 0030 00000000 		.word	SystemCoreClock
 261 0034 D34D6210 		.word	274877907
 262              		.cfi_endproc
 263              	.LFE130:
 265              		.section	.text.HAL_IncTick,"ax",%progbits
 266              		.align	1
 267              		.weak	HAL_IncTick
 268              		.syntax unified
 269              		.thumb
 270              		.thumb_func
 271              		.fpu fpv4-sp-d16
 273              	HAL_IncTick:
 274              	.LFB131:
 268:/home/fanxinhao/Work/LiteOS_Lab/drivers/third_party/ST/STM32L4xx_HAL_Driver/Src/stm32l4xx_hal.c **** 
 269:/home/fanxinhao/Work/LiteOS_Lab/drivers/third_party/ST/STM32L4xx_HAL_Driver/Src/stm32l4xx_hal.c **** /**
 270:/home/fanxinhao/Work/LiteOS_Lab/drivers/third_party/ST/STM32L4xx_HAL_Driver/Src/stm32l4xx_hal.c ****   * @}
 271:/home/fanxinhao/Work/LiteOS_Lab/drivers/third_party/ST/STM32L4xx_HAL_Driver/Src/stm32l4xx_hal.c ****   */
 272:/home/fanxinhao/Work/LiteOS_Lab/drivers/third_party/ST/STM32L4xx_HAL_Driver/Src/stm32l4xx_hal.c **** 
 273:/home/fanxinhao/Work/LiteOS_Lab/drivers/third_party/ST/STM32L4xx_HAL_Driver/Src/stm32l4xx_hal.c **** /** @defgroup HAL_Exported_Functions_Group2 HAL Control functions
 274:/home/fanxinhao/Work/LiteOS_Lab/drivers/third_party/ST/STM32L4xx_HAL_Driver/Src/stm32l4xx_hal.c ****  *  @brief    HAL Control functions
 275:/home/fanxinhao/Work/LiteOS_Lab/drivers/third_party/ST/STM32L4xx_HAL_Driver/Src/stm32l4xx_hal.c ****  *
 276:/home/fanxinhao/Work/LiteOS_Lab/drivers/third_party/ST/STM32L4xx_HAL_Driver/Src/stm32l4xx_hal.c **** @verbatim
 277:/home/fanxinhao/Work/LiteOS_Lab/drivers/third_party/ST/STM32L4xx_HAL_Driver/Src/stm32l4xx_hal.c ****  ===============================================================================
 278:/home/fanxinhao/Work/LiteOS_Lab/drivers/third_party/ST/STM32L4xx_HAL_Driver/Src/stm32l4xx_hal.c ****                       ##### HAL Control functions #####
 279:/home/fanxinhao/Work/LiteOS_Lab/drivers/third_party/ST/STM32L4xx_HAL_Driver/Src/stm32l4xx_hal.c ****  ===============================================================================
 280:/home/fanxinhao/Work/LiteOS_Lab/drivers/third_party/ST/STM32L4xx_HAL_Driver/Src/stm32l4xx_hal.c ****     [..]  This section provides functions allowing to:
 281:/home/fanxinhao/Work/LiteOS_Lab/drivers/third_party/ST/STM32L4xx_HAL_Driver/Src/stm32l4xx_hal.c ****       (+) Provide a tick value in millisecond
 282:/home/fanxinhao/Work/LiteOS_Lab/drivers/third_party/ST/STM32L4xx_HAL_Driver/Src/stm32l4xx_hal.c ****       (+) Provide a blocking delay in millisecond
 283:/home/fanxinhao/Work/LiteOS_Lab/drivers/third_party/ST/STM32L4xx_HAL_Driver/Src/stm32l4xx_hal.c ****       (+) Suspend the time base source interrupt
 284:/home/fanxinhao/Work/LiteOS_Lab/drivers/third_party/ST/STM32L4xx_HAL_Driver/Src/stm32l4xx_hal.c ****       (+) Resume the time base source interrupt
 285:/home/fanxinhao/Work/LiteOS_Lab/drivers/third_party/ST/STM32L4xx_HAL_Driver/Src/stm32l4xx_hal.c ****       (+) Get the HAL API driver version
 286:/home/fanxinhao/Work/LiteOS_Lab/drivers/third_party/ST/STM32L4xx_HAL_Driver/Src/stm32l4xx_hal.c ****       (+) Get the device identifier
 287:/home/fanxinhao/Work/LiteOS_Lab/drivers/third_party/ST/STM32L4xx_HAL_Driver/Src/stm32l4xx_hal.c ****       (+) Get the device revision identifier
 288:/home/fanxinhao/Work/LiteOS_Lab/drivers/third_party/ST/STM32L4xx_HAL_Driver/Src/stm32l4xx_hal.c **** 
 289:/home/fanxinhao/Work/LiteOS_Lab/drivers/third_party/ST/STM32L4xx_HAL_Driver/Src/stm32l4xx_hal.c **** @endverbatim
 290:/home/fanxinhao/Work/LiteOS_Lab/drivers/third_party/ST/STM32L4xx_HAL_Driver/Src/stm32l4xx_hal.c ****   * @{
 291:/home/fanxinhao/Work/LiteOS_Lab/drivers/third_party/ST/STM32L4xx_HAL_Driver/Src/stm32l4xx_hal.c ****   */
 292:/home/fanxinhao/Work/LiteOS_Lab/drivers/third_party/ST/STM32L4xx_HAL_Driver/Src/stm32l4xx_hal.c **** 
 293:/home/fanxinhao/Work/LiteOS_Lab/drivers/third_party/ST/STM32L4xx_HAL_Driver/Src/stm32l4xx_hal.c **** /**
 294:/home/fanxinhao/Work/LiteOS_Lab/drivers/third_party/ST/STM32L4xx_HAL_Driver/Src/stm32l4xx_hal.c ****   * @brief This function is called to increment a global variable "uwTick"
 295:/home/fanxinhao/Work/LiteOS_Lab/drivers/third_party/ST/STM32L4xx_HAL_Driver/Src/stm32l4xx_hal.c ****   *        used as application time base.
 296:/home/fanxinhao/Work/LiteOS_Lab/drivers/third_party/ST/STM32L4xx_HAL_Driver/Src/stm32l4xx_hal.c ****   * @note In the default implementation, this variable is incremented each 1ms
 297:/home/fanxinhao/Work/LiteOS_Lab/drivers/third_party/ST/STM32L4xx_HAL_Driver/Src/stm32l4xx_hal.c ****   *       in SysTick ISR.
 298:/home/fanxinhao/Work/LiteOS_Lab/drivers/third_party/ST/STM32L4xx_HAL_Driver/Src/stm32l4xx_hal.c ****  * @note This function is declared as __weak to be overwritten in case of other
 299:/home/fanxinhao/Work/LiteOS_Lab/drivers/third_party/ST/STM32L4xx_HAL_Driver/Src/stm32l4xx_hal.c ****   *      implementations in user file.
 300:/home/fanxinhao/Work/LiteOS_Lab/drivers/third_party/ST/STM32L4xx_HAL_Driver/Src/stm32l4xx_hal.c ****   * @retval None
 301:/home/fanxinhao/Work/LiteOS_Lab/drivers/third_party/ST/STM32L4xx_HAL_Driver/Src/stm32l4xx_hal.c ****   */
 302:/home/fanxinhao/Work/LiteOS_Lab/drivers/third_party/ST/STM32L4xx_HAL_Driver/Src/stm32l4xx_hal.c **** __weak void HAL_IncTick(void)
 303:/home/fanxinhao/Work/LiteOS_Lab/drivers/third_party/ST/STM32L4xx_HAL_Driver/Src/stm32l4xx_hal.c **** {
 275              		.loc 1 303 1
 276              		.cfi_startproc
 277              		@ args = 0, pretend = 0, frame = 0
 278              		@ frame_needed = 1, uses_anonymous_args = 0
ARM GAS  /tmp/ccKmrB2u.s 			page 11


 279              		@ link register save eliminated.
 280 0000 80B4     		push	{r7}
 281              	.LCFI17:
 282              		.cfi_def_cfa_offset 4
 283              		.cfi_offset 7, -4
 284 0002 00AF     		add	r7, sp, #0
 285              	.LCFI18:
 286              		.cfi_def_cfa_register 7
 304:/home/fanxinhao/Work/LiteOS_Lab/drivers/third_party/ST/STM32L4xx_HAL_Driver/Src/stm32l4xx_hal.c ****   uwTick++;
 287              		.loc 1 304 9
 288 0004 044B     		ldr	r3, .L14
 289 0006 1B68     		ldr	r3, [r3]
 290 0008 0133     		adds	r3, r3, #1
 291 000a 034A     		ldr	r2, .L14
 292 000c 1360     		str	r3, [r2]
 305:/home/fanxinhao/Work/LiteOS_Lab/drivers/third_party/ST/STM32L4xx_HAL_Driver/Src/stm32l4xx_hal.c **** }
 293              		.loc 1 305 1
 294 000e 00BF     		nop
 295 0010 BD46     		mov	sp, r7
 296              	.LCFI19:
 297              		.cfi_def_cfa_register 13
 298              		@ sp needed
 299 0012 5DF8047B 		ldr	r7, [sp], #4
 300              	.LCFI20:
 301              		.cfi_restore 7
 302              		.cfi_def_cfa_offset 0
 303 0016 7047     		bx	lr
 304              	.L15:
 305              		.align	2
 306              	.L14:
 307 0018 00000000 		.word	uwTick
 308              		.cfi_endproc
 309              	.LFE131:
 311              		.section	.text.HAL_GetTick,"ax",%progbits
 312              		.align	1
 313              		.weak	HAL_GetTick
 314              		.syntax unified
 315              		.thumb
 316              		.thumb_func
 317              		.fpu fpv4-sp-d16
 319              	HAL_GetTick:
 320              	.LFB132:
 306:/home/fanxinhao/Work/LiteOS_Lab/drivers/third_party/ST/STM32L4xx_HAL_Driver/Src/stm32l4xx_hal.c **** 
 307:/home/fanxinhao/Work/LiteOS_Lab/drivers/third_party/ST/STM32L4xx_HAL_Driver/Src/stm32l4xx_hal.c **** /**
 308:/home/fanxinhao/Work/LiteOS_Lab/drivers/third_party/ST/STM32L4xx_HAL_Driver/Src/stm32l4xx_hal.c ****   * @brief Provide a tick value in millisecond.
 309:/home/fanxinhao/Work/LiteOS_Lab/drivers/third_party/ST/STM32L4xx_HAL_Driver/Src/stm32l4xx_hal.c ****   * @note This function is declared as __weak to be overwritten in case of other
 310:/home/fanxinhao/Work/LiteOS_Lab/drivers/third_party/ST/STM32L4xx_HAL_Driver/Src/stm32l4xx_hal.c ****   *       implementations in user file.
 311:/home/fanxinhao/Work/LiteOS_Lab/drivers/third_party/ST/STM32L4xx_HAL_Driver/Src/stm32l4xx_hal.c ****   * @retval tick value
 312:/home/fanxinhao/Work/LiteOS_Lab/drivers/third_party/ST/STM32L4xx_HAL_Driver/Src/stm32l4xx_hal.c ****   */
 313:/home/fanxinhao/Work/LiteOS_Lab/drivers/third_party/ST/STM32L4xx_HAL_Driver/Src/stm32l4xx_hal.c **** __weak uint32_t HAL_GetTick(void)
 314:/home/fanxinhao/Work/LiteOS_Lab/drivers/third_party/ST/STM32L4xx_HAL_Driver/Src/stm32l4xx_hal.c **** {
 321              		.loc 1 314 1
 322              		.cfi_startproc
 323              		@ args = 0, pretend = 0, frame = 0
 324              		@ frame_needed = 1, uses_anonymous_args = 0
 325              		@ link register save eliminated.
 326 0000 80B4     		push	{r7}
ARM GAS  /tmp/ccKmrB2u.s 			page 12


 327              	.LCFI21:
 328              		.cfi_def_cfa_offset 4
 329              		.cfi_offset 7, -4
 330 0002 00AF     		add	r7, sp, #0
 331              	.LCFI22:
 332              		.cfi_def_cfa_register 7
 315:/home/fanxinhao/Work/LiteOS_Lab/drivers/third_party/ST/STM32L4xx_HAL_Driver/Src/stm32l4xx_hal.c ****   return uwTick;
 333              		.loc 1 315 10
 334 0004 034B     		ldr	r3, .L18
 335 0006 1B68     		ldr	r3, [r3]
 316:/home/fanxinhao/Work/LiteOS_Lab/drivers/third_party/ST/STM32L4xx_HAL_Driver/Src/stm32l4xx_hal.c **** }
 336              		.loc 1 316 1
 337 0008 1846     		mov	r0, r3
 338 000a BD46     		mov	sp, r7
 339              	.LCFI23:
 340              		.cfi_def_cfa_register 13
 341              		@ sp needed
 342 000c 5DF8047B 		ldr	r7, [sp], #4
 343              	.LCFI24:
 344              		.cfi_restore 7
 345              		.cfi_def_cfa_offset 0
 346 0010 7047     		bx	lr
 347              	.L19:
 348 0012 00BF     		.align	2
 349              	.L18:
 350 0014 00000000 		.word	uwTick
 351              		.cfi_endproc
 352              	.LFE132:
 354              		.section	.text.HAL_Delay,"ax",%progbits
 355              		.align	1
 356              		.weak	HAL_Delay
 357              		.syntax unified
 358              		.thumb
 359              		.thumb_func
 360              		.fpu fpv4-sp-d16
 362              	HAL_Delay:
 363              	.LFB133:
 317:/home/fanxinhao/Work/LiteOS_Lab/drivers/third_party/ST/STM32L4xx_HAL_Driver/Src/stm32l4xx_hal.c **** 
 318:/home/fanxinhao/Work/LiteOS_Lab/drivers/third_party/ST/STM32L4xx_HAL_Driver/Src/stm32l4xx_hal.c **** /**
 319:/home/fanxinhao/Work/LiteOS_Lab/drivers/third_party/ST/STM32L4xx_HAL_Driver/Src/stm32l4xx_hal.c ****   * @brief This function provides minimum delay (in milliseconds) based 
 320:/home/fanxinhao/Work/LiteOS_Lab/drivers/third_party/ST/STM32L4xx_HAL_Driver/Src/stm32l4xx_hal.c ****   *        on variable incremented. 
 321:/home/fanxinhao/Work/LiteOS_Lab/drivers/third_party/ST/STM32L4xx_HAL_Driver/Src/stm32l4xx_hal.c ****   * @note In the default implementation , SysTick timer is the source of time base.
 322:/home/fanxinhao/Work/LiteOS_Lab/drivers/third_party/ST/STM32L4xx_HAL_Driver/Src/stm32l4xx_hal.c ****   *       It is used to generate interrupts at regular time intervals where uwTick
 323:/home/fanxinhao/Work/LiteOS_Lab/drivers/third_party/ST/STM32L4xx_HAL_Driver/Src/stm32l4xx_hal.c ****   *       is incremented.
 324:/home/fanxinhao/Work/LiteOS_Lab/drivers/third_party/ST/STM32L4xx_HAL_Driver/Src/stm32l4xx_hal.c ****   * @note This function is declared as __weak to be overwritten in case of other
 325:/home/fanxinhao/Work/LiteOS_Lab/drivers/third_party/ST/STM32L4xx_HAL_Driver/Src/stm32l4xx_hal.c ****   *       implementations in user file.
 326:/home/fanxinhao/Work/LiteOS_Lab/drivers/third_party/ST/STM32L4xx_HAL_Driver/Src/stm32l4xx_hal.c ****   * @param Delay  specifies the delay time length, in milliseconds.
 327:/home/fanxinhao/Work/LiteOS_Lab/drivers/third_party/ST/STM32L4xx_HAL_Driver/Src/stm32l4xx_hal.c ****   * @retval None
 328:/home/fanxinhao/Work/LiteOS_Lab/drivers/third_party/ST/STM32L4xx_HAL_Driver/Src/stm32l4xx_hal.c ****   */
 329:/home/fanxinhao/Work/LiteOS_Lab/drivers/third_party/ST/STM32L4xx_HAL_Driver/Src/stm32l4xx_hal.c **** __weak void HAL_Delay(uint32_t Delay)
 330:/home/fanxinhao/Work/LiteOS_Lab/drivers/third_party/ST/STM32L4xx_HAL_Driver/Src/stm32l4xx_hal.c **** {
 364              		.loc 1 330 1
 365              		.cfi_startproc
 366              		@ args = 0, pretend = 0, frame = 16
 367              		@ frame_needed = 1, uses_anonymous_args = 0
 368 0000 80B5     		push	{r7, lr}
 369              	.LCFI25:
ARM GAS  /tmp/ccKmrB2u.s 			page 13


 370              		.cfi_def_cfa_offset 8
 371              		.cfi_offset 7, -8
 372              		.cfi_offset 14, -4
 373 0002 84B0     		sub	sp, sp, #16
 374              	.LCFI26:
 375              		.cfi_def_cfa_offset 24
 376 0004 00AF     		add	r7, sp, #0
 377              	.LCFI27:
 378              		.cfi_def_cfa_register 7
 379 0006 7860     		str	r0, [r7, #4]
 331:/home/fanxinhao/Work/LiteOS_Lab/drivers/third_party/ST/STM32L4xx_HAL_Driver/Src/stm32l4xx_hal.c ****   uint32_t tickstart = HAL_GetTick();
 380              		.loc 1 331 24
 381 0008 FFF7FEFF 		bl	HAL_GetTick
 382 000c B860     		str	r0, [r7, #8]
 332:/home/fanxinhao/Work/LiteOS_Lab/drivers/third_party/ST/STM32L4xx_HAL_Driver/Src/stm32l4xx_hal.c ****   uint32_t wait = Delay;
 383              		.loc 1 332 12
 384 000e 7B68     		ldr	r3, [r7, #4]
 385 0010 FB60     		str	r3, [r7, #12]
 333:/home/fanxinhao/Work/LiteOS_Lab/drivers/third_party/ST/STM32L4xx_HAL_Driver/Src/stm32l4xx_hal.c **** 
 334:/home/fanxinhao/Work/LiteOS_Lab/drivers/third_party/ST/STM32L4xx_HAL_Driver/Src/stm32l4xx_hal.c ****   /* Add a period to guaranty minimum wait */
 335:/home/fanxinhao/Work/LiteOS_Lab/drivers/third_party/ST/STM32L4xx_HAL_Driver/Src/stm32l4xx_hal.c ****   if (wait < HAL_MAX_DELAY)
 386              		.loc 1 335 6
 387 0012 FB68     		ldr	r3, [r7, #12]
 388 0014 B3F1FF3F 		cmp	r3, #-1
 389 0018 02D0     		beq	.L23
 336:/home/fanxinhao/Work/LiteOS_Lab/drivers/third_party/ST/STM32L4xx_HAL_Driver/Src/stm32l4xx_hal.c ****   {
 337:/home/fanxinhao/Work/LiteOS_Lab/drivers/third_party/ST/STM32L4xx_HAL_Driver/Src/stm32l4xx_hal.c ****     wait++;
 390              		.loc 1 337 9
 391 001a FB68     		ldr	r3, [r7, #12]
 392 001c 0133     		adds	r3, r3, #1
 393 001e FB60     		str	r3, [r7, #12]
 394              	.L23:
 338:/home/fanxinhao/Work/LiteOS_Lab/drivers/third_party/ST/STM32L4xx_HAL_Driver/Src/stm32l4xx_hal.c ****   } 
 339:/home/fanxinhao/Work/LiteOS_Lab/drivers/third_party/ST/STM32L4xx_HAL_Driver/Src/stm32l4xx_hal.c **** 
 340:/home/fanxinhao/Work/LiteOS_Lab/drivers/third_party/ST/STM32L4xx_HAL_Driver/Src/stm32l4xx_hal.c ****   while((HAL_GetTick() - tickstart) < wait)
 395              		.loc 1 340 8
 396 0020 00BF     		nop
 397              	.L22:
 398              		.loc 1 340 10 discriminator 1
 399 0022 FFF7FEFF 		bl	HAL_GetTick
 400 0026 0246     		mov	r2, r0
 401              		.loc 1 340 24 discriminator 1
 402 0028 BB68     		ldr	r3, [r7, #8]
 403 002a D31A     		subs	r3, r2, r3
 404              		.loc 1 340 8 discriminator 1
 405 002c FA68     		ldr	r2, [r7, #12]
 406 002e 9A42     		cmp	r2, r3
 407 0030 F7D8     		bhi	.L22
 341:/home/fanxinhao/Work/LiteOS_Lab/drivers/third_party/ST/STM32L4xx_HAL_Driver/Src/stm32l4xx_hal.c ****   {
 342:/home/fanxinhao/Work/LiteOS_Lab/drivers/third_party/ST/STM32L4xx_HAL_Driver/Src/stm32l4xx_hal.c ****   }
 343:/home/fanxinhao/Work/LiteOS_Lab/drivers/third_party/ST/STM32L4xx_HAL_Driver/Src/stm32l4xx_hal.c **** }
 408              		.loc 1 343 1
 409 0032 00BF     		nop
 410 0034 00BF     		nop
 411 0036 1037     		adds	r7, r7, #16
 412              	.LCFI28:
 413              		.cfi_def_cfa_offset 8
ARM GAS  /tmp/ccKmrB2u.s 			page 14


 414 0038 BD46     		mov	sp, r7
 415              	.LCFI29:
 416              		.cfi_def_cfa_register 13
 417              		@ sp needed
 418 003a 80BD     		pop	{r7, pc}
 419              		.cfi_endproc
 420              	.LFE133:
 422              		.section	.text.HAL_SuspendTick,"ax",%progbits
 423              		.align	1
 424              		.weak	HAL_SuspendTick
 425              		.syntax unified
 426              		.thumb
 427              		.thumb_func
 428              		.fpu fpv4-sp-d16
 430              	HAL_SuspendTick:
 431              	.LFB134:
 344:/home/fanxinhao/Work/LiteOS_Lab/drivers/third_party/ST/STM32L4xx_HAL_Driver/Src/stm32l4xx_hal.c **** 
 345:/home/fanxinhao/Work/LiteOS_Lab/drivers/third_party/ST/STM32L4xx_HAL_Driver/Src/stm32l4xx_hal.c **** /**
 346:/home/fanxinhao/Work/LiteOS_Lab/drivers/third_party/ST/STM32L4xx_HAL_Driver/Src/stm32l4xx_hal.c ****   * @brief Suspend Tick increment.
 347:/home/fanxinhao/Work/LiteOS_Lab/drivers/third_party/ST/STM32L4xx_HAL_Driver/Src/stm32l4xx_hal.c ****   * @note In the default implementation , SysTick timer is the source of time base. It is
 348:/home/fanxinhao/Work/LiteOS_Lab/drivers/third_party/ST/STM32L4xx_HAL_Driver/Src/stm32l4xx_hal.c ****   *       used to generate interrupts at regular time intervals. Once HAL_SuspendTick()
 349:/home/fanxinhao/Work/LiteOS_Lab/drivers/third_party/ST/STM32L4xx_HAL_Driver/Src/stm32l4xx_hal.c ****   *       is called, the SysTick interrupt will be disabled and so Tick increment
 350:/home/fanxinhao/Work/LiteOS_Lab/drivers/third_party/ST/STM32L4xx_HAL_Driver/Src/stm32l4xx_hal.c ****   *       is suspended.
 351:/home/fanxinhao/Work/LiteOS_Lab/drivers/third_party/ST/STM32L4xx_HAL_Driver/Src/stm32l4xx_hal.c ****   * @note This function is declared as __weak to be overwritten in case of other
 352:/home/fanxinhao/Work/LiteOS_Lab/drivers/third_party/ST/STM32L4xx_HAL_Driver/Src/stm32l4xx_hal.c ****   *       implementations in user file.
 353:/home/fanxinhao/Work/LiteOS_Lab/drivers/third_party/ST/STM32L4xx_HAL_Driver/Src/stm32l4xx_hal.c ****   * @retval None
 354:/home/fanxinhao/Work/LiteOS_Lab/drivers/third_party/ST/STM32L4xx_HAL_Driver/Src/stm32l4xx_hal.c ****   */
 355:/home/fanxinhao/Work/LiteOS_Lab/drivers/third_party/ST/STM32L4xx_HAL_Driver/Src/stm32l4xx_hal.c **** __weak void HAL_SuspendTick(void)
 356:/home/fanxinhao/Work/LiteOS_Lab/drivers/third_party/ST/STM32L4xx_HAL_Driver/Src/stm32l4xx_hal.c **** {
 432              		.loc 1 356 1
 433              		.cfi_startproc
 434              		@ args = 0, pretend = 0, frame = 0
 435              		@ frame_needed = 1, uses_anonymous_args = 0
 436              		@ link register save eliminated.
 437 0000 80B4     		push	{r7}
 438              	.LCFI30:
 439              		.cfi_def_cfa_offset 4
 440              		.cfi_offset 7, -4
 441 0002 00AF     		add	r7, sp, #0
 442              	.LCFI31:
 443              		.cfi_def_cfa_register 7
 357:/home/fanxinhao/Work/LiteOS_Lab/drivers/third_party/ST/STM32L4xx_HAL_Driver/Src/stm32l4xx_hal.c ****   /* Disable SysTick Interrupt */
 358:/home/fanxinhao/Work/LiteOS_Lab/drivers/third_party/ST/STM32L4xx_HAL_Driver/Src/stm32l4xx_hal.c ****   SysTick->CTRL &= ~SysTick_CTRL_TICKINT_Msk;
 444              		.loc 1 358 17
 445 0004 054B     		ldr	r3, .L25
 446 0006 1B68     		ldr	r3, [r3]
 447 0008 044A     		ldr	r2, .L25
 448 000a 23F00203 		bic	r3, r3, #2
 449 000e 1360     		str	r3, [r2]
 359:/home/fanxinhao/Work/LiteOS_Lab/drivers/third_party/ST/STM32L4xx_HAL_Driver/Src/stm32l4xx_hal.c **** }
 450              		.loc 1 359 1
 451 0010 00BF     		nop
 452 0012 BD46     		mov	sp, r7
 453              	.LCFI32:
 454              		.cfi_def_cfa_register 13
 455              		@ sp needed
 456 0014 5DF8047B 		ldr	r7, [sp], #4
ARM GAS  /tmp/ccKmrB2u.s 			page 15


 457              	.LCFI33:
 458              		.cfi_restore 7
 459              		.cfi_def_cfa_offset 0
 460 0018 7047     		bx	lr
 461              	.L26:
 462 001a 00BF     		.align	2
 463              	.L25:
 464 001c 10E000E0 		.word	-536813552
 465              		.cfi_endproc
 466              	.LFE134:
 468              		.section	.text.HAL_ResumeTick,"ax",%progbits
 469              		.align	1
 470              		.weak	HAL_ResumeTick
 471              		.syntax unified
 472              		.thumb
 473              		.thumb_func
 474              		.fpu fpv4-sp-d16
 476              	HAL_ResumeTick:
 477              	.LFB135:
 360:/home/fanxinhao/Work/LiteOS_Lab/drivers/third_party/ST/STM32L4xx_HAL_Driver/Src/stm32l4xx_hal.c **** 
 361:/home/fanxinhao/Work/LiteOS_Lab/drivers/third_party/ST/STM32L4xx_HAL_Driver/Src/stm32l4xx_hal.c **** /**
 362:/home/fanxinhao/Work/LiteOS_Lab/drivers/third_party/ST/STM32L4xx_HAL_Driver/Src/stm32l4xx_hal.c ****   * @brief Resume Tick increment.
 363:/home/fanxinhao/Work/LiteOS_Lab/drivers/third_party/ST/STM32L4xx_HAL_Driver/Src/stm32l4xx_hal.c ****   * @note In the default implementation , SysTick timer is the source of time base. It is
 364:/home/fanxinhao/Work/LiteOS_Lab/drivers/third_party/ST/STM32L4xx_HAL_Driver/Src/stm32l4xx_hal.c ****   *       used to generate interrupts at regular time intervals. Once HAL_ResumeTick()
 365:/home/fanxinhao/Work/LiteOS_Lab/drivers/third_party/ST/STM32L4xx_HAL_Driver/Src/stm32l4xx_hal.c ****   *       is called, the SysTick interrupt will be enabled and so Tick increment
 366:/home/fanxinhao/Work/LiteOS_Lab/drivers/third_party/ST/STM32L4xx_HAL_Driver/Src/stm32l4xx_hal.c ****   *       is resumed.
 367:/home/fanxinhao/Work/LiteOS_Lab/drivers/third_party/ST/STM32L4xx_HAL_Driver/Src/stm32l4xx_hal.c ****   * @note This function is declared as __weak to be overwritten in case of other
 368:/home/fanxinhao/Work/LiteOS_Lab/drivers/third_party/ST/STM32L4xx_HAL_Driver/Src/stm32l4xx_hal.c ****   *       implementations in user file.
 369:/home/fanxinhao/Work/LiteOS_Lab/drivers/third_party/ST/STM32L4xx_HAL_Driver/Src/stm32l4xx_hal.c ****   * @retval None
 370:/home/fanxinhao/Work/LiteOS_Lab/drivers/third_party/ST/STM32L4xx_HAL_Driver/Src/stm32l4xx_hal.c ****   */
 371:/home/fanxinhao/Work/LiteOS_Lab/drivers/third_party/ST/STM32L4xx_HAL_Driver/Src/stm32l4xx_hal.c **** __weak void HAL_ResumeTick(void)
 372:/home/fanxinhao/Work/LiteOS_Lab/drivers/third_party/ST/STM32L4xx_HAL_Driver/Src/stm32l4xx_hal.c **** {
 478              		.loc 1 372 1
 479              		.cfi_startproc
 480              		@ args = 0, pretend = 0, frame = 0
 481              		@ frame_needed = 1, uses_anonymous_args = 0
 482              		@ link register save eliminated.
 483 0000 80B4     		push	{r7}
 484              	.LCFI34:
 485              		.cfi_def_cfa_offset 4
 486              		.cfi_offset 7, -4
 487 0002 00AF     		add	r7, sp, #0
 488              	.LCFI35:
 489              		.cfi_def_cfa_register 7
 373:/home/fanxinhao/Work/LiteOS_Lab/drivers/third_party/ST/STM32L4xx_HAL_Driver/Src/stm32l4xx_hal.c ****   /* Enable SysTick Interrupt */
 374:/home/fanxinhao/Work/LiteOS_Lab/drivers/third_party/ST/STM32L4xx_HAL_Driver/Src/stm32l4xx_hal.c ****   SysTick->CTRL  |= SysTick_CTRL_TICKINT_Msk;
 490              		.loc 1 374 18
 491 0004 054B     		ldr	r3, .L28
 492 0006 1B68     		ldr	r3, [r3]
 493 0008 044A     		ldr	r2, .L28
 494 000a 43F00203 		orr	r3, r3, #2
 495 000e 1360     		str	r3, [r2]
 375:/home/fanxinhao/Work/LiteOS_Lab/drivers/third_party/ST/STM32L4xx_HAL_Driver/Src/stm32l4xx_hal.c **** }
 496              		.loc 1 375 1
 497 0010 00BF     		nop
 498 0012 BD46     		mov	sp, r7
 499              	.LCFI36:
ARM GAS  /tmp/ccKmrB2u.s 			page 16


 500              		.cfi_def_cfa_register 13
 501              		@ sp needed
 502 0014 5DF8047B 		ldr	r7, [sp], #4
 503              	.LCFI37:
 504              		.cfi_restore 7
 505              		.cfi_def_cfa_offset 0
 506 0018 7047     		bx	lr
 507              	.L29:
 508 001a 00BF     		.align	2
 509              	.L28:
 510 001c 10E000E0 		.word	-536813552
 511              		.cfi_endproc
 512              	.LFE135:
 514              		.section	.text.HAL_GetHalVersion,"ax",%progbits
 515              		.align	1
 516              		.global	HAL_GetHalVersion
 517              		.syntax unified
 518              		.thumb
 519              		.thumb_func
 520              		.fpu fpv4-sp-d16
 522              	HAL_GetHalVersion:
 523              	.LFB136:
 376:/home/fanxinhao/Work/LiteOS_Lab/drivers/third_party/ST/STM32L4xx_HAL_Driver/Src/stm32l4xx_hal.c **** 
 377:/home/fanxinhao/Work/LiteOS_Lab/drivers/third_party/ST/STM32L4xx_HAL_Driver/Src/stm32l4xx_hal.c **** /**
 378:/home/fanxinhao/Work/LiteOS_Lab/drivers/third_party/ST/STM32L4xx_HAL_Driver/Src/stm32l4xx_hal.c ****   * @brief  Return the HAL revision.
 379:/home/fanxinhao/Work/LiteOS_Lab/drivers/third_party/ST/STM32L4xx_HAL_Driver/Src/stm32l4xx_hal.c ****   * @retval version : 0xXYZR (8bits for each decimal, R for RC)
 380:/home/fanxinhao/Work/LiteOS_Lab/drivers/third_party/ST/STM32L4xx_HAL_Driver/Src/stm32l4xx_hal.c ****   */
 381:/home/fanxinhao/Work/LiteOS_Lab/drivers/third_party/ST/STM32L4xx_HAL_Driver/Src/stm32l4xx_hal.c **** uint32_t HAL_GetHalVersion(void)
 382:/home/fanxinhao/Work/LiteOS_Lab/drivers/third_party/ST/STM32L4xx_HAL_Driver/Src/stm32l4xx_hal.c **** {
 524              		.loc 1 382 1
 525              		.cfi_startproc
 526              		@ args = 0, pretend = 0, frame = 0
 527              		@ frame_needed = 1, uses_anonymous_args = 0
 528              		@ link register save eliminated.
 529 0000 80B4     		push	{r7}
 530              	.LCFI38:
 531              		.cfi_def_cfa_offset 4
 532              		.cfi_offset 7, -4
 533 0002 00AF     		add	r7, sp, #0
 534              	.LCFI39:
 535              		.cfi_def_cfa_register 7
 383:/home/fanxinhao/Work/LiteOS_Lab/drivers/third_party/ST/STM32L4xx_HAL_Driver/Src/stm32l4xx_hal.c ****  return __STM32L4xx_HAL_VERSION;
 536              		.loc 1 383 9
 537 0004 024B     		ldr	r3, .L32
 384:/home/fanxinhao/Work/LiteOS_Lab/drivers/third_party/ST/STM32L4xx_HAL_Driver/Src/stm32l4xx_hal.c **** }
 538              		.loc 1 384 1
 539 0006 1846     		mov	r0, r3
 540 0008 BD46     		mov	sp, r7
 541              	.LCFI40:
 542              		.cfi_def_cfa_register 13
 543              		@ sp needed
 544 000a 5DF8047B 		ldr	r7, [sp], #4
 545              	.LCFI41:
 546              		.cfi_restore 7
 547              		.cfi_def_cfa_offset 0
 548 000e 7047     		bx	lr
 549              	.L33:
ARM GAS  /tmp/ccKmrB2u.s 			page 17


 550              		.align	2
 551              	.L32:
 552 0010 00020801 		.word	17302016
 553              		.cfi_endproc
 554              	.LFE136:
 556              		.section	.text.HAL_GetREVID,"ax",%progbits
 557              		.align	1
 558              		.global	HAL_GetREVID
 559              		.syntax unified
 560              		.thumb
 561              		.thumb_func
 562              		.fpu fpv4-sp-d16
 564              	HAL_GetREVID:
 565              	.LFB137:
 385:/home/fanxinhao/Work/LiteOS_Lab/drivers/third_party/ST/STM32L4xx_HAL_Driver/Src/stm32l4xx_hal.c **** 
 386:/home/fanxinhao/Work/LiteOS_Lab/drivers/third_party/ST/STM32L4xx_HAL_Driver/Src/stm32l4xx_hal.c **** /**
 387:/home/fanxinhao/Work/LiteOS_Lab/drivers/third_party/ST/STM32L4xx_HAL_Driver/Src/stm32l4xx_hal.c ****   * @brief  Return the device revision identifier.
 388:/home/fanxinhao/Work/LiteOS_Lab/drivers/third_party/ST/STM32L4xx_HAL_Driver/Src/stm32l4xx_hal.c ****   * @retval Device revision identifier
 389:/home/fanxinhao/Work/LiteOS_Lab/drivers/third_party/ST/STM32L4xx_HAL_Driver/Src/stm32l4xx_hal.c ****   */
 390:/home/fanxinhao/Work/LiteOS_Lab/drivers/third_party/ST/STM32L4xx_HAL_Driver/Src/stm32l4xx_hal.c **** uint32_t HAL_GetREVID(void)
 391:/home/fanxinhao/Work/LiteOS_Lab/drivers/third_party/ST/STM32L4xx_HAL_Driver/Src/stm32l4xx_hal.c **** {
 566              		.loc 1 391 1
 567              		.cfi_startproc
 568              		@ args = 0, pretend = 0, frame = 0
 569              		@ frame_needed = 1, uses_anonymous_args = 0
 570              		@ link register save eliminated.
 571 0000 80B4     		push	{r7}
 572              	.LCFI42:
 573              		.cfi_def_cfa_offset 4
 574              		.cfi_offset 7, -4
 575 0002 00AF     		add	r7, sp, #0
 576              	.LCFI43:
 577              		.cfi_def_cfa_register 7
 392:/home/fanxinhao/Work/LiteOS_Lab/drivers/third_party/ST/STM32L4xx_HAL_Driver/Src/stm32l4xx_hal.c ****    return((DBGMCU->IDCODE & DBGMCU_IDCODE_REV_ID) >> 16);
 578              		.loc 1 392 18
 579 0004 044B     		ldr	r3, .L36
 580 0006 1B68     		ldr	r3, [r3]
 581              		.loc 1 392 51
 582 0008 1B0C     		lsrs	r3, r3, #16
 583 000a 9BB2     		uxth	r3, r3
 393:/home/fanxinhao/Work/LiteOS_Lab/drivers/third_party/ST/STM32L4xx_HAL_Driver/Src/stm32l4xx_hal.c **** }
 584              		.loc 1 393 1
 585 000c 1846     		mov	r0, r3
 586 000e BD46     		mov	sp, r7
 587              	.LCFI44:
 588              		.cfi_def_cfa_register 13
 589              		@ sp needed
 590 0010 5DF8047B 		ldr	r7, [sp], #4
 591              	.LCFI45:
 592              		.cfi_restore 7
 593              		.cfi_def_cfa_offset 0
 594 0014 7047     		bx	lr
 595              	.L37:
 596 0016 00BF     		.align	2
 597              	.L36:
 598 0018 002004E0 		.word	-536600576
 599              		.cfi_endproc
ARM GAS  /tmp/ccKmrB2u.s 			page 18


 600              	.LFE137:
 602              		.section	.text.HAL_GetDEVID,"ax",%progbits
 603              		.align	1
 604              		.global	HAL_GetDEVID
 605              		.syntax unified
 606              		.thumb
 607              		.thumb_func
 608              		.fpu fpv4-sp-d16
 610              	HAL_GetDEVID:
 611              	.LFB138:
 394:/home/fanxinhao/Work/LiteOS_Lab/drivers/third_party/ST/STM32L4xx_HAL_Driver/Src/stm32l4xx_hal.c **** 
 395:/home/fanxinhao/Work/LiteOS_Lab/drivers/third_party/ST/STM32L4xx_HAL_Driver/Src/stm32l4xx_hal.c **** /**
 396:/home/fanxinhao/Work/LiteOS_Lab/drivers/third_party/ST/STM32L4xx_HAL_Driver/Src/stm32l4xx_hal.c ****   * @brief  Return the device identifier.
 397:/home/fanxinhao/Work/LiteOS_Lab/drivers/third_party/ST/STM32L4xx_HAL_Driver/Src/stm32l4xx_hal.c ****   * @retval Device identifier
 398:/home/fanxinhao/Work/LiteOS_Lab/drivers/third_party/ST/STM32L4xx_HAL_Driver/Src/stm32l4xx_hal.c ****   */
 399:/home/fanxinhao/Work/LiteOS_Lab/drivers/third_party/ST/STM32L4xx_HAL_Driver/Src/stm32l4xx_hal.c **** uint32_t HAL_GetDEVID(void)
 400:/home/fanxinhao/Work/LiteOS_Lab/drivers/third_party/ST/STM32L4xx_HAL_Driver/Src/stm32l4xx_hal.c **** {
 612              		.loc 1 400 1
 613              		.cfi_startproc
 614              		@ args = 0, pretend = 0, frame = 0
 615              		@ frame_needed = 1, uses_anonymous_args = 0
 616              		@ link register save eliminated.
 617 0000 80B4     		push	{r7}
 618              	.LCFI46:
 619              		.cfi_def_cfa_offset 4
 620              		.cfi_offset 7, -4
 621 0002 00AF     		add	r7, sp, #0
 622              	.LCFI47:
 623              		.cfi_def_cfa_register 7
 401:/home/fanxinhao/Work/LiteOS_Lab/drivers/third_party/ST/STM32L4xx_HAL_Driver/Src/stm32l4xx_hal.c ****    return(DBGMCU->IDCODE & DBGMCU_IDCODE_DEV_ID);
 624              		.loc 1 401 17
 625 0004 044B     		ldr	r3, .L40
 626 0006 1B68     		ldr	r3, [r3]
 627              		.loc 1 401 26
 628 0008 C3F30B03 		ubfx	r3, r3, #0, #12
 402:/home/fanxinhao/Work/LiteOS_Lab/drivers/third_party/ST/STM32L4xx_HAL_Driver/Src/stm32l4xx_hal.c **** }
 629              		.loc 1 402 1
 630 000c 1846     		mov	r0, r3
 631 000e BD46     		mov	sp, r7
 632              	.LCFI48:
 633              		.cfi_def_cfa_register 13
 634              		@ sp needed
 635 0010 5DF8047B 		ldr	r7, [sp], #4
 636              	.LCFI49:
 637              		.cfi_restore 7
 638              		.cfi_def_cfa_offset 0
 639 0014 7047     		bx	lr
 640              	.L41:
 641 0016 00BF     		.align	2
 642              	.L40:
 643 0018 002004E0 		.word	-536600576
 644              		.cfi_endproc
 645              	.LFE138:
 647              		.section	.text.HAL_GetUIDw0,"ax",%progbits
 648              		.align	1
 649              		.global	HAL_GetUIDw0
 650              		.syntax unified
ARM GAS  /tmp/ccKmrB2u.s 			page 19


 651              		.thumb
 652              		.thumb_func
 653              		.fpu fpv4-sp-d16
 655              	HAL_GetUIDw0:
 656              	.LFB139:
 403:/home/fanxinhao/Work/LiteOS_Lab/drivers/third_party/ST/STM32L4xx_HAL_Driver/Src/stm32l4xx_hal.c **** 
 404:/home/fanxinhao/Work/LiteOS_Lab/drivers/third_party/ST/STM32L4xx_HAL_Driver/Src/stm32l4xx_hal.c **** /**
 405:/home/fanxinhao/Work/LiteOS_Lab/drivers/third_party/ST/STM32L4xx_HAL_Driver/Src/stm32l4xx_hal.c ****   * @brief  Return the first word of the unique device identifier (UID based on 96 bits)
 406:/home/fanxinhao/Work/LiteOS_Lab/drivers/third_party/ST/STM32L4xx_HAL_Driver/Src/stm32l4xx_hal.c ****   * @retval Device identifier
 407:/home/fanxinhao/Work/LiteOS_Lab/drivers/third_party/ST/STM32L4xx_HAL_Driver/Src/stm32l4xx_hal.c ****   */
 408:/home/fanxinhao/Work/LiteOS_Lab/drivers/third_party/ST/STM32L4xx_HAL_Driver/Src/stm32l4xx_hal.c **** uint32_t HAL_GetUIDw0(void)
 409:/home/fanxinhao/Work/LiteOS_Lab/drivers/third_party/ST/STM32L4xx_HAL_Driver/Src/stm32l4xx_hal.c **** {
 657              		.loc 1 409 1
 658              		.cfi_startproc
 659              		@ args = 0, pretend = 0, frame = 0
 660              		@ frame_needed = 1, uses_anonymous_args = 0
 661              		@ link register save eliminated.
 662 0000 80B4     		push	{r7}
 663              	.LCFI50:
 664              		.cfi_def_cfa_offset 4
 665              		.cfi_offset 7, -4
 666 0002 00AF     		add	r7, sp, #0
 667              	.LCFI51:
 668              		.cfi_def_cfa_register 7
 410:/home/fanxinhao/Work/LiteOS_Lab/drivers/third_party/ST/STM32L4xx_HAL_Driver/Src/stm32l4xx_hal.c ****    return(READ_REG(*((uint32_t *)UID_BASE)));
 669              		.loc 1 410 11
 670 0004 034B     		ldr	r3, .L44
 671 0006 1B68     		ldr	r3, [r3]
 411:/home/fanxinhao/Work/LiteOS_Lab/drivers/third_party/ST/STM32L4xx_HAL_Driver/Src/stm32l4xx_hal.c **** }
 672              		.loc 1 411 1
 673 0008 1846     		mov	r0, r3
 674 000a BD46     		mov	sp, r7
 675              	.LCFI52:
 676              		.cfi_def_cfa_register 13
 677              		@ sp needed
 678 000c 5DF8047B 		ldr	r7, [sp], #4
 679              	.LCFI53:
 680              		.cfi_restore 7
 681              		.cfi_def_cfa_offset 0
 682 0010 7047     		bx	lr
 683              	.L45:
 684 0012 00BF     		.align	2
 685              	.L44:
 686 0014 9075FF1F 		.word	536835472
 687              		.cfi_endproc
 688              	.LFE139:
 690              		.section	.text.HAL_GetUIDw1,"ax",%progbits
 691              		.align	1
 692              		.global	HAL_GetUIDw1
 693              		.syntax unified
 694              		.thumb
 695              		.thumb_func
 696              		.fpu fpv4-sp-d16
 698              	HAL_GetUIDw1:
 699              	.LFB140:
 412:/home/fanxinhao/Work/LiteOS_Lab/drivers/third_party/ST/STM32L4xx_HAL_Driver/Src/stm32l4xx_hal.c **** 
 413:/home/fanxinhao/Work/LiteOS_Lab/drivers/third_party/ST/STM32L4xx_HAL_Driver/Src/stm32l4xx_hal.c **** /**
ARM GAS  /tmp/ccKmrB2u.s 			page 20


 414:/home/fanxinhao/Work/LiteOS_Lab/drivers/third_party/ST/STM32L4xx_HAL_Driver/Src/stm32l4xx_hal.c ****   * @brief  Return the second word of the unique device identifier (UID based on 96 bits)
 415:/home/fanxinhao/Work/LiteOS_Lab/drivers/third_party/ST/STM32L4xx_HAL_Driver/Src/stm32l4xx_hal.c ****   * @retval Device identifier
 416:/home/fanxinhao/Work/LiteOS_Lab/drivers/third_party/ST/STM32L4xx_HAL_Driver/Src/stm32l4xx_hal.c ****   */
 417:/home/fanxinhao/Work/LiteOS_Lab/drivers/third_party/ST/STM32L4xx_HAL_Driver/Src/stm32l4xx_hal.c **** uint32_t HAL_GetUIDw1(void)
 418:/home/fanxinhao/Work/LiteOS_Lab/drivers/third_party/ST/STM32L4xx_HAL_Driver/Src/stm32l4xx_hal.c **** {
 700              		.loc 1 418 1
 701              		.cfi_startproc
 702              		@ args = 0, pretend = 0, frame = 0
 703              		@ frame_needed = 1, uses_anonymous_args = 0
 704              		@ link register save eliminated.
 705 0000 80B4     		push	{r7}
 706              	.LCFI54:
 707              		.cfi_def_cfa_offset 4
 708              		.cfi_offset 7, -4
 709 0002 00AF     		add	r7, sp, #0
 710              	.LCFI55:
 711              		.cfi_def_cfa_register 7
 419:/home/fanxinhao/Work/LiteOS_Lab/drivers/third_party/ST/STM32L4xx_HAL_Driver/Src/stm32l4xx_hal.c ****    return(READ_REG(*((uint32_t *)(UID_BASE + 4U))));
 712              		.loc 1 419 11
 713 0004 034B     		ldr	r3, .L48
 714 0006 1B68     		ldr	r3, [r3]
 420:/home/fanxinhao/Work/LiteOS_Lab/drivers/third_party/ST/STM32L4xx_HAL_Driver/Src/stm32l4xx_hal.c **** }
 715              		.loc 1 420 1
 716 0008 1846     		mov	r0, r3
 717 000a BD46     		mov	sp, r7
 718              	.LCFI56:
 719              		.cfi_def_cfa_register 13
 720              		@ sp needed
 721 000c 5DF8047B 		ldr	r7, [sp], #4
 722              	.LCFI57:
 723              		.cfi_restore 7
 724              		.cfi_def_cfa_offset 0
 725 0010 7047     		bx	lr
 726              	.L49:
 727 0012 00BF     		.align	2
 728              	.L48:
 729 0014 9475FF1F 		.word	536835476
 730              		.cfi_endproc
 731              	.LFE140:
 733              		.section	.text.HAL_GetUIDw2,"ax",%progbits
 734              		.align	1
 735              		.global	HAL_GetUIDw2
 736              		.syntax unified
 737              		.thumb
 738              		.thumb_func
 739              		.fpu fpv4-sp-d16
 741              	HAL_GetUIDw2:
 742              	.LFB141:
 421:/home/fanxinhao/Work/LiteOS_Lab/drivers/third_party/ST/STM32L4xx_HAL_Driver/Src/stm32l4xx_hal.c **** 
 422:/home/fanxinhao/Work/LiteOS_Lab/drivers/third_party/ST/STM32L4xx_HAL_Driver/Src/stm32l4xx_hal.c **** /**
 423:/home/fanxinhao/Work/LiteOS_Lab/drivers/third_party/ST/STM32L4xx_HAL_Driver/Src/stm32l4xx_hal.c ****   * @brief  Return the third word of the unique device identifier (UID based on 96 bits)
 424:/home/fanxinhao/Work/LiteOS_Lab/drivers/third_party/ST/STM32L4xx_HAL_Driver/Src/stm32l4xx_hal.c ****   * @retval Device identifier
 425:/home/fanxinhao/Work/LiteOS_Lab/drivers/third_party/ST/STM32L4xx_HAL_Driver/Src/stm32l4xx_hal.c ****   */
 426:/home/fanxinhao/Work/LiteOS_Lab/drivers/third_party/ST/STM32L4xx_HAL_Driver/Src/stm32l4xx_hal.c **** uint32_t HAL_GetUIDw2(void)
 427:/home/fanxinhao/Work/LiteOS_Lab/drivers/third_party/ST/STM32L4xx_HAL_Driver/Src/stm32l4xx_hal.c **** {
 743              		.loc 1 427 1
 744              		.cfi_startproc
ARM GAS  /tmp/ccKmrB2u.s 			page 21


 745              		@ args = 0, pretend = 0, frame = 0
 746              		@ frame_needed = 1, uses_anonymous_args = 0
 747              		@ link register save eliminated.
 748 0000 80B4     		push	{r7}
 749              	.LCFI58:
 750              		.cfi_def_cfa_offset 4
 751              		.cfi_offset 7, -4
 752 0002 00AF     		add	r7, sp, #0
 753              	.LCFI59:
 754              		.cfi_def_cfa_register 7
 428:/home/fanxinhao/Work/LiteOS_Lab/drivers/third_party/ST/STM32L4xx_HAL_Driver/Src/stm32l4xx_hal.c ****    return(READ_REG(*((uint32_t *)(UID_BASE + 8U))));
 755              		.loc 1 428 11
 756 0004 034B     		ldr	r3, .L52
 757 0006 1B68     		ldr	r3, [r3]
 429:/home/fanxinhao/Work/LiteOS_Lab/drivers/third_party/ST/STM32L4xx_HAL_Driver/Src/stm32l4xx_hal.c **** }
 758              		.loc 1 429 1
 759 0008 1846     		mov	r0, r3
 760 000a BD46     		mov	sp, r7
 761              	.LCFI60:
 762              		.cfi_def_cfa_register 13
 763              		@ sp needed
 764 000c 5DF8047B 		ldr	r7, [sp], #4
 765              	.LCFI61:
 766              		.cfi_restore 7
 767              		.cfi_def_cfa_offset 0
 768 0010 7047     		bx	lr
 769              	.L53:
 770 0012 00BF     		.align	2
 771              	.L52:
 772 0014 9875FF1F 		.word	536835480
 773              		.cfi_endproc
 774              	.LFE141:
 776              		.section	.text.HAL_DBGMCU_EnableDBGSleepMode,"ax",%progbits
 777              		.align	1
 778              		.global	HAL_DBGMCU_EnableDBGSleepMode
 779              		.syntax unified
 780              		.thumb
 781              		.thumb_func
 782              		.fpu fpv4-sp-d16
 784              	HAL_DBGMCU_EnableDBGSleepMode:
 785              	.LFB142:
 430:/home/fanxinhao/Work/LiteOS_Lab/drivers/third_party/ST/STM32L4xx_HAL_Driver/Src/stm32l4xx_hal.c **** 
 431:/home/fanxinhao/Work/LiteOS_Lab/drivers/third_party/ST/STM32L4xx_HAL_Driver/Src/stm32l4xx_hal.c **** /**
 432:/home/fanxinhao/Work/LiteOS_Lab/drivers/third_party/ST/STM32L4xx_HAL_Driver/Src/stm32l4xx_hal.c ****   * @}
 433:/home/fanxinhao/Work/LiteOS_Lab/drivers/third_party/ST/STM32L4xx_HAL_Driver/Src/stm32l4xx_hal.c ****   */
 434:/home/fanxinhao/Work/LiteOS_Lab/drivers/third_party/ST/STM32L4xx_HAL_Driver/Src/stm32l4xx_hal.c **** 
 435:/home/fanxinhao/Work/LiteOS_Lab/drivers/third_party/ST/STM32L4xx_HAL_Driver/Src/stm32l4xx_hal.c **** /** @defgroup HAL_Exported_Functions_Group3 HAL Debug functions
 436:/home/fanxinhao/Work/LiteOS_Lab/drivers/third_party/ST/STM32L4xx_HAL_Driver/Src/stm32l4xx_hal.c ****  *  @brief    HAL Debug functions
 437:/home/fanxinhao/Work/LiteOS_Lab/drivers/third_party/ST/STM32L4xx_HAL_Driver/Src/stm32l4xx_hal.c ****  *
 438:/home/fanxinhao/Work/LiteOS_Lab/drivers/third_party/ST/STM32L4xx_HAL_Driver/Src/stm32l4xx_hal.c **** @verbatim
 439:/home/fanxinhao/Work/LiteOS_Lab/drivers/third_party/ST/STM32L4xx_HAL_Driver/Src/stm32l4xx_hal.c ****  ===============================================================================
 440:/home/fanxinhao/Work/LiteOS_Lab/drivers/third_party/ST/STM32L4xx_HAL_Driver/Src/stm32l4xx_hal.c ****                       ##### HAL Debug functions #####
 441:/home/fanxinhao/Work/LiteOS_Lab/drivers/third_party/ST/STM32L4xx_HAL_Driver/Src/stm32l4xx_hal.c ****  ===============================================================================
 442:/home/fanxinhao/Work/LiteOS_Lab/drivers/third_party/ST/STM32L4xx_HAL_Driver/Src/stm32l4xx_hal.c ****     [..]  This section provides functions allowing to:
 443:/home/fanxinhao/Work/LiteOS_Lab/drivers/third_party/ST/STM32L4xx_HAL_Driver/Src/stm32l4xx_hal.c ****       (+) Enable/Disable Debug module during SLEEP mode
 444:/home/fanxinhao/Work/LiteOS_Lab/drivers/third_party/ST/STM32L4xx_HAL_Driver/Src/stm32l4xx_hal.c ****       (+) Enable/Disable Debug module during STOP0/STOP1/STOP2 modes
 445:/home/fanxinhao/Work/LiteOS_Lab/drivers/third_party/ST/STM32L4xx_HAL_Driver/Src/stm32l4xx_hal.c ****       (+) Enable/Disable Debug module during STANDBY mode
ARM GAS  /tmp/ccKmrB2u.s 			page 22


 446:/home/fanxinhao/Work/LiteOS_Lab/drivers/third_party/ST/STM32L4xx_HAL_Driver/Src/stm32l4xx_hal.c **** 
 447:/home/fanxinhao/Work/LiteOS_Lab/drivers/third_party/ST/STM32L4xx_HAL_Driver/Src/stm32l4xx_hal.c **** @endverbatim
 448:/home/fanxinhao/Work/LiteOS_Lab/drivers/third_party/ST/STM32L4xx_HAL_Driver/Src/stm32l4xx_hal.c ****   * @{
 449:/home/fanxinhao/Work/LiteOS_Lab/drivers/third_party/ST/STM32L4xx_HAL_Driver/Src/stm32l4xx_hal.c ****   */
 450:/home/fanxinhao/Work/LiteOS_Lab/drivers/third_party/ST/STM32L4xx_HAL_Driver/Src/stm32l4xx_hal.c **** 
 451:/home/fanxinhao/Work/LiteOS_Lab/drivers/third_party/ST/STM32L4xx_HAL_Driver/Src/stm32l4xx_hal.c **** /**
 452:/home/fanxinhao/Work/LiteOS_Lab/drivers/third_party/ST/STM32L4xx_HAL_Driver/Src/stm32l4xx_hal.c ****   * @brief  Enable the Debug Module during SLEEP mode.
 453:/home/fanxinhao/Work/LiteOS_Lab/drivers/third_party/ST/STM32L4xx_HAL_Driver/Src/stm32l4xx_hal.c ****   * @retval None
 454:/home/fanxinhao/Work/LiteOS_Lab/drivers/third_party/ST/STM32L4xx_HAL_Driver/Src/stm32l4xx_hal.c ****   */
 455:/home/fanxinhao/Work/LiteOS_Lab/drivers/third_party/ST/STM32L4xx_HAL_Driver/Src/stm32l4xx_hal.c **** void HAL_DBGMCU_EnableDBGSleepMode(void)
 456:/home/fanxinhao/Work/LiteOS_Lab/drivers/third_party/ST/STM32L4xx_HAL_Driver/Src/stm32l4xx_hal.c **** {
 786              		.loc 1 456 1
 787              		.cfi_startproc
 788              		@ args = 0, pretend = 0, frame = 0
 789              		@ frame_needed = 1, uses_anonymous_args = 0
 790              		@ link register save eliminated.
 791 0000 80B4     		push	{r7}
 792              	.LCFI62:
 793              		.cfi_def_cfa_offset 4
 794              		.cfi_offset 7, -4
 795 0002 00AF     		add	r7, sp, #0
 796              	.LCFI63:
 797              		.cfi_def_cfa_register 7
 457:/home/fanxinhao/Work/LiteOS_Lab/drivers/third_party/ST/STM32L4xx_HAL_Driver/Src/stm32l4xx_hal.c ****   SET_BIT(DBGMCU->CR, DBGMCU_CR_DBG_SLEEP);
 798              		.loc 1 457 3
 799 0004 054B     		ldr	r3, .L55
 800 0006 5B68     		ldr	r3, [r3, #4]
 801 0008 044A     		ldr	r2, .L55
 802 000a 43F00103 		orr	r3, r3, #1
 803 000e 5360     		str	r3, [r2, #4]
 458:/home/fanxinhao/Work/LiteOS_Lab/drivers/third_party/ST/STM32L4xx_HAL_Driver/Src/stm32l4xx_hal.c **** }
 804              		.loc 1 458 1
 805 0010 00BF     		nop
 806 0012 BD46     		mov	sp, r7
 807              	.LCFI64:
 808              		.cfi_def_cfa_register 13
 809              		@ sp needed
 810 0014 5DF8047B 		ldr	r7, [sp], #4
 811              	.LCFI65:
 812              		.cfi_restore 7
 813              		.cfi_def_cfa_offset 0
 814 0018 7047     		bx	lr
 815              	.L56:
 816 001a 00BF     		.align	2
 817              	.L55:
 818 001c 002004E0 		.word	-536600576
 819              		.cfi_endproc
 820              	.LFE142:
 822              		.section	.text.HAL_DBGMCU_DisableDBGSleepMode,"ax",%progbits
 823              		.align	1
 824              		.global	HAL_DBGMCU_DisableDBGSleepMode
 825              		.syntax unified
 826              		.thumb
 827              		.thumb_func
 828              		.fpu fpv4-sp-d16
 830              	HAL_DBGMCU_DisableDBGSleepMode:
 831              	.LFB143:
ARM GAS  /tmp/ccKmrB2u.s 			page 23


 459:/home/fanxinhao/Work/LiteOS_Lab/drivers/third_party/ST/STM32L4xx_HAL_Driver/Src/stm32l4xx_hal.c **** 
 460:/home/fanxinhao/Work/LiteOS_Lab/drivers/third_party/ST/STM32L4xx_HAL_Driver/Src/stm32l4xx_hal.c **** /**
 461:/home/fanxinhao/Work/LiteOS_Lab/drivers/third_party/ST/STM32L4xx_HAL_Driver/Src/stm32l4xx_hal.c ****   * @brief  Disable the Debug Module during SLEEP mode.
 462:/home/fanxinhao/Work/LiteOS_Lab/drivers/third_party/ST/STM32L4xx_HAL_Driver/Src/stm32l4xx_hal.c ****   * @retval None
 463:/home/fanxinhao/Work/LiteOS_Lab/drivers/third_party/ST/STM32L4xx_HAL_Driver/Src/stm32l4xx_hal.c ****   */
 464:/home/fanxinhao/Work/LiteOS_Lab/drivers/third_party/ST/STM32L4xx_HAL_Driver/Src/stm32l4xx_hal.c **** void HAL_DBGMCU_DisableDBGSleepMode(void)
 465:/home/fanxinhao/Work/LiteOS_Lab/drivers/third_party/ST/STM32L4xx_HAL_Driver/Src/stm32l4xx_hal.c **** {
 832              		.loc 1 465 1
 833              		.cfi_startproc
 834              		@ args = 0, pretend = 0, frame = 0
 835              		@ frame_needed = 1, uses_anonymous_args = 0
 836              		@ link register save eliminated.
 837 0000 80B4     		push	{r7}
 838              	.LCFI66:
 839              		.cfi_def_cfa_offset 4
 840              		.cfi_offset 7, -4
 841 0002 00AF     		add	r7, sp, #0
 842              	.LCFI67:
 843              		.cfi_def_cfa_register 7
 466:/home/fanxinhao/Work/LiteOS_Lab/drivers/third_party/ST/STM32L4xx_HAL_Driver/Src/stm32l4xx_hal.c ****   CLEAR_BIT(DBGMCU->CR, DBGMCU_CR_DBG_SLEEP);
 844              		.loc 1 466 3
 845 0004 054B     		ldr	r3, .L58
 846 0006 5B68     		ldr	r3, [r3, #4]
 847 0008 044A     		ldr	r2, .L58
 848 000a 23F00103 		bic	r3, r3, #1
 849 000e 5360     		str	r3, [r2, #4]
 467:/home/fanxinhao/Work/LiteOS_Lab/drivers/third_party/ST/STM32L4xx_HAL_Driver/Src/stm32l4xx_hal.c **** }
 850              		.loc 1 467 1
 851 0010 00BF     		nop
 852 0012 BD46     		mov	sp, r7
 853              	.LCFI68:
 854              		.cfi_def_cfa_register 13
 855              		@ sp needed
 856 0014 5DF8047B 		ldr	r7, [sp], #4
 857              	.LCFI69:
 858              		.cfi_restore 7
 859              		.cfi_def_cfa_offset 0
 860 0018 7047     		bx	lr
 861              	.L59:
 862 001a 00BF     		.align	2
 863              	.L58:
 864 001c 002004E0 		.word	-536600576
 865              		.cfi_endproc
 866              	.LFE143:
 868              		.section	.text.HAL_DBGMCU_EnableDBGStopMode,"ax",%progbits
 869              		.align	1
 870              		.global	HAL_DBGMCU_EnableDBGStopMode
 871              		.syntax unified
 872              		.thumb
 873              		.thumb_func
 874              		.fpu fpv4-sp-d16
 876              	HAL_DBGMCU_EnableDBGStopMode:
 877              	.LFB144:
 468:/home/fanxinhao/Work/LiteOS_Lab/drivers/third_party/ST/STM32L4xx_HAL_Driver/Src/stm32l4xx_hal.c **** 
 469:/home/fanxinhao/Work/LiteOS_Lab/drivers/third_party/ST/STM32L4xx_HAL_Driver/Src/stm32l4xx_hal.c **** /**
 470:/home/fanxinhao/Work/LiteOS_Lab/drivers/third_party/ST/STM32L4xx_HAL_Driver/Src/stm32l4xx_hal.c ****   * @brief  Enable the Debug Module during STOP0/STOP1/STOP2 modes.
 471:/home/fanxinhao/Work/LiteOS_Lab/drivers/third_party/ST/STM32L4xx_HAL_Driver/Src/stm32l4xx_hal.c ****   * @retval None
ARM GAS  /tmp/ccKmrB2u.s 			page 24


 472:/home/fanxinhao/Work/LiteOS_Lab/drivers/third_party/ST/STM32L4xx_HAL_Driver/Src/stm32l4xx_hal.c ****   */
 473:/home/fanxinhao/Work/LiteOS_Lab/drivers/third_party/ST/STM32L4xx_HAL_Driver/Src/stm32l4xx_hal.c **** void HAL_DBGMCU_EnableDBGStopMode(void)
 474:/home/fanxinhao/Work/LiteOS_Lab/drivers/third_party/ST/STM32L4xx_HAL_Driver/Src/stm32l4xx_hal.c **** {
 878              		.loc 1 474 1
 879              		.cfi_startproc
 880              		@ args = 0, pretend = 0, frame = 0
 881              		@ frame_needed = 1, uses_anonymous_args = 0
 882              		@ link register save eliminated.
 883 0000 80B4     		push	{r7}
 884              	.LCFI70:
 885              		.cfi_def_cfa_offset 4
 886              		.cfi_offset 7, -4
 887 0002 00AF     		add	r7, sp, #0
 888              	.LCFI71:
 889              		.cfi_def_cfa_register 7
 475:/home/fanxinhao/Work/LiteOS_Lab/drivers/third_party/ST/STM32L4xx_HAL_Driver/Src/stm32l4xx_hal.c ****   SET_BIT(DBGMCU->CR, DBGMCU_CR_DBG_STOP);
 890              		.loc 1 475 3
 891 0004 054B     		ldr	r3, .L61
 892 0006 5B68     		ldr	r3, [r3, #4]
 893 0008 044A     		ldr	r2, .L61
 894 000a 43F00203 		orr	r3, r3, #2
 895 000e 5360     		str	r3, [r2, #4]
 476:/home/fanxinhao/Work/LiteOS_Lab/drivers/third_party/ST/STM32L4xx_HAL_Driver/Src/stm32l4xx_hal.c **** }
 896              		.loc 1 476 1
 897 0010 00BF     		nop
 898 0012 BD46     		mov	sp, r7
 899              	.LCFI72:
 900              		.cfi_def_cfa_register 13
 901              		@ sp needed
 902 0014 5DF8047B 		ldr	r7, [sp], #4
 903              	.LCFI73:
 904              		.cfi_restore 7
 905              		.cfi_def_cfa_offset 0
 906 0018 7047     		bx	lr
 907              	.L62:
 908 001a 00BF     		.align	2
 909              	.L61:
 910 001c 002004E0 		.word	-536600576
 911              		.cfi_endproc
 912              	.LFE144:
 914              		.section	.text.HAL_DBGMCU_DisableDBGStopMode,"ax",%progbits
 915              		.align	1
 916              		.global	HAL_DBGMCU_DisableDBGStopMode
 917              		.syntax unified
 918              		.thumb
 919              		.thumb_func
 920              		.fpu fpv4-sp-d16
 922              	HAL_DBGMCU_DisableDBGStopMode:
 923              	.LFB145:
 477:/home/fanxinhao/Work/LiteOS_Lab/drivers/third_party/ST/STM32L4xx_HAL_Driver/Src/stm32l4xx_hal.c **** 
 478:/home/fanxinhao/Work/LiteOS_Lab/drivers/third_party/ST/STM32L4xx_HAL_Driver/Src/stm32l4xx_hal.c **** /**
 479:/home/fanxinhao/Work/LiteOS_Lab/drivers/third_party/ST/STM32L4xx_HAL_Driver/Src/stm32l4xx_hal.c ****   * @brief  Disable the Debug Module during STOP0/STOP1/STOP2 modes.
 480:/home/fanxinhao/Work/LiteOS_Lab/drivers/third_party/ST/STM32L4xx_HAL_Driver/Src/stm32l4xx_hal.c ****   * @retval None
 481:/home/fanxinhao/Work/LiteOS_Lab/drivers/third_party/ST/STM32L4xx_HAL_Driver/Src/stm32l4xx_hal.c ****   */
 482:/home/fanxinhao/Work/LiteOS_Lab/drivers/third_party/ST/STM32L4xx_HAL_Driver/Src/stm32l4xx_hal.c **** void HAL_DBGMCU_DisableDBGStopMode(void)
 483:/home/fanxinhao/Work/LiteOS_Lab/drivers/third_party/ST/STM32L4xx_HAL_Driver/Src/stm32l4xx_hal.c **** {
 924              		.loc 1 483 1
ARM GAS  /tmp/ccKmrB2u.s 			page 25


 925              		.cfi_startproc
 926              		@ args = 0, pretend = 0, frame = 0
 927              		@ frame_needed = 1, uses_anonymous_args = 0
 928              		@ link register save eliminated.
 929 0000 80B4     		push	{r7}
 930              	.LCFI74:
 931              		.cfi_def_cfa_offset 4
 932              		.cfi_offset 7, -4
 933 0002 00AF     		add	r7, sp, #0
 934              	.LCFI75:
 935              		.cfi_def_cfa_register 7
 484:/home/fanxinhao/Work/LiteOS_Lab/drivers/third_party/ST/STM32L4xx_HAL_Driver/Src/stm32l4xx_hal.c ****   CLEAR_BIT(DBGMCU->CR, DBGMCU_CR_DBG_STOP);
 936              		.loc 1 484 3
 937 0004 054B     		ldr	r3, .L64
 938 0006 5B68     		ldr	r3, [r3, #4]
 939 0008 044A     		ldr	r2, .L64
 940 000a 23F00203 		bic	r3, r3, #2
 941 000e 5360     		str	r3, [r2, #4]
 485:/home/fanxinhao/Work/LiteOS_Lab/drivers/third_party/ST/STM32L4xx_HAL_Driver/Src/stm32l4xx_hal.c **** }
 942              		.loc 1 485 1
 943 0010 00BF     		nop
 944 0012 BD46     		mov	sp, r7
 945              	.LCFI76:
 946              		.cfi_def_cfa_register 13
 947              		@ sp needed
 948 0014 5DF8047B 		ldr	r7, [sp], #4
 949              	.LCFI77:
 950              		.cfi_restore 7
 951              		.cfi_def_cfa_offset 0
 952 0018 7047     		bx	lr
 953              	.L65:
 954 001a 00BF     		.align	2
 955              	.L64:
 956 001c 002004E0 		.word	-536600576
 957              		.cfi_endproc
 958              	.LFE145:
 960              		.section	.text.HAL_DBGMCU_EnableDBGStandbyMode,"ax",%progbits
 961              		.align	1
 962              		.global	HAL_DBGMCU_EnableDBGStandbyMode
 963              		.syntax unified
 964              		.thumb
 965              		.thumb_func
 966              		.fpu fpv4-sp-d16
 968              	HAL_DBGMCU_EnableDBGStandbyMode:
 969              	.LFB146:
 486:/home/fanxinhao/Work/LiteOS_Lab/drivers/third_party/ST/STM32L4xx_HAL_Driver/Src/stm32l4xx_hal.c **** 
 487:/home/fanxinhao/Work/LiteOS_Lab/drivers/third_party/ST/STM32L4xx_HAL_Driver/Src/stm32l4xx_hal.c **** /**
 488:/home/fanxinhao/Work/LiteOS_Lab/drivers/third_party/ST/STM32L4xx_HAL_Driver/Src/stm32l4xx_hal.c ****   * @brief  Enable the Debug Module during STANDBY mode.
 489:/home/fanxinhao/Work/LiteOS_Lab/drivers/third_party/ST/STM32L4xx_HAL_Driver/Src/stm32l4xx_hal.c ****   * @retval None
 490:/home/fanxinhao/Work/LiteOS_Lab/drivers/third_party/ST/STM32L4xx_HAL_Driver/Src/stm32l4xx_hal.c ****   */
 491:/home/fanxinhao/Work/LiteOS_Lab/drivers/third_party/ST/STM32L4xx_HAL_Driver/Src/stm32l4xx_hal.c **** void HAL_DBGMCU_EnableDBGStandbyMode(void)
 492:/home/fanxinhao/Work/LiteOS_Lab/drivers/third_party/ST/STM32L4xx_HAL_Driver/Src/stm32l4xx_hal.c **** {
 970              		.loc 1 492 1
 971              		.cfi_startproc
 972              		@ args = 0, pretend = 0, frame = 0
 973              		@ frame_needed = 1, uses_anonymous_args = 0
 974              		@ link register save eliminated.
ARM GAS  /tmp/ccKmrB2u.s 			page 26


 975 0000 80B4     		push	{r7}
 976              	.LCFI78:
 977              		.cfi_def_cfa_offset 4
 978              		.cfi_offset 7, -4
 979 0002 00AF     		add	r7, sp, #0
 980              	.LCFI79:
 981              		.cfi_def_cfa_register 7
 493:/home/fanxinhao/Work/LiteOS_Lab/drivers/third_party/ST/STM32L4xx_HAL_Driver/Src/stm32l4xx_hal.c ****   SET_BIT(DBGMCU->CR, DBGMCU_CR_DBG_STANDBY);
 982              		.loc 1 493 3
 983 0004 054B     		ldr	r3, .L67
 984 0006 5B68     		ldr	r3, [r3, #4]
 985 0008 044A     		ldr	r2, .L67
 986 000a 43F00403 		orr	r3, r3, #4
 987 000e 5360     		str	r3, [r2, #4]
 494:/home/fanxinhao/Work/LiteOS_Lab/drivers/third_party/ST/STM32L4xx_HAL_Driver/Src/stm32l4xx_hal.c **** }
 988              		.loc 1 494 1
 989 0010 00BF     		nop
 990 0012 BD46     		mov	sp, r7
 991              	.LCFI80:
 992              		.cfi_def_cfa_register 13
 993              		@ sp needed
 994 0014 5DF8047B 		ldr	r7, [sp], #4
 995              	.LCFI81:
 996              		.cfi_restore 7
 997              		.cfi_def_cfa_offset 0
 998 0018 7047     		bx	lr
 999              	.L68:
 1000 001a 00BF     		.align	2
 1001              	.L67:
 1002 001c 002004E0 		.word	-536600576
 1003              		.cfi_endproc
 1004              	.LFE146:
 1006              		.section	.text.HAL_DBGMCU_DisableDBGStandbyMode,"ax",%progbits
 1007              		.align	1
 1008              		.global	HAL_DBGMCU_DisableDBGStandbyMode
 1009              		.syntax unified
 1010              		.thumb
 1011              		.thumb_func
 1012              		.fpu fpv4-sp-d16
 1014              	HAL_DBGMCU_DisableDBGStandbyMode:
 1015              	.LFB147:
 495:/home/fanxinhao/Work/LiteOS_Lab/drivers/third_party/ST/STM32L4xx_HAL_Driver/Src/stm32l4xx_hal.c **** 
 496:/home/fanxinhao/Work/LiteOS_Lab/drivers/third_party/ST/STM32L4xx_HAL_Driver/Src/stm32l4xx_hal.c **** /**
 497:/home/fanxinhao/Work/LiteOS_Lab/drivers/third_party/ST/STM32L4xx_HAL_Driver/Src/stm32l4xx_hal.c ****   * @brief  Disable the Debug Module during STANDBY mode.
 498:/home/fanxinhao/Work/LiteOS_Lab/drivers/third_party/ST/STM32L4xx_HAL_Driver/Src/stm32l4xx_hal.c ****   * @retval None
 499:/home/fanxinhao/Work/LiteOS_Lab/drivers/third_party/ST/STM32L4xx_HAL_Driver/Src/stm32l4xx_hal.c ****   */
 500:/home/fanxinhao/Work/LiteOS_Lab/drivers/third_party/ST/STM32L4xx_HAL_Driver/Src/stm32l4xx_hal.c **** void HAL_DBGMCU_DisableDBGStandbyMode(void)
 501:/home/fanxinhao/Work/LiteOS_Lab/drivers/third_party/ST/STM32L4xx_HAL_Driver/Src/stm32l4xx_hal.c **** {
 1016              		.loc 1 501 1
 1017              		.cfi_startproc
 1018              		@ args = 0, pretend = 0, frame = 0
 1019              		@ frame_needed = 1, uses_anonymous_args = 0
 1020              		@ link register save eliminated.
 1021 0000 80B4     		push	{r7}
 1022              	.LCFI82:
 1023              		.cfi_def_cfa_offset 4
 1024              		.cfi_offset 7, -4
ARM GAS  /tmp/ccKmrB2u.s 			page 27


 1025 0002 00AF     		add	r7, sp, #0
 1026              	.LCFI83:
 1027              		.cfi_def_cfa_register 7
 502:/home/fanxinhao/Work/LiteOS_Lab/drivers/third_party/ST/STM32L4xx_HAL_Driver/Src/stm32l4xx_hal.c ****   CLEAR_BIT(DBGMCU->CR, DBGMCU_CR_DBG_STANDBY);
 1028              		.loc 1 502 3
 1029 0004 054B     		ldr	r3, .L70
 1030 0006 5B68     		ldr	r3, [r3, #4]
 1031 0008 044A     		ldr	r2, .L70
 1032 000a 23F00403 		bic	r3, r3, #4
 1033 000e 5360     		str	r3, [r2, #4]
 503:/home/fanxinhao/Work/LiteOS_Lab/drivers/third_party/ST/STM32L4xx_HAL_Driver/Src/stm32l4xx_hal.c **** }
 1034              		.loc 1 503 1
 1035 0010 00BF     		nop
 1036 0012 BD46     		mov	sp, r7
 1037              	.LCFI84:
 1038              		.cfi_def_cfa_register 13
 1039              		@ sp needed
 1040 0014 5DF8047B 		ldr	r7, [sp], #4
 1041              	.LCFI85:
 1042              		.cfi_restore 7
 1043              		.cfi_def_cfa_offset 0
 1044 0018 7047     		bx	lr
 1045              	.L71:
 1046 001a 00BF     		.align	2
 1047              	.L70:
 1048 001c 002004E0 		.word	-536600576
 1049              		.cfi_endproc
 1050              	.LFE147:
 1052              		.section	.text.HAL_SYSCFG_SRAM2Erase,"ax",%progbits
 1053              		.align	1
 1054              		.global	HAL_SYSCFG_SRAM2Erase
 1055              		.syntax unified
 1056              		.thumb
 1057              		.thumb_func
 1058              		.fpu fpv4-sp-d16
 1060              	HAL_SYSCFG_SRAM2Erase:
 1061              	.LFB148:
 504:/home/fanxinhao/Work/LiteOS_Lab/drivers/third_party/ST/STM32L4xx_HAL_Driver/Src/stm32l4xx_hal.c **** 
 505:/home/fanxinhao/Work/LiteOS_Lab/drivers/third_party/ST/STM32L4xx_HAL_Driver/Src/stm32l4xx_hal.c **** /**
 506:/home/fanxinhao/Work/LiteOS_Lab/drivers/third_party/ST/STM32L4xx_HAL_Driver/Src/stm32l4xx_hal.c ****   * @}
 507:/home/fanxinhao/Work/LiteOS_Lab/drivers/third_party/ST/STM32L4xx_HAL_Driver/Src/stm32l4xx_hal.c ****   */
 508:/home/fanxinhao/Work/LiteOS_Lab/drivers/third_party/ST/STM32L4xx_HAL_Driver/Src/stm32l4xx_hal.c **** 
 509:/home/fanxinhao/Work/LiteOS_Lab/drivers/third_party/ST/STM32L4xx_HAL_Driver/Src/stm32l4xx_hal.c **** /** @defgroup HAL_Exported_Functions_Group4 HAL SYSCFG configuration functions
 510:/home/fanxinhao/Work/LiteOS_Lab/drivers/third_party/ST/STM32L4xx_HAL_Driver/Src/stm32l4xx_hal.c ****  *  @brief    HAL SYSCFG configuration functions
 511:/home/fanxinhao/Work/LiteOS_Lab/drivers/third_party/ST/STM32L4xx_HAL_Driver/Src/stm32l4xx_hal.c ****  *
 512:/home/fanxinhao/Work/LiteOS_Lab/drivers/third_party/ST/STM32L4xx_HAL_Driver/Src/stm32l4xx_hal.c **** @verbatim
 513:/home/fanxinhao/Work/LiteOS_Lab/drivers/third_party/ST/STM32L4xx_HAL_Driver/Src/stm32l4xx_hal.c ****  ===============================================================================
 514:/home/fanxinhao/Work/LiteOS_Lab/drivers/third_party/ST/STM32L4xx_HAL_Driver/Src/stm32l4xx_hal.c ****                       ##### HAL SYSCFG configuration functions #####
 515:/home/fanxinhao/Work/LiteOS_Lab/drivers/third_party/ST/STM32L4xx_HAL_Driver/Src/stm32l4xx_hal.c ****  ===============================================================================
 516:/home/fanxinhao/Work/LiteOS_Lab/drivers/third_party/ST/STM32L4xx_HAL_Driver/Src/stm32l4xx_hal.c ****     [..]  This section provides functions allowing to:
 517:/home/fanxinhao/Work/LiteOS_Lab/drivers/third_party/ST/STM32L4xx_HAL_Driver/Src/stm32l4xx_hal.c ****       (+) Start a hardware SRAM2 erase operation
 518:/home/fanxinhao/Work/LiteOS_Lab/drivers/third_party/ST/STM32L4xx_HAL_Driver/Src/stm32l4xx_hal.c ****       (+) Enable/Disable the Internal FLASH Bank Swapping
 519:/home/fanxinhao/Work/LiteOS_Lab/drivers/third_party/ST/STM32L4xx_HAL_Driver/Src/stm32l4xx_hal.c ****       (+) Configure the Voltage reference buffer
 520:/home/fanxinhao/Work/LiteOS_Lab/drivers/third_party/ST/STM32L4xx_HAL_Driver/Src/stm32l4xx_hal.c ****       (+) Enable/Disable the Voltage reference buffer
 521:/home/fanxinhao/Work/LiteOS_Lab/drivers/third_party/ST/STM32L4xx_HAL_Driver/Src/stm32l4xx_hal.c ****       (+) Enable/Disable the I/O analog switch voltage booster
 522:/home/fanxinhao/Work/LiteOS_Lab/drivers/third_party/ST/STM32L4xx_HAL_Driver/Src/stm32l4xx_hal.c **** 
 523:/home/fanxinhao/Work/LiteOS_Lab/drivers/third_party/ST/STM32L4xx_HAL_Driver/Src/stm32l4xx_hal.c **** @endverbatim
ARM GAS  /tmp/ccKmrB2u.s 			page 28


 524:/home/fanxinhao/Work/LiteOS_Lab/drivers/third_party/ST/STM32L4xx_HAL_Driver/Src/stm32l4xx_hal.c ****   * @{
 525:/home/fanxinhao/Work/LiteOS_Lab/drivers/third_party/ST/STM32L4xx_HAL_Driver/Src/stm32l4xx_hal.c ****   */
 526:/home/fanxinhao/Work/LiteOS_Lab/drivers/third_party/ST/STM32L4xx_HAL_Driver/Src/stm32l4xx_hal.c **** 
 527:/home/fanxinhao/Work/LiteOS_Lab/drivers/third_party/ST/STM32L4xx_HAL_Driver/Src/stm32l4xx_hal.c **** /**
 528:/home/fanxinhao/Work/LiteOS_Lab/drivers/third_party/ST/STM32L4xx_HAL_Driver/Src/stm32l4xx_hal.c ****   * @brief  Start a hardware SRAM2 erase operation.
 529:/home/fanxinhao/Work/LiteOS_Lab/drivers/third_party/ST/STM32L4xx_HAL_Driver/Src/stm32l4xx_hal.c ****   * @note   As long as SRAM2 is not erased the SRAM2ER bit will be set.
 530:/home/fanxinhao/Work/LiteOS_Lab/drivers/third_party/ST/STM32L4xx_HAL_Driver/Src/stm32l4xx_hal.c ****   *         This bit is automatically reset at the end of the SRAM2 erase operation.
 531:/home/fanxinhao/Work/LiteOS_Lab/drivers/third_party/ST/STM32L4xx_HAL_Driver/Src/stm32l4xx_hal.c ****   * @retval None
 532:/home/fanxinhao/Work/LiteOS_Lab/drivers/third_party/ST/STM32L4xx_HAL_Driver/Src/stm32l4xx_hal.c ****   */
 533:/home/fanxinhao/Work/LiteOS_Lab/drivers/third_party/ST/STM32L4xx_HAL_Driver/Src/stm32l4xx_hal.c **** void HAL_SYSCFG_SRAM2Erase(void)
 534:/home/fanxinhao/Work/LiteOS_Lab/drivers/third_party/ST/STM32L4xx_HAL_Driver/Src/stm32l4xx_hal.c **** {
 1062              		.loc 1 534 1
 1063              		.cfi_startproc
 1064              		@ args = 0, pretend = 0, frame = 0
 1065              		@ frame_needed = 1, uses_anonymous_args = 0
 1066              		@ link register save eliminated.
 1067 0000 80B4     		push	{r7}
 1068              	.LCFI86:
 1069              		.cfi_def_cfa_offset 4
 1070              		.cfi_offset 7, -4
 1071 0002 00AF     		add	r7, sp, #0
 1072              	.LCFI87:
 1073              		.cfi_def_cfa_register 7
 535:/home/fanxinhao/Work/LiteOS_Lab/drivers/third_party/ST/STM32L4xx_HAL_Driver/Src/stm32l4xx_hal.c ****   /* unlock the write protection of the SRAM2ER bit */
 536:/home/fanxinhao/Work/LiteOS_Lab/drivers/third_party/ST/STM32L4xx_HAL_Driver/Src/stm32l4xx_hal.c ****   SYSCFG->SKR = 0xCA;
 1074              		.loc 1 536 9
 1075 0004 064B     		ldr	r3, .L73
 1076              		.loc 1 536 15
 1077 0006 CA22     		movs	r2, #202
 1078 0008 5A62     		str	r2, [r3, #36]
 537:/home/fanxinhao/Work/LiteOS_Lab/drivers/third_party/ST/STM32L4xx_HAL_Driver/Src/stm32l4xx_hal.c ****   SYSCFG->SKR = 0x53;
 1079              		.loc 1 537 9
 1080 000a 054B     		ldr	r3, .L73
 1081              		.loc 1 537 15
 1082 000c 5322     		movs	r2, #83
 1083 000e 5A62     		str	r2, [r3, #36]
 538:/home/fanxinhao/Work/LiteOS_Lab/drivers/third_party/ST/STM32L4xx_HAL_Driver/Src/stm32l4xx_hal.c ****   /* Starts a hardware SRAM2 erase operation*/
 539:/home/fanxinhao/Work/LiteOS_Lab/drivers/third_party/ST/STM32L4xx_HAL_Driver/Src/stm32l4xx_hal.c ****   *(__IO uint32_t *) SCSR_SRAM2ER_BB = (uint8_t)0x00000001;
 1084              		.loc 1 539 3
 1085 0010 044B     		ldr	r3, .L73+4
 1086              		.loc 1 539 38
 1087 0012 0122     		movs	r2, #1
 1088 0014 1A60     		str	r2, [r3]
 540:/home/fanxinhao/Work/LiteOS_Lab/drivers/third_party/ST/STM32L4xx_HAL_Driver/Src/stm32l4xx_hal.c **** }
 1089              		.loc 1 540 1
 1090 0016 00BF     		nop
 1091 0018 BD46     		mov	sp, r7
 1092              	.LCFI88:
 1093              		.cfi_def_cfa_register 13
 1094              		@ sp needed
 1095 001a 5DF8047B 		ldr	r7, [sp], #4
 1096              	.LCFI89:
 1097              		.cfi_restore 7
 1098              		.cfi_def_cfa_offset 0
 1099 001e 7047     		bx	lr
 1100              	.L74:
 1101              		.align	2
ARM GAS  /tmp/ccKmrB2u.s 			page 29


 1102              	.L73:
 1103 0020 00000140 		.word	1073807360
 1104 0024 00032042 		.word	1109394176
 1105              		.cfi_endproc
 1106              	.LFE148:
 1108              		.section	.text.HAL_SYSCFG_EnableMemorySwappingBank,"ax",%progbits
 1109              		.align	1
 1110              		.global	HAL_SYSCFG_EnableMemorySwappingBank
 1111              		.syntax unified
 1112              		.thumb
 1113              		.thumb_func
 1114              		.fpu fpv4-sp-d16
 1116              	HAL_SYSCFG_EnableMemorySwappingBank:
 1117              	.LFB149:
 541:/home/fanxinhao/Work/LiteOS_Lab/drivers/third_party/ST/STM32L4xx_HAL_Driver/Src/stm32l4xx_hal.c **** 
 542:/home/fanxinhao/Work/LiteOS_Lab/drivers/third_party/ST/STM32L4xx_HAL_Driver/Src/stm32l4xx_hal.c **** /**
 543:/home/fanxinhao/Work/LiteOS_Lab/drivers/third_party/ST/STM32L4xx_HAL_Driver/Src/stm32l4xx_hal.c ****   * @brief  Enable the Internal FLASH Bank Swapping.
 544:/home/fanxinhao/Work/LiteOS_Lab/drivers/third_party/ST/STM32L4xx_HAL_Driver/Src/stm32l4xx_hal.c ****   *
 545:/home/fanxinhao/Work/LiteOS_Lab/drivers/third_party/ST/STM32L4xx_HAL_Driver/Src/stm32l4xx_hal.c ****   * @note   This function can be used only for STM32L4xx devices.
 546:/home/fanxinhao/Work/LiteOS_Lab/drivers/third_party/ST/STM32L4xx_HAL_Driver/Src/stm32l4xx_hal.c ****   *
 547:/home/fanxinhao/Work/LiteOS_Lab/drivers/third_party/ST/STM32L4xx_HAL_Driver/Src/stm32l4xx_hal.c ****   * @note   Flash Bank2 mapped at 0x08000000 (and aliased @0x00000000)
 548:/home/fanxinhao/Work/LiteOS_Lab/drivers/third_party/ST/STM32L4xx_HAL_Driver/Src/stm32l4xx_hal.c ****   *         and Flash Bank1 mapped at 0x08100000 (and aliased at 0x00100000)
 549:/home/fanxinhao/Work/LiteOS_Lab/drivers/third_party/ST/STM32L4xx_HAL_Driver/Src/stm32l4xx_hal.c ****   *
 550:/home/fanxinhao/Work/LiteOS_Lab/drivers/third_party/ST/STM32L4xx_HAL_Driver/Src/stm32l4xx_hal.c ****   * @retval None
 551:/home/fanxinhao/Work/LiteOS_Lab/drivers/third_party/ST/STM32L4xx_HAL_Driver/Src/stm32l4xx_hal.c ****   */
 552:/home/fanxinhao/Work/LiteOS_Lab/drivers/third_party/ST/STM32L4xx_HAL_Driver/Src/stm32l4xx_hal.c **** void HAL_SYSCFG_EnableMemorySwappingBank(void)
 553:/home/fanxinhao/Work/LiteOS_Lab/drivers/third_party/ST/STM32L4xx_HAL_Driver/Src/stm32l4xx_hal.c **** {
 1118              		.loc 1 553 1
 1119              		.cfi_startproc
 1120              		@ args = 0, pretend = 0, frame = 0
 1121              		@ frame_needed = 1, uses_anonymous_args = 0
 1122              		@ link register save eliminated.
 1123 0000 80B4     		push	{r7}
 1124              	.LCFI90:
 1125              		.cfi_def_cfa_offset 4
 1126              		.cfi_offset 7, -4
 1127 0002 00AF     		add	r7, sp, #0
 1128              	.LCFI91:
 1129              		.cfi_def_cfa_register 7
 554:/home/fanxinhao/Work/LiteOS_Lab/drivers/third_party/ST/STM32L4xx_HAL_Driver/Src/stm32l4xx_hal.c ****   *(__IO uint32_t *)FB_MODE_BB = (uint32_t)ENABLE;
 1130              		.loc 1 554 3
 1131 0004 034B     		ldr	r3, .L76
 1132              		.loc 1 554 32
 1133 0006 0122     		movs	r2, #1
 1134 0008 1A60     		str	r2, [r3]
 555:/home/fanxinhao/Work/LiteOS_Lab/drivers/third_party/ST/STM32L4xx_HAL_Driver/Src/stm32l4xx_hal.c **** }
 1135              		.loc 1 555 1
 1136 000a 00BF     		nop
 1137 000c BD46     		mov	sp, r7
 1138              	.LCFI92:
 1139              		.cfi_def_cfa_register 13
 1140              		@ sp needed
 1141 000e 5DF8047B 		ldr	r7, [sp], #4
 1142              	.LCFI93:
 1143              		.cfi_restore 7
 1144              		.cfi_def_cfa_offset 0
 1145 0012 7047     		bx	lr
ARM GAS  /tmp/ccKmrB2u.s 			page 30


 1146              	.L77:
 1147              		.align	2
 1148              	.L76:
 1149 0014 20002042 		.word	1109393440
 1150              		.cfi_endproc
 1151              	.LFE149:
 1153              		.section	.text.HAL_SYSCFG_DisableMemorySwappingBank,"ax",%progbits
 1154              		.align	1
 1155              		.global	HAL_SYSCFG_DisableMemorySwappingBank
 1156              		.syntax unified
 1157              		.thumb
 1158              		.thumb_func
 1159              		.fpu fpv4-sp-d16
 1161              	HAL_SYSCFG_DisableMemorySwappingBank:
 1162              	.LFB150:
 556:/home/fanxinhao/Work/LiteOS_Lab/drivers/third_party/ST/STM32L4xx_HAL_Driver/Src/stm32l4xx_hal.c **** 
 557:/home/fanxinhao/Work/LiteOS_Lab/drivers/third_party/ST/STM32L4xx_HAL_Driver/Src/stm32l4xx_hal.c **** /**
 558:/home/fanxinhao/Work/LiteOS_Lab/drivers/third_party/ST/STM32L4xx_HAL_Driver/Src/stm32l4xx_hal.c ****   * @brief  Disable the Internal FLASH Bank Swapping.
 559:/home/fanxinhao/Work/LiteOS_Lab/drivers/third_party/ST/STM32L4xx_HAL_Driver/Src/stm32l4xx_hal.c ****   *
 560:/home/fanxinhao/Work/LiteOS_Lab/drivers/third_party/ST/STM32L4xx_HAL_Driver/Src/stm32l4xx_hal.c ****   * @note   This function can be used only for STM32L4xx devices.
 561:/home/fanxinhao/Work/LiteOS_Lab/drivers/third_party/ST/STM32L4xx_HAL_Driver/Src/stm32l4xx_hal.c ****   *
 562:/home/fanxinhao/Work/LiteOS_Lab/drivers/third_party/ST/STM32L4xx_HAL_Driver/Src/stm32l4xx_hal.c ****   * @note   The default state : Flash Bank1 mapped at 0x08000000 (and aliased @0x0000 0000)
 563:/home/fanxinhao/Work/LiteOS_Lab/drivers/third_party/ST/STM32L4xx_HAL_Driver/Src/stm32l4xx_hal.c ****   *         and Flash Bank2 mapped at 0x08100000 (and aliased at 0x00100000)
 564:/home/fanxinhao/Work/LiteOS_Lab/drivers/third_party/ST/STM32L4xx_HAL_Driver/Src/stm32l4xx_hal.c ****   *
 565:/home/fanxinhao/Work/LiteOS_Lab/drivers/third_party/ST/STM32L4xx_HAL_Driver/Src/stm32l4xx_hal.c ****   * @retval None
 566:/home/fanxinhao/Work/LiteOS_Lab/drivers/third_party/ST/STM32L4xx_HAL_Driver/Src/stm32l4xx_hal.c ****   */
 567:/home/fanxinhao/Work/LiteOS_Lab/drivers/third_party/ST/STM32L4xx_HAL_Driver/Src/stm32l4xx_hal.c **** void HAL_SYSCFG_DisableMemorySwappingBank(void)
 568:/home/fanxinhao/Work/LiteOS_Lab/drivers/third_party/ST/STM32L4xx_HAL_Driver/Src/stm32l4xx_hal.c **** {
 1163              		.loc 1 568 1
 1164              		.cfi_startproc
 1165              		@ args = 0, pretend = 0, frame = 0
 1166              		@ frame_needed = 1, uses_anonymous_args = 0
 1167              		@ link register save eliminated.
 1168 0000 80B4     		push	{r7}
 1169              	.LCFI94:
 1170              		.cfi_def_cfa_offset 4
 1171              		.cfi_offset 7, -4
 1172 0002 00AF     		add	r7, sp, #0
 1173              	.LCFI95:
 1174              		.cfi_def_cfa_register 7
 569:/home/fanxinhao/Work/LiteOS_Lab/drivers/third_party/ST/STM32L4xx_HAL_Driver/Src/stm32l4xx_hal.c **** 
 570:/home/fanxinhao/Work/LiteOS_Lab/drivers/third_party/ST/STM32L4xx_HAL_Driver/Src/stm32l4xx_hal.c ****   *(__IO uint32_t *)FB_MODE_BB = (uint32_t)DISABLE;
 1175              		.loc 1 570 3
 1176 0004 034B     		ldr	r3, .L79
 1177              		.loc 1 570 32
 1178 0006 0022     		movs	r2, #0
 1179 0008 1A60     		str	r2, [r3]
 571:/home/fanxinhao/Work/LiteOS_Lab/drivers/third_party/ST/STM32L4xx_HAL_Driver/Src/stm32l4xx_hal.c **** }
 1180              		.loc 1 571 1
 1181 000a 00BF     		nop
 1182 000c BD46     		mov	sp, r7
 1183              	.LCFI96:
 1184              		.cfi_def_cfa_register 13
 1185              		@ sp needed
 1186 000e 5DF8047B 		ldr	r7, [sp], #4
 1187              	.LCFI97:
 1188              		.cfi_restore 7
ARM GAS  /tmp/ccKmrB2u.s 			page 31


 1189              		.cfi_def_cfa_offset 0
 1190 0012 7047     		bx	lr
 1191              	.L80:
 1192              		.align	2
 1193              	.L79:
 1194 0014 20002042 		.word	1109393440
 1195              		.cfi_endproc
 1196              	.LFE150:
 1198              		.section	.text.HAL_SYSCFG_VREFBUF_VoltageScalingConfig,"ax",%progbits
 1199              		.align	1
 1200              		.global	HAL_SYSCFG_VREFBUF_VoltageScalingConfig
 1201              		.syntax unified
 1202              		.thumb
 1203              		.thumb_func
 1204              		.fpu fpv4-sp-d16
 1206              	HAL_SYSCFG_VREFBUF_VoltageScalingConfig:
 1207              	.LFB151:
 572:/home/fanxinhao/Work/LiteOS_Lab/drivers/third_party/ST/STM32L4xx_HAL_Driver/Src/stm32l4xx_hal.c **** 
 573:/home/fanxinhao/Work/LiteOS_Lab/drivers/third_party/ST/STM32L4xx_HAL_Driver/Src/stm32l4xx_hal.c **** #if defined(VREFBUF)
 574:/home/fanxinhao/Work/LiteOS_Lab/drivers/third_party/ST/STM32L4xx_HAL_Driver/Src/stm32l4xx_hal.c **** /**
 575:/home/fanxinhao/Work/LiteOS_Lab/drivers/third_party/ST/STM32L4xx_HAL_Driver/Src/stm32l4xx_hal.c ****   * @brief Configure the internal voltage reference buffer voltage scale.
 576:/home/fanxinhao/Work/LiteOS_Lab/drivers/third_party/ST/STM32L4xx_HAL_Driver/Src/stm32l4xx_hal.c ****   * @param VoltageScaling  specifies the output voltage to achieve
 577:/home/fanxinhao/Work/LiteOS_Lab/drivers/third_party/ST/STM32L4xx_HAL_Driver/Src/stm32l4xx_hal.c ****   *          This parameter can be one of the following values:
 578:/home/fanxinhao/Work/LiteOS_Lab/drivers/third_party/ST/STM32L4xx_HAL_Driver/Src/stm32l4xx_hal.c ****   *            @arg SYSCFG_VREFBUF_VOLTAGE_SCALE0: VREF_OUT1 around 2.048 V. 
 579:/home/fanxinhao/Work/LiteOS_Lab/drivers/third_party/ST/STM32L4xx_HAL_Driver/Src/stm32l4xx_hal.c ****   *                                                This requires VDDA equal to or higher than 2.4 V
 580:/home/fanxinhao/Work/LiteOS_Lab/drivers/third_party/ST/STM32L4xx_HAL_Driver/Src/stm32l4xx_hal.c ****   *            @arg SYSCFG_VREFBUF_VOLTAGE_SCALE1: VREF_OUT2 around 2.5 V. 
 581:/home/fanxinhao/Work/LiteOS_Lab/drivers/third_party/ST/STM32L4xx_HAL_Driver/Src/stm32l4xx_hal.c ****   *                                                This requires VDDA equal to or higher than 2.8 V
 582:/home/fanxinhao/Work/LiteOS_Lab/drivers/third_party/ST/STM32L4xx_HAL_Driver/Src/stm32l4xx_hal.c ****   * @retval None
 583:/home/fanxinhao/Work/LiteOS_Lab/drivers/third_party/ST/STM32L4xx_HAL_Driver/Src/stm32l4xx_hal.c ****   */
 584:/home/fanxinhao/Work/LiteOS_Lab/drivers/third_party/ST/STM32L4xx_HAL_Driver/Src/stm32l4xx_hal.c **** void HAL_SYSCFG_VREFBUF_VoltageScalingConfig(uint32_t VoltageScaling)
 585:/home/fanxinhao/Work/LiteOS_Lab/drivers/third_party/ST/STM32L4xx_HAL_Driver/Src/stm32l4xx_hal.c **** {
 1208              		.loc 1 585 1
 1209              		.cfi_startproc
 1210              		@ args = 0, pretend = 0, frame = 8
 1211              		@ frame_needed = 1, uses_anonymous_args = 0
 1212              		@ link register save eliminated.
 1213 0000 80B4     		push	{r7}
 1214              	.LCFI98:
 1215              		.cfi_def_cfa_offset 4
 1216              		.cfi_offset 7, -4
 1217 0002 83B0     		sub	sp, sp, #12
 1218              	.LCFI99:
 1219              		.cfi_def_cfa_offset 16
 1220 0004 00AF     		add	r7, sp, #0
 1221              	.LCFI100:
 1222              		.cfi_def_cfa_register 7
 1223 0006 7860     		str	r0, [r7, #4]
 586:/home/fanxinhao/Work/LiteOS_Lab/drivers/third_party/ST/STM32L4xx_HAL_Driver/Src/stm32l4xx_hal.c ****   /* Check the parameters */
 587:/home/fanxinhao/Work/LiteOS_Lab/drivers/third_party/ST/STM32L4xx_HAL_Driver/Src/stm32l4xx_hal.c ****   assert_param(IS_SYSCFG_VREFBUF_VOLTAGE_SCALE(VoltageScaling));
 588:/home/fanxinhao/Work/LiteOS_Lab/drivers/third_party/ST/STM32L4xx_HAL_Driver/Src/stm32l4xx_hal.c ****   
 589:/home/fanxinhao/Work/LiteOS_Lab/drivers/third_party/ST/STM32L4xx_HAL_Driver/Src/stm32l4xx_hal.c ****   MODIFY_REG(VREFBUF->CSR, VREFBUF_CSR_VRS, VoltageScaling);
 1224              		.loc 1 589 3
 1225 0008 064B     		ldr	r3, .L82
 1226 000a 1B68     		ldr	r3, [r3]
 1227 000c 23F00402 		bic	r2, r3, #4
 1228 0010 0449     		ldr	r1, .L82
 1229 0012 7B68     		ldr	r3, [r7, #4]
ARM GAS  /tmp/ccKmrB2u.s 			page 32


 1230 0014 1343     		orrs	r3, r3, r2
 1231 0016 0B60     		str	r3, [r1]
 590:/home/fanxinhao/Work/LiteOS_Lab/drivers/third_party/ST/STM32L4xx_HAL_Driver/Src/stm32l4xx_hal.c **** }
 1232              		.loc 1 590 1
 1233 0018 00BF     		nop
 1234 001a 0C37     		adds	r7, r7, #12
 1235              	.LCFI101:
 1236              		.cfi_def_cfa_offset 4
 1237 001c BD46     		mov	sp, r7
 1238              	.LCFI102:
 1239              		.cfi_def_cfa_register 13
 1240              		@ sp needed
 1241 001e 5DF8047B 		ldr	r7, [sp], #4
 1242              	.LCFI103:
 1243              		.cfi_restore 7
 1244              		.cfi_def_cfa_offset 0
 1245 0022 7047     		bx	lr
 1246              	.L83:
 1247              		.align	2
 1248              	.L82:
 1249 0024 30000140 		.word	1073807408
 1250              		.cfi_endproc
 1251              	.LFE151:
 1253              		.section	.text.HAL_SYSCFG_VREFBUF_HighImpedanceConfig,"ax",%progbits
 1254              		.align	1
 1255              		.global	HAL_SYSCFG_VREFBUF_HighImpedanceConfig
 1256              		.syntax unified
 1257              		.thumb
 1258              		.thumb_func
 1259              		.fpu fpv4-sp-d16
 1261              	HAL_SYSCFG_VREFBUF_HighImpedanceConfig:
 1262              	.LFB152:
 591:/home/fanxinhao/Work/LiteOS_Lab/drivers/third_party/ST/STM32L4xx_HAL_Driver/Src/stm32l4xx_hal.c **** 
 592:/home/fanxinhao/Work/LiteOS_Lab/drivers/third_party/ST/STM32L4xx_HAL_Driver/Src/stm32l4xx_hal.c **** /**
 593:/home/fanxinhao/Work/LiteOS_Lab/drivers/third_party/ST/STM32L4xx_HAL_Driver/Src/stm32l4xx_hal.c ****   * @brief Configure the internal voltage reference buffer high impedance mode.
 594:/home/fanxinhao/Work/LiteOS_Lab/drivers/third_party/ST/STM32L4xx_HAL_Driver/Src/stm32l4xx_hal.c ****   * @param Mode  specifies the high impedance mode
 595:/home/fanxinhao/Work/LiteOS_Lab/drivers/third_party/ST/STM32L4xx_HAL_Driver/Src/stm32l4xx_hal.c ****   *          This parameter can be one of the following values:
 596:/home/fanxinhao/Work/LiteOS_Lab/drivers/third_party/ST/STM32L4xx_HAL_Driver/Src/stm32l4xx_hal.c ****   *            @arg SYSCFG_VREFBUF_HIGH_IMPEDANCE_DISABLE: VREF+ pin is internally connect to VREFI
 597:/home/fanxinhao/Work/LiteOS_Lab/drivers/third_party/ST/STM32L4xx_HAL_Driver/Src/stm32l4xx_hal.c ****   *            @arg SYSCFG_VREFBUF_HIGH_IMPEDANCE_ENABLE: VREF+ pin is high impedance.
 598:/home/fanxinhao/Work/LiteOS_Lab/drivers/third_party/ST/STM32L4xx_HAL_Driver/Src/stm32l4xx_hal.c ****   * @retval None
 599:/home/fanxinhao/Work/LiteOS_Lab/drivers/third_party/ST/STM32L4xx_HAL_Driver/Src/stm32l4xx_hal.c ****   */
 600:/home/fanxinhao/Work/LiteOS_Lab/drivers/third_party/ST/STM32L4xx_HAL_Driver/Src/stm32l4xx_hal.c **** void HAL_SYSCFG_VREFBUF_HighImpedanceConfig(uint32_t Mode)
 601:/home/fanxinhao/Work/LiteOS_Lab/drivers/third_party/ST/STM32L4xx_HAL_Driver/Src/stm32l4xx_hal.c **** {
 1263              		.loc 1 601 1
 1264              		.cfi_startproc
 1265              		@ args = 0, pretend = 0, frame = 8
 1266              		@ frame_needed = 1, uses_anonymous_args = 0
 1267              		@ link register save eliminated.
 1268 0000 80B4     		push	{r7}
 1269              	.LCFI104:
 1270              		.cfi_def_cfa_offset 4
 1271              		.cfi_offset 7, -4
 1272 0002 83B0     		sub	sp, sp, #12
 1273              	.LCFI105:
 1274              		.cfi_def_cfa_offset 16
 1275 0004 00AF     		add	r7, sp, #0
 1276              	.LCFI106:
ARM GAS  /tmp/ccKmrB2u.s 			page 33


 1277              		.cfi_def_cfa_register 7
 1278 0006 7860     		str	r0, [r7, #4]
 602:/home/fanxinhao/Work/LiteOS_Lab/drivers/third_party/ST/STM32L4xx_HAL_Driver/Src/stm32l4xx_hal.c ****   /* Check the parameters */
 603:/home/fanxinhao/Work/LiteOS_Lab/drivers/third_party/ST/STM32L4xx_HAL_Driver/Src/stm32l4xx_hal.c ****   assert_param(IS_SYSCFG_VREFBUF_HIGH_IMPEDANCE(Mode));
 604:/home/fanxinhao/Work/LiteOS_Lab/drivers/third_party/ST/STM32L4xx_HAL_Driver/Src/stm32l4xx_hal.c ****   
 605:/home/fanxinhao/Work/LiteOS_Lab/drivers/third_party/ST/STM32L4xx_HAL_Driver/Src/stm32l4xx_hal.c ****   MODIFY_REG(VREFBUF->CSR, VREFBUF_CSR_HIZ, Mode);
 1279              		.loc 1 605 3
 1280 0008 064B     		ldr	r3, .L85
 1281 000a 1B68     		ldr	r3, [r3]
 1282 000c 23F00202 		bic	r2, r3, #2
 1283 0010 0449     		ldr	r1, .L85
 1284 0012 7B68     		ldr	r3, [r7, #4]
 1285 0014 1343     		orrs	r3, r3, r2
 1286 0016 0B60     		str	r3, [r1]
 606:/home/fanxinhao/Work/LiteOS_Lab/drivers/third_party/ST/STM32L4xx_HAL_Driver/Src/stm32l4xx_hal.c **** }
 1287              		.loc 1 606 1
 1288 0018 00BF     		nop
 1289 001a 0C37     		adds	r7, r7, #12
 1290              	.LCFI107:
 1291              		.cfi_def_cfa_offset 4
 1292 001c BD46     		mov	sp, r7
 1293              	.LCFI108:
 1294              		.cfi_def_cfa_register 13
 1295              		@ sp needed
 1296 001e 5DF8047B 		ldr	r7, [sp], #4
 1297              	.LCFI109:
 1298              		.cfi_restore 7
 1299              		.cfi_def_cfa_offset 0
 1300 0022 7047     		bx	lr
 1301              	.L86:
 1302              		.align	2
 1303              	.L85:
 1304 0024 30000140 		.word	1073807408
 1305              		.cfi_endproc
 1306              	.LFE152:
 1308              		.section	.text.HAL_SYSCFG_VREFBUF_TrimmingConfig,"ax",%progbits
 1309              		.align	1
 1310              		.global	HAL_SYSCFG_VREFBUF_TrimmingConfig
 1311              		.syntax unified
 1312              		.thumb
 1313              		.thumb_func
 1314              		.fpu fpv4-sp-d16
 1316              	HAL_SYSCFG_VREFBUF_TrimmingConfig:
 1317              	.LFB153:
 607:/home/fanxinhao/Work/LiteOS_Lab/drivers/third_party/ST/STM32L4xx_HAL_Driver/Src/stm32l4xx_hal.c **** 
 608:/home/fanxinhao/Work/LiteOS_Lab/drivers/third_party/ST/STM32L4xx_HAL_Driver/Src/stm32l4xx_hal.c **** /**
 609:/home/fanxinhao/Work/LiteOS_Lab/drivers/third_party/ST/STM32L4xx_HAL_Driver/Src/stm32l4xx_hal.c ****   * @brief  Tune the Internal Voltage Reference buffer (VREFBUF).
 610:/home/fanxinhao/Work/LiteOS_Lab/drivers/third_party/ST/STM32L4xx_HAL_Driver/Src/stm32l4xx_hal.c ****   * @retval None
 611:/home/fanxinhao/Work/LiteOS_Lab/drivers/third_party/ST/STM32L4xx_HAL_Driver/Src/stm32l4xx_hal.c ****   */
 612:/home/fanxinhao/Work/LiteOS_Lab/drivers/third_party/ST/STM32L4xx_HAL_Driver/Src/stm32l4xx_hal.c **** void HAL_SYSCFG_VREFBUF_TrimmingConfig(uint32_t TrimmingValue)
 613:/home/fanxinhao/Work/LiteOS_Lab/drivers/third_party/ST/STM32L4xx_HAL_Driver/Src/stm32l4xx_hal.c **** {
 1318              		.loc 1 613 1
 1319              		.cfi_startproc
 1320              		@ args = 0, pretend = 0, frame = 8
 1321              		@ frame_needed = 1, uses_anonymous_args = 0
 1322              		@ link register save eliminated.
 1323 0000 80B4     		push	{r7}
ARM GAS  /tmp/ccKmrB2u.s 			page 34


 1324              	.LCFI110:
 1325              		.cfi_def_cfa_offset 4
 1326              		.cfi_offset 7, -4
 1327 0002 83B0     		sub	sp, sp, #12
 1328              	.LCFI111:
 1329              		.cfi_def_cfa_offset 16
 1330 0004 00AF     		add	r7, sp, #0
 1331              	.LCFI112:
 1332              		.cfi_def_cfa_register 7
 1333 0006 7860     		str	r0, [r7, #4]
 614:/home/fanxinhao/Work/LiteOS_Lab/drivers/third_party/ST/STM32L4xx_HAL_Driver/Src/stm32l4xx_hal.c ****   /* Check the parameters */
 615:/home/fanxinhao/Work/LiteOS_Lab/drivers/third_party/ST/STM32L4xx_HAL_Driver/Src/stm32l4xx_hal.c ****   assert_param(IS_SYSCFG_VREFBUF_TRIMMING(TrimmingValue));
 616:/home/fanxinhao/Work/LiteOS_Lab/drivers/third_party/ST/STM32L4xx_HAL_Driver/Src/stm32l4xx_hal.c ****   
 617:/home/fanxinhao/Work/LiteOS_Lab/drivers/third_party/ST/STM32L4xx_HAL_Driver/Src/stm32l4xx_hal.c ****   MODIFY_REG(VREFBUF->CCR, VREFBUF_CCR_TRIM, TrimmingValue);
 1334              		.loc 1 617 3
 1335 0008 064B     		ldr	r3, .L88
 1336 000a 5B68     		ldr	r3, [r3, #4]
 1337 000c 23F03F02 		bic	r2, r3, #63
 1338 0010 0449     		ldr	r1, .L88
 1339 0012 7B68     		ldr	r3, [r7, #4]
 1340 0014 1343     		orrs	r3, r3, r2
 1341 0016 4B60     		str	r3, [r1, #4]
 618:/home/fanxinhao/Work/LiteOS_Lab/drivers/third_party/ST/STM32L4xx_HAL_Driver/Src/stm32l4xx_hal.c **** }
 1342              		.loc 1 618 1
 1343 0018 00BF     		nop
 1344 001a 0C37     		adds	r7, r7, #12
 1345              	.LCFI113:
 1346              		.cfi_def_cfa_offset 4
 1347 001c BD46     		mov	sp, r7
 1348              	.LCFI114:
 1349              		.cfi_def_cfa_register 13
 1350              		@ sp needed
 1351 001e 5DF8047B 		ldr	r7, [sp], #4
 1352              	.LCFI115:
 1353              		.cfi_restore 7
 1354              		.cfi_def_cfa_offset 0
 1355 0022 7047     		bx	lr
 1356              	.L89:
 1357              		.align	2
 1358              	.L88:
 1359 0024 30000140 		.word	1073807408
 1360              		.cfi_endproc
 1361              	.LFE153:
 1363              		.section	.text.HAL_SYSCFG_EnableVREFBUF,"ax",%progbits
 1364              		.align	1
 1365              		.global	HAL_SYSCFG_EnableVREFBUF
 1366              		.syntax unified
 1367              		.thumb
 1368              		.thumb_func
 1369              		.fpu fpv4-sp-d16
 1371              	HAL_SYSCFG_EnableVREFBUF:
 1372              	.LFB154:
 619:/home/fanxinhao/Work/LiteOS_Lab/drivers/third_party/ST/STM32L4xx_HAL_Driver/Src/stm32l4xx_hal.c **** 
 620:/home/fanxinhao/Work/LiteOS_Lab/drivers/third_party/ST/STM32L4xx_HAL_Driver/Src/stm32l4xx_hal.c **** /**
 621:/home/fanxinhao/Work/LiteOS_Lab/drivers/third_party/ST/STM32L4xx_HAL_Driver/Src/stm32l4xx_hal.c ****   * @brief  Enable the Internal Voltage Reference buffer (VREFBUF).
 622:/home/fanxinhao/Work/LiteOS_Lab/drivers/third_party/ST/STM32L4xx_HAL_Driver/Src/stm32l4xx_hal.c ****   * @retval HAL_OK/HAL_TIMEOUT
 623:/home/fanxinhao/Work/LiteOS_Lab/drivers/third_party/ST/STM32L4xx_HAL_Driver/Src/stm32l4xx_hal.c ****   */
ARM GAS  /tmp/ccKmrB2u.s 			page 35


 624:/home/fanxinhao/Work/LiteOS_Lab/drivers/third_party/ST/STM32L4xx_HAL_Driver/Src/stm32l4xx_hal.c **** HAL_StatusTypeDef HAL_SYSCFG_EnableVREFBUF(void)
 625:/home/fanxinhao/Work/LiteOS_Lab/drivers/third_party/ST/STM32L4xx_HAL_Driver/Src/stm32l4xx_hal.c **** {
 1373              		.loc 1 625 1
 1374              		.cfi_startproc
 1375              		@ args = 0, pretend = 0, frame = 8
 1376              		@ frame_needed = 1, uses_anonymous_args = 0
 1377 0000 80B5     		push	{r7, lr}
 1378              	.LCFI116:
 1379              		.cfi_def_cfa_offset 8
 1380              		.cfi_offset 7, -8
 1381              		.cfi_offset 14, -4
 1382 0002 82B0     		sub	sp, sp, #8
 1383              	.LCFI117:
 1384              		.cfi_def_cfa_offset 16
 1385 0004 00AF     		add	r7, sp, #0
 1386              	.LCFI118:
 1387              		.cfi_def_cfa_register 7
 626:/home/fanxinhao/Work/LiteOS_Lab/drivers/third_party/ST/STM32L4xx_HAL_Driver/Src/stm32l4xx_hal.c ****   uint32_t  tickstart = 0;
 1388              		.loc 1 626 13
 1389 0006 0023     		movs	r3, #0
 1390 0008 7B60     		str	r3, [r7, #4]
 627:/home/fanxinhao/Work/LiteOS_Lab/drivers/third_party/ST/STM32L4xx_HAL_Driver/Src/stm32l4xx_hal.c ****   
 628:/home/fanxinhao/Work/LiteOS_Lab/drivers/third_party/ST/STM32L4xx_HAL_Driver/Src/stm32l4xx_hal.c ****   SET_BIT(VREFBUF->CSR, VREFBUF_CSR_ENVR);
 1391              		.loc 1 628 3
 1392 000a 0F4B     		ldr	r3, .L94
 1393 000c 1B68     		ldr	r3, [r3]
 1394 000e 0E4A     		ldr	r2, .L94
 1395 0010 43F00103 		orr	r3, r3, #1
 1396 0014 1360     		str	r3, [r2]
 629:/home/fanxinhao/Work/LiteOS_Lab/drivers/third_party/ST/STM32L4xx_HAL_Driver/Src/stm32l4xx_hal.c ****   
 630:/home/fanxinhao/Work/LiteOS_Lab/drivers/third_party/ST/STM32L4xx_HAL_Driver/Src/stm32l4xx_hal.c ****   /* Get Start Tick*/
 631:/home/fanxinhao/Work/LiteOS_Lab/drivers/third_party/ST/STM32L4xx_HAL_Driver/Src/stm32l4xx_hal.c ****   tickstart = HAL_GetTick();
 1397              		.loc 1 631 15
 1398 0016 FFF7FEFF 		bl	HAL_GetTick
 1399 001a 7860     		str	r0, [r7, #4]
 632:/home/fanxinhao/Work/LiteOS_Lab/drivers/third_party/ST/STM32L4xx_HAL_Driver/Src/stm32l4xx_hal.c **** 
 633:/home/fanxinhao/Work/LiteOS_Lab/drivers/third_party/ST/STM32L4xx_HAL_Driver/Src/stm32l4xx_hal.c ****   /* Wait for VRR bit  */
 634:/home/fanxinhao/Work/LiteOS_Lab/drivers/third_party/ST/STM32L4xx_HAL_Driver/Src/stm32l4xx_hal.c ****   while(READ_BIT(VREFBUF->CSR, VREFBUF_CSR_VRR) == RESET)
 1400              		.loc 1 634 8
 1401 001c 08E0     		b	.L91
 1402              	.L93:
 635:/home/fanxinhao/Work/LiteOS_Lab/drivers/third_party/ST/STM32L4xx_HAL_Driver/Src/stm32l4xx_hal.c ****   {
 636:/home/fanxinhao/Work/LiteOS_Lab/drivers/third_party/ST/STM32L4xx_HAL_Driver/Src/stm32l4xx_hal.c ****     if((HAL_GetTick() - tickstart) > VREFBUF_TIMEOUT_VALUE)
 1403              		.loc 1 636 9
 1404 001e FFF7FEFF 		bl	HAL_GetTick
 1405 0022 0246     		mov	r2, r0
 1406              		.loc 1 636 23
 1407 0024 7B68     		ldr	r3, [r7, #4]
 1408 0026 D31A     		subs	r3, r2, r3
 1409              		.loc 1 636 7
 1410 0028 0A2B     		cmp	r3, #10
 1411 002a 01D9     		bls	.L91
 637:/home/fanxinhao/Work/LiteOS_Lab/drivers/third_party/ST/STM32L4xx_HAL_Driver/Src/stm32l4xx_hal.c ****     {
 638:/home/fanxinhao/Work/LiteOS_Lab/drivers/third_party/ST/STM32L4xx_HAL_Driver/Src/stm32l4xx_hal.c ****       return HAL_TIMEOUT;
 1412              		.loc 1 638 14
 1413 002c 0323     		movs	r3, #3
 1414 002e 06E0     		b	.L92
ARM GAS  /tmp/ccKmrB2u.s 			page 36


 1415              	.L91:
 634:/home/fanxinhao/Work/LiteOS_Lab/drivers/third_party/ST/STM32L4xx_HAL_Driver/Src/stm32l4xx_hal.c ****   {
 1416              		.loc 1 634 9
 1417 0030 054B     		ldr	r3, .L94
 1418 0032 1B68     		ldr	r3, [r3]
 1419 0034 03F00803 		and	r3, r3, #8
 634:/home/fanxinhao/Work/LiteOS_Lab/drivers/third_party/ST/STM32L4xx_HAL_Driver/Src/stm32l4xx_hal.c ****   {
 1420              		.loc 1 634 8
 1421 0038 002B     		cmp	r3, #0
 1422 003a F0D0     		beq	.L93
 639:/home/fanxinhao/Work/LiteOS_Lab/drivers/third_party/ST/STM32L4xx_HAL_Driver/Src/stm32l4xx_hal.c ****     }
 640:/home/fanxinhao/Work/LiteOS_Lab/drivers/third_party/ST/STM32L4xx_HAL_Driver/Src/stm32l4xx_hal.c ****   }
 641:/home/fanxinhao/Work/LiteOS_Lab/drivers/third_party/ST/STM32L4xx_HAL_Driver/Src/stm32l4xx_hal.c ****   
 642:/home/fanxinhao/Work/LiteOS_Lab/drivers/third_party/ST/STM32L4xx_HAL_Driver/Src/stm32l4xx_hal.c ****   return HAL_OK;
 1423              		.loc 1 642 10
 1424 003c 0023     		movs	r3, #0
 1425              	.L92:
 643:/home/fanxinhao/Work/LiteOS_Lab/drivers/third_party/ST/STM32L4xx_HAL_Driver/Src/stm32l4xx_hal.c **** }
 1426              		.loc 1 643 1
 1427 003e 1846     		mov	r0, r3
 1428 0040 0837     		adds	r7, r7, #8
 1429              	.LCFI119:
 1430              		.cfi_def_cfa_offset 8
 1431 0042 BD46     		mov	sp, r7
 1432              	.LCFI120:
 1433              		.cfi_def_cfa_register 13
 1434              		@ sp needed
 1435 0044 80BD     		pop	{r7, pc}
 1436              	.L95:
 1437 0046 00BF     		.align	2
 1438              	.L94:
 1439 0048 30000140 		.word	1073807408
 1440              		.cfi_endproc
 1441              	.LFE154:
 1443              		.section	.text.HAL_SYSCFG_DisableVREFBUF,"ax",%progbits
 1444              		.align	1
 1445              		.global	HAL_SYSCFG_DisableVREFBUF
 1446              		.syntax unified
 1447              		.thumb
 1448              		.thumb_func
 1449              		.fpu fpv4-sp-d16
 1451              	HAL_SYSCFG_DisableVREFBUF:
 1452              	.LFB155:
 644:/home/fanxinhao/Work/LiteOS_Lab/drivers/third_party/ST/STM32L4xx_HAL_Driver/Src/stm32l4xx_hal.c **** 
 645:/home/fanxinhao/Work/LiteOS_Lab/drivers/third_party/ST/STM32L4xx_HAL_Driver/Src/stm32l4xx_hal.c **** /**
 646:/home/fanxinhao/Work/LiteOS_Lab/drivers/third_party/ST/STM32L4xx_HAL_Driver/Src/stm32l4xx_hal.c ****   * @brief  Disable the Internal Voltage Reference buffer (VREFBUF).
 647:/home/fanxinhao/Work/LiteOS_Lab/drivers/third_party/ST/STM32L4xx_HAL_Driver/Src/stm32l4xx_hal.c ****   *
 648:/home/fanxinhao/Work/LiteOS_Lab/drivers/third_party/ST/STM32L4xx_HAL_Driver/Src/stm32l4xx_hal.c ****   * @retval None
 649:/home/fanxinhao/Work/LiteOS_Lab/drivers/third_party/ST/STM32L4xx_HAL_Driver/Src/stm32l4xx_hal.c ****   */
 650:/home/fanxinhao/Work/LiteOS_Lab/drivers/third_party/ST/STM32L4xx_HAL_Driver/Src/stm32l4xx_hal.c **** void HAL_SYSCFG_DisableVREFBUF(void)
 651:/home/fanxinhao/Work/LiteOS_Lab/drivers/third_party/ST/STM32L4xx_HAL_Driver/Src/stm32l4xx_hal.c **** {
 1453              		.loc 1 651 1
 1454              		.cfi_startproc
 1455              		@ args = 0, pretend = 0, frame = 0
 1456              		@ frame_needed = 1, uses_anonymous_args = 0
 1457              		@ link register save eliminated.
 1458 0000 80B4     		push	{r7}
ARM GAS  /tmp/ccKmrB2u.s 			page 37


 1459              	.LCFI121:
 1460              		.cfi_def_cfa_offset 4
 1461              		.cfi_offset 7, -4
 1462 0002 00AF     		add	r7, sp, #0
 1463              	.LCFI122:
 1464              		.cfi_def_cfa_register 7
 652:/home/fanxinhao/Work/LiteOS_Lab/drivers/third_party/ST/STM32L4xx_HAL_Driver/Src/stm32l4xx_hal.c ****   CLEAR_BIT(VREFBUF->CSR, VREFBUF_CSR_ENVR);
 1465              		.loc 1 652 3
 1466 0004 054B     		ldr	r3, .L97
 1467 0006 1B68     		ldr	r3, [r3]
 1468 0008 044A     		ldr	r2, .L97
 1469 000a 23F00103 		bic	r3, r3, #1
 1470 000e 1360     		str	r3, [r2]
 653:/home/fanxinhao/Work/LiteOS_Lab/drivers/third_party/ST/STM32L4xx_HAL_Driver/Src/stm32l4xx_hal.c **** }
 1471              		.loc 1 653 1
 1472 0010 00BF     		nop
 1473 0012 BD46     		mov	sp, r7
 1474              	.LCFI123:
 1475              		.cfi_def_cfa_register 13
 1476              		@ sp needed
 1477 0014 5DF8047B 		ldr	r7, [sp], #4
 1478              	.LCFI124:
 1479              		.cfi_restore 7
 1480              		.cfi_def_cfa_offset 0
 1481 0018 7047     		bx	lr
 1482              	.L98:
 1483 001a 00BF     		.align	2
 1484              	.L97:
 1485 001c 30000140 		.word	1073807408
 1486              		.cfi_endproc
 1487              	.LFE155:
 1489              		.section	.text.HAL_SYSCFG_EnableIOAnalogSwitchBooster,"ax",%progbits
 1490              		.align	1
 1491              		.global	HAL_SYSCFG_EnableIOAnalogSwitchBooster
 1492              		.syntax unified
 1493              		.thumb
 1494              		.thumb_func
 1495              		.fpu fpv4-sp-d16
 1497              	HAL_SYSCFG_EnableIOAnalogSwitchBooster:
 1498              	.LFB156:
 654:/home/fanxinhao/Work/LiteOS_Lab/drivers/third_party/ST/STM32L4xx_HAL_Driver/Src/stm32l4xx_hal.c **** #endif /* VREFBUF */
 655:/home/fanxinhao/Work/LiteOS_Lab/drivers/third_party/ST/STM32L4xx_HAL_Driver/Src/stm32l4xx_hal.c **** 
 656:/home/fanxinhao/Work/LiteOS_Lab/drivers/third_party/ST/STM32L4xx_HAL_Driver/Src/stm32l4xx_hal.c **** /**
 657:/home/fanxinhao/Work/LiteOS_Lab/drivers/third_party/ST/STM32L4xx_HAL_Driver/Src/stm32l4xx_hal.c ****   * @brief  Enable the I/O analog switch voltage booster
 658:/home/fanxinhao/Work/LiteOS_Lab/drivers/third_party/ST/STM32L4xx_HAL_Driver/Src/stm32l4xx_hal.c ****   *
 659:/home/fanxinhao/Work/LiteOS_Lab/drivers/third_party/ST/STM32L4xx_HAL_Driver/Src/stm32l4xx_hal.c ****   * @retval None
 660:/home/fanxinhao/Work/LiteOS_Lab/drivers/third_party/ST/STM32L4xx_HAL_Driver/Src/stm32l4xx_hal.c ****   */
 661:/home/fanxinhao/Work/LiteOS_Lab/drivers/third_party/ST/STM32L4xx_HAL_Driver/Src/stm32l4xx_hal.c **** void HAL_SYSCFG_EnableIOAnalogSwitchBooster(void)
 662:/home/fanxinhao/Work/LiteOS_Lab/drivers/third_party/ST/STM32L4xx_HAL_Driver/Src/stm32l4xx_hal.c **** {
 1499              		.loc 1 662 1
 1500              		.cfi_startproc
 1501              		@ args = 0, pretend = 0, frame = 0
 1502              		@ frame_needed = 1, uses_anonymous_args = 0
 1503              		@ link register save eliminated.
 1504 0000 80B4     		push	{r7}
 1505              	.LCFI125:
 1506              		.cfi_def_cfa_offset 4
ARM GAS  /tmp/ccKmrB2u.s 			page 38


 1507              		.cfi_offset 7, -4
 1508 0002 00AF     		add	r7, sp, #0
 1509              	.LCFI126:
 1510              		.cfi_def_cfa_register 7
 663:/home/fanxinhao/Work/LiteOS_Lab/drivers/third_party/ST/STM32L4xx_HAL_Driver/Src/stm32l4xx_hal.c ****   SET_BIT(SYSCFG->CFGR1, SYSCFG_CFGR1_BOOSTEN);
 1511              		.loc 1 663 3
 1512 0004 054B     		ldr	r3, .L100
 1513 0006 5B68     		ldr	r3, [r3, #4]
 1514 0008 044A     		ldr	r2, .L100
 1515 000a 43F48073 		orr	r3, r3, #256
 1516 000e 5360     		str	r3, [r2, #4]
 664:/home/fanxinhao/Work/LiteOS_Lab/drivers/third_party/ST/STM32L4xx_HAL_Driver/Src/stm32l4xx_hal.c **** }
 1517              		.loc 1 664 1
 1518 0010 00BF     		nop
 1519 0012 BD46     		mov	sp, r7
 1520              	.LCFI127:
 1521              		.cfi_def_cfa_register 13
 1522              		@ sp needed
 1523 0014 5DF8047B 		ldr	r7, [sp], #4
 1524              	.LCFI128:
 1525              		.cfi_restore 7
 1526              		.cfi_def_cfa_offset 0
 1527 0018 7047     		bx	lr
 1528              	.L101:
 1529 001a 00BF     		.align	2
 1530              	.L100:
 1531 001c 00000140 		.word	1073807360
 1532              		.cfi_endproc
 1533              	.LFE156:
 1535              		.section	.text.HAL_SYSCFG_DisableIOAnalogSwitchBooster,"ax",%progbits
 1536              		.align	1
 1537              		.global	HAL_SYSCFG_DisableIOAnalogSwitchBooster
 1538              		.syntax unified
 1539              		.thumb
 1540              		.thumb_func
 1541              		.fpu fpv4-sp-d16
 1543              	HAL_SYSCFG_DisableIOAnalogSwitchBooster:
 1544              	.LFB157:
 665:/home/fanxinhao/Work/LiteOS_Lab/drivers/third_party/ST/STM32L4xx_HAL_Driver/Src/stm32l4xx_hal.c **** 
 666:/home/fanxinhao/Work/LiteOS_Lab/drivers/third_party/ST/STM32L4xx_HAL_Driver/Src/stm32l4xx_hal.c **** /**
 667:/home/fanxinhao/Work/LiteOS_Lab/drivers/third_party/ST/STM32L4xx_HAL_Driver/Src/stm32l4xx_hal.c ****   * @brief  Disable the I/O analog switch voltage booster
 668:/home/fanxinhao/Work/LiteOS_Lab/drivers/third_party/ST/STM32L4xx_HAL_Driver/Src/stm32l4xx_hal.c ****   *
 669:/home/fanxinhao/Work/LiteOS_Lab/drivers/third_party/ST/STM32L4xx_HAL_Driver/Src/stm32l4xx_hal.c ****   * @retval None
 670:/home/fanxinhao/Work/LiteOS_Lab/drivers/third_party/ST/STM32L4xx_HAL_Driver/Src/stm32l4xx_hal.c ****   */
 671:/home/fanxinhao/Work/LiteOS_Lab/drivers/third_party/ST/STM32L4xx_HAL_Driver/Src/stm32l4xx_hal.c **** void HAL_SYSCFG_DisableIOAnalogSwitchBooster(void)
 672:/home/fanxinhao/Work/LiteOS_Lab/drivers/third_party/ST/STM32L4xx_HAL_Driver/Src/stm32l4xx_hal.c **** {
 1545              		.loc 1 672 1
 1546              		.cfi_startproc
 1547              		@ args = 0, pretend = 0, frame = 0
 1548              		@ frame_needed = 1, uses_anonymous_args = 0
 1549              		@ link register save eliminated.
 1550 0000 80B4     		push	{r7}
 1551              	.LCFI129:
 1552              		.cfi_def_cfa_offset 4
 1553              		.cfi_offset 7, -4
 1554 0002 00AF     		add	r7, sp, #0
 1555              	.LCFI130:
ARM GAS  /tmp/ccKmrB2u.s 			page 39


 1556              		.cfi_def_cfa_register 7
 673:/home/fanxinhao/Work/LiteOS_Lab/drivers/third_party/ST/STM32L4xx_HAL_Driver/Src/stm32l4xx_hal.c ****   CLEAR_BIT(SYSCFG->CFGR1, SYSCFG_CFGR1_BOOSTEN);
 1557              		.loc 1 673 3
 1558 0004 054B     		ldr	r3, .L103
 1559 0006 5B68     		ldr	r3, [r3, #4]
 1560 0008 044A     		ldr	r2, .L103
 1561 000a 23F48073 		bic	r3, r3, #256
 1562 000e 5360     		str	r3, [r2, #4]
 674:/home/fanxinhao/Work/LiteOS_Lab/drivers/third_party/ST/STM32L4xx_HAL_Driver/Src/stm32l4xx_hal.c **** }
 1563              		.loc 1 674 1
 1564 0010 00BF     		nop
 1565 0012 BD46     		mov	sp, r7
 1566              	.LCFI131:
 1567              		.cfi_def_cfa_register 13
 1568              		@ sp needed
 1569 0014 5DF8047B 		ldr	r7, [sp], #4
 1570              	.LCFI132:
 1571              		.cfi_restore 7
 1572              		.cfi_def_cfa_offset 0
 1573 0018 7047     		bx	lr
 1574              	.L104:
 1575 001a 00BF     		.align	2
 1576              	.L103:
 1577 001c 00000140 		.word	1073807360
 1578              		.cfi_endproc
 1579              	.LFE157:
 1581              		.text
 1582              	.Letext0:
 1583              		.file 2 "/home/fanxinhao/toolchain/gcc-arm-none-eabi-9-2019-q4-major/arm-none-eabi/include/machine
 1584              		.file 3 "/home/fanxinhao/toolchain/gcc-arm-none-eabi-9-2019-q4-major/arm-none-eabi/include/sys/_st
 1585              		.file 4 "/home/fanxinhao/Work/LiteOS_Lab/iot_link/os/liteos/arch/arm/common/cmsis/core_cm4.h"
 1586              		.file 5 "/home/fanxinhao/Work/LiteOS_Lab/targets/STM32L476RG_NB476/Inc/system_stm32l4xx.h"
 1587              		.file 6 "/home/fanxinhao/Work/LiteOS_Lab/targets/STM32L476RG_NB476/Inc/stm32l476xx.h"
 1588              		.file 7 "/home/fanxinhao/Work/LiteOS_Lab/targets/STM32L476RG_NB476/Inc/stm32l4xx.h"
 1589              		.file 8 "/home/fanxinhao/toolchain/gcc-arm-none-eabi-9-2019-q4-major/arm-none-eabi/include/sys/loc
 1590              		.file 9 "/home/fanxinhao/toolchain/gcc-arm-none-eabi-9-2019-q4-major/arm-none-eabi/include/sys/_ty
 1591              		.file 10 "/home/fanxinhao/toolchain/gcc-arm-none-eabi-9-2019-q4-major/lib/gcc/arm-none-eabi/9.2.1/
 1592              		.file 11 "/home/fanxinhao/toolchain/gcc-arm-none-eabi-9-2019-q4-major/arm-none-eabi/include/sys/re
 1593              		.file 12 "/home/fanxinhao/Work/LiteOS_Lab/drivers/third_party/ST/STM32L4xx_HAL_Driver/Inc/stm32l4x
ARM GAS  /tmp/ccKmrB2u.s 			page 40

