ARM GAS  /tmp/ccXT28fZ.s 			page 1


   1              		.cpu cortex-m4
   2              		.eabi_attribute 27, 1
   3              		.eabi_attribute 28, 1
   4              		.eabi_attribute 20, 1
   5              		.eabi_attribute 21, 1
   6              		.eabi_attribute 23, 3
   7              		.eabi_attribute 24, 1
   8              		.eabi_attribute 25, 1
   9              		.eabi_attribute 26, 1
  10              		.eabi_attribute 30, 6
  11              		.eabi_attribute 34, 1
  12              		.eabi_attribute 18, 4
  13              		.file	"stm32l4xx_hal_rtc.c"
  14              		.text
  15              	.Ltext0:
  16              		.cfi_sections	.debug_frame
  17              		.section	.text.HAL_RTC_Init,"ax",%progbits
  18              		.align	1
  19              		.global	HAL_RTC_Init
  20              		.arch armv7e-m
  21              		.syntax unified
  22              		.thumb
  23              		.thumb_func
  24              		.fpu fpv4-sp-d16
  26              	HAL_RTC_Init:
  27              	.LFB126:
  28              		.file 1 "/home/fanxinhao/Work/LiteOS_Lab/drivers/third_party/ST/STM32L4xx_HAL_Driver/Src/stm32l4xx
   1:/home/fanxinhao/Work/LiteOS_Lab/drivers/third_party/ST/STM32L4xx_HAL_Driver/Src/stm32l4xx_hal_rtc.c **** /**
   2:/home/fanxinhao/Work/LiteOS_Lab/drivers/third_party/ST/STM32L4xx_HAL_Driver/Src/stm32l4xx_hal_rtc.c ****   ******************************************************************************
   3:/home/fanxinhao/Work/LiteOS_Lab/drivers/third_party/ST/STM32L4xx_HAL_Driver/Src/stm32l4xx_hal_rtc.c ****   * @file    stm32l4xx_hal_rtc.c
   4:/home/fanxinhao/Work/LiteOS_Lab/drivers/third_party/ST/STM32L4xx_HAL_Driver/Src/stm32l4xx_hal_rtc.c ****   * @author  MCD Application Team
   5:/home/fanxinhao/Work/LiteOS_Lab/drivers/third_party/ST/STM32L4xx_HAL_Driver/Src/stm32l4xx_hal_rtc.c ****   * @brief   RTC HAL module driver.
   6:/home/fanxinhao/Work/LiteOS_Lab/drivers/third_party/ST/STM32L4xx_HAL_Driver/Src/stm32l4xx_hal_rtc.c ****   *          This file provides firmware functions to manage the following
   7:/home/fanxinhao/Work/LiteOS_Lab/drivers/third_party/ST/STM32L4xx_HAL_Driver/Src/stm32l4xx_hal_rtc.c ****   *          functionalities of the Real-Time Clock (RTC) peripheral:
   8:/home/fanxinhao/Work/LiteOS_Lab/drivers/third_party/ST/STM32L4xx_HAL_Driver/Src/stm32l4xx_hal_rtc.c ****   *           + Initialization
   9:/home/fanxinhao/Work/LiteOS_Lab/drivers/third_party/ST/STM32L4xx_HAL_Driver/Src/stm32l4xx_hal_rtc.c ****   *           + Calendar (Time and Date) configuration
  10:/home/fanxinhao/Work/LiteOS_Lab/drivers/third_party/ST/STM32L4xx_HAL_Driver/Src/stm32l4xx_hal_rtc.c ****   *           + Alarms (Alarm A and Alarm B) configuration
  11:/home/fanxinhao/Work/LiteOS_Lab/drivers/third_party/ST/STM32L4xx_HAL_Driver/Src/stm32l4xx_hal_rtc.c ****   *           + WakeUp Timer configuration
  12:/home/fanxinhao/Work/LiteOS_Lab/drivers/third_party/ST/STM32L4xx_HAL_Driver/Src/stm32l4xx_hal_rtc.c ****   *           + TimeStamp configuration
  13:/home/fanxinhao/Work/LiteOS_Lab/drivers/third_party/ST/STM32L4xx_HAL_Driver/Src/stm32l4xx_hal_rtc.c ****   *           + Tampers configuration
  14:/home/fanxinhao/Work/LiteOS_Lab/drivers/third_party/ST/STM32L4xx_HAL_Driver/Src/stm32l4xx_hal_rtc.c ****   *           + Backup Data Registers configuration  
  15:/home/fanxinhao/Work/LiteOS_Lab/drivers/third_party/ST/STM32L4xx_HAL_Driver/Src/stm32l4xx_hal_rtc.c ****   *           + RTC Tamper and TimeStamp Pins Selection 
  16:/home/fanxinhao/Work/LiteOS_Lab/drivers/third_party/ST/STM32L4xx_HAL_Driver/Src/stm32l4xx_hal_rtc.c ****   *           + Interrupts and flags management
  17:/home/fanxinhao/Work/LiteOS_Lab/drivers/third_party/ST/STM32L4xx_HAL_Driver/Src/stm32l4xx_hal_rtc.c ****   *         
  18:/home/fanxinhao/Work/LiteOS_Lab/drivers/third_party/ST/STM32L4xx_HAL_Driver/Src/stm32l4xx_hal_rtc.c ****   @verbatim
  19:/home/fanxinhao/Work/LiteOS_Lab/drivers/third_party/ST/STM32L4xx_HAL_Driver/Src/stm32l4xx_hal_rtc.c ****  ===============================================================================   
  20:/home/fanxinhao/Work/LiteOS_Lab/drivers/third_party/ST/STM32L4xx_HAL_Driver/Src/stm32l4xx_hal_rtc.c ****                           ##### RTC Operating Condition #####
  21:/home/fanxinhao/Work/LiteOS_Lab/drivers/third_party/ST/STM32L4xx_HAL_Driver/Src/stm32l4xx_hal_rtc.c ****  ===============================================================================
  22:/home/fanxinhao/Work/LiteOS_Lab/drivers/third_party/ST/STM32L4xx_HAL_Driver/Src/stm32l4xx_hal_rtc.c ****   [..] The real-time clock (RTC) and the RTC backup registers can be powered
  23:/home/fanxinhao/Work/LiteOS_Lab/drivers/third_party/ST/STM32L4xx_HAL_Driver/Src/stm32l4xx_hal_rtc.c ****        from the VBAT voltage when the main VDD supply is powered off.
  24:/home/fanxinhao/Work/LiteOS_Lab/drivers/third_party/ST/STM32L4xx_HAL_Driver/Src/stm32l4xx_hal_rtc.c ****        To retain the content of the RTC backup registers and supply the RTC 
  25:/home/fanxinhao/Work/LiteOS_Lab/drivers/third_party/ST/STM32L4xx_HAL_Driver/Src/stm32l4xx_hal_rtc.c ****        when VDD is turned off, VBAT pin can be connected to an optional
  26:/home/fanxinhao/Work/LiteOS_Lab/drivers/third_party/ST/STM32L4xx_HAL_Driver/Src/stm32l4xx_hal_rtc.c ****        standby voltage supplied by a battery or by another source.
  27:/home/fanxinhao/Work/LiteOS_Lab/drivers/third_party/ST/STM32L4xx_HAL_Driver/Src/stm32l4xx_hal_rtc.c **** 
  28:/home/fanxinhao/Work/LiteOS_Lab/drivers/third_party/ST/STM32L4xx_HAL_Driver/Src/stm32l4xx_hal_rtc.c ****                    ##### Backup Domain Reset #####
  29:/home/fanxinhao/Work/LiteOS_Lab/drivers/third_party/ST/STM32L4xx_HAL_Driver/Src/stm32l4xx_hal_rtc.c ****  ===============================================================================
  30:/home/fanxinhao/Work/LiteOS_Lab/drivers/third_party/ST/STM32L4xx_HAL_Driver/Src/stm32l4xx_hal_rtc.c ****   [..] The backup domain reset sets all RTC registers and the RCC_BDCR register
ARM GAS  /tmp/ccXT28fZ.s 			page 2


  31:/home/fanxinhao/Work/LiteOS_Lab/drivers/third_party/ST/STM32L4xx_HAL_Driver/Src/stm32l4xx_hal_rtc.c ****        to their reset values. 
  32:/home/fanxinhao/Work/LiteOS_Lab/drivers/third_party/ST/STM32L4xx_HAL_Driver/Src/stm32l4xx_hal_rtc.c ****        A backup domain reset is generated when one of the following events occurs:
  33:/home/fanxinhao/Work/LiteOS_Lab/drivers/third_party/ST/STM32L4xx_HAL_Driver/Src/stm32l4xx_hal_rtc.c ****     (#) Software reset, triggered by setting the BDRST bit in the 
  34:/home/fanxinhao/Work/LiteOS_Lab/drivers/third_party/ST/STM32L4xx_HAL_Driver/Src/stm32l4xx_hal_rtc.c ****         RCC Backup domain control register (RCC_BDCR).
  35:/home/fanxinhao/Work/LiteOS_Lab/drivers/third_party/ST/STM32L4xx_HAL_Driver/Src/stm32l4xx_hal_rtc.c ****     (#) VDD or VBAT power on, if both supplies have previously been powered off.
  36:/home/fanxinhao/Work/LiteOS_Lab/drivers/third_party/ST/STM32L4xx_HAL_Driver/Src/stm32l4xx_hal_rtc.c ****     (#) Tamper detection event resets all data backup registers.
  37:/home/fanxinhao/Work/LiteOS_Lab/drivers/third_party/ST/STM32L4xx_HAL_Driver/Src/stm32l4xx_hal_rtc.c **** 
  38:/home/fanxinhao/Work/LiteOS_Lab/drivers/third_party/ST/STM32L4xx_HAL_Driver/Src/stm32l4xx_hal_rtc.c ****                    ##### Backup Domain Access #####
  39:/home/fanxinhao/Work/LiteOS_Lab/drivers/third_party/ST/STM32L4xx_HAL_Driver/Src/stm32l4xx_hal_rtc.c ****  ===================================================================
  40:/home/fanxinhao/Work/LiteOS_Lab/drivers/third_party/ST/STM32L4xx_HAL_Driver/Src/stm32l4xx_hal_rtc.c ****   [..] After reset, the backup domain (RTC registers, RTC backup data 
  41:/home/fanxinhao/Work/LiteOS_Lab/drivers/third_party/ST/STM32L4xx_HAL_Driver/Src/stm32l4xx_hal_rtc.c ****        registers and backup SRAM) is protected against possible unwanted write 
  42:/home/fanxinhao/Work/LiteOS_Lab/drivers/third_party/ST/STM32L4xx_HAL_Driver/Src/stm32l4xx_hal_rtc.c ****        accesses.
  43:/home/fanxinhao/Work/LiteOS_Lab/drivers/third_party/ST/STM32L4xx_HAL_Driver/Src/stm32l4xx_hal_rtc.c **** 
  44:/home/fanxinhao/Work/LiteOS_Lab/drivers/third_party/ST/STM32L4xx_HAL_Driver/Src/stm32l4xx_hal_rtc.c ****   [..] To enable access to the RTC Domain and RTC registers, proceed as follows:
  45:/home/fanxinhao/Work/LiteOS_Lab/drivers/third_party/ST/STM32L4xx_HAL_Driver/Src/stm32l4xx_hal_rtc.c ****     (#) Call the function HAL_RCCEx_PeriphCLKConfig with RCC_PERIPHCLK_RTC for
  46:/home/fanxinhao/Work/LiteOS_Lab/drivers/third_party/ST/STM32L4xx_HAL_Driver/Src/stm32l4xx_hal_rtc.c ****         PeriphClockSelection and select RTCClockSelection (LSE, LSI or HSEdiv32)
  47:/home/fanxinhao/Work/LiteOS_Lab/drivers/third_party/ST/STM32L4xx_HAL_Driver/Src/stm32l4xx_hal_rtc.c ****     (#) Enable RTC Clock using the __HAL_RCC_RTC_ENABLE() macro.
  48:/home/fanxinhao/Work/LiteOS_Lab/drivers/third_party/ST/STM32L4xx_HAL_Driver/Src/stm32l4xx_hal_rtc.c **** 
  49:/home/fanxinhao/Work/LiteOS_Lab/drivers/third_party/ST/STM32L4xx_HAL_Driver/Src/stm32l4xx_hal_rtc.c ****                   ##### How to use RTC Driver #####
  50:/home/fanxinhao/Work/LiteOS_Lab/drivers/third_party/ST/STM32L4xx_HAL_Driver/Src/stm32l4xx_hal_rtc.c ****  ===================================================================
  51:/home/fanxinhao/Work/LiteOS_Lab/drivers/third_party/ST/STM32L4xx_HAL_Driver/Src/stm32l4xx_hal_rtc.c ****   [..]
  52:/home/fanxinhao/Work/LiteOS_Lab/drivers/third_party/ST/STM32L4xx_HAL_Driver/Src/stm32l4xx_hal_rtc.c ****     (#) Enable the RTC domain access (see description in the section above).
  53:/home/fanxinhao/Work/LiteOS_Lab/drivers/third_party/ST/STM32L4xx_HAL_Driver/Src/stm32l4xx_hal_rtc.c ****     (#) Configure the RTC Prescaler (Asynchronous and Synchronous) and RTC hour
  54:/home/fanxinhao/Work/LiteOS_Lab/drivers/third_party/ST/STM32L4xx_HAL_Driver/Src/stm32l4xx_hal_rtc.c ****         format using the HAL_RTC_Init() function.
  55:/home/fanxinhao/Work/LiteOS_Lab/drivers/third_party/ST/STM32L4xx_HAL_Driver/Src/stm32l4xx_hal_rtc.c **** 
  56:/home/fanxinhao/Work/LiteOS_Lab/drivers/third_party/ST/STM32L4xx_HAL_Driver/Src/stm32l4xx_hal_rtc.c ****   *** Time and Date configuration ***
  57:/home/fanxinhao/Work/LiteOS_Lab/drivers/third_party/ST/STM32L4xx_HAL_Driver/Src/stm32l4xx_hal_rtc.c ****   ===================================
  58:/home/fanxinhao/Work/LiteOS_Lab/drivers/third_party/ST/STM32L4xx_HAL_Driver/Src/stm32l4xx_hal_rtc.c ****   [..] 
  59:/home/fanxinhao/Work/LiteOS_Lab/drivers/third_party/ST/STM32L4xx_HAL_Driver/Src/stm32l4xx_hal_rtc.c ****     (#) To configure the RTC Calendar (Time and Date) use the HAL_RTC_SetTime()
  60:/home/fanxinhao/Work/LiteOS_Lab/drivers/third_party/ST/STM32L4xx_HAL_Driver/Src/stm32l4xx_hal_rtc.c ****         and HAL_RTC_SetDate() functions.
  61:/home/fanxinhao/Work/LiteOS_Lab/drivers/third_party/ST/STM32L4xx_HAL_Driver/Src/stm32l4xx_hal_rtc.c ****     (#) To read the RTC Calendar, use the HAL_RTC_GetTime() and HAL_RTC_GetDate() functions.
  62:/home/fanxinhao/Work/LiteOS_Lab/drivers/third_party/ST/STM32L4xx_HAL_Driver/Src/stm32l4xx_hal_rtc.c **** 
  63:/home/fanxinhao/Work/LiteOS_Lab/drivers/third_party/ST/STM32L4xx_HAL_Driver/Src/stm32l4xx_hal_rtc.c ****   *** Alarm configuration ***
  64:/home/fanxinhao/Work/LiteOS_Lab/drivers/third_party/ST/STM32L4xx_HAL_Driver/Src/stm32l4xx_hal_rtc.c ****   ===========================
  65:/home/fanxinhao/Work/LiteOS_Lab/drivers/third_party/ST/STM32L4xx_HAL_Driver/Src/stm32l4xx_hal_rtc.c ****   [..]
  66:/home/fanxinhao/Work/LiteOS_Lab/drivers/third_party/ST/STM32L4xx_HAL_Driver/Src/stm32l4xx_hal_rtc.c ****     (#) To configure the RTC Alarm use the HAL_RTC_SetAlarm() function.
  67:/home/fanxinhao/Work/LiteOS_Lab/drivers/third_party/ST/STM32L4xx_HAL_Driver/Src/stm32l4xx_hal_rtc.c ****             You can also configure the RTC Alarm with interrupt mode using the 
  68:/home/fanxinhao/Work/LiteOS_Lab/drivers/third_party/ST/STM32L4xx_HAL_Driver/Src/stm32l4xx_hal_rtc.c ****             HAL_RTC_SetAlarm_IT() function.
  69:/home/fanxinhao/Work/LiteOS_Lab/drivers/third_party/ST/STM32L4xx_HAL_Driver/Src/stm32l4xx_hal_rtc.c ****     (#) To read the RTC Alarm, use the HAL_RTC_GetAlarm() function.
  70:/home/fanxinhao/Work/LiteOS_Lab/drivers/third_party/ST/STM32L4xx_HAL_Driver/Src/stm32l4xx_hal_rtc.c **** 
  71:/home/fanxinhao/Work/LiteOS_Lab/drivers/third_party/ST/STM32L4xx_HAL_Driver/Src/stm32l4xx_hal_rtc.c ****                   ##### RTC and low power modes #####
  72:/home/fanxinhao/Work/LiteOS_Lab/drivers/third_party/ST/STM32L4xx_HAL_Driver/Src/stm32l4xx_hal_rtc.c ****  ===================================================================
  73:/home/fanxinhao/Work/LiteOS_Lab/drivers/third_party/ST/STM32L4xx_HAL_Driver/Src/stm32l4xx_hal_rtc.c ****   [..] The MCU can be woken up from a low power mode by an RTC alternate
  74:/home/fanxinhao/Work/LiteOS_Lab/drivers/third_party/ST/STM32L4xx_HAL_Driver/Src/stm32l4xx_hal_rtc.c ****        function.
  75:/home/fanxinhao/Work/LiteOS_Lab/drivers/third_party/ST/STM32L4xx_HAL_Driver/Src/stm32l4xx_hal_rtc.c ****   [..] The RTC alternate functions are the RTC alarms (Alarm A and Alarm B),
  76:/home/fanxinhao/Work/LiteOS_Lab/drivers/third_party/ST/STM32L4xx_HAL_Driver/Src/stm32l4xx_hal_rtc.c ****        RTC wakeup, RTC tamper event detection and RTC time stamp event detection.
  77:/home/fanxinhao/Work/LiteOS_Lab/drivers/third_party/ST/STM32L4xx_HAL_Driver/Src/stm32l4xx_hal_rtc.c ****        These RTC alternate functions can wake up the system from the Stop and 
  78:/home/fanxinhao/Work/LiteOS_Lab/drivers/third_party/ST/STM32L4xx_HAL_Driver/Src/stm32l4xx_hal_rtc.c ****        Standby low power modes.
  79:/home/fanxinhao/Work/LiteOS_Lab/drivers/third_party/ST/STM32L4xx_HAL_Driver/Src/stm32l4xx_hal_rtc.c ****   [..] The system can also wake up from low power modes without depending
  80:/home/fanxinhao/Work/LiteOS_Lab/drivers/third_party/ST/STM32L4xx_HAL_Driver/Src/stm32l4xx_hal_rtc.c ****        on an external interrupt (Auto-wakeup mode), by using the RTC alarm
  81:/home/fanxinhao/Work/LiteOS_Lab/drivers/third_party/ST/STM32L4xx_HAL_Driver/Src/stm32l4xx_hal_rtc.c ****        or the RTC wakeup events.
  82:/home/fanxinhao/Work/LiteOS_Lab/drivers/third_party/ST/STM32L4xx_HAL_Driver/Src/stm32l4xx_hal_rtc.c ****   [..] The RTC provides a programmable time base for waking up from the
  83:/home/fanxinhao/Work/LiteOS_Lab/drivers/third_party/ST/STM32L4xx_HAL_Driver/Src/stm32l4xx_hal_rtc.c ****        Stop or Standby mode at regular intervals.
  84:/home/fanxinhao/Work/LiteOS_Lab/drivers/third_party/ST/STM32L4xx_HAL_Driver/Src/stm32l4xx_hal_rtc.c ****        Wakeup from STOP and Standby modes is possible only when the RTC clock source
  85:/home/fanxinhao/Work/LiteOS_Lab/drivers/third_party/ST/STM32L4xx_HAL_Driver/Src/stm32l4xx_hal_rtc.c ****        is LSE or LSI.
  86:/home/fanxinhao/Work/LiteOS_Lab/drivers/third_party/ST/STM32L4xx_HAL_Driver/Src/stm32l4xx_hal_rtc.c **** 
  87:/home/fanxinhao/Work/LiteOS_Lab/drivers/third_party/ST/STM32L4xx_HAL_Driver/Src/stm32l4xx_hal_rtc.c ****    @endverbatim
ARM GAS  /tmp/ccXT28fZ.s 			page 3


  88:/home/fanxinhao/Work/LiteOS_Lab/drivers/third_party/ST/STM32L4xx_HAL_Driver/Src/stm32l4xx_hal_rtc.c **** 
  89:/home/fanxinhao/Work/LiteOS_Lab/drivers/third_party/ST/STM32L4xx_HAL_Driver/Src/stm32l4xx_hal_rtc.c ****   ******************************************************************************
  90:/home/fanxinhao/Work/LiteOS_Lab/drivers/third_party/ST/STM32L4xx_HAL_Driver/Src/stm32l4xx_hal_rtc.c ****   * @attention
  91:/home/fanxinhao/Work/LiteOS_Lab/drivers/third_party/ST/STM32L4xx_HAL_Driver/Src/stm32l4xx_hal_rtc.c ****   *
  92:/home/fanxinhao/Work/LiteOS_Lab/drivers/third_party/ST/STM32L4xx_HAL_Driver/Src/stm32l4xx_hal_rtc.c ****   * <h2><center>&copy; COPYRIGHT(c) 2017 STMicroelectronics</center></h2>
  93:/home/fanxinhao/Work/LiteOS_Lab/drivers/third_party/ST/STM32L4xx_HAL_Driver/Src/stm32l4xx_hal_rtc.c ****   *
  94:/home/fanxinhao/Work/LiteOS_Lab/drivers/third_party/ST/STM32L4xx_HAL_Driver/Src/stm32l4xx_hal_rtc.c ****   * Redistribution and use in source and binary forms, with or without modification,
  95:/home/fanxinhao/Work/LiteOS_Lab/drivers/third_party/ST/STM32L4xx_HAL_Driver/Src/stm32l4xx_hal_rtc.c ****   * are permitted provided that the following conditions are met:
  96:/home/fanxinhao/Work/LiteOS_Lab/drivers/third_party/ST/STM32L4xx_HAL_Driver/Src/stm32l4xx_hal_rtc.c ****   *   1. Redistributions of source code must retain the above copyright notice,
  97:/home/fanxinhao/Work/LiteOS_Lab/drivers/third_party/ST/STM32L4xx_HAL_Driver/Src/stm32l4xx_hal_rtc.c ****   *      this list of conditions and the following disclaimer.
  98:/home/fanxinhao/Work/LiteOS_Lab/drivers/third_party/ST/STM32L4xx_HAL_Driver/Src/stm32l4xx_hal_rtc.c ****   *   2. Redistributions in binary form must reproduce the above copyright notice,
  99:/home/fanxinhao/Work/LiteOS_Lab/drivers/third_party/ST/STM32L4xx_HAL_Driver/Src/stm32l4xx_hal_rtc.c ****   *      this list of conditions and the following disclaimer in the documentation
 100:/home/fanxinhao/Work/LiteOS_Lab/drivers/third_party/ST/STM32L4xx_HAL_Driver/Src/stm32l4xx_hal_rtc.c ****   *      and/or other materials provided with the distribution.
 101:/home/fanxinhao/Work/LiteOS_Lab/drivers/third_party/ST/STM32L4xx_HAL_Driver/Src/stm32l4xx_hal_rtc.c ****   *   3. Neither the name of STMicroelectronics nor the names of its contributors
 102:/home/fanxinhao/Work/LiteOS_Lab/drivers/third_party/ST/STM32L4xx_HAL_Driver/Src/stm32l4xx_hal_rtc.c ****   *      may be used to endorse or promote products derived from this software
 103:/home/fanxinhao/Work/LiteOS_Lab/drivers/third_party/ST/STM32L4xx_HAL_Driver/Src/stm32l4xx_hal_rtc.c ****   *      without specific prior written permission.
 104:/home/fanxinhao/Work/LiteOS_Lab/drivers/third_party/ST/STM32L4xx_HAL_Driver/Src/stm32l4xx_hal_rtc.c ****   *
 105:/home/fanxinhao/Work/LiteOS_Lab/drivers/third_party/ST/STM32L4xx_HAL_Driver/Src/stm32l4xx_hal_rtc.c ****   * THIS SOFTWARE IS PROVIDED BY THE COPYRIGHT HOLDERS AND CONTRIBUTORS "AS IS"
 106:/home/fanxinhao/Work/LiteOS_Lab/drivers/third_party/ST/STM32L4xx_HAL_Driver/Src/stm32l4xx_hal_rtc.c ****   * AND ANY EXPRESS OR IMPLIED WARRANTIES, INCLUDING, BUT NOT LIMITED TO, THE
 107:/home/fanxinhao/Work/LiteOS_Lab/drivers/third_party/ST/STM32L4xx_HAL_Driver/Src/stm32l4xx_hal_rtc.c ****   * IMPLIED WARRANTIES OF MERCHANTABILITY AND FITNESS FOR A PARTICULAR PURPOSE ARE
 108:/home/fanxinhao/Work/LiteOS_Lab/drivers/third_party/ST/STM32L4xx_HAL_Driver/Src/stm32l4xx_hal_rtc.c ****   * DISCLAIMED. IN NO EVENT SHALL THE COPYRIGHT HOLDER OR CONTRIBUTORS BE LIABLE
 109:/home/fanxinhao/Work/LiteOS_Lab/drivers/third_party/ST/STM32L4xx_HAL_Driver/Src/stm32l4xx_hal_rtc.c ****   * FOR ANY DIRECT, INDIRECT, INCIDENTAL, SPECIAL, EXEMPLARY, OR CONSEQUENTIAL
 110:/home/fanxinhao/Work/LiteOS_Lab/drivers/third_party/ST/STM32L4xx_HAL_Driver/Src/stm32l4xx_hal_rtc.c ****   * DAMAGES (INCLUDING, BUT NOT LIMITED TO, PROCUREMENT OF SUBSTITUTE GOODS OR
 111:/home/fanxinhao/Work/LiteOS_Lab/drivers/third_party/ST/STM32L4xx_HAL_Driver/Src/stm32l4xx_hal_rtc.c ****   * SERVICES; LOSS OF USE, DATA, OR PROFITS; OR BUSINESS INTERRUPTION) HOWEVER
 112:/home/fanxinhao/Work/LiteOS_Lab/drivers/third_party/ST/STM32L4xx_HAL_Driver/Src/stm32l4xx_hal_rtc.c ****   * CAUSED AND ON ANY THEORY OF LIABILITY, WHETHER IN CONTRACT, STRICT LIABILITY,
 113:/home/fanxinhao/Work/LiteOS_Lab/drivers/third_party/ST/STM32L4xx_HAL_Driver/Src/stm32l4xx_hal_rtc.c ****   * OR TORT (INCLUDING NEGLIGENCE OR OTHERWISE) ARISING IN ANY WAY OUT OF THE USE
 114:/home/fanxinhao/Work/LiteOS_Lab/drivers/third_party/ST/STM32L4xx_HAL_Driver/Src/stm32l4xx_hal_rtc.c ****   * OF THIS SOFTWARE, EVEN IF ADVISED OF THE POSSIBILITY OF SUCH DAMAGE.
 115:/home/fanxinhao/Work/LiteOS_Lab/drivers/third_party/ST/STM32L4xx_HAL_Driver/Src/stm32l4xx_hal_rtc.c ****   *
 116:/home/fanxinhao/Work/LiteOS_Lab/drivers/third_party/ST/STM32L4xx_HAL_Driver/Src/stm32l4xx_hal_rtc.c ****   ******************************************************************************  
 117:/home/fanxinhao/Work/LiteOS_Lab/drivers/third_party/ST/STM32L4xx_HAL_Driver/Src/stm32l4xx_hal_rtc.c ****   */
 118:/home/fanxinhao/Work/LiteOS_Lab/drivers/third_party/ST/STM32L4xx_HAL_Driver/Src/stm32l4xx_hal_rtc.c **** 
 119:/home/fanxinhao/Work/LiteOS_Lab/drivers/third_party/ST/STM32L4xx_HAL_Driver/Src/stm32l4xx_hal_rtc.c **** /* Includes ------------------------------------------------------------------*/
 120:/home/fanxinhao/Work/LiteOS_Lab/drivers/third_party/ST/STM32L4xx_HAL_Driver/Src/stm32l4xx_hal_rtc.c **** #include "stm32l4xx_hal.h"
 121:/home/fanxinhao/Work/LiteOS_Lab/drivers/third_party/ST/STM32L4xx_HAL_Driver/Src/stm32l4xx_hal_rtc.c **** 
 122:/home/fanxinhao/Work/LiteOS_Lab/drivers/third_party/ST/STM32L4xx_HAL_Driver/Src/stm32l4xx_hal_rtc.c **** /** @addtogroup STM32L4xx_HAL_Driver
 123:/home/fanxinhao/Work/LiteOS_Lab/drivers/third_party/ST/STM32L4xx_HAL_Driver/Src/stm32l4xx_hal_rtc.c ****   * @{
 124:/home/fanxinhao/Work/LiteOS_Lab/drivers/third_party/ST/STM32L4xx_HAL_Driver/Src/stm32l4xx_hal_rtc.c ****   */
 125:/home/fanxinhao/Work/LiteOS_Lab/drivers/third_party/ST/STM32L4xx_HAL_Driver/Src/stm32l4xx_hal_rtc.c **** 
 126:/home/fanxinhao/Work/LiteOS_Lab/drivers/third_party/ST/STM32L4xx_HAL_Driver/Src/stm32l4xx_hal_rtc.c **** /** @defgroup RTC RTC
 127:/home/fanxinhao/Work/LiteOS_Lab/drivers/third_party/ST/STM32L4xx_HAL_Driver/Src/stm32l4xx_hal_rtc.c ****   * @brief RTC HAL module driver
 128:/home/fanxinhao/Work/LiteOS_Lab/drivers/third_party/ST/STM32L4xx_HAL_Driver/Src/stm32l4xx_hal_rtc.c ****   * @{
 129:/home/fanxinhao/Work/LiteOS_Lab/drivers/third_party/ST/STM32L4xx_HAL_Driver/Src/stm32l4xx_hal_rtc.c ****   */
 130:/home/fanxinhao/Work/LiteOS_Lab/drivers/third_party/ST/STM32L4xx_HAL_Driver/Src/stm32l4xx_hal_rtc.c **** 
 131:/home/fanxinhao/Work/LiteOS_Lab/drivers/third_party/ST/STM32L4xx_HAL_Driver/Src/stm32l4xx_hal_rtc.c **** #ifdef HAL_RTC_MODULE_ENABLED
 132:/home/fanxinhao/Work/LiteOS_Lab/drivers/third_party/ST/STM32L4xx_HAL_Driver/Src/stm32l4xx_hal_rtc.c **** 
 133:/home/fanxinhao/Work/LiteOS_Lab/drivers/third_party/ST/STM32L4xx_HAL_Driver/Src/stm32l4xx_hal_rtc.c **** /* Private typedef -----------------------------------------------------------*/
 134:/home/fanxinhao/Work/LiteOS_Lab/drivers/third_party/ST/STM32L4xx_HAL_Driver/Src/stm32l4xx_hal_rtc.c **** /* Private define ------------------------------------------------------------*/
 135:/home/fanxinhao/Work/LiteOS_Lab/drivers/third_party/ST/STM32L4xx_HAL_Driver/Src/stm32l4xx_hal_rtc.c **** /* Private macro -------------------------------------------------------------*/
 136:/home/fanxinhao/Work/LiteOS_Lab/drivers/third_party/ST/STM32L4xx_HAL_Driver/Src/stm32l4xx_hal_rtc.c **** /* Private variables ---------------------------------------------------------*/
 137:/home/fanxinhao/Work/LiteOS_Lab/drivers/third_party/ST/STM32L4xx_HAL_Driver/Src/stm32l4xx_hal_rtc.c **** /* Private function prototypes -----------------------------------------------*/
 138:/home/fanxinhao/Work/LiteOS_Lab/drivers/third_party/ST/STM32L4xx_HAL_Driver/Src/stm32l4xx_hal_rtc.c **** /* Exported functions --------------------------------------------------------*/
 139:/home/fanxinhao/Work/LiteOS_Lab/drivers/third_party/ST/STM32L4xx_HAL_Driver/Src/stm32l4xx_hal_rtc.c **** 
 140:/home/fanxinhao/Work/LiteOS_Lab/drivers/third_party/ST/STM32L4xx_HAL_Driver/Src/stm32l4xx_hal_rtc.c **** /** @defgroup RTC_Exported_Functions RTC Exported Functions
 141:/home/fanxinhao/Work/LiteOS_Lab/drivers/third_party/ST/STM32L4xx_HAL_Driver/Src/stm32l4xx_hal_rtc.c ****   * @{
 142:/home/fanxinhao/Work/LiteOS_Lab/drivers/third_party/ST/STM32L4xx_HAL_Driver/Src/stm32l4xx_hal_rtc.c ****   */
 143:/home/fanxinhao/Work/LiteOS_Lab/drivers/third_party/ST/STM32L4xx_HAL_Driver/Src/stm32l4xx_hal_rtc.c **** 
 144:/home/fanxinhao/Work/LiteOS_Lab/drivers/third_party/ST/STM32L4xx_HAL_Driver/Src/stm32l4xx_hal_rtc.c **** /** @defgroup RTC_Exported_Functions_Group1 Initialization and de-initialization functions 
ARM GAS  /tmp/ccXT28fZ.s 			page 4


 145:/home/fanxinhao/Work/LiteOS_Lab/drivers/third_party/ST/STM32L4xx_HAL_Driver/Src/stm32l4xx_hal_rtc.c ****  *  @brief    Initialization and Configuration functions 
 146:/home/fanxinhao/Work/LiteOS_Lab/drivers/third_party/ST/STM32L4xx_HAL_Driver/Src/stm32l4xx_hal_rtc.c ****  *
 147:/home/fanxinhao/Work/LiteOS_Lab/drivers/third_party/ST/STM32L4xx_HAL_Driver/Src/stm32l4xx_hal_rtc.c **** @verbatim
 148:/home/fanxinhao/Work/LiteOS_Lab/drivers/third_party/ST/STM32L4xx_HAL_Driver/Src/stm32l4xx_hal_rtc.c ****  ===============================================================================
 149:/home/fanxinhao/Work/LiteOS_Lab/drivers/third_party/ST/STM32L4xx_HAL_Driver/Src/stm32l4xx_hal_rtc.c ****               ##### Initialization and de-initialization functions #####
 150:/home/fanxinhao/Work/LiteOS_Lab/drivers/third_party/ST/STM32L4xx_HAL_Driver/Src/stm32l4xx_hal_rtc.c ****  ===============================================================================
 151:/home/fanxinhao/Work/LiteOS_Lab/drivers/third_party/ST/STM32L4xx_HAL_Driver/Src/stm32l4xx_hal_rtc.c ****    [..] This section provide functions allowing to initialize and configure the 
 152:/home/fanxinhao/Work/LiteOS_Lab/drivers/third_party/ST/STM32L4xx_HAL_Driver/Src/stm32l4xx_hal_rtc.c ****          RTC Prescaler (Synchronous and Asynchronous), RTC Hour format, disable 
 153:/home/fanxinhao/Work/LiteOS_Lab/drivers/third_party/ST/STM32L4xx_HAL_Driver/Src/stm32l4xx_hal_rtc.c ****          RTC registers Write protection, enter and exit the RTC initialization mode,
 154:/home/fanxinhao/Work/LiteOS_Lab/drivers/third_party/ST/STM32L4xx_HAL_Driver/Src/stm32l4xx_hal_rtc.c ****          RTC registers synchronization check and reference clock detection enable.
 155:/home/fanxinhao/Work/LiteOS_Lab/drivers/third_party/ST/STM32L4xx_HAL_Driver/Src/stm32l4xx_hal_rtc.c ****          (#) The RTC Prescaler is programmed to generate the RTC 1Hz time base.
 156:/home/fanxinhao/Work/LiteOS_Lab/drivers/third_party/ST/STM32L4xx_HAL_Driver/Src/stm32l4xx_hal_rtc.c ****              It is split into 2 programmable prescalers to minimize power consumption.
 157:/home/fanxinhao/Work/LiteOS_Lab/drivers/third_party/ST/STM32L4xx_HAL_Driver/Src/stm32l4xx_hal_rtc.c ****              (++) A 7-bit asynchronous prescaler and a 15-bit synchronous prescaler.
 158:/home/fanxinhao/Work/LiteOS_Lab/drivers/third_party/ST/STM32L4xx_HAL_Driver/Src/stm32l4xx_hal_rtc.c ****              (++) When both prescalers are used, it is recommended to configure the 
 159:/home/fanxinhao/Work/LiteOS_Lab/drivers/third_party/ST/STM32L4xx_HAL_Driver/Src/stm32l4xx_hal_rtc.c ****                  asynchronous prescaler to a high value to minimize power consumption.
 160:/home/fanxinhao/Work/LiteOS_Lab/drivers/third_party/ST/STM32L4xx_HAL_Driver/Src/stm32l4xx_hal_rtc.c ****          (#) All RTC registers are Write protected. Writing to the RTC registers
 161:/home/fanxinhao/Work/LiteOS_Lab/drivers/third_party/ST/STM32L4xx_HAL_Driver/Src/stm32l4xx_hal_rtc.c ****              is enabled by writing a key into the Write Protection register, RTC_WPR.
 162:/home/fanxinhao/Work/LiteOS_Lab/drivers/third_party/ST/STM32L4xx_HAL_Driver/Src/stm32l4xx_hal_rtc.c ****          (#) To configure the RTC Calendar, user application should enter 
 163:/home/fanxinhao/Work/LiteOS_Lab/drivers/third_party/ST/STM32L4xx_HAL_Driver/Src/stm32l4xx_hal_rtc.c ****              initialization mode. In this mode, the calendar counter is stopped
 164:/home/fanxinhao/Work/LiteOS_Lab/drivers/third_party/ST/STM32L4xx_HAL_Driver/Src/stm32l4xx_hal_rtc.c ****              and its value can be updated. When the initialization sequence is 
 165:/home/fanxinhao/Work/LiteOS_Lab/drivers/third_party/ST/STM32L4xx_HAL_Driver/Src/stm32l4xx_hal_rtc.c ****              complete, the calendar restarts counting after 4 RTCCLK cycles.
 166:/home/fanxinhao/Work/LiteOS_Lab/drivers/third_party/ST/STM32L4xx_HAL_Driver/Src/stm32l4xx_hal_rtc.c ****          (#) To read the calendar through the shadow registers after Calendar 
 167:/home/fanxinhao/Work/LiteOS_Lab/drivers/third_party/ST/STM32L4xx_HAL_Driver/Src/stm32l4xx_hal_rtc.c ****              initialization, calendar update or after wakeup from low power modes
 168:/home/fanxinhao/Work/LiteOS_Lab/drivers/third_party/ST/STM32L4xx_HAL_Driver/Src/stm32l4xx_hal_rtc.c ****              the software must first clear the RSF flag. The software must then
 169:/home/fanxinhao/Work/LiteOS_Lab/drivers/third_party/ST/STM32L4xx_HAL_Driver/Src/stm32l4xx_hal_rtc.c ****              wait until it is set again before reading the calendar, which means
 170:/home/fanxinhao/Work/LiteOS_Lab/drivers/third_party/ST/STM32L4xx_HAL_Driver/Src/stm32l4xx_hal_rtc.c ****              that the calendar registers have been correctly copied into the
 171:/home/fanxinhao/Work/LiteOS_Lab/drivers/third_party/ST/STM32L4xx_HAL_Driver/Src/stm32l4xx_hal_rtc.c ****              RTC_TR and RTC_DR shadow registers. The HAL_RTC_WaitForSynchro() function 
 172:/home/fanxinhao/Work/LiteOS_Lab/drivers/third_party/ST/STM32L4xx_HAL_Driver/Src/stm32l4xx_hal_rtc.c ****              implements the above software sequence (RSF clear and RSF check).
 173:/home/fanxinhao/Work/LiteOS_Lab/drivers/third_party/ST/STM32L4xx_HAL_Driver/Src/stm32l4xx_hal_rtc.c **** 
 174:/home/fanxinhao/Work/LiteOS_Lab/drivers/third_party/ST/STM32L4xx_HAL_Driver/Src/stm32l4xx_hal_rtc.c **** @endverbatim
 175:/home/fanxinhao/Work/LiteOS_Lab/drivers/third_party/ST/STM32L4xx_HAL_Driver/Src/stm32l4xx_hal_rtc.c ****   * @{
 176:/home/fanxinhao/Work/LiteOS_Lab/drivers/third_party/ST/STM32L4xx_HAL_Driver/Src/stm32l4xx_hal_rtc.c ****   */
 177:/home/fanxinhao/Work/LiteOS_Lab/drivers/third_party/ST/STM32L4xx_HAL_Driver/Src/stm32l4xx_hal_rtc.c **** 
 178:/home/fanxinhao/Work/LiteOS_Lab/drivers/third_party/ST/STM32L4xx_HAL_Driver/Src/stm32l4xx_hal_rtc.c **** /**
 179:/home/fanxinhao/Work/LiteOS_Lab/drivers/third_party/ST/STM32L4xx_HAL_Driver/Src/stm32l4xx_hal_rtc.c ****   * @brief  Initialize the RTC according to the specified parameters 
 180:/home/fanxinhao/Work/LiteOS_Lab/drivers/third_party/ST/STM32L4xx_HAL_Driver/Src/stm32l4xx_hal_rtc.c ****   *         in the RTC_InitTypeDef structure and initialize the associated handle.
 181:/home/fanxinhao/Work/LiteOS_Lab/drivers/third_party/ST/STM32L4xx_HAL_Driver/Src/stm32l4xx_hal_rtc.c ****   * @param  hrtc: RTC handle
 182:/home/fanxinhao/Work/LiteOS_Lab/drivers/third_party/ST/STM32L4xx_HAL_Driver/Src/stm32l4xx_hal_rtc.c ****   * @retval HAL status
 183:/home/fanxinhao/Work/LiteOS_Lab/drivers/third_party/ST/STM32L4xx_HAL_Driver/Src/stm32l4xx_hal_rtc.c ****   */
 184:/home/fanxinhao/Work/LiteOS_Lab/drivers/third_party/ST/STM32L4xx_HAL_Driver/Src/stm32l4xx_hal_rtc.c **** HAL_StatusTypeDef HAL_RTC_Init(RTC_HandleTypeDef *hrtc)
 185:/home/fanxinhao/Work/LiteOS_Lab/drivers/third_party/ST/STM32L4xx_HAL_Driver/Src/stm32l4xx_hal_rtc.c **** {
  29              		.loc 1 185 1
  30              		.cfi_startproc
  31              		@ args = 0, pretend = 0, frame = 8
  32              		@ frame_needed = 1, uses_anonymous_args = 0
  33 0000 80B5     		push	{r7, lr}
  34              	.LCFI0:
  35              		.cfi_def_cfa_offset 8
  36              		.cfi_offset 7, -8
  37              		.cfi_offset 14, -4
  38 0002 82B0     		sub	sp, sp, #8
  39              	.LCFI1:
  40              		.cfi_def_cfa_offset 16
  41 0004 00AF     		add	r7, sp, #0
  42              	.LCFI2:
  43              		.cfi_def_cfa_register 7
  44 0006 7860     		str	r0, [r7, #4]
ARM GAS  /tmp/ccXT28fZ.s 			page 5


 186:/home/fanxinhao/Work/LiteOS_Lab/drivers/third_party/ST/STM32L4xx_HAL_Driver/Src/stm32l4xx_hal_rtc.c ****   /* Check the RTC peripheral state */
 187:/home/fanxinhao/Work/LiteOS_Lab/drivers/third_party/ST/STM32L4xx_HAL_Driver/Src/stm32l4xx_hal_rtc.c ****   if(hrtc == NULL)
  45              		.loc 1 187 5
  46 0008 7B68     		ldr	r3, [r7, #4]
  47 000a 002B     		cmp	r3, #0
  48 000c 01D1     		bne	.L2
 188:/home/fanxinhao/Work/LiteOS_Lab/drivers/third_party/ST/STM32L4xx_HAL_Driver/Src/stm32l4xx_hal_rtc.c ****   {
 189:/home/fanxinhao/Work/LiteOS_Lab/drivers/third_party/ST/STM32L4xx_HAL_Driver/Src/stm32l4xx_hal_rtc.c ****      return HAL_ERROR;
  49              		.loc 1 189 13
  50 000e 0123     		movs	r3, #1
  51 0010 8CE0     		b	.L3
  52              	.L2:
 190:/home/fanxinhao/Work/LiteOS_Lab/drivers/third_party/ST/STM32L4xx_HAL_Driver/Src/stm32l4xx_hal_rtc.c ****   }
 191:/home/fanxinhao/Work/LiteOS_Lab/drivers/third_party/ST/STM32L4xx_HAL_Driver/Src/stm32l4xx_hal_rtc.c **** 
 192:/home/fanxinhao/Work/LiteOS_Lab/drivers/third_party/ST/STM32L4xx_HAL_Driver/Src/stm32l4xx_hal_rtc.c ****   /* Check the parameters */
 193:/home/fanxinhao/Work/LiteOS_Lab/drivers/third_party/ST/STM32L4xx_HAL_Driver/Src/stm32l4xx_hal_rtc.c ****   assert_param(IS_RTC_ALL_INSTANCE(hrtc->Instance));
 194:/home/fanxinhao/Work/LiteOS_Lab/drivers/third_party/ST/STM32L4xx_HAL_Driver/Src/stm32l4xx_hal_rtc.c ****   assert_param(IS_RTC_HOUR_FORMAT(hrtc->Init.HourFormat));
 195:/home/fanxinhao/Work/LiteOS_Lab/drivers/third_party/ST/STM32L4xx_HAL_Driver/Src/stm32l4xx_hal_rtc.c ****   assert_param(IS_RTC_ASYNCH_PREDIV(hrtc->Init.AsynchPrediv));
 196:/home/fanxinhao/Work/LiteOS_Lab/drivers/third_party/ST/STM32L4xx_HAL_Driver/Src/stm32l4xx_hal_rtc.c ****   assert_param(IS_RTC_SYNCH_PREDIV(hrtc->Init.SynchPrediv));
 197:/home/fanxinhao/Work/LiteOS_Lab/drivers/third_party/ST/STM32L4xx_HAL_Driver/Src/stm32l4xx_hal_rtc.c ****   assert_param(IS_RTC_OUTPUT(hrtc->Init.OutPut));
 198:/home/fanxinhao/Work/LiteOS_Lab/drivers/third_party/ST/STM32L4xx_HAL_Driver/Src/stm32l4xx_hal_rtc.c ****   assert_param(IS_RTC_OUTPUT_REMAP(hrtc->Init.OutPutRemap));
 199:/home/fanxinhao/Work/LiteOS_Lab/drivers/third_party/ST/STM32L4xx_HAL_Driver/Src/stm32l4xx_hal_rtc.c ****   assert_param(IS_RTC_OUTPUT_POL(hrtc->Init.OutPutPolarity));
 200:/home/fanxinhao/Work/LiteOS_Lab/drivers/third_party/ST/STM32L4xx_HAL_Driver/Src/stm32l4xx_hal_rtc.c ****   assert_param(IS_RTC_OUTPUT_TYPE(hrtc->Init.OutPutType));
 201:/home/fanxinhao/Work/LiteOS_Lab/drivers/third_party/ST/STM32L4xx_HAL_Driver/Src/stm32l4xx_hal_rtc.c ****   
 202:/home/fanxinhao/Work/LiteOS_Lab/drivers/third_party/ST/STM32L4xx_HAL_Driver/Src/stm32l4xx_hal_rtc.c ****   if(hrtc->State == HAL_RTC_STATE_RESET)
  53              		.loc 1 202 10
  54 0012 7B68     		ldr	r3, [r7, #4]
  55 0014 93F82130 		ldrb	r3, [r3, #33]
  56 0018 DBB2     		uxtb	r3, r3
  57              		.loc 1 202 5
  58 001a 002B     		cmp	r3, #0
  59 001c 06D1     		bne	.L4
 203:/home/fanxinhao/Work/LiteOS_Lab/drivers/third_party/ST/STM32L4xx_HAL_Driver/Src/stm32l4xx_hal_rtc.c ****   {
 204:/home/fanxinhao/Work/LiteOS_Lab/drivers/third_party/ST/STM32L4xx_HAL_Driver/Src/stm32l4xx_hal_rtc.c ****     /* Allocate lock resource and initialize it */
 205:/home/fanxinhao/Work/LiteOS_Lab/drivers/third_party/ST/STM32L4xx_HAL_Driver/Src/stm32l4xx_hal_rtc.c ****     hrtc->Lock = HAL_UNLOCKED;
  60              		.loc 1 205 16
  61 001e 7B68     		ldr	r3, [r7, #4]
  62 0020 0022     		movs	r2, #0
  63 0022 83F82020 		strb	r2, [r3, #32]
 206:/home/fanxinhao/Work/LiteOS_Lab/drivers/third_party/ST/STM32L4xx_HAL_Driver/Src/stm32l4xx_hal_rtc.c **** 
 207:/home/fanxinhao/Work/LiteOS_Lab/drivers/third_party/ST/STM32L4xx_HAL_Driver/Src/stm32l4xx_hal_rtc.c ****     /* Initialize RTC MSP */
 208:/home/fanxinhao/Work/LiteOS_Lab/drivers/third_party/ST/STM32L4xx_HAL_Driver/Src/stm32l4xx_hal_rtc.c ****     HAL_RTC_MspInit(hrtc);
  64              		.loc 1 208 5
  65 0026 7868     		ldr	r0, [r7, #4]
  66 0028 FFF7FEFF 		bl	HAL_RTC_MspInit
  67              	.L4:
 209:/home/fanxinhao/Work/LiteOS_Lab/drivers/third_party/ST/STM32L4xx_HAL_Driver/Src/stm32l4xx_hal_rtc.c ****   }
 210:/home/fanxinhao/Work/LiteOS_Lab/drivers/third_party/ST/STM32L4xx_HAL_Driver/Src/stm32l4xx_hal_rtc.c **** 
 211:/home/fanxinhao/Work/LiteOS_Lab/drivers/third_party/ST/STM32L4xx_HAL_Driver/Src/stm32l4xx_hal_rtc.c ****   /* Set RTC state */
 212:/home/fanxinhao/Work/LiteOS_Lab/drivers/third_party/ST/STM32L4xx_HAL_Driver/Src/stm32l4xx_hal_rtc.c ****   hrtc->State = HAL_RTC_STATE_BUSY;
  68              		.loc 1 212 15
  69 002c 7B68     		ldr	r3, [r7, #4]
  70 002e 0222     		movs	r2, #2
  71 0030 83F82120 		strb	r2, [r3, #33]
 213:/home/fanxinhao/Work/LiteOS_Lab/drivers/third_party/ST/STM32L4xx_HAL_Driver/Src/stm32l4xx_hal_rtc.c **** 
 214:/home/fanxinhao/Work/LiteOS_Lab/drivers/third_party/ST/STM32L4xx_HAL_Driver/Src/stm32l4xx_hal_rtc.c ****   /* Disable the write protection for RTC registers */
 215:/home/fanxinhao/Work/LiteOS_Lab/drivers/third_party/ST/STM32L4xx_HAL_Driver/Src/stm32l4xx_hal_rtc.c ****   __HAL_RTC_WRITEPROTECTION_DISABLE(hrtc);
ARM GAS  /tmp/ccXT28fZ.s 			page 6


  72              		.loc 1 215 3
  73 0034 7B68     		ldr	r3, [r7, #4]
  74 0036 1B68     		ldr	r3, [r3]
  75 0038 CA22     		movs	r2, #202
  76 003a 5A62     		str	r2, [r3, #36]
  77 003c 7B68     		ldr	r3, [r7, #4]
  78 003e 1B68     		ldr	r3, [r3]
  79 0040 5322     		movs	r2, #83
  80 0042 5A62     		str	r2, [r3, #36]
 216:/home/fanxinhao/Work/LiteOS_Lab/drivers/third_party/ST/STM32L4xx_HAL_Driver/Src/stm32l4xx_hal_rtc.c **** 
 217:/home/fanxinhao/Work/LiteOS_Lab/drivers/third_party/ST/STM32L4xx_HAL_Driver/Src/stm32l4xx_hal_rtc.c ****   /* Set Initialization mode */
 218:/home/fanxinhao/Work/LiteOS_Lab/drivers/third_party/ST/STM32L4xx_HAL_Driver/Src/stm32l4xx_hal_rtc.c ****   if(RTC_EnterInitMode(hrtc) != HAL_OK)
  81              		.loc 1 218 6
  82 0044 7868     		ldr	r0, [r7, #4]
  83 0046 FFF7FEFF 		bl	RTC_EnterInitMode
  84 004a 0346     		mov	r3, r0
  85              		.loc 1 218 5
  86 004c 002B     		cmp	r3, #0
  87 004e 09D0     		beq	.L5
 219:/home/fanxinhao/Work/LiteOS_Lab/drivers/third_party/ST/STM32L4xx_HAL_Driver/Src/stm32l4xx_hal_rtc.c ****   {
 220:/home/fanxinhao/Work/LiteOS_Lab/drivers/third_party/ST/STM32L4xx_HAL_Driver/Src/stm32l4xx_hal_rtc.c ****     /* Enable the write protection for RTC registers */
 221:/home/fanxinhao/Work/LiteOS_Lab/drivers/third_party/ST/STM32L4xx_HAL_Driver/Src/stm32l4xx_hal_rtc.c ****     __HAL_RTC_WRITEPROTECTION_ENABLE(hrtc);
  88              		.loc 1 221 5
  89 0050 7B68     		ldr	r3, [r7, #4]
  90 0052 1B68     		ldr	r3, [r3]
  91 0054 FF22     		movs	r2, #255
  92 0056 5A62     		str	r2, [r3, #36]
 222:/home/fanxinhao/Work/LiteOS_Lab/drivers/third_party/ST/STM32L4xx_HAL_Driver/Src/stm32l4xx_hal_rtc.c **** 
 223:/home/fanxinhao/Work/LiteOS_Lab/drivers/third_party/ST/STM32L4xx_HAL_Driver/Src/stm32l4xx_hal_rtc.c ****     /* Set RTC state */
 224:/home/fanxinhao/Work/LiteOS_Lab/drivers/third_party/ST/STM32L4xx_HAL_Driver/Src/stm32l4xx_hal_rtc.c ****     hrtc->State = HAL_RTC_STATE_ERROR;
  93              		.loc 1 224 17
  94 0058 7B68     		ldr	r3, [r7, #4]
  95 005a 0422     		movs	r2, #4
  96 005c 83F82120 		strb	r2, [r3, #33]
 225:/home/fanxinhao/Work/LiteOS_Lab/drivers/third_party/ST/STM32L4xx_HAL_Driver/Src/stm32l4xx_hal_rtc.c **** 
 226:/home/fanxinhao/Work/LiteOS_Lab/drivers/third_party/ST/STM32L4xx_HAL_Driver/Src/stm32l4xx_hal_rtc.c ****     return HAL_ERROR;
  97              		.loc 1 226 12
  98 0060 0123     		movs	r3, #1
  99 0062 63E0     		b	.L3
 100              	.L5:
 227:/home/fanxinhao/Work/LiteOS_Lab/drivers/third_party/ST/STM32L4xx_HAL_Driver/Src/stm32l4xx_hal_rtc.c ****   }
 228:/home/fanxinhao/Work/LiteOS_Lab/drivers/third_party/ST/STM32L4xx_HAL_Driver/Src/stm32l4xx_hal_rtc.c ****   else
 229:/home/fanxinhao/Work/LiteOS_Lab/drivers/third_party/ST/STM32L4xx_HAL_Driver/Src/stm32l4xx_hal_rtc.c ****   {
 230:/home/fanxinhao/Work/LiteOS_Lab/drivers/third_party/ST/STM32L4xx_HAL_Driver/Src/stm32l4xx_hal_rtc.c ****     /* Clear RTC_CR FMT, OSEL and POL Bits */
 231:/home/fanxinhao/Work/LiteOS_Lab/drivers/third_party/ST/STM32L4xx_HAL_Driver/Src/stm32l4xx_hal_rtc.c ****     hrtc->Instance->CR &= ((uint32_t)~(RTC_CR_FMT | RTC_CR_OSEL | RTC_CR_POL));
 101              		.loc 1 231 9
 102 0064 7B68     		ldr	r3, [r7, #4]
 103 0066 1B68     		ldr	r3, [r3]
 104              		.loc 1 231 24
 105 0068 9B68     		ldr	r3, [r3, #8]
 106              		.loc 1 231 9
 107 006a 7A68     		ldr	r2, [r7, #4]
 108 006c 1268     		ldr	r2, [r2]
 109              		.loc 1 231 24
 110 006e 23F4E003 		bic	r3, r3, #7340032
 111 0072 23F04003 		bic	r3, r3, #64
 112 0076 9360     		str	r3, [r2, #8]
ARM GAS  /tmp/ccXT28fZ.s 			page 7


 232:/home/fanxinhao/Work/LiteOS_Lab/drivers/third_party/ST/STM32L4xx_HAL_Driver/Src/stm32l4xx_hal_rtc.c ****     /* Set RTC_CR register */
 233:/home/fanxinhao/Work/LiteOS_Lab/drivers/third_party/ST/STM32L4xx_HAL_Driver/Src/stm32l4xx_hal_rtc.c ****     hrtc->Instance->CR |= (uint32_t)(hrtc->Init.HourFormat | hrtc->Init.OutPut | hrtc->Init.OutPutP
 113              		.loc 1 233 9
 114 0078 7B68     		ldr	r3, [r7, #4]
 115 007a 1B68     		ldr	r3, [r3]
 116              		.loc 1 233 24
 117 007c 9968     		ldr	r1, [r3, #8]
 118              		.loc 1 233 48
 119 007e 7B68     		ldr	r3, [r7, #4]
 120 0080 5A68     		ldr	r2, [r3, #4]
 121              		.loc 1 233 72
 122 0082 7B68     		ldr	r3, [r7, #4]
 123 0084 1B69     		ldr	r3, [r3, #16]
 124              		.loc 1 233 60
 125 0086 1A43     		orrs	r2, r2, r3
 126              		.loc 1 233 92
 127 0088 7B68     		ldr	r3, [r7, #4]
 128 008a 9B69     		ldr	r3, [r3, #24]
 129              		.loc 1 233 80
 130 008c 1A43     		orrs	r2, r2, r3
 131              		.loc 1 233 9
 132 008e 7B68     		ldr	r3, [r7, #4]
 133 0090 1B68     		ldr	r3, [r3]
 134              		.loc 1 233 24
 135 0092 0A43     		orrs	r2, r2, r1
 136 0094 9A60     		str	r2, [r3, #8]
 234:/home/fanxinhao/Work/LiteOS_Lab/drivers/third_party/ST/STM32L4xx_HAL_Driver/Src/stm32l4xx_hal_rtc.c **** 
 235:/home/fanxinhao/Work/LiteOS_Lab/drivers/third_party/ST/STM32L4xx_HAL_Driver/Src/stm32l4xx_hal_rtc.c ****     /* Configure the RTC PRER */
 236:/home/fanxinhao/Work/LiteOS_Lab/drivers/third_party/ST/STM32L4xx_HAL_Driver/Src/stm32l4xx_hal_rtc.c ****     hrtc->Instance->PRER = (uint32_t)(hrtc->Init.SynchPrediv);
 137              		.loc 1 236 9
 138 0096 7B68     		ldr	r3, [r7, #4]
 139 0098 1B68     		ldr	r3, [r3]
 140              		.loc 1 236 49
 141 009a 7A68     		ldr	r2, [r7, #4]
 142 009c D268     		ldr	r2, [r2, #12]
 143              		.loc 1 236 26
 144 009e 1A61     		str	r2, [r3, #16]
 237:/home/fanxinhao/Work/LiteOS_Lab/drivers/third_party/ST/STM32L4xx_HAL_Driver/Src/stm32l4xx_hal_rtc.c ****     hrtc->Instance->PRER |= (uint32_t)(hrtc->Init.AsynchPrediv << 16);
 145              		.loc 1 237 9
 146 00a0 7B68     		ldr	r3, [r7, #4]
 147 00a2 1B68     		ldr	r3, [r3]
 148              		.loc 1 237 26
 149 00a4 1969     		ldr	r1, [r3, #16]
 150              		.loc 1 237 50
 151 00a6 7B68     		ldr	r3, [r7, #4]
 152 00a8 9B68     		ldr	r3, [r3, #8]
 153              		.loc 1 237 64
 154 00aa 1A04     		lsls	r2, r3, #16
 155              		.loc 1 237 9
 156 00ac 7B68     		ldr	r3, [r7, #4]
 157 00ae 1B68     		ldr	r3, [r3]
 158              		.loc 1 237 26
 159 00b0 0A43     		orrs	r2, r2, r1
 160 00b2 1A61     		str	r2, [r3, #16]
 238:/home/fanxinhao/Work/LiteOS_Lab/drivers/third_party/ST/STM32L4xx_HAL_Driver/Src/stm32l4xx_hal_rtc.c **** 
 239:/home/fanxinhao/Work/LiteOS_Lab/drivers/third_party/ST/STM32L4xx_HAL_Driver/Src/stm32l4xx_hal_rtc.c ****     /* Exit Initialization mode */
 240:/home/fanxinhao/Work/LiteOS_Lab/drivers/third_party/ST/STM32L4xx_HAL_Driver/Src/stm32l4xx_hal_rtc.c ****     hrtc->Instance->ISR &= ((uint32_t)~RTC_ISR_INIT);
ARM GAS  /tmp/ccXT28fZ.s 			page 8


 161              		.loc 1 240 9
 162 00b4 7B68     		ldr	r3, [r7, #4]
 163 00b6 1B68     		ldr	r3, [r3]
 164              		.loc 1 240 25
 165 00b8 DA68     		ldr	r2, [r3, #12]
 166              		.loc 1 240 9
 167 00ba 7B68     		ldr	r3, [r7, #4]
 168 00bc 1B68     		ldr	r3, [r3]
 169              		.loc 1 240 25
 170 00be 22F08002 		bic	r2, r2, #128
 171 00c2 DA60     		str	r2, [r3, #12]
 241:/home/fanxinhao/Work/LiteOS_Lab/drivers/third_party/ST/STM32L4xx_HAL_Driver/Src/stm32l4xx_hal_rtc.c **** 
 242:/home/fanxinhao/Work/LiteOS_Lab/drivers/third_party/ST/STM32L4xx_HAL_Driver/Src/stm32l4xx_hal_rtc.c ****     /* If  CR_BYPSHAD bit = 0, wait for synchro else this check is not needed */
 243:/home/fanxinhao/Work/LiteOS_Lab/drivers/third_party/ST/STM32L4xx_HAL_Driver/Src/stm32l4xx_hal_rtc.c ****     if((hrtc->Instance->CR & RTC_CR_BYPSHAD) == RESET)
 172              		.loc 1 243 13
 173 00c4 7B68     		ldr	r3, [r7, #4]
 174 00c6 1B68     		ldr	r3, [r3]
 175              		.loc 1 243 23
 176 00c8 9B68     		ldr	r3, [r3, #8]
 177              		.loc 1 243 28
 178 00ca 03F02003 		and	r3, r3, #32
 179              		.loc 1 243 7
 180 00ce 002B     		cmp	r3, #0
 181 00d0 0FD1     		bne	.L6
 244:/home/fanxinhao/Work/LiteOS_Lab/drivers/third_party/ST/STM32L4xx_HAL_Driver/Src/stm32l4xx_hal_rtc.c ****     {
 245:/home/fanxinhao/Work/LiteOS_Lab/drivers/third_party/ST/STM32L4xx_HAL_Driver/Src/stm32l4xx_hal_rtc.c ****       if(HAL_RTC_WaitForSynchro(hrtc) != HAL_OK)
 182              		.loc 1 245 10
 183 00d2 7868     		ldr	r0, [r7, #4]
 184 00d4 FFF7FEFF 		bl	HAL_RTC_WaitForSynchro
 185 00d8 0346     		mov	r3, r0
 186              		.loc 1 245 9
 187 00da 002B     		cmp	r3, #0
 188 00dc 09D0     		beq	.L6
 246:/home/fanxinhao/Work/LiteOS_Lab/drivers/third_party/ST/STM32L4xx_HAL_Driver/Src/stm32l4xx_hal_rtc.c ****       {
 247:/home/fanxinhao/Work/LiteOS_Lab/drivers/third_party/ST/STM32L4xx_HAL_Driver/Src/stm32l4xx_hal_rtc.c ****         /* Enable the write protection for RTC registers */
 248:/home/fanxinhao/Work/LiteOS_Lab/drivers/third_party/ST/STM32L4xx_HAL_Driver/Src/stm32l4xx_hal_rtc.c ****         __HAL_RTC_WRITEPROTECTION_ENABLE(hrtc);
 189              		.loc 1 248 9
 190 00de 7B68     		ldr	r3, [r7, #4]
 191 00e0 1B68     		ldr	r3, [r3]
 192 00e2 FF22     		movs	r2, #255
 193 00e4 5A62     		str	r2, [r3, #36]
 249:/home/fanxinhao/Work/LiteOS_Lab/drivers/third_party/ST/STM32L4xx_HAL_Driver/Src/stm32l4xx_hal_rtc.c **** 
 250:/home/fanxinhao/Work/LiteOS_Lab/drivers/third_party/ST/STM32L4xx_HAL_Driver/Src/stm32l4xx_hal_rtc.c ****         hrtc->State = HAL_RTC_STATE_ERROR;
 194              		.loc 1 250 21
 195 00e6 7B68     		ldr	r3, [r7, #4]
 196 00e8 0422     		movs	r2, #4
 197 00ea 83F82120 		strb	r2, [r3, #33]
 251:/home/fanxinhao/Work/LiteOS_Lab/drivers/third_party/ST/STM32L4xx_HAL_Driver/Src/stm32l4xx_hal_rtc.c **** 
 252:/home/fanxinhao/Work/LiteOS_Lab/drivers/third_party/ST/STM32L4xx_HAL_Driver/Src/stm32l4xx_hal_rtc.c ****         return HAL_ERROR;
 198              		.loc 1 252 16
 199 00ee 0123     		movs	r3, #1
 200 00f0 1CE0     		b	.L3
 201              	.L6:
 253:/home/fanxinhao/Work/LiteOS_Lab/drivers/third_party/ST/STM32L4xx_HAL_Driver/Src/stm32l4xx_hal_rtc.c ****       }
 254:/home/fanxinhao/Work/LiteOS_Lab/drivers/third_party/ST/STM32L4xx_HAL_Driver/Src/stm32l4xx_hal_rtc.c ****     }
 255:/home/fanxinhao/Work/LiteOS_Lab/drivers/third_party/ST/STM32L4xx_HAL_Driver/Src/stm32l4xx_hal_rtc.c **** 
 256:/home/fanxinhao/Work/LiteOS_Lab/drivers/third_party/ST/STM32L4xx_HAL_Driver/Src/stm32l4xx_hal_rtc.c ****     hrtc->Instance->OR &= (uint32_t)~(RTC_OR_ALARMOUTTYPE | RTC_OR_OUT_RMP);
ARM GAS  /tmp/ccXT28fZ.s 			page 9


 202              		.loc 1 256 9
 203 00f2 7B68     		ldr	r3, [r7, #4]
 204 00f4 1B68     		ldr	r3, [r3]
 205              		.loc 1 256 24
 206 00f6 DA6C     		ldr	r2, [r3, #76]
 207              		.loc 1 256 9
 208 00f8 7B68     		ldr	r3, [r7, #4]
 209 00fa 1B68     		ldr	r3, [r3]
 210              		.loc 1 256 24
 211 00fc 22F00302 		bic	r2, r2, #3
 212 0100 DA64     		str	r2, [r3, #76]
 257:/home/fanxinhao/Work/LiteOS_Lab/drivers/third_party/ST/STM32L4xx_HAL_Driver/Src/stm32l4xx_hal_rtc.c ****     hrtc->Instance->OR |= (uint32_t)(hrtc->Init.OutPutType | hrtc->Init.OutPutRemap);
 213              		.loc 1 257 9
 214 0102 7B68     		ldr	r3, [r7, #4]
 215 0104 1B68     		ldr	r3, [r3]
 216              		.loc 1 257 24
 217 0106 D96C     		ldr	r1, [r3, #76]
 218              		.loc 1 257 48
 219 0108 7B68     		ldr	r3, [r7, #4]
 220 010a DA69     		ldr	r2, [r3, #28]
 221              		.loc 1 257 72
 222 010c 7B68     		ldr	r3, [r7, #4]
 223 010e 5B69     		ldr	r3, [r3, #20]
 224              		.loc 1 257 60
 225 0110 1A43     		orrs	r2, r2, r3
 226              		.loc 1 257 9
 227 0112 7B68     		ldr	r3, [r7, #4]
 228 0114 1B68     		ldr	r3, [r3]
 229              		.loc 1 257 24
 230 0116 0A43     		orrs	r2, r2, r1
 231 0118 DA64     		str	r2, [r3, #76]
 258:/home/fanxinhao/Work/LiteOS_Lab/drivers/third_party/ST/STM32L4xx_HAL_Driver/Src/stm32l4xx_hal_rtc.c **** 
 259:/home/fanxinhao/Work/LiteOS_Lab/drivers/third_party/ST/STM32L4xx_HAL_Driver/Src/stm32l4xx_hal_rtc.c ****     /* Enable the write protection for RTC registers */
 260:/home/fanxinhao/Work/LiteOS_Lab/drivers/third_party/ST/STM32L4xx_HAL_Driver/Src/stm32l4xx_hal_rtc.c ****     __HAL_RTC_WRITEPROTECTION_ENABLE(hrtc);
 232              		.loc 1 260 5
 233 011a 7B68     		ldr	r3, [r7, #4]
 234 011c 1B68     		ldr	r3, [r3]
 235 011e FF22     		movs	r2, #255
 236 0120 5A62     		str	r2, [r3, #36]
 261:/home/fanxinhao/Work/LiteOS_Lab/drivers/third_party/ST/STM32L4xx_HAL_Driver/Src/stm32l4xx_hal_rtc.c **** 
 262:/home/fanxinhao/Work/LiteOS_Lab/drivers/third_party/ST/STM32L4xx_HAL_Driver/Src/stm32l4xx_hal_rtc.c ****     /* Set RTC state */
 263:/home/fanxinhao/Work/LiteOS_Lab/drivers/third_party/ST/STM32L4xx_HAL_Driver/Src/stm32l4xx_hal_rtc.c ****     hrtc->State = HAL_RTC_STATE_READY;
 237              		.loc 1 263 17
 238 0122 7B68     		ldr	r3, [r7, #4]
 239 0124 0122     		movs	r2, #1
 240 0126 83F82120 		strb	r2, [r3, #33]
 264:/home/fanxinhao/Work/LiteOS_Lab/drivers/third_party/ST/STM32L4xx_HAL_Driver/Src/stm32l4xx_hal_rtc.c **** 
 265:/home/fanxinhao/Work/LiteOS_Lab/drivers/third_party/ST/STM32L4xx_HAL_Driver/Src/stm32l4xx_hal_rtc.c ****     return HAL_OK;
 241              		.loc 1 265 12
 242 012a 0023     		movs	r3, #0
 243              	.L3:
 266:/home/fanxinhao/Work/LiteOS_Lab/drivers/third_party/ST/STM32L4xx_HAL_Driver/Src/stm32l4xx_hal_rtc.c ****   }
 267:/home/fanxinhao/Work/LiteOS_Lab/drivers/third_party/ST/STM32L4xx_HAL_Driver/Src/stm32l4xx_hal_rtc.c **** }
 244              		.loc 1 267 1
 245 012c 1846     		mov	r0, r3
 246 012e 0837     		adds	r7, r7, #8
 247              	.LCFI3:
ARM GAS  /tmp/ccXT28fZ.s 			page 10


 248              		.cfi_def_cfa_offset 8
 249 0130 BD46     		mov	sp, r7
 250              	.LCFI4:
 251              		.cfi_def_cfa_register 13
 252              		@ sp needed
 253 0132 80BD     		pop	{r7, pc}
 254              		.cfi_endproc
 255              	.LFE126:
 257              		.section	.text.HAL_RTC_DeInit,"ax",%progbits
 258              		.align	1
 259              		.global	HAL_RTC_DeInit
 260              		.syntax unified
 261              		.thumb
 262              		.thumb_func
 263              		.fpu fpv4-sp-d16
 265              	HAL_RTC_DeInit:
 266              	.LFB127:
 268:/home/fanxinhao/Work/LiteOS_Lab/drivers/third_party/ST/STM32L4xx_HAL_Driver/Src/stm32l4xx_hal_rtc.c **** 
 269:/home/fanxinhao/Work/LiteOS_Lab/drivers/third_party/ST/STM32L4xx_HAL_Driver/Src/stm32l4xx_hal_rtc.c **** /**
 270:/home/fanxinhao/Work/LiteOS_Lab/drivers/third_party/ST/STM32L4xx_HAL_Driver/Src/stm32l4xx_hal_rtc.c ****   * @brief  DeInitialize the RTC peripheral.
 271:/home/fanxinhao/Work/LiteOS_Lab/drivers/third_party/ST/STM32L4xx_HAL_Driver/Src/stm32l4xx_hal_rtc.c ****   * @param  hrtc: RTC handle
 272:/home/fanxinhao/Work/LiteOS_Lab/drivers/third_party/ST/STM32L4xx_HAL_Driver/Src/stm32l4xx_hal_rtc.c ****   * @note   This function doesn't reset the RTC Backup Data registers.
 273:/home/fanxinhao/Work/LiteOS_Lab/drivers/third_party/ST/STM32L4xx_HAL_Driver/Src/stm32l4xx_hal_rtc.c ****   * @retval HAL status
 274:/home/fanxinhao/Work/LiteOS_Lab/drivers/third_party/ST/STM32L4xx_HAL_Driver/Src/stm32l4xx_hal_rtc.c ****   */
 275:/home/fanxinhao/Work/LiteOS_Lab/drivers/third_party/ST/STM32L4xx_HAL_Driver/Src/stm32l4xx_hal_rtc.c **** HAL_StatusTypeDef HAL_RTC_DeInit(RTC_HandleTypeDef *hrtc)
 276:/home/fanxinhao/Work/LiteOS_Lab/drivers/third_party/ST/STM32L4xx_HAL_Driver/Src/stm32l4xx_hal_rtc.c **** {
 267              		.loc 1 276 1
 268              		.cfi_startproc
 269              		@ args = 0, pretend = 0, frame = 16
 270              		@ frame_needed = 1, uses_anonymous_args = 0
 271 0000 80B5     		push	{r7, lr}
 272              	.LCFI5:
 273              		.cfi_def_cfa_offset 8
 274              		.cfi_offset 7, -8
 275              		.cfi_offset 14, -4
 276 0002 84B0     		sub	sp, sp, #16
 277              	.LCFI6:
 278              		.cfi_def_cfa_offset 24
 279 0004 00AF     		add	r7, sp, #0
 280              	.LCFI7:
 281              		.cfi_def_cfa_register 7
 282 0006 7860     		str	r0, [r7, #4]
 277:/home/fanxinhao/Work/LiteOS_Lab/drivers/third_party/ST/STM32L4xx_HAL_Driver/Src/stm32l4xx_hal_rtc.c ****   uint32_t tickstart = 0;
 283              		.loc 1 277 12
 284 0008 0023     		movs	r3, #0
 285 000a FB60     		str	r3, [r7, #12]
 278:/home/fanxinhao/Work/LiteOS_Lab/drivers/third_party/ST/STM32L4xx_HAL_Driver/Src/stm32l4xx_hal_rtc.c **** 
 279:/home/fanxinhao/Work/LiteOS_Lab/drivers/third_party/ST/STM32L4xx_HAL_Driver/Src/stm32l4xx_hal_rtc.c ****   /* Check the parameters */
 280:/home/fanxinhao/Work/LiteOS_Lab/drivers/third_party/ST/STM32L4xx_HAL_Driver/Src/stm32l4xx_hal_rtc.c ****   assert_param(IS_RTC_ALL_INSTANCE(hrtc->Instance));
 281:/home/fanxinhao/Work/LiteOS_Lab/drivers/third_party/ST/STM32L4xx_HAL_Driver/Src/stm32l4xx_hal_rtc.c **** 
 282:/home/fanxinhao/Work/LiteOS_Lab/drivers/third_party/ST/STM32L4xx_HAL_Driver/Src/stm32l4xx_hal_rtc.c ****   /* Set RTC state */
 283:/home/fanxinhao/Work/LiteOS_Lab/drivers/third_party/ST/STM32L4xx_HAL_Driver/Src/stm32l4xx_hal_rtc.c ****   hrtc->State = HAL_RTC_STATE_BUSY;
 286              		.loc 1 283 15
 287 000c 7B68     		ldr	r3, [r7, #4]
 288 000e 0222     		movs	r2, #2
 289 0010 83F82120 		strb	r2, [r3, #33]
 284:/home/fanxinhao/Work/LiteOS_Lab/drivers/third_party/ST/STM32L4xx_HAL_Driver/Src/stm32l4xx_hal_rtc.c **** 
ARM GAS  /tmp/ccXT28fZ.s 			page 11


 285:/home/fanxinhao/Work/LiteOS_Lab/drivers/third_party/ST/STM32L4xx_HAL_Driver/Src/stm32l4xx_hal_rtc.c ****   /* Disable the write protection for RTC registers */
 286:/home/fanxinhao/Work/LiteOS_Lab/drivers/third_party/ST/STM32L4xx_HAL_Driver/Src/stm32l4xx_hal_rtc.c ****   __HAL_RTC_WRITEPROTECTION_DISABLE(hrtc);
 290              		.loc 1 286 3
 291 0014 7B68     		ldr	r3, [r7, #4]
 292 0016 1B68     		ldr	r3, [r3]
 293 0018 CA22     		movs	r2, #202
 294 001a 5A62     		str	r2, [r3, #36]
 295 001c 7B68     		ldr	r3, [r7, #4]
 296 001e 1B68     		ldr	r3, [r3]
 297 0020 5322     		movs	r2, #83
 298 0022 5A62     		str	r2, [r3, #36]
 287:/home/fanxinhao/Work/LiteOS_Lab/drivers/third_party/ST/STM32L4xx_HAL_Driver/Src/stm32l4xx_hal_rtc.c **** 
 288:/home/fanxinhao/Work/LiteOS_Lab/drivers/third_party/ST/STM32L4xx_HAL_Driver/Src/stm32l4xx_hal_rtc.c ****   /* Set Initialization mode */
 289:/home/fanxinhao/Work/LiteOS_Lab/drivers/third_party/ST/STM32L4xx_HAL_Driver/Src/stm32l4xx_hal_rtc.c ****   if(RTC_EnterInitMode(hrtc) != HAL_OK)
 299              		.loc 1 289 6
 300 0024 7868     		ldr	r0, [r7, #4]
 301 0026 FFF7FEFF 		bl	RTC_EnterInitMode
 302 002a 0346     		mov	r3, r0
 303              		.loc 1 289 5
 304 002c 002B     		cmp	r3, #0
 305 002e 09D0     		beq	.L8
 290:/home/fanxinhao/Work/LiteOS_Lab/drivers/third_party/ST/STM32L4xx_HAL_Driver/Src/stm32l4xx_hal_rtc.c ****   {
 291:/home/fanxinhao/Work/LiteOS_Lab/drivers/third_party/ST/STM32L4xx_HAL_Driver/Src/stm32l4xx_hal_rtc.c ****     /* Enable the write protection for RTC registers */
 292:/home/fanxinhao/Work/LiteOS_Lab/drivers/third_party/ST/STM32L4xx_HAL_Driver/Src/stm32l4xx_hal_rtc.c ****     __HAL_RTC_WRITEPROTECTION_ENABLE(hrtc);
 306              		.loc 1 292 5
 307 0030 7B68     		ldr	r3, [r7, #4]
 308 0032 1B68     		ldr	r3, [r3]
 309 0034 FF22     		movs	r2, #255
 310 0036 5A62     		str	r2, [r3, #36]
 293:/home/fanxinhao/Work/LiteOS_Lab/drivers/third_party/ST/STM32L4xx_HAL_Driver/Src/stm32l4xx_hal_rtc.c **** 
 294:/home/fanxinhao/Work/LiteOS_Lab/drivers/third_party/ST/STM32L4xx_HAL_Driver/Src/stm32l4xx_hal_rtc.c ****     /* Set RTC state */
 295:/home/fanxinhao/Work/LiteOS_Lab/drivers/third_party/ST/STM32L4xx_HAL_Driver/Src/stm32l4xx_hal_rtc.c ****     hrtc->State = HAL_RTC_STATE_ERROR;
 311              		.loc 1 295 17
 312 0038 7B68     		ldr	r3, [r7, #4]
 313 003a 0422     		movs	r2, #4
 314 003c 83F82120 		strb	r2, [r3, #33]
 296:/home/fanxinhao/Work/LiteOS_Lab/drivers/third_party/ST/STM32L4xx_HAL_Driver/Src/stm32l4xx_hal_rtc.c **** 
 297:/home/fanxinhao/Work/LiteOS_Lab/drivers/third_party/ST/STM32L4xx_HAL_Driver/Src/stm32l4xx_hal_rtc.c ****     return HAL_ERROR;
 315              		.loc 1 297 12
 316 0040 0123     		movs	r3, #1
 317 0042 88E0     		b	.L9
 318              	.L8:
 298:/home/fanxinhao/Work/LiteOS_Lab/drivers/third_party/ST/STM32L4xx_HAL_Driver/Src/stm32l4xx_hal_rtc.c ****   }
 299:/home/fanxinhao/Work/LiteOS_Lab/drivers/third_party/ST/STM32L4xx_HAL_Driver/Src/stm32l4xx_hal_rtc.c ****   else
 300:/home/fanxinhao/Work/LiteOS_Lab/drivers/third_party/ST/STM32L4xx_HAL_Driver/Src/stm32l4xx_hal_rtc.c ****   {
 301:/home/fanxinhao/Work/LiteOS_Lab/drivers/third_party/ST/STM32L4xx_HAL_Driver/Src/stm32l4xx_hal_rtc.c ****     /* Reset TR, DR and CR registers */
 302:/home/fanxinhao/Work/LiteOS_Lab/drivers/third_party/ST/STM32L4xx_HAL_Driver/Src/stm32l4xx_hal_rtc.c ****     hrtc->Instance->TR = (uint32_t)0x00000000;
 319              		.loc 1 302 9
 320 0044 7B68     		ldr	r3, [r7, #4]
 321 0046 1B68     		ldr	r3, [r3]
 322              		.loc 1 302 24
 323 0048 0022     		movs	r2, #0
 324 004a 1A60     		str	r2, [r3]
 303:/home/fanxinhao/Work/LiteOS_Lab/drivers/third_party/ST/STM32L4xx_HAL_Driver/Src/stm32l4xx_hal_rtc.c ****     hrtc->Instance->DR = ((uint32_t)(RTC_DR_WDU_0 | RTC_DR_MU_0 | RTC_DR_DU_0));
 325              		.loc 1 303 9
 326 004c 7B68     		ldr	r3, [r7, #4]
 327 004e 1B68     		ldr	r3, [r3]
ARM GAS  /tmp/ccXT28fZ.s 			page 12


 328              		.loc 1 303 24
 329 0050 42F20112 		movw	r2, #8449
 330 0054 5A60     		str	r2, [r3, #4]
 304:/home/fanxinhao/Work/LiteOS_Lab/drivers/third_party/ST/STM32L4xx_HAL_Driver/Src/stm32l4xx_hal_rtc.c ****     /* Reset All CR bits except CR[2:0] */
 305:/home/fanxinhao/Work/LiteOS_Lab/drivers/third_party/ST/STM32L4xx_HAL_Driver/Src/stm32l4xx_hal_rtc.c ****     hrtc->Instance->CR &= RTC_CR_WUCKSEL;
 331              		.loc 1 305 9
 332 0056 7B68     		ldr	r3, [r7, #4]
 333 0058 1B68     		ldr	r3, [r3]
 334              		.loc 1 305 24
 335 005a 9A68     		ldr	r2, [r3, #8]
 336              		.loc 1 305 9
 337 005c 7B68     		ldr	r3, [r7, #4]
 338 005e 1B68     		ldr	r3, [r3]
 339              		.loc 1 305 24
 340 0060 02F00702 		and	r2, r2, #7
 341 0064 9A60     		str	r2, [r3, #8]
 306:/home/fanxinhao/Work/LiteOS_Lab/drivers/third_party/ST/STM32L4xx_HAL_Driver/Src/stm32l4xx_hal_rtc.c **** 
 307:/home/fanxinhao/Work/LiteOS_Lab/drivers/third_party/ST/STM32L4xx_HAL_Driver/Src/stm32l4xx_hal_rtc.c ****     tickstart = HAL_GetTick();
 342              		.loc 1 307 17
 343 0066 FFF7FEFF 		bl	HAL_GetTick
 344 006a F860     		str	r0, [r7, #12]
 308:/home/fanxinhao/Work/LiteOS_Lab/drivers/third_party/ST/STM32L4xx_HAL_Driver/Src/stm32l4xx_hal_rtc.c **** 
 309:/home/fanxinhao/Work/LiteOS_Lab/drivers/third_party/ST/STM32L4xx_HAL_Driver/Src/stm32l4xx_hal_rtc.c ****     /* Wait till WUTWF flag is set and if Time out is reached exit */
 310:/home/fanxinhao/Work/LiteOS_Lab/drivers/third_party/ST/STM32L4xx_HAL_Driver/Src/stm32l4xx_hal_rtc.c ****     while(((hrtc->Instance->ISR) & RTC_ISR_WUTWF) == (uint32_t)RESET)
 345              		.loc 1 310 10
 346 006c 11E0     		b	.L10
 347              	.L11:
 311:/home/fanxinhao/Work/LiteOS_Lab/drivers/third_party/ST/STM32L4xx_HAL_Driver/Src/stm32l4xx_hal_rtc.c ****     {
 312:/home/fanxinhao/Work/LiteOS_Lab/drivers/third_party/ST/STM32L4xx_HAL_Driver/Src/stm32l4xx_hal_rtc.c ****       if((HAL_GetTick() - tickstart ) > RTC_TIMEOUT_VALUE)
 348              		.loc 1 312 11
 349 006e FFF7FEFF 		bl	HAL_GetTick
 350 0072 0246     		mov	r2, r0
 351              		.loc 1 312 25
 352 0074 FB68     		ldr	r3, [r7, #12]
 353 0076 D31A     		subs	r3, r2, r3
 354              		.loc 1 312 9
 355 0078 B3F57A7F 		cmp	r3, #1000
 356 007c 09D9     		bls	.L10
 313:/home/fanxinhao/Work/LiteOS_Lab/drivers/third_party/ST/STM32L4xx_HAL_Driver/Src/stm32l4xx_hal_rtc.c ****       {
 314:/home/fanxinhao/Work/LiteOS_Lab/drivers/third_party/ST/STM32L4xx_HAL_Driver/Src/stm32l4xx_hal_rtc.c ****         /* Enable the write protection for RTC registers */
 315:/home/fanxinhao/Work/LiteOS_Lab/drivers/third_party/ST/STM32L4xx_HAL_Driver/Src/stm32l4xx_hal_rtc.c ****         __HAL_RTC_WRITEPROTECTION_ENABLE(hrtc);
 357              		.loc 1 315 9
 358 007e 7B68     		ldr	r3, [r7, #4]
 359 0080 1B68     		ldr	r3, [r3]
 360 0082 FF22     		movs	r2, #255
 361 0084 5A62     		str	r2, [r3, #36]
 316:/home/fanxinhao/Work/LiteOS_Lab/drivers/third_party/ST/STM32L4xx_HAL_Driver/Src/stm32l4xx_hal_rtc.c **** 
 317:/home/fanxinhao/Work/LiteOS_Lab/drivers/third_party/ST/STM32L4xx_HAL_Driver/Src/stm32l4xx_hal_rtc.c ****         /* Set RTC state */
 318:/home/fanxinhao/Work/LiteOS_Lab/drivers/third_party/ST/STM32L4xx_HAL_Driver/Src/stm32l4xx_hal_rtc.c ****         hrtc->State = HAL_RTC_STATE_TIMEOUT;
 362              		.loc 1 318 21
 363 0086 7B68     		ldr	r3, [r7, #4]
 364 0088 0322     		movs	r2, #3
 365 008a 83F82120 		strb	r2, [r3, #33]
 319:/home/fanxinhao/Work/LiteOS_Lab/drivers/third_party/ST/STM32L4xx_HAL_Driver/Src/stm32l4xx_hal_rtc.c **** 
 320:/home/fanxinhao/Work/LiteOS_Lab/drivers/third_party/ST/STM32L4xx_HAL_Driver/Src/stm32l4xx_hal_rtc.c ****         return HAL_TIMEOUT;
 366              		.loc 1 320 16
 367 008e 0323     		movs	r3, #3
ARM GAS  /tmp/ccXT28fZ.s 			page 13


 368 0090 61E0     		b	.L9
 369              	.L10:
 310:/home/fanxinhao/Work/LiteOS_Lab/drivers/third_party/ST/STM32L4xx_HAL_Driver/Src/stm32l4xx_hal_rtc.c ****     {
 370              		.loc 1 310 17
 371 0092 7B68     		ldr	r3, [r7, #4]
 372 0094 1B68     		ldr	r3, [r3]
 310:/home/fanxinhao/Work/LiteOS_Lab/drivers/third_party/ST/STM32L4xx_HAL_Driver/Src/stm32l4xx_hal_rtc.c ****     {
 373              		.loc 1 310 27
 374 0096 DB68     		ldr	r3, [r3, #12]
 310:/home/fanxinhao/Work/LiteOS_Lab/drivers/third_party/ST/STM32L4xx_HAL_Driver/Src/stm32l4xx_hal_rtc.c ****     {
 375              		.loc 1 310 34
 376 0098 03F00403 		and	r3, r3, #4
 310:/home/fanxinhao/Work/LiteOS_Lab/drivers/third_party/ST/STM32L4xx_HAL_Driver/Src/stm32l4xx_hal_rtc.c ****     {
 377              		.loc 1 310 10
 378 009c 002B     		cmp	r3, #0
 379 009e E6D0     		beq	.L11
 321:/home/fanxinhao/Work/LiteOS_Lab/drivers/third_party/ST/STM32L4xx_HAL_Driver/Src/stm32l4xx_hal_rtc.c ****       }
 322:/home/fanxinhao/Work/LiteOS_Lab/drivers/third_party/ST/STM32L4xx_HAL_Driver/Src/stm32l4xx_hal_rtc.c ****     }
 323:/home/fanxinhao/Work/LiteOS_Lab/drivers/third_party/ST/STM32L4xx_HAL_Driver/Src/stm32l4xx_hal_rtc.c **** 
 324:/home/fanxinhao/Work/LiteOS_Lab/drivers/third_party/ST/STM32L4xx_HAL_Driver/Src/stm32l4xx_hal_rtc.c ****     /* Reset all RTC CR register bits */
 325:/home/fanxinhao/Work/LiteOS_Lab/drivers/third_party/ST/STM32L4xx_HAL_Driver/Src/stm32l4xx_hal_rtc.c ****     hrtc->Instance->CR &= (uint32_t)0x00000000;
 380              		.loc 1 325 9
 381 00a0 7B68     		ldr	r3, [r7, #4]
 382 00a2 1B68     		ldr	r3, [r3]
 383              		.loc 1 325 24
 384 00a4 9B68     		ldr	r3, [r3, #8]
 385              		.loc 1 325 9
 386 00a6 7B68     		ldr	r3, [r7, #4]
 387 00a8 1B68     		ldr	r3, [r3]
 388              		.loc 1 325 24
 389 00aa 0022     		movs	r2, #0
 390 00ac 9A60     		str	r2, [r3, #8]
 326:/home/fanxinhao/Work/LiteOS_Lab/drivers/third_party/ST/STM32L4xx_HAL_Driver/Src/stm32l4xx_hal_rtc.c ****     hrtc->Instance->WUTR = RTC_WUTR_WUT;
 391              		.loc 1 326 9
 392 00ae 7B68     		ldr	r3, [r7, #4]
 393 00b0 1B68     		ldr	r3, [r3]
 394              		.loc 1 326 26
 395 00b2 4FF6FF72 		movw	r2, #65535
 396 00b6 5A61     		str	r2, [r3, #20]
 327:/home/fanxinhao/Work/LiteOS_Lab/drivers/third_party/ST/STM32L4xx_HAL_Driver/Src/stm32l4xx_hal_rtc.c ****     hrtc->Instance->PRER = ((uint32_t)(RTC_PRER_PREDIV_A | 0x000000FF));
 397              		.loc 1 327 9
 398 00b8 7B68     		ldr	r3, [r7, #4]
 399 00ba 1B68     		ldr	r3, [r3]
 400              		.loc 1 327 26
 401 00bc 284A     		ldr	r2, .L13
 402 00be 1A61     		str	r2, [r3, #16]
 328:/home/fanxinhao/Work/LiteOS_Lab/drivers/third_party/ST/STM32L4xx_HAL_Driver/Src/stm32l4xx_hal_rtc.c ****     hrtc->Instance->ALRMAR = (uint32_t)0x00000000;
 403              		.loc 1 328 9
 404 00c0 7B68     		ldr	r3, [r7, #4]
 405 00c2 1B68     		ldr	r3, [r3]
 406              		.loc 1 328 28
 407 00c4 0022     		movs	r2, #0
 408 00c6 DA61     		str	r2, [r3, #28]
 329:/home/fanxinhao/Work/LiteOS_Lab/drivers/third_party/ST/STM32L4xx_HAL_Driver/Src/stm32l4xx_hal_rtc.c ****     hrtc->Instance->ALRMBR = (uint32_t)0x00000000;
 409              		.loc 1 329 9
 410 00c8 7B68     		ldr	r3, [r7, #4]
 411 00ca 1B68     		ldr	r3, [r3]
ARM GAS  /tmp/ccXT28fZ.s 			page 14


 412              		.loc 1 329 28
 413 00cc 0022     		movs	r2, #0
 414 00ce 1A62     		str	r2, [r3, #32]
 330:/home/fanxinhao/Work/LiteOS_Lab/drivers/third_party/ST/STM32L4xx_HAL_Driver/Src/stm32l4xx_hal_rtc.c ****     hrtc->Instance->SHIFTR = (uint32_t)0x00000000;
 415              		.loc 1 330 9
 416 00d0 7B68     		ldr	r3, [r7, #4]
 417 00d2 1B68     		ldr	r3, [r3]
 418              		.loc 1 330 28
 419 00d4 0022     		movs	r2, #0
 420 00d6 DA62     		str	r2, [r3, #44]
 331:/home/fanxinhao/Work/LiteOS_Lab/drivers/third_party/ST/STM32L4xx_HAL_Driver/Src/stm32l4xx_hal_rtc.c ****     hrtc->Instance->CALR = (uint32_t)0x00000000;
 421              		.loc 1 331 9
 422 00d8 7B68     		ldr	r3, [r7, #4]
 423 00da 1B68     		ldr	r3, [r3]
 424              		.loc 1 331 26
 425 00dc 0022     		movs	r2, #0
 426 00de DA63     		str	r2, [r3, #60]
 332:/home/fanxinhao/Work/LiteOS_Lab/drivers/third_party/ST/STM32L4xx_HAL_Driver/Src/stm32l4xx_hal_rtc.c ****     hrtc->Instance->ALRMASSR = (uint32_t)0x00000000;
 427              		.loc 1 332 9
 428 00e0 7B68     		ldr	r3, [r7, #4]
 429 00e2 1B68     		ldr	r3, [r3]
 430              		.loc 1 332 30
 431 00e4 0022     		movs	r2, #0
 432 00e6 5A64     		str	r2, [r3, #68]
 333:/home/fanxinhao/Work/LiteOS_Lab/drivers/third_party/ST/STM32L4xx_HAL_Driver/Src/stm32l4xx_hal_rtc.c ****     hrtc->Instance->ALRMBSSR = (uint32_t)0x00000000;
 433              		.loc 1 333 9
 434 00e8 7B68     		ldr	r3, [r7, #4]
 435 00ea 1B68     		ldr	r3, [r3]
 436              		.loc 1 333 30
 437 00ec 0022     		movs	r2, #0
 438 00ee 9A64     		str	r2, [r3, #72]
 334:/home/fanxinhao/Work/LiteOS_Lab/drivers/third_party/ST/STM32L4xx_HAL_Driver/Src/stm32l4xx_hal_rtc.c **** 
 335:/home/fanxinhao/Work/LiteOS_Lab/drivers/third_party/ST/STM32L4xx_HAL_Driver/Src/stm32l4xx_hal_rtc.c ****     /* Reset ISR register and exit initialization mode */
 336:/home/fanxinhao/Work/LiteOS_Lab/drivers/third_party/ST/STM32L4xx_HAL_Driver/Src/stm32l4xx_hal_rtc.c ****     hrtc->Instance->ISR = (uint32_t)0x00000000;
 439              		.loc 1 336 9
 440 00f0 7B68     		ldr	r3, [r7, #4]
 441 00f2 1B68     		ldr	r3, [r3]
 442              		.loc 1 336 25
 443 00f4 0022     		movs	r2, #0
 444 00f6 DA60     		str	r2, [r3, #12]
 337:/home/fanxinhao/Work/LiteOS_Lab/drivers/third_party/ST/STM32L4xx_HAL_Driver/Src/stm32l4xx_hal_rtc.c **** 
 338:/home/fanxinhao/Work/LiteOS_Lab/drivers/third_party/ST/STM32L4xx_HAL_Driver/Src/stm32l4xx_hal_rtc.c ****     /* Reset Tamper configuration register */
 339:/home/fanxinhao/Work/LiteOS_Lab/drivers/third_party/ST/STM32L4xx_HAL_Driver/Src/stm32l4xx_hal_rtc.c ****     hrtc->Instance->TAMPCR = 0x00000000;
 445              		.loc 1 339 9
 446 00f8 7B68     		ldr	r3, [r7, #4]
 447 00fa 1B68     		ldr	r3, [r3]
 448              		.loc 1 339 28
 449 00fc 0022     		movs	r2, #0
 450 00fe 1A64     		str	r2, [r3, #64]
 340:/home/fanxinhao/Work/LiteOS_Lab/drivers/third_party/ST/STM32L4xx_HAL_Driver/Src/stm32l4xx_hal_rtc.c **** 
 341:/home/fanxinhao/Work/LiteOS_Lab/drivers/third_party/ST/STM32L4xx_HAL_Driver/Src/stm32l4xx_hal_rtc.c ****     /* Reset Option register */
 342:/home/fanxinhao/Work/LiteOS_Lab/drivers/third_party/ST/STM32L4xx_HAL_Driver/Src/stm32l4xx_hal_rtc.c ****     hrtc->Instance->OR = 0x00000000;
 451              		.loc 1 342 9
 452 0100 7B68     		ldr	r3, [r7, #4]
 453 0102 1B68     		ldr	r3, [r3]
 454              		.loc 1 342 24
 455 0104 0022     		movs	r2, #0
ARM GAS  /tmp/ccXT28fZ.s 			page 15


 456 0106 DA64     		str	r2, [r3, #76]
 343:/home/fanxinhao/Work/LiteOS_Lab/drivers/third_party/ST/STM32L4xx_HAL_Driver/Src/stm32l4xx_hal_rtc.c **** 
 344:/home/fanxinhao/Work/LiteOS_Lab/drivers/third_party/ST/STM32L4xx_HAL_Driver/Src/stm32l4xx_hal_rtc.c ****     /* If  RTC_CR_BYPSHAD bit = 0, wait for synchro else this check is not needed */
 345:/home/fanxinhao/Work/LiteOS_Lab/drivers/third_party/ST/STM32L4xx_HAL_Driver/Src/stm32l4xx_hal_rtc.c ****     if((hrtc->Instance->CR & RTC_CR_BYPSHAD) == RESET)
 457              		.loc 1 345 13
 458 0108 7B68     		ldr	r3, [r7, #4]
 459 010a 1B68     		ldr	r3, [r3]
 460              		.loc 1 345 23
 461 010c 9B68     		ldr	r3, [r3, #8]
 462              		.loc 1 345 28
 463 010e 03F02003 		and	r3, r3, #32
 464              		.loc 1 345 7
 465 0112 002B     		cmp	r3, #0
 466 0114 0FD1     		bne	.L12
 346:/home/fanxinhao/Work/LiteOS_Lab/drivers/third_party/ST/STM32L4xx_HAL_Driver/Src/stm32l4xx_hal_rtc.c ****     {
 347:/home/fanxinhao/Work/LiteOS_Lab/drivers/third_party/ST/STM32L4xx_HAL_Driver/Src/stm32l4xx_hal_rtc.c ****       if(HAL_RTC_WaitForSynchro(hrtc) != HAL_OK)
 467              		.loc 1 347 10
 468 0116 7868     		ldr	r0, [r7, #4]
 469 0118 FFF7FEFF 		bl	HAL_RTC_WaitForSynchro
 470 011c 0346     		mov	r3, r0
 471              		.loc 1 347 9
 472 011e 002B     		cmp	r3, #0
 473 0120 09D0     		beq	.L12
 348:/home/fanxinhao/Work/LiteOS_Lab/drivers/third_party/ST/STM32L4xx_HAL_Driver/Src/stm32l4xx_hal_rtc.c ****       {
 349:/home/fanxinhao/Work/LiteOS_Lab/drivers/third_party/ST/STM32L4xx_HAL_Driver/Src/stm32l4xx_hal_rtc.c ****         /* Enable the write protection for RTC registers */
 350:/home/fanxinhao/Work/LiteOS_Lab/drivers/third_party/ST/STM32L4xx_HAL_Driver/Src/stm32l4xx_hal_rtc.c ****         __HAL_RTC_WRITEPROTECTION_ENABLE(hrtc);  
 474              		.loc 1 350 9
 475 0122 7B68     		ldr	r3, [r7, #4]
 476 0124 1B68     		ldr	r3, [r3]
 477 0126 FF22     		movs	r2, #255
 478 0128 5A62     		str	r2, [r3, #36]
 351:/home/fanxinhao/Work/LiteOS_Lab/drivers/third_party/ST/STM32L4xx_HAL_Driver/Src/stm32l4xx_hal_rtc.c **** 
 352:/home/fanxinhao/Work/LiteOS_Lab/drivers/third_party/ST/STM32L4xx_HAL_Driver/Src/stm32l4xx_hal_rtc.c ****         hrtc->State = HAL_RTC_STATE_ERROR;
 479              		.loc 1 352 21
 480 012a 7B68     		ldr	r3, [r7, #4]
 481 012c 0422     		movs	r2, #4
 482 012e 83F82120 		strb	r2, [r3, #33]
 353:/home/fanxinhao/Work/LiteOS_Lab/drivers/third_party/ST/STM32L4xx_HAL_Driver/Src/stm32l4xx_hal_rtc.c **** 
 354:/home/fanxinhao/Work/LiteOS_Lab/drivers/third_party/ST/STM32L4xx_HAL_Driver/Src/stm32l4xx_hal_rtc.c ****         return HAL_ERROR;
 483              		.loc 1 354 16
 484 0132 0123     		movs	r3, #1
 485 0134 0FE0     		b	.L9
 486              	.L12:
 355:/home/fanxinhao/Work/LiteOS_Lab/drivers/third_party/ST/STM32L4xx_HAL_Driver/Src/stm32l4xx_hal_rtc.c ****       }
 356:/home/fanxinhao/Work/LiteOS_Lab/drivers/third_party/ST/STM32L4xx_HAL_Driver/Src/stm32l4xx_hal_rtc.c ****     }
 357:/home/fanxinhao/Work/LiteOS_Lab/drivers/third_party/ST/STM32L4xx_HAL_Driver/Src/stm32l4xx_hal_rtc.c ****   }
 358:/home/fanxinhao/Work/LiteOS_Lab/drivers/third_party/ST/STM32L4xx_HAL_Driver/Src/stm32l4xx_hal_rtc.c **** 
 359:/home/fanxinhao/Work/LiteOS_Lab/drivers/third_party/ST/STM32L4xx_HAL_Driver/Src/stm32l4xx_hal_rtc.c ****   /* Enable the write protection for RTC registers */
 360:/home/fanxinhao/Work/LiteOS_Lab/drivers/third_party/ST/STM32L4xx_HAL_Driver/Src/stm32l4xx_hal_rtc.c ****   __HAL_RTC_WRITEPROTECTION_ENABLE(hrtc);
 487              		.loc 1 360 3
 488 0136 7B68     		ldr	r3, [r7, #4]
 489 0138 1B68     		ldr	r3, [r3]
 490 013a FF22     		movs	r2, #255
 491 013c 5A62     		str	r2, [r3, #36]
 361:/home/fanxinhao/Work/LiteOS_Lab/drivers/third_party/ST/STM32L4xx_HAL_Driver/Src/stm32l4xx_hal_rtc.c **** 
 362:/home/fanxinhao/Work/LiteOS_Lab/drivers/third_party/ST/STM32L4xx_HAL_Driver/Src/stm32l4xx_hal_rtc.c ****   /* De-Initialize RTC MSP */
 363:/home/fanxinhao/Work/LiteOS_Lab/drivers/third_party/ST/STM32L4xx_HAL_Driver/Src/stm32l4xx_hal_rtc.c ****   HAL_RTC_MspDeInit(hrtc);
ARM GAS  /tmp/ccXT28fZ.s 			page 16


 492              		.loc 1 363 3
 493 013e 7868     		ldr	r0, [r7, #4]
 494 0140 FFF7FEFF 		bl	HAL_RTC_MspDeInit
 364:/home/fanxinhao/Work/LiteOS_Lab/drivers/third_party/ST/STM32L4xx_HAL_Driver/Src/stm32l4xx_hal_rtc.c **** 
 365:/home/fanxinhao/Work/LiteOS_Lab/drivers/third_party/ST/STM32L4xx_HAL_Driver/Src/stm32l4xx_hal_rtc.c ****   hrtc->State = HAL_RTC_STATE_RESET;
 495              		.loc 1 365 15
 496 0144 7B68     		ldr	r3, [r7, #4]
 497 0146 0022     		movs	r2, #0
 498 0148 83F82120 		strb	r2, [r3, #33]
 366:/home/fanxinhao/Work/LiteOS_Lab/drivers/third_party/ST/STM32L4xx_HAL_Driver/Src/stm32l4xx_hal_rtc.c ****   
 367:/home/fanxinhao/Work/LiteOS_Lab/drivers/third_party/ST/STM32L4xx_HAL_Driver/Src/stm32l4xx_hal_rtc.c ****   /* Release Lock */
 368:/home/fanxinhao/Work/LiteOS_Lab/drivers/third_party/ST/STM32L4xx_HAL_Driver/Src/stm32l4xx_hal_rtc.c ****   __HAL_UNLOCK(hrtc);
 499              		.loc 1 368 3
 500 014c 7B68     		ldr	r3, [r7, #4]
 501 014e 0022     		movs	r2, #0
 502 0150 83F82020 		strb	r2, [r3, #32]
 369:/home/fanxinhao/Work/LiteOS_Lab/drivers/third_party/ST/STM32L4xx_HAL_Driver/Src/stm32l4xx_hal_rtc.c **** 
 370:/home/fanxinhao/Work/LiteOS_Lab/drivers/third_party/ST/STM32L4xx_HAL_Driver/Src/stm32l4xx_hal_rtc.c ****   return HAL_OK;
 503              		.loc 1 370 10
 504 0154 0023     		movs	r3, #0
 505              	.L9:
 371:/home/fanxinhao/Work/LiteOS_Lab/drivers/third_party/ST/STM32L4xx_HAL_Driver/Src/stm32l4xx_hal_rtc.c **** }
 506              		.loc 1 371 1
 507 0156 1846     		mov	r0, r3
 508 0158 1037     		adds	r7, r7, #16
 509              	.LCFI8:
 510              		.cfi_def_cfa_offset 8
 511 015a BD46     		mov	sp, r7
 512              	.LCFI9:
 513              		.cfi_def_cfa_register 13
 514              		@ sp needed
 515 015c 80BD     		pop	{r7, pc}
 516              	.L14:
 517 015e 00BF     		.align	2
 518              	.L13:
 519 0160 FF007F00 		.word	8323327
 520              		.cfi_endproc
 521              	.LFE127:
 523              		.section	.text.HAL_RTC_MspInit,"ax",%progbits
 524              		.align	1
 525              		.weak	HAL_RTC_MspInit
 526              		.syntax unified
 527              		.thumb
 528              		.thumb_func
 529              		.fpu fpv4-sp-d16
 531              	HAL_RTC_MspInit:
 532              	.LFB128:
 372:/home/fanxinhao/Work/LiteOS_Lab/drivers/third_party/ST/STM32L4xx_HAL_Driver/Src/stm32l4xx_hal_rtc.c **** 
 373:/home/fanxinhao/Work/LiteOS_Lab/drivers/third_party/ST/STM32L4xx_HAL_Driver/Src/stm32l4xx_hal_rtc.c **** /**
 374:/home/fanxinhao/Work/LiteOS_Lab/drivers/third_party/ST/STM32L4xx_HAL_Driver/Src/stm32l4xx_hal_rtc.c ****   * @brief  Initialize the RTC MSP.
 375:/home/fanxinhao/Work/LiteOS_Lab/drivers/third_party/ST/STM32L4xx_HAL_Driver/Src/stm32l4xx_hal_rtc.c ****   * @param  hrtc: RTC handle  
 376:/home/fanxinhao/Work/LiteOS_Lab/drivers/third_party/ST/STM32L4xx_HAL_Driver/Src/stm32l4xx_hal_rtc.c ****   * @retval None
 377:/home/fanxinhao/Work/LiteOS_Lab/drivers/third_party/ST/STM32L4xx_HAL_Driver/Src/stm32l4xx_hal_rtc.c ****   */
 378:/home/fanxinhao/Work/LiteOS_Lab/drivers/third_party/ST/STM32L4xx_HAL_Driver/Src/stm32l4xx_hal_rtc.c **** __weak void HAL_RTC_MspInit(RTC_HandleTypeDef* hrtc)
 379:/home/fanxinhao/Work/LiteOS_Lab/drivers/third_party/ST/STM32L4xx_HAL_Driver/Src/stm32l4xx_hal_rtc.c **** {
 533              		.loc 1 379 1
 534              		.cfi_startproc
ARM GAS  /tmp/ccXT28fZ.s 			page 17


 535              		@ args = 0, pretend = 0, frame = 8
 536              		@ frame_needed = 1, uses_anonymous_args = 0
 537              		@ link register save eliminated.
 538 0000 80B4     		push	{r7}
 539              	.LCFI10:
 540              		.cfi_def_cfa_offset 4
 541              		.cfi_offset 7, -4
 542 0002 83B0     		sub	sp, sp, #12
 543              	.LCFI11:
 544              		.cfi_def_cfa_offset 16
 545 0004 00AF     		add	r7, sp, #0
 546              	.LCFI12:
 547              		.cfi_def_cfa_register 7
 548 0006 7860     		str	r0, [r7, #4]
 380:/home/fanxinhao/Work/LiteOS_Lab/drivers/third_party/ST/STM32L4xx_HAL_Driver/Src/stm32l4xx_hal_rtc.c ****   /* Prevent unused argument(s) compilation warning */
 381:/home/fanxinhao/Work/LiteOS_Lab/drivers/third_party/ST/STM32L4xx_HAL_Driver/Src/stm32l4xx_hal_rtc.c ****   UNUSED(hrtc);
 382:/home/fanxinhao/Work/LiteOS_Lab/drivers/third_party/ST/STM32L4xx_HAL_Driver/Src/stm32l4xx_hal_rtc.c **** 
 383:/home/fanxinhao/Work/LiteOS_Lab/drivers/third_party/ST/STM32L4xx_HAL_Driver/Src/stm32l4xx_hal_rtc.c ****   /* NOTE : This function should not be modified, when the callback is needed,
 384:/home/fanxinhao/Work/LiteOS_Lab/drivers/third_party/ST/STM32L4xx_HAL_Driver/Src/stm32l4xx_hal_rtc.c ****             the HAL_RTC_MspInit could be implemented in the user file
 385:/home/fanxinhao/Work/LiteOS_Lab/drivers/third_party/ST/STM32L4xx_HAL_Driver/Src/stm32l4xx_hal_rtc.c ****    */
 386:/home/fanxinhao/Work/LiteOS_Lab/drivers/third_party/ST/STM32L4xx_HAL_Driver/Src/stm32l4xx_hal_rtc.c **** }
 549              		.loc 1 386 1
 550 0008 00BF     		nop
 551 000a 0C37     		adds	r7, r7, #12
 552              	.LCFI13:
 553              		.cfi_def_cfa_offset 4
 554 000c BD46     		mov	sp, r7
 555              	.LCFI14:
 556              		.cfi_def_cfa_register 13
 557              		@ sp needed
 558 000e 5DF8047B 		ldr	r7, [sp], #4
 559              	.LCFI15:
 560              		.cfi_restore 7
 561              		.cfi_def_cfa_offset 0
 562 0012 7047     		bx	lr
 563              		.cfi_endproc
 564              	.LFE128:
 566              		.section	.text.HAL_RTC_MspDeInit,"ax",%progbits
 567              		.align	1
 568              		.weak	HAL_RTC_MspDeInit
 569              		.syntax unified
 570              		.thumb
 571              		.thumb_func
 572              		.fpu fpv4-sp-d16
 574              	HAL_RTC_MspDeInit:
 575              	.LFB129:
 387:/home/fanxinhao/Work/LiteOS_Lab/drivers/third_party/ST/STM32L4xx_HAL_Driver/Src/stm32l4xx_hal_rtc.c **** 
 388:/home/fanxinhao/Work/LiteOS_Lab/drivers/third_party/ST/STM32L4xx_HAL_Driver/Src/stm32l4xx_hal_rtc.c **** /**
 389:/home/fanxinhao/Work/LiteOS_Lab/drivers/third_party/ST/STM32L4xx_HAL_Driver/Src/stm32l4xx_hal_rtc.c ****   * @brief  DeInitialize the RTC MSP.
 390:/home/fanxinhao/Work/LiteOS_Lab/drivers/third_party/ST/STM32L4xx_HAL_Driver/Src/stm32l4xx_hal_rtc.c ****   * @param  hrtc: RTC handle 
 391:/home/fanxinhao/Work/LiteOS_Lab/drivers/third_party/ST/STM32L4xx_HAL_Driver/Src/stm32l4xx_hal_rtc.c ****   * @retval None
 392:/home/fanxinhao/Work/LiteOS_Lab/drivers/third_party/ST/STM32L4xx_HAL_Driver/Src/stm32l4xx_hal_rtc.c ****   */
 393:/home/fanxinhao/Work/LiteOS_Lab/drivers/third_party/ST/STM32L4xx_HAL_Driver/Src/stm32l4xx_hal_rtc.c **** __weak void HAL_RTC_MspDeInit(RTC_HandleTypeDef* hrtc)
 394:/home/fanxinhao/Work/LiteOS_Lab/drivers/third_party/ST/STM32L4xx_HAL_Driver/Src/stm32l4xx_hal_rtc.c **** {
 576              		.loc 1 394 1
 577              		.cfi_startproc
 578              		@ args = 0, pretend = 0, frame = 8
ARM GAS  /tmp/ccXT28fZ.s 			page 18


 579              		@ frame_needed = 1, uses_anonymous_args = 0
 580              		@ link register save eliminated.
 581 0000 80B4     		push	{r7}
 582              	.LCFI16:
 583              		.cfi_def_cfa_offset 4
 584              		.cfi_offset 7, -4
 585 0002 83B0     		sub	sp, sp, #12
 586              	.LCFI17:
 587              		.cfi_def_cfa_offset 16
 588 0004 00AF     		add	r7, sp, #0
 589              	.LCFI18:
 590              		.cfi_def_cfa_register 7
 591 0006 7860     		str	r0, [r7, #4]
 395:/home/fanxinhao/Work/LiteOS_Lab/drivers/third_party/ST/STM32L4xx_HAL_Driver/Src/stm32l4xx_hal_rtc.c ****   /* Prevent unused argument(s) compilation warning */
 396:/home/fanxinhao/Work/LiteOS_Lab/drivers/third_party/ST/STM32L4xx_HAL_Driver/Src/stm32l4xx_hal_rtc.c ****   UNUSED(hrtc);
 397:/home/fanxinhao/Work/LiteOS_Lab/drivers/third_party/ST/STM32L4xx_HAL_Driver/Src/stm32l4xx_hal_rtc.c **** 
 398:/home/fanxinhao/Work/LiteOS_Lab/drivers/third_party/ST/STM32L4xx_HAL_Driver/Src/stm32l4xx_hal_rtc.c ****   /* NOTE : This function should not be modified, when the callback is needed,
 399:/home/fanxinhao/Work/LiteOS_Lab/drivers/third_party/ST/STM32L4xx_HAL_Driver/Src/stm32l4xx_hal_rtc.c ****             the HAL_RTC_MspDeInit could be implemented in the user file
 400:/home/fanxinhao/Work/LiteOS_Lab/drivers/third_party/ST/STM32L4xx_HAL_Driver/Src/stm32l4xx_hal_rtc.c ****    */ 
 401:/home/fanxinhao/Work/LiteOS_Lab/drivers/third_party/ST/STM32L4xx_HAL_Driver/Src/stm32l4xx_hal_rtc.c **** }
 592              		.loc 1 401 1
 593 0008 00BF     		nop
 594 000a 0C37     		adds	r7, r7, #12
 595              	.LCFI19:
 596              		.cfi_def_cfa_offset 4
 597 000c BD46     		mov	sp, r7
 598              	.LCFI20:
 599              		.cfi_def_cfa_register 13
 600              		@ sp needed
 601 000e 5DF8047B 		ldr	r7, [sp], #4
 602              	.LCFI21:
 603              		.cfi_restore 7
 604              		.cfi_def_cfa_offset 0
 605 0012 7047     		bx	lr
 606              		.cfi_endproc
 607              	.LFE129:
 609              		.section	.text.HAL_RTC_SetTime,"ax",%progbits
 610              		.align	1
 611              		.global	HAL_RTC_SetTime
 612              		.syntax unified
 613              		.thumb
 614              		.thumb_func
 615              		.fpu fpv4-sp-d16
 617              	HAL_RTC_SetTime:
 618              	.LFB130:
 402:/home/fanxinhao/Work/LiteOS_Lab/drivers/third_party/ST/STM32L4xx_HAL_Driver/Src/stm32l4xx_hal_rtc.c **** 
 403:/home/fanxinhao/Work/LiteOS_Lab/drivers/third_party/ST/STM32L4xx_HAL_Driver/Src/stm32l4xx_hal_rtc.c **** /**
 404:/home/fanxinhao/Work/LiteOS_Lab/drivers/third_party/ST/STM32L4xx_HAL_Driver/Src/stm32l4xx_hal_rtc.c ****   * @}
 405:/home/fanxinhao/Work/LiteOS_Lab/drivers/third_party/ST/STM32L4xx_HAL_Driver/Src/stm32l4xx_hal_rtc.c ****   */
 406:/home/fanxinhao/Work/LiteOS_Lab/drivers/third_party/ST/STM32L4xx_HAL_Driver/Src/stm32l4xx_hal_rtc.c **** 
 407:/home/fanxinhao/Work/LiteOS_Lab/drivers/third_party/ST/STM32L4xx_HAL_Driver/Src/stm32l4xx_hal_rtc.c **** /** @defgroup RTC_Exported_Functions_Group2 RTC Time and Date functions
 408:/home/fanxinhao/Work/LiteOS_Lab/drivers/third_party/ST/STM32L4xx_HAL_Driver/Src/stm32l4xx_hal_rtc.c ****  *  @brief   RTC Time and Date functions
 409:/home/fanxinhao/Work/LiteOS_Lab/drivers/third_party/ST/STM32L4xx_HAL_Driver/Src/stm32l4xx_hal_rtc.c ****  *
 410:/home/fanxinhao/Work/LiteOS_Lab/drivers/third_party/ST/STM32L4xx_HAL_Driver/Src/stm32l4xx_hal_rtc.c **** @verbatim
 411:/home/fanxinhao/Work/LiteOS_Lab/drivers/third_party/ST/STM32L4xx_HAL_Driver/Src/stm32l4xx_hal_rtc.c ****  ===============================================================================
 412:/home/fanxinhao/Work/LiteOS_Lab/drivers/third_party/ST/STM32L4xx_HAL_Driver/Src/stm32l4xx_hal_rtc.c ****                  ##### RTC Time and Date functions #####
 413:/home/fanxinhao/Work/LiteOS_Lab/drivers/third_party/ST/STM32L4xx_HAL_Driver/Src/stm32l4xx_hal_rtc.c ****  ===============================================================================
ARM GAS  /tmp/ccXT28fZ.s 			page 19


 414:/home/fanxinhao/Work/LiteOS_Lab/drivers/third_party/ST/STM32L4xx_HAL_Driver/Src/stm32l4xx_hal_rtc.c ****  
 415:/home/fanxinhao/Work/LiteOS_Lab/drivers/third_party/ST/STM32L4xx_HAL_Driver/Src/stm32l4xx_hal_rtc.c ****  [..] This section provides functions allowing to configure Time and Date features
 416:/home/fanxinhao/Work/LiteOS_Lab/drivers/third_party/ST/STM32L4xx_HAL_Driver/Src/stm32l4xx_hal_rtc.c **** 
 417:/home/fanxinhao/Work/LiteOS_Lab/drivers/third_party/ST/STM32L4xx_HAL_Driver/Src/stm32l4xx_hal_rtc.c **** @endverbatim
 418:/home/fanxinhao/Work/LiteOS_Lab/drivers/third_party/ST/STM32L4xx_HAL_Driver/Src/stm32l4xx_hal_rtc.c ****   * @{
 419:/home/fanxinhao/Work/LiteOS_Lab/drivers/third_party/ST/STM32L4xx_HAL_Driver/Src/stm32l4xx_hal_rtc.c ****   */
 420:/home/fanxinhao/Work/LiteOS_Lab/drivers/third_party/ST/STM32L4xx_HAL_Driver/Src/stm32l4xx_hal_rtc.c **** 
 421:/home/fanxinhao/Work/LiteOS_Lab/drivers/third_party/ST/STM32L4xx_HAL_Driver/Src/stm32l4xx_hal_rtc.c **** /**
 422:/home/fanxinhao/Work/LiteOS_Lab/drivers/third_party/ST/STM32L4xx_HAL_Driver/Src/stm32l4xx_hal_rtc.c ****   * @brief  Set RTC current time.
 423:/home/fanxinhao/Work/LiteOS_Lab/drivers/third_party/ST/STM32L4xx_HAL_Driver/Src/stm32l4xx_hal_rtc.c ****   * @param  hrtc: RTC handle
 424:/home/fanxinhao/Work/LiteOS_Lab/drivers/third_party/ST/STM32L4xx_HAL_Driver/Src/stm32l4xx_hal_rtc.c ****   * @param  sTime: Pointer to Time structure
 425:/home/fanxinhao/Work/LiteOS_Lab/drivers/third_party/ST/STM32L4xx_HAL_Driver/Src/stm32l4xx_hal_rtc.c ****   * @param  Format: Specifies the format of the entered parameters.
 426:/home/fanxinhao/Work/LiteOS_Lab/drivers/third_party/ST/STM32L4xx_HAL_Driver/Src/stm32l4xx_hal_rtc.c ****   *          This parameter can be one of the following values:
 427:/home/fanxinhao/Work/LiteOS_Lab/drivers/third_party/ST/STM32L4xx_HAL_Driver/Src/stm32l4xx_hal_rtc.c ****   *            @arg RTC_FORMAT_BIN: Binary data format 
 428:/home/fanxinhao/Work/LiteOS_Lab/drivers/third_party/ST/STM32L4xx_HAL_Driver/Src/stm32l4xx_hal_rtc.c ****   *            @arg RTC_FORMAT_BCD: BCD data format
 429:/home/fanxinhao/Work/LiteOS_Lab/drivers/third_party/ST/STM32L4xx_HAL_Driver/Src/stm32l4xx_hal_rtc.c ****   * @retval HAL status
 430:/home/fanxinhao/Work/LiteOS_Lab/drivers/third_party/ST/STM32L4xx_HAL_Driver/Src/stm32l4xx_hal_rtc.c ****   */
 431:/home/fanxinhao/Work/LiteOS_Lab/drivers/third_party/ST/STM32L4xx_HAL_Driver/Src/stm32l4xx_hal_rtc.c **** HAL_StatusTypeDef HAL_RTC_SetTime(RTC_HandleTypeDef *hrtc, RTC_TimeTypeDef *sTime, uint32_t Format)
 432:/home/fanxinhao/Work/LiteOS_Lab/drivers/third_party/ST/STM32L4xx_HAL_Driver/Src/stm32l4xx_hal_rtc.c **** {
 619              		.loc 1 432 1
 620              		.cfi_startproc
 621              		@ args = 0, pretend = 0, frame = 24
 622              		@ frame_needed = 1, uses_anonymous_args = 0
 623 0000 90B5     		push	{r4, r7, lr}
 624              	.LCFI22:
 625              		.cfi_def_cfa_offset 12
 626              		.cfi_offset 4, -12
 627              		.cfi_offset 7, -8
 628              		.cfi_offset 14, -4
 629 0002 87B0     		sub	sp, sp, #28
 630              	.LCFI23:
 631              		.cfi_def_cfa_offset 40
 632 0004 00AF     		add	r7, sp, #0
 633              	.LCFI24:
 634              		.cfi_def_cfa_register 7
 635 0006 F860     		str	r0, [r7, #12]
 636 0008 B960     		str	r1, [r7, #8]
 637 000a 7A60     		str	r2, [r7, #4]
 433:/home/fanxinhao/Work/LiteOS_Lab/drivers/third_party/ST/STM32L4xx_HAL_Driver/Src/stm32l4xx_hal_rtc.c ****   uint32_t tmpreg = 0;
 638              		.loc 1 433 12
 639 000c 0023     		movs	r3, #0
 640 000e 7B61     		str	r3, [r7, #20]
 434:/home/fanxinhao/Work/LiteOS_Lab/drivers/third_party/ST/STM32L4xx_HAL_Driver/Src/stm32l4xx_hal_rtc.c **** 
 435:/home/fanxinhao/Work/LiteOS_Lab/drivers/third_party/ST/STM32L4xx_HAL_Driver/Src/stm32l4xx_hal_rtc.c ****  /* Check the parameters */
 436:/home/fanxinhao/Work/LiteOS_Lab/drivers/third_party/ST/STM32L4xx_HAL_Driver/Src/stm32l4xx_hal_rtc.c ****   assert_param(IS_RTC_FORMAT(Format));
 437:/home/fanxinhao/Work/LiteOS_Lab/drivers/third_party/ST/STM32L4xx_HAL_Driver/Src/stm32l4xx_hal_rtc.c ****   assert_param(IS_RTC_DAYLIGHT_SAVING(sTime->DayLightSaving));
 438:/home/fanxinhao/Work/LiteOS_Lab/drivers/third_party/ST/STM32L4xx_HAL_Driver/Src/stm32l4xx_hal_rtc.c ****   assert_param(IS_RTC_STORE_OPERATION(sTime->StoreOperation));
 439:/home/fanxinhao/Work/LiteOS_Lab/drivers/third_party/ST/STM32L4xx_HAL_Driver/Src/stm32l4xx_hal_rtc.c **** 
 440:/home/fanxinhao/Work/LiteOS_Lab/drivers/third_party/ST/STM32L4xx_HAL_Driver/Src/stm32l4xx_hal_rtc.c ****   /* Process Locked */ 
 441:/home/fanxinhao/Work/LiteOS_Lab/drivers/third_party/ST/STM32L4xx_HAL_Driver/Src/stm32l4xx_hal_rtc.c ****   __HAL_LOCK(hrtc);
 641              		.loc 1 441 3
 642 0010 FB68     		ldr	r3, [r7, #12]
 643 0012 93F82030 		ldrb	r3, [r3, #32]	@ zero_extendqisi2
 644 0016 012B     		cmp	r3, #1
 645 0018 01D1     		bne	.L18
 646              		.loc 1 441 3 is_stmt 0 discriminator 1
 647 001a 0223     		movs	r3, #2
ARM GAS  /tmp/ccXT28fZ.s 			page 20


 648 001c BAE0     		b	.L19
 649              	.L18:
 650              		.loc 1 441 3 discriminator 2
 651 001e FB68     		ldr	r3, [r7, #12]
 652 0020 0122     		movs	r2, #1
 653 0022 83F82020 		strb	r2, [r3, #32]
 442:/home/fanxinhao/Work/LiteOS_Lab/drivers/third_party/ST/STM32L4xx_HAL_Driver/Src/stm32l4xx_hal_rtc.c **** 
 443:/home/fanxinhao/Work/LiteOS_Lab/drivers/third_party/ST/STM32L4xx_HAL_Driver/Src/stm32l4xx_hal_rtc.c ****   hrtc->State = HAL_RTC_STATE_BUSY;
 654              		.loc 1 443 15 is_stmt 1 discriminator 2
 655 0026 FB68     		ldr	r3, [r7, #12]
 656 0028 0222     		movs	r2, #2
 657 002a 83F82120 		strb	r2, [r3, #33]
 444:/home/fanxinhao/Work/LiteOS_Lab/drivers/third_party/ST/STM32L4xx_HAL_Driver/Src/stm32l4xx_hal_rtc.c **** 
 445:/home/fanxinhao/Work/LiteOS_Lab/drivers/third_party/ST/STM32L4xx_HAL_Driver/Src/stm32l4xx_hal_rtc.c ****   if(Format == RTC_FORMAT_BIN)
 658              		.loc 1 445 5 discriminator 2
 659 002e 7B68     		ldr	r3, [r7, #4]
 660 0030 002B     		cmp	r3, #0
 661 0032 26D1     		bne	.L20
 446:/home/fanxinhao/Work/LiteOS_Lab/drivers/third_party/ST/STM32L4xx_HAL_Driver/Src/stm32l4xx_hal_rtc.c ****   {
 447:/home/fanxinhao/Work/LiteOS_Lab/drivers/third_party/ST/STM32L4xx_HAL_Driver/Src/stm32l4xx_hal_rtc.c ****     if((hrtc->Instance->CR & RTC_CR_FMT) != (uint32_t)RESET)
 662              		.loc 1 447 13
 663 0034 FB68     		ldr	r3, [r7, #12]
 664 0036 1B68     		ldr	r3, [r3]
 665              		.loc 1 447 23
 666 0038 9B68     		ldr	r3, [r3, #8]
 667              		.loc 1 447 28
 668 003a 03F04003 		and	r3, r3, #64
 669              		.loc 1 447 7
 670 003e 002B     		cmp	r3, #0
 671 0040 02D1     		bne	.L21
 448:/home/fanxinhao/Work/LiteOS_Lab/drivers/third_party/ST/STM32L4xx_HAL_Driver/Src/stm32l4xx_hal_rtc.c ****     {
 449:/home/fanxinhao/Work/LiteOS_Lab/drivers/third_party/ST/STM32L4xx_HAL_Driver/Src/stm32l4xx_hal_rtc.c ****       assert_param(IS_RTC_HOUR12(sTime->Hours));
 450:/home/fanxinhao/Work/LiteOS_Lab/drivers/third_party/ST/STM32L4xx_HAL_Driver/Src/stm32l4xx_hal_rtc.c ****       assert_param(IS_RTC_HOURFORMAT12(sTime->TimeFormat));
 451:/home/fanxinhao/Work/LiteOS_Lab/drivers/third_party/ST/STM32L4xx_HAL_Driver/Src/stm32l4xx_hal_rtc.c ****     }
 452:/home/fanxinhao/Work/LiteOS_Lab/drivers/third_party/ST/STM32L4xx_HAL_Driver/Src/stm32l4xx_hal_rtc.c ****     else
 453:/home/fanxinhao/Work/LiteOS_Lab/drivers/third_party/ST/STM32L4xx_HAL_Driver/Src/stm32l4xx_hal_rtc.c ****     {
 454:/home/fanxinhao/Work/LiteOS_Lab/drivers/third_party/ST/STM32L4xx_HAL_Driver/Src/stm32l4xx_hal_rtc.c ****       sTime->TimeFormat = 0x00;
 672              		.loc 1 454 25
 673 0042 BB68     		ldr	r3, [r7, #8]
 674 0044 0022     		movs	r2, #0
 675 0046 DA70     		strb	r2, [r3, #3]
 676              	.L21:
 455:/home/fanxinhao/Work/LiteOS_Lab/drivers/third_party/ST/STM32L4xx_HAL_Driver/Src/stm32l4xx_hal_rtc.c ****       assert_param(IS_RTC_HOUR24(sTime->Hours));
 456:/home/fanxinhao/Work/LiteOS_Lab/drivers/third_party/ST/STM32L4xx_HAL_Driver/Src/stm32l4xx_hal_rtc.c ****     }
 457:/home/fanxinhao/Work/LiteOS_Lab/drivers/third_party/ST/STM32L4xx_HAL_Driver/Src/stm32l4xx_hal_rtc.c ****     assert_param(IS_RTC_MINUTES(sTime->Minutes));
 458:/home/fanxinhao/Work/LiteOS_Lab/drivers/third_party/ST/STM32L4xx_HAL_Driver/Src/stm32l4xx_hal_rtc.c ****     assert_param(IS_RTC_SECONDS(sTime->Seconds));
 459:/home/fanxinhao/Work/LiteOS_Lab/drivers/third_party/ST/STM32L4xx_HAL_Driver/Src/stm32l4xx_hal_rtc.c **** 
 460:/home/fanxinhao/Work/LiteOS_Lab/drivers/third_party/ST/STM32L4xx_HAL_Driver/Src/stm32l4xx_hal_rtc.c ****     tmpreg = (uint32_t)(((uint32_t)RTC_ByteToBcd2(sTime->Hours) << 16) | \
 677              		.loc 1 460 36
 678 0048 BB68     		ldr	r3, [r7, #8]
 679 004a 1B78     		ldrb	r3, [r3]	@ zero_extendqisi2
 680 004c 1846     		mov	r0, r3
 681 004e FFF7FEFF 		bl	RTC_ByteToBcd2
 682 0052 0346     		mov	r3, r0
 683              		.loc 1 460 65
 684 0054 1C04     		lsls	r4, r3, #16
 461:/home/fanxinhao/Work/LiteOS_Lab/drivers/third_party/ST/STM32L4xx_HAL_Driver/Src/stm32l4xx_hal_rtc.c ****                         ((uint32_t)RTC_ByteToBcd2(sTime->Minutes) << 8) | \
ARM GAS  /tmp/ccXT28fZ.s 			page 21


 685              		.loc 1 461 36
 686 0056 BB68     		ldr	r3, [r7, #8]
 687 0058 5B78     		ldrb	r3, [r3, #1]	@ zero_extendqisi2
 688 005a 1846     		mov	r0, r3
 689 005c FFF7FEFF 		bl	RTC_ByteToBcd2
 690 0060 0346     		mov	r3, r0
 691              		.loc 1 461 67
 692 0062 1B02     		lsls	r3, r3, #8
 460:/home/fanxinhao/Work/LiteOS_Lab/drivers/third_party/ST/STM32L4xx_HAL_Driver/Src/stm32l4xx_hal_rtc.c ****                         ((uint32_t)RTC_ByteToBcd2(sTime->Minutes) << 8) | \
 693              		.loc 1 460 72
 694 0064 1C43     		orrs	r4, r4, r3
 462:/home/fanxinhao/Work/LiteOS_Lab/drivers/third_party/ST/STM32L4xx_HAL_Driver/Src/stm32l4xx_hal_rtc.c ****                         ((uint32_t)RTC_ByteToBcd2(sTime->Seconds)) | \
 695              		.loc 1 462 36
 696 0066 BB68     		ldr	r3, [r7, #8]
 697 0068 9B78     		ldrb	r3, [r3, #2]	@ zero_extendqisi2
 698 006a 1846     		mov	r0, r3
 699 006c FFF7FEFF 		bl	RTC_ByteToBcd2
 700 0070 0346     		mov	r3, r0
 461:/home/fanxinhao/Work/LiteOS_Lab/drivers/third_party/ST/STM32L4xx_HAL_Driver/Src/stm32l4xx_hal_rtc.c ****                         ((uint32_t)RTC_ByteToBcd2(sTime->Minutes) << 8) | \
 701              		.loc 1 461 73
 702 0072 44EA0302 		orr	r2, r4, r3
 463:/home/fanxinhao/Work/LiteOS_Lab/drivers/third_party/ST/STM32L4xx_HAL_Driver/Src/stm32l4xx_hal_rtc.c ****                         (((uint32_t)sTime->TimeFormat) << 16));
 703              		.loc 1 463 42
 704 0076 BB68     		ldr	r3, [r7, #8]
 705 0078 DB78     		ldrb	r3, [r3, #3]	@ zero_extendqisi2
 706              		.loc 1 463 56
 707 007a 1B04     		lsls	r3, r3, #16
 460:/home/fanxinhao/Work/LiteOS_Lab/drivers/third_party/ST/STM32L4xx_HAL_Driver/Src/stm32l4xx_hal_rtc.c ****                         ((uint32_t)RTC_ByteToBcd2(sTime->Minutes) << 8) | \
 708              		.loc 1 460 12
 709 007c 1343     		orrs	r3, r3, r2
 710 007e 7B61     		str	r3, [r7, #20]
 711 0080 20E0     		b	.L22
 712              	.L20:
 464:/home/fanxinhao/Work/LiteOS_Lab/drivers/third_party/ST/STM32L4xx_HAL_Driver/Src/stm32l4xx_hal_rtc.c ****   }
 465:/home/fanxinhao/Work/LiteOS_Lab/drivers/third_party/ST/STM32L4xx_HAL_Driver/Src/stm32l4xx_hal_rtc.c ****   else
 466:/home/fanxinhao/Work/LiteOS_Lab/drivers/third_party/ST/STM32L4xx_HAL_Driver/Src/stm32l4xx_hal_rtc.c ****   {
 467:/home/fanxinhao/Work/LiteOS_Lab/drivers/third_party/ST/STM32L4xx_HAL_Driver/Src/stm32l4xx_hal_rtc.c ****     if((hrtc->Instance->CR & RTC_CR_FMT) != (uint32_t)RESET)
 713              		.loc 1 467 13
 714 0082 FB68     		ldr	r3, [r7, #12]
 715 0084 1B68     		ldr	r3, [r3]
 716              		.loc 1 467 23
 717 0086 9B68     		ldr	r3, [r3, #8]
 718              		.loc 1 467 28
 719 0088 03F04003 		and	r3, r3, #64
 720              		.loc 1 467 7
 721 008c 002B     		cmp	r3, #0
 722 008e 07D0     		beq	.L23
 468:/home/fanxinhao/Work/LiteOS_Lab/drivers/third_party/ST/STM32L4xx_HAL_Driver/Src/stm32l4xx_hal_rtc.c ****     {
 469:/home/fanxinhao/Work/LiteOS_Lab/drivers/third_party/ST/STM32L4xx_HAL_Driver/Src/stm32l4xx_hal_rtc.c ****       tmpreg = RTC_Bcd2ToByte(sTime->Hours);
 723              		.loc 1 469 16
 724 0090 BB68     		ldr	r3, [r7, #8]
 725 0092 1B78     		ldrb	r3, [r3]	@ zero_extendqisi2
 726 0094 1846     		mov	r0, r3
 727 0096 FFF7FEFF 		bl	RTC_Bcd2ToByte
 728 009a 0346     		mov	r3, r0
 729              		.loc 1 469 14
 730 009c 7B61     		str	r3, [r7, #20]
ARM GAS  /tmp/ccXT28fZ.s 			page 22


 731 009e 02E0     		b	.L24
 732              	.L23:
 470:/home/fanxinhao/Work/LiteOS_Lab/drivers/third_party/ST/STM32L4xx_HAL_Driver/Src/stm32l4xx_hal_rtc.c ****       assert_param(IS_RTC_HOUR12(tmpreg));
 471:/home/fanxinhao/Work/LiteOS_Lab/drivers/third_party/ST/STM32L4xx_HAL_Driver/Src/stm32l4xx_hal_rtc.c ****       assert_param(IS_RTC_HOURFORMAT12(sTime->TimeFormat));
 472:/home/fanxinhao/Work/LiteOS_Lab/drivers/third_party/ST/STM32L4xx_HAL_Driver/Src/stm32l4xx_hal_rtc.c ****     }
 473:/home/fanxinhao/Work/LiteOS_Lab/drivers/third_party/ST/STM32L4xx_HAL_Driver/Src/stm32l4xx_hal_rtc.c ****     else
 474:/home/fanxinhao/Work/LiteOS_Lab/drivers/third_party/ST/STM32L4xx_HAL_Driver/Src/stm32l4xx_hal_rtc.c ****     {
 475:/home/fanxinhao/Work/LiteOS_Lab/drivers/third_party/ST/STM32L4xx_HAL_Driver/Src/stm32l4xx_hal_rtc.c ****       sTime->TimeFormat = 0x00;
 733              		.loc 1 475 25
 734 00a0 BB68     		ldr	r3, [r7, #8]
 735 00a2 0022     		movs	r2, #0
 736 00a4 DA70     		strb	r2, [r3, #3]
 737              	.L24:
 476:/home/fanxinhao/Work/LiteOS_Lab/drivers/third_party/ST/STM32L4xx_HAL_Driver/Src/stm32l4xx_hal_rtc.c ****       assert_param(IS_RTC_HOUR24(RTC_Bcd2ToByte(sTime->Hours)));
 477:/home/fanxinhao/Work/LiteOS_Lab/drivers/third_party/ST/STM32L4xx_HAL_Driver/Src/stm32l4xx_hal_rtc.c ****     }
 478:/home/fanxinhao/Work/LiteOS_Lab/drivers/third_party/ST/STM32L4xx_HAL_Driver/Src/stm32l4xx_hal_rtc.c ****     assert_param(IS_RTC_MINUTES(RTC_Bcd2ToByte(sTime->Minutes)));
 479:/home/fanxinhao/Work/LiteOS_Lab/drivers/third_party/ST/STM32L4xx_HAL_Driver/Src/stm32l4xx_hal_rtc.c ****     assert_param(IS_RTC_SECONDS(RTC_Bcd2ToByte(sTime->Seconds)));
 480:/home/fanxinhao/Work/LiteOS_Lab/drivers/third_party/ST/STM32L4xx_HAL_Driver/Src/stm32l4xx_hal_rtc.c ****     tmpreg = (((uint32_t)(sTime->Hours) << 16) | \
 738              		.loc 1 480 32
 739 00a6 BB68     		ldr	r3, [r7, #8]
 740 00a8 1B78     		ldrb	r3, [r3]	@ zero_extendqisi2
 741              		.loc 1 480 41
 742 00aa 1A04     		lsls	r2, r3, #16
 481:/home/fanxinhao/Work/LiteOS_Lab/drivers/third_party/ST/STM32L4xx_HAL_Driver/Src/stm32l4xx_hal_rtc.c ****               ((uint32_t)(sTime->Minutes) << 8) | \
 743              		.loc 1 481 32
 744 00ac BB68     		ldr	r3, [r7, #8]
 745 00ae 5B78     		ldrb	r3, [r3, #1]	@ zero_extendqisi2
 746              		.loc 1 481 43
 747 00b0 1B02     		lsls	r3, r3, #8
 480:/home/fanxinhao/Work/LiteOS_Lab/drivers/third_party/ST/STM32L4xx_HAL_Driver/Src/stm32l4xx_hal_rtc.c ****               ((uint32_t)(sTime->Minutes) << 8) | \
 748              		.loc 1 480 48
 749 00b2 1343     		orrs	r3, r3, r2
 482:/home/fanxinhao/Work/LiteOS_Lab/drivers/third_party/ST/STM32L4xx_HAL_Driver/Src/stm32l4xx_hal_rtc.c ****               ((uint32_t)sTime->Seconds) | \
 750              		.loc 1 482 31
 751 00b4 BA68     		ldr	r2, [r7, #8]
 752 00b6 9278     		ldrb	r2, [r2, #2]	@ zero_extendqisi2
 481:/home/fanxinhao/Work/LiteOS_Lab/drivers/third_party/ST/STM32L4xx_HAL_Driver/Src/stm32l4xx_hal_rtc.c ****               ((uint32_t)(sTime->Minutes) << 8) | \
 753              		.loc 1 481 49
 754 00b8 1A43     		orrs	r2, r2, r3
 483:/home/fanxinhao/Work/LiteOS_Lab/drivers/third_party/ST/STM32L4xx_HAL_Driver/Src/stm32l4xx_hal_rtc.c ****               ((uint32_t)(sTime->TimeFormat) << 16));
 755              		.loc 1 483 32
 756 00ba BB68     		ldr	r3, [r7, #8]
 757 00bc DB78     		ldrb	r3, [r3, #3]	@ zero_extendqisi2
 758              		.loc 1 483 46
 759 00be 1B04     		lsls	r3, r3, #16
 480:/home/fanxinhao/Work/LiteOS_Lab/drivers/third_party/ST/STM32L4xx_HAL_Driver/Src/stm32l4xx_hal_rtc.c ****               ((uint32_t)(sTime->Minutes) << 8) | \
 760              		.loc 1 480 12
 761 00c0 1343     		orrs	r3, r3, r2
 762 00c2 7B61     		str	r3, [r7, #20]
 763              	.L22:
 484:/home/fanxinhao/Work/LiteOS_Lab/drivers/third_party/ST/STM32L4xx_HAL_Driver/Src/stm32l4xx_hal_rtc.c ****   }
 485:/home/fanxinhao/Work/LiteOS_Lab/drivers/third_party/ST/STM32L4xx_HAL_Driver/Src/stm32l4xx_hal_rtc.c **** 
 486:/home/fanxinhao/Work/LiteOS_Lab/drivers/third_party/ST/STM32L4xx_HAL_Driver/Src/stm32l4xx_hal_rtc.c ****   /* Disable the write protection for RTC registers */
 487:/home/fanxinhao/Work/LiteOS_Lab/drivers/third_party/ST/STM32L4xx_HAL_Driver/Src/stm32l4xx_hal_rtc.c ****   __HAL_RTC_WRITEPROTECTION_DISABLE(hrtc);
 764              		.loc 1 487 3
 765 00c4 FB68     		ldr	r3, [r7, #12]
 766 00c6 1B68     		ldr	r3, [r3]
ARM GAS  /tmp/ccXT28fZ.s 			page 23


 767 00c8 CA22     		movs	r2, #202
 768 00ca 5A62     		str	r2, [r3, #36]
 769 00cc FB68     		ldr	r3, [r7, #12]
 770 00ce 1B68     		ldr	r3, [r3]
 771 00d0 5322     		movs	r2, #83
 772 00d2 5A62     		str	r2, [r3, #36]
 488:/home/fanxinhao/Work/LiteOS_Lab/drivers/third_party/ST/STM32L4xx_HAL_Driver/Src/stm32l4xx_hal_rtc.c **** 
 489:/home/fanxinhao/Work/LiteOS_Lab/drivers/third_party/ST/STM32L4xx_HAL_Driver/Src/stm32l4xx_hal_rtc.c ****   /* Set Initialization mode */
 490:/home/fanxinhao/Work/LiteOS_Lab/drivers/third_party/ST/STM32L4xx_HAL_Driver/Src/stm32l4xx_hal_rtc.c ****   if(RTC_EnterInitMode(hrtc) != HAL_OK)
 773              		.loc 1 490 6
 774 00d4 F868     		ldr	r0, [r7, #12]
 775 00d6 FFF7FEFF 		bl	RTC_EnterInitMode
 776 00da 0346     		mov	r3, r0
 777              		.loc 1 490 5
 778 00dc 002B     		cmp	r3, #0
 779 00de 0DD0     		beq	.L25
 491:/home/fanxinhao/Work/LiteOS_Lab/drivers/third_party/ST/STM32L4xx_HAL_Driver/Src/stm32l4xx_hal_rtc.c ****   {
 492:/home/fanxinhao/Work/LiteOS_Lab/drivers/third_party/ST/STM32L4xx_HAL_Driver/Src/stm32l4xx_hal_rtc.c ****     /* Enable the write protection for RTC registers */
 493:/home/fanxinhao/Work/LiteOS_Lab/drivers/third_party/ST/STM32L4xx_HAL_Driver/Src/stm32l4xx_hal_rtc.c ****     __HAL_RTC_WRITEPROTECTION_ENABLE(hrtc);
 780              		.loc 1 493 5
 781 00e0 FB68     		ldr	r3, [r7, #12]
 782 00e2 1B68     		ldr	r3, [r3]
 783 00e4 FF22     		movs	r2, #255
 784 00e6 5A62     		str	r2, [r3, #36]
 494:/home/fanxinhao/Work/LiteOS_Lab/drivers/third_party/ST/STM32L4xx_HAL_Driver/Src/stm32l4xx_hal_rtc.c **** 
 495:/home/fanxinhao/Work/LiteOS_Lab/drivers/third_party/ST/STM32L4xx_HAL_Driver/Src/stm32l4xx_hal_rtc.c ****     /* Set RTC state */
 496:/home/fanxinhao/Work/LiteOS_Lab/drivers/third_party/ST/STM32L4xx_HAL_Driver/Src/stm32l4xx_hal_rtc.c ****     hrtc->State = HAL_RTC_STATE_ERROR;
 785              		.loc 1 496 17
 786 00e8 FB68     		ldr	r3, [r7, #12]
 787 00ea 0422     		movs	r2, #4
 788 00ec 83F82120 		strb	r2, [r3, #33]
 497:/home/fanxinhao/Work/LiteOS_Lab/drivers/third_party/ST/STM32L4xx_HAL_Driver/Src/stm32l4xx_hal_rtc.c **** 
 498:/home/fanxinhao/Work/LiteOS_Lab/drivers/third_party/ST/STM32L4xx_HAL_Driver/Src/stm32l4xx_hal_rtc.c ****     /* Process Unlocked */ 
 499:/home/fanxinhao/Work/LiteOS_Lab/drivers/third_party/ST/STM32L4xx_HAL_Driver/Src/stm32l4xx_hal_rtc.c ****     __HAL_UNLOCK(hrtc);
 789              		.loc 1 499 5
 790 00f0 FB68     		ldr	r3, [r7, #12]
 791 00f2 0022     		movs	r2, #0
 792 00f4 83F82020 		strb	r2, [r3, #32]
 500:/home/fanxinhao/Work/LiteOS_Lab/drivers/third_party/ST/STM32L4xx_HAL_Driver/Src/stm32l4xx_hal_rtc.c **** 
 501:/home/fanxinhao/Work/LiteOS_Lab/drivers/third_party/ST/STM32L4xx_HAL_Driver/Src/stm32l4xx_hal_rtc.c ****     return HAL_ERROR;
 793              		.loc 1 501 12
 794 00f8 0123     		movs	r3, #1
 795 00fa 4BE0     		b	.L19
 796              	.L25:
 502:/home/fanxinhao/Work/LiteOS_Lab/drivers/third_party/ST/STM32L4xx_HAL_Driver/Src/stm32l4xx_hal_rtc.c ****   }
 503:/home/fanxinhao/Work/LiteOS_Lab/drivers/third_party/ST/STM32L4xx_HAL_Driver/Src/stm32l4xx_hal_rtc.c ****   else
 504:/home/fanxinhao/Work/LiteOS_Lab/drivers/third_party/ST/STM32L4xx_HAL_Driver/Src/stm32l4xx_hal_rtc.c ****   {
 505:/home/fanxinhao/Work/LiteOS_Lab/drivers/third_party/ST/STM32L4xx_HAL_Driver/Src/stm32l4xx_hal_rtc.c ****     /* Set the RTC_TR register */
 506:/home/fanxinhao/Work/LiteOS_Lab/drivers/third_party/ST/STM32L4xx_HAL_Driver/Src/stm32l4xx_hal_rtc.c ****     hrtc->Instance->TR = (uint32_t)(tmpreg & RTC_TR_RESERVED_MASK);
 797              		.loc 1 506 9
 798 00fc FB68     		ldr	r3, [r7, #12]
 799 00fe 1A68     		ldr	r2, [r3]
 800              		.loc 1 506 26
 801 0100 7B69     		ldr	r3, [r7, #20]
 802 0102 03F07F33 		and	r3, r3, #2139062143
 803 0106 23F0FE43 		bic	r3, r3, #2130706432
 804              		.loc 1 506 24
ARM GAS  /tmp/ccXT28fZ.s 			page 24


 805 010a 1360     		str	r3, [r2]
 507:/home/fanxinhao/Work/LiteOS_Lab/drivers/third_party/ST/STM32L4xx_HAL_Driver/Src/stm32l4xx_hal_rtc.c **** 
 508:/home/fanxinhao/Work/LiteOS_Lab/drivers/third_party/ST/STM32L4xx_HAL_Driver/Src/stm32l4xx_hal_rtc.c ****     /* Clear the bits to be configured */
 509:/home/fanxinhao/Work/LiteOS_Lab/drivers/third_party/ST/STM32L4xx_HAL_Driver/Src/stm32l4xx_hal_rtc.c ****     hrtc->Instance->CR &= ((uint32_t)~RTC_CR_BCK);
 806              		.loc 1 509 9
 807 010c FB68     		ldr	r3, [r7, #12]
 808 010e 1B68     		ldr	r3, [r3]
 809              		.loc 1 509 24
 810 0110 9A68     		ldr	r2, [r3, #8]
 811              		.loc 1 509 9
 812 0112 FB68     		ldr	r3, [r7, #12]
 813 0114 1B68     		ldr	r3, [r3]
 814              		.loc 1 509 24
 815 0116 22F48022 		bic	r2, r2, #262144
 816 011a 9A60     		str	r2, [r3, #8]
 510:/home/fanxinhao/Work/LiteOS_Lab/drivers/third_party/ST/STM32L4xx_HAL_Driver/Src/stm32l4xx_hal_rtc.c **** 
 511:/home/fanxinhao/Work/LiteOS_Lab/drivers/third_party/ST/STM32L4xx_HAL_Driver/Src/stm32l4xx_hal_rtc.c ****     /* Configure the RTC_CR register */
 512:/home/fanxinhao/Work/LiteOS_Lab/drivers/third_party/ST/STM32L4xx_HAL_Driver/Src/stm32l4xx_hal_rtc.c ****     hrtc->Instance->CR |= (uint32_t)(sTime->DayLightSaving | sTime->StoreOperation);
 817              		.loc 1 512 9
 818 011c FB68     		ldr	r3, [r7, #12]
 819 011e 1B68     		ldr	r3, [r3]
 820              		.loc 1 512 24
 821 0120 9968     		ldr	r1, [r3, #8]
 822              		.loc 1 512 43
 823 0122 BB68     		ldr	r3, [r7, #8]
 824 0124 DA68     		ldr	r2, [r3, #12]
 825              		.loc 1 512 67
 826 0126 BB68     		ldr	r3, [r7, #8]
 827 0128 1B69     		ldr	r3, [r3, #16]
 828              		.loc 1 512 60
 829 012a 1A43     		orrs	r2, r2, r3
 830              		.loc 1 512 9
 831 012c FB68     		ldr	r3, [r7, #12]
 832 012e 1B68     		ldr	r3, [r3]
 833              		.loc 1 512 24
 834 0130 0A43     		orrs	r2, r2, r1
 835 0132 9A60     		str	r2, [r3, #8]
 513:/home/fanxinhao/Work/LiteOS_Lab/drivers/third_party/ST/STM32L4xx_HAL_Driver/Src/stm32l4xx_hal_rtc.c **** 
 514:/home/fanxinhao/Work/LiteOS_Lab/drivers/third_party/ST/STM32L4xx_HAL_Driver/Src/stm32l4xx_hal_rtc.c ****     /* Exit Initialization mode */
 515:/home/fanxinhao/Work/LiteOS_Lab/drivers/third_party/ST/STM32L4xx_HAL_Driver/Src/stm32l4xx_hal_rtc.c ****     hrtc->Instance->ISR &= ((uint32_t)~RTC_ISR_INIT);
 836              		.loc 1 515 9
 837 0134 FB68     		ldr	r3, [r7, #12]
 838 0136 1B68     		ldr	r3, [r3]
 839              		.loc 1 515 25
 840 0138 DA68     		ldr	r2, [r3, #12]
 841              		.loc 1 515 9
 842 013a FB68     		ldr	r3, [r7, #12]
 843 013c 1B68     		ldr	r3, [r3]
 844              		.loc 1 515 25
 845 013e 22F08002 		bic	r2, r2, #128
 846 0142 DA60     		str	r2, [r3, #12]
 516:/home/fanxinhao/Work/LiteOS_Lab/drivers/third_party/ST/STM32L4xx_HAL_Driver/Src/stm32l4xx_hal_rtc.c **** 
 517:/home/fanxinhao/Work/LiteOS_Lab/drivers/third_party/ST/STM32L4xx_HAL_Driver/Src/stm32l4xx_hal_rtc.c ****     /* If  CR_BYPSHAD bit = 0, wait for synchro else this check is not needed */
 518:/home/fanxinhao/Work/LiteOS_Lab/drivers/third_party/ST/STM32L4xx_HAL_Driver/Src/stm32l4xx_hal_rtc.c ****     if((hrtc->Instance->CR & RTC_CR_BYPSHAD) == RESET)
 847              		.loc 1 518 13
 848 0144 FB68     		ldr	r3, [r7, #12]
 849 0146 1B68     		ldr	r3, [r3]
ARM GAS  /tmp/ccXT28fZ.s 			page 25


 850              		.loc 1 518 23
 851 0148 9B68     		ldr	r3, [r3, #8]
 852              		.loc 1 518 28
 853 014a 03F02003 		and	r3, r3, #32
 854              		.loc 1 518 7
 855 014e 002B     		cmp	r3, #0
 856 0150 13D1     		bne	.L26
 519:/home/fanxinhao/Work/LiteOS_Lab/drivers/third_party/ST/STM32L4xx_HAL_Driver/Src/stm32l4xx_hal_rtc.c ****     {
 520:/home/fanxinhao/Work/LiteOS_Lab/drivers/third_party/ST/STM32L4xx_HAL_Driver/Src/stm32l4xx_hal_rtc.c ****       if(HAL_RTC_WaitForSynchro(hrtc) != HAL_OK)
 857              		.loc 1 520 10
 858 0152 F868     		ldr	r0, [r7, #12]
 859 0154 FFF7FEFF 		bl	HAL_RTC_WaitForSynchro
 860 0158 0346     		mov	r3, r0
 861              		.loc 1 520 9
 862 015a 002B     		cmp	r3, #0
 863 015c 0DD0     		beq	.L26
 521:/home/fanxinhao/Work/LiteOS_Lab/drivers/third_party/ST/STM32L4xx_HAL_Driver/Src/stm32l4xx_hal_rtc.c ****       {
 522:/home/fanxinhao/Work/LiteOS_Lab/drivers/third_party/ST/STM32L4xx_HAL_Driver/Src/stm32l4xx_hal_rtc.c ****         /* Enable the write protection for RTC registers */
 523:/home/fanxinhao/Work/LiteOS_Lab/drivers/third_party/ST/STM32L4xx_HAL_Driver/Src/stm32l4xx_hal_rtc.c ****         __HAL_RTC_WRITEPROTECTION_ENABLE(hrtc);
 864              		.loc 1 523 9
 865 015e FB68     		ldr	r3, [r7, #12]
 866 0160 1B68     		ldr	r3, [r3]
 867 0162 FF22     		movs	r2, #255
 868 0164 5A62     		str	r2, [r3, #36]
 524:/home/fanxinhao/Work/LiteOS_Lab/drivers/third_party/ST/STM32L4xx_HAL_Driver/Src/stm32l4xx_hal_rtc.c **** 
 525:/home/fanxinhao/Work/LiteOS_Lab/drivers/third_party/ST/STM32L4xx_HAL_Driver/Src/stm32l4xx_hal_rtc.c ****         hrtc->State = HAL_RTC_STATE_ERROR;
 869              		.loc 1 525 21
 870 0166 FB68     		ldr	r3, [r7, #12]
 871 0168 0422     		movs	r2, #4
 872 016a 83F82120 		strb	r2, [r3, #33]
 526:/home/fanxinhao/Work/LiteOS_Lab/drivers/third_party/ST/STM32L4xx_HAL_Driver/Src/stm32l4xx_hal_rtc.c **** 
 527:/home/fanxinhao/Work/LiteOS_Lab/drivers/third_party/ST/STM32L4xx_HAL_Driver/Src/stm32l4xx_hal_rtc.c ****         /* Process Unlocked */ 
 528:/home/fanxinhao/Work/LiteOS_Lab/drivers/third_party/ST/STM32L4xx_HAL_Driver/Src/stm32l4xx_hal_rtc.c ****         __HAL_UNLOCK(hrtc);
 873              		.loc 1 528 9
 874 016e FB68     		ldr	r3, [r7, #12]
 875 0170 0022     		movs	r2, #0
 876 0172 83F82020 		strb	r2, [r3, #32]
 529:/home/fanxinhao/Work/LiteOS_Lab/drivers/third_party/ST/STM32L4xx_HAL_Driver/Src/stm32l4xx_hal_rtc.c **** 
 530:/home/fanxinhao/Work/LiteOS_Lab/drivers/third_party/ST/STM32L4xx_HAL_Driver/Src/stm32l4xx_hal_rtc.c ****         return HAL_ERROR;
 877              		.loc 1 530 16
 878 0176 0123     		movs	r3, #1
 879 0178 0CE0     		b	.L19
 880              	.L26:
 531:/home/fanxinhao/Work/LiteOS_Lab/drivers/third_party/ST/STM32L4xx_HAL_Driver/Src/stm32l4xx_hal_rtc.c ****       }
 532:/home/fanxinhao/Work/LiteOS_Lab/drivers/third_party/ST/STM32L4xx_HAL_Driver/Src/stm32l4xx_hal_rtc.c ****     }
 533:/home/fanxinhao/Work/LiteOS_Lab/drivers/third_party/ST/STM32L4xx_HAL_Driver/Src/stm32l4xx_hal_rtc.c **** 
 534:/home/fanxinhao/Work/LiteOS_Lab/drivers/third_party/ST/STM32L4xx_HAL_Driver/Src/stm32l4xx_hal_rtc.c ****     /* Enable the write protection for RTC registers */
 535:/home/fanxinhao/Work/LiteOS_Lab/drivers/third_party/ST/STM32L4xx_HAL_Driver/Src/stm32l4xx_hal_rtc.c ****     __HAL_RTC_WRITEPROTECTION_ENABLE(hrtc);
 881              		.loc 1 535 5
 882 017a FB68     		ldr	r3, [r7, #12]
 883 017c 1B68     		ldr	r3, [r3]
 884 017e FF22     		movs	r2, #255
 885 0180 5A62     		str	r2, [r3, #36]
 536:/home/fanxinhao/Work/LiteOS_Lab/drivers/third_party/ST/STM32L4xx_HAL_Driver/Src/stm32l4xx_hal_rtc.c ****     
 537:/home/fanxinhao/Work/LiteOS_Lab/drivers/third_party/ST/STM32L4xx_HAL_Driver/Src/stm32l4xx_hal_rtc.c ****    hrtc->State = HAL_RTC_STATE_READY;
 886              		.loc 1 537 16
 887 0182 FB68     		ldr	r3, [r7, #12]
ARM GAS  /tmp/ccXT28fZ.s 			page 26


 888 0184 0122     		movs	r2, #1
 889 0186 83F82120 		strb	r2, [r3, #33]
 538:/home/fanxinhao/Work/LiteOS_Lab/drivers/third_party/ST/STM32L4xx_HAL_Driver/Src/stm32l4xx_hal_rtc.c **** 
 539:/home/fanxinhao/Work/LiteOS_Lab/drivers/third_party/ST/STM32L4xx_HAL_Driver/Src/stm32l4xx_hal_rtc.c ****    __HAL_UNLOCK(hrtc); 
 890              		.loc 1 539 4
 891 018a FB68     		ldr	r3, [r7, #12]
 892 018c 0022     		movs	r2, #0
 893 018e 83F82020 		strb	r2, [r3, #32]
 540:/home/fanxinhao/Work/LiteOS_Lab/drivers/third_party/ST/STM32L4xx_HAL_Driver/Src/stm32l4xx_hal_rtc.c **** 
 541:/home/fanxinhao/Work/LiteOS_Lab/drivers/third_party/ST/STM32L4xx_HAL_Driver/Src/stm32l4xx_hal_rtc.c ****    return HAL_OK;
 894              		.loc 1 541 11
 895 0192 0023     		movs	r3, #0
 896              	.L19:
 542:/home/fanxinhao/Work/LiteOS_Lab/drivers/third_party/ST/STM32L4xx_HAL_Driver/Src/stm32l4xx_hal_rtc.c ****   }
 543:/home/fanxinhao/Work/LiteOS_Lab/drivers/third_party/ST/STM32L4xx_HAL_Driver/Src/stm32l4xx_hal_rtc.c **** }
 897              		.loc 1 543 1
 898 0194 1846     		mov	r0, r3
 899 0196 1C37     		adds	r7, r7, #28
 900              	.LCFI25:
 901              		.cfi_def_cfa_offset 12
 902 0198 BD46     		mov	sp, r7
 903              	.LCFI26:
 904              		.cfi_def_cfa_register 13
 905              		@ sp needed
 906 019a 90BD     		pop	{r4, r7, pc}
 907              		.cfi_endproc
 908              	.LFE130:
 910              		.section	.text.HAL_RTC_GetTime,"ax",%progbits
 911              		.align	1
 912              		.global	HAL_RTC_GetTime
 913              		.syntax unified
 914              		.thumb
 915              		.thumb_func
 916              		.fpu fpv4-sp-d16
 918              	HAL_RTC_GetTime:
 919              	.LFB131:
 544:/home/fanxinhao/Work/LiteOS_Lab/drivers/third_party/ST/STM32L4xx_HAL_Driver/Src/stm32l4xx_hal_rtc.c **** 
 545:/home/fanxinhao/Work/LiteOS_Lab/drivers/third_party/ST/STM32L4xx_HAL_Driver/Src/stm32l4xx_hal_rtc.c **** /**
 546:/home/fanxinhao/Work/LiteOS_Lab/drivers/third_party/ST/STM32L4xx_HAL_Driver/Src/stm32l4xx_hal_rtc.c ****   * @brief  Get RTC current time.
 547:/home/fanxinhao/Work/LiteOS_Lab/drivers/third_party/ST/STM32L4xx_HAL_Driver/Src/stm32l4xx_hal_rtc.c ****   * @param  hrtc: RTC handle
 548:/home/fanxinhao/Work/LiteOS_Lab/drivers/third_party/ST/STM32L4xx_HAL_Driver/Src/stm32l4xx_hal_rtc.c ****   * @param  sTime: Pointer to Time structure with Hours, Minutes and Seconds fields returned 
 549:/home/fanxinhao/Work/LiteOS_Lab/drivers/third_party/ST/STM32L4xx_HAL_Driver/Src/stm32l4xx_hal_rtc.c ****   *                with input format (BIN or BCD), also SubSeconds field returning the
 550:/home/fanxinhao/Work/LiteOS_Lab/drivers/third_party/ST/STM32L4xx_HAL_Driver/Src/stm32l4xx_hal_rtc.c ****   *                RTC_SSR register content and SecondFraction field the Synchronous pre-scaler
 551:/home/fanxinhao/Work/LiteOS_Lab/drivers/third_party/ST/STM32L4xx_HAL_Driver/Src/stm32l4xx_hal_rtc.c ****   *                factor to be used for second fraction ratio computation.
 552:/home/fanxinhao/Work/LiteOS_Lab/drivers/third_party/ST/STM32L4xx_HAL_Driver/Src/stm32l4xx_hal_rtc.c ****   * @param  Format: Specifies the format of the entered parameters.
 553:/home/fanxinhao/Work/LiteOS_Lab/drivers/third_party/ST/STM32L4xx_HAL_Driver/Src/stm32l4xx_hal_rtc.c ****   *          This parameter can be one of the following values:
 554:/home/fanxinhao/Work/LiteOS_Lab/drivers/third_party/ST/STM32L4xx_HAL_Driver/Src/stm32l4xx_hal_rtc.c ****   *            @arg RTC_FORMAT_BIN: Binary data format 
 555:/home/fanxinhao/Work/LiteOS_Lab/drivers/third_party/ST/STM32L4xx_HAL_Driver/Src/stm32l4xx_hal_rtc.c ****   *            @arg RTC_FORMAT_BCD: BCD data format
 556:/home/fanxinhao/Work/LiteOS_Lab/drivers/third_party/ST/STM32L4xx_HAL_Driver/Src/stm32l4xx_hal_rtc.c ****   * @note  You can use SubSeconds and SecondFraction (sTime structure fields returned) to convert S
 557:/home/fanxinhao/Work/LiteOS_Lab/drivers/third_party/ST/STM32L4xx_HAL_Driver/Src/stm32l4xx_hal_rtc.c ****   *        value in second fraction ratio with time unit following generic formula:
 558:/home/fanxinhao/Work/LiteOS_Lab/drivers/third_party/ST/STM32L4xx_HAL_Driver/Src/stm32l4xx_hal_rtc.c ****   *        Second fraction ratio * time_unit= [(SecondFraction-SubSeconds)/(SecondFraction+1)] * ti
 559:/home/fanxinhao/Work/LiteOS_Lab/drivers/third_party/ST/STM32L4xx_HAL_Driver/Src/stm32l4xx_hal_rtc.c ****   *        This conversion can be performed only if no shift operation is pending (ie. SHFP=0) when
 560:/home/fanxinhao/Work/LiteOS_Lab/drivers/third_party/ST/STM32L4xx_HAL_Driver/Src/stm32l4xx_hal_rtc.c ****   * @note  You must call HAL_RTC_GetDate() after HAL_RTC_GetTime() to unlock the values 
 561:/home/fanxinhao/Work/LiteOS_Lab/drivers/third_party/ST/STM32L4xx_HAL_Driver/Src/stm32l4xx_hal_rtc.c ****   *        in the higher-order calendar shadow registers to ensure consistency between the time and
 562:/home/fanxinhao/Work/LiteOS_Lab/drivers/third_party/ST/STM32L4xx_HAL_Driver/Src/stm32l4xx_hal_rtc.c ****   *        Reading RTC current time locks the values in calendar shadow registers until Current dat
 563:/home/fanxinhao/Work/LiteOS_Lab/drivers/third_party/ST/STM32L4xx_HAL_Driver/Src/stm32l4xx_hal_rtc.c ****   *        to ensure consistency between the time and date values.
 564:/home/fanxinhao/Work/LiteOS_Lab/drivers/third_party/ST/STM32L4xx_HAL_Driver/Src/stm32l4xx_hal_rtc.c ****   * @retval HAL status
ARM GAS  /tmp/ccXT28fZ.s 			page 27


 565:/home/fanxinhao/Work/LiteOS_Lab/drivers/third_party/ST/STM32L4xx_HAL_Driver/Src/stm32l4xx_hal_rtc.c ****   */
 566:/home/fanxinhao/Work/LiteOS_Lab/drivers/third_party/ST/STM32L4xx_HAL_Driver/Src/stm32l4xx_hal_rtc.c **** HAL_StatusTypeDef HAL_RTC_GetTime(RTC_HandleTypeDef *hrtc, RTC_TimeTypeDef *sTime, uint32_t Format)
 567:/home/fanxinhao/Work/LiteOS_Lab/drivers/third_party/ST/STM32L4xx_HAL_Driver/Src/stm32l4xx_hal_rtc.c **** {
 920              		.loc 1 567 1
 921              		.cfi_startproc
 922              		@ args = 0, pretend = 0, frame = 24
 923              		@ frame_needed = 1, uses_anonymous_args = 0
 924 0000 80B5     		push	{r7, lr}
 925              	.LCFI27:
 926              		.cfi_def_cfa_offset 8
 927              		.cfi_offset 7, -8
 928              		.cfi_offset 14, -4
 929 0002 86B0     		sub	sp, sp, #24
 930              	.LCFI28:
 931              		.cfi_def_cfa_offset 32
 932 0004 00AF     		add	r7, sp, #0
 933              	.LCFI29:
 934              		.cfi_def_cfa_register 7
 935 0006 F860     		str	r0, [r7, #12]
 936 0008 B960     		str	r1, [r7, #8]
 937 000a 7A60     		str	r2, [r7, #4]
 568:/home/fanxinhao/Work/LiteOS_Lab/drivers/third_party/ST/STM32L4xx_HAL_Driver/Src/stm32l4xx_hal_rtc.c ****   uint32_t tmpreg = 0;
 938              		.loc 1 568 12
 939 000c 0023     		movs	r3, #0
 940 000e 7B61     		str	r3, [r7, #20]
 569:/home/fanxinhao/Work/LiteOS_Lab/drivers/third_party/ST/STM32L4xx_HAL_Driver/Src/stm32l4xx_hal_rtc.c **** 
 570:/home/fanxinhao/Work/LiteOS_Lab/drivers/third_party/ST/STM32L4xx_HAL_Driver/Src/stm32l4xx_hal_rtc.c ****   /* Check the parameters */
 571:/home/fanxinhao/Work/LiteOS_Lab/drivers/third_party/ST/STM32L4xx_HAL_Driver/Src/stm32l4xx_hal_rtc.c ****   assert_param(IS_RTC_FORMAT(Format));
 572:/home/fanxinhao/Work/LiteOS_Lab/drivers/third_party/ST/STM32L4xx_HAL_Driver/Src/stm32l4xx_hal_rtc.c **** 
 573:/home/fanxinhao/Work/LiteOS_Lab/drivers/third_party/ST/STM32L4xx_HAL_Driver/Src/stm32l4xx_hal_rtc.c ****   /* Get subseconds structure field from the corresponding register*/
 574:/home/fanxinhao/Work/LiteOS_Lab/drivers/third_party/ST/STM32L4xx_HAL_Driver/Src/stm32l4xx_hal_rtc.c ****   sTime->SubSeconds = (uint32_t)(hrtc->Instance->SSR);
 941              		.loc 1 574 38
 942 0010 FB68     		ldr	r3, [r7, #12]
 943 0012 1B68     		ldr	r3, [r3]
 944              		.loc 1 574 48
 945 0014 9A6A     		ldr	r2, [r3, #40]
 946              		.loc 1 574 21
 947 0016 BB68     		ldr	r3, [r7, #8]
 948 0018 5A60     		str	r2, [r3, #4]
 575:/home/fanxinhao/Work/LiteOS_Lab/drivers/third_party/ST/STM32L4xx_HAL_Driver/Src/stm32l4xx_hal_rtc.c **** 
 576:/home/fanxinhao/Work/LiteOS_Lab/drivers/third_party/ST/STM32L4xx_HAL_Driver/Src/stm32l4xx_hal_rtc.c ****   /* Get SecondFraction structure field from the corresponding register field*/
 577:/home/fanxinhao/Work/LiteOS_Lab/drivers/third_party/ST/STM32L4xx_HAL_Driver/Src/stm32l4xx_hal_rtc.c ****   sTime->SecondFraction = (uint32_t)(hrtc->Instance->PRER & RTC_PRER_PREDIV_S);
 949              		.loc 1 577 42
 950 001a FB68     		ldr	r3, [r7, #12]
 951 001c 1B68     		ldr	r3, [r3]
 952              		.loc 1 577 52
 953 001e 1B69     		ldr	r3, [r3, #16]
 954              		.loc 1 577 27
 955 0020 C3F30E02 		ubfx	r2, r3, #0, #15
 956              		.loc 1 577 25
 957 0024 BB68     		ldr	r3, [r7, #8]
 958 0026 9A60     		str	r2, [r3, #8]
 578:/home/fanxinhao/Work/LiteOS_Lab/drivers/third_party/ST/STM32L4xx_HAL_Driver/Src/stm32l4xx_hal_rtc.c ****   
 579:/home/fanxinhao/Work/LiteOS_Lab/drivers/third_party/ST/STM32L4xx_HAL_Driver/Src/stm32l4xx_hal_rtc.c ****   /* Get the TR register */
 580:/home/fanxinhao/Work/LiteOS_Lab/drivers/third_party/ST/STM32L4xx_HAL_Driver/Src/stm32l4xx_hal_rtc.c ****   tmpreg = (uint32_t)(hrtc->Instance->TR & RTC_TR_RESERVED_MASK);
 959              		.loc 1 580 27
 960 0028 FB68     		ldr	r3, [r7, #12]
ARM GAS  /tmp/ccXT28fZ.s 			page 28


 961 002a 1B68     		ldr	r3, [r3]
 962              		.loc 1 580 37
 963 002c 1B68     		ldr	r3, [r3]
 964              		.loc 1 580 10
 965 002e 03F07F33 		and	r3, r3, #2139062143
 966 0032 23F0FE43 		bic	r3, r3, #2130706432
 967 0036 7B61     		str	r3, [r7, #20]
 581:/home/fanxinhao/Work/LiteOS_Lab/drivers/third_party/ST/STM32L4xx_HAL_Driver/Src/stm32l4xx_hal_rtc.c **** 
 582:/home/fanxinhao/Work/LiteOS_Lab/drivers/third_party/ST/STM32L4xx_HAL_Driver/Src/stm32l4xx_hal_rtc.c ****   /* Fill the structure fields with the read parameters */
 583:/home/fanxinhao/Work/LiteOS_Lab/drivers/third_party/ST/STM32L4xx_HAL_Driver/Src/stm32l4xx_hal_rtc.c ****   sTime->Hours = (uint8_t)((tmpreg & (RTC_TR_HT | RTC_TR_HU)) >> 16);
 968              		.loc 1 583 63
 969 0038 7B69     		ldr	r3, [r7, #20]
 970 003a 1B0C     		lsrs	r3, r3, #16
 971              		.loc 1 583 18
 972 003c DBB2     		uxtb	r3, r3
 973 003e 03F03F03 		and	r3, r3, #63
 974 0042 DAB2     		uxtb	r2, r3
 975              		.loc 1 583 16
 976 0044 BB68     		ldr	r3, [r7, #8]
 977 0046 1A70     		strb	r2, [r3]
 584:/home/fanxinhao/Work/LiteOS_Lab/drivers/third_party/ST/STM32L4xx_HAL_Driver/Src/stm32l4xx_hal_rtc.c ****   sTime->Minutes = (uint8_t)((tmpreg & (RTC_TR_MNT | RTC_TR_MNU)) >>8);
 978              		.loc 1 584 67
 979 0048 7B69     		ldr	r3, [r7, #20]
 980 004a 1B0A     		lsrs	r3, r3, #8
 981              		.loc 1 584 20
 982 004c DBB2     		uxtb	r3, r3
 983 004e 03F07F03 		and	r3, r3, #127
 984 0052 DAB2     		uxtb	r2, r3
 985              		.loc 1 584 18
 986 0054 BB68     		ldr	r3, [r7, #8]
 987 0056 5A70     		strb	r2, [r3, #1]
 585:/home/fanxinhao/Work/LiteOS_Lab/drivers/third_party/ST/STM32L4xx_HAL_Driver/Src/stm32l4xx_hal_rtc.c ****   sTime->Seconds = (uint8_t)(tmpreg & (RTC_TR_ST | RTC_TR_SU));
 988              		.loc 1 585 20
 989 0058 7B69     		ldr	r3, [r7, #20]
 990 005a DBB2     		uxtb	r3, r3
 991 005c 03F07F03 		and	r3, r3, #127
 992 0060 DAB2     		uxtb	r2, r3
 993              		.loc 1 585 18
 994 0062 BB68     		ldr	r3, [r7, #8]
 995 0064 9A70     		strb	r2, [r3, #2]
 586:/home/fanxinhao/Work/LiteOS_Lab/drivers/third_party/ST/STM32L4xx_HAL_Driver/Src/stm32l4xx_hal_rtc.c ****   sTime->TimeFormat = (uint8_t)((tmpreg & (RTC_TR_PM)) >> 16);
 996              		.loc 1 586 56
 997 0066 7B69     		ldr	r3, [r7, #20]
 998 0068 1B0C     		lsrs	r3, r3, #16
 999              		.loc 1 586 23
 1000 006a DBB2     		uxtb	r3, r3
 1001 006c 03F04003 		and	r3, r3, #64
 1002 0070 DAB2     		uxtb	r2, r3
 1003              		.loc 1 586 21
 1004 0072 BB68     		ldr	r3, [r7, #8]
 1005 0074 DA70     		strb	r2, [r3, #3]
 587:/home/fanxinhao/Work/LiteOS_Lab/drivers/third_party/ST/STM32L4xx_HAL_Driver/Src/stm32l4xx_hal_rtc.c **** 
 588:/home/fanxinhao/Work/LiteOS_Lab/drivers/third_party/ST/STM32L4xx_HAL_Driver/Src/stm32l4xx_hal_rtc.c ****   /* Check the input parameters format */
 589:/home/fanxinhao/Work/LiteOS_Lab/drivers/third_party/ST/STM32L4xx_HAL_Driver/Src/stm32l4xx_hal_rtc.c ****   if(Format == RTC_FORMAT_BIN)
 1006              		.loc 1 589 5
 1007 0076 7B68     		ldr	r3, [r7, #4]
 1008 0078 002B     		cmp	r3, #0
ARM GAS  /tmp/ccXT28fZ.s 			page 29


 1009 007a 1AD1     		bne	.L28
 590:/home/fanxinhao/Work/LiteOS_Lab/drivers/third_party/ST/STM32L4xx_HAL_Driver/Src/stm32l4xx_hal_rtc.c ****   {
 591:/home/fanxinhao/Work/LiteOS_Lab/drivers/third_party/ST/STM32L4xx_HAL_Driver/Src/stm32l4xx_hal_rtc.c ****     /* Convert the time structure parameters to Binary format */
 592:/home/fanxinhao/Work/LiteOS_Lab/drivers/third_party/ST/STM32L4xx_HAL_Driver/Src/stm32l4xx_hal_rtc.c ****     sTime->Hours = (uint8_t)RTC_Bcd2ToByte(sTime->Hours);
 1010              		.loc 1 592 29
 1011 007c BB68     		ldr	r3, [r7, #8]
 1012 007e 1B78     		ldrb	r3, [r3]	@ zero_extendqisi2
 1013 0080 1846     		mov	r0, r3
 1014 0082 FFF7FEFF 		bl	RTC_Bcd2ToByte
 1015 0086 0346     		mov	r3, r0
 1016 0088 1A46     		mov	r2, r3
 1017              		.loc 1 592 18
 1018 008a BB68     		ldr	r3, [r7, #8]
 1019 008c 1A70     		strb	r2, [r3]
 593:/home/fanxinhao/Work/LiteOS_Lab/drivers/third_party/ST/STM32L4xx_HAL_Driver/Src/stm32l4xx_hal_rtc.c ****     sTime->Minutes = (uint8_t)RTC_Bcd2ToByte(sTime->Minutes);
 1020              		.loc 1 593 31
 1021 008e BB68     		ldr	r3, [r7, #8]
 1022 0090 5B78     		ldrb	r3, [r3, #1]	@ zero_extendqisi2
 1023 0092 1846     		mov	r0, r3
 1024 0094 FFF7FEFF 		bl	RTC_Bcd2ToByte
 1025 0098 0346     		mov	r3, r0
 1026 009a 1A46     		mov	r2, r3
 1027              		.loc 1 593 20
 1028 009c BB68     		ldr	r3, [r7, #8]
 1029 009e 5A70     		strb	r2, [r3, #1]
 594:/home/fanxinhao/Work/LiteOS_Lab/drivers/third_party/ST/STM32L4xx_HAL_Driver/Src/stm32l4xx_hal_rtc.c ****     sTime->Seconds = (uint8_t)RTC_Bcd2ToByte(sTime->Seconds);
 1030              		.loc 1 594 31
 1031 00a0 BB68     		ldr	r3, [r7, #8]
 1032 00a2 9B78     		ldrb	r3, [r3, #2]	@ zero_extendqisi2
 1033 00a4 1846     		mov	r0, r3
 1034 00a6 FFF7FEFF 		bl	RTC_Bcd2ToByte
 1035 00aa 0346     		mov	r3, r0
 1036 00ac 1A46     		mov	r2, r3
 1037              		.loc 1 594 20
 1038 00ae BB68     		ldr	r3, [r7, #8]
 1039 00b0 9A70     		strb	r2, [r3, #2]
 1040              	.L28:
 595:/home/fanxinhao/Work/LiteOS_Lab/drivers/third_party/ST/STM32L4xx_HAL_Driver/Src/stm32l4xx_hal_rtc.c ****   }
 596:/home/fanxinhao/Work/LiteOS_Lab/drivers/third_party/ST/STM32L4xx_HAL_Driver/Src/stm32l4xx_hal_rtc.c **** 
 597:/home/fanxinhao/Work/LiteOS_Lab/drivers/third_party/ST/STM32L4xx_HAL_Driver/Src/stm32l4xx_hal_rtc.c ****   return HAL_OK;
 1041              		.loc 1 597 10
 1042 00b2 0023     		movs	r3, #0
 598:/home/fanxinhao/Work/LiteOS_Lab/drivers/third_party/ST/STM32L4xx_HAL_Driver/Src/stm32l4xx_hal_rtc.c **** }
 1043              		.loc 1 598 1
 1044 00b4 1846     		mov	r0, r3
 1045 00b6 1837     		adds	r7, r7, #24
 1046              	.LCFI30:
 1047              		.cfi_def_cfa_offset 8
 1048 00b8 BD46     		mov	sp, r7
 1049              	.LCFI31:
 1050              		.cfi_def_cfa_register 13
 1051              		@ sp needed
 1052 00ba 80BD     		pop	{r7, pc}
 1053              		.cfi_endproc
 1054              	.LFE131:
 1056              		.section	.text.HAL_RTC_SetDate,"ax",%progbits
 1057              		.align	1
ARM GAS  /tmp/ccXT28fZ.s 			page 30


 1058              		.global	HAL_RTC_SetDate
 1059              		.syntax unified
 1060              		.thumb
 1061              		.thumb_func
 1062              		.fpu fpv4-sp-d16
 1064              	HAL_RTC_SetDate:
 1065              	.LFB132:
 599:/home/fanxinhao/Work/LiteOS_Lab/drivers/third_party/ST/STM32L4xx_HAL_Driver/Src/stm32l4xx_hal_rtc.c **** 
 600:/home/fanxinhao/Work/LiteOS_Lab/drivers/third_party/ST/STM32L4xx_HAL_Driver/Src/stm32l4xx_hal_rtc.c **** /**
 601:/home/fanxinhao/Work/LiteOS_Lab/drivers/third_party/ST/STM32L4xx_HAL_Driver/Src/stm32l4xx_hal_rtc.c ****   * @brief  Set RTC current date.
 602:/home/fanxinhao/Work/LiteOS_Lab/drivers/third_party/ST/STM32L4xx_HAL_Driver/Src/stm32l4xx_hal_rtc.c ****   * @param  hrtc: RTC handle
 603:/home/fanxinhao/Work/LiteOS_Lab/drivers/third_party/ST/STM32L4xx_HAL_Driver/Src/stm32l4xx_hal_rtc.c ****   * @param  sDate: Pointer to date structure
 604:/home/fanxinhao/Work/LiteOS_Lab/drivers/third_party/ST/STM32L4xx_HAL_Driver/Src/stm32l4xx_hal_rtc.c ****   * @param  Format: specifies the format of the entered parameters.
 605:/home/fanxinhao/Work/LiteOS_Lab/drivers/third_party/ST/STM32L4xx_HAL_Driver/Src/stm32l4xx_hal_rtc.c ****   *          This parameter can be one of the following values:
 606:/home/fanxinhao/Work/LiteOS_Lab/drivers/third_party/ST/STM32L4xx_HAL_Driver/Src/stm32l4xx_hal_rtc.c ****   *            @arg RTC_FORMAT_BIN: Binary data format 
 607:/home/fanxinhao/Work/LiteOS_Lab/drivers/third_party/ST/STM32L4xx_HAL_Driver/Src/stm32l4xx_hal_rtc.c ****   *            @arg RTC_FORMAT_BCD: BCD data format
 608:/home/fanxinhao/Work/LiteOS_Lab/drivers/third_party/ST/STM32L4xx_HAL_Driver/Src/stm32l4xx_hal_rtc.c ****   * @retval HAL status
 609:/home/fanxinhao/Work/LiteOS_Lab/drivers/third_party/ST/STM32L4xx_HAL_Driver/Src/stm32l4xx_hal_rtc.c ****   */
 610:/home/fanxinhao/Work/LiteOS_Lab/drivers/third_party/ST/STM32L4xx_HAL_Driver/Src/stm32l4xx_hal_rtc.c **** HAL_StatusTypeDef HAL_RTC_SetDate(RTC_HandleTypeDef *hrtc, RTC_DateTypeDef *sDate, uint32_t Format)
 611:/home/fanxinhao/Work/LiteOS_Lab/drivers/third_party/ST/STM32L4xx_HAL_Driver/Src/stm32l4xx_hal_rtc.c **** {
 1066              		.loc 1 611 1
 1067              		.cfi_startproc
 1068              		@ args = 0, pretend = 0, frame = 24
 1069              		@ frame_needed = 1, uses_anonymous_args = 0
 1070 0000 90B5     		push	{r4, r7, lr}
 1071              	.LCFI32:
 1072              		.cfi_def_cfa_offset 12
 1073              		.cfi_offset 4, -12
 1074              		.cfi_offset 7, -8
 1075              		.cfi_offset 14, -4
 1076 0002 87B0     		sub	sp, sp, #28
 1077              	.LCFI33:
 1078              		.cfi_def_cfa_offset 40
 1079 0004 00AF     		add	r7, sp, #0
 1080              	.LCFI34:
 1081              		.cfi_def_cfa_register 7
 1082 0006 F860     		str	r0, [r7, #12]
 1083 0008 B960     		str	r1, [r7, #8]
 1084 000a 7A60     		str	r2, [r7, #4]
 612:/home/fanxinhao/Work/LiteOS_Lab/drivers/third_party/ST/STM32L4xx_HAL_Driver/Src/stm32l4xx_hal_rtc.c ****   uint32_t datetmpreg = 0;
 1085              		.loc 1 612 12
 1086 000c 0023     		movs	r3, #0
 1087 000e 7B61     		str	r3, [r7, #20]
 613:/home/fanxinhao/Work/LiteOS_Lab/drivers/third_party/ST/STM32L4xx_HAL_Driver/Src/stm32l4xx_hal_rtc.c **** 
 614:/home/fanxinhao/Work/LiteOS_Lab/drivers/third_party/ST/STM32L4xx_HAL_Driver/Src/stm32l4xx_hal_rtc.c ****  /* Check the parameters */
 615:/home/fanxinhao/Work/LiteOS_Lab/drivers/third_party/ST/STM32L4xx_HAL_Driver/Src/stm32l4xx_hal_rtc.c ****   assert_param(IS_RTC_FORMAT(Format));
 616:/home/fanxinhao/Work/LiteOS_Lab/drivers/third_party/ST/STM32L4xx_HAL_Driver/Src/stm32l4xx_hal_rtc.c **** 
 617:/home/fanxinhao/Work/LiteOS_Lab/drivers/third_party/ST/STM32L4xx_HAL_Driver/Src/stm32l4xx_hal_rtc.c ****  /* Process Locked */
 618:/home/fanxinhao/Work/LiteOS_Lab/drivers/third_party/ST/STM32L4xx_HAL_Driver/Src/stm32l4xx_hal_rtc.c ****  __HAL_LOCK(hrtc);
 1088              		.loc 1 618 2
 1089 0010 FB68     		ldr	r3, [r7, #12]
 1090 0012 93F82030 		ldrb	r3, [r3, #32]	@ zero_extendqisi2
 1091 0016 012B     		cmp	r3, #1
 1092 0018 01D1     		bne	.L31
 1093              		.loc 1 618 2 is_stmt 0 discriminator 1
 1094 001a 0223     		movs	r3, #2
 1095 001c AAE0     		b	.L32
ARM GAS  /tmp/ccXT28fZ.s 			page 31


 1096              	.L31:
 1097              		.loc 1 618 2 discriminator 2
 1098 001e FB68     		ldr	r3, [r7, #12]
 1099 0020 0122     		movs	r2, #1
 1100 0022 83F82020 		strb	r2, [r3, #32]
 619:/home/fanxinhao/Work/LiteOS_Lab/drivers/third_party/ST/STM32L4xx_HAL_Driver/Src/stm32l4xx_hal_rtc.c **** 
 620:/home/fanxinhao/Work/LiteOS_Lab/drivers/third_party/ST/STM32L4xx_HAL_Driver/Src/stm32l4xx_hal_rtc.c ****   hrtc->State = HAL_RTC_STATE_BUSY;
 1101              		.loc 1 620 15 is_stmt 1 discriminator 2
 1102 0026 FB68     		ldr	r3, [r7, #12]
 1103 0028 0222     		movs	r2, #2
 1104 002a 83F82120 		strb	r2, [r3, #33]
 621:/home/fanxinhao/Work/LiteOS_Lab/drivers/third_party/ST/STM32L4xx_HAL_Driver/Src/stm32l4xx_hal_rtc.c **** 
 622:/home/fanxinhao/Work/LiteOS_Lab/drivers/third_party/ST/STM32L4xx_HAL_Driver/Src/stm32l4xx_hal_rtc.c ****   if((Format == RTC_FORMAT_BIN) && ((sDate->Month & 0x10U) == 0x10U))
 1105              		.loc 1 622 5 discriminator 2
 1106 002e 7B68     		ldr	r3, [r7, #4]
 1107 0030 002B     		cmp	r3, #0
 1108 0032 0ED1     		bne	.L33
 1109              		.loc 1 622 43 discriminator 1
 1110 0034 BB68     		ldr	r3, [r7, #8]
 1111 0036 5B78     		ldrb	r3, [r3, #1]	@ zero_extendqisi2
 1112              		.loc 1 622 51 discriminator 1
 1113 0038 03F01003 		and	r3, r3, #16
 1114              		.loc 1 622 33 discriminator 1
 1115 003c 002B     		cmp	r3, #0
 1116 003e 08D0     		beq	.L33
 623:/home/fanxinhao/Work/LiteOS_Lab/drivers/third_party/ST/STM32L4xx_HAL_Driver/Src/stm32l4xx_hal_rtc.c ****   {
 624:/home/fanxinhao/Work/LiteOS_Lab/drivers/third_party/ST/STM32L4xx_HAL_Driver/Src/stm32l4xx_hal_rtc.c ****     sDate->Month = (uint8_t)((sDate->Month & (uint8_t)~(0x10U)) + (uint8_t)0x0AU);
 1117              		.loc 1 624 36
 1118 0040 BB68     		ldr	r3, [r7, #8]
 1119 0042 5B78     		ldrb	r3, [r3, #1]	@ zero_extendqisi2
 1120              		.loc 1 624 44
 1121 0044 23F01003 		bic	r3, r3, #16
 1122 0048 DBB2     		uxtb	r3, r3
 1123              		.loc 1 624 20
 1124 004a 0A33     		adds	r3, r3, #10
 1125 004c DAB2     		uxtb	r2, r3
 1126              		.loc 1 624 18
 1127 004e BB68     		ldr	r3, [r7, #8]
 1128 0050 5A70     		strb	r2, [r3, #1]
 1129              	.L33:
 625:/home/fanxinhao/Work/LiteOS_Lab/drivers/third_party/ST/STM32L4xx_HAL_Driver/Src/stm32l4xx_hal_rtc.c ****   }
 626:/home/fanxinhao/Work/LiteOS_Lab/drivers/third_party/ST/STM32L4xx_HAL_Driver/Src/stm32l4xx_hal_rtc.c **** 
 627:/home/fanxinhao/Work/LiteOS_Lab/drivers/third_party/ST/STM32L4xx_HAL_Driver/Src/stm32l4xx_hal_rtc.c ****   assert_param(IS_RTC_WEEKDAY(sDate->WeekDay));
 628:/home/fanxinhao/Work/LiteOS_Lab/drivers/third_party/ST/STM32L4xx_HAL_Driver/Src/stm32l4xx_hal_rtc.c **** 
 629:/home/fanxinhao/Work/LiteOS_Lab/drivers/third_party/ST/STM32L4xx_HAL_Driver/Src/stm32l4xx_hal_rtc.c ****   if(Format == RTC_FORMAT_BIN)
 1130              		.loc 1 629 5
 1131 0052 7B68     		ldr	r3, [r7, #4]
 1132 0054 002B     		cmp	r3, #0
 1133 0056 1CD1     		bne	.L34
 630:/home/fanxinhao/Work/LiteOS_Lab/drivers/third_party/ST/STM32L4xx_HAL_Driver/Src/stm32l4xx_hal_rtc.c ****   {
 631:/home/fanxinhao/Work/LiteOS_Lab/drivers/third_party/ST/STM32L4xx_HAL_Driver/Src/stm32l4xx_hal_rtc.c ****     assert_param(IS_RTC_YEAR(sDate->Year));
 632:/home/fanxinhao/Work/LiteOS_Lab/drivers/third_party/ST/STM32L4xx_HAL_Driver/Src/stm32l4xx_hal_rtc.c ****     assert_param(IS_RTC_MONTH(sDate->Month));
 633:/home/fanxinhao/Work/LiteOS_Lab/drivers/third_party/ST/STM32L4xx_HAL_Driver/Src/stm32l4xx_hal_rtc.c ****     assert_param(IS_RTC_DATE(sDate->Date));
 634:/home/fanxinhao/Work/LiteOS_Lab/drivers/third_party/ST/STM32L4xx_HAL_Driver/Src/stm32l4xx_hal_rtc.c **** 
 635:/home/fanxinhao/Work/LiteOS_Lab/drivers/third_party/ST/STM32L4xx_HAL_Driver/Src/stm32l4xx_hal_rtc.c ****    datetmpreg = (((uint32_t)RTC_ByteToBcd2(sDate->Year) << 16) | \
 1134              		.loc 1 635 29
 1135 0058 BB68     		ldr	r3, [r7, #8]
ARM GAS  /tmp/ccXT28fZ.s 			page 32


 1136 005a DB78     		ldrb	r3, [r3, #3]	@ zero_extendqisi2
 1137 005c 1846     		mov	r0, r3
 1138 005e FFF7FEFF 		bl	RTC_ByteToBcd2
 1139 0062 0346     		mov	r3, r0
 1140              		.loc 1 635 57
 1141 0064 1C04     		lsls	r4, r3, #16
 636:/home/fanxinhao/Work/LiteOS_Lab/drivers/third_party/ST/STM32L4xx_HAL_Driver/Src/stm32l4xx_hal_rtc.c ****                  ((uint32_t)RTC_ByteToBcd2(sDate->Month) << 8) | \
 1142              		.loc 1 636 29
 1143 0066 BB68     		ldr	r3, [r7, #8]
 1144 0068 5B78     		ldrb	r3, [r3, #1]	@ zero_extendqisi2
 1145 006a 1846     		mov	r0, r3
 1146 006c FFF7FEFF 		bl	RTC_ByteToBcd2
 1147 0070 0346     		mov	r3, r0
 1148              		.loc 1 636 58
 1149 0072 1B02     		lsls	r3, r3, #8
 635:/home/fanxinhao/Work/LiteOS_Lab/drivers/third_party/ST/STM32L4xx_HAL_Driver/Src/stm32l4xx_hal_rtc.c ****                  ((uint32_t)RTC_ByteToBcd2(sDate->Month) << 8) | \
 1150              		.loc 1 635 64
 1151 0074 1C43     		orrs	r4, r4, r3
 637:/home/fanxinhao/Work/LiteOS_Lab/drivers/third_party/ST/STM32L4xx_HAL_Driver/Src/stm32l4xx_hal_rtc.c ****                  ((uint32_t)RTC_ByteToBcd2(sDate->Date)) | \
 1152              		.loc 1 637 29
 1153 0076 BB68     		ldr	r3, [r7, #8]
 1154 0078 9B78     		ldrb	r3, [r3, #2]	@ zero_extendqisi2
 1155 007a 1846     		mov	r0, r3
 1156 007c FFF7FEFF 		bl	RTC_ByteToBcd2
 1157 0080 0346     		mov	r3, r0
 636:/home/fanxinhao/Work/LiteOS_Lab/drivers/third_party/ST/STM32L4xx_HAL_Driver/Src/stm32l4xx_hal_rtc.c ****                  ((uint32_t)RTC_ByteToBcd2(sDate->Month) << 8) | \
 1158              		.loc 1 636 64
 1159 0082 44EA0302 		orr	r2, r4, r3
 638:/home/fanxinhao/Work/LiteOS_Lab/drivers/third_party/ST/STM32L4xx_HAL_Driver/Src/stm32l4xx_hal_rtc.c ****                  ((uint32_t)sDate->WeekDay << 13));
 1160              		.loc 1 638 34
 1161 0086 BB68     		ldr	r3, [r7, #8]
 1162 0088 1B78     		ldrb	r3, [r3]	@ zero_extendqisi2
 1163              		.loc 1 638 44
 1164 008a 5B03     		lsls	r3, r3, #13
 635:/home/fanxinhao/Work/LiteOS_Lab/drivers/third_party/ST/STM32L4xx_HAL_Driver/Src/stm32l4xx_hal_rtc.c ****                  ((uint32_t)RTC_ByteToBcd2(sDate->Month) << 8) | \
 1165              		.loc 1 635 15
 1166 008c 1343     		orrs	r3, r3, r2
 1167 008e 7B61     		str	r3, [r7, #20]
 1168 0090 1CE0     		b	.L35
 1169              	.L34:
 639:/home/fanxinhao/Work/LiteOS_Lab/drivers/third_party/ST/STM32L4xx_HAL_Driver/Src/stm32l4xx_hal_rtc.c ****   }
 640:/home/fanxinhao/Work/LiteOS_Lab/drivers/third_party/ST/STM32L4xx_HAL_Driver/Src/stm32l4xx_hal_rtc.c ****   else
 641:/home/fanxinhao/Work/LiteOS_Lab/drivers/third_party/ST/STM32L4xx_HAL_Driver/Src/stm32l4xx_hal_rtc.c ****   {
 642:/home/fanxinhao/Work/LiteOS_Lab/drivers/third_party/ST/STM32L4xx_HAL_Driver/Src/stm32l4xx_hal_rtc.c ****     assert_param(IS_RTC_YEAR(RTC_Bcd2ToByte(sDate->Year)));
 643:/home/fanxinhao/Work/LiteOS_Lab/drivers/third_party/ST/STM32L4xx_HAL_Driver/Src/stm32l4xx_hal_rtc.c ****     datetmpreg = RTC_Bcd2ToByte(sDate->Month);
 1170              		.loc 1 643 18
 1171 0092 BB68     		ldr	r3, [r7, #8]
 1172 0094 5B78     		ldrb	r3, [r3, #1]	@ zero_extendqisi2
 1173 0096 1846     		mov	r0, r3
 1174 0098 FFF7FEFF 		bl	RTC_Bcd2ToByte
 1175 009c 0346     		mov	r3, r0
 1176              		.loc 1 643 16
 1177 009e 7B61     		str	r3, [r7, #20]
 644:/home/fanxinhao/Work/LiteOS_Lab/drivers/third_party/ST/STM32L4xx_HAL_Driver/Src/stm32l4xx_hal_rtc.c ****     assert_param(IS_RTC_MONTH(datetmpreg));
 645:/home/fanxinhao/Work/LiteOS_Lab/drivers/third_party/ST/STM32L4xx_HAL_Driver/Src/stm32l4xx_hal_rtc.c ****     datetmpreg = RTC_Bcd2ToByte(sDate->Date);
 1178              		.loc 1 645 18
 1179 00a0 BB68     		ldr	r3, [r7, #8]
ARM GAS  /tmp/ccXT28fZ.s 			page 33


 1180 00a2 9B78     		ldrb	r3, [r3, #2]	@ zero_extendqisi2
 1181 00a4 1846     		mov	r0, r3
 1182 00a6 FFF7FEFF 		bl	RTC_Bcd2ToByte
 1183 00aa 0346     		mov	r3, r0
 1184              		.loc 1 645 16
 1185 00ac 7B61     		str	r3, [r7, #20]
 646:/home/fanxinhao/Work/LiteOS_Lab/drivers/third_party/ST/STM32L4xx_HAL_Driver/Src/stm32l4xx_hal_rtc.c ****     assert_param(IS_RTC_DATE(datetmpreg));
 647:/home/fanxinhao/Work/LiteOS_Lab/drivers/third_party/ST/STM32L4xx_HAL_Driver/Src/stm32l4xx_hal_rtc.c **** 
 648:/home/fanxinhao/Work/LiteOS_Lab/drivers/third_party/ST/STM32L4xx_HAL_Driver/Src/stm32l4xx_hal_rtc.c ****     datetmpreg = ((((uint32_t)sDate->Year) << 16) | \
 1186              		.loc 1 648 36
 1187 00ae BB68     		ldr	r3, [r7, #8]
 1188 00b0 DB78     		ldrb	r3, [r3, #3]	@ zero_extendqisi2
 1189              		.loc 1 648 44
 1190 00b2 1A04     		lsls	r2, r3, #16
 649:/home/fanxinhao/Work/LiteOS_Lab/drivers/third_party/ST/STM32L4xx_HAL_Driver/Src/stm32l4xx_hal_rtc.c ****                   (((uint32_t)sDate->Month) << 8) | \
 1191              		.loc 1 649 36
 1192 00b4 BB68     		ldr	r3, [r7, #8]
 1193 00b6 5B78     		ldrb	r3, [r3, #1]	@ zero_extendqisi2
 1194              		.loc 1 649 45
 1195 00b8 1B02     		lsls	r3, r3, #8
 648:/home/fanxinhao/Work/LiteOS_Lab/drivers/third_party/ST/STM32L4xx_HAL_Driver/Src/stm32l4xx_hal_rtc.c ****                   (((uint32_t)sDate->Month) << 8) | \
 1196              		.loc 1 648 51
 1197 00ba 1343     		orrs	r3, r3, r2
 650:/home/fanxinhao/Work/LiteOS_Lab/drivers/third_party/ST/STM32L4xx_HAL_Driver/Src/stm32l4xx_hal_rtc.c ****                   ((uint32_t)sDate->Date) | \
 1198              		.loc 1 650 35
 1199 00bc BA68     		ldr	r2, [r7, #8]
 1200 00be 9278     		ldrb	r2, [r2, #2]	@ zero_extendqisi2
 649:/home/fanxinhao/Work/LiteOS_Lab/drivers/third_party/ST/STM32L4xx_HAL_Driver/Src/stm32l4xx_hal_rtc.c ****                   (((uint32_t)sDate->Month) << 8) | \
 1201              		.loc 1 649 51
 1202 00c0 1A43     		orrs	r2, r2, r3
 651:/home/fanxinhao/Work/LiteOS_Lab/drivers/third_party/ST/STM32L4xx_HAL_Driver/Src/stm32l4xx_hal_rtc.c ****                   (((uint32_t)sDate->WeekDay) << 13));
 1203              		.loc 1 651 36
 1204 00c2 BB68     		ldr	r3, [r7, #8]
 1205 00c4 1B78     		ldrb	r3, [r3]	@ zero_extendqisi2
 1206              		.loc 1 651 47
 1207 00c6 5B03     		lsls	r3, r3, #13
 648:/home/fanxinhao/Work/LiteOS_Lab/drivers/third_party/ST/STM32L4xx_HAL_Driver/Src/stm32l4xx_hal_rtc.c ****                   (((uint32_t)sDate->Month) << 8) | \
 1208              		.loc 1 648 16
 1209 00c8 1343     		orrs	r3, r3, r2
 1210 00ca 7B61     		str	r3, [r7, #20]
 1211              	.L35:
 652:/home/fanxinhao/Work/LiteOS_Lab/drivers/third_party/ST/STM32L4xx_HAL_Driver/Src/stm32l4xx_hal_rtc.c ****   }
 653:/home/fanxinhao/Work/LiteOS_Lab/drivers/third_party/ST/STM32L4xx_HAL_Driver/Src/stm32l4xx_hal_rtc.c **** 
 654:/home/fanxinhao/Work/LiteOS_Lab/drivers/third_party/ST/STM32L4xx_HAL_Driver/Src/stm32l4xx_hal_rtc.c ****   /* Disable the write protection for RTC registers */
 655:/home/fanxinhao/Work/LiteOS_Lab/drivers/third_party/ST/STM32L4xx_HAL_Driver/Src/stm32l4xx_hal_rtc.c ****   __HAL_RTC_WRITEPROTECTION_DISABLE(hrtc);
 1212              		.loc 1 655 3
 1213 00cc FB68     		ldr	r3, [r7, #12]
 1214 00ce 1B68     		ldr	r3, [r3]
 1215 00d0 CA22     		movs	r2, #202
 1216 00d2 5A62     		str	r2, [r3, #36]
 1217 00d4 FB68     		ldr	r3, [r7, #12]
 1218 00d6 1B68     		ldr	r3, [r3]
 1219 00d8 5322     		movs	r2, #83
 1220 00da 5A62     		str	r2, [r3, #36]
 656:/home/fanxinhao/Work/LiteOS_Lab/drivers/third_party/ST/STM32L4xx_HAL_Driver/Src/stm32l4xx_hal_rtc.c **** 
 657:/home/fanxinhao/Work/LiteOS_Lab/drivers/third_party/ST/STM32L4xx_HAL_Driver/Src/stm32l4xx_hal_rtc.c ****   /* Set Initialization mode */
 658:/home/fanxinhao/Work/LiteOS_Lab/drivers/third_party/ST/STM32L4xx_HAL_Driver/Src/stm32l4xx_hal_rtc.c ****   if(RTC_EnterInitMode(hrtc) != HAL_OK)
ARM GAS  /tmp/ccXT28fZ.s 			page 34


 1221              		.loc 1 658 6
 1222 00dc F868     		ldr	r0, [r7, #12]
 1223 00de FFF7FEFF 		bl	RTC_EnterInitMode
 1224 00e2 0346     		mov	r3, r0
 1225              		.loc 1 658 5
 1226 00e4 002B     		cmp	r3, #0
 1227 00e6 0DD0     		beq	.L36
 659:/home/fanxinhao/Work/LiteOS_Lab/drivers/third_party/ST/STM32L4xx_HAL_Driver/Src/stm32l4xx_hal_rtc.c ****   {
 660:/home/fanxinhao/Work/LiteOS_Lab/drivers/third_party/ST/STM32L4xx_HAL_Driver/Src/stm32l4xx_hal_rtc.c ****     /* Enable the write protection for RTC registers */
 661:/home/fanxinhao/Work/LiteOS_Lab/drivers/third_party/ST/STM32L4xx_HAL_Driver/Src/stm32l4xx_hal_rtc.c ****     __HAL_RTC_WRITEPROTECTION_ENABLE(hrtc);
 1228              		.loc 1 661 5
 1229 00e8 FB68     		ldr	r3, [r7, #12]
 1230 00ea 1B68     		ldr	r3, [r3]
 1231 00ec FF22     		movs	r2, #255
 1232 00ee 5A62     		str	r2, [r3, #36]
 662:/home/fanxinhao/Work/LiteOS_Lab/drivers/third_party/ST/STM32L4xx_HAL_Driver/Src/stm32l4xx_hal_rtc.c **** 
 663:/home/fanxinhao/Work/LiteOS_Lab/drivers/third_party/ST/STM32L4xx_HAL_Driver/Src/stm32l4xx_hal_rtc.c ****     /* Set RTC state*/
 664:/home/fanxinhao/Work/LiteOS_Lab/drivers/third_party/ST/STM32L4xx_HAL_Driver/Src/stm32l4xx_hal_rtc.c ****     hrtc->State = HAL_RTC_STATE_ERROR;
 1233              		.loc 1 664 17
 1234 00f0 FB68     		ldr	r3, [r7, #12]
 1235 00f2 0422     		movs	r2, #4
 1236 00f4 83F82120 		strb	r2, [r3, #33]
 665:/home/fanxinhao/Work/LiteOS_Lab/drivers/third_party/ST/STM32L4xx_HAL_Driver/Src/stm32l4xx_hal_rtc.c **** 
 666:/home/fanxinhao/Work/LiteOS_Lab/drivers/third_party/ST/STM32L4xx_HAL_Driver/Src/stm32l4xx_hal_rtc.c ****     /* Process Unlocked */ 
 667:/home/fanxinhao/Work/LiteOS_Lab/drivers/third_party/ST/STM32L4xx_HAL_Driver/Src/stm32l4xx_hal_rtc.c ****     __HAL_UNLOCK(hrtc);
 1237              		.loc 1 667 5
 1238 00f8 FB68     		ldr	r3, [r7, #12]
 1239 00fa 0022     		movs	r2, #0
 1240 00fc 83F82020 		strb	r2, [r3, #32]
 668:/home/fanxinhao/Work/LiteOS_Lab/drivers/third_party/ST/STM32L4xx_HAL_Driver/Src/stm32l4xx_hal_rtc.c **** 
 669:/home/fanxinhao/Work/LiteOS_Lab/drivers/third_party/ST/STM32L4xx_HAL_Driver/Src/stm32l4xx_hal_rtc.c ****     return HAL_ERROR;
 1241              		.loc 1 669 12
 1242 0100 0123     		movs	r3, #1
 1243 0102 37E0     		b	.L32
 1244              	.L36:
 670:/home/fanxinhao/Work/LiteOS_Lab/drivers/third_party/ST/STM32L4xx_HAL_Driver/Src/stm32l4xx_hal_rtc.c ****   }
 671:/home/fanxinhao/Work/LiteOS_Lab/drivers/third_party/ST/STM32L4xx_HAL_Driver/Src/stm32l4xx_hal_rtc.c ****   else
 672:/home/fanxinhao/Work/LiteOS_Lab/drivers/third_party/ST/STM32L4xx_HAL_Driver/Src/stm32l4xx_hal_rtc.c ****   {
 673:/home/fanxinhao/Work/LiteOS_Lab/drivers/third_party/ST/STM32L4xx_HAL_Driver/Src/stm32l4xx_hal_rtc.c ****     /* Set the RTC_DR register */
 674:/home/fanxinhao/Work/LiteOS_Lab/drivers/third_party/ST/STM32L4xx_HAL_Driver/Src/stm32l4xx_hal_rtc.c ****     hrtc->Instance->DR = (uint32_t)(datetmpreg & RTC_DR_RESERVED_MASK);
 1245              		.loc 1 674 9
 1246 0104 FB68     		ldr	r3, [r7, #12]
 1247 0106 1A68     		ldr	r2, [r3]
 1248              		.loc 1 674 26
 1249 0108 7B69     		ldr	r3, [r7, #20]
 1250 010a 23F07F43 		bic	r3, r3, #-16777216
 1251 010e 23F0C003 		bic	r3, r3, #192
 1252              		.loc 1 674 24
 1253 0112 5360     		str	r3, [r2, #4]
 675:/home/fanxinhao/Work/LiteOS_Lab/drivers/third_party/ST/STM32L4xx_HAL_Driver/Src/stm32l4xx_hal_rtc.c **** 
 676:/home/fanxinhao/Work/LiteOS_Lab/drivers/third_party/ST/STM32L4xx_HAL_Driver/Src/stm32l4xx_hal_rtc.c ****     /* Exit Initialization mode */
 677:/home/fanxinhao/Work/LiteOS_Lab/drivers/third_party/ST/STM32L4xx_HAL_Driver/Src/stm32l4xx_hal_rtc.c ****     hrtc->Instance->ISR &= ((uint32_t)~RTC_ISR_INIT);
 1254              		.loc 1 677 9
 1255 0114 FB68     		ldr	r3, [r7, #12]
 1256 0116 1B68     		ldr	r3, [r3]
 1257              		.loc 1 677 25
 1258 0118 DA68     		ldr	r2, [r3, #12]
ARM GAS  /tmp/ccXT28fZ.s 			page 35


 1259              		.loc 1 677 9
 1260 011a FB68     		ldr	r3, [r7, #12]
 1261 011c 1B68     		ldr	r3, [r3]
 1262              		.loc 1 677 25
 1263 011e 22F08002 		bic	r2, r2, #128
 1264 0122 DA60     		str	r2, [r3, #12]
 678:/home/fanxinhao/Work/LiteOS_Lab/drivers/third_party/ST/STM32L4xx_HAL_Driver/Src/stm32l4xx_hal_rtc.c **** 
 679:/home/fanxinhao/Work/LiteOS_Lab/drivers/third_party/ST/STM32L4xx_HAL_Driver/Src/stm32l4xx_hal_rtc.c ****     /* If  CR_BYPSHAD bit = 0, wait for synchro else this check is not needed */
 680:/home/fanxinhao/Work/LiteOS_Lab/drivers/third_party/ST/STM32L4xx_HAL_Driver/Src/stm32l4xx_hal_rtc.c ****     if((hrtc->Instance->CR & RTC_CR_BYPSHAD) == RESET)
 1265              		.loc 1 680 13
 1266 0124 FB68     		ldr	r3, [r7, #12]
 1267 0126 1B68     		ldr	r3, [r3]
 1268              		.loc 1 680 23
 1269 0128 9B68     		ldr	r3, [r3, #8]
 1270              		.loc 1 680 28
 1271 012a 03F02003 		and	r3, r3, #32
 1272              		.loc 1 680 7
 1273 012e 002B     		cmp	r3, #0
 1274 0130 13D1     		bne	.L37
 681:/home/fanxinhao/Work/LiteOS_Lab/drivers/third_party/ST/STM32L4xx_HAL_Driver/Src/stm32l4xx_hal_rtc.c ****     {
 682:/home/fanxinhao/Work/LiteOS_Lab/drivers/third_party/ST/STM32L4xx_HAL_Driver/Src/stm32l4xx_hal_rtc.c ****       if(HAL_RTC_WaitForSynchro(hrtc) != HAL_OK)
 1275              		.loc 1 682 10
 1276 0132 F868     		ldr	r0, [r7, #12]
 1277 0134 FFF7FEFF 		bl	HAL_RTC_WaitForSynchro
 1278 0138 0346     		mov	r3, r0
 1279              		.loc 1 682 9
 1280 013a 002B     		cmp	r3, #0
 1281 013c 0DD0     		beq	.L37
 683:/home/fanxinhao/Work/LiteOS_Lab/drivers/third_party/ST/STM32L4xx_HAL_Driver/Src/stm32l4xx_hal_rtc.c ****       {
 684:/home/fanxinhao/Work/LiteOS_Lab/drivers/third_party/ST/STM32L4xx_HAL_Driver/Src/stm32l4xx_hal_rtc.c ****         /* Enable the write protection for RTC registers */
 685:/home/fanxinhao/Work/LiteOS_Lab/drivers/third_party/ST/STM32L4xx_HAL_Driver/Src/stm32l4xx_hal_rtc.c ****         __HAL_RTC_WRITEPROTECTION_ENABLE(hrtc);  
 1282              		.loc 1 685 9
 1283 013e FB68     		ldr	r3, [r7, #12]
 1284 0140 1B68     		ldr	r3, [r3]
 1285 0142 FF22     		movs	r2, #255
 1286 0144 5A62     		str	r2, [r3, #36]
 686:/home/fanxinhao/Work/LiteOS_Lab/drivers/third_party/ST/STM32L4xx_HAL_Driver/Src/stm32l4xx_hal_rtc.c **** 
 687:/home/fanxinhao/Work/LiteOS_Lab/drivers/third_party/ST/STM32L4xx_HAL_Driver/Src/stm32l4xx_hal_rtc.c ****         hrtc->State = HAL_RTC_STATE_ERROR;
 1287              		.loc 1 687 21
 1288 0146 FB68     		ldr	r3, [r7, #12]
 1289 0148 0422     		movs	r2, #4
 1290 014a 83F82120 		strb	r2, [r3, #33]
 688:/home/fanxinhao/Work/LiteOS_Lab/drivers/third_party/ST/STM32L4xx_HAL_Driver/Src/stm32l4xx_hal_rtc.c **** 
 689:/home/fanxinhao/Work/LiteOS_Lab/drivers/third_party/ST/STM32L4xx_HAL_Driver/Src/stm32l4xx_hal_rtc.c ****         /* Process Unlocked */ 
 690:/home/fanxinhao/Work/LiteOS_Lab/drivers/third_party/ST/STM32L4xx_HAL_Driver/Src/stm32l4xx_hal_rtc.c ****         __HAL_UNLOCK(hrtc);
 1291              		.loc 1 690 9
 1292 014e FB68     		ldr	r3, [r7, #12]
 1293 0150 0022     		movs	r2, #0
 1294 0152 83F82020 		strb	r2, [r3, #32]
 691:/home/fanxinhao/Work/LiteOS_Lab/drivers/third_party/ST/STM32L4xx_HAL_Driver/Src/stm32l4xx_hal_rtc.c **** 
 692:/home/fanxinhao/Work/LiteOS_Lab/drivers/third_party/ST/STM32L4xx_HAL_Driver/Src/stm32l4xx_hal_rtc.c ****         return HAL_ERROR;
 1295              		.loc 1 692 16
 1296 0156 0123     		movs	r3, #1
 1297 0158 0CE0     		b	.L32
 1298              	.L37:
 693:/home/fanxinhao/Work/LiteOS_Lab/drivers/third_party/ST/STM32L4xx_HAL_Driver/Src/stm32l4xx_hal_rtc.c ****       }
 694:/home/fanxinhao/Work/LiteOS_Lab/drivers/third_party/ST/STM32L4xx_HAL_Driver/Src/stm32l4xx_hal_rtc.c ****     }
ARM GAS  /tmp/ccXT28fZ.s 			page 36


 695:/home/fanxinhao/Work/LiteOS_Lab/drivers/third_party/ST/STM32L4xx_HAL_Driver/Src/stm32l4xx_hal_rtc.c **** 
 696:/home/fanxinhao/Work/LiteOS_Lab/drivers/third_party/ST/STM32L4xx_HAL_Driver/Src/stm32l4xx_hal_rtc.c ****     /* Enable the write protection for RTC registers */
 697:/home/fanxinhao/Work/LiteOS_Lab/drivers/third_party/ST/STM32L4xx_HAL_Driver/Src/stm32l4xx_hal_rtc.c ****     __HAL_RTC_WRITEPROTECTION_ENABLE(hrtc);
 1299              		.loc 1 697 5
 1300 015a FB68     		ldr	r3, [r7, #12]
 1301 015c 1B68     		ldr	r3, [r3]
 1302 015e FF22     		movs	r2, #255
 1303 0160 5A62     		str	r2, [r3, #36]
 698:/home/fanxinhao/Work/LiteOS_Lab/drivers/third_party/ST/STM32L4xx_HAL_Driver/Src/stm32l4xx_hal_rtc.c **** 
 699:/home/fanxinhao/Work/LiteOS_Lab/drivers/third_party/ST/STM32L4xx_HAL_Driver/Src/stm32l4xx_hal_rtc.c ****     hrtc->State = HAL_RTC_STATE_READY ;
 1304              		.loc 1 699 17
 1305 0162 FB68     		ldr	r3, [r7, #12]
 1306 0164 0122     		movs	r2, #1
 1307 0166 83F82120 		strb	r2, [r3, #33]
 700:/home/fanxinhao/Work/LiteOS_Lab/drivers/third_party/ST/STM32L4xx_HAL_Driver/Src/stm32l4xx_hal_rtc.c **** 
 701:/home/fanxinhao/Work/LiteOS_Lab/drivers/third_party/ST/STM32L4xx_HAL_Driver/Src/stm32l4xx_hal_rtc.c ****     /* Process Unlocked */ 
 702:/home/fanxinhao/Work/LiteOS_Lab/drivers/third_party/ST/STM32L4xx_HAL_Driver/Src/stm32l4xx_hal_rtc.c ****     __HAL_UNLOCK(hrtc);
 1308              		.loc 1 702 5
 1309 016a FB68     		ldr	r3, [r7, #12]
 1310 016c 0022     		movs	r2, #0
 1311 016e 83F82020 		strb	r2, [r3, #32]
 703:/home/fanxinhao/Work/LiteOS_Lab/drivers/third_party/ST/STM32L4xx_HAL_Driver/Src/stm32l4xx_hal_rtc.c **** 
 704:/home/fanxinhao/Work/LiteOS_Lab/drivers/third_party/ST/STM32L4xx_HAL_Driver/Src/stm32l4xx_hal_rtc.c ****     return HAL_OK;
 1312              		.loc 1 704 12
 1313 0172 0023     		movs	r3, #0
 1314              	.L32:
 705:/home/fanxinhao/Work/LiteOS_Lab/drivers/third_party/ST/STM32L4xx_HAL_Driver/Src/stm32l4xx_hal_rtc.c ****   }
 706:/home/fanxinhao/Work/LiteOS_Lab/drivers/third_party/ST/STM32L4xx_HAL_Driver/Src/stm32l4xx_hal_rtc.c **** }
 1315              		.loc 1 706 1
 1316 0174 1846     		mov	r0, r3
 1317 0176 1C37     		adds	r7, r7, #28
 1318              	.LCFI35:
 1319              		.cfi_def_cfa_offset 12
 1320 0178 BD46     		mov	sp, r7
 1321              	.LCFI36:
 1322              		.cfi_def_cfa_register 13
 1323              		@ sp needed
 1324 017a 90BD     		pop	{r4, r7, pc}
 1325              		.cfi_endproc
 1326              	.LFE132:
 1328              		.section	.text.HAL_RTC_GetDate,"ax",%progbits
 1329              		.align	1
 1330              		.global	HAL_RTC_GetDate
 1331              		.syntax unified
 1332              		.thumb
 1333              		.thumb_func
 1334              		.fpu fpv4-sp-d16
 1336              	HAL_RTC_GetDate:
 1337              	.LFB133:
 707:/home/fanxinhao/Work/LiteOS_Lab/drivers/third_party/ST/STM32L4xx_HAL_Driver/Src/stm32l4xx_hal_rtc.c **** 
 708:/home/fanxinhao/Work/LiteOS_Lab/drivers/third_party/ST/STM32L4xx_HAL_Driver/Src/stm32l4xx_hal_rtc.c **** /**
 709:/home/fanxinhao/Work/LiteOS_Lab/drivers/third_party/ST/STM32L4xx_HAL_Driver/Src/stm32l4xx_hal_rtc.c ****   * @brief  Get RTC current date.
 710:/home/fanxinhao/Work/LiteOS_Lab/drivers/third_party/ST/STM32L4xx_HAL_Driver/Src/stm32l4xx_hal_rtc.c ****   * @param  hrtc: RTC handle
 711:/home/fanxinhao/Work/LiteOS_Lab/drivers/third_party/ST/STM32L4xx_HAL_Driver/Src/stm32l4xx_hal_rtc.c ****   * @param  sDate: Pointer to Date structure
 712:/home/fanxinhao/Work/LiteOS_Lab/drivers/third_party/ST/STM32L4xx_HAL_Driver/Src/stm32l4xx_hal_rtc.c ****   * @param  Format: Specifies the format of the entered parameters.
 713:/home/fanxinhao/Work/LiteOS_Lab/drivers/third_party/ST/STM32L4xx_HAL_Driver/Src/stm32l4xx_hal_rtc.c ****   *          This parameter can be one of the following values:
 714:/home/fanxinhao/Work/LiteOS_Lab/drivers/third_party/ST/STM32L4xx_HAL_Driver/Src/stm32l4xx_hal_rtc.c ****   *            @arg RTC_FORMAT_BIN:  Binary data format 
ARM GAS  /tmp/ccXT28fZ.s 			page 37


 715:/home/fanxinhao/Work/LiteOS_Lab/drivers/third_party/ST/STM32L4xx_HAL_Driver/Src/stm32l4xx_hal_rtc.c ****   *            @arg RTC_FORMAT_BCD:  BCD data format
 716:/home/fanxinhao/Work/LiteOS_Lab/drivers/third_party/ST/STM32L4xx_HAL_Driver/Src/stm32l4xx_hal_rtc.c ****   * @note  You must call HAL_RTC_GetDate() after HAL_RTC_GetTime() to unlock the values 
 717:/home/fanxinhao/Work/LiteOS_Lab/drivers/third_party/ST/STM32L4xx_HAL_Driver/Src/stm32l4xx_hal_rtc.c ****   *        in the higher-order calendar shadow registers to ensure consistency between the time and
 718:/home/fanxinhao/Work/LiteOS_Lab/drivers/third_party/ST/STM32L4xx_HAL_Driver/Src/stm32l4xx_hal_rtc.c ****   *        Reading RTC current time locks the values in calendar shadow registers until Current dat
 719:/home/fanxinhao/Work/LiteOS_Lab/drivers/third_party/ST/STM32L4xx_HAL_Driver/Src/stm32l4xx_hal_rtc.c ****   * @retval HAL status
 720:/home/fanxinhao/Work/LiteOS_Lab/drivers/third_party/ST/STM32L4xx_HAL_Driver/Src/stm32l4xx_hal_rtc.c ****   */
 721:/home/fanxinhao/Work/LiteOS_Lab/drivers/third_party/ST/STM32L4xx_HAL_Driver/Src/stm32l4xx_hal_rtc.c **** HAL_StatusTypeDef HAL_RTC_GetDate(RTC_HandleTypeDef *hrtc, RTC_DateTypeDef *sDate, uint32_t Format)
 722:/home/fanxinhao/Work/LiteOS_Lab/drivers/third_party/ST/STM32L4xx_HAL_Driver/Src/stm32l4xx_hal_rtc.c **** {
 1338              		.loc 1 722 1
 1339              		.cfi_startproc
 1340              		@ args = 0, pretend = 0, frame = 24
 1341              		@ frame_needed = 1, uses_anonymous_args = 0
 1342 0000 80B5     		push	{r7, lr}
 1343              	.LCFI37:
 1344              		.cfi_def_cfa_offset 8
 1345              		.cfi_offset 7, -8
 1346              		.cfi_offset 14, -4
 1347 0002 86B0     		sub	sp, sp, #24
 1348              	.LCFI38:
 1349              		.cfi_def_cfa_offset 32
 1350 0004 00AF     		add	r7, sp, #0
 1351              	.LCFI39:
 1352              		.cfi_def_cfa_register 7
 1353 0006 F860     		str	r0, [r7, #12]
 1354 0008 B960     		str	r1, [r7, #8]
 1355 000a 7A60     		str	r2, [r7, #4]
 723:/home/fanxinhao/Work/LiteOS_Lab/drivers/third_party/ST/STM32L4xx_HAL_Driver/Src/stm32l4xx_hal_rtc.c ****   uint32_t datetmpreg = 0;
 1356              		.loc 1 723 12
 1357 000c 0023     		movs	r3, #0
 1358 000e 7B61     		str	r3, [r7, #20]
 724:/home/fanxinhao/Work/LiteOS_Lab/drivers/third_party/ST/STM32L4xx_HAL_Driver/Src/stm32l4xx_hal_rtc.c **** 
 725:/home/fanxinhao/Work/LiteOS_Lab/drivers/third_party/ST/STM32L4xx_HAL_Driver/Src/stm32l4xx_hal_rtc.c ****   /* Check the parameters */
 726:/home/fanxinhao/Work/LiteOS_Lab/drivers/third_party/ST/STM32L4xx_HAL_Driver/Src/stm32l4xx_hal_rtc.c ****   assert_param(IS_RTC_FORMAT(Format));
 727:/home/fanxinhao/Work/LiteOS_Lab/drivers/third_party/ST/STM32L4xx_HAL_Driver/Src/stm32l4xx_hal_rtc.c **** 
 728:/home/fanxinhao/Work/LiteOS_Lab/drivers/third_party/ST/STM32L4xx_HAL_Driver/Src/stm32l4xx_hal_rtc.c ****   /* Get the DR register */
 729:/home/fanxinhao/Work/LiteOS_Lab/drivers/third_party/ST/STM32L4xx_HAL_Driver/Src/stm32l4xx_hal_rtc.c ****   datetmpreg = (uint32_t)(hrtc->Instance->DR & RTC_DR_RESERVED_MASK);
 1359              		.loc 1 729 31
 1360 0010 FB68     		ldr	r3, [r7, #12]
 1361 0012 1B68     		ldr	r3, [r3]
 1362              		.loc 1 729 41
 1363 0014 5B68     		ldr	r3, [r3, #4]
 1364              		.loc 1 729 14
 1365 0016 23F07F43 		bic	r3, r3, #-16777216
 1366 001a 23F0C003 		bic	r3, r3, #192
 1367 001e 7B61     		str	r3, [r7, #20]
 730:/home/fanxinhao/Work/LiteOS_Lab/drivers/third_party/ST/STM32L4xx_HAL_Driver/Src/stm32l4xx_hal_rtc.c **** 
 731:/home/fanxinhao/Work/LiteOS_Lab/drivers/third_party/ST/STM32L4xx_HAL_Driver/Src/stm32l4xx_hal_rtc.c ****   /* Fill the structure fields with the read parameters */
 732:/home/fanxinhao/Work/LiteOS_Lab/drivers/third_party/ST/STM32L4xx_HAL_Driver/Src/stm32l4xx_hal_rtc.c ****   sDate->Year = (uint8_t)((datetmpreg & (RTC_DR_YT | RTC_DR_YU)) >> 16);
 1368              		.loc 1 732 66
 1369 0020 7B69     		ldr	r3, [r7, #20]
 1370 0022 1B0C     		lsrs	r3, r3, #16
 1371              		.loc 1 732 17
 1372 0024 DAB2     		uxtb	r2, r3
 1373              		.loc 1 732 15
 1374 0026 BB68     		ldr	r3, [r7, #8]
 1375 0028 DA70     		strb	r2, [r3, #3]
 733:/home/fanxinhao/Work/LiteOS_Lab/drivers/third_party/ST/STM32L4xx_HAL_Driver/Src/stm32l4xx_hal_rtc.c ****   sDate->Month = (uint8_t)((datetmpreg & (RTC_DR_MT | RTC_DR_MU)) >> 8);
ARM GAS  /tmp/ccXT28fZ.s 			page 38


 1376              		.loc 1 733 67
 1377 002a 7B69     		ldr	r3, [r7, #20]
 1378 002c 1B0A     		lsrs	r3, r3, #8
 1379              		.loc 1 733 18
 1380 002e DBB2     		uxtb	r3, r3
 1381 0030 03F01F03 		and	r3, r3, #31
 1382 0034 DAB2     		uxtb	r2, r3
 1383              		.loc 1 733 16
 1384 0036 BB68     		ldr	r3, [r7, #8]
 1385 0038 5A70     		strb	r2, [r3, #1]
 734:/home/fanxinhao/Work/LiteOS_Lab/drivers/third_party/ST/STM32L4xx_HAL_Driver/Src/stm32l4xx_hal_rtc.c ****   sDate->Date = (uint8_t)(datetmpreg & (RTC_DR_DT | RTC_DR_DU));
 1386              		.loc 1 734 17
 1387 003a 7B69     		ldr	r3, [r7, #20]
 1388 003c DBB2     		uxtb	r3, r3
 1389 003e 03F03F03 		and	r3, r3, #63
 1390 0042 DAB2     		uxtb	r2, r3
 1391              		.loc 1 734 15
 1392 0044 BB68     		ldr	r3, [r7, #8]
 1393 0046 9A70     		strb	r2, [r3, #2]
 735:/home/fanxinhao/Work/LiteOS_Lab/drivers/third_party/ST/STM32L4xx_HAL_Driver/Src/stm32l4xx_hal_rtc.c ****   sDate->WeekDay = (uint8_t)((datetmpreg & (RTC_DR_WDU)) >> 13); 
 1394              		.loc 1 735 58
 1395 0048 7B69     		ldr	r3, [r7, #20]
 1396 004a 5B0B     		lsrs	r3, r3, #13
 1397              		.loc 1 735 20
 1398 004c DBB2     		uxtb	r3, r3
 1399 004e 03F00703 		and	r3, r3, #7
 1400 0052 DAB2     		uxtb	r2, r3
 1401              		.loc 1 735 18
 1402 0054 BB68     		ldr	r3, [r7, #8]
 1403 0056 1A70     		strb	r2, [r3]
 736:/home/fanxinhao/Work/LiteOS_Lab/drivers/third_party/ST/STM32L4xx_HAL_Driver/Src/stm32l4xx_hal_rtc.c **** 
 737:/home/fanxinhao/Work/LiteOS_Lab/drivers/third_party/ST/STM32L4xx_HAL_Driver/Src/stm32l4xx_hal_rtc.c ****   /* Check the input parameters format */
 738:/home/fanxinhao/Work/LiteOS_Lab/drivers/third_party/ST/STM32L4xx_HAL_Driver/Src/stm32l4xx_hal_rtc.c ****   if(Format == RTC_FORMAT_BIN)
 1404              		.loc 1 738 5
 1405 0058 7B68     		ldr	r3, [r7, #4]
 1406 005a 002B     		cmp	r3, #0
 1407 005c 1AD1     		bne	.L39
 739:/home/fanxinhao/Work/LiteOS_Lab/drivers/third_party/ST/STM32L4xx_HAL_Driver/Src/stm32l4xx_hal_rtc.c ****   {
 740:/home/fanxinhao/Work/LiteOS_Lab/drivers/third_party/ST/STM32L4xx_HAL_Driver/Src/stm32l4xx_hal_rtc.c ****     /* Convert the date structure parameters to Binary format */
 741:/home/fanxinhao/Work/LiteOS_Lab/drivers/third_party/ST/STM32L4xx_HAL_Driver/Src/stm32l4xx_hal_rtc.c ****     sDate->Year = (uint8_t)RTC_Bcd2ToByte(sDate->Year);
 1408              		.loc 1 741 28
 1409 005e BB68     		ldr	r3, [r7, #8]
 1410 0060 DB78     		ldrb	r3, [r3, #3]	@ zero_extendqisi2
 1411 0062 1846     		mov	r0, r3
 1412 0064 FFF7FEFF 		bl	RTC_Bcd2ToByte
 1413 0068 0346     		mov	r3, r0
 1414 006a 1A46     		mov	r2, r3
 1415              		.loc 1 741 17
 1416 006c BB68     		ldr	r3, [r7, #8]
 1417 006e DA70     		strb	r2, [r3, #3]
 742:/home/fanxinhao/Work/LiteOS_Lab/drivers/third_party/ST/STM32L4xx_HAL_Driver/Src/stm32l4xx_hal_rtc.c ****     sDate->Month = (uint8_t)RTC_Bcd2ToByte(sDate->Month);
 1418              		.loc 1 742 29
 1419 0070 BB68     		ldr	r3, [r7, #8]
 1420 0072 5B78     		ldrb	r3, [r3, #1]	@ zero_extendqisi2
 1421 0074 1846     		mov	r0, r3
 1422 0076 FFF7FEFF 		bl	RTC_Bcd2ToByte
 1423 007a 0346     		mov	r3, r0
ARM GAS  /tmp/ccXT28fZ.s 			page 39


 1424 007c 1A46     		mov	r2, r3
 1425              		.loc 1 742 18
 1426 007e BB68     		ldr	r3, [r7, #8]
 1427 0080 5A70     		strb	r2, [r3, #1]
 743:/home/fanxinhao/Work/LiteOS_Lab/drivers/third_party/ST/STM32L4xx_HAL_Driver/Src/stm32l4xx_hal_rtc.c ****     sDate->Date = (uint8_t)RTC_Bcd2ToByte(sDate->Date);
 1428              		.loc 1 743 28
 1429 0082 BB68     		ldr	r3, [r7, #8]
 1430 0084 9B78     		ldrb	r3, [r3, #2]	@ zero_extendqisi2
 1431 0086 1846     		mov	r0, r3
 1432 0088 FFF7FEFF 		bl	RTC_Bcd2ToByte
 1433 008c 0346     		mov	r3, r0
 1434 008e 1A46     		mov	r2, r3
 1435              		.loc 1 743 17
 1436 0090 BB68     		ldr	r3, [r7, #8]
 1437 0092 9A70     		strb	r2, [r3, #2]
 1438              	.L39:
 744:/home/fanxinhao/Work/LiteOS_Lab/drivers/third_party/ST/STM32L4xx_HAL_Driver/Src/stm32l4xx_hal_rtc.c ****   }
 745:/home/fanxinhao/Work/LiteOS_Lab/drivers/third_party/ST/STM32L4xx_HAL_Driver/Src/stm32l4xx_hal_rtc.c ****   return HAL_OK;
 1439              		.loc 1 745 10
 1440 0094 0023     		movs	r3, #0
 746:/home/fanxinhao/Work/LiteOS_Lab/drivers/third_party/ST/STM32L4xx_HAL_Driver/Src/stm32l4xx_hal_rtc.c **** }
 1441              		.loc 1 746 1
 1442 0096 1846     		mov	r0, r3
 1443 0098 1837     		adds	r7, r7, #24
 1444              	.LCFI40:
 1445              		.cfi_def_cfa_offset 8
 1446 009a BD46     		mov	sp, r7
 1447              	.LCFI41:
 1448              		.cfi_def_cfa_register 13
 1449              		@ sp needed
 1450 009c 80BD     		pop	{r7, pc}
 1451              		.cfi_endproc
 1452              	.LFE133:
 1454              		.section	.text.HAL_RTC_SetAlarm,"ax",%progbits
 1455              		.align	1
 1456              		.global	HAL_RTC_SetAlarm
 1457              		.syntax unified
 1458              		.thumb
 1459              		.thumb_func
 1460              		.fpu fpv4-sp-d16
 1462              	HAL_RTC_SetAlarm:
 1463              	.LFB134:
 747:/home/fanxinhao/Work/LiteOS_Lab/drivers/third_party/ST/STM32L4xx_HAL_Driver/Src/stm32l4xx_hal_rtc.c **** 
 748:/home/fanxinhao/Work/LiteOS_Lab/drivers/third_party/ST/STM32L4xx_HAL_Driver/Src/stm32l4xx_hal_rtc.c **** /**
 749:/home/fanxinhao/Work/LiteOS_Lab/drivers/third_party/ST/STM32L4xx_HAL_Driver/Src/stm32l4xx_hal_rtc.c ****   * @}
 750:/home/fanxinhao/Work/LiteOS_Lab/drivers/third_party/ST/STM32L4xx_HAL_Driver/Src/stm32l4xx_hal_rtc.c ****   */
 751:/home/fanxinhao/Work/LiteOS_Lab/drivers/third_party/ST/STM32L4xx_HAL_Driver/Src/stm32l4xx_hal_rtc.c **** 
 752:/home/fanxinhao/Work/LiteOS_Lab/drivers/third_party/ST/STM32L4xx_HAL_Driver/Src/stm32l4xx_hal_rtc.c **** /** @defgroup RTC_Exported_Functions_Group3 RTC Alarm functions
 753:/home/fanxinhao/Work/LiteOS_Lab/drivers/third_party/ST/STM32L4xx_HAL_Driver/Src/stm32l4xx_hal_rtc.c ****  *  @brief   RTC Alarm functions
 754:/home/fanxinhao/Work/LiteOS_Lab/drivers/third_party/ST/STM32L4xx_HAL_Driver/Src/stm32l4xx_hal_rtc.c ****  *
 755:/home/fanxinhao/Work/LiteOS_Lab/drivers/third_party/ST/STM32L4xx_HAL_Driver/Src/stm32l4xx_hal_rtc.c **** @verbatim   
 756:/home/fanxinhao/Work/LiteOS_Lab/drivers/third_party/ST/STM32L4xx_HAL_Driver/Src/stm32l4xx_hal_rtc.c ****  ===============================================================================
 757:/home/fanxinhao/Work/LiteOS_Lab/drivers/third_party/ST/STM32L4xx_HAL_Driver/Src/stm32l4xx_hal_rtc.c ****                  ##### RTC Alarm functions #####
 758:/home/fanxinhao/Work/LiteOS_Lab/drivers/third_party/ST/STM32L4xx_HAL_Driver/Src/stm32l4xx_hal_rtc.c ****  ===============================================================================  
 759:/home/fanxinhao/Work/LiteOS_Lab/drivers/third_party/ST/STM32L4xx_HAL_Driver/Src/stm32l4xx_hal_rtc.c ****  
 760:/home/fanxinhao/Work/LiteOS_Lab/drivers/third_party/ST/STM32L4xx_HAL_Driver/Src/stm32l4xx_hal_rtc.c ****  [..] This section provides functions allowing to configure Alarm feature
 761:/home/fanxinhao/Work/LiteOS_Lab/drivers/third_party/ST/STM32L4xx_HAL_Driver/Src/stm32l4xx_hal_rtc.c **** 
ARM GAS  /tmp/ccXT28fZ.s 			page 40


 762:/home/fanxinhao/Work/LiteOS_Lab/drivers/third_party/ST/STM32L4xx_HAL_Driver/Src/stm32l4xx_hal_rtc.c **** @endverbatim
 763:/home/fanxinhao/Work/LiteOS_Lab/drivers/third_party/ST/STM32L4xx_HAL_Driver/Src/stm32l4xx_hal_rtc.c ****   * @{
 764:/home/fanxinhao/Work/LiteOS_Lab/drivers/third_party/ST/STM32L4xx_HAL_Driver/Src/stm32l4xx_hal_rtc.c ****   */
 765:/home/fanxinhao/Work/LiteOS_Lab/drivers/third_party/ST/STM32L4xx_HAL_Driver/Src/stm32l4xx_hal_rtc.c **** /**
 766:/home/fanxinhao/Work/LiteOS_Lab/drivers/third_party/ST/STM32L4xx_HAL_Driver/Src/stm32l4xx_hal_rtc.c ****   * @brief  Set the specified RTC Alarm.
 767:/home/fanxinhao/Work/LiteOS_Lab/drivers/third_party/ST/STM32L4xx_HAL_Driver/Src/stm32l4xx_hal_rtc.c ****   * @param  hrtc: RTC handle
 768:/home/fanxinhao/Work/LiteOS_Lab/drivers/third_party/ST/STM32L4xx_HAL_Driver/Src/stm32l4xx_hal_rtc.c ****   * @param  sAlarm: Pointer to Alarm structure
 769:/home/fanxinhao/Work/LiteOS_Lab/drivers/third_party/ST/STM32L4xx_HAL_Driver/Src/stm32l4xx_hal_rtc.c ****   * @param  Format: Specifies the format of the entered parameters.
 770:/home/fanxinhao/Work/LiteOS_Lab/drivers/third_party/ST/STM32L4xx_HAL_Driver/Src/stm32l4xx_hal_rtc.c ****   *          This parameter can be one of the following values:
 771:/home/fanxinhao/Work/LiteOS_Lab/drivers/third_party/ST/STM32L4xx_HAL_Driver/Src/stm32l4xx_hal_rtc.c ****   *             @arg RTC_FORMAT_BIN: Binary data format 
 772:/home/fanxinhao/Work/LiteOS_Lab/drivers/third_party/ST/STM32L4xx_HAL_Driver/Src/stm32l4xx_hal_rtc.c ****   *             @arg RTC_FORMAT_BCD: BCD data format
 773:/home/fanxinhao/Work/LiteOS_Lab/drivers/third_party/ST/STM32L4xx_HAL_Driver/Src/stm32l4xx_hal_rtc.c ****   * @retval HAL status
 774:/home/fanxinhao/Work/LiteOS_Lab/drivers/third_party/ST/STM32L4xx_HAL_Driver/Src/stm32l4xx_hal_rtc.c ****   */
 775:/home/fanxinhao/Work/LiteOS_Lab/drivers/third_party/ST/STM32L4xx_HAL_Driver/Src/stm32l4xx_hal_rtc.c **** HAL_StatusTypeDef HAL_RTC_SetAlarm(RTC_HandleTypeDef *hrtc, RTC_AlarmTypeDef *sAlarm, uint32_t Form
 776:/home/fanxinhao/Work/LiteOS_Lab/drivers/third_party/ST/STM32L4xx_HAL_Driver/Src/stm32l4xx_hal_rtc.c **** {
 1464              		.loc 1 776 1
 1465              		.cfi_startproc
 1466              		@ args = 0, pretend = 0, frame = 32
 1467              		@ frame_needed = 1, uses_anonymous_args = 0
 1468 0000 90B5     		push	{r4, r7, lr}
 1469              	.LCFI42:
 1470              		.cfi_def_cfa_offset 12
 1471              		.cfi_offset 4, -12
 1472              		.cfi_offset 7, -8
 1473              		.cfi_offset 14, -4
 1474 0002 89B0     		sub	sp, sp, #36
 1475              	.LCFI43:
 1476              		.cfi_def_cfa_offset 48
 1477 0004 00AF     		add	r7, sp, #0
 1478              	.LCFI44:
 1479              		.cfi_def_cfa_register 7
 1480 0006 F860     		str	r0, [r7, #12]
 1481 0008 B960     		str	r1, [r7, #8]
 1482 000a 7A60     		str	r2, [r7, #4]
 777:/home/fanxinhao/Work/LiteOS_Lab/drivers/third_party/ST/STM32L4xx_HAL_Driver/Src/stm32l4xx_hal_rtc.c ****   uint32_t tickstart = 0;
 1483              		.loc 1 777 12
 1484 000c 0023     		movs	r3, #0
 1485 000e BB61     		str	r3, [r7, #24]
 778:/home/fanxinhao/Work/LiteOS_Lab/drivers/third_party/ST/STM32L4xx_HAL_Driver/Src/stm32l4xx_hal_rtc.c ****   uint32_t tmpreg = 0, subsecondtmpreg = 0;
 1486              		.loc 1 778 12
 1487 0010 0023     		movs	r3, #0
 1488 0012 FB61     		str	r3, [r7, #28]
 1489              		.loc 1 778 24
 1490 0014 0023     		movs	r3, #0
 1491 0016 7B61     		str	r3, [r7, #20]
 779:/home/fanxinhao/Work/LiteOS_Lab/drivers/third_party/ST/STM32L4xx_HAL_Driver/Src/stm32l4xx_hal_rtc.c **** 
 780:/home/fanxinhao/Work/LiteOS_Lab/drivers/third_party/ST/STM32L4xx_HAL_Driver/Src/stm32l4xx_hal_rtc.c ****   /* Check the parameters */
 781:/home/fanxinhao/Work/LiteOS_Lab/drivers/third_party/ST/STM32L4xx_HAL_Driver/Src/stm32l4xx_hal_rtc.c ****   assert_param(IS_RTC_FORMAT(Format));
 782:/home/fanxinhao/Work/LiteOS_Lab/drivers/third_party/ST/STM32L4xx_HAL_Driver/Src/stm32l4xx_hal_rtc.c ****   assert_param(IS_RTC_ALARM(sAlarm->Alarm));
 783:/home/fanxinhao/Work/LiteOS_Lab/drivers/third_party/ST/STM32L4xx_HAL_Driver/Src/stm32l4xx_hal_rtc.c ****   assert_param(IS_RTC_ALARM_MASK(sAlarm->AlarmMask));
 784:/home/fanxinhao/Work/LiteOS_Lab/drivers/third_party/ST/STM32L4xx_HAL_Driver/Src/stm32l4xx_hal_rtc.c ****   assert_param(IS_RTC_ALARM_DATE_WEEKDAY_SEL(sAlarm->AlarmDateWeekDaySel));
 785:/home/fanxinhao/Work/LiteOS_Lab/drivers/third_party/ST/STM32L4xx_HAL_Driver/Src/stm32l4xx_hal_rtc.c ****   assert_param(IS_RTC_ALARM_SUB_SECOND_VALUE(sAlarm->AlarmTime.SubSeconds));
 786:/home/fanxinhao/Work/LiteOS_Lab/drivers/third_party/ST/STM32L4xx_HAL_Driver/Src/stm32l4xx_hal_rtc.c ****   assert_param(IS_RTC_ALARM_SUB_SECOND_MASK(sAlarm->AlarmSubSecondMask));
 787:/home/fanxinhao/Work/LiteOS_Lab/drivers/third_party/ST/STM32L4xx_HAL_Driver/Src/stm32l4xx_hal_rtc.c **** 
 788:/home/fanxinhao/Work/LiteOS_Lab/drivers/third_party/ST/STM32L4xx_HAL_Driver/Src/stm32l4xx_hal_rtc.c ****   /* Process Locked */
 789:/home/fanxinhao/Work/LiteOS_Lab/drivers/third_party/ST/STM32L4xx_HAL_Driver/Src/stm32l4xx_hal_rtc.c ****   __HAL_LOCK(hrtc);
 1492              		.loc 1 789 3
ARM GAS  /tmp/ccXT28fZ.s 			page 41


 1493 0018 FB68     		ldr	r3, [r7, #12]
 1494 001a 93F82030 		ldrb	r3, [r3, #32]	@ zero_extendqisi2
 1495 001e 012B     		cmp	r3, #1
 1496 0020 01D1     		bne	.L42
 1497              		.loc 1 789 3 is_stmt 0 discriminator 1
 1498 0022 0223     		movs	r3, #2
 1499 0024 26E1     		b	.L43
 1500              	.L42:
 1501              		.loc 1 789 3 discriminator 2
 1502 0026 FB68     		ldr	r3, [r7, #12]
 1503 0028 0122     		movs	r2, #1
 1504 002a 83F82020 		strb	r2, [r3, #32]
 790:/home/fanxinhao/Work/LiteOS_Lab/drivers/third_party/ST/STM32L4xx_HAL_Driver/Src/stm32l4xx_hal_rtc.c **** 
 791:/home/fanxinhao/Work/LiteOS_Lab/drivers/third_party/ST/STM32L4xx_HAL_Driver/Src/stm32l4xx_hal_rtc.c ****   hrtc->State = HAL_RTC_STATE_BUSY;
 1505              		.loc 1 791 15 is_stmt 1 discriminator 2
 1506 002e FB68     		ldr	r3, [r7, #12]
 1507 0030 0222     		movs	r2, #2
 1508 0032 83F82120 		strb	r2, [r3, #33]
 792:/home/fanxinhao/Work/LiteOS_Lab/drivers/third_party/ST/STM32L4xx_HAL_Driver/Src/stm32l4xx_hal_rtc.c **** 
 793:/home/fanxinhao/Work/LiteOS_Lab/drivers/third_party/ST/STM32L4xx_HAL_Driver/Src/stm32l4xx_hal_rtc.c ****   if(Format == RTC_FORMAT_BIN)
 1509              		.loc 1 793 5 discriminator 2
 1510 0036 7B68     		ldr	r3, [r7, #4]
 1511 0038 002B     		cmp	r3, #0
 1512 003a 37D1     		bne	.L44
 794:/home/fanxinhao/Work/LiteOS_Lab/drivers/third_party/ST/STM32L4xx_HAL_Driver/Src/stm32l4xx_hal_rtc.c ****   {
 795:/home/fanxinhao/Work/LiteOS_Lab/drivers/third_party/ST/STM32L4xx_HAL_Driver/Src/stm32l4xx_hal_rtc.c ****     if((hrtc->Instance->CR & RTC_CR_FMT) != (uint32_t)RESET)
 1513              		.loc 1 795 13
 1514 003c FB68     		ldr	r3, [r7, #12]
 1515 003e 1B68     		ldr	r3, [r3]
 1516              		.loc 1 795 23
 1517 0040 9B68     		ldr	r3, [r3, #8]
 1518              		.loc 1 795 28
 1519 0042 03F04003 		and	r3, r3, #64
 1520              		.loc 1 795 7
 1521 0046 002B     		cmp	r3, #0
 1522 0048 02D1     		bne	.L45
 796:/home/fanxinhao/Work/LiteOS_Lab/drivers/third_party/ST/STM32L4xx_HAL_Driver/Src/stm32l4xx_hal_rtc.c ****     {
 797:/home/fanxinhao/Work/LiteOS_Lab/drivers/third_party/ST/STM32L4xx_HAL_Driver/Src/stm32l4xx_hal_rtc.c ****       assert_param(IS_RTC_HOUR12(sAlarm->AlarmTime.Hours));
 798:/home/fanxinhao/Work/LiteOS_Lab/drivers/third_party/ST/STM32L4xx_HAL_Driver/Src/stm32l4xx_hal_rtc.c ****       assert_param(IS_RTC_HOURFORMAT12(sAlarm->AlarmTime.TimeFormat));
 799:/home/fanxinhao/Work/LiteOS_Lab/drivers/third_party/ST/STM32L4xx_HAL_Driver/Src/stm32l4xx_hal_rtc.c ****     }
 800:/home/fanxinhao/Work/LiteOS_Lab/drivers/third_party/ST/STM32L4xx_HAL_Driver/Src/stm32l4xx_hal_rtc.c ****     else
 801:/home/fanxinhao/Work/LiteOS_Lab/drivers/third_party/ST/STM32L4xx_HAL_Driver/Src/stm32l4xx_hal_rtc.c ****     {
 802:/home/fanxinhao/Work/LiteOS_Lab/drivers/third_party/ST/STM32L4xx_HAL_Driver/Src/stm32l4xx_hal_rtc.c ****       sAlarm->AlarmTime.TimeFormat = 0x00;
 1523              		.loc 1 802 36
 1524 004a BB68     		ldr	r3, [r7, #8]
 1525 004c 0022     		movs	r2, #0
 1526 004e DA70     		strb	r2, [r3, #3]
 1527              	.L45:
 803:/home/fanxinhao/Work/LiteOS_Lab/drivers/third_party/ST/STM32L4xx_HAL_Driver/Src/stm32l4xx_hal_rtc.c ****       assert_param(IS_RTC_HOUR24(sAlarm->AlarmTime.Hours));
 804:/home/fanxinhao/Work/LiteOS_Lab/drivers/third_party/ST/STM32L4xx_HAL_Driver/Src/stm32l4xx_hal_rtc.c ****     }
 805:/home/fanxinhao/Work/LiteOS_Lab/drivers/third_party/ST/STM32L4xx_HAL_Driver/Src/stm32l4xx_hal_rtc.c ****     assert_param(IS_RTC_MINUTES(sAlarm->AlarmTime.Minutes));
 806:/home/fanxinhao/Work/LiteOS_Lab/drivers/third_party/ST/STM32L4xx_HAL_Driver/Src/stm32l4xx_hal_rtc.c ****     assert_param(IS_RTC_SECONDS(sAlarm->AlarmTime.Seconds));
 807:/home/fanxinhao/Work/LiteOS_Lab/drivers/third_party/ST/STM32L4xx_HAL_Driver/Src/stm32l4xx_hal_rtc.c **** 
 808:/home/fanxinhao/Work/LiteOS_Lab/drivers/third_party/ST/STM32L4xx_HAL_Driver/Src/stm32l4xx_hal_rtc.c ****     if(sAlarm->AlarmDateWeekDaySel == RTC_ALARMDATEWEEKDAYSEL_DATE)
 809:/home/fanxinhao/Work/LiteOS_Lab/drivers/third_party/ST/STM32L4xx_HAL_Driver/Src/stm32l4xx_hal_rtc.c ****     {
 810:/home/fanxinhao/Work/LiteOS_Lab/drivers/third_party/ST/STM32L4xx_HAL_Driver/Src/stm32l4xx_hal_rtc.c ****       assert_param(IS_RTC_ALARM_DATE_WEEKDAY_DATE(sAlarm->AlarmDateWeekDay));
 811:/home/fanxinhao/Work/LiteOS_Lab/drivers/third_party/ST/STM32L4xx_HAL_Driver/Src/stm32l4xx_hal_rtc.c ****     }
ARM GAS  /tmp/ccXT28fZ.s 			page 42


 812:/home/fanxinhao/Work/LiteOS_Lab/drivers/third_party/ST/STM32L4xx_HAL_Driver/Src/stm32l4xx_hal_rtc.c ****     else
 813:/home/fanxinhao/Work/LiteOS_Lab/drivers/third_party/ST/STM32L4xx_HAL_Driver/Src/stm32l4xx_hal_rtc.c ****     {
 814:/home/fanxinhao/Work/LiteOS_Lab/drivers/third_party/ST/STM32L4xx_HAL_Driver/Src/stm32l4xx_hal_rtc.c ****       assert_param(IS_RTC_ALARM_DATE_WEEKDAY_WEEKDAY(sAlarm->AlarmDateWeekDay));
 815:/home/fanxinhao/Work/LiteOS_Lab/drivers/third_party/ST/STM32L4xx_HAL_Driver/Src/stm32l4xx_hal_rtc.c ****     }
 816:/home/fanxinhao/Work/LiteOS_Lab/drivers/third_party/ST/STM32L4xx_HAL_Driver/Src/stm32l4xx_hal_rtc.c **** 
 817:/home/fanxinhao/Work/LiteOS_Lab/drivers/third_party/ST/STM32L4xx_HAL_Driver/Src/stm32l4xx_hal_rtc.c ****     tmpreg = (((uint32_t)RTC_ByteToBcd2(sAlarm->AlarmTime.Hours) << 16) | \
 1528              		.loc 1 817 26
 1529 0050 BB68     		ldr	r3, [r7, #8]
 1530 0052 1B78     		ldrb	r3, [r3]	@ zero_extendqisi2
 1531 0054 1846     		mov	r0, r3
 1532 0056 FFF7FEFF 		bl	RTC_ByteToBcd2
 1533 005a 0346     		mov	r3, r0
 1534              		.loc 1 817 66
 1535 005c 1C04     		lsls	r4, r3, #16
 818:/home/fanxinhao/Work/LiteOS_Lab/drivers/third_party/ST/STM32L4xx_HAL_Driver/Src/stm32l4xx_hal_rtc.c ****               ((uint32_t)RTC_ByteToBcd2(sAlarm->AlarmTime.Minutes) << 8) | \
 1536              		.loc 1 818 26
 1537 005e BB68     		ldr	r3, [r7, #8]
 1538 0060 5B78     		ldrb	r3, [r3, #1]	@ zero_extendqisi2
 1539 0062 1846     		mov	r0, r3
 1540 0064 FFF7FEFF 		bl	RTC_ByteToBcd2
 1541 0068 0346     		mov	r3, r0
 1542              		.loc 1 818 68
 1543 006a 1B02     		lsls	r3, r3, #8
 817:/home/fanxinhao/Work/LiteOS_Lab/drivers/third_party/ST/STM32L4xx_HAL_Driver/Src/stm32l4xx_hal_rtc.c ****               ((uint32_t)RTC_ByteToBcd2(sAlarm->AlarmTime.Minutes) << 8) | \
 1544              		.loc 1 817 73
 1545 006c 1C43     		orrs	r4, r4, r3
 819:/home/fanxinhao/Work/LiteOS_Lab/drivers/third_party/ST/STM32L4xx_HAL_Driver/Src/stm32l4xx_hal_rtc.c ****               ((uint32_t)RTC_ByteToBcd2(sAlarm->AlarmTime.Seconds)) | \
 1546              		.loc 1 819 26
 1547 006e BB68     		ldr	r3, [r7, #8]
 1548 0070 9B78     		ldrb	r3, [r3, #2]	@ zero_extendqisi2
 1549 0072 1846     		mov	r0, r3
 1550 0074 FFF7FEFF 		bl	RTC_ByteToBcd2
 1551 0078 0346     		mov	r3, r0
 818:/home/fanxinhao/Work/LiteOS_Lab/drivers/third_party/ST/STM32L4xx_HAL_Driver/Src/stm32l4xx_hal_rtc.c ****               ((uint32_t)RTC_ByteToBcd2(sAlarm->AlarmTime.Minutes) << 8) | \
 1552              		.loc 1 818 74
 1553 007a 44EA0302 		orr	r2, r4, r3
 820:/home/fanxinhao/Work/LiteOS_Lab/drivers/third_party/ST/STM32L4xx_HAL_Driver/Src/stm32l4xx_hal_rtc.c ****               ((uint32_t)(sAlarm->AlarmTime.TimeFormat) << 16) | \
 1554              		.loc 1 820 44
 1555 007e BB68     		ldr	r3, [r7, #8]
 1556 0080 DB78     		ldrb	r3, [r3, #3]	@ zero_extendqisi2
 1557              		.loc 1 820 57
 1558 0082 1B04     		lsls	r3, r3, #16
 819:/home/fanxinhao/Work/LiteOS_Lab/drivers/third_party/ST/STM32L4xx_HAL_Driver/Src/stm32l4xx_hal_rtc.c ****               ((uint32_t)RTC_ByteToBcd2(sAlarm->AlarmTime.Seconds)) | \
 1559              		.loc 1 819 69
 1560 0084 42EA0304 		orr	r4, r2, r3
 821:/home/fanxinhao/Work/LiteOS_Lab/drivers/third_party/ST/STM32L4xx_HAL_Driver/Src/stm32l4xx_hal_rtc.c ****               ((uint32_t)RTC_ByteToBcd2(sAlarm->AlarmDateWeekDay) << 24) | \
 1561              		.loc 1 821 26
 1562 0088 BB68     		ldr	r3, [r7, #8]
 1563 008a 93F82030 		ldrb	r3, [r3, #32]	@ zero_extendqisi2
 1564 008e 1846     		mov	r0, r3
 1565 0090 FFF7FEFF 		bl	RTC_ByteToBcd2
 1566 0094 0346     		mov	r3, r0
 1567              		.loc 1 821 67
 1568 0096 1B06     		lsls	r3, r3, #24
 820:/home/fanxinhao/Work/LiteOS_Lab/drivers/third_party/ST/STM32L4xx_HAL_Driver/Src/stm32l4xx_hal_rtc.c ****               ((uint32_t)(sAlarm->AlarmTime.TimeFormat) << 16) | \
 1569              		.loc 1 820 64
 1570 0098 44EA0302 		orr	r2, r4, r3
ARM GAS  /tmp/ccXT28fZ.s 			page 43


 822:/home/fanxinhao/Work/LiteOS_Lab/drivers/third_party/ST/STM32L4xx_HAL_Driver/Src/stm32l4xx_hal_rtc.c ****               ((uint32_t)sAlarm->AlarmDateWeekDaySel) | \
 1571              		.loc 1 822 32
 1572 009c BB68     		ldr	r3, [r7, #8]
 1573 009e DB69     		ldr	r3, [r3, #28]
 821:/home/fanxinhao/Work/LiteOS_Lab/drivers/third_party/ST/STM32L4xx_HAL_Driver/Src/stm32l4xx_hal_rtc.c ****               ((uint32_t)RTC_ByteToBcd2(sAlarm->AlarmDateWeekDay) << 24) | \
 1574              		.loc 1 821 74
 1575 00a0 1A43     		orrs	r2, r2, r3
 823:/home/fanxinhao/Work/LiteOS_Lab/drivers/third_party/ST/STM32L4xx_HAL_Driver/Src/stm32l4xx_hal_rtc.c ****               ((uint32_t)sAlarm->AlarmMask));
 1576              		.loc 1 823 32
 1577 00a2 BB68     		ldr	r3, [r7, #8]
 1578 00a4 5B69     		ldr	r3, [r3, #20]
 817:/home/fanxinhao/Work/LiteOS_Lab/drivers/third_party/ST/STM32L4xx_HAL_Driver/Src/stm32l4xx_hal_rtc.c ****               ((uint32_t)RTC_ByteToBcd2(sAlarm->AlarmTime.Minutes) << 8) | \
 1579              		.loc 1 817 12
 1580 00a6 1343     		orrs	r3, r3, r2
 1581 00a8 FB61     		str	r3, [r7, #28]
 1582 00aa 40E0     		b	.L46
 1583              	.L44:
 824:/home/fanxinhao/Work/LiteOS_Lab/drivers/third_party/ST/STM32L4xx_HAL_Driver/Src/stm32l4xx_hal_rtc.c ****   }
 825:/home/fanxinhao/Work/LiteOS_Lab/drivers/third_party/ST/STM32L4xx_HAL_Driver/Src/stm32l4xx_hal_rtc.c ****   else
 826:/home/fanxinhao/Work/LiteOS_Lab/drivers/third_party/ST/STM32L4xx_HAL_Driver/Src/stm32l4xx_hal_rtc.c ****   {
 827:/home/fanxinhao/Work/LiteOS_Lab/drivers/third_party/ST/STM32L4xx_HAL_Driver/Src/stm32l4xx_hal_rtc.c ****     if((hrtc->Instance->CR & RTC_CR_FMT) != (uint32_t)RESET)
 1584              		.loc 1 827 13
 1585 00ac FB68     		ldr	r3, [r7, #12]
 1586 00ae 1B68     		ldr	r3, [r3]
 1587              		.loc 1 827 23
 1588 00b0 9B68     		ldr	r3, [r3, #8]
 1589              		.loc 1 827 28
 1590 00b2 03F04003 		and	r3, r3, #64
 1591              		.loc 1 827 7
 1592 00b6 002B     		cmp	r3, #0
 1593 00b8 07D0     		beq	.L47
 828:/home/fanxinhao/Work/LiteOS_Lab/drivers/third_party/ST/STM32L4xx_HAL_Driver/Src/stm32l4xx_hal_rtc.c ****     {
 829:/home/fanxinhao/Work/LiteOS_Lab/drivers/third_party/ST/STM32L4xx_HAL_Driver/Src/stm32l4xx_hal_rtc.c ****       tmpreg = RTC_Bcd2ToByte(sAlarm->AlarmTime.Hours);
 1594              		.loc 1 829 16
 1595 00ba BB68     		ldr	r3, [r7, #8]
 1596 00bc 1B78     		ldrb	r3, [r3]	@ zero_extendqisi2
 1597 00be 1846     		mov	r0, r3
 1598 00c0 FFF7FEFF 		bl	RTC_Bcd2ToByte
 1599 00c4 0346     		mov	r3, r0
 1600              		.loc 1 829 14
 1601 00c6 FB61     		str	r3, [r7, #28]
 1602 00c8 02E0     		b	.L48
 1603              	.L47:
 830:/home/fanxinhao/Work/LiteOS_Lab/drivers/third_party/ST/STM32L4xx_HAL_Driver/Src/stm32l4xx_hal_rtc.c ****       assert_param(IS_RTC_HOUR12(tmpreg));
 831:/home/fanxinhao/Work/LiteOS_Lab/drivers/third_party/ST/STM32L4xx_HAL_Driver/Src/stm32l4xx_hal_rtc.c ****       assert_param(IS_RTC_HOURFORMAT12(sAlarm->AlarmTime.TimeFormat));
 832:/home/fanxinhao/Work/LiteOS_Lab/drivers/third_party/ST/STM32L4xx_HAL_Driver/Src/stm32l4xx_hal_rtc.c ****     }
 833:/home/fanxinhao/Work/LiteOS_Lab/drivers/third_party/ST/STM32L4xx_HAL_Driver/Src/stm32l4xx_hal_rtc.c ****     else
 834:/home/fanxinhao/Work/LiteOS_Lab/drivers/third_party/ST/STM32L4xx_HAL_Driver/Src/stm32l4xx_hal_rtc.c ****     {
 835:/home/fanxinhao/Work/LiteOS_Lab/drivers/third_party/ST/STM32L4xx_HAL_Driver/Src/stm32l4xx_hal_rtc.c ****       sAlarm->AlarmTime.TimeFormat = 0x00;
 1604              		.loc 1 835 36
 1605 00ca BB68     		ldr	r3, [r7, #8]
 1606 00cc 0022     		movs	r2, #0
 1607 00ce DA70     		strb	r2, [r3, #3]
 1608              	.L48:
 836:/home/fanxinhao/Work/LiteOS_Lab/drivers/third_party/ST/STM32L4xx_HAL_Driver/Src/stm32l4xx_hal_rtc.c ****       assert_param(IS_RTC_HOUR24(RTC_Bcd2ToByte(sAlarm->AlarmTime.Hours)));
 837:/home/fanxinhao/Work/LiteOS_Lab/drivers/third_party/ST/STM32L4xx_HAL_Driver/Src/stm32l4xx_hal_rtc.c ****     }
 838:/home/fanxinhao/Work/LiteOS_Lab/drivers/third_party/ST/STM32L4xx_HAL_Driver/Src/stm32l4xx_hal_rtc.c **** 
ARM GAS  /tmp/ccXT28fZ.s 			page 44


 839:/home/fanxinhao/Work/LiteOS_Lab/drivers/third_party/ST/STM32L4xx_HAL_Driver/Src/stm32l4xx_hal_rtc.c ****     assert_param(IS_RTC_MINUTES(RTC_Bcd2ToByte(sAlarm->AlarmTime.Minutes)));
 840:/home/fanxinhao/Work/LiteOS_Lab/drivers/third_party/ST/STM32L4xx_HAL_Driver/Src/stm32l4xx_hal_rtc.c ****     assert_param(IS_RTC_SECONDS(RTC_Bcd2ToByte(sAlarm->AlarmTime.Seconds)));
 841:/home/fanxinhao/Work/LiteOS_Lab/drivers/third_party/ST/STM32L4xx_HAL_Driver/Src/stm32l4xx_hal_rtc.c **** 
 842:/home/fanxinhao/Work/LiteOS_Lab/drivers/third_party/ST/STM32L4xx_HAL_Driver/Src/stm32l4xx_hal_rtc.c ****     if(sAlarm->AlarmDateWeekDaySel == RTC_ALARMDATEWEEKDAYSEL_DATE)
 1609              		.loc 1 842 14
 1610 00d0 BB68     		ldr	r3, [r7, #8]
 1611 00d2 DB69     		ldr	r3, [r3, #28]
 1612              		.loc 1 842 7
 1613 00d4 002B     		cmp	r3, #0
 1614 00d6 08D1     		bne	.L49
 843:/home/fanxinhao/Work/LiteOS_Lab/drivers/third_party/ST/STM32L4xx_HAL_Driver/Src/stm32l4xx_hal_rtc.c ****     {
 844:/home/fanxinhao/Work/LiteOS_Lab/drivers/third_party/ST/STM32L4xx_HAL_Driver/Src/stm32l4xx_hal_rtc.c ****       tmpreg = RTC_Bcd2ToByte(sAlarm->AlarmDateWeekDay);
 1615              		.loc 1 844 16
 1616 00d8 BB68     		ldr	r3, [r7, #8]
 1617 00da 93F82030 		ldrb	r3, [r3, #32]	@ zero_extendqisi2
 1618 00de 1846     		mov	r0, r3
 1619 00e0 FFF7FEFF 		bl	RTC_Bcd2ToByte
 1620 00e4 0346     		mov	r3, r0
 1621              		.loc 1 844 14
 1622 00e6 FB61     		str	r3, [r7, #28]
 1623 00e8 07E0     		b	.L50
 1624              	.L49:
 845:/home/fanxinhao/Work/LiteOS_Lab/drivers/third_party/ST/STM32L4xx_HAL_Driver/Src/stm32l4xx_hal_rtc.c ****       assert_param(IS_RTC_ALARM_DATE_WEEKDAY_DATE(tmpreg));
 846:/home/fanxinhao/Work/LiteOS_Lab/drivers/third_party/ST/STM32L4xx_HAL_Driver/Src/stm32l4xx_hal_rtc.c ****     }
 847:/home/fanxinhao/Work/LiteOS_Lab/drivers/third_party/ST/STM32L4xx_HAL_Driver/Src/stm32l4xx_hal_rtc.c ****     else
 848:/home/fanxinhao/Work/LiteOS_Lab/drivers/third_party/ST/STM32L4xx_HAL_Driver/Src/stm32l4xx_hal_rtc.c ****     {
 849:/home/fanxinhao/Work/LiteOS_Lab/drivers/third_party/ST/STM32L4xx_HAL_Driver/Src/stm32l4xx_hal_rtc.c ****       tmpreg = RTC_Bcd2ToByte(sAlarm->AlarmDateWeekDay);
 1625              		.loc 1 849 16
 1626 00ea BB68     		ldr	r3, [r7, #8]
 1627 00ec 93F82030 		ldrb	r3, [r3, #32]	@ zero_extendqisi2
 1628 00f0 1846     		mov	r0, r3
 1629 00f2 FFF7FEFF 		bl	RTC_Bcd2ToByte
 1630 00f6 0346     		mov	r3, r0
 1631              		.loc 1 849 14
 1632 00f8 FB61     		str	r3, [r7, #28]
 1633              	.L50:
 850:/home/fanxinhao/Work/LiteOS_Lab/drivers/third_party/ST/STM32L4xx_HAL_Driver/Src/stm32l4xx_hal_rtc.c ****       assert_param(IS_RTC_ALARM_DATE_WEEKDAY_WEEKDAY(tmpreg));
 851:/home/fanxinhao/Work/LiteOS_Lab/drivers/third_party/ST/STM32L4xx_HAL_Driver/Src/stm32l4xx_hal_rtc.c ****     }
 852:/home/fanxinhao/Work/LiteOS_Lab/drivers/third_party/ST/STM32L4xx_HAL_Driver/Src/stm32l4xx_hal_rtc.c **** 
 853:/home/fanxinhao/Work/LiteOS_Lab/drivers/third_party/ST/STM32L4xx_HAL_Driver/Src/stm32l4xx_hal_rtc.c ****     tmpreg = (((uint32_t)(sAlarm->AlarmTime.Hours) << 16) | \
 1634              		.loc 1 853 44
 1635 00fa BB68     		ldr	r3, [r7, #8]
 1636 00fc 1B78     		ldrb	r3, [r3]	@ zero_extendqisi2
 1637              		.loc 1 853 52
 1638 00fe 1A04     		lsls	r2, r3, #16
 854:/home/fanxinhao/Work/LiteOS_Lab/drivers/third_party/ST/STM32L4xx_HAL_Driver/Src/stm32l4xx_hal_rtc.c ****               ((uint32_t)(sAlarm->AlarmTime.Minutes) << 8) | \
 1639              		.loc 1 854 44
 1640 0100 BB68     		ldr	r3, [r7, #8]
 1641 0102 5B78     		ldrb	r3, [r3, #1]	@ zero_extendqisi2
 1642              		.loc 1 854 54
 1643 0104 1B02     		lsls	r3, r3, #8
 853:/home/fanxinhao/Work/LiteOS_Lab/drivers/third_party/ST/STM32L4xx_HAL_Driver/Src/stm32l4xx_hal_rtc.c ****               ((uint32_t)(sAlarm->AlarmTime.Minutes) << 8) | \
 1644              		.loc 1 853 59
 1645 0106 1343     		orrs	r3, r3, r2
 855:/home/fanxinhao/Work/LiteOS_Lab/drivers/third_party/ST/STM32L4xx_HAL_Driver/Src/stm32l4xx_hal_rtc.c ****               ((uint32_t) sAlarm->AlarmTime.Seconds) | \
 1646              		.loc 1 855 44
 1647 0108 BA68     		ldr	r2, [r7, #8]
ARM GAS  /tmp/ccXT28fZ.s 			page 45


 1648 010a 9278     		ldrb	r2, [r2, #2]	@ zero_extendqisi2
 854:/home/fanxinhao/Work/LiteOS_Lab/drivers/third_party/ST/STM32L4xx_HAL_Driver/Src/stm32l4xx_hal_rtc.c ****               ((uint32_t)(sAlarm->AlarmTime.Minutes) << 8) | \
 1649              		.loc 1 854 60
 1650 010c 1A43     		orrs	r2, r2, r3
 856:/home/fanxinhao/Work/LiteOS_Lab/drivers/third_party/ST/STM32L4xx_HAL_Driver/Src/stm32l4xx_hal_rtc.c ****               ((uint32_t)(sAlarm->AlarmTime.TimeFormat) << 16) | \
 1651              		.loc 1 856 44
 1652 010e BB68     		ldr	r3, [r7, #8]
 1653 0110 DB78     		ldrb	r3, [r3, #3]	@ zero_extendqisi2
 1654              		.loc 1 856 57
 1655 0112 1B04     		lsls	r3, r3, #16
 855:/home/fanxinhao/Work/LiteOS_Lab/drivers/third_party/ST/STM32L4xx_HAL_Driver/Src/stm32l4xx_hal_rtc.c ****               ((uint32_t) sAlarm->AlarmTime.Seconds) | \
 1656              		.loc 1 855 54
 1657 0114 1A43     		orrs	r2, r2, r3
 857:/home/fanxinhao/Work/LiteOS_Lab/drivers/third_party/ST/STM32L4xx_HAL_Driver/Src/stm32l4xx_hal_rtc.c ****               ((uint32_t)(sAlarm->AlarmDateWeekDay) << 24) | \
 1658              		.loc 1 857 33
 1659 0116 BB68     		ldr	r3, [r7, #8]
 1660 0118 93F82030 		ldrb	r3, [r3, #32]	@ zero_extendqisi2
 1661              		.loc 1 857 53
 1662 011c 1B06     		lsls	r3, r3, #24
 856:/home/fanxinhao/Work/LiteOS_Lab/drivers/third_party/ST/STM32L4xx_HAL_Driver/Src/stm32l4xx_hal_rtc.c ****               ((uint32_t)(sAlarm->AlarmTime.TimeFormat) << 16) | \
 1663              		.loc 1 856 64
 1664 011e 1A43     		orrs	r2, r2, r3
 858:/home/fanxinhao/Work/LiteOS_Lab/drivers/third_party/ST/STM32L4xx_HAL_Driver/Src/stm32l4xx_hal_rtc.c ****               ((uint32_t)sAlarm->AlarmDateWeekDaySel) | \
 1665              		.loc 1 858 32
 1666 0120 BB68     		ldr	r3, [r7, #8]
 1667 0122 DB69     		ldr	r3, [r3, #28]
 857:/home/fanxinhao/Work/LiteOS_Lab/drivers/third_party/ST/STM32L4xx_HAL_Driver/Src/stm32l4xx_hal_rtc.c ****               ((uint32_t)(sAlarm->AlarmDateWeekDay) << 24) | \
 1668              		.loc 1 857 60
 1669 0124 1A43     		orrs	r2, r2, r3
 859:/home/fanxinhao/Work/LiteOS_Lab/drivers/third_party/ST/STM32L4xx_HAL_Driver/Src/stm32l4xx_hal_rtc.c ****               ((uint32_t)sAlarm->AlarmMask));   
 1670              		.loc 1 859 32
 1671 0126 BB68     		ldr	r3, [r7, #8]
 1672 0128 5B69     		ldr	r3, [r3, #20]
 853:/home/fanxinhao/Work/LiteOS_Lab/drivers/third_party/ST/STM32L4xx_HAL_Driver/Src/stm32l4xx_hal_rtc.c ****               ((uint32_t)(sAlarm->AlarmTime.Minutes) << 8) | \
 1673              		.loc 1 853 12
 1674 012a 1343     		orrs	r3, r3, r2
 1675 012c FB61     		str	r3, [r7, #28]
 1676              	.L46:
 860:/home/fanxinhao/Work/LiteOS_Lab/drivers/third_party/ST/STM32L4xx_HAL_Driver/Src/stm32l4xx_hal_rtc.c ****   }
 861:/home/fanxinhao/Work/LiteOS_Lab/drivers/third_party/ST/STM32L4xx_HAL_Driver/Src/stm32l4xx_hal_rtc.c **** 
 862:/home/fanxinhao/Work/LiteOS_Lab/drivers/third_party/ST/STM32L4xx_HAL_Driver/Src/stm32l4xx_hal_rtc.c ****   /* Configure the Alarm A or Alarm B Sub Second registers */
 863:/home/fanxinhao/Work/LiteOS_Lab/drivers/third_party/ST/STM32L4xx_HAL_Driver/Src/stm32l4xx_hal_rtc.c ****   subsecondtmpreg = (uint32_t)((uint32_t)(sAlarm->AlarmTime.SubSeconds) | (uint32_t)(sAlarm->AlarmS
 1677              		.loc 1 863 60
 1678 012e BB68     		ldr	r3, [r7, #8]
 1679 0130 5A68     		ldr	r2, [r3, #4]
 1680              		.loc 1 863 92
 1681 0132 BB68     		ldr	r3, [r7, #8]
 1682 0134 9B69     		ldr	r3, [r3, #24]
 1683              		.loc 1 863 19
 1684 0136 1343     		orrs	r3, r3, r2
 1685 0138 7B61     		str	r3, [r7, #20]
 864:/home/fanxinhao/Work/LiteOS_Lab/drivers/third_party/ST/STM32L4xx_HAL_Driver/Src/stm32l4xx_hal_rtc.c **** 
 865:/home/fanxinhao/Work/LiteOS_Lab/drivers/third_party/ST/STM32L4xx_HAL_Driver/Src/stm32l4xx_hal_rtc.c ****   /* Disable the write protection for RTC registers */
 866:/home/fanxinhao/Work/LiteOS_Lab/drivers/third_party/ST/STM32L4xx_HAL_Driver/Src/stm32l4xx_hal_rtc.c ****   __HAL_RTC_WRITEPROTECTION_DISABLE(hrtc);
 1686              		.loc 1 866 3
 1687 013a FB68     		ldr	r3, [r7, #12]
 1688 013c 1B68     		ldr	r3, [r3]
ARM GAS  /tmp/ccXT28fZ.s 			page 46


 1689 013e CA22     		movs	r2, #202
 1690 0140 5A62     		str	r2, [r3, #36]
 1691 0142 FB68     		ldr	r3, [r7, #12]
 1692 0144 1B68     		ldr	r3, [r3]
 1693 0146 5322     		movs	r2, #83
 1694 0148 5A62     		str	r2, [r3, #36]
 867:/home/fanxinhao/Work/LiteOS_Lab/drivers/third_party/ST/STM32L4xx_HAL_Driver/Src/stm32l4xx_hal_rtc.c **** 
 868:/home/fanxinhao/Work/LiteOS_Lab/drivers/third_party/ST/STM32L4xx_HAL_Driver/Src/stm32l4xx_hal_rtc.c ****   /* Configure the Alarm register */
 869:/home/fanxinhao/Work/LiteOS_Lab/drivers/third_party/ST/STM32L4xx_HAL_Driver/Src/stm32l4xx_hal_rtc.c ****   if(sAlarm->Alarm == RTC_ALARM_A)
 1695              		.loc 1 869 12
 1696 014a BB68     		ldr	r3, [r7, #8]
 1697 014c 5B6A     		ldr	r3, [r3, #36]
 1698              		.loc 1 869 5
 1699 014e B3F5807F 		cmp	r3, #256
 1700 0152 41D1     		bne	.L51
 870:/home/fanxinhao/Work/LiteOS_Lab/drivers/third_party/ST/STM32L4xx_HAL_Driver/Src/stm32l4xx_hal_rtc.c ****   {
 871:/home/fanxinhao/Work/LiteOS_Lab/drivers/third_party/ST/STM32L4xx_HAL_Driver/Src/stm32l4xx_hal_rtc.c ****     /* Disable the Alarm A interrupt */
 872:/home/fanxinhao/Work/LiteOS_Lab/drivers/third_party/ST/STM32L4xx_HAL_Driver/Src/stm32l4xx_hal_rtc.c ****     __HAL_RTC_ALARMA_DISABLE(hrtc);
 1701              		.loc 1 872 5
 1702 0154 FB68     		ldr	r3, [r7, #12]
 1703 0156 1B68     		ldr	r3, [r3]
 1704 0158 9A68     		ldr	r2, [r3, #8]
 1705 015a FB68     		ldr	r3, [r7, #12]
 1706 015c 1B68     		ldr	r3, [r3]
 1707 015e 22F48072 		bic	r2, r2, #256
 1708 0162 9A60     		str	r2, [r3, #8]
 873:/home/fanxinhao/Work/LiteOS_Lab/drivers/third_party/ST/STM32L4xx_HAL_Driver/Src/stm32l4xx_hal_rtc.c **** 
 874:/home/fanxinhao/Work/LiteOS_Lab/drivers/third_party/ST/STM32L4xx_HAL_Driver/Src/stm32l4xx_hal_rtc.c ****     /* In case of interrupt mode is used, the interrupt source must disabled */
 875:/home/fanxinhao/Work/LiteOS_Lab/drivers/third_party/ST/STM32L4xx_HAL_Driver/Src/stm32l4xx_hal_rtc.c ****     __HAL_RTC_ALARM_DISABLE_IT(hrtc, RTC_IT_ALRA);
 1709              		.loc 1 875 5
 1710 0164 FB68     		ldr	r3, [r7, #12]
 1711 0166 1B68     		ldr	r3, [r3]
 1712 0168 9A68     		ldr	r2, [r3, #8]
 1713 016a FB68     		ldr	r3, [r7, #12]
 1714 016c 1B68     		ldr	r3, [r3]
 1715 016e 22F48052 		bic	r2, r2, #4096
 1716 0172 9A60     		str	r2, [r3, #8]
 876:/home/fanxinhao/Work/LiteOS_Lab/drivers/third_party/ST/STM32L4xx_HAL_Driver/Src/stm32l4xx_hal_rtc.c **** 
 877:/home/fanxinhao/Work/LiteOS_Lab/drivers/third_party/ST/STM32L4xx_HAL_Driver/Src/stm32l4xx_hal_rtc.c ****     tickstart = HAL_GetTick();
 1717              		.loc 1 877 17
 1718 0174 FFF7FEFF 		bl	HAL_GetTick
 1719 0178 B861     		str	r0, [r7, #24]
 878:/home/fanxinhao/Work/LiteOS_Lab/drivers/third_party/ST/STM32L4xx_HAL_Driver/Src/stm32l4xx_hal_rtc.c ****     /* Wait till RTC ALRAWF flag is set and if Time out is reached exit */
 879:/home/fanxinhao/Work/LiteOS_Lab/drivers/third_party/ST/STM32L4xx_HAL_Driver/Src/stm32l4xx_hal_rtc.c ****     while(__HAL_RTC_ALARM_GET_FLAG(hrtc, RTC_FLAG_ALRAWF) == RESET)
 1720              		.loc 1 879 10
 1721 017a 15E0     		b	.L52
 1722              	.L53:
 880:/home/fanxinhao/Work/LiteOS_Lab/drivers/third_party/ST/STM32L4xx_HAL_Driver/Src/stm32l4xx_hal_rtc.c ****     {
 881:/home/fanxinhao/Work/LiteOS_Lab/drivers/third_party/ST/STM32L4xx_HAL_Driver/Src/stm32l4xx_hal_rtc.c ****       if((HAL_GetTick() - tickstart ) > RTC_TIMEOUT_VALUE)
 1723              		.loc 1 881 11
 1724 017c FFF7FEFF 		bl	HAL_GetTick
 1725 0180 0246     		mov	r2, r0
 1726              		.loc 1 881 25
 1727 0182 BB69     		ldr	r3, [r7, #24]
 1728 0184 D31A     		subs	r3, r2, r3
 1729              		.loc 1 881 9
 1730 0186 B3F57A7F 		cmp	r3, #1000
ARM GAS  /tmp/ccXT28fZ.s 			page 47


 1731 018a 0DD9     		bls	.L52
 882:/home/fanxinhao/Work/LiteOS_Lab/drivers/third_party/ST/STM32L4xx_HAL_Driver/Src/stm32l4xx_hal_rtc.c ****       {
 883:/home/fanxinhao/Work/LiteOS_Lab/drivers/third_party/ST/STM32L4xx_HAL_Driver/Src/stm32l4xx_hal_rtc.c ****         /* Enable the write protection for RTC registers */
 884:/home/fanxinhao/Work/LiteOS_Lab/drivers/third_party/ST/STM32L4xx_HAL_Driver/Src/stm32l4xx_hal_rtc.c ****         __HAL_RTC_WRITEPROTECTION_ENABLE(hrtc);
 1732              		.loc 1 884 9
 1733 018c FB68     		ldr	r3, [r7, #12]
 1734 018e 1B68     		ldr	r3, [r3]
 1735 0190 FF22     		movs	r2, #255
 1736 0192 5A62     		str	r2, [r3, #36]
 885:/home/fanxinhao/Work/LiteOS_Lab/drivers/third_party/ST/STM32L4xx_HAL_Driver/Src/stm32l4xx_hal_rtc.c ****         
 886:/home/fanxinhao/Work/LiteOS_Lab/drivers/third_party/ST/STM32L4xx_HAL_Driver/Src/stm32l4xx_hal_rtc.c ****         hrtc->State = HAL_RTC_STATE_TIMEOUT;
 1737              		.loc 1 886 21
 1738 0194 FB68     		ldr	r3, [r7, #12]
 1739 0196 0322     		movs	r2, #3
 1740 0198 83F82120 		strb	r2, [r3, #33]
 887:/home/fanxinhao/Work/LiteOS_Lab/drivers/third_party/ST/STM32L4xx_HAL_Driver/Src/stm32l4xx_hal_rtc.c **** 
 888:/home/fanxinhao/Work/LiteOS_Lab/drivers/third_party/ST/STM32L4xx_HAL_Driver/Src/stm32l4xx_hal_rtc.c ****         /* Process Unlocked */ 
 889:/home/fanxinhao/Work/LiteOS_Lab/drivers/third_party/ST/STM32L4xx_HAL_Driver/Src/stm32l4xx_hal_rtc.c ****         __HAL_UNLOCK(hrtc);
 1741              		.loc 1 889 9
 1742 019c FB68     		ldr	r3, [r7, #12]
 1743 019e 0022     		movs	r2, #0
 1744 01a0 83F82020 		strb	r2, [r3, #32]
 890:/home/fanxinhao/Work/LiteOS_Lab/drivers/third_party/ST/STM32L4xx_HAL_Driver/Src/stm32l4xx_hal_rtc.c **** 
 891:/home/fanxinhao/Work/LiteOS_Lab/drivers/third_party/ST/STM32L4xx_HAL_Driver/Src/stm32l4xx_hal_rtc.c ****         return HAL_TIMEOUT;
 1745              		.loc 1 891 16
 1746 01a4 0323     		movs	r3, #3
 1747 01a6 65E0     		b	.L43
 1748              	.L52:
 879:/home/fanxinhao/Work/LiteOS_Lab/drivers/third_party/ST/STM32L4xx_HAL_Driver/Src/stm32l4xx_hal_rtc.c ****     {
 1749              		.loc 1 879 11
 1750 01a8 FB68     		ldr	r3, [r7, #12]
 1751 01aa 1B68     		ldr	r3, [r3]
 1752 01ac DB68     		ldr	r3, [r3, #12]
 1753 01ae 03F00103 		and	r3, r3, #1
 879:/home/fanxinhao/Work/LiteOS_Lab/drivers/third_party/ST/STM32L4xx_HAL_Driver/Src/stm32l4xx_hal_rtc.c ****     {
 1754              		.loc 1 879 10
 1755 01b2 002B     		cmp	r3, #0
 1756 01b4 E2D0     		beq	.L53
 892:/home/fanxinhao/Work/LiteOS_Lab/drivers/third_party/ST/STM32L4xx_HAL_Driver/Src/stm32l4xx_hal_rtc.c ****       }
 893:/home/fanxinhao/Work/LiteOS_Lab/drivers/third_party/ST/STM32L4xx_HAL_Driver/Src/stm32l4xx_hal_rtc.c ****     }
 894:/home/fanxinhao/Work/LiteOS_Lab/drivers/third_party/ST/STM32L4xx_HAL_Driver/Src/stm32l4xx_hal_rtc.c **** 
 895:/home/fanxinhao/Work/LiteOS_Lab/drivers/third_party/ST/STM32L4xx_HAL_Driver/Src/stm32l4xx_hal_rtc.c ****     hrtc->Instance->ALRMAR = (uint32_t)tmpreg;
 1757              		.loc 1 895 9
 1758 01b6 FB68     		ldr	r3, [r7, #12]
 1759 01b8 1B68     		ldr	r3, [r3]
 1760              		.loc 1 895 28
 1761 01ba FA69     		ldr	r2, [r7, #28]
 1762 01bc DA61     		str	r2, [r3, #28]
 896:/home/fanxinhao/Work/LiteOS_Lab/drivers/third_party/ST/STM32L4xx_HAL_Driver/Src/stm32l4xx_hal_rtc.c ****     /* Configure the Alarm A Sub Second register */
 897:/home/fanxinhao/Work/LiteOS_Lab/drivers/third_party/ST/STM32L4xx_HAL_Driver/Src/stm32l4xx_hal_rtc.c ****     hrtc->Instance->ALRMASSR = subsecondtmpreg;
 1763              		.loc 1 897 9
 1764 01be FB68     		ldr	r3, [r7, #12]
 1765 01c0 1B68     		ldr	r3, [r3]
 1766              		.loc 1 897 30
 1767 01c2 7A69     		ldr	r2, [r7, #20]
 1768 01c4 5A64     		str	r2, [r3, #68]
 898:/home/fanxinhao/Work/LiteOS_Lab/drivers/third_party/ST/STM32L4xx_HAL_Driver/Src/stm32l4xx_hal_rtc.c ****     /* Configure the Alarm state: Enable Alarm */
ARM GAS  /tmp/ccXT28fZ.s 			page 48


 899:/home/fanxinhao/Work/LiteOS_Lab/drivers/third_party/ST/STM32L4xx_HAL_Driver/Src/stm32l4xx_hal_rtc.c ****     __HAL_RTC_ALARMA_ENABLE(hrtc);
 1769              		.loc 1 899 5
 1770 01c6 FB68     		ldr	r3, [r7, #12]
 1771 01c8 1B68     		ldr	r3, [r3]
 1772 01ca 9A68     		ldr	r2, [r3, #8]
 1773 01cc FB68     		ldr	r3, [r7, #12]
 1774 01ce 1B68     		ldr	r3, [r3]
 1775 01d0 42F48072 		orr	r2, r2, #256
 1776 01d4 9A60     		str	r2, [r3, #8]
 1777 01d6 40E0     		b	.L54
 1778              	.L51:
 900:/home/fanxinhao/Work/LiteOS_Lab/drivers/third_party/ST/STM32L4xx_HAL_Driver/Src/stm32l4xx_hal_rtc.c ****   }
 901:/home/fanxinhao/Work/LiteOS_Lab/drivers/third_party/ST/STM32L4xx_HAL_Driver/Src/stm32l4xx_hal_rtc.c ****   else
 902:/home/fanxinhao/Work/LiteOS_Lab/drivers/third_party/ST/STM32L4xx_HAL_Driver/Src/stm32l4xx_hal_rtc.c ****   {
 903:/home/fanxinhao/Work/LiteOS_Lab/drivers/third_party/ST/STM32L4xx_HAL_Driver/Src/stm32l4xx_hal_rtc.c ****     /* Disable the Alarm B interrupt */
 904:/home/fanxinhao/Work/LiteOS_Lab/drivers/third_party/ST/STM32L4xx_HAL_Driver/Src/stm32l4xx_hal_rtc.c ****     __HAL_RTC_ALARMB_DISABLE(hrtc);
 1779              		.loc 1 904 5
 1780 01d8 FB68     		ldr	r3, [r7, #12]
 1781 01da 1B68     		ldr	r3, [r3]
 1782 01dc 9A68     		ldr	r2, [r3, #8]
 1783 01de FB68     		ldr	r3, [r7, #12]
 1784 01e0 1B68     		ldr	r3, [r3]
 1785 01e2 22F40072 		bic	r2, r2, #512
 1786 01e6 9A60     		str	r2, [r3, #8]
 905:/home/fanxinhao/Work/LiteOS_Lab/drivers/third_party/ST/STM32L4xx_HAL_Driver/Src/stm32l4xx_hal_rtc.c **** 
 906:/home/fanxinhao/Work/LiteOS_Lab/drivers/third_party/ST/STM32L4xx_HAL_Driver/Src/stm32l4xx_hal_rtc.c ****     /* In case of interrupt mode is used, the interrupt source must disabled */
 907:/home/fanxinhao/Work/LiteOS_Lab/drivers/third_party/ST/STM32L4xx_HAL_Driver/Src/stm32l4xx_hal_rtc.c ****     __HAL_RTC_ALARM_DISABLE_IT(hrtc, RTC_IT_ALRB);
 1787              		.loc 1 907 5
 1788 01e8 FB68     		ldr	r3, [r7, #12]
 1789 01ea 1B68     		ldr	r3, [r3]
 1790 01ec 9A68     		ldr	r2, [r3, #8]
 1791 01ee FB68     		ldr	r3, [r7, #12]
 1792 01f0 1B68     		ldr	r3, [r3]
 1793 01f2 22F40052 		bic	r2, r2, #8192
 1794 01f6 9A60     		str	r2, [r3, #8]
 908:/home/fanxinhao/Work/LiteOS_Lab/drivers/third_party/ST/STM32L4xx_HAL_Driver/Src/stm32l4xx_hal_rtc.c **** 
 909:/home/fanxinhao/Work/LiteOS_Lab/drivers/third_party/ST/STM32L4xx_HAL_Driver/Src/stm32l4xx_hal_rtc.c ****     tickstart = HAL_GetTick();
 1795              		.loc 1 909 17
 1796 01f8 FFF7FEFF 		bl	HAL_GetTick
 1797 01fc B861     		str	r0, [r7, #24]
 910:/home/fanxinhao/Work/LiteOS_Lab/drivers/third_party/ST/STM32L4xx_HAL_Driver/Src/stm32l4xx_hal_rtc.c ****     /* Wait till RTC ALRBWF flag is set and if Time out is reached exit */
 911:/home/fanxinhao/Work/LiteOS_Lab/drivers/third_party/ST/STM32L4xx_HAL_Driver/Src/stm32l4xx_hal_rtc.c ****     while(__HAL_RTC_ALARM_GET_FLAG(hrtc, RTC_FLAG_ALRBWF) == RESET)
 1798              		.loc 1 911 10
 1799 01fe 15E0     		b	.L55
 1800              	.L56:
 912:/home/fanxinhao/Work/LiteOS_Lab/drivers/third_party/ST/STM32L4xx_HAL_Driver/Src/stm32l4xx_hal_rtc.c ****     {
 913:/home/fanxinhao/Work/LiteOS_Lab/drivers/third_party/ST/STM32L4xx_HAL_Driver/Src/stm32l4xx_hal_rtc.c ****       if((HAL_GetTick() - tickstart ) > RTC_TIMEOUT_VALUE)
 1801              		.loc 1 913 11
 1802 0200 FFF7FEFF 		bl	HAL_GetTick
 1803 0204 0246     		mov	r2, r0
 1804              		.loc 1 913 25
 1805 0206 BB69     		ldr	r3, [r7, #24]
 1806 0208 D31A     		subs	r3, r2, r3
 1807              		.loc 1 913 9
 1808 020a B3F57A7F 		cmp	r3, #1000
 1809 020e 0DD9     		bls	.L55
 914:/home/fanxinhao/Work/LiteOS_Lab/drivers/third_party/ST/STM32L4xx_HAL_Driver/Src/stm32l4xx_hal_rtc.c ****       {
ARM GAS  /tmp/ccXT28fZ.s 			page 49


 915:/home/fanxinhao/Work/LiteOS_Lab/drivers/third_party/ST/STM32L4xx_HAL_Driver/Src/stm32l4xx_hal_rtc.c ****         /* Enable the write protection for RTC registers */
 916:/home/fanxinhao/Work/LiteOS_Lab/drivers/third_party/ST/STM32L4xx_HAL_Driver/Src/stm32l4xx_hal_rtc.c ****         __HAL_RTC_WRITEPROTECTION_ENABLE(hrtc);
 1810              		.loc 1 916 9
 1811 0210 FB68     		ldr	r3, [r7, #12]
 1812 0212 1B68     		ldr	r3, [r3]
 1813 0214 FF22     		movs	r2, #255
 1814 0216 5A62     		str	r2, [r3, #36]
 917:/home/fanxinhao/Work/LiteOS_Lab/drivers/third_party/ST/STM32L4xx_HAL_Driver/Src/stm32l4xx_hal_rtc.c **** 
 918:/home/fanxinhao/Work/LiteOS_Lab/drivers/third_party/ST/STM32L4xx_HAL_Driver/Src/stm32l4xx_hal_rtc.c ****         hrtc->State = HAL_RTC_STATE_TIMEOUT;
 1815              		.loc 1 918 21
 1816 0218 FB68     		ldr	r3, [r7, #12]
 1817 021a 0322     		movs	r2, #3
 1818 021c 83F82120 		strb	r2, [r3, #33]
 919:/home/fanxinhao/Work/LiteOS_Lab/drivers/third_party/ST/STM32L4xx_HAL_Driver/Src/stm32l4xx_hal_rtc.c **** 
 920:/home/fanxinhao/Work/LiteOS_Lab/drivers/third_party/ST/STM32L4xx_HAL_Driver/Src/stm32l4xx_hal_rtc.c ****         /* Process Unlocked */
 921:/home/fanxinhao/Work/LiteOS_Lab/drivers/third_party/ST/STM32L4xx_HAL_Driver/Src/stm32l4xx_hal_rtc.c ****         __HAL_UNLOCK(hrtc);
 1819              		.loc 1 921 9
 1820 0220 FB68     		ldr	r3, [r7, #12]
 1821 0222 0022     		movs	r2, #0
 1822 0224 83F82020 		strb	r2, [r3, #32]
 922:/home/fanxinhao/Work/LiteOS_Lab/drivers/third_party/ST/STM32L4xx_HAL_Driver/Src/stm32l4xx_hal_rtc.c **** 
 923:/home/fanxinhao/Work/LiteOS_Lab/drivers/third_party/ST/STM32L4xx_HAL_Driver/Src/stm32l4xx_hal_rtc.c ****         return HAL_TIMEOUT;
 1823              		.loc 1 923 16
 1824 0228 0323     		movs	r3, #3
 1825 022a 23E0     		b	.L43
 1826              	.L55:
 911:/home/fanxinhao/Work/LiteOS_Lab/drivers/third_party/ST/STM32L4xx_HAL_Driver/Src/stm32l4xx_hal_rtc.c ****     {
 1827              		.loc 1 911 11
 1828 022c FB68     		ldr	r3, [r7, #12]
 1829 022e 1B68     		ldr	r3, [r3]
 1830 0230 DB68     		ldr	r3, [r3, #12]
 1831 0232 03F00203 		and	r3, r3, #2
 911:/home/fanxinhao/Work/LiteOS_Lab/drivers/third_party/ST/STM32L4xx_HAL_Driver/Src/stm32l4xx_hal_rtc.c ****     {
 1832              		.loc 1 911 10
 1833 0236 002B     		cmp	r3, #0
 1834 0238 E2D0     		beq	.L56
 924:/home/fanxinhao/Work/LiteOS_Lab/drivers/third_party/ST/STM32L4xx_HAL_Driver/Src/stm32l4xx_hal_rtc.c ****       }
 925:/home/fanxinhao/Work/LiteOS_Lab/drivers/third_party/ST/STM32L4xx_HAL_Driver/Src/stm32l4xx_hal_rtc.c ****     }
 926:/home/fanxinhao/Work/LiteOS_Lab/drivers/third_party/ST/STM32L4xx_HAL_Driver/Src/stm32l4xx_hal_rtc.c **** 
 927:/home/fanxinhao/Work/LiteOS_Lab/drivers/third_party/ST/STM32L4xx_HAL_Driver/Src/stm32l4xx_hal_rtc.c ****     hrtc->Instance->ALRMBR = (uint32_t)tmpreg;
 1835              		.loc 1 927 9
 1836 023a FB68     		ldr	r3, [r7, #12]
 1837 023c 1B68     		ldr	r3, [r3]
 1838              		.loc 1 927 28
 1839 023e FA69     		ldr	r2, [r7, #28]
 1840 0240 1A62     		str	r2, [r3, #32]
 928:/home/fanxinhao/Work/LiteOS_Lab/drivers/third_party/ST/STM32L4xx_HAL_Driver/Src/stm32l4xx_hal_rtc.c ****     /* Configure the Alarm B Sub Second register */
 929:/home/fanxinhao/Work/LiteOS_Lab/drivers/third_party/ST/STM32L4xx_HAL_Driver/Src/stm32l4xx_hal_rtc.c ****     hrtc->Instance->ALRMBSSR = subsecondtmpreg;
 1841              		.loc 1 929 9
 1842 0242 FB68     		ldr	r3, [r7, #12]
 1843 0244 1B68     		ldr	r3, [r3]
 1844              		.loc 1 929 30
 1845 0246 7A69     		ldr	r2, [r7, #20]
 1846 0248 9A64     		str	r2, [r3, #72]
 930:/home/fanxinhao/Work/LiteOS_Lab/drivers/third_party/ST/STM32L4xx_HAL_Driver/Src/stm32l4xx_hal_rtc.c ****     /* Configure the Alarm state: Enable Alarm */
 931:/home/fanxinhao/Work/LiteOS_Lab/drivers/third_party/ST/STM32L4xx_HAL_Driver/Src/stm32l4xx_hal_rtc.c ****     __HAL_RTC_ALARMB_ENABLE(hrtc);
 1847              		.loc 1 931 5
ARM GAS  /tmp/ccXT28fZ.s 			page 50


 1848 024a FB68     		ldr	r3, [r7, #12]
 1849 024c 1B68     		ldr	r3, [r3]
 1850 024e 9A68     		ldr	r2, [r3, #8]
 1851 0250 FB68     		ldr	r3, [r7, #12]
 1852 0252 1B68     		ldr	r3, [r3]
 1853 0254 42F40072 		orr	r2, r2, #512
 1854 0258 9A60     		str	r2, [r3, #8]
 1855              	.L54:
 932:/home/fanxinhao/Work/LiteOS_Lab/drivers/third_party/ST/STM32L4xx_HAL_Driver/Src/stm32l4xx_hal_rtc.c ****   }
 933:/home/fanxinhao/Work/LiteOS_Lab/drivers/third_party/ST/STM32L4xx_HAL_Driver/Src/stm32l4xx_hal_rtc.c **** 
 934:/home/fanxinhao/Work/LiteOS_Lab/drivers/third_party/ST/STM32L4xx_HAL_Driver/Src/stm32l4xx_hal_rtc.c ****   /* Enable the write protection for RTC registers */
 935:/home/fanxinhao/Work/LiteOS_Lab/drivers/third_party/ST/STM32L4xx_HAL_Driver/Src/stm32l4xx_hal_rtc.c ****   __HAL_RTC_WRITEPROTECTION_ENABLE(hrtc);
 1856              		.loc 1 935 3
 1857 025a FB68     		ldr	r3, [r7, #12]
 1858 025c 1B68     		ldr	r3, [r3]
 1859 025e FF22     		movs	r2, #255
 1860 0260 5A62     		str	r2, [r3, #36]
 936:/home/fanxinhao/Work/LiteOS_Lab/drivers/third_party/ST/STM32L4xx_HAL_Driver/Src/stm32l4xx_hal_rtc.c **** 
 937:/home/fanxinhao/Work/LiteOS_Lab/drivers/third_party/ST/STM32L4xx_HAL_Driver/Src/stm32l4xx_hal_rtc.c ****   /* Change RTC state */
 938:/home/fanxinhao/Work/LiteOS_Lab/drivers/third_party/ST/STM32L4xx_HAL_Driver/Src/stm32l4xx_hal_rtc.c ****   hrtc->State = HAL_RTC_STATE_READY;
 1861              		.loc 1 938 15
 1862 0262 FB68     		ldr	r3, [r7, #12]
 1863 0264 0122     		movs	r2, #1
 1864 0266 83F82120 		strb	r2, [r3, #33]
 939:/home/fanxinhao/Work/LiteOS_Lab/drivers/third_party/ST/STM32L4xx_HAL_Driver/Src/stm32l4xx_hal_rtc.c **** 
 940:/home/fanxinhao/Work/LiteOS_Lab/drivers/third_party/ST/STM32L4xx_HAL_Driver/Src/stm32l4xx_hal_rtc.c ****   /* Process Unlocked */
 941:/home/fanxinhao/Work/LiteOS_Lab/drivers/third_party/ST/STM32L4xx_HAL_Driver/Src/stm32l4xx_hal_rtc.c ****   __HAL_UNLOCK(hrtc);
 1865              		.loc 1 941 3
 1866 026a FB68     		ldr	r3, [r7, #12]
 1867 026c 0022     		movs	r2, #0
 1868 026e 83F82020 		strb	r2, [r3, #32]
 942:/home/fanxinhao/Work/LiteOS_Lab/drivers/third_party/ST/STM32L4xx_HAL_Driver/Src/stm32l4xx_hal_rtc.c **** 
 943:/home/fanxinhao/Work/LiteOS_Lab/drivers/third_party/ST/STM32L4xx_HAL_Driver/Src/stm32l4xx_hal_rtc.c ****   return HAL_OK;
 1869              		.loc 1 943 10
 1870 0272 0023     		movs	r3, #0
 1871              	.L43:
 944:/home/fanxinhao/Work/LiteOS_Lab/drivers/third_party/ST/STM32L4xx_HAL_Driver/Src/stm32l4xx_hal_rtc.c **** }
 1872              		.loc 1 944 1
 1873 0274 1846     		mov	r0, r3
 1874 0276 2437     		adds	r7, r7, #36
 1875              	.LCFI45:
 1876              		.cfi_def_cfa_offset 12
 1877 0278 BD46     		mov	sp, r7
 1878              	.LCFI46:
 1879              		.cfi_def_cfa_register 13
 1880              		@ sp needed
 1881 027a 90BD     		pop	{r4, r7, pc}
 1882              		.cfi_endproc
 1883              	.LFE134:
 1885              		.section	.text.HAL_RTC_SetAlarm_IT,"ax",%progbits
 1886              		.align	1
 1887              		.global	HAL_RTC_SetAlarm_IT
 1888              		.syntax unified
 1889              		.thumb
 1890              		.thumb_func
 1891              		.fpu fpv4-sp-d16
 1893              	HAL_RTC_SetAlarm_IT:
ARM GAS  /tmp/ccXT28fZ.s 			page 51


 1894              	.LFB135:
 945:/home/fanxinhao/Work/LiteOS_Lab/drivers/third_party/ST/STM32L4xx_HAL_Driver/Src/stm32l4xx_hal_rtc.c **** 
 946:/home/fanxinhao/Work/LiteOS_Lab/drivers/third_party/ST/STM32L4xx_HAL_Driver/Src/stm32l4xx_hal_rtc.c **** /**
 947:/home/fanxinhao/Work/LiteOS_Lab/drivers/third_party/ST/STM32L4xx_HAL_Driver/Src/stm32l4xx_hal_rtc.c ****   * @brief  Set the specified RTC Alarm with Interrupt.
 948:/home/fanxinhao/Work/LiteOS_Lab/drivers/third_party/ST/STM32L4xx_HAL_Driver/Src/stm32l4xx_hal_rtc.c ****   * @param  hrtc: RTC handle
 949:/home/fanxinhao/Work/LiteOS_Lab/drivers/third_party/ST/STM32L4xx_HAL_Driver/Src/stm32l4xx_hal_rtc.c ****   * @param  sAlarm: Pointer to Alarm structure
 950:/home/fanxinhao/Work/LiteOS_Lab/drivers/third_party/ST/STM32L4xx_HAL_Driver/Src/stm32l4xx_hal_rtc.c ****   * @param  Format: Specifies the format of the entered parameters.
 951:/home/fanxinhao/Work/LiteOS_Lab/drivers/third_party/ST/STM32L4xx_HAL_Driver/Src/stm32l4xx_hal_rtc.c ****   *          This parameter can be one of the following values:
 952:/home/fanxinhao/Work/LiteOS_Lab/drivers/third_party/ST/STM32L4xx_HAL_Driver/Src/stm32l4xx_hal_rtc.c ****   *             @arg RTC_FORMAT_BIN: Binary data format 
 953:/home/fanxinhao/Work/LiteOS_Lab/drivers/third_party/ST/STM32L4xx_HAL_Driver/Src/stm32l4xx_hal_rtc.c ****   *             @arg RTC_FORMAT_BCD: BCD data format
 954:/home/fanxinhao/Work/LiteOS_Lab/drivers/third_party/ST/STM32L4xx_HAL_Driver/Src/stm32l4xx_hal_rtc.c ****   * @note   The Alarm register can only be written when the corresponding Alarm
 955:/home/fanxinhao/Work/LiteOS_Lab/drivers/third_party/ST/STM32L4xx_HAL_Driver/Src/stm32l4xx_hal_rtc.c ****   *         is disabled (Use the HAL_RTC_DeactivateAlarm()).   
 956:/home/fanxinhao/Work/LiteOS_Lab/drivers/third_party/ST/STM32L4xx_HAL_Driver/Src/stm32l4xx_hal_rtc.c ****   * @note   The HAL_RTC_SetTime() must be called before enabling the Alarm feature.   
 957:/home/fanxinhao/Work/LiteOS_Lab/drivers/third_party/ST/STM32L4xx_HAL_Driver/Src/stm32l4xx_hal_rtc.c ****   * @retval HAL status
 958:/home/fanxinhao/Work/LiteOS_Lab/drivers/third_party/ST/STM32L4xx_HAL_Driver/Src/stm32l4xx_hal_rtc.c ****   */
 959:/home/fanxinhao/Work/LiteOS_Lab/drivers/third_party/ST/STM32L4xx_HAL_Driver/Src/stm32l4xx_hal_rtc.c **** HAL_StatusTypeDef HAL_RTC_SetAlarm_IT(RTC_HandleTypeDef *hrtc, RTC_AlarmTypeDef *sAlarm, uint32_t F
 960:/home/fanxinhao/Work/LiteOS_Lab/drivers/third_party/ST/STM32L4xx_HAL_Driver/Src/stm32l4xx_hal_rtc.c **** {
 1895              		.loc 1 960 1
 1896              		.cfi_startproc
 1897              		@ args = 0, pretend = 0, frame = 32
 1898              		@ frame_needed = 1, uses_anonymous_args = 0
 1899 0000 90B5     		push	{r4, r7, lr}
 1900              	.LCFI47:
 1901              		.cfi_def_cfa_offset 12
 1902              		.cfi_offset 4, -12
 1903              		.cfi_offset 7, -8
 1904              		.cfi_offset 14, -4
 1905 0002 89B0     		sub	sp, sp, #36
 1906              	.LCFI48:
 1907              		.cfi_def_cfa_offset 48
 1908 0004 00AF     		add	r7, sp, #0
 1909              	.LCFI49:
 1910              		.cfi_def_cfa_register 7
 1911 0006 F860     		str	r0, [r7, #12]
 1912 0008 B960     		str	r1, [r7, #8]
 1913 000a 7A60     		str	r2, [r7, #4]
 961:/home/fanxinhao/Work/LiteOS_Lab/drivers/third_party/ST/STM32L4xx_HAL_Driver/Src/stm32l4xx_hal_rtc.c ****   uint32_t tickstart = 0;
 1914              		.loc 1 961 12
 1915 000c 0023     		movs	r3, #0
 1916 000e BB61     		str	r3, [r7, #24]
 962:/home/fanxinhao/Work/LiteOS_Lab/drivers/third_party/ST/STM32L4xx_HAL_Driver/Src/stm32l4xx_hal_rtc.c ****   uint32_t tmpreg = 0, subsecondtmpreg = 0;
 1917              		.loc 1 962 12
 1918 0010 0023     		movs	r3, #0
 1919 0012 FB61     		str	r3, [r7, #28]
 1920              		.loc 1 962 24
 1921 0014 0023     		movs	r3, #0
 1922 0016 7B61     		str	r3, [r7, #20]
 963:/home/fanxinhao/Work/LiteOS_Lab/drivers/third_party/ST/STM32L4xx_HAL_Driver/Src/stm32l4xx_hal_rtc.c **** 
 964:/home/fanxinhao/Work/LiteOS_Lab/drivers/third_party/ST/STM32L4xx_HAL_Driver/Src/stm32l4xx_hal_rtc.c ****   /* Check the parameters */
 965:/home/fanxinhao/Work/LiteOS_Lab/drivers/third_party/ST/STM32L4xx_HAL_Driver/Src/stm32l4xx_hal_rtc.c ****   assert_param(IS_RTC_FORMAT(Format));
 966:/home/fanxinhao/Work/LiteOS_Lab/drivers/third_party/ST/STM32L4xx_HAL_Driver/Src/stm32l4xx_hal_rtc.c ****   assert_param(IS_RTC_ALARM(sAlarm->Alarm));
 967:/home/fanxinhao/Work/LiteOS_Lab/drivers/third_party/ST/STM32L4xx_HAL_Driver/Src/stm32l4xx_hal_rtc.c ****   assert_param(IS_RTC_ALARM_MASK(sAlarm->AlarmMask));
 968:/home/fanxinhao/Work/LiteOS_Lab/drivers/third_party/ST/STM32L4xx_HAL_Driver/Src/stm32l4xx_hal_rtc.c ****   assert_param(IS_RTC_ALARM_DATE_WEEKDAY_SEL(sAlarm->AlarmDateWeekDaySel));
 969:/home/fanxinhao/Work/LiteOS_Lab/drivers/third_party/ST/STM32L4xx_HAL_Driver/Src/stm32l4xx_hal_rtc.c ****   assert_param(IS_RTC_ALARM_SUB_SECOND_VALUE(sAlarm->AlarmTime.SubSeconds));
 970:/home/fanxinhao/Work/LiteOS_Lab/drivers/third_party/ST/STM32L4xx_HAL_Driver/Src/stm32l4xx_hal_rtc.c ****   assert_param(IS_RTC_ALARM_SUB_SECOND_MASK(sAlarm->AlarmSubSecondMask));
 971:/home/fanxinhao/Work/LiteOS_Lab/drivers/third_party/ST/STM32L4xx_HAL_Driver/Src/stm32l4xx_hal_rtc.c **** 
 972:/home/fanxinhao/Work/LiteOS_Lab/drivers/third_party/ST/STM32L4xx_HAL_Driver/Src/stm32l4xx_hal_rtc.c ****   /* Process Locked */ 
ARM GAS  /tmp/ccXT28fZ.s 			page 52


 973:/home/fanxinhao/Work/LiteOS_Lab/drivers/third_party/ST/STM32L4xx_HAL_Driver/Src/stm32l4xx_hal_rtc.c ****   __HAL_LOCK(hrtc);
 1923              		.loc 1 973 3
 1924 0018 FB68     		ldr	r3, [r7, #12]
 1925 001a 93F82030 		ldrb	r3, [r3, #32]	@ zero_extendqisi2
 1926 001e 012B     		cmp	r3, #1
 1927 0020 01D1     		bne	.L58
 1928              		.loc 1 973 3 is_stmt 0 discriminator 1
 1929 0022 0223     		movs	r3, #2
 1930 0024 44E1     		b	.L59
 1931              	.L58:
 1932              		.loc 1 973 3 discriminator 2
 1933 0026 FB68     		ldr	r3, [r7, #12]
 1934 0028 0122     		movs	r2, #1
 1935 002a 83F82020 		strb	r2, [r3, #32]
 974:/home/fanxinhao/Work/LiteOS_Lab/drivers/third_party/ST/STM32L4xx_HAL_Driver/Src/stm32l4xx_hal_rtc.c **** 
 975:/home/fanxinhao/Work/LiteOS_Lab/drivers/third_party/ST/STM32L4xx_HAL_Driver/Src/stm32l4xx_hal_rtc.c ****   hrtc->State = HAL_RTC_STATE_BUSY;
 1936              		.loc 1 975 15 is_stmt 1 discriminator 2
 1937 002e FB68     		ldr	r3, [r7, #12]
 1938 0030 0222     		movs	r2, #2
 1939 0032 83F82120 		strb	r2, [r3, #33]
 976:/home/fanxinhao/Work/LiteOS_Lab/drivers/third_party/ST/STM32L4xx_HAL_Driver/Src/stm32l4xx_hal_rtc.c **** 
 977:/home/fanxinhao/Work/LiteOS_Lab/drivers/third_party/ST/STM32L4xx_HAL_Driver/Src/stm32l4xx_hal_rtc.c ****   if(Format == RTC_FORMAT_BIN)
 1940              		.loc 1 977 5 discriminator 2
 1941 0036 7B68     		ldr	r3, [r7, #4]
 1942 0038 002B     		cmp	r3, #0
 1943 003a 37D1     		bne	.L60
 978:/home/fanxinhao/Work/LiteOS_Lab/drivers/third_party/ST/STM32L4xx_HAL_Driver/Src/stm32l4xx_hal_rtc.c ****   {
 979:/home/fanxinhao/Work/LiteOS_Lab/drivers/third_party/ST/STM32L4xx_HAL_Driver/Src/stm32l4xx_hal_rtc.c ****     if((hrtc->Instance->CR & RTC_CR_FMT) != (uint32_t)RESET)
 1944              		.loc 1 979 13
 1945 003c FB68     		ldr	r3, [r7, #12]
 1946 003e 1B68     		ldr	r3, [r3]
 1947              		.loc 1 979 23
 1948 0040 9B68     		ldr	r3, [r3, #8]
 1949              		.loc 1 979 28
 1950 0042 03F04003 		and	r3, r3, #64
 1951              		.loc 1 979 7
 1952 0046 002B     		cmp	r3, #0
 1953 0048 02D1     		bne	.L61
 980:/home/fanxinhao/Work/LiteOS_Lab/drivers/third_party/ST/STM32L4xx_HAL_Driver/Src/stm32l4xx_hal_rtc.c ****     {
 981:/home/fanxinhao/Work/LiteOS_Lab/drivers/third_party/ST/STM32L4xx_HAL_Driver/Src/stm32l4xx_hal_rtc.c ****       assert_param(IS_RTC_HOUR12(sAlarm->AlarmTime.Hours));
 982:/home/fanxinhao/Work/LiteOS_Lab/drivers/third_party/ST/STM32L4xx_HAL_Driver/Src/stm32l4xx_hal_rtc.c ****       assert_param(IS_RTC_HOURFORMAT12(sAlarm->AlarmTime.TimeFormat));
 983:/home/fanxinhao/Work/LiteOS_Lab/drivers/third_party/ST/STM32L4xx_HAL_Driver/Src/stm32l4xx_hal_rtc.c ****     }
 984:/home/fanxinhao/Work/LiteOS_Lab/drivers/third_party/ST/STM32L4xx_HAL_Driver/Src/stm32l4xx_hal_rtc.c ****     else
 985:/home/fanxinhao/Work/LiteOS_Lab/drivers/third_party/ST/STM32L4xx_HAL_Driver/Src/stm32l4xx_hal_rtc.c ****     {
 986:/home/fanxinhao/Work/LiteOS_Lab/drivers/third_party/ST/STM32L4xx_HAL_Driver/Src/stm32l4xx_hal_rtc.c ****       sAlarm->AlarmTime.TimeFormat = 0x00;
 1954              		.loc 1 986 36
 1955 004a BB68     		ldr	r3, [r7, #8]
 1956 004c 0022     		movs	r2, #0
 1957 004e DA70     		strb	r2, [r3, #3]
 1958              	.L61:
 987:/home/fanxinhao/Work/LiteOS_Lab/drivers/third_party/ST/STM32L4xx_HAL_Driver/Src/stm32l4xx_hal_rtc.c ****       assert_param(IS_RTC_HOUR24(sAlarm->AlarmTime.Hours));
 988:/home/fanxinhao/Work/LiteOS_Lab/drivers/third_party/ST/STM32L4xx_HAL_Driver/Src/stm32l4xx_hal_rtc.c ****     }
 989:/home/fanxinhao/Work/LiteOS_Lab/drivers/third_party/ST/STM32L4xx_HAL_Driver/Src/stm32l4xx_hal_rtc.c ****     assert_param(IS_RTC_MINUTES(sAlarm->AlarmTime.Minutes));
 990:/home/fanxinhao/Work/LiteOS_Lab/drivers/third_party/ST/STM32L4xx_HAL_Driver/Src/stm32l4xx_hal_rtc.c ****     assert_param(IS_RTC_SECONDS(sAlarm->AlarmTime.Seconds));
 991:/home/fanxinhao/Work/LiteOS_Lab/drivers/third_party/ST/STM32L4xx_HAL_Driver/Src/stm32l4xx_hal_rtc.c **** 
 992:/home/fanxinhao/Work/LiteOS_Lab/drivers/third_party/ST/STM32L4xx_HAL_Driver/Src/stm32l4xx_hal_rtc.c ****     if(sAlarm->AlarmDateWeekDaySel == RTC_ALARMDATEWEEKDAYSEL_DATE)
 993:/home/fanxinhao/Work/LiteOS_Lab/drivers/third_party/ST/STM32L4xx_HAL_Driver/Src/stm32l4xx_hal_rtc.c ****     {
ARM GAS  /tmp/ccXT28fZ.s 			page 53


 994:/home/fanxinhao/Work/LiteOS_Lab/drivers/third_party/ST/STM32L4xx_HAL_Driver/Src/stm32l4xx_hal_rtc.c ****       assert_param(IS_RTC_ALARM_DATE_WEEKDAY_DATE(sAlarm->AlarmDateWeekDay));
 995:/home/fanxinhao/Work/LiteOS_Lab/drivers/third_party/ST/STM32L4xx_HAL_Driver/Src/stm32l4xx_hal_rtc.c ****     }
 996:/home/fanxinhao/Work/LiteOS_Lab/drivers/third_party/ST/STM32L4xx_HAL_Driver/Src/stm32l4xx_hal_rtc.c ****     else
 997:/home/fanxinhao/Work/LiteOS_Lab/drivers/third_party/ST/STM32L4xx_HAL_Driver/Src/stm32l4xx_hal_rtc.c ****     {
 998:/home/fanxinhao/Work/LiteOS_Lab/drivers/third_party/ST/STM32L4xx_HAL_Driver/Src/stm32l4xx_hal_rtc.c ****       assert_param(IS_RTC_ALARM_DATE_WEEKDAY_WEEKDAY(sAlarm->AlarmDateWeekDay));
 999:/home/fanxinhao/Work/LiteOS_Lab/drivers/third_party/ST/STM32L4xx_HAL_Driver/Src/stm32l4xx_hal_rtc.c ****     }
1000:/home/fanxinhao/Work/LiteOS_Lab/drivers/third_party/ST/STM32L4xx_HAL_Driver/Src/stm32l4xx_hal_rtc.c ****     tmpreg = (((uint32_t)RTC_ByteToBcd2(sAlarm->AlarmTime.Hours) << 16) | \
 1959              		.loc 1 1000 26
 1960 0050 BB68     		ldr	r3, [r7, #8]
 1961 0052 1B78     		ldrb	r3, [r3]	@ zero_extendqisi2
 1962 0054 1846     		mov	r0, r3
 1963 0056 FFF7FEFF 		bl	RTC_ByteToBcd2
 1964 005a 0346     		mov	r3, r0
 1965              		.loc 1 1000 66
 1966 005c 1C04     		lsls	r4, r3, #16
1001:/home/fanxinhao/Work/LiteOS_Lab/drivers/third_party/ST/STM32L4xx_HAL_Driver/Src/stm32l4xx_hal_rtc.c ****               ((uint32_t)RTC_ByteToBcd2(sAlarm->AlarmTime.Minutes) << 8) | \
 1967              		.loc 1 1001 26
 1968 005e BB68     		ldr	r3, [r7, #8]
 1969 0060 5B78     		ldrb	r3, [r3, #1]	@ zero_extendqisi2
 1970 0062 1846     		mov	r0, r3
 1971 0064 FFF7FEFF 		bl	RTC_ByteToBcd2
 1972 0068 0346     		mov	r3, r0
 1973              		.loc 1 1001 68
 1974 006a 1B02     		lsls	r3, r3, #8
1000:/home/fanxinhao/Work/LiteOS_Lab/drivers/third_party/ST/STM32L4xx_HAL_Driver/Src/stm32l4xx_hal_rtc.c ****               ((uint32_t)RTC_ByteToBcd2(sAlarm->AlarmTime.Minutes) << 8) | \
 1975              		.loc 1 1000 73
 1976 006c 1C43     		orrs	r4, r4, r3
1002:/home/fanxinhao/Work/LiteOS_Lab/drivers/third_party/ST/STM32L4xx_HAL_Driver/Src/stm32l4xx_hal_rtc.c ****               ((uint32_t)RTC_ByteToBcd2(sAlarm->AlarmTime.Seconds)) | \
 1977              		.loc 1 1002 26
 1978 006e BB68     		ldr	r3, [r7, #8]
 1979 0070 9B78     		ldrb	r3, [r3, #2]	@ zero_extendqisi2
 1980 0072 1846     		mov	r0, r3
 1981 0074 FFF7FEFF 		bl	RTC_ByteToBcd2
 1982 0078 0346     		mov	r3, r0
1001:/home/fanxinhao/Work/LiteOS_Lab/drivers/third_party/ST/STM32L4xx_HAL_Driver/Src/stm32l4xx_hal_rtc.c ****               ((uint32_t)RTC_ByteToBcd2(sAlarm->AlarmTime.Minutes) << 8) | \
 1983              		.loc 1 1001 74
 1984 007a 44EA0302 		orr	r2, r4, r3
1003:/home/fanxinhao/Work/LiteOS_Lab/drivers/third_party/ST/STM32L4xx_HAL_Driver/Src/stm32l4xx_hal_rtc.c ****               ((uint32_t)(sAlarm->AlarmTime.TimeFormat) << 16) | \
 1985              		.loc 1 1003 44
 1986 007e BB68     		ldr	r3, [r7, #8]
 1987 0080 DB78     		ldrb	r3, [r3, #3]	@ zero_extendqisi2
 1988              		.loc 1 1003 57
 1989 0082 1B04     		lsls	r3, r3, #16
1002:/home/fanxinhao/Work/LiteOS_Lab/drivers/third_party/ST/STM32L4xx_HAL_Driver/Src/stm32l4xx_hal_rtc.c ****               ((uint32_t)RTC_ByteToBcd2(sAlarm->AlarmTime.Seconds)) | \
 1990              		.loc 1 1002 69
 1991 0084 42EA0304 		orr	r4, r2, r3
1004:/home/fanxinhao/Work/LiteOS_Lab/drivers/third_party/ST/STM32L4xx_HAL_Driver/Src/stm32l4xx_hal_rtc.c ****               ((uint32_t)RTC_ByteToBcd2(sAlarm->AlarmDateWeekDay) << 24) | \
 1992              		.loc 1 1004 26
 1993 0088 BB68     		ldr	r3, [r7, #8]
 1994 008a 93F82030 		ldrb	r3, [r3, #32]	@ zero_extendqisi2
 1995 008e 1846     		mov	r0, r3
 1996 0090 FFF7FEFF 		bl	RTC_ByteToBcd2
 1997 0094 0346     		mov	r3, r0
 1998              		.loc 1 1004 67
 1999 0096 1B06     		lsls	r3, r3, #24
1003:/home/fanxinhao/Work/LiteOS_Lab/drivers/third_party/ST/STM32L4xx_HAL_Driver/Src/stm32l4xx_hal_rtc.c ****               ((uint32_t)(sAlarm->AlarmTime.TimeFormat) << 16) | \
 2000              		.loc 1 1003 64
ARM GAS  /tmp/ccXT28fZ.s 			page 54


 2001 0098 44EA0302 		orr	r2, r4, r3
1005:/home/fanxinhao/Work/LiteOS_Lab/drivers/third_party/ST/STM32L4xx_HAL_Driver/Src/stm32l4xx_hal_rtc.c ****               ((uint32_t)sAlarm->AlarmDateWeekDaySel) | \
 2002              		.loc 1 1005 32
 2003 009c BB68     		ldr	r3, [r7, #8]
 2004 009e DB69     		ldr	r3, [r3, #28]
1004:/home/fanxinhao/Work/LiteOS_Lab/drivers/third_party/ST/STM32L4xx_HAL_Driver/Src/stm32l4xx_hal_rtc.c ****               ((uint32_t)RTC_ByteToBcd2(sAlarm->AlarmDateWeekDay) << 24) | \
 2005              		.loc 1 1004 74
 2006 00a0 1A43     		orrs	r2, r2, r3
1006:/home/fanxinhao/Work/LiteOS_Lab/drivers/third_party/ST/STM32L4xx_HAL_Driver/Src/stm32l4xx_hal_rtc.c ****               ((uint32_t)sAlarm->AlarmMask));
 2007              		.loc 1 1006 32
 2008 00a2 BB68     		ldr	r3, [r7, #8]
 2009 00a4 5B69     		ldr	r3, [r3, #20]
1000:/home/fanxinhao/Work/LiteOS_Lab/drivers/third_party/ST/STM32L4xx_HAL_Driver/Src/stm32l4xx_hal_rtc.c ****               ((uint32_t)RTC_ByteToBcd2(sAlarm->AlarmTime.Minutes) << 8) | \
 2010              		.loc 1 1000 12
 2011 00a6 1343     		orrs	r3, r3, r2
 2012 00a8 FB61     		str	r3, [r7, #28]
 2013 00aa 40E0     		b	.L62
 2014              	.L60:
1007:/home/fanxinhao/Work/LiteOS_Lab/drivers/third_party/ST/STM32L4xx_HAL_Driver/Src/stm32l4xx_hal_rtc.c ****   }
1008:/home/fanxinhao/Work/LiteOS_Lab/drivers/third_party/ST/STM32L4xx_HAL_Driver/Src/stm32l4xx_hal_rtc.c ****   else
1009:/home/fanxinhao/Work/LiteOS_Lab/drivers/third_party/ST/STM32L4xx_HAL_Driver/Src/stm32l4xx_hal_rtc.c ****   {
1010:/home/fanxinhao/Work/LiteOS_Lab/drivers/third_party/ST/STM32L4xx_HAL_Driver/Src/stm32l4xx_hal_rtc.c ****     if((hrtc->Instance->CR & RTC_CR_FMT) != (uint32_t)RESET)
 2015              		.loc 1 1010 13
 2016 00ac FB68     		ldr	r3, [r7, #12]
 2017 00ae 1B68     		ldr	r3, [r3]
 2018              		.loc 1 1010 23
 2019 00b0 9B68     		ldr	r3, [r3, #8]
 2020              		.loc 1 1010 28
 2021 00b2 03F04003 		and	r3, r3, #64
 2022              		.loc 1 1010 7
 2023 00b6 002B     		cmp	r3, #0
 2024 00b8 07D0     		beq	.L63
1011:/home/fanxinhao/Work/LiteOS_Lab/drivers/third_party/ST/STM32L4xx_HAL_Driver/Src/stm32l4xx_hal_rtc.c ****     {
1012:/home/fanxinhao/Work/LiteOS_Lab/drivers/third_party/ST/STM32L4xx_HAL_Driver/Src/stm32l4xx_hal_rtc.c ****       tmpreg = RTC_Bcd2ToByte(sAlarm->AlarmTime.Hours);
 2025              		.loc 1 1012 16
 2026 00ba BB68     		ldr	r3, [r7, #8]
 2027 00bc 1B78     		ldrb	r3, [r3]	@ zero_extendqisi2
 2028 00be 1846     		mov	r0, r3
 2029 00c0 FFF7FEFF 		bl	RTC_Bcd2ToByte
 2030 00c4 0346     		mov	r3, r0
 2031              		.loc 1 1012 14
 2032 00c6 FB61     		str	r3, [r7, #28]
 2033 00c8 02E0     		b	.L64
 2034              	.L63:
1013:/home/fanxinhao/Work/LiteOS_Lab/drivers/third_party/ST/STM32L4xx_HAL_Driver/Src/stm32l4xx_hal_rtc.c ****       assert_param(IS_RTC_HOUR12(tmpreg));
1014:/home/fanxinhao/Work/LiteOS_Lab/drivers/third_party/ST/STM32L4xx_HAL_Driver/Src/stm32l4xx_hal_rtc.c ****       assert_param(IS_RTC_HOURFORMAT12(sAlarm->AlarmTime.TimeFormat));
1015:/home/fanxinhao/Work/LiteOS_Lab/drivers/third_party/ST/STM32L4xx_HAL_Driver/Src/stm32l4xx_hal_rtc.c ****     } 
1016:/home/fanxinhao/Work/LiteOS_Lab/drivers/third_party/ST/STM32L4xx_HAL_Driver/Src/stm32l4xx_hal_rtc.c ****     else
1017:/home/fanxinhao/Work/LiteOS_Lab/drivers/third_party/ST/STM32L4xx_HAL_Driver/Src/stm32l4xx_hal_rtc.c ****     {
1018:/home/fanxinhao/Work/LiteOS_Lab/drivers/third_party/ST/STM32L4xx_HAL_Driver/Src/stm32l4xx_hal_rtc.c ****       sAlarm->AlarmTime.TimeFormat = 0x00;
 2035              		.loc 1 1018 36
 2036 00ca BB68     		ldr	r3, [r7, #8]
 2037 00cc 0022     		movs	r2, #0
 2038 00ce DA70     		strb	r2, [r3, #3]
 2039              	.L64:
1019:/home/fanxinhao/Work/LiteOS_Lab/drivers/third_party/ST/STM32L4xx_HAL_Driver/Src/stm32l4xx_hal_rtc.c ****       assert_param(IS_RTC_HOUR24(RTC_Bcd2ToByte(sAlarm->AlarmTime.Hours)));
1020:/home/fanxinhao/Work/LiteOS_Lab/drivers/third_party/ST/STM32L4xx_HAL_Driver/Src/stm32l4xx_hal_rtc.c ****     }
ARM GAS  /tmp/ccXT28fZ.s 			page 55


1021:/home/fanxinhao/Work/LiteOS_Lab/drivers/third_party/ST/STM32L4xx_HAL_Driver/Src/stm32l4xx_hal_rtc.c **** 
1022:/home/fanxinhao/Work/LiteOS_Lab/drivers/third_party/ST/STM32L4xx_HAL_Driver/Src/stm32l4xx_hal_rtc.c ****     assert_param(IS_RTC_MINUTES(RTC_Bcd2ToByte(sAlarm->AlarmTime.Minutes)));
1023:/home/fanxinhao/Work/LiteOS_Lab/drivers/third_party/ST/STM32L4xx_HAL_Driver/Src/stm32l4xx_hal_rtc.c ****     assert_param(IS_RTC_SECONDS(RTC_Bcd2ToByte(sAlarm->AlarmTime.Seconds)));
1024:/home/fanxinhao/Work/LiteOS_Lab/drivers/third_party/ST/STM32L4xx_HAL_Driver/Src/stm32l4xx_hal_rtc.c ****     
1025:/home/fanxinhao/Work/LiteOS_Lab/drivers/third_party/ST/STM32L4xx_HAL_Driver/Src/stm32l4xx_hal_rtc.c ****     if(sAlarm->AlarmDateWeekDaySel == RTC_ALARMDATEWEEKDAYSEL_DATE)
 2040              		.loc 1 1025 14
 2041 00d0 BB68     		ldr	r3, [r7, #8]
 2042 00d2 DB69     		ldr	r3, [r3, #28]
 2043              		.loc 1 1025 7
 2044 00d4 002B     		cmp	r3, #0
 2045 00d6 08D1     		bne	.L65
1026:/home/fanxinhao/Work/LiteOS_Lab/drivers/third_party/ST/STM32L4xx_HAL_Driver/Src/stm32l4xx_hal_rtc.c ****     {
1027:/home/fanxinhao/Work/LiteOS_Lab/drivers/third_party/ST/STM32L4xx_HAL_Driver/Src/stm32l4xx_hal_rtc.c ****       tmpreg = RTC_Bcd2ToByte(sAlarm->AlarmDateWeekDay);
 2046              		.loc 1 1027 16
 2047 00d8 BB68     		ldr	r3, [r7, #8]
 2048 00da 93F82030 		ldrb	r3, [r3, #32]	@ zero_extendqisi2
 2049 00de 1846     		mov	r0, r3
 2050 00e0 FFF7FEFF 		bl	RTC_Bcd2ToByte
 2051 00e4 0346     		mov	r3, r0
 2052              		.loc 1 1027 14
 2053 00e6 FB61     		str	r3, [r7, #28]
 2054 00e8 07E0     		b	.L66
 2055              	.L65:
1028:/home/fanxinhao/Work/LiteOS_Lab/drivers/third_party/ST/STM32L4xx_HAL_Driver/Src/stm32l4xx_hal_rtc.c ****       assert_param(IS_RTC_ALARM_DATE_WEEKDAY_DATE(tmpreg));
1029:/home/fanxinhao/Work/LiteOS_Lab/drivers/third_party/ST/STM32L4xx_HAL_Driver/Src/stm32l4xx_hal_rtc.c ****     }
1030:/home/fanxinhao/Work/LiteOS_Lab/drivers/third_party/ST/STM32L4xx_HAL_Driver/Src/stm32l4xx_hal_rtc.c ****     else
1031:/home/fanxinhao/Work/LiteOS_Lab/drivers/third_party/ST/STM32L4xx_HAL_Driver/Src/stm32l4xx_hal_rtc.c ****     {
1032:/home/fanxinhao/Work/LiteOS_Lab/drivers/third_party/ST/STM32L4xx_HAL_Driver/Src/stm32l4xx_hal_rtc.c ****       tmpreg = RTC_Bcd2ToByte(sAlarm->AlarmDateWeekDay);
 2056              		.loc 1 1032 16
 2057 00ea BB68     		ldr	r3, [r7, #8]
 2058 00ec 93F82030 		ldrb	r3, [r3, #32]	@ zero_extendqisi2
 2059 00f0 1846     		mov	r0, r3
 2060 00f2 FFF7FEFF 		bl	RTC_Bcd2ToByte
 2061 00f6 0346     		mov	r3, r0
 2062              		.loc 1 1032 14
 2063 00f8 FB61     		str	r3, [r7, #28]
 2064              	.L66:
1033:/home/fanxinhao/Work/LiteOS_Lab/drivers/third_party/ST/STM32L4xx_HAL_Driver/Src/stm32l4xx_hal_rtc.c ****       assert_param(IS_RTC_ALARM_DATE_WEEKDAY_WEEKDAY(tmpreg));
1034:/home/fanxinhao/Work/LiteOS_Lab/drivers/third_party/ST/STM32L4xx_HAL_Driver/Src/stm32l4xx_hal_rtc.c ****     }
1035:/home/fanxinhao/Work/LiteOS_Lab/drivers/third_party/ST/STM32L4xx_HAL_Driver/Src/stm32l4xx_hal_rtc.c ****     tmpreg = (((uint32_t)(sAlarm->AlarmTime.Hours) << 16) | \
 2065              		.loc 1 1035 44
 2066 00fa BB68     		ldr	r3, [r7, #8]
 2067 00fc 1B78     		ldrb	r3, [r3]	@ zero_extendqisi2
 2068              		.loc 1 1035 52
 2069 00fe 1A04     		lsls	r2, r3, #16
1036:/home/fanxinhao/Work/LiteOS_Lab/drivers/third_party/ST/STM32L4xx_HAL_Driver/Src/stm32l4xx_hal_rtc.c ****               ((uint32_t)(sAlarm->AlarmTime.Minutes) << 8) | \
 2070              		.loc 1 1036 44
 2071 0100 BB68     		ldr	r3, [r7, #8]
 2072 0102 5B78     		ldrb	r3, [r3, #1]	@ zero_extendqisi2
 2073              		.loc 1 1036 54
 2074 0104 1B02     		lsls	r3, r3, #8
1035:/home/fanxinhao/Work/LiteOS_Lab/drivers/third_party/ST/STM32L4xx_HAL_Driver/Src/stm32l4xx_hal_rtc.c ****               ((uint32_t)(sAlarm->AlarmTime.Minutes) << 8) | \
 2075              		.loc 1 1035 59
 2076 0106 1343     		orrs	r3, r3, r2
1037:/home/fanxinhao/Work/LiteOS_Lab/drivers/third_party/ST/STM32L4xx_HAL_Driver/Src/stm32l4xx_hal_rtc.c ****               ((uint32_t) sAlarm->AlarmTime.Seconds) | \
 2077              		.loc 1 1037 44
 2078 0108 BA68     		ldr	r2, [r7, #8]
ARM GAS  /tmp/ccXT28fZ.s 			page 56


 2079 010a 9278     		ldrb	r2, [r2, #2]	@ zero_extendqisi2
1036:/home/fanxinhao/Work/LiteOS_Lab/drivers/third_party/ST/STM32L4xx_HAL_Driver/Src/stm32l4xx_hal_rtc.c ****               ((uint32_t)(sAlarm->AlarmTime.Minutes) << 8) | \
 2080              		.loc 1 1036 60
 2081 010c 1A43     		orrs	r2, r2, r3
1038:/home/fanxinhao/Work/LiteOS_Lab/drivers/third_party/ST/STM32L4xx_HAL_Driver/Src/stm32l4xx_hal_rtc.c ****               ((uint32_t)(sAlarm->AlarmTime.TimeFormat) << 16) | \
 2082              		.loc 1 1038 44
 2083 010e BB68     		ldr	r3, [r7, #8]
 2084 0110 DB78     		ldrb	r3, [r3, #3]	@ zero_extendqisi2
 2085              		.loc 1 1038 57
 2086 0112 1B04     		lsls	r3, r3, #16
1037:/home/fanxinhao/Work/LiteOS_Lab/drivers/third_party/ST/STM32L4xx_HAL_Driver/Src/stm32l4xx_hal_rtc.c ****               ((uint32_t) sAlarm->AlarmTime.Seconds) | \
 2087              		.loc 1 1037 54
 2088 0114 1A43     		orrs	r2, r2, r3
1039:/home/fanxinhao/Work/LiteOS_Lab/drivers/third_party/ST/STM32L4xx_HAL_Driver/Src/stm32l4xx_hal_rtc.c ****               ((uint32_t)(sAlarm->AlarmDateWeekDay) << 24) | \
 2089              		.loc 1 1039 33
 2090 0116 BB68     		ldr	r3, [r7, #8]
 2091 0118 93F82030 		ldrb	r3, [r3, #32]	@ zero_extendqisi2
 2092              		.loc 1 1039 53
 2093 011c 1B06     		lsls	r3, r3, #24
1038:/home/fanxinhao/Work/LiteOS_Lab/drivers/third_party/ST/STM32L4xx_HAL_Driver/Src/stm32l4xx_hal_rtc.c ****               ((uint32_t)(sAlarm->AlarmTime.TimeFormat) << 16) | \
 2094              		.loc 1 1038 64
 2095 011e 1A43     		orrs	r2, r2, r3
1040:/home/fanxinhao/Work/LiteOS_Lab/drivers/third_party/ST/STM32L4xx_HAL_Driver/Src/stm32l4xx_hal_rtc.c ****               ((uint32_t)sAlarm->AlarmDateWeekDaySel) | \
 2096              		.loc 1 1040 32
 2097 0120 BB68     		ldr	r3, [r7, #8]
 2098 0122 DB69     		ldr	r3, [r3, #28]
1039:/home/fanxinhao/Work/LiteOS_Lab/drivers/third_party/ST/STM32L4xx_HAL_Driver/Src/stm32l4xx_hal_rtc.c ****               ((uint32_t)(sAlarm->AlarmDateWeekDay) << 24) | \
 2099              		.loc 1 1039 60
 2100 0124 1A43     		orrs	r2, r2, r3
1041:/home/fanxinhao/Work/LiteOS_Lab/drivers/third_party/ST/STM32L4xx_HAL_Driver/Src/stm32l4xx_hal_rtc.c ****               ((uint32_t)sAlarm->AlarmMask));     
 2101              		.loc 1 1041 32
 2102 0126 BB68     		ldr	r3, [r7, #8]
 2103 0128 5B69     		ldr	r3, [r3, #20]
1035:/home/fanxinhao/Work/LiteOS_Lab/drivers/third_party/ST/STM32L4xx_HAL_Driver/Src/stm32l4xx_hal_rtc.c ****               ((uint32_t)(sAlarm->AlarmTime.Minutes) << 8) | \
 2104              		.loc 1 1035 12
 2105 012a 1343     		orrs	r3, r3, r2
 2106 012c FB61     		str	r3, [r7, #28]
 2107              	.L62:
1042:/home/fanxinhao/Work/LiteOS_Lab/drivers/third_party/ST/STM32L4xx_HAL_Driver/Src/stm32l4xx_hal_rtc.c ****   }
1043:/home/fanxinhao/Work/LiteOS_Lab/drivers/third_party/ST/STM32L4xx_HAL_Driver/Src/stm32l4xx_hal_rtc.c ****   /* Configure the Alarm A or Alarm B Sub Second registers */
1044:/home/fanxinhao/Work/LiteOS_Lab/drivers/third_party/ST/STM32L4xx_HAL_Driver/Src/stm32l4xx_hal_rtc.c ****   subsecondtmpreg = (uint32_t)((uint32_t)(sAlarm->AlarmTime.SubSeconds) | (uint32_t)(sAlarm->AlarmS
 2108              		.loc 1 1044 60
 2109 012e BB68     		ldr	r3, [r7, #8]
 2110 0130 5A68     		ldr	r2, [r3, #4]
 2111              		.loc 1 1044 92
 2112 0132 BB68     		ldr	r3, [r7, #8]
 2113 0134 9B69     		ldr	r3, [r3, #24]
 2114              		.loc 1 1044 19
 2115 0136 1343     		orrs	r3, r3, r2
 2116 0138 7B61     		str	r3, [r7, #20]
1045:/home/fanxinhao/Work/LiteOS_Lab/drivers/third_party/ST/STM32L4xx_HAL_Driver/Src/stm32l4xx_hal_rtc.c **** 
1046:/home/fanxinhao/Work/LiteOS_Lab/drivers/third_party/ST/STM32L4xx_HAL_Driver/Src/stm32l4xx_hal_rtc.c ****   /* Disable the write protection for RTC registers */
1047:/home/fanxinhao/Work/LiteOS_Lab/drivers/third_party/ST/STM32L4xx_HAL_Driver/Src/stm32l4xx_hal_rtc.c ****   __HAL_RTC_WRITEPROTECTION_DISABLE(hrtc);
 2117              		.loc 1 1047 3
 2118 013a FB68     		ldr	r3, [r7, #12]
 2119 013c 1B68     		ldr	r3, [r3]
 2120 013e CA22     		movs	r2, #202
ARM GAS  /tmp/ccXT28fZ.s 			page 57


 2121 0140 5A62     		str	r2, [r3, #36]
 2122 0142 FB68     		ldr	r3, [r7, #12]
 2123 0144 1B68     		ldr	r3, [r3]
 2124 0146 5322     		movs	r2, #83
 2125 0148 5A62     		str	r2, [r3, #36]
1048:/home/fanxinhao/Work/LiteOS_Lab/drivers/third_party/ST/STM32L4xx_HAL_Driver/Src/stm32l4xx_hal_rtc.c **** 
1049:/home/fanxinhao/Work/LiteOS_Lab/drivers/third_party/ST/STM32L4xx_HAL_Driver/Src/stm32l4xx_hal_rtc.c ****   /* Configure the Alarm register */
1050:/home/fanxinhao/Work/LiteOS_Lab/drivers/third_party/ST/STM32L4xx_HAL_Driver/Src/stm32l4xx_hal_rtc.c ****   if(sAlarm->Alarm == RTC_ALARM_A)
 2126              		.loc 1 1050 12
 2127 014a BB68     		ldr	r3, [r7, #8]
 2128 014c 5B6A     		ldr	r3, [r3, #36]
 2129              		.loc 1 1050 5
 2130 014e B3F5807F 		cmp	r3, #256
 2131 0152 4AD1     		bne	.L67
1051:/home/fanxinhao/Work/LiteOS_Lab/drivers/third_party/ST/STM32L4xx_HAL_Driver/Src/stm32l4xx_hal_rtc.c ****   {
1052:/home/fanxinhao/Work/LiteOS_Lab/drivers/third_party/ST/STM32L4xx_HAL_Driver/Src/stm32l4xx_hal_rtc.c ****     /* Disable the Alarm A interrupt */
1053:/home/fanxinhao/Work/LiteOS_Lab/drivers/third_party/ST/STM32L4xx_HAL_Driver/Src/stm32l4xx_hal_rtc.c ****     __HAL_RTC_ALARMA_DISABLE(hrtc);
 2132              		.loc 1 1053 5
 2133 0154 FB68     		ldr	r3, [r7, #12]
 2134 0156 1B68     		ldr	r3, [r3]
 2135 0158 9A68     		ldr	r2, [r3, #8]
 2136 015a FB68     		ldr	r3, [r7, #12]
 2137 015c 1B68     		ldr	r3, [r3]
 2138 015e 22F48072 		bic	r2, r2, #256
 2139 0162 9A60     		str	r2, [r3, #8]
1054:/home/fanxinhao/Work/LiteOS_Lab/drivers/third_party/ST/STM32L4xx_HAL_Driver/Src/stm32l4xx_hal_rtc.c ****     
1055:/home/fanxinhao/Work/LiteOS_Lab/drivers/third_party/ST/STM32L4xx_HAL_Driver/Src/stm32l4xx_hal_rtc.c ****     /* Clear flag alarm A */
1056:/home/fanxinhao/Work/LiteOS_Lab/drivers/third_party/ST/STM32L4xx_HAL_Driver/Src/stm32l4xx_hal_rtc.c ****     __HAL_RTC_ALARM_CLEAR_FLAG(hrtc, RTC_FLAG_ALRAF);
 2140              		.loc 1 1056 5
 2141 0164 FB68     		ldr	r3, [r7, #12]
 2142 0166 1B68     		ldr	r3, [r3]
 2143 0168 DB68     		ldr	r3, [r3, #12]
 2144 016a DAB2     		uxtb	r2, r3
 2145 016c FB68     		ldr	r3, [r7, #12]
 2146 016e 1B68     		ldr	r3, [r3]
 2147 0170 62F4C072 		orn	r2, r2, #384
 2148 0174 DA60     		str	r2, [r3, #12]
1057:/home/fanxinhao/Work/LiteOS_Lab/drivers/third_party/ST/STM32L4xx_HAL_Driver/Src/stm32l4xx_hal_rtc.c **** 
1058:/home/fanxinhao/Work/LiteOS_Lab/drivers/third_party/ST/STM32L4xx_HAL_Driver/Src/stm32l4xx_hal_rtc.c ****     tickstart = HAL_GetTick();
 2149              		.loc 1 1058 17
 2150 0176 FFF7FEFF 		bl	HAL_GetTick
 2151 017a B861     		str	r0, [r7, #24]
1059:/home/fanxinhao/Work/LiteOS_Lab/drivers/third_party/ST/STM32L4xx_HAL_Driver/Src/stm32l4xx_hal_rtc.c ****     /* Wait till RTC ALRAWF flag is set and if Time out is reached exit */
1060:/home/fanxinhao/Work/LiteOS_Lab/drivers/third_party/ST/STM32L4xx_HAL_Driver/Src/stm32l4xx_hal_rtc.c ****     while(__HAL_RTC_ALARM_GET_FLAG(hrtc, RTC_FLAG_ALRAWF) == RESET)
 2152              		.loc 1 1060 10
 2153 017c 15E0     		b	.L68
 2154              	.L69:
1061:/home/fanxinhao/Work/LiteOS_Lab/drivers/third_party/ST/STM32L4xx_HAL_Driver/Src/stm32l4xx_hal_rtc.c ****     {
1062:/home/fanxinhao/Work/LiteOS_Lab/drivers/third_party/ST/STM32L4xx_HAL_Driver/Src/stm32l4xx_hal_rtc.c ****       if((HAL_GetTick() - tickstart ) > RTC_TIMEOUT_VALUE)
 2155              		.loc 1 1062 11
 2156 017e FFF7FEFF 		bl	HAL_GetTick
 2157 0182 0246     		mov	r2, r0
 2158              		.loc 1 1062 25
 2159 0184 BB69     		ldr	r3, [r7, #24]
 2160 0186 D31A     		subs	r3, r2, r3
 2161              		.loc 1 1062 9
 2162 0188 B3F57A7F 		cmp	r3, #1000
ARM GAS  /tmp/ccXT28fZ.s 			page 58


 2163 018c 0DD9     		bls	.L68
1063:/home/fanxinhao/Work/LiteOS_Lab/drivers/third_party/ST/STM32L4xx_HAL_Driver/Src/stm32l4xx_hal_rtc.c ****       {
1064:/home/fanxinhao/Work/LiteOS_Lab/drivers/third_party/ST/STM32L4xx_HAL_Driver/Src/stm32l4xx_hal_rtc.c ****         /* Enable the write protection for RTC registers */
1065:/home/fanxinhao/Work/LiteOS_Lab/drivers/third_party/ST/STM32L4xx_HAL_Driver/Src/stm32l4xx_hal_rtc.c ****         __HAL_RTC_WRITEPROTECTION_ENABLE(hrtc);
 2164              		.loc 1 1065 9
 2165 018e FB68     		ldr	r3, [r7, #12]
 2166 0190 1B68     		ldr	r3, [r3]
 2167 0192 FF22     		movs	r2, #255
 2168 0194 5A62     		str	r2, [r3, #36]
1066:/home/fanxinhao/Work/LiteOS_Lab/drivers/third_party/ST/STM32L4xx_HAL_Driver/Src/stm32l4xx_hal_rtc.c **** 
1067:/home/fanxinhao/Work/LiteOS_Lab/drivers/third_party/ST/STM32L4xx_HAL_Driver/Src/stm32l4xx_hal_rtc.c ****         hrtc->State = HAL_RTC_STATE_TIMEOUT; 
 2169              		.loc 1 1067 21
 2170 0196 FB68     		ldr	r3, [r7, #12]
 2171 0198 0322     		movs	r2, #3
 2172 019a 83F82120 		strb	r2, [r3, #33]
1068:/home/fanxinhao/Work/LiteOS_Lab/drivers/third_party/ST/STM32L4xx_HAL_Driver/Src/stm32l4xx_hal_rtc.c **** 
1069:/home/fanxinhao/Work/LiteOS_Lab/drivers/third_party/ST/STM32L4xx_HAL_Driver/Src/stm32l4xx_hal_rtc.c ****         /* Process Unlocked */
1070:/home/fanxinhao/Work/LiteOS_Lab/drivers/third_party/ST/STM32L4xx_HAL_Driver/Src/stm32l4xx_hal_rtc.c ****         __HAL_UNLOCK(hrtc);
 2173              		.loc 1 1070 9
 2174 019e FB68     		ldr	r3, [r7, #12]
 2175 01a0 0022     		movs	r2, #0
 2176 01a2 83F82020 		strb	r2, [r3, #32]
1071:/home/fanxinhao/Work/LiteOS_Lab/drivers/third_party/ST/STM32L4xx_HAL_Driver/Src/stm32l4xx_hal_rtc.c **** 
1072:/home/fanxinhao/Work/LiteOS_Lab/drivers/third_party/ST/STM32L4xx_HAL_Driver/Src/stm32l4xx_hal_rtc.c ****         return HAL_TIMEOUT;
 2177              		.loc 1 1072 16
 2178 01a6 0323     		movs	r3, #3
 2179 01a8 82E0     		b	.L59
 2180              	.L68:
1060:/home/fanxinhao/Work/LiteOS_Lab/drivers/third_party/ST/STM32L4xx_HAL_Driver/Src/stm32l4xx_hal_rtc.c ****     {
 2181              		.loc 1 1060 11
 2182 01aa FB68     		ldr	r3, [r7, #12]
 2183 01ac 1B68     		ldr	r3, [r3]
 2184 01ae DB68     		ldr	r3, [r3, #12]
 2185 01b0 03F00103 		and	r3, r3, #1
1060:/home/fanxinhao/Work/LiteOS_Lab/drivers/third_party/ST/STM32L4xx_HAL_Driver/Src/stm32l4xx_hal_rtc.c ****     {
 2186              		.loc 1 1060 10
 2187 01b4 002B     		cmp	r3, #0
 2188 01b6 E2D0     		beq	.L69
1073:/home/fanxinhao/Work/LiteOS_Lab/drivers/third_party/ST/STM32L4xx_HAL_Driver/Src/stm32l4xx_hal_rtc.c ****       }
1074:/home/fanxinhao/Work/LiteOS_Lab/drivers/third_party/ST/STM32L4xx_HAL_Driver/Src/stm32l4xx_hal_rtc.c ****     }
1075:/home/fanxinhao/Work/LiteOS_Lab/drivers/third_party/ST/STM32L4xx_HAL_Driver/Src/stm32l4xx_hal_rtc.c **** 
1076:/home/fanxinhao/Work/LiteOS_Lab/drivers/third_party/ST/STM32L4xx_HAL_Driver/Src/stm32l4xx_hal_rtc.c ****     hrtc->Instance->ALRMAR = (uint32_t)tmpreg;
 2189              		.loc 1 1076 9
 2190 01b8 FB68     		ldr	r3, [r7, #12]
 2191 01ba 1B68     		ldr	r3, [r3]
 2192              		.loc 1 1076 28
 2193 01bc FA69     		ldr	r2, [r7, #28]
 2194 01be DA61     		str	r2, [r3, #28]
1077:/home/fanxinhao/Work/LiteOS_Lab/drivers/third_party/ST/STM32L4xx_HAL_Driver/Src/stm32l4xx_hal_rtc.c ****     /* Configure the Alarm A Sub Second register */
1078:/home/fanxinhao/Work/LiteOS_Lab/drivers/third_party/ST/STM32L4xx_HAL_Driver/Src/stm32l4xx_hal_rtc.c ****     hrtc->Instance->ALRMASSR = subsecondtmpreg;
 2195              		.loc 1 1078 9
 2196 01c0 FB68     		ldr	r3, [r7, #12]
 2197 01c2 1B68     		ldr	r3, [r3]
 2198              		.loc 1 1078 30
 2199 01c4 7A69     		ldr	r2, [r7, #20]
 2200 01c6 5A64     		str	r2, [r3, #68]
1079:/home/fanxinhao/Work/LiteOS_Lab/drivers/third_party/ST/STM32L4xx_HAL_Driver/Src/stm32l4xx_hal_rtc.c ****     /* Configure the Alarm state: Enable Alarm */
ARM GAS  /tmp/ccXT28fZ.s 			page 59


1080:/home/fanxinhao/Work/LiteOS_Lab/drivers/third_party/ST/STM32L4xx_HAL_Driver/Src/stm32l4xx_hal_rtc.c ****     __HAL_RTC_ALARMA_ENABLE(hrtc);
 2201              		.loc 1 1080 5
 2202 01c8 FB68     		ldr	r3, [r7, #12]
 2203 01ca 1B68     		ldr	r3, [r3]
 2204 01cc 9A68     		ldr	r2, [r3, #8]
 2205 01ce FB68     		ldr	r3, [r7, #12]
 2206 01d0 1B68     		ldr	r3, [r3]
 2207 01d2 42F48072 		orr	r2, r2, #256
 2208 01d6 9A60     		str	r2, [r3, #8]
1081:/home/fanxinhao/Work/LiteOS_Lab/drivers/third_party/ST/STM32L4xx_HAL_Driver/Src/stm32l4xx_hal_rtc.c ****     /* Configure the Alarm interrupt */
1082:/home/fanxinhao/Work/LiteOS_Lab/drivers/third_party/ST/STM32L4xx_HAL_Driver/Src/stm32l4xx_hal_rtc.c ****     __HAL_RTC_ALARM_ENABLE_IT(hrtc,RTC_IT_ALRA);
 2209              		.loc 1 1082 5
 2210 01d8 FB68     		ldr	r3, [r7, #12]
 2211 01da 1B68     		ldr	r3, [r3]
 2212 01dc 9A68     		ldr	r2, [r3, #8]
 2213 01de FB68     		ldr	r3, [r7, #12]
 2214 01e0 1B68     		ldr	r3, [r3]
 2215 01e2 42F48052 		orr	r2, r2, #4096
 2216 01e6 9A60     		str	r2, [r3, #8]
 2217 01e8 49E0     		b	.L70
 2218              	.L67:
1083:/home/fanxinhao/Work/LiteOS_Lab/drivers/third_party/ST/STM32L4xx_HAL_Driver/Src/stm32l4xx_hal_rtc.c ****   }
1084:/home/fanxinhao/Work/LiteOS_Lab/drivers/third_party/ST/STM32L4xx_HAL_Driver/Src/stm32l4xx_hal_rtc.c ****   else
1085:/home/fanxinhao/Work/LiteOS_Lab/drivers/third_party/ST/STM32L4xx_HAL_Driver/Src/stm32l4xx_hal_rtc.c ****   {
1086:/home/fanxinhao/Work/LiteOS_Lab/drivers/third_party/ST/STM32L4xx_HAL_Driver/Src/stm32l4xx_hal_rtc.c ****     /* Disable the Alarm B interrupt */
1087:/home/fanxinhao/Work/LiteOS_Lab/drivers/third_party/ST/STM32L4xx_HAL_Driver/Src/stm32l4xx_hal_rtc.c ****     __HAL_RTC_ALARMB_DISABLE(hrtc);
 2219              		.loc 1 1087 5
 2220 01ea FB68     		ldr	r3, [r7, #12]
 2221 01ec 1B68     		ldr	r3, [r3]
 2222 01ee 9A68     		ldr	r2, [r3, #8]
 2223 01f0 FB68     		ldr	r3, [r7, #12]
 2224 01f2 1B68     		ldr	r3, [r3]
 2225 01f4 22F40072 		bic	r2, r2, #512
 2226 01f8 9A60     		str	r2, [r3, #8]
1088:/home/fanxinhao/Work/LiteOS_Lab/drivers/third_party/ST/STM32L4xx_HAL_Driver/Src/stm32l4xx_hal_rtc.c ****     
1089:/home/fanxinhao/Work/LiteOS_Lab/drivers/third_party/ST/STM32L4xx_HAL_Driver/Src/stm32l4xx_hal_rtc.c ****     /* Clear flag alarm B */
