ARM GAS  /tmp/cco0QsaQ.s 			page 1


   1              		.cpu cortex-m4
   2              		.eabi_attribute 27, 1
   3              		.eabi_attribute 28, 1
   4              		.eabi_attribute 20, 1
   5              		.eabi_attribute 21, 1
   6              		.eabi_attribute 23, 3
   7              		.eabi_attribute 24, 1
   8              		.eabi_attribute 25, 1
   9              		.eabi_attribute 26, 1
  10              		.eabi_attribute 30, 6
  11              		.eabi_attribute 34, 1
  12              		.eabi_attribute 18, 4
  13              		.file	"stm32l4xx_hal_flash.c"
  14              		.text
  15              	.Ltext0:
  16              		.cfi_sections	.debug_frame
  17              		.comm	pFlash,32,4
  18              		.section	.text.HAL_FLASH_Program,"ax",%progbits
  19              		.align	1
  20              		.global	HAL_FLASH_Program
  21              		.arch armv7e-m
  22              		.syntax unified
  23              		.thumb
  24              		.thumb_func
  25              		.fpu fpv4-sp-d16
  27              	HAL_FLASH_Program:
  28              	.LFB126:
  29              		.file 1 "/home/fanxinhao/Work/LiteOS_Lab/drivers/third_party/ST/STM32L4xx_HAL_Driver/Src/stm32l4xx
   1:/home/fanxinhao/Work/LiteOS_Lab/drivers/third_party/ST/STM32L4xx_HAL_Driver/Src/stm32l4xx_hal_flash.c **** /**
   2:/home/fanxinhao/Work/LiteOS_Lab/drivers/third_party/ST/STM32L4xx_HAL_Driver/Src/stm32l4xx_hal_flash.c ****   ******************************************************************************
   3:/home/fanxinhao/Work/LiteOS_Lab/drivers/third_party/ST/STM32L4xx_HAL_Driver/Src/stm32l4xx_hal_flash.c ****   * @file    stm32l4xx_hal_flash.c
   4:/home/fanxinhao/Work/LiteOS_Lab/drivers/third_party/ST/STM32L4xx_HAL_Driver/Src/stm32l4xx_hal_flash.c ****   * @author  MCD Application Team
   5:/home/fanxinhao/Work/LiteOS_Lab/drivers/third_party/ST/STM32L4xx_HAL_Driver/Src/stm32l4xx_hal_flash.c ****   * @brief   FLASH HAL module driver.
   6:/home/fanxinhao/Work/LiteOS_Lab/drivers/third_party/ST/STM32L4xx_HAL_Driver/Src/stm32l4xx_hal_flash.c ****   *          This file provides firmware functions to manage the following 
   7:/home/fanxinhao/Work/LiteOS_Lab/drivers/third_party/ST/STM32L4xx_HAL_Driver/Src/stm32l4xx_hal_flash.c ****   *          functionalities of the internal FLASH memory:
   8:/home/fanxinhao/Work/LiteOS_Lab/drivers/third_party/ST/STM32L4xx_HAL_Driver/Src/stm32l4xx_hal_flash.c ****   *           + Program operations functions
   9:/home/fanxinhao/Work/LiteOS_Lab/drivers/third_party/ST/STM32L4xx_HAL_Driver/Src/stm32l4xx_hal_flash.c ****   *           + Memory Control functions 
  10:/home/fanxinhao/Work/LiteOS_Lab/drivers/third_party/ST/STM32L4xx_HAL_Driver/Src/stm32l4xx_hal_flash.c ****   *           + Peripheral Errors functions
  11:/home/fanxinhao/Work/LiteOS_Lab/drivers/third_party/ST/STM32L4xx_HAL_Driver/Src/stm32l4xx_hal_flash.c ****   *  
  12:/home/fanxinhao/Work/LiteOS_Lab/drivers/third_party/ST/STM32L4xx_HAL_Driver/Src/stm32l4xx_hal_flash.c ****  @verbatim    
  13:/home/fanxinhao/Work/LiteOS_Lab/drivers/third_party/ST/STM32L4xx_HAL_Driver/Src/stm32l4xx_hal_flash.c ****   ==============================================================================
  14:/home/fanxinhao/Work/LiteOS_Lab/drivers/third_party/ST/STM32L4xx_HAL_Driver/Src/stm32l4xx_hal_flash.c ****                         ##### FLASH peripheral features #####
  15:/home/fanxinhao/Work/LiteOS_Lab/drivers/third_party/ST/STM32L4xx_HAL_Driver/Src/stm32l4xx_hal_flash.c ****   ==============================================================================
  16:/home/fanxinhao/Work/LiteOS_Lab/drivers/third_party/ST/STM32L4xx_HAL_Driver/Src/stm32l4xx_hal_flash.c ****            
  17:/home/fanxinhao/Work/LiteOS_Lab/drivers/third_party/ST/STM32L4xx_HAL_Driver/Src/stm32l4xx_hal_flash.c ****   [..] The Flash memory interface manages CPU AHB I-Code and D-Code accesses 
  18:/home/fanxinhao/Work/LiteOS_Lab/drivers/third_party/ST/STM32L4xx_HAL_Driver/Src/stm32l4xx_hal_flash.c ****        to the Flash memory. It implements the erase and program Flash memory operations 
  19:/home/fanxinhao/Work/LiteOS_Lab/drivers/third_party/ST/STM32L4xx_HAL_Driver/Src/stm32l4xx_hal_flash.c ****        and the read and write protection mechanisms.
  20:/home/fanxinhao/Work/LiteOS_Lab/drivers/third_party/ST/STM32L4xx_HAL_Driver/Src/stm32l4xx_hal_flash.c ****       
  21:/home/fanxinhao/Work/LiteOS_Lab/drivers/third_party/ST/STM32L4xx_HAL_Driver/Src/stm32l4xx_hal_flash.c ****   [..] The Flash memory interface accelerates code execution with a system of instruction
  22:/home/fanxinhao/Work/LiteOS_Lab/drivers/third_party/ST/STM32L4xx_HAL_Driver/Src/stm32l4xx_hal_flash.c ****        prefetch and cache lines. 
  23:/home/fanxinhao/Work/LiteOS_Lab/drivers/third_party/ST/STM32L4xx_HAL_Driver/Src/stm32l4xx_hal_flash.c **** 
  24:/home/fanxinhao/Work/LiteOS_Lab/drivers/third_party/ST/STM32L4xx_HAL_Driver/Src/stm32l4xx_hal_flash.c ****   [..] The FLASH main features are:
  25:/home/fanxinhao/Work/LiteOS_Lab/drivers/third_party/ST/STM32L4xx_HAL_Driver/Src/stm32l4xx_hal_flash.c ****       (+) Flash memory read operations
  26:/home/fanxinhao/Work/LiteOS_Lab/drivers/third_party/ST/STM32L4xx_HAL_Driver/Src/stm32l4xx_hal_flash.c ****       (+) Flash memory program/erase operations
  27:/home/fanxinhao/Work/LiteOS_Lab/drivers/third_party/ST/STM32L4xx_HAL_Driver/Src/stm32l4xx_hal_flash.c ****       (+) Read / write protections
  28:/home/fanxinhao/Work/LiteOS_Lab/drivers/third_party/ST/STM32L4xx_HAL_Driver/Src/stm32l4xx_hal_flash.c ****       (+) Option bytes programming
  29:/home/fanxinhao/Work/LiteOS_Lab/drivers/third_party/ST/STM32L4xx_HAL_Driver/Src/stm32l4xx_hal_flash.c ****       (+) Prefetch on I-Code
ARM GAS  /tmp/cco0QsaQ.s 			page 2


  30:/home/fanxinhao/Work/LiteOS_Lab/drivers/third_party/ST/STM32L4xx_HAL_Driver/Src/stm32l4xx_hal_flash.c ****       (+) 32 cache lines of 4*64 bits on I-Code
  31:/home/fanxinhao/Work/LiteOS_Lab/drivers/third_party/ST/STM32L4xx_HAL_Driver/Src/stm32l4xx_hal_flash.c ****       (+) 8 cache lines of 4*64 bits on D-Code
  32:/home/fanxinhao/Work/LiteOS_Lab/drivers/third_party/ST/STM32L4xx_HAL_Driver/Src/stm32l4xx_hal_flash.c ****       (+) Error code correction (ECC) : Data in flash are 72-bits word
  33:/home/fanxinhao/Work/LiteOS_Lab/drivers/third_party/ST/STM32L4xx_HAL_Driver/Src/stm32l4xx_hal_flash.c ****           (8 bits added per double word)
  34:/home/fanxinhao/Work/LiteOS_Lab/drivers/third_party/ST/STM32L4xx_HAL_Driver/Src/stm32l4xx_hal_flash.c ****       
  35:/home/fanxinhao/Work/LiteOS_Lab/drivers/third_party/ST/STM32L4xx_HAL_Driver/Src/stm32l4xx_hal_flash.c ****       
  36:/home/fanxinhao/Work/LiteOS_Lab/drivers/third_party/ST/STM32L4xx_HAL_Driver/Src/stm32l4xx_hal_flash.c ****                         ##### How to use this driver #####
  37:/home/fanxinhao/Work/LiteOS_Lab/drivers/third_party/ST/STM32L4xx_HAL_Driver/Src/stm32l4xx_hal_flash.c ****  ==============================================================================
  38:/home/fanxinhao/Work/LiteOS_Lab/drivers/third_party/ST/STM32L4xx_HAL_Driver/Src/stm32l4xx_hal_flash.c ****     [..]                             
  39:/home/fanxinhao/Work/LiteOS_Lab/drivers/third_party/ST/STM32L4xx_HAL_Driver/Src/stm32l4xx_hal_flash.c ****       This driver provides functions and macros to configure and program the FLASH  
  40:/home/fanxinhao/Work/LiteOS_Lab/drivers/third_party/ST/STM32L4xx_HAL_Driver/Src/stm32l4xx_hal_flash.c ****       memory of all STM32L4xx devices. 
  41:/home/fanxinhao/Work/LiteOS_Lab/drivers/third_party/ST/STM32L4xx_HAL_Driver/Src/stm32l4xx_hal_flash.c ****    
  42:/home/fanxinhao/Work/LiteOS_Lab/drivers/third_party/ST/STM32L4xx_HAL_Driver/Src/stm32l4xx_hal_flash.c ****       (#) Flash Memory IO Programming functions: 
  43:/home/fanxinhao/Work/LiteOS_Lab/drivers/third_party/ST/STM32L4xx_HAL_Driver/Src/stm32l4xx_hal_flash.c ****            (++) Lock and Unlock the FLASH interface using HAL_FLASH_Unlock() and 
  44:/home/fanxinhao/Work/LiteOS_Lab/drivers/third_party/ST/STM32L4xx_HAL_Driver/Src/stm32l4xx_hal_flash.c ****                 HAL_FLASH_Lock() functions
  45:/home/fanxinhao/Work/LiteOS_Lab/drivers/third_party/ST/STM32L4xx_HAL_Driver/Src/stm32l4xx_hal_flash.c ****            (++) Program functions: double word and fast program (full row programming)
  46:/home/fanxinhao/Work/LiteOS_Lab/drivers/third_party/ST/STM32L4xx_HAL_Driver/Src/stm32l4xx_hal_flash.c ****            (++) There Two modes of programming :
  47:/home/fanxinhao/Work/LiteOS_Lab/drivers/third_party/ST/STM32L4xx_HAL_Driver/Src/stm32l4xx_hal_flash.c ****             (+++) Polling mode using HAL_FLASH_Program() function
  48:/home/fanxinhao/Work/LiteOS_Lab/drivers/third_party/ST/STM32L4xx_HAL_Driver/Src/stm32l4xx_hal_flash.c ****             (+++) Interrupt mode using HAL_FLASH_Program_IT() function
  49:/home/fanxinhao/Work/LiteOS_Lab/drivers/third_party/ST/STM32L4xx_HAL_Driver/Src/stm32l4xx_hal_flash.c ****     
  50:/home/fanxinhao/Work/LiteOS_Lab/drivers/third_party/ST/STM32L4xx_HAL_Driver/Src/stm32l4xx_hal_flash.c ****       (#) Interrupts and flags management functions : 
  51:/home/fanxinhao/Work/LiteOS_Lab/drivers/third_party/ST/STM32L4xx_HAL_Driver/Src/stm32l4xx_hal_flash.c ****            (++) Handle FLASH interrupts by calling HAL_FLASH_IRQHandler()
  52:/home/fanxinhao/Work/LiteOS_Lab/drivers/third_party/ST/STM32L4xx_HAL_Driver/Src/stm32l4xx_hal_flash.c ****            (++) Callback functions are called when the flash operations are finished :
  53:/home/fanxinhao/Work/LiteOS_Lab/drivers/third_party/ST/STM32L4xx_HAL_Driver/Src/stm32l4xx_hal_flash.c ****                 HAL_FLASH_EndOfOperationCallback() when everything is ok, otherwise
  54:/home/fanxinhao/Work/LiteOS_Lab/drivers/third_party/ST/STM32L4xx_HAL_Driver/Src/stm32l4xx_hal_flash.c ****                 HAL_FLASH_OperationErrorCallback()
  55:/home/fanxinhao/Work/LiteOS_Lab/drivers/third_party/ST/STM32L4xx_HAL_Driver/Src/stm32l4xx_hal_flash.c ****            (++) Get error flag status by calling HAL_GetError()    
  56:/home/fanxinhao/Work/LiteOS_Lab/drivers/third_party/ST/STM32L4xx_HAL_Driver/Src/stm32l4xx_hal_flash.c ****            
  57:/home/fanxinhao/Work/LiteOS_Lab/drivers/third_party/ST/STM32L4xx_HAL_Driver/Src/stm32l4xx_hal_flash.c ****       (#) Option bytes management functions :
  58:/home/fanxinhao/Work/LiteOS_Lab/drivers/third_party/ST/STM32L4xx_HAL_Driver/Src/stm32l4xx_hal_flash.c ****            (++) Lock and Unlock the option bytes using HAL_FLASH_OB_Unlock() and
  59:/home/fanxinhao/Work/LiteOS_Lab/drivers/third_party/ST/STM32L4xx_HAL_Driver/Src/stm32l4xx_hal_flash.c ****                 HAL_FLASH_OB_Lock() functions
  60:/home/fanxinhao/Work/LiteOS_Lab/drivers/third_party/ST/STM32L4xx_HAL_Driver/Src/stm32l4xx_hal_flash.c ****            (++) Launch the reload of the option bytes using HAL_FLASH_Launch() function.
  61:/home/fanxinhao/Work/LiteOS_Lab/drivers/third_party/ST/STM32L4xx_HAL_Driver/Src/stm32l4xx_hal_flash.c ****                 In this case, a reset is generated
  62:/home/fanxinhao/Work/LiteOS_Lab/drivers/third_party/ST/STM32L4xx_HAL_Driver/Src/stm32l4xx_hal_flash.c ****                          
  63:/home/fanxinhao/Work/LiteOS_Lab/drivers/third_party/ST/STM32L4xx_HAL_Driver/Src/stm32l4xx_hal_flash.c ****     [..] 
  64:/home/fanxinhao/Work/LiteOS_Lab/drivers/third_party/ST/STM32L4xx_HAL_Driver/Src/stm32l4xx_hal_flash.c ****       In addition to these functions, this driver includes a set of macros allowing
  65:/home/fanxinhao/Work/LiteOS_Lab/drivers/third_party/ST/STM32L4xx_HAL_Driver/Src/stm32l4xx_hal_flash.c ****       to handle the following operations:
  66:/home/fanxinhao/Work/LiteOS_Lab/drivers/third_party/ST/STM32L4xx_HAL_Driver/Src/stm32l4xx_hal_flash.c ****        (+) Set the latency
  67:/home/fanxinhao/Work/LiteOS_Lab/drivers/third_party/ST/STM32L4xx_HAL_Driver/Src/stm32l4xx_hal_flash.c ****        (+) Enable/Disable the prefetch buffer
  68:/home/fanxinhao/Work/LiteOS_Lab/drivers/third_party/ST/STM32L4xx_HAL_Driver/Src/stm32l4xx_hal_flash.c ****        (+) Enable/Disable the Instruction cache and the Data cache
  69:/home/fanxinhao/Work/LiteOS_Lab/drivers/third_party/ST/STM32L4xx_HAL_Driver/Src/stm32l4xx_hal_flash.c ****        (+) Reset the Instruction cache and the Data cache
  70:/home/fanxinhao/Work/LiteOS_Lab/drivers/third_party/ST/STM32L4xx_HAL_Driver/Src/stm32l4xx_hal_flash.c ****        (+) Enable/Disable the Flash power-down during low-power run and sleep modes
  71:/home/fanxinhao/Work/LiteOS_Lab/drivers/third_party/ST/STM32L4xx_HAL_Driver/Src/stm32l4xx_hal_flash.c ****        (+) Enable/Disable the Flash interrupts
  72:/home/fanxinhao/Work/LiteOS_Lab/drivers/third_party/ST/STM32L4xx_HAL_Driver/Src/stm32l4xx_hal_flash.c ****        (+) Monitor the Flash flags status
  73:/home/fanxinhao/Work/LiteOS_Lab/drivers/third_party/ST/STM32L4xx_HAL_Driver/Src/stm32l4xx_hal_flash.c ****     
  74:/home/fanxinhao/Work/LiteOS_Lab/drivers/third_party/ST/STM32L4xx_HAL_Driver/Src/stm32l4xx_hal_flash.c ****  @endverbatim                      
  75:/home/fanxinhao/Work/LiteOS_Lab/drivers/third_party/ST/STM32L4xx_HAL_Driver/Src/stm32l4xx_hal_flash.c ****   ******************************************************************************
  76:/home/fanxinhao/Work/LiteOS_Lab/drivers/third_party/ST/STM32L4xx_HAL_Driver/Src/stm32l4xx_hal_flash.c ****   * @attention
  77:/home/fanxinhao/Work/LiteOS_Lab/drivers/third_party/ST/STM32L4xx_HAL_Driver/Src/stm32l4xx_hal_flash.c ****   *
  78:/home/fanxinhao/Work/LiteOS_Lab/drivers/third_party/ST/STM32L4xx_HAL_Driver/Src/stm32l4xx_hal_flash.c ****   * <h2><center>&copy; COPYRIGHT(c) 2017 STMicroelectronics</center></h2>
  79:/home/fanxinhao/Work/LiteOS_Lab/drivers/third_party/ST/STM32L4xx_HAL_Driver/Src/stm32l4xx_hal_flash.c ****   *
  80:/home/fanxinhao/Work/LiteOS_Lab/drivers/third_party/ST/STM32L4xx_HAL_Driver/Src/stm32l4xx_hal_flash.c ****   * Redistribution and use in source and binary forms, with or without modification,
  81:/home/fanxinhao/Work/LiteOS_Lab/drivers/third_party/ST/STM32L4xx_HAL_Driver/Src/stm32l4xx_hal_flash.c ****   * are permitted provided that the following conditions are met:
  82:/home/fanxinhao/Work/LiteOS_Lab/drivers/third_party/ST/STM32L4xx_HAL_Driver/Src/stm32l4xx_hal_flash.c ****   *   1. Redistributions of source code must retain the above copyright notice,
  83:/home/fanxinhao/Work/LiteOS_Lab/drivers/third_party/ST/STM32L4xx_HAL_Driver/Src/stm32l4xx_hal_flash.c ****   *      this list of conditions and the following disclaimer.
  84:/home/fanxinhao/Work/LiteOS_Lab/drivers/third_party/ST/STM32L4xx_HAL_Driver/Src/stm32l4xx_hal_flash.c ****   *   2. Redistributions in binary form must reproduce the above copyright notice,
  85:/home/fanxinhao/Work/LiteOS_Lab/drivers/third_party/ST/STM32L4xx_HAL_Driver/Src/stm32l4xx_hal_flash.c ****   *      this list of conditions and the following disclaimer in the documentation
  86:/home/fanxinhao/Work/LiteOS_Lab/drivers/third_party/ST/STM32L4xx_HAL_Driver/Src/stm32l4xx_hal_flash.c ****   *      and/or other materials provided with the distribution.
ARM GAS  /tmp/cco0QsaQ.s 			page 3


  87:/home/fanxinhao/Work/LiteOS_Lab/drivers/third_party/ST/STM32L4xx_HAL_Driver/Src/stm32l4xx_hal_flash.c ****   *   3. Neither the name of STMicroelectronics nor the names of its contributors
  88:/home/fanxinhao/Work/LiteOS_Lab/drivers/third_party/ST/STM32L4xx_HAL_Driver/Src/stm32l4xx_hal_flash.c ****   *      may be used to endorse or promote products derived from this software
  89:/home/fanxinhao/Work/LiteOS_Lab/drivers/third_party/ST/STM32L4xx_HAL_Driver/Src/stm32l4xx_hal_flash.c ****   *      without specific prior written permission.
  90:/home/fanxinhao/Work/LiteOS_Lab/drivers/third_party/ST/STM32L4xx_HAL_Driver/Src/stm32l4xx_hal_flash.c ****   *
  91:/home/fanxinhao/Work/LiteOS_Lab/drivers/third_party/ST/STM32L4xx_HAL_Driver/Src/stm32l4xx_hal_flash.c ****   * THIS SOFTWARE IS PROVIDED BY THE COPYRIGHT HOLDERS AND CONTRIBUTORS "AS IS"
  92:/home/fanxinhao/Work/LiteOS_Lab/drivers/third_party/ST/STM32L4xx_HAL_Driver/Src/stm32l4xx_hal_flash.c ****   * AND ANY EXPRESS OR IMPLIED WARRANTIES, INCLUDING, BUT NOT LIMITED TO, THE
  93:/home/fanxinhao/Work/LiteOS_Lab/drivers/third_party/ST/STM32L4xx_HAL_Driver/Src/stm32l4xx_hal_flash.c ****   * IMPLIED WARRANTIES OF MERCHANTABILITY AND FITNESS FOR A PARTICULAR PURPOSE ARE
  94:/home/fanxinhao/Work/LiteOS_Lab/drivers/third_party/ST/STM32L4xx_HAL_Driver/Src/stm32l4xx_hal_flash.c ****   * DISCLAIMED. IN NO EVENT SHALL THE COPYRIGHT HOLDER OR CONTRIBUTORS BE LIABLE
  95:/home/fanxinhao/Work/LiteOS_Lab/drivers/third_party/ST/STM32L4xx_HAL_Driver/Src/stm32l4xx_hal_flash.c ****   * FOR ANY DIRECT, INDIRECT, INCIDENTAL, SPECIAL, EXEMPLARY, OR CONSEQUENTIAL
  96:/home/fanxinhao/Work/LiteOS_Lab/drivers/third_party/ST/STM32L4xx_HAL_Driver/Src/stm32l4xx_hal_flash.c ****   * DAMAGES (INCLUDING, BUT NOT LIMITED TO, PROCUREMENT OF SUBSTITUTE GOODS OR
  97:/home/fanxinhao/Work/LiteOS_Lab/drivers/third_party/ST/STM32L4xx_HAL_Driver/Src/stm32l4xx_hal_flash.c ****   * SERVICES; LOSS OF USE, DATA, OR PROFITS; OR BUSINESS INTERRUPTION) HOWEVER
  98:/home/fanxinhao/Work/LiteOS_Lab/drivers/third_party/ST/STM32L4xx_HAL_Driver/Src/stm32l4xx_hal_flash.c ****   * CAUSED AND ON ANY THEORY OF LIABILITY, WHETHER IN CONTRACT, STRICT LIABILITY,
  99:/home/fanxinhao/Work/LiteOS_Lab/drivers/third_party/ST/STM32L4xx_HAL_Driver/Src/stm32l4xx_hal_flash.c ****   * OR TORT (INCLUDING NEGLIGENCE OR OTHERWISE) ARISING IN ANY WAY OUT OF THE USE
 100:/home/fanxinhao/Work/LiteOS_Lab/drivers/third_party/ST/STM32L4xx_HAL_Driver/Src/stm32l4xx_hal_flash.c ****   * OF THIS SOFTWARE, EVEN IF ADVISED OF THE POSSIBILITY OF SUCH DAMAGE.
 101:/home/fanxinhao/Work/LiteOS_Lab/drivers/third_party/ST/STM32L4xx_HAL_Driver/Src/stm32l4xx_hal_flash.c ****   *
 102:/home/fanxinhao/Work/LiteOS_Lab/drivers/third_party/ST/STM32L4xx_HAL_Driver/Src/stm32l4xx_hal_flash.c ****   ******************************************************************************
 103:/home/fanxinhao/Work/LiteOS_Lab/drivers/third_party/ST/STM32L4xx_HAL_Driver/Src/stm32l4xx_hal_flash.c ****   */
 104:/home/fanxinhao/Work/LiteOS_Lab/drivers/third_party/ST/STM32L4xx_HAL_Driver/Src/stm32l4xx_hal_flash.c **** 
 105:/home/fanxinhao/Work/LiteOS_Lab/drivers/third_party/ST/STM32L4xx_HAL_Driver/Src/stm32l4xx_hal_flash.c **** /* Includes ------------------------------------------------------------------*/
 106:/home/fanxinhao/Work/LiteOS_Lab/drivers/third_party/ST/STM32L4xx_HAL_Driver/Src/stm32l4xx_hal_flash.c **** #include "stm32l4xx_hal.h"
 107:/home/fanxinhao/Work/LiteOS_Lab/drivers/third_party/ST/STM32L4xx_HAL_Driver/Src/stm32l4xx_hal_flash.c **** 
 108:/home/fanxinhao/Work/LiteOS_Lab/drivers/third_party/ST/STM32L4xx_HAL_Driver/Src/stm32l4xx_hal_flash.c **** /** @addtogroup STM32L4xx_HAL_Driver
 109:/home/fanxinhao/Work/LiteOS_Lab/drivers/third_party/ST/STM32L4xx_HAL_Driver/Src/stm32l4xx_hal_flash.c ****   * @{
 110:/home/fanxinhao/Work/LiteOS_Lab/drivers/third_party/ST/STM32L4xx_HAL_Driver/Src/stm32l4xx_hal_flash.c ****   */
 111:/home/fanxinhao/Work/LiteOS_Lab/drivers/third_party/ST/STM32L4xx_HAL_Driver/Src/stm32l4xx_hal_flash.c **** 
 112:/home/fanxinhao/Work/LiteOS_Lab/drivers/third_party/ST/STM32L4xx_HAL_Driver/Src/stm32l4xx_hal_flash.c **** /** @defgroup FLASH FLASH
 113:/home/fanxinhao/Work/LiteOS_Lab/drivers/third_party/ST/STM32L4xx_HAL_Driver/Src/stm32l4xx_hal_flash.c ****   * @brief FLASH HAL module driver
 114:/home/fanxinhao/Work/LiteOS_Lab/drivers/third_party/ST/STM32L4xx_HAL_Driver/Src/stm32l4xx_hal_flash.c ****   * @{
 115:/home/fanxinhao/Work/LiteOS_Lab/drivers/third_party/ST/STM32L4xx_HAL_Driver/Src/stm32l4xx_hal_flash.c ****   */
 116:/home/fanxinhao/Work/LiteOS_Lab/drivers/third_party/ST/STM32L4xx_HAL_Driver/Src/stm32l4xx_hal_flash.c **** 
 117:/home/fanxinhao/Work/LiteOS_Lab/drivers/third_party/ST/STM32L4xx_HAL_Driver/Src/stm32l4xx_hal_flash.c **** #ifdef HAL_FLASH_MODULE_ENABLED
 118:/home/fanxinhao/Work/LiteOS_Lab/drivers/third_party/ST/STM32L4xx_HAL_Driver/Src/stm32l4xx_hal_flash.c **** 
 119:/home/fanxinhao/Work/LiteOS_Lab/drivers/third_party/ST/STM32L4xx_HAL_Driver/Src/stm32l4xx_hal_flash.c **** /* Private typedef -----------------------------------------------------------*/
 120:/home/fanxinhao/Work/LiteOS_Lab/drivers/third_party/ST/STM32L4xx_HAL_Driver/Src/stm32l4xx_hal_flash.c **** /* Private defines -----------------------------------------------------------*/
 121:/home/fanxinhao/Work/LiteOS_Lab/drivers/third_party/ST/STM32L4xx_HAL_Driver/Src/stm32l4xx_hal_flash.c **** #if defined (STM32L4R5xx) || defined (STM32L4R7xx) || defined (STM32L4R9xx) || defined (STM32L4S5xx
 122:/home/fanxinhao/Work/LiteOS_Lab/drivers/third_party/ST/STM32L4xx_HAL_Driver/Src/stm32l4xx_hal_flash.c **** #define FLASH_NB_DOUBLE_WORDS_IN_ROW  64 
 123:/home/fanxinhao/Work/LiteOS_Lab/drivers/third_party/ST/STM32L4xx_HAL_Driver/Src/stm32l4xx_hal_flash.c **** #else
 124:/home/fanxinhao/Work/LiteOS_Lab/drivers/third_party/ST/STM32L4xx_HAL_Driver/Src/stm32l4xx_hal_flash.c **** #define FLASH_NB_DOUBLE_WORDS_IN_ROW  32 
 125:/home/fanxinhao/Work/LiteOS_Lab/drivers/third_party/ST/STM32L4xx_HAL_Driver/Src/stm32l4xx_hal_flash.c **** #endif
 126:/home/fanxinhao/Work/LiteOS_Lab/drivers/third_party/ST/STM32L4xx_HAL_Driver/Src/stm32l4xx_hal_flash.c **** /* Private macros ------------------------------------------------------------*/
 127:/home/fanxinhao/Work/LiteOS_Lab/drivers/third_party/ST/STM32L4xx_HAL_Driver/Src/stm32l4xx_hal_flash.c **** /* Private variables ---------------------------------------------------------*/
 128:/home/fanxinhao/Work/LiteOS_Lab/drivers/third_party/ST/STM32L4xx_HAL_Driver/Src/stm32l4xx_hal_flash.c **** /** @defgroup FLASH_Private_Variables FLASH Private Variables
 129:/home/fanxinhao/Work/LiteOS_Lab/drivers/third_party/ST/STM32L4xx_HAL_Driver/Src/stm32l4xx_hal_flash.c ****  * @{
 130:/home/fanxinhao/Work/LiteOS_Lab/drivers/third_party/ST/STM32L4xx_HAL_Driver/Src/stm32l4xx_hal_flash.c ****  */
 131:/home/fanxinhao/Work/LiteOS_Lab/drivers/third_party/ST/STM32L4xx_HAL_Driver/Src/stm32l4xx_hal_flash.c **** /**
 132:/home/fanxinhao/Work/LiteOS_Lab/drivers/third_party/ST/STM32L4xx_HAL_Driver/Src/stm32l4xx_hal_flash.c ****   * @brief  Variable used for Program/Erase sectors under interruption 
 133:/home/fanxinhao/Work/LiteOS_Lab/drivers/third_party/ST/STM32L4xx_HAL_Driver/Src/stm32l4xx_hal_flash.c ****   */
 134:/home/fanxinhao/Work/LiteOS_Lab/drivers/third_party/ST/STM32L4xx_HAL_Driver/Src/stm32l4xx_hal_flash.c **** FLASH_ProcessTypeDef pFlash;
 135:/home/fanxinhao/Work/LiteOS_Lab/drivers/third_party/ST/STM32L4xx_HAL_Driver/Src/stm32l4xx_hal_flash.c **** /**
 136:/home/fanxinhao/Work/LiteOS_Lab/drivers/third_party/ST/STM32L4xx_HAL_Driver/Src/stm32l4xx_hal_flash.c ****   * @}
 137:/home/fanxinhao/Work/LiteOS_Lab/drivers/third_party/ST/STM32L4xx_HAL_Driver/Src/stm32l4xx_hal_flash.c ****   */
 138:/home/fanxinhao/Work/LiteOS_Lab/drivers/third_party/ST/STM32L4xx_HAL_Driver/Src/stm32l4xx_hal_flash.c **** 
 139:/home/fanxinhao/Work/LiteOS_Lab/drivers/third_party/ST/STM32L4xx_HAL_Driver/Src/stm32l4xx_hal_flash.c **** /* Private function prototypes -----------------------------------------------*/
 140:/home/fanxinhao/Work/LiteOS_Lab/drivers/third_party/ST/STM32L4xx_HAL_Driver/Src/stm32l4xx_hal_flash.c **** /** @defgroup FLASH_Private_Functions FLASH Private Functions
 141:/home/fanxinhao/Work/LiteOS_Lab/drivers/third_party/ST/STM32L4xx_HAL_Driver/Src/stm32l4xx_hal_flash.c ****  * @{
 142:/home/fanxinhao/Work/LiteOS_Lab/drivers/third_party/ST/STM32L4xx_HAL_Driver/Src/stm32l4xx_hal_flash.c ****  */
 143:/home/fanxinhao/Work/LiteOS_Lab/drivers/third_party/ST/STM32L4xx_HAL_Driver/Src/stm32l4xx_hal_flash.c **** HAL_StatusTypeDef    FLASH_WaitForLastOperation(uint32_t Timeout);
ARM GAS  /tmp/cco0QsaQ.s 			page 4


 144:/home/fanxinhao/Work/LiteOS_Lab/drivers/third_party/ST/STM32L4xx_HAL_Driver/Src/stm32l4xx_hal_flash.c **** extern void          FLASH_PageErase(uint32_t Page, uint32_t Banks);
 145:/home/fanxinhao/Work/LiteOS_Lab/drivers/third_party/ST/STM32L4xx_HAL_Driver/Src/stm32l4xx_hal_flash.c **** extern void          FLASH_FlushCaches(void);
 146:/home/fanxinhao/Work/LiteOS_Lab/drivers/third_party/ST/STM32L4xx_HAL_Driver/Src/stm32l4xx_hal_flash.c **** static void          FLASH_SetErrorCode(void);
 147:/home/fanxinhao/Work/LiteOS_Lab/drivers/third_party/ST/STM32L4xx_HAL_Driver/Src/stm32l4xx_hal_flash.c **** static void          FLASH_Program_DoubleWord(uint32_t Address, uint64_t Data);
 148:/home/fanxinhao/Work/LiteOS_Lab/drivers/third_party/ST/STM32L4xx_HAL_Driver/Src/stm32l4xx_hal_flash.c **** static void          FLASH_Program_Fast(uint32_t Address, uint32_t DataAddress);
 149:/home/fanxinhao/Work/LiteOS_Lab/drivers/third_party/ST/STM32L4xx_HAL_Driver/Src/stm32l4xx_hal_flash.c **** /**
 150:/home/fanxinhao/Work/LiteOS_Lab/drivers/third_party/ST/STM32L4xx_HAL_Driver/Src/stm32l4xx_hal_flash.c ****   * @}
 151:/home/fanxinhao/Work/LiteOS_Lab/drivers/third_party/ST/STM32L4xx_HAL_Driver/Src/stm32l4xx_hal_flash.c ****   */
 152:/home/fanxinhao/Work/LiteOS_Lab/drivers/third_party/ST/STM32L4xx_HAL_Driver/Src/stm32l4xx_hal_flash.c **** 
 153:/home/fanxinhao/Work/LiteOS_Lab/drivers/third_party/ST/STM32L4xx_HAL_Driver/Src/stm32l4xx_hal_flash.c **** /* Exported functions --------------------------------------------------------*/
 154:/home/fanxinhao/Work/LiteOS_Lab/drivers/third_party/ST/STM32L4xx_HAL_Driver/Src/stm32l4xx_hal_flash.c **** /** @defgroup FLASH_Exported_Functions FLASH Exported Functions
 155:/home/fanxinhao/Work/LiteOS_Lab/drivers/third_party/ST/STM32L4xx_HAL_Driver/Src/stm32l4xx_hal_flash.c ****   * @{
 156:/home/fanxinhao/Work/LiteOS_Lab/drivers/third_party/ST/STM32L4xx_HAL_Driver/Src/stm32l4xx_hal_flash.c ****   */
 157:/home/fanxinhao/Work/LiteOS_Lab/drivers/third_party/ST/STM32L4xx_HAL_Driver/Src/stm32l4xx_hal_flash.c **** 
 158:/home/fanxinhao/Work/LiteOS_Lab/drivers/third_party/ST/STM32L4xx_HAL_Driver/Src/stm32l4xx_hal_flash.c **** /** @defgroup FLASH_Exported_Functions_Group1 Programming operation functions 
 159:/home/fanxinhao/Work/LiteOS_Lab/drivers/third_party/ST/STM32L4xx_HAL_Driver/Src/stm32l4xx_hal_flash.c ****  *  @brief   Programming operation functions 
 160:/home/fanxinhao/Work/LiteOS_Lab/drivers/third_party/ST/STM32L4xx_HAL_Driver/Src/stm32l4xx_hal_flash.c ****  *
 161:/home/fanxinhao/Work/LiteOS_Lab/drivers/third_party/ST/STM32L4xx_HAL_Driver/Src/stm32l4xx_hal_flash.c **** @verbatim   
 162:/home/fanxinhao/Work/LiteOS_Lab/drivers/third_party/ST/STM32L4xx_HAL_Driver/Src/stm32l4xx_hal_flash.c ****  ===============================================================================
 163:/home/fanxinhao/Work/LiteOS_Lab/drivers/third_party/ST/STM32L4xx_HAL_Driver/Src/stm32l4xx_hal_flash.c ****                   ##### Programming operation functions #####
 164:/home/fanxinhao/Work/LiteOS_Lab/drivers/third_party/ST/STM32L4xx_HAL_Driver/Src/stm32l4xx_hal_flash.c ****  ===============================================================================
 165:/home/fanxinhao/Work/LiteOS_Lab/drivers/third_party/ST/STM32L4xx_HAL_Driver/Src/stm32l4xx_hal_flash.c ****     [..]
 166:/home/fanxinhao/Work/LiteOS_Lab/drivers/third_party/ST/STM32L4xx_HAL_Driver/Src/stm32l4xx_hal_flash.c ****     This subsection provides a set of functions allowing to manage the FLASH 
 167:/home/fanxinhao/Work/LiteOS_Lab/drivers/third_party/ST/STM32L4xx_HAL_Driver/Src/stm32l4xx_hal_flash.c ****     program operations.
 168:/home/fanxinhao/Work/LiteOS_Lab/drivers/third_party/ST/STM32L4xx_HAL_Driver/Src/stm32l4xx_hal_flash.c ****  
 169:/home/fanxinhao/Work/LiteOS_Lab/drivers/third_party/ST/STM32L4xx_HAL_Driver/Src/stm32l4xx_hal_flash.c **** @endverbatim
 170:/home/fanxinhao/Work/LiteOS_Lab/drivers/third_party/ST/STM32L4xx_HAL_Driver/Src/stm32l4xx_hal_flash.c ****   * @{
 171:/home/fanxinhao/Work/LiteOS_Lab/drivers/third_party/ST/STM32L4xx_HAL_Driver/Src/stm32l4xx_hal_flash.c ****   */
 172:/home/fanxinhao/Work/LiteOS_Lab/drivers/third_party/ST/STM32L4xx_HAL_Driver/Src/stm32l4xx_hal_flash.c ****  
 173:/home/fanxinhao/Work/LiteOS_Lab/drivers/third_party/ST/STM32L4xx_HAL_Driver/Src/stm32l4xx_hal_flash.c **** /**
 174:/home/fanxinhao/Work/LiteOS_Lab/drivers/third_party/ST/STM32L4xx_HAL_Driver/Src/stm32l4xx_hal_flash.c ****   * @brief  Program double word or fast program of a row at a specified address.
 175:/home/fanxinhao/Work/LiteOS_Lab/drivers/third_party/ST/STM32L4xx_HAL_Driver/Src/stm32l4xx_hal_flash.c ****   * @param  TypeProgram:  Indicate the way to program at a specified address.
 176:/home/fanxinhao/Work/LiteOS_Lab/drivers/third_party/ST/STM32L4xx_HAL_Driver/Src/stm32l4xx_hal_flash.c ****   *                           This parameter can be a value of @ref FLASH_Type_Program
 177:/home/fanxinhao/Work/LiteOS_Lab/drivers/third_party/ST/STM32L4xx_HAL_Driver/Src/stm32l4xx_hal_flash.c ****   * @param  Address:  specifies the address to be programmed.
 178:/home/fanxinhao/Work/LiteOS_Lab/drivers/third_party/ST/STM32L4xx_HAL_Driver/Src/stm32l4xx_hal_flash.c ****   * @param  Data: specifies the data to be programmed
 179:/home/fanxinhao/Work/LiteOS_Lab/drivers/third_party/ST/STM32L4xx_HAL_Driver/Src/stm32l4xx_hal_flash.c ****   *                This parameter is the data for the double word program and the address where 
 180:/home/fanxinhao/Work/LiteOS_Lab/drivers/third_party/ST/STM32L4xx_HAL_Driver/Src/stm32l4xx_hal_flash.c ****   *                are stored the data for the row fast program
 181:/home/fanxinhao/Work/LiteOS_Lab/drivers/third_party/ST/STM32L4xx_HAL_Driver/Src/stm32l4xx_hal_flash.c ****   * 
 182:/home/fanxinhao/Work/LiteOS_Lab/drivers/third_party/ST/STM32L4xx_HAL_Driver/Src/stm32l4xx_hal_flash.c ****   * @retval HAL_StatusTypeDef HAL Status
 183:/home/fanxinhao/Work/LiteOS_Lab/drivers/third_party/ST/STM32L4xx_HAL_Driver/Src/stm32l4xx_hal_flash.c ****   */
 184:/home/fanxinhao/Work/LiteOS_Lab/drivers/third_party/ST/STM32L4xx_HAL_Driver/Src/stm32l4xx_hal_flash.c **** HAL_StatusTypeDef HAL_FLASH_Program(uint32_t TypeProgram, uint32_t Address, uint64_t Data)
 185:/home/fanxinhao/Work/LiteOS_Lab/drivers/third_party/ST/STM32L4xx_HAL_Driver/Src/stm32l4xx_hal_flash.c **** {
  30              		.loc 1 185 1
  31              		.cfi_startproc
  32              		@ args = 0, pretend = 0, frame = 24
  33              		@ frame_needed = 1, uses_anonymous_args = 0
  34 0000 80B5     		push	{r7, lr}
  35              	.LCFI0:
  36              		.cfi_def_cfa_offset 8
  37              		.cfi_offset 7, -8
  38              		.cfi_offset 14, -4
  39 0002 86B0     		sub	sp, sp, #24
  40              	.LCFI1:
  41              		.cfi_def_cfa_offset 32
  42 0004 00AF     		add	r7, sp, #0
  43              	.LCFI2:
  44              		.cfi_def_cfa_register 7
ARM GAS  /tmp/cco0QsaQ.s 			page 5


  45 0006 F860     		str	r0, [r7, #12]
  46 0008 B960     		str	r1, [r7, #8]
  47 000a C7E90023 		strd	r2, [r7]
 186:/home/fanxinhao/Work/LiteOS_Lab/drivers/third_party/ST/STM32L4xx_HAL_Driver/Src/stm32l4xx_hal_flash.c ****   HAL_StatusTypeDef status = HAL_ERROR;
  48              		.loc 1 186 21
  49 000e 0123     		movs	r3, #1
  50 0010 FB75     		strb	r3, [r7, #23]
 187:/home/fanxinhao/Work/LiteOS_Lab/drivers/third_party/ST/STM32L4xx_HAL_Driver/Src/stm32l4xx_hal_flash.c ****   uint32_t prog_bit = 0;
  51              		.loc 1 187 12
  52 0012 0023     		movs	r3, #0
  53 0014 3B61     		str	r3, [r7, #16]
 188:/home/fanxinhao/Work/LiteOS_Lab/drivers/third_party/ST/STM32L4xx_HAL_Driver/Src/stm32l4xx_hal_flash.c ****   
 189:/home/fanxinhao/Work/LiteOS_Lab/drivers/third_party/ST/STM32L4xx_HAL_Driver/Src/stm32l4xx_hal_flash.c ****   /* Process Locked */
 190:/home/fanxinhao/Work/LiteOS_Lab/drivers/third_party/ST/STM32L4xx_HAL_Driver/Src/stm32l4xx_hal_flash.c ****   __HAL_LOCK(&pFlash);
  54              		.loc 1 190 3
  55 0016 2F4B     		ldr	r3, .L11
  56 0018 1B78     		ldrb	r3, [r3]	@ zero_extendqisi2
  57 001a 012B     		cmp	r3, #1
  58 001c 01D1     		bne	.L2
  59              		.loc 1 190 3 is_stmt 0 discriminator 1
  60 001e 0223     		movs	r3, #2
  61 0020 53E0     		b	.L3
  62              	.L2:
  63              		.loc 1 190 3 discriminator 2
  64 0022 2C4B     		ldr	r3, .L11
  65 0024 0122     		movs	r2, #1
  66 0026 1A70     		strb	r2, [r3]
 191:/home/fanxinhao/Work/LiteOS_Lab/drivers/third_party/ST/STM32L4xx_HAL_Driver/Src/stm32l4xx_hal_flash.c **** 
 192:/home/fanxinhao/Work/LiteOS_Lab/drivers/third_party/ST/STM32L4xx_HAL_Driver/Src/stm32l4xx_hal_flash.c ****   /* Check the parameters */
 193:/home/fanxinhao/Work/LiteOS_Lab/drivers/third_party/ST/STM32L4xx_HAL_Driver/Src/stm32l4xx_hal_flash.c ****   assert_param(IS_FLASH_TYPEPROGRAM(TypeProgram));
 194:/home/fanxinhao/Work/LiteOS_Lab/drivers/third_party/ST/STM32L4xx_HAL_Driver/Src/stm32l4xx_hal_flash.c **** 
 195:/home/fanxinhao/Work/LiteOS_Lab/drivers/third_party/ST/STM32L4xx_HAL_Driver/Src/stm32l4xx_hal_flash.c ****   /* Wait for last operation to be completed */
 196:/home/fanxinhao/Work/LiteOS_Lab/drivers/third_party/ST/STM32L4xx_HAL_Driver/Src/stm32l4xx_hal_flash.c ****   status = FLASH_WaitForLastOperation((uint32_t)FLASH_TIMEOUT_VALUE);
  67              		.loc 1 196 12 is_stmt 1 discriminator 2
  68 0028 4CF25030 		movw	r0, #50000
  69 002c FFF7FEFF 		bl	FLASH_WaitForLastOperation
  70 0030 0346     		mov	r3, r0
  71 0032 FB75     		strb	r3, [r7, #23]
 197:/home/fanxinhao/Work/LiteOS_Lab/drivers/third_party/ST/STM32L4xx_HAL_Driver/Src/stm32l4xx_hal_flash.c ****   
 198:/home/fanxinhao/Work/LiteOS_Lab/drivers/third_party/ST/STM32L4xx_HAL_Driver/Src/stm32l4xx_hal_flash.c ****   if(status == HAL_OK)
  72              		.loc 1 198 5 discriminator 2
  73 0034 FB7D     		ldrb	r3, [r7, #23]	@ zero_extendqisi2
  74 0036 002B     		cmp	r3, #0
  75 0038 43D1     		bne	.L4
 199:/home/fanxinhao/Work/LiteOS_Lab/drivers/third_party/ST/STM32L4xx_HAL_Driver/Src/stm32l4xx_hal_flash.c ****   {
 200:/home/fanxinhao/Work/LiteOS_Lab/drivers/third_party/ST/STM32L4xx_HAL_Driver/Src/stm32l4xx_hal_flash.c ****     pFlash.ErrorCode = HAL_FLASH_ERROR_NONE;
  76              		.loc 1 200 22
  77 003a 264B     		ldr	r3, .L11
  78 003c 0022     		movs	r2, #0
  79 003e 5A60     		str	r2, [r3, #4]
 201:/home/fanxinhao/Work/LiteOS_Lab/drivers/third_party/ST/STM32L4xx_HAL_Driver/Src/stm32l4xx_hal_flash.c **** 
 202:/home/fanxinhao/Work/LiteOS_Lab/drivers/third_party/ST/STM32L4xx_HAL_Driver/Src/stm32l4xx_hal_flash.c ****     /* Deactivate the data cache if they are activated to avoid data misbehavior */
 203:/home/fanxinhao/Work/LiteOS_Lab/drivers/third_party/ST/STM32L4xx_HAL_Driver/Src/stm32l4xx_hal_flash.c ****     if(READ_BIT(FLASH->ACR, FLASH_ACR_DCEN) != RESET)
  80              		.loc 1 203 8
  81 0040 254B     		ldr	r3, .L11+4
  82 0042 1B68     		ldr	r3, [r3]
  83 0044 03F48063 		and	r3, r3, #1024
ARM GAS  /tmp/cco0QsaQ.s 			page 6


  84              		.loc 1 203 7
  85 0048 002B     		cmp	r3, #0
  86 004a 09D0     		beq	.L5
 204:/home/fanxinhao/Work/LiteOS_Lab/drivers/third_party/ST/STM32L4xx_HAL_Driver/Src/stm32l4xx_hal_flash.c ****     {
 205:/home/fanxinhao/Work/LiteOS_Lab/drivers/third_party/ST/STM32L4xx_HAL_Driver/Src/stm32l4xx_hal_flash.c ****       /* Disable data cache  */
 206:/home/fanxinhao/Work/LiteOS_Lab/drivers/third_party/ST/STM32L4xx_HAL_Driver/Src/stm32l4xx_hal_flash.c ****       __HAL_FLASH_DATA_CACHE_DISABLE();
  87              		.loc 1 206 7
  88 004c 224B     		ldr	r3, .L11+4
  89 004e 1B68     		ldr	r3, [r3]
  90 0050 214A     		ldr	r2, .L11+4
  91 0052 23F48063 		bic	r3, r3, #1024
  92 0056 1360     		str	r3, [r2]
 207:/home/fanxinhao/Work/LiteOS_Lab/drivers/third_party/ST/STM32L4xx_HAL_Driver/Src/stm32l4xx_hal_flash.c ****       pFlash.CacheToReactivate = FLASH_CACHE_DCACHE_ENABLED;
  93              		.loc 1 207 32
  94 0058 1E4B     		ldr	r3, .L11
  95 005a 0222     		movs	r2, #2
  96 005c 1A77     		strb	r2, [r3, #28]
  97 005e 02E0     		b	.L6
  98              	.L5:
 208:/home/fanxinhao/Work/LiteOS_Lab/drivers/third_party/ST/STM32L4xx_HAL_Driver/Src/stm32l4xx_hal_flash.c ****     }
 209:/home/fanxinhao/Work/LiteOS_Lab/drivers/third_party/ST/STM32L4xx_HAL_Driver/Src/stm32l4xx_hal_flash.c ****     else
 210:/home/fanxinhao/Work/LiteOS_Lab/drivers/third_party/ST/STM32L4xx_HAL_Driver/Src/stm32l4xx_hal_flash.c ****     {
 211:/home/fanxinhao/Work/LiteOS_Lab/drivers/third_party/ST/STM32L4xx_HAL_Driver/Src/stm32l4xx_hal_flash.c ****       pFlash.CacheToReactivate = FLASH_CACHE_DISABLED;
  99              		.loc 1 211 32
 100 0060 1C4B     		ldr	r3, .L11
 101 0062 0022     		movs	r2, #0
 102 0064 1A77     		strb	r2, [r3, #28]
 103              	.L6:
 212:/home/fanxinhao/Work/LiteOS_Lab/drivers/third_party/ST/STM32L4xx_HAL_Driver/Src/stm32l4xx_hal_flash.c ****     }
 213:/home/fanxinhao/Work/LiteOS_Lab/drivers/third_party/ST/STM32L4xx_HAL_Driver/Src/stm32l4xx_hal_flash.c **** 
 214:/home/fanxinhao/Work/LiteOS_Lab/drivers/third_party/ST/STM32L4xx_HAL_Driver/Src/stm32l4xx_hal_flash.c ****     if(TypeProgram == FLASH_TYPEPROGRAM_DOUBLEWORD)
 104              		.loc 1 214 7
 105 0066 FB68     		ldr	r3, [r7, #12]
 106 0068 002B     		cmp	r3, #0
 107 006a 07D1     		bne	.L7
 215:/home/fanxinhao/Work/LiteOS_Lab/drivers/third_party/ST/STM32L4xx_HAL_Driver/Src/stm32l4xx_hal_flash.c ****     {
 216:/home/fanxinhao/Work/LiteOS_Lab/drivers/third_party/ST/STM32L4xx_HAL_Driver/Src/stm32l4xx_hal_flash.c ****       /* Program double-word (64-bit) at a specified address */
 217:/home/fanxinhao/Work/LiteOS_Lab/drivers/third_party/ST/STM32L4xx_HAL_Driver/Src/stm32l4xx_hal_flash.c ****       FLASH_Program_DoubleWord(Address, Data);
 108              		.loc 1 217 7
 109 006c D7E90023 		ldrd	r2, [r7]
 110 0070 B868     		ldr	r0, [r7, #8]
 111 0072 FFF7FEFF 		bl	FLASH_Program_DoubleWord
 218:/home/fanxinhao/Work/LiteOS_Lab/drivers/third_party/ST/STM32L4xx_HAL_Driver/Src/stm32l4xx_hal_flash.c ****       prog_bit = FLASH_CR_PG;
 112              		.loc 1 218 16
 113 0076 0123     		movs	r3, #1
 114 0078 3B61     		str	r3, [r7, #16]
 115 007a 10E0     		b	.L8
 116              	.L7:
 219:/home/fanxinhao/Work/LiteOS_Lab/drivers/third_party/ST/STM32L4xx_HAL_Driver/Src/stm32l4xx_hal_flash.c ****     }
 220:/home/fanxinhao/Work/LiteOS_Lab/drivers/third_party/ST/STM32L4xx_HAL_Driver/Src/stm32l4xx_hal_flash.c ****     else if((TypeProgram == FLASH_TYPEPROGRAM_FAST) || (TypeProgram == FLASH_TYPEPROGRAM_FAST_AND_L
 117              		.loc 1 220 12
 118 007c FB68     		ldr	r3, [r7, #12]
 119 007e 012B     		cmp	r3, #1
 120 0080 02D0     		beq	.L9
 121              		.loc 1 220 53 discriminator 1
 122 0082 FB68     		ldr	r3, [r7, #12]
 123 0084 022B     		cmp	r3, #2
ARM GAS  /tmp/cco0QsaQ.s 			page 7


 124 0086 0AD1     		bne	.L8
 125              	.L9:
 221:/home/fanxinhao/Work/LiteOS_Lab/drivers/third_party/ST/STM32L4xx_HAL_Driver/Src/stm32l4xx_hal_flash.c ****     {
 222:/home/fanxinhao/Work/LiteOS_Lab/drivers/third_party/ST/STM32L4xx_HAL_Driver/Src/stm32l4xx_hal_flash.c ****       /* Fast program a 32 row double-word (64-bit) at a specified address */
 223:/home/fanxinhao/Work/LiteOS_Lab/drivers/third_party/ST/STM32L4xx_HAL_Driver/Src/stm32l4xx_hal_flash.c ****       FLASH_Program_Fast(Address, (uint32_t)Data);
 126              		.loc 1 223 7
 127 0088 3B68     		ldr	r3, [r7]
 128 008a 1946     		mov	r1, r3
 129 008c B868     		ldr	r0, [r7, #8]
 130 008e FFF7FEFF 		bl	FLASH_Program_Fast
 224:/home/fanxinhao/Work/LiteOS_Lab/drivers/third_party/ST/STM32L4xx_HAL_Driver/Src/stm32l4xx_hal_flash.c ****       
 225:/home/fanxinhao/Work/LiteOS_Lab/drivers/third_party/ST/STM32L4xx_HAL_Driver/Src/stm32l4xx_hal_flash.c ****       /* If it is the last row, the bit will be cleared at the end of the operation */
 226:/home/fanxinhao/Work/LiteOS_Lab/drivers/third_party/ST/STM32L4xx_HAL_Driver/Src/stm32l4xx_hal_flash.c ****       if(TypeProgram == FLASH_TYPEPROGRAM_FAST_AND_LAST)
 131              		.loc 1 226 9
 132 0092 FB68     		ldr	r3, [r7, #12]
 133 0094 022B     		cmp	r3, #2
 134 0096 02D1     		bne	.L8
 227:/home/fanxinhao/Work/LiteOS_Lab/drivers/third_party/ST/STM32L4xx_HAL_Driver/Src/stm32l4xx_hal_flash.c ****       {
 228:/home/fanxinhao/Work/LiteOS_Lab/drivers/third_party/ST/STM32L4xx_HAL_Driver/Src/stm32l4xx_hal_flash.c ****         prog_bit = FLASH_CR_FSTPG;
 135              		.loc 1 228 18
 136 0098 4FF48023 		mov	r3, #262144
 137 009c 3B61     		str	r3, [r7, #16]
 138              	.L8:
 229:/home/fanxinhao/Work/LiteOS_Lab/drivers/third_party/ST/STM32L4xx_HAL_Driver/Src/stm32l4xx_hal_flash.c ****       }
 230:/home/fanxinhao/Work/LiteOS_Lab/drivers/third_party/ST/STM32L4xx_HAL_Driver/Src/stm32l4xx_hal_flash.c ****     }
 231:/home/fanxinhao/Work/LiteOS_Lab/drivers/third_party/ST/STM32L4xx_HAL_Driver/Src/stm32l4xx_hal_flash.c **** 
 232:/home/fanxinhao/Work/LiteOS_Lab/drivers/third_party/ST/STM32L4xx_HAL_Driver/Src/stm32l4xx_hal_flash.c ****     /* Wait for last operation to be completed */
 233:/home/fanxinhao/Work/LiteOS_Lab/drivers/third_party/ST/STM32L4xx_HAL_Driver/Src/stm32l4xx_hal_flash.c ****     status = FLASH_WaitForLastOperation((uint32_t)FLASH_TIMEOUT_VALUE);
 139              		.loc 1 233 14
 140 009e 4CF25030 		movw	r0, #50000
 141 00a2 FFF7FEFF 		bl	FLASH_WaitForLastOperation
 142 00a6 0346     		mov	r3, r0
 143 00a8 FB75     		strb	r3, [r7, #23]
 234:/home/fanxinhao/Work/LiteOS_Lab/drivers/third_party/ST/STM32L4xx_HAL_Driver/Src/stm32l4xx_hal_flash.c ****     
 235:/home/fanxinhao/Work/LiteOS_Lab/drivers/third_party/ST/STM32L4xx_HAL_Driver/Src/stm32l4xx_hal_flash.c ****     /* If the program operation is completed, disable the PG or FSTPG Bit */
 236:/home/fanxinhao/Work/LiteOS_Lab/drivers/third_party/ST/STM32L4xx_HAL_Driver/Src/stm32l4xx_hal_flash.c ****     if (prog_bit != 0)
 144              		.loc 1 236 8
 145 00aa 3B69     		ldr	r3, [r7, #16]
 146 00ac 002B     		cmp	r3, #0
 147 00ae 06D0     		beq	.L10
 237:/home/fanxinhao/Work/LiteOS_Lab/drivers/third_party/ST/STM32L4xx_HAL_Driver/Src/stm32l4xx_hal_flash.c ****     {
 238:/home/fanxinhao/Work/LiteOS_Lab/drivers/third_party/ST/STM32L4xx_HAL_Driver/Src/stm32l4xx_hal_flash.c ****       CLEAR_BIT(FLASH->CR, prog_bit);
 148              		.loc 1 238 7
 149 00b0 094B     		ldr	r3, .L11+4
 150 00b2 5A69     		ldr	r2, [r3, #20]
 151 00b4 3B69     		ldr	r3, [r7, #16]
 152 00b6 DB43     		mvns	r3, r3
 153 00b8 0749     		ldr	r1, .L11+4
 154 00ba 1340     		ands	r3, r3, r2
 155 00bc 4B61     		str	r3, [r1, #20]
 156              	.L10:
 239:/home/fanxinhao/Work/LiteOS_Lab/drivers/third_party/ST/STM32L4xx_HAL_Driver/Src/stm32l4xx_hal_flash.c ****     }
 240:/home/fanxinhao/Work/LiteOS_Lab/drivers/third_party/ST/STM32L4xx_HAL_Driver/Src/stm32l4xx_hal_flash.c **** 
 241:/home/fanxinhao/Work/LiteOS_Lab/drivers/third_party/ST/STM32L4xx_HAL_Driver/Src/stm32l4xx_hal_flash.c ****     /* Flush the caches to be sure of the data consistency */
 242:/home/fanxinhao/Work/LiteOS_Lab/drivers/third_party/ST/STM32L4xx_HAL_Driver/Src/stm32l4xx_hal_flash.c ****     FLASH_FlushCaches();
 157              		.loc 1 242 5
 158 00be FFF7FEFF 		bl	FLASH_FlushCaches
ARM GAS  /tmp/cco0QsaQ.s 			page 8


 159              	.L4:
 243:/home/fanxinhao/Work/LiteOS_Lab/drivers/third_party/ST/STM32L4xx_HAL_Driver/Src/stm32l4xx_hal_flash.c ****   }
 244:/home/fanxinhao/Work/LiteOS_Lab/drivers/third_party/ST/STM32L4xx_HAL_Driver/Src/stm32l4xx_hal_flash.c **** 
 245:/home/fanxinhao/Work/LiteOS_Lab/drivers/third_party/ST/STM32L4xx_HAL_Driver/Src/stm32l4xx_hal_flash.c ****   /* Process Unlocked */
 246:/home/fanxinhao/Work/LiteOS_Lab/drivers/third_party/ST/STM32L4xx_HAL_Driver/Src/stm32l4xx_hal_flash.c ****   __HAL_UNLOCK(&pFlash);
 160              		.loc 1 246 3
 161 00c2 044B     		ldr	r3, .L11
 162 00c4 0022     		movs	r2, #0
 163 00c6 1A70     		strb	r2, [r3]
 247:/home/fanxinhao/Work/LiteOS_Lab/drivers/third_party/ST/STM32L4xx_HAL_Driver/Src/stm32l4xx_hal_flash.c **** 
 248:/home/fanxinhao/Work/LiteOS_Lab/drivers/third_party/ST/STM32L4xx_HAL_Driver/Src/stm32l4xx_hal_flash.c ****   return status;  
 164              		.loc 1 248 10
 165 00c8 FB7D     		ldrb	r3, [r7, #23]	@ zero_extendqisi2
 166              	.L3:
 249:/home/fanxinhao/Work/LiteOS_Lab/drivers/third_party/ST/STM32L4xx_HAL_Driver/Src/stm32l4xx_hal_flash.c **** }
 167              		.loc 1 249 1
 168 00ca 1846     		mov	r0, r3
 169 00cc 1837     		adds	r7, r7, #24
 170              	.LCFI3:
 171              		.cfi_def_cfa_offset 8
 172 00ce BD46     		mov	sp, r7
 173              	.LCFI4:
 174              		.cfi_def_cfa_register 13
 175              		@ sp needed
 176 00d0 80BD     		pop	{r7, pc}
 177              	.L12:
 178 00d2 00BF     		.align	2
 179              	.L11:
 180 00d4 00000000 		.word	pFlash
 181 00d8 00200240 		.word	1073881088
 182              		.cfi_endproc
 183              	.LFE126:
 185              		.section	.text.HAL_FLASH_Program_IT,"ax",%progbits
 186              		.align	1
 187              		.global	HAL_FLASH_Program_IT
 188              		.syntax unified
 189              		.thumb
 190              		.thumb_func
 191              		.fpu fpv4-sp-d16
 193              	HAL_FLASH_Program_IT:
 194              	.LFB127:
 250:/home/fanxinhao/Work/LiteOS_Lab/drivers/third_party/ST/STM32L4xx_HAL_Driver/Src/stm32l4xx_hal_flash.c **** 
 251:/home/fanxinhao/Work/LiteOS_Lab/drivers/third_party/ST/STM32L4xx_HAL_Driver/Src/stm32l4xx_hal_flash.c **** /**
 252:/home/fanxinhao/Work/LiteOS_Lab/drivers/third_party/ST/STM32L4xx_HAL_Driver/Src/stm32l4xx_hal_flash.c ****   * @brief  Program double word or fast program of a row at a specified address with interrupt enab
 253:/home/fanxinhao/Work/LiteOS_Lab/drivers/third_party/ST/STM32L4xx_HAL_Driver/Src/stm32l4xx_hal_flash.c ****   * @param  TypeProgram:  Indicate the way to program at a specified address.
 254:/home/fanxinhao/Work/LiteOS_Lab/drivers/third_party/ST/STM32L4xx_HAL_Driver/Src/stm32l4xx_hal_flash.c ****   *                           This parameter can be a value of @ref FLASH_Type_Program
 255:/home/fanxinhao/Work/LiteOS_Lab/drivers/third_party/ST/STM32L4xx_HAL_Driver/Src/stm32l4xx_hal_flash.c ****   * @param  Address:  specifies the address to be programmed.
 256:/home/fanxinhao/Work/LiteOS_Lab/drivers/third_party/ST/STM32L4xx_HAL_Driver/Src/stm32l4xx_hal_flash.c ****   * @param  Data: specifies the data to be programmed
 257:/home/fanxinhao/Work/LiteOS_Lab/drivers/third_party/ST/STM32L4xx_HAL_Driver/Src/stm32l4xx_hal_flash.c ****   *                This parameter is the data for the double word program and the address where 
 258:/home/fanxinhao/Work/LiteOS_Lab/drivers/third_party/ST/STM32L4xx_HAL_Driver/Src/stm32l4xx_hal_flash.c ****   *                are stored the data for the row fast program
 259:/home/fanxinhao/Work/LiteOS_Lab/drivers/third_party/ST/STM32L4xx_HAL_Driver/Src/stm32l4xx_hal_flash.c ****   * 
 260:/home/fanxinhao/Work/LiteOS_Lab/drivers/third_party/ST/STM32L4xx_HAL_Driver/Src/stm32l4xx_hal_flash.c ****   * @retval HAL Status
 261:/home/fanxinhao/Work/LiteOS_Lab/drivers/third_party/ST/STM32L4xx_HAL_Driver/Src/stm32l4xx_hal_flash.c ****   */
 262:/home/fanxinhao/Work/LiteOS_Lab/drivers/third_party/ST/STM32L4xx_HAL_Driver/Src/stm32l4xx_hal_flash.c **** HAL_StatusTypeDef HAL_FLASH_Program_IT(uint32_t TypeProgram, uint32_t Address, uint64_t Data)
 263:/home/fanxinhao/Work/LiteOS_Lab/drivers/third_party/ST/STM32L4xx_HAL_Driver/Src/stm32l4xx_hal_flash.c **** {
 195              		.loc 1 263 1
 196              		.cfi_startproc
ARM GAS  /tmp/cco0QsaQ.s 			page 9


 197              		@ args = 0, pretend = 0, frame = 24
 198              		@ frame_needed = 1, uses_anonymous_args = 0
 199 0000 80B5     		push	{r7, lr}
 200              	.LCFI5:
 201              		.cfi_def_cfa_offset 8
 202              		.cfi_offset 7, -8
 203              		.cfi_offset 14, -4
 204 0002 86B0     		sub	sp, sp, #24
 205              	.LCFI6:
 206              		.cfi_def_cfa_offset 32
 207 0004 00AF     		add	r7, sp, #0
 208              	.LCFI7:
 209              		.cfi_def_cfa_register 7
 210 0006 F860     		str	r0, [r7, #12]
 211 0008 B960     		str	r1, [r7, #8]
 212 000a C7E90023 		strd	r2, [r7]
 264:/home/fanxinhao/Work/LiteOS_Lab/drivers/third_party/ST/STM32L4xx_HAL_Driver/Src/stm32l4xx_hal_flash.c ****   HAL_StatusTypeDef status = HAL_OK;
 213              		.loc 1 264 21
 214 000e 0023     		movs	r3, #0
 215 0010 FB75     		strb	r3, [r7, #23]
 265:/home/fanxinhao/Work/LiteOS_Lab/drivers/third_party/ST/STM32L4xx_HAL_Driver/Src/stm32l4xx_hal_flash.c **** 
 266:/home/fanxinhao/Work/LiteOS_Lab/drivers/third_party/ST/STM32L4xx_HAL_Driver/Src/stm32l4xx_hal_flash.c ****   /* Check the parameters */
 267:/home/fanxinhao/Work/LiteOS_Lab/drivers/third_party/ST/STM32L4xx_HAL_Driver/Src/stm32l4xx_hal_flash.c ****   assert_param(IS_FLASH_TYPEPROGRAM(TypeProgram));
 268:/home/fanxinhao/Work/LiteOS_Lab/drivers/third_party/ST/STM32L4xx_HAL_Driver/Src/stm32l4xx_hal_flash.c **** 
 269:/home/fanxinhao/Work/LiteOS_Lab/drivers/third_party/ST/STM32L4xx_HAL_Driver/Src/stm32l4xx_hal_flash.c ****   /* Process Locked */
 270:/home/fanxinhao/Work/LiteOS_Lab/drivers/third_party/ST/STM32L4xx_HAL_Driver/Src/stm32l4xx_hal_flash.c ****   __HAL_LOCK(&pFlash);
 216              		.loc 1 270 3
 217 0012 254B     		ldr	r3, .L23
 218 0014 1B78     		ldrb	r3, [r3]	@ zero_extendqisi2
 219 0016 012B     		cmp	r3, #1
 220 0018 01D1     		bne	.L14
 221              		.loc 1 270 3 is_stmt 0 discriminator 1
 222 001a 0223     		movs	r3, #2
 223 001c 40E0     		b	.L15
 224              	.L14:
 225              		.loc 1 270 3 discriminator 2
 226 001e 224B     		ldr	r3, .L23
 227 0020 0122     		movs	r2, #1
 228 0022 1A70     		strb	r2, [r3]
 271:/home/fanxinhao/Work/LiteOS_Lab/drivers/third_party/ST/STM32L4xx_HAL_Driver/Src/stm32l4xx_hal_flash.c **** 
 272:/home/fanxinhao/Work/LiteOS_Lab/drivers/third_party/ST/STM32L4xx_HAL_Driver/Src/stm32l4xx_hal_flash.c ****   pFlash.ErrorCode = HAL_FLASH_ERROR_NONE;
 229              		.loc 1 272 20 is_stmt 1 discriminator 2
 230 0024 204B     		ldr	r3, .L23
 231 0026 0022     		movs	r2, #0
 232 0028 5A60     		str	r2, [r3, #4]
 273:/home/fanxinhao/Work/LiteOS_Lab/drivers/third_party/ST/STM32L4xx_HAL_Driver/Src/stm32l4xx_hal_flash.c **** 
 274:/home/fanxinhao/Work/LiteOS_Lab/drivers/third_party/ST/STM32L4xx_HAL_Driver/Src/stm32l4xx_hal_flash.c ****   /* Deactivate the data cache if they are activated to avoid data misbehavior */
 275:/home/fanxinhao/Work/LiteOS_Lab/drivers/third_party/ST/STM32L4xx_HAL_Driver/Src/stm32l4xx_hal_flash.c ****   if(READ_BIT(FLASH->ACR, FLASH_ACR_DCEN) != RESET)
 233              		.loc 1 275 6 discriminator 2
 234 002a 204B     		ldr	r3, .L23+4
 235 002c 1B68     		ldr	r3, [r3]
 236 002e 03F48063 		and	r3, r3, #1024
 237              		.loc 1 275 5 discriminator 2
 238 0032 002B     		cmp	r3, #0
 239 0034 09D0     		beq	.L16
 276:/home/fanxinhao/Work/LiteOS_Lab/drivers/third_party/ST/STM32L4xx_HAL_Driver/Src/stm32l4xx_hal_flash.c ****   {
 277:/home/fanxinhao/Work/LiteOS_Lab/drivers/third_party/ST/STM32L4xx_HAL_Driver/Src/stm32l4xx_hal_flash.c ****     /* Disable data cache  */
ARM GAS  /tmp/cco0QsaQ.s 			page 10


 278:/home/fanxinhao/Work/LiteOS_Lab/drivers/third_party/ST/STM32L4xx_HAL_Driver/Src/stm32l4xx_hal_flash.c ****     __HAL_FLASH_DATA_CACHE_DISABLE();
 240              		.loc 1 278 5
 241 0036 1D4B     		ldr	r3, .L23+4
 242 0038 1B68     		ldr	r3, [r3]
 243 003a 1C4A     		ldr	r2, .L23+4
 244 003c 23F48063 		bic	r3, r3, #1024
 245 0040 1360     		str	r3, [r2]
 279:/home/fanxinhao/Work/LiteOS_Lab/drivers/third_party/ST/STM32L4xx_HAL_Driver/Src/stm32l4xx_hal_flash.c ****     pFlash.CacheToReactivate = FLASH_CACHE_DCACHE_ENABLED;
 246              		.loc 1 279 30
 247 0042 194B     		ldr	r3, .L23
 248 0044 0222     		movs	r2, #2
 249 0046 1A77     		strb	r2, [r3, #28]
 250 0048 02E0     		b	.L17
 251              	.L16:
 280:/home/fanxinhao/Work/LiteOS_Lab/drivers/third_party/ST/STM32L4xx_HAL_Driver/Src/stm32l4xx_hal_flash.c ****   }
 281:/home/fanxinhao/Work/LiteOS_Lab/drivers/third_party/ST/STM32L4xx_HAL_Driver/Src/stm32l4xx_hal_flash.c ****   else
 282:/home/fanxinhao/Work/LiteOS_Lab/drivers/third_party/ST/STM32L4xx_HAL_Driver/Src/stm32l4xx_hal_flash.c ****   {
 283:/home/fanxinhao/Work/LiteOS_Lab/drivers/third_party/ST/STM32L4xx_HAL_Driver/Src/stm32l4xx_hal_flash.c ****     pFlash.CacheToReactivate = FLASH_CACHE_DISABLED;
 252              		.loc 1 283 30
 253 004a 174B     		ldr	r3, .L23
 254 004c 0022     		movs	r2, #0
 255 004e 1A77     		strb	r2, [r3, #28]
 256              	.L17:
 284:/home/fanxinhao/Work/LiteOS_Lab/drivers/third_party/ST/STM32L4xx_HAL_Driver/Src/stm32l4xx_hal_flash.c ****   }
 285:/home/fanxinhao/Work/LiteOS_Lab/drivers/third_party/ST/STM32L4xx_HAL_Driver/Src/stm32l4xx_hal_flash.c **** 
 286:/home/fanxinhao/Work/LiteOS_Lab/drivers/third_party/ST/STM32L4xx_HAL_Driver/Src/stm32l4xx_hal_flash.c ****   /* Set internal variables used by the IRQ handler */
 287:/home/fanxinhao/Work/LiteOS_Lab/drivers/third_party/ST/STM32L4xx_HAL_Driver/Src/stm32l4xx_hal_flash.c ****   if(TypeProgram == FLASH_TYPEPROGRAM_FAST_AND_LAST)
 257              		.loc 1 287 5
 258 0050 FB68     		ldr	r3, [r7, #12]
 259 0052 022B     		cmp	r3, #2
 260 0054 03D1     		bne	.L18
 288:/home/fanxinhao/Work/LiteOS_Lab/drivers/third_party/ST/STM32L4xx_HAL_Driver/Src/stm32l4xx_hal_flash.c ****   {
 289:/home/fanxinhao/Work/LiteOS_Lab/drivers/third_party/ST/STM32L4xx_HAL_Driver/Src/stm32l4xx_hal_flash.c ****     pFlash.ProcedureOnGoing = FLASH_PROC_PROGRAM_LAST;
 261              		.loc 1 289 29
 262 0056 144B     		ldr	r3, .L23
 263 0058 0422     		movs	r2, #4
 264 005a 1A72     		strb	r2, [r3, #8]
 265 005c 02E0     		b	.L19
 266              	.L18:
 290:/home/fanxinhao/Work/LiteOS_Lab/drivers/third_party/ST/STM32L4xx_HAL_Driver/Src/stm32l4xx_hal_flash.c ****   }
 291:/home/fanxinhao/Work/LiteOS_Lab/drivers/third_party/ST/STM32L4xx_HAL_Driver/Src/stm32l4xx_hal_flash.c ****   else
 292:/home/fanxinhao/Work/LiteOS_Lab/drivers/third_party/ST/STM32L4xx_HAL_Driver/Src/stm32l4xx_hal_flash.c ****   {
 293:/home/fanxinhao/Work/LiteOS_Lab/drivers/third_party/ST/STM32L4xx_HAL_Driver/Src/stm32l4xx_hal_flash.c ****     pFlash.ProcedureOnGoing = FLASH_PROC_PROGRAM;
 267              		.loc 1 293 29
 268 005e 124B     		ldr	r3, .L23
 269 0060 0322     		movs	r2, #3
 270 0062 1A72     		strb	r2, [r3, #8]
 271              	.L19:
 294:/home/fanxinhao/Work/LiteOS_Lab/drivers/third_party/ST/STM32L4xx_HAL_Driver/Src/stm32l4xx_hal_flash.c ****   }
 295:/home/fanxinhao/Work/LiteOS_Lab/drivers/third_party/ST/STM32L4xx_HAL_Driver/Src/stm32l4xx_hal_flash.c ****   pFlash.Address = Address;
 272              		.loc 1 295 18
 273 0064 104A     		ldr	r2, .L23
 274 0066 BB68     		ldr	r3, [r7, #8]
 275 0068 D360     		str	r3, [r2, #12]
 296:/home/fanxinhao/Work/LiteOS_Lab/drivers/third_party/ST/STM32L4xx_HAL_Driver/Src/stm32l4xx_hal_flash.c ****     
 297:/home/fanxinhao/Work/LiteOS_Lab/drivers/third_party/ST/STM32L4xx_HAL_Driver/Src/stm32l4xx_hal_flash.c ****   /* Enable End of Operation and Error interrupts */
 298:/home/fanxinhao/Work/LiteOS_Lab/drivers/third_party/ST/STM32L4xx_HAL_Driver/Src/stm32l4xx_hal_flash.c ****   __HAL_FLASH_ENABLE_IT(FLASH_IT_EOP | FLASH_IT_OPERR);
ARM GAS  /tmp/cco0QsaQ.s 			page 11


 276              		.loc 1 298 3
 277 006a 104B     		ldr	r3, .L23+4
 278 006c 5B69     		ldr	r3, [r3, #20]
 279 006e 0F4A     		ldr	r2, .L23+4
 280 0070 43F04073 		orr	r3, r3, #50331648
 281 0074 5361     		str	r3, [r2, #20]
 299:/home/fanxinhao/Work/LiteOS_Lab/drivers/third_party/ST/STM32L4xx_HAL_Driver/Src/stm32l4xx_hal_flash.c **** 
 300:/home/fanxinhao/Work/LiteOS_Lab/drivers/third_party/ST/STM32L4xx_HAL_Driver/Src/stm32l4xx_hal_flash.c ****   if(TypeProgram == FLASH_TYPEPROGRAM_DOUBLEWORD)
 282              		.loc 1 300 5
 283 0076 FB68     		ldr	r3, [r7, #12]
 284 0078 002B     		cmp	r3, #0
 285 007a 05D1     		bne	.L20
 301:/home/fanxinhao/Work/LiteOS_Lab/drivers/third_party/ST/STM32L4xx_HAL_Driver/Src/stm32l4xx_hal_flash.c ****   {
 302:/home/fanxinhao/Work/LiteOS_Lab/drivers/third_party/ST/STM32L4xx_HAL_Driver/Src/stm32l4xx_hal_flash.c ****     /* Program double-word (64-bit) at a specified address */
 303:/home/fanxinhao/Work/LiteOS_Lab/drivers/third_party/ST/STM32L4xx_HAL_Driver/Src/stm32l4xx_hal_flash.c ****     FLASH_Program_DoubleWord(Address, Data);
 286              		.loc 1 303 5
 287 007c D7E90023 		ldrd	r2, [r7]
 288 0080 B868     		ldr	r0, [r7, #8]
 289 0082 FFF7FEFF 		bl	FLASH_Program_DoubleWord
 290 0086 0AE0     		b	.L21
 291              	.L20:
 304:/home/fanxinhao/Work/LiteOS_Lab/drivers/third_party/ST/STM32L4xx_HAL_Driver/Src/stm32l4xx_hal_flash.c ****   }
 305:/home/fanxinhao/Work/LiteOS_Lab/drivers/third_party/ST/STM32L4xx_HAL_Driver/Src/stm32l4xx_hal_flash.c ****   else if((TypeProgram == FLASH_TYPEPROGRAM_FAST) || (TypeProgram == FLASH_TYPEPROGRAM_FAST_AND_LAS
 292              		.loc 1 305 10
 293 0088 FB68     		ldr	r3, [r7, #12]
 294 008a 012B     		cmp	r3, #1
 295 008c 02D0     		beq	.L22
 296              		.loc 1 305 51 discriminator 1
 297 008e FB68     		ldr	r3, [r7, #12]
 298 0090 022B     		cmp	r3, #2
 299 0092 04D1     		bne	.L21
 300              	.L22:
 306:/home/fanxinhao/Work/LiteOS_Lab/drivers/third_party/ST/STM32L4xx_HAL_Driver/Src/stm32l4xx_hal_flash.c ****   {
 307:/home/fanxinhao/Work/LiteOS_Lab/drivers/third_party/ST/STM32L4xx_HAL_Driver/Src/stm32l4xx_hal_flash.c ****     /* Fast program a 32 row double-word (64-bit) at a specified address */
 308:/home/fanxinhao/Work/LiteOS_Lab/drivers/third_party/ST/STM32L4xx_HAL_Driver/Src/stm32l4xx_hal_flash.c ****     FLASH_Program_Fast(Address, (uint32_t)Data);
 301              		.loc 1 308 5
 302 0094 3B68     		ldr	r3, [r7]
 303 0096 1946     		mov	r1, r3
 304 0098 B868     		ldr	r0, [r7, #8]
 305 009a FFF7FEFF 		bl	FLASH_Program_Fast
 306              	.L21:
 309:/home/fanxinhao/Work/LiteOS_Lab/drivers/third_party/ST/STM32L4xx_HAL_Driver/Src/stm32l4xx_hal_flash.c ****   }
 310:/home/fanxinhao/Work/LiteOS_Lab/drivers/third_party/ST/STM32L4xx_HAL_Driver/Src/stm32l4xx_hal_flash.c **** 
 311:/home/fanxinhao/Work/LiteOS_Lab/drivers/third_party/ST/STM32L4xx_HAL_Driver/Src/stm32l4xx_hal_flash.c ****   return status;  
 307              		.loc 1 311 10
 308 009e FB7D     		ldrb	r3, [r7, #23]	@ zero_extendqisi2
 309              	.L15:
 312:/home/fanxinhao/Work/LiteOS_Lab/drivers/third_party/ST/STM32L4xx_HAL_Driver/Src/stm32l4xx_hal_flash.c **** }
 310              		.loc 1 312 1
 311 00a0 1846     		mov	r0, r3
 312 00a2 1837     		adds	r7, r7, #24
 313              	.LCFI8:
 314              		.cfi_def_cfa_offset 8
 315 00a4 BD46     		mov	sp, r7
 316              	.LCFI9:
 317              		.cfi_def_cfa_register 13
 318              		@ sp needed
ARM GAS  /tmp/cco0QsaQ.s 			page 12


 319 00a6 80BD     		pop	{r7, pc}
 320              	.L24:
 321              		.align	2
 322              	.L23:
 323 00a8 00000000 		.word	pFlash
 324 00ac 00200240 		.word	1073881088
 325              		.cfi_endproc
 326              	.LFE127:
 328              		.section	.text.HAL_FLASH_IRQHandler,"ax",%progbits
 329              		.align	1
 330              		.global	HAL_FLASH_IRQHandler
 331              		.syntax unified
 332              		.thumb
 333              		.thumb_func
 334              		.fpu fpv4-sp-d16
 336              	HAL_FLASH_IRQHandler:
 337              	.LFB128:
 313:/home/fanxinhao/Work/LiteOS_Lab/drivers/third_party/ST/STM32L4xx_HAL_Driver/Src/stm32l4xx_hal_flash.c **** 
 314:/home/fanxinhao/Work/LiteOS_Lab/drivers/third_party/ST/STM32L4xx_HAL_Driver/Src/stm32l4xx_hal_flash.c **** /**
 315:/home/fanxinhao/Work/LiteOS_Lab/drivers/third_party/ST/STM32L4xx_HAL_Driver/Src/stm32l4xx_hal_flash.c ****   * @brief Handle FLASH interrupt request.
 316:/home/fanxinhao/Work/LiteOS_Lab/drivers/third_party/ST/STM32L4xx_HAL_Driver/Src/stm32l4xx_hal_flash.c ****   * @retval None
 317:/home/fanxinhao/Work/LiteOS_Lab/drivers/third_party/ST/STM32L4xx_HAL_Driver/Src/stm32l4xx_hal_flash.c ****   */
 318:/home/fanxinhao/Work/LiteOS_Lab/drivers/third_party/ST/STM32L4xx_HAL_Driver/Src/stm32l4xx_hal_flash.c **** void HAL_FLASH_IRQHandler(void)
 319:/home/fanxinhao/Work/LiteOS_Lab/drivers/third_party/ST/STM32L4xx_HAL_Driver/Src/stm32l4xx_hal_flash.c **** {
 338              		.loc 1 319 1
 339              		.cfi_startproc
 340              		@ args = 0, pretend = 0, frame = 8
 341              		@ frame_needed = 1, uses_anonymous_args = 0
 342 0000 80B5     		push	{r7, lr}
 343              	.LCFI10:
 344              		.cfi_def_cfa_offset 8
 345              		.cfi_offset 7, -8
 346              		.cfi_offset 14, -4
 347 0002 82B0     		sub	sp, sp, #8
 348              	.LCFI11:
 349              		.cfi_def_cfa_offset 16
 350 0004 00AF     		add	r7, sp, #0
 351              	.LCFI12:
 352              		.cfi_def_cfa_register 7
 320:/home/fanxinhao/Work/LiteOS_Lab/drivers/third_party/ST/STM32L4xx_HAL_Driver/Src/stm32l4xx_hal_flash.c ****   uint32_t tmp_page;
 321:/home/fanxinhao/Work/LiteOS_Lab/drivers/third_party/ST/STM32L4xx_HAL_Driver/Src/stm32l4xx_hal_flash.c **** 
 322:/home/fanxinhao/Work/LiteOS_Lab/drivers/third_party/ST/STM32L4xx_HAL_Driver/Src/stm32l4xx_hal_flash.c ****   /* If the operation is completed, disable the PG, PNB, MER1, MER2 and PER Bit */
 323:/home/fanxinhao/Work/LiteOS_Lab/drivers/third_party/ST/STM32L4xx_HAL_Driver/Src/stm32l4xx_hal_flash.c ****   CLEAR_BIT(FLASH->CR, (FLASH_CR_PG | FLASH_CR_MER1 | FLASH_CR_PER | FLASH_CR_PNB));
 353              		.loc 1 323 3
 354 0006 7B4B     		ldr	r3, .L41
 355 0008 5B69     		ldr	r3, [r3, #20]
 356 000a 7A4A     		ldr	r2, .L41
 357 000c 23F4FF63 		bic	r3, r3, #2040
 358 0010 23F00703 		bic	r3, r3, #7
 359 0014 5361     		str	r3, [r2, #20]
 324:/home/fanxinhao/Work/LiteOS_Lab/drivers/third_party/ST/STM32L4xx_HAL_Driver/Src/stm32l4xx_hal_flash.c **** #if defined (STM32L471xx) || defined (STM32L475xx) || defined (STM32L476xx) || defined (STM32L485xx
 325:/home/fanxinhao/Work/LiteOS_Lab/drivers/third_party/ST/STM32L4xx_HAL_Driver/Src/stm32l4xx_hal_flash.c ****     defined (STM32L496xx) || defined (STM32L4A6xx) || \
 326:/home/fanxinhao/Work/LiteOS_Lab/drivers/third_party/ST/STM32L4xx_HAL_Driver/Src/stm32l4xx_hal_flash.c ****     defined (STM32L4R5xx) || defined (STM32L4R7xx) || defined (STM32L4R9xx) || defined (STM32L4S5xx
 327:/home/fanxinhao/Work/LiteOS_Lab/drivers/third_party/ST/STM32L4xx_HAL_Driver/Src/stm32l4xx_hal_flash.c ****   CLEAR_BIT(FLASH->CR, FLASH_CR_MER2);
 360              		.loc 1 327 3
 361 0016 774B     		ldr	r3, .L41
 362 0018 5B69     		ldr	r3, [r3, #20]
ARM GAS  /tmp/cco0QsaQ.s 			page 13


 363 001a 764A     		ldr	r2, .L41
 364 001c 23F40043 		bic	r3, r3, #32768
 365 0020 5361     		str	r3, [r2, #20]
 328:/home/fanxinhao/Work/LiteOS_Lab/drivers/third_party/ST/STM32L4xx_HAL_Driver/Src/stm32l4xx_hal_flash.c **** #endif
 329:/home/fanxinhao/Work/LiteOS_Lab/drivers/third_party/ST/STM32L4xx_HAL_Driver/Src/stm32l4xx_hal_flash.c ****   
 330:/home/fanxinhao/Work/LiteOS_Lab/drivers/third_party/ST/STM32L4xx_HAL_Driver/Src/stm32l4xx_hal_flash.c ****   /* Disable the FSTPG Bit only if it is the last row programmed */
 331:/home/fanxinhao/Work/LiteOS_Lab/drivers/third_party/ST/STM32L4xx_HAL_Driver/Src/stm32l4xx_hal_flash.c ****   if(pFlash.ProcedureOnGoing == FLASH_PROC_PROGRAM_LAST)
 366              		.loc 1 331 12
 367 0022 754B     		ldr	r3, .L41+4
 368 0024 1B7A     		ldrb	r3, [r3, #8]
 369 0026 DBB2     		uxtb	r3, r3
 370              		.loc 1 331 5
 371 0028 042B     		cmp	r3, #4
 372 002a 05D1     		bne	.L26
 332:/home/fanxinhao/Work/LiteOS_Lab/drivers/third_party/ST/STM32L4xx_HAL_Driver/Src/stm32l4xx_hal_flash.c ****   {
 333:/home/fanxinhao/Work/LiteOS_Lab/drivers/third_party/ST/STM32L4xx_HAL_Driver/Src/stm32l4xx_hal_flash.c ****     CLEAR_BIT(FLASH->CR, FLASH_CR_FSTPG);
 373              		.loc 1 333 5
 374 002c 714B     		ldr	r3, .L41
 375 002e 5B69     		ldr	r3, [r3, #20]
 376 0030 704A     		ldr	r2, .L41
 377 0032 23F48023 		bic	r3, r3, #262144
 378 0036 5361     		str	r3, [r2, #20]
 379              	.L26:
 334:/home/fanxinhao/Work/LiteOS_Lab/drivers/third_party/ST/STM32L4xx_HAL_Driver/Src/stm32l4xx_hal_flash.c ****   }
 335:/home/fanxinhao/Work/LiteOS_Lab/drivers/third_party/ST/STM32L4xx_HAL_Driver/Src/stm32l4xx_hal_flash.c **** 
 336:/home/fanxinhao/Work/LiteOS_Lab/drivers/third_party/ST/STM32L4xx_HAL_Driver/Src/stm32l4xx_hal_flash.c ****   /* Check FLASH operation error flags */
 337:/home/fanxinhao/Work/LiteOS_Lab/drivers/third_party/ST/STM32L4xx_HAL_Driver/Src/stm32l4xx_hal_flash.c ****   if((__HAL_FLASH_GET_FLAG(FLASH_FLAG_OPERR))  || (__HAL_FLASH_GET_FLAG(FLASH_FLAG_PROGERR)) || 
 380              		.loc 1 337 7
 381 0038 6E4B     		ldr	r3, .L41
 382 003a 1B69     		ldr	r3, [r3, #16]
 383 003c 03F00203 		and	r3, r3, #2
 384              		.loc 1 337 5
 385 0040 022B     		cmp	r3, #2
 386 0042 40D0     		beq	.L27
 387              		.loc 1 337 52 discriminator 1
 388 0044 6B4B     		ldr	r3, .L41
 389 0046 1B69     		ldr	r3, [r3, #16]
 390 0048 03F00803 		and	r3, r3, #8
 391              		.loc 1 337 48 discriminator 1
 392 004c 082B     		cmp	r3, #8
 393 004e 3AD0     		beq	.L27
 338:/home/fanxinhao/Work/LiteOS_Lab/drivers/third_party/ST/STM32L4xx_HAL_Driver/Src/stm32l4xx_hal_flash.c ****      (__HAL_FLASH_GET_FLAG(FLASH_FLAG_WRPERR)) || (__HAL_FLASH_GET_FLAG(FLASH_FLAG_PGAERR))  || 
 394              		.loc 1 338 7 discriminator 2
 395 0050 684B     		ldr	r3, .L41
 396 0052 1B69     		ldr	r3, [r3, #16]
 397 0054 03F01003 		and	r3, r3, #16
 337:/home/fanxinhao/Work/LiteOS_Lab/drivers/third_party/ST/STM32L4xx_HAL_Driver/Src/stm32l4xx_hal_flash.c ****      (__HAL_FLASH_GET_FLAG(FLASH_FLAG_WRPERR)) || (__HAL_FLASH_GET_FLAG(FLASH_FLAG_PGAERR))  || 
 398              		.loc 1 337 94 discriminator 2
 399 0058 102B     		cmp	r3, #16
 400 005a 34D0     		beq	.L27
 401              		.loc 1 338 52
 402 005c 654B     		ldr	r3, .L41
 403 005e 1B69     		ldr	r3, [r3, #16]
 404 0060 03F02003 		and	r3, r3, #32
 405              		.loc 1 338 48
 406 0064 202B     		cmp	r3, #32
 407 0066 2ED0     		beq	.L27
ARM GAS  /tmp/cco0QsaQ.s 			page 14


 339:/home/fanxinhao/Work/LiteOS_Lab/drivers/third_party/ST/STM32L4xx_HAL_Driver/Src/stm32l4xx_hal_flash.c ****      (__HAL_FLASH_GET_FLAG(FLASH_FLAG_SIZERR)) || (__HAL_FLASH_GET_FLAG(FLASH_FLAG_PGSERR))  ||
 408              		.loc 1 339 7 discriminator 1
 409 0068 624B     		ldr	r3, .L41
 410 006a 1B69     		ldr	r3, [r3, #16]
 411 006c 03F04003 		and	r3, r3, #64
 338:/home/fanxinhao/Work/LiteOS_Lab/drivers/third_party/ST/STM32L4xx_HAL_Driver/Src/stm32l4xx_hal_flash.c ****      (__HAL_FLASH_GET_FLAG(FLASH_FLAG_WRPERR)) || (__HAL_FLASH_GET_FLAG(FLASH_FLAG_PGAERR))  || 
 412              		.loc 1 338 94 discriminator 1
 413 0070 402B     		cmp	r3, #64
 414 0072 28D0     		beq	.L27
 415              		.loc 1 339 52
 416 0074 5F4B     		ldr	r3, .L41
 417 0076 1B69     		ldr	r3, [r3, #16]
 418 0078 03F08003 		and	r3, r3, #128
 419              		.loc 1 339 48
 420 007c 802B     		cmp	r3, #128
 421 007e 22D0     		beq	.L27
 340:/home/fanxinhao/Work/LiteOS_Lab/drivers/third_party/ST/STM32L4xx_HAL_Driver/Src/stm32l4xx_hal_flash.c ****      (__HAL_FLASH_GET_FLAG(FLASH_FLAG_MISERR)) || (__HAL_FLASH_GET_FLAG(FLASH_FLAG_FASTERR)) || 
 422              		.loc 1 340 7 discriminator 1
 423 0080 5C4B     		ldr	r3, .L41
 424 0082 1B69     		ldr	r3, [r3, #16]
 425 0084 03F48073 		and	r3, r3, #256
 339:/home/fanxinhao/Work/LiteOS_Lab/drivers/third_party/ST/STM32L4xx_HAL_Driver/Src/stm32l4xx_hal_flash.c ****      (__HAL_FLASH_GET_FLAG(FLASH_FLAG_SIZERR)) || (__HAL_FLASH_GET_FLAG(FLASH_FLAG_PGSERR))  ||
 426              		.loc 1 339 94 discriminator 1
 427 0088 B3F5807F 		cmp	r3, #256
 428 008c 1BD0     		beq	.L27
 429              		.loc 1 340 52
 430 008e 594B     		ldr	r3, .L41
 431 0090 1B69     		ldr	r3, [r3, #16]
 432 0092 03F40073 		and	r3, r3, #512
 433              		.loc 1 340 48
 434 0096 B3F5007F 		cmp	r3, #512
 435 009a 14D0     		beq	.L27
 341:/home/fanxinhao/Work/LiteOS_Lab/drivers/third_party/ST/STM32L4xx_HAL_Driver/Src/stm32l4xx_hal_flash.c ****      (__HAL_FLASH_GET_FLAG(FLASH_FLAG_RDERR))  || (__HAL_FLASH_GET_FLAG(FLASH_FLAG_OPTVERR)) ||
 436              		.loc 1 341 7 discriminator 1
 437 009c 554B     		ldr	r3, .L41
 438 009e 1B69     		ldr	r3, [r3, #16]
 439 00a0 03F48043 		and	r3, r3, #16384
 340:/home/fanxinhao/Work/LiteOS_Lab/drivers/third_party/ST/STM32L4xx_HAL_Driver/Src/stm32l4xx_hal_flash.c ****      (__HAL_FLASH_GET_FLAG(FLASH_FLAG_MISERR)) || (__HAL_FLASH_GET_FLAG(FLASH_FLAG_FASTERR)) || 
 440              		.loc 1 340 94 discriminator 1
 441 00a4 B3F5804F 		cmp	r3, #16384
 442 00a8 0DD0     		beq	.L27
 443              		.loc 1 341 52
 444 00aa 524B     		ldr	r3, .L41
 445 00ac 1B69     		ldr	r3, [r3, #16]
 446 00ae 03F40043 		and	r3, r3, #32768
 447              		.loc 1 341 48
 448 00b2 B3F5004F 		cmp	r3, #32768
 449 00b6 06D0     		beq	.L27
 342:/home/fanxinhao/Work/LiteOS_Lab/drivers/third_party/ST/STM32L4xx_HAL_Driver/Src/stm32l4xx_hal_flash.c **** #if defined (STM32L431xx) || defined (STM32L432xx) || defined (STM32L433xx) || defined (STM32L442xx
 343:/home/fanxinhao/Work/LiteOS_Lab/drivers/third_party/ST/STM32L4xx_HAL_Driver/Src/stm32l4xx_hal_flash.c ****     defined (STM32L451xx) || defined (STM32L452xx) || defined (STM32L462xx) || defined (STM32L496xx
 344:/home/fanxinhao/Work/LiteOS_Lab/drivers/third_party/ST/STM32L4xx_HAL_Driver/Src/stm32l4xx_hal_flash.c ****     defined (STM32L4R5xx) || defined (STM32L4R7xx) || defined (STM32L4R9xx) || defined (STM32L4S5xx
 345:/home/fanxinhao/Work/LiteOS_Lab/drivers/third_party/ST/STM32L4xx_HAL_Driver/Src/stm32l4xx_hal_flash.c ****      (__HAL_FLASH_GET_FLAG(FLASH_FLAG_ECCD))   || (__HAL_FLASH_GET_FLAG(FLASH_FLAG_PEMPTY)))
 346:/home/fanxinhao/Work/LiteOS_Lab/drivers/third_party/ST/STM32L4xx_HAL_Driver/Src/stm32l4xx_hal_flash.c **** #else
 347:/home/fanxinhao/Work/LiteOS_Lab/drivers/third_party/ST/STM32L4xx_HAL_Driver/Src/stm32l4xx_hal_flash.c ****      (__HAL_FLASH_GET_FLAG(FLASH_FLAG_ECCD)))
 450              		.loc 1 347 7 discriminator 1
 451 00b8 4E4B     		ldr	r3, .L41
 452 00ba 9B69     		ldr	r3, [r3, #24]
ARM GAS  /tmp/cco0QsaQ.s 			page 15


 453 00bc 03F00043 		and	r3, r3, #-2147483648
 341:/home/fanxinhao/Work/LiteOS_Lab/drivers/third_party/ST/STM32L4xx_HAL_Driver/Src/stm32l4xx_hal_flash.c ****      (__HAL_FLASH_GET_FLAG(FLASH_FLAG_RDERR))  || (__HAL_FLASH_GET_FLAG(FLASH_FLAG_OPTVERR)) ||
 454              		.loc 1 341 94 discriminator 1
 455 00c0 B3F1004F 		cmp	r3, #-2147483648
 456 00c4 2BD1     		bne	.L28
 457              	.L27:
 348:/home/fanxinhao/Work/LiteOS_Lab/drivers/third_party/ST/STM32L4xx_HAL_Driver/Src/stm32l4xx_hal_flash.c **** #endif
 349:/home/fanxinhao/Work/LiteOS_Lab/drivers/third_party/ST/STM32L4xx_HAL_Driver/Src/stm32l4xx_hal_flash.c ****   {
 350:/home/fanxinhao/Work/LiteOS_Lab/drivers/third_party/ST/STM32L4xx_HAL_Driver/Src/stm32l4xx_hal_flash.c ****     /*Save the error code*/
 351:/home/fanxinhao/Work/LiteOS_Lab/drivers/third_party/ST/STM32L4xx_HAL_Driver/Src/stm32l4xx_hal_flash.c ****     FLASH_SetErrorCode();
 458              		.loc 1 351 5
 459 00c6 FFF7FEFF 		bl	FLASH_SetErrorCode
 352:/home/fanxinhao/Work/LiteOS_Lab/drivers/third_party/ST/STM32L4xx_HAL_Driver/Src/stm32l4xx_hal_flash.c ****     
 353:/home/fanxinhao/Work/LiteOS_Lab/drivers/third_party/ST/STM32L4xx_HAL_Driver/Src/stm32l4xx_hal_flash.c ****     /* Flush the caches to be sure of the data consistency */
 354:/home/fanxinhao/Work/LiteOS_Lab/drivers/third_party/ST/STM32L4xx_HAL_Driver/Src/stm32l4xx_hal_flash.c ****     FLASH_FlushCaches() ;
 460              		.loc 1 354 5
 461 00ca FFF7FEFF 		bl	FLASH_FlushCaches
 355:/home/fanxinhao/Work/LiteOS_Lab/drivers/third_party/ST/STM32L4xx_HAL_Driver/Src/stm32l4xx_hal_flash.c **** 
 356:/home/fanxinhao/Work/LiteOS_Lab/drivers/third_party/ST/STM32L4xx_HAL_Driver/Src/stm32l4xx_hal_flash.c ****     /* FLASH error interrupt user callback */
 357:/home/fanxinhao/Work/LiteOS_Lab/drivers/third_party/ST/STM32L4xx_HAL_Driver/Src/stm32l4xx_hal_flash.c ****     if(pFlash.ProcedureOnGoing == FLASH_PROC_PAGE_ERASE)
 462              		.loc 1 357 14
 463 00ce 4A4B     		ldr	r3, .L41+4
 464 00d0 1B7A     		ldrb	r3, [r3, #8]
 465 00d2 DBB2     		uxtb	r3, r3
 466              		.loc 1 357 7
 467 00d4 012B     		cmp	r3, #1
 468 00d6 05D1     		bne	.L29
 358:/home/fanxinhao/Work/LiteOS_Lab/drivers/third_party/ST/STM32L4xx_HAL_Driver/Src/stm32l4xx_hal_flash.c ****     {
 359:/home/fanxinhao/Work/LiteOS_Lab/drivers/third_party/ST/STM32L4xx_HAL_Driver/Src/stm32l4xx_hal_flash.c ****        HAL_FLASH_OperationErrorCallback(pFlash.Page);
 469              		.loc 1 359 8
 470 00d8 474B     		ldr	r3, .L41+4
 471 00da 5B69     		ldr	r3, [r3, #20]
 472 00dc 1846     		mov	r0, r3
 473 00de FFF7FEFF 		bl	HAL_FLASH_OperationErrorCallback
 474 00e2 19E0     		b	.L30
 475              	.L29:
 360:/home/fanxinhao/Work/LiteOS_Lab/drivers/third_party/ST/STM32L4xx_HAL_Driver/Src/stm32l4xx_hal_flash.c ****     }
 361:/home/fanxinhao/Work/LiteOS_Lab/drivers/third_party/ST/STM32L4xx_HAL_Driver/Src/stm32l4xx_hal_flash.c ****     else if(pFlash.ProcedureOnGoing == FLASH_PROC_MASS_ERASE)
 476              		.loc 1 361 19
 477 00e4 444B     		ldr	r3, .L41+4
 478 00e6 1B7A     		ldrb	r3, [r3, #8]
 479 00e8 DBB2     		uxtb	r3, r3
 480              		.loc 1 361 12
 481 00ea 022B     		cmp	r3, #2
 482 00ec 05D1     		bne	.L31
 362:/home/fanxinhao/Work/LiteOS_Lab/drivers/third_party/ST/STM32L4xx_HAL_Driver/Src/stm32l4xx_hal_flash.c ****     {
 363:/home/fanxinhao/Work/LiteOS_Lab/drivers/third_party/ST/STM32L4xx_HAL_Driver/Src/stm32l4xx_hal_flash.c ****         HAL_FLASH_OperationErrorCallback(pFlash.Bank);
 483              		.loc 1 363 9
 484 00ee 424B     		ldr	r3, .L41+4
 485 00f0 1B69     		ldr	r3, [r3, #16]
 486 00f2 1846     		mov	r0, r3
 487 00f4 FFF7FEFF 		bl	HAL_FLASH_OperationErrorCallback
 488 00f8 0EE0     		b	.L30
 489              	.L31:
 364:/home/fanxinhao/Work/LiteOS_Lab/drivers/third_party/ST/STM32L4xx_HAL_Driver/Src/stm32l4xx_hal_flash.c ****     }
 365:/home/fanxinhao/Work/LiteOS_Lab/drivers/third_party/ST/STM32L4xx_HAL_Driver/Src/stm32l4xx_hal_flash.c ****     else if((pFlash.ProcedureOnGoing == FLASH_PROC_PROGRAM) || 
 490              		.loc 1 365 20
ARM GAS  /tmp/cco0QsaQ.s 			page 16


 491 00fa 3F4B     		ldr	r3, .L41+4
 492 00fc 1B7A     		ldrb	r3, [r3, #8]
 493 00fe DBB2     		uxtb	r3, r3
 494              		.loc 1 365 12
 495 0100 032B     		cmp	r3, #3
 496 0102 04D0     		beq	.L32
 366:/home/fanxinhao/Work/LiteOS_Lab/drivers/third_party/ST/STM32L4xx_HAL_Driver/Src/stm32l4xx_hal_flash.c ****             (pFlash.ProcedureOnGoing == FLASH_PROC_PROGRAM_LAST))
 497              		.loc 1 366 20 discriminator 1
 498 0104 3C4B     		ldr	r3, .L41+4
 499 0106 1B7A     		ldrb	r3, [r3, #8]
 500 0108 DBB2     		uxtb	r3, r3
 365:/home/fanxinhao/Work/LiteOS_Lab/drivers/third_party/ST/STM32L4xx_HAL_Driver/Src/stm32l4xx_hal_flash.c ****             (pFlash.ProcedureOnGoing == FLASH_PROC_PROGRAM_LAST))
 501              		.loc 1 365 61 discriminator 1
 502 010a 042B     		cmp	r3, #4
 503 010c 04D1     		bne	.L30
 504              	.L32:
 367:/home/fanxinhao/Work/LiteOS_Lab/drivers/third_party/ST/STM32L4xx_HAL_Driver/Src/stm32l4xx_hal_flash.c ****     {
 368:/home/fanxinhao/Work/LiteOS_Lab/drivers/third_party/ST/STM32L4xx_HAL_Driver/Src/stm32l4xx_hal_flash.c ****        HAL_FLASH_OperationErrorCallback(pFlash.Address);
 505              		.loc 1 368 8
 506 010e 3A4B     		ldr	r3, .L41+4
 507 0110 DB68     		ldr	r3, [r3, #12]
 508 0112 1846     		mov	r0, r3
 509 0114 FFF7FEFF 		bl	HAL_FLASH_OperationErrorCallback
 510              	.L30:
 369:/home/fanxinhao/Work/LiteOS_Lab/drivers/third_party/ST/STM32L4xx_HAL_Driver/Src/stm32l4xx_hal_flash.c ****     }
 370:/home/fanxinhao/Work/LiteOS_Lab/drivers/third_party/ST/STM32L4xx_HAL_Driver/Src/stm32l4xx_hal_flash.c **** 
 371:/home/fanxinhao/Work/LiteOS_Lab/drivers/third_party/ST/STM32L4xx_HAL_Driver/Src/stm32l4xx_hal_flash.c ****     /*Stop the procedure ongoing*/
 372:/home/fanxinhao/Work/LiteOS_Lab/drivers/third_party/ST/STM32L4xx_HAL_Driver/Src/stm32l4xx_hal_flash.c ****     pFlash.ProcedureOnGoing = FLASH_PROC_NONE;
 511              		.loc 1 372 29
 512 0118 374B     		ldr	r3, .L41+4
 513 011a 0022     		movs	r2, #0
 514 011c 1A72     		strb	r2, [r3, #8]
 515              	.L28:
 373:/home/fanxinhao/Work/LiteOS_Lab/drivers/third_party/ST/STM32L4xx_HAL_Driver/Src/stm32l4xx_hal_flash.c ****   }
 374:/home/fanxinhao/Work/LiteOS_Lab/drivers/third_party/ST/STM32L4xx_HAL_Driver/Src/stm32l4xx_hal_flash.c **** 
 375:/home/fanxinhao/Work/LiteOS_Lab/drivers/third_party/ST/STM32L4xx_HAL_Driver/Src/stm32l4xx_hal_flash.c ****   /* Check FLASH End of Operation flag  */
 376:/home/fanxinhao/Work/LiteOS_Lab/drivers/third_party/ST/STM32L4xx_HAL_Driver/Src/stm32l4xx_hal_flash.c ****   if(__HAL_FLASH_GET_FLAG(FLASH_FLAG_EOP))
 516              		.loc 1 376 6
 517 011e 354B     		ldr	r3, .L41
 518 0120 1B69     		ldr	r3, [r3, #16]
 519 0122 03F00103 		and	r3, r3, #1
 520              		.loc 1 376 5
 521 0126 012B     		cmp	r3, #1
 522 0128 52D1     		bne	.L33
 377:/home/fanxinhao/Work/LiteOS_Lab/drivers/third_party/ST/STM32L4xx_HAL_Driver/Src/stm32l4xx_hal_flash.c ****   {
 378:/home/fanxinhao/Work/LiteOS_Lab/drivers/third_party/ST/STM32L4xx_HAL_Driver/Src/stm32l4xx_hal_flash.c ****     /* Clear FLASH End of Operation pending bit */
 379:/home/fanxinhao/Work/LiteOS_Lab/drivers/third_party/ST/STM32L4xx_HAL_Driver/Src/stm32l4xx_hal_flash.c ****     __HAL_FLASH_CLEAR_FLAG(FLASH_FLAG_EOP);
 523              		.loc 1 379 5 discriminator 4
 524 012a 324B     		ldr	r3, .L41
 525 012c 0122     		movs	r2, #1
 526 012e 1A61     		str	r2, [r3, #16]
 380:/home/fanxinhao/Work/LiteOS_Lab/drivers/third_party/ST/STM32L4xx_HAL_Driver/Src/stm32l4xx_hal_flash.c **** 
 381:/home/fanxinhao/Work/LiteOS_Lab/drivers/third_party/ST/STM32L4xx_HAL_Driver/Src/stm32l4xx_hal_flash.c ****     if(pFlash.ProcedureOnGoing == FLASH_PROC_PAGE_ERASE)
 527              		.loc 1 381 14 discriminator 4
 528 0130 314B     		ldr	r3, .L41+4
 529 0132 1B7A     		ldrb	r3, [r3, #8]
 530 0134 DBB2     		uxtb	r3, r3
ARM GAS  /tmp/cco0QsaQ.s 			page 17


 531              		.loc 1 381 7 discriminator 4
 532 0136 012B     		cmp	r3, #1
 533 0138 2BD1     		bne	.L34
 382:/home/fanxinhao/Work/LiteOS_Lab/drivers/third_party/ST/STM32L4xx_HAL_Driver/Src/stm32l4xx_hal_flash.c ****     {
 383:/home/fanxinhao/Work/LiteOS_Lab/drivers/third_party/ST/STM32L4xx_HAL_Driver/Src/stm32l4xx_hal_flash.c ****       /* Nb of pages to erased can be decreased */
 384:/home/fanxinhao/Work/LiteOS_Lab/drivers/third_party/ST/STM32L4xx_HAL_Driver/Src/stm32l4xx_hal_flash.c ****       pFlash.NbPagesToErase--;
 534              		.loc 1 384 13
 535 013a 2F4B     		ldr	r3, .L41+4
 536 013c 9B69     		ldr	r3, [r3, #24]
 537              		.loc 1 384 28
 538 013e 013B     		subs	r3, r3, #1
 539 0140 2D4A     		ldr	r2, .L41+4
 540 0142 9361     		str	r3, [r2, #24]
 385:/home/fanxinhao/Work/LiteOS_Lab/drivers/third_party/ST/STM32L4xx_HAL_Driver/Src/stm32l4xx_hal_flash.c **** 
 386:/home/fanxinhao/Work/LiteOS_Lab/drivers/third_party/ST/STM32L4xx_HAL_Driver/Src/stm32l4xx_hal_flash.c ****       /* Check if there are still pages to erase*/
 387:/home/fanxinhao/Work/LiteOS_Lab/drivers/third_party/ST/STM32L4xx_HAL_Driver/Src/stm32l4xx_hal_flash.c ****       if(pFlash.NbPagesToErase != 0)
 541              		.loc 1 387 16
 542 0144 2C4B     		ldr	r3, .L41+4
 543 0146 9B69     		ldr	r3, [r3, #24]
 544              		.loc 1 387 9
 545 0148 002B     		cmp	r3, #0
 546 014a 13D0     		beq	.L35
 388:/home/fanxinhao/Work/LiteOS_Lab/drivers/third_party/ST/STM32L4xx_HAL_Driver/Src/stm32l4xx_hal_flash.c ****       {
 389:/home/fanxinhao/Work/LiteOS_Lab/drivers/third_party/ST/STM32L4xx_HAL_Driver/Src/stm32l4xx_hal_flash.c ****         /* Indicate user which page has been erased*/
 390:/home/fanxinhao/Work/LiteOS_Lab/drivers/third_party/ST/STM32L4xx_HAL_Driver/Src/stm32l4xx_hal_flash.c ****         HAL_FLASH_EndOfOperationCallback(pFlash.Page);
 547              		.loc 1 390 9
 548 014c 2A4B     		ldr	r3, .L41+4
 549 014e 5B69     		ldr	r3, [r3, #20]
 550 0150 1846     		mov	r0, r3
 551 0152 FFF7FEFF 		bl	HAL_FLASH_EndOfOperationCallback
 391:/home/fanxinhao/Work/LiteOS_Lab/drivers/third_party/ST/STM32L4xx_HAL_Driver/Src/stm32l4xx_hal_flash.c **** 
 392:/home/fanxinhao/Work/LiteOS_Lab/drivers/third_party/ST/STM32L4xx_HAL_Driver/Src/stm32l4xx_hal_flash.c ****         /* Increment page number */
 393:/home/fanxinhao/Work/LiteOS_Lab/drivers/third_party/ST/STM32L4xx_HAL_Driver/Src/stm32l4xx_hal_flash.c ****         pFlash.Page++;
 552              		.loc 1 393 15
 553 0156 284B     		ldr	r3, .L41+4
 554 0158 5B69     		ldr	r3, [r3, #20]
 555              		.loc 1 393 20
 556 015a 0133     		adds	r3, r3, #1
 557 015c 264A     		ldr	r2, .L41+4
 558 015e 5361     		str	r3, [r2, #20]
 394:/home/fanxinhao/Work/LiteOS_Lab/drivers/third_party/ST/STM32L4xx_HAL_Driver/Src/stm32l4xx_hal_flash.c ****         tmp_page = pFlash.Page;
 559              		.loc 1 394 18
 560 0160 254B     		ldr	r3, .L41+4
 561 0162 5B69     		ldr	r3, [r3, #20]
 562 0164 7B60     		str	r3, [r7, #4]
 395:/home/fanxinhao/Work/LiteOS_Lab/drivers/third_party/ST/STM32L4xx_HAL_Driver/Src/stm32l4xx_hal_flash.c ****         FLASH_PageErase(tmp_page, pFlash.Bank);
 563              		.loc 1 395 9
 564 0166 244B     		ldr	r3, .L41+4
 565 0168 1B69     		ldr	r3, [r3, #16]
 566 016a 1946     		mov	r1, r3
 567 016c 7868     		ldr	r0, [r7, #4]
 568 016e FFF7FEFF 		bl	FLASH_PageErase
 569 0172 2DE0     		b	.L33
 570              	.L35:
 396:/home/fanxinhao/Work/LiteOS_Lab/drivers/third_party/ST/STM32L4xx_HAL_Driver/Src/stm32l4xx_hal_flash.c ****       }
 397:/home/fanxinhao/Work/LiteOS_Lab/drivers/third_party/ST/STM32L4xx_HAL_Driver/Src/stm32l4xx_hal_flash.c ****       else
 398:/home/fanxinhao/Work/LiteOS_Lab/drivers/third_party/ST/STM32L4xx_HAL_Driver/Src/stm32l4xx_hal_flash.c ****       {
ARM GAS  /tmp/cco0QsaQ.s 			page 18


 399:/home/fanxinhao/Work/LiteOS_Lab/drivers/third_party/ST/STM32L4xx_HAL_Driver/Src/stm32l4xx_hal_flash.c ****         /* No more pages to Erase */
 400:/home/fanxinhao/Work/LiteOS_Lab/drivers/third_party/ST/STM32L4xx_HAL_Driver/Src/stm32l4xx_hal_flash.c ****         /* Reset Address and stop Erase pages procedure */
 401:/home/fanxinhao/Work/LiteOS_Lab/drivers/third_party/ST/STM32L4xx_HAL_Driver/Src/stm32l4xx_hal_flash.c ****         pFlash.Page = 0xFFFFFFFF;
 571              		.loc 1 401 21
 572 0174 204B     		ldr	r3, .L41+4
 573 0176 4FF0FF32 		mov	r2, #-1
 574 017a 5A61     		str	r2, [r3, #20]
 402:/home/fanxinhao/Work/LiteOS_Lab/drivers/third_party/ST/STM32L4xx_HAL_Driver/Src/stm32l4xx_hal_flash.c ****         pFlash.ProcedureOnGoing = FLASH_PROC_NONE;
 575              		.loc 1 402 33
 576 017c 1E4B     		ldr	r3, .L41+4
 577 017e 0022     		movs	r2, #0
 578 0180 1A72     		strb	r2, [r3, #8]
 403:/home/fanxinhao/Work/LiteOS_Lab/drivers/third_party/ST/STM32L4xx_HAL_Driver/Src/stm32l4xx_hal_flash.c **** 
 404:/home/fanxinhao/Work/LiteOS_Lab/drivers/third_party/ST/STM32L4xx_HAL_Driver/Src/stm32l4xx_hal_flash.c ****         /* Flush the caches to be sure of the data consistency */
 405:/home/fanxinhao/Work/LiteOS_Lab/drivers/third_party/ST/STM32L4xx_HAL_Driver/Src/stm32l4xx_hal_flash.c ****         FLASH_FlushCaches() ;
 579              		.loc 1 405 9
 580 0182 FFF7FEFF 		bl	FLASH_FlushCaches
 406:/home/fanxinhao/Work/LiteOS_Lab/drivers/third_party/ST/STM32L4xx_HAL_Driver/Src/stm32l4xx_hal_flash.c ****         
 407:/home/fanxinhao/Work/LiteOS_Lab/drivers/third_party/ST/STM32L4xx_HAL_Driver/Src/stm32l4xx_hal_flash.c ****         /* FLASH EOP interrupt user callback */
 408:/home/fanxinhao/Work/LiteOS_Lab/drivers/third_party/ST/STM32L4xx_HAL_Driver/Src/stm32l4xx_hal_flash.c ****         HAL_FLASH_EndOfOperationCallback(pFlash.Page);
 581              		.loc 1 408 9
 582 0186 1C4B     		ldr	r3, .L41+4
 583 0188 5B69     		ldr	r3, [r3, #20]
 584 018a 1846     		mov	r0, r3
 585 018c FFF7FEFF 		bl	HAL_FLASH_EndOfOperationCallback
 586 0190 1EE0     		b	.L33
 587              	.L34:
 409:/home/fanxinhao/Work/LiteOS_Lab/drivers/third_party/ST/STM32L4xx_HAL_Driver/Src/stm32l4xx_hal_flash.c ****       }
 410:/home/fanxinhao/Work/LiteOS_Lab/drivers/third_party/ST/STM32L4xx_HAL_Driver/Src/stm32l4xx_hal_flash.c ****     }
 411:/home/fanxinhao/Work/LiteOS_Lab/drivers/third_party/ST/STM32L4xx_HAL_Driver/Src/stm32l4xx_hal_flash.c ****     else
 412:/home/fanxinhao/Work/LiteOS_Lab/drivers/third_party/ST/STM32L4xx_HAL_Driver/Src/stm32l4xx_hal_flash.c ****     {
 413:/home/fanxinhao/Work/LiteOS_Lab/drivers/third_party/ST/STM32L4xx_HAL_Driver/Src/stm32l4xx_hal_flash.c ****       /* Flush the caches to be sure of the data consistency */
 414:/home/fanxinhao/Work/LiteOS_Lab/drivers/third_party/ST/STM32L4xx_HAL_Driver/Src/stm32l4xx_hal_flash.c ****       FLASH_FlushCaches() ;
 588              		.loc 1 414 7
 589 0192 FFF7FEFF 		bl	FLASH_FlushCaches
 415:/home/fanxinhao/Work/LiteOS_Lab/drivers/third_party/ST/STM32L4xx_HAL_Driver/Src/stm32l4xx_hal_flash.c **** 
 416:/home/fanxinhao/Work/LiteOS_Lab/drivers/third_party/ST/STM32L4xx_HAL_Driver/Src/stm32l4xx_hal_flash.c ****       if(pFlash.ProcedureOnGoing == FLASH_PROC_MASS_ERASE)
 590              		.loc 1 416 16
 591 0196 184B     		ldr	r3, .L41+4
 592 0198 1B7A     		ldrb	r3, [r3, #8]
 593 019a DBB2     		uxtb	r3, r3
 594              		.loc 1 416 9
 595 019c 022B     		cmp	r3, #2
 596 019e 05D1     		bne	.L36
 417:/home/fanxinhao/Work/LiteOS_Lab/drivers/third_party/ST/STM32L4xx_HAL_Driver/Src/stm32l4xx_hal_flash.c ****       {
 418:/home/fanxinhao/Work/LiteOS_Lab/drivers/third_party/ST/STM32L4xx_HAL_Driver/Src/stm32l4xx_hal_flash.c ****         /* MassErase ended. Return the selected bank */
 419:/home/fanxinhao/Work/LiteOS_Lab/drivers/third_party/ST/STM32L4xx_HAL_Driver/Src/stm32l4xx_hal_flash.c ****         /* FLASH EOP interrupt user callback */
 420:/home/fanxinhao/Work/LiteOS_Lab/drivers/third_party/ST/STM32L4xx_HAL_Driver/Src/stm32l4xx_hal_flash.c ****         HAL_FLASH_EndOfOperationCallback(pFlash.Bank);
 597              		.loc 1 420 9
 598 01a0 154B     		ldr	r3, .L41+4
 599 01a2 1B69     		ldr	r3, [r3, #16]
 600 01a4 1846     		mov	r0, r3
 601 01a6 FFF7FEFF 		bl	HAL_FLASH_EndOfOperationCallback
 602 01aa 0EE0     		b	.L37
 603              	.L36:
 421:/home/fanxinhao/Work/LiteOS_Lab/drivers/third_party/ST/STM32L4xx_HAL_Driver/Src/stm32l4xx_hal_flash.c ****       }
 422:/home/fanxinhao/Work/LiteOS_Lab/drivers/third_party/ST/STM32L4xx_HAL_Driver/Src/stm32l4xx_hal_flash.c ****       else if((pFlash.ProcedureOnGoing == FLASH_PROC_PROGRAM) || 
ARM GAS  /tmp/cco0QsaQ.s 			page 19


 604              		.loc 1 422 22
 605 01ac 124B     		ldr	r3, .L41+4
 606 01ae 1B7A     		ldrb	r3, [r3, #8]
 607 01b0 DBB2     		uxtb	r3, r3
 608              		.loc 1 422 14
 609 01b2 032B     		cmp	r3, #3
 610 01b4 04D0     		beq	.L38
 423:/home/fanxinhao/Work/LiteOS_Lab/drivers/third_party/ST/STM32L4xx_HAL_Driver/Src/stm32l4xx_hal_flash.c ****               (pFlash.ProcedureOnGoing == FLASH_PROC_PROGRAM_LAST))
 611              		.loc 1 423 22 discriminator 1
 612 01b6 104B     		ldr	r3, .L41+4
 613 01b8 1B7A     		ldrb	r3, [r3, #8]
 614 01ba DBB2     		uxtb	r3, r3
 422:/home/fanxinhao/Work/LiteOS_Lab/drivers/third_party/ST/STM32L4xx_HAL_Driver/Src/stm32l4xx_hal_flash.c ****               (pFlash.ProcedureOnGoing == FLASH_PROC_PROGRAM_LAST))
 615              		.loc 1 422 63 discriminator 1
 616 01bc 042B     		cmp	r3, #4
 617 01be 04D1     		bne	.L37
 618              	.L38:
 424:/home/fanxinhao/Work/LiteOS_Lab/drivers/third_party/ST/STM32L4xx_HAL_Driver/Src/stm32l4xx_hal_flash.c ****       {
 425:/home/fanxinhao/Work/LiteOS_Lab/drivers/third_party/ST/STM32L4xx_HAL_Driver/Src/stm32l4xx_hal_flash.c ****         /* Program ended. Return the selected address */
 426:/home/fanxinhao/Work/LiteOS_Lab/drivers/third_party/ST/STM32L4xx_HAL_Driver/Src/stm32l4xx_hal_flash.c ****         /* FLASH EOP interrupt user callback */
 427:/home/fanxinhao/Work/LiteOS_Lab/drivers/third_party/ST/STM32L4xx_HAL_Driver/Src/stm32l4xx_hal_flash.c ****         HAL_FLASH_EndOfOperationCallback(pFlash.Address);
 619              		.loc 1 427 9
 620 01c0 0D4B     		ldr	r3, .L41+4
 621 01c2 DB68     		ldr	r3, [r3, #12]
 622 01c4 1846     		mov	r0, r3
 623 01c6 FFF7FEFF 		bl	HAL_FLASH_EndOfOperationCallback
 624              	.L37:
 428:/home/fanxinhao/Work/LiteOS_Lab/drivers/third_party/ST/STM32L4xx_HAL_Driver/Src/stm32l4xx_hal_flash.c ****       }
 429:/home/fanxinhao/Work/LiteOS_Lab/drivers/third_party/ST/STM32L4xx_HAL_Driver/Src/stm32l4xx_hal_flash.c **** 
 430:/home/fanxinhao/Work/LiteOS_Lab/drivers/third_party/ST/STM32L4xx_HAL_Driver/Src/stm32l4xx_hal_flash.c ****       /*Clear the procedure ongoing*/
 431:/home/fanxinhao/Work/LiteOS_Lab/drivers/third_party/ST/STM32L4xx_HAL_Driver/Src/stm32l4xx_hal_flash.c ****       pFlash.ProcedureOnGoing = FLASH_PROC_NONE;
 625              		.loc 1 431 31
 626 01ca 0B4B     		ldr	r3, .L41+4
 627 01cc 0022     		movs	r2, #0
 628 01ce 1A72     		strb	r2, [r3, #8]
 629              	.L33:
 432:/home/fanxinhao/Work/LiteOS_Lab/drivers/third_party/ST/STM32L4xx_HAL_Driver/Src/stm32l4xx_hal_flash.c ****     }
 433:/home/fanxinhao/Work/LiteOS_Lab/drivers/third_party/ST/STM32L4xx_HAL_Driver/Src/stm32l4xx_hal_flash.c ****   }
 434:/home/fanxinhao/Work/LiteOS_Lab/drivers/third_party/ST/STM32L4xx_HAL_Driver/Src/stm32l4xx_hal_flash.c **** 
 435:/home/fanxinhao/Work/LiteOS_Lab/drivers/third_party/ST/STM32L4xx_HAL_Driver/Src/stm32l4xx_hal_flash.c ****   if(pFlash.ProcedureOnGoing == FLASH_PROC_NONE)
 630              		.loc 1 435 12
 631 01d0 094B     		ldr	r3, .L41+4
 632 01d2 1B7A     		ldrb	r3, [r3, #8]
 633 01d4 DBB2     		uxtb	r3, r3
 634              		.loc 1 435 5
 635 01d6 002B     		cmp	r3, #0
 636 01d8 08D1     		bne	.L40
 436:/home/fanxinhao/Work/LiteOS_Lab/drivers/third_party/ST/STM32L4xx_HAL_Driver/Src/stm32l4xx_hal_flash.c ****   {
 437:/home/fanxinhao/Work/LiteOS_Lab/drivers/third_party/ST/STM32L4xx_HAL_Driver/Src/stm32l4xx_hal_flash.c ****     /* Disable End of Operation and Error interrupts */
 438:/home/fanxinhao/Work/LiteOS_Lab/drivers/third_party/ST/STM32L4xx_HAL_Driver/Src/stm32l4xx_hal_flash.c ****     __HAL_FLASH_DISABLE_IT(FLASH_IT_EOP | FLASH_IT_OPERR);
 637              		.loc 1 438 5 discriminator 4
 638 01da 064B     		ldr	r3, .L41
 639 01dc 5B69     		ldr	r3, [r3, #20]
 640 01de 054A     		ldr	r2, .L41
 641 01e0 23F04073 		bic	r3, r3, #50331648
 642 01e4 5361     		str	r3, [r2, #20]
 439:/home/fanxinhao/Work/LiteOS_Lab/drivers/third_party/ST/STM32L4xx_HAL_Driver/Src/stm32l4xx_hal_flash.c **** 
ARM GAS  /tmp/cco0QsaQ.s 			page 20


 440:/home/fanxinhao/Work/LiteOS_Lab/drivers/third_party/ST/STM32L4xx_HAL_Driver/Src/stm32l4xx_hal_flash.c ****     /* Process Unlocked */
 441:/home/fanxinhao/Work/LiteOS_Lab/drivers/third_party/ST/STM32L4xx_HAL_Driver/Src/stm32l4xx_hal_flash.c ****     __HAL_UNLOCK(&pFlash);
 643              		.loc 1 441 5 discriminator 4
 644 01e6 044B     		ldr	r3, .L41+4
 645 01e8 0022     		movs	r2, #0
 646 01ea 1A70     		strb	r2, [r3]
 647              	.L40:
 442:/home/fanxinhao/Work/LiteOS_Lab/drivers/third_party/ST/STM32L4xx_HAL_Driver/Src/stm32l4xx_hal_flash.c ****   }
 443:/home/fanxinhao/Work/LiteOS_Lab/drivers/third_party/ST/STM32L4xx_HAL_Driver/Src/stm32l4xx_hal_flash.c **** }
 648              		.loc 1 443 1
 649 01ec 00BF     		nop
 650 01ee 0837     		adds	r7, r7, #8
 651              	.LCFI13:
 652              		.cfi_def_cfa_offset 8
 653 01f0 BD46     		mov	sp, r7
 654              	.LCFI14:
 655              		.cfi_def_cfa_register 13
 656              		@ sp needed
 657 01f2 80BD     		pop	{r7, pc}
 658              	.L42:
 659              		.align	2
 660              	.L41:
 661 01f4 00200240 		.word	1073881088
 662 01f8 00000000 		.word	pFlash
 663              		.cfi_endproc
 664              	.LFE128:
 666              		.section	.text.HAL_FLASH_EndOfOperationCallback,"ax",%progbits
 667              		.align	1
 668              		.weak	HAL_FLASH_EndOfOperationCallback
 669              		.syntax unified
 670              		.thumb
 671              		.thumb_func
 672              		.fpu fpv4-sp-d16
 674              	HAL_FLASH_EndOfOperationCallback:
 675              	.LFB129:
 444:/home/fanxinhao/Work/LiteOS_Lab/drivers/third_party/ST/STM32L4xx_HAL_Driver/Src/stm32l4xx_hal_flash.c **** 
 445:/home/fanxinhao/Work/LiteOS_Lab/drivers/third_party/ST/STM32L4xx_HAL_Driver/Src/stm32l4xx_hal_flash.c **** /**
 446:/home/fanxinhao/Work/LiteOS_Lab/drivers/third_party/ST/STM32L4xx_HAL_Driver/Src/stm32l4xx_hal_flash.c ****   * @brief  FLASH end of operation interrupt callback.
 447:/home/fanxinhao/Work/LiteOS_Lab/drivers/third_party/ST/STM32L4xx_HAL_Driver/Src/stm32l4xx_hal_flash.c ****   * @param  ReturnValue: The value saved in this parameter depends on the ongoing procedure
 448:/home/fanxinhao/Work/LiteOS_Lab/drivers/third_party/ST/STM32L4xx_HAL_Driver/Src/stm32l4xx_hal_flash.c ****   *                  Mass Erase: Bank number which has been requested to erase
 449:/home/fanxinhao/Work/LiteOS_Lab/drivers/third_party/ST/STM32L4xx_HAL_Driver/Src/stm32l4xx_hal_flash.c ****   *                  Page Erase: Page which has been erased 
 450:/home/fanxinhao/Work/LiteOS_Lab/drivers/third_party/ST/STM32L4xx_HAL_Driver/Src/stm32l4xx_hal_flash.c ****   *                    (if 0xFFFFFFFF, it means that all the selected pages have been erased)
 451:/home/fanxinhao/Work/LiteOS_Lab/drivers/third_party/ST/STM32L4xx_HAL_Driver/Src/stm32l4xx_hal_flash.c ****   *                  Program: Address which was selected for data program
 452:/home/fanxinhao/Work/LiteOS_Lab/drivers/third_party/ST/STM32L4xx_HAL_Driver/Src/stm32l4xx_hal_flash.c ****   * @retval None
 453:/home/fanxinhao/Work/LiteOS_Lab/drivers/third_party/ST/STM32L4xx_HAL_Driver/Src/stm32l4xx_hal_flash.c ****   */
 454:/home/fanxinhao/Work/LiteOS_Lab/drivers/third_party/ST/STM32L4xx_HAL_Driver/Src/stm32l4xx_hal_flash.c **** __weak void HAL_FLASH_EndOfOperationCallback(uint32_t ReturnValue)
 455:/home/fanxinhao/Work/LiteOS_Lab/drivers/third_party/ST/STM32L4xx_HAL_Driver/Src/stm32l4xx_hal_flash.c **** {
 676              		.loc 1 455 1
 677              		.cfi_startproc
 678              		@ args = 0, pretend = 0, frame = 8
 679              		@ frame_needed = 1, uses_anonymous_args = 0
 680              		@ link register save eliminated.
 681 0000 80B4     		push	{r7}
 682              	.LCFI15:
 683              		.cfi_def_cfa_offset 4
 684              		.cfi_offset 7, -4
 685 0002 83B0     		sub	sp, sp, #12
ARM GAS  /tmp/cco0QsaQ.s 			page 21


 686              	.LCFI16:
 687              		.cfi_def_cfa_offset 16
 688 0004 00AF     		add	r7, sp, #0
 689              	.LCFI17:
 690              		.cfi_def_cfa_register 7
 691 0006 7860     		str	r0, [r7, #4]
 456:/home/fanxinhao/Work/LiteOS_Lab/drivers/third_party/ST/STM32L4xx_HAL_Driver/Src/stm32l4xx_hal_flash.c ****   /* Prevent unused argument(s) compilation warning */
 457:/home/fanxinhao/Work/LiteOS_Lab/drivers/third_party/ST/STM32L4xx_HAL_Driver/Src/stm32l4xx_hal_flash.c ****   UNUSED(ReturnValue);
 458:/home/fanxinhao/Work/LiteOS_Lab/drivers/third_party/ST/STM32L4xx_HAL_Driver/Src/stm32l4xx_hal_flash.c **** 
 459:/home/fanxinhao/Work/LiteOS_Lab/drivers/third_party/ST/STM32L4xx_HAL_Driver/Src/stm32l4xx_hal_flash.c ****   /* NOTE : This function should not be modified, when the callback is needed,
 460:/home/fanxinhao/Work/LiteOS_Lab/drivers/third_party/ST/STM32L4xx_HAL_Driver/Src/stm32l4xx_hal_flash.c ****             the HAL_FLASH_EndOfOperationCallback could be implemented in the user file
 461:/home/fanxinhao/Work/LiteOS_Lab/drivers/third_party/ST/STM32L4xx_HAL_Driver/Src/stm32l4xx_hal_flash.c ****    */ 
 462:/home/fanxinhao/Work/LiteOS_Lab/drivers/third_party/ST/STM32L4xx_HAL_Driver/Src/stm32l4xx_hal_flash.c **** }
 692              		.loc 1 462 1
 693 0008 00BF     		nop
 694 000a 0C37     		adds	r7, r7, #12
 695              	.LCFI18:
 696              		.cfi_def_cfa_offset 4
 697 000c BD46     		mov	sp, r7
 698              	.LCFI19:
 699              		.cfi_def_cfa_register 13
 700              		@ sp needed
 701 000e 5DF8047B 		ldr	r7, [sp], #4
 702              	.LCFI20:
 703              		.cfi_restore 7
 704              		.cfi_def_cfa_offset 0
 705 0012 7047     		bx	lr
 706              		.cfi_endproc
 707              	.LFE129:
 709              		.section	.text.HAL_FLASH_OperationErrorCallback,"ax",%progbits
 710              		.align	1
 711              		.weak	HAL_FLASH_OperationErrorCallback
 712              		.syntax unified
 713              		.thumb
 714              		.thumb_func
 715              		.fpu fpv4-sp-d16
 717              	HAL_FLASH_OperationErrorCallback:
 718              	.LFB130:
 463:/home/fanxinhao/Work/LiteOS_Lab/drivers/third_party/ST/STM32L4xx_HAL_Driver/Src/stm32l4xx_hal_flash.c **** 
 464:/home/fanxinhao/Work/LiteOS_Lab/drivers/third_party/ST/STM32L4xx_HAL_Driver/Src/stm32l4xx_hal_flash.c **** /**
 465:/home/fanxinhao/Work/LiteOS_Lab/drivers/third_party/ST/STM32L4xx_HAL_Driver/Src/stm32l4xx_hal_flash.c ****   * @brief  FLASH operation error interrupt callback.
 466:/home/fanxinhao/Work/LiteOS_Lab/drivers/third_party/ST/STM32L4xx_HAL_Driver/Src/stm32l4xx_hal_flash.c ****   * @param  ReturnValue: The value saved in this parameter depends on the ongoing procedure
 467:/home/fanxinhao/Work/LiteOS_Lab/drivers/third_party/ST/STM32L4xx_HAL_Driver/Src/stm32l4xx_hal_flash.c ****   *                 Mass Erase: Bank number which has been requested to erase
 468:/home/fanxinhao/Work/LiteOS_Lab/drivers/third_party/ST/STM32L4xx_HAL_Driver/Src/stm32l4xx_hal_flash.c ****   *                 Page Erase: Page number which returned an error
 469:/home/fanxinhao/Work/LiteOS_Lab/drivers/third_party/ST/STM32L4xx_HAL_Driver/Src/stm32l4xx_hal_flash.c ****   *                 Program: Address which was selected for data program
 470:/home/fanxinhao/Work/LiteOS_Lab/drivers/third_party/ST/STM32L4xx_HAL_Driver/Src/stm32l4xx_hal_flash.c ****   * @retval None
 471:/home/fanxinhao/Work/LiteOS_Lab/drivers/third_party/ST/STM32L4xx_HAL_Driver/Src/stm32l4xx_hal_flash.c ****   */
 472:/home/fanxinhao/Work/LiteOS_Lab/drivers/third_party/ST/STM32L4xx_HAL_Driver/Src/stm32l4xx_hal_flash.c **** __weak void HAL_FLASH_OperationErrorCallback(uint32_t ReturnValue)
 473:/home/fanxinhao/Work/LiteOS_Lab/drivers/third_party/ST/STM32L4xx_HAL_Driver/Src/stm32l4xx_hal_flash.c **** {
 719              		.loc 1 473 1
 720              		.cfi_startproc
 721              		@ args = 0, pretend = 0, frame = 8
 722              		@ frame_needed = 1, uses_anonymous_args = 0
 723              		@ link register save eliminated.
 724 0000 80B4     		push	{r7}
 725              	.LCFI21:
 726              		.cfi_def_cfa_offset 4
ARM GAS  /tmp/cco0QsaQ.s 			page 22


 727              		.cfi_offset 7, -4
 728 0002 83B0     		sub	sp, sp, #12
 729              	.LCFI22:
 730              		.cfi_def_cfa_offset 16
 731 0004 00AF     		add	r7, sp, #0
 732              	.LCFI23:
 733              		.cfi_def_cfa_register 7
 734 0006 7860     		str	r0, [r7, #4]
 474:/home/fanxinhao/Work/LiteOS_Lab/drivers/third_party/ST/STM32L4xx_HAL_Driver/Src/stm32l4xx_hal_flash.c ****   /* Prevent unused argument(s) compilation warning */
 475:/home/fanxinhao/Work/LiteOS_Lab/drivers/third_party/ST/STM32L4xx_HAL_Driver/Src/stm32l4xx_hal_flash.c ****   UNUSED(ReturnValue);
 476:/home/fanxinhao/Work/LiteOS_Lab/drivers/third_party/ST/STM32L4xx_HAL_Driver/Src/stm32l4xx_hal_flash.c **** 
 477:/home/fanxinhao/Work/LiteOS_Lab/drivers/third_party/ST/STM32L4xx_HAL_Driver/Src/stm32l4xx_hal_flash.c ****   /* NOTE : This function should not be modified, when the callback is needed,
 478:/home/fanxinhao/Work/LiteOS_Lab/drivers/third_party/ST/STM32L4xx_HAL_Driver/Src/stm32l4xx_hal_flash.c ****             the HAL_FLASH_OperationErrorCallback could be implemented in the user file
 479:/home/fanxinhao/Work/LiteOS_Lab/drivers/third_party/ST/STM32L4xx_HAL_Driver/Src/stm32l4xx_hal_flash.c ****    */ 
 480:/home/fanxinhao/Work/LiteOS_Lab/drivers/third_party/ST/STM32L4xx_HAL_Driver/Src/stm32l4xx_hal_flash.c **** }
 735              		.loc 1 480 1
 736 0008 00BF     		nop
 737 000a 0C37     		adds	r7, r7, #12
 738              	.LCFI24:
 739              		.cfi_def_cfa_offset 4
 740 000c BD46     		mov	sp, r7
 741              	.LCFI25:
 742              		.cfi_def_cfa_register 13
 743              		@ sp needed
 744 000e 5DF8047B 		ldr	r7, [sp], #4
 745              	.LCFI26:
 746              		.cfi_restore 7
 747              		.cfi_def_cfa_offset 0
 748 0012 7047     		bx	lr
 749              		.cfi_endproc
 750              	.LFE130:
 752              		.section	.text.HAL_FLASH_Unlock,"ax",%progbits
 753              		.align	1
 754              		.global	HAL_FLASH_Unlock
 755              		.syntax unified
 756              		.thumb
 757              		.thumb_func
 758              		.fpu fpv4-sp-d16
 760              	HAL_FLASH_Unlock:
 761              	.LFB131:
 481:/home/fanxinhao/Work/LiteOS_Lab/drivers/third_party/ST/STM32L4xx_HAL_Driver/Src/stm32l4xx_hal_flash.c **** 
 482:/home/fanxinhao/Work/LiteOS_Lab/drivers/third_party/ST/STM32L4xx_HAL_Driver/Src/stm32l4xx_hal_flash.c **** /**
 483:/home/fanxinhao/Work/LiteOS_Lab/drivers/third_party/ST/STM32L4xx_HAL_Driver/Src/stm32l4xx_hal_flash.c ****   * @}
 484:/home/fanxinhao/Work/LiteOS_Lab/drivers/third_party/ST/STM32L4xx_HAL_Driver/Src/stm32l4xx_hal_flash.c ****   */ 
 485:/home/fanxinhao/Work/LiteOS_Lab/drivers/third_party/ST/STM32L4xx_HAL_Driver/Src/stm32l4xx_hal_flash.c **** 
 486:/home/fanxinhao/Work/LiteOS_Lab/drivers/third_party/ST/STM32L4xx_HAL_Driver/Src/stm32l4xx_hal_flash.c **** /** @defgroup FLASH_Exported_Functions_Group2 Peripheral Control functions 
 487:/home/fanxinhao/Work/LiteOS_Lab/drivers/third_party/ST/STM32L4xx_HAL_Driver/Src/stm32l4xx_hal_flash.c ****  *  @brief   Management functions 
 488:/home/fanxinhao/Work/LiteOS_Lab/drivers/third_party/ST/STM32L4xx_HAL_Driver/Src/stm32l4xx_hal_flash.c ****  *
 489:/home/fanxinhao/Work/LiteOS_Lab/drivers/third_party/ST/STM32L4xx_HAL_Driver/Src/stm32l4xx_hal_flash.c **** @verbatim   
 490:/home/fanxinhao/Work/LiteOS_Lab/drivers/third_party/ST/STM32L4xx_HAL_Driver/Src/stm32l4xx_hal_flash.c ****  ===============================================================================
 491:/home/fanxinhao/Work/LiteOS_Lab/drivers/third_party/ST/STM32L4xx_HAL_Driver/Src/stm32l4xx_hal_flash.c ****                       ##### Peripheral Control functions #####
 492:/home/fanxinhao/Work/LiteOS_Lab/drivers/third_party/ST/STM32L4xx_HAL_Driver/Src/stm32l4xx_hal_flash.c ****  ===============================================================================  
 493:/home/fanxinhao/Work/LiteOS_Lab/drivers/third_party/ST/STM32L4xx_HAL_Driver/Src/stm32l4xx_hal_flash.c ****     [..]
 494:/home/fanxinhao/Work/LiteOS_Lab/drivers/third_party/ST/STM32L4xx_HAL_Driver/Src/stm32l4xx_hal_flash.c ****     This subsection provides a set of functions allowing to control the FLASH 
 495:/home/fanxinhao/Work/LiteOS_Lab/drivers/third_party/ST/STM32L4xx_HAL_Driver/Src/stm32l4xx_hal_flash.c ****     memory operations.
 496:/home/fanxinhao/Work/LiteOS_Lab/drivers/third_party/ST/STM32L4xx_HAL_Driver/Src/stm32l4xx_hal_flash.c **** 
 497:/home/fanxinhao/Work/LiteOS_Lab/drivers/third_party/ST/STM32L4xx_HAL_Driver/Src/stm32l4xx_hal_flash.c **** @endverbatim
ARM GAS  /tmp/cco0QsaQ.s 			page 23


 498:/home/fanxinhao/Work/LiteOS_Lab/drivers/third_party/ST/STM32L4xx_HAL_Driver/Src/stm32l4xx_hal_flash.c ****   * @{
 499:/home/fanxinhao/Work/LiteOS_Lab/drivers/third_party/ST/STM32L4xx_HAL_Driver/Src/stm32l4xx_hal_flash.c ****   */
 500:/home/fanxinhao/Work/LiteOS_Lab/drivers/third_party/ST/STM32L4xx_HAL_Driver/Src/stm32l4xx_hal_flash.c **** 
 501:/home/fanxinhao/Work/LiteOS_Lab/drivers/third_party/ST/STM32L4xx_HAL_Driver/Src/stm32l4xx_hal_flash.c **** /**
 502:/home/fanxinhao/Work/LiteOS_Lab/drivers/third_party/ST/STM32L4xx_HAL_Driver/Src/stm32l4xx_hal_flash.c ****   * @brief  Unlock the FLASH control register access.
 503:/home/fanxinhao/Work/LiteOS_Lab/drivers/third_party/ST/STM32L4xx_HAL_Driver/Src/stm32l4xx_hal_flash.c ****   * @retval HAL Status
 504:/home/fanxinhao/Work/LiteOS_Lab/drivers/third_party/ST/STM32L4xx_HAL_Driver/Src/stm32l4xx_hal_flash.c ****   */
 505:/home/fanxinhao/Work/LiteOS_Lab/drivers/third_party/ST/STM32L4xx_HAL_Driver/Src/stm32l4xx_hal_flash.c **** HAL_StatusTypeDef HAL_FLASH_Unlock(void)
 506:/home/fanxinhao/Work/LiteOS_Lab/drivers/third_party/ST/STM32L4xx_HAL_Driver/Src/stm32l4xx_hal_flash.c **** {
 762              		.loc 1 506 1
 763              		.cfi_startproc
 764              		@ args = 0, pretend = 0, frame = 8
 765              		@ frame_needed = 1, uses_anonymous_args = 0
 766              		@ link register save eliminated.
 767 0000 80B4     		push	{r7}
 768              	.LCFI27:
 769              		.cfi_def_cfa_offset 4
 770              		.cfi_offset 7, -4
 771 0002 83B0     		sub	sp, sp, #12
 772              	.LCFI28:
 773              		.cfi_def_cfa_offset 16
 774 0004 00AF     		add	r7, sp, #0
 775              	.LCFI29:
 776              		.cfi_def_cfa_register 7
 507:/home/fanxinhao/Work/LiteOS_Lab/drivers/third_party/ST/STM32L4xx_HAL_Driver/Src/stm32l4xx_hal_flash.c ****   HAL_StatusTypeDef status = HAL_OK;
 777              		.loc 1 507 21
 778 0006 0023     		movs	r3, #0
 779 0008 FB71     		strb	r3, [r7, #7]
 508:/home/fanxinhao/Work/LiteOS_Lab/drivers/third_party/ST/STM32L4xx_HAL_Driver/Src/stm32l4xx_hal_flash.c **** 
 509:/home/fanxinhao/Work/LiteOS_Lab/drivers/third_party/ST/STM32L4xx_HAL_Driver/Src/stm32l4xx_hal_flash.c ****   if(READ_BIT(FLASH->CR, FLASH_CR_LOCK) != RESET)
 780              		.loc 1 509 6
 781 000a 0B4B     		ldr	r3, .L48
 782 000c 5B69     		ldr	r3, [r3, #20]
 783              		.loc 1 509 5
 784 000e 002B     		cmp	r3, #0
 785 0010 0BDA     		bge	.L46
 510:/home/fanxinhao/Work/LiteOS_Lab/drivers/third_party/ST/STM32L4xx_HAL_Driver/Src/stm32l4xx_hal_flash.c ****   {
 511:/home/fanxinhao/Work/LiteOS_Lab/drivers/third_party/ST/STM32L4xx_HAL_Driver/Src/stm32l4xx_hal_flash.c ****     /* Authorize the FLASH Registers access */
 512:/home/fanxinhao/Work/LiteOS_Lab/drivers/third_party/ST/STM32L4xx_HAL_Driver/Src/stm32l4xx_hal_flash.c ****     WRITE_REG(FLASH->KEYR, FLASH_KEY1);
 786              		.loc 1 512 5
 787 0012 094B     		ldr	r3, .L48
 788 0014 094A     		ldr	r2, .L48+4
 789 0016 9A60     		str	r2, [r3, #8]
 513:/home/fanxinhao/Work/LiteOS_Lab/drivers/third_party/ST/STM32L4xx_HAL_Driver/Src/stm32l4xx_hal_flash.c ****     WRITE_REG(FLASH->KEYR, FLASH_KEY2);
 790              		.loc 1 513 5
 791 0018 074B     		ldr	r3, .L48
 792 001a 094A     		ldr	r2, .L48+8
 793 001c 9A60     		str	r2, [r3, #8]
 514:/home/fanxinhao/Work/LiteOS_Lab/drivers/third_party/ST/STM32L4xx_HAL_Driver/Src/stm32l4xx_hal_flash.c **** 
 515:/home/fanxinhao/Work/LiteOS_Lab/drivers/third_party/ST/STM32L4xx_HAL_Driver/Src/stm32l4xx_hal_flash.c ****     /* Verify Flash is unlocked */
 516:/home/fanxinhao/Work/LiteOS_Lab/drivers/third_party/ST/STM32L4xx_HAL_Driver/Src/stm32l4xx_hal_flash.c ****     if(READ_BIT(FLASH->CR, FLASH_CR_LOCK) != RESET)
 794              		.loc 1 516 8
 795 001e 064B     		ldr	r3, .L48
 796 0020 5B69     		ldr	r3, [r3, #20]
 797              		.loc 1 516 7
 798 0022 002B     		cmp	r3, #0
 799 0024 01DA     		bge	.L46
ARM GAS  /tmp/cco0QsaQ.s 			page 24


 517:/home/fanxinhao/Work/LiteOS_Lab/drivers/third_party/ST/STM32L4xx_HAL_Driver/Src/stm32l4xx_hal_flash.c ****     {
 518:/home/fanxinhao/Work/LiteOS_Lab/drivers/third_party/ST/STM32L4xx_HAL_Driver/Src/stm32l4xx_hal_flash.c ****       status = HAL_ERROR;
 800              		.loc 1 518 14
 801 0026 0123     		movs	r3, #1
 802 0028 FB71     		strb	r3, [r7, #7]
 803              	.L46:
 519:/home/fanxinhao/Work/LiteOS_Lab/drivers/third_party/ST/STM32L4xx_HAL_Driver/Src/stm32l4xx_hal_flash.c ****     }
 520:/home/fanxinhao/Work/LiteOS_Lab/drivers/third_party/ST/STM32L4xx_HAL_Driver/Src/stm32l4xx_hal_flash.c ****   }
 521:/home/fanxinhao/Work/LiteOS_Lab/drivers/third_party/ST/STM32L4xx_HAL_Driver/Src/stm32l4xx_hal_flash.c ****   
 522:/home/fanxinhao/Work/LiteOS_Lab/drivers/third_party/ST/STM32L4xx_HAL_Driver/Src/stm32l4xx_hal_flash.c ****   return status;
 804              		.loc 1 522 10
 805 002a FB79     		ldrb	r3, [r7, #7]	@ zero_extendqisi2
 523:/home/fanxinhao/Work/LiteOS_Lab/drivers/third_party/ST/STM32L4xx_HAL_Driver/Src/stm32l4xx_hal_flash.c **** }
 806              		.loc 1 523 1
 807 002c 1846     		mov	r0, r3
 808 002e 0C37     		adds	r7, r7, #12
 809              	.LCFI30:
 810              		.cfi_def_cfa_offset 4
 811 0030 BD46     		mov	sp, r7
 812              	.LCFI31:
 813              		.cfi_def_cfa_register 13
 814              		@ sp needed
 815 0032 5DF8047B 		ldr	r7, [sp], #4
 816              	.LCFI32:
 817              		.cfi_restore 7
 818              		.cfi_def_cfa_offset 0
 819 0036 7047     		bx	lr
 820              	.L49:
 821              		.align	2
 822              	.L48:
 823 0038 00200240 		.word	1073881088
 824 003c 23016745 		.word	1164378403
 825 0040 AB89EFCD 		.word	-839939669
 826              		.cfi_endproc
 827              	.LFE131:
 829              		.section	.text.HAL_FLASH_Lock,"ax",%progbits
 830              		.align	1
 831              		.global	HAL_FLASH_Lock
 832              		.syntax unified
 833              		.thumb
 834              		.thumb_func
 835              		.fpu fpv4-sp-d16
 837              	HAL_FLASH_Lock:
 838              	.LFB132:
 524:/home/fanxinhao/Work/LiteOS_Lab/drivers/third_party/ST/STM32L4xx_HAL_Driver/Src/stm32l4xx_hal_flash.c **** 
 525:/home/fanxinhao/Work/LiteOS_Lab/drivers/third_party/ST/STM32L4xx_HAL_Driver/Src/stm32l4xx_hal_flash.c **** /**
 526:/home/fanxinhao/Work/LiteOS_Lab/drivers/third_party/ST/STM32L4xx_HAL_Driver/Src/stm32l4xx_hal_flash.c ****   * @brief  Lock the FLASH control register access.
 527:/home/fanxinhao/Work/LiteOS_Lab/drivers/third_party/ST/STM32L4xx_HAL_Driver/Src/stm32l4xx_hal_flash.c ****   * @retval HAL Status
 528:/home/fanxinhao/Work/LiteOS_Lab/drivers/third_party/ST/STM32L4xx_HAL_Driver/Src/stm32l4xx_hal_flash.c ****   */
 529:/home/fanxinhao/Work/LiteOS_Lab/drivers/third_party/ST/STM32L4xx_HAL_Driver/Src/stm32l4xx_hal_flash.c **** HAL_StatusTypeDef HAL_FLASH_Lock(void)
 530:/home/fanxinhao/Work/LiteOS_Lab/drivers/third_party/ST/STM32L4xx_HAL_Driver/Src/stm32l4xx_hal_flash.c **** {
 839              		.loc 1 530 1
 840              		.cfi_startproc
 841              		@ args = 0, pretend = 0, frame = 0
 842              		@ frame_needed = 1, uses_anonymous_args = 0
 843              		@ link register save eliminated.
 844 0000 80B4     		push	{r7}
ARM GAS  /tmp/cco0QsaQ.s 			page 25


 845              	.LCFI33:
 846              		.cfi_def_cfa_offset 4
 847              		.cfi_offset 7, -4
 848 0002 00AF     		add	r7, sp, #0
 849              	.LCFI34:
 850              		.cfi_def_cfa_register 7
 531:/home/fanxinhao/Work/LiteOS_Lab/drivers/third_party/ST/STM32L4xx_HAL_Driver/Src/stm32l4xx_hal_flash.c ****   /* Set the LOCK Bit to lock the FLASH Registers access */
 532:/home/fanxinhao/Work/LiteOS_Lab/drivers/third_party/ST/STM32L4xx_HAL_Driver/Src/stm32l4xx_hal_flash.c ****   SET_BIT(FLASH->CR, FLASH_CR_LOCK);
 851              		.loc 1 532 3
 852 0004 054B     		ldr	r3, .L52
 853 0006 5B69     		ldr	r3, [r3, #20]
 854 0008 044A     		ldr	r2, .L52
 855 000a 43F00043 		orr	r3, r3, #-2147483648
 856 000e 5361     		str	r3, [r2, #20]
 533:/home/fanxinhao/Work/LiteOS_Lab/drivers/third_party/ST/STM32L4xx_HAL_Driver/Src/stm32l4xx_hal_flash.c ****   
 534:/home/fanxinhao/Work/LiteOS_Lab/drivers/third_party/ST/STM32L4xx_HAL_Driver/Src/stm32l4xx_hal_flash.c ****   return HAL_OK;  
 857              		.loc 1 534 10
 858 0010 0023     		movs	r3, #0
 535:/home/fanxinhao/Work/LiteOS_Lab/drivers/third_party/ST/STM32L4xx_HAL_Driver/Src/stm32l4xx_hal_flash.c **** }
 859              		.loc 1 535 1
 860 0012 1846     		mov	r0, r3
 861 0014 BD46     		mov	sp, r7
 862              	.LCFI35:
 863              		.cfi_def_cfa_register 13
 864              		@ sp needed
 865 0016 5DF8047B 		ldr	r7, [sp], #4
 866              	.LCFI36:
 867              		.cfi_restore 7
 868              		.cfi_def_cfa_offset 0
 869 001a 7047     		bx	lr
 870              	.L53:
 871              		.align	2
 872              	.L52:
 873 001c 00200240 		.word	1073881088
 874              		.cfi_endproc
 875              	.LFE132:
 877              		.section	.text.HAL_FLASH_OB_Unlock,"ax",%progbits
 878              		.align	1
 879              		.global	HAL_FLASH_OB_Unlock
 880              		.syntax unified
 881              		.thumb
 882              		.thumb_func
 883              		.fpu fpv4-sp-d16
 885              	HAL_FLASH_OB_Unlock:
 886              	.LFB133:
 536:/home/fanxinhao/Work/LiteOS_Lab/drivers/third_party/ST/STM32L4xx_HAL_Driver/Src/stm32l4xx_hal_flash.c **** 
 537:/home/fanxinhao/Work/LiteOS_Lab/drivers/third_party/ST/STM32L4xx_HAL_Driver/Src/stm32l4xx_hal_flash.c **** /**
 538:/home/fanxinhao/Work/LiteOS_Lab/drivers/third_party/ST/STM32L4xx_HAL_Driver/Src/stm32l4xx_hal_flash.c ****   * @brief  Unlock the FLASH Option Bytes Registers access.
 539:/home/fanxinhao/Work/LiteOS_Lab/drivers/third_party/ST/STM32L4xx_HAL_Driver/Src/stm32l4xx_hal_flash.c ****   * @retval HAL Status
 540:/home/fanxinhao/Work/LiteOS_Lab/drivers/third_party/ST/STM32L4xx_HAL_Driver/Src/stm32l4xx_hal_flash.c ****   */
 541:/home/fanxinhao/Work/LiteOS_Lab/drivers/third_party/ST/STM32L4xx_HAL_Driver/Src/stm32l4xx_hal_flash.c **** HAL_StatusTypeDef HAL_FLASH_OB_Unlock(void)
 542:/home/fanxinhao/Work/LiteOS_Lab/drivers/third_party/ST/STM32L4xx_HAL_Driver/Src/stm32l4xx_hal_flash.c **** {
 887              		.loc 1 542 1
 888              		.cfi_startproc
 889              		@ args = 0, pretend = 0, frame = 0
 890              		@ frame_needed = 1, uses_anonymous_args = 0
 891              		@ link register save eliminated.
ARM GAS  /tmp/cco0QsaQ.s 			page 26


 892 0000 80B4     		push	{r7}
 893              	.LCFI37:
 894              		.cfi_def_cfa_offset 4
 895              		.cfi_offset 7, -4
 896 0002 00AF     		add	r7, sp, #0
 897              	.LCFI38:
 898              		.cfi_def_cfa_register 7
 543:/home/fanxinhao/Work/LiteOS_Lab/drivers/third_party/ST/STM32L4xx_HAL_Driver/Src/stm32l4xx_hal_flash.c ****   if(READ_BIT(FLASH->CR, FLASH_CR_OPTLOCK) != RESET)
 899              		.loc 1 543 6
 900 0004 094B     		ldr	r3, .L58
 901 0006 5B69     		ldr	r3, [r3, #20]
 902 0008 03F08043 		and	r3, r3, #1073741824
 903              		.loc 1 543 5
 904 000c 002B     		cmp	r3, #0
 905 000e 07D0     		beq	.L55
 544:/home/fanxinhao/Work/LiteOS_Lab/drivers/third_party/ST/STM32L4xx_HAL_Driver/Src/stm32l4xx_hal_flash.c ****   {
 545:/home/fanxinhao/Work/LiteOS_Lab/drivers/third_party/ST/STM32L4xx_HAL_Driver/Src/stm32l4xx_hal_flash.c ****     /* Authorizes the Option Byte register programming */
 546:/home/fanxinhao/Work/LiteOS_Lab/drivers/third_party/ST/STM32L4xx_HAL_Driver/Src/stm32l4xx_hal_flash.c ****     WRITE_REG(FLASH->OPTKEYR, FLASH_OPTKEY1);
 906              		.loc 1 546 5
 907 0010 064B     		ldr	r3, .L58
 908 0012 074A     		ldr	r2, .L58+4
 909 0014 DA60     		str	r2, [r3, #12]
 547:/home/fanxinhao/Work/LiteOS_Lab/drivers/third_party/ST/STM32L4xx_HAL_Driver/Src/stm32l4xx_hal_flash.c ****     WRITE_REG(FLASH->OPTKEYR, FLASH_OPTKEY2);
 910              		.loc 1 547 5
 911 0016 054B     		ldr	r3, .L58
 912 0018 064A     		ldr	r2, .L58+8
 913 001a DA60     		str	r2, [r3, #12]
 548:/home/fanxinhao/Work/LiteOS_Lab/drivers/third_party/ST/STM32L4xx_HAL_Driver/Src/stm32l4xx_hal_flash.c ****   }
 549:/home/fanxinhao/Work/LiteOS_Lab/drivers/third_party/ST/STM32L4xx_HAL_Driver/Src/stm32l4xx_hal_flash.c ****   else
 550:/home/fanxinhao/Work/LiteOS_Lab/drivers/third_party/ST/STM32L4xx_HAL_Driver/Src/stm32l4xx_hal_flash.c ****   {
 551:/home/fanxinhao/Work/LiteOS_Lab/drivers/third_party/ST/STM32L4xx_HAL_Driver/Src/stm32l4xx_hal_flash.c ****     return HAL_ERROR;
 552:/home/fanxinhao/Work/LiteOS_Lab/drivers/third_party/ST/STM32L4xx_HAL_Driver/Src/stm32l4xx_hal_flash.c ****   }  
 553:/home/fanxinhao/Work/LiteOS_Lab/drivers/third_party/ST/STM32L4xx_HAL_Driver/Src/stm32l4xx_hal_flash.c ****   
 554:/home/fanxinhao/Work/LiteOS_Lab/drivers/third_party/ST/STM32L4xx_HAL_Driver/Src/stm32l4xx_hal_flash.c ****   return HAL_OK;  
 914              		.loc 1 554 10
 915 001c 0023     		movs	r3, #0
 916 001e 00E0     		b	.L57
 917              	.L55:
 551:/home/fanxinhao/Work/LiteOS_Lab/drivers/third_party/ST/STM32L4xx_HAL_Driver/Src/stm32l4xx_hal_flash.c ****   }  
 918              		.loc 1 551 12
 919 0020 0123     		movs	r3, #1
 920              	.L57:
 555:/home/fanxinhao/Work/LiteOS_Lab/drivers/third_party/ST/STM32L4xx_HAL_Driver/Src/stm32l4xx_hal_flash.c **** }
 921              		.loc 1 555 1
 922 0022 1846     		mov	r0, r3
 923 0024 BD46     		mov	sp, r7
 924              	.LCFI39:
 925              		.cfi_def_cfa_register 13
 926              		@ sp needed
 927 0026 5DF8047B 		ldr	r7, [sp], #4
 928              	.LCFI40:
 929              		.cfi_restore 7
 930              		.cfi_def_cfa_offset 0
 931 002a 7047     		bx	lr
 932              	.L59:
 933              		.align	2
 934              	.L58:
ARM GAS  /tmp/cco0QsaQ.s 			page 27


 935 002c 00200240 		.word	1073881088
 936 0030 3B2A1908 		.word	135866939
 937 0034 7F6E5D4C 		.word	1281191551
 938              		.cfi_endproc
 939              	.LFE133:
 941              		.section	.text.HAL_FLASH_OB_Lock,"ax",%progbits
 942              		.align	1
 943              		.global	HAL_FLASH_OB_Lock
 944              		.syntax unified
 945              		.thumb
 946              		.thumb_func
 947              		.fpu fpv4-sp-d16
 949              	HAL_FLASH_OB_Lock:
 950              	.LFB134:
 556:/home/fanxinhao/Work/LiteOS_Lab/drivers/third_party/ST/STM32L4xx_HAL_Driver/Src/stm32l4xx_hal_flash.c **** 
 557:/home/fanxinhao/Work/LiteOS_Lab/drivers/third_party/ST/STM32L4xx_HAL_Driver/Src/stm32l4xx_hal_flash.c **** /**
 558:/home/fanxinhao/Work/LiteOS_Lab/drivers/third_party/ST/STM32L4xx_HAL_Driver/Src/stm32l4xx_hal_flash.c ****   * @brief  Lock the FLASH Option Bytes Registers access.
 559:/home/fanxinhao/Work/LiteOS_Lab/drivers/third_party/ST/STM32L4xx_HAL_Driver/Src/stm32l4xx_hal_flash.c ****   * @retval HAL Status 
 560:/home/fanxinhao/Work/LiteOS_Lab/drivers/third_party/ST/STM32L4xx_HAL_Driver/Src/stm32l4xx_hal_flash.c ****   */
 561:/home/fanxinhao/Work/LiteOS_Lab/drivers/third_party/ST/STM32L4xx_HAL_Driver/Src/stm32l4xx_hal_flash.c **** HAL_StatusTypeDef HAL_FLASH_OB_Lock(void)
 562:/home/fanxinhao/Work/LiteOS_Lab/drivers/third_party/ST/STM32L4xx_HAL_Driver/Src/stm32l4xx_hal_flash.c **** {
 951              		.loc 1 562 1
 952              		.cfi_startproc
 953              		@ args = 0, pretend = 0, frame = 0
 954              		@ frame_needed = 1, uses_anonymous_args = 0
 955              		@ link register save eliminated.
 956 0000 80B4     		push	{r7}
 957              	.LCFI41:
 958              		.cfi_def_cfa_offset 4
 959              		.cfi_offset 7, -4
 960 0002 00AF     		add	r7, sp, #0
 961              	.LCFI42:
 962              		.cfi_def_cfa_register 7
 563:/home/fanxinhao/Work/LiteOS_Lab/drivers/third_party/ST/STM32L4xx_HAL_Driver/Src/stm32l4xx_hal_flash.c ****   /* Set the OPTLOCK Bit to lock the FLASH Option Byte Registers access */
 564:/home/fanxinhao/Work/LiteOS_Lab/drivers/third_party/ST/STM32L4xx_HAL_Driver/Src/stm32l4xx_hal_flash.c ****   SET_BIT(FLASH->CR, FLASH_CR_OPTLOCK);
 963              		.loc 1 564 3
 964 0004 054B     		ldr	r3, .L62
 965 0006 5B69     		ldr	r3, [r3, #20]
 966 0008 044A     		ldr	r2, .L62
 967 000a 43F08043 		orr	r3, r3, #1073741824
 968 000e 5361     		str	r3, [r2, #20]
 565:/home/fanxinhao/Work/LiteOS_Lab/drivers/third_party/ST/STM32L4xx_HAL_Driver/Src/stm32l4xx_hal_flash.c ****   
 566:/home/fanxinhao/Work/LiteOS_Lab/drivers/third_party/ST/STM32L4xx_HAL_Driver/Src/stm32l4xx_hal_flash.c ****   return HAL_OK;  
 969              		.loc 1 566 10
 970 0010 0023     		movs	r3, #0
 567:/home/fanxinhao/Work/LiteOS_Lab/drivers/third_party/ST/STM32L4xx_HAL_Driver/Src/stm32l4xx_hal_flash.c **** }
 971              		.loc 1 567 1
 972 0012 1846     		mov	r0, r3
 973 0014 BD46     		mov	sp, r7
 974              	.LCFI43:
 975              		.cfi_def_cfa_register 13
 976              		@ sp needed
 977 0016 5DF8047B 		ldr	r7, [sp], #4
 978              	.LCFI44:
 979              		.cfi_restore 7
 980              		.cfi_def_cfa_offset 0
 981 001a 7047     		bx	lr
ARM GAS  /tmp/cco0QsaQ.s 			page 28


 982              	.L63:
 983              		.align	2
 984              	.L62:
 985 001c 00200240 		.word	1073881088
 986              		.cfi_endproc
 987              	.LFE134:
 989              		.section	.text.HAL_FLASH_OB_Launch,"ax",%progbits
 990              		.align	1
 991              		.global	HAL_FLASH_OB_Launch
 992              		.syntax unified
 993              		.thumb
 994              		.thumb_func
 995              		.fpu fpv4-sp-d16
 997              	HAL_FLASH_OB_Launch:
 998              	.LFB135:
 568:/home/fanxinhao/Work/LiteOS_Lab/drivers/third_party/ST/STM32L4xx_HAL_Driver/Src/stm32l4xx_hal_flash.c **** 
 569:/home/fanxinhao/Work/LiteOS_Lab/drivers/third_party/ST/STM32L4xx_HAL_Driver/Src/stm32l4xx_hal_flash.c **** /**
 570:/home/fanxinhao/Work/LiteOS_Lab/drivers/third_party/ST/STM32L4xx_HAL_Driver/Src/stm32l4xx_hal_flash.c ****   * @brief  Launch the option byte loading.
 571:/home/fanxinhao/Work/LiteOS_Lab/drivers/third_party/ST/STM32L4xx_HAL_Driver/Src/stm32l4xx_hal_flash.c ****   * @retval HAL Status
 572:/home/fanxinhao/Work/LiteOS_Lab/drivers/third_party/ST/STM32L4xx_HAL_Driver/Src/stm32l4xx_hal_flash.c ****   */
 573:/home/fanxinhao/Work/LiteOS_Lab/drivers/third_party/ST/STM32L4xx_HAL_Driver/Src/stm32l4xx_hal_flash.c **** HAL_StatusTypeDef HAL_FLASH_OB_Launch(void)
 574:/home/fanxinhao/Work/LiteOS_Lab/drivers/third_party/ST/STM32L4xx_HAL_Driver/Src/stm32l4xx_hal_flash.c **** {
 999              		.loc 1 574 1
 1000              		.cfi_startproc
 1001              		@ args = 0, pretend = 0, frame = 0
 1002              		@ frame_needed = 1, uses_anonymous_args = 0
 1003 0000 80B5     		push	{r7, lr}
 1004              	.LCFI45:
 1005              		.cfi_def_cfa_offset 8
 1006              		.cfi_offset 7, -8
 1007              		.cfi_offset 14, -4
 1008 0002 00AF     		add	r7, sp, #0
 1009              	.LCFI46:
 1010              		.cfi_def_cfa_register 7
 575:/home/fanxinhao/Work/LiteOS_Lab/drivers/third_party/ST/STM32L4xx_HAL_Driver/Src/stm32l4xx_hal_flash.c ****   /* Set the bit to force the option byte reloading */
 576:/home/fanxinhao/Work/LiteOS_Lab/drivers/third_party/ST/STM32L4xx_HAL_Driver/Src/stm32l4xx_hal_flash.c ****   SET_BIT(FLASH->CR, FLASH_CR_OBL_LAUNCH); 
 1011              		.loc 1 576 3
 1012 0004 064B     		ldr	r3, .L66
 1013 0006 5B69     		ldr	r3, [r3, #20]
 1014 0008 054A     		ldr	r2, .L66
 1015 000a 43F00063 		orr	r3, r3, #134217728
 1016 000e 5361     		str	r3, [r2, #20]
 577:/home/fanxinhao/Work/LiteOS_Lab/drivers/third_party/ST/STM32L4xx_HAL_Driver/Src/stm32l4xx_hal_flash.c **** 
 578:/home/fanxinhao/Work/LiteOS_Lab/drivers/third_party/ST/STM32L4xx_HAL_Driver/Src/stm32l4xx_hal_flash.c ****   /* Wait for last operation to be completed */
 579:/home/fanxinhao/Work/LiteOS_Lab/drivers/third_party/ST/STM32L4xx_HAL_Driver/Src/stm32l4xx_hal_flash.c ****   return(FLASH_WaitForLastOperation((uint32_t)FLASH_TIMEOUT_VALUE)); 
 1017              		.loc 1 579 10
 1018 0010 4CF25030 		movw	r0, #50000
 1019 0014 FFF7FEFF 		bl	FLASH_WaitForLastOperation
 1020 0018 0346     		mov	r3, r0
 580:/home/fanxinhao/Work/LiteOS_Lab/drivers/third_party/ST/STM32L4xx_HAL_Driver/Src/stm32l4xx_hal_flash.c **** }
 1021              		.loc 1 580 1
 1022 001a 1846     		mov	r0, r3
 1023 001c 80BD     		pop	{r7, pc}
 1024              	.L67:
 1025 001e 00BF     		.align	2
 1026              	.L66:
 1027 0020 00200240 		.word	1073881088
ARM GAS  /tmp/cco0QsaQ.s 			page 29


 1028              		.cfi_endproc
 1029              	.LFE135:
 1031              		.section	.text.HAL_FLASH_GetError,"ax",%progbits
 1032              		.align	1
 1033              		.global	HAL_FLASH_GetError
 1034              		.syntax unified
 1035              		.thumb
 1036              		.thumb_func
 1037              		.fpu fpv4-sp-d16
 1039              	HAL_FLASH_GetError:
 1040              	.LFB136:
 581:/home/fanxinhao/Work/LiteOS_Lab/drivers/third_party/ST/STM32L4xx_HAL_Driver/Src/stm32l4xx_hal_flash.c **** 
 582:/home/fanxinhao/Work/LiteOS_Lab/drivers/third_party/ST/STM32L4xx_HAL_Driver/Src/stm32l4xx_hal_flash.c **** /**
 583:/home/fanxinhao/Work/LiteOS_Lab/drivers/third_party/ST/STM32L4xx_HAL_Driver/Src/stm32l4xx_hal_flash.c ****   * @}
 584:/home/fanxinhao/Work/LiteOS_Lab/drivers/third_party/ST/STM32L4xx_HAL_Driver/Src/stm32l4xx_hal_flash.c ****   */
 585:/home/fanxinhao/Work/LiteOS_Lab/drivers/third_party/ST/STM32L4xx_HAL_Driver/Src/stm32l4xx_hal_flash.c **** 
 586:/home/fanxinhao/Work/LiteOS_Lab/drivers/third_party/ST/STM32L4xx_HAL_Driver/Src/stm32l4xx_hal_flash.c **** /** @defgroup FLASH_Exported_Functions_Group3 Peripheral State and Errors functions 
 587:/home/fanxinhao/Work/LiteOS_Lab/drivers/third_party/ST/STM32L4xx_HAL_Driver/Src/stm32l4xx_hal_flash.c ****  *  @brief   Peripheral Errors functions 
 588:/home/fanxinhao/Work/LiteOS_Lab/drivers/third_party/ST/STM32L4xx_HAL_Driver/Src/stm32l4xx_hal_flash.c ****  *
 589:/home/fanxinhao/Work/LiteOS_Lab/drivers/third_party/ST/STM32L4xx_HAL_Driver/Src/stm32l4xx_hal_flash.c **** @verbatim   
 590:/home/fanxinhao/Work/LiteOS_Lab/drivers/third_party/ST/STM32L4xx_HAL_Driver/Src/stm32l4xx_hal_flash.c ****  ===============================================================================
 591:/home/fanxinhao/Work/LiteOS_Lab/drivers/third_party/ST/STM32L4xx_HAL_Driver/Src/stm32l4xx_hal_flash.c ****                 ##### Peripheral Errors functions #####
 592:/home/fanxinhao/Work/LiteOS_Lab/drivers/third_party/ST/STM32L4xx_HAL_Driver/Src/stm32l4xx_hal_flash.c ****  ===============================================================================  
 593:/home/fanxinhao/Work/LiteOS_Lab/drivers/third_party/ST/STM32L4xx_HAL_Driver/Src/stm32l4xx_hal_flash.c ****     [..]
 594:/home/fanxinhao/Work/LiteOS_Lab/drivers/third_party/ST/STM32L4xx_HAL_Driver/Src/stm32l4xx_hal_flash.c ****     This subsection permits to get in run-time Errors of the FLASH peripheral.
 595:/home/fanxinhao/Work/LiteOS_Lab/drivers/third_party/ST/STM32L4xx_HAL_Driver/Src/stm32l4xx_hal_flash.c **** 
 596:/home/fanxinhao/Work/LiteOS_Lab/drivers/third_party/ST/STM32L4xx_HAL_Driver/Src/stm32l4xx_hal_flash.c **** @endverbatim
 597:/home/fanxinhao/Work/LiteOS_Lab/drivers/third_party/ST/STM32L4xx_HAL_Driver/Src/stm32l4xx_hal_flash.c ****   * @{
 598:/home/fanxinhao/Work/LiteOS_Lab/drivers/third_party/ST/STM32L4xx_HAL_Driver/Src/stm32l4xx_hal_flash.c ****   */
 599:/home/fanxinhao/Work/LiteOS_Lab/drivers/third_party/ST/STM32L4xx_HAL_Driver/Src/stm32l4xx_hal_flash.c **** 
 600:/home/fanxinhao/Work/LiteOS_Lab/drivers/third_party/ST/STM32L4xx_HAL_Driver/Src/stm32l4xx_hal_flash.c **** /**
 601:/home/fanxinhao/Work/LiteOS_Lab/drivers/third_party/ST/STM32L4xx_HAL_Driver/Src/stm32l4xx_hal_flash.c ****   * @brief  Get the specific FLASH error flag.
 602:/home/fanxinhao/Work/LiteOS_Lab/drivers/third_party/ST/STM32L4xx_HAL_Driver/Src/stm32l4xx_hal_flash.c ****   * @retval FLASH_ErrorCode: The returned value can be:
 603:/home/fanxinhao/Work/LiteOS_Lab/drivers/third_party/ST/STM32L4xx_HAL_Driver/Src/stm32l4xx_hal_flash.c ****   *            @arg HAL_FLASH_ERROR_RD: FLASH Read Protection error flag (PCROP)
 604:/home/fanxinhao/Work/LiteOS_Lab/drivers/third_party/ST/STM32L4xx_HAL_Driver/Src/stm32l4xx_hal_flash.c ****   *            @arg HAL_FLASH_ERROR_PGS: FLASH Programming Sequence error flag 
 605:/home/fanxinhao/Work/LiteOS_Lab/drivers/third_party/ST/STM32L4xx_HAL_Driver/Src/stm32l4xx_hal_flash.c ****   *            @arg HAL_FLASH_ERROR_PGP: FLASH Programming Parallelism error flag  
 606:/home/fanxinhao/Work/LiteOS_Lab/drivers/third_party/ST/STM32L4xx_HAL_Driver/Src/stm32l4xx_hal_flash.c ****   *            @arg HAL_FLASH_ERROR_PGA: FLASH Programming Alignment error flag
 607:/home/fanxinhao/Work/LiteOS_Lab/drivers/third_party/ST/STM32L4xx_HAL_Driver/Src/stm32l4xx_hal_flash.c ****   *            @arg HAL_FLASH_ERROR_WRP: FLASH Write protected error flag
 608:/home/fanxinhao/Work/LiteOS_Lab/drivers/third_party/ST/STM32L4xx_HAL_Driver/Src/stm32l4xx_hal_flash.c ****   *            @arg HAL_FLASH_ERROR_OPERATION: FLASH operation Error flag 
 609:/home/fanxinhao/Work/LiteOS_Lab/drivers/third_party/ST/STM32L4xx_HAL_Driver/Src/stm32l4xx_hal_flash.c ****   *            @arg HAL_FLASH_ERROR_NONE: No error set 
 610:/home/fanxinhao/Work/LiteOS_Lab/drivers/third_party/ST/STM32L4xx_HAL_Driver/Src/stm32l4xx_hal_flash.c ****   *            @arg HAL_FLASH_ERROR_OP: FLASH Operation error
 611:/home/fanxinhao/Work/LiteOS_Lab/drivers/third_party/ST/STM32L4xx_HAL_Driver/Src/stm32l4xx_hal_flash.c ****   *            @arg HAL_FLASH_ERROR_PROG: FLASH Programming error
 612:/home/fanxinhao/Work/LiteOS_Lab/drivers/third_party/ST/STM32L4xx_HAL_Driver/Src/stm32l4xx_hal_flash.c ****   *            @arg HAL_FLASH_ERROR_WRP: FLASH Write protection error
 613:/home/fanxinhao/Work/LiteOS_Lab/drivers/third_party/ST/STM32L4xx_HAL_Driver/Src/stm32l4xx_hal_flash.c ****   *            @arg HAL_FLASH_ERROR_PGA: FLASH Programming alignment error
 614:/home/fanxinhao/Work/LiteOS_Lab/drivers/third_party/ST/STM32L4xx_HAL_Driver/Src/stm32l4xx_hal_flash.c ****   *            @arg HAL_FLASH_ERROR_SIZ: FLASH Size error
 615:/home/fanxinhao/Work/LiteOS_Lab/drivers/third_party/ST/STM32L4xx_HAL_Driver/Src/stm32l4xx_hal_flash.c ****   *            @arg HAL_FLASH_ERROR_PGS: FLASH Programming sequence error
 616:/home/fanxinhao/Work/LiteOS_Lab/drivers/third_party/ST/STM32L4xx_HAL_Driver/Src/stm32l4xx_hal_flash.c ****   *            @arg HAL_FLASH_ERROR_MIS: FLASH Fast programming data miss error
 617:/home/fanxinhao/Work/LiteOS_Lab/drivers/third_party/ST/STM32L4xx_HAL_Driver/Src/stm32l4xx_hal_flash.c ****   *            @arg HAL_FLASH_ERROR_FAST: FLASH Fast programming error
 618:/home/fanxinhao/Work/LiteOS_Lab/drivers/third_party/ST/STM32L4xx_HAL_Driver/Src/stm32l4xx_hal_flash.c ****   *            @arg HAL_FLASH_ERROR_RD: FLASH PCROP read error
 619:/home/fanxinhao/Work/LiteOS_Lab/drivers/third_party/ST/STM32L4xx_HAL_Driver/Src/stm32l4xx_hal_flash.c ****   *            @arg HAL_FLASH_ERROR_OPTV: FLASH Option validity error
 620:/home/fanxinhao/Work/LiteOS_Lab/drivers/third_party/ST/STM32L4xx_HAL_Driver/Src/stm32l4xx_hal_flash.c ****   *            @arg FLASH_FLAG_PEMPTY : FLASH Boot from not programmed flash (apply only for STM32L
 621:/home/fanxinhao/Work/LiteOS_Lab/drivers/third_party/ST/STM32L4xx_HAL_Driver/Src/stm32l4xx_hal_flash.c ****   *            @arg HAL_FLASH_ERROR_ECCD: FLASH two ECC errors have been detected
 622:/home/fanxinhao/Work/LiteOS_Lab/drivers/third_party/ST/STM32L4xx_HAL_Driver/Src/stm32l4xx_hal_flash.c ****   */
 623:/home/fanxinhao/Work/LiteOS_Lab/drivers/third_party/ST/STM32L4xx_HAL_Driver/Src/stm32l4xx_hal_flash.c **** uint32_t HAL_FLASH_GetError(void)
 624:/home/fanxinhao/Work/LiteOS_Lab/drivers/third_party/ST/STM32L4xx_HAL_Driver/Src/stm32l4xx_hal_flash.c **** { 
 1041              		.loc 1 624 1
 1042              		.cfi_startproc
ARM GAS  /tmp/cco0QsaQ.s 			page 30


 1043              		@ args = 0, pretend = 0, frame = 0
 1044              		@ frame_needed = 1, uses_anonymous_args = 0
 1045              		@ link register save eliminated.
 1046 0000 80B4     		push	{r7}
 1047              	.LCFI47:
 1048              		.cfi_def_cfa_offset 4
 1049              		.cfi_offset 7, -4
 1050 0002 00AF     		add	r7, sp, #0
 1051              	.LCFI48:
 1052              		.cfi_def_cfa_register 7
 625:/home/fanxinhao/Work/LiteOS_Lab/drivers/third_party/ST/STM32L4xx_HAL_Driver/Src/stm32l4xx_hal_flash.c ****    return pFlash.ErrorCode;
 1053              		.loc 1 625 17
 1054 0004 034B     		ldr	r3, .L70
 1055 0006 5B68     		ldr	r3, [r3, #4]
 626:/home/fanxinhao/Work/LiteOS_Lab/drivers/third_party/ST/STM32L4xx_HAL_Driver/Src/stm32l4xx_hal_flash.c **** }
 1056              		.loc 1 626 1
 1057 0008 1846     		mov	r0, r3
 1058 000a BD46     		mov	sp, r7
 1059              	.LCFI49:
 1060              		.cfi_def_cfa_register 13
 1061              		@ sp needed
 1062 000c 5DF8047B 		ldr	r7, [sp], #4
 1063              	.LCFI50:
 1064              		.cfi_restore 7
 1065              		.cfi_def_cfa_offset 0
 1066 0010 7047     		bx	lr
 1067              	.L71:
 1068 0012 00BF     		.align	2
 1069              	.L70:
 1070 0014 00000000 		.word	pFlash
 1071              		.cfi_endproc
 1072              	.LFE136:
 1074              		.section	.text.FLASH_WaitForLastOperation,"ax",%progbits
 1075              		.align	1
 1076              		.global	FLASH_WaitForLastOperation
 1077              		.syntax unified
 1078              		.thumb
 1079              		.thumb_func
 1080              		.fpu fpv4-sp-d16
 1082              	FLASH_WaitForLastOperation:
 1083              	.LFB137:
 627:/home/fanxinhao/Work/LiteOS_Lab/drivers/third_party/ST/STM32L4xx_HAL_Driver/Src/stm32l4xx_hal_flash.c **** 
 628:/home/fanxinhao/Work/LiteOS_Lab/drivers/third_party/ST/STM32L4xx_HAL_Driver/Src/stm32l4xx_hal_flash.c **** /**
 629:/home/fanxinhao/Work/LiteOS_Lab/drivers/third_party/ST/STM32L4xx_HAL_Driver/Src/stm32l4xx_hal_flash.c ****   * @}
 630:/home/fanxinhao/Work/LiteOS_Lab/drivers/third_party/ST/STM32L4xx_HAL_Driver/Src/stm32l4xx_hal_flash.c ****   */ 
 631:/home/fanxinhao/Work/LiteOS_Lab/drivers/third_party/ST/STM32L4xx_HAL_Driver/Src/stm32l4xx_hal_flash.c **** 
 632:/home/fanxinhao/Work/LiteOS_Lab/drivers/third_party/ST/STM32L4xx_HAL_Driver/Src/stm32l4xx_hal_flash.c **** /**
 633:/home/fanxinhao/Work/LiteOS_Lab/drivers/third_party/ST/STM32L4xx_HAL_Driver/Src/stm32l4xx_hal_flash.c ****   * @}
 634:/home/fanxinhao/Work/LiteOS_Lab/drivers/third_party/ST/STM32L4xx_HAL_Driver/Src/stm32l4xx_hal_flash.c ****   */
 635:/home/fanxinhao/Work/LiteOS_Lab/drivers/third_party/ST/STM32L4xx_HAL_Driver/Src/stm32l4xx_hal_flash.c **** 
 636:/home/fanxinhao/Work/LiteOS_Lab/drivers/third_party/ST/STM32L4xx_HAL_Driver/Src/stm32l4xx_hal_flash.c **** /* Private functions ---------------------------------------------------------*/
 637:/home/fanxinhao/Work/LiteOS_Lab/drivers/third_party/ST/STM32L4xx_HAL_Driver/Src/stm32l4xx_hal_flash.c **** 
 638:/home/fanxinhao/Work/LiteOS_Lab/drivers/third_party/ST/STM32L4xx_HAL_Driver/Src/stm32l4xx_hal_flash.c **** /** @addtogroup FLASH_Private_Functions
 639:/home/fanxinhao/Work/LiteOS_Lab/drivers/third_party/ST/STM32L4xx_HAL_Driver/Src/stm32l4xx_hal_flash.c ****   * @{
 640:/home/fanxinhao/Work/LiteOS_Lab/drivers/third_party/ST/STM32L4xx_HAL_Driver/Src/stm32l4xx_hal_flash.c ****   */
 641:/home/fanxinhao/Work/LiteOS_Lab/drivers/third_party/ST/STM32L4xx_HAL_Driver/Src/stm32l4xx_hal_flash.c **** 
 642:/home/fanxinhao/Work/LiteOS_Lab/drivers/third_party/ST/STM32L4xx_HAL_Driver/Src/stm32l4xx_hal_flash.c **** /**
ARM GAS  /tmp/cco0QsaQ.s 			page 31


 643:/home/fanxinhao/Work/LiteOS_Lab/drivers/third_party/ST/STM32L4xx_HAL_Driver/Src/stm32l4xx_hal_flash.c ****   * @brief  Wait for a FLASH operation to complete.
 644:/home/fanxinhao/Work/LiteOS_Lab/drivers/third_party/ST/STM32L4xx_HAL_Driver/Src/stm32l4xx_hal_flash.c ****   * @param  Timeout: maximum flash operation timeout
 645:/home/fanxinhao/Work/LiteOS_Lab/drivers/third_party/ST/STM32L4xx_HAL_Driver/Src/stm32l4xx_hal_flash.c ****   * @retval HAL_StatusTypeDef HAL Status
 646:/home/fanxinhao/Work/LiteOS_Lab/drivers/third_party/ST/STM32L4xx_HAL_Driver/Src/stm32l4xx_hal_flash.c ****   */
 647:/home/fanxinhao/Work/LiteOS_Lab/drivers/third_party/ST/STM32L4xx_HAL_Driver/Src/stm32l4xx_hal_flash.c **** HAL_StatusTypeDef FLASH_WaitForLastOperation(uint32_t Timeout)
 648:/home/fanxinhao/Work/LiteOS_Lab/drivers/third_party/ST/STM32L4xx_HAL_Driver/Src/stm32l4xx_hal_flash.c **** {
 1084              		.loc 1 648 1
 1085              		.cfi_startproc
 1086              		@ args = 0, pretend = 0, frame = 16
 1087              		@ frame_needed = 1, uses_anonymous_args = 0
 1088 0000 80B5     		push	{r7, lr}
 1089              	.LCFI51:
 1090              		.cfi_def_cfa_offset 8
 1091              		.cfi_offset 7, -8
 1092              		.cfi_offset 14, -4
 1093 0002 84B0     		sub	sp, sp, #16
 1094              	.LCFI52:
 1095              		.cfi_def_cfa_offset 24
 1096 0004 00AF     		add	r7, sp, #0
 1097              	.LCFI53:
 1098              		.cfi_def_cfa_register 7
 1099 0006 7860     		str	r0, [r7, #4]
 649:/home/fanxinhao/Work/LiteOS_Lab/drivers/third_party/ST/STM32L4xx_HAL_Driver/Src/stm32l4xx_hal_flash.c ****   /* Wait for the FLASH operation to complete by polling on BUSY flag to be reset.
 650:/home/fanxinhao/Work/LiteOS_Lab/drivers/third_party/ST/STM32L4xx_HAL_Driver/Src/stm32l4xx_hal_flash.c ****      Even if the FLASH operation fails, the BUSY flag will be reset and an error
 651:/home/fanxinhao/Work/LiteOS_Lab/drivers/third_party/ST/STM32L4xx_HAL_Driver/Src/stm32l4xx_hal_flash.c ****      flag will be set */
 652:/home/fanxinhao/Work/LiteOS_Lab/drivers/third_party/ST/STM32L4xx_HAL_Driver/Src/stm32l4xx_hal_flash.c ****     
 653:/home/fanxinhao/Work/LiteOS_Lab/drivers/third_party/ST/STM32L4xx_HAL_Driver/Src/stm32l4xx_hal_flash.c ****   uint32_t tickstart = HAL_GetTick();
 1100              		.loc 1 653 24
 1101 0008 FFF7FEFF 		bl	HAL_GetTick
 1102 000c F860     		str	r0, [r7, #12]
 654:/home/fanxinhao/Work/LiteOS_Lab/drivers/third_party/ST/STM32L4xx_HAL_Driver/Src/stm32l4xx_hal_flash.c ****      
 655:/home/fanxinhao/Work/LiteOS_Lab/drivers/third_party/ST/STM32L4xx_HAL_Driver/Src/stm32l4xx_hal_flash.c ****   while(__HAL_FLASH_GET_FLAG(FLASH_FLAG_BSY)) 
 1103              		.loc 1 655 8
 1104 000e 0DE0     		b	.L73
 1105              	.L75:
 656:/home/fanxinhao/Work/LiteOS_Lab/drivers/third_party/ST/STM32L4xx_HAL_Driver/Src/stm32l4xx_hal_flash.c ****   { 
 657:/home/fanxinhao/Work/LiteOS_Lab/drivers/third_party/ST/STM32L4xx_HAL_Driver/Src/stm32l4xx_hal_flash.c ****     if(Timeout != HAL_MAX_DELAY)
 1106              		.loc 1 657 7
 1107 0010 7B68     		ldr	r3, [r7, #4]
 1108 0012 B3F1FF3F 		cmp	r3, #-1
 1109 0016 09D0     		beq	.L73
 658:/home/fanxinhao/Work/LiteOS_Lab/drivers/third_party/ST/STM32L4xx_HAL_Driver/Src/stm32l4xx_hal_flash.c ****     {
 659:/home/fanxinhao/Work/LiteOS_Lab/drivers/third_party/ST/STM32L4xx_HAL_Driver/Src/stm32l4xx_hal_flash.c ****       if((HAL_GetTick() - tickstart) >= Timeout)
 1110              		.loc 1 659 11
 1111 0018 FFF7FEFF 		bl	HAL_GetTick
 1112 001c 0246     		mov	r2, r0
 1113              		.loc 1 659 25
 1114 001e FB68     		ldr	r3, [r7, #12]
 1115 0020 D31A     		subs	r3, r2, r3
 1116              		.loc 1 659 9
 1117 0022 7A68     		ldr	r2, [r7, #4]
 1118 0024 9A42     		cmp	r2, r3
 1119 0026 01D8     		bhi	.L73
 660:/home/fanxinhao/Work/LiteOS_Lab/drivers/third_party/ST/STM32L4xx_HAL_Driver/Src/stm32l4xx_hal_flash.c ****       {
 661:/home/fanxinhao/Work/LiteOS_Lab/drivers/third_party/ST/STM32L4xx_HAL_Driver/Src/stm32l4xx_hal_flash.c ****         return HAL_TIMEOUT;
 1120              		.loc 1 661 16
 1121 0028 0323     		movs	r3, #3
ARM GAS  /tmp/cco0QsaQ.s 			page 32


 1122 002a 5BE0     		b	.L74
 1123              	.L73:
 655:/home/fanxinhao/Work/LiteOS_Lab/drivers/third_party/ST/STM32L4xx_HAL_Driver/Src/stm32l4xx_hal_flash.c ****   { 
 1124              		.loc 1 655 9
 1125 002c 2F4B     		ldr	r3, .L79
 1126 002e 1B69     		ldr	r3, [r3, #16]
 1127 0030 03F48033 		and	r3, r3, #65536
 655:/home/fanxinhao/Work/LiteOS_Lab/drivers/third_party/ST/STM32L4xx_HAL_Driver/Src/stm32l4xx_hal_flash.c ****   { 
 1128              		.loc 1 655 8
 1129 0034 B3F5803F 		cmp	r3, #65536
 1130 0038 EAD0     		beq	.L75
 662:/home/fanxinhao/Work/LiteOS_Lab/drivers/third_party/ST/STM32L4xx_HAL_Driver/Src/stm32l4xx_hal_flash.c ****       }
 663:/home/fanxinhao/Work/LiteOS_Lab/drivers/third_party/ST/STM32L4xx_HAL_Driver/Src/stm32l4xx_hal_flash.c ****     } 
 664:/home/fanxinhao/Work/LiteOS_Lab/drivers/third_party/ST/STM32L4xx_HAL_Driver/Src/stm32l4xx_hal_flash.c ****   }
 665:/home/fanxinhao/Work/LiteOS_Lab/drivers/third_party/ST/STM32L4xx_HAL_Driver/Src/stm32l4xx_hal_flash.c ****   
 666:/home/fanxinhao/Work/LiteOS_Lab/drivers/third_party/ST/STM32L4xx_HAL_Driver/Src/stm32l4xx_hal_flash.c ****   if((__HAL_FLASH_GET_FLAG(FLASH_FLAG_OPERR))  || (__HAL_FLASH_GET_FLAG(FLASH_FLAG_PROGERR)) || 
 1131              		.loc 1 666 7
 1132 003a 2C4B     		ldr	r3, .L79
 1133 003c 1B69     		ldr	r3, [r3, #16]
 1134 003e 03F00203 		and	r3, r3, #2
 1135              		.loc 1 666 5
 1136 0042 022B     		cmp	r3, #2
 1137 0044 40D0     		beq	.L76
 1138              		.loc 1 666 52 discriminator 1
 1139 0046 294B     		ldr	r3, .L79
 1140 0048 1B69     		ldr	r3, [r3, #16]
 1141 004a 03F00803 		and	r3, r3, #8
 1142              		.loc 1 666 48 discriminator 1
 1143 004e 082B     		cmp	r3, #8
 1144 0050 3AD0     		beq	.L76
 667:/home/fanxinhao/Work/LiteOS_Lab/drivers/third_party/ST/STM32L4xx_HAL_Driver/Src/stm32l4xx_hal_flash.c ****      (__HAL_FLASH_GET_FLAG(FLASH_FLAG_WRPERR)) || (__HAL_FLASH_GET_FLAG(FLASH_FLAG_PGAERR))  || 
 1145              		.loc 1 667 7 discriminator 2
 1146 0052 264B     		ldr	r3, .L79
 1147 0054 1B69     		ldr	r3, [r3, #16]
 1148 0056 03F01003 		and	r3, r3, #16
 666:/home/fanxinhao/Work/LiteOS_Lab/drivers/third_party/ST/STM32L4xx_HAL_Driver/Src/stm32l4xx_hal_flash.c ****      (__HAL_FLASH_GET_FLAG(FLASH_FLAG_WRPERR)) || (__HAL_FLASH_GET_FLAG(FLASH_FLAG_PGAERR))  || 
 1149              		.loc 1 666 94 discriminator 2
 1150 005a 102B     		cmp	r3, #16
 1151 005c 34D0     		beq	.L76
 1152              		.loc 1 667 52
 1153 005e 234B     		ldr	r3, .L79
 1154 0060 1B69     		ldr	r3, [r3, #16]
 1155 0062 03F02003 		and	r3, r3, #32
 1156              		.loc 1 667 48
 1157 0066 202B     		cmp	r3, #32
 1158 0068 2ED0     		beq	.L76
 668:/home/fanxinhao/Work/LiteOS_Lab/drivers/third_party/ST/STM32L4xx_HAL_Driver/Src/stm32l4xx_hal_flash.c ****      (__HAL_FLASH_GET_FLAG(FLASH_FLAG_SIZERR)) || (__HAL_FLASH_GET_FLAG(FLASH_FLAG_PGSERR))  ||
 1159              		.loc 1 668 7 discriminator 1
 1160 006a 204B     		ldr	r3, .L79
 1161 006c 1B69     		ldr	r3, [r3, #16]
 1162 006e 03F04003 		and	r3, r3, #64
 667:/home/fanxinhao/Work/LiteOS_Lab/drivers/third_party/ST/STM32L4xx_HAL_Driver/Src/stm32l4xx_hal_flash.c ****      (__HAL_FLASH_GET_FLAG(FLASH_FLAG_WRPERR)) || (__HAL_FLASH_GET_FLAG(FLASH_FLAG_PGAERR))  || 
 1163              		.loc 1 667 94 discriminator 1
 1164 0072 402B     		cmp	r3, #64
 1165 0074 28D0     		beq	.L76
 1166              		.loc 1 668 52
 1167 0076 1D4B     		ldr	r3, .L79
ARM GAS  /tmp/cco0QsaQ.s 			page 33


 1168 0078 1B69     		ldr	r3, [r3, #16]
 1169 007a 03F08003 		and	r3, r3, #128
 1170              		.loc 1 668 48
 1171 007e 802B     		cmp	r3, #128
 1172 0080 22D0     		beq	.L76
 669:/home/fanxinhao/Work/LiteOS_Lab/drivers/third_party/ST/STM32L4xx_HAL_Driver/Src/stm32l4xx_hal_flash.c ****      (__HAL_FLASH_GET_FLAG(FLASH_FLAG_MISERR)) || (__HAL_FLASH_GET_FLAG(FLASH_FLAG_FASTERR)) || 
 1173              		.loc 1 669 7 discriminator 1
 1174 0082 1A4B     		ldr	r3, .L79
 1175 0084 1B69     		ldr	r3, [r3, #16]
 1176 0086 03F48073 		and	r3, r3, #256
 668:/home/fanxinhao/Work/LiteOS_Lab/drivers/third_party/ST/STM32L4xx_HAL_Driver/Src/stm32l4xx_hal_flash.c ****      (__HAL_FLASH_GET_FLAG(FLASH_FLAG_SIZERR)) || (__HAL_FLASH_GET_FLAG(FLASH_FLAG_PGSERR))  ||
 1177              		.loc 1 668 94 discriminator 1
 1178 008a B3F5807F 		cmp	r3, #256
 1179 008e 1BD0     		beq	.L76
 1180              		.loc 1 669 52
 1181 0090 164B     		ldr	r3, .L79
 1182 0092 1B69     		ldr	r3, [r3, #16]
 1183 0094 03F40073 		and	r3, r3, #512
 1184              		.loc 1 669 48
 1185 0098 B3F5007F 		cmp	r3, #512
 1186 009c 14D0     		beq	.L76
 670:/home/fanxinhao/Work/LiteOS_Lab/drivers/third_party/ST/STM32L4xx_HAL_Driver/Src/stm32l4xx_hal_flash.c ****      (__HAL_FLASH_GET_FLAG(FLASH_FLAG_RDERR))  || (__HAL_FLASH_GET_FLAG(FLASH_FLAG_OPTVERR)) ||
 1187              		.loc 1 670 7 discriminator 1
 1188 009e 134B     		ldr	r3, .L79
 1189 00a0 1B69     		ldr	r3, [r3, #16]
 1190 00a2 03F48043 		and	r3, r3, #16384
 669:/home/fanxinhao/Work/LiteOS_Lab/drivers/third_party/ST/STM32L4xx_HAL_Driver/Src/stm32l4xx_hal_flash.c ****      (__HAL_FLASH_GET_FLAG(FLASH_FLAG_MISERR)) || (__HAL_FLASH_GET_FLAG(FLASH_FLAG_FASTERR)) || 
 1191              		.loc 1 669 94 discriminator 1
 1192 00a6 B3F5804F 		cmp	r3, #16384
 1193 00aa 0DD0     		beq	.L76
 1194              		.loc 1 670 52
 1195 00ac 0F4B     		ldr	r3, .L79
 1196 00ae 1B69     		ldr	r3, [r3, #16]
 1197 00b0 03F40043 		and	r3, r3, #32768
 1198              		.loc 1 670 48
 1199 00b4 B3F5004F 		cmp	r3, #32768
 1200 00b8 06D0     		beq	.L76
 671:/home/fanxinhao/Work/LiteOS_Lab/drivers/third_party/ST/STM32L4xx_HAL_Driver/Src/stm32l4xx_hal_flash.c **** #if defined (STM32L431xx) || defined (STM32L432xx) || defined (STM32L433xx) || defined (STM32L442xx
 672:/home/fanxinhao/Work/LiteOS_Lab/drivers/third_party/ST/STM32L4xx_HAL_Driver/Src/stm32l4xx_hal_flash.c ****     defined (STM32L451xx) || defined (STM32L452xx) || defined (STM32L462xx) || defined (STM32L496xx
 673:/home/fanxinhao/Work/LiteOS_Lab/drivers/third_party/ST/STM32L4xx_HAL_Driver/Src/stm32l4xx_hal_flash.c ****     defined (STM32L4R5xx) || defined (STM32L4R7xx) || defined (STM32L4R9xx) || defined (STM32L4S5xx
 674:/home/fanxinhao/Work/LiteOS_Lab/drivers/third_party/ST/STM32L4xx_HAL_Driver/Src/stm32l4xx_hal_flash.c ****      (__HAL_FLASH_GET_FLAG(FLASH_FLAG_ECCD))   || (__HAL_FLASH_GET_FLAG(FLASH_FLAG_PEMPTY)))
 675:/home/fanxinhao/Work/LiteOS_Lab/drivers/third_party/ST/STM32L4xx_HAL_Driver/Src/stm32l4xx_hal_flash.c **** #else
 676:/home/fanxinhao/Work/LiteOS_Lab/drivers/third_party/ST/STM32L4xx_HAL_Driver/Src/stm32l4xx_hal_flash.c ****      (__HAL_FLASH_GET_FLAG(FLASH_FLAG_ECCD)))
 1201              		.loc 1 676 7 discriminator 1
 1202 00ba 0C4B     		ldr	r3, .L79
 1203 00bc 9B69     		ldr	r3, [r3, #24]
 1204 00be 03F00043 		and	r3, r3, #-2147483648
 670:/home/fanxinhao/Work/LiteOS_Lab/drivers/third_party/ST/STM32L4xx_HAL_Driver/Src/stm32l4xx_hal_flash.c ****      (__HAL_FLASH_GET_FLAG(FLASH_FLAG_RDERR))  || (__HAL_FLASH_GET_FLAG(FLASH_FLAG_OPTVERR)) ||
 1205              		.loc 1 670 94 discriminator 1
 1206 00c2 B3F1004F 		cmp	r3, #-2147483648
 1207 00c6 03D1     		bne	.L77
 1208              	.L76:
 677:/home/fanxinhao/Work/LiteOS_Lab/drivers/third_party/ST/STM32L4xx_HAL_Driver/Src/stm32l4xx_hal_flash.c **** #endif
 678:/home/fanxinhao/Work/LiteOS_Lab/drivers/third_party/ST/STM32L4xx_HAL_Driver/Src/stm32l4xx_hal_flash.c ****   {
 679:/home/fanxinhao/Work/LiteOS_Lab/drivers/third_party/ST/STM32L4xx_HAL_Driver/Src/stm32l4xx_hal_flash.c ****     /*Save the error code*/
 680:/home/fanxinhao/Work/LiteOS_Lab/drivers/third_party/ST/STM32L4xx_HAL_Driver/Src/stm32l4xx_hal_flash.c ****     FLASH_SetErrorCode();
 1209              		.loc 1 680 5
ARM GAS  /tmp/cco0QsaQ.s 			page 34


 1210 00c8 FFF7FEFF 		bl	FLASH_SetErrorCode
 681:/home/fanxinhao/Work/LiteOS_Lab/drivers/third_party/ST/STM32L4xx_HAL_Driver/Src/stm32l4xx_hal_flash.c ****     
 682:/home/fanxinhao/Work/LiteOS_Lab/drivers/third_party/ST/STM32L4xx_HAL_Driver/Src/stm32l4xx_hal_flash.c ****     return HAL_ERROR;
 1211              		.loc 1 682 12
 1212 00cc 0123     		movs	r3, #1
 1213 00ce 09E0     		b	.L74
 1214              	.L77:
 683:/home/fanxinhao/Work/LiteOS_Lab/drivers/third_party/ST/STM32L4xx_HAL_Driver/Src/stm32l4xx_hal_flash.c ****   }
 684:/home/fanxinhao/Work/LiteOS_Lab/drivers/third_party/ST/STM32L4xx_HAL_Driver/Src/stm32l4xx_hal_flash.c **** 
 685:/home/fanxinhao/Work/LiteOS_Lab/drivers/third_party/ST/STM32L4xx_HAL_Driver/Src/stm32l4xx_hal_flash.c ****   /* Check FLASH End of Operation flag  */
 686:/home/fanxinhao/Work/LiteOS_Lab/drivers/third_party/ST/STM32L4xx_HAL_Driver/Src/stm32l4xx_hal_flash.c ****   if (__HAL_FLASH_GET_FLAG(FLASH_FLAG_EOP))
 1215              		.loc 1 686 7
 1216 00d0 064B     		ldr	r3, .L79
 1217 00d2 1B69     		ldr	r3, [r3, #16]
 1218 00d4 03F00103 		and	r3, r3, #1
 1219              		.loc 1 686 6
 1220 00d8 012B     		cmp	r3, #1
 1221 00da 02D1     		bne	.L78
 687:/home/fanxinhao/Work/LiteOS_Lab/drivers/third_party/ST/STM32L4xx_HAL_Driver/Src/stm32l4xx_hal_flash.c ****   {
 688:/home/fanxinhao/Work/LiteOS_Lab/drivers/third_party/ST/STM32L4xx_HAL_Driver/Src/stm32l4xx_hal_flash.c ****     /* Clear FLASH End of Operation pending bit */
 689:/home/fanxinhao/Work/LiteOS_Lab/drivers/third_party/ST/STM32L4xx_HAL_Driver/Src/stm32l4xx_hal_flash.c ****     __HAL_FLASH_CLEAR_FLAG(FLASH_FLAG_EOP);
 1222              		.loc 1 689 5 discriminator 4
 1223 00dc 034B     		ldr	r3, .L79
 1224 00de 0122     		movs	r2, #1
 1225 00e0 1A61     		str	r2, [r3, #16]
 1226              	.L78:
 690:/home/fanxinhao/Work/LiteOS_Lab/drivers/third_party/ST/STM32L4xx_HAL_Driver/Src/stm32l4xx_hal_flash.c ****   }
 691:/home/fanxinhao/Work/LiteOS_Lab/drivers/third_party/ST/STM32L4xx_HAL_Driver/Src/stm32l4xx_hal_flash.c ****   
 692:/home/fanxinhao/Work/LiteOS_Lab/drivers/third_party/ST/STM32L4xx_HAL_Driver/Src/stm32l4xx_hal_flash.c ****   /* If there is an error flag set */
 693:/home/fanxinhao/Work/LiteOS_Lab/drivers/third_party/ST/STM32L4xx_HAL_Driver/Src/stm32l4xx_hal_flash.c ****   return HAL_OK;  
 1227              		.loc 1 693 10
 1228 00e2 0023     		movs	r3, #0
 1229              	.L74:
 694:/home/fanxinhao/Work/LiteOS_Lab/drivers/third_party/ST/STM32L4xx_HAL_Driver/Src/stm32l4xx_hal_flash.c **** }
 1230              		.loc 1 694 1
 1231 00e4 1846     		mov	r0, r3
 1232 00e6 1037     		adds	r7, r7, #16
 1233              	.LCFI54:
 1234              		.cfi_def_cfa_offset 8
 1235 00e8 BD46     		mov	sp, r7
 1236              	.LCFI55:
 1237              		.cfi_def_cfa_register 13
 1238              		@ sp needed
 1239 00ea 80BD     		pop	{r7, pc}
 1240              	.L80:
 1241              		.align	2
 1242              	.L79:
 1243 00ec 00200240 		.word	1073881088
 1244              		.cfi_endproc
 1245              	.LFE137:
 1247              		.section	.text.FLASH_SetErrorCode,"ax",%progbits
 1248              		.align	1
 1249              		.syntax unified
 1250              		.thumb
 1251              		.thumb_func
 1252              		.fpu fpv4-sp-d16
 1254              	FLASH_SetErrorCode:
ARM GAS  /tmp/cco0QsaQ.s 			page 35


 1255              	.LFB138:
 695:/home/fanxinhao/Work/LiteOS_Lab/drivers/third_party/ST/STM32L4xx_HAL_Driver/Src/stm32l4xx_hal_flash.c **** 
 696:/home/fanxinhao/Work/LiteOS_Lab/drivers/third_party/ST/STM32L4xx_HAL_Driver/Src/stm32l4xx_hal_flash.c **** /**
 697:/home/fanxinhao/Work/LiteOS_Lab/drivers/third_party/ST/STM32L4xx_HAL_Driver/Src/stm32l4xx_hal_flash.c ****   * @brief  Set the specific FLASH error flag.
 698:/home/fanxinhao/Work/LiteOS_Lab/drivers/third_party/ST/STM32L4xx_HAL_Driver/Src/stm32l4xx_hal_flash.c ****   * @retval None
 699:/home/fanxinhao/Work/LiteOS_Lab/drivers/third_party/ST/STM32L4xx_HAL_Driver/Src/stm32l4xx_hal_flash.c ****   */
 700:/home/fanxinhao/Work/LiteOS_Lab/drivers/third_party/ST/STM32L4xx_HAL_Driver/Src/stm32l4xx_hal_flash.c **** static void FLASH_SetErrorCode(void)
 701:/home/fanxinhao/Work/LiteOS_Lab/drivers/third_party/ST/STM32L4xx_HAL_Driver/Src/stm32l4xx_hal_flash.c **** {  
 1256              		.loc 1 701 1
 1257              		.cfi_startproc
 1258              		@ args = 0, pretend = 0, frame = 0
 1259              		@ frame_needed = 1, uses_anonymous_args = 0
 1260              		@ link register save eliminated.
 1261 0000 80B4     		push	{r7}
 1262              	.LCFI56:
 1263              		.cfi_def_cfa_offset 4
 1264              		.cfi_offset 7, -4
 1265 0002 00AF     		add	r7, sp, #0
 1266              	.LCFI57:
 1267              		.cfi_def_cfa_register 7
 702:/home/fanxinhao/Work/LiteOS_Lab/drivers/third_party/ST/STM32L4xx_HAL_Driver/Src/stm32l4xx_hal_flash.c ****   if(__HAL_FLASH_GET_FLAG(FLASH_FLAG_OPERR))
 1268              		.loc 1 702 6
 1269 0004 4B4B     		ldr	r3, .L93
 1270 0006 1B69     		ldr	r3, [r3, #16]
 1271 0008 03F00203 		and	r3, r3, #2
 1272              		.loc 1 702 5
 1273 000c 022B     		cmp	r3, #2
 1274 000e 05D1     		bne	.L82
 703:/home/fanxinhao/Work/LiteOS_Lab/drivers/third_party/ST/STM32L4xx_HAL_Driver/Src/stm32l4xx_hal_flash.c ****   {
 704:/home/fanxinhao/Work/LiteOS_Lab/drivers/third_party/ST/STM32L4xx_HAL_Driver/Src/stm32l4xx_hal_flash.c ****     pFlash.ErrorCode |= HAL_FLASH_ERROR_OP;
 1275              		.loc 1 704 22
 1276 0010 494B     		ldr	r3, .L93+4
 1277 0012 5B68     		ldr	r3, [r3, #4]
 1278 0014 43F00103 		orr	r3, r3, #1
 1279 0018 474A     		ldr	r2, .L93+4
 1280 001a 5360     		str	r3, [r2, #4]
 1281              	.L82:
 705:/home/fanxinhao/Work/LiteOS_Lab/drivers/third_party/ST/STM32L4xx_HAL_Driver/Src/stm32l4xx_hal_flash.c ****   }
 706:/home/fanxinhao/Work/LiteOS_Lab/drivers/third_party/ST/STM32L4xx_HAL_Driver/Src/stm32l4xx_hal_flash.c **** 
 707:/home/fanxinhao/Work/LiteOS_Lab/drivers/third_party/ST/STM32L4xx_HAL_Driver/Src/stm32l4xx_hal_flash.c ****   if(__HAL_FLASH_GET_FLAG(FLASH_FLAG_PROGERR))
 1282              		.loc 1 707 6
 1283 001c 454B     		ldr	r3, .L93
 1284 001e 1B69     		ldr	r3, [r3, #16]
 1285 0020 03F00803 		and	r3, r3, #8
 1286              		.loc 1 707 5
 1287 0024 082B     		cmp	r3, #8
 1288 0026 05D1     		bne	.L83
 708:/home/fanxinhao/Work/LiteOS_Lab/drivers/third_party/ST/STM32L4xx_HAL_Driver/Src/stm32l4xx_hal_flash.c ****   { 
 709:/home/fanxinhao/Work/LiteOS_Lab/drivers/third_party/ST/STM32L4xx_HAL_Driver/Src/stm32l4xx_hal_flash.c ****     pFlash.ErrorCode |= HAL_FLASH_ERROR_PROG;
 1289              		.loc 1 709 22
 1290 0028 434B     		ldr	r3, .L93+4
 1291 002a 5B68     		ldr	r3, [r3, #4]
 1292 002c 43F00203 		orr	r3, r3, #2
 1293 0030 414A     		ldr	r2, .L93+4
 1294 0032 5360     		str	r3, [r2, #4]
 1295              	.L83:
 710:/home/fanxinhao/Work/LiteOS_Lab/drivers/third_party/ST/STM32L4xx_HAL_Driver/Src/stm32l4xx_hal_flash.c ****   }
ARM GAS  /tmp/cco0QsaQ.s 			page 36


 711:/home/fanxinhao/Work/LiteOS_Lab/drivers/third_party/ST/STM32L4xx_HAL_Driver/Src/stm32l4xx_hal_flash.c **** 
 712:/home/fanxinhao/Work/LiteOS_Lab/drivers/third_party/ST/STM32L4xx_HAL_Driver/Src/stm32l4xx_hal_flash.c ****   if(__HAL_FLASH_GET_FLAG(FLASH_FLAG_WRPERR))
 1296              		.loc 1 712 6
 1297 0034 3F4B     		ldr	r3, .L93
 1298 0036 1B69     		ldr	r3, [r3, #16]
 1299 0038 03F01003 		and	r3, r3, #16
 1300              		.loc 1 712 5
 1301 003c 102B     		cmp	r3, #16
 1302 003e 05D1     		bne	.L84
 713:/home/fanxinhao/Work/LiteOS_Lab/drivers/third_party/ST/STM32L4xx_HAL_Driver/Src/stm32l4xx_hal_flash.c ****   { 
 714:/home/fanxinhao/Work/LiteOS_Lab/drivers/third_party/ST/STM32L4xx_HAL_Driver/Src/stm32l4xx_hal_flash.c ****     pFlash.ErrorCode |= HAL_FLASH_ERROR_WRP;
 1303              		.loc 1 714 22
 1304 0040 3D4B     		ldr	r3, .L93+4
 1305 0042 5B68     		ldr	r3, [r3, #4]
 1306 0044 43F00403 		orr	r3, r3, #4
 1307 0048 3B4A     		ldr	r2, .L93+4
 1308 004a 5360     		str	r3, [r2, #4]
 1309              	.L84:
 715:/home/fanxinhao/Work/LiteOS_Lab/drivers/third_party/ST/STM32L4xx_HAL_Driver/Src/stm32l4xx_hal_flash.c ****   }
 716:/home/fanxinhao/Work/LiteOS_Lab/drivers/third_party/ST/STM32L4xx_HAL_Driver/Src/stm32l4xx_hal_flash.c **** 
 717:/home/fanxinhao/Work/LiteOS_Lab/drivers/third_party/ST/STM32L4xx_HAL_Driver/Src/stm32l4xx_hal_flash.c ****   if(__HAL_FLASH_GET_FLAG(FLASH_FLAG_PGAERR))
 1310              		.loc 1 717 6
 1311 004c 394B     		ldr	r3, .L93
 1312 004e 1B69     		ldr	r3, [r3, #16]
 1313 0050 03F02003 		and	r3, r3, #32
 1314              		.loc 1 717 5
 1315 0054 202B     		cmp	r3, #32
 1316 0056 05D1     		bne	.L85
 718:/home/fanxinhao/Work/LiteOS_Lab/drivers/third_party/ST/STM32L4xx_HAL_Driver/Src/stm32l4xx_hal_flash.c ****   { 
 719:/home/fanxinhao/Work/LiteOS_Lab/drivers/third_party/ST/STM32L4xx_HAL_Driver/Src/stm32l4xx_hal_flash.c ****     pFlash.ErrorCode |= HAL_FLASH_ERROR_PGA;
 1317              		.loc 1 719 22
 1318 0058 374B     		ldr	r3, .L93+4
 1319 005a 5B68     		ldr	r3, [r3, #4]
 1320 005c 43F00803 		orr	r3, r3, #8
 1321 0060 354A     		ldr	r2, .L93+4
 1322 0062 5360     		str	r3, [r2, #4]
 1323              	.L85:
 720:/home/fanxinhao/Work/LiteOS_Lab/drivers/third_party/ST/STM32L4xx_HAL_Driver/Src/stm32l4xx_hal_flash.c ****   }
 721:/home/fanxinhao/Work/LiteOS_Lab/drivers/third_party/ST/STM32L4xx_HAL_Driver/Src/stm32l4xx_hal_flash.c **** 
 722:/home/fanxinhao/Work/LiteOS_Lab/drivers/third_party/ST/STM32L4xx_HAL_Driver/Src/stm32l4xx_hal_flash.c ****   if(__HAL_FLASH_GET_FLAG(FLASH_FLAG_SIZERR))
 1324              		.loc 1 722 6
 1325 0064 334B     		ldr	r3, .L93
 1326 0066 1B69     		ldr	r3, [r3, #16]
 1327 0068 03F04003 		and	r3, r3, #64
 1328              		.loc 1 722 5
 1329 006c 402B     		cmp	r3, #64
 1330 006e 05D1     		bne	.L86
 723:/home/fanxinhao/Work/LiteOS_Lab/drivers/third_party/ST/STM32L4xx_HAL_Driver/Src/stm32l4xx_hal_flash.c ****   { 
 724:/home/fanxinhao/Work/LiteOS_Lab/drivers/third_party/ST/STM32L4xx_HAL_Driver/Src/stm32l4xx_hal_flash.c ****     pFlash.ErrorCode |= HAL_FLASH_ERROR_SIZ;
 1331              		.loc 1 724 22
 1332 0070 314B     		ldr	r3, .L93+4
 1333 0072 5B68     		ldr	r3, [r3, #4]
 1334 0074 43F01003 		orr	r3, r3, #16
 1335 0078 2F4A     		ldr	r2, .L93+4
 1336 007a 5360     		str	r3, [r2, #4]
 1337              	.L86:
 725:/home/fanxinhao/Work/LiteOS_Lab/drivers/third_party/ST/STM32L4xx_HAL_Driver/Src/stm32l4xx_hal_flash.c ****   }
ARM GAS  /tmp/cco0QsaQ.s 			page 37


 726:/home/fanxinhao/Work/LiteOS_Lab/drivers/third_party/ST/STM32L4xx_HAL_Driver/Src/stm32l4xx_hal_flash.c **** 
 727:/home/fanxinhao/Work/LiteOS_Lab/drivers/third_party/ST/STM32L4xx_HAL_Driver/Src/stm32l4xx_hal_flash.c ****   if(__HAL_FLASH_GET_FLAG(FLASH_FLAG_PGSERR))
 1338              		.loc 1 727 6
 1339 007c 2D4B     		ldr	r3, .L93
 1340 007e 1B69     		ldr	r3, [r3, #16]
 1341 0080 03F08003 		and	r3, r3, #128
 1342              		.loc 1 727 5
 1343 0084 802B     		cmp	r3, #128
 1344 0086 05D1     		bne	.L87
 728:/home/fanxinhao/Work/LiteOS_Lab/drivers/third_party/ST/STM32L4xx_HAL_Driver/Src/stm32l4xx_hal_flash.c ****   { 
 729:/home/fanxinhao/Work/LiteOS_Lab/drivers/third_party/ST/STM32L4xx_HAL_Driver/Src/stm32l4xx_hal_flash.c ****     pFlash.ErrorCode |= HAL_FLASH_ERROR_PGS;
 1345              		.loc 1 729 22
 1346 0088 2B4B     		ldr	r3, .L93+4
 1347 008a 5B68     		ldr	r3, [r3, #4]
 1348 008c 43F02003 		orr	r3, r3, #32
 1349 0090 294A     		ldr	r2, .L93+4
 1350 0092 5360     		str	r3, [r2, #4]
 1351              	.L87:
 730:/home/fanxinhao/Work/LiteOS_Lab/drivers/third_party/ST/STM32L4xx_HAL_Driver/Src/stm32l4xx_hal_flash.c ****   }
 731:/home/fanxinhao/Work/LiteOS_Lab/drivers/third_party/ST/STM32L4xx_HAL_Driver/Src/stm32l4xx_hal_flash.c **** 
 732:/home/fanxinhao/Work/LiteOS_Lab/drivers/third_party/ST/STM32L4xx_HAL_Driver/Src/stm32l4xx_hal_flash.c ****   if(__HAL_FLASH_GET_FLAG(FLASH_FLAG_MISERR))
 1352              		.loc 1 732 6
 1353 0094 274B     		ldr	r3, .L93
 1354 0096 1B69     		ldr	r3, [r3, #16]
 1355 0098 03F48073 		and	r3, r3, #256
 1356              		.loc 1 732 5
 1357 009c B3F5807F 		cmp	r3, #256
 1358 00a0 05D1     		bne	.L88
 733:/home/fanxinhao/Work/LiteOS_Lab/drivers/third_party/ST/STM32L4xx_HAL_Driver/Src/stm32l4xx_hal_flash.c ****   { 
 734:/home/fanxinhao/Work/LiteOS_Lab/drivers/third_party/ST/STM32L4xx_HAL_Driver/Src/stm32l4xx_hal_flash.c ****    pFlash.ErrorCode |= HAL_FLASH_ERROR_MIS;
 1359              		.loc 1 734 21
 1360 00a2 254B     		ldr	r3, .L93+4
 1361 00a4 5B68     		ldr	r3, [r3, #4]
 1362 00a6 43F04003 		orr	r3, r3, #64
 1363 00aa 234A     		ldr	r2, .L93+4
 1364 00ac 5360     		str	r3, [r2, #4]
 1365              	.L88:
 735:/home/fanxinhao/Work/LiteOS_Lab/drivers/third_party/ST/STM32L4xx_HAL_Driver/Src/stm32l4xx_hal_flash.c ****   }
 736:/home/fanxinhao/Work/LiteOS_Lab/drivers/third_party/ST/STM32L4xx_HAL_Driver/Src/stm32l4xx_hal_flash.c **** 
 737:/home/fanxinhao/Work/LiteOS_Lab/drivers/third_party/ST/STM32L4xx_HAL_Driver/Src/stm32l4xx_hal_flash.c ****   if(__HAL_FLASH_GET_FLAG(FLASH_FLAG_FASTERR))
 1366              		.loc 1 737 6
 1367 00ae 214B     		ldr	r3, .L93
 1368 00b0 1B69     		ldr	r3, [r3, #16]
 1369 00b2 03F40073 		and	r3, r3, #512
 1370              		.loc 1 737 5
 1371 00b6 B3F5007F 		cmp	r3, #512
 1372 00ba 05D1     		bne	.L89
 738:/home/fanxinhao/Work/LiteOS_Lab/drivers/third_party/ST/STM32L4xx_HAL_Driver/Src/stm32l4xx_hal_flash.c ****   { 
 739:/home/fanxinhao/Work/LiteOS_Lab/drivers/third_party/ST/STM32L4xx_HAL_Driver/Src/stm32l4xx_hal_flash.c ****    pFlash.ErrorCode |= HAL_FLASH_ERROR_FAST;
 1373              		.loc 1 739 21
 1374 00bc 1E4B     		ldr	r3, .L93+4
 1375 00be 5B68     		ldr	r3, [r3, #4]
 1376 00c0 43F08003 		orr	r3, r3, #128
 1377 00c4 1C4A     		ldr	r2, .L93+4
 1378 00c6 5360     		str	r3, [r2, #4]
 1379              	.L89:
 740:/home/fanxinhao/Work/LiteOS_Lab/drivers/third_party/ST/STM32L4xx_HAL_Driver/Src/stm32l4xx_hal_flash.c ****   }
ARM GAS  /tmp/cco0QsaQ.s 			page 38


 741:/home/fanxinhao/Work/LiteOS_Lab/drivers/third_party/ST/STM32L4xx_HAL_Driver/Src/stm32l4xx_hal_flash.c **** 
 742:/home/fanxinhao/Work/LiteOS_Lab/drivers/third_party/ST/STM32L4xx_HAL_Driver/Src/stm32l4xx_hal_flash.c ****   if(__HAL_FLASH_GET_FLAG(FLASH_FLAG_RDERR))
 1380              		.loc 1 742 6
 1381 00c8 1A4B     		ldr	r3, .L93
 1382 00ca 1B69     		ldr	r3, [r3, #16]
 1383 00cc 03F48043 		and	r3, r3, #16384
 1384              		.loc 1 742 5
 1385 00d0 B3F5804F 		cmp	r3, #16384
 1386 00d4 05D1     		bne	.L90
 743:/home/fanxinhao/Work/LiteOS_Lab/drivers/third_party/ST/STM32L4xx_HAL_Driver/Src/stm32l4xx_hal_flash.c ****   { 
 744:/home/fanxinhao/Work/LiteOS_Lab/drivers/third_party/ST/STM32L4xx_HAL_Driver/Src/stm32l4xx_hal_flash.c ****    pFlash.ErrorCode |= HAL_FLASH_ERROR_RD;
 1387              		.loc 1 744 21
 1388 00d6 184B     		ldr	r3, .L93+4
 1389 00d8 5B68     		ldr	r3, [r3, #4]
 1390 00da 43F48073 		orr	r3, r3, #256
 1391 00de 164A     		ldr	r2, .L93+4
 1392 00e0 5360     		str	r3, [r2, #4]
 1393              	.L90:
 745:/home/fanxinhao/Work/LiteOS_Lab/drivers/third_party/ST/STM32L4xx_HAL_Driver/Src/stm32l4xx_hal_flash.c ****   }
 746:/home/fanxinhao/Work/LiteOS_Lab/drivers/third_party/ST/STM32L4xx_HAL_Driver/Src/stm32l4xx_hal_flash.c **** 
 747:/home/fanxinhao/Work/LiteOS_Lab/drivers/third_party/ST/STM32L4xx_HAL_Driver/Src/stm32l4xx_hal_flash.c ****   if(__HAL_FLASH_GET_FLAG(FLASH_FLAG_OPTVERR))
 1394              		.loc 1 747 6
 1395 00e2 144B     		ldr	r3, .L93
 1396 00e4 1B69     		ldr	r3, [r3, #16]
 1397 00e6 03F40043 		and	r3, r3, #32768
 1398              		.loc 1 747 5
 1399 00ea B3F5004F 		cmp	r3, #32768
 1400 00ee 05D1     		bne	.L91
 748:/home/fanxinhao/Work/LiteOS_Lab/drivers/third_party/ST/STM32L4xx_HAL_Driver/Src/stm32l4xx_hal_flash.c ****   { 
 749:/home/fanxinhao/Work/LiteOS_Lab/drivers/third_party/ST/STM32L4xx_HAL_Driver/Src/stm32l4xx_hal_flash.c ****    pFlash.ErrorCode |= HAL_FLASH_ERROR_OPTV;
 1401              		.loc 1 749 21
 1402 00f0 114B     		ldr	r3, .L93+4
 1403 00f2 5B68     		ldr	r3, [r3, #4]
 1404 00f4 43F40073 		orr	r3, r3, #512
 1405 00f8 0F4A     		ldr	r2, .L93+4
 1406 00fa 5360     		str	r3, [r2, #4]
 1407              	.L91:
 750:/home/fanxinhao/Work/LiteOS_Lab/drivers/third_party/ST/STM32L4xx_HAL_Driver/Src/stm32l4xx_hal_flash.c ****   }
 751:/home/fanxinhao/Work/LiteOS_Lab/drivers/third_party/ST/STM32L4xx_HAL_Driver/Src/stm32l4xx_hal_flash.c **** 
 752:/home/fanxinhao/Work/LiteOS_Lab/drivers/third_party/ST/STM32L4xx_HAL_Driver/Src/stm32l4xx_hal_flash.c ****   if(__HAL_FLASH_GET_FLAG(FLASH_FLAG_ECCD))
 1408              		.loc 1 752 6
 1409 00fc 0D4B     		ldr	r3, .L93
 1410 00fe 9B69     		ldr	r3, [r3, #24]
 1411 0100 03F00043 		and	r3, r3, #-2147483648
 1412              		.loc 1 752 5
 1413 0104 B3F1004F 		cmp	r3, #-2147483648
 1414 0108 05D1     		bne	.L92
 753:/home/fanxinhao/Work/LiteOS_Lab/drivers/third_party/ST/STM32L4xx_HAL_Driver/Src/stm32l4xx_hal_flash.c ****   { 
 754:/home/fanxinhao/Work/LiteOS_Lab/drivers/third_party/ST/STM32L4xx_HAL_Driver/Src/stm32l4xx_hal_flash.c ****    pFlash.ErrorCode |= HAL_FLASH_ERROR_ECCD;
 1415              		.loc 1 754 21
 1416 010a 0B4B     		ldr	r3, .L93+4
 1417 010c 5B68     		ldr	r3, [r3, #4]
 1418 010e 43F48063 		orr	r3, r3, #1024
 1419 0112 094A     		ldr	r2, .L93+4
 1420 0114 5360     		str	r3, [r2, #4]
 1421              	.L92:
 755:/home/fanxinhao/Work/LiteOS_Lab/drivers/third_party/ST/STM32L4xx_HAL_Driver/Src/stm32l4xx_hal_flash.c ****   }
ARM GAS  /tmp/cco0QsaQ.s 			page 39


 756:/home/fanxinhao/Work/LiteOS_Lab/drivers/third_party/ST/STM32L4xx_HAL_Driver/Src/stm32l4xx_hal_flash.c **** 
 757:/home/fanxinhao/Work/LiteOS_Lab/drivers/third_party/ST/STM32L4xx_HAL_Driver/Src/stm32l4xx_hal_flash.c **** #if defined (STM32L431xx) || defined (STM32L432xx) || defined (STM32L433xx) || defined (STM32L442xx
 758:/home/fanxinhao/Work/LiteOS_Lab/drivers/third_party/ST/STM32L4xx_HAL_Driver/Src/stm32l4xx_hal_flash.c ****     defined (STM32L451xx) || defined (STM32L452xx) || defined (STM32L462xx) || defined (STM32L496xx
 759:/home/fanxinhao/Work/LiteOS_Lab/drivers/third_party/ST/STM32L4xx_HAL_Driver/Src/stm32l4xx_hal_flash.c ****     defined (STM32L4R5xx) || defined (STM32L4R7xx) || defined (STM32L4R9xx) || defined (STM32L4S5xx
 760:/home/fanxinhao/Work/LiteOS_Lab/drivers/third_party/ST/STM32L4xx_HAL_Driver/Src/stm32l4xx_hal_flash.c ****   if(__HAL_FLASH_GET_FLAG(FLASH_FLAG_PEMPTY))
 761:/home/fanxinhao/Work/LiteOS_Lab/drivers/third_party/ST/STM32L4xx_HAL_Driver/Src/stm32l4xx_hal_flash.c ****   { 
 762:/home/fanxinhao/Work/LiteOS_Lab/drivers/third_party/ST/STM32L4xx_HAL_Driver/Src/stm32l4xx_hal_flash.c ****     pFlash.ErrorCode |= HAL_FLASH_ERROR_PEMPTY;
 763:/home/fanxinhao/Work/LiteOS_Lab/drivers/third_party/ST/STM32L4xx_HAL_Driver/Src/stm32l4xx_hal_flash.c ****     __HAL_FLASH_CLEAR_FLAG(FLASH_FLAG_PEMPTY);
 764:/home/fanxinhao/Work/LiteOS_Lab/drivers/third_party/ST/STM32L4xx_HAL_Driver/Src/stm32l4xx_hal_flash.c ****   }
 765:/home/fanxinhao/Work/LiteOS_Lab/drivers/third_party/ST/STM32L4xx_HAL_Driver/Src/stm32l4xx_hal_flash.c **** #endif
 766:/home/fanxinhao/Work/LiteOS_Lab/drivers/third_party/ST/STM32L4xx_HAL_Driver/Src/stm32l4xx_hal_flash.c ****   
 767:/home/fanxinhao/Work/LiteOS_Lab/drivers/third_party/ST/STM32L4xx_HAL_Driver/Src/stm32l4xx_hal_flash.c ****   /* Clear error programming flags */
 768:/home/fanxinhao/Work/LiteOS_Lab/drivers/third_party/ST/STM32L4xx_HAL_Driver/Src/stm32l4xx_hal_flash.c ****   __HAL_FLASH_CLEAR_FLAG(FLASH_FLAG_ALL_ERRORS);
 1422              		.loc 1 768 3 discriminator 1
 1423 0116 074B     		ldr	r3, .L93
 1424 0118 9B69     		ldr	r3, [r3, #24]
 1425 011a 064A     		ldr	r2, .L93
 1426 011c 43F00043 		orr	r3, r3, #-2147483648
 1427 0120 9361     		str	r3, [r2, #24]
 1428 0122 044B     		ldr	r3, .L93
 1429 0124 4CF2FA32 		movw	r2, #50170
 1430 0128 1A61     		str	r2, [r3, #16]
 769:/home/fanxinhao/Work/LiteOS_Lab/drivers/third_party/ST/STM32L4xx_HAL_Driver/Src/stm32l4xx_hal_flash.c **** } 
 1431              		.loc 1 769 1 discriminator 1
 1432 012a 00BF     		nop
 1433 012c BD46     		mov	sp, r7
 1434              	.LCFI58:
 1435              		.cfi_def_cfa_register 13
 1436              		@ sp needed
 1437 012e 5DF8047B 		ldr	r7, [sp], #4
 1438              	.LCFI59:
 1439              		.cfi_restore 7
 1440              		.cfi_def_cfa_offset 0
 1441 0132 7047     		bx	lr
 1442              	.L94:
 1443              		.align	2
 1444              	.L93:
 1445 0134 00200240 		.word	1073881088
 1446 0138 00000000 		.word	pFlash
 1447              		.cfi_endproc
 1448              	.LFE138:
 1450              		.section	.text.FLASH_Program_DoubleWord,"ax",%progbits
 1451              		.align	1
 1452              		.syntax unified
 1453              		.thumb
 1454              		.thumb_func
 1455              		.fpu fpv4-sp-d16
 1457              	FLASH_Program_DoubleWord:
 1458              	.LFB139:
 770:/home/fanxinhao/Work/LiteOS_Lab/drivers/third_party/ST/STM32L4xx_HAL_Driver/Src/stm32l4xx_hal_flash.c **** 
 771:/home/fanxinhao/Work/LiteOS_Lab/drivers/third_party/ST/STM32L4xx_HAL_Driver/Src/stm32l4xx_hal_flash.c **** /**
 772:/home/fanxinhao/Work/LiteOS_Lab/drivers/third_party/ST/STM32L4xx_HAL_Driver/Src/stm32l4xx_hal_flash.c ****   * @brief  Program double-word (64-bit) at a specified address.
 773:/home/fanxinhao/Work/LiteOS_Lab/drivers/third_party/ST/STM32L4xx_HAL_Driver/Src/stm32l4xx_hal_flash.c ****   * @param  Address: specifies the address to be programmed.
 774:/home/fanxinhao/Work/LiteOS_Lab/drivers/third_party/ST/STM32L4xx_HAL_Driver/Src/stm32l4xx_hal_flash.c ****   * @param  Data: specifies the data to be programmed.
 775:/home/fanxinhao/Work/LiteOS_Lab/drivers/third_party/ST/STM32L4xx_HAL_Driver/Src/stm32l4xx_hal_flash.c ****   * @retval None
 776:/home/fanxinhao/Work/LiteOS_Lab/drivers/third_party/ST/STM32L4xx_HAL_Driver/Src/stm32l4xx_hal_flash.c ****   */
 777:/home/fanxinhao/Work/LiteOS_Lab/drivers/third_party/ST/STM32L4xx_HAL_Driver/Src/stm32l4xx_hal_flash.c **** static void FLASH_Program_DoubleWord(uint32_t Address, uint64_t Data)
ARM GAS  /tmp/cco0QsaQ.s 			page 40


 778:/home/fanxinhao/Work/LiteOS_Lab/drivers/third_party/ST/STM32L4xx_HAL_Driver/Src/stm32l4xx_hal_flash.c **** {
 1459              		.loc 1 778 1
 1460              		.cfi_startproc
 1461              		@ args = 0, pretend = 0, frame = 16
 1462              		@ frame_needed = 1, uses_anonymous_args = 0
 1463              		@ link register save eliminated.
 1464 0000 80B4     		push	{r7}
 1465              	.LCFI60:
 1466              		.cfi_def_cfa_offset 4
 1467              		.cfi_offset 7, -4
 1468 0002 85B0     		sub	sp, sp, #20
 1469              	.LCFI61:
 1470              		.cfi_def_cfa_offset 24
 1471 0004 00AF     		add	r7, sp, #0
 1472              	.LCFI62:
 1473              		.cfi_def_cfa_register 7
 1474 0006 F860     		str	r0, [r7, #12]
 1475 0008 C7E90023 		strd	r2, [r7]
 779:/home/fanxinhao/Work/LiteOS_Lab/drivers/third_party/ST/STM32L4xx_HAL_Driver/Src/stm32l4xx_hal_flash.c ****   /* Check the parameters */
 780:/home/fanxinhao/Work/LiteOS_Lab/drivers/third_party/ST/STM32L4xx_HAL_Driver/Src/stm32l4xx_hal_flash.c ****   assert_param(IS_FLASH_PROGRAM_ADDRESS(Address));
 781:/home/fanxinhao/Work/LiteOS_Lab/drivers/third_party/ST/STM32L4xx_HAL_Driver/Src/stm32l4xx_hal_flash.c **** 
 782:/home/fanxinhao/Work/LiteOS_Lab/drivers/third_party/ST/STM32L4xx_HAL_Driver/Src/stm32l4xx_hal_flash.c ****   /* Set PG bit */
 783:/home/fanxinhao/Work/LiteOS_Lab/drivers/third_party/ST/STM32L4xx_HAL_Driver/Src/stm32l4xx_hal_flash.c ****   SET_BIT(FLASH->CR, FLASH_CR_PG);
 1476              		.loc 1 783 3
 1477 000c 0D4B     		ldr	r3, .L96
 1478 000e 5B69     		ldr	r3, [r3, #20]
 1479 0010 0C4A     		ldr	r2, .L96
 1480 0012 43F00103 		orr	r3, r3, #1
 1481 0016 5361     		str	r3, [r2, #20]
 784:/home/fanxinhao/Work/LiteOS_Lab/drivers/third_party/ST/STM32L4xx_HAL_Driver/Src/stm32l4xx_hal_flash.c ****   
 785:/home/fanxinhao/Work/LiteOS_Lab/drivers/third_party/ST/STM32L4xx_HAL_Driver/Src/stm32l4xx_hal_flash.c ****   /* Program the double word */
 786:/home/fanxinhao/Work/LiteOS_Lab/drivers/third_party/ST/STM32L4xx_HAL_Driver/Src/stm32l4xx_hal_flash.c ****   *(__IO uint32_t*)Address = (uint32_t)Data;
 1482              		.loc 1 786 4
 1483 0018 FB68     		ldr	r3, [r7, #12]
 1484              		.loc 1 786 30
 1485 001a 3A68     		ldr	r2, [r7]
 1486              		.loc 1 786 28
 1487 001c 1A60     		str	r2, [r3]
 787:/home/fanxinhao/Work/LiteOS_Lab/drivers/third_party/ST/STM32L4xx_HAL_Driver/Src/stm32l4xx_hal_flash.c ****   *(__IO uint32_t*)(Address+4) = (uint32_t)(Data >> 32);
 1488              		.loc 1 787 50
 1489 001e D7E90001 		ldrd	r0, [r7]
 1490 0022 4FF00002 		mov	r2, #0
 1491 0026 4FF00003 		mov	r3, #0
 1492 002a 0A00     		movs	r2, r1
 1493 002c 0023     		movs	r3, #0
 1494              		.loc 1 787 28
 1495 002e F968     		ldr	r1, [r7, #12]
 1496 0030 0431     		adds	r1, r1, #4
 1497              		.loc 1 787 34
 1498 0032 1346     		mov	r3, r2
 1499              		.loc 1 787 32
 1500 0034 0B60     		str	r3, [r1]
 788:/home/fanxinhao/Work/LiteOS_Lab/drivers/third_party/ST/STM32L4xx_HAL_Driver/Src/stm32l4xx_hal_flash.c **** }
 1501              		.loc 1 788 1
 1502 0036 00BF     		nop
 1503 0038 1437     		adds	r7, r7, #20
 1504              	.LCFI63:
ARM GAS  /tmp/cco0QsaQ.s 			page 41


 1505              		.cfi_def_cfa_offset 4
 1506 003a BD46     		mov	sp, r7
 1507              	.LCFI64:
 1508              		.cfi_def_cfa_register 13
 1509              		@ sp needed
 1510 003c 5DF8047B 		ldr	r7, [sp], #4
 1511              	.LCFI65:
 1512              		.cfi_restore 7
 1513              		.cfi_def_cfa_offset 0
 1514 0040 7047     		bx	lr
 1515              	.L97:
 1516 0042 00BF     		.align	2
 1517              	.L96:
 1518 0044 00200240 		.word	1073881088
 1519              		.cfi_endproc
 1520              	.LFE139:
 1522              		.section	.text.FLASH_Program_Fast,"ax",%progbits
 1523              		.align	1
 1524              		.syntax unified
 1525              		.thumb
 1526              		.thumb_func
 1527              		.fpu fpv4-sp-d16
 1529              	FLASH_Program_Fast:
 1530              	.LFB140:
 789:/home/fanxinhao/Work/LiteOS_Lab/drivers/third_party/ST/STM32L4xx_HAL_Driver/Src/stm32l4xx_hal_flash.c **** 
 790:/home/fanxinhao/Work/LiteOS_Lab/drivers/third_party/ST/STM32L4xx_HAL_Driver/Src/stm32l4xx_hal_flash.c **** /**
 791:/home/fanxinhao/Work/LiteOS_Lab/drivers/third_party/ST/STM32L4xx_HAL_Driver/Src/stm32l4xx_hal_flash.c ****   * @brief  Fast program a row double-word (64-bit) at a specified address.
 792:/home/fanxinhao/Work/LiteOS_Lab/drivers/third_party/ST/STM32L4xx_HAL_Driver/Src/stm32l4xx_hal_flash.c ****   * @param  Address: specifies the address to be programmed.
 793:/home/fanxinhao/Work/LiteOS_Lab/drivers/third_party/ST/STM32L4xx_HAL_Driver/Src/stm32l4xx_hal_flash.c ****   * @param  DataAddress: specifies the address where the data are stored.
 794:/home/fanxinhao/Work/LiteOS_Lab/drivers/third_party/ST/STM32L4xx_HAL_Driver/Src/stm32l4xx_hal_flash.c ****   * @retval None
 795:/home/fanxinhao/Work/LiteOS_Lab/drivers/third_party/ST/STM32L4xx_HAL_Driver/Src/stm32l4xx_hal_flash.c ****   */
 796:/home/fanxinhao/Work/LiteOS_Lab/drivers/third_party/ST/STM32L4xx_HAL_Driver/Src/stm32l4xx_hal_flash.c **** static void FLASH_Program_Fast(uint32_t Address, uint32_t DataAddress)
 797:/home/fanxinhao/Work/LiteOS_Lab/drivers/third_party/ST/STM32L4xx_HAL_Driver/Src/stm32l4xx_hal_flash.c **** {
 1531              		.loc 1 797 1
 1532              		.cfi_startproc
 1533              		@ args = 0, pretend = 0, frame = 24
 1534              		@ frame_needed = 1, uses_anonymous_args = 0
 1535              		@ link register save eliminated.
 1536 0000 80B4     		push	{r7}
 1537              	.LCFI66:
 1538              		.cfi_def_cfa_offset 4
 1539              		.cfi_offset 7, -4
 1540 0002 87B0     		sub	sp, sp, #28
 1541              	.LCFI67:
 1542              		.cfi_def_cfa_offset 32
 1543 0004 00AF     		add	r7, sp, #0
 1544              	.LCFI68:
 1545              		.cfi_def_cfa_register 7
 1546 0006 7860     		str	r0, [r7, #4]
 1547 0008 3960     		str	r1, [r7]
 798:/home/fanxinhao/Work/LiteOS_Lab/drivers/third_party/ST/STM32L4xx_HAL_Driver/Src/stm32l4xx_hal_flash.c ****   uint8_t row_index = (2*FLASH_NB_DOUBLE_WORDS_IN_ROW);
 1548              		.loc 1 798 11
 1549 000a 4023     		movs	r3, #64
 1550 000c FB75     		strb	r3, [r7, #23]
 799:/home/fanxinhao/Work/LiteOS_Lab/drivers/third_party/ST/STM32L4xx_HAL_Driver/Src/stm32l4xx_hal_flash.c ****   __IO uint32_t *dest_addr = (__IO uint32_t*)Address;
 1551              		.loc 1 799 18
 1552 000e 7B68     		ldr	r3, [r7, #4]
ARM GAS  /tmp/cco0QsaQ.s 			page 42


 1553 0010 3B61     		str	r3, [r7, #16]
 800:/home/fanxinhao/Work/LiteOS_Lab/drivers/third_party/ST/STM32L4xx_HAL_Driver/Src/stm32l4xx_hal_flash.c ****   __IO uint32_t *src_addr = (__IO uint32_t*)DataAddress;
 1554              		.loc 1 800 18
 1555 0012 3B68     		ldr	r3, [r7]
 1556 0014 FB60     		str	r3, [r7, #12]
 801:/home/fanxinhao/Work/LiteOS_Lab/drivers/third_party/ST/STM32L4xx_HAL_Driver/Src/stm32l4xx_hal_flash.c **** 
 802:/home/fanxinhao/Work/LiteOS_Lab/drivers/third_party/ST/STM32L4xx_HAL_Driver/Src/stm32l4xx_hal_flash.c ****   /* Check the parameters */
 803:/home/fanxinhao/Work/LiteOS_Lab/drivers/third_party/ST/STM32L4xx_HAL_Driver/Src/stm32l4xx_hal_flash.c ****   assert_param(IS_FLASH_MAIN_MEM_ADDRESS(Address));
 804:/home/fanxinhao/Work/LiteOS_Lab/drivers/third_party/ST/STM32L4xx_HAL_Driver/Src/stm32l4xx_hal_flash.c **** 
 805:/home/fanxinhao/Work/LiteOS_Lab/drivers/third_party/ST/STM32L4xx_HAL_Driver/Src/stm32l4xx_hal_flash.c ****   /* Set FSTPG bit */
 806:/home/fanxinhao/Work/LiteOS_Lab/drivers/third_party/ST/STM32L4xx_HAL_Driver/Src/stm32l4xx_hal_flash.c ****   SET_BIT(FLASH->CR, FLASH_CR_FSTPG);
 1557              		.loc 1 806 3
 1558 0016 0F4B     		ldr	r3, .L100
 1559 0018 5B69     		ldr	r3, [r3, #20]
 1560 001a 0E4A     		ldr	r2, .L100
 1561 001c 43F48023 		orr	r3, r3, #262144
 1562 0020 5361     		str	r3, [r2, #20]
 1563              	.LBB6:
 1564              	.LBB7:
 1565              		.file 2 "/home/fanxinhao/Work/LiteOS_Lab/iot_link/os/liteos/arch/arm/common/cmsis/cmsis_gcc.h"
   1:/home/fanxinhao/Work/LiteOS_Lab/iot_link/os/liteos/arch/arm/common/cmsis/cmsis_gcc.h **** /**************************************************************************//**
   2:/home/fanxinhao/Work/LiteOS_Lab/iot_link/os/liteos/arch/arm/common/cmsis/cmsis_gcc.h ****  * @file     cmsis_gcc.h
   3:/home/fanxinhao/Work/LiteOS_Lab/iot_link/os/liteos/arch/arm/common/cmsis/cmsis_gcc.h ****  * @brief    CMSIS compiler GCC header file
   4:/home/fanxinhao/Work/LiteOS_Lab/iot_link/os/liteos/arch/arm/common/cmsis/cmsis_gcc.h ****  * @version  V5.0.1
   5:/home/fanxinhao/Work/LiteOS_Lab/iot_link/os/liteos/arch/arm/common/cmsis/cmsis_gcc.h ****  * @date     02. February 2017
   6:/home/fanxinhao/Work/LiteOS_Lab/iot_link/os/liteos/arch/arm/common/cmsis/cmsis_gcc.h ****  ******************************************************************************/
   7:/home/fanxinhao/Work/LiteOS_Lab/iot_link/os/liteos/arch/arm/common/cmsis/cmsis_gcc.h **** /*
   8:/home/fanxinhao/Work/LiteOS_Lab/iot_link/os/liteos/arch/arm/common/cmsis/cmsis_gcc.h ****  * Copyright (c) 2009-2017 ARM Limited. All rights reserved.
   9:/home/fanxinhao/Work/LiteOS_Lab/iot_link/os/liteos/arch/arm/common/cmsis/cmsis_gcc.h ****  *
  10:/home/fanxinhao/Work/LiteOS_Lab/iot_link/os/liteos/arch/arm/common/cmsis/cmsis_gcc.h ****  * SPDX-License-Identifier: Apache-2.0
  11:/home/fanxinhao/Work/LiteOS_Lab/iot_link/os/liteos/arch/arm/common/cmsis/cmsis_gcc.h ****  *
  12:/home/fanxinhao/Work/LiteOS_Lab/iot_link/os/liteos/arch/arm/common/cmsis/cmsis_gcc.h ****  * Licensed under the Apache License, Version 2.0 (the License); you may
  13:/home/fanxinhao/Work/LiteOS_Lab/iot_link/os/liteos/arch/arm/common/cmsis/cmsis_gcc.h ****  * not use this file except in compliance with the License.
  14:/home/fanxinhao/Work/LiteOS_Lab/iot_link/os/liteos/arch/arm/common/cmsis/cmsis_gcc.h ****  * You may obtain a copy of the License at
  15:/home/fanxinhao/Work/LiteOS_Lab/iot_link/os/liteos/arch/arm/common/cmsis/cmsis_gcc.h ****  *
  16:/home/fanxinhao/Work/LiteOS_Lab/iot_link/os/liteos/arch/arm/common/cmsis/cmsis_gcc.h ****  * www.apache.org/licenses/LICENSE-2.0
  17:/home/fanxinhao/Work/LiteOS_Lab/iot_link/os/liteos/arch/arm/common/cmsis/cmsis_gcc.h ****  *
  18:/home/fanxinhao/Work/LiteOS_Lab/iot_link/os/liteos/arch/arm/common/cmsis/cmsis_gcc.h ****  * Unless required by applicable law or agreed to in writing, software
  19:/home/fanxinhao/Work/LiteOS_Lab/iot_link/os/liteos/arch/arm/common/cmsis/cmsis_gcc.h ****  * distributed under the License is distributed on an AS IS BASIS, WITHOUT
  20:/home/fanxinhao/Work/LiteOS_Lab/iot_link/os/liteos/arch/arm/common/cmsis/cmsis_gcc.h ****  * WARRANTIES OR CONDITIONS OF ANY KIND, either express or implied.
  21:/home/fanxinhao/Work/LiteOS_Lab/iot_link/os/liteos/arch/arm/common/cmsis/cmsis_gcc.h ****  * See the License for the specific language governing permissions and
  22:/home/fanxinhao/Work/LiteOS_Lab/iot_link/os/liteos/arch/arm/common/cmsis/cmsis_gcc.h ****  * limitations under the License.
  23:/home/fanxinhao/Work/LiteOS_Lab/iot_link/os/liteos/arch/arm/common/cmsis/cmsis_gcc.h ****  */
  24:/home/fanxinhao/Work/LiteOS_Lab/iot_link/os/liteos/arch/arm/common/cmsis/cmsis_gcc.h **** 
  25:/home/fanxinhao/Work/LiteOS_Lab/iot_link/os/liteos/arch/arm/common/cmsis/cmsis_gcc.h **** #ifndef __CMSIS_GCC_H
  26:/home/fanxinhao/Work/LiteOS_Lab/iot_link/os/liteos/arch/arm/common/cmsis/cmsis_gcc.h **** #define __CMSIS_GCC_H
  27:/home/fanxinhao/Work/LiteOS_Lab/iot_link/os/liteos/arch/arm/common/cmsis/cmsis_gcc.h **** 
  28:/home/fanxinhao/Work/LiteOS_Lab/iot_link/os/liteos/arch/arm/common/cmsis/cmsis_gcc.h **** /* ignore some GCC warnings */
  29:/home/fanxinhao/Work/LiteOS_Lab/iot_link/os/liteos/arch/arm/common/cmsis/cmsis_gcc.h **** #pragma GCC diagnostic push
  30:/home/fanxinhao/Work/LiteOS_Lab/iot_link/os/liteos/arch/arm/common/cmsis/cmsis_gcc.h **** #pragma GCC diagnostic ignored "-Wsign-conversion"
  31:/home/fanxinhao/Work/LiteOS_Lab/iot_link/os/liteos/arch/arm/common/cmsis/cmsis_gcc.h **** #pragma GCC diagnostic ignored "-Wconversion"
  32:/home/fanxinhao/Work/LiteOS_Lab/iot_link/os/liteos/arch/arm/common/cmsis/cmsis_gcc.h **** #pragma GCC diagnostic ignored "-Wunused-parameter"
  33:/home/fanxinhao/Work/LiteOS_Lab/iot_link/os/liteos/arch/arm/common/cmsis/cmsis_gcc.h **** 
  34:/home/fanxinhao/Work/LiteOS_Lab/iot_link/os/liteos/arch/arm/common/cmsis/cmsis_gcc.h **** /* CMSIS compiler specific defines */
  35:/home/fanxinhao/Work/LiteOS_Lab/iot_link/os/liteos/arch/arm/common/cmsis/cmsis_gcc.h **** #ifndef   __ASM
  36:/home/fanxinhao/Work/LiteOS_Lab/iot_link/os/liteos/arch/arm/common/cmsis/cmsis_gcc.h ****   #define __ASM                     __asm
  37:/home/fanxinhao/Work/LiteOS_Lab/iot_link/os/liteos/arch/arm/common/cmsis/cmsis_gcc.h **** #endif
ARM GAS  /tmp/cco0QsaQ.s 			page 43


  38:/home/fanxinhao/Work/LiteOS_Lab/iot_link/os/liteos/arch/arm/common/cmsis/cmsis_gcc.h **** #ifndef   __INLINE
  39:/home/fanxinhao/Work/LiteOS_Lab/iot_link/os/liteos/arch/arm/common/cmsis/cmsis_gcc.h ****   #define __INLINE                  inline
  40:/home/fanxinhao/Work/LiteOS_Lab/iot_link/os/liteos/arch/arm/common/cmsis/cmsis_gcc.h **** #endif
  41:/home/fanxinhao/Work/LiteOS_Lab/iot_link/os/liteos/arch/arm/common/cmsis/cmsis_gcc.h **** #ifndef   __STATIC_INLINE
  42:/home/fanxinhao/Work/LiteOS_Lab/iot_link/os/liteos/arch/arm/common/cmsis/cmsis_gcc.h ****   #define __STATIC_INLINE           static inline
  43:/home/fanxinhao/Work/LiteOS_Lab/iot_link/os/liteos/arch/arm/common/cmsis/cmsis_gcc.h **** #endif
  44:/home/fanxinhao/Work/LiteOS_Lab/iot_link/os/liteos/arch/arm/common/cmsis/cmsis_gcc.h **** #ifndef   __NO_RETURN
  45:/home/fanxinhao/Work/LiteOS_Lab/iot_link/os/liteos/arch/arm/common/cmsis/cmsis_gcc.h ****   #define __NO_RETURN               __attribute__((noreturn))
  46:/home/fanxinhao/Work/LiteOS_Lab/iot_link/os/liteos/arch/arm/common/cmsis/cmsis_gcc.h **** #endif
  47:/home/fanxinhao/Work/LiteOS_Lab/iot_link/os/liteos/arch/arm/common/cmsis/cmsis_gcc.h **** #ifndef   __USED
  48:/home/fanxinhao/Work/LiteOS_Lab/iot_link/os/liteos/arch/arm/common/cmsis/cmsis_gcc.h ****   #define __USED                    __attribute__((used))
  49:/home/fanxinhao/Work/LiteOS_Lab/iot_link/os/liteos/arch/arm/common/cmsis/cmsis_gcc.h **** #endif
  50:/home/fanxinhao/Work/LiteOS_Lab/iot_link/os/liteos/arch/arm/common/cmsis/cmsis_gcc.h **** #ifndef   __WEAK
  51:/home/fanxinhao/Work/LiteOS_Lab/iot_link/os/liteos/arch/arm/common/cmsis/cmsis_gcc.h ****   #define __WEAK                    __attribute__((weak))
  52:/home/fanxinhao/Work/LiteOS_Lab/iot_link/os/liteos/arch/arm/common/cmsis/cmsis_gcc.h **** #endif
  53:/home/fanxinhao/Work/LiteOS_Lab/iot_link/os/liteos/arch/arm/common/cmsis/cmsis_gcc.h **** #ifndef   __UNALIGNED_UINT32
  54:/home/fanxinhao/Work/LiteOS_Lab/iot_link/os/liteos/arch/arm/common/cmsis/cmsis_gcc.h **** #pragma GCC diagnostic push
  55:/home/fanxinhao/Work/LiteOS_Lab/iot_link/os/liteos/arch/arm/common/cmsis/cmsis_gcc.h **** #pragma GCC diagnostic ignored "-Wpacked"
  56:/home/fanxinhao/Work/LiteOS_Lab/iot_link/os/liteos/arch/arm/common/cmsis/cmsis_gcc.h **** #pragma GCC diagnostic ignored "-Wattributes"
  57:/home/fanxinhao/Work/LiteOS_Lab/iot_link/os/liteos/arch/arm/common/cmsis/cmsis_gcc.h ****   struct __attribute__((packed)) T_UINT32 { uint32_t v; };
  58:/home/fanxinhao/Work/LiteOS_Lab/iot_link/os/liteos/arch/arm/common/cmsis/cmsis_gcc.h **** #pragma GCC diagnostic pop
  59:/home/fanxinhao/Work/LiteOS_Lab/iot_link/os/liteos/arch/arm/common/cmsis/cmsis_gcc.h ****   #define __UNALIGNED_UINT32(x)     (((struct T_UINT32 *)(x))->v)
  60:/home/fanxinhao/Work/LiteOS_Lab/iot_link/os/liteos/arch/arm/common/cmsis/cmsis_gcc.h **** #endif
  61:/home/fanxinhao/Work/LiteOS_Lab/iot_link/os/liteos/arch/arm/common/cmsis/cmsis_gcc.h **** #ifndef   __ALIGNED
  62:/home/fanxinhao/Work/LiteOS_Lab/iot_link/os/liteos/arch/arm/common/cmsis/cmsis_gcc.h ****   #define __ALIGNED(x)              __attribute__((aligned(x)))
  63:/home/fanxinhao/Work/LiteOS_Lab/iot_link/os/liteos/arch/arm/common/cmsis/cmsis_gcc.h **** #endif
  64:/home/fanxinhao/Work/LiteOS_Lab/iot_link/os/liteos/arch/arm/common/cmsis/cmsis_gcc.h **** #ifndef   __PACKED
  65:/home/fanxinhao/Work/LiteOS_Lab/iot_link/os/liteos/arch/arm/common/cmsis/cmsis_gcc.h ****   #define __PACKED                  __attribute__((packed, aligned(1)))
  66:/home/fanxinhao/Work/LiteOS_Lab/iot_link/os/liteos/arch/arm/common/cmsis/cmsis_gcc.h **** #endif
  67:/home/fanxinhao/Work/LiteOS_Lab/iot_link/os/liteos/arch/arm/common/cmsis/cmsis_gcc.h **** #ifndef   __PACKED_STRUCT
  68:/home/fanxinhao/Work/LiteOS_Lab/iot_link/os/liteos/arch/arm/common/cmsis/cmsis_gcc.h ****   #define __PACKED_STRUCT           struct __attribute__((packed, aligned(1)))
  69:/home/fanxinhao/Work/LiteOS_Lab/iot_link/os/liteos/arch/arm/common/cmsis/cmsis_gcc.h **** #endif
  70:/home/fanxinhao/Work/LiteOS_Lab/iot_link/os/liteos/arch/arm/common/cmsis/cmsis_gcc.h **** 
  71:/home/fanxinhao/Work/LiteOS_Lab/iot_link/os/liteos/arch/arm/common/cmsis/cmsis_gcc.h **** 
  72:/home/fanxinhao/Work/LiteOS_Lab/iot_link/os/liteos/arch/arm/common/cmsis/cmsis_gcc.h **** /* ###########################  Core Function Access  ########################### */
  73:/home/fanxinhao/Work/LiteOS_Lab/iot_link/os/liteos/arch/arm/common/cmsis/cmsis_gcc.h **** /** \ingroup  CMSIS_Core_FunctionInterface
  74:/home/fanxinhao/Work/LiteOS_Lab/iot_link/os/liteos/arch/arm/common/cmsis/cmsis_gcc.h ****     \defgroup CMSIS_Core_RegAccFunctions CMSIS Core Register Access Functions
  75:/home/fanxinhao/Work/LiteOS_Lab/iot_link/os/liteos/arch/arm/common/cmsis/cmsis_gcc.h ****   @{
  76:/home/fanxinhao/Work/LiteOS_Lab/iot_link/os/liteos/arch/arm/common/cmsis/cmsis_gcc.h ****  */
  77:/home/fanxinhao/Work/LiteOS_Lab/iot_link/os/liteos/arch/arm/common/cmsis/cmsis_gcc.h **** 
  78:/home/fanxinhao/Work/LiteOS_Lab/iot_link/os/liteos/arch/arm/common/cmsis/cmsis_gcc.h **** /**
  79:/home/fanxinhao/Work/LiteOS_Lab/iot_link/os/liteos/arch/arm/common/cmsis/cmsis_gcc.h ****   \brief   Enable IRQ Interrupts
  80:/home/fanxinhao/Work/LiteOS_Lab/iot_link/os/liteos/arch/arm/common/cmsis/cmsis_gcc.h ****   \details Enables IRQ interrupts by clearing the I-bit in the CPSR.
  81:/home/fanxinhao/Work/LiteOS_Lab/iot_link/os/liteos/arch/arm/common/cmsis/cmsis_gcc.h ****            Can only be executed in Privileged modes.
  82:/home/fanxinhao/Work/LiteOS_Lab/iot_link/os/liteos/arch/arm/common/cmsis/cmsis_gcc.h ****  */
  83:/home/fanxinhao/Work/LiteOS_Lab/iot_link/os/liteos/arch/arm/common/cmsis/cmsis_gcc.h **** __attribute__((always_inline)) __STATIC_INLINE void __enable_irq(void)
  84:/home/fanxinhao/Work/LiteOS_Lab/iot_link/os/liteos/arch/arm/common/cmsis/cmsis_gcc.h **** {
  85:/home/fanxinhao/Work/LiteOS_Lab/iot_link/os/liteos/arch/arm/common/cmsis/cmsis_gcc.h ****   __ASM volatile ("cpsie i" : : : "memory");
  86:/home/fanxinhao/Work/LiteOS_Lab/iot_link/os/liteos/arch/arm/common/cmsis/cmsis_gcc.h **** }
  87:/home/fanxinhao/Work/LiteOS_Lab/iot_link/os/liteos/arch/arm/common/cmsis/cmsis_gcc.h **** 
  88:/home/fanxinhao/Work/LiteOS_Lab/iot_link/os/liteos/arch/arm/common/cmsis/cmsis_gcc.h **** 
  89:/home/fanxinhao/Work/LiteOS_Lab/iot_link/os/liteos/arch/arm/common/cmsis/cmsis_gcc.h **** /**
  90:/home/fanxinhao/Work/LiteOS_Lab/iot_link/os/liteos/arch/arm/common/cmsis/cmsis_gcc.h ****   \brief   Disable IRQ Interrupts
  91:/home/fanxinhao/Work/LiteOS_Lab/iot_link/os/liteos/arch/arm/common/cmsis/cmsis_gcc.h ****   \details Disables IRQ interrupts by setting the I-bit in the CPSR.
  92:/home/fanxinhao/Work/LiteOS_Lab/iot_link/os/liteos/arch/arm/common/cmsis/cmsis_gcc.h ****            Can only be executed in Privileged modes.
  93:/home/fanxinhao/Work/LiteOS_Lab/iot_link/os/liteos/arch/arm/common/cmsis/cmsis_gcc.h ****  */
  94:/home/fanxinhao/Work/LiteOS_Lab/iot_link/os/liteos/arch/arm/common/cmsis/cmsis_gcc.h **** __attribute__((always_inline)) __STATIC_INLINE void __disable_irq(void)
ARM GAS  /tmp/cco0QsaQ.s 			page 44


  95:/home/fanxinhao/Work/LiteOS_Lab/iot_link/os/liteos/arch/arm/common/cmsis/cmsis_gcc.h **** {
  96:/home/fanxinhao/Work/LiteOS_Lab/iot_link/os/liteos/arch/arm/common/cmsis/cmsis_gcc.h ****   __ASM volatile ("cpsid i" : : : "memory");
 1566              		.loc 2 96 3
 1567              		.syntax unified
 1568              	@ 96 "/home/fanxinhao/Work/LiteOS_Lab/iot_link/os/liteos/arch/arm/common/cmsis/cmsis_gcc.h" 1
 1569 0022 72B6     		cpsid i
 1570              	@ 0 "" 2
  97:/home/fanxinhao/Work/LiteOS_Lab/iot_link/os/liteos/arch/arm/common/cmsis/cmsis_gcc.h **** }
 1571              		.loc 2 97 1
 1572              		.thumb
 1573              		.syntax unified
 1574 0024 00BF     		nop
 1575              	.L99:
 1576              	.LBE7:
 1577              	.LBE6:
 807:/home/fanxinhao/Work/LiteOS_Lab/drivers/third_party/ST/STM32L4xx_HAL_Driver/Src/stm32l4xx_hal_flash.c ****   
 808:/home/fanxinhao/Work/LiteOS_Lab/drivers/third_party/ST/STM32L4xx_HAL_Driver/Src/stm32l4xx_hal_flash.c ****   /* Disable interrupts to avoid any interruption during the loop */
 809:/home/fanxinhao/Work/LiteOS_Lab/drivers/third_party/ST/STM32L4xx_HAL_Driver/Src/stm32l4xx_hal_flash.c ****   __disable_irq();
 810:/home/fanxinhao/Work/LiteOS_Lab/drivers/third_party/ST/STM32L4xx_HAL_Driver/Src/stm32l4xx_hal_flash.c ****   
 811:/home/fanxinhao/Work/LiteOS_Lab/drivers/third_party/ST/STM32L4xx_HAL_Driver/Src/stm32l4xx_hal_flash.c ****   /* Program the double word of the row */
 812:/home/fanxinhao/Work/LiteOS_Lab/drivers/third_party/ST/STM32L4xx_HAL_Driver/Src/stm32l4xx_hal_flash.c ****   do
 813:/home/fanxinhao/Work/LiteOS_Lab/drivers/third_party/ST/STM32L4xx_HAL_Driver/Src/stm32l4xx_hal_flash.c ****   {
 814:/home/fanxinhao/Work/LiteOS_Lab/drivers/third_party/ST/STM32L4xx_HAL_Driver/Src/stm32l4xx_hal_flash.c ****     *dest_addr++ = *src_addr++;
 1578              		.loc 1 814 29 discriminator 1
 1579 0026 FA68     		ldr	r2, [r7, #12]
 1580 0028 131D     		adds	r3, r2, #4
 1581 002a FB60     		str	r3, [r7, #12]
 1582              		.loc 1 814 15 discriminator 1
 1583 002c 3B69     		ldr	r3, [r7, #16]
 1584 002e 191D     		adds	r1, r3, #4
 1585 0030 3961     		str	r1, [r7, #16]
 1586              		.loc 1 814 20 discriminator 1
 1587 0032 1268     		ldr	r2, [r2]
 1588              		.loc 1 814 18 discriminator 1
 1589 0034 1A60     		str	r2, [r3]
 815:/home/fanxinhao/Work/LiteOS_Lab/drivers/third_party/ST/STM32L4xx_HAL_Driver/Src/stm32l4xx_hal_flash.c ****   } while (--row_index != 0);
 1590              		.loc 1 815 3 discriminator 1
 1591 0036 FB7D     		ldrb	r3, [r7, #23]
 1592 0038 013B     		subs	r3, r3, #1
 1593 003a FB75     		strb	r3, [r7, #23]
 1594 003c FB7D     		ldrb	r3, [r7, #23]	@ zero_extendqisi2
 1595 003e 002B     		cmp	r3, #0
 1596 0040 F1D1     		bne	.L99
 1597              	.LBB8:
 1598              	.LBB9:
  85:/home/fanxinhao/Work/LiteOS_Lab/iot_link/os/liteos/arch/arm/common/cmsis/cmsis_gcc.h **** }
 1599              		.loc 2 85 3
 1600              		.syntax unified
 1601              	@ 85 "/home/fanxinhao/Work/LiteOS_Lab/iot_link/os/liteos/arch/arm/common/cmsis/cmsis_gcc.h" 1
 1602 0042 62B6     		cpsie i
 1603              	@ 0 "" 2
  86:/home/fanxinhao/Work/LiteOS_Lab/iot_link/os/liteos/arch/arm/common/cmsis/cmsis_gcc.h **** 
 1604              		.loc 2 86 1
 1605              		.thumb
 1606              		.syntax unified
 1607 0044 00BF     		nop
 1608              	.LBE9:
ARM GAS  /tmp/cco0QsaQ.s 			page 45


 1609              	.LBE8:
 816:/home/fanxinhao/Work/LiteOS_Lab/drivers/third_party/ST/STM32L4xx_HAL_Driver/Src/stm32l4xx_hal_flash.c **** 
 817:/home/fanxinhao/Work/LiteOS_Lab/drivers/third_party/ST/STM32L4xx_HAL_Driver/Src/stm32l4xx_hal_flash.c ****   /* Re-enable the interrupts */
 818:/home/fanxinhao/Work/LiteOS_Lab/drivers/third_party/ST/STM32L4xx_HAL_Driver/Src/stm32l4xx_hal_flash.c ****   __enable_irq();
 819:/home/fanxinhao/Work/LiteOS_Lab/drivers/third_party/ST/STM32L4xx_HAL_Driver/Src/stm32l4xx_hal_flash.c **** }
 1610              		.loc 1 819 1
 1611 0046 00BF     		nop
 1612 0048 1C37     		adds	r7, r7, #28
 1613              	.LCFI69:
 1614              		.cfi_def_cfa_offset 4
 1615 004a BD46     		mov	sp, r7
 1616              	.LCFI70:
 1617              		.cfi_def_cfa_register 13
 1618              		@ sp needed
 1619 004c 5DF8047B 		ldr	r7, [sp], #4
 1620              	.LCFI71:
 1621              		.cfi_restore 7
 1622              		.cfi_def_cfa_offset 0
 1623 0050 7047     		bx	lr
 1624              	.L101:
 1625 0052 00BF     		.align	2
 1626              	.L100:
 1627 0054 00200240 		.word	1073881088
 1628              		.cfi_endproc
 1629              	.LFE140:
 1631              		.text
 1632              	.Letext0:
 1633              		.file 3 "/home/fanxinhao/toolchain/gcc-arm-none-eabi-9-2019-q4-major/arm-none-eabi/include/machine
 1634              		.file 4 "/home/fanxinhao/toolchain/gcc-arm-none-eabi-9-2019-q4-major/arm-none-eabi/include/sys/_st
 1635              		.file 5 "/home/fanxinhao/Work/LiteOS_Lab/iot_link/os/liteos/arch/arm/common/cmsis/core_cm4.h"
 1636              		.file 6 "/home/fanxinhao/Work/LiteOS_Lab/targets/STM32L476RG_NB476/Inc/system_stm32l4xx.h"
 1637              		.file 7 "/home/fanxinhao/Work/LiteOS_Lab/targets/STM32L476RG_NB476/Inc/stm32l476xx.h"
 1638              		.file 8 "/home/fanxinhao/toolchain/gcc-arm-none-eabi-9-2019-q4-major/arm-none-eabi/include/sys/loc
 1639              		.file 9 "/home/fanxinhao/toolchain/gcc-arm-none-eabi-9-2019-q4-major/arm-none-eabi/include/sys/_ty
 1640              		.file 10 "/home/fanxinhao/toolchain/gcc-arm-none-eabi-9-2019-q4-major/lib/gcc/arm-none-eabi/9.2.1/
 1641              		.file 11 "/home/fanxinhao/toolchain/gcc-arm-none-eabi-9-2019-q4-major/arm-none-eabi/include/sys/re
 1642              		.file 12 "/home/fanxinhao/Work/LiteOS_Lab/targets/STM32L476RG_NB476/Inc/stm32l4xx.h"
 1643              		.file 13 "/home/fanxinhao/Work/LiteOS_Lab/drivers/third_party/ST/STM32L4xx_HAL_Driver/Inc/stm32l4x
 1644              		.file 14 "/home/fanxinhao/Work/LiteOS_Lab/drivers/third_party/ST/STM32L4xx_HAL_Driver/Inc/stm32l4x
ARM GAS  /tmp/cco0QsaQ.s 			page 46

