ARM GAS  /tmp/ccRaplPO.s 			page 1


   1              		.cpu cortex-m4
   2              		.eabi_attribute 27, 1
   3              		.eabi_attribute 28, 1
   4              		.eabi_attribute 20, 1
   5              		.eabi_attribute 21, 1
   6              		.eabi_attribute 23, 3
   7              		.eabi_attribute 24, 1
   8              		.eabi_attribute 25, 1
   9              		.eabi_attribute 26, 1
  10              		.eabi_attribute 30, 6
  11              		.eabi_attribute 34, 1
  12              		.eabi_attribute 18, 4
  13              		.file	"boudica120_oc.c"
  14              		.text
  15              	.Ltext0:
  16              		.cfi_sections	.debug_frame
  17              		.section	.bss.s_boudica120_oc_cb,"aw",%nobits
  18              		.align	2
  21              	s_boudica120_oc_cb:
  22 0000 00000000 		.space	340
  22      00000000 
  22      00000000 
  22      00000000 
  22      00000000 
  23              		.section	.bss.s_report_mutex,"aw",%nobits
  24              		.align	2
  27              	s_report_mutex:
  28 0000 00000000 		.space	4
  29              		.section	.bss.s_oc_handle,"aw",%nobits
  30              		.align	2
  33              	s_oc_handle:
  34 0000 00000000 		.space	4
  35              		.global	wireless_stats
  36              		.section	.bss.wireless_stats,"aw",%nobits
  37              		.align	2
  40              	wireless_stats:
  41 0000 00000000 		.space	16
  41      00000000 
  41      00000000 
  41      00000000 
  42              		.section	.text.boudica120_atcmd,"ax",%progbits
  43              		.align	1
  44              		.arch armv7e-m
  45              		.syntax unified
  46              		.thumb
  47              		.thumb_func
  48              		.fpu fpv4-sp-d16
  50              	boudica120_atcmd:
  51              	.LFB3:
  52              		.file 1 "/home/fanxinhao/Work/LiteOS_Lab_2/iot_link/oc/oc_coap/boudica120_oc/boudica120_oc.c"
   1:/home/fanxinhao/Work/LiteOS_Lab_2/iot_link/oc/oc_coap/boudica120_oc/boudica120_oc.c **** /*----------------------------------------------------------------------------
   2:/home/fanxinhao/Work/LiteOS_Lab_2/iot_link/oc/oc_coap/boudica120_oc/boudica120_oc.c ****  * Copyright (c) <2016-2018>, <Huawei Technologies Co., Ltd>
   3:/home/fanxinhao/Work/LiteOS_Lab_2/iot_link/oc/oc_coap/boudica120_oc/boudica120_oc.c ****  * All rights reserved.
   4:/home/fanxinhao/Work/LiteOS_Lab_2/iot_link/oc/oc_coap/boudica120_oc/boudica120_oc.c ****  * Redistribution and use in source and binary forms, with or without modification,
   5:/home/fanxinhao/Work/LiteOS_Lab_2/iot_link/oc/oc_coap/boudica120_oc/boudica120_oc.c ****  * are permitted provided that the following conditions are met:
   6:/home/fanxinhao/Work/LiteOS_Lab_2/iot_link/oc/oc_coap/boudica120_oc/boudica120_oc.c ****  * 1. Redistributions of source code must retain the above copyright notice, this list of
   7:/home/fanxinhao/Work/LiteOS_Lab_2/iot_link/oc/oc_coap/boudica120_oc/boudica120_oc.c ****  * conditions and the following disclaimer.
ARM GAS  /tmp/ccRaplPO.s 			page 2


   8:/home/fanxinhao/Work/LiteOS_Lab_2/iot_link/oc/oc_coap/boudica120_oc/boudica120_oc.c ****  * 2. Redistributions in binary form must reproduce the above copyright notice, this list
   9:/home/fanxinhao/Work/LiteOS_Lab_2/iot_link/oc/oc_coap/boudica120_oc/boudica120_oc.c ****  * of conditions and the following disclaimer in the documentation and/or other materials
  10:/home/fanxinhao/Work/LiteOS_Lab_2/iot_link/oc/oc_coap/boudica120_oc/boudica120_oc.c ****  * provided with the distribution.
  11:/home/fanxinhao/Work/LiteOS_Lab_2/iot_link/oc/oc_coap/boudica120_oc/boudica120_oc.c ****  * 3. Neither the name of the copyright holder nor the names of its contributors may be used
  12:/home/fanxinhao/Work/LiteOS_Lab_2/iot_link/oc/oc_coap/boudica120_oc/boudica120_oc.c ****  * to endorse or promote products derived from this software without specific prior written
  13:/home/fanxinhao/Work/LiteOS_Lab_2/iot_link/oc/oc_coap/boudica120_oc/boudica120_oc.c ****  * permission.
  14:/home/fanxinhao/Work/LiteOS_Lab_2/iot_link/oc/oc_coap/boudica120_oc/boudica120_oc.c ****  * THIS SOFTWARE IS PROVIDED BY THE COPYRIGHT HOLDERS AND CONTRIBUTORS
  15:/home/fanxinhao/Work/LiteOS_Lab_2/iot_link/oc/oc_coap/boudica120_oc/boudica120_oc.c ****  * "AS IS" AND ANY EXPRESS OR IMPLIED WARRANTIES, INCLUDING, BUT NOT LIMITED TO,
  16:/home/fanxinhao/Work/LiteOS_Lab_2/iot_link/oc/oc_coap/boudica120_oc/boudica120_oc.c ****  * THE IMPLIED WARRANTIES OF MERCHANTABILITY AND FITNESS FOR A PARTICULAR
  17:/home/fanxinhao/Work/LiteOS_Lab_2/iot_link/oc/oc_coap/boudica120_oc/boudica120_oc.c ****  * PURPOSE ARE DISCLAIMED. IN NO EVENT SHALL THE COPYRIGHT HOLDER OR
  18:/home/fanxinhao/Work/LiteOS_Lab_2/iot_link/oc/oc_coap/boudica120_oc/boudica120_oc.c ****  * CONTRIBUTORS BE LIABLE FOR ANY DIRECT, INDIRECT, INCIDENTAL, SPECIAL,
  19:/home/fanxinhao/Work/LiteOS_Lab_2/iot_link/oc/oc_coap/boudica120_oc/boudica120_oc.c ****  * EXEMPLARY, OR CONSEQUENTIAL DAMAGES (INCLUDING, BUT NOT LIMITED TO,
  20:/home/fanxinhao/Work/LiteOS_Lab_2/iot_link/oc/oc_coap/boudica120_oc/boudica120_oc.c ****  * PROCUREMENT OF SUBSTITUTE GOODS OR SERVICES; LOSS OF USE, DATA, OR PROFITS;
  21:/home/fanxinhao/Work/LiteOS_Lab_2/iot_link/oc/oc_coap/boudica120_oc/boudica120_oc.c ****  * OR BUSINESS INTERRUPTION) HOWEVER CAUSED AND ON ANY THEORY OF LIABILITY,
  22:/home/fanxinhao/Work/LiteOS_Lab_2/iot_link/oc/oc_coap/boudica120_oc/boudica120_oc.c ****  * WHETHER IN CONTRACT, STRICT LIABILITY, OR TORT (INCLUDING NEGLIGENCE OR
  23:/home/fanxinhao/Work/LiteOS_Lab_2/iot_link/oc/oc_coap/boudica120_oc/boudica120_oc.c ****  * OTHERWISE) ARISING IN ANY WAY OUT OF THE USE OF THIS SOFTWARE, EVEN IF
  24:/home/fanxinhao/Work/LiteOS_Lab_2/iot_link/oc/oc_coap/boudica120_oc/boudica120_oc.c ****  * ADVISED OF THE POSSIBILITY OF SUCH DAMAGE.
  25:/home/fanxinhao/Work/LiteOS_Lab_2/iot_link/oc/oc_coap/boudica120_oc/boudica120_oc.c ****  *---------------------------------------------------------------------------*/
  26:/home/fanxinhao/Work/LiteOS_Lab_2/iot_link/oc/oc_coap/boudica120_oc/boudica120_oc.c **** /*----------------------------------------------------------------------------
  27:/home/fanxinhao/Work/LiteOS_Lab_2/iot_link/oc/oc_coap/boudica120_oc/boudica120_oc.c ****  * Notice of Export Control Law
  28:/home/fanxinhao/Work/LiteOS_Lab_2/iot_link/oc/oc_coap/boudica120_oc/boudica120_oc.c ****  * ===============================================
  29:/home/fanxinhao/Work/LiteOS_Lab_2/iot_link/oc/oc_coap/boudica120_oc/boudica120_oc.c ****  * Huawei LiteOS may be subject to applicable export control laws and regulations, which might
  30:/home/fanxinhao/Work/LiteOS_Lab_2/iot_link/oc/oc_coap/boudica120_oc/boudica120_oc.c ****  * include those applicable to Huawei LiteOS of U.S. and the country in which you are located.
  31:/home/fanxinhao/Work/LiteOS_Lab_2/iot_link/oc/oc_coap/boudica120_oc/boudica120_oc.c ****  * Import, export and usage of Huawei LiteOS in any manner by you shall be in compliance with such
  32:/home/fanxinhao/Work/LiteOS_Lab_2/iot_link/oc/oc_coap/boudica120_oc/boudica120_oc.c ****  * applicable export control laws and regulations.
  33:/home/fanxinhao/Work/LiteOS_Lab_2/iot_link/oc/oc_coap/boudica120_oc/boudica120_oc.c ****  *---------------------------------------------------------------------------*/
  34:/home/fanxinhao/Work/LiteOS_Lab_2/iot_link/oc/oc_coap/boudica120_oc/boudica120_oc.c **** 
  35:/home/fanxinhao/Work/LiteOS_Lab_2/iot_link/oc/oc_coap/boudica120_oc/boudica120_oc.c **** ///< you must config the at module ,for the NB modules need the at
  36:/home/fanxinhao/Work/LiteOS_Lab_2/iot_link/oc/oc_coap/boudica120_oc/boudica120_oc.c **** 
  37:/home/fanxinhao/Work/LiteOS_Lab_2/iot_link/oc/oc_coap/boudica120_oc/boudica120_oc.c **** 
  38:/home/fanxinhao/Work/LiteOS_Lab_2/iot_link/oc/oc_coap/boudica120_oc/boudica120_oc.c **** #include <string.h>
  39:/home/fanxinhao/Work/LiteOS_Lab_2/iot_link/oc/oc_coap/boudica120_oc/boudica120_oc.c **** #include <at.h>
  40:/home/fanxinhao/Work/LiteOS_Lab_2/iot_link/oc/oc_coap/boudica120_oc/boudica120_oc.c **** #include <boudica120_oc.h>
  41:/home/fanxinhao/Work/LiteOS_Lab_2/iot_link/oc/oc_coap/boudica120_oc/boudica120_oc.c **** #include <oc_coap_al.h>
  42:/home/fanxinhao/Work/LiteOS_Lab_2/iot_link/oc/oc_coap/boudica120_oc/boudica120_oc.c **** #include <osal.h>
  43:/home/fanxinhao/Work/LiteOS_Lab_2/iot_link/oc/oc_coap/boudica120_oc/boudica120_oc.c **** 
  44:/home/fanxinhao/Work/LiteOS_Lab_2/iot_link/oc/oc_coap/boudica120_oc/boudica120_oc.c **** ///<  only support the bootstrap mode
  45:/home/fanxinhao/Work/LiteOS_Lab_2/iot_link/oc/oc_coap/boudica120_oc/boudica120_oc.c **** 
  46:/home/fanxinhao/Work/LiteOS_Lab_2/iot_link/oc/oc_coap/boudica120_oc/boudica120_oc.c **** #define cn_boudica120_cmd_timeout  (2*1000)
  47:/home/fanxinhao/Work/LiteOS_Lab_2/iot_link/oc/oc_coap/boudica120_oc/boudica120_oc.c **** #define cn_boudica120_try_times    (32)
  48:/home/fanxinhao/Work/LiteOS_Lab_2/iot_link/oc/oc_coap/boudica120_oc/boudica120_oc.c **** #define cn_boudica120_rcvindex     "\r\n+NNMI:"
  49:/home/fanxinhao/Work/LiteOS_Lab_2/iot_link/oc/oc_coap/boudica120_oc/boudica120_oc.c **** #define cn_urc_qlwevtind           "\r\n+QLWEVTIND:"
  50:/home/fanxinhao/Work/LiteOS_Lab_2/iot_link/oc/oc_coap/boudica120_oc/boudica120_oc.c **** #define cn_boudica120_cachelen     128
  51:/home/fanxinhao/Work/LiteOS_Lab_2/iot_link/oc/oc_coap/boudica120_oc/boudica120_oc.c **** 
  52:/home/fanxinhao/Work/LiteOS_Lab_2/iot_link/oc/oc_coap/boudica120_oc/boudica120_oc.c **** typedef struct
  53:/home/fanxinhao/Work/LiteOS_Lab_2/iot_link/oc/oc_coap/boudica120_oc/boudica120_oc.c **** {
  54:/home/fanxinhao/Work/LiteOS_Lab_2/iot_link/oc/oc_coap/boudica120_oc/boudica120_oc.c ****     //initialize by the NB module init
  55:/home/fanxinhao/Work/LiteOS_Lab_2/iot_link/oc/oc_coap/boudica120_oc/boudica120_oc.c ****     const char *plmn;
  56:/home/fanxinhao/Work/LiteOS_Lab_2/iot_link/oc/oc_coap/boudica120_oc/boudica120_oc.c ****     const char *apn;
  57:/home/fanxinhao/Work/LiteOS_Lab_2/iot_link/oc/oc_coap/boudica120_oc/boudica120_oc.c ****     const char *bands;
  58:/home/fanxinhao/Work/LiteOS_Lab_2/iot_link/oc/oc_coap/boudica120_oc/boudica120_oc.c **** 
  59:/home/fanxinhao/Work/LiteOS_Lab_2/iot_link/oc/oc_coap/boudica120_oc/boudica120_oc.c ****     //initialized by the applicaiton
  60:/home/fanxinhao/Work/LiteOS_Lab_2/iot_link/oc/oc_coap/boudica120_oc/boudica120_oc.c ****     oc_config_param_t  oc_param;
  61:/home/fanxinhao/Work/LiteOS_Lab_2/iot_link/oc/oc_coap/boudica120_oc/boudica120_oc.c **** 
  62:/home/fanxinhao/Work/LiteOS_Lab_2/iot_link/oc/oc_coap/boudica120_oc/boudica120_oc.c ****     //this is the control block
  63:/home/fanxinhao/Work/LiteOS_Lab_2/iot_link/oc/oc_coap/boudica120_oc/boudica120_oc.c ****     bool_t            sndenable;
  64:/home/fanxinhao/Work/LiteOS_Lab_2/iot_link/oc/oc_coap/boudica120_oc/boudica120_oc.c ****     unsigned char     sndbuf[cn_boudica120_cachelen];  //used for the receive
ARM GAS  /tmp/ccRaplPO.s 			page 3


  65:/home/fanxinhao/Work/LiteOS_Lab_2/iot_link/oc/oc_coap/boudica120_oc/boudica120_oc.c ****     unsigned char     rcvbuf[cn_boudica120_cachelen];
  66:/home/fanxinhao/Work/LiteOS_Lab_2/iot_link/oc/oc_coap/boudica120_oc/boudica120_oc.c ****     //for the debug
  67:/home/fanxinhao/Work/LiteOS_Lab_2/iot_link/oc/oc_coap/boudica120_oc/boudica120_oc.c ****     unsigned int   rcvlen;
  68:/home/fanxinhao/Work/LiteOS_Lab_2/iot_link/oc/oc_coap/boudica120_oc/boudica120_oc.c ****     unsigned int   sndlen;
  69:/home/fanxinhao/Work/LiteOS_Lab_2/iot_link/oc/oc_coap/boudica120_oc/boudica120_oc.c **** 
  70:/home/fanxinhao/Work/LiteOS_Lab_2/iot_link/oc/oc_coap/boudica120_oc/boudica120_oc.c **** 
  71:/home/fanxinhao/Work/LiteOS_Lab_2/iot_link/oc/oc_coap/boudica120_oc/boudica120_oc.c **** }boudica120_cb_t;
  72:/home/fanxinhao/Work/LiteOS_Lab_2/iot_link/oc/oc_coap/boudica120_oc/boudica120_oc.c **** static boudica120_cb_t   s_boudica120_oc_cb;
  73:/home/fanxinhao/Work/LiteOS_Lab_2/iot_link/oc/oc_coap/boudica120_oc/boudica120_oc.c **** static osal_mutex_t s_report_mutex;
  74:/home/fanxinhao/Work/LiteOS_Lab_2/iot_link/oc/oc_coap/boudica120_oc/boudica120_oc.c **** static void  *s_oc_handle = NULL;
  75:/home/fanxinhao/Work/LiteOS_Lab_2/iot_link/oc/oc_coap/boudica120_oc/boudica120_oc.c **** 
  76:/home/fanxinhao/Work/LiteOS_Lab_2/iot_link/oc/oc_coap/boudica120_oc/boudica120_oc.c **** int wireless_stats[4] = {0};
  77:/home/fanxinhao/Work/LiteOS_Lab_2/iot_link/oc/oc_coap/boudica120_oc/boudica120_oc.c **** 
  78:/home/fanxinhao/Work/LiteOS_Lab_2/iot_link/oc/oc_coap/boudica120_oc/boudica120_oc.c **** //bc95 common at command
  79:/home/fanxinhao/Work/LiteOS_Lab_2/iot_link/oc/oc_coap/boudica120_oc/boudica120_oc.c **** /* Use at component to send command("cmd").
  80:/home/fanxinhao/Work/LiteOS_Lab_2/iot_link/oc/oc_coap/boudica120_oc/boudica120_oc.c ****  * If response include "index",return true, else return false
  81:/home/fanxinhao/Work/LiteOS_Lab_2/iot_link/oc/oc_coap/boudica120_oc/boudica120_oc.c ****  * Don't store response
  82:/home/fanxinhao/Work/LiteOS_Lab_2/iot_link/oc/oc_coap/boudica120_oc/boudica120_oc.c ****  */
  83:/home/fanxinhao/Work/LiteOS_Lab_2/iot_link/oc/oc_coap/boudica120_oc/boudica120_oc.c **** static bool_t boudica120_atcmd(const char *cmd,const char *index)
  84:/home/fanxinhao/Work/LiteOS_Lab_2/iot_link/oc/oc_coap/boudica120_oc/boudica120_oc.c **** {
  53              		.loc 1 84 1
  54              		.cfi_startproc
  55              		@ args = 0, pretend = 0, frame = 16
  56              		@ frame_needed = 1, uses_anonymous_args = 0
  57 0000 80B5     		push	{r7, lr}
  58              	.LCFI0:
  59              		.cfi_def_cfa_offset 8
  60              		.cfi_offset 7, -8
  61              		.cfi_offset 14, -4
  62 0002 86B0     		sub	sp, sp, #24
  63              	.LCFI1:
  64              		.cfi_def_cfa_offset 32
  65 0004 02AF     		add	r7, sp, #8
  66              	.LCFI2:
  67              		.cfi_def_cfa 7, 24
  68 0006 7860     		str	r0, [r7, #4]
  69 0008 3960     		str	r1, [r7]
  85:/home/fanxinhao/Work/LiteOS_Lab_2/iot_link/oc/oc_coap/boudica120_oc/boudica120_oc.c ****     int ret = 0;
  70              		.loc 1 85 9
  71 000a 0023     		movs	r3, #0
  72 000c FB60     		str	r3, [r7, #12]
  86:/home/fanxinhao/Work/LiteOS_Lab_2/iot_link/oc/oc_coap/boudica120_oc/boudica120_oc.c ****     ret = at_command((unsigned char *)cmd,strlen(cmd),index,NULL,0,cn_boudica120_cmd_timeout);
  73              		.loc 1 86 11
  74 000e 7868     		ldr	r0, [r7, #4]
  75 0010 FFF7FEFF 		bl	strlen
  76 0014 0146     		mov	r1, r0
  77 0016 4FF4FA63 		mov	r3, #2000
  78 001a 0193     		str	r3, [sp, #4]
  79 001c 0023     		movs	r3, #0
  80 001e 0093     		str	r3, [sp]
  81 0020 0023     		movs	r3, #0
  82 0022 3A68     		ldr	r2, [r7]
  83 0024 7868     		ldr	r0, [r7, #4]
  84 0026 FFF7FEFF 		bl	at_command
  85 002a F860     		str	r0, [r7, #12]
  87:/home/fanxinhao/Work/LiteOS_Lab_2/iot_link/oc/oc_coap/boudica120_oc/boudica120_oc.c ****     if(ret >= 0)
  86              		.loc 1 87 7
ARM GAS  /tmp/ccRaplPO.s 			page 4


  87 002c FB68     		ldr	r3, [r7, #12]
  88 002e 002B     		cmp	r3, #0
  89 0030 01DB     		blt	.L2
  88:/home/fanxinhao/Work/LiteOS_Lab_2/iot_link/oc/oc_coap/boudica120_oc/boudica120_oc.c ****     {
  89:/home/fanxinhao/Work/LiteOS_Lab_2/iot_link/oc/oc_coap/boudica120_oc/boudica120_oc.c ****         return true;
  90              		.loc 1 89 16
  91 0032 0123     		movs	r3, #1
  92 0034 00E0     		b	.L3
  93              	.L2:
  90:/home/fanxinhao/Work/LiteOS_Lab_2/iot_link/oc/oc_coap/boudica120_oc/boudica120_oc.c ****     }
  91:/home/fanxinhao/Work/LiteOS_Lab_2/iot_link/oc/oc_coap/boudica120_oc/boudica120_oc.c ****     else
  92:/home/fanxinhao/Work/LiteOS_Lab_2/iot_link/oc/oc_coap/boudica120_oc/boudica120_oc.c ****     {
  93:/home/fanxinhao/Work/LiteOS_Lab_2/iot_link/oc/oc_coap/boudica120_oc/boudica120_oc.c ****         return false;
  94              		.loc 1 93 16
  95 0036 0023     		movs	r3, #0
  96              	.L3:
  94:/home/fanxinhao/Work/LiteOS_Lab_2/iot_link/oc/oc_coap/boudica120_oc/boudica120_oc.c ****     }
  95:/home/fanxinhao/Work/LiteOS_Lab_2/iot_link/oc/oc_coap/boudica120_oc/boudica120_oc.c **** }
  97              		.loc 1 95 1
  98 0038 1846     		mov	r0, r3
  99 003a 1037     		adds	r7, r7, #16
 100              	.LCFI3:
 101              		.cfi_def_cfa_offset 8
 102 003c BD46     		mov	sp, r7
 103              	.LCFI4:
 104              		.cfi_def_cfa_register 13
 105              		@ sp needed
 106 003e 80BD     		pop	{r7, pc}
 107              		.cfi_endproc
 108              	.LFE3:
 110              		.section	.text.boudica120_atcmd_response,"ax",%progbits
 111              		.align	1
 112              		.syntax unified
 113              		.thumb
 114              		.thumb_func
 115              		.fpu fpv4-sp-d16
 117              	boudica120_atcmd_response:
 118              	.LFB4:
  96:/home/fanxinhao/Work/LiteOS_Lab_2/iot_link/oc/oc_coap/boudica120_oc/boudica120_oc.c **** 
  97:/home/fanxinhao/Work/LiteOS_Lab_2/iot_link/oc/oc_coap/boudica120_oc/boudica120_oc.c **** //nb command  with response
  98:/home/fanxinhao/Work/LiteOS_Lab_2/iot_link/oc/oc_coap/boudica120_oc/boudica120_oc.c **** //bc95 common at command
  99:/home/fanxinhao/Work/LiteOS_Lab_2/iot_link/oc/oc_coap/boudica120_oc/boudica120_oc.c **** /* Use at component to send command("cmd").
 100:/home/fanxinhao/Work/LiteOS_Lab_2/iot_link/oc/oc_coap/boudica120_oc/boudica120_oc.c ****  * If response include "index",return true, else return false
 101:/home/fanxinhao/Work/LiteOS_Lab_2/iot_link/oc/oc_coap/boudica120_oc/boudica120_oc.c ****  * And store response to "buf"
 102:/home/fanxinhao/Work/LiteOS_Lab_2/iot_link/oc/oc_coap/boudica120_oc/boudica120_oc.c ****  */
 103:/home/fanxinhao/Work/LiteOS_Lab_2/iot_link/oc/oc_coap/boudica120_oc/boudica120_oc.c **** static bool_t boudica120_atcmd_response(const char *cmd,const char *index,char *buf, int len)
 104:/home/fanxinhao/Work/LiteOS_Lab_2/iot_link/oc/oc_coap/boudica120_oc/boudica120_oc.c **** {
 119              		.loc 1 104 1
 120              		.cfi_startproc
 121              		@ args = 0, pretend = 0, frame = 24
 122              		@ frame_needed = 1, uses_anonymous_args = 0
 123 0000 80B5     		push	{r7, lr}
 124              	.LCFI5:
 125              		.cfi_def_cfa_offset 8
 126              		.cfi_offset 7, -8
 127              		.cfi_offset 14, -4
 128 0002 88B0     		sub	sp, sp, #32
ARM GAS  /tmp/ccRaplPO.s 			page 5


 129              	.LCFI6:
 130              		.cfi_def_cfa_offset 40
 131 0004 02AF     		add	r7, sp, #8
 132              	.LCFI7:
 133              		.cfi_def_cfa 7, 32
 134 0006 F860     		str	r0, [r7, #12]
 135 0008 B960     		str	r1, [r7, #8]
 136 000a 7A60     		str	r2, [r7, #4]
 137 000c 3B60     		str	r3, [r7]
 105:/home/fanxinhao/Work/LiteOS_Lab_2/iot_link/oc/oc_coap/boudica120_oc/boudica120_oc.c ****     int ret = 0;
 138              		.loc 1 105 9
 139 000e 0023     		movs	r3, #0
 140 0010 7B61     		str	r3, [r7, #20]
 106:/home/fanxinhao/Work/LiteOS_Lab_2/iot_link/oc/oc_coap/boudica120_oc/boudica120_oc.c ****     ret = at_command((unsigned char *)cmd,strlen(cmd),index,(char *)buf,len,cn_boudica120_cmd_timeo
 141              		.loc 1 106 11
 142 0012 F868     		ldr	r0, [r7, #12]
 143 0014 FFF7FEFF 		bl	strlen
 144 0018 0146     		mov	r1, r0
 145 001a 3B68     		ldr	r3, [r7]
 146 001c 4FF4FA62 		mov	r2, #2000
 147 0020 0192     		str	r2, [sp, #4]
 148 0022 0093     		str	r3, [sp]
 149 0024 7B68     		ldr	r3, [r7, #4]
 150 0026 BA68     		ldr	r2, [r7, #8]
 151 0028 F868     		ldr	r0, [r7, #12]
 152 002a FFF7FEFF 		bl	at_command
 153 002e 7861     		str	r0, [r7, #20]
 107:/home/fanxinhao/Work/LiteOS_Lab_2/iot_link/oc/oc_coap/boudica120_oc/boudica120_oc.c ****     if(ret >= 0)
 154              		.loc 1 107 7
 155 0030 7B69     		ldr	r3, [r7, #20]
 156 0032 002B     		cmp	r3, #0
 157 0034 01DB     		blt	.L5
 108:/home/fanxinhao/Work/LiteOS_Lab_2/iot_link/oc/oc_coap/boudica120_oc/boudica120_oc.c ****     {
 109:/home/fanxinhao/Work/LiteOS_Lab_2/iot_link/oc/oc_coap/boudica120_oc/boudica120_oc.c ****         return true;
 158              		.loc 1 109 16
 159 0036 0123     		movs	r3, #1
 160 0038 00E0     		b	.L6
 161              	.L5:
 110:/home/fanxinhao/Work/LiteOS_Lab_2/iot_link/oc/oc_coap/boudica120_oc/boudica120_oc.c ****     }
 111:/home/fanxinhao/Work/LiteOS_Lab_2/iot_link/oc/oc_coap/boudica120_oc/boudica120_oc.c ****     else
 112:/home/fanxinhao/Work/LiteOS_Lab_2/iot_link/oc/oc_coap/boudica120_oc/boudica120_oc.c ****     {
 113:/home/fanxinhao/Work/LiteOS_Lab_2/iot_link/oc/oc_coap/boudica120_oc/boudica120_oc.c ****         return false;
 162              		.loc 1 113 16
 163 003a 0023     		movs	r3, #0
 164              	.L6:
 114:/home/fanxinhao/Work/LiteOS_Lab_2/iot_link/oc/oc_coap/boudica120_oc/boudica120_oc.c ****     }
 115:/home/fanxinhao/Work/LiteOS_Lab_2/iot_link/oc/oc_coap/boudica120_oc/boudica120_oc.c **** }
 165              		.loc 1 115 1
 166 003c 1846     		mov	r0, r3
 167 003e 1837     		adds	r7, r7, #24
 168              	.LCFI8:
 169              		.cfi_def_cfa_offset 8
 170 0040 BD46     		mov	sp, r7
 171              	.LCFI9:
 172              		.cfi_def_cfa_register 13
 173              		@ sp needed
 174 0042 80BD     		pop	{r7, pc}
ARM GAS  /tmp/ccRaplPO.s 			page 6


 175              		.cfi_endproc
 176              	.LFE4:
 178              		.section	.rodata
 179              		.align	2
 180              	.LC0:
 181 0000 25303258 		.ascii	"%02X\000"
 181      00
 182              		.section	.text.byte_to_hexstr,"ax",%progbits
 183              		.align	1
 184              		.syntax unified
 185              		.thumb
 186              		.thumb_func
 187              		.fpu fpv4-sp-d16
 189              	byte_to_hexstr:
 190              	.LFB5:
 116:/home/fanxinhao/Work/LiteOS_Lab_2/iot_link/oc/oc_coap/boudica120_oc/boudica120_oc.c **** 
 117:/home/fanxinhao/Work/LiteOS_Lab_2/iot_link/oc/oc_coap/boudica120_oc/boudica120_oc.c **** 
 118:/home/fanxinhao/Work/LiteOS_Lab_2/iot_link/oc/oc_coap/boudica120_oc/boudica120_oc.c **** 
 119:/home/fanxinhao/Work/LiteOS_Lab_2/iot_link/oc/oc_coap/boudica120_oc/boudica120_oc.c **** //make a byte to 2 ascii hex
 120:/home/fanxinhao/Work/LiteOS_Lab_2/iot_link/oc/oc_coap/boudica120_oc/boudica120_oc.c **** static int byte_to_hexstr(const unsigned char *bufin, int len, char *bufout)
 121:/home/fanxinhao/Work/LiteOS_Lab_2/iot_link/oc/oc_coap/boudica120_oc/boudica120_oc.c **** {
 191              		.loc 1 121 1
 192              		.cfi_startproc
 193              		@ args = 0, pretend = 0, frame = 24
 194              		@ frame_needed = 1, uses_anonymous_args = 0
 195 0000 80B5     		push	{r7, lr}
 196              	.LCFI10:
 197              		.cfi_def_cfa_offset 8
 198              		.cfi_offset 7, -8
 199              		.cfi_offset 14, -4
 200 0002 86B0     		sub	sp, sp, #24
 201              	.LCFI11:
 202              		.cfi_def_cfa_offset 32
 203 0004 00AF     		add	r7, sp, #0
 204              	.LCFI12:
 205              		.cfi_def_cfa_register 7
 206 0006 F860     		str	r0, [r7, #12]
 207 0008 B960     		str	r1, [r7, #8]
 208 000a 7A60     		str	r2, [r7, #4]
 122:/home/fanxinhao/Work/LiteOS_Lab_2/iot_link/oc/oc_coap/boudica120_oc/boudica120_oc.c ****     int i = 0;
 209              		.loc 1 122 9
 210 000c 0023     		movs	r3, #0
 211 000e 7B61     		str	r3, [r7, #20]
 123:/home/fanxinhao/Work/LiteOS_Lab_2/iot_link/oc/oc_coap/boudica120_oc/boudica120_oc.c ****     if (NULL == bufin || len <= 0 || NULL == bufout)
 212              		.loc 1 123 8
 213 0010 FB68     		ldr	r3, [r7, #12]
 214 0012 002B     		cmp	r3, #0
 215 0014 05D0     		beq	.L8
 216              		.loc 1 123 23 discriminator 1
 217 0016 BB68     		ldr	r3, [r7, #8]
 218 0018 002B     		cmp	r3, #0
 219 001a 02DD     		ble	.L8
 220              		.loc 1 123 35 discriminator 2
 221 001c 7B68     		ldr	r3, [r7, #4]
 222 001e 002B     		cmp	r3, #0
 223 0020 02D1     		bne	.L9
 224              	.L8:
ARM GAS  /tmp/ccRaplPO.s 			page 7


 124:/home/fanxinhao/Work/LiteOS_Lab_2/iot_link/oc/oc_coap/boudica120_oc/boudica120_oc.c ****     {
 125:/home/fanxinhao/Work/LiteOS_Lab_2/iot_link/oc/oc_coap/boudica120_oc/boudica120_oc.c ****         return -1;
 225              		.loc 1 125 16
 226 0022 4FF0FF33 		mov	r3, #-1
 227 0026 17E0     		b	.L10
 228              	.L9:
 126:/home/fanxinhao/Work/LiteOS_Lab_2/iot_link/oc/oc_coap/boudica120_oc/boudica120_oc.c ****     }
 127:/home/fanxinhao/Work/LiteOS_Lab_2/iot_link/oc/oc_coap/boudica120_oc/boudica120_oc.c ****     for(i = 0; i < len; i++)
 229              		.loc 1 127 11
 230 0028 0023     		movs	r3, #0
 231 002a 7B61     		str	r3, [r7, #20]
 232              		.loc 1 127 5
 233 002c 0FE0     		b	.L11
 234              	.L12:
 128:/home/fanxinhao/Work/LiteOS_Lab_2/iot_link/oc/oc_coap/boudica120_oc/boudica120_oc.c ****     {
 129:/home/fanxinhao/Work/LiteOS_Lab_2/iot_link/oc/oc_coap/boudica120_oc/boudica120_oc.c ****         (void) sprintf(bufout+i*2, "%02X", bufin[i]);
 235              		.loc 1 129 32 discriminator 3
 236 002e 7B69     		ldr	r3, [r7, #20]
 237 0030 5B00     		lsls	r3, r3, #1
 238 0032 1A46     		mov	r2, r3
 239              		.loc 1 129 16 discriminator 3
 240 0034 7B68     		ldr	r3, [r7, #4]
 241 0036 9818     		adds	r0, r3, r2
 242              		.loc 1 129 49 discriminator 3
 243 0038 7B69     		ldr	r3, [r7, #20]
 244 003a FA68     		ldr	r2, [r7, #12]
 245 003c 1344     		add	r3, r3, r2
 246 003e 1B78     		ldrb	r3, [r3]	@ zero_extendqisi2
 247              		.loc 1 129 16 discriminator 3
 248 0040 1A46     		mov	r2, r3
 249 0042 0749     		ldr	r1, .L13
 250 0044 FFF7FEFF 		bl	sprintf
 127:/home/fanxinhao/Work/LiteOS_Lab_2/iot_link/oc/oc_coap/boudica120_oc/boudica120_oc.c ****     {
 251              		.loc 1 127 26 discriminator 3
 252 0048 7B69     		ldr	r3, [r7, #20]
 253 004a 0133     		adds	r3, r3, #1
 254 004c 7B61     		str	r3, [r7, #20]
 255              	.L11:
 127:/home/fanxinhao/Work/LiteOS_Lab_2/iot_link/oc/oc_coap/boudica120_oc/boudica120_oc.c ****     {
 256              		.loc 1 127 5 discriminator 1
 257 004e 7A69     		ldr	r2, [r7, #20]
 258 0050 BB68     		ldr	r3, [r7, #8]
 259 0052 9A42     		cmp	r2, r3
 260 0054 EBDB     		blt	.L12
 130:/home/fanxinhao/Work/LiteOS_Lab_2/iot_link/oc/oc_coap/boudica120_oc/boudica120_oc.c ****     }
 131:/home/fanxinhao/Work/LiteOS_Lab_2/iot_link/oc/oc_coap/boudica120_oc/boudica120_oc.c ****     return 0;
 261              		.loc 1 131 12
 262 0056 0023     		movs	r3, #0
 263              	.L10:
 132:/home/fanxinhao/Work/LiteOS_Lab_2/iot_link/oc/oc_coap/boudica120_oc/boudica120_oc.c **** }
 264              		.loc 1 132 1
 265 0058 1846     		mov	r0, r3
 266 005a 1837     		adds	r7, r7, #24
 267              	.LCFI13:
 268              		.cfi_def_cfa_offset 8
 269 005c BD46     		mov	sp, r7
 270              	.LCFI14:
ARM GAS  /tmp/ccRaplPO.s 			page 8


 271              		.cfi_def_cfa_register 13
 272              		@ sp needed
 273 005e 80BD     		pop	{r7, pc}
 274              	.L14:
 275              		.align	2
 276              	.L13:
 277 0060 00000000 		.word	.LC0
 278              		.cfi_endproc
 279              	.LFE5:
 281              		.section	.rodata
 282 0005 000000   		.align	2
 283              	.LC1:
 284 0008 41542B4E 		.ascii	"AT+NMGS=\000"
 284      4D47533D 
 284      00
 285 0011 000000   		.align	2
 286              	.LC2:
 287 0014 4F4B00   		.ascii	"OK\000"
 288 0017 00       		.align	2
 289              	.LC3:
 290 0018 25732564 		.ascii	"%s%d,\000"
 290      2C00
 291              		.section	.text.boudica120_oc_report,"ax",%progbits
 292              		.align	1
 293              		.syntax unified
 294              		.thumb
 295              		.thumb_func
 296              		.fpu fpv4-sp-d16
 298              	boudica120_oc_report:
 299              	.LFB6:
 133:/home/fanxinhao/Work/LiteOS_Lab_2/iot_link/oc/oc_coap/boudica120_oc/boudica120_oc.c **** 
 134:/home/fanxinhao/Work/LiteOS_Lab_2/iot_link/oc/oc_coap/boudica120_oc/boudica120_oc.c **** /* Use "AT+NMGS" to send coap message.
 135:/home/fanxinhao/Work/LiteOS_Lab_2/iot_link/oc/oc_coap/boudica120_oc/boudica120_oc.c ****  *
 136:/home/fanxinhao/Work/LiteOS_Lab_2/iot_link/oc/oc_coap/boudica120_oc/boudica120_oc.c ****  */
 137:/home/fanxinhao/Work/LiteOS_Lab_2/iot_link/oc/oc_coap/boudica120_oc/boudica120_oc.c **** static int boudica120_oc_report(void *handle,char *buf,int len)
 138:/home/fanxinhao/Work/LiteOS_Lab_2/iot_link/oc/oc_coap/boudica120_oc/boudica120_oc.c **** {
 300              		.loc 1 138 1
 301              		.cfi_startproc
 302              		@ args = 0, pretend = 0, frame = 32
 303              		@ frame_needed = 1, uses_anonymous_args = 0
 304 0000 80B5     		push	{r7, lr}
 305              	.LCFI15:
 306              		.cfi_def_cfa_offset 8
 307              		.cfi_offset 7, -8
 308              		.cfi_offset 14, -4
 309 0002 8AB0     		sub	sp, sp, #40
 310              	.LCFI16:
 311              		.cfi_def_cfa_offset 48
 312 0004 02AF     		add	r7, sp, #8
 313              	.LCFI17:
 314              		.cfi_def_cfa 7, 40
 315 0006 F860     		str	r0, [r7, #12]
 316 0008 B960     		str	r1, [r7, #8]
 317 000a 7A60     		str	r2, [r7, #4]
 139:/home/fanxinhao/Work/LiteOS_Lab_2/iot_link/oc/oc_coap/boudica120_oc/boudica120_oc.c ****     int ret = en_oc_coap_err_noconfigured;
 318              		.loc 1 139 9
 319 000c 0423     		movs	r3, #4
ARM GAS  /tmp/ccRaplPO.s 			page 9


 320 000e FB61     		str	r3, [r7, #28]
 140:/home/fanxinhao/Work/LiteOS_Lab_2/iot_link/oc/oc_coap/boudica120_oc/boudica120_oc.c **** 	int timeout = cn_boudica120_cmd_timeout;
 321              		.loc 1 140 6
 322 0010 4FF4FA63 		mov	r3, #2000
 323 0014 BB61     		str	r3, [r7, #24]
 141:/home/fanxinhao/Work/LiteOS_Lab_2/iot_link/oc/oc_coap/boudica120_oc/boudica120_oc.c ****     const char *cmd = "AT+NMGS=";
 324              		.loc 1 141 17
 325 0016 304B     		ldr	r3, .L22
 326 0018 7B61     		str	r3, [r7, #20]
 142:/home/fanxinhao/Work/LiteOS_Lab_2/iot_link/oc/oc_coap/boudica120_oc/boudica120_oc.c ****     const char *index = "OK";
 327              		.loc 1 142 17
 328 001a 304B     		ldr	r3, .L22+4
 329 001c 3B61     		str	r3, [r7, #16]
 143:/home/fanxinhao/Work/LiteOS_Lab_2/iot_link/oc/oc_coap/boudica120_oc/boudica120_oc.c **** 
 144:/home/fanxinhao/Work/LiteOS_Lab_2/iot_link/oc/oc_coap/boudica120_oc/boudica120_oc.c ****     if(NULL == s_oc_handle)
 330              		.loc 1 144 13
 331 001e 304B     		ldr	r3, .L22+8
 332 0020 1B68     		ldr	r3, [r3]
 333              		.loc 1 144 7
 334 0022 002B     		cmp	r3, #0
 335 0024 01D1     		bne	.L16
 145:/home/fanxinhao/Work/LiteOS_Lab_2/iot_link/oc/oc_coap/boudica120_oc/boudica120_oc.c ****     {
 146:/home/fanxinhao/Work/LiteOS_Lab_2/iot_link/oc/oc_coap/boudica120_oc/boudica120_oc.c ****         return ret;
 336              		.loc 1 146 16
 337 0026 FB69     		ldr	r3, [r7, #28]
 338 0028 52E0     		b	.L17
 339              	.L16:
 147:/home/fanxinhao/Work/LiteOS_Lab_2/iot_link/oc/oc_coap/boudica120_oc/boudica120_oc.c ****     }
 148:/home/fanxinhao/Work/LiteOS_Lab_2/iot_link/oc/oc_coap/boudica120_oc/boudica120_oc.c **** 
 149:/home/fanxinhao/Work/LiteOS_Lab_2/iot_link/oc/oc_coap/boudica120_oc/boudica120_oc.c ****     if ((NULL == buf) || (len >= cn_boudica120_cachelen/2 )||(false == s_boudica120_oc_cb.sndenable
 340              		.loc 1 149 8
 341 002a BB68     		ldr	r3, [r7, #8]
 342 002c 002B     		cmp	r3, #0
 343 002e 06D0     		beq	.L18
 344              		.loc 1 149 23 discriminator 1
 345 0030 7B68     		ldr	r3, [r7, #4]
 346 0032 3F2B     		cmp	r3, #63
 347 0034 03DC     		bgt	.L18
 348              		.loc 1 149 90 discriminator 2
 349 0036 2B4B     		ldr	r3, .L22+12
 350 0038 9B6C     		ldr	r3, [r3, #72]
 351              		.loc 1 149 60 discriminator 2
 352 003a 002B     		cmp	r3, #0
 353 003c 03D1     		bne	.L19
 354              	.L18:
 150:/home/fanxinhao/Work/LiteOS_Lab_2/iot_link/oc/oc_coap/boudica120_oc/boudica120_oc.c ****     {
 151:/home/fanxinhao/Work/LiteOS_Lab_2/iot_link/oc/oc_coap/boudica120_oc/boudica120_oc.c ****         ret = en_oc_coap_err_parafmt;
 355              		.loc 1 151 13
 356 003e 0123     		movs	r3, #1
 357 0040 FB61     		str	r3, [r7, #28]
 152:/home/fanxinhao/Work/LiteOS_Lab_2/iot_link/oc/oc_coap/boudica120_oc/boudica120_oc.c ****         return ret;
 358              		.loc 1 152 16
 359 0042 FB69     		ldr	r3, [r7, #28]
 360 0044 44E0     		b	.L17
 361              	.L19:
 153:/home/fanxinhao/Work/LiteOS_Lab_2/iot_link/oc/oc_coap/boudica120_oc/boudica120_oc.c ****     }
 154:/home/fanxinhao/Work/LiteOS_Lab_2/iot_link/oc/oc_coap/boudica120_oc/boudica120_oc.c ****     osal_mutex_lock(s_report_mutex);
ARM GAS  /tmp/ccRaplPO.s 			page 10


 362              		.loc 1 154 5
 363 0046 284B     		ldr	r3, .L22+16
 364 0048 1B68     		ldr	r3, [r3]
 365 004a 1846     		mov	r0, r3
 366 004c FFF7FEFF 		bl	osal_mutex_lock
 155:/home/fanxinhao/Work/LiteOS_Lab_2/iot_link/oc/oc_coap/boudica120_oc/boudica120_oc.c ****     (void) memset(s_boudica120_oc_cb.sndbuf, 0, cn_boudica120_cachelen);
 367              		.loc 1 155 12
 368 0050 8022     		movs	r2, #128
 369 0052 0021     		movs	r1, #0
 370 0054 2548     		ldr	r0, .L22+20
 371 0056 FFF7FEFF 		bl	memset
 156:/home/fanxinhao/Work/LiteOS_Lab_2/iot_link/oc/oc_coap/boudica120_oc/boudica120_oc.c ****     (void) snprintf((char *)s_boudica120_oc_cb.sndbuf,cn_boudica120_cachelen,"%s%d,",cmd,len);
 372              		.loc 1 156 12
 373 005a 7B68     		ldr	r3, [r7, #4]
 374 005c 0093     		str	r3, [sp]
 375 005e 7B69     		ldr	r3, [r7, #20]
 376 0060 234A     		ldr	r2, .L22+24
 377 0062 8021     		movs	r1, #128
 378 0064 2148     		ldr	r0, .L22+20
 379 0066 FFF7FEFF 		bl	snprintf
 157:/home/fanxinhao/Work/LiteOS_Lab_2/iot_link/oc/oc_coap/boudica120_oc/boudica120_oc.c ****     ret = byte_to_hexstr((unsigned char *)buf, len, (char *)&s_boudica120_oc_cb.sndbuf[strlen((char
 380              		.loc 1 157 88
 381 006a 2048     		ldr	r0, .L22+20
 382 006c FFF7FEFF 		bl	strlen
 383 0070 0346     		mov	r3, r0
 384              		.loc 1 157 61
 385 0072 4833     		adds	r3, r3, #72
 386 0074 1B4A     		ldr	r2, .L22+12
 387 0076 1344     		add	r3, r3, r2
 388 0078 0433     		adds	r3, r3, #4
 389              		.loc 1 157 11
 390 007a 1A46     		mov	r2, r3
 391 007c 7968     		ldr	r1, [r7, #4]
 392 007e B868     		ldr	r0, [r7, #8]
 393 0080 FFF7FEFF 		bl	byte_to_hexstr
 394 0084 F861     		str	r0, [r7, #28]
 158:/home/fanxinhao/Work/LiteOS_Lab_2/iot_link/oc/oc_coap/boudica120_oc/boudica120_oc.c ****     s_boudica120_oc_cb.sndbuf[strlen((char *)s_boudica120_oc_cb.sndbuf)]='\r';
 395              		.loc 1 158 31
 396 0086 1948     		ldr	r0, .L22+20
 397 0088 FFF7FEFF 		bl	strlen
 398 008c 0346     		mov	r3, r0
 399              		.loc 1 158 73
 400 008e 154A     		ldr	r2, .L22+12
 401 0090 1344     		add	r3, r3, r2
 402 0092 0D22     		movs	r2, #13
 403 0094 83F84C20 		strb	r2, [r3, #76]
 159:/home/fanxinhao/Work/LiteOS_Lab_2/iot_link/oc/oc_coap/boudica120_oc/boudica120_oc.c **** 
 160:/home/fanxinhao/Work/LiteOS_Lab_2/iot_link/oc/oc_coap/boudica120_oc/boudica120_oc.c ****     ret = at_command((unsigned char *)s_boudica120_oc_cb.sndbuf,strlen((char *)s_boudica120_oc_cb.s
 404              		.loc 1 160 11
 405 0098 1448     		ldr	r0, .L22+20
 406 009a FFF7FEFF 		bl	strlen
 407 009e 0146     		mov	r1, r0
 408 00a0 BB69     		ldr	r3, [r7, #24]
 409 00a2 0193     		str	r3, [sp, #4]
 410 00a4 0023     		movs	r3, #0
 411 00a6 0093     		str	r3, [sp]
 412 00a8 0023     		movs	r3, #0
ARM GAS  /tmp/ccRaplPO.s 			page 11


 413 00aa 3A69     		ldr	r2, [r7, #16]
 414 00ac 0F48     		ldr	r0, .L22+20
 415 00ae FFF7FEFF 		bl	at_command
 416 00b2 F861     		str	r0, [r7, #28]
 161:/home/fanxinhao/Work/LiteOS_Lab_2/iot_link/oc/oc_coap/boudica120_oc/boudica120_oc.c ****     (void) osal_mutex_unlock(s_report_mutex);
 417              		.loc 1 161 5
 418 00b4 0C4B     		ldr	r3, .L22+16
 419 00b6 1B68     		ldr	r3, [r3]
 420              		.loc 1 161 12
 421 00b8 1846     		mov	r0, r3
 422 00ba FFF7FEFF 		bl	osal_mutex_unlock
 162:/home/fanxinhao/Work/LiteOS_Lab_2/iot_link/oc/oc_coap/boudica120_oc/boudica120_oc.c ****     if(ret >= 0)
 423              		.loc 1 162 7
 424 00be FB69     		ldr	r3, [r7, #28]
 425 00c0 002B     		cmp	r3, #0
 426 00c2 02DB     		blt	.L20
 163:/home/fanxinhao/Work/LiteOS_Lab_2/iot_link/oc/oc_coap/boudica120_oc/boudica120_oc.c ****     {
 164:/home/fanxinhao/Work/LiteOS_Lab_2/iot_link/oc/oc_coap/boudica120_oc/boudica120_oc.c ****         ret = en_oc_coap_err_ok;
 427              		.loc 1 164 13
 428 00c4 0023     		movs	r3, #0
 429 00c6 FB61     		str	r3, [r7, #28]
 430 00c8 01E0     		b	.L21
 431              	.L20:
 165:/home/fanxinhao/Work/LiteOS_Lab_2/iot_link/oc/oc_coap/boudica120_oc/boudica120_oc.c ****     }
 166:/home/fanxinhao/Work/LiteOS_Lab_2/iot_link/oc/oc_coap/boudica120_oc/boudica120_oc.c ****     else
 167:/home/fanxinhao/Work/LiteOS_Lab_2/iot_link/oc/oc_coap/boudica120_oc/boudica120_oc.c ****     {
 168:/home/fanxinhao/Work/LiteOS_Lab_2/iot_link/oc/oc_coap/boudica120_oc/boudica120_oc.c ****         ret = en_oc_coap_err_network;
 432              		.loc 1 168 13
 433 00ca 0223     		movs	r3, #2
 434 00cc FB61     		str	r3, [r7, #28]
 435              	.L21:
 169:/home/fanxinhao/Work/LiteOS_Lab_2/iot_link/oc/oc_coap/boudica120_oc/boudica120_oc.c ****     }
 170:/home/fanxinhao/Work/LiteOS_Lab_2/iot_link/oc/oc_coap/boudica120_oc/boudica120_oc.c **** 
 171:/home/fanxinhao/Work/LiteOS_Lab_2/iot_link/oc/oc_coap/boudica120_oc/boudica120_oc.c ****     return ret;
 436              		.loc 1 171 12
 437 00ce FB69     		ldr	r3, [r7, #28]
 438              	.L17:
 172:/home/fanxinhao/Work/LiteOS_Lab_2/iot_link/oc/oc_coap/boudica120_oc/boudica120_oc.c **** }
 439              		.loc 1 172 1
 440 00d0 1846     		mov	r0, r3
 441 00d2 2037     		adds	r7, r7, #32
 442              	.LCFI18:
 443              		.cfi_def_cfa_offset 8
 444 00d4 BD46     		mov	sp, r7
 445              	.LCFI19:
 446              		.cfi_def_cfa_register 13
 447              		@ sp needed
 448 00d6 80BD     		pop	{r7, pc}
 449              	.L23:
 450              		.align	2
 451              	.L22:
 452 00d8 08000000 		.word	.LC1
 453 00dc 14000000 		.word	.LC2
 454 00e0 00000000 		.word	s_oc_handle
 455 00e4 00000000 		.word	s_boudica120_oc_cb
 456 00e8 00000000 		.word	s_report_mutex
 457 00ec 4C000000 		.word	s_boudica120_oc_cb+76
ARM GAS  /tmp/ccRaplPO.s 			page 12


 458 00f0 18000000 		.word	.LC3
 459              		.cfi_endproc
 460              	.LFE6:
 462              		.section	.text.hexstr_to_byte,"ax",%progbits
 463              		.align	1
 464              		.syntax unified
 465              		.thumb
 466              		.thumb_func
 467              		.fpu fpv4-sp-d16
 469              	hexstr_to_byte:
 470              	.LFB7:
 173:/home/fanxinhao/Work/LiteOS_Lab_2/iot_link/oc/oc_coap/boudica120_oc/boudica120_oc.c **** 
 174:/home/fanxinhao/Work/LiteOS_Lab_2/iot_link/oc/oc_coap/boudica120_oc/boudica120_oc.c **** 
 175:/home/fanxinhao/Work/LiteOS_Lab_2/iot_link/oc/oc_coap/boudica120_oc/boudica120_oc.c **** static int hexstr_to_byte(const char *bufin, int len, char *bufout)
 176:/home/fanxinhao/Work/LiteOS_Lab_2/iot_link/oc/oc_coap/boudica120_oc/boudica120_oc.c **** {
 471              		.loc 1 176 1
 472              		.cfi_startproc
 473              		@ args = 0, pretend = 0, frame = 32
 474              		@ frame_needed = 1, uses_anonymous_args = 0
 475              		@ link register save eliminated.
 476 0000 80B4     		push	{r7}
 477              	.LCFI20:
 478              		.cfi_def_cfa_offset 4
 479              		.cfi_offset 7, -4
 480 0002 89B0     		sub	sp, sp, #36
 481              	.LCFI21:
 482              		.cfi_def_cfa_offset 40
 483 0004 00AF     		add	r7, sp, #0
 484              	.LCFI22:
 485              		.cfi_def_cfa_register 7
 486 0006 F860     		str	r0, [r7, #12]
 487 0008 B960     		str	r1, [r7, #8]
 488 000a 7A60     		str	r2, [r7, #4]
 177:/home/fanxinhao/Work/LiteOS_Lab_2/iot_link/oc/oc_coap/boudica120_oc/boudica120_oc.c ****     int i = 0;
 489              		.loc 1 177 9
 490 000c 0023     		movs	r3, #0
 491 000e FB61     		str	r3, [r7, #28]
 178:/home/fanxinhao/Work/LiteOS_Lab_2/iot_link/oc/oc_coap/boudica120_oc/boudica120_oc.c ****     unsigned char tmp2 = 0x0;
 492              		.loc 1 178 19
 493 0010 0023     		movs	r3, #0
 494 0012 FB76     		strb	r3, [r7, #27]
 179:/home/fanxinhao/Work/LiteOS_Lab_2/iot_link/oc/oc_coap/boudica120_oc/boudica120_oc.c ****     unsigned int tmp = 0;
 495              		.loc 1 179 18
 496 0014 0023     		movs	r3, #0
 497 0016 7B61     		str	r3, [r7, #20]
 180:/home/fanxinhao/Work/LiteOS_Lab_2/iot_link/oc/oc_coap/boudica120_oc/boudica120_oc.c ****     if (NULL == bufin || len <= 0 || NULL == bufout)
 498              		.loc 1 180 8
 499 0018 FB68     		ldr	r3, [r7, #12]
 500 001a 002B     		cmp	r3, #0
 501 001c 05D0     		beq	.L25
 502              		.loc 1 180 23 discriminator 1
 503 001e BB68     		ldr	r3, [r7, #8]
 504 0020 002B     		cmp	r3, #0
 505 0022 02DD     		ble	.L25
 506              		.loc 1 180 35 discriminator 2
 507 0024 7B68     		ldr	r3, [r7, #4]
 508 0026 002B     		cmp	r3, #0
ARM GAS  /tmp/ccRaplPO.s 			page 13


 509 0028 02D1     		bne	.L26
 510              	.L25:
 181:/home/fanxinhao/Work/LiteOS_Lab_2/iot_link/oc/oc_coap/boudica120_oc/boudica120_oc.c ****     {
 182:/home/fanxinhao/Work/LiteOS_Lab_2/iot_link/oc/oc_coap/boudica120_oc/boudica120_oc.c ****         return -1;
 511              		.loc 1 182 16
 512 002a 4FF0FF33 		mov	r3, #-1
 513 002e 3BE0     		b	.L27
 514              	.L26:
 183:/home/fanxinhao/Work/LiteOS_Lab_2/iot_link/oc/oc_coap/boudica120_oc/boudica120_oc.c ****     }
 184:/home/fanxinhao/Work/LiteOS_Lab_2/iot_link/oc/oc_coap/boudica120_oc/boudica120_oc.c ****     for(i = 0; i < len; i = i+2)
 515              		.loc 1 184 11
 516 0030 0023     		movs	r3, #0
 517 0032 FB61     		str	r3, [r7, #28]
 518              		.loc 1 184 5
 519 0034 33E0     		b	.L28
 520              	.L33:
 185:/home/fanxinhao/Work/LiteOS_Lab_2/iot_link/oc/oc_coap/boudica120_oc/boudica120_oc.c ****     {
 186:/home/fanxinhao/Work/LiteOS_Lab_2/iot_link/oc/oc_coap/boudica120_oc/boudica120_oc.c ****         tmp2 =  bufin[i];
 521              		.loc 1 186 22
 522 0036 FB69     		ldr	r3, [r7, #28]
 523 0038 FA68     		ldr	r2, [r7, #12]
 524 003a 1344     		add	r3, r3, r2
 525              		.loc 1 186 14
 526 003c 1B78     		ldrb	r3, [r3]
 527 003e FB76     		strb	r3, [r7, #27]
 187:/home/fanxinhao/Work/LiteOS_Lab_2/iot_link/oc/oc_coap/boudica120_oc/boudica120_oc.c ****         tmp2 =  tmp2 <= '9'?tmp2-0x30:tmp2-0x37;
 528              		.loc 1 187 14
 529 0040 FB7E     		ldrb	r3, [r7, #27]	@ zero_extendqisi2
 530 0042 392B     		cmp	r3, #57
 531 0044 03D8     		bhi	.L29
 532              		.loc 1 187 14 is_stmt 0 discriminator 1
 533 0046 FB7E     		ldrb	r3, [r7, #27]
 534 0048 303B     		subs	r3, r3, #48
 535 004a DBB2     		uxtb	r3, r3
 536 004c 02E0     		b	.L30
 537              	.L29:
 538              		.loc 1 187 14 discriminator 2
 539 004e FB7E     		ldrb	r3, [r7, #27]
 540 0050 373B     		subs	r3, r3, #55
 541 0052 DBB2     		uxtb	r3, r3
 542              	.L30:
 543              		.loc 1 187 14 discriminator 4
 544 0054 FB76     		strb	r3, [r7, #27]
 188:/home/fanxinhao/Work/LiteOS_Lab_2/iot_link/oc/oc_coap/boudica120_oc/boudica120_oc.c ****         tmp =  bufin[i+1];
 545              		.loc 1 188 21 is_stmt 1 discriminator 4
 546 0056 FB69     		ldr	r3, [r7, #28]
 547 0058 0133     		adds	r3, r3, #1
 548 005a FA68     		ldr	r2, [r7, #12]
 549 005c 1344     		add	r3, r3, r2
 550 005e 1B78     		ldrb	r3, [r3]	@ zero_extendqisi2
 551              		.loc 1 188 13 discriminator 4
 552 0060 7B61     		str	r3, [r7, #20]
 189:/home/fanxinhao/Work/LiteOS_Lab_2/iot_link/oc/oc_coap/boudica120_oc/boudica120_oc.c ****         tmp =  tmp <= '9'?tmp-0x30:tmp-0x37;
 553              		.loc 1 189 35 discriminator 4
 554 0062 7B69     		ldr	r3, [r7, #20]
 555 0064 392B     		cmp	r3, #57
 556 0066 02D8     		bhi	.L31
ARM GAS  /tmp/ccRaplPO.s 			page 14


 557              		.loc 1 189 35 is_stmt 0 discriminator 1
 558 0068 7B69     		ldr	r3, [r7, #20]
 559 006a 303B     		subs	r3, r3, #48
 560 006c 01E0     		b	.L32
 561              	.L31:
 562              		.loc 1 189 35 discriminator 2
 563 006e 7B69     		ldr	r3, [r7, #20]
 564 0070 373B     		subs	r3, r3, #55
 565              	.L32:
 566              		.loc 1 189 13 is_stmt 1 discriminator 4
 567 0072 7B61     		str	r3, [r7, #20]
 190:/home/fanxinhao/Work/LiteOS_Lab_2/iot_link/oc/oc_coap/boudica120_oc/boudica120_oc.c ****         bufout[i/2] =(tmp2<<4)|(tmp&0x0F);
 568              		.loc 1 190 27 discriminator 4
 569 0074 FB7E     		ldrb	r3, [r7, #27]
 570 0076 1B01     		lsls	r3, r3, #4
 571 0078 D9B2     		uxtb	r1, r3
 572              		.loc 1 190 36 discriminator 4
 573 007a 7B69     		ldr	r3, [r7, #20]
 574 007c DBB2     		uxtb	r3, r3
 575 007e 03F00F03 		and	r3, r3, #15
 576 0082 DAB2     		uxtb	r2, r3
 577              		.loc 1 190 17 discriminator 4
 578 0084 FB69     		ldr	r3, [r7, #28]
 579 0086 D80F     		lsrs	r0, r3, #31
 580 0088 0344     		add	r3, r3, r0
 581 008a 5B10     		asrs	r3, r3, #1
 582 008c 1846     		mov	r0, r3
 583              		.loc 1 190 15 discriminator 4
 584 008e 7B68     		ldr	r3, [r7, #4]
 585 0090 0344     		add	r3, r3, r0
 586              		.loc 1 190 31 discriminator 4
 587 0092 0A43     		orrs	r2, r2, r1
 588 0094 D2B2     		uxtb	r2, r2
 589              		.loc 1 190 21 discriminator 4
 590 0096 1A70     		strb	r2, [r3]
 184:/home/fanxinhao/Work/LiteOS_Lab_2/iot_link/oc/oc_coap/boudica120_oc/boudica120_oc.c ****     {
 591              		.loc 1 184 27 discriminator 4
 592 0098 FB69     		ldr	r3, [r7, #28]
 593 009a 0233     		adds	r3, r3, #2
 594 009c FB61     		str	r3, [r7, #28]
 595              	.L28:
 184:/home/fanxinhao/Work/LiteOS_Lab_2/iot_link/oc/oc_coap/boudica120_oc/boudica120_oc.c ****     {
 596              		.loc 1 184 5 discriminator 2
 597 009e FA69     		ldr	r2, [r7, #28]
 598 00a0 BB68     		ldr	r3, [r7, #8]
 599 00a2 9A42     		cmp	r2, r3
 600 00a4 C7DB     		blt	.L33
 191:/home/fanxinhao/Work/LiteOS_Lab_2/iot_link/oc/oc_coap/boudica120_oc/boudica120_oc.c ****     }
 192:/home/fanxinhao/Work/LiteOS_Lab_2/iot_link/oc/oc_coap/boudica120_oc/boudica120_oc.c ****     return 0;
 601              		.loc 1 192 12
 602 00a6 0023     		movs	r3, #0
 603              	.L27:
 193:/home/fanxinhao/Work/LiteOS_Lab_2/iot_link/oc/oc_coap/boudica120_oc/boudica120_oc.c **** }
 604              		.loc 1 193 1
 605 00a8 1846     		mov	r0, r3
 606 00aa 2437     		adds	r7, r7, #36
 607              	.LCFI23:
ARM GAS  /tmp/ccRaplPO.s 			page 15


 608              		.cfi_def_cfa_offset 4
 609 00ac BD46     		mov	sp, r7
 610              	.LCFI24:
 611              		.cfi_def_cfa_register 13
 612              		@ sp needed
 613 00ae 5DF8047B 		ldr	r7, [sp], #4
 614              	.LCFI25:
 615              		.cfi_restore 7
 616              		.cfi_def_cfa_offset 0
 617 00b2 7047     		bx	lr
 618              		.cfi_endproc
 619              	.LFE7:
 621              		.section	.rodata
 622 001e 0000     		.align	2
 623              	.LC4:
 624 0020 5B25735D 		.ascii	"[%s][%u][%s:%d] %s:invalid frame:%d byte:%s\012\015"
 624      5B25755D 
 624      5B25733A 
 624      25645D20 
 624      25733A69 
 625 004d 0D0A00   		.ascii	"\015\012\000"
 626              		.align	2
 627              	.LC5:
 628 0050 5B25735D 		.ascii	"[%s][%u][%s:%d] %s:format error\012\015\015\012\000"
 628      5B25755D 
 628      5B25733A 
 628      25645D20 
 628      25733A66 
 629              		.align	2
 630              	.LC6:
 631 0074 5B25735D 		.ascii	"[%s][%u][%s:%d] %s:implement error\012\015\015\012\000"
 631      5B25755D 
 631      5B25733A 
 631      25645D20 
 631      25733A69 
 632 009b 00       		.align	2
 633              	.LC7:
 634 009c 5B25735D 		.ascii	"[%s][%u][%s:%d] %s:frame over: frame:%d  cachelen:%"
 634      5B25755D 
 634      5B25733A 
 634      25645D20 
 634      25733A66 
 635 00cf 64200A0D 		.ascii	"d \012\015\015\012\000"
 635      0D0A00
 636              		.section	.text.boudica120_rcvdeal,"ax",%progbits
 637              		.align	1
 638              		.syntax unified
 639              		.thumb
 640              		.thumb_func
 641              		.fpu fpv4-sp-d16
 643              	boudica120_rcvdeal:
 644              	.LFB8:
 194:/home/fanxinhao/Work/LiteOS_Lab_2/iot_link/oc/oc_coap/boudica120_oc/boudica120_oc.c **** 
 195:/home/fanxinhao/Work/LiteOS_Lab_2/iot_link/oc/oc_coap/boudica120_oc/boudica120_oc.c **** static int boudica120_rcvdeal(void *args,void *msg,size_t len)
 196:/home/fanxinhao/Work/LiteOS_Lab_2/iot_link/oc/oc_coap/boudica120_oc/boudica120_oc.c **** {
 645              		.loc 1 196 1
 646              		.cfi_startproc
ARM GAS  /tmp/ccRaplPO.s 			page 16


 647              		@ args = 0, pretend = 0, frame = 32
 648              		@ frame_needed = 1, uses_anonymous_args = 0
 649 0000 90B5     		push	{r4, r7, lr}
 650              	.LCFI26:
 651              		.cfi_def_cfa_offset 12
 652              		.cfi_offset 4, -12
 653              		.cfi_offset 7, -8
 654              		.cfi_offset 14, -4
 655 0002 8DB0     		sub	sp, sp, #52
 656              	.LCFI27:
 657              		.cfi_def_cfa_offset 64
 658 0004 04AF     		add	r7, sp, #16
 659              	.LCFI28:
 660              		.cfi_def_cfa 7, 48
 661 0006 F860     		str	r0, [r7, #12]
 662 0008 B960     		str	r1, [r7, #8]
 663 000a 7A60     		str	r2, [r7, #4]
 197:/home/fanxinhao/Work/LiteOS_Lab_2/iot_link/oc/oc_coap/boudica120_oc/boudica120_oc.c ****     int ret = 0;
 664              		.loc 1 197 9
 665 000c 0023     		movs	r3, #0
 666 000e 7B61     		str	r3, [r7, #20]
 198:/home/fanxinhao/Work/LiteOS_Lab_2/iot_link/oc/oc_coap/boudica120_oc/boudica120_oc.c ****     int datalen;
 199:/home/fanxinhao/Work/LiteOS_Lab_2/iot_link/oc/oc_coap/boudica120_oc/boudica120_oc.c ****     char *data;
 200:/home/fanxinhao/Work/LiteOS_Lab_2/iot_link/oc/oc_coap/boudica120_oc/boudica120_oc.c ****     char  *str;
 201:/home/fanxinhao/Work/LiteOS_Lab_2/iot_link/oc/oc_coap/boudica120_oc/boudica120_oc.c **** 
 202:/home/fanxinhao/Work/LiteOS_Lab_2/iot_link/oc/oc_coap/boudica120_oc/boudica120_oc.c ****     data = msg;
 667              		.loc 1 202 10
 668 0010 BB68     		ldr	r3, [r7, #8]
 669 0012 3B61     		str	r3, [r7, #16]
 203:/home/fanxinhao/Work/LiteOS_Lab_2/iot_link/oc/oc_coap/boudica120_oc/boudica120_oc.c ****     if(len <strlen(cn_boudica120_rcvindex))
 670              		.loc 1 203 7
 671 0014 7B68     		ldr	r3, [r7, #4]
 672 0016 072B     		cmp	r3, #7
 673 0018 1BD8     		bhi	.L35
 204:/home/fanxinhao/Work/LiteOS_Lab_2/iot_link/oc/oc_coap/boudica120_oc/boudica120_oc.c ****     {
 205:/home/fanxinhao/Work/LiteOS_Lab_2/iot_link/oc/oc_coap/boudica120_oc/boudica120_oc.c ****         LINK_LOG_DEBUG("%s:invalid frame:%d byte:%s\n\r",__FUNCTION__,len,(char *)data);
 674              		.loc 1 205 9
 675 001a FFF7FEFF 		bl	link_log_level_get
 676 001e 0346     		mov	r3, r0
 677 0020 012B     		cmp	r3, #1
 678 0022 14D8     		bhi	.L36
 679              		.loc 1 205 9 is_stmt 0 discriminator 1
 680 0024 0120     		movs	r0, #1
 681 0026 FFF7FEFF 		bl	link_log_level_name
 682 002a 0446     		mov	r4, r0
 683 002c FFF7FEFF 		bl	osal_sys_time
 684 0030 0246     		mov	r2, r0
 685 0032 0B46     		mov	r3, r1
 686 0034 3B69     		ldr	r3, [r7, #16]
 687 0036 0393     		str	r3, [sp, #12]
 688 0038 7B68     		ldr	r3, [r7, #4]
 689 003a 0293     		str	r3, [sp, #8]
 690 003c 524B     		ldr	r3, .L48
 691 003e 0193     		str	r3, [sp, #4]
 692 0040 CD23     		movs	r3, #205
 693 0042 0093     		str	r3, [sp]
 694 0044 504B     		ldr	r3, .L48
ARM GAS  /tmp/ccRaplPO.s 			page 17


 695 0046 2146     		mov	r1, r4
 696 0048 5048     		ldr	r0, .L48+4
 697 004a FFF7FEFF 		bl	printf
 698              	.L36:
 206:/home/fanxinhao/Work/LiteOS_Lab_2/iot_link/oc/oc_coap/boudica120_oc/boudica120_oc.c ****         return ret;
 699              		.loc 1 206 16 is_stmt 1
 700 004e 7B69     		ldr	r3, [r7, #20]
 701 0050 96E0     		b	.L37
 702              	.L35:
 207:/home/fanxinhao/Work/LiteOS_Lab_2/iot_link/oc/oc_coap/boudica120_oc/boudica120_oc.c ****     }
 208:/home/fanxinhao/Work/LiteOS_Lab_2/iot_link/oc/oc_coap/boudica120_oc/boudica120_oc.c ****     //now deal the data
 209:/home/fanxinhao/Work/LiteOS_Lab_2/iot_link/oc/oc_coap/boudica120_oc/boudica120_oc.c ****     str = strstr((char *)data,":");
 703              		.loc 1 209 11
 704 0052 3A21     		movs	r1, #58
 705 0054 3869     		ldr	r0, [r7, #16]
 706 0056 FFF7FEFF 		bl	strchr
 707 005a B861     		str	r0, [r7, #24]
 210:/home/fanxinhao/Work/LiteOS_Lab_2/iot_link/oc/oc_coap/boudica120_oc/boudica120_oc.c ****     if(NULL == str)
 708              		.loc 1 210 7
 709 005c BB69     		ldr	r3, [r7, #24]
 710 005e 002B     		cmp	r3, #0
 711 0060 17D1     		bne	.L38
 211:/home/fanxinhao/Work/LiteOS_Lab_2/iot_link/oc/oc_coap/boudica120_oc/boudica120_oc.c ****     {
 212:/home/fanxinhao/Work/LiteOS_Lab_2/iot_link/oc/oc_coap/boudica120_oc/boudica120_oc.c ****         LINK_LOG_DEBUG("%s:format error\n\r",__FUNCTION__);
 712              		.loc 1 212 9
 713 0062 FFF7FEFF 		bl	link_log_level_get
 714 0066 0346     		mov	r3, r0
 715 0068 012B     		cmp	r3, #1
 716 006a 10D8     		bhi	.L39
 717              		.loc 1 212 9 is_stmt 0 discriminator 1
 718 006c 0120     		movs	r0, #1
 719 006e FFF7FEFF 		bl	link_log_level_name
 720 0072 0446     		mov	r4, r0
 721 0074 FFF7FEFF 		bl	osal_sys_time
 722 0078 0246     		mov	r2, r0
 723 007a 0B46     		mov	r3, r1
 724 007c 424B     		ldr	r3, .L48
 725 007e 0193     		str	r3, [sp, #4]
 726 0080 D423     		movs	r3, #212
 727 0082 0093     		str	r3, [sp]
 728 0084 404B     		ldr	r3, .L48
 729 0086 2146     		mov	r1, r4
 730 0088 4148     		ldr	r0, .L48+8
 731 008a FFF7FEFF 		bl	printf
 732              	.L39:
 213:/home/fanxinhao/Work/LiteOS_Lab_2/iot_link/oc/oc_coap/boudica120_oc/boudica120_oc.c ****         return ret; //format error
 733              		.loc 1 213 16 is_stmt 1
 734 008e 7B69     		ldr	r3, [r7, #20]
 735 0090 76E0     		b	.L37
 736              	.L38:
 214:/home/fanxinhao/Work/LiteOS_Lab_2/iot_link/oc/oc_coap/boudica120_oc/boudica120_oc.c ****     }
 215:/home/fanxinhao/Work/LiteOS_Lab_2/iot_link/oc/oc_coap/boudica120_oc/boudica120_oc.c ****     str++;
 737              		.loc 1 215 8
 738 0092 BB69     		ldr	r3, [r7, #24]
 739 0094 0133     		adds	r3, r3, #1
 740 0096 BB61     		str	r3, [r7, #24]
 216:/home/fanxinhao/Work/LiteOS_Lab_2/iot_link/oc/oc_coap/boudica120_oc/boudica120_oc.c ****     datalen = 0;
ARM GAS  /tmp/ccRaplPO.s 			page 18


 741              		.loc 1 216 13
 742 0098 0023     		movs	r3, #0
 743 009a FB61     		str	r3, [r7, #28]
 217:/home/fanxinhao/Work/LiteOS_Lab_2/iot_link/oc/oc_coap/boudica120_oc/boudica120_oc.c ****     for (; *str <= '9' && *str >= '0' ;str++)
 744              		.loc 1 217 5
 745 009c 0DE0     		b	.L40
 746              	.L42:
 218:/home/fanxinhao/Work/LiteOS_Lab_2/iot_link/oc/oc_coap/boudica120_oc/boudica120_oc.c ****     {
 219:/home/fanxinhao/Work/LiteOS_Lab_2/iot_link/oc/oc_coap/boudica120_oc/boudica120_oc.c ****         datalen = (datalen * 10 + (*str - '0'));
 747              		.loc 1 219 28 discriminator 3
 748 009e FA69     		ldr	r2, [r7, #28]
 749 00a0 1346     		mov	r3, r2
 750 00a2 9B00     		lsls	r3, r3, #2
 751 00a4 1344     		add	r3, r3, r2
 752 00a6 5B00     		lsls	r3, r3, #1
 753 00a8 1A46     		mov	r2, r3
 754              		.loc 1 219 36 discriminator 3
 755 00aa BB69     		ldr	r3, [r7, #24]
 756 00ac 1B78     		ldrb	r3, [r3]	@ zero_extendqisi2
 757              		.loc 1 219 41 discriminator 3
 758 00ae 303B     		subs	r3, r3, #48
 759              		.loc 1 219 17 discriminator 3
 760 00b0 1344     		add	r3, r3, r2
 761 00b2 FB61     		str	r3, [r7, #28]
 217:/home/fanxinhao/Work/LiteOS_Lab_2/iot_link/oc/oc_coap/boudica120_oc/boudica120_oc.c ****     for (; *str <= '9' && *str >= '0' ;str++)
 762              		.loc 1 217 43 discriminator 3
 763 00b4 BB69     		ldr	r3, [r7, #24]
 764 00b6 0133     		adds	r3, r3, #1
 765 00b8 BB61     		str	r3, [r7, #24]
 766              	.L40:
 217:/home/fanxinhao/Work/LiteOS_Lab_2/iot_link/oc/oc_coap/boudica120_oc/boudica120_oc.c ****     for (; *str <= '9' && *str >= '0' ;str++)
 767              		.loc 1 217 12 discriminator 1
 768 00ba BB69     		ldr	r3, [r7, #24]
 769 00bc 1B78     		ldrb	r3, [r3]	@ zero_extendqisi2
 217:/home/fanxinhao/Work/LiteOS_Lab_2/iot_link/oc/oc_coap/boudica120_oc/boudica120_oc.c ****     for (; *str <= '9' && *str >= '0' ;str++)
 770              		.loc 1 217 5 discriminator 1
 771 00be 392B     		cmp	r3, #57
 772 00c0 03D8     		bhi	.L41
 217:/home/fanxinhao/Work/LiteOS_Lab_2/iot_link/oc/oc_coap/boudica120_oc/boudica120_oc.c ****     for (; *str <= '9' && *str >= '0' ;str++)
 773              		.loc 1 217 27 discriminator 2
 774 00c2 BB69     		ldr	r3, [r7, #24]
 775 00c4 1B78     		ldrb	r3, [r3]	@ zero_extendqisi2
 217:/home/fanxinhao/Work/LiteOS_Lab_2/iot_link/oc/oc_coap/boudica120_oc/boudica120_oc.c ****     for (; *str <= '9' && *str >= '0' ;str++)
 776              		.loc 1 217 24 discriminator 2
 777 00c6 2F2B     		cmp	r3, #47
 778 00c8 E9D8     		bhi	.L42
 779              	.L41:
 220:/home/fanxinhao/Work/LiteOS_Lab_2/iot_link/oc/oc_coap/boudica120_oc/boudica120_oc.c ****     }
 221:/home/fanxinhao/Work/LiteOS_Lab_2/iot_link/oc/oc_coap/boudica120_oc/boudica120_oc.c ****     str++;
 780              		.loc 1 221 8
 781 00ca BB69     		ldr	r3, [r7, #24]
 782 00cc 0133     		adds	r3, r3, #1
 783 00ce BB61     		str	r3, [r7, #24]
 222:/home/fanxinhao/Work/LiteOS_Lab_2/iot_link/oc/oc_coap/boudica120_oc/boudica120_oc.c ****     //now this is data of hex string
 223:/home/fanxinhao/Work/LiteOS_Lab_2/iot_link/oc/oc_coap/boudica120_oc/boudica120_oc.c ****     if((unsigned int)(str + datalen*2 +2) > (unsigned int)(data + len))
 784              		.loc 1 223 36
 785 00d0 FB69     		ldr	r3, [r7, #28]
ARM GAS  /tmp/ccRaplPO.s 			page 19


 786 00d2 5B00     		lsls	r3, r3, #1
 787              		.loc 1 223 39
 788 00d4 0233     		adds	r3, r3, #2
 789 00d6 BA69     		ldr	r2, [r7, #24]
 790 00d8 1344     		add	r3, r3, r2
 791              		.loc 1 223 8
 792 00da 1946     		mov	r1, r3
 793              		.loc 1 223 65
 794 00dc 3A69     		ldr	r2, [r7, #16]
 795 00de 7B68     		ldr	r3, [r7, #4]
 796 00e0 1344     		add	r3, r3, r2
 797              		.loc 1 223 7
 798 00e2 9942     		cmp	r1, r3
 799 00e4 17D9     		bls	.L43
 224:/home/fanxinhao/Work/LiteOS_Lab_2/iot_link/oc/oc_coap/boudica120_oc/boudica120_oc.c ****     {
 225:/home/fanxinhao/Work/LiteOS_Lab_2/iot_link/oc/oc_coap/boudica120_oc/boudica120_oc.c ****         LINK_LOG_DEBUG("%s:implement error\n\r",__FUNCTION__);
 800              		.loc 1 225 9
 801 00e6 FFF7FEFF 		bl	link_log_level_get
 802 00ea 0346     		mov	r3, r0
 803 00ec 012B     		cmp	r3, #1
 804 00ee 10D8     		bhi	.L44
 805              		.loc 1 225 9 is_stmt 0 discriminator 1
 806 00f0 0120     		movs	r0, #1
 807 00f2 FFF7FEFF 		bl	link_log_level_name
 808 00f6 0446     		mov	r4, r0
 809 00f8 FFF7FEFF 		bl	osal_sys_time
 810 00fc 0246     		mov	r2, r0
 811 00fe 0B46     		mov	r3, r1
 812 0100 214B     		ldr	r3, .L48
 813 0102 0193     		str	r3, [sp, #4]
 814 0104 E123     		movs	r3, #225
 815 0106 0093     		str	r3, [sp]
 816 0108 1F4B     		ldr	r3, .L48
 817 010a 2146     		mov	r1, r4
 818 010c 2148     		ldr	r0, .L48+12
 819 010e FFF7FEFF 		bl	printf
 820              	.L44:
 226:/home/fanxinhao/Work/LiteOS_Lab_2/iot_link/oc/oc_coap/boudica120_oc/boudica120_oc.c ****         return ret; //
 821              		.loc 1 226 16 is_stmt 1
 822 0112 7B69     		ldr	r3, [r7, #20]
 823 0114 34E0     		b	.L37
 824              	.L43:
 227:/home/fanxinhao/Work/LiteOS_Lab_2/iot_link/oc/oc_coap/boudica120_oc/boudica120_oc.c ****     }
 228:/home/fanxinhao/Work/LiteOS_Lab_2/iot_link/oc/oc_coap/boudica120_oc/boudica120_oc.c ****     if(datalen > cn_boudica120_cachelen)
 825              		.loc 1 228 7
 826 0116 FB69     		ldr	r3, [r7, #28]
 827 0118 802B     		cmp	r3, #128
 828 011a 1BDD     		ble	.L45
 229:/home/fanxinhao/Work/LiteOS_Lab_2/iot_link/oc/oc_coap/boudica120_oc/boudica120_oc.c ****     {
 230:/home/fanxinhao/Work/LiteOS_Lab_2/iot_link/oc/oc_coap/boudica120_oc/boudica120_oc.c ****         LINK_LOG_DEBUG("%s:frame over: frame:%d  cachelen:%d \n\r",__FUNCTION__,datalen,cn_boudica1
 829              		.loc 1 230 9
 830 011c FFF7FEFF 		bl	link_log_level_get
 831 0120 0346     		mov	r3, r0
 832 0122 012B     		cmp	r3, #1
 833 0124 14D8     		bhi	.L46
 834              		.loc 1 230 9 is_stmt 0 discriminator 1
 835 0126 0120     		movs	r0, #1
ARM GAS  /tmp/ccRaplPO.s 			page 20


 836 0128 FFF7FEFF 		bl	link_log_level_name
 837 012c 0446     		mov	r4, r0
 838 012e FFF7FEFF 		bl	osal_sys_time
 839 0132 0246     		mov	r2, r0
 840 0134 0B46     		mov	r3, r1
 841 0136 8023     		movs	r3, #128
 842 0138 0393     		str	r3, [sp, #12]
 843 013a FB69     		ldr	r3, [r7, #28]
 844 013c 0293     		str	r3, [sp, #8]
 845 013e 124B     		ldr	r3, .L48
 846 0140 0193     		str	r3, [sp, #4]
 847 0142 E623     		movs	r3, #230
 848 0144 0093     		str	r3, [sp]
 849 0146 104B     		ldr	r3, .L48
 850 0148 2146     		mov	r1, r4
 851 014a 1348     		ldr	r0, .L48+16
 852 014c FFF7FEFF 		bl	printf
 853              	.L46:
 231:/home/fanxinhao/Work/LiteOS_Lab_2/iot_link/oc/oc_coap/boudica120_oc/boudica120_oc.c ****         return ret; //
 854              		.loc 1 231 16 is_stmt 1
 855 0150 7B69     		ldr	r3, [r7, #20]
 856 0152 15E0     		b	.L37
 857              	.L45:
 232:/home/fanxinhao/Work/LiteOS_Lab_2/iot_link/oc/oc_coap/boudica120_oc/boudica120_oc.c ****     }
 233:/home/fanxinhao/Work/LiteOS_Lab_2/iot_link/oc/oc_coap/boudica120_oc/boudica120_oc.c ****     (void) memset(s_boudica120_oc_cb.rcvbuf,0,cn_boudica120_cachelen);
 858              		.loc 1 233 12
 859 0154 8022     		movs	r2, #128
 860 0156 0021     		movs	r1, #0
 861 0158 1048     		ldr	r0, .L48+20
 862 015a FFF7FEFF 		bl	memset
 234:/home/fanxinhao/Work/LiteOS_Lab_2/iot_link/oc/oc_coap/boudica120_oc/boudica120_oc.c ****     hexstr_to_byte(str,datalen*2,(char *)s_boudica120_oc_cb.rcvbuf);
 863              		.loc 1 234 5
 864 015e FB69     		ldr	r3, [r7, #28]
 865 0160 5B00     		lsls	r3, r3, #1
 866 0162 0E4A     		ldr	r2, .L48+20
 867 0164 1946     		mov	r1, r3
 868 0166 B869     		ldr	r0, [r7, #24]
 869 0168 FFF7FEFF 		bl	hexstr_to_byte
 235:/home/fanxinhao/Work/LiteOS_Lab_2/iot_link/oc/oc_coap/boudica120_oc/boudica120_oc.c **** 
 236:/home/fanxinhao/Work/LiteOS_Lab_2/iot_link/oc/oc_coap/boudica120_oc/boudica120_oc.c ****     if(NULL != s_boudica120_oc_cb.oc_param.rcv_func)
 870              		.loc 1 236 43
 871 016c 0C4B     		ldr	r3, .L48+24
 872 016e 1B6C     		ldr	r3, [r3, #64]
 873              		.loc 1 236 7
 874 0170 002B     		cmp	r3, #0
 875 0172 04D0     		beq	.L47
 237:/home/fanxinhao/Work/LiteOS_Lab_2/iot_link/oc/oc_coap/boudica120_oc/boudica120_oc.c ****     {
 238:/home/fanxinhao/Work/LiteOS_Lab_2/iot_link/oc/oc_coap/boudica120_oc/boudica120_oc.c ****         s_boudica120_oc_cb.oc_param.rcv_func((char *)s_boudica120_oc_cb.rcvbuf,datalen);
 876              		.loc 1 238 36
 877 0174 0A4B     		ldr	r3, .L48+24
 878 0176 1B6C     		ldr	r3, [r3, #64]
 879              		.loc 1 238 9
 880 0178 F969     		ldr	r1, [r7, #28]
 881 017a 0848     		ldr	r0, .L48+20
 882 017c 9847     		blx	r3
 883              	.LVL0:
 884              	.L47:
ARM GAS  /tmp/ccRaplPO.s 			page 21


 239:/home/fanxinhao/Work/LiteOS_Lab_2/iot_link/oc/oc_coap/boudica120_oc/boudica120_oc.c ****     }
 240:/home/fanxinhao/Work/LiteOS_Lab_2/iot_link/oc/oc_coap/boudica120_oc/boudica120_oc.c **** 
 241:/home/fanxinhao/Work/LiteOS_Lab_2/iot_link/oc/oc_coap/boudica120_oc/boudica120_oc.c ****     return len;
 885              		.loc 1 241 12
 886 017e 7B68     		ldr	r3, [r7, #4]
 887              	.L37:
 242:/home/fanxinhao/Work/LiteOS_Lab_2/iot_link/oc/oc_coap/boudica120_oc/boudica120_oc.c **** }
 888              		.loc 1 242 1
 889 0180 1846     		mov	r0, r3
 890 0182 2437     		adds	r7, r7, #36
 891              	.LCFI29:
 892              		.cfi_def_cfa_offset 12
 893 0184 BD46     		mov	sp, r7
 894              	.LCFI30:
 895              		.cfi_def_cfa_register 13
 896              		@ sp needed
 897 0186 90BD     		pop	{r4, r7, pc}
 898              	.L49:
 899              		.align	2
 900              	.L48:
 901 0188 00000000 		.word	__FUNCTION__.7076
 902 018c 20000000 		.word	.LC4
 903 0190 50000000 		.word	.LC5
 904 0194 74000000 		.word	.LC6
 905 0198 9C000000 		.word	.LC7
 906 019c CC000000 		.word	s_boudica120_oc_cb+204
 907 01a0 00000000 		.word	s_boudica120_oc_cb
 908              		.cfi_endproc
 909              	.LFE8:
 911              		.section	.rodata
 912 00d6 0000     		.align	2
 913              	.LC8:
 914 00d8 41544525 		.ascii	"ATE%d\015\000"
 914      640D00
 915              		.section	.text.boudica120_set_echo,"ax",%progbits
 916              		.align	1
 917              		.syntax unified
 918              		.thumb
 919              		.thumb_func
 920              		.fpu fpv4-sp-d16
 922              	boudica120_set_echo:
 923              	.LFB9:
 243:/home/fanxinhao/Work/LiteOS_Lab_2/iot_link/oc/oc_coap/boudica120_oc/boudica120_oc.c **** 
 244:/home/fanxinhao/Work/LiteOS_Lab_2/iot_link/oc/oc_coap/boudica120_oc/boudica120_oc.c **** //enable the echooff
 245:/home/fanxinhao/Work/LiteOS_Lab_2/iot_link/oc/oc_coap/boudica120_oc/boudica120_oc.c **** static bool_t boudica120_set_echo(int enable)
 246:/home/fanxinhao/Work/LiteOS_Lab_2/iot_link/oc/oc_coap/boudica120_oc/boudica120_oc.c **** {
 924              		.loc 1 246 1
 925              		.cfi_startproc
 926              		@ args = 0, pretend = 0, frame = 80
 927              		@ frame_needed = 1, uses_anonymous_args = 0
 928 0000 80B5     		push	{r7, lr}
 929              	.LCFI31:
 930              		.cfi_def_cfa_offset 8
 931              		.cfi_offset 7, -8
 932              		.cfi_offset 14, -4
 933 0002 94B0     		sub	sp, sp, #80
 934              	.LCFI32:
ARM GAS  /tmp/ccRaplPO.s 			page 22


 935              		.cfi_def_cfa_offset 88
 936 0004 00AF     		add	r7, sp, #0
 937              	.LCFI33:
 938              		.cfi_def_cfa_register 7
 939 0006 7860     		str	r0, [r7, #4]
 247:/home/fanxinhao/Work/LiteOS_Lab_2/iot_link/oc/oc_coap/boudica120_oc/boudica120_oc.c ****     bool_t ret ;
 248:/home/fanxinhao/Work/LiteOS_Lab_2/iot_link/oc/oc_coap/boudica120_oc/boudica120_oc.c ****     char cmd[64];
 249:/home/fanxinhao/Work/LiteOS_Lab_2/iot_link/oc/oc_coap/boudica120_oc/boudica120_oc.c ****     (void) memset(cmd,0,64);
 940              		.loc 1 249 12
 941 0008 07F10C03 		add	r3, r7, #12
 942 000c 4022     		movs	r2, #64
 943 000e 0021     		movs	r1, #0
 944 0010 1846     		mov	r0, r3
 945 0012 FFF7FEFF 		bl	memset
 250:/home/fanxinhao/Work/LiteOS_Lab_2/iot_link/oc/oc_coap/boudica120_oc/boudica120_oc.c ****     (void) snprintf(cmd,64,"ATE%d\r",enable);
 946              		.loc 1 250 12
 947 0016 07F10C00 		add	r0, r7, #12
 948 001a 7B68     		ldr	r3, [r7, #4]
 949 001c 074A     		ldr	r2, .L52
 950 001e 4021     		movs	r1, #64
 951 0020 FFF7FEFF 		bl	snprintf
 251:/home/fanxinhao/Work/LiteOS_Lab_2/iot_link/oc/oc_coap/boudica120_oc/boudica120_oc.c **** 
 252:/home/fanxinhao/Work/LiteOS_Lab_2/iot_link/oc/oc_coap/boudica120_oc/boudica120_oc.c ****     ret = boudica120_atcmd(cmd,"OK");
 952              		.loc 1 252 11
 953 0024 07F10C03 		add	r3, r7, #12
 954 0028 0549     		ldr	r1, .L52+4
 955 002a 1846     		mov	r0, r3
 956 002c FFF7FEFF 		bl	boudica120_atcmd
 957 0030 F864     		str	r0, [r7, #76]
 253:/home/fanxinhao/Work/LiteOS_Lab_2/iot_link/oc/oc_coap/boudica120_oc/boudica120_oc.c **** 
 254:/home/fanxinhao/Work/LiteOS_Lab_2/iot_link/oc/oc_coap/boudica120_oc/boudica120_oc.c ****     return ret;
 958              		.loc 1 254 12
 959 0032 FB6C     		ldr	r3, [r7, #76]
 255:/home/fanxinhao/Work/LiteOS_Lab_2/iot_link/oc/oc_coap/boudica120_oc/boudica120_oc.c **** }
 960              		.loc 1 255 1
 961 0034 1846     		mov	r0, r3
 962 0036 5037     		adds	r7, r7, #80
 963              	.LCFI34:
 964              		.cfi_def_cfa_offset 8
 965 0038 BD46     		mov	sp, r7
 966              	.LCFI35:
 967              		.cfi_def_cfa_register 13
 968              		@ sp needed
 969 003a 80BD     		pop	{r7, pc}
 970              	.L53:
 971              		.align	2
 972              	.L52:
 973 003c D8000000 		.word	.LC8
 974 0040 14000000 		.word	.LC2
 975              		.cfi_endproc
 976              	.LFE9:
 978              		.section	.rodata
 979 00df 00       		.align	2
 980              	.LC9:
 981 00e0 5245424F 		.ascii	"REBOOTING\000"
 981      4F54494E 
 981      4700
ARM GAS  /tmp/ccRaplPO.s 			page 23


 982 00ea 0000     		.align	2
 983              	.LC10:
 984 00ec 41542B4E 		.ascii	"AT+NRB\015\000"
 984      52420D00 
 985              		.section	.text.boudica120_reboot,"ax",%progbits
 986              		.align	1
 987              		.syntax unified
 988              		.thumb
 989              		.thumb_func
 990              		.fpu fpv4-sp-d16
 992              	boudica120_reboot:
 993              	.LFB10:
 256:/home/fanxinhao/Work/LiteOS_Lab_2/iot_link/oc/oc_coap/boudica120_oc/boudica120_oc.c **** 
 257:/home/fanxinhao/Work/LiteOS_Lab_2/iot_link/oc/oc_coap/boudica120_oc/boudica120_oc.c **** 
 258:/home/fanxinhao/Work/LiteOS_Lab_2/iot_link/oc/oc_coap/boudica120_oc/boudica120_oc.c **** //use this function to do the module reboot
 259:/home/fanxinhao/Work/LiteOS_Lab_2/iot_link/oc/oc_coap/boudica120_oc/boudica120_oc.c **** static bool_t boudica120_reboot(void)
 260:/home/fanxinhao/Work/LiteOS_Lab_2/iot_link/oc/oc_coap/boudica120_oc/boudica120_oc.c **** {
 994              		.loc 1 260 1
 995              		.cfi_startproc
 996              		@ args = 0, pretend = 0, frame = 0
 997              		@ frame_needed = 1, uses_anonymous_args = 0
 998 0000 80B5     		push	{r7, lr}
 999              	.LCFI36:
 1000              		.cfi_def_cfa_offset 8
 1001              		.cfi_offset 7, -8
 1002              		.cfi_offset 14, -4
 1003 0002 00AF     		add	r7, sp, #0
 1004              	.LCFI37:
 1005              		.cfi_def_cfa_register 7
 261:/home/fanxinhao/Work/LiteOS_Lab_2/iot_link/oc/oc_coap/boudica120_oc/boudica120_oc.c ****     //do the module reset
 262:/home/fanxinhao/Work/LiteOS_Lab_2/iot_link/oc/oc_coap/boudica120_oc/boudica120_oc.c ****     boudica120_set_echo (0);
 1006              		.loc 1 262 5
 1007 0004 0020     		movs	r0, #0
 1008 0006 FFF7FEFF 		bl	boudica120_set_echo
 263:/home/fanxinhao/Work/LiteOS_Lab_2/iot_link/oc/oc_coap/boudica120_oc/boudica120_oc.c ****     boudica120_set_echo (0);
 1009              		.loc 1 263 5
 1010 000a 0020     		movs	r0, #0
 1011 000c FFF7FEFF 		bl	boudica120_set_echo
 264:/home/fanxinhao/Work/LiteOS_Lab_2/iot_link/oc/oc_coap/boudica120_oc/boudica120_oc.c **** 
 265:/home/fanxinhao/Work/LiteOS_Lab_2/iot_link/oc/oc_coap/boudica120_oc/boudica120_oc.c ****     boudica120_atcmd("AT+NRB\r","REBOOTING");
 1012              		.loc 1 265 5
 1013 0010 0849     		ldr	r1, .L56
 1014 0012 0948     		ldr	r0, .L56+4
 1015 0014 FFF7FEFF 		bl	boudica120_atcmd
 266:/home/fanxinhao/Work/LiteOS_Lab_2/iot_link/oc/oc_coap/boudica120_oc/boudica120_oc.c ****     osal_task_sleep(10000); //wait for the module boot
 1016              		.loc 1 266 5
 1017 0018 42F21070 		movw	r0, #10000
 1018 001c FFF7FEFF 		bl	osal_task_sleep
 267:/home/fanxinhao/Work/LiteOS_Lab_2/iot_link/oc/oc_coap/boudica120_oc/boudica120_oc.c ****     //do the module reset
 268:/home/fanxinhao/Work/LiteOS_Lab_2/iot_link/oc/oc_coap/boudica120_oc/boudica120_oc.c ****     boudica120_set_echo (0);
 1019              		.loc 1 268 5
 1020 0020 0020     		movs	r0, #0
 1021 0022 FFF7FEFF 		bl	boudica120_set_echo
 269:/home/fanxinhao/Work/LiteOS_Lab_2/iot_link/oc/oc_coap/boudica120_oc/boudica120_oc.c ****     boudica120_set_echo (0);
 1022              		.loc 1 269 5
 1023 0026 0020     		movs	r0, #0
 1024 0028 FFF7FEFF 		bl	boudica120_set_echo
ARM GAS  /tmp/ccRaplPO.s 			page 24


 270:/home/fanxinhao/Work/LiteOS_Lab_2/iot_link/oc/oc_coap/boudica120_oc/boudica120_oc.c **** 
 271:/home/fanxinhao/Work/LiteOS_Lab_2/iot_link/oc/oc_coap/boudica120_oc/boudica120_oc.c ****     return true;
 1025              		.loc 1 271 12
 1026 002c 0123     		movs	r3, #1
 272:/home/fanxinhao/Work/LiteOS_Lab_2/iot_link/oc/oc_coap/boudica120_oc/boudica120_oc.c **** }
 1027              		.loc 1 272 1
 1028 002e 1846     		mov	r0, r3
 1029 0030 80BD     		pop	{r7, pc}
 1030              	.L57:
 1031 0032 00BF     		.align	2
 1032              	.L56:
 1033 0034 E0000000 		.word	.LC9
 1034 0038 EC000000 		.word	.LC10
 1035              		.cfi_endproc
 1036              	.LFE10:
 1038              		.section	.rodata
 1039              		.align	2
 1040              	.LC11:
 1041 00f4 41542B43 		.ascii	"AT+CFUN=%d\015\000"
 1041      46554E3D 
 1041      25640D00 
 1042              		.section	.text.boudica120_set_fun,"ax",%progbits
 1043              		.align	1
 1044              		.syntax unified
 1045              		.thumb
 1046              		.thumb_func
 1047              		.fpu fpv4-sp-d16
 1049              	boudica120_set_fun:
 1050              	.LFB11:
 273:/home/fanxinhao/Work/LiteOS_Lab_2/iot_link/oc/oc_coap/boudica120_oc/boudica120_oc.c **** 
 274:/home/fanxinhao/Work/LiteOS_Lab_2/iot_link/oc/oc_coap/boudica120_oc/boudica120_oc.c **** //enable the cfun
 275:/home/fanxinhao/Work/LiteOS_Lab_2/iot_link/oc/oc_coap/boudica120_oc/boudica120_oc.c **** static bool_t boudica120_set_fun(int enable)  //unit second
 276:/home/fanxinhao/Work/LiteOS_Lab_2/iot_link/oc/oc_coap/boudica120_oc/boudica120_oc.c **** {
 1051              		.loc 1 276 1
 1052              		.cfi_startproc
 1053              		@ args = 0, pretend = 0, frame = 80
 1054              		@ frame_needed = 1, uses_anonymous_args = 0
 1055 0000 80B5     		push	{r7, lr}
 1056              	.LCFI38:
 1057              		.cfi_def_cfa_offset 8
 1058              		.cfi_offset 7, -8
 1059              		.cfi_offset 14, -4
 1060 0002 94B0     		sub	sp, sp, #80
 1061              	.LCFI39:
 1062              		.cfi_def_cfa_offset 88
 1063 0004 00AF     		add	r7, sp, #0
 1064              	.LCFI40:
 1065              		.cfi_def_cfa_register 7
 1066 0006 7860     		str	r0, [r7, #4]
 277:/home/fanxinhao/Work/LiteOS_Lab_2/iot_link/oc/oc_coap/boudica120_oc/boudica120_oc.c ****     bool_t ret ;
 278:/home/fanxinhao/Work/LiteOS_Lab_2/iot_link/oc/oc_coap/boudica120_oc/boudica120_oc.c ****     char cmd[64];
 279:/home/fanxinhao/Work/LiteOS_Lab_2/iot_link/oc/oc_coap/boudica120_oc/boudica120_oc.c **** 
 280:/home/fanxinhao/Work/LiteOS_Lab_2/iot_link/oc/oc_coap/boudica120_oc/boudica120_oc.c ****     (void) memset(cmd,0,64);
 1067              		.loc 1 280 12
 1068 0008 07F10C03 		add	r3, r7, #12
 1069 000c 4022     		movs	r2, #64
 1070 000e 0021     		movs	r1, #0
ARM GAS  /tmp/ccRaplPO.s 			page 25


 1071 0010 1846     		mov	r0, r3
 1072 0012 FFF7FEFF 		bl	memset
 281:/home/fanxinhao/Work/LiteOS_Lab_2/iot_link/oc/oc_coap/boudica120_oc/boudica120_oc.c ****     (void) snprintf(cmd,64,"AT+CFUN=%d\r",enable);
 1073              		.loc 1 281 12
 1074 0016 07F10C00 		add	r0, r7, #12
 1075 001a 7B68     		ldr	r3, [r7, #4]
 1076 001c 094A     		ldr	r2, .L60
 1077 001e 4021     		movs	r1, #64
 1078 0020 FFF7FEFF 		bl	snprintf
 282:/home/fanxinhao/Work/LiteOS_Lab_2/iot_link/oc/oc_coap/boudica120_oc/boudica120_oc.c **** 
 283:/home/fanxinhao/Work/LiteOS_Lab_2/iot_link/oc/oc_coap/boudica120_oc/boudica120_oc.c ****     ret = boudica120_atcmd(cmd,"OK");
 1079              		.loc 1 283 11
 1080 0024 07F10C03 		add	r3, r7, #12
 1081 0028 0749     		ldr	r1, .L60+4
 1082 002a 1846     		mov	r0, r3
 1083 002c FFF7FEFF 		bl	boudica120_atcmd
 1084 0030 F864     		str	r0, [r7, #76]
 284:/home/fanxinhao/Work/LiteOS_Lab_2/iot_link/oc/oc_coap/boudica120_oc/boudica120_oc.c ****     //i think we should do some wait here
 285:/home/fanxinhao/Work/LiteOS_Lab_2/iot_link/oc/oc_coap/boudica120_oc/boudica120_oc.c ****     osal_task_sleep(2000);
 1085              		.loc 1 285 5
 1086 0032 4FF4FA60 		mov	r0, #2000
 1087 0036 FFF7FEFF 		bl	osal_task_sleep
 286:/home/fanxinhao/Work/LiteOS_Lab_2/iot_link/oc/oc_coap/boudica120_oc/boudica120_oc.c **** 
 287:/home/fanxinhao/Work/LiteOS_Lab_2/iot_link/oc/oc_coap/boudica120_oc/boudica120_oc.c ****     return ret;
 1088              		.loc 1 287 12
 1089 003a FB6C     		ldr	r3, [r7, #76]
 288:/home/fanxinhao/Work/LiteOS_Lab_2/iot_link/oc/oc_coap/boudica120_oc/boudica120_oc.c **** }
 1090              		.loc 1 288 1
 1091 003c 1846     		mov	r0, r3
 1092 003e 5037     		adds	r7, r7, #80
 1093              	.LCFI41:
 1094              		.cfi_def_cfa_offset 8
 1095 0040 BD46     		mov	sp, r7
 1096              	.LCFI42:
 1097              		.cfi_def_cfa_register 13
 1098              		@ sp needed
 1099 0042 80BD     		pop	{r7, pc}
 1100              	.L61:
 1101              		.align	2
 1102              	.L60:
 1103 0044 F4000000 		.word	.LC11
 1104 0048 14000000 		.word	.LC2
 1105              		.cfi_endproc
 1106              	.LFE11:
 1108              		.section	.rodata
 1109              		.align	2
 1110              	.LC12:
 1111 0100 41542B4E 		.ascii	"AT+NBAND?\015\000"
 1111      42414E44 
 1111      3F0D00
 1112 010b 00       		.align	2
 1113              	.LC13:
 1114 010c 2B4E4241 		.ascii	"+NBAND:%s\015\000"
 1114      4E443A25 
 1114      730D00
 1115 0117 00       		.align	2
 1116              	.LC14:
ARM GAS  /tmp/ccRaplPO.s 			page 26


 1117 0118 41542B4E 		.ascii	"AT+NBAND=%s\015\000"
 1117      42414E44 
 1117      3D25730D 
 1117      00
 1118              		.section	.text.boudica120_set_bands,"ax",%progbits
 1119              		.align	1
 1120              		.syntax unified
 1121              		.thumb
 1122              		.thumb_func
 1123              		.fpu fpv4-sp-d16
 1125              	boudica120_set_bands:
 1126              	.LFB12:
 289:/home/fanxinhao/Work/LiteOS_Lab_2/iot_link/oc/oc_coap/boudica120_oc/boudica120_oc.c **** 
 290:/home/fanxinhao/Work/LiteOS_Lab_2/iot_link/oc/oc_coap/boudica120_oc/boudica120_oc.c **** //use this function to set the band
 291:/home/fanxinhao/Work/LiteOS_Lab_2/iot_link/oc/oc_coap/boudica120_oc/boudica120_oc.c **** static bool_t boudica120_set_bands(const char *bands)
 292:/home/fanxinhao/Work/LiteOS_Lab_2/iot_link/oc/oc_coap/boudica120_oc/boudica120_oc.c **** {
 1127              		.loc 1 292 1
 1128              		.cfi_startproc
 1129              		@ args = 0, pretend = 0, frame = 144
 1130              		@ frame_needed = 1, uses_anonymous_args = 0
 1131 0000 80B5     		push	{r7, lr}
 1132              	.LCFI43:
 1133              		.cfi_def_cfa_offset 8
 1134              		.cfi_offset 7, -8
 1135              		.cfi_offset 14, -4
 1136 0002 A4B0     		sub	sp, sp, #144
 1137              	.LCFI44:
 1138              		.cfi_def_cfa_offset 152
 1139 0004 00AF     		add	r7, sp, #0
 1140              	.LCFI45:
 1141              		.cfi_def_cfa_register 7
 1142 0006 7860     		str	r0, [r7, #4]
 293:/home/fanxinhao/Work/LiteOS_Lab_2/iot_link/oc/oc_coap/boudica120_oc/boudica120_oc.c ****     char cmd[64];
 294:/home/fanxinhao/Work/LiteOS_Lab_2/iot_link/oc/oc_coap/boudica120_oc/boudica120_oc.c ****     char resp[64];
 295:/home/fanxinhao/Work/LiteOS_Lab_2/iot_link/oc/oc_coap/boudica120_oc/boudica120_oc.c ****     bool_t ret = true;
 1143              		.loc 1 295 12
 1144 0008 0123     		movs	r3, #1
 1145 000a C7F88C30 		str	r3, [r7, #140]
 296:/home/fanxinhao/Work/LiteOS_Lab_2/iot_link/oc/oc_coap/boudica120_oc/boudica120_oc.c **** 
 297:/home/fanxinhao/Work/LiteOS_Lab_2/iot_link/oc/oc_coap/boudica120_oc/boudica120_oc.c ****     if(NULL != bands)  //which means we need to set if the default is not the same
 1146              		.loc 1 297 7
 1147 000e 7B68     		ldr	r3, [r7, #4]
 1148 0010 002B     		cmp	r3, #0
 1149 0012 4CD0     		beq	.L63
 298:/home/fanxinhao/Work/LiteOS_Lab_2/iot_link/oc/oc_coap/boudica120_oc/boudica120_oc.c ****     {
 299:/home/fanxinhao/Work/LiteOS_Lab_2/iot_link/oc/oc_coap/boudica120_oc/boudica120_oc.c ****         (void) memset(resp,0,64);
 1150              		.loc 1 299 16
 1151 0014 07F10C03 		add	r3, r7, #12
 1152 0018 4022     		movs	r2, #64
 1153 001a 0021     		movs	r1, #0
 1154 001c 1846     		mov	r0, r3
 1155 001e FFF7FEFF 		bl	memset
 300:/home/fanxinhao/Work/LiteOS_Lab_2/iot_link/oc/oc_coap/boudica120_oc/boudica120_oc.c ****         ret = boudica120_atcmd_response("AT+NBAND?\r","OK",resp,64);
 1156              		.loc 1 300 15
 1157 0022 07F10C02 		add	r2, r7, #12
 1158 0026 4023     		movs	r3, #64
 1159 0028 2449     		ldr	r1, .L67
ARM GAS  /tmp/ccRaplPO.s 			page 27


 1160 002a 2548     		ldr	r0, .L67+4
 1161 002c FFF7FEFF 		bl	boudica120_atcmd_response
 1162 0030 C7F88C00 		str	r0, [r7, #140]
 301:/home/fanxinhao/Work/LiteOS_Lab_2/iot_link/oc/oc_coap/boudica120_oc/boudica120_oc.c **** 
 302:/home/fanxinhao/Work/LiteOS_Lab_2/iot_link/oc/oc_coap/boudica120_oc/boudica120_oc.c ****         (void) memset(cmd,0,64);
 1163              		.loc 1 302 16
 1164 0034 07F14C03 		add	r3, r7, #76
 1165 0038 4022     		movs	r2, #64
 1166 003a 0021     		movs	r1, #0
 1167 003c 1846     		mov	r0, r3
 1168 003e FFF7FEFF 		bl	memset
 303:/home/fanxinhao/Work/LiteOS_Lab_2/iot_link/oc/oc_coap/boudica120_oc/boudica120_oc.c ****         (void) snprintf(cmd,63,"+NBAND:%s\r",bands);
 1169              		.loc 1 303 16
 1170 0042 07F14C00 		add	r0, r7, #76
 1171 0046 7B68     		ldr	r3, [r7, #4]
 1172 0048 1E4A     		ldr	r2, .L67+8
 1173 004a 3F21     		movs	r1, #63
 1174 004c FFF7FEFF 		bl	snprintf
 304:/home/fanxinhao/Work/LiteOS_Lab_2/iot_link/oc/oc_coap/boudica120_oc/boudica120_oc.c **** 
 305:/home/fanxinhao/Work/LiteOS_Lab_2/iot_link/oc/oc_coap/boudica120_oc/boudica120_oc.c ****         if((false == ret)||(NULL == strstr(resp,cmd)))//which means we need to set it
 1175              		.loc 1 305 11
 1176 0050 D7F88C30 		ldr	r3, [r7, #140]
 1177 0054 002B     		cmp	r3, #0
 1178 0056 0AD0     		beq	.L64
 1179              		.loc 1 305 37 discriminator 1
 1180 0058 07F14C02 		add	r2, r7, #76
 1181 005c 07F10C03 		add	r3, r7, #12
 1182 0060 1146     		mov	r1, r2
 1183 0062 1846     		mov	r0, r3
 1184 0064 FFF7FEFF 		bl	strstr
 1185 0068 0346     		mov	r3, r0
 1186              		.loc 1 305 26 discriminator 1
 1187 006a 002B     		cmp	r3, #0
 1188 006c 1CD1     		bne	.L65
 1189              	.L64:
 306:/home/fanxinhao/Work/LiteOS_Lab_2/iot_link/oc/oc_coap/boudica120_oc/boudica120_oc.c ****         {
 307:/home/fanxinhao/Work/LiteOS_Lab_2/iot_link/oc/oc_coap/boudica120_oc/boudica120_oc.c ****             boudica120_set_fun(0);
 1190              		.loc 1 307 13
 1191 006e 0020     		movs	r0, #0
 1192 0070 FFF7FEFF 		bl	boudica120_set_fun
 308:/home/fanxinhao/Work/LiteOS_Lab_2/iot_link/oc/oc_coap/boudica120_oc/boudica120_oc.c **** 
 309:/home/fanxinhao/Work/LiteOS_Lab_2/iot_link/oc/oc_coap/boudica120_oc/boudica120_oc.c ****             (void) memset(cmd,0,64);
 1193              		.loc 1 309 20
 1194 0074 07F14C03 		add	r3, r7, #76
 1195 0078 4022     		movs	r2, #64
 1196 007a 0021     		movs	r1, #0
 1197 007c 1846     		mov	r0, r3
 1198 007e FFF7FEFF 		bl	memset
 310:/home/fanxinhao/Work/LiteOS_Lab_2/iot_link/oc/oc_coap/boudica120_oc/boudica120_oc.c ****             (void) snprintf(cmd,63,"AT+NBAND=%s\r",bands);
 1199              		.loc 1 310 20
 1200 0082 07F14C00 		add	r0, r7, #76
 1201 0086 7B68     		ldr	r3, [r7, #4]
 1202 0088 0F4A     		ldr	r2, .L67+12
 1203 008a 3F21     		movs	r1, #63
 1204 008c FFF7FEFF 		bl	snprintf
 311:/home/fanxinhao/Work/LiteOS_Lab_2/iot_link/oc/oc_coap/boudica120_oc/boudica120_oc.c ****             ret = boudica120_atcmd(cmd,"OK");
 1205              		.loc 1 311 19
ARM GAS  /tmp/ccRaplPO.s 			page 28


 1206 0090 07F14C03 		add	r3, r7, #76
 1207 0094 0949     		ldr	r1, .L67
 1208 0096 1846     		mov	r0, r3
 1209 0098 FFF7FEFF 		bl	boudica120_atcmd
 1210 009c C7F88C00 		str	r0, [r7, #140]
 312:/home/fanxinhao/Work/LiteOS_Lab_2/iot_link/oc/oc_coap/boudica120_oc/boudica120_oc.c **** 
 313:/home/fanxinhao/Work/LiteOS_Lab_2/iot_link/oc/oc_coap/boudica120_oc/boudica120_oc.c ****             boudica120_set_fun(1);
 1211              		.loc 1 313 13
 1212 00a0 0120     		movs	r0, #1
 1213 00a2 FFF7FEFF 		bl	boudica120_set_fun
 1214 00a6 02E0     		b	.L63
 1215              	.L65:
 314:/home/fanxinhao/Work/LiteOS_Lab_2/iot_link/oc/oc_coap/boudica120_oc/boudica120_oc.c ****         }
 315:/home/fanxinhao/Work/LiteOS_Lab_2/iot_link/oc/oc_coap/boudica120_oc/boudica120_oc.c ****         else
 316:/home/fanxinhao/Work/LiteOS_Lab_2/iot_link/oc/oc_coap/boudica120_oc/boudica120_oc.c ****         {
 317:/home/fanxinhao/Work/LiteOS_Lab_2/iot_link/oc/oc_coap/boudica120_oc/boudica120_oc.c ****             ret = true;  //we need not to set
 1216              		.loc 1 317 17
 1217 00a8 0123     		movs	r3, #1
 1218 00aa C7F88C30 		str	r3, [r7, #140]
 1219              	.L63:
 318:/home/fanxinhao/Work/LiteOS_Lab_2/iot_link/oc/oc_coap/boudica120_oc/boudica120_oc.c ****         }
 319:/home/fanxinhao/Work/LiteOS_Lab_2/iot_link/oc/oc_coap/boudica120_oc/boudica120_oc.c ****     }
 320:/home/fanxinhao/Work/LiteOS_Lab_2/iot_link/oc/oc_coap/boudica120_oc/boudica120_oc.c ****     return ret;
 1220              		.loc 1 320 12
 1221 00ae D7F88C30 		ldr	r3, [r7, #140]
 321:/home/fanxinhao/Work/LiteOS_Lab_2/iot_link/oc/oc_coap/boudica120_oc/boudica120_oc.c **** }
 1222              		.loc 1 321 1
 1223 00b2 1846     		mov	r0, r3
 1224 00b4 9037     		adds	r7, r7, #144
 1225              	.LCFI46:
 1226              		.cfi_def_cfa_offset 8
 1227 00b6 BD46     		mov	sp, r7
 1228              	.LCFI47:
 1229              		.cfi_def_cfa_register 13
 1230              		@ sp needed
 1231 00b8 80BD     		pop	{r7, pc}
 1232              	.L68:
 1233 00ba 00BF     		.align	2
 1234              	.L67:
 1235 00bc 14000000 		.word	.LC2
 1236 00c0 00010000 		.word	.LC12
 1237 00c4 0C010000 		.word	.LC13
 1238 00c8 18010000 		.word	.LC14
 1239              		.cfi_endproc
 1240              	.LFE12:
 1242              		.section	.rodata
 1243 0125 000000   		.align	2
 1244              	.LC15:
 1245 0128 2B434F50 		.ascii	"+COPS\000"
 1245      5300
 1246 012e 0000     		.align	2
 1247              	.LC16:
 1248 0130 41542B43 		.ascii	"AT+COPS?\015\000"
 1248      4F50533F 
 1248      0D00
 1249 013a 0000     		.align	2
 1250              	.LC17:
ARM GAS  /tmp/ccRaplPO.s 			page 29


 1251 013c 2B434F50 		.ascii	"+COPS:1,2,\"%s\"\015\000"
 1251      533A312C 
 1251      322C2225 
 1251      73220D00 
 1252              		.align	2
 1253              	.LC18:
 1254 014c 41542B43 		.ascii	"AT+COPS=1,2,\"%s\"\015\000"
 1254      4F50533D 
 1254      312C322C 
 1254      22257322 
 1254      0D00
 1255 015e 0000     		.align	2
 1256              	.LC19:
 1257 0160 41542B43 		.ascii	"AT+COPS=0\015\000"
 1257      4F50533D 
 1257      300D00
 1258              		.section	.text.boudica120_set_plmn,"ax",%progbits
 1259              		.align	1
 1260              		.syntax unified
 1261              		.thumb
 1262              		.thumb_func
 1263              		.fpu fpv4-sp-d16
 1265              	boudica120_set_plmn:
 1266              	.LFB13:
 322:/home/fanxinhao/Work/LiteOS_Lab_2/iot_link/oc/oc_coap/boudica120_oc/boudica120_oc.c **** 
 323:/home/fanxinhao/Work/LiteOS_Lab_2/iot_link/oc/oc_coap/boudica120_oc/boudica120_oc.c **** //set the plmn
 324:/home/fanxinhao/Work/LiteOS_Lab_2/iot_link/oc/oc_coap/boudica120_oc/boudica120_oc.c **** static bool_t boudica120_set_plmn(const char *plmn)
 325:/home/fanxinhao/Work/LiteOS_Lab_2/iot_link/oc/oc_coap/boudica120_oc/boudica120_oc.c **** {
 1267              		.loc 1 325 1
 1268              		.cfi_startproc
 1269              		@ args = 0, pretend = 0, frame = 144
 1270              		@ frame_needed = 1, uses_anonymous_args = 0
 1271 0000 80B5     		push	{r7, lr}
 1272              	.LCFI48:
 1273              		.cfi_def_cfa_offset 8
 1274              		.cfi_offset 7, -8
 1275              		.cfi_offset 14, -4
 1276 0002 A4B0     		sub	sp, sp, #144
 1277              	.LCFI49:
 1278              		.cfi_def_cfa_offset 152
 1279 0004 00AF     		add	r7, sp, #0
 1280              	.LCFI50:
 1281              		.cfi_def_cfa_register 7
 1282 0006 7860     		str	r0, [r7, #4]
 326:/home/fanxinhao/Work/LiteOS_Lab_2/iot_link/oc/oc_coap/boudica120_oc/boudica120_oc.c ****     char cmd[64];
 327:/home/fanxinhao/Work/LiteOS_Lab_2/iot_link/oc/oc_coap/boudica120_oc/boudica120_oc.c ****     char resp[64];
 328:/home/fanxinhao/Work/LiteOS_Lab_2/iot_link/oc/oc_coap/boudica120_oc/boudica120_oc.c ****     bool_t ret;
 329:/home/fanxinhao/Work/LiteOS_Lab_2/iot_link/oc/oc_coap/boudica120_oc/boudica120_oc.c **** 
 330:/home/fanxinhao/Work/LiteOS_Lab_2/iot_link/oc/oc_coap/boudica120_oc/boudica120_oc.c ****     if(NULL != plmn)  //which measn we need to set if the default is not the same
 1283              		.loc 1 330 7
 1284 0008 7B68     		ldr	r3, [r7, #4]
 1285 000a 002B     		cmp	r3, #0
 1286 000c 47D0     		beq	.L70
 331:/home/fanxinhao/Work/LiteOS_Lab_2/iot_link/oc/oc_coap/boudica120_oc/boudica120_oc.c ****     {
 332:/home/fanxinhao/Work/LiteOS_Lab_2/iot_link/oc/oc_coap/boudica120_oc/boudica120_oc.c ****         (void) memset(resp,0,64);
 1287              		.loc 1 332 16
 1288 000e 07F10C03 		add	r3, r7, #12
ARM GAS  /tmp/ccRaplPO.s 			page 30


 1289 0012 4022     		movs	r2, #64
 1290 0014 0021     		movs	r1, #0
 1291 0016 1846     		mov	r0, r3
 1292 0018 FFF7FEFF 		bl	memset
 333:/home/fanxinhao/Work/LiteOS_Lab_2/iot_link/oc/oc_coap/boudica120_oc/boudica120_oc.c ****         ret = boudica120_atcmd_response("AT+COPS?\r","+COPS",resp,64);
 1293              		.loc 1 333 15
 1294 001c 07F10C02 		add	r2, r7, #12
 1295 0020 4023     		movs	r3, #64
 1296 0022 2D49     		ldr	r1, .L76
 1297 0024 2D48     		ldr	r0, .L76+4
 1298 0026 FFF7FEFF 		bl	boudica120_atcmd_response
 1299 002a C7F88C00 		str	r0, [r7, #140]
 334:/home/fanxinhao/Work/LiteOS_Lab_2/iot_link/oc/oc_coap/boudica120_oc/boudica120_oc.c **** 
 335:/home/fanxinhao/Work/LiteOS_Lab_2/iot_link/oc/oc_coap/boudica120_oc/boudica120_oc.c ****         (void) memset(cmd,0,64);
 1300              		.loc 1 335 16
 1301 002e 07F14C03 		add	r3, r7, #76
 1302 0032 4022     		movs	r2, #64
 1303 0034 0021     		movs	r1, #0
 1304 0036 1846     		mov	r0, r3
 1305 0038 FFF7FEFF 		bl	memset
 336:/home/fanxinhao/Work/LiteOS_Lab_2/iot_link/oc/oc_coap/boudica120_oc/boudica120_oc.c ****         (void) snprintf(cmd,63,"+COPS:1,2,\"%s\"\r",plmn);
 1306              		.loc 1 336 16
 1307 003c 07F14C00 		add	r0, r7, #76
 1308 0040 7B68     		ldr	r3, [r7, #4]
 1309 0042 274A     		ldr	r2, .L76+8
 1310 0044 3F21     		movs	r1, #63
 1311 0046 FFF7FEFF 		bl	snprintf
 337:/home/fanxinhao/Work/LiteOS_Lab_2/iot_link/oc/oc_coap/boudica120_oc/boudica120_oc.c **** 
 338:/home/fanxinhao/Work/LiteOS_Lab_2/iot_link/oc/oc_coap/boudica120_oc/boudica120_oc.c ****         if((false == ret)||(NULL == strstr(resp,cmd)))//which means we need to set it
 1312              		.loc 1 338 11
 1313 004a D7F88C30 		ldr	r3, [r7, #140]
 1314 004e 002B     		cmp	r3, #0
 1315 0050 0AD0     		beq	.L71
 1316              		.loc 1 338 37 discriminator 1
 1317 0052 07F14C02 		add	r2, r7, #76
 1318 0056 07F10C03 		add	r3, r7, #12
 1319 005a 1146     		mov	r1, r2
 1320 005c 1846     		mov	r0, r3
 1321 005e FFF7FEFF 		bl	strstr
 1322 0062 0346     		mov	r3, r0
 1323              		.loc 1 338 26 discriminator 1
 1324 0064 002B     		cmp	r3, #0
 1325 0066 16D1     		bne	.L72
 1326              	.L71:
 339:/home/fanxinhao/Work/LiteOS_Lab_2/iot_link/oc/oc_coap/boudica120_oc/boudica120_oc.c ****         {
 340:/home/fanxinhao/Work/LiteOS_Lab_2/iot_link/oc/oc_coap/boudica120_oc/boudica120_oc.c ****             (void) memset(cmd,0,64);
 1327              		.loc 1 340 20
 1328 0068 07F14C03 		add	r3, r7, #76
 1329 006c 4022     		movs	r2, #64
 1330 006e 0021     		movs	r1, #0
 1331 0070 1846     		mov	r0, r3
 1332 0072 FFF7FEFF 		bl	memset
 341:/home/fanxinhao/Work/LiteOS_Lab_2/iot_link/oc/oc_coap/boudica120_oc/boudica120_oc.c ****             (void) snprintf(cmd,63,"AT+COPS=1,2,\"%s\"\r",plmn);
 1333              		.loc 1 341 20
 1334 0076 07F14C00 		add	r0, r7, #76
 1335 007a 7B68     		ldr	r3, [r7, #4]
 1336 007c 194A     		ldr	r2, .L76+12
ARM GAS  /tmp/ccRaplPO.s 			page 31


 1337 007e 3F21     		movs	r1, #63
 1338 0080 FFF7FEFF 		bl	snprintf
 342:/home/fanxinhao/Work/LiteOS_Lab_2/iot_link/oc/oc_coap/boudica120_oc/boudica120_oc.c **** 
 343:/home/fanxinhao/Work/LiteOS_Lab_2/iot_link/oc/oc_coap/boudica120_oc/boudica120_oc.c ****             ret = boudica120_atcmd(cmd,"OK");
 1339              		.loc 1 343 19
 1340 0084 07F14C03 		add	r3, r7, #76
 1341 0088 1749     		ldr	r1, .L76+16
 1342 008a 1846     		mov	r0, r3
 1343 008c FFF7FEFF 		bl	boudica120_atcmd
 1344 0090 C7F88C00 		str	r0, [r7, #140]
 1345              		.loc 1 343 17
 1346 0094 19E0     		b	.L74
 1347              	.L72:
 344:/home/fanxinhao/Work/LiteOS_Lab_2/iot_link/oc/oc_coap/boudica120_oc/boudica120_oc.c ****         }
 345:/home/fanxinhao/Work/LiteOS_Lab_2/iot_link/oc/oc_coap/boudica120_oc/boudica120_oc.c ****         else
 346:/home/fanxinhao/Work/LiteOS_Lab_2/iot_link/oc/oc_coap/boudica120_oc/boudica120_oc.c ****         {
 347:/home/fanxinhao/Work/LiteOS_Lab_2/iot_link/oc/oc_coap/boudica120_oc/boudica120_oc.c ****             ret = true;  //we need not to set
 1348              		.loc 1 347 17
 1349 0096 0123     		movs	r3, #1
 1350 0098 C7F88C30 		str	r3, [r7, #140]
 1351 009c 15E0     		b	.L74
 1352              	.L70:
 348:/home/fanxinhao/Work/LiteOS_Lab_2/iot_link/oc/oc_coap/boudica120_oc/boudica120_oc.c ****         }
 349:/home/fanxinhao/Work/LiteOS_Lab_2/iot_link/oc/oc_coap/boudica120_oc/boudica120_oc.c ****     }
 350:/home/fanxinhao/Work/LiteOS_Lab_2/iot_link/oc/oc_coap/boudica120_oc/boudica120_oc.c ****     else  //set it to auto
 351:/home/fanxinhao/Work/LiteOS_Lab_2/iot_link/oc/oc_coap/boudica120_oc/boudica120_oc.c ****     {
 352:/home/fanxinhao/Work/LiteOS_Lab_2/iot_link/oc/oc_coap/boudica120_oc/boudica120_oc.c ****         (void) memset(cmd,0,64);
 1353              		.loc 1 352 16
 1354 009e 07F14C03 		add	r3, r7, #76
 1355 00a2 4022     		movs	r2, #64
 1356 00a4 0021     		movs	r1, #0
 1357 00a6 1846     		mov	r0, r3
 1358 00a8 FFF7FEFF 		bl	memset
 353:/home/fanxinhao/Work/LiteOS_Lab_2/iot_link/oc/oc_coap/boudica120_oc/boudica120_oc.c ****         (void) snprintf(cmd,64,"AT+COPS=0\r");
 1359              		.loc 1 353 16
 1360 00ac 07F14C03 		add	r3, r7, #76
 1361 00b0 0E4A     		ldr	r2, .L76+20
 1362 00b2 4021     		movs	r1, #64
 1363 00b4 1846     		mov	r0, r3
 1364 00b6 FFF7FEFF 		bl	snprintf
 354:/home/fanxinhao/Work/LiteOS_Lab_2/iot_link/oc/oc_coap/boudica120_oc/boudica120_oc.c ****         ret = boudica120_atcmd(cmd,"OK");
 1365              		.loc 1 354 15
 1366 00ba 07F14C03 		add	r3, r7, #76
 1367 00be 0A49     		ldr	r1, .L76+16
 1368 00c0 1846     		mov	r0, r3
 1369 00c2 FFF7FEFF 		bl	boudica120_atcmd
 1370 00c6 C7F88C00 		str	r0, [r7, #140]
 1371              	.L74:
 355:/home/fanxinhao/Work/LiteOS_Lab_2/iot_link/oc/oc_coap/boudica120_oc/boudica120_oc.c ****     }
 356:/home/fanxinhao/Work/LiteOS_Lab_2/iot_link/oc/oc_coap/boudica120_oc/boudica120_oc.c **** 
 357:/home/fanxinhao/Work/LiteOS_Lab_2/iot_link/oc/oc_coap/boudica120_oc/boudica120_oc.c ****     return ret;
 1372              		.loc 1 357 12
 1373 00ca D7F88C30 		ldr	r3, [r7, #140]
 358:/home/fanxinhao/Work/LiteOS_Lab_2/iot_link/oc/oc_coap/boudica120_oc/boudica120_oc.c **** }
 1374              		.loc 1 358 1
 1375 00ce 1846     		mov	r0, r3
 1376 00d0 9037     		adds	r7, r7, #144
ARM GAS  /tmp/ccRaplPO.s 			page 32


 1377              	.LCFI51:
 1378              		.cfi_def_cfa_offset 8
 1379 00d2 BD46     		mov	sp, r7
 1380              	.LCFI52:
 1381              		.cfi_def_cfa_register 13
 1382              		@ sp needed
 1383 00d4 80BD     		pop	{r7, pc}
 1384              	.L77:
 1385 00d6 00BF     		.align	2
 1386              	.L76:
 1387 00d8 28010000 		.word	.LC15
 1388 00dc 30010000 		.word	.LC16
 1389 00e0 3C010000 		.word	.LC17
 1390 00e4 4C010000 		.word	.LC18
 1391 00e8 14000000 		.word	.LC2
 1392 00ec 60010000 		.word	.LC19
 1393              		.cfi_endproc
 1394              	.LFE13:
 1396              		.section	.rodata
 1397 016b 00       		.align	2
 1398              	.LC20:
 1399 016c 41542B43 		.ascii	"AT+CGDCONT?\015\000"
 1399      4744434F 
 1399      4E543F0D 
 1399      00
 1400 0179 000000   		.align	2
 1401              	.LC21:
 1402 017c 2B434744 		.ascii	"+CGDCONT:\"%s\"\015\000"
 1402      434F4E54 
 1402      3A222573 
 1402      220D00
 1403 018b 00       		.align	2
 1404              	.LC22:
 1405 018c 41542B43 		.ascii	"AT+CGDCONT=%s\015\000"
 1405      4744434F 
 1405      4E543D25 
 1405      730D00
 1406              		.section	.text.boudica120_set_apn,"ax",%progbits
 1407              		.align	1
 1408              		.syntax unified
 1409              		.thumb
 1410              		.thumb_func
 1411              		.fpu fpv4-sp-d16
 1413              	boudica120_set_apn:
 1414              	.LFB14:
 359:/home/fanxinhao/Work/LiteOS_Lab_2/iot_link/oc/oc_coap/boudica120_oc/boudica120_oc.c **** 
 360:/home/fanxinhao/Work/LiteOS_Lab_2/iot_link/oc/oc_coap/boudica120_oc/boudica120_oc.c **** //set the apn
 361:/home/fanxinhao/Work/LiteOS_Lab_2/iot_link/oc/oc_coap/boudica120_oc/boudica120_oc.c **** static bool_t boudica120_set_apn(const char *apn)
 362:/home/fanxinhao/Work/LiteOS_Lab_2/iot_link/oc/oc_coap/boudica120_oc/boudica120_oc.c **** {
 1415              		.loc 1 362 1
 1416              		.cfi_startproc
 1417              		@ args = 0, pretend = 0, frame = 144
 1418              		@ frame_needed = 1, uses_anonymous_args = 0
 1419 0000 80B5     		push	{r7, lr}
 1420              	.LCFI53:
 1421              		.cfi_def_cfa_offset 8
 1422              		.cfi_offset 7, -8
ARM GAS  /tmp/ccRaplPO.s 			page 33


 1423              		.cfi_offset 14, -4
 1424 0002 A4B0     		sub	sp, sp, #144
 1425              	.LCFI54:
 1426              		.cfi_def_cfa_offset 152
 1427 0004 00AF     		add	r7, sp, #0
 1428              	.LCFI55:
 1429              		.cfi_def_cfa_register 7
 1430 0006 7860     		str	r0, [r7, #4]
 363:/home/fanxinhao/Work/LiteOS_Lab_2/iot_link/oc/oc_coap/boudica120_oc/boudica120_oc.c ****     char cmd[64];
 364:/home/fanxinhao/Work/LiteOS_Lab_2/iot_link/oc/oc_coap/boudica120_oc/boudica120_oc.c ****     char resp[64];
 365:/home/fanxinhao/Work/LiteOS_Lab_2/iot_link/oc/oc_coap/boudica120_oc/boudica120_oc.c **** 
 366:/home/fanxinhao/Work/LiteOS_Lab_2/iot_link/oc/oc_coap/boudica120_oc/boudica120_oc.c ****     bool_t ret = true;
 1431              		.loc 1 366 12
 1432 0008 0123     		movs	r3, #1
 1433 000a C7F88C30 		str	r3, [r7, #140]
 367:/home/fanxinhao/Work/LiteOS_Lab_2/iot_link/oc/oc_coap/boudica120_oc/boudica120_oc.c **** 
 368:/home/fanxinhao/Work/LiteOS_Lab_2/iot_link/oc/oc_coap/boudica120_oc/boudica120_oc.c ****     if(NULL != apn)  //which measn we need to set if the default is not the same
 1434              		.loc 1 368 7
 1435 000e 7B68     		ldr	r3, [r7, #4]
 1436 0010 002B     		cmp	r3, #0
 1437 0012 46D0     		beq	.L79
 369:/home/fanxinhao/Work/LiteOS_Lab_2/iot_link/oc/oc_coap/boudica120_oc/boudica120_oc.c ****     {
 370:/home/fanxinhao/Work/LiteOS_Lab_2/iot_link/oc/oc_coap/boudica120_oc/boudica120_oc.c ****         (void) memset(resp,0,64);
 1438              		.loc 1 370 16
 1439 0014 07F10C03 		add	r3, r7, #12
 1440 0018 4022     		movs	r2, #64
 1441 001a 0021     		movs	r1, #0
 1442 001c 1846     		mov	r0, r3
 1443 001e FFF7FEFF 		bl	memset
 371:/home/fanxinhao/Work/LiteOS_Lab_2/iot_link/oc/oc_coap/boudica120_oc/boudica120_oc.c ****         ret = boudica120_atcmd_response("AT+CGDCONT?\r","OK",resp,64);
 1444              		.loc 1 371 15
 1445 0022 07F10C02 		add	r2, r7, #12
 1446 0026 4023     		movs	r3, #64
 1447 0028 2149     		ldr	r1, .L83
 1448 002a 2248     		ldr	r0, .L83+4
 1449 002c FFF7FEFF 		bl	boudica120_atcmd_response
 1450 0030 C7F88C00 		str	r0, [r7, #140]
 372:/home/fanxinhao/Work/LiteOS_Lab_2/iot_link/oc/oc_coap/boudica120_oc/boudica120_oc.c **** 
 373:/home/fanxinhao/Work/LiteOS_Lab_2/iot_link/oc/oc_coap/boudica120_oc/boudica120_oc.c ****         (void) memset(cmd,0,64);
 1451              		.loc 1 373 16
 1452 0034 07F14C03 		add	r3, r7, #76
 1453 0038 4022     		movs	r2, #64
 1454 003a 0021     		movs	r1, #0
 1455 003c 1846     		mov	r0, r3
 1456 003e FFF7FEFF 		bl	memset
 374:/home/fanxinhao/Work/LiteOS_Lab_2/iot_link/oc/oc_coap/boudica120_oc/boudica120_oc.c ****         (void) snprintf(cmd,63,"+CGDCONT:\"%s\"\r",apn); //TODO, check if it is right
 1457              		.loc 1 374 16
 1458 0042 07F14C00 		add	r0, r7, #76
 1459 0046 7B68     		ldr	r3, [r7, #4]
 1460 0048 1B4A     		ldr	r2, .L83+8
 1461 004a 3F21     		movs	r1, #63
 1462 004c FFF7FEFF 		bl	snprintf
 375:/home/fanxinhao/Work/LiteOS_Lab_2/iot_link/oc/oc_coap/boudica120_oc/boudica120_oc.c ****         if((false == ret)||(NULL == strstr(resp,cmd)))//which means we need to set it
 1463              		.loc 1 375 11
 1464 0050 D7F88C30 		ldr	r3, [r7, #140]
 1465 0054 002B     		cmp	r3, #0
 1466 0056 0AD0     		beq	.L80
ARM GAS  /tmp/ccRaplPO.s 			page 34


 1467              		.loc 1 375 37 discriminator 1
 1468 0058 07F14C02 		add	r2, r7, #76
 1469 005c 07F10C03 		add	r3, r7, #12
 1470 0060 1146     		mov	r1, r2
 1471 0062 1846     		mov	r0, r3
 1472 0064 FFF7FEFF 		bl	strstr
 1473 0068 0346     		mov	r3, r0
 1474              		.loc 1 375 26 discriminator 1
 1475 006a 002B     		cmp	r3, #0
 1476 006c 16D1     		bne	.L81
 1477              	.L80:
 376:/home/fanxinhao/Work/LiteOS_Lab_2/iot_link/oc/oc_coap/boudica120_oc/boudica120_oc.c ****         {
 377:/home/fanxinhao/Work/LiteOS_Lab_2/iot_link/oc/oc_coap/boudica120_oc/boudica120_oc.c ****             (void) memset(cmd,0,64);
 1478              		.loc 1 377 20
 1479 006e 07F14C03 		add	r3, r7, #76
 1480 0072 4022     		movs	r2, #64
 1481 0074 0021     		movs	r1, #0
 1482 0076 1846     		mov	r0, r3
 1483 0078 FFF7FEFF 		bl	memset
 378:/home/fanxinhao/Work/LiteOS_Lab_2/iot_link/oc/oc_coap/boudica120_oc/boudica120_oc.c ****             (void) snprintf(cmd,63,"AT+CGDCONT=%s\r",apn);
 1484              		.loc 1 378 20
 1485 007c 07F14C00 		add	r0, r7, #76
 1486 0080 7B68     		ldr	r3, [r7, #4]
 1487 0082 0E4A     		ldr	r2, .L83+12
 1488 0084 3F21     		movs	r1, #63
 1489 0086 FFF7FEFF 		bl	snprintf
 379:/home/fanxinhao/Work/LiteOS_Lab_2/iot_link/oc/oc_coap/boudica120_oc/boudica120_oc.c ****             ret = boudica120_atcmd(cmd,"OK");
 1490              		.loc 1 379 19
 1491 008a 07F14C03 		add	r3, r7, #76
 1492 008e 0849     		ldr	r1, .L83
 1493 0090 1846     		mov	r0, r3
 1494 0092 FFF7FEFF 		bl	boudica120_atcmd
 1495 0096 C7F88C00 		str	r0, [r7, #140]
 1496              		.loc 1 379 17
 1497 009a 02E0     		b	.L79
 1498              	.L81:
 380:/home/fanxinhao/Work/LiteOS_Lab_2/iot_link/oc/oc_coap/boudica120_oc/boudica120_oc.c ****         }
 381:/home/fanxinhao/Work/LiteOS_Lab_2/iot_link/oc/oc_coap/boudica120_oc/boudica120_oc.c ****         else
 382:/home/fanxinhao/Work/LiteOS_Lab_2/iot_link/oc/oc_coap/boudica120_oc/boudica120_oc.c ****         {
 383:/home/fanxinhao/Work/LiteOS_Lab_2/iot_link/oc/oc_coap/boudica120_oc/boudica120_oc.c ****             ret = true;  //we need not to set
 1499              		.loc 1 383 17
 1500 009c 0123     		movs	r3, #1
 1501 009e C7F88C30 		str	r3, [r7, #140]
 1502              	.L79:
 384:/home/fanxinhao/Work/LiteOS_Lab_2/iot_link/oc/oc_coap/boudica120_oc/boudica120_oc.c ****         }
 385:/home/fanxinhao/Work/LiteOS_Lab_2/iot_link/oc/oc_coap/boudica120_oc/boudica120_oc.c ****     }
 386:/home/fanxinhao/Work/LiteOS_Lab_2/iot_link/oc/oc_coap/boudica120_oc/boudica120_oc.c ****     return ret;
 1503              		.loc 1 386 12
 1504 00a2 D7F88C30 		ldr	r3, [r7, #140]
 387:/home/fanxinhao/Work/LiteOS_Lab_2/iot_link/oc/oc_coap/boudica120_oc/boudica120_oc.c **** }
 1505              		.loc 1 387 1
 1506 00a6 1846     		mov	r0, r3
 1507 00a8 9037     		adds	r7, r7, #144
 1508              	.LCFI56:
 1509              		.cfi_def_cfa_offset 8
 1510 00aa BD46     		mov	sp, r7
 1511              	.LCFI57:
ARM GAS  /tmp/ccRaplPO.s 			page 35


 1512              		.cfi_def_cfa_register 13
 1513              		@ sp needed
 1514 00ac 80BD     		pop	{r7, pc}
 1515              	.L84:
 1516 00ae 00BF     		.align	2
 1517              	.L83:
 1518 00b0 14000000 		.word	.LC2
 1519 00b4 6C010000 		.word	.LC20
 1520 00b8 7C010000 		.word	.LC21
 1521 00bc 8C010000 		.word	.LC22
 1522              		.cfi_endproc
 1523              	.LFE14:
 1525              		.section	.rodata
 1526 019b 00       		.align	2
 1527              	.LC23:
 1528 019c 41542B4E 		.ascii	"AT+NCDP?\015\000"
 1528      4344503F 
 1528      0D00
 1529 01a6 0000     		.align	2
 1530              	.LC24:
 1531 01a8 2B4E4344 		.ascii	"+NCDP:%s,%s\015\000"
 1531      503A2573 
 1531      2C25730D 
 1531      00
 1532 01b5 000000   		.align	2
 1533              	.LC25:
 1534 01b8 41542B4E 		.ascii	"AT+NCDP=%s,%s\015\000"
 1534      4344503D 
 1534      25732C25 
 1534      730D00
 1535              		.section	.text.boudica120_set_cdp,"ax",%progbits
 1536              		.align	1
 1537              		.syntax unified
 1538              		.thumb
 1539              		.thumb_func
 1540              		.fpu fpv4-sp-d16
 1542              	boudica120_set_cdp:
 1543              	.LFB15:
 388:/home/fanxinhao/Work/LiteOS_Lab_2/iot_link/oc/oc_coap/boudica120_oc/boudica120_oc.c **** 
 389:/home/fanxinhao/Work/LiteOS_Lab_2/iot_link/oc/oc_coap/boudica120_oc/boudica120_oc.c **** //set the cdp
 390:/home/fanxinhao/Work/LiteOS_Lab_2/iot_link/oc/oc_coap/boudica120_oc/boudica120_oc.c **** static bool_t boudica120_set_cdp(const char *server,const char *port)
 391:/home/fanxinhao/Work/LiteOS_Lab_2/iot_link/oc/oc_coap/boudica120_oc/boudica120_oc.c **** {
 1544              		.loc 1 391 1
 1545              		.cfi_startproc
 1546              		@ args = 0, pretend = 0, frame = 208
 1547              		@ frame_needed = 1, uses_anonymous_args = 0
 1548 0000 80B5     		push	{r7, lr}
 1549              	.LCFI58:
 1550              		.cfi_def_cfa_offset 8
 1551              		.cfi_offset 7, -8
 1552              		.cfi_offset 14, -4
 1553 0002 B6B0     		sub	sp, sp, #216
 1554              	.LCFI59:
 1555              		.cfi_def_cfa_offset 224
 1556 0004 02AF     		add	r7, sp, #8
 1557              	.LCFI60:
 1558              		.cfi_def_cfa 7, 216
ARM GAS  /tmp/ccRaplPO.s 			page 36


 1559 0006 7860     		str	r0, [r7, #4]
 1560 0008 3960     		str	r1, [r7]
 392:/home/fanxinhao/Work/LiteOS_Lab_2/iot_link/oc/oc_coap/boudica120_oc/boudica120_oc.c ****     char cmd[64];
 393:/home/fanxinhao/Work/LiteOS_Lab_2/iot_link/oc/oc_coap/boudica120_oc/boudica120_oc.c ****     char resp[64];
 394:/home/fanxinhao/Work/LiteOS_Lab_2/iot_link/oc/oc_coap/boudica120_oc/boudica120_oc.c ****     char cmp[64];
 395:/home/fanxinhao/Work/LiteOS_Lab_2/iot_link/oc/oc_coap/boudica120_oc/boudica120_oc.c ****     bool_t ret = true;
 1561              		.loc 1 395 12
 1562 000a 0123     		movs	r3, #1
 1563 000c C7F8CC30 		str	r3, [r7, #204]
 396:/home/fanxinhao/Work/LiteOS_Lab_2/iot_link/oc/oc_coap/boudica120_oc/boudica120_oc.c **** 
 397:/home/fanxinhao/Work/LiteOS_Lab_2/iot_link/oc/oc_coap/boudica120_oc/boudica120_oc.c ****     if(NULL != server)  //which measn we need to set if the default is not the same
 1564              		.loc 1 397 7
 1565 0010 7B68     		ldr	r3, [r7, #4]
 1566 0012 002B     		cmp	r3, #0
 1567 0014 51D0     		beq	.L86
 398:/home/fanxinhao/Work/LiteOS_Lab_2/iot_link/oc/oc_coap/boudica120_oc/boudica120_oc.c ****     {
 399:/home/fanxinhao/Work/LiteOS_Lab_2/iot_link/oc/oc_coap/boudica120_oc/boudica120_oc.c ****         (void) memset(resp,0,64);
 1568              		.loc 1 399 16
 1569 0016 07F14C03 		add	r3, r7, #76
 1570 001a 4022     		movs	r2, #64
 1571 001c 0021     		movs	r1, #0
 1572 001e 1846     		mov	r0, r3
 1573 0020 FFF7FEFF 		bl	memset
 400:/home/fanxinhao/Work/LiteOS_Lab_2/iot_link/oc/oc_coap/boudica120_oc/boudica120_oc.c ****         (void) memset(cmp,0,64);
 1574              		.loc 1 400 16
 1575 0024 07F10C03 		add	r3, r7, #12
 1576 0028 4022     		movs	r2, #64
 1577 002a 0021     		movs	r1, #0
 1578 002c 1846     		mov	r0, r3
 1579 002e FFF7FEFF 		bl	memset
 401:/home/fanxinhao/Work/LiteOS_Lab_2/iot_link/oc/oc_coap/boudica120_oc/boudica120_oc.c ****         (void) memset(cmd,0,64);
 1580              		.loc 1 401 16
 1581 0032 07F18C03 		add	r3, r7, #140
 1582 0036 4022     		movs	r2, #64
 1583 0038 0021     		movs	r1, #0
 1584 003a 1846     		mov	r0, r3
 1585 003c FFF7FEFF 		bl	memset
 402:/home/fanxinhao/Work/LiteOS_Lab_2/iot_link/oc/oc_coap/boudica120_oc/boudica120_oc.c ****         ret = boudica120_atcmd_response("AT+NCDP?\r","OK",resp,64);
 1586              		.loc 1 402 15
 1587 0040 07F14C02 		add	r2, r7, #76
 1588 0044 4023     		movs	r3, #64
 1589 0046 2049     		ldr	r1, .L90
 1590 0048 2048     		ldr	r0, .L90+4
 1591 004a FFF7FEFF 		bl	boudica120_atcmd_response
 1592 004e C7F8CC00 		str	r0, [r7, #204]
 403:/home/fanxinhao/Work/LiteOS_Lab_2/iot_link/oc/oc_coap/boudica120_oc/boudica120_oc.c ****         (void) snprintf(cmp,64,"+NCDP:%s,%s\r",server,port);
 1593              		.loc 1 403 16
 1594 0052 07F10C00 		add	r0, r7, #12
 1595 0056 3B68     		ldr	r3, [r7]
 1596 0058 0093     		str	r3, [sp]
 1597 005a 7B68     		ldr	r3, [r7, #4]
 1598 005c 1C4A     		ldr	r2, .L90+8
 1599 005e 4021     		movs	r1, #64
 1600 0060 FFF7FEFF 		bl	snprintf
 404:/home/fanxinhao/Work/LiteOS_Lab_2/iot_link/oc/oc_coap/boudica120_oc/boudica120_oc.c ****         if((false == ret)||(NULL == strstr(resp,cmp)))//which means we need to set it
 1601              		.loc 1 404 11
 1602 0064 D7F8CC30 		ldr	r3, [r7, #204]
ARM GAS  /tmp/ccRaplPO.s 			page 37


 1603 0068 002B     		cmp	r3, #0
 1604 006a 0AD0     		beq	.L87
 1605              		.loc 1 404 37 discriminator 1
 1606 006c 07F10C02 		add	r2, r7, #12
 1607 0070 07F14C03 		add	r3, r7, #76
 1608 0074 1146     		mov	r1, r2
 1609 0076 1846     		mov	r0, r3
 1610 0078 FFF7FEFF 		bl	strstr
 1611 007c 0346     		mov	r3, r0
 1612              		.loc 1 404 26 discriminator 1
 1613 007e 002B     		cmp	r3, #0
 1614 0080 18D1     		bne	.L88
 1615              	.L87:
 405:/home/fanxinhao/Work/LiteOS_Lab_2/iot_link/oc/oc_coap/boudica120_oc/boudica120_oc.c ****         {
 406:/home/fanxinhao/Work/LiteOS_Lab_2/iot_link/oc/oc_coap/boudica120_oc/boudica120_oc.c ****             (void) memset(cmd,0,64);
 1616              		.loc 1 406 20
 1617 0082 07F18C03 		add	r3, r7, #140
 1618 0086 4022     		movs	r2, #64
 1619 0088 0021     		movs	r1, #0
 1620 008a 1846     		mov	r0, r3
 1621 008c FFF7FEFF 		bl	memset
 407:/home/fanxinhao/Work/LiteOS_Lab_2/iot_link/oc/oc_coap/boudica120_oc/boudica120_oc.c ****             (void) snprintf(cmd,64,"AT+NCDP=%s,%s\r",server,port);
 1622              		.loc 1 407 20
 1623 0090 07F18C00 		add	r0, r7, #140
 1624 0094 3B68     		ldr	r3, [r7]
 1625 0096 0093     		str	r3, [sp]
 1626 0098 7B68     		ldr	r3, [r7, #4]
 1627 009a 0E4A     		ldr	r2, .L90+12
 1628 009c 4021     		movs	r1, #64
 1629 009e FFF7FEFF 		bl	snprintf
 408:/home/fanxinhao/Work/LiteOS_Lab_2/iot_link/oc/oc_coap/boudica120_oc/boudica120_oc.c ****             ret = boudica120_atcmd(cmd,"OK");
 1630              		.loc 1 408 19
 1631 00a2 07F18C03 		add	r3, r7, #140
 1632 00a6 0849     		ldr	r1, .L90
 1633 00a8 1846     		mov	r0, r3
 1634 00aa FFF7FEFF 		bl	boudica120_atcmd
 1635 00ae C7F8CC00 		str	r0, [r7, #204]
 1636              		.loc 1 408 17
 1637 00b2 02E0     		b	.L86
 1638              	.L88:
 409:/home/fanxinhao/Work/LiteOS_Lab_2/iot_link/oc/oc_coap/boudica120_oc/boudica120_oc.c ****         }
 410:/home/fanxinhao/Work/LiteOS_Lab_2/iot_link/oc/oc_coap/boudica120_oc/boudica120_oc.c ****         else
 411:/home/fanxinhao/Work/LiteOS_Lab_2/iot_link/oc/oc_coap/boudica120_oc/boudica120_oc.c ****         {
 412:/home/fanxinhao/Work/LiteOS_Lab_2/iot_link/oc/oc_coap/boudica120_oc/boudica120_oc.c ****             ret = true;  //we need not to set
 1639              		.loc 1 412 17
 1640 00b4 0123     		movs	r3, #1
 1641 00b6 C7F8CC30 		str	r3, [r7, #204]
 1642              	.L86:
 413:/home/fanxinhao/Work/LiteOS_Lab_2/iot_link/oc/oc_coap/boudica120_oc/boudica120_oc.c ****         }
 414:/home/fanxinhao/Work/LiteOS_Lab_2/iot_link/oc/oc_coap/boudica120_oc/boudica120_oc.c ****     }
 415:/home/fanxinhao/Work/LiteOS_Lab_2/iot_link/oc/oc_coap/boudica120_oc/boudica120_oc.c ****     return ret;
 1643              		.loc 1 415 12
 1644 00ba D7F8CC30 		ldr	r3, [r7, #204]
 416:/home/fanxinhao/Work/LiteOS_Lab_2/iot_link/oc/oc_coap/boudica120_oc/boudica120_oc.c **** }
 1645              		.loc 1 416 1
 1646 00be 1846     		mov	r0, r3
 1647 00c0 D037     		adds	r7, r7, #208
ARM GAS  /tmp/ccRaplPO.s 			page 38


 1648              	.LCFI61:
 1649              		.cfi_def_cfa_offset 8
 1650 00c2 BD46     		mov	sp, r7
 1651              	.LCFI62:
 1652              		.cfi_def_cfa_register 13
 1653              		@ sp needed
 1654 00c4 80BD     		pop	{r7, pc}
 1655              	.L91:
 1656 00c6 00BF     		.align	2
 1657              	.L90:
 1658 00c8 14000000 		.word	.LC2
 1659 00cc 9C010000 		.word	.LC23
 1660 00d0 A8010000 		.word	.LC24
 1661 00d4 B8010000 		.word	.LC25
 1662              		.cfi_endproc
 1663              	.LFE15:
 1665              		.section	.rodata
 1666 01c7 00       		.align	2
 1667              	.LC26:
 1668 01c8 41542B43 		.ascii	"AT+CMEE=%d\015\000"
 1668      4D45453D 
 1668      25640D00 
 1669              		.section	.text.boudica120_set_cmee,"ax",%progbits
 1670              		.align	1
 1671              		.syntax unified
 1672              		.thumb
 1673              		.thumb_func
 1674              		.fpu fpv4-sp-d16
 1676              	boudica120_set_cmee:
 1677              	.LFB16:
 417:/home/fanxinhao/Work/LiteOS_Lab_2/iot_link/oc/oc_coap/boudica120_oc/boudica120_oc.c **** 
 418:/home/fanxinhao/Work/LiteOS_Lab_2/iot_link/oc/oc_coap/boudica120_oc/boudica120_oc.c **** //enable the cmee
 419:/home/fanxinhao/Work/LiteOS_Lab_2/iot_link/oc/oc_coap/boudica120_oc/boudica120_oc.c **** 
 420:/home/fanxinhao/Work/LiteOS_Lab_2/iot_link/oc/oc_coap/boudica120_oc/boudica120_oc.c **** static bool_t boudica120_set_cmee(int enable)
 421:/home/fanxinhao/Work/LiteOS_Lab_2/iot_link/oc/oc_coap/boudica120_oc/boudica120_oc.c **** {
 1678              		.loc 1 421 1
 1679              		.cfi_startproc
 1680              		@ args = 0, pretend = 0, frame = 80
 1681              		@ frame_needed = 1, uses_anonymous_args = 0
 1682 0000 80B5     		push	{r7, lr}
 1683              	.LCFI63:
 1684              		.cfi_def_cfa_offset 8
 1685              		.cfi_offset 7, -8
 1686              		.cfi_offset 14, -4
 1687 0002 94B0     		sub	sp, sp, #80
 1688              	.LCFI64:
 1689              		.cfi_def_cfa_offset 88
 1690 0004 00AF     		add	r7, sp, #0
 1691              	.LCFI65:
 1692              		.cfi_def_cfa_register 7
 1693 0006 7860     		str	r0, [r7, #4]
 422:/home/fanxinhao/Work/LiteOS_Lab_2/iot_link/oc/oc_coap/boudica120_oc/boudica120_oc.c ****     bool_t ret;
 423:/home/fanxinhao/Work/LiteOS_Lab_2/iot_link/oc/oc_coap/boudica120_oc/boudica120_oc.c ****     char cmd[64];
 424:/home/fanxinhao/Work/LiteOS_Lab_2/iot_link/oc/oc_coap/boudica120_oc/boudica120_oc.c **** 
 425:/home/fanxinhao/Work/LiteOS_Lab_2/iot_link/oc/oc_coap/boudica120_oc/boudica120_oc.c ****     (void) memset(cmd,0,64);
 1694              		.loc 1 425 12
 1695 0008 07F10C03 		add	r3, r7, #12
ARM GAS  /tmp/ccRaplPO.s 			page 39


 1696 000c 4022     		movs	r2, #64
 1697 000e 0021     		movs	r1, #0
 1698 0010 1846     		mov	r0, r3
 1699 0012 FFF7FEFF 		bl	memset
 426:/home/fanxinhao/Work/LiteOS_Lab_2/iot_link/oc/oc_coap/boudica120_oc/boudica120_oc.c ****     (void) snprintf(cmd,64,"AT+CMEE=%d\r",enable);
 1700              		.loc 1 426 12
 1701 0016 07F10C00 		add	r0, r7, #12
 1702 001a 7B68     		ldr	r3, [r7, #4]
 1703 001c 074A     		ldr	r2, .L94
 1704 001e 4021     		movs	r1, #64
 1705 0020 FFF7FEFF 		bl	snprintf
 427:/home/fanxinhao/Work/LiteOS_Lab_2/iot_link/oc/oc_coap/boudica120_oc/boudica120_oc.c **** 
 428:/home/fanxinhao/Work/LiteOS_Lab_2/iot_link/oc/oc_coap/boudica120_oc/boudica120_oc.c ****     ret = boudica120_atcmd(cmd,"OK");
 1706              		.loc 1 428 11
 1707 0024 07F10C03 		add	r3, r7, #12
 1708 0028 0549     		ldr	r1, .L94+4
 1709 002a 1846     		mov	r0, r3
 1710 002c FFF7FEFF 		bl	boudica120_atcmd
 1711 0030 F864     		str	r0, [r7, #76]
 429:/home/fanxinhao/Work/LiteOS_Lab_2/iot_link/oc/oc_coap/boudica120_oc/boudica120_oc.c **** 
 430:/home/fanxinhao/Work/LiteOS_Lab_2/iot_link/oc/oc_coap/boudica120_oc/boudica120_oc.c ****     return ret;
 1712              		.loc 1 430 12
 1713 0032 FB6C     		ldr	r3, [r7, #76]
 431:/home/fanxinhao/Work/LiteOS_Lab_2/iot_link/oc/oc_coap/boudica120_oc/boudica120_oc.c **** }
 1714              		.loc 1 431 1
 1715 0034 1846     		mov	r0, r3
 1716 0036 5037     		adds	r7, r7, #80
 1717              	.LCFI66:
 1718              		.cfi_def_cfa_offset 8
 1719 0038 BD46     		mov	sp, r7
 1720              	.LCFI67:
 1721              		.cfi_def_cfa_register 13
 1722              		@ sp needed
 1723 003a 80BD     		pop	{r7, pc}
 1724              	.L95:
 1725              		.align	2
 1726              	.L94:
 1727 003c C8010000 		.word	.LC26
 1728 0040 14000000 		.word	.LC2
 1729              		.cfi_endproc
 1730              	.LFE16:
 1732              		.section	.rodata
 1733              		.align	2
 1734              	.LC27:
 1735 01d4 41542B43 		.ascii	"AT+CGATT=%d\015\000"
 1735      47415454 
 1735      3D25640D 
 1735      00
 1736              		.section	.text.boudica120_set_cgatt,"ax",%progbits
 1737              		.align	1
 1738              		.syntax unified
 1739              		.thumb
 1740              		.thumb_func
 1741              		.fpu fpv4-sp-d16
 1743              	boudica120_set_cgatt:
 1744              	.LFB17:
 432:/home/fanxinhao/Work/LiteOS_Lab_2/iot_link/oc/oc_coap/boudica120_oc/boudica120_oc.c **** 
ARM GAS  /tmp/ccRaplPO.s 			page 40


 433:/home/fanxinhao/Work/LiteOS_Lab_2/iot_link/oc/oc_coap/boudica120_oc/boudica120_oc.c **** //enable the network
 434:/home/fanxinhao/Work/LiteOS_Lab_2/iot_link/oc/oc_coap/boudica120_oc/boudica120_oc.c **** static bool_t boudica120_set_cgatt(int enable)  //unit second
 435:/home/fanxinhao/Work/LiteOS_Lab_2/iot_link/oc/oc_coap/boudica120_oc/boudica120_oc.c **** {
 1745              		.loc 1 435 1
 1746              		.cfi_startproc
 1747              		@ args = 0, pretend = 0, frame = 80
 1748              		@ frame_needed = 1, uses_anonymous_args = 0
 1749 0000 80B5     		push	{r7, lr}
 1750              	.LCFI68:
 1751              		.cfi_def_cfa_offset 8
 1752              		.cfi_offset 7, -8
 1753              		.cfi_offset 14, -4
 1754 0002 94B0     		sub	sp, sp, #80
 1755              	.LCFI69:
 1756              		.cfi_def_cfa_offset 88
 1757 0004 00AF     		add	r7, sp, #0
 1758              	.LCFI70:
 1759              		.cfi_def_cfa_register 7
 1760 0006 7860     		str	r0, [r7, #4]
 436:/home/fanxinhao/Work/LiteOS_Lab_2/iot_link/oc/oc_coap/boudica120_oc/boudica120_oc.c ****     bool_t ret ;
 437:/home/fanxinhao/Work/LiteOS_Lab_2/iot_link/oc/oc_coap/boudica120_oc/boudica120_oc.c ****     char cmd[64];
 438:/home/fanxinhao/Work/LiteOS_Lab_2/iot_link/oc/oc_coap/boudica120_oc/boudica120_oc.c **** 
 439:/home/fanxinhao/Work/LiteOS_Lab_2/iot_link/oc/oc_coap/boudica120_oc/boudica120_oc.c ****     (void) memset(cmd,0,64);
 1761              		.loc 1 439 12
 1762 0008 07F10C03 		add	r3, r7, #12
 1763 000c 4022     		movs	r2, #64
 1764 000e 0021     		movs	r1, #0
 1765 0010 1846     		mov	r0, r3
 1766 0012 FFF7FEFF 		bl	memset
 440:/home/fanxinhao/Work/LiteOS_Lab_2/iot_link/oc/oc_coap/boudica120_oc/boudica120_oc.c ****     (void) snprintf(cmd,64,"AT+CGATT=%d\r",enable);
 1767              		.loc 1 440 12
 1768 0016 07F10C00 		add	r0, r7, #12
 1769 001a 7B68     		ldr	r3, [r7, #4]
 1770 001c 074A     		ldr	r2, .L98
 1771 001e 4021     		movs	r1, #64
 1772 0020 FFF7FEFF 		bl	snprintf
 441:/home/fanxinhao/Work/LiteOS_Lab_2/iot_link/oc/oc_coap/boudica120_oc/boudica120_oc.c **** 
 442:/home/fanxinhao/Work/LiteOS_Lab_2/iot_link/oc/oc_coap/boudica120_oc/boudica120_oc.c ****     ret = boudica120_atcmd(cmd,"OK");
 1773              		.loc 1 442 11
 1774 0024 07F10C03 		add	r3, r7, #12
 1775 0028 0549     		ldr	r1, .L98+4
 1776 002a 1846     		mov	r0, r3
 1777 002c FFF7FEFF 		bl	boudica120_atcmd
 1778 0030 F864     		str	r0, [r7, #76]
 443:/home/fanxinhao/Work/LiteOS_Lab_2/iot_link/oc/oc_coap/boudica120_oc/boudica120_oc.c **** 
 444:/home/fanxinhao/Work/LiteOS_Lab_2/iot_link/oc/oc_coap/boudica120_oc/boudica120_oc.c ****     return ret;
 1779              		.loc 1 444 12
 1780 0032 FB6C     		ldr	r3, [r7, #76]
 445:/home/fanxinhao/Work/LiteOS_Lab_2/iot_link/oc/oc_coap/boudica120_oc/boudica120_oc.c **** }
 1781              		.loc 1 445 1
 1782 0034 1846     		mov	r0, r3
 1783 0036 5037     		adds	r7, r7, #80
 1784              	.LCFI71:
 1785              		.cfi_def_cfa_offset 8
 1786 0038 BD46     		mov	sp, r7
 1787              	.LCFI72:
 1788              		.cfi_def_cfa_register 13
ARM GAS  /tmp/ccRaplPO.s 			page 41


 1789              		@ sp needed
 1790 003a 80BD     		pop	{r7, pc}
 1791              	.L99:
 1792              		.align	2
 1793              	.L98:
 1794 003c D4010000 		.word	.LC27
 1795 0040 14000000 		.word	.LC2
 1796              		.cfi_endproc
 1797              	.LFE17:
 1799              		.section	.rodata
 1800 01e1 000000   		.align	2
 1801              	.LC28:
 1802 01e4 41542B4E 		.ascii	"AT+NNMI=%d\015\000"
 1802      4E4D493D 
 1802      25640D00 
 1803              		.section	.text.boudica120_set_nnmi,"ax",%progbits
 1804              		.align	1
 1805              		.syntax unified
 1806              		.thumb
 1807              		.thumb_func
 1808              		.fpu fpv4-sp-d16
 1810              	boudica120_set_nnmi:
 1811              	.LFB18:
 446:/home/fanxinhao/Work/LiteOS_Lab_2/iot_link/oc/oc_coap/boudica120_oc/boudica120_oc.c **** 
 447:/home/fanxinhao/Work/LiteOS_Lab_2/iot_link/oc/oc_coap/boudica120_oc/boudica120_oc.c **** //enable the NNMI
 448:/home/fanxinhao/Work/LiteOS_Lab_2/iot_link/oc/oc_coap/boudica120_oc/boudica120_oc.c **** static bool_t boudica120_set_nnmi(int enable)  //unit second
 449:/home/fanxinhao/Work/LiteOS_Lab_2/iot_link/oc/oc_coap/boudica120_oc/boudica120_oc.c **** {
 1812              		.loc 1 449 1
 1813              		.cfi_startproc
 1814              		@ args = 0, pretend = 0, frame = 80
 1815              		@ frame_needed = 1, uses_anonymous_args = 0
 1816 0000 80B5     		push	{r7, lr}
 1817              	.LCFI73:
 1818              		.cfi_def_cfa_offset 8
 1819              		.cfi_offset 7, -8
 1820              		.cfi_offset 14, -4
 1821 0002 94B0     		sub	sp, sp, #80
 1822              	.LCFI74:
 1823              		.cfi_def_cfa_offset 88
 1824 0004 00AF     		add	r7, sp, #0
 1825              	.LCFI75:
 1826              		.cfi_def_cfa_register 7
 1827 0006 7860     		str	r0, [r7, #4]
 450:/home/fanxinhao/Work/LiteOS_Lab_2/iot_link/oc/oc_coap/boudica120_oc/boudica120_oc.c ****     bool_t ret ;
 451:/home/fanxinhao/Work/LiteOS_Lab_2/iot_link/oc/oc_coap/boudica120_oc/boudica120_oc.c ****     char cmd[64];
 452:/home/fanxinhao/Work/LiteOS_Lab_2/iot_link/oc/oc_coap/boudica120_oc/boudica120_oc.c **** 
 453:/home/fanxinhao/Work/LiteOS_Lab_2/iot_link/oc/oc_coap/boudica120_oc/boudica120_oc.c ****     (void) memset(cmd,0,64);
 1828              		.loc 1 453 12
 1829 0008 07F10C03 		add	r3, r7, #12
 1830 000c 4022     		movs	r2, #64
 1831 000e 0021     		movs	r1, #0
 1832 0010 1846     		mov	r0, r3
 1833 0012 FFF7FEFF 		bl	memset
 454:/home/fanxinhao/Work/LiteOS_Lab_2/iot_link/oc/oc_coap/boudica120_oc/boudica120_oc.c ****     (void) snprintf(cmd,64,"AT+NNMI=%d\r",enable);
 1834              		.loc 1 454 12
 1835 0016 07F10C00 		add	r0, r7, #12
 1836 001a 7B68     		ldr	r3, [r7, #4]
ARM GAS  /tmp/ccRaplPO.s 			page 42


 1837 001c 074A     		ldr	r2, .L102
 1838 001e 4021     		movs	r1, #64
 1839 0020 FFF7FEFF 		bl	snprintf
 455:/home/fanxinhao/Work/LiteOS_Lab_2/iot_link/oc/oc_coap/boudica120_oc/boudica120_oc.c **** 
 456:/home/fanxinhao/Work/LiteOS_Lab_2/iot_link/oc/oc_coap/boudica120_oc/boudica120_oc.c ****     ret = boudica120_atcmd(cmd,"OK");
 1840              		.loc 1 456 11
 1841 0024 07F10C03 		add	r3, r7, #12
 1842 0028 0549     		ldr	r1, .L102+4
 1843 002a 1846     		mov	r0, r3
 1844 002c FFF7FEFF 		bl	boudica120_atcmd
 1845 0030 F864     		str	r0, [r7, #76]
 457:/home/fanxinhao/Work/LiteOS_Lab_2/iot_link/oc/oc_coap/boudica120_oc/boudica120_oc.c **** 
 458:/home/fanxinhao/Work/LiteOS_Lab_2/iot_link/oc/oc_coap/boudica120_oc/boudica120_oc.c ****     return ret;
 1846              		.loc 1 458 12
 1847 0032 FB6C     		ldr	r3, [r7, #76]
 459:/home/fanxinhao/Work/LiteOS_Lab_2/iot_link/oc/oc_coap/boudica120_oc/boudica120_oc.c **** }
 1848              		.loc 1 459 1
 1849 0034 1846     		mov	r0, r3
 1850 0036 5037     		adds	r7, r7, #80
 1851              	.LCFI76:
 1852              		.cfi_def_cfa_offset 8
 1853 0038 BD46     		mov	sp, r7
 1854              	.LCFI77:
 1855              		.cfi_def_cfa_register 13
 1856              		@ sp needed
 1857 003a 80BD     		pop	{r7, pc}
 1858              	.L103:
 1859              		.align	2
 1860              	.L102:
 1861 003c E4010000 		.word	.LC28
 1862 0040 14000000 		.word	.LC2
 1863              		.cfi_endproc
 1864              	.LFE18:
 1866              		.section	.rodata
 1867              		.align	2
 1868              	.LC29:
 1869 01f0 41542B4E 		.ascii	"AT+NMGS=2,3232\015\000"
 1869      4D47533D 
 1869      322C3332 
 1869      33320D00 
 1870              		.section	.text.boudica120_check_platform_register,"ax",%progbits
 1871              		.align	1
 1872              		.syntax unified
 1873              		.thumb
 1874              		.thumb_func
 1875              		.fpu fpv4-sp-d16
 1877              	boudica120_check_platform_register:
 1878              	.LFB19:
 460:/home/fanxinhao/Work/LiteOS_Lab_2/iot_link/oc/oc_coap/boudica120_oc/boudica120_oc.c **** 
 461:/home/fanxinhao/Work/LiteOS_Lab_2/iot_link/oc/oc_coap/boudica120_oc/boudica120_oc.c **** /*  bc95 can't use "\r\n+QLWEVTIND:" to check whether  join cdp 	server is successful or unsuccessf
 462:/home/fanxinhao/Work/LiteOS_Lab_2/iot_link/oc/oc_coap/boudica120_oc/boudica120_oc.c ****  * we can send "AT+NMGS="  to check.
 463:/home/fanxinhao/Work/LiteOS_Lab_2/iot_link/oc/oc_coap/boudica120_oc/boudica120_oc.c ****  */
 464:/home/fanxinhao/Work/LiteOS_Lab_2/iot_link/oc/oc_coap/boudica120_oc/boudica120_oc.c **** static bool_t boudica120_check_platform_register(int time)  //unit second
 465:/home/fanxinhao/Work/LiteOS_Lab_2/iot_link/oc/oc_coap/boudica120_oc/boudica120_oc.c **** {
 1879              		.loc 1 465 1
 1880              		.cfi_startproc
 1881              		@ args = 0, pretend = 0, frame = 24
ARM GAS  /tmp/ccRaplPO.s 			page 43


 1882              		@ frame_needed = 1, uses_anonymous_args = 0
 1883 0000 80B5     		push	{r7, lr}
 1884              	.LCFI78:
 1885              		.cfi_def_cfa_offset 8
 1886              		.cfi_offset 7, -8
 1887              		.cfi_offset 14, -4
 1888 0002 86B0     		sub	sp, sp, #24
 1889              	.LCFI79:
 1890              		.cfi_def_cfa_offset 32
 1891 0004 00AF     		add	r7, sp, #0
 1892              	.LCFI80:
 1893              		.cfi_def_cfa_register 7
 1894 0006 7860     		str	r0, [r7, #4]
 466:/home/fanxinhao/Work/LiteOS_Lab_2/iot_link/oc/oc_coap/boudica120_oc/boudica120_oc.c ****     //wait for the server observed
 467:/home/fanxinhao/Work/LiteOS_Lab_2/iot_link/oc/oc_coap/boudica120_oc/boudica120_oc.c ****     bool_t ret = false;
 1895              		.loc 1 467 12
 1896 0008 0023     		movs	r3, #0
 1897 000a 7B61     		str	r3, [r7, #20]
 468:/home/fanxinhao/Work/LiteOS_Lab_2/iot_link/oc/oc_coap/boudica120_oc/boudica120_oc.c ****     int times;
 469:/home/fanxinhao/Work/LiteOS_Lab_2/iot_link/oc/oc_coap/boudica120_oc/boudica120_oc.c **** 	char *cmd = "AT+NMGS=2,3232\r";	//use for check cdp register status
 1898              		.loc 1 469 8
 1899 000c 0F4B     		ldr	r3, .L110
 1900 000e FB60     		str	r3, [r7, #12]
 470:/home/fanxinhao/Work/LiteOS_Lab_2/iot_link/oc/oc_coap/boudica120_oc/boudica120_oc.c **** 
 471:/home/fanxinhao/Work/LiteOS_Lab_2/iot_link/oc/oc_coap/boudica120_oc/boudica120_oc.c ****     for(times =0;times <time;times++ )
 1901              		.loc 1 471 15
 1902 0010 0023     		movs	r3, #0
 1903 0012 3B61     		str	r3, [r7, #16]
 1904              		.loc 1 471 5
 1905 0014 11E0     		b	.L105
 1906              	.L108:
 472:/home/fanxinhao/Work/LiteOS_Lab_2/iot_link/oc/oc_coap/boudica120_oc/boudica120_oc.c ****     {
 473:/home/fanxinhao/Work/LiteOS_Lab_2/iot_link/oc/oc_coap/boudica120_oc/boudica120_oc.c **** 		ret = boudica120_atcmd(cmd,"OK");
 1907              		.loc 1 473 9
 1908 0016 0E49     		ldr	r1, .L110+4
 1909 0018 F868     		ldr	r0, [r7, #12]
 1910 001a FFF7FEFF 		bl	boudica120_atcmd
 1911 001e 7861     		str	r0, [r7, #20]
 474:/home/fanxinhao/Work/LiteOS_Lab_2/iot_link/oc/oc_coap/boudica120_oc/boudica120_oc.c ****         if(ret)
 1912              		.loc 1 474 11
 1913 0020 7B69     		ldr	r3, [r7, #20]
 1914 0022 002B     		cmp	r3, #0
 1915 0024 02D0     		beq	.L106
 475:/home/fanxinhao/Work/LiteOS_Lab_2/iot_link/oc/oc_coap/boudica120_oc/boudica120_oc.c ****         {
 476:/home/fanxinhao/Work/LiteOS_Lab_2/iot_link/oc/oc_coap/boudica120_oc/boudica120_oc.c ****             ret = true;
 1916              		.loc 1 476 17
 1917 0026 0123     		movs	r3, #1
 1918 0028 7B61     		str	r3, [r7, #20]
 477:/home/fanxinhao/Work/LiteOS_Lab_2/iot_link/oc/oc_coap/boudica120_oc/boudica120_oc.c ****             break;
 1919              		.loc 1 477 13
 1920 002a 0AE0     		b	.L107
 1921              	.L106:
 478:/home/fanxinhao/Work/LiteOS_Lab_2/iot_link/oc/oc_coap/boudica120_oc/boudica120_oc.c ****         }
 479:/home/fanxinhao/Work/LiteOS_Lab_2/iot_link/oc/oc_coap/boudica120_oc/boudica120_oc.c ****         osal_task_sleep(1000);
 1922              		.loc 1 479 9 discriminator 2
 1923 002c 4FF47A70 		mov	r0, #1000
 1924 0030 FFF7FEFF 		bl	osal_task_sleep
ARM GAS  /tmp/ccRaplPO.s 			page 44


 471:/home/fanxinhao/Work/LiteOS_Lab_2/iot_link/oc/oc_coap/boudica120_oc/boudica120_oc.c ****     {
 1925              		.loc 1 471 35 discriminator 2
 1926 0034 3B69     		ldr	r3, [r7, #16]
 1927 0036 0133     		adds	r3, r3, #1
 1928 0038 3B61     		str	r3, [r7, #16]
 1929              	.L105:
 471:/home/fanxinhao/Work/LiteOS_Lab_2/iot_link/oc/oc_coap/boudica120_oc/boudica120_oc.c ****     {
 1930              		.loc 1 471 5 discriminator 1
 1931 003a 3A69     		ldr	r2, [r7, #16]
 1932 003c 7B68     		ldr	r3, [r7, #4]
 1933 003e 9A42     		cmp	r2, r3
 1934 0040 E9DB     		blt	.L108
 1935              	.L107:
 480:/home/fanxinhao/Work/LiteOS_Lab_2/iot_link/oc/oc_coap/boudica120_oc/boudica120_oc.c ****     }
 481:/home/fanxinhao/Work/LiteOS_Lab_2/iot_link/oc/oc_coap/boudica120_oc/boudica120_oc.c **** 
 482:/home/fanxinhao/Work/LiteOS_Lab_2/iot_link/oc/oc_coap/boudica120_oc/boudica120_oc.c ****     return ret;
 1936              		.loc 1 482 12
 1937 0042 7B69     		ldr	r3, [r7, #20]
 483:/home/fanxinhao/Work/LiteOS_Lab_2/iot_link/oc/oc_coap/boudica120_oc/boudica120_oc.c **** 
 484:/home/fanxinhao/Work/LiteOS_Lab_2/iot_link/oc/oc_coap/boudica120_oc/boudica120_oc.c **** 
 485:/home/fanxinhao/Work/LiteOS_Lab_2/iot_link/oc/oc_coap/boudica120_oc/boudica120_oc.c **** 
 486:/home/fanxinhao/Work/LiteOS_Lab_2/iot_link/oc/oc_coap/boudica120_oc/boudica120_oc.c **** }
 1938              		.loc 1 486 1
 1939 0044 1846     		mov	r0, r3
 1940 0046 1837     		adds	r7, r7, #24
 1941              	.LCFI81:
 1942              		.cfi_def_cfa_offset 8
 1943 0048 BD46     		mov	sp, r7
 1944              	.LCFI82:
 1945              		.cfi_def_cfa_register 13
 1946              		@ sp needed
 1947 004a 80BD     		pop	{r7, pc}
 1948              	.L111:
 1949              		.align	2
 1950              	.L110:
 1951 004c F0010000 		.word	.LC29
 1952 0050 14000000 		.word	.LC2
 1953              		.cfi_endproc
 1954              	.LFE19:
 1956              		.section	.rodata
 1957              		.align	2
 1958              	.LC30:
 1959 0200 43474154 		.ascii	"CGATT:1\000"
 1959      543A3100 
 1960              		.align	2
 1961              	.LC31:
 1962 0208 41542B43 		.ascii	"AT+CGATT?\015\000"
 1962      47415454 
 1962      3F0D00
 1963              		.section	.text.boudica120_check_netattach,"ax",%progbits
 1964              		.align	1
 1965              		.syntax unified
 1966              		.thumb
 1967              		.thumb_func
 1968              		.fpu fpv4-sp-d16
 1970              	boudica120_check_netattach:
 1971              	.LFB20:
ARM GAS  /tmp/ccRaplPO.s 			page 45


 487:/home/fanxinhao/Work/LiteOS_Lab_2/iot_link/oc/oc_coap/boudica120_oc/boudica120_oc.c **** 
 488:/home/fanxinhao/Work/LiteOS_Lab_2/iot_link/oc/oc_coap/boudica120_oc/boudica120_oc.c **** 
 489:/home/fanxinhao/Work/LiteOS_Lab_2/iot_link/oc/oc_coap/boudica120_oc/boudica120_oc.c **** 
 490:/home/fanxinhao/Work/LiteOS_Lab_2/iot_link/oc/oc_coap/boudica120_oc/boudica120_oc.c **** 
 491:/home/fanxinhao/Work/LiteOS_Lab_2/iot_link/oc/oc_coap/boudica120_oc/boudica120_oc.c **** 
 492:/home/fanxinhao/Work/LiteOS_Lab_2/iot_link/oc/oc_coap/boudica120_oc/boudica120_oc.c **** //check if attached to the network
 493:/home/fanxinhao/Work/LiteOS_Lab_2/iot_link/oc/oc_coap/boudica120_oc/boudica120_oc.c **** static bool_t boudica120_check_netattach(int time)  //unit second
 494:/home/fanxinhao/Work/LiteOS_Lab_2/iot_link/oc/oc_coap/boudica120_oc/boudica120_oc.c **** {
 1972              		.loc 1 494 1
 1973              		.cfi_startproc
 1974              		@ args = 0, pretend = 0, frame = 16
 1975              		@ frame_needed = 1, uses_anonymous_args = 0
 1976 0000 80B5     		push	{r7, lr}
 1977              	.LCFI83:
 1978              		.cfi_def_cfa_offset 8
 1979              		.cfi_offset 7, -8
 1980              		.cfi_offset 14, -4
 1981 0002 84B0     		sub	sp, sp, #16
 1982              	.LCFI84:
 1983              		.cfi_def_cfa_offset 24
 1984 0004 00AF     		add	r7, sp, #0
 1985              	.LCFI85:
 1986              		.cfi_def_cfa_register 7
 1987 0006 7860     		str	r0, [r7, #4]
 495:/home/fanxinhao/Work/LiteOS_Lab_2/iot_link/oc/oc_coap/boudica120_oc/boudica120_oc.c ****     //wait for the server observed
 496:/home/fanxinhao/Work/LiteOS_Lab_2/iot_link/oc/oc_coap/boudica120_oc/boudica120_oc.c ****     bool_t ret = false;
 1988              		.loc 1 496 12
 1989 0008 0023     		movs	r3, #0
 1990 000a FB60     		str	r3, [r7, #12]
 497:/home/fanxinhao/Work/LiteOS_Lab_2/iot_link/oc/oc_coap/boudica120_oc/boudica120_oc.c ****     int times;
 498:/home/fanxinhao/Work/LiteOS_Lab_2/iot_link/oc/oc_coap/boudica120_oc/boudica120_oc.c **** 
 499:/home/fanxinhao/Work/LiteOS_Lab_2/iot_link/oc/oc_coap/boudica120_oc/boudica120_oc.c ****     for(times =0;times <time;times++ )
 1991              		.loc 1 499 15
 1992 000c 0023     		movs	r3, #0
 1993 000e BB60     		str	r3, [r7, #8]
 1994              		.loc 1 499 5
 1995 0010 10E0     		b	.L113
 1996              	.L116:
 500:/home/fanxinhao/Work/LiteOS_Lab_2/iot_link/oc/oc_coap/boudica120_oc/boudica120_oc.c ****     {
 501:/home/fanxinhao/Work/LiteOS_Lab_2/iot_link/oc/oc_coap/boudica120_oc/boudica120_oc.c ****         if(boudica120_atcmd("AT+CGATT?\r", "CGATT:1"))
 1997              		.loc 1 501 12
 1998 0012 0D49     		ldr	r1, .L118
 1999 0014 0D48     		ldr	r0, .L118+4
 2000 0016 FFF7FEFF 		bl	boudica120_atcmd
 2001 001a 0346     		mov	r3, r0
 2002              		.loc 1 501 11
 2003 001c 002B     		cmp	r3, #0
 2004 001e 02D0     		beq	.L114
 502:/home/fanxinhao/Work/LiteOS_Lab_2/iot_link/oc/oc_coap/boudica120_oc/boudica120_oc.c ****         {
 503:/home/fanxinhao/Work/LiteOS_Lab_2/iot_link/oc/oc_coap/boudica120_oc/boudica120_oc.c ****             ret = true;
 2005              		.loc 1 503 17
 2006 0020 0123     		movs	r3, #1
 2007 0022 FB60     		str	r3, [r7, #12]
 504:/home/fanxinhao/Work/LiteOS_Lab_2/iot_link/oc/oc_coap/boudica120_oc/boudica120_oc.c ****             break;
 2008              		.loc 1 504 13
 2009 0024 0AE0     		b	.L115
 2010              	.L114:
ARM GAS  /tmp/ccRaplPO.s 			page 46


 505:/home/fanxinhao/Work/LiteOS_Lab_2/iot_link/oc/oc_coap/boudica120_oc/boudica120_oc.c ****         }
 506:/home/fanxinhao/Work/LiteOS_Lab_2/iot_link/oc/oc_coap/boudica120_oc/boudica120_oc.c ****         osal_task_sleep(1000);
 2011              		.loc 1 506 9 discriminator 2
 2012 0026 4FF47A70 		mov	r0, #1000
 2013 002a FFF7FEFF 		bl	osal_task_sleep
 499:/home/fanxinhao/Work/LiteOS_Lab_2/iot_link/oc/oc_coap/boudica120_oc/boudica120_oc.c ****     {
 2014              		.loc 1 499 35 discriminator 2
 2015 002e BB68     		ldr	r3, [r7, #8]
 2016 0030 0133     		adds	r3, r3, #1
 2017 0032 BB60     		str	r3, [r7, #8]
 2018              	.L113:
 499:/home/fanxinhao/Work/LiteOS_Lab_2/iot_link/oc/oc_coap/boudica120_oc/boudica120_oc.c ****     {
 2019              		.loc 1 499 5 discriminator 1
 2020 0034 BA68     		ldr	r2, [r7, #8]
 2021 0036 7B68     		ldr	r3, [r7, #4]
 2022 0038 9A42     		cmp	r2, r3
 2023 003a EADB     		blt	.L116
 2024              	.L115:
 507:/home/fanxinhao/Work/LiteOS_Lab_2/iot_link/oc/oc_coap/boudica120_oc/boudica120_oc.c ****     }
 508:/home/fanxinhao/Work/LiteOS_Lab_2/iot_link/oc/oc_coap/boudica120_oc/boudica120_oc.c **** 
 509:/home/fanxinhao/Work/LiteOS_Lab_2/iot_link/oc/oc_coap/boudica120_oc/boudica120_oc.c ****     return ret;
 2025              		.loc 1 509 12
 2026 003c FB68     		ldr	r3, [r7, #12]
 510:/home/fanxinhao/Work/LiteOS_Lab_2/iot_link/oc/oc_coap/boudica120_oc/boudica120_oc.c **** }
 2027              		.loc 1 510 1
 2028 003e 1846     		mov	r0, r3
 2029 0040 1037     		adds	r7, r7, #16
 2030              	.LCFI86:
 2031              		.cfi_def_cfa_offset 8
 2032 0042 BD46     		mov	sp, r7
 2033              	.LCFI87:
 2034              		.cfi_def_cfa_register 13
 2035              		@ sp needed
 2036 0044 80BD     		pop	{r7, pc}
 2037              	.L119:
 2038 0046 00BF     		.align	2
 2039              	.L118:
 2040 0048 00020000 		.word	.LC30
 2041 004c 08020000 		.word	.LC31
 2042              		.cfi_endproc
 2043              	.LFE20:
 2045              		.section	.rodata
 2046 0213 00       		.align	2
 2047              	.LC32:
 2048 0214 4155544F 		.ascii	"AUTOCONNECT,TRUE\000"
 2048      434F4E4E 
 2048      4543542C 
 2048      54525545 
 2048      00
 2049 0225 000000   		.align	2
 2050              	.LC33:
 2051 0228 4155544F 		.ascii	"AUTOCONNECT,FALSE\000"
 2051      434F4E4E 
 2051      4543542C 
 2051      46414C53 
 2051      4500
 2052 023a 0000     		.align	2
ARM GAS  /tmp/ccRaplPO.s 			page 47


 2053              	.LC34:
 2054 023c 2B4E434F 		.ascii	"+NCONFIG\000"
 2054      4E464947 
 2054      00
 2055 0245 000000   		.align	2
 2056              	.LC35:
 2057 0248 41542B4E 		.ascii	"AT+NCONFIG?\015\000"
 2057      434F4E46 
 2057      49473F0D 
 2057      00
 2058 0255 000000   		.align	2
 2059              	.LC36:
 2060 0258 41542B4E 		.ascii	"AT+NCONFIG=%s\015\000"
 2060      434F4E46 
 2060      49473D25 
 2060      730D00
 2061              		.section	.text.boudica120_set_autoconnect,"ax",%progbits
 2062              		.align	1
 2063              		.syntax unified
 2064              		.thumb
 2065              		.thumb_func
 2066              		.fpu fpv4-sp-d16
 2068              	boudica120_set_autoconnect:
 2069              	.LFB21:
 511:/home/fanxinhao/Work/LiteOS_Lab_2/iot_link/oc/oc_coap/boudica120_oc/boudica120_oc.c **** 
 512:/home/fanxinhao/Work/LiteOS_Lab_2/iot_link/oc/oc_coap/boudica120_oc/boudica120_oc.c **** //set the autoconfig mode
 513:/home/fanxinhao/Work/LiteOS_Lab_2/iot_link/oc/oc_coap/boudica120_oc/boudica120_oc.c **** static bool_t boudica120_set_autoconnect(int enable)
 514:/home/fanxinhao/Work/LiteOS_Lab_2/iot_link/oc/oc_coap/boudica120_oc/boudica120_oc.c **** {
 2070              		.loc 1 514 1
 2071              		.cfi_startproc
 2072              		@ args = 0, pretend = 0, frame = 144
 2073              		@ frame_needed = 1, uses_anonymous_args = 0
 2074 0000 80B5     		push	{r7, lr}
 2075              	.LCFI88:
 2076              		.cfi_def_cfa_offset 8
 2077              		.cfi_offset 7, -8
 2078              		.cfi_offset 14, -4
 2079 0002 A4B0     		sub	sp, sp, #144
 2080              	.LCFI89:
 2081              		.cfi_def_cfa_offset 152
 2082 0004 00AF     		add	r7, sp, #0
 2083              	.LCFI90:
 2084              		.cfi_def_cfa_register 7
 2085 0006 7860     		str	r0, [r7, #4]
 515:/home/fanxinhao/Work/LiteOS_Lab_2/iot_link/oc/oc_coap/boudica120_oc/boudica120_oc.c ****     char cmd[64];
 516:/home/fanxinhao/Work/LiteOS_Lab_2/iot_link/oc/oc_coap/boudica120_oc/boudica120_oc.c ****     char resp[64];
 517:/home/fanxinhao/Work/LiteOS_Lab_2/iot_link/oc/oc_coap/boudica120_oc/boudica120_oc.c ****     bool_t ret = true;
 2086              		.loc 1 517 12
 2087 0008 0123     		movs	r3, #1
 2088 000a C7F88C30 		str	r3, [r7, #140]
 518:/home/fanxinhao/Work/LiteOS_Lab_2/iot_link/oc/oc_coap/boudica120_oc/boudica120_oc.c ****     const char *mode;
 519:/home/fanxinhao/Work/LiteOS_Lab_2/iot_link/oc/oc_coap/boudica120_oc/boudica120_oc.c **** 
 520:/home/fanxinhao/Work/LiteOS_Lab_2/iot_link/oc/oc_coap/boudica120_oc/boudica120_oc.c ****     if(enable)
 2089              		.loc 1 520 7
 2090 000e 7B68     		ldr	r3, [r7, #4]
 2091 0010 002B     		cmp	r3, #0
 2092 0012 03D0     		beq	.L121
ARM GAS  /tmp/ccRaplPO.s 			page 48


 521:/home/fanxinhao/Work/LiteOS_Lab_2/iot_link/oc/oc_coap/boudica120_oc/boudica120_oc.c ****     {
 522:/home/fanxinhao/Work/LiteOS_Lab_2/iot_link/oc/oc_coap/boudica120_oc/boudica120_oc.c ****         mode = "AUTOCONNECT,TRUE";
 2093              		.loc 1 522 14
 2094 0014 234B     		ldr	r3, .L127
 2095 0016 C7F88830 		str	r3, [r7, #136]
 2096 001a 02E0     		b	.L122
 2097              	.L121:
 523:/home/fanxinhao/Work/LiteOS_Lab_2/iot_link/oc/oc_coap/boudica120_oc/boudica120_oc.c ****     }
 524:/home/fanxinhao/Work/LiteOS_Lab_2/iot_link/oc/oc_coap/boudica120_oc/boudica120_oc.c ****     else
 525:/home/fanxinhao/Work/LiteOS_Lab_2/iot_link/oc/oc_coap/boudica120_oc/boudica120_oc.c ****     {
 526:/home/fanxinhao/Work/LiteOS_Lab_2/iot_link/oc/oc_coap/boudica120_oc/boudica120_oc.c ****         mode = "AUTOCONNECT,FALSE";
 2098              		.loc 1 526 14
 2099 001c 224B     		ldr	r3, .L127+4
 2100 001e C7F88830 		str	r3, [r7, #136]
 2101              	.L122:
 527:/home/fanxinhao/Work/LiteOS_Lab_2/iot_link/oc/oc_coap/boudica120_oc/boudica120_oc.c ****     }
 528:/home/fanxinhao/Work/LiteOS_Lab_2/iot_link/oc/oc_coap/boudica120_oc/boudica120_oc.c **** 
 529:/home/fanxinhao/Work/LiteOS_Lab_2/iot_link/oc/oc_coap/boudica120_oc/boudica120_oc.c ****     (void) memset(resp,0,64);
 2102              		.loc 1 529 12
 2103 0022 07F10803 		add	r3, r7, #8
 2104 0026 4022     		movs	r2, #64
 2105 0028 0021     		movs	r1, #0
 2106 002a 1846     		mov	r0, r3
 2107 002c FFF7FEFF 		bl	memset
 530:/home/fanxinhao/Work/LiteOS_Lab_2/iot_link/oc/oc_coap/boudica120_oc/boudica120_oc.c ****     ret = boudica120_atcmd_response("AT+NCONFIG?\r","+NCONFIG",resp,64);
 2108              		.loc 1 530 11
 2109 0030 07F10802 		add	r2, r7, #8
 2110 0034 4023     		movs	r3, #64
 2111 0036 1D49     		ldr	r1, .L127+8
 2112 0038 1D48     		ldr	r0, .L127+12
 2113 003a FFF7FEFF 		bl	boudica120_atcmd_response
 2114 003e C7F88C00 		str	r0, [r7, #140]
 531:/home/fanxinhao/Work/LiteOS_Lab_2/iot_link/oc/oc_coap/boudica120_oc/boudica120_oc.c ****     if((false == ret)||(NULL == strstr(resp,mode)))//which means we need to set it
 2115              		.loc 1 531 7
 2116 0042 D7F88C30 		ldr	r3, [r7, #140]
 2117 0046 002B     		cmp	r3, #0
 2118 0048 09D0     		beq	.L123
 2119              		.loc 1 531 33 discriminator 1
 2120 004a 07F10803 		add	r3, r7, #8
 2121 004e D7F88810 		ldr	r1, [r7, #136]
 2122 0052 1846     		mov	r0, r3
 2123 0054 FFF7FEFF 		bl	strstr
 2124 0058 0346     		mov	r3, r0
 2125              		.loc 1 531 22 discriminator 1
 2126 005a 002B     		cmp	r3, #0
 2127 005c 19D1     		bne	.L124
 2128              	.L123:
 532:/home/fanxinhao/Work/LiteOS_Lab_2/iot_link/oc/oc_coap/boudica120_oc/boudica120_oc.c ****     {
 533:/home/fanxinhao/Work/LiteOS_Lab_2/iot_link/oc/oc_coap/boudica120_oc/boudica120_oc.c ****         (void) memset(cmd,0,64);
 2129              		.loc 1 533 16
 2130 005e 07F14803 		add	r3, r7, #72
 2131 0062 4022     		movs	r2, #64
 2132 0064 0021     		movs	r1, #0
 2133 0066 1846     		mov	r0, r3
 2134 0068 FFF7FEFF 		bl	memset
 534:/home/fanxinhao/Work/LiteOS_Lab_2/iot_link/oc/oc_coap/boudica120_oc/boudica120_oc.c ****         (void) snprintf(cmd,64,"AT+NCONFIG=%s\r",mode);
 2135              		.loc 1 534 16
ARM GAS  /tmp/ccRaplPO.s 			page 49


 2136 006c 07F14800 		add	r0, r7, #72
 2137 0070 D7F88830 		ldr	r3, [r7, #136]
 2138 0074 0F4A     		ldr	r2, .L127+16
 2139 0076 4021     		movs	r1, #64
 2140 0078 FFF7FEFF 		bl	snprintf
 535:/home/fanxinhao/Work/LiteOS_Lab_2/iot_link/oc/oc_coap/boudica120_oc/boudica120_oc.c ****         ret = boudica120_atcmd(cmd,"OK");
 2141              		.loc 1 535 15
 2142 007c 07F14803 		add	r3, r7, #72
 2143 0080 0D49     		ldr	r1, .L127+20
 2144 0082 1846     		mov	r0, r3
 2145 0084 FFF7FEFF 		bl	boudica120_atcmd
 2146 0088 C7F88C00 		str	r0, [r7, #140]
 536:/home/fanxinhao/Work/LiteOS_Lab_2/iot_link/oc/oc_coap/boudica120_oc/boudica120_oc.c **** 
 537:/home/fanxinhao/Work/LiteOS_Lab_2/iot_link/oc/oc_coap/boudica120_oc/boudica120_oc.c ****         boudica120_reboot();
 2147              		.loc 1 537 9
 2148 008c FFF7FEFF 		bl	boudica120_reboot
 2149 0090 02E0     		b	.L125
 2150              	.L124:
 538:/home/fanxinhao/Work/LiteOS_Lab_2/iot_link/oc/oc_coap/boudica120_oc/boudica120_oc.c ****     }
 539:/home/fanxinhao/Work/LiteOS_Lab_2/iot_link/oc/oc_coap/boudica120_oc/boudica120_oc.c ****     else
 540:/home/fanxinhao/Work/LiteOS_Lab_2/iot_link/oc/oc_coap/boudica120_oc/boudica120_oc.c ****     {
 541:/home/fanxinhao/Work/LiteOS_Lab_2/iot_link/oc/oc_coap/boudica120_oc/boudica120_oc.c ****         ret = true;  //we need not to set
 2151              		.loc 1 541 13
 2152 0092 0123     		movs	r3, #1
 2153 0094 C7F88C30 		str	r3, [r7, #140]
 2154              	.L125:
 542:/home/fanxinhao/Work/LiteOS_Lab_2/iot_link/oc/oc_coap/boudica120_oc/boudica120_oc.c ****     }
 543:/home/fanxinhao/Work/LiteOS_Lab_2/iot_link/oc/oc_coap/boudica120_oc/boudica120_oc.c **** 
 544:/home/fanxinhao/Work/LiteOS_Lab_2/iot_link/oc/oc_coap/boudica120_oc/boudica120_oc.c ****     return ret;
 2155              		.loc 1 544 12
 2156 0098 D7F88C30 		ldr	r3, [r7, #140]
 545:/home/fanxinhao/Work/LiteOS_Lab_2/iot_link/oc/oc_coap/boudica120_oc/boudica120_oc.c **** }
 2157              		.loc 1 545 1
 2158 009c 1846     		mov	r0, r3
 2159 009e 9037     		adds	r7, r7, #144
 2160              	.LCFI91:
 2161              		.cfi_def_cfa_offset 8
 2162 00a0 BD46     		mov	sp, r7
 2163              	.LCFI92:
 2164              		.cfi_def_cfa_register 13
 2165              		@ sp needed
 2166 00a2 80BD     		pop	{r7, pc}
 2167              	.L128:
 2168              		.align	2
 2169              	.L127:
 2170 00a4 14020000 		.word	.LC32
 2171 00a8 28020000 		.word	.LC33
 2172 00ac 3C020000 		.word	.LC34
 2173 00b0 48020000 		.word	.LC35
 2174 00b4 58020000 		.word	.LC36
 2175 00b8 14000000 		.word	.LC2
 2176              		.cfi_endproc
 2177              	.LFE21:
 2179              		.section	.rodata
 2180 0267 00       		.align	2
 2181              	.LC37:
 2182 0268 0D0A2B4E 		.ascii	"\015\012+NNMI:\000"
ARM GAS  /tmp/ccRaplPO.s 			page 50


 2182      4E4D493A 
 2182      00
 2183 0271 000000   		.align	2
 2184              	.LC38:
 2185 0274 626F7564 		.ascii	"boudica120rcv\000"
 2185      69636131 
 2185      32307263 
 2185      7600
 2186 0282 0000     		.align	2
 2187              	.LC39:
 2188 0284 5B25735D 		.ascii	"[%s][%u][%s:%d] NB MODULE RXTX READY NOW\012\015\015"
 2188      5B25755D 
 2188      5B25733A 
 2188      25645D20 
 2188      4E42204D 
 2189 02af 0A00     		.ascii	"\012\000"
 2190              		.section	.text.boudica120_boot,"ax",%progbits
 2191              		.align	1
 2192              		.syntax unified
 2193              		.thumb
 2194              		.thumb_func
 2195              		.fpu fpv4-sp-d16
 2197              	boudica120_boot:
 2198              	.LFB22:
 546:/home/fanxinhao/Work/LiteOS_Lab_2/iot_link/oc/oc_coap/boudica120_oc/boudica120_oc.c **** 
 547:/home/fanxinhao/Work/LiteOS_Lab_2/iot_link/oc/oc_coap/boudica120_oc/boudica120_oc.c **** //use this function to set the band,which corresponding with YUNYINGSHANG AND MOZU
 548:/home/fanxinhao/Work/LiteOS_Lab_2/iot_link/oc/oc_coap/boudica120_oc/boudica120_oc.c **** static bool_t boudica120_boot(const char *plmn, const char *apn, const char *bands,const char *serv
 549:/home/fanxinhao/Work/LiteOS_Lab_2/iot_link/oc/oc_coap/boudica120_oc/boudica120_oc.c **** {
 2199              		.loc 1 549 1
 2200              		.cfi_startproc
 2201              		@ args = 4, pretend = 0, frame = 16
 2202              		@ frame_needed = 1, uses_anonymous_args = 0
 2203 0000 90B5     		push	{r4, r7, lr}
 2204              	.LCFI93:
 2205              		.cfi_def_cfa_offset 12
 2206              		.cfi_offset 4, -12
 2207              		.cfi_offset 7, -8
 2208              		.cfi_offset 14, -4
 2209 0002 87B0     		sub	sp, sp, #28
 2210              	.LCFI94:
 2211              		.cfi_def_cfa_offset 40
 2212 0004 02AF     		add	r7, sp, #8
 2213              	.LCFI95:
 2214              		.cfi_def_cfa 7, 32
 2215 0006 F860     		str	r0, [r7, #12]
 2216 0008 B960     		str	r1, [r7, #8]
 2217 000a 7A60     		str	r2, [r7, #4]
 2218 000c 3B60     		str	r3, [r7]
 550:/home/fanxinhao/Work/LiteOS_Lab_2/iot_link/oc/oc_coap/boudica120_oc/boudica120_oc.c ****     //(void) memset(&s_boudica120_oc_cb,0,sizeof(s_boudica120_oc_cb));
 551:/home/fanxinhao/Work/LiteOS_Lab_2/iot_link/oc/oc_coap/boudica120_oc/boudica120_oc.c **** 
 552:/home/fanxinhao/Work/LiteOS_Lab_2/iot_link/oc/oc_coap/boudica120_oc/boudica120_oc.c ****     at_oobregister("boudica120rcv",cn_boudica120_rcvindex,strlen(cn_boudica120_rcvindex),boudica120
 2219              		.loc 1 552 5
 2220 000e 0023     		movs	r3, #0
 2221 0010 0093     		str	r3, [sp]
 2222 0012 284B     		ldr	r3, .L139
 2223 0014 0822     		movs	r2, #8
 2224 0016 2849     		ldr	r1, .L139+4
ARM GAS  /tmp/ccRaplPO.s 			page 51


 2225 0018 2848     		ldr	r0, .L139+8
 2226 001a FFF7FEFF 		bl	at_oobregister
 2227              	.L134:
 553:/home/fanxinhao/Work/LiteOS_Lab_2/iot_link/oc/oc_coap/boudica120_oc/boudica120_oc.c **** 
 554:/home/fanxinhao/Work/LiteOS_Lab_2/iot_link/oc/oc_coap/boudica120_oc/boudica120_oc.c ****     while(1)
 555:/home/fanxinhao/Work/LiteOS_Lab_2/iot_link/oc/oc_coap/boudica120_oc/boudica120_oc.c ****     {
 556:/home/fanxinhao/Work/LiteOS_Lab_2/iot_link/oc/oc_coap/boudica120_oc/boudica120_oc.c **** 
 557:/home/fanxinhao/Work/LiteOS_Lab_2/iot_link/oc/oc_coap/boudica120_oc/boudica120_oc.c **** 
 558:/home/fanxinhao/Work/LiteOS_Lab_2/iot_link/oc/oc_coap/boudica120_oc/boudica120_oc.c ****         boudica120_reboot();
 2228              		.loc 1 558 9
 2229 001e FFF7FEFF 		bl	boudica120_reboot
 559:/home/fanxinhao/Work/LiteOS_Lab_2/iot_link/oc/oc_coap/boudica120_oc/boudica120_oc.c **** 
 560:/home/fanxinhao/Work/LiteOS_Lab_2/iot_link/oc/oc_coap/boudica120_oc/boudica120_oc.c ****         boudica120_set_echo (0);
 2230              		.loc 1 560 9
 2231 0022 0020     		movs	r0, #0
 2232 0024 FFF7FEFF 		bl	boudica120_set_echo
 561:/home/fanxinhao/Work/LiteOS_Lab_2/iot_link/oc/oc_coap/boudica120_oc/boudica120_oc.c **** 
 562:/home/fanxinhao/Work/LiteOS_Lab_2/iot_link/oc/oc_coap/boudica120_oc/boudica120_oc.c ****         boudica120_set_cmee(1);
 2233              		.loc 1 562 9
 2234 0028 0120     		movs	r0, #1
 2235 002a FFF7FEFF 		bl	boudica120_set_cmee
 563:/home/fanxinhao/Work/LiteOS_Lab_2/iot_link/oc/oc_coap/boudica120_oc/boudica120_oc.c **** 
 564:/home/fanxinhao/Work/LiteOS_Lab_2/iot_link/oc/oc_coap/boudica120_oc/boudica120_oc.c ****         boudica120_set_autoconnect(0);     //cgatt and cfun must be called if autoconnect is false
 2236              		.loc 1 564 9
 2237 002e 0020     		movs	r0, #0
 2238 0030 FFF7FEFF 		bl	boudica120_set_autoconnect
 565:/home/fanxinhao/Work/LiteOS_Lab_2/iot_link/oc/oc_coap/boudica120_oc/boudica120_oc.c **** 
 566:/home/fanxinhao/Work/LiteOS_Lab_2/iot_link/oc/oc_coap/boudica120_oc/boudica120_oc.c ****         boudica120_set_bands(bands);
 2239              		.loc 1 566 9
 2240 0034 7868     		ldr	r0, [r7, #4]
 2241 0036 FFF7FEFF 		bl	boudica120_set_bands
 567:/home/fanxinhao/Work/LiteOS_Lab_2/iot_link/oc/oc_coap/boudica120_oc/boudica120_oc.c **** 
 568:/home/fanxinhao/Work/LiteOS_Lab_2/iot_link/oc/oc_coap/boudica120_oc/boudica120_oc.c ****         boudica120_set_fun(1);
 2242              		.loc 1 568 9
 2243 003a 0120     		movs	r0, #1
 2244 003c FFF7FEFF 		bl	boudica120_set_fun
 569:/home/fanxinhao/Work/LiteOS_Lab_2/iot_link/oc/oc_coap/boudica120_oc/boudica120_oc.c **** 
 570:/home/fanxinhao/Work/LiteOS_Lab_2/iot_link/oc/oc_coap/boudica120_oc/boudica120_oc.c ****         //boudica120_set_plmn(plmn);
 571:/home/fanxinhao/Work/LiteOS_Lab_2/iot_link/oc/oc_coap/boudica120_oc/boudica120_oc.c **** 
 572:/home/fanxinhao/Work/LiteOS_Lab_2/iot_link/oc/oc_coap/boudica120_oc/boudica120_oc.c ****         boudica120_set_apn(apn);
 2245              		.loc 1 572 9
 2246 0040 B868     		ldr	r0, [r7, #8]
 2247 0042 FFF7FEFF 		bl	boudica120_set_apn
 573:/home/fanxinhao/Work/LiteOS_Lab_2/iot_link/oc/oc_coap/boudica120_oc/boudica120_oc.c **** 
 574:/home/fanxinhao/Work/LiteOS_Lab_2/iot_link/oc/oc_coap/boudica120_oc/boudica120_oc.c ****         boudica120_set_cdp(server,port);
 2248              		.loc 1 574 9
 2249 0046 396A     		ldr	r1, [r7, #32]
 2250 0048 3868     		ldr	r0, [r7]
 2251 004a FFF7FEFF 		bl	boudica120_set_cdp
 575:/home/fanxinhao/Work/LiteOS_Lab_2/iot_link/oc/oc_coap/boudica120_oc/boudica120_oc.c **** 
 576:/home/fanxinhao/Work/LiteOS_Lab_2/iot_link/oc/oc_coap/boudica120_oc/boudica120_oc.c ****         boudica120_set_cgatt(1);
 2252              		.loc 1 576 9
 2253 004e 0120     		movs	r0, #1
 2254 0050 FFF7FEFF 		bl	boudica120_set_cgatt
 577:/home/fanxinhao/Work/LiteOS_Lab_2/iot_link/oc/oc_coap/boudica120_oc/boudica120_oc.c **** 
 578:/home/fanxinhao/Work/LiteOS_Lab_2/iot_link/oc/oc_coap/boudica120_oc/boudica120_oc.c ****         boudica120_set_nnmi(1);
 2255              		.loc 1 578 9
ARM GAS  /tmp/ccRaplPO.s 			page 52


 2256 0054 0120     		movs	r0, #1
 2257 0056 FFF7FEFF 		bl	boudica120_set_nnmi
 579:/home/fanxinhao/Work/LiteOS_Lab_2/iot_link/oc/oc_coap/boudica120_oc/boudica120_oc.c **** 
 580:/home/fanxinhao/Work/LiteOS_Lab_2/iot_link/oc/oc_coap/boudica120_oc/boudica120_oc.c ****         if(false == boudica120_check_netattach(16))
 2258              		.loc 1 580 21
 2259 005a 1020     		movs	r0, #16
 2260 005c FFF7FEFF 		bl	boudica120_check_netattach
 2261 0060 0346     		mov	r3, r0
 2262              		.loc 1 580 11
 2263 0062 002B     		cmp	r3, #0
 2264 0064 06D0     		beq	.L137
 581:/home/fanxinhao/Work/LiteOS_Lab_2/iot_link/oc/oc_coap/boudica120_oc/boudica120_oc.c ****         {
 582:/home/fanxinhao/Work/LiteOS_Lab_2/iot_link/oc/oc_coap/boudica120_oc/boudica120_oc.c ****             continue;
 583:/home/fanxinhao/Work/LiteOS_Lab_2/iot_link/oc/oc_coap/boudica120_oc/boudica120_oc.c ****         }
 584:/home/fanxinhao/Work/LiteOS_Lab_2/iot_link/oc/oc_coap/boudica120_oc/boudica120_oc.c **** 
 585:/home/fanxinhao/Work/LiteOS_Lab_2/iot_link/oc/oc_coap/boudica120_oc/boudica120_oc.c ****         if(false == boudica120_check_platform_register(16)) //TODO--maybe this only compatible with
 2265              		.loc 1 585 21
 2266 0066 1020     		movs	r0, #16
 2267 0068 FFF7FEFF 		bl	boudica120_check_platform_register
 2268 006c 0346     		mov	r3, r0
 2269              		.loc 1 585 11
 2270 006e 002B     		cmp	r3, #0
 2271 0070 02D1     		bne	.L138
 586:/home/fanxinhao/Work/LiteOS_Lab_2/iot_link/oc/oc_coap/boudica120_oc/boudica120_oc.c ****         {
 587:/home/fanxinhao/Work/LiteOS_Lab_2/iot_link/oc/oc_coap/boudica120_oc/boudica120_oc.c ****             continue; //we should do the reboot for the nB
 2272              		.loc 1 587 13
 2273 0072 00E0     		b	.L131
 2274              	.L137:
 582:/home/fanxinhao/Work/LiteOS_Lab_2/iot_link/oc/oc_coap/boudica120_oc/boudica120_oc.c ****         }
 2275              		.loc 1 582 13
 2276 0074 00BF     		nop
 2277              	.L131:
 558:/home/fanxinhao/Work/LiteOS_Lab_2/iot_link/oc/oc_coap/boudica120_oc/boudica120_oc.c **** 
 2278              		.loc 1 558 9
 2279 0076 D2E7     		b	.L134
 2280              	.L138:
 588:/home/fanxinhao/Work/LiteOS_Lab_2/iot_link/oc/oc_coap/boudica120_oc/boudica120_oc.c ****         }
 589:/home/fanxinhao/Work/LiteOS_Lab_2/iot_link/oc/oc_coap/boudica120_oc/boudica120_oc.c **** 
 590:/home/fanxinhao/Work/LiteOS_Lab_2/iot_link/oc/oc_coap/boudica120_oc/boudica120_oc.c ****         break;
 2281              		.loc 1 590 9
 2282 0078 00BF     		nop
 591:/home/fanxinhao/Work/LiteOS_Lab_2/iot_link/oc/oc_coap/boudica120_oc/boudica120_oc.c ****     }
 592:/home/fanxinhao/Work/LiteOS_Lab_2/iot_link/oc/oc_coap/boudica120_oc/boudica120_oc.c ****    //reach here means everything is ok, we can go now
 593:/home/fanxinhao/Work/LiteOS_Lab_2/iot_link/oc/oc_coap/boudica120_oc/boudica120_oc.c ****     s_boudica120_oc_cb.sndenable = true;
 2283              		.loc 1 593 34
 2284 007a 114B     		ldr	r3, .L139+12
 2285 007c 0122     		movs	r2, #1
 2286 007e 9A64     		str	r2, [r3, #72]
 594:/home/fanxinhao/Work/LiteOS_Lab_2/iot_link/oc/oc_coap/boudica120_oc/boudica120_oc.c ****     LINK_LOG_DEBUG("NB MODULE RXTX READY NOW\n\r");
 2287              		.loc 1 594 5
 2288 0080 FFF7FEFF 		bl	link_log_level_get
 2289 0084 0346     		mov	r3, r0
 2290 0086 012B     		cmp	r3, #1
 2291 0088 0FD8     		bhi	.L135
 2292              		.loc 1 594 5 is_stmt 0 discriminator 1
 2293 008a 0120     		movs	r0, #1
 2294 008c FFF7FEFF 		bl	link_log_level_name
ARM GAS  /tmp/ccRaplPO.s 			page 53


 2295 0090 0446     		mov	r4, r0
 2296 0092 FFF7FEFF 		bl	osal_sys_time
 2297 0096 0246     		mov	r2, r0
 2298 0098 0B46     		mov	r3, r1
 2299 009a 40F25223 		movw	r3, #594
 2300 009e 0093     		str	r3, [sp]
 2301 00a0 084B     		ldr	r3, .L139+16
 2302 00a2 2146     		mov	r1, r4
 2303 00a4 0848     		ldr	r0, .L139+20
 2304 00a6 FFF7FEFF 		bl	printf
 2305              	.L135:
 595:/home/fanxinhao/Work/LiteOS_Lab_2/iot_link/oc/oc_coap/boudica120_oc/boudica120_oc.c ****     return true;
 2306              		.loc 1 595 12 is_stmt 1
 2307 00aa 0123     		movs	r3, #1
 596:/home/fanxinhao/Work/LiteOS_Lab_2/iot_link/oc/oc_coap/boudica120_oc/boudica120_oc.c **** }
 2308              		.loc 1 596 1
 2309 00ac 1846     		mov	r0, r3
 2310 00ae 1437     		adds	r7, r7, #20
 2311              	.LCFI96:
 2312              		.cfi_def_cfa_offset 12
 2313 00b0 BD46     		mov	sp, r7
 2314              	.LCFI97:
 2315              		.cfi_def_cfa_register 13
 2316              		@ sp needed
 2317 00b2 90BD     		pop	{r4, r7, pc}
 2318              	.L140:
 2319              		.align	2
 2320              	.L139:
 2321 00b4 00000000 		.word	boudica120_rcvdeal
 2322 00b8 68020000 		.word	.LC37
 2323 00bc 74020000 		.word	.LC38
 2324 00c0 00000000 		.word	s_boudica120_oc_cb
 2325 00c4 00000000 		.word	__FUNCTION__.7168
 2326 00c8 84020000 		.word	.LC39
 2327              		.cfi_endproc
 2328              	.LFE22:
 2330              		.section	.rodata
 2331 02b1 000000   		.align	2
 2332              	.LC40:
 2333 02b4 5B25735D 		.ascii	"[%s][%u][%s:%d] en_oc_coap_err_parafmt\015\012\000"
 2333      5B25755D 
 2333      5B25733A 
 2333      25645D20 
 2333      656E5F6F 
 2334 02dd 000000   		.align	2
 2335              	.LC41:
 2336 02e0 5B25735D 		.ascii	"[%s][%u][%s:%d] en_oc_coap_err_ok\015\012\000"
 2336      5B25755D 
 2336      5B25733A 
 2336      25645D20 
 2336      656E5F6F 
 2337              		.align	2
 2338              	.LC42:
 2339 0304 5B25735D 		.ascii	"[%s][%u][%s:%d] en_oc_coap_err_network\015\012\000"
 2339      5B25755D 
 2339      5B25733A 
 2339      25645D20 
ARM GAS  /tmp/ccRaplPO.s 			page 54


 2339      656E5F6F 
 2340              		.section	.text.boudica120_oc_config,"ax",%progbits
 2341              		.align	1
 2342              		.syntax unified
 2343              		.thumb
 2344              		.thumb_func
 2345              		.fpu fpv4-sp-d16
 2347              	boudica120_oc_config:
 2348              	.LFB23:
 597:/home/fanxinhao/Work/LiteOS_Lab_2/iot_link/oc/oc_coap/boudica120_oc/boudica120_oc.c **** 
 598:/home/fanxinhao/Work/LiteOS_Lab_2/iot_link/oc/oc_coap/boudica120_oc/boudica120_oc.c **** 
 599:/home/fanxinhao/Work/LiteOS_Lab_2/iot_link/oc/oc_coap/boudica120_oc/boudica120_oc.c **** static int* boudica120_oc_config(oc_config_param_t *param)
 600:/home/fanxinhao/Work/LiteOS_Lab_2/iot_link/oc/oc_coap/boudica120_oc/boudica120_oc.c **** {
 2349              		.loc 1 600 1
 2350              		.cfi_startproc
 2351              		@ args = 0, pretend = 0, frame = 16
 2352              		@ frame_needed = 1, uses_anonymous_args = 0
 2353 0000 B0B5     		push	{r4, r5, r7, lr}
 2354              	.LCFI98:
 2355              		.cfi_def_cfa_offset 16
 2356              		.cfi_offset 4, -16
 2357              		.cfi_offset 5, -12
 2358              		.cfi_offset 7, -8
 2359              		.cfi_offset 14, -4
 2360 0002 86B0     		sub	sp, sp, #24
 2361              	.LCFI99:
 2362              		.cfi_def_cfa_offset 40
 2363 0004 02AF     		add	r7, sp, #8
 2364              	.LCFI100:
 2365              		.cfi_def_cfa 7, 32
 2366 0006 7860     		str	r0, [r7, #4]
 601:/home/fanxinhao/Work/LiteOS_Lab_2/iot_link/oc/oc_coap/boudica120_oc/boudica120_oc.c ****     int ret = en_oc_coap_err_configured;
 2367              		.loc 1 601 9
 2368 0008 0523     		movs	r3, #5
 2369 000a FB60     		str	r3, [r7, #12]
 602:/home/fanxinhao/Work/LiteOS_Lab_2/iot_link/oc/oc_coap/boudica120_oc/boudica120_oc.c **** 
 603:/home/fanxinhao/Work/LiteOS_Lab_2/iot_link/oc/oc_coap/boudica120_oc/boudica120_oc.c ****     if(NULL == param)
 2370              		.loc 1 603 7
 2371 000c 7B68     		ldr	r3, [r7, #4]
 2372 000e 002B     		cmp	r3, #0
 2373 0010 18D1     		bne	.L142
 604:/home/fanxinhao/Work/LiteOS_Lab_2/iot_link/oc/oc_coap/boudica120_oc/boudica120_oc.c ****     {
 605:/home/fanxinhao/Work/LiteOS_Lab_2/iot_link/oc/oc_coap/boudica120_oc/boudica120_oc.c ****         ret = en_oc_coap_err_parafmt;
 2374              		.loc 1 605 13
 2375 0012 0123     		movs	r3, #1
 2376 0014 FB60     		str	r3, [r7, #12]
 606:/home/fanxinhao/Work/LiteOS_Lab_2/iot_link/oc/oc_coap/boudica120_oc/boudica120_oc.c **** 		LINK_LOG_DEBUG("en_oc_coap_err_parafmt");
 2377              		.loc 1 606 3
 2378 0016 FFF7FEFF 		bl	link_log_level_get
 2379 001a 0346     		mov	r3, r0
 2380 001c 012B     		cmp	r3, #1
 2381 001e 0FD8     		bhi	.L143
 2382              		.loc 1 606 3 is_stmt 0 discriminator 1
 2383 0020 0120     		movs	r0, #1
 2384 0022 FFF7FEFF 		bl	link_log_level_name
 2385 0026 0446     		mov	r4, r0
 2386 0028 FFF7FEFF 		bl	osal_sys_time
ARM GAS  /tmp/ccRaplPO.s 			page 55


 2387 002c 0246     		mov	r2, r0
 2388 002e 0B46     		mov	r3, r1
 2389 0030 40F25E23 		movw	r3, #606
 2390 0034 0093     		str	r3, [sp]
 2391 0036 314B     		ldr	r3, .L148
 2392 0038 2146     		mov	r1, r4
 2393 003a 3148     		ldr	r0, .L148+4
 2394 003c FFF7FEFF 		bl	printf
 2395              	.L143:
 607:/home/fanxinhao/Work/LiteOS_Lab_2/iot_link/oc/oc_coap/boudica120_oc/boudica120_oc.c ****         return NULL;
 2396              		.loc 1 607 16 is_stmt 1
 2397 0040 0023     		movs	r3, #0
 2398 0042 57E0     		b	.L144
 2399              	.L142:
 608:/home/fanxinhao/Work/LiteOS_Lab_2/iot_link/oc/oc_coap/boudica120_oc/boudica120_oc.c ****     }
 609:/home/fanxinhao/Work/LiteOS_Lab_2/iot_link/oc/oc_coap/boudica120_oc/boudica120_oc.c **** 
 610:/home/fanxinhao/Work/LiteOS_Lab_2/iot_link/oc/oc_coap/boudica120_oc/boudica120_oc.c ****     if(NULL == s_oc_handle)
 2400              		.loc 1 610 13
 2401 0044 2F4B     		ldr	r3, .L148+8
 2402 0046 1B68     		ldr	r3, [r3]
 2403              		.loc 1 610 7
 2404 0048 002B     		cmp	r3, #0
 2405 004a 51D1     		bne	.L145
 611:/home/fanxinhao/Work/LiteOS_Lab_2/iot_link/oc/oc_coap/boudica120_oc/boudica120_oc.c ****     {
 612:/home/fanxinhao/Work/LiteOS_Lab_2/iot_link/oc/oc_coap/boudica120_oc/boudica120_oc.c ****         s_boudica120_oc_cb.oc_param = *param;
 2406              		.loc 1 612 37
 2407 004c 2E4B     		ldr	r3, .L148+12
 2408 004e 7A68     		ldr	r2, [r7, #4]
 2409 0050 03F10C04 		add	r4, r3, #12
 2410 0054 1546     		mov	r5, r2
 2411 0056 0FCD     		ldmia	r5!, {r0, r1, r2, r3}
 2412 0058 0FC4     		stmia	r4!, {r0, r1, r2, r3}
 2413 005a 0FCD     		ldmia	r5!, {r0, r1, r2, r3}
 2414 005c 0FC4     		stmia	r4!, {r0, r1, r2, r3}
 2415 005e 0FCD     		ldmia	r5!, {r0, r1, r2, r3}
 2416 0060 0FC4     		stmia	r4!, {r0, r1, r2, r3}
 2417 0062 95E80700 		ldm	r5, {r0, r1, r2}
 2418 0066 84E80700 		stm	r4, {r0, r1, r2}
 613:/home/fanxinhao/Work/LiteOS_Lab_2/iot_link/oc/oc_coap/boudica120_oc/boudica120_oc.c **** 
 614:/home/fanxinhao/Work/LiteOS_Lab_2/iot_link/oc/oc_coap/boudica120_oc/boudica120_oc.c ****         if(boudica120_boot(s_boudica120_oc_cb.plmn,s_boudica120_oc_cb.apn,s_boudica120_oc_cb.bands,
 2419              		.loc 1 614 12
 2420 006a 274B     		ldr	r3, .L148+12
 2421 006c 1868     		ldr	r0, [r3]
 2422 006e 264B     		ldr	r3, .L148+12
 2423 0070 5968     		ldr	r1, [r3, #4]
 2424 0072 254B     		ldr	r3, .L148+12
 2425 0074 9A68     		ldr	r2, [r3, #8]
 615:/home/fanxinhao/Work/LiteOS_Lab_2/iot_link/oc/oc_coap/boudica120_oc/boudica120_oc.c ****                 s_boudica120_oc_cb.oc_param.app_server.address,s_boudica120_oc_cb.oc_param.app_serv
 2426              		.loc 1 615 55
 2427 0076 244B     		ldr	r3, .L148+12
 2428 0078 DC6A     		ldr	r4, [r3, #44]
 2429              		.loc 1 615 102
 2430 007a 234B     		ldr	r3, .L148+12
 2431 007c 1B6B     		ldr	r3, [r3, #48]
 614:/home/fanxinhao/Work/LiteOS_Lab_2/iot_link/oc/oc_coap/boudica120_oc/boudica120_oc.c ****                 s_boudica120_oc_cb.oc_param.app_server.address,s_boudica120_oc_cb.oc_param.app_serv
 2432              		.loc 1 614 12
 2433 007e 0093     		str	r3, [sp]
ARM GAS  /tmp/ccRaplPO.s 			page 56


 2434 0080 2346     		mov	r3, r4
 2435 0082 FFF7FEFF 		bl	boudica120_boot
 2436 0086 0346     		mov	r3, r0
 614:/home/fanxinhao/Work/LiteOS_Lab_2/iot_link/oc/oc_coap/boudica120_oc/boudica120_oc.c ****                 s_boudica120_oc_cb.oc_param.app_server.address,s_boudica120_oc_cb.oc_param.app_serv
 2437              		.loc 1 614 11
 2438 0088 002B     		cmp	r3, #0
 2439 008a 1AD0     		beq	.L146
 616:/home/fanxinhao/Work/LiteOS_Lab_2/iot_link/oc/oc_coap/boudica120_oc/boudica120_oc.c ****         {
 617:/home/fanxinhao/Work/LiteOS_Lab_2/iot_link/oc/oc_coap/boudica120_oc/boudica120_oc.c ****             s_oc_handle = &s_boudica120_oc_cb;
 2440              		.loc 1 617 25
 2441 008c 1D4B     		ldr	r3, .L148+8
 2442 008e 1E4A     		ldr	r2, .L148+12
 2443 0090 1A60     		str	r2, [r3]
 618:/home/fanxinhao/Work/LiteOS_Lab_2/iot_link/oc/oc_coap/boudica120_oc/boudica120_oc.c ****             ret = en_oc_coap_err_ok;
 2444              		.loc 1 618 17
 2445 0092 0023     		movs	r3, #0
 2446 0094 FB60     		str	r3, [r7, #12]
 619:/home/fanxinhao/Work/LiteOS_Lab_2/iot_link/oc/oc_coap/boudica120_oc/boudica120_oc.c **** 			LINK_LOG_DEBUG("en_oc_coap_err_ok");
 2447              		.loc 1 619 4
 2448 0096 FFF7FEFF 		bl	link_log_level_get
 2449 009a 0346     		mov	r3, r0
 2450 009c 012B     		cmp	r3, #1
 2451 009e 27D8     		bhi	.L145
 2452              		.loc 1 619 4 is_stmt 0 discriminator 1
 2453 00a0 0120     		movs	r0, #1
 2454 00a2 FFF7FEFF 		bl	link_log_level_name
 2455 00a6 0446     		mov	r4, r0
 2456 00a8 FFF7FEFF 		bl	osal_sys_time
 2457 00ac 0246     		mov	r2, r0
 2458 00ae 0B46     		mov	r3, r1
 2459 00b0 40F26B23 		movw	r3, #619
 2460 00b4 0093     		str	r3, [sp]
 2461 00b6 114B     		ldr	r3, .L148
 2462 00b8 2146     		mov	r1, r4
 2463 00ba 1448     		ldr	r0, .L148+16
 2464 00bc FFF7FEFF 		bl	printf
 2465 00c0 16E0     		b	.L145
 2466              	.L146:
 620:/home/fanxinhao/Work/LiteOS_Lab_2/iot_link/oc/oc_coap/boudica120_oc/boudica120_oc.c ****         }
 621:/home/fanxinhao/Work/LiteOS_Lab_2/iot_link/oc/oc_coap/boudica120_oc/boudica120_oc.c ****         else
 622:/home/fanxinhao/Work/LiteOS_Lab_2/iot_link/oc/oc_coap/boudica120_oc/boudica120_oc.c ****         {
 623:/home/fanxinhao/Work/LiteOS_Lab_2/iot_link/oc/oc_coap/boudica120_oc/boudica120_oc.c **** 			LINK_LOG_DEBUG("en_oc_coap_err_network");
 2467              		.loc 1 623 4 is_stmt 1
 2468 00c2 FFF7FEFF 		bl	link_log_level_get
 2469 00c6 0346     		mov	r3, r0
 2470 00c8 012B     		cmp	r3, #1
 2471 00ca 0FD8     		bhi	.L147
 2472              		.loc 1 623 4 is_stmt 0 discriminator 1
 2473 00cc 0120     		movs	r0, #1
 2474 00ce FFF7FEFF 		bl	link_log_level_name
 2475 00d2 0446     		mov	r4, r0
 2476 00d4 FFF7FEFF 		bl	osal_sys_time
 2477 00d8 0246     		mov	r2, r0
 2478 00da 0B46     		mov	r3, r1
 2479 00dc 40F26F23 		movw	r3, #623
 2480 00e0 0093     		str	r3, [sp]
 2481 00e2 064B     		ldr	r3, .L148
ARM GAS  /tmp/ccRaplPO.s 			page 57


 2482 00e4 2146     		mov	r1, r4
 2483 00e6 0A48     		ldr	r0, .L148+20
 2484 00e8 FFF7FEFF 		bl	printf
 2485              	.L147:
 624:/home/fanxinhao/Work/LiteOS_Lab_2/iot_link/oc/oc_coap/boudica120_oc/boudica120_oc.c ****             return NULL;
 2486              		.loc 1 624 20 is_stmt 1
 2487 00ec 0023     		movs	r3, #0
 2488 00ee 01E0     		b	.L144
 2489              	.L145:
 625:/home/fanxinhao/Work/LiteOS_Lab_2/iot_link/oc/oc_coap/boudica120_oc/boudica120_oc.c ****         }
 626:/home/fanxinhao/Work/LiteOS_Lab_2/iot_link/oc/oc_coap/boudica120_oc/boudica120_oc.c ****     }
 627:/home/fanxinhao/Work/LiteOS_Lab_2/iot_link/oc/oc_coap/boudica120_oc/boudica120_oc.c **** 
 628:/home/fanxinhao/Work/LiteOS_Lab_2/iot_link/oc/oc_coap/boudica120_oc/boudica120_oc.c ****     return s_oc_handle;
 2490              		.loc 1 628 12
 2491 00f0 044B     		ldr	r3, .L148+8
 2492 00f2 1B68     		ldr	r3, [r3]
 2493              	.L144:
 629:/home/fanxinhao/Work/LiteOS_Lab_2/iot_link/oc/oc_coap/boudica120_oc/boudica120_oc.c **** }
 2494              		.loc 1 629 1
 2495 00f4 1846     		mov	r0, r3
 2496 00f6 1037     		adds	r7, r7, #16
 2497              	.LCFI101:
 2498              		.cfi_def_cfa_offset 16
 2499 00f8 BD46     		mov	sp, r7
 2500              	.LCFI102:
 2501              		.cfi_def_cfa_register 13
 2502              		@ sp needed
 2503 00fa B0BD     		pop	{r4, r5, r7, pc}
 2504              	.L149:
 2505              		.align	2
 2506              	.L148:
 2507 00fc 00000000 		.word	__FUNCTION__.7173
 2508 0100 B4020000 		.word	.LC40
 2509 0104 00000000 		.word	s_oc_handle
 2510 0108 00000000 		.word	s_boudica120_oc_cb
 2511 010c E0020000 		.word	.LC41
 2512 0110 04030000 		.word	.LC42
 2513              		.cfi_endproc
 2514              	.LFE23:
 2516              		.section	.text.boudica120_oc_deconfig,"ax",%progbits
 2517              		.align	1
 2518              		.syntax unified
 2519              		.thumb
 2520              		.thumb_func
 2521              		.fpu fpv4-sp-d16
 2523              	boudica120_oc_deconfig:
 2524              	.LFB24:
 630:/home/fanxinhao/Work/LiteOS_Lab_2/iot_link/oc/oc_coap/boudica120_oc/boudica120_oc.c **** 
 631:/home/fanxinhao/Work/LiteOS_Lab_2/iot_link/oc/oc_coap/boudica120_oc/boudica120_oc.c **** static int boudica120_oc_deconfig(void *handle)
 632:/home/fanxinhao/Work/LiteOS_Lab_2/iot_link/oc/oc_coap/boudica120_oc/boudica120_oc.c **** {
 2525              		.loc 1 632 1
 2526              		.cfi_startproc
 2527              		@ args = 0, pretend = 0, frame = 16
 2528              		@ frame_needed = 1, uses_anonymous_args = 0
 2529              		@ link register save eliminated.
 2530 0000 80B4     		push	{r7}
 2531              	.LCFI103:
ARM GAS  /tmp/ccRaplPO.s 			page 58


 2532              		.cfi_def_cfa_offset 4
 2533              		.cfi_offset 7, -4
 2534 0002 85B0     		sub	sp, sp, #20
 2535              	.LCFI104:
 2536              		.cfi_def_cfa_offset 24
 2537 0004 00AF     		add	r7, sp, #0
 2538              	.LCFI105:
 2539              		.cfi_def_cfa_register 7
 2540 0006 7860     		str	r0, [r7, #4]
 633:/home/fanxinhao/Work/LiteOS_Lab_2/iot_link/oc/oc_coap/boudica120_oc/boudica120_oc.c ****     int ret = en_oc_coap_err_noconfigured;
 2541              		.loc 1 633 9
 2542 0008 0423     		movs	r3, #4
 2543 000a FB60     		str	r3, [r7, #12]
 634:/home/fanxinhao/Work/LiteOS_Lab_2/iot_link/oc/oc_coap/boudica120_oc/boudica120_oc.c **** 
 635:/home/fanxinhao/Work/LiteOS_Lab_2/iot_link/oc/oc_coap/boudica120_oc/boudica120_oc.c ****     if(NULL != handle)
 2544              		.loc 1 635 7
 2545 000c 7B68     		ldr	r3, [r7, #4]
 2546 000e 002B     		cmp	r3, #0
 2547 0010 03D0     		beq	.L151
 636:/home/fanxinhao/Work/LiteOS_Lab_2/iot_link/oc/oc_coap/boudica120_oc/boudica120_oc.c ****     {
 637:/home/fanxinhao/Work/LiteOS_Lab_2/iot_link/oc/oc_coap/boudica120_oc/boudica120_oc.c ****         handle = NULL;
 2548              		.loc 1 637 16
 2549 0012 0023     		movs	r3, #0
 2550 0014 7B60     		str	r3, [r7, #4]
 638:/home/fanxinhao/Work/LiteOS_Lab_2/iot_link/oc/oc_coap/boudica120_oc/boudica120_oc.c ****         ret = en_oc_coap_err_ok;
 2551              		.loc 1 638 13
 2552 0016 0023     		movs	r3, #0
 2553 0018 FB60     		str	r3, [r7, #12]
 2554              	.L151:
 639:/home/fanxinhao/Work/LiteOS_Lab_2/iot_link/oc/oc_coap/boudica120_oc/boudica120_oc.c ****     }
 640:/home/fanxinhao/Work/LiteOS_Lab_2/iot_link/oc/oc_coap/boudica120_oc/boudica120_oc.c ****     return ret;
 2555              		.loc 1 640 12
 2556 001a FB68     		ldr	r3, [r7, #12]
 641:/home/fanxinhao/Work/LiteOS_Lab_2/iot_link/oc/oc_coap/boudica120_oc/boudica120_oc.c **** }
 2557              		.loc 1 641 1
 2558 001c 1846     		mov	r0, r3
 2559 001e 1437     		adds	r7, r7, #20
 2560              	.LCFI106:
 2561              		.cfi_def_cfa_offset 4
 2562 0020 BD46     		mov	sp, r7
 2563              	.LCFI107:
 2564              		.cfi_def_cfa_register 13
 2565              		@ sp needed
 2566 0022 5DF8047B 		ldr	r7, [sp], #4
 2567              	.LCFI108:
 2568              		.cfi_restore 7
 2569              		.cfi_def_cfa_offset 0
 2570 0026 7047     		bx	lr
 2571              		.cfi_endproc
 2572              	.LFE24:
 2574              		.section	.rodata
 2575 032d 000000   		.align	2
 2576              	.LC43:
 2577 0330 41542B43 		.ascii	"AT+CSQ\015\000"
 2577      53510D00 
 2578              		.align	2
 2579              	.LC44:
ARM GAS  /tmp/ccRaplPO.s 			page 59


 2580 0338 2B435351 		.ascii	"+CSQ:\000"
 2580      3A00
 2581              		.section	.text.boudica120_get_csq,"ax",%progbits
 2582              		.align	1
 2583              		.global	boudica120_get_csq
 2584              		.syntax unified
 2585              		.thumb
 2586              		.thumb_func
 2587              		.fpu fpv4-sp-d16
 2589              	boudica120_get_csq:
 2590              	.LFB25:
 642:/home/fanxinhao/Work/LiteOS_Lab_2/iot_link/oc/oc_coap/boudica120_oc/boudica120_oc.c **** 
 643:/home/fanxinhao/Work/LiteOS_Lab_2/iot_link/oc/oc_coap/boudica120_oc/boudica120_oc.c **** 
 644:/home/fanxinhao/Work/LiteOS_Lab_2/iot_link/oc/oc_coap/boudica120_oc/boudica120_oc.c **** //this function to get the csq
 645:/home/fanxinhao/Work/LiteOS_Lab_2/iot_link/oc/oc_coap/boudica120_oc/boudica120_oc.c **** int boudica120_get_csq(int *value)
 646:/home/fanxinhao/Work/LiteOS_Lab_2/iot_link/oc/oc_coap/boudica120_oc/boudica120_oc.c **** {
 2591              		.loc 1 646 1
 2592              		.cfi_startproc
 2593              		@ args = 0, pretend = 0, frame = 152
 2594              		@ frame_needed = 1, uses_anonymous_args = 0
 2595 0000 80B5     		push	{r7, lr}
 2596              	.LCFI109:
 2597              		.cfi_def_cfa_offset 8
 2598              		.cfi_offset 7, -8
 2599              		.cfi_offset 14, -4
 2600 0002 A6B0     		sub	sp, sp, #152
 2601              	.LCFI110:
 2602              		.cfi_def_cfa_offset 160
 2603 0004 00AF     		add	r7, sp, #0
 2604              	.LCFI111:
 2605              		.cfi_def_cfa_register 7
 2606 0006 7860     		str	r0, [r7, #4]
 647:/home/fanxinhao/Work/LiteOS_Lab_2/iot_link/oc/oc_coap/boudica120_oc/boudica120_oc.c ****     char cmd[64];
 648:/home/fanxinhao/Work/LiteOS_Lab_2/iot_link/oc/oc_coap/boudica120_oc/boudica120_oc.c ****     char resp[64];
 649:/home/fanxinhao/Work/LiteOS_Lab_2/iot_link/oc/oc_coap/boudica120_oc/boudica120_oc.c ****     const char *index = "OK";
 2607              		.loc 1 649 17
 2608 0008 384B     		ldr	r3, .L161
 2609 000a C7F88830 		str	r3, [r7, #136]
 650:/home/fanxinhao/Work/LiteOS_Lab_2/iot_link/oc/oc_coap/boudica120_oc/boudica120_oc.c ****     const char *str;
 651:/home/fanxinhao/Work/LiteOS_Lab_2/iot_link/oc/oc_coap/boudica120_oc/boudica120_oc.c ****     int csq = 0;
 2610              		.loc 1 651 9
 2611 000e 0023     		movs	r3, #0
 2612 0010 C7F89030 		str	r3, [r7, #144]
 652:/home/fanxinhao/Work/LiteOS_Lab_2/iot_link/oc/oc_coap/boudica120_oc/boudica120_oc.c ****     int ret = -1;
 2613              		.loc 1 652 9
 2614 0014 4FF0FF33 		mov	r3, #-1
 2615 0018 C7F88C30 		str	r3, [r7, #140]
 653:/home/fanxinhao/Work/LiteOS_Lab_2/iot_link/oc/oc_coap/boudica120_oc/boudica120_oc.c **** 
 654:/home/fanxinhao/Work/LiteOS_Lab_2/iot_link/oc/oc_coap/boudica120_oc/boudica120_oc.c ****     if(NULL == value)
 2616              		.loc 1 654 7
 2617 001c 7B68     		ldr	r3, [r7, #4]
 2618 001e 002B     		cmp	r3, #0
 2619 0020 02D1     		bne	.L154
 655:/home/fanxinhao/Work/LiteOS_Lab_2/iot_link/oc/oc_coap/boudica120_oc/boudica120_oc.c ****     {
 656:/home/fanxinhao/Work/LiteOS_Lab_2/iot_link/oc/oc_coap/boudica120_oc/boudica120_oc.c ****         return ret;
 2620              		.loc 1 656 16
 2621 0022 D7F88C30 		ldr	r3, [r7, #140]
ARM GAS  /tmp/ccRaplPO.s 			page 60


 2622 0026 5CE0     		b	.L160
 2623              	.L154:
 657:/home/fanxinhao/Work/LiteOS_Lab_2/iot_link/oc/oc_coap/boudica120_oc/boudica120_oc.c ****     }
 658:/home/fanxinhao/Work/LiteOS_Lab_2/iot_link/oc/oc_coap/boudica120_oc/boudica120_oc.c **** 
 659:/home/fanxinhao/Work/LiteOS_Lab_2/iot_link/oc/oc_coap/boudica120_oc/boudica120_oc.c ****     (void) memset(cmd,0,64);
 2624              		.loc 1 659 12
 2625 0028 07F14803 		add	r3, r7, #72
 2626 002c 4022     		movs	r2, #64
 2627 002e 0021     		movs	r1, #0
 2628 0030 1846     		mov	r0, r3
 2629 0032 FFF7FEFF 		bl	memset
 660:/home/fanxinhao/Work/LiteOS_Lab_2/iot_link/oc/oc_coap/boudica120_oc/boudica120_oc.c ****     (void) memset(resp,0,64);
 2630              		.loc 1 660 12
 2631 0036 07F10803 		add	r3, r7, #8
 2632 003a 4022     		movs	r2, #64
 2633 003c 0021     		movs	r1, #0
 2634 003e 1846     		mov	r0, r3
 2635 0040 FFF7FEFF 		bl	memset
 661:/home/fanxinhao/Work/LiteOS_Lab_2/iot_link/oc/oc_coap/boudica120_oc/boudica120_oc.c ****     (void) snprintf(cmd,64,"AT+CSQ\r");
 2636              		.loc 1 661 12
 2637 0044 07F14803 		add	r3, r7, #72
 2638 0048 294A     		ldr	r2, .L161+4
 2639 004a 4021     		movs	r1, #64
 2640 004c 1846     		mov	r0, r3
 2641 004e FFF7FEFF 		bl	snprintf
 662:/home/fanxinhao/Work/LiteOS_Lab_2/iot_link/oc/oc_coap/boudica120_oc/boudica120_oc.c ****     if(boudica120_atcmd_response(cmd,index,resp,64))
 2642              		.loc 1 662 8
 2643 0052 07F10802 		add	r2, r7, #8
 2644 0056 07F14800 		add	r0, r7, #72
 2645 005a 4023     		movs	r3, #64
 2646 005c D7F88810 		ldr	r1, [r7, #136]
 2647 0060 FFF7FEFF 		bl	boudica120_atcmd_response
 2648 0064 0346     		mov	r3, r0
 2649              		.loc 1 662 7
 2650 0066 002B     		cmp	r3, #0
 2651 0068 39D0     		beq	.L156
 663:/home/fanxinhao/Work/LiteOS_Lab_2/iot_link/oc/oc_coap/boudica120_oc/boudica120_oc.c ****     {
 664:/home/fanxinhao/Work/LiteOS_Lab_2/iot_link/oc/oc_coap/boudica120_oc/boudica120_oc.c ****         str = strstr((char *)resp,"+CSQ:");
 2652              		.loc 1 664 15
 2653 006a 07F10803 		add	r3, r7, #8
 2654 006e 2149     		ldr	r1, .L161+8
 2655 0070 1846     		mov	r0, r3
 2656 0072 FFF7FEFF 		bl	strstr
 2657 0076 C7F89400 		str	r0, [r7, #148]
 665:/home/fanxinhao/Work/LiteOS_Lab_2/iot_link/oc/oc_coap/boudica120_oc/boudica120_oc.c ****         if(NULL != str)
 2658              		.loc 1 665 11
 2659 007a D7F89430 		ldr	r3, [r7, #148]
 2660 007e 002B     		cmp	r3, #0
 2661 0080 2DD0     		beq	.L156
 666:/home/fanxinhao/Work/LiteOS_Lab_2/iot_link/oc/oc_coap/boudica120_oc/boudica120_oc.c ****         {
 667:/home/fanxinhao/Work/LiteOS_Lab_2/iot_link/oc/oc_coap/boudica120_oc/boudica120_oc.c ****             str += strlen("+CSQ:");
 2662              		.loc 1 667 17
 2663 0082 D7F89430 		ldr	r3, [r7, #148]
 2664 0086 0533     		adds	r3, r3, #5
 2665 0088 C7F89430 		str	r3, [r7, #148]
 668:/home/fanxinhao/Work/LiteOS_Lab_2/iot_link/oc/oc_coap/boudica120_oc/boudica120_oc.c ****             for (; *str <= '9' && *str >= '0' ;str++)
 2666              		.loc 1 668 13
ARM GAS  /tmp/ccRaplPO.s 			page 61


 2667 008c 12E0     		b	.L157
 2668              	.L159:
 669:/home/fanxinhao/Work/LiteOS_Lab_2/iot_link/oc/oc_coap/boudica120_oc/boudica120_oc.c ****             {
 670:/home/fanxinhao/Work/LiteOS_Lab_2/iot_link/oc/oc_coap/boudica120_oc/boudica120_oc.c ****                 csq = (csq * 10 + (*str - '0'));
 2669              		.loc 1 670 28 discriminator 3
 2670 008e D7F89020 		ldr	r2, [r7, #144]
 2671 0092 1346     		mov	r3, r2
 2672 0094 9B00     		lsls	r3, r3, #2
 2673 0096 1344     		add	r3, r3, r2
 2674 0098 5B00     		lsls	r3, r3, #1
 2675 009a 1A46     		mov	r2, r3
 2676              		.loc 1 670 36 discriminator 3
 2677 009c D7F89430 		ldr	r3, [r7, #148]
 2678 00a0 1B78     		ldrb	r3, [r3]	@ zero_extendqisi2
 2679              		.loc 1 670 41 discriminator 3
 2680 00a2 303B     		subs	r3, r3, #48
 2681              		.loc 1 670 21 discriminator 3
 2682 00a4 1344     		add	r3, r3, r2
 2683 00a6 C7F89030 		str	r3, [r7, #144]
 668:/home/fanxinhao/Work/LiteOS_Lab_2/iot_link/oc/oc_coap/boudica120_oc/boudica120_oc.c ****             for (; *str <= '9' && *str >= '0' ;str++)
 2684              		.loc 1 668 51 discriminator 3
 2685 00aa D7F89430 		ldr	r3, [r7, #148]
 2686 00ae 0133     		adds	r3, r3, #1
 2687 00b0 C7F89430 		str	r3, [r7, #148]
 2688              	.L157:
 668:/home/fanxinhao/Work/LiteOS_Lab_2/iot_link/oc/oc_coap/boudica120_oc/boudica120_oc.c ****             for (; *str <= '9' && *str >= '0' ;str++)
 2689              		.loc 1 668 20 discriminator 1
 2690 00b4 D7F89430 		ldr	r3, [r7, #148]
 2691 00b8 1B78     		ldrb	r3, [r3]	@ zero_extendqisi2
 668:/home/fanxinhao/Work/LiteOS_Lab_2/iot_link/oc/oc_coap/boudica120_oc/boudica120_oc.c ****             for (; *str <= '9' && *str >= '0' ;str++)
 2692              		.loc 1 668 13 discriminator 1
 2693 00ba 392B     		cmp	r3, #57
 2694 00bc 04D8     		bhi	.L158
 668:/home/fanxinhao/Work/LiteOS_Lab_2/iot_link/oc/oc_coap/boudica120_oc/boudica120_oc.c ****             for (; *str <= '9' && *str >= '0' ;str++)
 2695              		.loc 1 668 35 discriminator 2
 2696 00be D7F89430 		ldr	r3, [r7, #148]
 2697 00c2 1B78     		ldrb	r3, [r3]	@ zero_extendqisi2
 668:/home/fanxinhao/Work/LiteOS_Lab_2/iot_link/oc/oc_coap/boudica120_oc/boudica120_oc.c ****             for (; *str <= '9' && *str >= '0' ;str++)
 2698              		.loc 1 668 32 discriminator 2
 2699 00c4 2F2B     		cmp	r3, #47
 2700 00c6 E2D8     		bhi	.L159
 2701              	.L158:
 671:/home/fanxinhao/Work/LiteOS_Lab_2/iot_link/oc/oc_coap/boudica120_oc/boudica120_oc.c ****             }
 672:/home/fanxinhao/Work/LiteOS_Lab_2/iot_link/oc/oc_coap/boudica120_oc/boudica120_oc.c ****             if(csq != 99) //99 is invalid
 2702              		.loc 1 672 15
 2703 00c8 D7F89030 		ldr	r3, [r7, #144]
 2704 00cc 632B     		cmp	r3, #99
 2705 00ce 06D0     		beq	.L156
 673:/home/fanxinhao/Work/LiteOS_Lab_2/iot_link/oc/oc_coap/boudica120_oc/boudica120_oc.c ****             {
 674:/home/fanxinhao/Work/LiteOS_Lab_2/iot_link/oc/oc_coap/boudica120_oc/boudica120_oc.c ****                 *value = csq;
 2706              		.loc 1 674 24
 2707 00d0 7B68     		ldr	r3, [r7, #4]
 2708 00d2 D7F89020 		ldr	r2, [r7, #144]
 2709 00d6 1A60     		str	r2, [r3]
 675:/home/fanxinhao/Work/LiteOS_Lab_2/iot_link/oc/oc_coap/boudica120_oc/boudica120_oc.c ****                 ret = 0;
 2710              		.loc 1 675 21
 2711 00d8 0023     		movs	r3, #0
ARM GAS  /tmp/ccRaplPO.s 			page 62


 2712 00da C7F88C30 		str	r3, [r7, #140]
 2713              	.L156:
 676:/home/fanxinhao/Work/LiteOS_Lab_2/iot_link/oc/oc_coap/boudica120_oc/boudica120_oc.c ****             }
 677:/home/fanxinhao/Work/LiteOS_Lab_2/iot_link/oc/oc_coap/boudica120_oc/boudica120_oc.c ****         }
 678:/home/fanxinhao/Work/LiteOS_Lab_2/iot_link/oc/oc_coap/boudica120_oc/boudica120_oc.c ****     }
 679:/home/fanxinhao/Work/LiteOS_Lab_2/iot_link/oc/oc_coap/boudica120_oc/boudica120_oc.c ****     return ret;
 2714              		.loc 1 679 12
 2715 00de D7F88C30 		ldr	r3, [r7, #140]
 2716              	.L160:
 680:/home/fanxinhao/Work/LiteOS_Lab_2/iot_link/oc/oc_coap/boudica120_oc/boudica120_oc.c **** }
 2717              		.loc 1 680 1 discriminator 1
 2718 00e2 1846     		mov	r0, r3
 2719 00e4 9837     		adds	r7, r7, #152
 2720              	.LCFI112:
 2721              		.cfi_def_cfa_offset 8
 2722 00e6 BD46     		mov	sp, r7
 2723              	.LCFI113:
 2724              		.cfi_def_cfa_register 13
 2725              		@ sp needed
 2726 00e8 80BD     		pop	{r7, pc}
 2727              	.L162:
 2728 00ea 00BF     		.align	2
 2729              	.L161:
 2730 00ec 14000000 		.word	.LC2
 2731 00f0 30030000 		.word	.LC43
 2732 00f4 38030000 		.word	.LC44
 2733              		.cfi_endproc
 2734              	.LFE25:
 2736              		.section	.rodata
 2737 033e 0000     		.align	2
 2738              	.LC45:
 2739 0340 41542B4E 		.ascii	"AT+NUESTATS=CELL\015\000"
 2739      55455354 
 2739      4154533D 
 2739      43454C4C 
 2739      0D00
 2740 0352 0000     		.align	2
 2741              	.LC46:
 2742 0354 4E554553 		.ascii	"NUESTATS:\000"
 2742      54415453 
 2742      3A00
 2743 035e 0000     		.align	2
 2744              	.LC47:
 2745 0360 4E554553 		.ascii	"NUESTATS:CELL,%d,%d,%d,%d,%d,%d,%d\000"
 2745      54415453 
 2745      3A43454C 
 2745      4C2C2564 
 2745      2C25642C 
 2746 0383 00       		.align	2
 2747              	.LC48:
 2748 0384 41542B4E 		.ascii	"AT+NUESTATS\015\000"
 2748      55455354 
 2748      4154530D 
 2748      00
 2749 0391 000000   		.align	2
 2750              	.LC49:
 2751 0394 45434C3A 		.ascii	"ECL:\000"
ARM GAS  /tmp/ccRaplPO.s 			page 63


 2751      00
 2752 0399 000000   		.align	2
 2753              	.LC50:
 2754 039c 45434C3A 		.ascii	"ECL:%d\000"
 2754      256400
 2755 03a3 00       		.align	2
 2756              	.LC51:
 2757 03a4 534E523A 		.ascii	"SNR:\000"
 2757      00
 2758 03a9 000000   		.align	2
 2759              	.LC52:
 2760 03ac 534E523A 		.ascii	"SNR:%d\000"
 2760      256400
 2761 03b3 00       		.align	2
 2762              	.LC53:
 2763 03b4 43656C6C 		.ascii	"Cell ID:\000"
 2763      2049443A 
 2763      00
 2764 03bd 000000   		.align	2
 2765              	.LC54:
 2766 03c0 43656C6C 		.ascii	"Cell ID:%d\000"
 2766      2049443A 
 2766      256400
 2767              		.section	.text.boudica120_check_nuestats,"ax",%progbits
 2768              		.align	1
 2769              		.global	boudica120_check_nuestats
 2770              		.syntax unified
 2771              		.thumb
 2772              		.thumb_func
 2773              		.fpu fpv4-sp-d16
 2775              	boudica120_check_nuestats:
 2776              	.LFB26:
 681:/home/fanxinhao/Work/LiteOS_Lab_2/iot_link/oc/oc_coap/boudica120_oc/boudica120_oc.c **** 
 682:/home/fanxinhao/Work/LiteOS_Lab_2/iot_link/oc/oc_coap/boudica120_oc/boudica120_oc.c **** int* boudica120_check_nuestats(void)
 683:/home/fanxinhao/Work/LiteOS_Lab_2/iot_link/oc/oc_coap/boudica120_oc/boudica120_oc.c **** {
 2777              		.loc 1 683 1
 2778              		.cfi_startproc
 2779              		@ args = 0, pretend = 0, frame = 352
 2780              		@ frame_needed = 1, uses_anonymous_args = 0
 2781 0000 80B5     		push	{r7, lr}
 2782              	.LCFI114:
 2783              		.cfi_def_cfa_offset 8
 2784              		.cfi_offset 7, -8
 2785              		.cfi_offset 14, -4
 2786 0002 DEB0     		sub	sp, sp, #376
 2787              	.LCFI115:
 2788              		.cfi_def_cfa_offset 384
 2789 0004 06AF     		add	r7, sp, #24
 2790              	.LCFI116:
 2791              		.cfi_def_cfa 7, 360
 684:/home/fanxinhao/Work/LiteOS_Lab_2/iot_link/oc/oc_coap/boudica120_oc/boudica120_oc.c ****     char cmd[64];
 685:/home/fanxinhao/Work/LiteOS_Lab_2/iot_link/oc/oc_coap/boudica120_oc/boudica120_oc.c ****     char resp[256];
 686:/home/fanxinhao/Work/LiteOS_Lab_2/iot_link/oc/oc_coap/boudica120_oc/boudica120_oc.c ****     char *str;
 687:/home/fanxinhao/Work/LiteOS_Lab_2/iot_link/oc/oc_coap/boudica120_oc/boudica120_oc.c **** 
 688:/home/fanxinhao/Work/LiteOS_Lab_2/iot_link/oc/oc_coap/boudica120_oc/boudica120_oc.c ****     (void) memset(cmd,0,64);
 2792              		.loc 1 688 12
 2793 0006 07F58E73 		add	r3, r7, #284
ARM GAS  /tmp/ccRaplPO.s 			page 64


 2794 000a 4022     		movs	r2, #64
 2795 000c 0021     		movs	r1, #0
 2796 000e 1846     		mov	r0, r3
 2797 0010 FFF7FEFF 		bl	memset
 689:/home/fanxinhao/Work/LiteOS_Lab_2/iot_link/oc/oc_coap/boudica120_oc/boudica120_oc.c ****     (void) memset(resp,0,64);
 2798              		.loc 1 689 12
 2799 0014 07F11C03 		add	r3, r7, #28
 2800 0018 4022     		movs	r2, #64
 2801 001a 0021     		movs	r1, #0
 2802 001c 1846     		mov	r0, r3
 2803 001e FFF7FEFF 		bl	memset
 690:/home/fanxinhao/Work/LiteOS_Lab_2/iot_link/oc/oc_coap/boudica120_oc/boudica120_oc.c ****     (void) snprintf(cmd,64,"AT+NUESTATS=CELL\r");
 2804              		.loc 1 690 12
 2805 0022 07F58E73 		add	r3, r7, #284
 2806 0026 4D4A     		ldr	r2, .L172
 2807 0028 4021     		movs	r1, #64
 2808 002a 1846     		mov	r0, r3
 2809 002c FFF7FEFF 		bl	snprintf
 691:/home/fanxinhao/Work/LiteOS_Lab_2/iot_link/oc/oc_coap/boudica120_oc/boudica120_oc.c **** 
 692:/home/fanxinhao/Work/LiteOS_Lab_2/iot_link/oc/oc_coap/boudica120_oc/boudica120_oc.c ****     if (boudica120_atcmd_response(cmd,"NUESTATS:",resp,256) < 0)
 2810              		.loc 1 692 9
 2811 0030 07F11C02 		add	r2, r7, #28
 2812 0034 07F58E70 		add	r0, r7, #284
 2813 0038 4FF48073 		mov	r3, #256
 2814 003c 4849     		ldr	r1, .L172+4
 2815 003e FFF7FEFF 		bl	boudica120_atcmd_response
 2816 0042 0346     		mov	r3, r0
 2817              		.loc 1 692 8
 2818 0044 002B     		cmp	r3, #0
 2819 0046 01DA     		bge	.L164
 693:/home/fanxinhao/Work/LiteOS_Lab_2/iot_link/oc/oc_coap/boudica120_oc/boudica120_oc.c ****     {
 694:/home/fanxinhao/Work/LiteOS_Lab_2/iot_link/oc/oc_coap/boudica120_oc/boudica120_oc.c ****     	return NULL;
 2820              		.loc 1 694 13
 2821 0048 0023     		movs	r3, #0
 2822 004a 82E0     		b	.L171
 2823              	.L164:
 695:/home/fanxinhao/Work/LiteOS_Lab_2/iot_link/oc/oc_coap/boudica120_oc/boudica120_oc.c ****     }
 696:/home/fanxinhao/Work/LiteOS_Lab_2/iot_link/oc/oc_coap/boudica120_oc/boudica120_oc.c ****     str = strstr(resp,"NUESTATS:");
 2824              		.loc 1 696 11
 2825 004c 07F11C03 		add	r3, r7, #28
 2826 0050 4349     		ldr	r1, .L172+4
 2827 0052 1846     		mov	r0, r3
 2828 0054 FFF7FEFF 		bl	strstr
 2829 0058 C7F85C01 		str	r0, [r7, #348]
 697:/home/fanxinhao/Work/LiteOS_Lab_2/iot_link/oc/oc_coap/boudica120_oc/boudica120_oc.c ****     if (str == NULL)
 2830              		.loc 1 697 8
 2831 005c D7F85C31 		ldr	r3, [r7, #348]
 2832 0060 002B     		cmp	r3, #0
 2833 0062 01D1     		bne	.L166
 698:/home/fanxinhao/Work/LiteOS_Lab_2/iot_link/oc/oc_coap/boudica120_oc/boudica120_oc.c ****     {
 699:/home/fanxinhao/Work/LiteOS_Lab_2/iot_link/oc/oc_coap/boudica120_oc/boudica120_oc.c ****     	return NULL;
 2834              		.loc 1 699 13
 2835 0064 0023     		movs	r3, #0
 2836 0066 74E0     		b	.L171
 2837              	.L166:
 700:/home/fanxinhao/Work/LiteOS_Lab_2/iot_link/oc/oc_coap/boudica120_oc/boudica120_oc.c ****     }
 701:/home/fanxinhao/Work/LiteOS_Lab_2/iot_link/oc/oc_coap/boudica120_oc/boudica120_oc.c ****     int earfcn, physical_cellid, primary_cell, rsrp, rsrq, rssi, snr;  //for now only rsrp is neede
ARM GAS  /tmp/ccRaplPO.s 			page 65


 702:/home/fanxinhao/Work/LiteOS_Lab_2/iot_link/oc/oc_coap/boudica120_oc/boudica120_oc.c ****     sscanf(str,"NUESTATS:CELL,%d,%d,%d,%d,%d,%d,%d",&earfcn, &physical_cellid, &primary_cell, &rsrp
 2838              		.loc 1 702 5
 2839 0068 07F11401 		add	r1, r7, #20
 2840 006c 07F11802 		add	r2, r7, #24
 2841 0070 3B46     		mov	r3, r7
 2842 0072 0493     		str	r3, [sp, #16]
 2843 0074 3B1D     		adds	r3, r7, #4
 2844 0076 0393     		str	r3, [sp, #12]
 2845 0078 07F10803 		add	r3, r7, #8
 2846 007c 0293     		str	r3, [sp, #8]
 2847 007e 07F10C03 		add	r3, r7, #12
 2848 0082 0193     		str	r3, [sp, #4]
 2849 0084 07F11003 		add	r3, r7, #16
 2850 0088 0093     		str	r3, [sp]
 2851 008a 0B46     		mov	r3, r1
 2852 008c 3549     		ldr	r1, .L172+8
 2853 008e D7F85C01 		ldr	r0, [r7, #348]
 2854 0092 FFF7FEFF 		bl	sscanf
 703:/home/fanxinhao/Work/LiteOS_Lab_2/iot_link/oc/oc_coap/boudica120_oc/boudica120_oc.c ****     wireless_stats[0] = rsrp;
 2855              		.loc 1 703 23
 2856 0096 07F10C03 		add	r3, r7, #12
 2857 009a 1B68     		ldr	r3, [r3]
 2858 009c 324A     		ldr	r2, .L172+12
 2859 009e 1360     		str	r3, [r2]
 704:/home/fanxinhao/Work/LiteOS_Lab_2/iot_link/oc/oc_coap/boudica120_oc/boudica120_oc.c **** 
 705:/home/fanxinhao/Work/LiteOS_Lab_2/iot_link/oc/oc_coap/boudica120_oc/boudica120_oc.c ****     (void) memset(cmd,0,64);
 2860              		.loc 1 705 12
 2861 00a0 07F58E73 		add	r3, r7, #284
 2862 00a4 4022     		movs	r2, #64
 2863 00a6 0021     		movs	r1, #0
 2864 00a8 1846     		mov	r0, r3
 2865 00aa FFF7FEFF 		bl	memset
 706:/home/fanxinhao/Work/LiteOS_Lab_2/iot_link/oc/oc_coap/boudica120_oc/boudica120_oc.c ****     (void) snprintf(cmd,64,"AT+NUESTATS\r");
 2866              		.loc 1 706 12
 2867 00ae 07F58E73 		add	r3, r7, #284
 2868 00b2 2E4A     		ldr	r2, .L172+16
 2869 00b4 4021     		movs	r1, #64
 2870 00b6 1846     		mov	r0, r3
 2871 00b8 FFF7FEFF 		bl	snprintf
 707:/home/fanxinhao/Work/LiteOS_Lab_2/iot_link/oc/oc_coap/boudica120_oc/boudica120_oc.c ****     if (boudica120_atcmd_response(cmd,"OK",resp,256) < 0)
 2872              		.loc 1 707 9
 2873 00bc 07F11C02 		add	r2, r7, #28
 2874 00c0 07F58E70 		add	r0, r7, #284
 2875 00c4 4FF48073 		mov	r3, #256
 2876 00c8 2949     		ldr	r1, .L172+20
 2877 00ca FFF7FEFF 		bl	boudica120_atcmd_response
 2878 00ce 0346     		mov	r3, r0
 2879              		.loc 1 707 8
 2880 00d0 002B     		cmp	r3, #0
 2881 00d2 01DA     		bge	.L167
 708:/home/fanxinhao/Work/LiteOS_Lab_2/iot_link/oc/oc_coap/boudica120_oc/boudica120_oc.c ****     {
 709:/home/fanxinhao/Work/LiteOS_Lab_2/iot_link/oc/oc_coap/boudica120_oc/boudica120_oc.c ****         return NULL;
 2882              		.loc 1 709 16
 2883 00d4 0023     		movs	r3, #0
 2884 00d6 3CE0     		b	.L171
 2885              	.L167:
 710:/home/fanxinhao/Work/LiteOS_Lab_2/iot_link/oc/oc_coap/boudica120_oc/boudica120_oc.c ****     }
ARM GAS  /tmp/ccRaplPO.s 			page 66


 711:/home/fanxinhao/Work/LiteOS_Lab_2/iot_link/oc/oc_coap/boudica120_oc/boudica120_oc.c ****     str = strstr(resp,"ECL:");
 2886              		.loc 1 711 11
 2887 00d8 07F11C03 		add	r3, r7, #28
 2888 00dc 2549     		ldr	r1, .L172+24
 2889 00de 1846     		mov	r0, r3
 2890 00e0 FFF7FEFF 		bl	strstr
 2891 00e4 C7F85C01 		str	r0, [r7, #348]
 712:/home/fanxinhao/Work/LiteOS_Lab_2/iot_link/oc/oc_coap/boudica120_oc/boudica120_oc.c ****     if (str == NULL)
 2892              		.loc 1 712 8
 2893 00e8 D7F85C31 		ldr	r3, [r7, #348]
 2894 00ec 002B     		cmp	r3, #0
 2895 00ee 01D1     		bne	.L168
 713:/home/fanxinhao/Work/LiteOS_Lab_2/iot_link/oc/oc_coap/boudica120_oc/boudica120_oc.c ****     {
 714:/home/fanxinhao/Work/LiteOS_Lab_2/iot_link/oc/oc_coap/boudica120_oc/boudica120_oc.c ****     	return NULL;
 2896              		.loc 1 714 13
 2897 00f0 0023     		movs	r3, #0
 2898 00f2 2EE0     		b	.L171
 2899              	.L168:
 715:/home/fanxinhao/Work/LiteOS_Lab_2/iot_link/oc/oc_coap/boudica120_oc/boudica120_oc.c ****     }
 716:/home/fanxinhao/Work/LiteOS_Lab_2/iot_link/oc/oc_coap/boudica120_oc/boudica120_oc.c ****     sscanf(str,"ECL:%d",&wireless_stats[1]);
 2900              		.loc 1 716 5
 2901 00f4 204A     		ldr	r2, .L172+28
 2902 00f6 2149     		ldr	r1, .L172+32
 2903 00f8 D7F85C01 		ldr	r0, [r7, #348]
 2904 00fc FFF7FEFF 		bl	sscanf
 717:/home/fanxinhao/Work/LiteOS_Lab_2/iot_link/oc/oc_coap/boudica120_oc/boudica120_oc.c **** 
 718:/home/fanxinhao/Work/LiteOS_Lab_2/iot_link/oc/oc_coap/boudica120_oc/boudica120_oc.c ****     str = strstr(resp,"SNR:");
 2905              		.loc 1 718 11
 2906 0100 07F11C03 		add	r3, r7, #28
 2907 0104 1E49     		ldr	r1, .L172+36
 2908 0106 1846     		mov	r0, r3
 2909 0108 FFF7FEFF 		bl	strstr
 2910 010c C7F85C01 		str	r0, [r7, #348]
 719:/home/fanxinhao/Work/LiteOS_Lab_2/iot_link/oc/oc_coap/boudica120_oc/boudica120_oc.c ****     if (str == NULL)
 2911              		.loc 1 719 8
 2912 0110 D7F85C31 		ldr	r3, [r7, #348]
 2913 0114 002B     		cmp	r3, #0
 2914 0116 01D1     		bne	.L169
 720:/home/fanxinhao/Work/LiteOS_Lab_2/iot_link/oc/oc_coap/boudica120_oc/boudica120_oc.c ****     {
 721:/home/fanxinhao/Work/LiteOS_Lab_2/iot_link/oc/oc_coap/boudica120_oc/boudica120_oc.c ****         return NULL;
 2915              		.loc 1 721 16
 2916 0118 0023     		movs	r3, #0
 2917 011a 1AE0     		b	.L171
 2918              	.L169:
 722:/home/fanxinhao/Work/LiteOS_Lab_2/iot_link/oc/oc_coap/boudica120_oc/boudica120_oc.c ****     }
 723:/home/fanxinhao/Work/LiteOS_Lab_2/iot_link/oc/oc_coap/boudica120_oc/boudica120_oc.c ****     sscanf(str,"SNR:%d",&wireless_stats[2]);
 2919              		.loc 1 723 5
 2920 011c 194A     		ldr	r2, .L172+40
 2921 011e 1A49     		ldr	r1, .L172+44
 2922 0120 D7F85C01 		ldr	r0, [r7, #348]
 2923 0124 FFF7FEFF 		bl	sscanf
 724:/home/fanxinhao/Work/LiteOS_Lab_2/iot_link/oc/oc_coap/boudica120_oc/boudica120_oc.c **** 
 725:/home/fanxinhao/Work/LiteOS_Lab_2/iot_link/oc/oc_coap/boudica120_oc/boudica120_oc.c ****     str = strstr(resp,"Cell ID:");
 2924              		.loc 1 725 11
 2925 0128 07F11C03 		add	r3, r7, #28
 2926 012c 1749     		ldr	r1, .L172+48
 2927 012e 1846     		mov	r0, r3
ARM GAS  /tmp/ccRaplPO.s 			page 67


 2928 0130 FFF7FEFF 		bl	strstr
 2929 0134 C7F85C01 		str	r0, [r7, #348]
 726:/home/fanxinhao/Work/LiteOS_Lab_2/iot_link/oc/oc_coap/boudica120_oc/boudica120_oc.c ****     if (str == NULL)
 2930              		.loc 1 726 8
 2931 0138 D7F85C31 		ldr	r3, [r7, #348]
 2932 013c 002B     		cmp	r3, #0
 2933 013e 01D1     		bne	.L170
 727:/home/fanxinhao/Work/LiteOS_Lab_2/iot_link/oc/oc_coap/boudica120_oc/boudica120_oc.c ****     {
 728:/home/fanxinhao/Work/LiteOS_Lab_2/iot_link/oc/oc_coap/boudica120_oc/boudica120_oc.c ****         return NULL;
 2934              		.loc 1 728 16
 2935 0140 0023     		movs	r3, #0
 2936 0142 06E0     		b	.L171
 2937              	.L170:
 729:/home/fanxinhao/Work/LiteOS_Lab_2/iot_link/oc/oc_coap/boudica120_oc/boudica120_oc.c ****     }
 730:/home/fanxinhao/Work/LiteOS_Lab_2/iot_link/oc/oc_coap/boudica120_oc/boudica120_oc.c ****     sscanf(str,"Cell ID:%d",&wireless_stats[3]);
 2938              		.loc 1 730 5
 2939 0144 124A     		ldr	r2, .L172+52
 2940 0146 1349     		ldr	r1, .L172+56
 2941 0148 D7F85C01 		ldr	r0, [r7, #348]
 2942 014c FFF7FEFF 		bl	sscanf
 731:/home/fanxinhao/Work/LiteOS_Lab_2/iot_link/oc/oc_coap/boudica120_oc/boudica120_oc.c **** 
 732:/home/fanxinhao/Work/LiteOS_Lab_2/iot_link/oc/oc_coap/boudica120_oc/boudica120_oc.c ****     return wireless_stats;
 2943              		.loc 1 732 12
 2944 0150 054B     		ldr	r3, .L172+12
 2945              	.L171:
 733:/home/fanxinhao/Work/LiteOS_Lab_2/iot_link/oc/oc_coap/boudica120_oc/boudica120_oc.c **** }
 2946              		.loc 1 733 1 discriminator 1
 2947 0152 1846     		mov	r0, r3
 2948 0154 07F5B077 		add	r7, r7, #352
 2949              	.LCFI117:
 2950              		.cfi_def_cfa_offset 8
 2951 0158 BD46     		mov	sp, r7
 2952              	.LCFI118:
 2953              		.cfi_def_cfa_register 13
 2954              		@ sp needed
 2955 015a 80BD     		pop	{r7, pc}
 2956              	.L173:
 2957              		.align	2
 2958              	.L172:
 2959 015c 40030000 		.word	.LC45
 2960 0160 54030000 		.word	.LC46
 2961 0164 60030000 		.word	.LC47
 2962 0168 00000000 		.word	wireless_stats
 2963 016c 84030000 		.word	.LC48
 2964 0170 14000000 		.word	.LC2
 2965 0174 94030000 		.word	.LC49
 2966 0178 04000000 		.word	wireless_stats+4
 2967 017c 9C030000 		.word	.LC50
 2968 0180 A4030000 		.word	.LC51
 2969 0184 08000000 		.word	wireless_stats+8
 2970 0188 AC030000 		.word	.LC52
 2971 018c B4030000 		.word	.LC53
 2972 0190 0C000000 		.word	wireless_stats+12
 2973 0194 C0030000 		.word	.LC54
 2974              		.cfi_endproc
 2975              	.LFE26:
 2977              		.global	g_boudica120_oc_opt
ARM GAS  /tmp/ccRaplPO.s 			page 68


 2978              		.section	.rodata.g_boudica120_oc_opt,"a"
 2979              		.align	2
 2982              	g_boudica120_oc_opt:
 2983 0000 00000000 		.word	boudica120_oc_config
 2984 0004 00000000 		.word	boudica120_oc_report
 2985 0008 00000000 		.word	boudica120_oc_deconfig
 2986              		.section	.rodata
 2987 03cb 00       		.align	2
 2988              	.LC55:
 2989 03cc 3500     		.ascii	"5\000"
 2990 03ce 0000     		.align	2
 2991              	.LC56:
 2992 03d0 626F7564 		.ascii	"boudica120\000"
 2992      69636131 
 2992      323000
 2993              		.section	.text.oc_coap_imp_init,"ax",%progbits
 2994              		.align	1
 2995              		.global	oc_coap_imp_init
 2996              		.syntax unified
 2997              		.thumb
 2998              		.thumb_func
 2999              		.fpu fpv4-sp-d16
 3001              	oc_coap_imp_init:
 3002              	.LFB27:
 734:/home/fanxinhao/Work/LiteOS_Lab_2/iot_link/oc/oc_coap/boudica120_oc/boudica120_oc.c **** 
 735:/home/fanxinhao/Work/LiteOS_Lab_2/iot_link/oc/oc_coap/boudica120_oc/boudica120_oc.c **** const oc_coap_opt_t  g_boudica120_oc_opt = \
 736:/home/fanxinhao/Work/LiteOS_Lab_2/iot_link/oc/oc_coap/boudica120_oc/boudica120_oc.c **** {
 737:/home/fanxinhao/Work/LiteOS_Lab_2/iot_link/oc/oc_coap/boudica120_oc/boudica120_oc.c ****     .config = boudica120_oc_config,
 738:/home/fanxinhao/Work/LiteOS_Lab_2/iot_link/oc/oc_coap/boudica120_oc/boudica120_oc.c ****     .deconfig = boudica120_oc_deconfig,
 739:/home/fanxinhao/Work/LiteOS_Lab_2/iot_link/oc/oc_coap/boudica120_oc/boudica120_oc.c ****     .report = (fn_oc_coap_report)boudica120_oc_report,
 740:/home/fanxinhao/Work/LiteOS_Lab_2/iot_link/oc/oc_coap/boudica120_oc/boudica120_oc.c **** };
 741:/home/fanxinhao/Work/LiteOS_Lab_2/iot_link/oc/oc_coap/boudica120_oc/boudica120_oc.c **** 
 742:/home/fanxinhao/Work/LiteOS_Lab_2/iot_link/oc/oc_coap/boudica120_oc/boudica120_oc.c **** 
 743:/home/fanxinhao/Work/LiteOS_Lab_2/iot_link/oc/oc_coap/boudica120_oc/boudica120_oc.c **** #ifndef CONFIG_BOUDICA120_PLMN
 744:/home/fanxinhao/Work/LiteOS_Lab_2/iot_link/oc/oc_coap/boudica120_oc/boudica120_oc.c **** #define CONFIG_BOUDICA120_PLMN  "460001"
 745:/home/fanxinhao/Work/LiteOS_Lab_2/iot_link/oc/oc_coap/boudica120_oc/boudica120_oc.c **** #endif
 746:/home/fanxinhao/Work/LiteOS_Lab_2/iot_link/oc/oc_coap/boudica120_oc/boudica120_oc.c **** 
 747:/home/fanxinhao/Work/LiteOS_Lab_2/iot_link/oc/oc_coap/boudica120_oc/boudica120_oc.c **** 
 748:/home/fanxinhao/Work/LiteOS_Lab_2/iot_link/oc/oc_coap/boudica120_oc/boudica120_oc.c **** #ifndef CONFIG_BOUDICA120_APN
 749:/home/fanxinhao/Work/LiteOS_Lab_2/iot_link/oc/oc_coap/boudica120_oc/boudica120_oc.c **** #define CONFIG_BOUDICA120_APN   "cmnet"
 750:/home/fanxinhao/Work/LiteOS_Lab_2/iot_link/oc/oc_coap/boudica120_oc/boudica120_oc.c **** #endif
 751:/home/fanxinhao/Work/LiteOS_Lab_2/iot_link/oc/oc_coap/boudica120_oc/boudica120_oc.c **** 
 752:/home/fanxinhao/Work/LiteOS_Lab_2/iot_link/oc/oc_coap/boudica120_oc/boudica120_oc.c **** 
 753:/home/fanxinhao/Work/LiteOS_Lab_2/iot_link/oc/oc_coap/boudica120_oc/boudica120_oc.c **** #ifndef CONFIG_BOUDICA120_BANDS
 754:/home/fanxinhao/Work/LiteOS_Lab_2/iot_link/oc/oc_coap/boudica120_oc/boudica120_oc.c **** #define CONFIG_BOUDICA120_BANDS  "5"	
 755:/home/fanxinhao/Work/LiteOS_Lab_2/iot_link/oc/oc_coap/boudica120_oc/boudica120_oc.c **** #endif
 756:/home/fanxinhao/Work/LiteOS_Lab_2/iot_link/oc/oc_coap/boudica120_oc/boudica120_oc.c **** 
 757:/home/fanxinhao/Work/LiteOS_Lab_2/iot_link/oc/oc_coap/boudica120_oc/boudica120_oc.c **** int oc_coap_imp_init(void)
 758:/home/fanxinhao/Work/LiteOS_Lab_2/iot_link/oc/oc_coap/boudica120_oc/boudica120_oc.c **** {
 3003              		.loc 1 758 1
 3004              		.cfi_startproc
 3005              		@ args = 0, pretend = 0, frame = 8
 3006              		@ frame_needed = 1, uses_anonymous_args = 0
 3007 0000 80B5     		push	{r7, lr}
 3008              	.LCFI119:
 3009              		.cfi_def_cfa_offset 8
 3010              		.cfi_offset 7, -8
ARM GAS  /tmp/ccRaplPO.s 			page 69


 3011              		.cfi_offset 14, -4
 3012 0002 82B0     		sub	sp, sp, #8
 3013              	.LCFI120:
 3014              		.cfi_def_cfa_offset 16
 3015 0004 00AF     		add	r7, sp, #0
 3016              	.LCFI121:
 3017              		.cfi_def_cfa_register 7
 759:/home/fanxinhao/Work/LiteOS_Lab_2/iot_link/oc/oc_coap/boudica120_oc/boudica120_oc.c ****     int ret = -1;
 3018              		.loc 1 759 9
 3019 0006 4FF0FF33 		mov	r3, #-1
 3020 000a 7B60     		str	r3, [r7, #4]
 760:/home/fanxinhao/Work/LiteOS_Lab_2/iot_link/oc/oc_coap/boudica120_oc/boudica120_oc.c **** 
 761:/home/fanxinhao/Work/LiteOS_Lab_2/iot_link/oc/oc_coap/boudica120_oc/boudica120_oc.c ****     s_boudica120_oc_cb.plmn = NULL;
 3021              		.loc 1 761 29
 3022 000c 0A4B     		ldr	r3, .L176
 3023 000e 0022     		movs	r2, #0
 3024 0010 1A60     		str	r2, [r3]
 762:/home/fanxinhao/Work/LiteOS_Lab_2/iot_link/oc/oc_coap/boudica120_oc/boudica120_oc.c ****     s_boudica120_oc_cb.apn = NULL;
 3025              		.loc 1 762 28
 3026 0012 094B     		ldr	r3, .L176
 3027 0014 0022     		movs	r2, #0
 3028 0016 5A60     		str	r2, [r3, #4]
 763:/home/fanxinhao/Work/LiteOS_Lab_2/iot_link/oc/oc_coap/boudica120_oc/boudica120_oc.c ****     s_boudica120_oc_cb.bands = CONFIG_BOUDICA120_BANDS;
 3029              		.loc 1 763 30
 3030 0018 074B     		ldr	r3, .L176
 3031 001a 084A     		ldr	r2, .L176+4
 3032 001c 9A60     		str	r2, [r3, #8]
 764:/home/fanxinhao/Work/LiteOS_Lab_2/iot_link/oc/oc_coap/boudica120_oc/boudica120_oc.c **** 
 765:/home/fanxinhao/Work/LiteOS_Lab_2/iot_link/oc/oc_coap/boudica120_oc/boudica120_oc.c ****     osal_mutex_create(&s_report_mutex);
 3033              		.loc 1 765 5
 3034 001e 0848     		ldr	r0, .L176+8
 3035 0020 FFF7FEFF 		bl	osal_mutex_create
 766:/home/fanxinhao/Work/LiteOS_Lab_2/iot_link/oc/oc_coap/boudica120_oc/boudica120_oc.c **** 
 767:/home/fanxinhao/Work/LiteOS_Lab_2/iot_link/oc/oc_coap/boudica120_oc/boudica120_oc.c ****     ret = oc_coap_register("boudica120",&g_boudica120_oc_opt);
 3036              		.loc 1 767 11
 3037 0024 0749     		ldr	r1, .L176+12
 3038 0026 0848     		ldr	r0, .L176+16
 3039 0028 FFF7FEFF 		bl	oc_coap_register
 3040 002c 7860     		str	r0, [r7, #4]
 768:/home/fanxinhao/Work/LiteOS_Lab_2/iot_link/oc/oc_coap/boudica120_oc/boudica120_oc.c **** 
 769:/home/fanxinhao/Work/LiteOS_Lab_2/iot_link/oc/oc_coap/boudica120_oc/boudica120_oc.c ****     return ret;
 3041              		.loc 1 769 12
 3042 002e 7B68     		ldr	r3, [r7, #4]
 770:/home/fanxinhao/Work/LiteOS_Lab_2/iot_link/oc/oc_coap/boudica120_oc/boudica120_oc.c **** }
 3043              		.loc 1 770 1
 3044 0030 1846     		mov	r0, r3
 3045 0032 0837     		adds	r7, r7, #8
 3046              	.LCFI122:
 3047              		.cfi_def_cfa_offset 8
 3048 0034 BD46     		mov	sp, r7
 3049              	.LCFI123:
 3050              		.cfi_def_cfa_register 13
 3051              		@ sp needed
 3052 0036 80BD     		pop	{r7, pc}
 3053              	.L177:
 3054              		.align	2
 3055              	.L176:
ARM GAS  /tmp/ccRaplPO.s 			page 70


 3056 0038 00000000 		.word	s_boudica120_oc_cb
 3057 003c CC030000 		.word	.LC55
 3058 0040 00000000 		.word	s_report_mutex
 3059 0044 00000000 		.word	g_boudica120_oc_opt
 3060 0048 D0030000 		.word	.LC56
 3061              		.cfi_endproc
 3062              	.LFE27:
 3064              		.section	.rodata.__FUNCTION__.7076,"a"
 3065              		.align	2
 3068              	__FUNCTION__.7076:
 3069 0000 626F7564 		.ascii	"boudica120_rcvdeal\000"
 3069      69636131 
 3069      32305F72 
 3069      63766465 
 3069      616C00
 3070              		.section	.rodata.__FUNCTION__.7168,"a"
 3071              		.align	2
 3074              	__FUNCTION__.7168:
 3075 0000 626F7564 		.ascii	"boudica120_boot\000"
 3075      69636131 
 3075      32305F62 
 3075      6F6F7400 
 3076              		.section	.rodata.__FUNCTION__.7173,"a"
 3077              		.align	2
 3080              	__FUNCTION__.7173:
 3081 0000 626F7564 		.ascii	"boudica120_oc_config\000"
 3081      69636131 
 3081      32305F6F 
 3081      635F636F 
 3081      6E666967 
 3082              		.text
 3083              	.Letext0:
 3084              		.file 2 "/home/fanxinhao/toolchain/gcc-arm-none-eabi-9-2019-q4-major/lib/gcc/arm-none-eabi/9.2.1/i
 3085              		.file 3 "/home/fanxinhao/toolchain/gcc-arm-none-eabi-9-2019-q4-major/arm-none-eabi/include/sys/loc
 3086              		.file 4 "/home/fanxinhao/toolchain/gcc-arm-none-eabi-9-2019-q4-major/arm-none-eabi/include/sys/_ty
 3087              		.file 5 "/home/fanxinhao/toolchain/gcc-arm-none-eabi-9-2019-q4-major/arm-none-eabi/include/sys/ree
 3088              		.file 6 "/home/fanxinhao/Work/LiteOS_Lab_2/iot_link/os/osal/osal_types.h"
 3089              		.file 7 "/home/fanxinhao/Work/LiteOS_Lab_2/iot_link/oc/oc_coap/oc_coap_al/oc_coap_al.h"
 3090              		.file 8 "/home/fanxinhao/Work/LiteOS_Lab_2/iot_link/inc/link_log.h"
ARM GAS  /tmp/ccRaplPO.s 			page 71

