GAS LISTING /tmp/ccgk3rzZ.s 			page 1


   1              		.file	"MQTTClient.c"
   2              		.text
   3              	.Ltext0:
   4              		.section	.text.NewMessageData,"ax",@progbits
   6              	NewMessageData:
   7              	.LFB7:
   8              		.file 1 "/home/xingli/share/LiteOS_Lab/network/mqtt/paho_mqtt/paho/MQTTClient-C/src/MQTTClient.c"
   1:/home/xingli/share/LiteOS_Lab/network/mqtt/paho_mqtt/paho/MQTTClient-C/src/MQTTClient.c **** /*******************************************************************************
   2:/home/xingli/share/LiteOS_Lab/network/mqtt/paho_mqtt/paho/MQTTClient-C/src/MQTTClient.c ****  * Copyright (c) 2014, 2017 IBM Corp.
   3:/home/xingli/share/LiteOS_Lab/network/mqtt/paho_mqtt/paho/MQTTClient-C/src/MQTTClient.c ****  *
   4:/home/xingli/share/LiteOS_Lab/network/mqtt/paho_mqtt/paho/MQTTClient-C/src/MQTTClient.c ****  * All rights reserved. This program and the accompanying materials
   5:/home/xingli/share/LiteOS_Lab/network/mqtt/paho_mqtt/paho/MQTTClient-C/src/MQTTClient.c ****  * are made available under the terms of the Eclipse Public License v1.0
   6:/home/xingli/share/LiteOS_Lab/network/mqtt/paho_mqtt/paho/MQTTClient-C/src/MQTTClient.c ****  * and Eclipse Distribution License v1.0 which accompany this distribution.
   7:/home/xingli/share/LiteOS_Lab/network/mqtt/paho_mqtt/paho/MQTTClient-C/src/MQTTClient.c ****  *
   8:/home/xingli/share/LiteOS_Lab/network/mqtt/paho_mqtt/paho/MQTTClient-C/src/MQTTClient.c ****  * The Eclipse Public License is available at
   9:/home/xingli/share/LiteOS_Lab/network/mqtt/paho_mqtt/paho/MQTTClient-C/src/MQTTClient.c ****  *    http://www.eclipse.org/legal/epl-v10.html
  10:/home/xingli/share/LiteOS_Lab/network/mqtt/paho_mqtt/paho/MQTTClient-C/src/MQTTClient.c ****  * and the Eclipse Distribution License is available at
  11:/home/xingli/share/LiteOS_Lab/network/mqtt/paho_mqtt/paho/MQTTClient-C/src/MQTTClient.c ****  *   http://www.eclipse.org/org/documents/edl-v10.php.
  12:/home/xingli/share/LiteOS_Lab/network/mqtt/paho_mqtt/paho/MQTTClient-C/src/MQTTClient.c ****  *
  13:/home/xingli/share/LiteOS_Lab/network/mqtt/paho_mqtt/paho/MQTTClient-C/src/MQTTClient.c ****  * Contributors:
  14:/home/xingli/share/LiteOS_Lab/network/mqtt/paho_mqtt/paho/MQTTClient-C/src/MQTTClient.c ****  *   Allan Stockdill-Mander/Ian Craggs - initial API and implementation and/or initial documentatio
  15:/home/xingli/share/LiteOS_Lab/network/mqtt/paho_mqtt/paho/MQTTClient-C/src/MQTTClient.c ****  *   Ian Craggs - fix for #96 - check rem_len in readPacket
  16:/home/xingli/share/LiteOS_Lab/network/mqtt/paho_mqtt/paho/MQTTClient-C/src/MQTTClient.c ****  *   Ian Craggs - add ability to set message handler separately #6
  17:/home/xingli/share/LiteOS_Lab/network/mqtt/paho_mqtt/paho/MQTTClient-C/src/MQTTClient.c ****  *******************************************************************************/
  18:/home/xingli/share/LiteOS_Lab/network/mqtt/paho_mqtt/paho/MQTTClient-C/src/MQTTClient.c **** #include "MQTTClient.h"
  19:/home/xingli/share/LiteOS_Lab/network/mqtt/paho_mqtt/paho/MQTTClient-C/src/MQTTClient.c **** #include "iot_config.h"
  20:/home/xingli/share/LiteOS_Lab/network/mqtt/paho_mqtt/paho/MQTTClient-C/src/MQTTClient.c **** static void NewMessageData(MessageData* md, MQTTString* aTopicName, MQTTMessage* aMessage) {
   9              		.loc 1 20 92
  10              		.cfi_startproc
  11 0000 F30F1EFA 		endbr64
  12 0004 55       		pushq	%rbp
  13              	.LCFI0:
  14              		.cfi_def_cfa_offset 16
  15              		.cfi_offset 6, -16
  16 0005 4889E5   		movq	%rsp, %rbp
  17              	.LCFI1:
  18              		.cfi_def_cfa_register 6
  19 0008 4883EC30 		subq	$48, %rsp
  20 000c 48897DE8 		movq	%rdi, -24(%rbp)
  21 0010 488975E0 		movq	%rsi, -32(%rbp)
  22 0014 488955D8 		movq	%rdx, -40(%rbp)
  23              		.loc 1 20 92
  24 0018 64488B04 		movq	%fs:40, %rax
  24      25280000 
  24      00
  25 0021 488945F8 		movq	%rax, -8(%rbp)
  26 0025 31C0     		xorl	%eax, %eax
  21:/home/xingli/share/LiteOS_Lab/network/mqtt/paho_mqtt/paho/MQTTClient-C/src/MQTTClient.c ****     md->topicName = aTopicName;
  27              		.loc 1 21 19
  28 0027 488B45E8 		movq	-24(%rbp), %rax
  29 002b 488B55E0 		movq	-32(%rbp), %rdx
  30 002f 48895008 		movq	%rdx, 8(%rax)
  22:/home/xingli/share/LiteOS_Lab/network/mqtt/paho_mqtt/paho/MQTTClient-C/src/MQTTClient.c ****     md->message = aMessage;
  31              		.loc 1 22 17
  32 0033 488B45E8 		movq	-24(%rbp), %rax
  33 0037 488B55D8 		movq	-40(%rbp), %rdx
  34 003b 488910   		movq	%rdx, (%rax)
GAS LISTING /tmp/ccgk3rzZ.s 			page 2


  23:/home/xingli/share/LiteOS_Lab/network/mqtt/paho_mqtt/paho/MQTTClient-C/src/MQTTClient.c **** }
  35              		.loc 1 23 1
  36 003e 90       		nop
  37 003f 488B45F8 		movq	-8(%rbp), %rax
  38 0043 64483304 		xorq	%fs:40, %rax
  38      25280000 
  38      00
  39 004c 7405     		je	.L2
  40 004e E8000000 		call	__stack_chk_fail@PLT
  40      00
  41              	.L2:
  42 0053 C9       		leave
  43              	.LCFI2:
  44              		.cfi_def_cfa 7, 8
  45 0054 C3       		ret
  46              		.cfi_endproc
  47              	.LFE7:
  49              		.section	.text.getNextPacketId,"ax",@progbits
  51              	getNextPacketId:
  52              	.LFB8:
  24:/home/xingli/share/LiteOS_Lab/network/mqtt/paho_mqtt/paho/MQTTClient-C/src/MQTTClient.c **** 
  25:/home/xingli/share/LiteOS_Lab/network/mqtt/paho_mqtt/paho/MQTTClient-C/src/MQTTClient.c **** 
  26:/home/xingli/share/LiteOS_Lab/network/mqtt/paho_mqtt/paho/MQTTClient-C/src/MQTTClient.c **** static int getNextPacketId(MQTTClient *c) {
  53              		.loc 1 26 43
  54              		.cfi_startproc
  55 0000 F30F1EFA 		endbr64
  56 0004 55       		pushq	%rbp
  57              	.LCFI3:
  58              		.cfi_def_cfa_offset 16
  59              		.cfi_offset 6, -16
  60 0005 4889E5   		movq	%rsp, %rbp
  61              	.LCFI4:
  62              		.cfi_def_cfa_register 6
  63 0008 4883EC20 		subq	$32, %rsp
  64 000c 48897DE8 		movq	%rdi, -24(%rbp)
  65              		.loc 1 26 43
  66 0010 64488B04 		movq	%fs:40, %rax
  66      25280000 
  66      00
  67 0019 488945F8 		movq	%rax, -8(%rbp)
  68 001d 31C0     		xorl	%eax, %eax
  27:/home/xingli/share/LiteOS_Lab/network/mqtt/paho_mqtt/paho/MQTTClient-C/src/MQTTClient.c ****     return c->next_packetid = (c->next_packetid == MAX_PACKET_ID) ? 1 : c->next_packetid + 1;
  69              		.loc 1 27 33
  70 001f 488B45E8 		movq	-24(%rbp), %rax
  71 0023 8B00     		movl	(%rax), %eax
  72              		.loc 1 27 71
  73 0025 3DFFFF00 		cmpl	$65535, %eax
  73      00
  74 002a 740B     		je	.L4
  75              		.loc 1 27 74 discriminator 1
  76 002c 488B45E8 		movq	-24(%rbp), %rax
  77 0030 8B00     		movl	(%rax), %eax
  78              		.loc 1 27 71 discriminator 1
  79 0032 8D5001   		leal	1(%rax), %edx
  80 0035 EB05     		jmp	.L5
  81              	.L4:
  82              		.loc 1 27 71 is_stmt 0 discriminator 2
GAS LISTING /tmp/ccgk3rzZ.s 			page 3


  83 0037 BA010000 		movl	$1, %edx
  83      00
  84              	.L5:
  85              		.loc 1 27 29 is_stmt 1 discriminator 4
  86 003c 488B45E8 		movq	-24(%rbp), %rax
  87 0040 8910     		movl	%edx, (%rax)
  88              		.loc 1 27 13 discriminator 4
  89 0042 488B45E8 		movq	-24(%rbp), %rax
  90 0046 8B00     		movl	(%rax), %eax
  28:/home/xingli/share/LiteOS_Lab/network/mqtt/paho_mqtt/paho/MQTTClient-C/src/MQTTClient.c **** }
  91              		.loc 1 28 1 discriminator 4
  92 0048 488B4DF8 		movq	-8(%rbp), %rcx
  93 004c 6448330C 		xorq	%fs:40, %rcx
  93      25280000 
  93      00
  94 0055 7405     		je	.L7
  95              		.loc 1 28 1 is_stmt 0
  96 0057 E8000000 		call	__stack_chk_fail@PLT
  96      00
  97              	.L7:
  98 005c C9       		leave
  99              	.LCFI5:
 100              		.cfi_def_cfa 7, 8
 101 005d C3       		ret
 102              		.cfi_endproc
 103              	.LFE8:
 105              		.section	.text.sendPacket,"ax",@progbits
 107              	sendPacket:
 108              	.LFB9:
  29:/home/xingli/share/LiteOS_Lab/network/mqtt/paho_mqtt/paho/MQTTClient-C/src/MQTTClient.c **** 
  30:/home/xingli/share/LiteOS_Lab/network/mqtt/paho_mqtt/paho/MQTTClient-C/src/MQTTClient.c **** 
  31:/home/xingli/share/LiteOS_Lab/network/mqtt/paho_mqtt/paho/MQTTClient-C/src/MQTTClient.c **** static int sendPacket(MQTTClient* c, int length, Timer* timer)
  32:/home/xingli/share/LiteOS_Lab/network/mqtt/paho_mqtt/paho/MQTTClient-C/src/MQTTClient.c **** {
 109              		.loc 1 32 1 is_stmt 1
 110              		.cfi_startproc
 111 0000 F30F1EFA 		endbr64
 112 0004 55       		pushq	%rbp
 113              	.LCFI6:
 114              		.cfi_def_cfa_offset 16
 115              		.cfi_offset 6, -16
 116 0005 4889E5   		movq	%rsp, %rbp
 117              	.LCFI7:
 118              		.cfi_def_cfa_register 6
 119 0008 53       		pushq	%rbx
 120 0009 4883EC38 		subq	$56, %rsp
 121              		.cfi_offset 3, -24
 122 000d 48897DD8 		movq	%rdi, -40(%rbp)
 123 0011 8975D4   		movl	%esi, -44(%rbp)
 124 0014 488955C8 		movq	%rdx, -56(%rbp)
 125              		.loc 1 32 1
 126 0018 64488B04 		movq	%fs:40, %rax
 126      25280000 
 126      00
 127 0021 488945E8 		movq	%rax, -24(%rbp)
 128 0025 31C0     		xorl	%eax, %eax
  33:/home/xingli/share/LiteOS_Lab/network/mqtt/paho_mqtt/paho/MQTTClient-C/src/MQTTClient.c ****     int rc = FAILURE,
 129              		.loc 1 33 9
GAS LISTING /tmp/ccgk3rzZ.s 			page 4


 130 0027 C745E0FF 		movl	$-1, -32(%rbp)
 130      FFFFFF
  34:/home/xingli/share/LiteOS_Lab/network/mqtt/paho_mqtt/paho/MQTTClient-C/src/MQTTClient.c ****         sent = 0;
 131              		.loc 1 34 9
 132 002e C745E400 		movl	$0, -28(%rbp)
 132      000000
  35:/home/xingli/share/LiteOS_Lab/network/mqtt/paho_mqtt/paho/MQTTClient-C/src/MQTTClient.c **** 
  36:/home/xingli/share/LiteOS_Lab/network/mqtt/paho_mqtt/paho/MQTTClient-C/src/MQTTClient.c ****     while (sent < length && !TimerIsExpired(timer))
 133              		.loc 1 36 11
 134 0035 EB50     		jmp	.L9
 135              	.L12:
  37:/home/xingli/share/LiteOS_Lab/network/mqtt/paho_mqtt/paho/MQTTClient-C/src/MQTTClient.c ****     {
  38:/home/xingli/share/LiteOS_Lab/network/mqtt/paho_mqtt/paho/MQTTClient-C/src/MQTTClient.c ****         rc = c->ipstack->mqttwrite(c->ipstack, &c->buf[sent], length, TimerLeftMS(timer));
 136              		.loc 1 38 15
 137 0037 488B45D8 		movq	-40(%rbp), %rax
 138 003b 488B8030 		movq	304(%rax), %rax
 138      010000
 139              		.loc 1 38 24
 140 0042 488B5850 		movq	80(%rax), %rbx
 141              		.loc 1 38 14
 142 0046 488B45C8 		movq	-56(%rbp), %rax
 143 004a 4889C7   		movq	%rax, %rdi
 144 004d E8000000 		call	osal_loop_timer_left@PLT
 144      00
 145 0052 89C1     		movl	%eax, %ecx
 146              		.loc 1 38 50
 147 0054 488B45D8 		movq	-40(%rbp), %rax
 148 0058 488B5018 		movq	24(%rax), %rdx
 149              		.loc 1 38 14
 150 005c 8B45E4   		movl	-28(%rbp), %eax
 151 005f 4898     		cltq
 152 0061 488D3402 		leaq	(%rdx,%rax), %rsi
 153              		.loc 1 38 37
 154 0065 488B45D8 		movq	-40(%rbp), %rax
 155 0069 488B8030 		movq	304(%rax), %rax
 155      010000
 156              		.loc 1 38 14
 157 0070 8B55D4   		movl	-44(%rbp), %edx
 158 0073 4889C7   		movq	%rax, %rdi
 159 0076 FFD3     		call	*%rbx
 160              	.LVL0:
 161 0078 8945E0   		movl	%eax, -32(%rbp)
  39:/home/xingli/share/LiteOS_Lab/network/mqtt/paho_mqtt/paho/MQTTClient-C/src/MQTTClient.c ****         if (rc < 0)  // there was an error writing the data
 162              		.loc 1 39 12
 163 007b 837DE000 		cmpl	$0, -32(%rbp)
 164 007f 7820     		js	.L17
  40:/home/xingli/share/LiteOS_Lab/network/mqtt/paho_mqtt/paho/MQTTClient-C/src/MQTTClient.c ****             break;
  41:/home/xingli/share/LiteOS_Lab/network/mqtt/paho_mqtt/paho/MQTTClient-C/src/MQTTClient.c ****         sent += rc;
 165              		.loc 1 41 14
 166 0081 8B45E0   		movl	-32(%rbp), %eax
 167 0084 0145E4   		addl	%eax, -28(%rbp)
 168              	.L9:
  36:/home/xingli/share/LiteOS_Lab/network/mqtt/paho_mqtt/paho/MQTTClient-C/src/MQTTClient.c ****     {
 169              		.loc 1 36 11
 170 0087 8B45E4   		movl	-28(%rbp), %eax
 171 008a 3B45D4   		cmpl	-44(%rbp), %eax
 172 008d 7D13     		jge	.L11
GAS LISTING /tmp/ccgk3rzZ.s 			page 5


  36:/home/xingli/share/LiteOS_Lab/network/mqtt/paho_mqtt/paho/MQTTClient-C/src/MQTTClient.c ****     {
 173              		.loc 1 36 30 discriminator 1
 174 008f 488B45C8 		movq	-56(%rbp), %rax
 175 0093 4889C7   		movq	%rax, %rdi
 176 0096 E8000000 		call	osal_loop_timer_expired@PLT
 176      00
  36:/home/xingli/share/LiteOS_Lab/network/mqtt/paho_mqtt/paho/MQTTClient-C/src/MQTTClient.c ****     {
 177              		.loc 1 36 26 discriminator 1
 178 009b 84C0     		testb	%al, %al
 179 009d 7498     		je	.L12
 180 009f EB01     		jmp	.L11
 181              	.L17:
  40:/home/xingli/share/LiteOS_Lab/network/mqtt/paho_mqtt/paho/MQTTClient-C/src/MQTTClient.c ****             break;
 182              		.loc 1 40 13
 183 00a1 90       		nop
 184              	.L11:
  42:/home/xingli/share/LiteOS_Lab/network/mqtt/paho_mqtt/paho/MQTTClient-C/src/MQTTClient.c ****     }
  43:/home/xingli/share/LiteOS_Lab/network/mqtt/paho_mqtt/paho/MQTTClient-C/src/MQTTClient.c ****     if (sent == length)
 185              		.loc 1 43 8
 186 00a2 8B45E4   		movl	-28(%rbp), %eax
 187 00a5 3B45D4   		cmpl	-44(%rbp), %eax
 188 00a8 7525     		jne	.L13
  44:/home/xingli/share/LiteOS_Lab/network/mqtt/paho_mqtt/paho/MQTTClient-C/src/MQTTClient.c ****     {
  45:/home/xingli/share/LiteOS_Lab/network/mqtt/paho_mqtt/paho/MQTTClient-C/src/MQTTClient.c ****         TimerCountdown(&c->last_sent, c->keepAliveInterval); // record the fact that we have succes
 189              		.loc 1 45 9
 190 00aa 488B45D8 		movq	-40(%rbp), %rax
 191 00ae 8B4028   		movl	40(%rax), %eax
 192 00b1 488B55D8 		movq	-40(%rbp), %rdx
 193 00b5 4881C238 		addq	$312, %rdx
 193      010000
 194 00bc 89C6     		movl	%eax, %esi
 195 00be 4889D7   		movq	%rdx, %rdi
 196 00c1 E8000000 		call	osal_loop_timer_count_down@PLT
 196      00
  46:/home/xingli/share/LiteOS_Lab/network/mqtt/paho_mqtt/paho/MQTTClient-C/src/MQTTClient.c ****         rc = MQTT_SUCCESS;
 197              		.loc 1 46 12
 198 00c6 C745E000 		movl	$0, -32(%rbp)
 198      000000
 199 00cd EB07     		jmp	.L14
 200              	.L13:
  47:/home/xingli/share/LiteOS_Lab/network/mqtt/paho_mqtt/paho/MQTTClient-C/src/MQTTClient.c ****     }
  48:/home/xingli/share/LiteOS_Lab/network/mqtt/paho_mqtt/paho/MQTTClient-C/src/MQTTClient.c ****     else
  49:/home/xingli/share/LiteOS_Lab/network/mqtt/paho_mqtt/paho/MQTTClient-C/src/MQTTClient.c ****         rc = FAILURE;
 201              		.loc 1 49 12
 202 00cf C745E0FF 		movl	$-1, -32(%rbp)
 202      FFFFFF
 203              	.L14:
  50:/home/xingli/share/LiteOS_Lab/network/mqtt/paho_mqtt/paho/MQTTClient-C/src/MQTTClient.c ****     return rc;
 204              		.loc 1 50 12
 205 00d6 8B45E0   		movl	-32(%rbp), %eax
  51:/home/xingli/share/LiteOS_Lab/network/mqtt/paho_mqtt/paho/MQTTClient-C/src/MQTTClient.c **** }
 206              		.loc 1 51 1
 207 00d9 488B5DE8 		movq	-24(%rbp), %rbx
 208 00dd 6448331C 		xorq	%fs:40, %rbx
 208      25280000 
 208      00
 209 00e6 7405     		je	.L16
GAS LISTING /tmp/ccgk3rzZ.s 			page 6


 210 00e8 E8000000 		call	__stack_chk_fail@PLT
 210      00
 211              	.L16:
 212 00ed 4883C438 		addq	$56, %rsp
 213 00f1 5B       		popq	%rbx
 214 00f2 5D       		popq	%rbp
 215              	.LCFI8:
 216              		.cfi_def_cfa 7, 8
 217 00f3 C3       		ret
 218              		.cfi_endproc
 219              	.LFE9:
 221              		.section	.text.MQTTClientInit,"ax",@progbits
 222              		.globl	MQTTClientInit
 224              	MQTTClientInit:
 225              	.LFB10:
  52:/home/xingli/share/LiteOS_Lab/network/mqtt/paho_mqtt/paho/MQTTClient-C/src/MQTTClient.c **** 
  53:/home/xingli/share/LiteOS_Lab/network/mqtt/paho_mqtt/paho/MQTTClient-C/src/MQTTClient.c **** 
  54:/home/xingli/share/LiteOS_Lab/network/mqtt/paho_mqtt/paho/MQTTClient-C/src/MQTTClient.c **** int MQTTClientInit(MQTTClient* c, Network* network, unsigned int command_timeout_ms,
  55:/home/xingli/share/LiteOS_Lab/network/mqtt/paho_mqtt/paho/MQTTClient-C/src/MQTTClient.c ****                     unsigned char *sendbuf, size_t sendbuf_size, unsigned char *readbuf, size_t rea
  56:/home/xingli/share/LiteOS_Lab/network/mqtt/paho_mqtt/paho/MQTTClient-C/src/MQTTClient.c **** {
 226              		.loc 1 56 1
 227              		.cfi_startproc
 228 0000 F30F1EFA 		endbr64
 229 0004 55       		pushq	%rbp
 230              	.LCFI9:
 231              		.cfi_def_cfa_offset 16
 232              		.cfi_offset 6, -16
 233 0005 4889E5   		movq	%rsp, %rbp
 234              	.LCFI10:
 235              		.cfi_def_cfa_register 6
 236 0008 4883EC50 		subq	$80, %rsp
 237 000c 48897DE8 		movq	%rdi, -24(%rbp)
 238 0010 488975E0 		movq	%rsi, -32(%rbp)
 239 0014 8955DC   		movl	%edx, -36(%rbp)
 240 0017 48894DD0 		movq	%rcx, -48(%rbp)
 241 001b 4C8945C8 		movq	%r8, -56(%rbp)
 242 001f 4C894DC0 		movq	%r9, -64(%rbp)
 243 0023 488B4510 		movq	16(%rbp), %rax
 244 0027 488945B8 		movq	%rax, -72(%rbp)
 245              		.loc 1 56 1
 246 002b 64488B04 		movq	%fs:40, %rax
 246      25280000 
 246      00
 247 0034 488945F8 		movq	%rax, -8(%rbp)
 248 0038 31C0     		xorl	%eax, %eax
  57:/home/xingli/share/LiteOS_Lab/network/mqtt/paho_mqtt/paho/MQTTClient-C/src/MQTTClient.c ****     int i;
  58:/home/xingli/share/LiteOS_Lab/network/mqtt/paho_mqtt/paho/MQTTClient-C/src/MQTTClient.c ****     c->ipstack = network;
 249              		.loc 1 58 16
 250 003a 488B45E8 		movq	-24(%rbp), %rax
 251 003e 488B55E0 		movq	-32(%rbp), %rdx
 252 0042 48899030 		movq	%rdx, 304(%rax)
 252      010000
  59:/home/xingli/share/LiteOS_Lab/network/mqtt/paho_mqtt/paho/MQTTClient-C/src/MQTTClient.c **** 
  60:/home/xingli/share/LiteOS_Lab/network/mqtt/paho_mqtt/paho/MQTTClient-C/src/MQTTClient.c ****     for (i = 0; i < MAX_MESSAGE_HANDLERS; ++i)
 253              		.loc 1 60 12
 254 0049 C745F400 		movl	$0, -12(%rbp)
 254      000000
GAS LISTING /tmp/ccgk3rzZ.s 			page 7


 255              		.loc 1 60 5
 256 0050 EB29     		jmp	.L19
 257              	.L20:
  61:/home/xingli/share/LiteOS_Lab/network/mqtt/paho_mqtt/paho/MQTTClient-C/src/MQTTClient.c ****         c->messageHandlers[i].topicFilter = 0;
 258              		.loc 1 61 43 discriminator 3
 259 0052 488B4DE8 		movq	-24(%rbp), %rcx
 260 0056 8B45F4   		movl	-12(%rbp), %eax
 261 0059 4863D0   		movslq	%eax, %rdx
 262 005c 4889D0   		movq	%rdx, %rax
 263 005f 4801C0   		addq	%rax, %rax
 264 0062 4801D0   		addq	%rdx, %rax
 265 0065 48C1E003 		salq	$3, %rax
 266 0069 4801C8   		addq	%rcx, %rax
 267 006c 4883C038 		addq	$56, %rax
 268 0070 48C70000 		movq	$0, (%rax)
 268      000000
  60:/home/xingli/share/LiteOS_Lab/network/mqtt/paho_mqtt/paho/MQTTClient-C/src/MQTTClient.c ****         c->messageHandlers[i].topicFilter = 0;
 269              		.loc 1 60 43 discriminator 3
 270 0077 8345F401 		addl	$1, -12(%rbp)
 271              	.L19:
  60:/home/xingli/share/LiteOS_Lab/network/mqtt/paho_mqtt/paho/MQTTClient-C/src/MQTTClient.c ****         c->messageHandlers[i].topicFilter = 0;
 272              		.loc 1 60 5 discriminator 1
 273 007b 837DF409 		cmpl	$9, -12(%rbp)
 274 007f 7ED1     		jle	.L20
  62:/home/xingli/share/LiteOS_Lab/network/mqtt/paho_mqtt/paho/MQTTClient-C/src/MQTTClient.c ****     c->command_timeout_ms = command_timeout_ms;
 275              		.loc 1 62 27
 276 0081 488B45E8 		movq	-24(%rbp), %rax
 277 0085 8B55DC   		movl	-36(%rbp), %edx
 278 0088 895004   		movl	%edx, 4(%rax)
  63:/home/xingli/share/LiteOS_Lab/network/mqtt/paho_mqtt/paho/MQTTClient-C/src/MQTTClient.c ****     c->buf = sendbuf;
 279              		.loc 1 63 12
 280 008b 488B45E8 		movq	-24(%rbp), %rax
 281 008f 488B55D0 		movq	-48(%rbp), %rdx
 282 0093 48895018 		movq	%rdx, 24(%rax)
  64:/home/xingli/share/LiteOS_Lab/network/mqtt/paho_mqtt/paho/MQTTClient-C/src/MQTTClient.c ****     c->buf_size = sendbuf_size;
 283              		.loc 1 64 17
 284 0097 488B45E8 		movq	-24(%rbp), %rax
 285 009b 488B55C8 		movq	-56(%rbp), %rdx
 286 009f 48895008 		movq	%rdx, 8(%rax)
  65:/home/xingli/share/LiteOS_Lab/network/mqtt/paho_mqtt/paho/MQTTClient-C/src/MQTTClient.c ****     c->readbuf = readbuf;
 287              		.loc 1 65 16
 288 00a3 488B45E8 		movq	-24(%rbp), %rax
 289 00a7 488B55C0 		movq	-64(%rbp), %rdx
 290 00ab 48895020 		movq	%rdx, 32(%rax)
  66:/home/xingli/share/LiteOS_Lab/network/mqtt/paho_mqtt/paho/MQTTClient-C/src/MQTTClient.c ****     c->readbuf_size = readbuf_size;
 291              		.loc 1 66 21
 292 00af 488B45E8 		movq	-24(%rbp), %rax
 293 00b3 488B55B8 		movq	-72(%rbp), %rdx
 294 00b7 48895010 		movq	%rdx, 16(%rax)
  67:/home/xingli/share/LiteOS_Lab/network/mqtt/paho_mqtt/paho/MQTTClient-C/src/MQTTClient.c ****     c->isconnected = 0;
 295              		.loc 1 67 20
 296 00bb 488B45E8 		movq	-24(%rbp), %rax
 297 00bf C7403000 		movl	$0, 48(%rax)
 297      000000
  68:/home/xingli/share/LiteOS_Lab/network/mqtt/paho_mqtt/paho/MQTTClient-C/src/MQTTClient.c ****     c->cleansession = 0;
 298              		.loc 1 68 21
 299 00c6 488B45E8 		movq	-24(%rbp), %rax
GAS LISTING /tmp/ccgk3rzZ.s 			page 8


 300 00ca C7403400 		movl	$0, 52(%rax)
 300      000000
  69:/home/xingli/share/LiteOS_Lab/network/mqtt/paho_mqtt/paho/MQTTClient-C/src/MQTTClient.c ****     c->ping_outstanding = 0;
 301              		.loc 1 69 25
 302 00d1 488B45E8 		movq	-24(%rbp), %rax
 303 00d5 C6402C00 		movb	$0, 44(%rax)
  70:/home/xingli/share/LiteOS_Lab/network/mqtt/paho_mqtt/paho/MQTTClient-C/src/MQTTClient.c ****     c->defaultMessageHandler = NULL;
 304              		.loc 1 70 30
 305 00d9 488B45E8 		movq	-24(%rbp), %rax
 306 00dd 48C78028 		movq	$0, 296(%rax)
 306      01000000 
 306      000000
  71:/home/xingli/share/LiteOS_Lab/network/mqtt/paho_mqtt/paho/MQTTClient-C/src/MQTTClient.c **** 	c->next_packetid = 1;
 307              		.loc 1 71 19
 308 00e8 488B45E8 		movq	-24(%rbp), %rax
 309 00ec C7000100 		movl	$1, (%rax)
 309      0000
  72:/home/xingli/share/LiteOS_Lab/network/mqtt/paho_mqtt/paho/MQTTClient-C/src/MQTTClient.c ****     TimerInit(&c->last_sent);
 310              		.loc 1 72 5
 311 00f2 488B45E8 		movq	-24(%rbp), %rax
 312 00f6 48053801 		addq	$312, %rax
 312      0000
 313 00fc 4889C7   		movq	%rax, %rdi
 314 00ff E8000000 		call	osal_loop_timer_init@PLT
 314      00
  73:/home/xingli/share/LiteOS_Lab/network/mqtt/paho_mqtt/paho/MQTTClient-C/src/MQTTClient.c ****     TimerInit(&c->last_received);
 315              		.loc 1 73 5
 316 0104 488B45E8 		movq	-24(%rbp), %rax
 317 0108 48054001 		addq	$320, %rax
 317      0000
 318 010e 4889C7   		movq	%rax, %rdi
 319 0111 E8000000 		call	osal_loop_timer_init@PLT
 319      00
  74:/home/xingli/share/LiteOS_Lab/network/mqtt/paho_mqtt/paho/MQTTClient-C/src/MQTTClient.c **** #if defined(MQTT_TASK)
  75:/home/xingli/share/LiteOS_Lab/network/mqtt/paho_mqtt/paho/MQTTClient-C/src/MQTTClient.c ****     if (MutexInit(&c->mutex) != 0)
 320              		.loc 1 75 9
 321 0116 488B45E8 		movq	-24(%rbp), %rax
 322 011a 48054801 		addq	$328, %rax
 322      0000
 323 0120 4889C7   		movq	%rax, %rdi
 324 0123 E8000000 		call	osal_mutex_create@PLT
 324      00
 325              		.loc 1 75 8
 326 0128 83F801   		cmpl	$1, %eax
 327 012b 7407     		je	.L21
  76:/home/xingli/share/LiteOS_Lab/network/mqtt/paho_mqtt/paho/MQTTClient-C/src/MQTTClient.c ****     {
  77:/home/xingli/share/LiteOS_Lab/network/mqtt/paho_mqtt/paho/MQTTClient-C/src/MQTTClient.c ****         return FAILURE;
 328              		.loc 1 77 16
 329 012d B8FFFFFF 		movl	$-1, %eax
 329      FF
 330 0132 EB05     		jmp	.L22
 331              	.L21:
  78:/home/xingli/share/LiteOS_Lab/network/mqtt/paho_mqtt/paho/MQTTClient-C/src/MQTTClient.c ****     }
  79:/home/xingli/share/LiteOS_Lab/network/mqtt/paho_mqtt/paho/MQTTClient-C/src/MQTTClient.c **** #endif
  80:/home/xingli/share/LiteOS_Lab/network/mqtt/paho_mqtt/paho/MQTTClient-C/src/MQTTClient.c ****     return MQTT_SUCCESS;
 332              		.loc 1 80 12
 333 0134 B8000000 		movl	$0, %eax
GAS LISTING /tmp/ccgk3rzZ.s 			page 9


 333      00
 334              	.L22:
  81:/home/xingli/share/LiteOS_Lab/network/mqtt/paho_mqtt/paho/MQTTClient-C/src/MQTTClient.c **** }
 335              		.loc 1 81 1
 336 0139 488B75F8 		movq	-8(%rbp), %rsi
 337 013d 64483334 		xorq	%fs:40, %rsi
 337      25280000 
 337      00
 338 0146 7405     		je	.L23
 339 0148 E8000000 		call	__stack_chk_fail@PLT
 339      00
 340              	.L23:
 341 014d C9       		leave
 342              	.LCFI11:
 343              		.cfi_def_cfa 7, 8
 344 014e C3       		ret
 345              		.cfi_endproc
 346              	.LFE10:
 348              		.section	.text.MQTTClientDeInit,"ax",@progbits
 349              		.globl	MQTTClientDeInit
 351              	MQTTClientDeInit:
 352              	.LFB11:
  82:/home/xingli/share/LiteOS_Lab/network/mqtt/paho_mqtt/paho/MQTTClient-C/src/MQTTClient.c **** 
  83:/home/xingli/share/LiteOS_Lab/network/mqtt/paho_mqtt/paho/MQTTClient-C/src/MQTTClient.c **** void MQTTClientDeInit(MQTTClient *c)
  84:/home/xingli/share/LiteOS_Lab/network/mqtt/paho_mqtt/paho/MQTTClient-C/src/MQTTClient.c **** {
 353              		.loc 1 84 1
 354              		.cfi_startproc
 355 0000 F30F1EFA 		endbr64
 356 0004 55       		pushq	%rbp
 357              	.LCFI12:
 358              		.cfi_def_cfa_offset 16
 359              		.cfi_offset 6, -16
 360 0005 4889E5   		movq	%rsp, %rbp
 361              	.LCFI13:
 362              		.cfi_def_cfa_register 6
 363 0008 4883EC20 		subq	$32, %rsp
 364 000c 48897DE8 		movq	%rdi, -24(%rbp)
 365              		.loc 1 84 1
 366 0010 64488B04 		movq	%fs:40, %rax
 366      25280000 
 366      00
 367 0019 488945F8 		movq	%rax, -8(%rbp)
 368 001d 31C0     		xorl	%eax, %eax
  85:/home/xingli/share/LiteOS_Lab/network/mqtt/paho_mqtt/paho/MQTTClient-C/src/MQTTClient.c ****     if(!c)
 369              		.loc 1 85 7
 370 001f 48837DE8 		cmpq	$0, -24(%rbp)
 370      00
 371 0024 7415     		je	.L28
  86:/home/xingli/share/LiteOS_Lab/network/mqtt/paho_mqtt/paho/MQTTClient-C/src/MQTTClient.c ****         return;
  87:/home/xingli/share/LiteOS_Lab/network/mqtt/paho_mqtt/paho/MQTTClient-C/src/MQTTClient.c **** #if defined(MQTT_TASK)
  88:/home/xingli/share/LiteOS_Lab/network/mqtt/paho_mqtt/paho/MQTTClient-C/src/MQTTClient.c ****     MutexDestory(&c->mutex);
 372              		.loc 1 88 5
 373 0026 488B45E8 		movq	-24(%rbp), %rax
 374 002a 488B8048 		movq	328(%rax), %rax
 374      010000
 375 0031 4889C7   		movq	%rax, %rdi
 376 0034 E8000000 		call	osal_mutex_del@PLT
GAS LISTING /tmp/ccgk3rzZ.s 			page 10


 376      00
  89:/home/xingli/share/LiteOS_Lab/network/mqtt/paho_mqtt/paho/MQTTClient-C/src/MQTTClient.c **** #endif
  90:/home/xingli/share/LiteOS_Lab/network/mqtt/paho_mqtt/paho/MQTTClient-C/src/MQTTClient.c ****     return;
 377              		.loc 1 90 5
 378 0039 EB01     		jmp	.L24
 379              	.L28:
  86:/home/xingli/share/LiteOS_Lab/network/mqtt/paho_mqtt/paho/MQTTClient-C/src/MQTTClient.c ****         return;
 380              		.loc 1 86 9
 381 003b 90       		nop
 382              	.L24:
  91:/home/xingli/share/LiteOS_Lab/network/mqtt/paho_mqtt/paho/MQTTClient-C/src/MQTTClient.c **** }
 383              		.loc 1 91 1
 384 003c 488B45F8 		movq	-8(%rbp), %rax
 385 0040 64483304 		xorq	%fs:40, %rax
 385      25280000 
 385      00
 386 0049 7405     		je	.L27
 387 004b E8000000 		call	__stack_chk_fail@PLT
 387      00
 388              	.L27:
 389 0050 C9       		leave
 390              	.LCFI14:
 391              		.cfi_def_cfa 7, 8
 392 0051 C3       		ret
 393              		.cfi_endproc
 394              	.LFE11:
 396              		.section	.text.decodePacket,"ax",@progbits
 398              	decodePacket:
 399              	.LFB12:
  92:/home/xingli/share/LiteOS_Lab/network/mqtt/paho_mqtt/paho/MQTTClient-C/src/MQTTClient.c **** 
  93:/home/xingli/share/LiteOS_Lab/network/mqtt/paho_mqtt/paho/MQTTClient-C/src/MQTTClient.c **** static int decodePacket(MQTTClient* c, int* value, int timeout)
  94:/home/xingli/share/LiteOS_Lab/network/mqtt/paho_mqtt/paho/MQTTClient-C/src/MQTTClient.c **** {
 400              		.loc 1 94 1
 401              		.cfi_startproc
 402 0000 F30F1EFA 		endbr64
 403 0004 55       		pushq	%rbp
 404              	.LCFI15:
 405              		.cfi_def_cfa_offset 16
 406              		.cfi_offset 6, -16
 407 0005 4889E5   		movq	%rsp, %rbp
 408              	.LCFI16:
 409              		.cfi_def_cfa_register 6
 410 0008 4883EC40 		subq	$64, %rsp
 411 000c 48897DD8 		movq	%rdi, -40(%rbp)
 412 0010 488975D0 		movq	%rsi, -48(%rbp)
 413 0014 8955CC   		movl	%edx, -52(%rbp)
 414              		.loc 1 94 1
 415 0017 64488B04 		movq	%fs:40, %rax
 415      25280000 
 415      00
 416 0020 488945F8 		movq	%rax, -8(%rbp)
 417 0024 31C0     		xorl	%eax, %eax
  95:/home/xingli/share/LiteOS_Lab/network/mqtt/paho_mqtt/paho/MQTTClient-C/src/MQTTClient.c ****     unsigned char i;
  96:/home/xingli/share/LiteOS_Lab/network/mqtt/paho_mqtt/paho/MQTTClient-C/src/MQTTClient.c ****     int multiplier = 1;
 418              		.loc 1 96 9
 419 0026 C745E801 		movl	$1, -24(%rbp)
 419      000000
GAS LISTING /tmp/ccgk3rzZ.s 			page 11


  97:/home/xingli/share/LiteOS_Lab/network/mqtt/paho_mqtt/paho/MQTTClient-C/src/MQTTClient.c ****     int len = 0;
 420              		.loc 1 97 9
 421 002d C745EC00 		movl	$0, -20(%rbp)
 421      000000
  98:/home/xingli/share/LiteOS_Lab/network/mqtt/paho_mqtt/paho/MQTTClient-C/src/MQTTClient.c ****     const int MAX_NO_OF_REMAINING_LENGTH_BYTES = 4;
 422              		.loc 1 98 15
 423 0034 C745F004 		movl	$4, -16(%rbp)
 423      000000
  99:/home/xingli/share/LiteOS_Lab/network/mqtt/paho_mqtt/paho/MQTTClient-C/src/MQTTClient.c **** 
 100:/home/xingli/share/LiteOS_Lab/network/mqtt/paho_mqtt/paho/MQTTClient-C/src/MQTTClient.c ****     *value = 0;
 424              		.loc 1 100 12
 425 003b 488B45D0 		movq	-48(%rbp), %rax
 426 003f C7000000 		movl	$0, (%rax)
 426      0000
 427              	.L33:
 428              	.LBB2:
 101:/home/xingli/share/LiteOS_Lab/network/mqtt/paho_mqtt/paho/MQTTClient-C/src/MQTTClient.c ****     do
 102:/home/xingli/share/LiteOS_Lab/network/mqtt/paho_mqtt/paho/MQTTClient-C/src/MQTTClient.c ****     {
 103:/home/xingli/share/LiteOS_Lab/network/mqtt/paho_mqtt/paho/MQTTClient-C/src/MQTTClient.c ****         int rc = MQTTPACKET_READ_ERROR;
 429              		.loc 1 103 13
 430 0045 C745F4FF 		movl	$-1, -12(%rbp)
 430      FFFFFF
 104:/home/xingli/share/LiteOS_Lab/network/mqtt/paho_mqtt/paho/MQTTClient-C/src/MQTTClient.c **** 
 105:/home/xingli/share/LiteOS_Lab/network/mqtt/paho_mqtt/paho/MQTTClient-C/src/MQTTClient.c ****         if (++len > MAX_NO_OF_REMAINING_LENGTH_BYTES)
 431              		.loc 1 105 12
 432 004c 8345EC01 		addl	$1, -20(%rbp)
 433 0050 8B45EC   		movl	-20(%rbp), %eax
 434 0053 3B45F0   		cmpl	-16(%rbp), %eax
 435 0056 7E09     		jle	.L30
 106:/home/xingli/share/LiteOS_Lab/network/mqtt/paho_mqtt/paho/MQTTClient-C/src/MQTTClient.c ****         {
 107:/home/xingli/share/LiteOS_Lab/network/mqtt/paho_mqtt/paho/MQTTClient-C/src/MQTTClient.c ****             rc = MQTTPACKET_READ_ERROR; /* bad data */
 436              		.loc 1 107 16
 437 0058 C745F4FF 		movl	$-1, -12(%rbp)
 437      FFFFFF
 108:/home/xingli/share/LiteOS_Lab/network/mqtt/paho_mqtt/paho/MQTTClient-C/src/MQTTClient.c ****             goto exit;
 438              		.loc 1 108 13
 439 005f EB62     		jmp	.L31
 440              	.L30:
 109:/home/xingli/share/LiteOS_Lab/network/mqtt/paho_mqtt/paho/MQTTClient-C/src/MQTTClient.c ****         }
 110:/home/xingli/share/LiteOS_Lab/network/mqtt/paho_mqtt/paho/MQTTClient-C/src/MQTTClient.c ****         rc = c->ipstack->mqttread(c->ipstack, &i, 1, timeout);
 441              		.loc 1 110 15
 442 0061 488B45D8 		movq	-40(%rbp), %rax
 443 0065 488B8030 		movq	304(%rax), %rax
 443      010000
 444              		.loc 1 110 24
 445 006c 4C8B4048 		movq	72(%rax), %r8
 446              		.loc 1 110 36
 447 0070 488B45D8 		movq	-40(%rbp), %rax
 448 0074 488B8030 		movq	304(%rax), %rax
 448      010000
 449              		.loc 1 110 14
 450 007b 8B55CC   		movl	-52(%rbp), %edx
 451 007e 488D75E7 		leaq	-25(%rbp), %rsi
 452 0082 89D1     		movl	%edx, %ecx
 453 0084 BA010000 		movl	$1, %edx
 453      00
 454 0089 4889C7   		movq	%rax, %rdi
GAS LISTING /tmp/ccgk3rzZ.s 			page 12


 455 008c 41FFD0   		call	*%r8
 456              	.LVL1:
 457 008f 8945F4   		movl	%eax, -12(%rbp)
 111:/home/xingli/share/LiteOS_Lab/network/mqtt/paho_mqtt/paho/MQTTClient-C/src/MQTTClient.c ****         if (rc != 1)
 458              		.loc 1 111 12
 459 0092 837DF401 		cmpl	$1, -12(%rbp)
 460 0096 752A     		jne	.L36
 112:/home/xingli/share/LiteOS_Lab/network/mqtt/paho_mqtt/paho/MQTTClient-C/src/MQTTClient.c ****             goto exit;
 113:/home/xingli/share/LiteOS_Lab/network/mqtt/paho_mqtt/paho/MQTTClient-C/src/MQTTClient.c ****         *value += (i & 127) * multiplier;
 461              		.loc 1 113 16
 462 0098 488B45D0 		movq	-48(%rbp), %rax
 463 009c 8B10     		movl	(%rax), %edx
 464              		.loc 1 113 22
 465 009e 0FB645E7 		movzbl	-25(%rbp), %eax
 466 00a2 0FB6C0   		movzbl	%al, %eax
 467 00a5 83E07F   		andl	$127, %eax
 468              		.loc 1 113 29
 469 00a8 0FAF45E8 		imull	-24(%rbp), %eax
 470              		.loc 1 113 16
 471 00ac 01C2     		addl	%eax, %edx
 472 00ae 488B45D0 		movq	-48(%rbp), %rax
 473 00b2 8910     		movl	%edx, (%rax)
 114:/home/xingli/share/LiteOS_Lab/network/mqtt/paho_mqtt/paho/MQTTClient-C/src/MQTTClient.c ****         multiplier *= 128;
 474              		.loc 1 114 20
 475 00b4 C165E807 		sall	$7, -24(%rbp)
 476              	.LBE2:
 115:/home/xingli/share/LiteOS_Lab/network/mqtt/paho_mqtt/paho/MQTTClient-C/src/MQTTClient.c ****     } while ((i & 128) != 0);
 477              		.loc 1 115 24
 478 00b8 0FB645E7 		movzbl	-25(%rbp), %eax
 479              		.loc 1 115 5
 480 00bc 84C0     		testb	%al, %al
 481 00be 7885     		js	.L33
 116:/home/xingli/share/LiteOS_Lab/network/mqtt/paho_mqtt/paho/MQTTClient-C/src/MQTTClient.c **** exit:
 482              		.loc 1 116 1
 483 00c0 EB01     		jmp	.L31
 484              	.L36:
 485              	.LBB3:
 112:/home/xingli/share/LiteOS_Lab/network/mqtt/paho_mqtt/paho/MQTTClient-C/src/MQTTClient.c ****         *value += (i & 127) * multiplier;
 486              		.loc 1 112 13
 487 00c2 90       		nop
 488              	.L31:
 489              	.LBE3:
 117:/home/xingli/share/LiteOS_Lab/network/mqtt/paho_mqtt/paho/MQTTClient-C/src/MQTTClient.c ****     return len;
 490              		.loc 1 117 12
 491 00c3 8B45EC   		movl	-20(%rbp), %eax
 118:/home/xingli/share/LiteOS_Lab/network/mqtt/paho_mqtt/paho/MQTTClient-C/src/MQTTClient.c **** }
 492              		.loc 1 118 1
 493 00c6 488B4DF8 		movq	-8(%rbp), %rcx
 494 00ca 6448330C 		xorq	%fs:40, %rcx
 494      25280000 
 494      00
 495 00d3 7405     		je	.L35
 496 00d5 E8000000 		call	__stack_chk_fail@PLT
 496      00
 497              	.L35:
 498 00da C9       		leave
 499              	.LCFI17:
GAS LISTING /tmp/ccgk3rzZ.s 			page 13


 500              		.cfi_def_cfa 7, 8
 501 00db C3       		ret
 502              		.cfi_endproc
 503              	.LFE12:
 505              		.section	.text.readPacket,"ax",@progbits
 507              	readPacket:
 508              	.LFB13:
 119:/home/xingli/share/LiteOS_Lab/network/mqtt/paho_mqtt/paho/MQTTClient-C/src/MQTTClient.c **** 
 120:/home/xingli/share/LiteOS_Lab/network/mqtt/paho_mqtt/paho/MQTTClient-C/src/MQTTClient.c **** 
 121:/home/xingli/share/LiteOS_Lab/network/mqtt/paho_mqtt/paho/MQTTClient-C/src/MQTTClient.c **** static int readPacket(MQTTClient* c, Timer* timer)
 122:/home/xingli/share/LiteOS_Lab/network/mqtt/paho_mqtt/paho/MQTTClient-C/src/MQTTClient.c **** {
 509              		.loc 1 122 1
 510              		.cfi_startproc
 511 0000 F30F1EFA 		endbr64
 512 0004 55       		pushq	%rbp
 513              	.LCFI18:
 514              		.cfi_def_cfa_offset 16
 515              		.cfi_offset 6, -16
 516 0005 4889E5   		movq	%rsp, %rbp
 517              	.LCFI19:
 518              		.cfi_def_cfa_register 6
 519 0008 53       		pushq	%rbx
 520 0009 4883EC38 		subq	$56, %rsp
 521              		.cfi_offset 3, -24
 522 000d 48897DC8 		movq	%rdi, -56(%rbp)
 523 0011 488975C0 		movq	%rsi, -64(%rbp)
 524              		.loc 1 122 1
 525 0015 64488B04 		movq	%fs:40, %rax
 525      25280000 
 525      00
 526 001e 488945E8 		movq	%rax, -24(%rbp)
 527 0022 31C0     		xorl	%eax, %eax
 123:/home/xingli/share/LiteOS_Lab/network/mqtt/paho_mqtt/paho/MQTTClient-C/src/MQTTClient.c ****     MQTTHeader header = {0};
 528              		.loc 1 123 16
 529 0024 C745D800 		movl	$0, -40(%rbp)
 529      000000
 124:/home/xingli/share/LiteOS_Lab/network/mqtt/paho_mqtt/paho/MQTTClient-C/src/MQTTClient.c ****     int len = 0;
 530              		.loc 1 124 9
 531 002b C745E400 		movl	$0, -28(%rbp)
 531      000000
 125:/home/xingli/share/LiteOS_Lab/network/mqtt/paho_mqtt/paho/MQTTClient-C/src/MQTTClient.c ****     int rem_len = 0;
 532              		.loc 1 125 9
 533 0032 C745DC00 		movl	$0, -36(%rbp)
 533      000000
 126:/home/xingli/share/LiteOS_Lab/network/mqtt/paho_mqtt/paho/MQTTClient-C/src/MQTTClient.c **** 
 127:/home/xingli/share/LiteOS_Lab/network/mqtt/paho_mqtt/paho/MQTTClient-C/src/MQTTClient.c ****     /* 1. read the header byte.  This has the packet type in it */
 128:/home/xingli/share/LiteOS_Lab/network/mqtt/paho_mqtt/paho/MQTTClient-C/src/MQTTClient.c ****     int rc = c->ipstack->mqttread(c->ipstack, c->readbuf, 1, TimerLeftMS(timer));
 534              		.loc 1 128 15
 535 0039 488B45C8 		movq	-56(%rbp), %rax
 536 003d 488B8030 		movq	304(%rax), %rax
 536      010000
 537              		.loc 1 128 24
 538 0044 488B5848 		movq	72(%rax), %rbx
 539              		.loc 1 128 14
 540 0048 488B45C0 		movq	-64(%rbp), %rax
 541 004c 4889C7   		movq	%rax, %rdi
 542 004f E8000000 		call	osal_loop_timer_left@PLT
GAS LISTING /tmp/ccgk3rzZ.s 			page 14


 542      00
 543 0054 89C2     		movl	%eax, %edx
 544 0056 488B45C8 		movq	-56(%rbp), %rax
 545 005a 488B7020 		movq	32(%rax), %rsi
 546              		.loc 1 128 36
 547 005e 488B45C8 		movq	-56(%rbp), %rax
 548 0062 488B8030 		movq	304(%rax), %rax
 548      010000
 549              		.loc 1 128 14
 550 0069 89D1     		movl	%edx, %ecx
 551 006b BA010000 		movl	$1, %edx
 551      00
 552 0070 4889C7   		movq	%rax, %rdi
 553 0073 FFD3     		call	*%rbx
 554              	.LVL2:
 555 0075 8945E0   		movl	%eax, -32(%rbp)
 129:/home/xingli/share/LiteOS_Lab/network/mqtt/paho_mqtt/paho/MQTTClient-C/src/MQTTClient.c ****     if (rc != 1)
 556              		.loc 1 129 8
 557 0078 837DE001 		cmpl	$1, -32(%rbp)
 558 007c 0F851601 		jne	.L44
 558      0000
 130:/home/xingli/share/LiteOS_Lab/network/mqtt/paho_mqtt/paho/MQTTClient-C/src/MQTTClient.c ****         goto exit;
 131:/home/xingli/share/LiteOS_Lab/network/mqtt/paho_mqtt/paho/MQTTClient-C/src/MQTTClient.c **** 
 132:/home/xingli/share/LiteOS_Lab/network/mqtt/paho_mqtt/paho/MQTTClient-C/src/MQTTClient.c ****     len = 1;
 559              		.loc 1 132 9
 560 0082 C745E401 		movl	$1, -28(%rbp)
 560      000000
 133:/home/xingli/share/LiteOS_Lab/network/mqtt/paho_mqtt/paho/MQTTClient-C/src/MQTTClient.c ****     /* 2. read the remaining length.  This is variable in itself */
 134:/home/xingli/share/LiteOS_Lab/network/mqtt/paho_mqtt/paho/MQTTClient-C/src/MQTTClient.c ****     decodePacket(c, &rem_len, TimerLeftMS(timer));
 561              		.loc 1 134 5
 562 0089 488B45C0 		movq	-64(%rbp), %rax
 563 008d 4889C7   		movq	%rax, %rdi
 564 0090 E8000000 		call	osal_loop_timer_left@PLT
 564      00
 565 0095 89C2     		movl	%eax, %edx
 566 0097 488D4DDC 		leaq	-36(%rbp), %rcx
 567 009b 488B45C8 		movq	-56(%rbp), %rax
 568 009f 4889CE   		movq	%rcx, %rsi
 569 00a2 4889C7   		movq	%rax, %rdi
 570 00a5 E8000000 		call	decodePacket
 570      00
 135:/home/xingli/share/LiteOS_Lab/network/mqtt/paho_mqtt/paho/MQTTClient-C/src/MQTTClient.c ****     len += MQTTPacket_encode(c->readbuf + 1, rem_len); /* put the original remaining length back in
 571              		.loc 1 135 12
 572 00aa 8B45DC   		movl	-36(%rbp), %eax
 573              		.loc 1 135 31
 574 00ad 488B55C8 		movq	-56(%rbp), %rdx
 575 00b1 488B5220 		movq	32(%rdx), %rdx
 576              		.loc 1 135 12
 577 00b5 4883C201 		addq	$1, %rdx
 578 00b9 89C6     		movl	%eax, %esi
 579 00bb 4889D7   		movq	%rdx, %rdi
 580 00be E8000000 		call	MQTTPacket_encode@PLT
 580      00
 581              		.loc 1 135 9
 582 00c3 0145E4   		addl	%eax, -28(%rbp)
 136:/home/xingli/share/LiteOS_Lab/network/mqtt/paho_mqtt/paho/MQTTClient-C/src/MQTTClient.c **** 
 137:/home/xingli/share/LiteOS_Lab/network/mqtt/paho_mqtt/paho/MQTTClient-C/src/MQTTClient.c ****     if (rem_len > (c->readbuf_size - len))
GAS LISTING /tmp/ccgk3rzZ.s 			page 15


 583              		.loc 1 137 17
 584 00c6 8B45DC   		movl	-36(%rbp), %eax
 585 00c9 4863D0   		movslq	%eax, %rdx
 586              		.loc 1 137 21
 587 00cc 488B45C8 		movq	-56(%rbp), %rax
 588 00d0 488B4810 		movq	16(%rax), %rcx
 589              		.loc 1 137 36
 590 00d4 8B45E4   		movl	-28(%rbp), %eax
 591 00d7 4898     		cltq
 592 00d9 4829C1   		subq	%rax, %rcx
 593 00dc 4889C8   		movq	%rcx, %rax
 594              		.loc 1 137 8
 595 00df 4839C2   		cmpq	%rax, %rdx
 596 00e2 760C     		jbe	.L40
 138:/home/xingli/share/LiteOS_Lab/network/mqtt/paho_mqtt/paho/MQTTClient-C/src/MQTTClient.c ****     {
 139:/home/xingli/share/LiteOS_Lab/network/mqtt/paho_mqtt/paho/MQTTClient-C/src/MQTTClient.c ****         rc = BUFFER_OVERFLOW;
 597              		.loc 1 139 12
 598 00e4 C745E0FE 		movl	$-2, -32(%rbp)
 598      FFFFFF
 140:/home/xingli/share/LiteOS_Lab/network/mqtt/paho_mqtt/paho/MQTTClient-C/src/MQTTClient.c ****         goto exit;
 599              		.loc 1 140 9
 600 00eb E9AC0000 		jmp	.L39
 600      00
 601              	.L40:
 141:/home/xingli/share/LiteOS_Lab/network/mqtt/paho_mqtt/paho/MQTTClient-C/src/MQTTClient.c ****     }
 142:/home/xingli/share/LiteOS_Lab/network/mqtt/paho_mqtt/paho/MQTTClient-C/src/MQTTClient.c **** 
 143:/home/xingli/share/LiteOS_Lab/network/mqtt/paho_mqtt/paho/MQTTClient-C/src/MQTTClient.c ****     /* 3. read the rest of the buffer using a callback to supply the rest of the data */
 144:/home/xingli/share/LiteOS_Lab/network/mqtt/paho_mqtt/paho/MQTTClient-C/src/MQTTClient.c ****     if (rem_len > 0 && (rc = c->ipstack->mqttread(c->ipstack, c->readbuf + len, rem_len, TimerLeftM
 602              		.loc 1 144 17
 603 00f0 8B45DC   		movl	-36(%rbp), %eax
 604              		.loc 1 144 8
 605 00f3 85C0     		testl	%eax, %eax
 606 00f5 7E5D     		jle	.L41
 607              		.loc 1 144 31 discriminator 1
 608 00f7 488B45C8 		movq	-56(%rbp), %rax
 609 00fb 488B8030 		movq	304(%rax), %rax
 609      010000
 610              		.loc 1 144 40 discriminator 1
 611 0102 488B5848 		movq	72(%rax), %rbx
 612              		.loc 1 144 30 discriminator 1
 613 0106 488B45C0 		movq	-64(%rbp), %rax
 614 010a 4889C7   		movq	%rax, %rdi
 615 010d E8000000 		call	osal_loop_timer_left@PLT
 615      00
 616 0112 89C1     		movl	%eax, %ecx
 617 0114 8B55DC   		movl	-36(%rbp), %edx
 618              		.loc 1 144 64 discriminator 1
 619 0117 488B45C8 		movq	-56(%rbp), %rax
 620 011b 488B7020 		movq	32(%rax), %rsi
 621              		.loc 1 144 30 discriminator 1
 622 011f 8B45E4   		movl	-28(%rbp), %eax
 623 0122 4898     		cltq
 624 0124 4801C6   		addq	%rax, %rsi
 625              		.loc 1 144 52 discriminator 1
 626 0127 488B45C8 		movq	-56(%rbp), %rax
 627 012b 488B8030 		movq	304(%rax), %rax
 627      010000
GAS LISTING /tmp/ccgk3rzZ.s 			page 16


 628              		.loc 1 144 30 discriminator 1
 629 0132 4889C7   		movq	%rax, %rdi
 630 0135 FFD3     		call	*%rbx
 631              	.LVL3:
 632              		.loc 1 144 110 discriminator 1
 633 0137 8B55DC   		movl	-36(%rbp), %edx
 634 013a 39D0     		cmpl	%edx, %eax
 635 013c 0F95C0   		setne	%al
 636              		.loc 1 144 28 discriminator 1
 637 013f 0FB6C0   		movzbl	%al, %eax
 638 0142 8945E0   		movl	%eax, -32(%rbp)
 639              		.loc 1 144 21 discriminator 1
 640 0145 837DE000 		cmpl	$0, -32(%rbp)
 641 0149 7409     		je	.L41
 145:/home/xingli/share/LiteOS_Lab/network/mqtt/paho_mqtt/paho/MQTTClient-C/src/MQTTClient.c ****         rc = 0;
 642              		.loc 1 145 12
 643 014b C745E000 		movl	$0, -32(%rbp)
 643      000000
 146:/home/xingli/share/LiteOS_Lab/network/mqtt/paho_mqtt/paho/MQTTClient-C/src/MQTTClient.c ****         goto exit;
 644              		.loc 1 146 9
 645 0152 EB48     		jmp	.L39
 646              	.L41:
 147:/home/xingli/share/LiteOS_Lab/network/mqtt/paho_mqtt/paho/MQTTClient-C/src/MQTTClient.c ****     }
 148:/home/xingli/share/LiteOS_Lab/network/mqtt/paho_mqtt/paho/MQTTClient-C/src/MQTTClient.c **** 
 149:/home/xingli/share/LiteOS_Lab/network/mqtt/paho_mqtt/paho/MQTTClient-C/src/MQTTClient.c ****     header.byte = c->readbuf[0];
 647              		.loc 1 149 20
 648 0154 488B45C8 		movq	-56(%rbp), %rax
 649 0158 488B4020 		movq	32(%rax), %rax
 650              		.loc 1 149 29
 651 015c 0FB600   		movzbl	(%rax), %eax
 652              		.loc 1 149 17
 653 015f 8845D8   		movb	%al, -40(%rbp)
 150:/home/xingli/share/LiteOS_Lab/network/mqtt/paho_mqtt/paho/MQTTClient-C/src/MQTTClient.c ****     rc = header.bits.type;
 654              		.loc 1 150 21
 655 0162 0FB645D8 		movzbl	-40(%rbp), %eax
 656 0166 C0E804   		shrb	$4, %al
 657              		.loc 1 150 8
 658 0169 0FB6C0   		movzbl	%al, %eax
 659 016c 8945E0   		movl	%eax, -32(%rbp)
 151:/home/xingli/share/LiteOS_Lab/network/mqtt/paho_mqtt/paho/MQTTClient-C/src/MQTTClient.c ****     if (c->keepAliveInterval > 0)
 660              		.loc 1 151 10
 661 016f 488B45C8 		movq	-56(%rbp), %rax
 662 0173 8B4028   		movl	40(%rax), %eax
 663              		.loc 1 151 8
 664 0176 85C0     		testl	%eax, %eax
 665 0178 7421     		je	.L45
 152:/home/xingli/share/LiteOS_Lab/network/mqtt/paho_mqtt/paho/MQTTClient-C/src/MQTTClient.c ****         TimerCountdown(&c->last_received, c->keepAliveInterval); // record the fact that we have su
 666              		.loc 1 152 9
 667 017a 488B45C8 		movq	-56(%rbp), %rax
 668 017e 8B4028   		movl	40(%rax), %eax
 669 0181 488B55C8 		movq	-56(%rbp), %rdx
 670 0185 4881C240 		addq	$320, %rdx
 670      010000
 671 018c 89C6     		movl	%eax, %esi
 672 018e 4889D7   		movq	%rdx, %rdi
 673 0191 E8000000 		call	osal_loop_timer_count_down@PLT
 673      00
GAS LISTING /tmp/ccgk3rzZ.s 			page 17


 674 0196 EB04     		jmp	.L39
 675              	.L44:
 130:/home/xingli/share/LiteOS_Lab/network/mqtt/paho_mqtt/paho/MQTTClient-C/src/MQTTClient.c **** 
 676              		.loc 1 130 9
 677 0198 90       		nop
 678 0199 EB01     		jmp	.L39
 679              	.L45:
 153:/home/xingli/share/LiteOS_Lab/network/mqtt/paho_mqtt/paho/MQTTClient-C/src/MQTTClient.c **** exit:
 680              		.loc 1 153 1
 681 019b 90       		nop
 682              	.L39:
 154:/home/xingli/share/LiteOS_Lab/network/mqtt/paho_mqtt/paho/MQTTClient-C/src/MQTTClient.c ****     return rc;
 683              		.loc 1 154 12
 684 019c 8B45E0   		movl	-32(%rbp), %eax
 155:/home/xingli/share/LiteOS_Lab/network/mqtt/paho_mqtt/paho/MQTTClient-C/src/MQTTClient.c **** }
 685              		.loc 1 155 1
 686 019f 488B5DE8 		movq	-24(%rbp), %rbx
 687 01a3 6448331C 		xorq	%fs:40, %rbx
 687      25280000 
 687      00
 688 01ac 7405     		je	.L43
 689 01ae E8000000 		call	__stack_chk_fail@PLT
 689      00
 690              	.L43:
 691 01b3 4883C438 		addq	$56, %rsp
 692 01b7 5B       		popq	%rbx
 693 01b8 5D       		popq	%rbp
 694              	.LCFI20:
 695              		.cfi_def_cfa 7, 8
 696 01b9 C3       		ret
 697              		.cfi_endproc
 698              	.LFE13:
 700              		.section	.text.MQTTTopicMatched,"ax",@progbits
 702              	MQTTTopicMatched:
 703              	.LFB14:
 156:/home/xingli/share/LiteOS_Lab/network/mqtt/paho_mqtt/paho/MQTTClient-C/src/MQTTClient.c **** 
 157:/home/xingli/share/LiteOS_Lab/network/mqtt/paho_mqtt/paho/MQTTClient-C/src/MQTTClient.c **** /**
 158:/home/xingli/share/LiteOS_Lab/network/mqtt/paho_mqtt/paho/MQTTClient-C/src/MQTTClient.c ****  * Copyright (c) 2009-2018 Roger Light <roger@atchoo.org>
 159:/home/xingli/share/LiteOS_Lab/network/mqtt/paho_mqtt/paho/MQTTClient-C/src/MQTTClient.c ****  * licensed under the Eclipse Public License 1.0 and the Eclipse Distribution License 1.0
 160:/home/xingli/share/LiteOS_Lab/network/mqtt/paho_mqtt/paho/MQTTClient-C/src/MQTTClient.c ****  */
 161:/home/xingli/share/LiteOS_Lab/network/mqtt/paho_mqtt/paho/MQTTClient-C/src/MQTTClient.c **** static int MQTTTopicMatched(const char *sub, MQTTString *topic_name, char *result)
 162:/home/xingli/share/LiteOS_Lab/network/mqtt/paho_mqtt/paho/MQTTClient-C/src/MQTTClient.c **** {
 704              		.loc 1 162 1
 705              		.cfi_startproc
 706 0000 F30F1EFA 		endbr64
 707 0004 55       		pushq	%rbp
 708              	.LCFI21:
 709              		.cfi_def_cfa_offset 16
 710              		.cfi_offset 6, -16
 711 0005 4889E5   		movq	%rsp, %rbp
 712              	.LCFI22:
 713              		.cfi_def_cfa_register 6
 714 0008 4883EC50 		subq	$80, %rsp
 715 000c 48897DC8 		movq	%rdi, -56(%rbp)
 716 0010 488975C0 		movq	%rsi, -64(%rbp)
 717 0014 488955B8 		movq	%rdx, -72(%rbp)
 718              		.loc 1 162 1
GAS LISTING /tmp/ccgk3rzZ.s 			page 18


 719 0018 64488B04 		movq	%fs:40, %rax
 719      25280000 
 719      00
 720 0021 488945F8 		movq	%rax, -8(%rbp)
 721 0025 31C0     		xorl	%eax, %eax
 163:/home/xingli/share/LiteOS_Lab/network/mqtt/paho_mqtt/paho/MQTTClient-C/src/MQTTClient.c ****     int sublen, topiclen;
 164:/home/xingli/share/LiteOS_Lab/network/mqtt/paho_mqtt/paho/MQTTClient-C/src/MQTTClient.c ****     int spos, tpos;
 165:/home/xingli/share/LiteOS_Lab/network/mqtt/paho_mqtt/paho/MQTTClient-C/src/MQTTClient.c ****     char multilevel_wildcard = 0;
 722              		.loc 1 165 10
 723 0027 C645DF00 		movb	$0, -33(%rbp)
 166:/home/xingli/share/LiteOS_Lab/network/mqtt/paho_mqtt/paho/MQTTClient-C/src/MQTTClient.c ****     char *topic;
 167:/home/xingli/share/LiteOS_Lab/network/mqtt/paho_mqtt/paho/MQTTClient-C/src/MQTTClient.c **** 
 168:/home/xingli/share/LiteOS_Lab/network/mqtt/paho_mqtt/paho/MQTTClient-C/src/MQTTClient.c ****     if(!result)
 724              		.loc 1 168 7
 725 002b 48837DB8 		cmpq	$0, -72(%rbp)
 725      00
 726 0030 750A     		jne	.L47
 169:/home/xingli/share/LiteOS_Lab/network/mqtt/paho_mqtt/paho/MQTTClient-C/src/MQTTClient.c ****         return -1;
 727              		.loc 1 169 16
 728 0032 B8FFFFFF 		movl	$-1, %eax
 728      FF
 729 0037 E9C30300 		jmp	.L48
 729      00
 730              	.L47:
 170:/home/xingli/share/LiteOS_Lab/network/mqtt/paho_mqtt/paho/MQTTClient-C/src/MQTTClient.c ****     *result = 0;
 731              		.loc 1 170 13
 732 003c 488B45B8 		movq	-72(%rbp), %rax
 733 0040 C60000   		movb	$0, (%rax)
 171:/home/xingli/share/LiteOS_Lab/network/mqtt/paho_mqtt/paho/MQTTClient-C/src/MQTTClient.c **** 
 172:/home/xingli/share/LiteOS_Lab/network/mqtt/paho_mqtt/paho/MQTTClient-C/src/MQTTClient.c ****     if(!sub || !topic_name)
 734              		.loc 1 172 7
 735 0043 48837DC8 		cmpq	$0, -56(%rbp)
 735      00
 736 0048 7407     		je	.L49
 737              		.loc 1 172 13 discriminator 1
 738 004a 48837DC0 		cmpq	$0, -64(%rbp)
 738      00
 739 004f 750A     		jne	.L50
 740              	.L49:
 173:/home/xingli/share/LiteOS_Lab/network/mqtt/paho_mqtt/paho/MQTTClient-C/src/MQTTClient.c ****     {
 174:/home/xingli/share/LiteOS_Lab/network/mqtt/paho_mqtt/paho/MQTTClient-C/src/MQTTClient.c ****         return -1;
 741              		.loc 1 174 16
 742 0051 B8FFFFFF 		movl	$-1, %eax
 742      FF
 743 0056 E9A40300 		jmp	.L48
 743      00
 744              	.L50:
 175:/home/xingli/share/LiteOS_Lab/network/mqtt/paho_mqtt/paho/MQTTClient-C/src/MQTTClient.c ****     }
 176:/home/xingli/share/LiteOS_Lab/network/mqtt/paho_mqtt/paho/MQTTClient-C/src/MQTTClient.c **** 
 177:/home/xingli/share/LiteOS_Lab/network/mqtt/paho_mqtt/paho/MQTTClient-C/src/MQTTClient.c ****     sublen = strlen(sub);
 745              		.loc 1 177 14
 746 005b 488B45C8 		movq	-56(%rbp), %rax
 747 005f 4889C7   		movq	%rax, %rdi
 748 0062 E8000000 		call	strlen@PLT
 748      00
 749              		.loc 1 177 12
 750 0067 8945EC   		movl	%eax, -20(%rbp)
GAS LISTING /tmp/ccgk3rzZ.s 			page 19


 178:/home/xingli/share/LiteOS_Lab/network/mqtt/paho_mqtt/paho/MQTTClient-C/src/MQTTClient.c **** 
 179:/home/xingli/share/LiteOS_Lab/network/mqtt/paho_mqtt/paho/MQTTClient-C/src/MQTTClient.c ****     if(topic_name->cstring)
 751              		.loc 1 179 18
 752 006a 488B45C0 		movq	-64(%rbp), %rax
 753 006e 488B00   		movq	(%rax), %rax
 754              		.loc 1 179 7
 755 0071 4885C0   		testq	%rax, %rax
 756 0074 741F     		je	.L51
 180:/home/xingli/share/LiteOS_Lab/network/mqtt/paho_mqtt/paho/MQTTClient-C/src/MQTTClient.c ****     {
 181:/home/xingli/share/LiteOS_Lab/network/mqtt/paho_mqtt/paho/MQTTClient-C/src/MQTTClient.c ****         topic = topic_name->cstring;
 757              		.loc 1 181 15
 758 0076 488B45C0 		movq	-64(%rbp), %rax
 759 007a 488B00   		movq	(%rax), %rax
 760 007d 488945F0 		movq	%rax, -16(%rbp)
 182:/home/xingli/share/LiteOS_Lab/network/mqtt/paho_mqtt/paho/MQTTClient-C/src/MQTTClient.c ****         topiclen = strlen(topic_name->cstring);
 761              		.loc 1 182 37
 762 0081 488B45C0 		movq	-64(%rbp), %rax
 763 0085 488B00   		movq	(%rax), %rax
 764              		.loc 1 182 20
 765 0088 4889C7   		movq	%rax, %rdi
 766 008b E8000000 		call	strlen@PLT
 766      00
 767              		.loc 1 182 18
 768 0090 8945E0   		movl	%eax, -32(%rbp)
 769 0093 EB16     		jmp	.L52
 770              	.L51:
 183:/home/xingli/share/LiteOS_Lab/network/mqtt/paho_mqtt/paho/MQTTClient-C/src/MQTTClient.c ****     }
 184:/home/xingli/share/LiteOS_Lab/network/mqtt/paho_mqtt/paho/MQTTClient-C/src/MQTTClient.c ****     else
 185:/home/xingli/share/LiteOS_Lab/network/mqtt/paho_mqtt/paho/MQTTClient-C/src/MQTTClient.c ****     {
 186:/home/xingli/share/LiteOS_Lab/network/mqtt/paho_mqtt/paho/MQTTClient-C/src/MQTTClient.c ****         topic = topic_name->lenstring.data;
 771              		.loc 1 186 15
 772 0095 488B45C0 		movq	-64(%rbp), %rax
 773 0099 488B4010 		movq	16(%rax), %rax
 774 009d 488945F0 		movq	%rax, -16(%rbp)
 187:/home/xingli/share/LiteOS_Lab/network/mqtt/paho_mqtt/paho/MQTTClient-C/src/MQTTClient.c ****         topiclen = topic_name->lenstring.len;
 775              		.loc 1 187 18
 776 00a1 488B45C0 		movq	-64(%rbp), %rax
 777 00a5 8B4008   		movl	8(%rax), %eax
 778 00a8 8945E0   		movl	%eax, -32(%rbp)
 779              	.L52:
 188:/home/xingli/share/LiteOS_Lab/network/mqtt/paho_mqtt/paho/MQTTClient-C/src/MQTTClient.c ****     }
 189:/home/xingli/share/LiteOS_Lab/network/mqtt/paho_mqtt/paho/MQTTClient-C/src/MQTTClient.c **** 
 190:/home/xingli/share/LiteOS_Lab/network/mqtt/paho_mqtt/paho/MQTTClient-C/src/MQTTClient.c ****     if(!sublen || !topiclen)
 780              		.loc 1 190 7
 781 00ab 837DEC00 		cmpl	$0, -20(%rbp)
 782 00af 7406     		je	.L53
 783              		.loc 1 190 16 discriminator 1
 784 00b1 837DE000 		cmpl	$0, -32(%rbp)
 785 00b5 7511     		jne	.L54
 786              	.L53:
 191:/home/xingli/share/LiteOS_Lab/network/mqtt/paho_mqtt/paho/MQTTClient-C/src/MQTTClient.c ****     {
 192:/home/xingli/share/LiteOS_Lab/network/mqtt/paho_mqtt/paho/MQTTClient-C/src/MQTTClient.c ****         *result = 0;
 787              		.loc 1 192 17
 788 00b7 488B45B8 		movq	-72(%rbp), %rax
 789 00bb C60000   		movb	$0, (%rax)
 193:/home/xingli/share/LiteOS_Lab/network/mqtt/paho_mqtt/paho/MQTTClient-C/src/MQTTClient.c ****         return -1;
 790              		.loc 1 193 16
GAS LISTING /tmp/ccgk3rzZ.s 			page 20


 791 00be B8FFFFFF 		movl	$-1, %eax
 791      FF
 792 00c3 E9370300 		jmp	.L48
 792      00
 793              	.L54:
 194:/home/xingli/share/LiteOS_Lab/network/mqtt/paho_mqtt/paho/MQTTClient-C/src/MQTTClient.c ****     }
 195:/home/xingli/share/LiteOS_Lab/network/mqtt/paho_mqtt/paho/MQTTClient-C/src/MQTTClient.c **** 
 196:/home/xingli/share/LiteOS_Lab/network/mqtt/paho_mqtt/paho/MQTTClient-C/src/MQTTClient.c ****     if(sublen && topiclen)
 794              		.loc 1 196 7
 795 00c8 837DEC00 		cmpl	$0, -20(%rbp)
 796 00cc 743C     		je	.L55
 797              		.loc 1 196 15 discriminator 1
 798 00ce 837DE000 		cmpl	$0, -32(%rbp)
 799 00d2 7436     		je	.L55
 197:/home/xingli/share/LiteOS_Lab/network/mqtt/paho_mqtt/paho/MQTTClient-C/src/MQTTClient.c ****     {
 198:/home/xingli/share/LiteOS_Lab/network/mqtt/paho_mqtt/paho/MQTTClient-C/src/MQTTClient.c ****         if((sub[0] == '$' && topic[0] != '$')
 800              		.loc 1 198 16
 801 00d4 488B45C8 		movq	-56(%rbp), %rax
 802 00d8 0FB600   		movzbl	(%rax), %eax
 803              		.loc 1 198 11
 804 00db 3C24     		cmpb	$36, %al
 805 00dd 750B     		jne	.L56
 806              		.loc 1 198 35 discriminator 1
 807 00df 488B45F0 		movq	-16(%rbp), %rax
 808 00e3 0FB600   		movzbl	(%rax), %eax
 809              		.loc 1 198 27 discriminator 1
 810 00e6 3C24     		cmpb	$36, %al
 811 00e8 7516     		jne	.L57
 812              	.L56:
 199:/home/xingli/share/LiteOS_Lab/network/mqtt/paho_mqtt/paho/MQTTClient-C/src/MQTTClient.c ****                 || (topic[0] == '$' && sub[0] != '$'))
 813              		.loc 1 199 26
 814 00ea 488B45F0 		movq	-16(%rbp), %rax
 815 00ee 0FB600   		movzbl	(%rax), %eax
 816              		.loc 1 199 17
 817 00f1 3C24     		cmpb	$36, %al
 818 00f3 7515     		jne	.L55
 819              		.loc 1 199 43 discriminator 1
 820 00f5 488B45C8 		movq	-56(%rbp), %rax
 821 00f9 0FB600   		movzbl	(%rax), %eax
 822              		.loc 1 199 37 discriminator 1
 823 00fc 3C24     		cmpb	$36, %al
 824 00fe 740A     		je	.L55
 825              	.L57:
 200:/home/xingli/share/LiteOS_Lab/network/mqtt/paho_mqtt/paho/MQTTClient-C/src/MQTTClient.c ****         {
 201:/home/xingli/share/LiteOS_Lab/network/mqtt/paho_mqtt/paho/MQTTClient-C/src/MQTTClient.c ****             return 0;
 826              		.loc 1 201 20
 827 0100 B8000000 		movl	$0, %eax
 827      00
 828 0105 E9F50200 		jmp	.L48
 828      00
 829              	.L55:
 202:/home/xingli/share/LiteOS_Lab/network/mqtt/paho_mqtt/paho/MQTTClient-C/src/MQTTClient.c ****         }
 203:/home/xingli/share/LiteOS_Lab/network/mqtt/paho_mqtt/paho/MQTTClient-C/src/MQTTClient.c ****     }
 204:/home/xingli/share/LiteOS_Lab/network/mqtt/paho_mqtt/paho/MQTTClient-C/src/MQTTClient.c **** 
 205:/home/xingli/share/LiteOS_Lab/network/mqtt/paho_mqtt/paho/MQTTClient-C/src/MQTTClient.c ****     spos = 0;
 830              		.loc 1 205 10
 831 010a C745E400 		movl	$0, -28(%rbp)
GAS LISTING /tmp/ccgk3rzZ.s 			page 21


 831      000000
 206:/home/xingli/share/LiteOS_Lab/network/mqtt/paho_mqtt/paho/MQTTClient-C/src/MQTTClient.c ****     tpos = 0;
 832              		.loc 1 206 10
 833 0111 C745E800 		movl	$0, -24(%rbp)
 833      000000
 207:/home/xingli/share/LiteOS_Lab/network/mqtt/paho_mqtt/paho/MQTTClient-C/src/MQTTClient.c **** 
 208:/home/xingli/share/LiteOS_Lab/network/mqtt/paho_mqtt/paho/MQTTClient-C/src/MQTTClient.c ****     while(spos < sublen && tpos <= topiclen)
 834              		.loc 1 208 10
 835 0118 E9AC0200 		jmp	.L58
 835      00
 836              	.L74:
 209:/home/xingli/share/LiteOS_Lab/network/mqtt/paho_mqtt/paho/MQTTClient-C/src/MQTTClient.c ****     {
 210:/home/xingli/share/LiteOS_Lab/network/mqtt/paho_mqtt/paho/MQTTClient-C/src/MQTTClient.c ****         if(sub[spos] == topic[tpos])
 837              		.loc 1 210 15
 838 011d 8B45E4   		movl	-28(%rbp), %eax
 839 0120 4863D0   		movslq	%eax, %rdx
 840 0123 488B45C8 		movq	-56(%rbp), %rax
 841 0127 4801D0   		addq	%rdx, %rax
 842 012a 0FB610   		movzbl	(%rax), %edx
 843              		.loc 1 210 30
 844 012d 8B45E8   		movl	-24(%rbp), %eax
 845 0130 4863C8   		movslq	%eax, %rcx
 846 0133 488B45F0 		movq	-16(%rbp), %rax
 847 0137 4801C8   		addq	%rcx, %rax
 848              		.loc 1 210 22
 849 013a 0FB600   		movzbl	(%rax), %eax
 850              		.loc 1 210 11
 851 013d 38C2     		cmpb	%al, %dl
 852 013f 0F85F100 		jne	.L59
 852      0000
 211:/home/xingli/share/LiteOS_Lab/network/mqtt/paho_mqtt/paho/MQTTClient-C/src/MQTTClient.c ****         {
 212:/home/xingli/share/LiteOS_Lab/network/mqtt/paho_mqtt/paho/MQTTClient-C/src/MQTTClient.c ****             if(tpos == topiclen - 1)
 853              		.loc 1 212 33
 854 0145 8B45E0   		movl	-32(%rbp), %eax
 855 0148 83E801   		subl	$1, %eax
 856              		.loc 1 212 15
 857 014b 3945E8   		cmpl	%eax, -24(%rbp)
 858 014e 754E     		jne	.L60
 213:/home/xingli/share/LiteOS_Lab/network/mqtt/paho_mqtt/paho/MQTTClient-C/src/MQTTClient.c ****             {
 214:/home/xingli/share/LiteOS_Lab/network/mqtt/paho_mqtt/paho/MQTTClient-C/src/MQTTClient.c ****                 /* Check for e.g. foo matching foo/# */
 215:/home/xingli/share/LiteOS_Lab/network/mqtt/paho_mqtt/paho/MQTTClient-C/src/MQTTClient.c ****                 if(spos == sublen - 3 && sub[spos + 1] == '/' && sub[spos + 2] == '#')
 859              		.loc 1 215 35
 860 0150 8B45EC   		movl	-20(%rbp), %eax
 861 0153 83E803   		subl	$3, %eax
 862              		.loc 1 215 19
 863 0156 3945E4   		cmpl	%eax, -28(%rbp)
 864 0159 7543     		jne	.L60
 865              		.loc 1 215 45 discriminator 1
 866 015b 8B45E4   		movl	-28(%rbp), %eax
 867 015e 4898     		cltq
 868 0160 488D5001 		leaq	1(%rax), %rdx
 869 0164 488B45C8 		movq	-56(%rbp), %rax
 870 0168 4801D0   		addq	%rdx, %rax
 871 016b 0FB600   		movzbl	(%rax), %eax
 872              		.loc 1 215 39 discriminator 1
 873 016e 3C2F     		cmpb	$47, %al
 874 0170 752C     		jne	.L60
GAS LISTING /tmp/ccgk3rzZ.s 			page 22


 875              		.loc 1 215 69 discriminator 2
 876 0172 8B45E4   		movl	-28(%rbp), %eax
 877 0175 4898     		cltq
 878 0177 488D5002 		leaq	2(%rax), %rdx
 879 017b 488B45C8 		movq	-56(%rbp), %rax
 880 017f 4801D0   		addq	%rdx, %rax
 881 0182 0FB600   		movzbl	(%rax), %eax
 882              		.loc 1 215 63 discriminator 2
 883 0185 3C23     		cmpb	$35, %al
 884 0187 7515     		jne	.L60
 216:/home/xingli/share/LiteOS_Lab/network/mqtt/paho_mqtt/paho/MQTTClient-C/src/MQTTClient.c ****                 {
 217:/home/xingli/share/LiteOS_Lab/network/mqtt/paho_mqtt/paho/MQTTClient-C/src/MQTTClient.c ****                     *result = 1;
 885              		.loc 1 217 29
 886 0189 488B45B8 		movq	-72(%rbp), %rax
 887 018d C60001   		movb	$1, (%rax)
 218:/home/xingli/share/LiteOS_Lab/network/mqtt/paho_mqtt/paho/MQTTClient-C/src/MQTTClient.c ****                     multilevel_wildcard = 1;
 888              		.loc 1 218 41
 889 0190 C645DF01 		movb	$1, -33(%rbp)
 219:/home/xingli/share/LiteOS_Lab/network/mqtt/paho_mqtt/paho/MQTTClient-C/src/MQTTClient.c ****                     return 0;
 890              		.loc 1 219 28
 891 0194 B8000000 		movl	$0, %eax
 891      00
 892 0199 E9610200 		jmp	.L48
 892      00
 893              	.L60:
 220:/home/xingli/share/LiteOS_Lab/network/mqtt/paho_mqtt/paho/MQTTClient-C/src/MQTTClient.c ****                 }
 221:/home/xingli/share/LiteOS_Lab/network/mqtt/paho_mqtt/paho/MQTTClient-C/src/MQTTClient.c ****             }
 222:/home/xingli/share/LiteOS_Lab/network/mqtt/paho_mqtt/paho/MQTTClient-C/src/MQTTClient.c ****             spos++;
 894              		.loc 1 222 17
 895 019e 8345E401 		addl	$1, -28(%rbp)
 223:/home/xingli/share/LiteOS_Lab/network/mqtt/paho_mqtt/paho/MQTTClient-C/src/MQTTClient.c ****             tpos++;
 896              		.loc 1 223 17
 897 01a2 8345E801 		addl	$1, -24(%rbp)
 224:/home/xingli/share/LiteOS_Lab/network/mqtt/paho_mqtt/paho/MQTTClient-C/src/MQTTClient.c ****             if(spos == sublen && tpos == topiclen)
 898              		.loc 1 224 15
 899 01a6 8B45E4   		movl	-28(%rbp), %eax
 900 01a9 3B45EC   		cmpl	-20(%rbp), %eax
 901 01ac 7519     		jne	.L61
 902              		.loc 1 224 31 discriminator 1
 903 01ae 8B45E8   		movl	-24(%rbp), %eax
 904 01b1 3B45E0   		cmpl	-32(%rbp), %eax
 905 01b4 7511     		jne	.L61
 225:/home/xingli/share/LiteOS_Lab/network/mqtt/paho_mqtt/paho/MQTTClient-C/src/MQTTClient.c ****             {
 226:/home/xingli/share/LiteOS_Lab/network/mqtt/paho_mqtt/paho/MQTTClient-C/src/MQTTClient.c ****                 *result = 1;
 906              		.loc 1 226 25
 907 01b6 488B45B8 		movq	-72(%rbp), %rax
 908 01ba C60001   		movb	$1, (%rax)
 227:/home/xingli/share/LiteOS_Lab/network/mqtt/paho_mqtt/paho/MQTTClient-C/src/MQTTClient.c ****                 return 0;
 909              		.loc 1 227 24
 910 01bd B8000000 		movl	$0, %eax
 910      00
 911 01c2 E9380200 		jmp	.L48
 911      00
 912              	.L61:
 228:/home/xingli/share/LiteOS_Lab/network/mqtt/paho_mqtt/paho/MQTTClient-C/src/MQTTClient.c ****             }
 229:/home/xingli/share/LiteOS_Lab/network/mqtt/paho_mqtt/paho/MQTTClient-C/src/MQTTClient.c ****             else if(tpos == topiclen && spos == sublen - 1 && sub[spos] == '+')
 913              		.loc 1 229 20
GAS LISTING /tmp/ccgk3rzZ.s 			page 23


 914 01c7 8B45E8   		movl	-24(%rbp), %eax
 915 01ca 3B45E0   		cmpl	-32(%rbp), %eax
 916 01cd 0F85F601 		jne	.L58
 916      0000
 917              		.loc 1 229 56 discriminator 1
 918 01d3 8B45EC   		movl	-20(%rbp), %eax
 919 01d6 83E801   		subl	$1, %eax
 920              		.loc 1 229 38 discriminator 1
 921 01d9 3945E4   		cmpl	%eax, -28(%rbp)
 922 01dc 0F85E701 		jne	.L58
 922      0000
 923              		.loc 1 229 66 discriminator 2
 924 01e2 8B45E4   		movl	-28(%rbp), %eax
 925 01e5 4863D0   		movslq	%eax, %rdx
 926 01e8 488B45C8 		movq	-56(%rbp), %rax
 927 01ec 4801D0   		addq	%rdx, %rax
 928 01ef 0FB600   		movzbl	(%rax), %eax
 929              		.loc 1 229 60 discriminator 2
 930 01f2 3C2B     		cmpb	$43, %al
 931 01f4 0F85CF01 		jne	.L58
 931      0000
 230:/home/xingli/share/LiteOS_Lab/network/mqtt/paho_mqtt/paho/MQTTClient-C/src/MQTTClient.c ****             {
 231:/home/xingli/share/LiteOS_Lab/network/mqtt/paho_mqtt/paho/MQTTClient-C/src/MQTTClient.c ****                 if(spos > 0 && sub[spos - 1] != '/')
 932              		.loc 1 231 19
 933 01fa 837DE400 		cmpl	$0, -28(%rbp)
 934 01fe 7E21     		jle	.L62
 935              		.loc 1 231 35 discriminator 1
 936 0200 8B45E4   		movl	-28(%rbp), %eax
 937 0203 4898     		cltq
 938 0205 488D50FF 		leaq	-1(%rax), %rdx
 939 0209 488B45C8 		movq	-56(%rbp), %rax
 940 020d 4801D0   		addq	%rdx, %rax
 941 0210 0FB600   		movzbl	(%rax), %eax
 942              		.loc 1 231 29 discriminator 1
 943 0213 3C2F     		cmpb	$47, %al
 944 0215 740A     		je	.L62
 232:/home/xingli/share/LiteOS_Lab/network/mqtt/paho_mqtt/paho/MQTTClient-C/src/MQTTClient.c ****                 {
 233:/home/xingli/share/LiteOS_Lab/network/mqtt/paho_mqtt/paho/MQTTClient-C/src/MQTTClient.c ****                     return -1;
 945              		.loc 1 233 28
 946 0217 B8FFFFFF 		movl	$-1, %eax
 946      FF
 947 021c E9DE0100 		jmp	.L48
 947      00
 948              	.L62:
 234:/home/xingli/share/LiteOS_Lab/network/mqtt/paho_mqtt/paho/MQTTClient-C/src/MQTTClient.c ****                 }
 235:/home/xingli/share/LiteOS_Lab/network/mqtt/paho_mqtt/paho/MQTTClient-C/src/MQTTClient.c ****                 spos++;
 949              		.loc 1 235 21
 950 0221 8345E401 		addl	$1, -28(%rbp)
 236:/home/xingli/share/LiteOS_Lab/network/mqtt/paho_mqtt/paho/MQTTClient-C/src/MQTTClient.c ****                 *result = 1;
 951              		.loc 1 236 25
 952 0225 488B45B8 		movq	-72(%rbp), %rax
 953 0229 C60001   		movb	$1, (%rax)
 237:/home/xingli/share/LiteOS_Lab/network/mqtt/paho_mqtt/paho/MQTTClient-C/src/MQTTClient.c ****                 return 0;
 954              		.loc 1 237 24
 955 022c B8000000 		movl	$0, %eax
 955      00
 956 0231 E9C90100 		jmp	.L48
GAS LISTING /tmp/ccgk3rzZ.s 			page 24


 956      00
 957              	.L59:
 238:/home/xingli/share/LiteOS_Lab/network/mqtt/paho_mqtt/paho/MQTTClient-C/src/MQTTClient.c ****             }
 239:/home/xingli/share/LiteOS_Lab/network/mqtt/paho_mqtt/paho/MQTTClient-C/src/MQTTClient.c ****         }
 240:/home/xingli/share/LiteOS_Lab/network/mqtt/paho_mqtt/paho/MQTTClient-C/src/MQTTClient.c ****         else
 241:/home/xingli/share/LiteOS_Lab/network/mqtt/paho_mqtt/paho/MQTTClient-C/src/MQTTClient.c ****         {
 242:/home/xingli/share/LiteOS_Lab/network/mqtt/paho_mqtt/paho/MQTTClient-C/src/MQTTClient.c ****             if(sub[spos] == '+')
 958              		.loc 1 242 19
 959 0236 8B45E4   		movl	-28(%rbp), %eax
 960 0239 4863D0   		movslq	%eax, %rdx
 961 023c 488B45C8 		movq	-56(%rbp), %rax
 962 0240 4801D0   		addq	%rdx, %rax
 963 0243 0FB600   		movzbl	(%rax), %eax
 964              		.loc 1 242 15
 965 0246 3C2B     		cmpb	$43, %al
 966 0248 0F85A200 		jne	.L63
 966      0000
 243:/home/xingli/share/LiteOS_Lab/network/mqtt/paho_mqtt/paho/MQTTClient-C/src/MQTTClient.c ****             {
 244:/home/xingli/share/LiteOS_Lab/network/mqtt/paho_mqtt/paho/MQTTClient-C/src/MQTTClient.c ****                 /* Check for bad "+foo" or "a/+foo" subscription */
 245:/home/xingli/share/LiteOS_Lab/network/mqtt/paho_mqtt/paho/MQTTClient-C/src/MQTTClient.c ****                 if(spos > 0 && sub[spos - 1] != '/')
 967              		.loc 1 245 19
 968 024e 837DE400 		cmpl	$0, -28(%rbp)
 969 0252 7E21     		jle	.L64
 970              		.loc 1 245 35 discriminator 1
 971 0254 8B45E4   		movl	-28(%rbp), %eax
 972 0257 4898     		cltq
 973 0259 488D50FF 		leaq	-1(%rax), %rdx
 974 025d 488B45C8 		movq	-56(%rbp), %rax
 975 0261 4801D0   		addq	%rdx, %rax
 976 0264 0FB600   		movzbl	(%rax), %eax
 977              		.loc 1 245 29 discriminator 1
 978 0267 3C2F     		cmpb	$47, %al
 979 0269 740A     		je	.L64
 246:/home/xingli/share/LiteOS_Lab/network/mqtt/paho_mqtt/paho/MQTTClient-C/src/MQTTClient.c ****                 {
 247:/home/xingli/share/LiteOS_Lab/network/mqtt/paho_mqtt/paho/MQTTClient-C/src/MQTTClient.c ****                     return -1;
 980              		.loc 1 247 28
 981 026b B8FFFFFF 		movl	$-1, %eax
 981      FF
 982 0270 E98A0100 		jmp	.L48
 982      00
 983              	.L64:
 248:/home/xingli/share/LiteOS_Lab/network/mqtt/paho_mqtt/paho/MQTTClient-C/src/MQTTClient.c ****                 }
 249:/home/xingli/share/LiteOS_Lab/network/mqtt/paho_mqtt/paho/MQTTClient-C/src/MQTTClient.c ****                 /* Check for bad "foo+" or "foo+/a" subscription */
 250:/home/xingli/share/LiteOS_Lab/network/mqtt/paho_mqtt/paho/MQTTClient-C/src/MQTTClient.c ****                 if(spos < sublen - 1 && sub[spos + 1] != '/')
 984              		.loc 1 250 34
 985 0275 8B45EC   		movl	-20(%rbp), %eax
 986 0278 83E801   		subl	$1, %eax
 987              		.loc 1 250 19
 988 027b 3945E4   		cmpl	%eax, -28(%rbp)
 989 027e 7D21     		jge	.L65
 990              		.loc 1 250 44 discriminator 1
 991 0280 8B45E4   		movl	-28(%rbp), %eax
 992 0283 4898     		cltq
 993 0285 488D5001 		leaq	1(%rax), %rdx
 994 0289 488B45C8 		movq	-56(%rbp), %rax
 995 028d 4801D0   		addq	%rdx, %rax
 996 0290 0FB600   		movzbl	(%rax), %eax
GAS LISTING /tmp/ccgk3rzZ.s 			page 25


 997              		.loc 1 250 38 discriminator 1
 998 0293 3C2F     		cmpb	$47, %al
 999 0295 740A     		je	.L65
 251:/home/xingli/share/LiteOS_Lab/network/mqtt/paho_mqtt/paho/MQTTClient-C/src/MQTTClient.c ****                 {
 252:/home/xingli/share/LiteOS_Lab/network/mqtt/paho_mqtt/paho/MQTTClient-C/src/MQTTClient.c ****                     return -1;
 1000              		.loc 1 252 28
 1001 0297 B8FFFFFF 		movl	$-1, %eax
 1001      FF
 1002 029c E95E0100 		jmp	.L48
 1002      00
 1003              	.L65:
 253:/home/xingli/share/LiteOS_Lab/network/mqtt/paho_mqtt/paho/MQTTClient-C/src/MQTTClient.c ****                 }
 254:/home/xingli/share/LiteOS_Lab/network/mqtt/paho_mqtt/paho/MQTTClient-C/src/MQTTClient.c ****                 spos++;
 1004              		.loc 1 254 21
 1005 02a1 8345E401 		addl	$1, -28(%rbp)
 255:/home/xingli/share/LiteOS_Lab/network/mqtt/paho_mqtt/paho/MQTTClient-C/src/MQTTClient.c ****                 while(tpos < topiclen && topic[tpos] != '/')
 1006              		.loc 1 255 22
 1007 02a5 EB04     		jmp	.L66
 1008              	.L68:
 256:/home/xingli/share/LiteOS_Lab/network/mqtt/paho_mqtt/paho/MQTTClient-C/src/MQTTClient.c ****                 {
 257:/home/xingli/share/LiteOS_Lab/network/mqtt/paho_mqtt/paho/MQTTClient-C/src/MQTTClient.c ****                     tpos++;
 1009              		.loc 1 257 25
 1010 02a7 8345E801 		addl	$1, -24(%rbp)
 1011              	.L66:
 255:/home/xingli/share/LiteOS_Lab/network/mqtt/paho_mqtt/paho/MQTTClient-C/src/MQTTClient.c ****                 while(tpos < topiclen && topic[tpos] != '/')
 1012              		.loc 1 255 22
 1013 02ab 8B45E8   		movl	-24(%rbp), %eax
 1014 02ae 3B45E0   		cmpl	-32(%rbp), %eax
 1015 02b1 7D14     		jge	.L67
 255:/home/xingli/share/LiteOS_Lab/network/mqtt/paho_mqtt/paho/MQTTClient-C/src/MQTTClient.c ****                 while(tpos < topiclen && topic[tpos] != '/')
 1016              		.loc 1 255 47 discriminator 1
 1017 02b3 8B45E8   		movl	-24(%rbp), %eax
 1018 02b6 4863D0   		movslq	%eax, %rdx
 1019 02b9 488B45F0 		movq	-16(%rbp), %rax
 1020 02bd 4801D0   		addq	%rdx, %rax
 1021 02c0 0FB600   		movzbl	(%rax), %eax
 255:/home/xingli/share/LiteOS_Lab/network/mqtt/paho_mqtt/paho/MQTTClient-C/src/MQTTClient.c ****                 while(tpos < topiclen && topic[tpos] != '/')
 1022              		.loc 1 255 39 discriminator 1
 1023 02c3 3C2F     		cmpb	$47, %al
 1024 02c5 75E0     		jne	.L68
 1025              	.L67:
 258:/home/xingli/share/LiteOS_Lab/network/mqtt/paho_mqtt/paho/MQTTClient-C/src/MQTTClient.c ****                 }
 259:/home/xingli/share/LiteOS_Lab/network/mqtt/paho_mqtt/paho/MQTTClient-C/src/MQTTClient.c ****                 if(tpos == topiclen && spos == sublen)
 1026              		.loc 1 259 19
 1027 02c7 8B45E8   		movl	-24(%rbp), %eax
 1028 02ca 3B45E0   		cmpl	-32(%rbp), %eax
 1029 02cd 0F85F600 		jne	.L58
 1029      0000
 1030              		.loc 1 259 37 discriminator 1
 1031 02d3 8B45E4   		movl	-28(%rbp), %eax
 1032 02d6 3B45EC   		cmpl	-20(%rbp), %eax
 1033 02d9 0F85EA00 		jne	.L58
 1033      0000
 260:/home/xingli/share/LiteOS_Lab/network/mqtt/paho_mqtt/paho/MQTTClient-C/src/MQTTClient.c ****                 {
 261:/home/xingli/share/LiteOS_Lab/network/mqtt/paho_mqtt/paho/MQTTClient-C/src/MQTTClient.c ****                     *result = 1;
 1034              		.loc 1 261 29
 1035 02df 488B45B8 		movq	-72(%rbp), %rax
GAS LISTING /tmp/ccgk3rzZ.s 			page 26


 1036 02e3 C60001   		movb	$1, (%rax)
 262:/home/xingli/share/LiteOS_Lab/network/mqtt/paho_mqtt/paho/MQTTClient-C/src/MQTTClient.c ****                     return 0;
 1037              		.loc 1 262 28
 1038 02e6 B8000000 		movl	$0, %eax
 1038      00
 1039 02eb E90F0100 		jmp	.L48
 1039      00
 1040              	.L63:
 263:/home/xingli/share/LiteOS_Lab/network/mqtt/paho_mqtt/paho/MQTTClient-C/src/MQTTClient.c ****                 }
 264:/home/xingli/share/LiteOS_Lab/network/mqtt/paho_mqtt/paho/MQTTClient-C/src/MQTTClient.c ****             }
 265:/home/xingli/share/LiteOS_Lab/network/mqtt/paho_mqtt/paho/MQTTClient-C/src/MQTTClient.c ****             else if(sub[spos] == '#')
 1041              		.loc 1 265 24
 1042 02f0 8B45E4   		movl	-28(%rbp), %eax
 1043 02f3 4863D0   		movslq	%eax, %rdx
 1044 02f6 488B45C8 		movq	-56(%rbp), %rax
 1045 02fa 4801D0   		addq	%rdx, %rax
 1046 02fd 0FB600   		movzbl	(%rax), %eax
 1047              		.loc 1 265 20
 1048 0300 3C23     		cmpb	$35, %al
 1049 0302 7551     		jne	.L69
 266:/home/xingli/share/LiteOS_Lab/network/mqtt/paho_mqtt/paho/MQTTClient-C/src/MQTTClient.c ****             {
 267:/home/xingli/share/LiteOS_Lab/network/mqtt/paho_mqtt/paho/MQTTClient-C/src/MQTTClient.c ****                 if(spos > 0 && sub[spos - 1] != '/')
 1050              		.loc 1 267 19
 1051 0304 837DE400 		cmpl	$0, -28(%rbp)
 1052 0308 7E21     		jle	.L70
 1053              		.loc 1 267 35 discriminator 1
 1054 030a 8B45E4   		movl	-28(%rbp), %eax
 1055 030d 4898     		cltq
 1056 030f 488D50FF 		leaq	-1(%rax), %rdx
 1057 0313 488B45C8 		movq	-56(%rbp), %rax
 1058 0317 4801D0   		addq	%rdx, %rax
 1059 031a 0FB600   		movzbl	(%rax), %eax
 1060              		.loc 1 267 29 discriminator 1
 1061 031d 3C2F     		cmpb	$47, %al
 1062 031f 740A     		je	.L70
 268:/home/xingli/share/LiteOS_Lab/network/mqtt/paho_mqtt/paho/MQTTClient-C/src/MQTTClient.c ****                 {
 269:/home/xingli/share/LiteOS_Lab/network/mqtt/paho_mqtt/paho/MQTTClient-C/src/MQTTClient.c ****                     return -1;
 1063              		.loc 1 269 28
 1064 0321 B8FFFFFF 		movl	$-1, %eax
 1064      FF
 1065 0326 E9D40000 		jmp	.L48
 1065      00
 1066              	.L70:
 270:/home/xingli/share/LiteOS_Lab/network/mqtt/paho_mqtt/paho/MQTTClient-C/src/MQTTClient.c ****                 }
 271:/home/xingli/share/LiteOS_Lab/network/mqtt/paho_mqtt/paho/MQTTClient-C/src/MQTTClient.c ****                 multilevel_wildcard = 1;
 1067              		.loc 1 271 37
 1068 032b C645DF01 		movb	$1, -33(%rbp)
 272:/home/xingli/share/LiteOS_Lab/network/mqtt/paho_mqtt/paho/MQTTClient-C/src/MQTTClient.c ****                 if(spos + 1 != sublen)
 1069              		.loc 1 272 25
 1070 032f 8B45E4   		movl	-28(%rbp), %eax
 1071 0332 83C001   		addl	$1, %eax
 1072              		.loc 1 272 19
 1073 0335 3945EC   		cmpl	%eax, -20(%rbp)
 1074 0338 740A     		je	.L71
 273:/home/xingli/share/LiteOS_Lab/network/mqtt/paho_mqtt/paho/MQTTClient-C/src/MQTTClient.c ****                 {
 274:/home/xingli/share/LiteOS_Lab/network/mqtt/paho_mqtt/paho/MQTTClient-C/src/MQTTClient.c ****                     return -1;
 1075              		.loc 1 274 28
GAS LISTING /tmp/ccgk3rzZ.s 			page 27


 1076 033a B8FFFFFF 		movl	$-1, %eax
 1076      FF
 1077 033f E9BB0000 		jmp	.L48
 1077      00
 1078              	.L71:
 275:/home/xingli/share/LiteOS_Lab/network/mqtt/paho_mqtt/paho/MQTTClient-C/src/MQTTClient.c ****                 }
 276:/home/xingli/share/LiteOS_Lab/network/mqtt/paho_mqtt/paho/MQTTClient-C/src/MQTTClient.c ****                 else
 277:/home/xingli/share/LiteOS_Lab/network/mqtt/paho_mqtt/paho/MQTTClient-C/src/MQTTClient.c ****                 {
 278:/home/xingli/share/LiteOS_Lab/network/mqtt/paho_mqtt/paho/MQTTClient-C/src/MQTTClient.c ****                     *result = 1;
 1079              		.loc 1 278 29
 1080 0344 488B45B8 		movq	-72(%rbp), %rax
 1081 0348 C60001   		movb	$1, (%rax)
 279:/home/xingli/share/LiteOS_Lab/network/mqtt/paho_mqtt/paho/MQTTClient-C/src/MQTTClient.c ****                     return 0;
 1082              		.loc 1 279 28
 1083 034b B8000000 		movl	$0, %eax
 1083      00
 1084 0350 E9AA0000 		jmp	.L48
 1084      00
 1085              	.L69:
 280:/home/xingli/share/LiteOS_Lab/network/mqtt/paho_mqtt/paho/MQTTClient-C/src/MQTTClient.c ****                 }
 281:/home/xingli/share/LiteOS_Lab/network/mqtt/paho_mqtt/paho/MQTTClient-C/src/MQTTClient.c ****             }
 282:/home/xingli/share/LiteOS_Lab/network/mqtt/paho_mqtt/paho/MQTTClient-C/src/MQTTClient.c ****             else
 283:/home/xingli/share/LiteOS_Lab/network/mqtt/paho_mqtt/paho/MQTTClient-C/src/MQTTClient.c ****             {
 284:/home/xingli/share/LiteOS_Lab/network/mqtt/paho_mqtt/paho/MQTTClient-C/src/MQTTClient.c ****                 /* Check for e.g. foo/bar matching foo/+/# */
 285:/home/xingli/share/LiteOS_Lab/network/mqtt/paho_mqtt/paho/MQTTClient-C/src/MQTTClient.c ****                 if(spos > 0 && spos + 2 == sublen && tpos == topiclen
 1086              		.loc 1 285 19
 1087 0355 837DE400 		cmpl	$0, -28(%rbp)
 1088 0359 7E67     		jle	.L72
 1089              		.loc 1 285 37 discriminator 1
 1090 035b 8B45E4   		movl	-28(%rbp), %eax
 1091 035e 83C002   		addl	$2, %eax
 1092              		.loc 1 285 29 discriminator 1
 1093 0361 3945EC   		cmpl	%eax, -20(%rbp)
 1094 0364 755C     		jne	.L72
 1095              		.loc 1 285 51 discriminator 2
 1096 0366 8B45E8   		movl	-24(%rbp), %eax
 1097 0369 3B45E0   		cmpl	-32(%rbp), %eax
 1098 036c 7554     		jne	.L72
 286:/home/xingli/share/LiteOS_Lab/network/mqtt/paho_mqtt/paho/MQTTClient-C/src/MQTTClient.c ****                         && sub[spos - 1] == '+' && sub[spos] == '/' && sub[spos + 1] == '#')
 1099              		.loc 1 286 31
 1100 036e 8B45E4   		movl	-28(%rbp), %eax
 1101 0371 4898     		cltq
 1102 0373 488D50FF 		leaq	-1(%rax), %rdx
 1103 0377 488B45C8 		movq	-56(%rbp), %rax
 1104 037b 4801D0   		addq	%rdx, %rax
 1105 037e 0FB600   		movzbl	(%rax), %eax
 1106              		.loc 1 286 25
 1107 0381 3C2B     		cmpb	$43, %al
 1108 0383 753D     		jne	.L72
 1109              		.loc 1 286 55 discriminator 1
 1110 0385 8B45E4   		movl	-28(%rbp), %eax
 1111 0388 4863D0   		movslq	%eax, %rdx
 1112 038b 488B45C8 		movq	-56(%rbp), %rax
 1113 038f 4801D0   		addq	%rdx, %rax
 1114 0392 0FB600   		movzbl	(%rax), %eax
 1115              		.loc 1 286 49 discriminator 1
 1116 0395 3C2F     		cmpb	$47, %al
GAS LISTING /tmp/ccgk3rzZ.s 			page 28


 1117 0397 7529     		jne	.L72
 1118              		.loc 1 286 75 discriminator 2
 1119 0399 8B45E4   		movl	-28(%rbp), %eax
 1120 039c 4898     		cltq
 1121 039e 488D5001 		leaq	1(%rax), %rdx
 1122 03a2 488B45C8 		movq	-56(%rbp), %rax
 1123 03a6 4801D0   		addq	%rdx, %rax
 1124 03a9 0FB600   		movzbl	(%rax), %eax
 1125              		.loc 1 286 69 discriminator 2
 1126 03ac 3C23     		cmpb	$35, %al
 1127 03ae 7512     		jne	.L72
 287:/home/xingli/share/LiteOS_Lab/network/mqtt/paho_mqtt/paho/MQTTClient-C/src/MQTTClient.c ****                 {
 288:/home/xingli/share/LiteOS_Lab/network/mqtt/paho_mqtt/paho/MQTTClient-C/src/MQTTClient.c ****                     *result = 1;
 1128              		.loc 1 288 29
 1129 03b0 488B45B8 		movq	-72(%rbp), %rax
 1130 03b4 C60001   		movb	$1, (%rax)
 289:/home/xingli/share/LiteOS_Lab/network/mqtt/paho_mqtt/paho/MQTTClient-C/src/MQTTClient.c ****                     multilevel_wildcard = 1;
 1131              		.loc 1 289 41
 1132 03b7 C645DF01 		movb	$1, -33(%rbp)
 290:/home/xingli/share/LiteOS_Lab/network/mqtt/paho_mqtt/paho/MQTTClient-C/src/MQTTClient.c ****                     return 0;
 1133              		.loc 1 290 28
 1134 03bb B8000000 		movl	$0, %eax
 1134      00
 1135 03c0 EB3D     		jmp	.L48
 1136              	.L72:
 291:/home/xingli/share/LiteOS_Lab/network/mqtt/paho_mqtt/paho/MQTTClient-C/src/MQTTClient.c ****                 }
 292:/home/xingli/share/LiteOS_Lab/network/mqtt/paho_mqtt/paho/MQTTClient-C/src/MQTTClient.c ****                 return 0;
 1137              		.loc 1 292 24
 1138 03c2 B8000000 		movl	$0, %eax
 1138      00
 1139 03c7 EB36     		jmp	.L48
 1140              	.L58:
 208:/home/xingli/share/LiteOS_Lab/network/mqtt/paho_mqtt/paho/MQTTClient-C/src/MQTTClient.c ****     {
 1141              		.loc 1 208 10
 1142 03c9 8B45E4   		movl	-28(%rbp), %eax
 1143 03cc 3B45EC   		cmpl	-20(%rbp), %eax
 1144 03cf 7D0C     		jge	.L73
 208:/home/xingli/share/LiteOS_Lab/network/mqtt/paho_mqtt/paho/MQTTClient-C/src/MQTTClient.c ****     {
 1145              		.loc 1 208 25 discriminator 1
 1146 03d1 8B45E8   		movl	-24(%rbp), %eax
 1147 03d4 3B45E0   		cmpl	-32(%rbp), %eax
 1148 03d7 0F8E40FD 		jle	.L74
 1148      FFFF
 1149              	.L73:
 293:/home/xingli/share/LiteOS_Lab/network/mqtt/paho_mqtt/paho/MQTTClient-C/src/MQTTClient.c ****             }
 294:/home/xingli/share/LiteOS_Lab/network/mqtt/paho_mqtt/paho/MQTTClient-C/src/MQTTClient.c ****         }
 295:/home/xingli/share/LiteOS_Lab/network/mqtt/paho_mqtt/paho/MQTTClient-C/src/MQTTClient.c ****     }
 296:/home/xingli/share/LiteOS_Lab/network/mqtt/paho_mqtt/paho/MQTTClient-C/src/MQTTClient.c ****     if(multilevel_wildcard == 0 && (tpos < topiclen || spos < sublen))
 1150              		.loc 1 296 7
 1151 03dd 807DDF00 		cmpb	$0, -33(%rbp)
 1152 03e1 7517     		jne	.L75
 1153              		.loc 1 296 33 discriminator 1
 1154 03e3 8B45E8   		movl	-24(%rbp), %eax
 1155 03e6 3B45E0   		cmpl	-32(%rbp), %eax
 1156 03e9 7C08     		jl	.L76
 1157              		.loc 1 296 53 discriminator 2
 1158 03eb 8B45E4   		movl	-28(%rbp), %eax
GAS LISTING /tmp/ccgk3rzZ.s 			page 29


 1159 03ee 3B45EC   		cmpl	-20(%rbp), %eax
 1160 03f1 7D07     		jge	.L75
 1161              	.L76:
 297:/home/xingli/share/LiteOS_Lab/network/mqtt/paho_mqtt/paho/MQTTClient-C/src/MQTTClient.c ****     {
 298:/home/xingli/share/LiteOS_Lab/network/mqtt/paho_mqtt/paho/MQTTClient-C/src/MQTTClient.c ****         *result = 0;
 1162              		.loc 1 298 17
 1163 03f3 488B45B8 		movq	-72(%rbp), %rax
 1164 03f7 C60000   		movb	$0, (%rax)
 1165              	.L75:
 299:/home/xingli/share/LiteOS_Lab/network/mqtt/paho_mqtt/paho/MQTTClient-C/src/MQTTClient.c ****     }
 300:/home/xingli/share/LiteOS_Lab/network/mqtt/paho_mqtt/paho/MQTTClient-C/src/MQTTClient.c **** 
 301:/home/xingli/share/LiteOS_Lab/network/mqtt/paho_mqtt/paho/MQTTClient-C/src/MQTTClient.c ****     return 0;
 1166              		.loc 1 301 12
 1167 03fa B8000000 		movl	$0, %eax
 1167      00
 1168              	.L48:
 302:/home/xingli/share/LiteOS_Lab/network/mqtt/paho_mqtt/paho/MQTTClient-C/src/MQTTClient.c **** }
 1169              		.loc 1 302 1
 1170 03ff 488B75F8 		movq	-8(%rbp), %rsi
 1171 0403 64483334 		xorq	%fs:40, %rsi
 1171      25280000 
 1171      00
 1172 040c 7405     		je	.L77
 1173 040e E8000000 		call	__stack_chk_fail@PLT
 1173      00
 1174              	.L77:
 1175 0413 C9       		leave
 1176              	.LCFI23:
 1177              		.cfi_def_cfa 7, 8
 1178 0414 C3       		ret
 1179              		.cfi_endproc
 1180              	.LFE14:
 1182              		.section	.text.deliverMessage,"ax",@progbits
 1183              		.globl	deliverMessage
 1185              	deliverMessage:
 1186              	.LFB15:
 303:/home/xingli/share/LiteOS_Lab/network/mqtt/paho_mqtt/paho/MQTTClient-C/src/MQTTClient.c **** 
 304:/home/xingli/share/LiteOS_Lab/network/mqtt/paho_mqtt/paho/MQTTClient-C/src/MQTTClient.c **** 
 305:/home/xingli/share/LiteOS_Lab/network/mqtt/paho_mqtt/paho/MQTTClient-C/src/MQTTClient.c **** int deliverMessage(MQTTClient* c, MQTTString* topicName, MQTTMessage* message)
 306:/home/xingli/share/LiteOS_Lab/network/mqtt/paho_mqtt/paho/MQTTClient-C/src/MQTTClient.c **** {
 1187              		.loc 1 306 1
 1188              		.cfi_startproc
 1189 0000 F30F1EFA 		endbr64
 1190 0004 55       		pushq	%rbp
 1191              	.LCFI24:
 1192              		.cfi_def_cfa_offset 16
 1193              		.cfi_offset 6, -16
 1194 0005 4889E5   		movq	%rsp, %rbp
 1195              	.LCFI25:
 1196              		.cfi_def_cfa_register 6
 1197 0008 4883EC50 		subq	$80, %rsp
 1198 000c 48897DC8 		movq	%rdi, -56(%rbp)
 1199 0010 488975C0 		movq	%rsi, -64(%rbp)
 1200 0014 488955B8 		movq	%rdx, -72(%rbp)
 1201              		.loc 1 306 1
 1202 0018 64488B04 		movq	%fs:40, %rax
 1202      25280000 
GAS LISTING /tmp/ccgk3rzZ.s 			page 30


 1202      00
 1203 0021 488945F8 		movq	%rax, -8(%rbp)
 1204 0025 31C0     		xorl	%eax, %eax
 307:/home/xingli/share/LiteOS_Lab/network/mqtt/paho_mqtt/paho/MQTTClient-C/src/MQTTClient.c ****     int i;
 308:/home/xingli/share/LiteOS_Lab/network/mqtt/paho_mqtt/paho/MQTTClient-C/src/MQTTClient.c ****     int rc = FAILURE;
 1205              		.loc 1 308 9
 1206 0027 C745DCFF 		movl	$-1, -36(%rbp)
 1206      FFFFFF
 309:/home/xingli/share/LiteOS_Lab/network/mqtt/paho_mqtt/paho/MQTTClient-C/src/MQTTClient.c ****     char match_rst = 0;
 1207              		.loc 1 309 10
 1208 002e C645D700 		movb	$0, -41(%rbp)
 310:/home/xingli/share/LiteOS_Lab/network/mqtt/paho_mqtt/paho/MQTTClient-C/src/MQTTClient.c **** 
 311:/home/xingli/share/LiteOS_Lab/network/mqtt/paho_mqtt/paho/MQTTClient-C/src/MQTTClient.c ****     // we have to find the right message handler - indexed by topic
 312:/home/xingli/share/LiteOS_Lab/network/mqtt/paho_mqtt/paho/MQTTClient-C/src/MQTTClient.c ****     for (i = 0; i < MAX_MESSAGE_HANDLERS; ++i)
 1209              		.loc 1 312 12
 1210 0032 C745D800 		movl	$0, -40(%rbp)
 1210      000000
 1211              		.loc 1 312 5
 1212 0039 E9010100 		jmp	.L79
 1212      00
 1213              	.L81:
 313:/home/xingli/share/LiteOS_Lab/network/mqtt/paho_mqtt/paho/MQTTClient-C/src/MQTTClient.c ****     {
 314:/home/xingli/share/LiteOS_Lab/network/mqtt/paho_mqtt/paho/MQTTClient-C/src/MQTTClient.c ****         if (c->messageHandlers[i].topicFilter != 0)
 1214              		.loc 1 314 34
 1215 003e 488B4DC8 		movq	-56(%rbp), %rcx
 1216 0042 8B45D8   		movl	-40(%rbp), %eax
 1217 0045 4863D0   		movslq	%eax, %rdx
 1218 0048 4889D0   		movq	%rdx, %rax
 1219 004b 4801C0   		addq	%rax, %rax
 1220 004e 4801D0   		addq	%rdx, %rax
 1221 0051 48C1E003 		salq	$3, %rax
 1222 0055 4801C8   		addq	%rcx, %rax
 1223 0058 4883C038 		addq	$56, %rax
 1224 005c 488B00   		movq	(%rax), %rax
 1225              		.loc 1 314 12
 1226 005f 4885C0   		testq	%rax, %rax
 1227 0062 0F84D300 		je	.L80
 1227      0000
 315:/home/xingli/share/LiteOS_Lab/network/mqtt/paho_mqtt/paho/MQTTClient-C/src/MQTTClient.c ****         {
 316:/home/xingli/share/LiteOS_Lab/network/mqtt/paho_mqtt/paho/MQTTClient-C/src/MQTTClient.c ****             (void)MQTTTopicMatched((const char *)c->messageHandlers[i].topicFilter, topicName, &mat
 1228              		.loc 1 316 19
 1229 0068 488B4DC8 		movq	-56(%rbp), %rcx
 1230 006c 8B45D8   		movl	-40(%rbp), %eax
 1231 006f 4863D0   		movslq	%eax, %rdx
 1232 0072 4889D0   		movq	%rdx, %rax
 1233 0075 4801C0   		addq	%rax, %rax
 1234 0078 4801D0   		addq	%rdx, %rax
 1235 007b 48C1E003 		salq	$3, %rax
 1236 007f 4801C8   		addq	%rcx, %rax
 1237 0082 4883C038 		addq	$56, %rax
 1238 0086 488B00   		movq	(%rax), %rax
 1239 0089 488D55D7 		leaq	-41(%rbp), %rdx
 1240 008d 488B4DC0 		movq	-64(%rbp), %rcx
 1241 0091 4889CE   		movq	%rcx, %rsi
 1242 0094 4889C7   		movq	%rax, %rdi
 1243 0097 E8000000 		call	MQTTTopicMatched
 1243      00
GAS LISTING /tmp/ccgk3rzZ.s 			page 31


 317:/home/xingli/share/LiteOS_Lab/network/mqtt/paho_mqtt/paho/MQTTClient-C/src/MQTTClient.c ****             if (1 == match_rst && c->messageHandlers[i].fp != NULL)
 1244              		.loc 1 317 19
 1245 009c 0FB645D7 		movzbl	-41(%rbp), %eax
 1246              		.loc 1 317 16
 1247 00a0 3C01     		cmpb	$1, %al
 1248 00a2 0F859300 		jne	.L80
 1248      0000
 1249              		.loc 1 317 56 discriminator 1
 1250 00a8 488B4DC8 		movq	-56(%rbp), %rcx
 1251 00ac 8B45D8   		movl	-40(%rbp), %eax
 1252 00af 4863D0   		movslq	%eax, %rdx
 1253 00b2 4889D0   		movq	%rdx, %rax
 1254 00b5 4801C0   		addq	%rax, %rax
 1255 00b8 4801D0   		addq	%rdx, %rax
 1256 00bb 48C1E003 		salq	$3, %rax
 1257 00bf 4801C8   		addq	%rcx, %rax
 1258 00c2 4883C040 		addq	$64, %rax
 1259 00c6 488B00   		movq	(%rax), %rax
 1260              		.loc 1 317 32 discriminator 1
 1261 00c9 4885C0   		testq	%rax, %rax
 1262 00cc 746D     		je	.L80
 1263              	.LBB4:
 318:/home/xingli/share/LiteOS_Lab/network/mqtt/paho_mqtt/paho/MQTTClient-C/src/MQTTClient.c ****             {
 319:/home/xingli/share/LiteOS_Lab/network/mqtt/paho_mqtt/paho/MQTTClient-C/src/MQTTClient.c ****                 MessageData md;
 320:/home/xingli/share/LiteOS_Lab/network/mqtt/paho_mqtt/paho/MQTTClient-C/src/MQTTClient.c ****                 NewMessageData(&md, topicName, message);
 1264              		.loc 1 320 17
 1265 00ce 488B55B8 		movq	-72(%rbp), %rdx
 1266 00d2 488B4DC0 		movq	-64(%rbp), %rcx
 1267 00d6 488D45E0 		leaq	-32(%rbp), %rax
 1268 00da 4889CE   		movq	%rcx, %rsi
 1269 00dd 4889C7   		movq	%rax, %rdi
 1270 00e0 E8000000 		call	NewMessageData
 1270      00
 321:/home/xingli/share/LiteOS_Lab/network/mqtt/paho_mqtt/paho/MQTTClient-C/src/MQTTClient.c **** 
 322:/home/xingli/share/LiteOS_Lab/network/mqtt/paho_mqtt/paho/MQTTClient-C/src/MQTTClient.c ****                 md.arg = c->messageHandlers[i].arg;   ///< --modified,we need a args for the handle
 1271              		.loc 1 322 47
 1272 00e5 488B4DC8 		movq	-56(%rbp), %rcx
 1273 00e9 8B45D8   		movl	-40(%rbp), %eax
 1274 00ec 4863D0   		movslq	%eax, %rdx
 1275 00ef 4889D0   		movq	%rdx, %rax
 1276 00f2 4801C0   		addq	%rax, %rax
 1277 00f5 4801D0   		addq	%rdx, %rax
 1278 00f8 48C1E003 		salq	$3, %rax
 1279 00fc 4801C8   		addq	%rcx, %rax
 1280 00ff 4883C048 		addq	$72, %rax
 1281 0103 488B00   		movq	(%rax), %rax
 1282              		.loc 1 322 24
 1283 0106 488945F0 		movq	%rax, -16(%rbp)
 323:/home/xingli/share/LiteOS_Lab/network/mqtt/paho_mqtt/paho/MQTTClient-C/src/MQTTClient.c ****                 c->messageHandlers[i].fp(&md);
 1284              		.loc 1 323 38
 1285 010a 488B4DC8 		movq	-56(%rbp), %rcx
 1286 010e 8B45D8   		movl	-40(%rbp), %eax
 1287 0111 4863D0   		movslq	%eax, %rdx
 1288 0114 4889D0   		movq	%rdx, %rax
 1289 0117 4801C0   		addq	%rax, %rax
 1290 011a 4801D0   		addq	%rdx, %rax
 1291 011d 48C1E003 		salq	$3, %rax
GAS LISTING /tmp/ccgk3rzZ.s 			page 32


 1292 0121 4801C8   		addq	%rcx, %rax
 1293 0124 4883C040 		addq	$64, %rax
 1294 0128 488B10   		movq	(%rax), %rdx
 1295              		.loc 1 323 17
 1296 012b 488D45E0 		leaq	-32(%rbp), %rax
 1297 012f 4889C7   		movq	%rax, %rdi
 1298 0132 FFD2     		call	*%rdx
 1299              	.LVL4:
 324:/home/xingli/share/LiteOS_Lab/network/mqtt/paho_mqtt/paho/MQTTClient-C/src/MQTTClient.c ****                 rc = MQTT_SUCCESS;
 1300              		.loc 1 324 20
 1301 0134 C745DC00 		movl	$0, -36(%rbp)
 1301      000000
 1302              	.L80:
 1303              	.LBE4:
 312:/home/xingli/share/LiteOS_Lab/network/mqtt/paho_mqtt/paho/MQTTClient-C/src/MQTTClient.c ****     {
 1304              		.loc 1 312 43 discriminator 2
 1305 013b 8345D801 		addl	$1, -40(%rbp)
 1306              	.L79:
 312:/home/xingli/share/LiteOS_Lab/network/mqtt/paho_mqtt/paho/MQTTClient-C/src/MQTTClient.c ****     {
 1307              		.loc 1 312 5 discriminator 1
 1308 013f 837DD809 		cmpl	$9, -40(%rbp)
 1309 0143 0F8EF5FE 		jle	.L81
 1309      FFFF
 325:/home/xingli/share/LiteOS_Lab/network/mqtt/paho_mqtt/paho/MQTTClient-C/src/MQTTClient.c ****             }
 326:/home/xingli/share/LiteOS_Lab/network/mqtt/paho_mqtt/paho/MQTTClient-C/src/MQTTClient.c ****         }
 327:/home/xingli/share/LiteOS_Lab/network/mqtt/paho_mqtt/paho/MQTTClient-C/src/MQTTClient.c ****     }
 328:/home/xingli/share/LiteOS_Lab/network/mqtt/paho_mqtt/paho/MQTTClient-C/src/MQTTClient.c **** 
 329:/home/xingli/share/LiteOS_Lab/network/mqtt/paho_mqtt/paho/MQTTClient-C/src/MQTTClient.c ****     if (rc == FAILURE && c->defaultMessageHandler != NULL)
 1310              		.loc 1 329 8
 1311 0149 837DDCFF 		cmpl	$-1, -36(%rbp)
 1312 014d 7542     		jne	.L82
 1313              		.loc 1 329 27 discriminator 1
 1314 014f 488B45C8 		movq	-56(%rbp), %rax
 1315 0153 488B8028 		movq	296(%rax), %rax
 1315      010000
 1316              		.loc 1 329 23 discriminator 1
 1317 015a 4885C0   		testq	%rax, %rax
 1318 015d 7432     		je	.L82
 1319              	.LBB5:
 330:/home/xingli/share/LiteOS_Lab/network/mqtt/paho_mqtt/paho/MQTTClient-C/src/MQTTClient.c ****     {
 331:/home/xingli/share/LiteOS_Lab/network/mqtt/paho_mqtt/paho/MQTTClient-C/src/MQTTClient.c ****         MessageData md;
 332:/home/xingli/share/LiteOS_Lab/network/mqtt/paho_mqtt/paho/MQTTClient-C/src/MQTTClient.c ****         NewMessageData(&md, topicName, message);
 1320              		.loc 1 332 9
 1321 015f 488B55B8 		movq	-72(%rbp), %rdx
 1322 0163 488B4DC0 		movq	-64(%rbp), %rcx
 1323 0167 488D45E0 		leaq	-32(%rbp), %rax
 1324 016b 4889CE   		movq	%rcx, %rsi
 1325 016e 4889C7   		movq	%rax, %rdi
 1326 0171 E8000000 		call	NewMessageData
 1326      00
 333:/home/xingli/share/LiteOS_Lab/network/mqtt/paho_mqtt/paho/MQTTClient-C/src/MQTTClient.c ****         c->defaultMessageHandler(&md);
 1327              		.loc 1 333 10
 1328 0176 488B45C8 		movq	-56(%rbp), %rax
 1329 017a 488B9028 		movq	296(%rax), %rdx
 1329      010000
 1330              		.loc 1 333 9
 1331 0181 488D45E0 		leaq	-32(%rbp), %rax
GAS LISTING /tmp/ccgk3rzZ.s 			page 33


 1332 0185 4889C7   		movq	%rax, %rdi
 1333 0188 FFD2     		call	*%rdx
 1334              	.LVL5:
 334:/home/xingli/share/LiteOS_Lab/network/mqtt/paho_mqtt/paho/MQTTClient-C/src/MQTTClient.c ****         rc = MQTT_SUCCESS;
 1335              		.loc 1 334 12
 1336 018a C745DC00 		movl	$0, -36(%rbp)
 1336      000000
 1337              	.L82:
 1338              	.LBE5:
 335:/home/xingli/share/LiteOS_Lab/network/mqtt/paho_mqtt/paho/MQTTClient-C/src/MQTTClient.c ****     }
 336:/home/xingli/share/LiteOS_Lab/network/mqtt/paho_mqtt/paho/MQTTClient-C/src/MQTTClient.c **** 
 337:/home/xingli/share/LiteOS_Lab/network/mqtt/paho_mqtt/paho/MQTTClient-C/src/MQTTClient.c ****     return rc;
 1339              		.loc 1 337 12
 1340 0191 8B45DC   		movl	-36(%rbp), %eax
 338:/home/xingli/share/LiteOS_Lab/network/mqtt/paho_mqtt/paho/MQTTClient-C/src/MQTTClient.c **** }
 1341              		.loc 1 338 1
 1342 0194 488B75F8 		movq	-8(%rbp), %rsi
 1343 0198 64483334 		xorq	%fs:40, %rsi
 1343      25280000 
 1343      00
 1344 01a1 7405     		je	.L84
 1345 01a3 E8000000 		call	__stack_chk_fail@PLT
 1345      00
 1346              	.L84:
 1347 01a8 C9       		leave
 1348              	.LCFI26:
 1349              		.cfi_def_cfa 7, 8
 1350 01a9 C3       		ret
 1351              		.cfi_endproc
 1352              	.LFE15:
 1354              		.section	.text.keepalive,"ax",@progbits
 1355              		.globl	keepalive
 1357              	keepalive:
 1358              	.LFB16:
 339:/home/xingli/share/LiteOS_Lab/network/mqtt/paho_mqtt/paho/MQTTClient-C/src/MQTTClient.c **** 
 340:/home/xingli/share/LiteOS_Lab/network/mqtt/paho_mqtt/paho/MQTTClient-C/src/MQTTClient.c **** 
 341:/home/xingli/share/LiteOS_Lab/network/mqtt/paho_mqtt/paho/MQTTClient-C/src/MQTTClient.c **** int keepalive(MQTTClient* c)
 342:/home/xingli/share/LiteOS_Lab/network/mqtt/paho_mqtt/paho/MQTTClient-C/src/MQTTClient.c **** {
 1359              		.loc 1 342 1
 1360              		.cfi_startproc
 1361 0000 F30F1EFA 		endbr64
 1362 0004 55       		pushq	%rbp
 1363              	.LCFI27:
 1364              		.cfi_def_cfa_offset 16
 1365              		.cfi_offset 6, -16
 1366 0005 4889E5   		movq	%rsp, %rbp
 1367              	.LCFI28:
 1368              		.cfi_def_cfa_register 6
 1369 0008 4883EC30 		subq	$48, %rsp
 1370 000c 48897DD8 		movq	%rdi, -40(%rbp)
 1371              		.loc 1 342 1
 1372 0010 64488B04 		movq	%fs:40, %rax
 1372      25280000 
 1372      00
 1373 0019 488945F8 		movq	%rax, -8(%rbp)
 1374 001d 31C0     		xorl	%eax, %eax
 343:/home/xingli/share/LiteOS_Lab/network/mqtt/paho_mqtt/paho/MQTTClient-C/src/MQTTClient.c ****     int rc = MQTT_SUCCESS;
GAS LISTING /tmp/ccgk3rzZ.s 			page 34


 1375              		.loc 1 343 9
 1376 001f C745E800 		movl	$0, -24(%rbp)
 1376      000000
 344:/home/xingli/share/LiteOS_Lab/network/mqtt/paho_mqtt/paho/MQTTClient-C/src/MQTTClient.c **** 
 345:/home/xingli/share/LiteOS_Lab/network/mqtt/paho_mqtt/paho/MQTTClient-C/src/MQTTClient.c ****     if (c->keepAliveInterval == 0)
 1377              		.loc 1 345 10
 1378 0026 488B45D8 		movq	-40(%rbp), %rax
 1379 002a 8B4028   		movl	40(%rax), %eax
 1380              		.loc 1 345 8
 1381 002d 85C0     		testl	%eax, %eax
 1382 002f 0F849900 		je	.L92
 1382      0000
 346:/home/xingli/share/LiteOS_Lab/network/mqtt/paho_mqtt/paho/MQTTClient-C/src/MQTTClient.c ****         goto exit;
 347:/home/xingli/share/LiteOS_Lab/network/mqtt/paho_mqtt/paho/MQTTClient-C/src/MQTTClient.c **** 
 348:/home/xingli/share/LiteOS_Lab/network/mqtt/paho_mqtt/paho/MQTTClient-C/src/MQTTClient.c ****     ///<ACOCORDING TO THE protocol,we only care about the  send time
 349:/home/xingli/share/LiteOS_Lab/network/mqtt/paho_mqtt/paho/MQTTClient-C/src/MQTTClient.c ****     if (TimerIsExpired(&c->last_sent))
 1383              		.loc 1 349 9
 1384 0035 488B45D8 		movq	-40(%rbp), %rax
 1385 0039 48053801 		addq	$312, %rax
 1385      0000
 1386 003f 4889C7   		movq	%rax, %rdi
 1387 0042 E8000000 		call	osal_loop_timer_expired@PLT
 1387      00
 1388              		.loc 1 349 8
 1389 0047 84C0     		testb	%al, %al
 1390 0049 0F848200 		je	.L93
 1390      0000
 350:/home/xingli/share/LiteOS_Lab/network/mqtt/paho_mqtt/paho/MQTTClient-C/src/MQTTClient.c ****     {
 351:/home/xingli/share/LiteOS_Lab/network/mqtt/paho_mqtt/paho/MQTTClient-C/src/MQTTClient.c ****         if (c->ping_outstanding)
 1391              		.loc 1 351 14
 1392 004f 488B45D8 		movq	-40(%rbp), %rax
 1393 0053 0FB6402C 		movzbl	44(%rax), %eax
 1394              		.loc 1 351 12
 1395 0057 84C0     		testb	%al, %al
 1396 0059 7409     		je	.L88
 352:/home/xingli/share/LiteOS_Lab/network/mqtt/paho_mqtt/paho/MQTTClient-C/src/MQTTClient.c ****             rc = FAILURE; /* PINGRESP not received in keepalive interval */
 1397              		.loc 1 352 16
 1398 005b C745E8FF 		movl	$-1, -24(%rbp)
 1398      FFFFFF
 1399 0062 EB6E     		jmp	.L87
 1400              	.L88:
 1401              	.LBB6:
 353:/home/xingli/share/LiteOS_Lab/network/mqtt/paho_mqtt/paho/MQTTClient-C/src/MQTTClient.c ****         else
 354:/home/xingli/share/LiteOS_Lab/network/mqtt/paho_mqtt/paho/MQTTClient-C/src/MQTTClient.c ****         {
 355:/home/xingli/share/LiteOS_Lab/network/mqtt/paho_mqtt/paho/MQTTClient-C/src/MQTTClient.c ****             Timer timer;
 356:/home/xingli/share/LiteOS_Lab/network/mqtt/paho_mqtt/paho/MQTTClient-C/src/MQTTClient.c ****             TimerInit(&timer);
 1402              		.loc 1 356 13
 1403 0064 488D45F0 		leaq	-16(%rbp), %rax
 1404 0068 4889C7   		movq	%rax, %rdi
 1405 006b E8000000 		call	osal_loop_timer_init@PLT
 1405      00
 357:/home/xingli/share/LiteOS_Lab/network/mqtt/paho_mqtt/paho/MQTTClient-C/src/MQTTClient.c ****             TimerCountdownMS(&timer, 1000);
 1406              		.loc 1 357 13
 1407 0070 488D45F0 		leaq	-16(%rbp), %rax
 1408 0074 BEE80300 		movl	$1000, %esi
 1408      00
 1409 0079 4889C7   		movq	%rax, %rdi
GAS LISTING /tmp/ccgk3rzZ.s 			page 35


 1410 007c E8000000 		call	osal_loop_timer_count_downms@PLT
 1410      00
 358:/home/xingli/share/LiteOS_Lab/network/mqtt/paho_mqtt/paho/MQTTClient-C/src/MQTTClient.c ****             int len = MQTTSerialize_pingreq(c->buf, c->buf_size);
 1411              		.loc 1 358 54
 1412 0081 488B45D8 		movq	-40(%rbp), %rax
 1413 0085 488B4008 		movq	8(%rax), %rax
 1414              		.loc 1 358 23
 1415 0089 89C2     		movl	%eax, %edx
 1416 008b 488B45D8 		movq	-40(%rbp), %rax
 1417 008f 488B4018 		movq	24(%rax), %rax
 1418 0093 89D6     		movl	%edx, %esi
 1419 0095 4889C7   		movq	%rax, %rdi
 1420 0098 E8000000 		call	MQTTSerialize_pingreq@PLT
 1420      00
 1421 009d 8945EC   		movl	%eax, -20(%rbp)
 359:/home/xingli/share/LiteOS_Lab/network/mqtt/paho_mqtt/paho/MQTTClient-C/src/MQTTClient.c ****             if (len > 0 && (rc = sendPacket(c, len, &timer)) == MQTT_SUCCESS) // send the ping pack
 1422              		.loc 1 359 16
 1423 00a0 837DEC00 		cmpl	$0, -20(%rbp)
 1424 00a4 7E2C     		jle	.L87
 1425              		.loc 1 359 34 discriminator 1
 1426 00a6 488D55F0 		leaq	-16(%rbp), %rdx
 1427 00aa 8B4DEC   		movl	-20(%rbp), %ecx
 1428 00ad 488B45D8 		movq	-40(%rbp), %rax
 1429 00b1 89CE     		movl	%ecx, %esi
 1430 00b3 4889C7   		movq	%rax, %rdi
 1431 00b6 E8000000 		call	sendPacket
 1431      00
 1432 00bb 8945E8   		movl	%eax, -24(%rbp)
 1433              		.loc 1 359 25 discriminator 1
 1434 00be 837DE800 		cmpl	$0, -24(%rbp)
 1435 00c2 750E     		jne	.L87
 360:/home/xingli/share/LiteOS_Lab/network/mqtt/paho_mqtt/paho/MQTTClient-C/src/MQTTClient.c ****                 c->ping_outstanding = 1;
 1436              		.loc 1 360 37
 1437 00c4 488B45D8 		movq	-40(%rbp), %rax
 1438 00c8 C6402C01 		movb	$1, 44(%rax)
 1439 00cc EB04     		jmp	.L87
 1440              	.L92:
 1441              	.LBE6:
 346:/home/xingli/share/LiteOS_Lab/network/mqtt/paho_mqtt/paho/MQTTClient-C/src/MQTTClient.c **** 
 1442              		.loc 1 346 9
 1443 00ce 90       		nop
 1444 00cf EB01     		jmp	.L87
 1445              	.L93:
 361:/home/xingli/share/LiteOS_Lab/network/mqtt/paho_mqtt/paho/MQTTClient-C/src/MQTTClient.c ****         }
 362:/home/xingli/share/LiteOS_Lab/network/mqtt/paho_mqtt/paho/MQTTClient-C/src/MQTTClient.c ****     }
 363:/home/xingli/share/LiteOS_Lab/network/mqtt/paho_mqtt/paho/MQTTClient-C/src/MQTTClient.c **** 
 364:/home/xingli/share/LiteOS_Lab/network/mqtt/paho_mqtt/paho/MQTTClient-C/src/MQTTClient.c **** exit:
 1446              		.loc 1 364 1
 1447 00d1 90       		nop
 1448              	.L87:
 365:/home/xingli/share/LiteOS_Lab/network/mqtt/paho_mqtt/paho/MQTTClient-C/src/MQTTClient.c ****     return rc;
 1449              		.loc 1 365 12
 1450 00d2 8B45E8   		movl	-24(%rbp), %eax
 366:/home/xingli/share/LiteOS_Lab/network/mqtt/paho_mqtt/paho/MQTTClient-C/src/MQTTClient.c **** }
 1451              		.loc 1 366 1
 1452 00d5 488B4DF8 		movq	-8(%rbp), %rcx
 1453 00d9 6448330C 		xorq	%fs:40, %rcx
GAS LISTING /tmp/ccgk3rzZ.s 			page 36


 1453      25280000 
 1453      00
 1454 00e2 7405     		je	.L91
 1455 00e4 E8000000 		call	__stack_chk_fail@PLT
 1455      00
 1456              	.L91:
 1457 00e9 C9       		leave
 1458              	.LCFI29:
 1459              		.cfi_def_cfa 7, 8
 1460 00ea C3       		ret
 1461              		.cfi_endproc
 1462              	.LFE16:
 1464              		.section	.text.MQTTCleanSession,"ax",@progbits
 1465              		.globl	MQTTCleanSession
 1467              	MQTTCleanSession:
 1468              	.LFB17:
 367:/home/xingli/share/LiteOS_Lab/network/mqtt/paho_mqtt/paho/MQTTClient-C/src/MQTTClient.c **** 
 368:/home/xingli/share/LiteOS_Lab/network/mqtt/paho_mqtt/paho/MQTTClient-C/src/MQTTClient.c **** 
 369:/home/xingli/share/LiteOS_Lab/network/mqtt/paho_mqtt/paho/MQTTClient-C/src/MQTTClient.c **** void MQTTCleanSession(MQTTClient* c)
 370:/home/xingli/share/LiteOS_Lab/network/mqtt/paho_mqtt/paho/MQTTClient-C/src/MQTTClient.c **** {
 1469              		.loc 1 370 1
 1470              		.cfi_startproc
 1471 0000 F30F1EFA 		endbr64
 1472 0004 55       		pushq	%rbp
 1473              	.LCFI30:
 1474              		.cfi_def_cfa_offset 16
 1475              		.cfi_offset 6, -16
 1476 0005 4889E5   		movq	%rsp, %rbp
 1477              	.LCFI31:
 1478              		.cfi_def_cfa_register 6
 1479 0008 4883EC20 		subq	$32, %rsp
 1480 000c 48897DE8 		movq	%rdi, -24(%rbp)
 1481              		.loc 1 370 1
 1482 0010 64488B04 		movq	%fs:40, %rax
 1482      25280000 
 1482      00
 1483 0019 488945F8 		movq	%rax, -8(%rbp)
 1484 001d 31C0     		xorl	%eax, %eax
 371:/home/xingli/share/LiteOS_Lab/network/mqtt/paho_mqtt/paho/MQTTClient-C/src/MQTTClient.c ****     int i = 0;
 1485              		.loc 1 371 9
 1486 001f C745F400 		movl	$0, -12(%rbp)
 1486      000000
 372:/home/xingli/share/LiteOS_Lab/network/mqtt/paho_mqtt/paho/MQTTClient-C/src/MQTTClient.c **** 
 373:/home/xingli/share/LiteOS_Lab/network/mqtt/paho_mqtt/paho/MQTTClient-C/src/MQTTClient.c ****     for (i = 0; i < MAX_MESSAGE_HANDLERS; ++i)
 1487              		.loc 1 373 12
 1488 0026 C745F400 		movl	$0, -12(%rbp)
 1488      000000
 1489              		.loc 1 373 5
 1490 002d EB29     		jmp	.L95
 1491              	.L96:
 374:/home/xingli/share/LiteOS_Lab/network/mqtt/paho_mqtt/paho/MQTTClient-C/src/MQTTClient.c ****         c->messageHandlers[i].topicFilter = NULL;
 1492              		.loc 1 374 43 discriminator 3
 1493 002f 488B4DE8 		movq	-24(%rbp), %rcx
 1494 0033 8B45F4   		movl	-12(%rbp), %eax
 1495 0036 4863D0   		movslq	%eax, %rdx
 1496 0039 4889D0   		movq	%rdx, %rax
 1497 003c 4801C0   		addq	%rax, %rax
GAS LISTING /tmp/ccgk3rzZ.s 			page 37


 1498 003f 4801D0   		addq	%rdx, %rax
 1499 0042 48C1E003 		salq	$3, %rax
 1500 0046 4801C8   		addq	%rcx, %rax
 1501 0049 4883C038 		addq	$56, %rax
 1502 004d 48C70000 		movq	$0, (%rax)
 1502      000000
 373:/home/xingli/share/LiteOS_Lab/network/mqtt/paho_mqtt/paho/MQTTClient-C/src/MQTTClient.c ****         c->messageHandlers[i].topicFilter = NULL;
 1503              		.loc 1 373 43 discriminator 3
 1504 0054 8345F401 		addl	$1, -12(%rbp)
 1505              	.L95:
 373:/home/xingli/share/LiteOS_Lab/network/mqtt/paho_mqtt/paho/MQTTClient-C/src/MQTTClient.c ****         c->messageHandlers[i].topicFilter = NULL;
 1506              		.loc 1 373 5 discriminator 1
 1507 0058 837DF409 		cmpl	$9, -12(%rbp)
 1508 005c 7ED1     		jle	.L96
 375:/home/xingli/share/LiteOS_Lab/network/mqtt/paho_mqtt/paho/MQTTClient-C/src/MQTTClient.c **** }
 1509              		.loc 1 375 1
 1510 005e 90       		nop
 1511 005f 488B45F8 		movq	-8(%rbp), %rax
 1512 0063 64483304 		xorq	%fs:40, %rax
 1512      25280000 
 1512      00
 1513 006c 7405     		je	.L97
 1514 006e E8000000 		call	__stack_chk_fail@PLT
 1514      00
 1515              	.L97:
 1516 0073 C9       		leave
 1517              	.LCFI32:
 1518              		.cfi_def_cfa 7, 8
 1519 0074 C3       		ret
 1520              		.cfi_endproc
 1521              	.LFE17:
 1523              		.section	.text.MQTTCloseSession,"ax",@progbits
 1524              		.globl	MQTTCloseSession
 1526              	MQTTCloseSession:
 1527              	.LFB18:
 376:/home/xingli/share/LiteOS_Lab/network/mqtt/paho_mqtt/paho/MQTTClient-C/src/MQTTClient.c **** 
 377:/home/xingli/share/LiteOS_Lab/network/mqtt/paho_mqtt/paho/MQTTClient-C/src/MQTTClient.c **** 
 378:/home/xingli/share/LiteOS_Lab/network/mqtt/paho_mqtt/paho/MQTTClient-C/src/MQTTClient.c **** void MQTTCloseSession(MQTTClient* c)
 379:/home/xingli/share/LiteOS_Lab/network/mqtt/paho_mqtt/paho/MQTTClient-C/src/MQTTClient.c **** {
 1528              		.loc 1 379 1
 1529              		.cfi_startproc
 1530 0000 F30F1EFA 		endbr64
 1531 0004 55       		pushq	%rbp
 1532              	.LCFI33:
 1533              		.cfi_def_cfa_offset 16
 1534              		.cfi_offset 6, -16
 1535 0005 4889E5   		movq	%rsp, %rbp
 1536              	.LCFI34:
 1537              		.cfi_def_cfa_register 6
 1538 0008 4883EC20 		subq	$32, %rsp
 1539 000c 48897DE8 		movq	%rdi, -24(%rbp)
 1540              		.loc 1 379 1
 1541 0010 64488B04 		movq	%fs:40, %rax
 1541      25280000 
 1541      00
 1542 0019 488945F8 		movq	%rax, -8(%rbp)
 1543 001d 31C0     		xorl	%eax, %eax
GAS LISTING /tmp/ccgk3rzZ.s 			page 38


 380:/home/xingli/share/LiteOS_Lab/network/mqtt/paho_mqtt/paho/MQTTClient-C/src/MQTTClient.c ****     c->ping_outstanding = 0;
 1544              		.loc 1 380 25
 1545 001f 488B45E8 		movq	-24(%rbp), %rax
 1546 0023 C6402C00 		movb	$0, 44(%rax)
 381:/home/xingli/share/LiteOS_Lab/network/mqtt/paho_mqtt/paho/MQTTClient-C/src/MQTTClient.c ****     c->isconnected = 0;
 1547              		.loc 1 381 20
 1548 0027 488B45E8 		movq	-24(%rbp), %rax
 1549 002b C7403000 		movl	$0, 48(%rax)
 1549      000000
 382:/home/xingli/share/LiteOS_Lab/network/mqtt/paho_mqtt/paho/MQTTClient-C/src/MQTTClient.c ****     if (c->cleansession)
 1550              		.loc 1 382 10
 1551 0032 488B45E8 		movq	-24(%rbp), %rax
 1552 0036 8B4034   		movl	52(%rax), %eax
 1553              		.loc 1 382 8
 1554 0039 85C0     		testl	%eax, %eax
 1555 003b 740C     		je	.L101
 383:/home/xingli/share/LiteOS_Lab/network/mqtt/paho_mqtt/paho/MQTTClient-C/src/MQTTClient.c ****         MQTTCleanSession(c);
 1556              		.loc 1 383 9
 1557 003d 488B45E8 		movq	-24(%rbp), %rax
 1558 0041 4889C7   		movq	%rax, %rdi
 1559 0044 E8000000 		call	MQTTCleanSession
 1559      00
 1560              	.L101:
 384:/home/xingli/share/LiteOS_Lab/network/mqtt/paho_mqtt/paho/MQTTClient-C/src/MQTTClient.c **** }
 1561              		.loc 1 384 1
 1562 0049 90       		nop
 1563 004a 488B45F8 		movq	-8(%rbp), %rax
 1564 004e 64483304 		xorq	%fs:40, %rax
 1564      25280000 
 1564      00
 1565 0057 7405     		je	.L100
 1566 0059 E8000000 		call	__stack_chk_fail@PLT
 1566      00
 1567              	.L100:
 1568 005e C9       		leave
 1569              	.LCFI35:
 1570              		.cfi_def_cfa 7, 8
 1571 005f C3       		ret
 1572              		.cfi_endproc
 1573              	.LFE18:
 1575              		.section	.text.cycle,"ax",@progbits
 1576              		.globl	cycle
 1578              	cycle:
 1579              	.LFB19:
 385:/home/xingli/share/LiteOS_Lab/network/mqtt/paho_mqtt/paho/MQTTClient-C/src/MQTTClient.c **** 
 386:/home/xingli/share/LiteOS_Lab/network/mqtt/paho_mqtt/paho/MQTTClient-C/src/MQTTClient.c **** 
 387:/home/xingli/share/LiteOS_Lab/network/mqtt/paho_mqtt/paho/MQTTClient-C/src/MQTTClient.c **** int cycle(MQTTClient* c, Timer* timer)
 388:/home/xingli/share/LiteOS_Lab/network/mqtt/paho_mqtt/paho/MQTTClient-C/src/MQTTClient.c **** {
 1580              		.loc 1 388 1
 1581              		.cfi_startproc
 1582 0000 F30F1EFA 		endbr64
 1583 0004 55       		pushq	%rbp
 1584              	.LCFI36:
 1585              		.cfi_def_cfa_offset 16
 1586              		.cfi_offset 6, -16
 1587 0005 4889E5   		movq	%rsp, %rbp
 1588              	.LCFI37:
GAS LISTING /tmp/ccgk3rzZ.s 			page 39


 1589              		.cfi_def_cfa_register 6
 1590 0008 4883EC70 		subq	$112, %rsp
 1591 000c 48897D98 		movq	%rdi, -104(%rbp)
 1592 0010 48897590 		movq	%rsi, -112(%rbp)
 1593              		.loc 1 388 1
 1594 0014 64488B04 		movq	%fs:40, %rax
 1594      25280000 
 1594      00
 1595 001d 488945F8 		movq	%rax, -8(%rbp)
 1596 0021 31C0     		xorl	%eax, %eax
 389:/home/xingli/share/LiteOS_Lab/network/mqtt/paho_mqtt/paho/MQTTClient-C/src/MQTTClient.c ****     int len = 0,
 1597              		.loc 1 389 9
 1598 0023 C745AC00 		movl	$0, -84(%rbp)
 1598      000000
 390:/home/xingli/share/LiteOS_Lab/network/mqtt/paho_mqtt/paho/MQTTClient-C/src/MQTTClient.c ****         rc = MQTT_SUCCESS;
 1599              		.loc 1 390 9
 1600 002a C745B000 		movl	$0, -80(%rbp)
 1600      000000
 391:/home/xingli/share/LiteOS_Lab/network/mqtt/paho_mqtt/paho/MQTTClient-C/src/MQTTClient.c ****     Timer send_timer;
 392:/home/xingli/share/LiteOS_Lab/network/mqtt/paho_mqtt/paho/MQTTClient-C/src/MQTTClient.c **** 
 393:/home/xingli/share/LiteOS_Lab/network/mqtt/paho_mqtt/paho/MQTTClient-C/src/MQTTClient.c ****     int packet_type = readPacket(c, timer);     /* read the socket, see what work is due */
 1601              		.loc 1 393 23
 1602 0031 488B5590 		movq	-112(%rbp), %rdx
 1603 0035 488B4598 		movq	-104(%rbp), %rax
 1604 0039 4889D6   		movq	%rdx, %rsi
 1605 003c 4889C7   		movq	%rax, %rdi
 1606 003f E8000000 		call	readPacket
 1606      00
 1607 0044 8945B4   		movl	%eax, -76(%rbp)
 1608 0047 837DB40D 		cmpl	$13, -76(%rbp)
 1609 004b 7724     		ja	.L103
 1610 004d 8B45B4   		movl	-76(%rbp), %eax
 1611 0050 488D1485 		leaq	0(,%rax,4), %rdx
 1611      00000000 
 1612 0058 488D0500 		leaq	.L105(%rip), %rax
 1612      000000
 1613 005f 8B0402   		movl	(%rdx,%rax), %eax
 1614 0062 4898     		cltq
 1615 0064 488D1500 		leaq	.L105(%rip), %rdx
 1615      000000
 1616 006b 4801D0   		addq	%rdx, %rax
 1617 006e 3EFFE0   		notrack jmp	*%rax
 1618              		.section	.rodata.cycle,"a",@progbits
 1619              		.align 4
 1620              		.align 4
 1621              	.L105:
 1622 0000 00000000 		.long	.L130-.L105
 1623 0004 00000000 		.long	.L103-.L105
 1624 0008 00000000 		.long	.L130-.L105
 1625 000c 00000000 		.long	.L109-.L105
 1626 0010 00000000 		.long	.L130-.L105
 1627 0014 00000000 		.long	.L108-.L105
 1628 0018 00000000 		.long	.L108-.L105
 1629 001c 00000000 		.long	.L130-.L105
 1630 0020 00000000 		.long	.L103-.L105
 1631 0024 00000000 		.long	.L130-.L105
 1632 0028 00000000 		.long	.L103-.L105
GAS LISTING /tmp/ccgk3rzZ.s 			page 40


 1633 002c 00000000 		.long	.L130-.L105
 1634 0030 00000000 		.long	.L103-.L105
 1635 0034 00000000 		.long	.L104-.L105
 1636              		.section	.text.cycle
 1637              	.L103:
 394:/home/xingli/share/LiteOS_Lab/network/mqtt/paho_mqtt/paho/MQTTClient-C/src/MQTTClient.c **** 
 395:/home/xingli/share/LiteOS_Lab/network/mqtt/paho_mqtt/paho/MQTTClient-C/src/MQTTClient.c ****     switch (packet_type)
 396:/home/xingli/share/LiteOS_Lab/network/mqtt/paho_mqtt/paho/MQTTClient-C/src/MQTTClient.c ****     {
 397:/home/xingli/share/LiteOS_Lab/network/mqtt/paho_mqtt/paho/MQTTClient-C/src/MQTTClient.c ****     default:
 398:/home/xingli/share/LiteOS_Lab/network/mqtt/paho_mqtt/paho/MQTTClient-C/src/MQTTClient.c ****         /* no more data to read, unrecoverable. Or read packet fails due to unexpected network erro
 399:/home/xingli/share/LiteOS_Lab/network/mqtt/paho_mqtt/paho/MQTTClient-C/src/MQTTClient.c ****         rc = packet_type;
 1638              		.loc 1 399 12
 1639 0071 8B45B4   		movl	-76(%rbp), %eax
 1640 0074 8945B0   		movl	%eax, -80(%rbp)
 400:/home/xingli/share/LiteOS_Lab/network/mqtt/paho_mqtt/paho/MQTTClient-C/src/MQTTClient.c ****         goto exit;
 1641              		.loc 1 400 9
 1642 0077 E95A0200 		jmp	.L111
 1642      00
 1643              	.L109:
 1644              	.LBB7:
 401:/home/xingli/share/LiteOS_Lab/network/mqtt/paho_mqtt/paho/MQTTClient-C/src/MQTTClient.c ****     case 0: /* timed out reading packet */
 402:/home/xingli/share/LiteOS_Lab/network/mqtt/paho_mqtt/paho/MQTTClient-C/src/MQTTClient.c ****         break;
 403:/home/xingli/share/LiteOS_Lab/network/mqtt/paho_mqtt/paho/MQTTClient-C/src/MQTTClient.c ****     case CONNACK:
 404:/home/xingli/share/LiteOS_Lab/network/mqtt/paho_mqtt/paho/MQTTClient-C/src/MQTTClient.c ****     case PUBACK:
 405:/home/xingli/share/LiteOS_Lab/network/mqtt/paho_mqtt/paho/MQTTClient-C/src/MQTTClient.c ****     case SUBACK:
 406:/home/xingli/share/LiteOS_Lab/network/mqtt/paho_mqtt/paho/MQTTClient-C/src/MQTTClient.c ****     case UNSUBACK:
 407:/home/xingli/share/LiteOS_Lab/network/mqtt/paho_mqtt/paho/MQTTClient-C/src/MQTTClient.c ****         break;
 408:/home/xingli/share/LiteOS_Lab/network/mqtt/paho_mqtt/paho/MQTTClient-C/src/MQTTClient.c ****     case PUBLISH:
 409:/home/xingli/share/LiteOS_Lab/network/mqtt/paho_mqtt/paho/MQTTClient-C/src/MQTTClient.c ****     {
 410:/home/xingli/share/LiteOS_Lab/network/mqtt/paho_mqtt/paho/MQTTClient-C/src/MQTTClient.c ****         MQTTString topicName;
 411:/home/xingli/share/LiteOS_Lab/network/mqtt/paho_mqtt/paho/MQTTClient-C/src/MQTTClient.c ****         MQTTMessage msg;
 412:/home/xingli/share/LiteOS_Lab/network/mqtt/paho_mqtt/paho/MQTTClient-C/src/MQTTClient.c ****         int intQoS;
 413:/home/xingli/share/LiteOS_Lab/network/mqtt/paho_mqtt/paho/MQTTClient-C/src/MQTTClient.c ****         msg.payloadlen = 0; /* this is a size_t, but deserialize publish sets this as int */
 1645              		.loc 1 413 24
 1646 007c 48C745F0 		movq	$0, -16(%rbp)
 1646      00000000 
 414:/home/xingli/share/LiteOS_Lab/network/mqtt/paho_mqtt/paho/MQTTClient-C/src/MQTTClient.c ****         if (MQTTDeserialize_publish(&msg.dup, &intQoS, &msg.retained, &msg.id, &topicName,
 415:/home/xingli/share/LiteOS_Lab/network/mqtt/paho_mqtt/paho/MQTTClient-C/src/MQTTClient.c ****                                     (unsigned char **)&msg.payload, (int *)&msg.payloadlen, c->read
 1647              		.loc 1 415 106
 1648 0084 488B4598 		movq	-104(%rbp), %rax
 1649 0088 488B4010 		movq	16(%rax), %rax
 414:/home/xingli/share/LiteOS_Lab/network/mqtt/paho_mqtt/paho/MQTTClient-C/src/MQTTClient.c ****         if (MQTTDeserialize_publish(&msg.dup, &intQoS, &msg.retained, &msg.id, &topicName,
 1650              		.loc 1 414 13
 1651 008c 4189C2   		movl	%eax, %r10d
 1652 008f 488B4598 		movq	-104(%rbp), %rax
 1653 0093 488B7020 		movq	32(%rax), %rsi
 1654 0097 488D45E0 		leaq	-32(%rbp), %rax
 1655 009b 4C8D4808 		leaq	8(%rax), %r9
 1656 009f 4C8D45C0 		leaq	-64(%rbp), %r8
 1657 00a3 488D45E0 		leaq	-32(%rbp), %rax
 1658 00a7 488D4806 		leaq	6(%rax), %rcx
 1659 00ab 488D45E0 		leaq	-32(%rbp), %rax
 1660 00af 488D5004 		leaq	4(%rax), %rdx
 1661 00b3 488D45A8 		leaq	-88(%rbp), %rax
 1662 00b7 488D7DE0 		leaq	-32(%rbp), %rdi
 1663 00bb 4883C705 		addq	$5, %rdi
 1664 00bf 4883EC08 		subq	$8, %rsp
GAS LISTING /tmp/ccgk3rzZ.s 			page 41


 1665 00c3 4152     		pushq	%r10
 1666 00c5 56       		pushq	%rsi
 1667 00c6 488D75E0 		leaq	-32(%rbp), %rsi
 1668 00ca 4883C610 		addq	$16, %rsi
 1669 00ce 56       		pushq	%rsi
 1670 00cf 4889C6   		movq	%rax, %rsi
 1671 00d2 E8000000 		call	MQTTDeserialize_publish@PLT
 1671      00
 1672 00d7 4883C420 		addq	$32, %rsp
 414:/home/xingli/share/LiteOS_Lab/network/mqtt/paho_mqtt/paho/MQTTClient-C/src/MQTTClient.c ****         if (MQTTDeserialize_publish(&msg.dup, &intQoS, &msg.retained, &msg.id, &topicName,
 1673              		.loc 1 414 12
 1674 00db 83F801   		cmpl	$1, %eax
 1675 00de 0F85EE01 		jne	.L131
 1675      0000
 416:/home/xingli/share/LiteOS_Lab/network/mqtt/paho_mqtt/paho/MQTTClient-C/src/MQTTClient.c ****             goto exit;
 417:/home/xingli/share/LiteOS_Lab/network/mqtt/paho_mqtt/paho/MQTTClient-C/src/MQTTClient.c ****         msg.qos = (enum QoS)intQoS;
 1676              		.loc 1 417 19
 1677 00e4 8B45A8   		movl	-88(%rbp), %eax
 1678              		.loc 1 417 17
 1679 00e7 8945E0   		movl	%eax, -32(%rbp)
 418:/home/xingli/share/LiteOS_Lab/network/mqtt/paho_mqtt/paho/MQTTClient-C/src/MQTTClient.c ****         deliverMessage(c, &topicName, &msg);
 1680              		.loc 1 418 9
 1681 00ea 488D55E0 		leaq	-32(%rbp), %rdx
 1682 00ee 488D4DC0 		leaq	-64(%rbp), %rcx
 1683 00f2 488B4598 		movq	-104(%rbp), %rax
 1684 00f6 4889CE   		movq	%rcx, %rsi
 1685 00f9 4889C7   		movq	%rax, %rdi
 1686 00fc E8000000 		call	deliverMessage
 1686      00
 419:/home/xingli/share/LiteOS_Lab/network/mqtt/paho_mqtt/paho/MQTTClient-C/src/MQTTClient.c ****         if (msg.qos != QOS0)
 1687              		.loc 1 419 16
 1688 0101 8B45E0   		movl	-32(%rbp), %eax
 1689              		.loc 1 419 12
 1690 0104 85C0     		testl	%eax, %eax
 1691 0106 0F84A901 		je	.L132
 1691      0000
 420:/home/xingli/share/LiteOS_Lab/network/mqtt/paho_mqtt/paho/MQTTClient-C/src/MQTTClient.c ****         {
 421:/home/xingli/share/LiteOS_Lab/network/mqtt/paho_mqtt/paho/MQTTClient-C/src/MQTTClient.c ****             if (msg.qos == QOS1)
 1692              		.loc 1 421 20
 1693 010c 8B45E0   		movl	-32(%rbp), %eax
 1694              		.loc 1 421 16
 1695 010f 83F801   		cmpl	$1, %eax
 1696 0112 7533     		jne	.L116
 422:/home/xingli/share/LiteOS_Lab/network/mqtt/paho_mqtt/paho/MQTTClient-C/src/MQTTClient.c ****                 len = MQTTSerialize_ack(c->buf, c->buf_size, PUBACK, 0, msg.id);
 1697              		.loc 1 422 76
 1698 0114 0FB745E6 		movzwl	-26(%rbp), %eax
 1699              		.loc 1 422 23
 1700 0118 0FB7D0   		movzwl	%ax, %edx
 1701              		.loc 1 422 50
 1702 011b 488B4598 		movq	-104(%rbp), %rax
 1703 011f 488B4008 		movq	8(%rax), %rax
 1704              		.loc 1 422 23
 1705 0123 89C6     		movl	%eax, %esi
 1706 0125 488B4598 		movq	-104(%rbp), %rax
 1707 0129 488B4018 		movq	24(%rax), %rax
 1708 012d 4189D0   		movl	%edx, %r8d
 1709 0130 B9000000 		movl	$0, %ecx
GAS LISTING /tmp/ccgk3rzZ.s 			page 42


 1709      00
 1710 0135 BA040000 		movl	$4, %edx
 1710      00
 1711 013a 4889C7   		movq	%rax, %rdi
 1712 013d E8000000 		call	MQTTSerialize_ack@PLT
 1712      00
 1713 0142 8945AC   		movl	%eax, -84(%rbp)
 1714 0145 EB39     		jmp	.L117
 1715              	.L116:
 423:/home/xingli/share/LiteOS_Lab/network/mqtt/paho_mqtt/paho/MQTTClient-C/src/MQTTClient.c ****             else if (msg.qos == QOS2)
 1716              		.loc 1 423 25
 1717 0147 8B45E0   		movl	-32(%rbp), %eax
 1718              		.loc 1 423 21
 1719 014a 83F802   		cmpl	$2, %eax
 1720 014d 7531     		jne	.L117
 424:/home/xingli/share/LiteOS_Lab/network/mqtt/paho_mqtt/paho/MQTTClient-C/src/MQTTClient.c ****                 len = MQTTSerialize_ack(c->buf, c->buf_size, PUBREC, 0, msg.id);
 1721              		.loc 1 424 76
 1722 014f 0FB745E6 		movzwl	-26(%rbp), %eax
 1723              		.loc 1 424 23
 1724 0153 0FB7D0   		movzwl	%ax, %edx
 1725              		.loc 1 424 50
 1726 0156 488B4598 		movq	-104(%rbp), %rax
 1727 015a 488B4008 		movq	8(%rax), %rax
 1728              		.loc 1 424 23
 1729 015e 89C6     		movl	%eax, %esi
 1730 0160 488B4598 		movq	-104(%rbp), %rax
 1731 0164 488B4018 		movq	24(%rax), %rax
 1732 0168 4189D0   		movl	%edx, %r8d
 1733 016b B9000000 		movl	$0, %ecx
 1733      00
 1734 0170 BA050000 		movl	$5, %edx
 1734      00
 1735 0175 4889C7   		movq	%rax, %rdi
 1736 0178 E8000000 		call	MQTTSerialize_ack@PLT
 1736      00
 1737 017d 8945AC   		movl	%eax, -84(%rbp)
 1738              	.L117:
 425:/home/xingli/share/LiteOS_Lab/network/mqtt/paho_mqtt/paho/MQTTClient-C/src/MQTTClient.c ****             if (len <= 0)
 1739              		.loc 1 425 16
 1740 0180 837DAC00 		cmpl	$0, -84(%rbp)
 1741 0184 7F09     		jg	.L118
 426:/home/xingli/share/LiteOS_Lab/network/mqtt/paho_mqtt/paho/MQTTClient-C/src/MQTTClient.c ****                 rc = FAILURE;
 1742              		.loc 1 426 20
 1743 0186 C745B0FF 		movl	$-1, -80(%rbp)
 1743      FFFFFF
 1744 018d EB35     		jmp	.L119
 1745              	.L118:
 427:/home/xingli/share/LiteOS_Lab/network/mqtt/paho_mqtt/paho/MQTTClient-C/src/MQTTClient.c ****             else
 428:/home/xingli/share/LiteOS_Lab/network/mqtt/paho_mqtt/paho/MQTTClient-C/src/MQTTClient.c ****             {
 429:/home/xingli/share/LiteOS_Lab/network/mqtt/paho_mqtt/paho/MQTTClient-C/src/MQTTClient.c ****                 TimerInit(&send_timer);
 1746              		.loc 1 429 17
 1747 018f 488D45B8 		leaq	-72(%rbp), %rax
 1748 0193 4889C7   		movq	%rax, %rdi
 1749 0196 E8000000 		call	osal_loop_timer_init@PLT
 1749      00
 430:/home/xingli/share/LiteOS_Lab/network/mqtt/paho_mqtt/paho/MQTTClient-C/src/MQTTClient.c ****                 TimerCountdownMS(&send_timer, 1000);
 1750              		.loc 1 430 17
GAS LISTING /tmp/ccgk3rzZ.s 			page 43


 1751 019b 488D45B8 		leaq	-72(%rbp), %rax
 1752 019f BEE80300 		movl	$1000, %esi
 1752      00
 1753 01a4 4889C7   		movq	%rax, %rdi
 1754 01a7 E8000000 		call	osal_loop_timer_count_downms@PLT
 1754      00
 431:/home/xingli/share/LiteOS_Lab/network/mqtt/paho_mqtt/paho/MQTTClient-C/src/MQTTClient.c ****                 rc = sendPacket(c, len, &send_timer);
 1755              		.loc 1 431 22
 1756 01ac 488D55B8 		leaq	-72(%rbp), %rdx
 1757 01b0 8B4DAC   		movl	-84(%rbp), %ecx
 1758 01b3 488B4598 		movq	-104(%rbp), %rax
 1759 01b7 89CE     		movl	%ecx, %esi
 1760 01b9 4889C7   		movq	%rax, %rdi
 1761 01bc E8000000 		call	sendPacket
 1761      00
 1762 01c1 8945B0   		movl	%eax, -80(%rbp)
 1763              	.L119:
 432:/home/xingli/share/LiteOS_Lab/network/mqtt/paho_mqtt/paho/MQTTClient-C/src/MQTTClient.c ****             }
 433:/home/xingli/share/LiteOS_Lab/network/mqtt/paho_mqtt/paho/MQTTClient-C/src/MQTTClient.c ****             if (rc == FAILURE)
 1764              		.loc 1 433 16
 1765 01c4 837DB0FF 		cmpl	$-1, -80(%rbp)
 1766 01c8 0F85E700 		jne	.L132
 1766      0000
 434:/home/xingli/share/LiteOS_Lab/network/mqtt/paho_mqtt/paho/MQTTClient-C/src/MQTTClient.c ****                 goto exit; // there was a problem
 1767              		.loc 1 434 17
 1768 01ce E9030100 		jmp	.L111
 1768      00
 1769              	.L108:
 1770              	.LBE7:
 1771              	.LBB8:
 435:/home/xingli/share/LiteOS_Lab/network/mqtt/paho_mqtt/paho/MQTTClient-C/src/MQTTClient.c ****         }
 436:/home/xingli/share/LiteOS_Lab/network/mqtt/paho_mqtt/paho/MQTTClient-C/src/MQTTClient.c ****         break;
 437:/home/xingli/share/LiteOS_Lab/network/mqtt/paho_mqtt/paho/MQTTClient-C/src/MQTTClient.c ****     }
 438:/home/xingli/share/LiteOS_Lab/network/mqtt/paho_mqtt/paho/MQTTClient-C/src/MQTTClient.c ****     case PUBREC:
 439:/home/xingli/share/LiteOS_Lab/network/mqtt/paho_mqtt/paho/MQTTClient-C/src/MQTTClient.c ****     case PUBREL:
 440:/home/xingli/share/LiteOS_Lab/network/mqtt/paho_mqtt/paho/MQTTClient-C/src/MQTTClient.c ****     {
 441:/home/xingli/share/LiteOS_Lab/network/mqtt/paho_mqtt/paho/MQTTClient-C/src/MQTTClient.c ****         unsigned short mypacketid;
 442:/home/xingli/share/LiteOS_Lab/network/mqtt/paho_mqtt/paho/MQTTClient-C/src/MQTTClient.c ****         unsigned char dup, type;
 443:/home/xingli/share/LiteOS_Lab/network/mqtt/paho_mqtt/paho/MQTTClient-C/src/MQTTClient.c ****         if (MQTTDeserialize_ack(&type, &dup, &mypacketid, c->readbuf, c->readbuf_size) != 1)
 1772              		.loc 1 443 72
 1773 01d3 488B4598 		movq	-104(%rbp), %rax
 1774 01d7 488B4010 		movq	16(%rax), %rax
 1775              		.loc 1 443 13
 1776 01db 89C7     		movl	%eax, %edi
 1777 01dd 488B4598 		movq	-104(%rbp), %rax
 1778 01e1 488B4820 		movq	32(%rax), %rcx
 1779 01e5 488D55E0 		leaq	-32(%rbp), %rdx
 1780 01e9 488D75A8 		leaq	-88(%rbp), %rsi
 1781 01ed 488D45C0 		leaq	-64(%rbp), %rax
 1782 01f1 4189F8   		movl	%edi, %r8d
 1783 01f4 4889C7   		movq	%rax, %rdi
 1784 01f7 E8000000 		call	MQTTDeserialize_ack@PLT
 1784      00
 1785              		.loc 1 443 12
 1786 01fc 83F801   		cmpl	$1, %eax
 1787 01ff 740C     		je	.L120
 444:/home/xingli/share/LiteOS_Lab/network/mqtt/paho_mqtt/paho/MQTTClient-C/src/MQTTClient.c ****             rc = FAILURE;
GAS LISTING /tmp/ccgk3rzZ.s 			page 44


 1788              		.loc 1 444 16
 1789 0201 C745B0FF 		movl	$-1, -80(%rbp)
 1789      FFFFFF
 1790 0208 E9930000 		jmp	.L121
 1790      00
 1791              	.L120:
 445:/home/xingli/share/LiteOS_Lab/network/mqtt/paho_mqtt/paho/MQTTClient-C/src/MQTTClient.c ****         else if ((len = MQTTSerialize_ack(c->buf, c->buf_size,
 1792              		.loc 1 445 25
 1793 020d 0FB745E0 		movzwl	-32(%rbp), %eax
 1794 0211 0FB7D0   		movzwl	%ax, %edx
 1795 0214 837DB405 		cmpl	$5, -76(%rbp)
 1796 0218 7507     		jne	.L122
 1797              		.loc 1 445 25 is_stmt 0 discriminator 1
 1798 021a BE060000 		movl	$6, %esi
 1798      00
 1799 021f EB05     		jmp	.L123
 1800              	.L122:
 1801              		.loc 1 445 25 discriminator 2
 1802 0221 BE070000 		movl	$7, %esi
 1802      00
 1803              	.L123:
 1804              		.loc 1 445 52 is_stmt 1 discriminator 4
 1805 0226 488B4598 		movq	-104(%rbp), %rax
 1806 022a 488B4008 		movq	8(%rax), %rax
 1807              		.loc 1 445 25 discriminator 4
 1808 022e 89C7     		movl	%eax, %edi
 1809 0230 488B4598 		movq	-104(%rbp), %rax
 1810 0234 488B4018 		movq	24(%rax), %rax
 1811 0238 4189D0   		movl	%edx, %r8d
 1812 023b B9000000 		movl	$0, %ecx
 1812      00
 1813 0240 89F2     		movl	%esi, %edx
 1814 0242 89FE     		movl	%edi, %esi
 1815 0244 4889C7   		movq	%rax, %rdi
 1816 0247 E8000000 		call	MQTTSerialize_ack@PLT
 1816      00
 1817 024c 8945AC   		movl	%eax, -84(%rbp)
 1818              		.loc 1 445 17 discriminator 4
 1819 024f 837DAC00 		cmpl	$0, -84(%rbp)
 1820 0253 7F09     		jg	.L124
 446:/home/xingli/share/LiteOS_Lab/network/mqtt/paho_mqtt/paho/MQTTClient-C/src/MQTTClient.c ****                                           (packet_type == PUBREC) ? PUBREL : PUBCOMP, 0, mypacketid
 447:/home/xingli/share/LiteOS_Lab/network/mqtt/paho_mqtt/paho/MQTTClient-C/src/MQTTClient.c ****             rc = FAILURE;
 1821              		.loc 1 447 16
 1822 0255 C745B0FF 		movl	$-1, -80(%rbp)
 1822      FFFFFF
 1823 025c EB42     		jmp	.L121
 1824              	.L124:
 448:/home/xingli/share/LiteOS_Lab/network/mqtt/paho_mqtt/paho/MQTTClient-C/src/MQTTClient.c ****         else
 449:/home/xingli/share/LiteOS_Lab/network/mqtt/paho_mqtt/paho/MQTTClient-C/src/MQTTClient.c ****         {
 450:/home/xingli/share/LiteOS_Lab/network/mqtt/paho_mqtt/paho/MQTTClient-C/src/MQTTClient.c ****             TimerInit(&send_timer);
 1825              		.loc 1 450 13
 1826 025e 488D45B8 		leaq	-72(%rbp), %rax
 1827 0262 4889C7   		movq	%rax, %rdi
 1828 0265 E8000000 		call	osal_loop_timer_init@PLT
 1828      00
 451:/home/xingli/share/LiteOS_Lab/network/mqtt/paho_mqtt/paho/MQTTClient-C/src/MQTTClient.c ****             TimerCountdownMS(&send_timer, 1000);
 1829              		.loc 1 451 13
GAS LISTING /tmp/ccgk3rzZ.s 			page 45


 1830 026a 488D45B8 		leaq	-72(%rbp), %rax
 1831 026e BEE80300 		movl	$1000, %esi
 1831      00
 1832 0273 4889C7   		movq	%rax, %rdi
 1833 0276 E8000000 		call	osal_loop_timer_count_downms@PLT
 1833      00
 452:/home/xingli/share/LiteOS_Lab/network/mqtt/paho_mqtt/paho/MQTTClient-C/src/MQTTClient.c ****             rc = sendPacket(c, len, &send_timer);
 1834              		.loc 1 452 18
 1835 027b 488D55B8 		leaq	-72(%rbp), %rdx
 1836 027f 8B4DAC   		movl	-84(%rbp), %ecx
 1837 0282 488B4598 		movq	-104(%rbp), %rax
 1838 0286 89CE     		movl	%ecx, %esi
 1839 0288 4889C7   		movq	%rax, %rdi
 1840 028b E8000000 		call	sendPacket
 1840      00
 1841 0290 8945B0   		movl	%eax, -80(%rbp)
 453:/home/xingli/share/LiteOS_Lab/network/mqtt/paho_mqtt/paho/MQTTClient-C/src/MQTTClient.c ****             if(rc != MQTT_SUCCESS)
 1842              		.loc 1 453 15
 1843 0293 837DB000 		cmpl	$0, -80(%rbp)
 1844 0297 7407     		je	.L121
 454:/home/xingli/share/LiteOS_Lab/network/mqtt/paho_mqtt/paho/MQTTClient-C/src/MQTTClient.c ****                 rc = FAILURE; // there was a problem
 1845              		.loc 1 454 20
 1846 0299 C745B0FF 		movl	$-1, -80(%rbp)
 1846      FFFFFF
 1847              	.L121:
 455:/home/xingli/share/LiteOS_Lab/network/mqtt/paho_mqtt/paho/MQTTClient-C/src/MQTTClient.c ****         }
 456:/home/xingli/share/LiteOS_Lab/network/mqtt/paho_mqtt/paho/MQTTClient-C/src/MQTTClient.c ****         if (rc == FAILURE)
 1848              		.loc 1 456 12
 1849 02a0 837DB0FF 		cmpl	$-1, -80(%rbp)
 1850 02a4 7512     		jne	.L133
 457:/home/xingli/share/LiteOS_Lab/network/mqtt/paho_mqtt/paho/MQTTClient-C/src/MQTTClient.c ****             goto exit; // there was a problem
 1851              		.loc 1 457 13
 1852 02a6 EB2E     		jmp	.L111
 1853              	.L104:
 1854              	.LBE8:
 458:/home/xingli/share/LiteOS_Lab/network/mqtt/paho_mqtt/paho/MQTTClient-C/src/MQTTClient.c ****         break;
 459:/home/xingli/share/LiteOS_Lab/network/mqtt/paho_mqtt/paho/MQTTClient-C/src/MQTTClient.c ****     }
 460:/home/xingli/share/LiteOS_Lab/network/mqtt/paho_mqtt/paho/MQTTClient-C/src/MQTTClient.c **** 
 461:/home/xingli/share/LiteOS_Lab/network/mqtt/paho_mqtt/paho/MQTTClient-C/src/MQTTClient.c ****     case PUBCOMP:
 462:/home/xingli/share/LiteOS_Lab/network/mqtt/paho_mqtt/paho/MQTTClient-C/src/MQTTClient.c ****         break;
 463:/home/xingli/share/LiteOS_Lab/network/mqtt/paho_mqtt/paho/MQTTClient-C/src/MQTTClient.c ****     case PINGRESP:
 464:/home/xingli/share/LiteOS_Lab/network/mqtt/paho_mqtt/paho/MQTTClient-C/src/MQTTClient.c ****         c->ping_outstanding = 0;
 1855              		.loc 1 464 29
 1856 02a8 488B4598 		movq	-104(%rbp), %rax
 1857 02ac C6402C00 		movb	$0, 44(%rax)
 465:/home/xingli/share/LiteOS_Lab/network/mqtt/paho_mqtt/paho/MQTTClient-C/src/MQTTClient.c ****         break;
 1858              		.loc 1 465 9
 1859 02b0 EB07     		jmp	.L112
 1860              	.L130:
 402:/home/xingli/share/LiteOS_Lab/network/mqtt/paho_mqtt/paho/MQTTClient-C/src/MQTTClient.c ****     case CONNACK:
 1861              		.loc 1 402 9
 1862 02b2 90       		nop
 1863 02b3 EB04     		jmp	.L112
 1864              	.L132:
 1865              	.LBB9:
 436:/home/xingli/share/LiteOS_Lab/network/mqtt/paho_mqtt/paho/MQTTClient-C/src/MQTTClient.c ****     }
 1866              		.loc 1 436 9
GAS LISTING /tmp/ccgk3rzZ.s 			page 46


 1867 02b5 90       		nop
 1868 02b6 EB01     		jmp	.L112
 1869              	.L133:
 1870              	.LBE9:
 1871              	.LBB10:
 458:/home/xingli/share/LiteOS_Lab/network/mqtt/paho_mqtt/paho/MQTTClient-C/src/MQTTClient.c ****     }
 1872              		.loc 1 458 9
 1873 02b8 90       		nop
 1874              	.L112:
 1875              	.LBE10:
 466:/home/xingli/share/LiteOS_Lab/network/mqtt/paho_mqtt/paho/MQTTClient-C/src/MQTTClient.c ****     }
 467:/home/xingli/share/LiteOS_Lab/network/mqtt/paho_mqtt/paho/MQTTClient-C/src/MQTTClient.c **** 
 468:/home/xingli/share/LiteOS_Lab/network/mqtt/paho_mqtt/paho/MQTTClient-C/src/MQTTClient.c ****     if (keepalive(c) != MQTT_SUCCESS)
 1876              		.loc 1 468 9
 1877 02b9 488B4598 		movq	-104(%rbp), %rax
 1878 02bd 4889C7   		movq	%rax, %rdi
 1879 02c0 E8000000 		call	keepalive
 1879      00
 1880              		.loc 1 468 8
 1881 02c5 85C0     		testl	%eax, %eax
 1882 02c7 740C     		je	.L134
 469:/home/xingli/share/LiteOS_Lab/network/mqtt/paho_mqtt/paho/MQTTClient-C/src/MQTTClient.c ****     {
 470:/home/xingli/share/LiteOS_Lab/network/mqtt/paho_mqtt/paho/MQTTClient-C/src/MQTTClient.c ****         //check only keepalive FAILURE status so that previous FAILURE status can be considered as 
 471:/home/xingli/share/LiteOS_Lab/network/mqtt/paho_mqtt/paho/MQTTClient-C/src/MQTTClient.c ****         rc = FAILURE;
 1883              		.loc 1 471 12
 1884 02c9 C745B0FF 		movl	$-1, -80(%rbp)
 1884      FFFFFF
 1885 02d0 EB04     		jmp	.L111
 1886              	.L131:
 1887              	.LBB11:
 416:/home/xingli/share/LiteOS_Lab/network/mqtt/paho_mqtt/paho/MQTTClient-C/src/MQTTClient.c ****         msg.qos = (enum QoS)intQoS;
 1888              		.loc 1 416 13
 1889 02d2 90       		nop
 1890 02d3 EB01     		jmp	.L111
 1891              	.L134:
 1892              	.LBE11:
 472:/home/xingli/share/LiteOS_Lab/network/mqtt/paho_mqtt/paho/MQTTClient-C/src/MQTTClient.c ****     }
 473:/home/xingli/share/LiteOS_Lab/network/mqtt/paho_mqtt/paho/MQTTClient-C/src/MQTTClient.c **** 
 474:/home/xingli/share/LiteOS_Lab/network/mqtt/paho_mqtt/paho/MQTTClient-C/src/MQTTClient.c **** exit:
 1893              		.loc 1 474 1
 1894 02d5 90       		nop
 1895              	.L111:
 475:/home/xingli/share/LiteOS_Lab/network/mqtt/paho_mqtt/paho/MQTTClient-C/src/MQTTClient.c ****     if (rc == MQTT_SUCCESS)
 1896              		.loc 1 475 8
 1897 02d6 837DB000 		cmpl	$0, -80(%rbp)
 1898 02da 7508     		jne	.L126
 476:/home/xingli/share/LiteOS_Lab/network/mqtt/paho_mqtt/paho/MQTTClient-C/src/MQTTClient.c ****         rc = packet_type;
 1899              		.loc 1 476 12
 1900 02dc 8B45B4   		movl	-76(%rbp), %eax
 1901 02df 8945B0   		movl	%eax, -80(%rbp)
 1902 02e2 EB17     		jmp	.L127
 1903              	.L126:
 477:/home/xingli/share/LiteOS_Lab/network/mqtt/paho_mqtt/paho/MQTTClient-C/src/MQTTClient.c ****     else if (c->isconnected)
 1904              		.loc 1 477 15
 1905 02e4 488B4598 		movq	-104(%rbp), %rax
 1906 02e8 8B4030   		movl	48(%rax), %eax
 1907              		.loc 1 477 13
GAS LISTING /tmp/ccgk3rzZ.s 			page 47


 1908 02eb 85C0     		testl	%eax, %eax
 1909 02ed 740C     		je	.L127
 478:/home/xingli/share/LiteOS_Lab/network/mqtt/paho_mqtt/paho/MQTTClient-C/src/MQTTClient.c ****         MQTTCloseSession(c);
 1910              		.loc 1 478 9
 1911 02ef 488B4598 		movq	-104(%rbp), %rax
 1912 02f3 4889C7   		movq	%rax, %rdi
 1913 02f6 E8000000 		call	MQTTCloseSession
 1913      00
 1914              	.L127:
 479:/home/xingli/share/LiteOS_Lab/network/mqtt/paho_mqtt/paho/MQTTClient-C/src/MQTTClient.c ****     return rc;
 1915              		.loc 1 479 12
 1916 02fb 8B45B0   		movl	-80(%rbp), %eax
 480:/home/xingli/share/LiteOS_Lab/network/mqtt/paho_mqtt/paho/MQTTClient-C/src/MQTTClient.c **** }
 1917              		.loc 1 480 1
 1918 02fe 488B4DF8 		movq	-8(%rbp), %rcx
 1919 0302 6448330C 		xorq	%fs:40, %rcx
 1919      25280000 
 1919      00
 1920 030b 7405     		je	.L129
 1921 030d E8000000 		call	__stack_chk_fail@PLT
 1921      00
 1922              	.L129:
 1923 0312 C9       		leave
 1924              	.LCFI38:
 1925              		.cfi_def_cfa 7, 8
 1926 0313 C3       		ret
 1927              		.cfi_endproc
 1928              	.LFE19:
 1930              		.section	.text.MQTTYield,"ax",@progbits
 1931              		.globl	MQTTYield
 1933              	MQTTYield:
 1934              	.LFB20:
 481:/home/xingli/share/LiteOS_Lab/network/mqtt/paho_mqtt/paho/MQTTClient-C/src/MQTTClient.c **** 
 482:/home/xingli/share/LiteOS_Lab/network/mqtt/paho_mqtt/paho/MQTTClient-C/src/MQTTClient.c **** 
 483:/home/xingli/share/LiteOS_Lab/network/mqtt/paho_mqtt/paho/MQTTClient-C/src/MQTTClient.c **** int MQTTYield(MQTTClient* c, int timeout_ms)
 484:/home/xingli/share/LiteOS_Lab/network/mqtt/paho_mqtt/paho/MQTTClient-C/src/MQTTClient.c **** {
 1935              		.loc 1 484 1
 1936              		.cfi_startproc
 1937 0000 F30F1EFA 		endbr64
 1938 0004 55       		pushq	%rbp
 1939              	.LCFI39:
 1940              		.cfi_def_cfa_offset 16
 1941              		.cfi_offset 6, -16
 1942 0005 4889E5   		movq	%rsp, %rbp
 1943              	.LCFI40:
 1944              		.cfi_def_cfa_register 6
 1945 0008 4883EC30 		subq	$48, %rsp
 1946 000c 48897DD8 		movq	%rdi, -40(%rbp)
 1947 0010 8975D4   		movl	%esi, -44(%rbp)
 1948              		.loc 1 484 1
 1949 0013 64488B04 		movq	%fs:40, %rax
 1949      25280000 
 1949      00
 1950 001c 488945F8 		movq	%rax, -8(%rbp)
 1951 0020 31C0     		xorl	%eax, %eax
 485:/home/xingli/share/LiteOS_Lab/network/mqtt/paho_mqtt/paho/MQTTClient-C/src/MQTTClient.c ****     int rc = MQTT_SUCCESS;
 1952              		.loc 1 485 9
GAS LISTING /tmp/ccgk3rzZ.s 			page 48


 1953 0022 C745EC00 		movl	$0, -20(%rbp)
 1953      000000
 486:/home/xingli/share/LiteOS_Lab/network/mqtt/paho_mqtt/paho/MQTTClient-C/src/MQTTClient.c ****     Timer timer;
 487:/home/xingli/share/LiteOS_Lab/network/mqtt/paho_mqtt/paho/MQTTClient-C/src/MQTTClient.c **** 
 488:/home/xingli/share/LiteOS_Lab/network/mqtt/paho_mqtt/paho/MQTTClient-C/src/MQTTClient.c ****     TimerInit(&timer);
 1954              		.loc 1 488 5
 1955 0029 488D45F0 		leaq	-16(%rbp), %rax
 1956 002d 4889C7   		movq	%rax, %rdi
 1957 0030 E8000000 		call	osal_loop_timer_init@PLT
 1957      00
 489:/home/xingli/share/LiteOS_Lab/network/mqtt/paho_mqtt/paho/MQTTClient-C/src/MQTTClient.c ****     TimerCountdownMS(&timer, timeout_ms);
 1958              		.loc 1 489 5
 1959 0035 8B55D4   		movl	-44(%rbp), %edx
 1960 0038 488D45F0 		leaq	-16(%rbp), %rax
 1961 003c 89D6     		movl	%edx, %esi
 1962 003e 4889C7   		movq	%rax, %rdi
 1963 0041 E8000000 		call	osal_loop_timer_count_downms@PLT
 1963      00
 1964              	.L140:
 490:/home/xingli/share/LiteOS_Lab/network/mqtt/paho_mqtt/paho/MQTTClient-C/src/MQTTClient.c **** 
 491:/home/xingli/share/LiteOS_Lab/network/mqtt/paho_mqtt/paho/MQTTClient-C/src/MQTTClient.c ****     do
 492:/home/xingli/share/LiteOS_Lab/network/mqtt/paho_mqtt/paho/MQTTClient-C/src/MQTTClient.c ****     {
 493:/home/xingli/share/LiteOS_Lab/network/mqtt/paho_mqtt/paho/MQTTClient-C/src/MQTTClient.c **** #if defined(MQTT_TASK)
 494:/home/xingli/share/LiteOS_Lab/network/mqtt/paho_mqtt/paho/MQTTClient-C/src/MQTTClient.c ****         (void)MutexLock(&c->mutex);
 1965              		.loc 1 494 15
 1966 0046 488B45D8 		movq	-40(%rbp), %rax
 1967 004a 488B8048 		movq	328(%rax), %rax
 1967      010000
 1968 0051 4889C7   		movq	%rax, %rdi
 1969 0054 E8000000 		call	osal_mutex_lock@PLT
 1969      00
 1970              		.loc 1 494 9
 1971 0059 83F801   		cmpl	$1, %eax
 495:/home/xingli/share/LiteOS_Lab/network/mqtt/paho_mqtt/paho/MQTTClient-C/src/MQTTClient.c **** #endif
 496:/home/xingli/share/LiteOS_Lab/network/mqtt/paho_mqtt/paho/MQTTClient-C/src/MQTTClient.c ****         if ( (rc = cycle(c, &timer) ) < 0)
 1972              		.loc 1 496 20
 1973 005c 488D55F0 		leaq	-16(%rbp), %rdx
 1974 0060 488B45D8 		movq	-40(%rbp), %rax
 1975 0064 4889D6   		movq	%rdx, %rsi
 1976 0067 4889C7   		movq	%rax, %rdi
 1977 006a E8000000 		call	cycle
 1977      00
 1978 006f 8945EC   		movl	%eax, -20(%rbp)
 1979              		.loc 1 496 12
 1980 0072 837DEC00 		cmpl	$0, -20(%rbp)
 1981 0076 791C     		jns	.L138
 497:/home/xingli/share/LiteOS_Lab/network/mqtt/paho_mqtt/paho/MQTTClient-C/src/MQTTClient.c ****         {
 498:/home/xingli/share/LiteOS_Lab/network/mqtt/paho_mqtt/paho/MQTTClient-C/src/MQTTClient.c ****             rc = FAILURE;
 1982              		.loc 1 498 16
 1983 0078 C745ECFF 		movl	$-1, -20(%rbp)
 1983      FFFFFF
 499:/home/xingli/share/LiteOS_Lab/network/mqtt/paho_mqtt/paho/MQTTClient-C/src/MQTTClient.c **** #if defined(MQTT_TASK)
 500:/home/xingli/share/LiteOS_Lab/network/mqtt/paho_mqtt/paho/MQTTClient-C/src/MQTTClient.c ****             MutexUnlock(&c->mutex);
 1984              		.loc 1 500 13
 1985 007f 488B45D8 		movq	-40(%rbp), %rax
 1986 0083 488B8048 		movq	328(%rax), %rax
 1986      010000
GAS LISTING /tmp/ccgk3rzZ.s 			page 49


 1987 008a 4889C7   		movq	%rax, %rdi
 1988 008d E8000000 		call	osal_mutex_unlock@PLT
 1988      00
 501:/home/xingli/share/LiteOS_Lab/network/mqtt/paho_mqtt/paho/MQTTClient-C/src/MQTTClient.c **** #endif
 502:/home/xingli/share/LiteOS_Lab/network/mqtt/paho_mqtt/paho/MQTTClient-C/src/MQTTClient.c ****             break;
 1989              		.loc 1 502 13
 1990 0092 EB23     		jmp	.L139
 1991              	.L138:
 503:/home/xingli/share/LiteOS_Lab/network/mqtt/paho_mqtt/paho/MQTTClient-C/src/MQTTClient.c ****         }
 504:/home/xingli/share/LiteOS_Lab/network/mqtt/paho_mqtt/paho/MQTTClient-C/src/MQTTClient.c **** #if defined(MQTT_TASK)
 505:/home/xingli/share/LiteOS_Lab/network/mqtt/paho_mqtt/paho/MQTTClient-C/src/MQTTClient.c ****         MutexUnlock(&c->mutex);
 1992              		.loc 1 505 9
 1993 0094 488B45D8 		movq	-40(%rbp), %rax
 1994 0098 488B8048 		movq	328(%rax), %rax
 1994      010000
 1995 009f 4889C7   		movq	%rax, %rdi
 1996 00a2 E8000000 		call	osal_mutex_unlock@PLT
 1996      00
 506:/home/xingli/share/LiteOS_Lab/network/mqtt/paho_mqtt/paho/MQTTClient-C/src/MQTTClient.c **** #endif
 507:/home/xingli/share/LiteOS_Lab/network/mqtt/paho_mqtt/paho/MQTTClient-C/src/MQTTClient.c ****     }
 508:/home/xingli/share/LiteOS_Lab/network/mqtt/paho_mqtt/paho/MQTTClient-C/src/MQTTClient.c ****     while (!TimerIsExpired(&timer));
 1997              		.loc 1 508 13
 1998 00a7 488D45F0 		leaq	-16(%rbp), %rax
 1999 00ab 4889C7   		movq	%rax, %rdi
 2000 00ae E8000000 		call	osal_loop_timer_expired@PLT
 2000      00
 2001              		.loc 1 508 5
 2002 00b3 84C0     		testb	%al, %al
 2003 00b5 748F     		je	.L140
 2004              	.L139:
 509:/home/xingli/share/LiteOS_Lab/network/mqtt/paho_mqtt/paho/MQTTClient-C/src/MQTTClient.c **** 
 510:/home/xingli/share/LiteOS_Lab/network/mqtt/paho_mqtt/paho/MQTTClient-C/src/MQTTClient.c ****     return rc;
 2005              		.loc 1 510 12
 2006 00b7 8B45EC   		movl	-20(%rbp), %eax
 511:/home/xingli/share/LiteOS_Lab/network/mqtt/paho_mqtt/paho/MQTTClient-C/src/MQTTClient.c **** }
 2007              		.loc 1 511 1
 2008 00ba 488B4DF8 		movq	-8(%rbp), %rcx
 2009 00be 6448330C 		xorq	%fs:40, %rcx
 2009      25280000 
 2009      00
 2010 00c7 7405     		je	.L142
 2011 00c9 E8000000 		call	__stack_chk_fail@PLT
 2011      00
 2012              	.L142:
 2013 00ce C9       		leave
 2014              	.LCFI41:
 2015              		.cfi_def_cfa 7, 8
 2016 00cf C3       		ret
 2017              		.cfi_endproc
 2018              	.LFE20:
 2020              		.section	.text.MQTTRun,"ax",@progbits
 2021              		.globl	MQTTRun
 2023              	MQTTRun:
 2024              	.LFB21:
 512:/home/xingli/share/LiteOS_Lab/network/mqtt/paho_mqtt/paho/MQTTClient-C/src/MQTTClient.c **** 
 513:/home/xingli/share/LiteOS_Lab/network/mqtt/paho_mqtt/paho/MQTTClient-C/src/MQTTClient.c **** 
 514:/home/xingli/share/LiteOS_Lab/network/mqtt/paho_mqtt/paho/MQTTClient-C/src/MQTTClient.c **** void MQTTRun(void* parm)
GAS LISTING /tmp/ccgk3rzZ.s 			page 50


 515:/home/xingli/share/LiteOS_Lab/network/mqtt/paho_mqtt/paho/MQTTClient-C/src/MQTTClient.c **** {
 2025              		.loc 1 515 1
 2026              		.cfi_startproc
 2027 0000 F30F1EFA 		endbr64
 2028 0004 55       		pushq	%rbp
 2029              	.LCFI42:
 2030              		.cfi_def_cfa_offset 16
 2031              		.cfi_offset 6, -16
 2032 0005 4889E5   		movq	%rsp, %rbp
 2033              	.LCFI43:
 2034              		.cfi_def_cfa_register 6
 2035 0008 4883EC30 		subq	$48, %rsp
 2036 000c 48897DD8 		movq	%rdi, -40(%rbp)
 2037              		.loc 1 515 1
 2038 0010 64488B04 		movq	%fs:40, %rax
 2038      25280000 
 2038      00
 2039 0019 488945F8 		movq	%rax, -8(%rbp)
 2040 001d 31C0     		xorl	%eax, %eax
 516:/home/xingli/share/LiteOS_Lab/network/mqtt/paho_mqtt/paho/MQTTClient-C/src/MQTTClient.c **** 	Timer timer;
 517:/home/xingli/share/LiteOS_Lab/network/mqtt/paho_mqtt/paho/MQTTClient-C/src/MQTTClient.c **** 	MQTTClient* c = (MQTTClient*)parm;
 2041              		.loc 1 517 14
 2042 001f 488B45D8 		movq	-40(%rbp), %rax
 2043 0023 488945F0 		movq	%rax, -16(%rbp)
 518:/home/xingli/share/LiteOS_Lab/network/mqtt/paho_mqtt/paho/MQTTClient-C/src/MQTTClient.c **** 
 519:/home/xingli/share/LiteOS_Lab/network/mqtt/paho_mqtt/paho/MQTTClient-C/src/MQTTClient.c **** 	TimerInit(&timer);
 2044              		.loc 1 519 2
 2045 0027 488D45E8 		leaq	-24(%rbp), %rax
 2046 002b 4889C7   		movq	%rax, %rdi
 2047 002e E8000000 		call	osal_loop_timer_init@PLT
 2047      00
 2048              	.L146:
 520:/home/xingli/share/LiteOS_Lab/network/mqtt/paho_mqtt/paho/MQTTClient-C/src/MQTTClient.c **** 
 521:/home/xingli/share/LiteOS_Lab/network/mqtt/paho_mqtt/paho/MQTTClient-C/src/MQTTClient.c **** 	while (1)
 522:/home/xingli/share/LiteOS_Lab/network/mqtt/paho_mqtt/paho/MQTTClient-C/src/MQTTClient.c **** 	{
 523:/home/xingli/share/LiteOS_Lab/network/mqtt/paho_mqtt/paho/MQTTClient-C/src/MQTTClient.c **** #if defined(MQTT_TASK)
 524:/home/xingli/share/LiteOS_Lab/network/mqtt/paho_mqtt/paho/MQTTClient-C/src/MQTTClient.c **** 		MutexLock(&c->mutex);
 2049              		.loc 1 524 3
 2050 0033 488B45F0 		movq	-16(%rbp), %rax
 2051 0037 488B8048 		movq	328(%rax), %rax
 2051      010000
 2052 003e 4889C7   		movq	%rax, %rdi
 2053 0041 E8000000 		call	osal_mutex_lock@PLT
 2053      00
 2054 0046 83F801   		cmpl	$1, %eax
 525:/home/xingli/share/LiteOS_Lab/network/mqtt/paho_mqtt/paho/MQTTClient-C/src/MQTTClient.c **** #endif
 526:/home/xingli/share/LiteOS_Lab/network/mqtt/paho_mqtt/paho/MQTTClient-C/src/MQTTClient.c **** 		TimerCountdownMS(&timer, 500); /* Don't wait too long if no traffic is incoming */
 2055              		.loc 1 526 3
 2056 0049 488D45E8 		leaq	-24(%rbp), %rax
 2057 004d BEF40100 		movl	$500, %esi
 2057      00
 2058 0052 4889C7   		movq	%rax, %rdi
 2059 0055 E8000000 		call	osal_loop_timer_count_downms@PLT
 2059      00
 527:/home/xingli/share/LiteOS_Lab/network/mqtt/paho_mqtt/paho/MQTTClient-C/src/MQTTClient.c **** 		cycle(c, &timer);
 2060              		.loc 1 527 3
 2061 005a 488D55E8 		leaq	-24(%rbp), %rdx
GAS LISTING /tmp/ccgk3rzZ.s 			page 51


 2062 005e 488B45F0 		movq	-16(%rbp), %rax
 2063 0062 4889D6   		movq	%rdx, %rsi
 2064 0065 4889C7   		movq	%rax, %rdi
 2065 0068 E8000000 		call	cycle
 2065      00
 528:/home/xingli/share/LiteOS_Lab/network/mqtt/paho_mqtt/paho/MQTTClient-C/src/MQTTClient.c **** #if defined(MQTT_TASK)
 529:/home/xingli/share/LiteOS_Lab/network/mqtt/paho_mqtt/paho/MQTTClient-C/src/MQTTClient.c **** 		MutexUnlock(&c->mutex);
 2066              		.loc 1 529 3
 2067 006d 488B45F0 		movq	-16(%rbp), %rax
 2068 0071 488B8048 		movq	328(%rax), %rax
 2068      010000
 2069 0078 4889C7   		movq	%rax, %rdi
 2070 007b E8000000 		call	osal_mutex_unlock@PLT
 2070      00
 524:/home/xingli/share/LiteOS_Lab/network/mqtt/paho_mqtt/paho/MQTTClient-C/src/MQTTClient.c **** #endif
 2071              		.loc 1 524 3
 2072 0080 EBB1     		jmp	.L146
 2073              		.cfi_endproc
 2074              	.LFE21:
 2076              		.section	.text.waitfor,"ax",@progbits
 2077              		.globl	waitfor
 2079              	waitfor:
 2080              	.LFB22:
 530:/home/xingli/share/LiteOS_Lab/network/mqtt/paho_mqtt/paho/MQTTClient-C/src/MQTTClient.c **** #endif
 531:/home/xingli/share/LiteOS_Lab/network/mqtt/paho_mqtt/paho/MQTTClient-C/src/MQTTClient.c **** 	}
 532:/home/xingli/share/LiteOS_Lab/network/mqtt/paho_mqtt/paho/MQTTClient-C/src/MQTTClient.c **** }
 533:/home/xingli/share/LiteOS_Lab/network/mqtt/paho_mqtt/paho/MQTTClient-C/src/MQTTClient.c **** 
 534:/home/xingli/share/LiteOS_Lab/network/mqtt/paho_mqtt/paho/MQTTClient-C/src/MQTTClient.c **** 
 535:/home/xingli/share/LiteOS_Lab/network/mqtt/paho_mqtt/paho/MQTTClient-C/src/MQTTClient.c **** //#if defined(MQTT_TASK)
 536:/home/xingli/share/LiteOS_Lab/network/mqtt/paho_mqtt/paho/MQTTClient-C/src/MQTTClient.c **** //int MQTTStartTask(MQTTClient* client)
 537:/home/xingli/share/LiteOS_Lab/network/mqtt/paho_mqtt/paho/MQTTClient-C/src/MQTTClient.c **** //{
 538:/home/xingli/share/LiteOS_Lab/network/mqtt/paho_mqtt/paho/MQTTClient-C/src/MQTTClient.c **** //	return ThreadStart(&client->thread, &MQTTRun, client);
 539:/home/xingli/share/LiteOS_Lab/network/mqtt/paho_mqtt/paho/MQTTClient-C/src/MQTTClient.c **** //}
 540:/home/xingli/share/LiteOS_Lab/network/mqtt/paho_mqtt/paho/MQTTClient-C/src/MQTTClient.c **** //#endif
 541:/home/xingli/share/LiteOS_Lab/network/mqtt/paho_mqtt/paho/MQTTClient-C/src/MQTTClient.c **** 
 542:/home/xingli/share/LiteOS_Lab/network/mqtt/paho_mqtt/paho/MQTTClient-C/src/MQTTClient.c **** 
 543:/home/xingli/share/LiteOS_Lab/network/mqtt/paho_mqtt/paho/MQTTClient-C/src/MQTTClient.c **** int waitfor(MQTTClient* c, int packet_type, Timer* timer)
 544:/home/xingli/share/LiteOS_Lab/network/mqtt/paho_mqtt/paho/MQTTClient-C/src/MQTTClient.c **** {
 2081              		.loc 1 544 1
 2082              		.cfi_startproc
 2083 0000 F30F1EFA 		endbr64
 2084 0004 55       		pushq	%rbp
 2085              	.LCFI44:
 2086              		.cfi_def_cfa_offset 16
 2087              		.cfi_offset 6, -16
 2088 0005 4889E5   		movq	%rsp, %rbp
 2089              	.LCFI45:
 2090              		.cfi_def_cfa_register 6
 2091 0008 4883EC30 		subq	$48, %rsp
 2092 000c 48897DE8 		movq	%rdi, -24(%rbp)
 2093 0010 8975E4   		movl	%esi, -28(%rbp)
 2094 0013 488955D8 		movq	%rdx, -40(%rbp)
 2095              		.loc 1 544 1
 2096 0017 64488B04 		movq	%fs:40, %rax
 2096      25280000 
 2096      00
 2097 0020 488945F8 		movq	%rax, -8(%rbp)
GAS LISTING /tmp/ccgk3rzZ.s 			page 52


 2098 0024 31C0     		xorl	%eax, %eax
 545:/home/xingli/share/LiteOS_Lab/network/mqtt/paho_mqtt/paho/MQTTClient-C/src/MQTTClient.c ****     int rc = FAILURE;
 2099              		.loc 1 545 9
 2100 0026 C745F4FF 		movl	$-1, -12(%rbp)
 2100      FFFFFF
 2101              	.L151:
 546:/home/xingli/share/LiteOS_Lab/network/mqtt/paho_mqtt/paho/MQTTClient-C/src/MQTTClient.c **** 
 547:/home/xingli/share/LiteOS_Lab/network/mqtt/paho_mqtt/paho/MQTTClient-C/src/MQTTClient.c ****     do
 548:/home/xingli/share/LiteOS_Lab/network/mqtt/paho_mqtt/paho/MQTTClient-C/src/MQTTClient.c ****     {
 549:/home/xingli/share/LiteOS_Lab/network/mqtt/paho_mqtt/paho/MQTTClient-C/src/MQTTClient.c ****         if (TimerIsExpired(timer))
 2102              		.loc 1 549 13
 2103 002d 488B45D8 		movq	-40(%rbp), %rax
 2104 0031 4889C7   		movq	%rax, %rdi
 2105 0034 E8000000 		call	osal_loop_timer_expired@PLT
 2105      00
 2106              		.loc 1 549 12
 2107 0039 84C0     		testb	%al, %al
 2108 003b 7526     		jne	.L154
 550:/home/xingli/share/LiteOS_Lab/network/mqtt/paho_mqtt/paho/MQTTClient-C/src/MQTTClient.c ****             break; // we timed out
 551:/home/xingli/share/LiteOS_Lab/network/mqtt/paho_mqtt/paho/MQTTClient-C/src/MQTTClient.c ****         rc = cycle(c, timer);
 2109              		.loc 1 551 14
 2110 003d 488B55D8 		movq	-40(%rbp), %rdx
 2111 0041 488B45E8 		movq	-24(%rbp), %rax
 2112 0045 4889D6   		movq	%rdx, %rsi
 2113 0048 4889C7   		movq	%rax, %rdi
 2114 004b E8000000 		call	cycle
 2114      00
 2115 0050 8945F4   		movl	%eax, -12(%rbp)
 552:/home/xingli/share/LiteOS_Lab/network/mqtt/paho_mqtt/paho/MQTTClient-C/src/MQTTClient.c ****     }
 553:/home/xingli/share/LiteOS_Lab/network/mqtt/paho_mqtt/paho/MQTTClient-C/src/MQTTClient.c ****     while (rc != packet_type && rc >= 0);
 2116              		.loc 1 553 5
 2117 0053 8B45F4   		movl	-12(%rbp), %eax
 2118 0056 3B45E4   		cmpl	-28(%rbp), %eax
 2119 0059 7409     		je	.L150
 2120              		.loc 1 553 30 discriminator 1
 2121 005b 837DF400 		cmpl	$0, -12(%rbp)
 2122 005f 79CC     		jns	.L151
 2123 0061 EB01     		jmp	.L150
 2124              	.L154:
 550:/home/xingli/share/LiteOS_Lab/network/mqtt/paho_mqtt/paho/MQTTClient-C/src/MQTTClient.c ****             break; // we timed out
 2125              		.loc 1 550 13
 2126 0063 90       		nop
 2127              	.L150:
 554:/home/xingli/share/LiteOS_Lab/network/mqtt/paho_mqtt/paho/MQTTClient-C/src/MQTTClient.c **** 
 555:/home/xingli/share/LiteOS_Lab/network/mqtt/paho_mqtt/paho/MQTTClient-C/src/MQTTClient.c ****     return rc;
 2128              		.loc 1 555 12
 2129 0064 8B45F4   		movl	-12(%rbp), %eax
 556:/home/xingli/share/LiteOS_Lab/network/mqtt/paho_mqtt/paho/MQTTClient-C/src/MQTTClient.c **** }
 2130              		.loc 1 556 1
 2131 0067 488B4DF8 		movq	-8(%rbp), %rcx
 2132 006b 6448330C 		xorq	%fs:40, %rcx
 2132      25280000 
 2132      00
 2133 0074 7405     		je	.L153
 2134 0076 E8000000 		call	__stack_chk_fail@PLT
 2134      00
 2135              	.L153:
GAS LISTING /tmp/ccgk3rzZ.s 			page 53


 2136 007b C9       		leave
 2137              	.LCFI46:
 2138              		.cfi_def_cfa 7, 8
 2139 007c C3       		ret
 2140              		.cfi_endproc
 2141              	.LFE22:
 2143              		.section	.text.MQTTConnectWithResults,"ax",@progbits
 2144              		.globl	MQTTConnectWithResults
 2146              	MQTTConnectWithResults:
 2147              	.LFB23:
 557:/home/xingli/share/LiteOS_Lab/network/mqtt/paho_mqtt/paho/MQTTClient-C/src/MQTTClient.c **** 
 558:/home/xingli/share/LiteOS_Lab/network/mqtt/paho_mqtt/paho/MQTTClient-C/src/MQTTClient.c **** 
 559:/home/xingli/share/LiteOS_Lab/network/mqtt/paho_mqtt/paho/MQTTClient-C/src/MQTTClient.c **** int MQTTConnectWithResults(MQTTClient* c, MQTTPacket_connectData* options, MQTTConnackData* data)
 560:/home/xingli/share/LiteOS_Lab/network/mqtt/paho_mqtt/paho/MQTTClient-C/src/MQTTClient.c **** {
 2148              		.loc 1 560 1
 2149              		.cfi_startproc
 2150 0000 F30F1EFA 		endbr64
 2151 0004 55       		pushq	%rbp
 2152              	.LCFI47:
 2153              		.cfi_def_cfa_offset 16
 2154              		.cfi_offset 6, -16
 2155 0005 4889E5   		movq	%rsp, %rbp
 2156              	.LCFI48:
 2157              		.cfi_def_cfa_register 6
 2158 0008 4881ECE0 		subq	$224, %rsp
 2158      000000
 2159 000f 4889BD38 		movq	%rdi, -200(%rbp)
 2159      FFFFFF
 2160 0016 4889B530 		movq	%rsi, -208(%rbp)
 2160      FFFFFF
 2161 001d 48899528 		movq	%rdx, -216(%rbp)
 2161      FFFFFF
 2162              		.loc 1 560 1
 2163 0024 64488B04 		movq	%fs:40, %rax
 2163      25280000 
 2163      00
 2164 002d 488945F8 		movq	%rax, -8(%rbp)
 2165 0031 31C0     		xorl	%eax, %eax
 561:/home/xingli/share/LiteOS_Lab/network/mqtt/paho_mqtt/paho/MQTTClient-C/src/MQTTClient.c ****     Timer connect_timer;
 562:/home/xingli/share/LiteOS_Lab/network/mqtt/paho_mqtt/paho/MQTTClient-C/src/MQTTClient.c ****     int rc = FAILURE;
 2166              		.loc 1 562 9
 2167 0033 C78540FF 		movl	$-1, -192(%rbp)
 2167      FFFFFFFF 
 2167      FFFF
 563:/home/xingli/share/LiteOS_Lab/network/mqtt/paho_mqtt/paho/MQTTClient-C/src/MQTTClient.c ****     MQTTPacket_connectData default_options = MQTTPacket_connectData_initializer;
 2168              		.loc 1 563 28
 2169 003d C78550FF 		movl	$1129599309, -176(%rbp)
 2169      FFFF4D51 
 2169      5443
 2170 0047 C78554FF 		movl	$0, -172(%rbp)
 2170      FFFF0000 
 2170      0000
 2171 0051 C68558FF 		movb	$4, -168(%rbp)
 2171      FFFF04
 2172 0058 48C78560 		movq	$0, -160(%rbp)
 2172      FFFFFF00 
 2172      000000
GAS LISTING /tmp/ccgk3rzZ.s 			page 54


 2173 0063 C78568FF 		movl	$0, -152(%rbp)
 2173      FFFF0000 
 2173      0000
 2174 006d 48C78570 		movq	$0, -144(%rbp)
 2174      FFFFFF00 
 2174      000000
 2175 0078 66C78578 		movw	$60, -136(%rbp)
 2175      FFFFFF3C 
 2175      00
 2176 0081 C6857AFF 		movb	$1, -134(%rbp)
 2176      FFFF01
 2177 0088 C6857BFF 		movb	$0, -133(%rbp)
 2177      FFFF00
 2178 008f C745804D 		movl	$1465143629, -128(%rbp)
 2178      515457
 2179 0096 C7458400 		movl	$0, -124(%rbp)
 2179      000000
 2180 009d 48C74588 		movq	$0, -120(%rbp)
 2180      00000000 
 2181 00a5 C7459000 		movl	$0, -112(%rbp)
 2181      000000
 2182 00ac 48C74598 		movq	$0, -104(%rbp)
 2182      00000000 
 2183 00b4 48C745A0 		movq	$0, -96(%rbp)
 2183      00000000 
 2184 00bc C745A800 		movl	$0, -88(%rbp)
 2184      000000
 2185 00c3 48C745B0 		movq	$0, -80(%rbp)
 2185      00000000 
 2186 00cb C645B800 		movb	$0, -72(%rbp)
 2187 00cf C645B900 		movb	$0, -71(%rbp)
 2188 00d3 48C745C0 		movq	$0, -64(%rbp)
 2188      00000000 
 2189 00db C745C800 		movl	$0, -56(%rbp)
 2189      000000
 2190 00e2 48C745D0 		movq	$0, -48(%rbp)
 2190      00000000 
 2191 00ea 48C745D8 		movq	$0, -40(%rbp)
 2191      00000000 
 2192 00f2 C745E000 		movl	$0, -32(%rbp)
 2192      000000
 2193 00f9 48C745E8 		movq	$0, -24(%rbp)
 2193      00000000 
 564:/home/xingli/share/LiteOS_Lab/network/mqtt/paho_mqtt/paho/MQTTClient-C/src/MQTTClient.c ****     int len = 0;
 2194              		.loc 1 564 9
 2195 0101 C78544FF 		movl	$0, -188(%rbp)
 2195      FFFF0000 
 2195      0000
 565:/home/xingli/share/LiteOS_Lab/network/mqtt/paho_mqtt/paho/MQTTClient-C/src/MQTTClient.c **** 
 566:/home/xingli/share/LiteOS_Lab/network/mqtt/paho_mqtt/paho/MQTTClient-C/src/MQTTClient.c **** #if defined(MQTT_TASK)
 567:/home/xingli/share/LiteOS_Lab/network/mqtt/paho_mqtt/paho/MQTTClient-C/src/MQTTClient.c **** 	  MutexLock(&c->mutex);
 2196              		.loc 1 567 4
 2197 010b 488B8538 		movq	-200(%rbp), %rax
 2197      FFFFFF
 2198 0112 488B8048 		movq	328(%rax), %rax
 2198      010000
 2199 0119 4889C7   		movq	%rax, %rdi
GAS LISTING /tmp/ccgk3rzZ.s 			page 55


 2200 011c E8000000 		call	osal_mutex_lock@PLT
 2200      00
 2201 0121 83F801   		cmpl	$1, %eax
 568:/home/xingli/share/LiteOS_Lab/network/mqtt/paho_mqtt/paho/MQTTClient-C/src/MQTTClient.c **** #endif
 569:/home/xingli/share/LiteOS_Lab/network/mqtt/paho_mqtt/paho/MQTTClient-C/src/MQTTClient.c **** 	  if (c->isconnected) /* don't send connect packet again if we are already connected */
 2202              		.loc 1 569 9
 2203 0124 488B8538 		movq	-200(%rbp), %rax
 2203      FFFFFF
 2204 012b 8B4030   		movl	48(%rax), %eax
 2205              		.loc 1 569 7
 2206 012e 85C0     		testl	%eax, %eax
 2207 0130 0F859C01 		jne	.L168
 2207      0000
 570:/home/xingli/share/LiteOS_Lab/network/mqtt/paho_mqtt/paho/MQTTClient-C/src/MQTTClient.c **** 		  goto exit;
 571:/home/xingli/share/LiteOS_Lab/network/mqtt/paho_mqtt/paho/MQTTClient-C/src/MQTTClient.c **** 
 572:/home/xingli/share/LiteOS_Lab/network/mqtt/paho_mqtt/paho/MQTTClient-C/src/MQTTClient.c ****     TimerInit(&connect_timer);
 2208              		.loc 1 572 5
 2209 0136 488D8548 		leaq	-184(%rbp), %rax
 2209      FFFFFF
 2210 013d 4889C7   		movq	%rax, %rdi
 2211 0140 E8000000 		call	osal_loop_timer_init@PLT
 2211      00
 573:/home/xingli/share/LiteOS_Lab/network/mqtt/paho_mqtt/paho/MQTTClient-C/src/MQTTClient.c ****     TimerCountdownMS(&connect_timer, c->command_timeout_ms);
 2212              		.loc 1 573 5
 2213 0145 488B8538 		movq	-200(%rbp), %rax
 2213      FFFFFF
 2214 014c 8B5004   		movl	4(%rax), %edx
 2215 014f 488D8548 		leaq	-184(%rbp), %rax
 2215      FFFFFF
 2216 0156 89D6     		movl	%edx, %esi
 2217 0158 4889C7   		movq	%rax, %rdi
 2218 015b E8000000 		call	osal_loop_timer_count_downms@PLT
 2218      00
 574:/home/xingli/share/LiteOS_Lab/network/mqtt/paho_mqtt/paho/MQTTClient-C/src/MQTTClient.c **** 
 575:/home/xingli/share/LiteOS_Lab/network/mqtt/paho_mqtt/paho/MQTTClient-C/src/MQTTClient.c ****     if (options == 0)
 2219              		.loc 1 575 8
 2220 0160 4883BD30 		cmpq	$0, -208(%rbp)
 2220      FFFFFF00 
 2221 0168 750E     		jne	.L160
 576:/home/xingli/share/LiteOS_Lab/network/mqtt/paho_mqtt/paho/MQTTClient-C/src/MQTTClient.c ****         options = &default_options; /* set default options if none were supplied */
 2222              		.loc 1 576 17
 2223 016a 488D8550 		leaq	-176(%rbp), %rax
 2223      FFFFFF
 2224 0171 48898530 		movq	%rax, -208(%rbp)
 2224      FFFFFF
 2225              	.L160:
 577:/home/xingli/share/LiteOS_Lab/network/mqtt/paho_mqtt/paho/MQTTClient-C/src/MQTTClient.c **** 
 578:/home/xingli/share/LiteOS_Lab/network/mqtt/paho_mqtt/paho/MQTTClient-C/src/MQTTClient.c ****     c->keepAliveInterval = options->keepAliveInterval;
 2226              		.loc 1 578 35
 2227 0178 488B8530 		movq	-208(%rbp), %rax
 2227      FFFFFF
 2228 017f 0FB74028 		movzwl	40(%rax), %eax
 2229 0183 0FB7D0   		movzwl	%ax, %edx
 2230              		.loc 1 578 26
 2231 0186 488B8538 		movq	-200(%rbp), %rax
 2231      FFFFFF
 2232 018d 895028   		movl	%edx, 40(%rax)
GAS LISTING /tmp/ccgk3rzZ.s 			page 56


 579:/home/xingli/share/LiteOS_Lab/network/mqtt/paho_mqtt/paho/MQTTClient-C/src/MQTTClient.c ****     c->cleansession = options->cleansession;
 2233              		.loc 1 579 30
 2234 0190 488B8530 		movq	-208(%rbp), %rax
 2234      FFFFFF
 2235 0197 0FB6402A 		movzbl	42(%rax), %eax
 2236 019b 0FB6D0   		movzbl	%al, %edx
 2237              		.loc 1 579 21
 2238 019e 488B8538 		movq	-200(%rbp), %rax
 2238      FFFFFF
 2239 01a5 895034   		movl	%edx, 52(%rax)
 580:/home/xingli/share/LiteOS_Lab/network/mqtt/paho_mqtt/paho/MQTTClient-C/src/MQTTClient.c ****     TimerCountdown(&c->last_received, c->keepAliveInterval);
 2240              		.loc 1 580 5
 2241 01a8 488B8538 		movq	-200(%rbp), %rax
 2241      FFFFFF
 2242 01af 8B4028   		movl	40(%rax), %eax
 2243 01b2 488B9538 		movq	-200(%rbp), %rdx
 2243      FFFFFF
 2244 01b9 4881C240 		addq	$320, %rdx
 2244      010000
 2245 01c0 89C6     		movl	%eax, %esi
 2246 01c2 4889D7   		movq	%rdx, %rdi
 2247 01c5 E8000000 		call	osal_loop_timer_count_down@PLT
 2247      00
 581:/home/xingli/share/LiteOS_Lab/network/mqtt/paho_mqtt/paho/MQTTClient-C/src/MQTTClient.c ****     if ((len = MQTTSerialize_connect(c->buf, c->buf_size, options)) <= 0)
 2248              		.loc 1 581 47
 2249 01ca 488B8538 		movq	-200(%rbp), %rax
 2249      FFFFFF
 2250 01d1 488B4008 		movq	8(%rax), %rax
 2251              		.loc 1 581 16
 2252 01d5 89C1     		movl	%eax, %ecx
 2253 01d7 488B8538 		movq	-200(%rbp), %rax
 2253      FFFFFF
 2254 01de 488B4018 		movq	24(%rax), %rax
 2255 01e2 488B9530 		movq	-208(%rbp), %rdx
 2255      FFFFFF
 2256 01e9 89CE     		movl	%ecx, %esi
 2257 01eb 4889C7   		movq	%rax, %rdi
 2258 01ee E8000000 		call	MQTTSerialize_connect@PLT
 2258      00
 2259 01f3 898544FF 		movl	%eax, -188(%rbp)
 2259      FFFF
 2260              		.loc 1 581 8
 2261 01f9 83BD44FF 		cmpl	$0, -188(%rbp)
 2261      FFFF00
 2262 0200 0F8ECF00 		jle	.L169
 2262      0000
 582:/home/xingli/share/LiteOS_Lab/network/mqtt/paho_mqtt/paho/MQTTClient-C/src/MQTTClient.c ****         goto exit;
 583:/home/xingli/share/LiteOS_Lab/network/mqtt/paho_mqtt/paho/MQTTClient-C/src/MQTTClient.c ****     if ((rc = sendPacket(c, len, &connect_timer)) != MQTT_SUCCESS)  // send the connect packet
 2263              		.loc 1 583 15
 2264 0206 488D9548 		leaq	-184(%rbp), %rdx
 2264      FFFFFF
 2265 020d 8B8D44FF 		movl	-188(%rbp), %ecx
 2265      FFFF
 2266 0213 488B8538 		movq	-200(%rbp), %rax
 2266      FFFFFF
 2267 021a 89CE     		movl	%ecx, %esi
 2268 021c 4889C7   		movq	%rax, %rdi
GAS LISTING /tmp/ccgk3rzZ.s 			page 57


 2269 021f E8000000 		call	sendPacket
 2269      00
 2270 0224 898540FF 		movl	%eax, -192(%rbp)
 2270      FFFF
 2271              		.loc 1 583 8
 2272 022a 83BD40FF 		cmpl	$0, -192(%rbp)
 2272      FFFF00
 2273 0231 0F85A100 		jne	.L170
 2273      0000
 584:/home/xingli/share/LiteOS_Lab/network/mqtt/paho_mqtt/paho/MQTTClient-C/src/MQTTClient.c ****         goto exit; // there was a problem
 585:/home/xingli/share/LiteOS_Lab/network/mqtt/paho_mqtt/paho/MQTTClient-C/src/MQTTClient.c **** 
 586:/home/xingli/share/LiteOS_Lab/network/mqtt/paho_mqtt/paho/MQTTClient-C/src/MQTTClient.c ****     // this will be a blocking call, wait for the connack
 587:/home/xingli/share/LiteOS_Lab/network/mqtt/paho_mqtt/paho/MQTTClient-C/src/MQTTClient.c ****     if (waitfor(c, CONNACK, &connect_timer) == CONNACK)
 2274              		.loc 1 587 9
 2275 0237 488D9548 		leaq	-184(%rbp), %rdx
 2275      FFFFFF
 2276 023e 488B8538 		movq	-200(%rbp), %rax
 2276      FFFFFF
 2277 0245 BE020000 		movl	$2, %esi
 2277      00
 2278 024a 4889C7   		movq	%rax, %rdi
 2279 024d E8000000 		call	waitfor
 2279      00
 2280              		.loc 1 587 8
 2281 0252 83F802   		cmpl	$2, %eax
 2282 0255 756F     		jne	.L163
 588:/home/xingli/share/LiteOS_Lab/network/mqtt/paho_mqtt/paho/MQTTClient-C/src/MQTTClient.c ****     {
 589:/home/xingli/share/LiteOS_Lab/network/mqtt/paho_mqtt/paho/MQTTClient-C/src/MQTTClient.c ****         data->rc = 0;
 2283              		.loc 1 589 18
 2284 0257 488B8528 		movq	-216(%rbp), %rax
 2284      FFFFFF
 2285 025e C60000   		movb	$0, (%rax)
 590:/home/xingli/share/LiteOS_Lab/network/mqtt/paho_mqtt/paho/MQTTClient-C/src/MQTTClient.c ****         data->sessionPresent = 0;
 2286              		.loc 1 590 30
 2287 0261 488B8528 		movq	-216(%rbp), %rax
 2287      FFFFFF
 2288 0268 C6400100 		movb	$0, 1(%rax)
 591:/home/xingli/share/LiteOS_Lab/network/mqtt/paho_mqtt/paho/MQTTClient-C/src/MQTTClient.c ****         if (MQTTDeserialize_connack(&data->sessionPresent, &data->rc, c->readbuf, c->readbuf_size) 
 2289              		.loc 1 591 84
 2290 026c 488B8538 		movq	-200(%rbp), %rax
 2290      FFFFFF
 2291 0273 488B4010 		movq	16(%rax), %rax
 2292              		.loc 1 591 13
 2293 0277 89C6     		movl	%eax, %esi
 2294 0279 488B8538 		movq	-200(%rbp), %rax
 2294      FFFFFF
 2295 0280 488B5020 		movq	32(%rax), %rdx
 2296 0284 488B8528 		movq	-216(%rbp), %rax
 2296      FFFFFF
 2297 028b 488B8D28 		movq	-216(%rbp), %rcx
 2297      FFFFFF
 2298 0292 488D7901 		leaq	1(%rcx), %rdi
 2299 0296 89F1     		movl	%esi, %ecx
 2300 0298 4889C6   		movq	%rax, %rsi
 2301 029b E8000000 		call	MQTTDeserialize_connack@PLT
 2301      00
 2302              		.loc 1 591 12
GAS LISTING /tmp/ccgk3rzZ.s 			page 58


 2303 02a0 83F801   		cmpl	$1, %eax
 2304 02a3 7515     		jne	.L164
 592:/home/xingli/share/LiteOS_Lab/network/mqtt/paho_mqtt/paho/MQTTClient-C/src/MQTTClient.c ****             rc = data->rc;
 2305              		.loc 1 592 22
 2306 02a5 488B8528 		movq	-216(%rbp), %rax
 2306      FFFFFF
 2307 02ac 0FB600   		movzbl	(%rax), %eax
 2308              		.loc 1 592 16
 2309 02af 0FB6C0   		movzbl	%al, %eax
 2310 02b2 898540FF 		movl	%eax, -192(%rbp)
 2310      FFFF
 2311 02b8 EB1F     		jmp	.L159
 2312              	.L164:
 593:/home/xingli/share/LiteOS_Lab/network/mqtt/paho_mqtt/paho/MQTTClient-C/src/MQTTClient.c ****         else
 594:/home/xingli/share/LiteOS_Lab/network/mqtt/paho_mqtt/paho/MQTTClient-C/src/MQTTClient.c ****             rc = FAILURE;
 2313              		.loc 1 594 16
 2314 02ba C78540FF 		movl	$-1, -192(%rbp)
 2314      FFFFFFFF 
 2314      FFFF
 2315 02c4 EB13     		jmp	.L159
 2316              	.L163:
 595:/home/xingli/share/LiteOS_Lab/network/mqtt/paho_mqtt/paho/MQTTClient-C/src/MQTTClient.c ****     }
 596:/home/xingli/share/LiteOS_Lab/network/mqtt/paho_mqtt/paho/MQTTClient-C/src/MQTTClient.c ****     else
 597:/home/xingli/share/LiteOS_Lab/network/mqtt/paho_mqtt/paho/MQTTClient-C/src/MQTTClient.c ****         rc = FAILURE;
 2317              		.loc 1 597 12
 2318 02c6 C78540FF 		movl	$-1, -192(%rbp)
 2318      FFFFFFFF 
 2318      FFFF
 2319 02d0 EB07     		jmp	.L159
 2320              	.L168:
 570:/home/xingli/share/LiteOS_Lab/network/mqtt/paho_mqtt/paho/MQTTClient-C/src/MQTTClient.c **** 
 2321              		.loc 1 570 5
 2322 02d2 90       		nop
 2323 02d3 EB04     		jmp	.L159
 2324              	.L169:
 582:/home/xingli/share/LiteOS_Lab/network/mqtt/paho_mqtt/paho/MQTTClient-C/src/MQTTClient.c ****     if ((rc = sendPacket(c, len, &connect_timer)) != MQTT_SUCCESS)  // send the connect packet
 2325              		.loc 1 582 9
 2326 02d5 90       		nop
 2327 02d6 EB01     		jmp	.L159
 2328              	.L170:
 584:/home/xingli/share/LiteOS_Lab/network/mqtt/paho_mqtt/paho/MQTTClient-C/src/MQTTClient.c **** 
 2329              		.loc 1 584 9
 2330 02d8 90       		nop
 2331              	.L159:
 598:/home/xingli/share/LiteOS_Lab/network/mqtt/paho_mqtt/paho/MQTTClient-C/src/MQTTClient.c **** 
 599:/home/xingli/share/LiteOS_Lab/network/mqtt/paho_mqtt/paho/MQTTClient-C/src/MQTTClient.c **** exit:
 600:/home/xingli/share/LiteOS_Lab/network/mqtt/paho_mqtt/paho/MQTTClient-C/src/MQTTClient.c ****     if (rc == MQTT_SUCCESS)
 2332              		.loc 1 600 8
 2333 02d9 83BD40FF 		cmpl	$0, -192(%rbp)
 2333      FFFF00
 2334 02e0 7519     		jne	.L165
 601:/home/xingli/share/LiteOS_Lab/network/mqtt/paho_mqtt/paho/MQTTClient-C/src/MQTTClient.c ****     {
 602:/home/xingli/share/LiteOS_Lab/network/mqtt/paho_mqtt/paho/MQTTClient-C/src/MQTTClient.c ****         c->isconnected = 1;
 2335              		.loc 1 602 24
 2336 02e2 488B8538 		movq	-200(%rbp), %rax
 2336      FFFFFF
 2337 02e9 C7403001 		movl	$1, 48(%rax)
GAS LISTING /tmp/ccgk3rzZ.s 			page 59


 2337      000000
 603:/home/xingli/share/LiteOS_Lab/network/mqtt/paho_mqtt/paho/MQTTClient-C/src/MQTTClient.c ****         c->ping_outstanding = 0;
 2338              		.loc 1 603 29
 2339 02f0 488B8538 		movq	-200(%rbp), %rax
 2339      FFFFFF
 2340 02f7 C6402C00 		movb	$0, 44(%rax)
 2341              	.L165:
 604:/home/xingli/share/LiteOS_Lab/network/mqtt/paho_mqtt/paho/MQTTClient-C/src/MQTTClient.c ****     }
 605:/home/xingli/share/LiteOS_Lab/network/mqtt/paho_mqtt/paho/MQTTClient-C/src/MQTTClient.c **** 
 606:/home/xingli/share/LiteOS_Lab/network/mqtt/paho_mqtt/paho/MQTTClient-C/src/MQTTClient.c **** #if defined(MQTT_TASK)
 607:/home/xingli/share/LiteOS_Lab/network/mqtt/paho_mqtt/paho/MQTTClient-C/src/MQTTClient.c **** 	  MutexUnlock(&c->mutex);
 2342              		.loc 1 607 4
 2343 02fb 488B8538 		movq	-200(%rbp), %rax
 2343      FFFFFF
 2344 0302 488B8048 		movq	328(%rax), %rax
 2344      010000
 2345 0309 4889C7   		movq	%rax, %rdi
 2346 030c E8000000 		call	osal_mutex_unlock@PLT
 2346      00
 608:/home/xingli/share/LiteOS_Lab/network/mqtt/paho_mqtt/paho/MQTTClient-C/src/MQTTClient.c **** #endif
 609:/home/xingli/share/LiteOS_Lab/network/mqtt/paho_mqtt/paho/MQTTClient-C/src/MQTTClient.c **** 
 610:/home/xingli/share/LiteOS_Lab/network/mqtt/paho_mqtt/paho/MQTTClient-C/src/MQTTClient.c ****     return rc;
 2347              		.loc 1 610 12
 2348 0311 8B8540FF 		movl	-192(%rbp), %eax
 2348      FFFF
 611:/home/xingli/share/LiteOS_Lab/network/mqtt/paho_mqtt/paho/MQTTClient-C/src/MQTTClient.c **** }
 2349              		.loc 1 611 1
 2350 0317 488B4DF8 		movq	-8(%rbp), %rcx
 2351 031b 6448330C 		xorq	%fs:40, %rcx
 2351      25280000 
 2351      00
 2352 0324 7405     		je	.L167
 2353 0326 E8000000 		call	__stack_chk_fail@PLT
 2353      00
 2354              	.L167:
 2355 032b C9       		leave
 2356              	.LCFI49:
 2357              		.cfi_def_cfa 7, 8
 2358 032c C3       		ret
 2359              		.cfi_endproc
 2360              	.LFE23:
 2362              		.section	.text.MQTTConnect,"ax",@progbits
 2363              		.globl	MQTTConnect
 2365              	MQTTConnect:
 2366              	.LFB24:
 612:/home/xingli/share/LiteOS_Lab/network/mqtt/paho_mqtt/paho/MQTTClient-C/src/MQTTClient.c **** 
 613:/home/xingli/share/LiteOS_Lab/network/mqtt/paho_mqtt/paho/MQTTClient-C/src/MQTTClient.c **** 
 614:/home/xingli/share/LiteOS_Lab/network/mqtt/paho_mqtt/paho/MQTTClient-C/src/MQTTClient.c **** int MQTTConnect(MQTTClient* c, MQTTPacket_connectData* options)
 615:/home/xingli/share/LiteOS_Lab/network/mqtt/paho_mqtt/paho/MQTTClient-C/src/MQTTClient.c **** {
 2367              		.loc 1 615 1
 2368              		.cfi_startproc
 2369 0000 F30F1EFA 		endbr64
 2370 0004 55       		pushq	%rbp
 2371              	.LCFI50:
 2372              		.cfi_def_cfa_offset 16
 2373              		.cfi_offset 6, -16
 2374 0005 4889E5   		movq	%rsp, %rbp
GAS LISTING /tmp/ccgk3rzZ.s 			page 60


 2375              	.LCFI51:
 2376              		.cfi_def_cfa_register 6
 2377 0008 4883EC20 		subq	$32, %rsp
 2378 000c 48897DE8 		movq	%rdi, -24(%rbp)
 2379 0010 488975E0 		movq	%rsi, -32(%rbp)
 2380              		.loc 1 615 1
 2381 0014 64488B04 		movq	%fs:40, %rax
 2381      25280000 
 2381      00
 2382 001d 488945F8 		movq	%rax, -8(%rbp)
 2383 0021 31C0     		xorl	%eax, %eax
 616:/home/xingli/share/LiteOS_Lab/network/mqtt/paho_mqtt/paho/MQTTClient-C/src/MQTTClient.c ****     MQTTConnackData data;
 617:/home/xingli/share/LiteOS_Lab/network/mqtt/paho_mqtt/paho/MQTTClient-C/src/MQTTClient.c ****     return MQTTConnectWithResults(c, options, &data);
 2384              		.loc 1 617 12
 2385 0023 488D55F6 		leaq	-10(%rbp), %rdx
 2386 0027 488B4DE0 		movq	-32(%rbp), %rcx
 2387 002b 488B45E8 		movq	-24(%rbp), %rax
 2388 002f 4889CE   		movq	%rcx, %rsi
 2389 0032 4889C7   		movq	%rax, %rdi
 2390 0035 E8000000 		call	MQTTConnectWithResults
 2390      00
 618:/home/xingli/share/LiteOS_Lab/network/mqtt/paho_mqtt/paho/MQTTClient-C/src/MQTTClient.c **** }
 2391              		.loc 1 618 1
 2392 003a 488B4DF8 		movq	-8(%rbp), %rcx
 2393 003e 6448330C 		xorq	%fs:40, %rcx
 2393      25280000 
 2393      00
 2394 0047 7405     		je	.L173
 2395 0049 E8000000 		call	__stack_chk_fail@PLT
 2395      00
 2396              	.L173:
 2397 004e C9       		leave
 2398              	.LCFI52:
 2399              		.cfi_def_cfa 7, 8
 2400 004f C3       		ret
 2401              		.cfi_endproc
 2402              	.LFE24:
 2404              		.section	.text.MQTTSetMessageHandler,"ax",@progbits
 2405              		.globl	MQTTSetMessageHandler
 2407              	MQTTSetMessageHandler:
 2408              	.LFB25:
 619:/home/xingli/share/LiteOS_Lab/network/mqtt/paho_mqtt/paho/MQTTClient-C/src/MQTTClient.c **** 
 620:/home/xingli/share/LiteOS_Lab/network/mqtt/paho_mqtt/paho/MQTTClient-C/src/MQTTClient.c **** 
 621:/home/xingli/share/LiteOS_Lab/network/mqtt/paho_mqtt/paho/MQTTClient-C/src/MQTTClient.c **** int MQTTSetMessageHandler(MQTTClient* c, const char* topicFilter, messageHandler messageHandler)
 622:/home/xingli/share/LiteOS_Lab/network/mqtt/paho_mqtt/paho/MQTTClient-C/src/MQTTClient.c **** {
 2409              		.loc 1 622 1
 2410              		.cfi_startproc
 2411 0000 F30F1EFA 		endbr64
 2412 0004 55       		pushq	%rbp
 2413              	.LCFI53:
 2414              		.cfi_def_cfa_offset 16
 2415              		.cfi_offset 6, -16
 2416 0005 4889E5   		movq	%rsp, %rbp
 2417              	.LCFI54:
 2418              		.cfi_def_cfa_register 6
 2419 0008 4883EC30 		subq	$48, %rsp
 2420 000c 48897DE8 		movq	%rdi, -24(%rbp)
GAS LISTING /tmp/ccgk3rzZ.s 			page 61


 2421 0010 488975E0 		movq	%rsi, -32(%rbp)
 2422 0014 488955D8 		movq	%rdx, -40(%rbp)
 2423              		.loc 1 622 1
 2424 0018 64488B04 		movq	%fs:40, %rax
 2424      25280000 
 2424      00
 2425 0021 488945F8 		movq	%rax, -8(%rbp)
 2426 0025 31C0     		xorl	%eax, %eax
 623:/home/xingli/share/LiteOS_Lab/network/mqtt/paho_mqtt/paho/MQTTClient-C/src/MQTTClient.c ****     int rc = FAILURE;
 2427              		.loc 1 623 9
 2428 0027 C745F0FF 		movl	$-1, -16(%rbp)
 2428      FFFFFF
 624:/home/xingli/share/LiteOS_Lab/network/mqtt/paho_mqtt/paho/MQTTClient-C/src/MQTTClient.c ****     int i = -1;
 2429              		.loc 1 624 9
 2430 002e C745F4FF 		movl	$-1, -12(%rbp)
 2430      FFFFFF
 625:/home/xingli/share/LiteOS_Lab/network/mqtt/paho_mqtt/paho/MQTTClient-C/src/MQTTClient.c **** 
 626:/home/xingli/share/LiteOS_Lab/network/mqtt/paho_mqtt/paho/MQTTClient-C/src/MQTTClient.c ****     /* first check for an existing matching slot */
 627:/home/xingli/share/LiteOS_Lab/network/mqtt/paho_mqtt/paho/MQTTClient-C/src/MQTTClient.c ****     for (i = 0; i < MAX_MESSAGE_HANDLERS; ++i)
 2431              		.loc 1 627 12
 2432 0035 C745F400 		movl	$0, -12(%rbp)
 2432      000000
 2433              		.loc 1 627 5
 2434 003c E9BC0000 		jmp	.L175
 2434      00
 2435              	.L179:
 628:/home/xingli/share/LiteOS_Lab/network/mqtt/paho_mqtt/paho/MQTTClient-C/src/MQTTClient.c ****     {
 629:/home/xingli/share/LiteOS_Lab/network/mqtt/paho_mqtt/paho/MQTTClient-C/src/MQTTClient.c ****         if (c->messageHandlers[i].topicFilter != NULL && strcmp(c->messageHandlers[i].topicFilter, 
 2436              		.loc 1 629 34
 2437 0041 488B4DE8 		movq	-24(%rbp), %rcx
 2438 0045 8B45F4   		movl	-12(%rbp), %eax
 2439 0048 4863D0   		movslq	%eax, %rdx
 2440 004b 4889D0   		movq	%rdx, %rax
 2441 004e 4801C0   		addq	%rax, %rax
 2442 0051 4801D0   		addq	%rdx, %rax
 2443 0054 48C1E003 		salq	$3, %rax
 2444 0058 4801C8   		addq	%rcx, %rax
 2445 005b 4883C038 		addq	$56, %rax
 2446 005f 488B00   		movq	(%rax), %rax
 2447              		.loc 1 629 12
 2448 0062 4885C0   		testq	%rax, %rax
 2449 0065 0F848E00 		je	.L176
 2449      0000
 2450              		.loc 1 629 58 discriminator 1
 2451 006b 488B4DE8 		movq	-24(%rbp), %rcx
 2452 006f 8B45F4   		movl	-12(%rbp), %eax
 2453 0072 4863D0   		movslq	%eax, %rdx
 2454 0075 4889D0   		movq	%rdx, %rax
 2455 0078 4801C0   		addq	%rax, %rax
 2456 007b 4801D0   		addq	%rdx, %rax
 2457 007e 48C1E003 		salq	$3, %rax
 2458 0082 4801C8   		addq	%rcx, %rax
 2459 0085 4883C038 		addq	$56, %rax
 2460 0089 488B00   		movq	(%rax), %rax
 2461 008c 488B55E0 		movq	-32(%rbp), %rdx
 2462 0090 4889D6   		movq	%rdx, %rsi
 2463 0093 4889C7   		movq	%rax, %rdi
GAS LISTING /tmp/ccgk3rzZ.s 			page 62


 2464 0096 E8000000 		call	strcmp@PLT
 2464      00
 2465              		.loc 1 629 55 discriminator 1
 2466 009b 85C0     		testl	%eax, %eax
 2467 009d 755A     		jne	.L176
 630:/home/xingli/share/LiteOS_Lab/network/mqtt/paho_mqtt/paho/MQTTClient-C/src/MQTTClient.c ****         {
 631:/home/xingli/share/LiteOS_Lab/network/mqtt/paho_mqtt/paho/MQTTClient-C/src/MQTTClient.c ****             if (messageHandler == NULL) /* remove existing */
 2468              		.loc 1 631 16
 2469 009f 48837DD8 		cmpq	$0, -40(%rbp)
 2469      00
 2470 00a4 754A     		jne	.L177
 632:/home/xingli/share/LiteOS_Lab/network/mqtt/paho_mqtt/paho/MQTTClient-C/src/MQTTClient.c ****             {
 633:/home/xingli/share/LiteOS_Lab/network/mqtt/paho_mqtt/paho/MQTTClient-C/src/MQTTClient.c ****                 c->messageHandlers[i].topicFilter = NULL;
 2471              		.loc 1 633 51
 2472 00a6 488B4DE8 		movq	-24(%rbp), %rcx
 2473 00aa 8B45F4   		movl	-12(%rbp), %eax
 2474 00ad 4863D0   		movslq	%eax, %rdx
 2475 00b0 4889D0   		movq	%rdx, %rax
 2476 00b3 4801C0   		addq	%rax, %rax
 2477 00b6 4801D0   		addq	%rdx, %rax
 2478 00b9 48C1E003 		salq	$3, %rax
 2479 00bd 4801C8   		addq	%rcx, %rax
 2480 00c0 4883C038 		addq	$56, %rax
 2481 00c4 48C70000 		movq	$0, (%rax)
 2481      000000
 634:/home/xingli/share/LiteOS_Lab/network/mqtt/paho_mqtt/paho/MQTTClient-C/src/MQTTClient.c ****                 c->messageHandlers[i].fp = NULL;
 2482              		.loc 1 634 42
 2483 00cb 488B4DE8 		movq	-24(%rbp), %rcx
 2484 00cf 8B45F4   		movl	-12(%rbp), %eax
 2485 00d2 4863D0   		movslq	%eax, %rdx
 2486 00d5 4889D0   		movq	%rdx, %rax
 2487 00d8 4801C0   		addq	%rax, %rax
 2488 00db 4801D0   		addq	%rdx, %rax
 2489 00de 48C1E003 		salq	$3, %rax
 2490 00e2 4801C8   		addq	%rcx, %rax
 2491 00e5 4883C040 		addq	$64, %rax
 2492 00e9 48C70000 		movq	$0, (%rax)
 2492      000000
 2493              	.L177:
 635:/home/xingli/share/LiteOS_Lab/network/mqtt/paho_mqtt/paho/MQTTClient-C/src/MQTTClient.c ****             }
 636:/home/xingli/share/LiteOS_Lab/network/mqtt/paho_mqtt/paho/MQTTClient-C/src/MQTTClient.c ****             rc = MQTT_SUCCESS; /* return i when adding new subscription */
 2494              		.loc 1 636 16
 2495 00f0 C745F000 		movl	$0, -16(%rbp)
 2495      000000
 637:/home/xingli/share/LiteOS_Lab/network/mqtt/paho_mqtt/paho/MQTTClient-C/src/MQTTClient.c ****             break;
 2496              		.loc 1 637 13
 2497 00f7 EB0E     		jmp	.L178
 2498              	.L176:
 627:/home/xingli/share/LiteOS_Lab/network/mqtt/paho_mqtt/paho/MQTTClient-C/src/MQTTClient.c ****     {
 2499              		.loc 1 627 43 discriminator 2
 2500 00f9 8345F401 		addl	$1, -12(%rbp)
 2501              	.L175:
 627:/home/xingli/share/LiteOS_Lab/network/mqtt/paho_mqtt/paho/MQTTClient-C/src/MQTTClient.c ****     {
 2502              		.loc 1 627 5 discriminator 1
 2503 00fd 837DF409 		cmpl	$9, -12(%rbp)
 2504 0101 0F8E3AFF 		jle	.L179
 2504      FFFF
GAS LISTING /tmp/ccgk3rzZ.s 			page 63


 2505              	.L178:
 638:/home/xingli/share/LiteOS_Lab/network/mqtt/paho_mqtt/paho/MQTTClient-C/src/MQTTClient.c ****         }
 639:/home/xingli/share/LiteOS_Lab/network/mqtt/paho_mqtt/paho/MQTTClient-C/src/MQTTClient.c ****     }
 640:/home/xingli/share/LiteOS_Lab/network/mqtt/paho_mqtt/paho/MQTTClient-C/src/MQTTClient.c ****     /* if no existing, look for empty slot (unless we are removing) */
 641:/home/xingli/share/LiteOS_Lab/network/mqtt/paho_mqtt/paho/MQTTClient-C/src/MQTTClient.c ****     if (messageHandler != NULL)
 2506              		.loc 1 641 8
 2507 0107 48837DD8 		cmpq	$0, -40(%rbp)
 2507      00
 2508 010c 0F849800 		je	.L180
 2508      0000
 642:/home/xingli/share/LiteOS_Lab/network/mqtt/paho_mqtt/paho/MQTTClient-C/src/MQTTClient.c ****     {
 643:/home/xingli/share/LiteOS_Lab/network/mqtt/paho_mqtt/paho/MQTTClient-C/src/MQTTClient.c ****         if (rc == FAILURE)
 2509              		.loc 1 643 12
 2510 0112 837DF0FF 		cmpl	$-1, -16(%rbp)
 2511 0116 7542     		jne	.L181
 644:/home/xingli/share/LiteOS_Lab/network/mqtt/paho_mqtt/paho/MQTTClient-C/src/MQTTClient.c ****         {
 645:/home/xingli/share/LiteOS_Lab/network/mqtt/paho_mqtt/paho/MQTTClient-C/src/MQTTClient.c ****             for (i = 0; i < MAX_MESSAGE_HANDLERS; ++i)
 2512              		.loc 1 645 20
 2513 0118 C745F400 		movl	$0, -12(%rbp)
 2513      000000
 2514              		.loc 1 645 13
 2515 011f EB33     		jmp	.L182
 2516              	.L184:
 646:/home/xingli/share/LiteOS_Lab/network/mqtt/paho_mqtt/paho/MQTTClient-C/src/MQTTClient.c ****             {
 647:/home/xingli/share/LiteOS_Lab/network/mqtt/paho_mqtt/paho/MQTTClient-C/src/MQTTClient.c ****                 if (c->messageHandlers[i].topicFilter == NULL)
 2517              		.loc 1 647 42
 2518 0121 488B4DE8 		movq	-24(%rbp), %rcx
 2519 0125 8B45F4   		movl	-12(%rbp), %eax
 2520 0128 4863D0   		movslq	%eax, %rdx
 2521 012b 4889D0   		movq	%rdx, %rax
 2522 012e 4801C0   		addq	%rax, %rax
 2523 0131 4801D0   		addq	%rdx, %rax
 2524 0134 48C1E003 		salq	$3, %rax
 2525 0138 4801C8   		addq	%rcx, %rax
 2526 013b 4883C038 		addq	$56, %rax
 2527 013f 488B00   		movq	(%rax), %rax
 2528              		.loc 1 647 20
 2529 0142 4885C0   		testq	%rax, %rax
 2530 0145 7509     		jne	.L183
 648:/home/xingli/share/LiteOS_Lab/network/mqtt/paho_mqtt/paho/MQTTClient-C/src/MQTTClient.c ****                 {
 649:/home/xingli/share/LiteOS_Lab/network/mqtt/paho_mqtt/paho/MQTTClient-C/src/MQTTClient.c ****                     rc = MQTT_SUCCESS;
 2531              		.loc 1 649 24
 2532 0147 C745F000 		movl	$0, -16(%rbp)
 2532      000000
 650:/home/xingli/share/LiteOS_Lab/network/mqtt/paho_mqtt/paho/MQTTClient-C/src/MQTTClient.c ****                     break;
 2533              		.loc 1 650 21
 2534 014e EB0A     		jmp	.L181
 2535              	.L183:
 645:/home/xingli/share/LiteOS_Lab/network/mqtt/paho_mqtt/paho/MQTTClient-C/src/MQTTClient.c ****             {
 2536              		.loc 1 645 51 discriminator 2
 2537 0150 8345F401 		addl	$1, -12(%rbp)
 2538              	.L182:
 645:/home/xingli/share/LiteOS_Lab/network/mqtt/paho_mqtt/paho/MQTTClient-C/src/MQTTClient.c ****             {
 2539              		.loc 1 645 13 discriminator 1
 2540 0154 837DF409 		cmpl	$9, -12(%rbp)
 2541 0158 7EC7     		jle	.L184
 2542              	.L181:
GAS LISTING /tmp/ccgk3rzZ.s 			page 64


 651:/home/xingli/share/LiteOS_Lab/network/mqtt/paho_mqtt/paho/MQTTClient-C/src/MQTTClient.c ****                 }
 652:/home/xingli/share/LiteOS_Lab/network/mqtt/paho_mqtt/paho/MQTTClient-C/src/MQTTClient.c ****             }
 653:/home/xingli/share/LiteOS_Lab/network/mqtt/paho_mqtt/paho/MQTTClient-C/src/MQTTClient.c ****         }
 654:/home/xingli/share/LiteOS_Lab/network/mqtt/paho_mqtt/paho/MQTTClient-C/src/MQTTClient.c ****         if (i < MAX_MESSAGE_HANDLERS)
 2543              		.loc 1 654 12
 2544 015a 837DF409 		cmpl	$9, -12(%rbp)
 2545 015e 7F4A     		jg	.L180
 655:/home/xingli/share/LiteOS_Lab/network/mqtt/paho_mqtt/paho/MQTTClient-C/src/MQTTClient.c ****         {
 656:/home/xingli/share/LiteOS_Lab/network/mqtt/paho_mqtt/paho/MQTTClient-C/src/MQTTClient.c ****             c->messageHandlers[i].topicFilter = topicFilter;
 2546              		.loc 1 656 47
 2547 0160 488B4DE8 		movq	-24(%rbp), %rcx
 2548 0164 8B45F4   		movl	-12(%rbp), %eax
 2549 0167 4863D0   		movslq	%eax, %rdx
 2550 016a 4889D0   		movq	%rdx, %rax
 2551 016d 4801C0   		addq	%rax, %rax
 2552 0170 4801D0   		addq	%rdx, %rax
 2553 0173 48C1E003 		salq	$3, %rax
 2554 0177 4801C8   		addq	%rcx, %rax
 2555 017a 488D5038 		leaq	56(%rax), %rdx
 2556 017e 488B45E0 		movq	-32(%rbp), %rax
 2557 0182 488902   		movq	%rax, (%rdx)
 657:/home/xingli/share/LiteOS_Lab/network/mqtt/paho_mqtt/paho/MQTTClient-C/src/MQTTClient.c ****             c->messageHandlers[i].fp = messageHandler;
 2558              		.loc 1 657 38
 2559 0185 488B4DE8 		movq	-24(%rbp), %rcx
 2560 0189 8B45F4   		movl	-12(%rbp), %eax
 2561 018c 4863D0   		movslq	%eax, %rdx
 2562 018f 4889D0   		movq	%rdx, %rax
 2563 0192 4801C0   		addq	%rax, %rax
 2564 0195 4801D0   		addq	%rdx, %rax
 2565 0198 48C1E003 		salq	$3, %rax
 2566 019c 4801C8   		addq	%rcx, %rax
 2567 019f 488D5040 		leaq	64(%rax), %rdx
 2568 01a3 488B45D8 		movq	-40(%rbp), %rax
 2569 01a7 488902   		movq	%rax, (%rdx)
 2570              	.L180:
 658:/home/xingli/share/LiteOS_Lab/network/mqtt/paho_mqtt/paho/MQTTClient-C/src/MQTTClient.c ****         }
 659:/home/xingli/share/LiteOS_Lab/network/mqtt/paho_mqtt/paho/MQTTClient-C/src/MQTTClient.c ****     }
 660:/home/xingli/share/LiteOS_Lab/network/mqtt/paho_mqtt/paho/MQTTClient-C/src/MQTTClient.c ****     return rc;
 2571              		.loc 1 660 12
 2572 01aa 8B45F0   		movl	-16(%rbp), %eax
 661:/home/xingli/share/LiteOS_Lab/network/mqtt/paho_mqtt/paho/MQTTClient-C/src/MQTTClient.c **** }
 2573              		.loc 1 661 1
 2574 01ad 488B75F8 		movq	-8(%rbp), %rsi
 2575 01b1 64483334 		xorq	%fs:40, %rsi
 2575      25280000 
 2575      00
 2576 01ba 7405     		je	.L186
 2577 01bc E8000000 		call	__stack_chk_fail@PLT
 2577      00
 2578              	.L186:
 2579 01c1 C9       		leave
 2580              	.LCFI55:
 2581              		.cfi_def_cfa 7, 8
 2582 01c2 C3       		ret
 2583              		.cfi_endproc
 2584              	.LFE25:
 2586              		.section	.text.MQTTSubscribeWithResults,"ax",@progbits
GAS LISTING /tmp/ccgk3rzZ.s 			page 65


 2587              		.globl	MQTTSubscribeWithResults
 2589              	MQTTSubscribeWithResults:
 2590              	.LFB26:
 662:/home/xingli/share/LiteOS_Lab/network/mqtt/paho_mqtt/paho/MQTTClient-C/src/MQTTClient.c **** 
 663:/home/xingli/share/LiteOS_Lab/network/mqtt/paho_mqtt/paho/MQTTClient-C/src/MQTTClient.c **** 
 664:/home/xingli/share/LiteOS_Lab/network/mqtt/paho_mqtt/paho/MQTTClient-C/src/MQTTClient.c **** int MQTTSubscribeWithResults(MQTTClient *c, const char *topicFilter, enum QoS qos,
 665:/home/xingli/share/LiteOS_Lab/network/mqtt/paho_mqtt/paho/MQTTClient-C/src/MQTTClient.c ****                              messageHandler messageHandler, MQTTSubackData *data)
 666:/home/xingli/share/LiteOS_Lab/network/mqtt/paho_mqtt/paho/MQTTClient-C/src/MQTTClient.c **** {
 2591              		.loc 1 666 1
 2592              		.cfi_startproc
 2593 0000 F30F1EFA 		endbr64
 2594 0004 55       		pushq	%rbp
 2595              	.LCFI56:
 2596              		.cfi_def_cfa_offset 16
 2597              		.cfi_offset 6, -16
 2598 0005 4889E5   		movq	%rsp, %rbp
 2599              	.LCFI57:
 2600              		.cfi_def_cfa_register 6
 2601 0008 4883EC70 		subq	$112, %rsp
 2602 000c 48897DB8 		movq	%rdi, -72(%rbp)
 2603 0010 488975B0 		movq	%rsi, -80(%rbp)
 2604 0014 8955AC   		movl	%edx, -84(%rbp)
 2605 0017 48894DA0 		movq	%rcx, -96(%rbp)
 2606 001b 4C894598 		movq	%r8, -104(%rbp)
 2607              		.loc 1 666 1
 2608 001f 64488B04 		movq	%fs:40, %rax
 2608      25280000 
 2608      00
 2609 0028 488945F8 		movq	%rax, -8(%rbp)
 2610 002c 31C0     		xorl	%eax, %eax
 667:/home/xingli/share/LiteOS_Lab/network/mqtt/paho_mqtt/paho/MQTTClient-C/src/MQTTClient.c ****     int rc = FAILURE;
 2611              		.loc 1 667 9
 2612 002e C745D0FF 		movl	$-1, -48(%rbp)
 2612      FFFFFF
 668:/home/xingli/share/LiteOS_Lab/network/mqtt/paho_mqtt/paho/MQTTClient-C/src/MQTTClient.c ****     Timer timer;
 669:/home/xingli/share/LiteOS_Lab/network/mqtt/paho_mqtt/paho/MQTTClient-C/src/MQTTClient.c ****     int len = 0;
 2613              		.loc 1 669 9
 2614 0035 C745D400 		movl	$0, -44(%rbp)
 2614      000000
 670:/home/xingli/share/LiteOS_Lab/network/mqtt/paho_mqtt/paho/MQTTClient-C/src/MQTTClient.c ****     MQTTString topic = MQTTString_initializer;
 2615              		.loc 1 670 16
 2616 003c 48C745E0 		movq	$0, -32(%rbp)
 2616      00000000 
 2617 0044 C745E800 		movl	$0, -24(%rbp)
 2617      000000
 2618 004b 48C745F0 		movq	$0, -16(%rbp)
 2618      00000000 
 671:/home/xingli/share/LiteOS_Lab/network/mqtt/paho_mqtt/paho/MQTTClient-C/src/MQTTClient.c ****     topic.cstring = (char *)topicFilter;
 2619              		.loc 1 671 19
 2620 0053 488B45B0 		movq	-80(%rbp), %rax
 2621 0057 488945E0 		movq	%rax, -32(%rbp)
 672:/home/xingli/share/LiteOS_Lab/network/mqtt/paho_mqtt/paho/MQTTClient-C/src/MQTTClient.c **** 
 673:/home/xingli/share/LiteOS_Lab/network/mqtt/paho_mqtt/paho/MQTTClient-C/src/MQTTClient.c **** #if defined(MQTT_TASK)
 674:/home/xingli/share/LiteOS_Lab/network/mqtt/paho_mqtt/paho/MQTTClient-C/src/MQTTClient.c ****     MutexLock(&c->mutex);
 2622              		.loc 1 674 5
 2623 005b 488B45B8 		movq	-72(%rbp), %rax
 2624 005f 488B8048 		movq	328(%rax), %rax
GAS LISTING /tmp/ccgk3rzZ.s 			page 66


 2624      010000
 2625 0066 4889C7   		movq	%rax, %rdi
 2626 0069 E8000000 		call	osal_mutex_lock@PLT
 2626      00
 2627 006e 83F801   		cmpl	$1, %eax
 675:/home/xingli/share/LiteOS_Lab/network/mqtt/paho_mqtt/paho/MQTTClient-C/src/MQTTClient.c **** #endif
 676:/home/xingli/share/LiteOS_Lab/network/mqtt/paho_mqtt/paho/MQTTClient-C/src/MQTTClient.c ****     if (!c->isconnected)
 2628              		.loc 1 676 11
 2629 0071 488B45B8 		movq	-72(%rbp), %rax
 2630 0075 8B4030   		movl	48(%rax), %eax
 2631              		.loc 1 676 8
 2632 0078 85C0     		testl	%eax, %eax
 2633 007a 0F842F01 		je	.L199
 2633      0000
 677:/home/xingli/share/LiteOS_Lab/network/mqtt/paho_mqtt/paho/MQTTClient-C/src/MQTTClient.c ****         goto exit;
 678:/home/xingli/share/LiteOS_Lab/network/mqtt/paho_mqtt/paho/MQTTClient-C/src/MQTTClient.c **** 
 679:/home/xingli/share/LiteOS_Lab/network/mqtt/paho_mqtt/paho/MQTTClient-C/src/MQTTClient.c ****     TimerInit(&timer);
 2634              		.loc 1 679 5
 2635 0080 488D45D8 		leaq	-40(%rbp), %rax
 2636 0084 4889C7   		movq	%rax, %rdi
 2637 0087 E8000000 		call	osal_loop_timer_init@PLT
 2637      00
 680:/home/xingli/share/LiteOS_Lab/network/mqtt/paho_mqtt/paho/MQTTClient-C/src/MQTTClient.c ****     TimerCountdownMS(&timer, c->command_timeout_ms);
 2638              		.loc 1 680 5
 2639 008c 488B45B8 		movq	-72(%rbp), %rax
 2640 0090 8B5004   		movl	4(%rax), %edx
 2641 0093 488D45D8 		leaq	-40(%rbp), %rax
 2642 0097 89D6     		movl	%edx, %esi
 2643 0099 4889C7   		movq	%rax, %rdi
 2644 009c E8000000 		call	osal_loop_timer_count_downms@PLT
 2644      00
 681:/home/xingli/share/LiteOS_Lab/network/mqtt/paho_mqtt/paho/MQTTClient-C/src/MQTTClient.c **** 
 682:/home/xingli/share/LiteOS_Lab/network/mqtt/paho_mqtt/paho/MQTTClient-C/src/MQTTClient.c ****     len = MQTTSerialize_subscribe(c->buf, c->buf_size, 0, getNextPacketId(c), 1, &topic, (int *)&qo
 2645              		.loc 1 682 59
 2646 00a1 488B45B8 		movq	-72(%rbp), %rax
 2647 00a5 4889C7   		movq	%rax, %rdi
 2648 00a8 E8000000 		call	getNextPacketId
 2648      00
 2649              		.loc 1 682 11
 2650 00ad 0FB7D0   		movzwl	%ax, %edx
 2651              		.loc 1 682 44
 2652 00b0 488B45B8 		movq	-72(%rbp), %rax
 2653 00b4 488B4008 		movq	8(%rax), %rax
 2654              		.loc 1 682 11
 2655 00b8 89C7     		movl	%eax, %edi
 2656 00ba 488B45B8 		movq	-72(%rbp), %rax
 2657 00be 488B4018 		movq	24(%rax), %rax
 2658 00c2 488D75E0 		leaq	-32(%rbp), %rsi
 2659 00c6 4883EC08 		subq	$8, %rsp
 2660 00ca 488D4DAC 		leaq	-84(%rbp), %rcx
 2661 00ce 51       		pushq	%rcx
 2662 00cf 4989F1   		movq	%rsi, %r9
 2663 00d2 41B80100 		movl	$1, %r8d
 2663      0000
 2664 00d8 89D1     		movl	%edx, %ecx
 2665 00da BA000000 		movl	$0, %edx
 2665      00
GAS LISTING /tmp/ccgk3rzZ.s 			page 67


 2666 00df 89FE     		movl	%edi, %esi
 2667 00e1 4889C7   		movq	%rax, %rdi
 2668 00e4 E8000000 		call	MQTTSerialize_subscribe@PLT
 2668      00
 2669 00e9 4883C410 		addq	$16, %rsp
 2670 00ed 8945D4   		movl	%eax, -44(%rbp)
 683:/home/xingli/share/LiteOS_Lab/network/mqtt/paho_mqtt/paho/MQTTClient-C/src/MQTTClient.c ****     if (len <= 0)
 2671              		.loc 1 683 8
 2672 00f0 837DD400 		cmpl	$0, -44(%rbp)
 2673 00f4 0F8EB800 		jle	.L200
 2673      0000
 684:/home/xingli/share/LiteOS_Lab/network/mqtt/paho_mqtt/paho/MQTTClient-C/src/MQTTClient.c ****         goto exit;
 685:/home/xingli/share/LiteOS_Lab/network/mqtt/paho_mqtt/paho/MQTTClient-C/src/MQTTClient.c ****     if ((rc = sendPacket(c, len, &timer)) != MQTT_SUCCESS) // send the subscribe packet
 2674              		.loc 1 685 15
 2675 00fa 488D55D8 		leaq	-40(%rbp), %rdx
 2676 00fe 8B4DD4   		movl	-44(%rbp), %ecx
 2677 0101 488B45B8 		movq	-72(%rbp), %rax
 2678 0105 89CE     		movl	%ecx, %esi
 2679 0107 4889C7   		movq	%rax, %rdi
 2680 010a E8000000 		call	sendPacket
 2680      00
 2681 010f 8945D0   		movl	%eax, -48(%rbp)
 2682              		.loc 1 685 8
 2683 0112 837DD000 		cmpl	$0, -48(%rbp)
 2684 0116 0F859900 		jne	.L201
 2684      0000
 686:/home/xingli/share/LiteOS_Lab/network/mqtt/paho_mqtt/paho/MQTTClient-C/src/MQTTClient.c ****         goto exit;             // there was a problem
 687:/home/xingli/share/LiteOS_Lab/network/mqtt/paho_mqtt/paho/MQTTClient-C/src/MQTTClient.c **** 
 688:/home/xingli/share/LiteOS_Lab/network/mqtt/paho_mqtt/paho/MQTTClient-C/src/MQTTClient.c ****     if (waitfor(c, SUBACK, &timer) == SUBACK)      // wait for suback
 2685              		.loc 1 688 9
 2686 011c 488D55D8 		leaq	-40(%rbp), %rdx
 2687 0120 488B45B8 		movq	-72(%rbp), %rax
 2688 0124 BE090000 		movl	$9, %esi
 2688      00
 2689 0129 4889C7   		movq	%rax, %rdi
 2690 012c E8000000 		call	waitfor
 2690      00
 2691              		.loc 1 688 8
 2692 0131 83F809   		cmpl	$9, %eax
 2693 0134 7570     		jne	.L194
 2694              	.LBB12:
 689:/home/xingli/share/LiteOS_Lab/network/mqtt/paho_mqtt/paho/MQTTClient-C/src/MQTTClient.c ****     {
 690:/home/xingli/share/LiteOS_Lab/network/mqtt/paho_mqtt/paho/MQTTClient-C/src/MQTTClient.c ****         int count = 0;
 2695              		.loc 1 690 13
 2696 0136 C745CC00 		movl	$0, -52(%rbp)
 2696      000000
 691:/home/xingli/share/LiteOS_Lab/network/mqtt/paho_mqtt/paho/MQTTClient-C/src/MQTTClient.c ****         unsigned short mypacketid;
 692:/home/xingli/share/LiteOS_Lab/network/mqtt/paho_mqtt/paho/MQTTClient-C/src/MQTTClient.c ****         data->grantedQoS = QOS0;
 2697              		.loc 1 692 26
 2698 013d 488B4598 		movq	-104(%rbp), %rax
 2699 0141 C7000000 		movl	$0, (%rax)
 2699      0000
 693:/home/xingli/share/LiteOS_Lab/network/mqtt/paho_mqtt/paho/MQTTClient-C/src/MQTTClient.c ****         if (MQTTDeserialize_suback(&mypacketid, 1, &count, (int *)&data->grantedQoS, c->readbuf, c-
 2700              		.loc 1 693 99
 2701 0147 488B45B8 		movq	-72(%rbp), %rax
 2702 014b 488B4010 		movq	16(%rax), %rax
 2703              		.loc 1 693 13
GAS LISTING /tmp/ccgk3rzZ.s 			page 68


 2704 014f 89C7     		movl	%eax, %edi
 2705 0151 488B45B8 		movq	-72(%rbp), %rax
 2706 0155 488B7020 		movq	32(%rax), %rsi
 2707              		.loc 1 693 67
 2708 0159 488B4D98 		movq	-104(%rbp), %rcx
 2709              		.loc 1 693 13
 2710 015d 488D55CC 		leaq	-52(%rbp), %rdx
 2711 0161 488D45CA 		leaq	-54(%rbp), %rax
 2712 0165 4189F9   		movl	%edi, %r9d
 2713 0168 4989F0   		movq	%rsi, %r8
 2714 016b BE010000 		movl	$1, %esi
 2714      00
 2715 0170 4889C7   		movq	%rax, %rdi
 2716 0173 E8000000 		call	MQTTDeserialize_suback@PLT
 2716      00
 2717              		.loc 1 693 12
 2718 0178 83F801   		cmpl	$1, %eax
 2719 017b 7539     		jne	.L191
 694:/home/xingli/share/LiteOS_Lab/network/mqtt/paho_mqtt/paho/MQTTClient-C/src/MQTTClient.c ****         {
 695:/home/xingli/share/LiteOS_Lab/network/mqtt/paho_mqtt/paho/MQTTClient-C/src/MQTTClient.c ****             if (data->grantedQoS != 0x80)
 2720              		.loc 1 695 21
 2721 017d 488B4598 		movq	-104(%rbp), %rax
 2722 0181 8B00     		movl	(%rax), %eax
 2723              		.loc 1 695 16
 2724 0183 3D800000 		cmpl	$128, %eax
 2724      00
 2725 0188 742C     		je	.L191
 696:/home/xingli/share/LiteOS_Lab/network/mqtt/paho_mqtt/paho/MQTTClient-C/src/MQTTClient.c ****                 rc = MQTTSetMessageHandler(c, topicFilter, messageHandler);
 2726              		.loc 1 696 22
 2727 018a 488B55A0 		movq	-96(%rbp), %rdx
 2728 018e 488B4DB0 		movq	-80(%rbp), %rcx
 2729 0192 488B45B8 		movq	-72(%rbp), %rax
 2730 0196 4889CE   		movq	%rcx, %rsi
 2731 0199 4889C7   		movq	%rax, %rdi
 2732 019c E8000000 		call	MQTTSetMessageHandler
 2732      00
 2733 01a1 8945D0   		movl	%eax, -48(%rbp)
 2734 01a4 EB10     		jmp	.L191
 2735              	.L194:
 2736              	.LBE12:
 697:/home/xingli/share/LiteOS_Lab/network/mqtt/paho_mqtt/paho/MQTTClient-C/src/MQTTClient.c ****         }
 698:/home/xingli/share/LiteOS_Lab/network/mqtt/paho_mqtt/paho/MQTTClient-C/src/MQTTClient.c ****     }
 699:/home/xingli/share/LiteOS_Lab/network/mqtt/paho_mqtt/paho/MQTTClient-C/src/MQTTClient.c ****     else
 700:/home/xingli/share/LiteOS_Lab/network/mqtt/paho_mqtt/paho/MQTTClient-C/src/MQTTClient.c ****         rc = FAILURE;
 2737              		.loc 1 700 12
 2738 01a6 C745D0FF 		movl	$-1, -48(%rbp)
 2738      FFFFFF
 2739 01ad EB07     		jmp	.L191
 2740              	.L199:
 677:/home/xingli/share/LiteOS_Lab/network/mqtt/paho_mqtt/paho/MQTTClient-C/src/MQTTClient.c **** 
 2741              		.loc 1 677 9
 2742 01af 90       		nop
 2743 01b0 EB04     		jmp	.L191
 2744              	.L200:
 684:/home/xingli/share/LiteOS_Lab/network/mqtt/paho_mqtt/paho/MQTTClient-C/src/MQTTClient.c ****     if ((rc = sendPacket(c, len, &timer)) != MQTT_SUCCESS) // send the subscribe packet
 2745              		.loc 1 684 9
 2746 01b2 90       		nop
GAS LISTING /tmp/ccgk3rzZ.s 			page 69


 2747 01b3 EB01     		jmp	.L191
 2748              	.L201:
 686:/home/xingli/share/LiteOS_Lab/network/mqtt/paho_mqtt/paho/MQTTClient-C/src/MQTTClient.c **** 
 2749              		.loc 1 686 9
 2750 01b5 90       		nop
 2751              	.L191:
 701:/home/xingli/share/LiteOS_Lab/network/mqtt/paho_mqtt/paho/MQTTClient-C/src/MQTTClient.c **** 
 702:/home/xingli/share/LiteOS_Lab/network/mqtt/paho_mqtt/paho/MQTTClient-C/src/MQTTClient.c **** exit:
 703:/home/xingli/share/LiteOS_Lab/network/mqtt/paho_mqtt/paho/MQTTClient-C/src/MQTTClient.c ****     if (rc == FAILURE)
 2752              		.loc 1 703 8
 2753 01b6 837DD0FF 		cmpl	$-1, -48(%rbp)
 2754 01ba 750C     		jne	.L196
 704:/home/xingli/share/LiteOS_Lab/network/mqtt/paho_mqtt/paho/MQTTClient-C/src/MQTTClient.c ****         MQTTCloseSession(c);
 2755              		.loc 1 704 9
 2756 01bc 488B45B8 		movq	-72(%rbp), %rax
 2757 01c0 4889C7   		movq	%rax, %rdi
 2758 01c3 E8000000 		call	MQTTCloseSession
 2758      00
 2759              	.L196:
 705:/home/xingli/share/LiteOS_Lab/network/mqtt/paho_mqtt/paho/MQTTClient-C/src/MQTTClient.c **** #if defined(MQTT_TASK)
 706:/home/xingli/share/LiteOS_Lab/network/mqtt/paho_mqtt/paho/MQTTClient-C/src/MQTTClient.c **** 	  MutexUnlock(&c->mutex);
 2760              		.loc 1 706 4
 2761 01c8 488B45B8 		movq	-72(%rbp), %rax
 2762 01cc 488B8048 		movq	328(%rax), %rax
 2762      010000
 2763 01d3 4889C7   		movq	%rax, %rdi
 2764 01d6 E8000000 		call	osal_mutex_unlock@PLT
 2764      00
 707:/home/xingli/share/LiteOS_Lab/network/mqtt/paho_mqtt/paho/MQTTClient-C/src/MQTTClient.c **** #endif
 708:/home/xingli/share/LiteOS_Lab/network/mqtt/paho_mqtt/paho/MQTTClient-C/src/MQTTClient.c ****     return rc;
 2765              		.loc 1 708 12
 2766 01db 8B45D0   		movl	-48(%rbp), %eax
 709:/home/xingli/share/LiteOS_Lab/network/mqtt/paho_mqtt/paho/MQTTClient-C/src/MQTTClient.c **** }
 2767              		.loc 1 709 1
 2768 01de 488B4DF8 		movq	-8(%rbp), %rcx
 2769 01e2 6448330C 		xorq	%fs:40, %rcx
 2769      25280000 
 2769      00
 2770 01eb 7405     		je	.L198
 2771 01ed E8000000 		call	__stack_chk_fail@PLT
 2771      00
 2772              	.L198:
 2773 01f2 C9       		leave
 2774              	.LCFI58:
 2775              		.cfi_def_cfa 7, 8
 2776 01f3 C3       		ret
 2777              		.cfi_endproc
 2778              	.LFE26:
 2780              		.section	.text.MQTTSetMessageHandlerArgs,"ax",@progbits
 2782              	MQTTSetMessageHandlerArgs:
 2783              	.LFB27:
 710:/home/xingli/share/LiteOS_Lab/network/mqtt/paho_mqtt/paho/MQTTClient-C/src/MQTTClient.c **** 
 711:/home/xingli/share/LiteOS_Lab/network/mqtt/paho_mqtt/paho/MQTTClient-C/src/MQTTClient.c **** static int MQTTSetMessageHandlerArgs(MQTTClient* c, const char* topicFilter, messageHandler message
 712:/home/xingli/share/LiteOS_Lab/network/mqtt/paho_mqtt/paho/MQTTClient-C/src/MQTTClient.c **** {
 2784              		.loc 1 712 1
 2785              		.cfi_startproc
 2786 0000 F30F1EFA 		endbr64
GAS LISTING /tmp/ccgk3rzZ.s 			page 70


 2787 0004 55       		pushq	%rbp
 2788              	.LCFI59:
 2789              		.cfi_def_cfa_offset 16
 2790              		.cfi_offset 6, -16
 2791 0005 4889E5   		movq	%rsp, %rbp
 2792              	.LCFI60:
 2793              		.cfi_def_cfa_register 6
 2794 0008 4883EC30 		subq	$48, %rsp
 2795 000c 48897DE8 		movq	%rdi, -24(%rbp)
 2796 0010 488975E0 		movq	%rsi, -32(%rbp)
 2797 0014 488955D8 		movq	%rdx, -40(%rbp)
 2798 0018 48894DD0 		movq	%rcx, -48(%rbp)
 2799              		.loc 1 712 1
 2800 001c 64488B04 		movq	%fs:40, %rax
 2800      25280000 
 2800      00
 2801 0025 488945F8 		movq	%rax, -8(%rbp)
 2802 0029 31C0     		xorl	%eax, %eax
 713:/home/xingli/share/LiteOS_Lab/network/mqtt/paho_mqtt/paho/MQTTClient-C/src/MQTTClient.c ****     int rc = FAILURE;
 2803              		.loc 1 713 9
 2804 002b C745F0FF 		movl	$-1, -16(%rbp)
 2804      FFFFFF
 714:/home/xingli/share/LiteOS_Lab/network/mqtt/paho_mqtt/paho/MQTTClient-C/src/MQTTClient.c ****     int i = -1;
 2805              		.loc 1 714 9
 2806 0032 C745F4FF 		movl	$-1, -12(%rbp)
 2806      FFFFFF
 715:/home/xingli/share/LiteOS_Lab/network/mqtt/paho_mqtt/paho/MQTTClient-C/src/MQTTClient.c **** 
 716:/home/xingli/share/LiteOS_Lab/network/mqtt/paho_mqtt/paho/MQTTClient-C/src/MQTTClient.c ****     /* first check for an existing matching slot */
 717:/home/xingli/share/LiteOS_Lab/network/mqtt/paho_mqtt/paho/MQTTClient-C/src/MQTTClient.c ****     for (i = 0; i < MAX_MESSAGE_HANDLERS; ++i)
 2807              		.loc 1 717 12
 2808 0039 C745F400 		movl	$0, -12(%rbp)
 2808      000000
 2809              		.loc 1 717 5
 2810 0040 E9E10000 		jmp	.L203
 2810      00
 2811              	.L207:
 718:/home/xingli/share/LiteOS_Lab/network/mqtt/paho_mqtt/paho/MQTTClient-C/src/MQTTClient.c ****     {
 719:/home/xingli/share/LiteOS_Lab/network/mqtt/paho_mqtt/paho/MQTTClient-C/src/MQTTClient.c ****         if (c->messageHandlers[i].topicFilter != NULL && strcmp(c->messageHandlers[i].topicFilter, 
 2812              		.loc 1 719 34
 2813 0045 488B4DE8 		movq	-24(%rbp), %rcx
 2814 0049 8B45F4   		movl	-12(%rbp), %eax
 2815 004c 4863D0   		movslq	%eax, %rdx
 2816 004f 4889D0   		movq	%rdx, %rax
 2817 0052 4801C0   		addq	%rax, %rax
 2818 0055 4801D0   		addq	%rdx, %rax
 2819 0058 48C1E003 		salq	$3, %rax
 2820 005c 4801C8   		addq	%rcx, %rax
 2821 005f 4883C038 		addq	$56, %rax
 2822 0063 488B00   		movq	(%rax), %rax
 2823              		.loc 1 719 12
 2824 0066 4885C0   		testq	%rax, %rax
 2825 0069 0F84B300 		je	.L204
 2825      0000
 2826              		.loc 1 719 58 discriminator 1
 2827 006f 488B4DE8 		movq	-24(%rbp), %rcx
 2828 0073 8B45F4   		movl	-12(%rbp), %eax
 2829 0076 4863D0   		movslq	%eax, %rdx
GAS LISTING /tmp/ccgk3rzZ.s 			page 71


 2830 0079 4889D0   		movq	%rdx, %rax
 2831 007c 4801C0   		addq	%rax, %rax
 2832 007f 4801D0   		addq	%rdx, %rax
 2833 0082 48C1E003 		salq	$3, %rax
 2834 0086 4801C8   		addq	%rcx, %rax
 2835 0089 4883C038 		addq	$56, %rax
 2836 008d 488B00   		movq	(%rax), %rax
 2837 0090 488B55E0 		movq	-32(%rbp), %rdx
 2838 0094 4889D6   		movq	%rdx, %rsi
 2839 0097 4889C7   		movq	%rax, %rdi
 2840 009a E8000000 		call	strcmp@PLT
 2840      00
 2841              		.loc 1 719 55 discriminator 1
 2842 009f 85C0     		testl	%eax, %eax
 2843 00a1 757F     		jne	.L204
 720:/home/xingli/share/LiteOS_Lab/network/mqtt/paho_mqtt/paho/MQTTClient-C/src/MQTTClient.c ****         {
 721:/home/xingli/share/LiteOS_Lab/network/mqtt/paho_mqtt/paho/MQTTClient-C/src/MQTTClient.c ****             if (messageHandler == NULL) /* remove existing */
 2844              		.loc 1 721 16
 2845 00a3 48837DD8 		cmpq	$0, -40(%rbp)
 2845      00
 2846 00a8 756F     		jne	.L205
 722:/home/xingli/share/LiteOS_Lab/network/mqtt/paho_mqtt/paho/MQTTClient-C/src/MQTTClient.c ****             {
 723:/home/xingli/share/LiteOS_Lab/network/mqtt/paho_mqtt/paho/MQTTClient-C/src/MQTTClient.c ****                 c->messageHandlers[i].topicFilter = NULL;
 2847              		.loc 1 723 51
 2848 00aa 488B4DE8 		movq	-24(%rbp), %rcx
 2849 00ae 8B45F4   		movl	-12(%rbp), %eax
 2850 00b1 4863D0   		movslq	%eax, %rdx
 2851 00b4 4889D0   		movq	%rdx, %rax
 2852 00b7 4801C0   		addq	%rax, %rax
 2853 00ba 4801D0   		addq	%rdx, %rax
 2854 00bd 48C1E003 		salq	$3, %rax
 2855 00c1 4801C8   		addq	%rcx, %rax
 2856 00c4 4883C038 		addq	$56, %rax
 2857 00c8 48C70000 		movq	$0, (%rax)
 2857      000000
 724:/home/xingli/share/LiteOS_Lab/network/mqtt/paho_mqtt/paho/MQTTClient-C/src/MQTTClient.c ****                 c->messageHandlers[i].fp = NULL;
 2858              		.loc 1 724 42
 2859 00cf 488B4DE8 		movq	-24(%rbp), %rcx
 2860 00d3 8B45F4   		movl	-12(%rbp), %eax
 2861 00d6 4863D0   		movslq	%eax, %rdx
 2862 00d9 4889D0   		movq	%rdx, %rax
 2863 00dc 4801C0   		addq	%rax, %rax
 2864 00df 4801D0   		addq	%rdx, %rax
 2865 00e2 48C1E003 		salq	$3, %rax
 2866 00e6 4801C8   		addq	%rcx, %rax
 2867 00e9 4883C040 		addq	$64, %rax
 2868 00ed 48C70000 		movq	$0, (%rax)
 2868      000000
 725:/home/xingli/share/LiteOS_Lab/network/mqtt/paho_mqtt/paho/MQTTClient-C/src/MQTTClient.c ****                 c->messageHandlers[i].arg = NULL;
 2869              		.loc 1 725 43
 2870 00f4 488B4DE8 		movq	-24(%rbp), %rcx
 2871 00f8 8B45F4   		movl	-12(%rbp), %eax
 2872 00fb 4863D0   		movslq	%eax, %rdx
 2873 00fe 4889D0   		movq	%rdx, %rax
 2874 0101 4801C0   		addq	%rax, %rax
 2875 0104 4801D0   		addq	%rdx, %rax
 2876 0107 48C1E003 		salq	$3, %rax
GAS LISTING /tmp/ccgk3rzZ.s 			page 72


 2877 010b 4801C8   		addq	%rcx, %rax
 2878 010e 4883C048 		addq	$72, %rax
 2879 0112 48C70000 		movq	$0, (%rax)
 2879      000000
 2880              	.L205:
 726:/home/xingli/share/LiteOS_Lab/network/mqtt/paho_mqtt/paho/MQTTClient-C/src/MQTTClient.c ****             }
 727:/home/xingli/share/LiteOS_Lab/network/mqtt/paho_mqtt/paho/MQTTClient-C/src/MQTTClient.c ****             rc = MQTT_SUCCESS; /* return i when adding new subscription */
 2881              		.loc 1 727 16
 2882 0119 C745F000 		movl	$0, -16(%rbp)
 2882      000000
 728:/home/xingli/share/LiteOS_Lab/network/mqtt/paho_mqtt/paho/MQTTClient-C/src/MQTTClient.c ****             break;
 2883              		.loc 1 728 13
 2884 0120 EB0E     		jmp	.L206
 2885              	.L204:
 717:/home/xingli/share/LiteOS_Lab/network/mqtt/paho_mqtt/paho/MQTTClient-C/src/MQTTClient.c ****     {
 2886              		.loc 1 717 43 discriminator 2
 2887 0122 8345F401 		addl	$1, -12(%rbp)
 2888              	.L203:
 717:/home/xingli/share/LiteOS_Lab/network/mqtt/paho_mqtt/paho/MQTTClient-C/src/MQTTClient.c ****     {
 2889              		.loc 1 717 5 discriminator 1
 2890 0126 837DF409 		cmpl	$9, -12(%rbp)
 2891 012a 0F8E15FF 		jle	.L207
 2891      FFFF
 2892              	.L206:
 729:/home/xingli/share/LiteOS_Lab/network/mqtt/paho_mqtt/paho/MQTTClient-C/src/MQTTClient.c ****         }
 730:/home/xingli/share/LiteOS_Lab/network/mqtt/paho_mqtt/paho/MQTTClient-C/src/MQTTClient.c ****     }
 731:/home/xingli/share/LiteOS_Lab/network/mqtt/paho_mqtt/paho/MQTTClient-C/src/MQTTClient.c ****     /* if no existing, look for empty slot (unless we are removing) */
 732:/home/xingli/share/LiteOS_Lab/network/mqtt/paho_mqtt/paho/MQTTClient-C/src/MQTTClient.c ****     if (messageHandler != NULL)
 2893              		.loc 1 732 8
 2894 0130 48837DD8 		cmpq	$0, -40(%rbp)
 2894      00
 2895 0135 0F84BD00 		je	.L208
 2895      0000
 733:/home/xingli/share/LiteOS_Lab/network/mqtt/paho_mqtt/paho/MQTTClient-C/src/MQTTClient.c ****     {
 734:/home/xingli/share/LiteOS_Lab/network/mqtt/paho_mqtt/paho/MQTTClient-C/src/MQTTClient.c ****         if (rc == FAILURE)
 2896              		.loc 1 734 12
 2897 013b 837DF0FF 		cmpl	$-1, -16(%rbp)
 2898 013f 7542     		jne	.L209
 735:/home/xingli/share/LiteOS_Lab/network/mqtt/paho_mqtt/paho/MQTTClient-C/src/MQTTClient.c ****         {
 736:/home/xingli/share/LiteOS_Lab/network/mqtt/paho_mqtt/paho/MQTTClient-C/src/MQTTClient.c ****             for (i = 0; i < MAX_MESSAGE_HANDLERS; ++i)
 2899              		.loc 1 736 20
 2900 0141 C745F400 		movl	$0, -12(%rbp)
 2900      000000
 2901              		.loc 1 736 13
 2902 0148 EB33     		jmp	.L210
 2903              	.L212:
 737:/home/xingli/share/LiteOS_Lab/network/mqtt/paho_mqtt/paho/MQTTClient-C/src/MQTTClient.c ****             {
 738:/home/xingli/share/LiteOS_Lab/network/mqtt/paho_mqtt/paho/MQTTClient-C/src/MQTTClient.c ****                 if (c->messageHandlers[i].topicFilter == NULL)
 2904              		.loc 1 738 42
 2905 014a 488B4DE8 		movq	-24(%rbp), %rcx
 2906 014e 8B45F4   		movl	-12(%rbp), %eax
 2907 0151 4863D0   		movslq	%eax, %rdx
 2908 0154 4889D0   		movq	%rdx, %rax
 2909 0157 4801C0   		addq	%rax, %rax
 2910 015a 4801D0   		addq	%rdx, %rax
 2911 015d 48C1E003 		salq	$3, %rax
 2912 0161 4801C8   		addq	%rcx, %rax
GAS LISTING /tmp/ccgk3rzZ.s 			page 73


 2913 0164 4883C038 		addq	$56, %rax
 2914 0168 488B00   		movq	(%rax), %rax
 2915              		.loc 1 738 20
 2916 016b 4885C0   		testq	%rax, %rax
 2917 016e 7509     		jne	.L211
 739:/home/xingli/share/LiteOS_Lab/network/mqtt/paho_mqtt/paho/MQTTClient-C/src/MQTTClient.c ****                 {
 740:/home/xingli/share/LiteOS_Lab/network/mqtt/paho_mqtt/paho/MQTTClient-C/src/MQTTClient.c ****                     rc = MQTT_SUCCESS;
 2918              		.loc 1 740 24
 2919 0170 C745F000 		movl	$0, -16(%rbp)
 2919      000000
 741:/home/xingli/share/LiteOS_Lab/network/mqtt/paho_mqtt/paho/MQTTClient-C/src/MQTTClient.c ****                     break;
 2920              		.loc 1 741 21
 2921 0177 EB0A     		jmp	.L209
 2922              	.L211:
 736:/home/xingli/share/LiteOS_Lab/network/mqtt/paho_mqtt/paho/MQTTClient-C/src/MQTTClient.c ****             {
 2923              		.loc 1 736 51 discriminator 2
 2924 0179 8345F401 		addl	$1, -12(%rbp)
 2925              	.L210:
 736:/home/xingli/share/LiteOS_Lab/network/mqtt/paho_mqtt/paho/MQTTClient-C/src/MQTTClient.c ****             {
 2926              		.loc 1 736 13 discriminator 1
 2927 017d 837DF409 		cmpl	$9, -12(%rbp)
 2928 0181 7EC7     		jle	.L212
 2929              	.L209:
 742:/home/xingli/share/LiteOS_Lab/network/mqtt/paho_mqtt/paho/MQTTClient-C/src/MQTTClient.c ****                 }
 743:/home/xingli/share/LiteOS_Lab/network/mqtt/paho_mqtt/paho/MQTTClient-C/src/MQTTClient.c ****             }
 744:/home/xingli/share/LiteOS_Lab/network/mqtt/paho_mqtt/paho/MQTTClient-C/src/MQTTClient.c ****         }
 745:/home/xingli/share/LiteOS_Lab/network/mqtt/paho_mqtt/paho/MQTTClient-C/src/MQTTClient.c ****         if (i < MAX_MESSAGE_HANDLERS)
 2930              		.loc 1 745 12
 2931 0183 837DF409 		cmpl	$9, -12(%rbp)
 2932 0187 7F6F     		jg	.L208
 746:/home/xingli/share/LiteOS_Lab/network/mqtt/paho_mqtt/paho/MQTTClient-C/src/MQTTClient.c ****         {
 747:/home/xingli/share/LiteOS_Lab/network/mqtt/paho_mqtt/paho/MQTTClient-C/src/MQTTClient.c ****             c->messageHandlers[i].topicFilter = topicFilter;
 2933              		.loc 1 747 47
 2934 0189 488B4DE8 		movq	-24(%rbp), %rcx
 2935 018d 8B45F4   		movl	-12(%rbp), %eax
 2936 0190 4863D0   		movslq	%eax, %rdx
 2937 0193 4889D0   		movq	%rdx, %rax
 2938 0196 4801C0   		addq	%rax, %rax
 2939 0199 4801D0   		addq	%rdx, %rax
 2940 019c 48C1E003 		salq	$3, %rax
 2941 01a0 4801C8   		addq	%rcx, %rax
 2942 01a3 488D5038 		leaq	56(%rax), %rdx
 2943 01a7 488B45E0 		movq	-32(%rbp), %rax
 2944 01ab 488902   		movq	%rax, (%rdx)
 748:/home/xingli/share/LiteOS_Lab/network/mqtt/paho_mqtt/paho/MQTTClient-C/src/MQTTClient.c ****             c->messageHandlers[i].fp = messageHandler;
 2945              		.loc 1 748 38
 2946 01ae 488B4DE8 		movq	-24(%rbp), %rcx
 2947 01b2 8B45F4   		movl	-12(%rbp), %eax
 2948 01b5 4863D0   		movslq	%eax, %rdx
 2949 01b8 4889D0   		movq	%rdx, %rax
 2950 01bb 4801C0   		addq	%rax, %rax
 2951 01be 4801D0   		addq	%rdx, %rax
 2952 01c1 48C1E003 		salq	$3, %rax
 2953 01c5 4801C8   		addq	%rcx, %rax
 2954 01c8 488D5040 		leaq	64(%rax), %rdx
 2955 01cc 488B45D8 		movq	-40(%rbp), %rax
 2956 01d0 488902   		movq	%rax, (%rdx)
GAS LISTING /tmp/ccgk3rzZ.s 			page 74


 749:/home/xingli/share/LiteOS_Lab/network/mqtt/paho_mqtt/paho/MQTTClient-C/src/MQTTClient.c ****             c->messageHandlers[i].arg = arg;
 2957              		.loc 1 749 39
 2958 01d3 488B4DE8 		movq	-24(%rbp), %rcx
 2959 01d7 8B45F4   		movl	-12(%rbp), %eax
 2960 01da 4863D0   		movslq	%eax, %rdx
 2961 01dd 4889D0   		movq	%rdx, %rax
 2962 01e0 4801C0   		addq	%rax, %rax
 2963 01e3 4801D0   		addq	%rdx, %rax
 2964 01e6 48C1E003 		salq	$3, %rax
 2965 01ea 4801C8   		addq	%rcx, %rax
 2966 01ed 488D5048 		leaq	72(%rax), %rdx
 2967 01f1 488B45D0 		movq	-48(%rbp), %rax
 2968 01f5 488902   		movq	%rax, (%rdx)
 2969              	.L208:
 750:/home/xingli/share/LiteOS_Lab/network/mqtt/paho_mqtt/paho/MQTTClient-C/src/MQTTClient.c **** 
 751:/home/xingli/share/LiteOS_Lab/network/mqtt/paho_mqtt/paho/MQTTClient-C/src/MQTTClient.c ****         }
 752:/home/xingli/share/LiteOS_Lab/network/mqtt/paho_mqtt/paho/MQTTClient-C/src/MQTTClient.c ****     }
 753:/home/xingli/share/LiteOS_Lab/network/mqtt/paho_mqtt/paho/MQTTClient-C/src/MQTTClient.c ****     return rc;
 2970              		.loc 1 753 12
 2971 01f8 8B45F0   		movl	-16(%rbp), %eax
 754:/home/xingli/share/LiteOS_Lab/network/mqtt/paho_mqtt/paho/MQTTClient-C/src/MQTTClient.c **** }
 2972              		.loc 1 754 1
 2973 01fb 488B75F8 		movq	-8(%rbp), %rsi
 2974 01ff 64483334 		xorq	%fs:40, %rsi
 2974      25280000 
 2974      00
 2975 0208 7405     		je	.L214
 2976 020a E8000000 		call	__stack_chk_fail@PLT
 2976      00
 2977              	.L214:
 2978 020f C9       		leave
 2979              	.LCFI61:
 2980              		.cfi_def_cfa 7, 8
 2981 0210 C3       		ret
 2982              		.cfi_endproc
 2983              	.LFE27:
 2985              		.section	.text.MQTTSubscribeWithResultsArgs,"ax",@progbits
 2986              		.globl	MQTTSubscribeWithResultsArgs
 2988              	MQTTSubscribeWithResultsArgs:
 2989              	.LFB28:
 755:/home/xingli/share/LiteOS_Lab/network/mqtt/paho_mqtt/paho/MQTTClient-C/src/MQTTClient.c **** 
 756:/home/xingli/share/LiteOS_Lab/network/mqtt/paho_mqtt/paho/MQTTClient-C/src/MQTTClient.c **** 
 757:/home/xingli/share/LiteOS_Lab/network/mqtt/paho_mqtt/paho/MQTTClient-C/src/MQTTClient.c **** int MQTTSubscribeWithResultsArgs(MQTTClient *c, const char *topicFilter, enum QoS qos,
 758:/home/xingli/share/LiteOS_Lab/network/mqtt/paho_mqtt/paho/MQTTClient-C/src/MQTTClient.c ****                              messageHandler messageHandler, MQTTSubackData *data,void *arg)
 759:/home/xingli/share/LiteOS_Lab/network/mqtt/paho_mqtt/paho/MQTTClient-C/src/MQTTClient.c **** {
 2990              		.loc 1 759 1
 2991              		.cfi_startproc
 2992 0000 F30F1EFA 		endbr64
 2993 0004 55       		pushq	%rbp
 2994              	.LCFI62:
 2995              		.cfi_def_cfa_offset 16
 2996              		.cfi_offset 6, -16
 2997 0005 4889E5   		movq	%rsp, %rbp
 2998              	.LCFI63:
 2999              		.cfi_def_cfa_register 6
 3000 0008 4883EC70 		subq	$112, %rsp
 3001 000c 48897DB8 		movq	%rdi, -72(%rbp)
GAS LISTING /tmp/ccgk3rzZ.s 			page 75


 3002 0010 488975B0 		movq	%rsi, -80(%rbp)
 3003 0014 8955AC   		movl	%edx, -84(%rbp)
 3004 0017 48894DA0 		movq	%rcx, -96(%rbp)
 3005 001b 4C894598 		movq	%r8, -104(%rbp)
 3006 001f 4C894D90 		movq	%r9, -112(%rbp)
 3007              		.loc 1 759 1
 3008 0023 64488B04 		movq	%fs:40, %rax
 3008      25280000 
 3008      00
 3009 002c 488945F8 		movq	%rax, -8(%rbp)
 3010 0030 31C0     		xorl	%eax, %eax
 760:/home/xingli/share/LiteOS_Lab/network/mqtt/paho_mqtt/paho/MQTTClient-C/src/MQTTClient.c ****     int rc = FAILURE;
 3011              		.loc 1 760 9
 3012 0032 C745D0FF 		movl	$-1, -48(%rbp)
 3012      FFFFFF
 761:/home/xingli/share/LiteOS_Lab/network/mqtt/paho_mqtt/paho/MQTTClient-C/src/MQTTClient.c ****     Timer timer;
 762:/home/xingli/share/LiteOS_Lab/network/mqtt/paho_mqtt/paho/MQTTClient-C/src/MQTTClient.c ****     int len = 0;
 3013              		.loc 1 762 9
 3014 0039 C745D400 		movl	$0, -44(%rbp)
 3014      000000
 763:/home/xingli/share/LiteOS_Lab/network/mqtt/paho_mqtt/paho/MQTTClient-C/src/MQTTClient.c ****     MQTTString topic = MQTTString_initializer;
 3015              		.loc 1 763 16
 3016 0040 48C745E0 		movq	$0, -32(%rbp)
 3016      00000000 
 3017 0048 C745E800 		movl	$0, -24(%rbp)
 3017      000000
 3018 004f 48C745F0 		movq	$0, -16(%rbp)
 3018      00000000 
 764:/home/xingli/share/LiteOS_Lab/network/mqtt/paho_mqtt/paho/MQTTClient-C/src/MQTTClient.c ****     topic.cstring = (char *)topicFilter;
 3019              		.loc 1 764 19
 3020 0057 488B45B0 		movq	-80(%rbp), %rax
 3021 005b 488945E0 		movq	%rax, -32(%rbp)
 765:/home/xingli/share/LiteOS_Lab/network/mqtt/paho_mqtt/paho/MQTTClient-C/src/MQTTClient.c **** 
 766:/home/xingli/share/LiteOS_Lab/network/mqtt/paho_mqtt/paho/MQTTClient-C/src/MQTTClient.c **** #if defined(MQTT_TASK)
 767:/home/xingli/share/LiteOS_Lab/network/mqtt/paho_mqtt/paho/MQTTClient-C/src/MQTTClient.c ****     MutexLock(&c->mutex);
 3022              		.loc 1 767 5
 3023 005f 488B45B8 		movq	-72(%rbp), %rax
 3024 0063 488B8048 		movq	328(%rax), %rax
 3024      010000
 3025 006a 4889C7   		movq	%rax, %rdi
 3026 006d E8000000 		call	osal_mutex_lock@PLT
 3026      00
 3027 0072 83F801   		cmpl	$1, %eax
 768:/home/xingli/share/LiteOS_Lab/network/mqtt/paho_mqtt/paho/MQTTClient-C/src/MQTTClient.c **** #endif
 769:/home/xingli/share/LiteOS_Lab/network/mqtt/paho_mqtt/paho/MQTTClient-C/src/MQTTClient.c ****     if (!c->isconnected)
 3028              		.loc 1 769 11
 3029 0075 488B45B8 		movq	-72(%rbp), %rax
 3030 0079 8B4030   		movl	48(%rax), %eax
 3031              		.loc 1 769 8
 3032 007c 85C0     		testl	%eax, %eax
 3033 007e 0F843001 		je	.L227
 3033      0000
 770:/home/xingli/share/LiteOS_Lab/network/mqtt/paho_mqtt/paho/MQTTClient-C/src/MQTTClient.c ****         goto exit;
 771:/home/xingli/share/LiteOS_Lab/network/mqtt/paho_mqtt/paho/MQTTClient-C/src/MQTTClient.c **** 
 772:/home/xingli/share/LiteOS_Lab/network/mqtt/paho_mqtt/paho/MQTTClient-C/src/MQTTClient.c ****     TimerInit(&timer);
 3034              		.loc 1 772 5
 3035 0084 488D45D8 		leaq	-40(%rbp), %rax
GAS LISTING /tmp/ccgk3rzZ.s 			page 76


 3036 0088 4889C7   		movq	%rax, %rdi
 3037 008b E8000000 		call	osal_loop_timer_init@PLT
 3037      00
 773:/home/xingli/share/LiteOS_Lab/network/mqtt/paho_mqtt/paho/MQTTClient-C/src/MQTTClient.c ****     TimerCountdownMS(&timer, c->command_timeout_ms);
 3038              		.loc 1 773 5
 3039 0090 488B45B8 		movq	-72(%rbp), %rax
 3040 0094 8B5004   		movl	4(%rax), %edx
 3041 0097 488D45D8 		leaq	-40(%rbp), %rax
 3042 009b 89D6     		movl	%edx, %esi
 3043 009d 4889C7   		movq	%rax, %rdi
 3044 00a0 E8000000 		call	osal_loop_timer_count_downms@PLT
 3044      00
 774:/home/xingli/share/LiteOS_Lab/network/mqtt/paho_mqtt/paho/MQTTClient-C/src/MQTTClient.c **** 
 775:/home/xingli/share/LiteOS_Lab/network/mqtt/paho_mqtt/paho/MQTTClient-C/src/MQTTClient.c ****     len = MQTTSerialize_subscribe(c->buf, c->buf_size, 0, getNextPacketId(c), 1, &topic, (int *)&qo
 3045              		.loc 1 775 59
 3046 00a5 488B45B8 		movq	-72(%rbp), %rax
 3047 00a9 4889C7   		movq	%rax, %rdi
 3048 00ac E8000000 		call	getNextPacketId
 3048      00
 3049              		.loc 1 775 11
 3050 00b1 0FB7D0   		movzwl	%ax, %edx
 3051              		.loc 1 775 44
 3052 00b4 488B45B8 		movq	-72(%rbp), %rax
 3053 00b8 488B4008 		movq	8(%rax), %rax
 3054              		.loc 1 775 11
 3055 00bc 89C7     		movl	%eax, %edi
 3056 00be 488B45B8 		movq	-72(%rbp), %rax
 3057 00c2 488B4018 		movq	24(%rax), %rax
 3058 00c6 488D75E0 		leaq	-32(%rbp), %rsi
 3059 00ca 4883EC08 		subq	$8, %rsp
 3060 00ce 488D4DAC 		leaq	-84(%rbp), %rcx
 3061 00d2 51       		pushq	%rcx
 3062 00d3 4989F1   		movq	%rsi, %r9
 3063 00d6 41B80100 		movl	$1, %r8d
 3063      0000
 3064 00dc 89D1     		movl	%edx, %ecx
 3065 00de BA000000 		movl	$0, %edx
 3065      00
 3066 00e3 89FE     		movl	%edi, %esi
 3067 00e5 4889C7   		movq	%rax, %rdi
 3068 00e8 E8000000 		call	MQTTSerialize_subscribe@PLT
 3068      00
 3069 00ed 4883C410 		addq	$16, %rsp
 3070 00f1 8945D4   		movl	%eax, -44(%rbp)
 776:/home/xingli/share/LiteOS_Lab/network/mqtt/paho_mqtt/paho/MQTTClient-C/src/MQTTClient.c ****     if (len <= 0)
 3071              		.loc 1 776 8
 3072 00f4 837DD400 		cmpl	$0, -44(%rbp)
 3073 00f8 0F8EB900 		jle	.L228
 3073      0000
 777:/home/xingli/share/LiteOS_Lab/network/mqtt/paho_mqtt/paho/MQTTClient-C/src/MQTTClient.c ****         goto exit;
 778:/home/xingli/share/LiteOS_Lab/network/mqtt/paho_mqtt/paho/MQTTClient-C/src/MQTTClient.c ****     if ((rc = sendPacket(c, len, &timer)) != MQTT_SUCCESS) // send the subscribe packet
 3074              		.loc 1 778 15
 3075 00fe 488D55D8 		leaq	-40(%rbp), %rdx
 3076 0102 8B4DD4   		movl	-44(%rbp), %ecx
 3077 0105 488B45B8 		movq	-72(%rbp), %rax
 3078 0109 89CE     		movl	%ecx, %esi
 3079 010b 4889C7   		movq	%rax, %rdi
GAS LISTING /tmp/ccgk3rzZ.s 			page 77


 3080 010e E8000000 		call	sendPacket
 3080      00
 3081 0113 8945D0   		movl	%eax, -48(%rbp)
 3082              		.loc 1 778 8
 3083 0116 837DD000 		cmpl	$0, -48(%rbp)
 3084 011a 0F859A00 		jne	.L229
 3084      0000
 779:/home/xingli/share/LiteOS_Lab/network/mqtt/paho_mqtt/paho/MQTTClient-C/src/MQTTClient.c ****         goto exit;             // there was a problem
 780:/home/xingli/share/LiteOS_Lab/network/mqtt/paho_mqtt/paho/MQTTClient-C/src/MQTTClient.c **** 
 781:/home/xingli/share/LiteOS_Lab/network/mqtt/paho_mqtt/paho/MQTTClient-C/src/MQTTClient.c ****     if (waitfor(c, SUBACK, &timer) == SUBACK)      // wait for suback
 3085              		.loc 1 781 9
 3086 0120 488D55D8 		leaq	-40(%rbp), %rdx
 3087 0124 488B45B8 		movq	-72(%rbp), %rax
 3088 0128 BE090000 		movl	$9, %esi
 3088      00
 3089 012d 4889C7   		movq	%rax, %rdi
 3090 0130 E8000000 		call	waitfor
 3090      00
 3091              		.loc 1 781 8
 3092 0135 83F809   		cmpl	$9, %eax
 3093 0138 7571     		jne	.L222
 3094              	.LBB13:
 782:/home/xingli/share/LiteOS_Lab/network/mqtt/paho_mqtt/paho/MQTTClient-C/src/MQTTClient.c ****     {
 783:/home/xingli/share/LiteOS_Lab/network/mqtt/paho_mqtt/paho/MQTTClient-C/src/MQTTClient.c ****         int count = 0;
 3095              		.loc 1 783 13
 3096 013a C745CC00 		movl	$0, -52(%rbp)
 3096      000000
 784:/home/xingli/share/LiteOS_Lab/network/mqtt/paho_mqtt/paho/MQTTClient-C/src/MQTTClient.c ****         unsigned short mypacketid;
 785:/home/xingli/share/LiteOS_Lab/network/mqtt/paho_mqtt/paho/MQTTClient-C/src/MQTTClient.c ****         data->grantedQoS = QOS0;
 3097              		.loc 1 785 26
 3098 0141 488B4598 		movq	-104(%rbp), %rax
 3099 0145 C7000000 		movl	$0, (%rax)
 3099      0000
 786:/home/xingli/share/LiteOS_Lab/network/mqtt/paho_mqtt/paho/MQTTClient-C/src/MQTTClient.c ****         if (MQTTDeserialize_suback(&mypacketid, 1, &count, (int *)&data->grantedQoS, c->readbuf, c-
 3100              		.loc 1 786 99
 3101 014b 488B45B8 		movq	-72(%rbp), %rax
 3102 014f 488B4010 		movq	16(%rax), %rax
 3103              		.loc 1 786 13
 3104 0153 89C7     		movl	%eax, %edi
 3105 0155 488B45B8 		movq	-72(%rbp), %rax
 3106 0159 488B7020 		movq	32(%rax), %rsi
 3107              		.loc 1 786 67
 3108 015d 488B4D98 		movq	-104(%rbp), %rcx
 3109              		.loc 1 786 13
 3110 0161 488D55CC 		leaq	-52(%rbp), %rdx
 3111 0165 488D45CA 		leaq	-54(%rbp), %rax
 3112 0169 4189F9   		movl	%edi, %r9d
 3113 016c 4989F0   		movq	%rsi, %r8
 3114 016f BE010000 		movl	$1, %esi
 3114      00
 3115 0174 4889C7   		movq	%rax, %rdi
 3116 0177 E8000000 		call	MQTTDeserialize_suback@PLT
 3116      00
 3117              		.loc 1 786 12
 3118 017c 83F801   		cmpl	$1, %eax
 3119 017f 753A     		jne	.L219
 787:/home/xingli/share/LiteOS_Lab/network/mqtt/paho_mqtt/paho/MQTTClient-C/src/MQTTClient.c ****         {
GAS LISTING /tmp/ccgk3rzZ.s 			page 78


 788:/home/xingli/share/LiteOS_Lab/network/mqtt/paho_mqtt/paho/MQTTClient-C/src/MQTTClient.c ****             if (data->grantedQoS != 0x80)
 3120              		.loc 1 788 21
 3121 0181 488B4598 		movq	-104(%rbp), %rax
 3122 0185 8B00     		movl	(%rax), %eax
 3123              		.loc 1 788 16
 3124 0187 3D800000 		cmpl	$128, %eax
 3124      00
 3125 018c 742D     		je	.L219
 789:/home/xingli/share/LiteOS_Lab/network/mqtt/paho_mqtt/paho/MQTTClient-C/src/MQTTClient.c ****                 rc = MQTTSetMessageHandlerArgs(c, topicFilter, messageHandler,arg);
 3126              		.loc 1 789 22
 3127 018e 488B4D90 		movq	-112(%rbp), %rcx
 3128 0192 488B55A0 		movq	-96(%rbp), %rdx
 3129 0196 488B75B0 		movq	-80(%rbp), %rsi
 3130 019a 488B45B8 		movq	-72(%rbp), %rax
 3131 019e 4889C7   		movq	%rax, %rdi
 3132 01a1 E8000000 		call	MQTTSetMessageHandlerArgs
 3132      00
 3133 01a6 8945D0   		movl	%eax, -48(%rbp)
 3134 01a9 EB10     		jmp	.L219
 3135              	.L222:
 3136              	.LBE13:
 790:/home/xingli/share/LiteOS_Lab/network/mqtt/paho_mqtt/paho/MQTTClient-C/src/MQTTClient.c ****         }
 791:/home/xingli/share/LiteOS_Lab/network/mqtt/paho_mqtt/paho/MQTTClient-C/src/MQTTClient.c ****     }
 792:/home/xingli/share/LiteOS_Lab/network/mqtt/paho_mqtt/paho/MQTTClient-C/src/MQTTClient.c ****     else
 793:/home/xingli/share/LiteOS_Lab/network/mqtt/paho_mqtt/paho/MQTTClient-C/src/MQTTClient.c ****         rc = FAILURE;
 3137              		.loc 1 793 12
 3138 01ab C745D0FF 		movl	$-1, -48(%rbp)
 3138      FFFFFF
 3139 01b2 EB07     		jmp	.L219
 3140              	.L227:
 770:/home/xingli/share/LiteOS_Lab/network/mqtt/paho_mqtt/paho/MQTTClient-C/src/MQTTClient.c **** 
 3141              		.loc 1 770 9
 3142 01b4 90       		nop
 3143 01b5 EB04     		jmp	.L219
 3144              	.L228:
 777:/home/xingli/share/LiteOS_Lab/network/mqtt/paho_mqtt/paho/MQTTClient-C/src/MQTTClient.c ****     if ((rc = sendPacket(c, len, &timer)) != MQTT_SUCCESS) // send the subscribe packet
 3145              		.loc 1 777 9
 3146 01b7 90       		nop
 3147 01b8 EB01     		jmp	.L219
 3148              	.L229:
 779:/home/xingli/share/LiteOS_Lab/network/mqtt/paho_mqtt/paho/MQTTClient-C/src/MQTTClient.c **** 
 3149              		.loc 1 779 9
 3150 01ba 90       		nop
 3151              	.L219:
 794:/home/xingli/share/LiteOS_Lab/network/mqtt/paho_mqtt/paho/MQTTClient-C/src/MQTTClient.c **** 
 795:/home/xingli/share/LiteOS_Lab/network/mqtt/paho_mqtt/paho/MQTTClient-C/src/MQTTClient.c **** exit:
 796:/home/xingli/share/LiteOS_Lab/network/mqtt/paho_mqtt/paho/MQTTClient-C/src/MQTTClient.c ****     if (rc == FAILURE)
 3152              		.loc 1 796 8
 3153 01bb 837DD0FF 		cmpl	$-1, -48(%rbp)
 3154 01bf 750C     		jne	.L224
 797:/home/xingli/share/LiteOS_Lab/network/mqtt/paho_mqtt/paho/MQTTClient-C/src/MQTTClient.c ****         MQTTCloseSession(c);
 3155              		.loc 1 797 9
 3156 01c1 488B45B8 		movq	-72(%rbp), %rax
 3157 01c5 4889C7   		movq	%rax, %rdi
 3158 01c8 E8000000 		call	MQTTCloseSession
 3158      00
 3159              	.L224:
GAS LISTING /tmp/ccgk3rzZ.s 			page 79


 798:/home/xingli/share/LiteOS_Lab/network/mqtt/paho_mqtt/paho/MQTTClient-C/src/MQTTClient.c **** #if defined(MQTT_TASK)
 799:/home/xingli/share/LiteOS_Lab/network/mqtt/paho_mqtt/paho/MQTTClient-C/src/MQTTClient.c **** 	  MutexUnlock(&c->mutex);
 3160              		.loc 1 799 4
 3161 01cd 488B45B8 		movq	-72(%rbp), %rax
 3162 01d1 488B8048 		movq	328(%rax), %rax
 3162      010000
 3163 01d8 4889C7   		movq	%rax, %rdi
 3164 01db E8000000 		call	osal_mutex_unlock@PLT
 3164      00
 800:/home/xingli/share/LiteOS_Lab/network/mqtt/paho_mqtt/paho/MQTTClient-C/src/MQTTClient.c **** #endif
 801:/home/xingli/share/LiteOS_Lab/network/mqtt/paho_mqtt/paho/MQTTClient-C/src/MQTTClient.c ****     return rc;
 3165              		.loc 1 801 12
 3166 01e0 8B45D0   		movl	-48(%rbp), %eax
 802:/home/xingli/share/LiteOS_Lab/network/mqtt/paho_mqtt/paho/MQTTClient-C/src/MQTTClient.c **** }
 3167              		.loc 1 802 1
 3168 01e3 488B4DF8 		movq	-8(%rbp), %rcx
 3169 01e7 6448330C 		xorq	%fs:40, %rcx
 3169      25280000 
 3169      00
 3170 01f0 7405     		je	.L226
 3171 01f2 E8000000 		call	__stack_chk_fail@PLT
 3171      00
 3172              	.L226:
 3173 01f7 C9       		leave
 3174              	.LCFI64:
 3175              		.cfi_def_cfa 7, 8
 3176 01f8 C3       		ret
 3177              		.cfi_endproc
 3178              	.LFE28:
 3180              		.section	.text.MQTTSubscribe,"ax",@progbits
 3181              		.globl	MQTTSubscribe
 3183              	MQTTSubscribe:
 3184              	.LFB29:
 803:/home/xingli/share/LiteOS_Lab/network/mqtt/paho_mqtt/paho/MQTTClient-C/src/MQTTClient.c **** 
 804:/home/xingli/share/LiteOS_Lab/network/mqtt/paho_mqtt/paho/MQTTClient-C/src/MQTTClient.c **** int MQTTSubscribe(MQTTClient* c, const char* topicFilter, enum QoS qos,
 805:/home/xingli/share/LiteOS_Lab/network/mqtt/paho_mqtt/paho/MQTTClient-C/src/MQTTClient.c ****        messageHandler messageHandler)
 806:/home/xingli/share/LiteOS_Lab/network/mqtt/paho_mqtt/paho/MQTTClient-C/src/MQTTClient.c **** {
 3185              		.loc 1 806 1
 3186              		.cfi_startproc
 3187 0000 F30F1EFA 		endbr64
 3188 0004 55       		pushq	%rbp
 3189              	.LCFI65:
 3190              		.cfi_def_cfa_offset 16
 3191              		.cfi_offset 6, -16
 3192 0005 4889E5   		movq	%rsp, %rbp
 3193              	.LCFI66:
 3194              		.cfi_def_cfa_register 6
 3195 0008 4883EC30 		subq	$48, %rsp
 3196 000c 48897DE8 		movq	%rdi, -24(%rbp)
 3197 0010 488975E0 		movq	%rsi, -32(%rbp)
 3198 0014 8955DC   		movl	%edx, -36(%rbp)
 3199 0017 48894DD0 		movq	%rcx, -48(%rbp)
 3200              		.loc 1 806 1
 3201 001b 64488B04 		movq	%fs:40, %rax
 3201      25280000 
 3201      00
 3202 0024 488945F8 		movq	%rax, -8(%rbp)
GAS LISTING /tmp/ccgk3rzZ.s 			page 80


 3203 0028 31C0     		xorl	%eax, %eax
 807:/home/xingli/share/LiteOS_Lab/network/mqtt/paho_mqtt/paho/MQTTClient-C/src/MQTTClient.c ****     MQTTSubackData data;
 808:/home/xingli/share/LiteOS_Lab/network/mqtt/paho_mqtt/paho/MQTTClient-C/src/MQTTClient.c ****     return MQTTSubscribeWithResults(c, topicFilter, qos, messageHandler, &data);
 3204              		.loc 1 808 12
 3205 002a 488D7DF4 		leaq	-12(%rbp), %rdi
 3206 002e 488B4DD0 		movq	-48(%rbp), %rcx
 3207 0032 8B55DC   		movl	-36(%rbp), %edx
 3208 0035 488B75E0 		movq	-32(%rbp), %rsi
 3209 0039 488B45E8 		movq	-24(%rbp), %rax
 3210 003d 4989F8   		movq	%rdi, %r8
 3211 0040 4889C7   		movq	%rax, %rdi
 3212 0043 E8000000 		call	MQTTSubscribeWithResults
 3212      00
 809:/home/xingli/share/LiteOS_Lab/network/mqtt/paho_mqtt/paho/MQTTClient-C/src/MQTTClient.c **** }
 3213              		.loc 1 809 1
 3214 0048 488B55F8 		movq	-8(%rbp), %rdx
 3215 004c 64483314 		xorq	%fs:40, %rdx
 3215      25280000 
 3215      00
 3216 0055 7405     		je	.L232
 3217 0057 E8000000 		call	__stack_chk_fail@PLT
 3217      00
 3218              	.L232:
 3219 005c C9       		leave
 3220              	.LCFI67:
 3221              		.cfi_def_cfa 7, 8
 3222 005d C3       		ret
 3223              		.cfi_endproc
 3224              	.LFE29:
 3226              		.section	.text.MQTTUnsubscribe,"ax",@progbits
 3227              		.globl	MQTTUnsubscribe
 3229              	MQTTUnsubscribe:
 3230              	.LFB30:
 810:/home/xingli/share/LiteOS_Lab/network/mqtt/paho_mqtt/paho/MQTTClient-C/src/MQTTClient.c **** 
 811:/home/xingli/share/LiteOS_Lab/network/mqtt/paho_mqtt/paho/MQTTClient-C/src/MQTTClient.c **** 
 812:/home/xingli/share/LiteOS_Lab/network/mqtt/paho_mqtt/paho/MQTTClient-C/src/MQTTClient.c **** int MQTTUnsubscribe(MQTTClient* c, const char* topicFilter)
 813:/home/xingli/share/LiteOS_Lab/network/mqtt/paho_mqtt/paho/MQTTClient-C/src/MQTTClient.c **** {
 3231              		.loc 1 813 1
 3232              		.cfi_startproc
 3233 0000 F30F1EFA 		endbr64
 3234 0004 55       		pushq	%rbp
 3235              	.LCFI68:
 3236              		.cfi_def_cfa_offset 16
 3237              		.cfi_offset 6, -16
 3238 0005 4889E5   		movq	%rsp, %rbp
 3239              	.LCFI69:
 3240              		.cfi_def_cfa_register 6
 3241 0008 4883EC50 		subq	$80, %rsp
 3242 000c 48897DB8 		movq	%rdi, -72(%rbp)
 3243 0010 488975B0 		movq	%rsi, -80(%rbp)
 3244              		.loc 1 813 1
 3245 0014 64488B04 		movq	%fs:40, %rax
 3245      25280000 
 3245      00
 3246 001d 488945F8 		movq	%rax, -8(%rbp)
 3247 0021 31C0     		xorl	%eax, %eax
 814:/home/xingli/share/LiteOS_Lab/network/mqtt/paho_mqtt/paho/MQTTClient-C/src/MQTTClient.c ****     int rc = FAILURE;
GAS LISTING /tmp/ccgk3rzZ.s 			page 81


 3248              		.loc 1 814 9
 3249 0023 C745D0FF 		movl	$-1, -48(%rbp)
 3249      FFFFFF
 815:/home/xingli/share/LiteOS_Lab/network/mqtt/paho_mqtt/paho/MQTTClient-C/src/MQTTClient.c ****     Timer timer;
 816:/home/xingli/share/LiteOS_Lab/network/mqtt/paho_mqtt/paho/MQTTClient-C/src/MQTTClient.c ****     MQTTString topic = MQTTString_initializer;
 3250              		.loc 1 816 16
 3251 002a 48C745E0 		movq	$0, -32(%rbp)
 3251      00000000 
 3252 0032 C745E800 		movl	$0, -24(%rbp)
 3252      000000
 3253 0039 48C745F0 		movq	$0, -16(%rbp)
 3253      00000000 
 817:/home/xingli/share/LiteOS_Lab/network/mqtt/paho_mqtt/paho/MQTTClient-C/src/MQTTClient.c ****     topic.cstring = (char *)topicFilter;
 3254              		.loc 1 817 19
 3255 0041 488B45B0 		movq	-80(%rbp), %rax
 3256 0045 488945E0 		movq	%rax, -32(%rbp)
 818:/home/xingli/share/LiteOS_Lab/network/mqtt/paho_mqtt/paho/MQTTClient-C/src/MQTTClient.c ****     int len = 0;
 3257              		.loc 1 818 9
 3258 0049 C745D400 		movl	$0, -44(%rbp)
 3258      000000
 819:/home/xingli/share/LiteOS_Lab/network/mqtt/paho_mqtt/paho/MQTTClient-C/src/MQTTClient.c **** 
 820:/home/xingli/share/LiteOS_Lab/network/mqtt/paho_mqtt/paho/MQTTClient-C/src/MQTTClient.c **** #if defined(MQTT_TASK)
 821:/home/xingli/share/LiteOS_Lab/network/mqtt/paho_mqtt/paho/MQTTClient-C/src/MQTTClient.c **** 	  MutexLock(&c->mutex);
 3259              		.loc 1 821 4
 3260 0050 488B45B8 		movq	-72(%rbp), %rax
 3261 0054 488B8048 		movq	328(%rax), %rax
 3261      010000
 3262 005b 4889C7   		movq	%rax, %rdi
 3263 005e E8000000 		call	osal_mutex_lock@PLT
 3263      00
 3264 0063 83F801   		cmpl	$1, %eax
 822:/home/xingli/share/LiteOS_Lab/network/mqtt/paho_mqtt/paho/MQTTClient-C/src/MQTTClient.c **** #endif
 823:/home/xingli/share/LiteOS_Lab/network/mqtt/paho_mqtt/paho/MQTTClient-C/src/MQTTClient.c **** 	  if (!c->isconnected)
 3265              		.loc 1 823 10
 3266 0066 488B45B8 		movq	-72(%rbp), %rax
 3267 006a 8B4030   		movl	48(%rax), %eax
 3268              		.loc 1 823 7
 3269 006d 85C0     		testl	%eax, %eax
 3270 006f 0F84EC00 		je	.L245
 3270      0000
 824:/home/xingli/share/LiteOS_Lab/network/mqtt/paho_mqtt/paho/MQTTClient-C/src/MQTTClient.c **** 		  goto exit;
 825:/home/xingli/share/LiteOS_Lab/network/mqtt/paho_mqtt/paho/MQTTClient-C/src/MQTTClient.c **** 
 826:/home/xingli/share/LiteOS_Lab/network/mqtt/paho_mqtt/paho/MQTTClient-C/src/MQTTClient.c ****     TimerInit(&timer);
 3271              		.loc 1 826 5
 3272 0075 488D45D8 		leaq	-40(%rbp), %rax
 3273 0079 4889C7   		movq	%rax, %rdi
 3274 007c E8000000 		call	osal_loop_timer_init@PLT
 3274      00
 827:/home/xingli/share/LiteOS_Lab/network/mqtt/paho_mqtt/paho/MQTTClient-C/src/MQTTClient.c ****     TimerCountdownMS(&timer, c->command_timeout_ms);
 3275              		.loc 1 827 5
 3276 0081 488B45B8 		movq	-72(%rbp), %rax
 3277 0085 8B5004   		movl	4(%rax), %edx
 3278 0088 488D45D8 		leaq	-40(%rbp), %rax
 3279 008c 89D6     		movl	%edx, %esi
 3280 008e 4889C7   		movq	%rax, %rdi
 3281 0091 E8000000 		call	osal_loop_timer_count_downms@PLT
 3281      00
GAS LISTING /tmp/ccgk3rzZ.s 			page 82


 828:/home/xingli/share/LiteOS_Lab/network/mqtt/paho_mqtt/paho/MQTTClient-C/src/MQTTClient.c **** 
 829:/home/xingli/share/LiteOS_Lab/network/mqtt/paho_mqtt/paho/MQTTClient-C/src/MQTTClient.c ****     if ((len = MQTTSerialize_unsubscribe(c->buf, c->buf_size, 0, getNextPacketId(c), 1, &topic)) <=
 3282              		.loc 1 829 66
 3283 0096 488B45B8 		movq	-72(%rbp), %rax
 3284 009a 4889C7   		movq	%rax, %rdi
 3285 009d E8000000 		call	getNextPacketId
 3285      00
 3286              		.loc 1 829 16
 3287 00a2 0FB7D0   		movzwl	%ax, %edx
 3288              		.loc 1 829 51
 3289 00a5 488B45B8 		movq	-72(%rbp), %rax
 3290 00a9 488B4008 		movq	8(%rax), %rax
 3291              		.loc 1 829 16
 3292 00ad 89C6     		movl	%eax, %esi
 3293 00af 488B45B8 		movq	-72(%rbp), %rax
 3294 00b3 488B4018 		movq	24(%rax), %rax
 3295 00b7 488D4DE0 		leaq	-32(%rbp), %rcx
 3296 00bb 4989C9   		movq	%rcx, %r9
 3297 00be 41B80100 		movl	$1, %r8d
 3297      0000
 3298 00c4 89D1     		movl	%edx, %ecx
 3299 00c6 BA000000 		movl	$0, %edx
 3299      00
 3300 00cb 4889C7   		movq	%rax, %rdi
 3301 00ce E8000000 		call	MQTTSerialize_unsubscribe@PLT
 3301      00
 3302 00d3 8945D4   		movl	%eax, -44(%rbp)
 3303              		.loc 1 829 8
 3304 00d6 837DD400 		cmpl	$0, -44(%rbp)
 3305 00da 0F8E8400 		jle	.L246
 3305      0000
 830:/home/xingli/share/LiteOS_Lab/network/mqtt/paho_mqtt/paho/MQTTClient-C/src/MQTTClient.c ****         goto exit;
 831:/home/xingli/share/LiteOS_Lab/network/mqtt/paho_mqtt/paho/MQTTClient-C/src/MQTTClient.c ****     if ((rc = sendPacket(c, len, &timer)) != MQTT_SUCCESS) // send the subscribe packet
 3306              		.loc 1 831 15
 3307 00e0 488D55D8 		leaq	-40(%rbp), %rdx
 3308 00e4 8B4DD4   		movl	-44(%rbp), %ecx
 3309 00e7 488B45B8 		movq	-72(%rbp), %rax
 3310 00eb 89CE     		movl	%ecx, %esi
 3311 00ed 4889C7   		movq	%rax, %rdi
 3312 00f0 E8000000 		call	sendPacket
 3312      00
 3313 00f5 8945D0   		movl	%eax, -48(%rbp)
 3314              		.loc 1 831 8
 3315 00f8 837DD000 		cmpl	$0, -48(%rbp)
 3316 00fc 7569     		jne	.L247
 832:/home/xingli/share/LiteOS_Lab/network/mqtt/paho_mqtt/paho/MQTTClient-C/src/MQTTClient.c ****         goto exit; // there was a problem
 833:/home/xingli/share/LiteOS_Lab/network/mqtt/paho_mqtt/paho/MQTTClient-C/src/MQTTClient.c **** 
 834:/home/xingli/share/LiteOS_Lab/network/mqtt/paho_mqtt/paho/MQTTClient-C/src/MQTTClient.c ****     if (waitfor(c, UNSUBACK, &timer) == UNSUBACK)
 3317              		.loc 1 834 9
 3318 00fe 488D55D8 		leaq	-40(%rbp), %rdx
 3319 0102 488B45B8 		movq	-72(%rbp), %rax
 3320 0106 BE0B0000 		movl	$11, %esi
 3320      00
 3321 010b 4889C7   		movq	%rax, %rdi
 3322 010e E8000000 		call	waitfor
 3322      00
 3323              		.loc 1 834 8
GAS LISTING /tmp/ccgk3rzZ.s 			page 83


 3324 0113 83F80B   		cmpl	$11, %eax
 3325 0116 7540     		jne	.L240
 3326              	.LBB14:
 835:/home/xingli/share/LiteOS_Lab/network/mqtt/paho_mqtt/paho/MQTTClient-C/src/MQTTClient.c ****     {
 836:/home/xingli/share/LiteOS_Lab/network/mqtt/paho_mqtt/paho/MQTTClient-C/src/MQTTClient.c ****         unsigned short mypacketid;  // should be the same as the packetid above
 837:/home/xingli/share/LiteOS_Lab/network/mqtt/paho_mqtt/paho/MQTTClient-C/src/MQTTClient.c ****         if (MQTTDeserialize_unsuback(&mypacketid, c->readbuf, c->readbuf_size) == 1)
 3327              		.loc 1 837 64
 3328 0118 488B45B8 		movq	-72(%rbp), %rax
 3329 011c 488B4010 		movq	16(%rax), %rax
 3330              		.loc 1 837 13
 3331 0120 89C2     		movl	%eax, %edx
 3332 0122 488B45B8 		movq	-72(%rbp), %rax
 3333 0126 488B4820 		movq	32(%rax), %rcx
 3334 012a 488D45CE 		leaq	-50(%rbp), %rax
 3335 012e 4889CE   		movq	%rcx, %rsi
 3336 0131 4889C7   		movq	%rax, %rdi
 3337 0134 E8000000 		call	MQTTDeserialize_unsuback@PLT
 3337      00
 3338              		.loc 1 837 12
 3339 0139 83F801   		cmpl	$1, %eax
 3340 013c 752A     		jne	.L237
 838:/home/xingli/share/LiteOS_Lab/network/mqtt/paho_mqtt/paho/MQTTClient-C/src/MQTTClient.c ****         {
 839:/home/xingli/share/LiteOS_Lab/network/mqtt/paho_mqtt/paho/MQTTClient-C/src/MQTTClient.c ****             /* remove the subscription message handler associated with this topic, if there is one 
 840:/home/xingli/share/LiteOS_Lab/network/mqtt/paho_mqtt/paho/MQTTClient-C/src/MQTTClient.c ****             MQTTSetMessageHandler(c, topicFilter, NULL);
 3341              		.loc 1 840 13
 3342 013e 488B4DB0 		movq	-80(%rbp), %rcx
 3343 0142 488B45B8 		movq	-72(%rbp), %rax
 3344 0146 BA000000 		movl	$0, %edx
 3344      00
 3345 014b 4889CE   		movq	%rcx, %rsi
 3346 014e 4889C7   		movq	%rax, %rdi
 3347 0151 E8000000 		call	MQTTSetMessageHandler
 3347      00
 3348 0156 EB10     		jmp	.L237
 3349              	.L240:
 3350              	.LBE14:
 841:/home/xingli/share/LiteOS_Lab/network/mqtt/paho_mqtt/paho/MQTTClient-C/src/MQTTClient.c ****         }
 842:/home/xingli/share/LiteOS_Lab/network/mqtt/paho_mqtt/paho/MQTTClient-C/src/MQTTClient.c ****     }
 843:/home/xingli/share/LiteOS_Lab/network/mqtt/paho_mqtt/paho/MQTTClient-C/src/MQTTClient.c ****     else
 844:/home/xingli/share/LiteOS_Lab/network/mqtt/paho_mqtt/paho/MQTTClient-C/src/MQTTClient.c ****         rc = FAILURE;
 3351              		.loc 1 844 12
 3352 0158 C745D0FF 		movl	$-1, -48(%rbp)
 3352      FFFFFF
 3353 015f EB07     		jmp	.L237
 3354              	.L245:
 824:/home/xingli/share/LiteOS_Lab/network/mqtt/paho_mqtt/paho/MQTTClient-C/src/MQTTClient.c **** 
 3355              		.loc 1 824 5
 3356 0161 90       		nop
 3357 0162 EB04     		jmp	.L237
 3358              	.L246:
 830:/home/xingli/share/LiteOS_Lab/network/mqtt/paho_mqtt/paho/MQTTClient-C/src/MQTTClient.c ****     if ((rc = sendPacket(c, len, &timer)) != MQTT_SUCCESS) // send the subscribe packet
 3359              		.loc 1 830 9
 3360 0164 90       		nop
 3361 0165 EB01     		jmp	.L237
 3362              	.L247:
 832:/home/xingli/share/LiteOS_Lab/network/mqtt/paho_mqtt/paho/MQTTClient-C/src/MQTTClient.c **** 
 3363              		.loc 1 832 9
GAS LISTING /tmp/ccgk3rzZ.s 			page 84


 3364 0167 90       		nop
 3365              	.L237:
 845:/home/xingli/share/LiteOS_Lab/network/mqtt/paho_mqtt/paho/MQTTClient-C/src/MQTTClient.c **** 
 846:/home/xingli/share/LiteOS_Lab/network/mqtt/paho_mqtt/paho/MQTTClient-C/src/MQTTClient.c **** exit:
 847:/home/xingli/share/LiteOS_Lab/network/mqtt/paho_mqtt/paho/MQTTClient-C/src/MQTTClient.c ****     if (rc == FAILURE)
 3366              		.loc 1 847 8
 3367 0168 837DD0FF 		cmpl	$-1, -48(%rbp)
 3368 016c 750C     		jne	.L242
 848:/home/xingli/share/LiteOS_Lab/network/mqtt/paho_mqtt/paho/MQTTClient-C/src/MQTTClient.c ****         MQTTCloseSession(c);
 3369              		.loc 1 848 9
 3370 016e 488B45B8 		movq	-72(%rbp), %rax
 3371 0172 4889C7   		movq	%rax, %rdi
 3372 0175 E8000000 		call	MQTTCloseSession
 3372      00
 3373              	.L242:
 849:/home/xingli/share/LiteOS_Lab/network/mqtt/paho_mqtt/paho/MQTTClient-C/src/MQTTClient.c **** #if defined(MQTT_TASK)
 850:/home/xingli/share/LiteOS_Lab/network/mqtt/paho_mqtt/paho/MQTTClient-C/src/MQTTClient.c **** 	  MutexUnlock(&c->mutex);
 3374              		.loc 1 850 4
 3375 017a 488B45B8 		movq	-72(%rbp), %rax
 3376 017e 488B8048 		movq	328(%rax), %rax
 3376      010000
 3377 0185 4889C7   		movq	%rax, %rdi
 3378 0188 E8000000 		call	osal_mutex_unlock@PLT
 3378      00
 851:/home/xingli/share/LiteOS_Lab/network/mqtt/paho_mqtt/paho/MQTTClient-C/src/MQTTClient.c **** #endif
 852:/home/xingli/share/LiteOS_Lab/network/mqtt/paho_mqtt/paho/MQTTClient-C/src/MQTTClient.c ****     return rc;
 3379              		.loc 1 852 12
 3380 018d 8B45D0   		movl	-48(%rbp), %eax
 853:/home/xingli/share/LiteOS_Lab/network/mqtt/paho_mqtt/paho/MQTTClient-C/src/MQTTClient.c **** }
 3381              		.loc 1 853 1
 3382 0190 488B4DF8 		movq	-8(%rbp), %rcx
 3383 0194 6448330C 		xorq	%fs:40, %rcx
 3383      25280000 
 3383      00
 3384 019d 7405     		je	.L244
 3385 019f E8000000 		call	__stack_chk_fail@PLT
 3385      00
 3386              	.L244:
 3387 01a4 C9       		leave
 3388              	.LCFI70:
 3389              		.cfi_def_cfa 7, 8
 3390 01a5 C3       		ret
 3391              		.cfi_endproc
 3392              	.LFE30:
 3394              		.section	.rodata
 3395              	.LC0:
 3396 0000 7263203D 		.string	"rc = failure "
 3396      20666169 
 3396      6C757265 
 3396      2000
 3397              		.section	.text.MQTTPublish,"ax",@progbits
