ARM GAS  C:\Users\ADMINI~1\AppData\Local\Temp\ccpUKxjn.s 			page 1


   1              		.cpu cortex-m4
   2              		.eabi_attribute 27, 1
   3              		.eabi_attribute 28, 1
   4              		.eabi_attribute 20, 1
   5              		.eabi_attribute 21, 1
   6              		.eabi_attribute 23, 3
   7              		.eabi_attribute 24, 1
   8              		.eabi_attribute 25, 1
   9              		.eabi_attribute 26, 1
  10              		.eabi_attribute 30, 6
  11              		.eabi_attribute 34, 1
  12              		.eabi_attribute 18, 4
  13              		.file	"los_queue.c"
  14              		.text
  15              	.Ltext0:
  16              		.cfi_sections	.debug_frame
  17              		.section	.text.LOS_ListInit,"ax",%progbits
  18              		.align	1
  19              		.arch armv7e-m
  20              		.syntax unified
  21              		.thumb
  22              		.thumb_func
  23              		.fpu fpv4-sp-d16
  25              	LOS_ListInit:
  26              	.LFB123:
  27              		.file 1 "d:/LiteOS_Lab/iot_link/os/liteos/include/los_list.h"
   1:d:/LiteOS_Lab/iot_link/os/liteos/include\los_list.h **** /*----------------------------------------------------------------------------
   2:d:/LiteOS_Lab/iot_link/os/liteos/include\los_list.h ****  * Copyright (c) <2013-2015>, <Huawei Technologies Co., Ltd>
   3:d:/LiteOS_Lab/iot_link/os/liteos/include\los_list.h ****  * All rights reserved.
   4:d:/LiteOS_Lab/iot_link/os/liteos/include\los_list.h ****  * Redistribution and use in source and binary forms, with or without modification,
   5:d:/LiteOS_Lab/iot_link/os/liteos/include\los_list.h ****  * are permitted provided that the following conditions are met:
   6:d:/LiteOS_Lab/iot_link/os/liteos/include\los_list.h ****  * 1. Redistributions of source code must retain the above copyright notice, this list of
   7:d:/LiteOS_Lab/iot_link/os/liteos/include\los_list.h ****  * conditions and the following disclaimer.
   8:d:/LiteOS_Lab/iot_link/os/liteos/include\los_list.h ****  * 2. Redistributions in binary form must reproduce the above copyright notice, this list
   9:d:/LiteOS_Lab/iot_link/os/liteos/include\los_list.h ****  * of conditions and the following disclaimer in the documentation and/or other materials
  10:d:/LiteOS_Lab/iot_link/os/liteos/include\los_list.h ****  * provided with the distribution.
  11:d:/LiteOS_Lab/iot_link/os/liteos/include\los_list.h ****  * 3. Neither the name of the copyright holder nor the names of its contributors may be used
  12:d:/LiteOS_Lab/iot_link/os/liteos/include\los_list.h ****  * to endorse or promote products derived from this software without specific prior written
  13:d:/LiteOS_Lab/iot_link/os/liteos/include\los_list.h ****  * permission.
  14:d:/LiteOS_Lab/iot_link/os/liteos/include\los_list.h ****  * THIS SOFTWARE IS PROVIDED BY THE COPYRIGHT HOLDERS AND CONTRIBUTORS
  15:d:/LiteOS_Lab/iot_link/os/liteos/include\los_list.h ****  * "AS IS" AND ANY EXPRESS OR IMPLIED WARRANTIES, INCLUDING, BUT NOT LIMITED TO,
  16:d:/LiteOS_Lab/iot_link/os/liteos/include\los_list.h ****  * THE IMPLIED WARRANTIES OF MERCHANTABILITY AND FITNESS FOR A PARTICULAR
  17:d:/LiteOS_Lab/iot_link/os/liteos/include\los_list.h ****  * PURPOSE ARE DISCLAIMED. IN NO EVENT SHALL THE COPYRIGHT HOLDER OR
  18:d:/LiteOS_Lab/iot_link/os/liteos/include\los_list.h ****  * CONTRIBUTORS BE LIABLE FOR ANY DIRECT, INDIRECT, INCIDENTAL, SPECIAL,
  19:d:/LiteOS_Lab/iot_link/os/liteos/include\los_list.h ****  * EXEMPLARY, OR CONSEQUENTIAL DAMAGES (INCLUDING, BUT NOT LIMITED TO,
  20:d:/LiteOS_Lab/iot_link/os/liteos/include\los_list.h ****  * PROCUREMENT OF SUBSTITUTE GOODS OR SERVICES; LOSS OF USE, DATA, OR PROFITS;
  21:d:/LiteOS_Lab/iot_link/os/liteos/include\los_list.h ****  * OR BUSINESS INTERRUPTION) HOWEVER CAUSED AND ON ANY THEORY OF LIABILITY,
  22:d:/LiteOS_Lab/iot_link/os/liteos/include\los_list.h ****  * WHETHER IN CONTRACT, STRICT LIABILITY, OR TORT (INCLUDING NEGLIGENCE OR
  23:d:/LiteOS_Lab/iot_link/os/liteos/include\los_list.h ****  * OTHERWISE) ARISING IN ANY WAY OUT OF THE USE OF THIS SOFTWARE, EVEN IF
  24:d:/LiteOS_Lab/iot_link/os/liteos/include\los_list.h ****  * ADVISED OF THE POSSIBILITY OF SUCH DAMAGE.
  25:d:/LiteOS_Lab/iot_link/os/liteos/include\los_list.h ****  *---------------------------------------------------------------------------*/
  26:d:/LiteOS_Lab/iot_link/os/liteos/include\los_list.h **** /*----------------------------------------------------------------------------
  27:d:/LiteOS_Lab/iot_link/os/liteos/include\los_list.h ****  * Notice of Export Control Law
  28:d:/LiteOS_Lab/iot_link/os/liteos/include\los_list.h ****  * ===============================================
  29:d:/LiteOS_Lab/iot_link/os/liteos/include\los_list.h ****  * Huawei LiteOS may be subject to applicable export control laws and regulations, which might
  30:d:/LiteOS_Lab/iot_link/os/liteos/include\los_list.h ****  * include those applicable to Huawei LiteOS of U.S. and the country in which you are located.
  31:d:/LiteOS_Lab/iot_link/os/liteos/include\los_list.h ****  * Import, export and usage of Huawei LiteOS in any manner by you shall be in compliance with such
ARM GAS  C:\Users\ADMINI~1\AppData\Local\Temp\ccpUKxjn.s 			page 2


  32:d:/LiteOS_Lab/iot_link/os/liteos/include\los_list.h ****  * applicable export control laws and regulations.
  33:d:/LiteOS_Lab/iot_link/os/liteos/include\los_list.h ****  *---------------------------------------------------------------------------*/
  34:d:/LiteOS_Lab/iot_link/os/liteos/include\los_list.h **** 
  35:d:/LiteOS_Lab/iot_link/os/liteos/include\los_list.h ****  /** @defgroup los_list Doubly linked list
  36:d:/LiteOS_Lab/iot_link/os/liteos/include\los_list.h ****  * @ingroup kernel
  37:d:/LiteOS_Lab/iot_link/os/liteos/include\los_list.h ****  */
  38:d:/LiteOS_Lab/iot_link/os/liteos/include\los_list.h **** 
  39:d:/LiteOS_Lab/iot_link/os/liteos/include\los_list.h **** #ifndef _LOS_LIST_H
  40:d:/LiteOS_Lab/iot_link/os/liteos/include\los_list.h **** #define _LOS_LIST_H
  41:d:/LiteOS_Lab/iot_link/os/liteos/include\los_list.h **** 
  42:d:/LiteOS_Lab/iot_link/os/liteos/include\los_list.h **** #include "los_typedef.h"
  43:d:/LiteOS_Lab/iot_link/os/liteos/include\los_list.h **** 
  44:d:/LiteOS_Lab/iot_link/os/liteos/include\los_list.h **** #ifdef __cplusplus
  45:d:/LiteOS_Lab/iot_link/os/liteos/include\los_list.h **** #if __cplusplus
  46:d:/LiteOS_Lab/iot_link/os/liteos/include\los_list.h **** extern "C" {
  47:d:/LiteOS_Lab/iot_link/os/liteos/include\los_list.h **** #endif /* __cplusplus */
  48:d:/LiteOS_Lab/iot_link/os/liteos/include\los_list.h **** #endif /* __cplusplus */
  49:d:/LiteOS_Lab/iot_link/os/liteos/include\los_list.h **** 
  50:d:/LiteOS_Lab/iot_link/os/liteos/include\los_list.h **** 
  51:d:/LiteOS_Lab/iot_link/os/liteos/include\los_list.h **** /**
  52:d:/LiteOS_Lab/iot_link/os/liteos/include\los_list.h ****  *@ingroup los_list
  53:d:/LiteOS_Lab/iot_link/os/liteos/include\los_list.h ****  *Structure of a node in a doubly linked list.
  54:d:/LiteOS_Lab/iot_link/os/liteos/include\los_list.h ****  */
  55:d:/LiteOS_Lab/iot_link/os/liteos/include\los_list.h **** typedef struct LOS_DL_LIST
  56:d:/LiteOS_Lab/iot_link/os/liteos/include\los_list.h **** {
  57:d:/LiteOS_Lab/iot_link/os/liteos/include\los_list.h ****     struct LOS_DL_LIST *pstPrev;            /**< Current node's pointer to the previous node*/
  58:d:/LiteOS_Lab/iot_link/os/liteos/include\los_list.h ****     struct LOS_DL_LIST *pstNext;            /**< Current node's pointer to the next node*/
  59:d:/LiteOS_Lab/iot_link/os/liteos/include\los_list.h **** } LOS_DL_LIST;
  60:d:/LiteOS_Lab/iot_link/os/liteos/include\los_list.h **** 
  61:d:/LiteOS_Lab/iot_link/os/liteos/include\los_list.h **** /**
  62:d:/LiteOS_Lab/iot_link/os/liteos/include\los_list.h ****  *@ingroup los_list
  63:d:/LiteOS_Lab/iot_link/os/liteos/include\los_list.h ****  *@brief Initialize a doubly linked list.
  64:d:/LiteOS_Lab/iot_link/os/liteos/include\los_list.h ****  *
  65:d:/LiteOS_Lab/iot_link/os/liteos/include\los_list.h ****  *@par Description:
  66:d:/LiteOS_Lab/iot_link/os/liteos/include\los_list.h ****  *This API is used to initialize a doubly linked list.
  67:d:/LiteOS_Lab/iot_link/os/liteos/include\los_list.h ****  *@attention
  68:d:/LiteOS_Lab/iot_link/os/liteos/include\los_list.h ****  *<ul>
  69:d:/LiteOS_Lab/iot_link/os/liteos/include\los_list.h ****  *<li>The parameter passed in should be ensured to be a legal pointer.</li>
  70:d:/LiteOS_Lab/iot_link/os/liteos/include\los_list.h ****  *</ul>
  71:d:/LiteOS_Lab/iot_link/os/liteos/include\los_list.h ****  *
  72:d:/LiteOS_Lab/iot_link/os/liteos/include\los_list.h ****  *@param pstList    [IN] Node in a doubly linked list.
  73:d:/LiteOS_Lab/iot_link/os/liteos/include\los_list.h ****  *
  74:d:/LiteOS_Lab/iot_link/os/liteos/include\los_list.h ****  *@retval None.
  75:d:/LiteOS_Lab/iot_link/os/liteos/include\los_list.h ****  *@par Dependency:
  76:d:/LiteOS_Lab/iot_link/os/liteos/include\los_list.h ****  *<ul><li>los_list.h: the header file that contains the API declaration.</li></ul>
  77:d:/LiteOS_Lab/iot_link/os/liteos/include\los_list.h ****  *@see
  78:d:/LiteOS_Lab/iot_link/os/liteos/include\los_list.h ****  *@since Huawei LiteOS V100R001C00
  79:d:/LiteOS_Lab/iot_link/os/liteos/include\los_list.h ****  */
  80:d:/LiteOS_Lab/iot_link/os/liteos/include\los_list.h **** LITE_OS_SEC_ALW_INLINE STATIC_INLINE VOID LOS_ListInit(LOS_DL_LIST *pstList)
  81:d:/LiteOS_Lab/iot_link/os/liteos/include\los_list.h **** {
  28              		.loc 1 81 1
  29              		.cfi_startproc
  30              		@ args = 0, pretend = 0, frame = 8
  31              		@ frame_needed = 1, uses_anonymous_args = 0
  32              		@ link register save eliminated.
  33 0000 80B4     		push	{r7}
  34              	.LCFI0:
ARM GAS  C:\Users\ADMINI~1\AppData\Local\Temp\ccpUKxjn.s 			page 3


  35              		.cfi_def_cfa_offset 4
  36              		.cfi_offset 7, -4
  37 0002 83B0     		sub	sp, sp, #12
  38              	.LCFI1:
  39              		.cfi_def_cfa_offset 16
  40 0004 00AF     		add	r7, sp, #0
  41              	.LCFI2:
  42              		.cfi_def_cfa_register 7
  43 0006 7860     		str	r0, [r7, #4]
  82:d:/LiteOS_Lab/iot_link/os/liteos/include\los_list.h ****     pstList->pstNext = pstList;
  44              		.loc 1 82 22
  45 0008 7B68     		ldr	r3, [r7, #4]
  46 000a 7A68     		ldr	r2, [r7, #4]
  47 000c 5A60     		str	r2, [r3, #4]
  83:d:/LiteOS_Lab/iot_link/os/liteos/include\los_list.h ****     pstList->pstPrev = pstList;
  48              		.loc 1 83 22
  49 000e 7B68     		ldr	r3, [r7, #4]
  50 0010 7A68     		ldr	r2, [r7, #4]
  51 0012 1A60     		str	r2, [r3]
  84:d:/LiteOS_Lab/iot_link/os/liteos/include\los_list.h **** }
  52              		.loc 1 84 1
  53 0014 00BF     		nop
  54 0016 0C37     		adds	r7, r7, #12
  55              	.LCFI3:
  56              		.cfi_def_cfa_offset 4
  57 0018 BD46     		mov	sp, r7
  58              	.LCFI4:
  59              		.cfi_def_cfa_register 13
  60              		@ sp needed
  61 001a 5DF8047B 		ldr	r7, [sp], #4
  62              	.LCFI5:
  63              		.cfi_restore 7
  64              		.cfi_def_cfa_offset 0
  65 001e 7047     		bx	lr
  66              		.cfi_endproc
  67              	.LFE123:
  69              		.section	.text.LOS_ListAdd,"ax",%progbits
  70              		.align	1
  71              		.syntax unified
  72              		.thumb
  73              		.thumb_func
  74              		.fpu fpv4-sp-d16
  76              	LOS_ListAdd:
  77              	.LFB124:
  85:d:/LiteOS_Lab/iot_link/os/liteos/include\los_list.h **** 
  86:d:/LiteOS_Lab/iot_link/os/liteos/include\los_list.h **** /**
  87:d:/LiteOS_Lab/iot_link/os/liteos/include\los_list.h ****  *@ingroup los_list
  88:d:/LiteOS_Lab/iot_link/os/liteos/include\los_list.h ****  *@brief Point to the next node pointed to by the current node.
  89:d:/LiteOS_Lab/iot_link/os/liteos/include\los_list.h ****  *
  90:d:/LiteOS_Lab/iot_link/os/liteos/include\los_list.h ****  *@par Description:
  91:d:/LiteOS_Lab/iot_link/os/liteos/include\los_list.h ****  *<ul>
  92:d:/LiteOS_Lab/iot_link/os/liteos/include\los_list.h ****  *<li>This API is used to point to the next node pointed to by the current node.</li>
  93:d:/LiteOS_Lab/iot_link/os/liteos/include\los_list.h ****  *</ul>
  94:d:/LiteOS_Lab/iot_link/os/liteos/include\los_list.h ****  *@attention
  95:d:/LiteOS_Lab/iot_link/os/liteos/include\los_list.h ****  *<ul>
  96:d:/LiteOS_Lab/iot_link/os/liteos/include\los_list.h ****  *<li>None.</li>
  97:d:/LiteOS_Lab/iot_link/os/liteos/include\los_list.h ****  *</ul>
ARM GAS  C:\Users\ADMINI~1\AppData\Local\Temp\ccpUKxjn.s 			page 4


  98:d:/LiteOS_Lab/iot_link/os/liteos/include\los_list.h ****  *
  99:d:/LiteOS_Lab/iot_link/os/liteos/include\los_list.h ****  *@param pstObject  [IN] Node in the doubly linked list.
 100:d:/LiteOS_Lab/iot_link/os/liteos/include\los_list.h ****  *
 101:d:/LiteOS_Lab/iot_link/os/liteos/include\los_list.h ****  *@retval None.
 102:d:/LiteOS_Lab/iot_link/os/liteos/include\los_list.h ****  *@par Dependency:
 103:d:/LiteOS_Lab/iot_link/os/liteos/include\los_list.h ****  *<ul><li>los_list.h: the header file that contains the API declaration.</li></ul>
 104:d:/LiteOS_Lab/iot_link/os/liteos/include\los_list.h ****  *@see
 105:d:/LiteOS_Lab/iot_link/os/liteos/include\los_list.h ****  *@since Huawei LiteOS V100R001C00
 106:d:/LiteOS_Lab/iot_link/os/liteos/include\los_list.h ****  */
 107:d:/LiteOS_Lab/iot_link/os/liteos/include\los_list.h **** #define LOS_DL_LIST_FIRST(pstObject) ((pstObject)->pstNext)
 108:d:/LiteOS_Lab/iot_link/os/liteos/include\los_list.h **** 
 109:d:/LiteOS_Lab/iot_link/os/liteos/include\los_list.h **** /**
 110:d:/LiteOS_Lab/iot_link/os/liteos/include\los_list.h ****  *@ingroup los_list
 111:d:/LiteOS_Lab/iot_link/os/liteos/include\los_list.h ****  *@brief Insert a new node to a doubly linked list.
 112:d:/LiteOS_Lab/iot_link/os/liteos/include\los_list.h ****  *
 113:d:/LiteOS_Lab/iot_link/os/liteos/include\los_list.h ****  *@par Description:
 114:d:/LiteOS_Lab/iot_link/os/liteos/include\los_list.h ****  *This API is used to insert a new node to a doubly linked list.
 115:d:/LiteOS_Lab/iot_link/os/liteos/include\los_list.h ****  *@attention
 116:d:/LiteOS_Lab/iot_link/os/liteos/include\los_list.h ****  *<ul>
 117:d:/LiteOS_Lab/iot_link/os/liteos/include\los_list.h ****  *<li>The parameters passed in should be ensured to be legal pointers.</li>
 118:d:/LiteOS_Lab/iot_link/os/liteos/include\los_list.h ****  *</ul>
 119:d:/LiteOS_Lab/iot_link/os/liteos/include\los_list.h ****  *
 120:d:/LiteOS_Lab/iot_link/os/liteos/include\los_list.h ****  *@param pstList    [IN]   Doubly linked list where the new node is inserted.
 121:d:/LiteOS_Lab/iot_link/os/liteos/include\los_list.h ****  *@param pstNode    [IN]   New node to be inserted.
 122:d:/LiteOS_Lab/iot_link/os/liteos/include\los_list.h ****  *
 123:d:/LiteOS_Lab/iot_link/os/liteos/include\los_list.h ****  *@retval None
 124:d:/LiteOS_Lab/iot_link/os/liteos/include\los_list.h ****  *@par Dependency:
 125:d:/LiteOS_Lab/iot_link/os/liteos/include\los_list.h ****  *<ul><li>los_list.h: the header file that contains the API declaration.</li></ul>
 126:d:/LiteOS_Lab/iot_link/os/liteos/include\los_list.h ****  *@see LOS_ListDelete
 127:d:/LiteOS_Lab/iot_link/os/liteos/include\los_list.h ****  *@since Huawei LiteOS V100R001C00
 128:d:/LiteOS_Lab/iot_link/os/liteos/include\los_list.h ****  */
 129:d:/LiteOS_Lab/iot_link/os/liteos/include\los_list.h **** LITE_OS_SEC_ALW_INLINE STATIC_INLINE VOID LOS_ListAdd(LOS_DL_LIST *pstList, LOS_DL_LIST *pstNode)
 130:d:/LiteOS_Lab/iot_link/os/liteos/include\los_list.h **** {
  78              		.loc 1 130 1
  79              		.cfi_startproc
  80              		@ args = 0, pretend = 0, frame = 8
  81              		@ frame_needed = 1, uses_anonymous_args = 0
  82              		@ link register save eliminated.
  83 0000 80B4     		push	{r7}
  84              	.LCFI6:
  85              		.cfi_def_cfa_offset 4
  86              		.cfi_offset 7, -4
  87 0002 83B0     		sub	sp, sp, #12
  88              	.LCFI7:
  89              		.cfi_def_cfa_offset 16
  90 0004 00AF     		add	r7, sp, #0
  91              	.LCFI8:
  92              		.cfi_def_cfa_register 7
  93 0006 7860     		str	r0, [r7, #4]
  94 0008 3960     		str	r1, [r7]
 131:d:/LiteOS_Lab/iot_link/os/liteos/include\los_list.h ****     pstNode->pstNext = pstList->pstNext;
  95              		.loc 1 131 31
  96 000a 7B68     		ldr	r3, [r7, #4]
  97 000c 5A68     		ldr	r2, [r3, #4]
  98              		.loc 1 131 22
  99 000e 3B68     		ldr	r3, [r7]
 100 0010 5A60     		str	r2, [r3, #4]
ARM GAS  C:\Users\ADMINI~1\AppData\Local\Temp\ccpUKxjn.s 			page 5


 132:d:/LiteOS_Lab/iot_link/os/liteos/include\los_list.h ****     pstNode->pstPrev = pstList;
 101              		.loc 1 132 22
 102 0012 3B68     		ldr	r3, [r7]
 103 0014 7A68     		ldr	r2, [r7, #4]
 104 0016 1A60     		str	r2, [r3]
 133:d:/LiteOS_Lab/iot_link/os/liteos/include\los_list.h ****     pstList->pstNext->pstPrev = pstNode;
 105              		.loc 1 133 12
 106 0018 7B68     		ldr	r3, [r7, #4]
 107 001a 5B68     		ldr	r3, [r3, #4]
 108              		.loc 1 133 31
 109 001c 3A68     		ldr	r2, [r7]
 110 001e 1A60     		str	r2, [r3]
 134:d:/LiteOS_Lab/iot_link/os/liteos/include\los_list.h ****     pstList->pstNext = pstNode;
 111              		.loc 1 134 22
 112 0020 7B68     		ldr	r3, [r7, #4]
 113 0022 3A68     		ldr	r2, [r7]
 114 0024 5A60     		str	r2, [r3, #4]
 135:d:/LiteOS_Lab/iot_link/os/liteos/include\los_list.h **** }
 115              		.loc 1 135 1
 116 0026 00BF     		nop
 117 0028 0C37     		adds	r7, r7, #12
 118              	.LCFI9:
 119              		.cfi_def_cfa_offset 4
 120 002a BD46     		mov	sp, r7
 121              	.LCFI10:
 122              		.cfi_def_cfa_register 13
 123              		@ sp needed
 124 002c 5DF8047B 		ldr	r7, [sp], #4
 125              	.LCFI11:
 126              		.cfi_restore 7
 127              		.cfi_def_cfa_offset 0
 128 0030 7047     		bx	lr
 129              		.cfi_endproc
 130              	.LFE124:
 132              		.section	.text.LOS_ListTailInsert,"ax",%progbits
 133              		.align	1
 134              		.syntax unified
 135              		.thumb
 136              		.thumb_func
 137              		.fpu fpv4-sp-d16
 139              	LOS_ListTailInsert:
 140              	.LFB125:
 136:d:/LiteOS_Lab/iot_link/os/liteos/include\los_list.h **** 
 137:d:/LiteOS_Lab/iot_link/os/liteos/include\los_list.h **** /**
 138:d:/LiteOS_Lab/iot_link/os/liteos/include\los_list.h ****  *@ingroup los_list
 139:d:/LiteOS_Lab/iot_link/os/liteos/include\los_list.h ****  *@brief Insert a node to the tail of a doubly linked list.
 140:d:/LiteOS_Lab/iot_link/os/liteos/include\los_list.h ****  *
 141:d:/LiteOS_Lab/iot_link/os/liteos/include\los_list.h ****  *@par Description:
 142:d:/LiteOS_Lab/iot_link/os/liteos/include\los_list.h ****  *This API is used to insert a new node to the tail of a doubly linked list.
 143:d:/LiteOS_Lab/iot_link/os/liteos/include\los_list.h ****  *@attention
 144:d:/LiteOS_Lab/iot_link/os/liteos/include\los_list.h ****  *<ul>
 145:d:/LiteOS_Lab/iot_link/os/liteos/include\los_list.h ****  *<li>The parameters passed in should be ensured to be legal pointers.</li>
 146:d:/LiteOS_Lab/iot_link/os/liteos/include\los_list.h ****  *</ul>
 147:d:/LiteOS_Lab/iot_link/os/liteos/include\los_list.h ****  *
 148:d:/LiteOS_Lab/iot_link/os/liteos/include\los_list.h ****  *@param pstList     [IN] Doubly linked list where the new node is inserted.
 149:d:/LiteOS_Lab/iot_link/os/liteos/include\los_list.h ****  *@param pstNode     [IN] New node to be inserted.
 150:d:/LiteOS_Lab/iot_link/os/liteos/include\los_list.h ****  *
ARM GAS  C:\Users\ADMINI~1\AppData\Local\Temp\ccpUKxjn.s 			page 6


 151:d:/LiteOS_Lab/iot_link/os/liteos/include\los_list.h ****  *@retval None.
 152:d:/LiteOS_Lab/iot_link/os/liteos/include\los_list.h ****  *@par Dependency:
 153:d:/LiteOS_Lab/iot_link/os/liteos/include\los_list.h ****  *<ul><li>los_list.h: the header file that contains the API declaration.</li></ul>
 154:d:/LiteOS_Lab/iot_link/os/liteos/include\los_list.h ****  *@see LOS_ListAdd | LOS_ListHeadInsert
 155:d:/LiteOS_Lab/iot_link/os/liteos/include\los_list.h ****  *@since Huawei LiteOS V100R001C00
 156:d:/LiteOS_Lab/iot_link/os/liteos/include\los_list.h ****  */
 157:d:/LiteOS_Lab/iot_link/os/liteos/include\los_list.h **** LITE_OS_SEC_ALW_INLINE STATIC_INLINE VOID LOS_ListTailInsert(LOS_DL_LIST *pstList, LOS_DL_LIST *pst
 158:d:/LiteOS_Lab/iot_link/os/liteos/include\los_list.h **** {
 141              		.loc 1 158 1
 142              		.cfi_startproc
 143              		@ args = 0, pretend = 0, frame = 8
 144              		@ frame_needed = 1, uses_anonymous_args = 0
 145 0000 80B5     		push	{r7, lr}
 146              	.LCFI12:
 147              		.cfi_def_cfa_offset 8
 148              		.cfi_offset 7, -8
 149              		.cfi_offset 14, -4
 150 0002 82B0     		sub	sp, sp, #8
 151              	.LCFI13:
 152              		.cfi_def_cfa_offset 16
 153 0004 00AF     		add	r7, sp, #0
 154              	.LCFI14:
 155              		.cfi_def_cfa_register 7
 156 0006 7860     		str	r0, [r7, #4]
 157 0008 3960     		str	r1, [r7]
 159:d:/LiteOS_Lab/iot_link/os/liteos/include\los_list.h ****     LOS_ListAdd(pstList->pstPrev, pstNode);
 158              		.loc 1 159 24
 159 000a 7B68     		ldr	r3, [r7, #4]
 160 000c 1B68     		ldr	r3, [r3]
 161              		.loc 1 159 5
 162 000e 3968     		ldr	r1, [r7]
 163 0010 1846     		mov	r0, r3
 164 0012 FFF7FEFF 		bl	LOS_ListAdd
 160:d:/LiteOS_Lab/iot_link/os/liteos/include\los_list.h **** }
 165              		.loc 1 160 1
 166 0016 00BF     		nop
 167 0018 0837     		adds	r7, r7, #8
 168              	.LCFI15:
 169              		.cfi_def_cfa_offset 8
 170 001a BD46     		mov	sp, r7
 171              	.LCFI16:
 172              		.cfi_def_cfa_register 13
 173              		@ sp needed
 174 001c 80BD     		pop	{r7, pc}
 175              		.cfi_endproc
 176              	.LFE125:
 178              		.section	.text.LOS_ListDelete,"ax",%progbits
 179              		.align	1
 180              		.syntax unified
 181              		.thumb
 182              		.thumb_func
 183              		.fpu fpv4-sp-d16
 185              	LOS_ListDelete:
 186              	.LFB126:
 161:d:/LiteOS_Lab/iot_link/os/liteos/include\los_list.h **** 
 162:d:/LiteOS_Lab/iot_link/os/liteos/include\los_list.h **** /**
 163:d:/LiteOS_Lab/iot_link/os/liteos/include\los_list.h ****  *@ingroup los_list
ARM GAS  C:\Users\ADMINI~1\AppData\Local\Temp\ccpUKxjn.s 			page 7


 164:d:/LiteOS_Lab/iot_link/os/liteos/include\los_list.h ****  *@brief Delete a specified node from a doubly linked list.
 165:d:/LiteOS_Lab/iot_link/os/liteos/include\los_list.h ****  *
 166:d:/LiteOS_Lab/iot_link/os/liteos/include\los_list.h ****  *@par Description:
 167:d:/LiteOS_Lab/iot_link/os/liteos/include\los_list.h ****  *<ul>
 168:d:/LiteOS_Lab/iot_link/os/liteos/include\los_list.h ****  *<li>This API is used to delete a specified node from a doubly linked list.</li>
 169:d:/LiteOS_Lab/iot_link/os/liteos/include\los_list.h ****  *</ul>
 170:d:/LiteOS_Lab/iot_link/os/liteos/include\los_list.h ****  *@attention
 171:d:/LiteOS_Lab/iot_link/os/liteos/include\los_list.h ****  *<ul>
 172:d:/LiteOS_Lab/iot_link/os/liteos/include\los_list.h ****  *<li>The parameter passed in should be ensured to be a legal pointer.</li>
 173:d:/LiteOS_Lab/iot_link/os/liteos/include\los_list.h ****  *</ul>
 174:d:/LiteOS_Lab/iot_link/os/liteos/include\los_list.h ****  *
 175:d:/LiteOS_Lab/iot_link/os/liteos/include\los_list.h ****  *@param pstNode    [IN] Node to be deleted.
 176:d:/LiteOS_Lab/iot_link/os/liteos/include\los_list.h ****  *
 177:d:/LiteOS_Lab/iot_link/os/liteos/include\los_list.h ****  *@retval None.
 178:d:/LiteOS_Lab/iot_link/os/liteos/include\los_list.h ****  *@par Dependency:
 179:d:/LiteOS_Lab/iot_link/os/liteos/include\los_list.h ****  *<ul><li>los_list.h: the header file that contains the API declaration.</li></ul>
 180:d:/LiteOS_Lab/iot_link/os/liteos/include\los_list.h ****  *@see LOS_ListAdd
 181:d:/LiteOS_Lab/iot_link/os/liteos/include\los_list.h ****  *@since Huawei LiteOS V100R001C00
 182:d:/LiteOS_Lab/iot_link/os/liteos/include\los_list.h ****  */
 183:d:/LiteOS_Lab/iot_link/os/liteos/include\los_list.h **** LITE_OS_SEC_ALW_INLINE STATIC_INLINE VOID LOS_ListDelete(LOS_DL_LIST *pstNode)
 184:d:/LiteOS_Lab/iot_link/os/liteos/include\los_list.h **** {
 187              		.loc 1 184 1
 188              		.cfi_startproc
 189              		@ args = 0, pretend = 0, frame = 8
 190              		@ frame_needed = 1, uses_anonymous_args = 0
 191              		@ link register save eliminated.
 192 0000 80B4     		push	{r7}
 193              	.LCFI17:
 194              		.cfi_def_cfa_offset 4
 195              		.cfi_offset 7, -4
 196 0002 83B0     		sub	sp, sp, #12
 197              	.LCFI18:
 198              		.cfi_def_cfa_offset 16
 199 0004 00AF     		add	r7, sp, #0
 200              	.LCFI19:
 201              		.cfi_def_cfa_register 7
 202 0006 7860     		str	r0, [r7, #4]
 185:d:/LiteOS_Lab/iot_link/os/liteos/include\los_list.h ****     pstNode->pstNext->pstPrev = pstNode->pstPrev;
 203              		.loc 1 185 12
 204 0008 7B68     		ldr	r3, [r7, #4]
 205 000a 5B68     		ldr	r3, [r3, #4]
 206              		.loc 1 185 40
 207 000c 7A68     		ldr	r2, [r7, #4]
 208 000e 1268     		ldr	r2, [r2]
 209              		.loc 1 185 31
 210 0010 1A60     		str	r2, [r3]
 186:d:/LiteOS_Lab/iot_link/os/liteos/include\los_list.h ****     pstNode->pstPrev->pstNext = pstNode->pstNext;
 211              		.loc 1 186 12
 212 0012 7B68     		ldr	r3, [r7, #4]
 213 0014 1B68     		ldr	r3, [r3]
 214              		.loc 1 186 40
 215 0016 7A68     		ldr	r2, [r7, #4]
 216 0018 5268     		ldr	r2, [r2, #4]
 217              		.loc 1 186 31
 218 001a 5A60     		str	r2, [r3, #4]
 187:d:/LiteOS_Lab/iot_link/os/liteos/include\los_list.h ****     pstNode->pstNext = (LOS_DL_LIST *)NULL;
 219              		.loc 1 187 22
ARM GAS  C:\Users\ADMINI~1\AppData\Local\Temp\ccpUKxjn.s 			page 8


 220 001c 7B68     		ldr	r3, [r7, #4]
 221 001e 0022     		movs	r2, #0
 222 0020 5A60     		str	r2, [r3, #4]
 188:d:/LiteOS_Lab/iot_link/os/liteos/include\los_list.h ****     pstNode->pstPrev = (LOS_DL_LIST *)NULL;
 223              		.loc 1 188 22
 224 0022 7B68     		ldr	r3, [r7, #4]
 225 0024 0022     		movs	r2, #0
 226 0026 1A60     		str	r2, [r3]
 189:d:/LiteOS_Lab/iot_link/os/liteos/include\los_list.h **** }
 227              		.loc 1 189 1
 228 0028 00BF     		nop
 229 002a 0C37     		adds	r7, r7, #12
 230              	.LCFI20:
 231              		.cfi_def_cfa_offset 4
 232 002c BD46     		mov	sp, r7
 233              	.LCFI21:
 234              		.cfi_def_cfa_register 13
 235              		@ sp needed
 236 002e 5DF8047B 		ldr	r7, [sp], #4
 237              	.LCFI22:
 238              		.cfi_restore 7
 239              		.cfi_def_cfa_offset 0
 240 0032 7047     		bx	lr
 241              		.cfi_endproc
 242              	.LFE126:
 244              		.section	.text.LOS_ListEmpty,"ax",%progbits
 245              		.align	1
 246              		.syntax unified
 247              		.thumb
 248              		.thumb_func
 249              		.fpu fpv4-sp-d16
 251              	LOS_ListEmpty:
 252              	.LFB127:
 190:d:/LiteOS_Lab/iot_link/os/liteos/include\los_list.h **** 
 191:d:/LiteOS_Lab/iot_link/os/liteos/include\los_list.h **** /**
 192:d:/LiteOS_Lab/iot_link/os/liteos/include\los_list.h ****  *@ingroup los_list
 193:d:/LiteOS_Lab/iot_link/os/liteos/include\los_list.h ****  *@brief Identify whether a specified doubly linked list is empty.
 194:d:/LiteOS_Lab/iot_link/os/liteos/include\los_list.h ****  *
 195:d:/LiteOS_Lab/iot_link/os/liteos/include\los_list.h ****  *@par Description:
 196:d:/LiteOS_Lab/iot_link/os/liteos/include\los_list.h ****  *<ul>
 197:d:/LiteOS_Lab/iot_link/os/liteos/include\los_list.h ****  *<li>This API is used to return whether a doubly linked list is empty.</li>
 198:d:/LiteOS_Lab/iot_link/os/liteos/include\los_list.h ****  *</ul>
 199:d:/LiteOS_Lab/iot_link/os/liteos/include\los_list.h ****  *@attention
 200:d:/LiteOS_Lab/iot_link/os/liteos/include\los_list.h ****  *<ul>
 201:d:/LiteOS_Lab/iot_link/os/liteos/include\los_list.h ****  *<li>The parameter passed in should be ensured to be a legal pointer.</li>
 202:d:/LiteOS_Lab/iot_link/os/liteos/include\los_list.h ****  *</ul>
 203:d:/LiteOS_Lab/iot_link/os/liteos/include\los_list.h ****  *
 204:d:/LiteOS_Lab/iot_link/os/liteos/include\los_list.h ****  *@param pstList  [IN] Doubly linked list.
 205:d:/LiteOS_Lab/iot_link/os/liteos/include\los_list.h ****  *
 206:d:/LiteOS_Lab/iot_link/os/liteos/include\los_list.h ****  *@retval TRUE The doubly linked list is empty.
 207:d:/LiteOS_Lab/iot_link/os/liteos/include\los_list.h ****  *@retval FALSE The doubly linked list is not empty.
 208:d:/LiteOS_Lab/iot_link/os/liteos/include\los_list.h ****  *@par Dependency:
 209:d:/LiteOS_Lab/iot_link/os/liteos/include\los_list.h ****  *<ul><li>los_list.h: the header file that contains the API declaration.</li></ul>
 210:d:/LiteOS_Lab/iot_link/os/liteos/include\los_list.h ****  *@see
 211:d:/LiteOS_Lab/iot_link/os/liteos/include\los_list.h ****  *@since Huawei LiteOS V100R001C00
 212:d:/LiteOS_Lab/iot_link/os/liteos/include\los_list.h ****  */
 213:d:/LiteOS_Lab/iot_link/os/liteos/include\los_list.h **** LITE_OS_SEC_ALW_INLINE STATIC_INLINE BOOL LOS_ListEmpty(LOS_DL_LIST *pstNode)
ARM GAS  C:\Users\ADMINI~1\AppData\Local\Temp\ccpUKxjn.s 			page 9


 214:d:/LiteOS_Lab/iot_link/os/liteos/include\los_list.h **** {
 253              		.loc 1 214 1
 254              		.cfi_startproc
 255              		@ args = 0, pretend = 0, frame = 8
 256              		@ frame_needed = 1, uses_anonymous_args = 0
 257              		@ link register save eliminated.
 258 0000 80B4     		push	{r7}
 259              	.LCFI23:
 260              		.cfi_def_cfa_offset 4
 261              		.cfi_offset 7, -4
 262 0002 83B0     		sub	sp, sp, #12
 263              	.LCFI24:
 264              		.cfi_def_cfa_offset 16
 265 0004 00AF     		add	r7, sp, #0
 266              	.LCFI25:
 267              		.cfi_def_cfa_register 7
 268 0006 7860     		str	r0, [r7, #4]
 215:d:/LiteOS_Lab/iot_link/os/liteos/include\los_list.h ****     return (BOOL)(pstNode->pstNext == pstNode);
 269              		.loc 1 215 26
 270 0008 7B68     		ldr	r3, [r7, #4]
 271 000a 5B68     		ldr	r3, [r3, #4]
 272              		.loc 1 215 12
 273 000c 7A68     		ldr	r2, [r7, #4]
 274 000e 9A42     		cmp	r2, r3
 275 0010 0CBF     		ite	eq
 276 0012 0123     		moveq	r3, #1
 277 0014 0023     		movne	r3, #0
 278 0016 DBB2     		uxtb	r3, r3
 216:d:/LiteOS_Lab/iot_link/os/liteos/include\los_list.h **** }
 279              		.loc 1 216 1
 280 0018 1846     		mov	r0, r3
 281 001a 0C37     		adds	r7, r7, #12
 282              	.LCFI26:
 283              		.cfi_def_cfa_offset 4
 284 001c BD46     		mov	sp, r7
 285              	.LCFI27:
 286              		.cfi_def_cfa_register 13
 287              		@ sp needed
 288 001e 5DF8047B 		ldr	r7, [sp], #4
 289              	.LCFI28:
 290              		.cfi_restore 7
 291              		.cfi_def_cfa_offset 0
 292 0022 7047     		bx	lr
 293              		.cfi_endproc
 294              	.LFE127:
 296              		.comm	g_pstAllQueue,4,4
 297              		.comm	g_stFreeQueueList,8,4
 298              		.section	.text.osQueueInit,"ax",%progbits
 299              		.align	1
 300              		.global	osQueueInit
 301              		.syntax unified
 302              		.thumb
 303              		.thumb_func
 304              		.fpu fpv4-sp-d16
 306              	osQueueInit:
 307              	.LFB287:
 308              		.file 2 "d:/LiteOS_Lab/iot_link/os/liteos/base/ipc/los_queue.c"
ARM GAS  C:\Users\ADMINI~1\AppData\Local\Temp\ccpUKxjn.s 			page 10


   1:d:/LiteOS_Lab/iot_link/os/liteos/base/ipc\los_queue.c **** /*----------------------------------------------------------------------------
   2:d:/LiteOS_Lab/iot_link/os/liteos/base/ipc\los_queue.c ****  * Copyright (c) <2013-2015>, <Huawei Technologies Co., Ltd>
   3:d:/LiteOS_Lab/iot_link/os/liteos/base/ipc\los_queue.c ****  * All rights reserved.
   4:d:/LiteOS_Lab/iot_link/os/liteos/base/ipc\los_queue.c ****  * Redistribution and use in source and binary forms, with or without modification,
   5:d:/LiteOS_Lab/iot_link/os/liteos/base/ipc\los_queue.c ****  * are permitted provided that the following conditions are met:
   6:d:/LiteOS_Lab/iot_link/os/liteos/base/ipc\los_queue.c ****  * 1. Redistributions of source code must retain the above copyright notice, this list of
   7:d:/LiteOS_Lab/iot_link/os/liteos/base/ipc\los_queue.c ****  * conditions and the following disclaimer.
   8:d:/LiteOS_Lab/iot_link/os/liteos/base/ipc\los_queue.c ****  * 2. Redistributions in binary form must reproduce the above copyright notice, this list
   9:d:/LiteOS_Lab/iot_link/os/liteos/base/ipc\los_queue.c ****  * of conditions and the following disclaimer in the documentation and/or other materials
  10:d:/LiteOS_Lab/iot_link/os/liteos/base/ipc\los_queue.c ****  * provided with the distribution.
  11:d:/LiteOS_Lab/iot_link/os/liteos/base/ipc\los_queue.c ****  * 3. Neither the name of the copyright holder nor the names of its contributors may be used
  12:d:/LiteOS_Lab/iot_link/os/liteos/base/ipc\los_queue.c ****  * to endorse or promote products derived from this software without specific prior written
  13:d:/LiteOS_Lab/iot_link/os/liteos/base/ipc\los_queue.c ****  * permission.
  14:d:/LiteOS_Lab/iot_link/os/liteos/base/ipc\los_queue.c ****  * THIS SOFTWARE IS PROVIDED BY THE COPYRIGHT HOLDERS AND CONTRIBUTORS
  15:d:/LiteOS_Lab/iot_link/os/liteos/base/ipc\los_queue.c ****  * "AS IS" AND ANY EXPRESS OR IMPLIED WARRANTIES, INCLUDING, BUT NOT LIMITED TO,
  16:d:/LiteOS_Lab/iot_link/os/liteos/base/ipc\los_queue.c ****  * THE IMPLIED WARRANTIES OF MERCHANTABILITY AND FITNESS FOR A PARTICULAR
  17:d:/LiteOS_Lab/iot_link/os/liteos/base/ipc\los_queue.c ****  * PURPOSE ARE DISCLAIMED. IN NO EVENT SHALL THE COPYRIGHT HOLDER OR
  18:d:/LiteOS_Lab/iot_link/os/liteos/base/ipc\los_queue.c ****  * CONTRIBUTORS BE LIABLE FOR ANY DIRECT, INDIRECT, INCIDENTAL, SPECIAL,
  19:d:/LiteOS_Lab/iot_link/os/liteos/base/ipc\los_queue.c ****  * EXEMPLARY, OR CONSEQUENTIAL DAMAGES (INCLUDING, BUT NOT LIMITED TO,
  20:d:/LiteOS_Lab/iot_link/os/liteos/base/ipc\los_queue.c ****  * PROCUREMENT OF SUBSTITUTE GOODS OR SERVICES; LOSS OF USE, DATA, OR PROFITS;
  21:d:/LiteOS_Lab/iot_link/os/liteos/base/ipc\los_queue.c ****  * OR BUSINESS INTERRUPTION) HOWEVER CAUSED AND ON ANY THEORY OF LIABILITY,
  22:d:/LiteOS_Lab/iot_link/os/liteos/base/ipc\los_queue.c ****  * WHETHER IN CONTRACT, STRICT LIABILITY, OR TORT (INCLUDING NEGLIGENCE OR
  23:d:/LiteOS_Lab/iot_link/os/liteos/base/ipc\los_queue.c ****  * OTHERWISE) ARISING IN ANY WAY OUT OF THE USE OF THIS SOFTWARE, EVEN IF
  24:d:/LiteOS_Lab/iot_link/os/liteos/base/ipc\los_queue.c ****  * ADVISED OF THE POSSIBILITY OF SUCH DAMAGE.
  25:d:/LiteOS_Lab/iot_link/os/liteos/base/ipc\los_queue.c ****  *---------------------------------------------------------------------------*/
  26:d:/LiteOS_Lab/iot_link/os/liteos/base/ipc\los_queue.c **** /*----------------------------------------------------------------------------
  27:d:/LiteOS_Lab/iot_link/os/liteos/base/ipc\los_queue.c ****  * Notice of Export Control Law
  28:d:/LiteOS_Lab/iot_link/os/liteos/base/ipc\los_queue.c ****  * ===============================================
  29:d:/LiteOS_Lab/iot_link/os/liteos/base/ipc\los_queue.c ****  * Huawei LiteOS may be subject to applicable export control laws and regulations, which might
  30:d:/LiteOS_Lab/iot_link/os/liteos/base/ipc\los_queue.c ****  * include those applicable to Huawei LiteOS of U.S. and the country in which you are located.
  31:d:/LiteOS_Lab/iot_link/os/liteos/base/ipc\los_queue.c ****  * Import, export and usage of Huawei LiteOS in any manner by you shall be in compliance with such
  32:d:/LiteOS_Lab/iot_link/os/liteos/base/ipc\los_queue.c ****  * applicable export control laws and regulations.
  33:d:/LiteOS_Lab/iot_link/os/liteos/base/ipc\los_queue.c ****  *---------------------------------------------------------------------------*/
  34:d:/LiteOS_Lab/iot_link/os/liteos/base/ipc\los_queue.c **** #include "string.h"
  35:d:/LiteOS_Lab/iot_link/os/liteos/base/ipc\los_queue.c **** #include "los_queue.ph"
  36:d:/LiteOS_Lab/iot_link/os/liteos/base/ipc\los_queue.c **** #include "los_membox.ph"
  37:d:/LiteOS_Lab/iot_link/os/liteos/base/ipc\los_queue.c **** #include "los_memory.ph"
  38:d:/LiteOS_Lab/iot_link/os/liteos/base/ipc\los_queue.c **** #include "los_priqueue.ph"
  39:d:/LiteOS_Lab/iot_link/os/liteos/base/ipc\los_queue.c **** #include "los_task.ph"
  40:d:/LiteOS_Lab/iot_link/os/liteos/base/ipc\los_queue.c **** #if (LOSCFG_PLATFORM_EXC == YES)
  41:d:/LiteOS_Lab/iot_link/os/liteos/base/ipc\los_queue.c **** #include "los_exc.ph"
  42:d:/LiteOS_Lab/iot_link/os/liteos/base/ipc\los_queue.c **** #endif
  43:d:/LiteOS_Lab/iot_link/os/liteos/base/ipc\los_queue.c **** 
  44:d:/LiteOS_Lab/iot_link/os/liteos/base/ipc\los_queue.c **** #ifdef __cplusplus
  45:d:/LiteOS_Lab/iot_link/os/liteos/base/ipc\los_queue.c **** #if __cplusplus
  46:d:/LiteOS_Lab/iot_link/os/liteos/base/ipc\los_queue.c **** extern "C"{
  47:d:/LiteOS_Lab/iot_link/os/liteos/base/ipc\los_queue.c **** #endif
  48:d:/LiteOS_Lab/iot_link/os/liteos/base/ipc\los_queue.c **** #endif /* __cplusplus */
  49:d:/LiteOS_Lab/iot_link/os/liteos/base/ipc\los_queue.c **** 
  50:d:/LiteOS_Lab/iot_link/os/liteos/base/ipc\los_queue.c **** #if (LOSCFG_BASE_IPC_QUEUE == YES)
  51:d:/LiteOS_Lab/iot_link/os/liteos/base/ipc\los_queue.c **** 
  52:d:/LiteOS_Lab/iot_link/os/liteos/base/ipc\los_queue.c **** /*lint -save -e64*/
  53:d:/LiteOS_Lab/iot_link/os/liteos/base/ipc\los_queue.c **** LITE_OS_SEC_BSS      QUEUE_CB_S       *g_pstAllQueue;
  54:d:/LiteOS_Lab/iot_link/os/liteos/base/ipc\los_queue.c **** LITE_OS_SEC_BSS      LOS_DL_LIST      g_stFreeQueueList;
  55:d:/LiteOS_Lab/iot_link/os/liteos/base/ipc\los_queue.c **** #if ((LOSCFG_PLATFORM_EXC == YES) && (LOSCFG_SAVE_EXC_INFO == YES))
  56:d:/LiteOS_Lab/iot_link/os/liteos/base/ipc\los_queue.c **** LITE_OS_SEC_BSS      UINT32           g_uwExcQueueMaxNum;
  57:d:/LiteOS_Lab/iot_link/os/liteos/base/ipc\los_queue.c **** #endif
ARM GAS  C:\Users\ADMINI~1\AppData\Local\Temp\ccpUKxjn.s 			page 11


  58:d:/LiteOS_Lab/iot_link/os/liteos/base/ipc\los_queue.c **** 
  59:d:/LiteOS_Lab/iot_link/os/liteos/base/ipc\los_queue.c **** /**************************************************************************
  60:d:/LiteOS_Lab/iot_link/os/liteos/base/ipc\los_queue.c ****  Function    : osQueueInit
  61:d:/LiteOS_Lab/iot_link/os/liteos/base/ipc\los_queue.c ****  Description : queue initial
  62:d:/LiteOS_Lab/iot_link/os/liteos/base/ipc\los_queue.c ****  Input       : None
  63:d:/LiteOS_Lab/iot_link/os/liteos/base/ipc\los_queue.c ****  Output      : None
  64:d:/LiteOS_Lab/iot_link/os/liteos/base/ipc\los_queue.c ****  Return      : LOS_OK on success or error code on failure
  65:d:/LiteOS_Lab/iot_link/os/liteos/base/ipc\los_queue.c **** **************************************************************************/
  66:d:/LiteOS_Lab/iot_link/os/liteos/base/ipc\los_queue.c **** LITE_OS_SEC_TEXT_INIT UINT32 osQueueInit(VOID)
  67:d:/LiteOS_Lab/iot_link/os/liteos/base/ipc\los_queue.c **** {
 309              		.loc 2 67 1
 310              		.cfi_startproc
 311              		@ args = 0, pretend = 0, frame = 8
 312              		@ frame_needed = 1, uses_anonymous_args = 0
 313 0000 80B5     		push	{r7, lr}
 314              	.LCFI29:
 315              		.cfi_def_cfa_offset 8
 316              		.cfi_offset 7, -8
 317              		.cfi_offset 14, -4
 318 0002 82B0     		sub	sp, sp, #8
 319              	.LCFI30:
 320              		.cfi_def_cfa_offset 16
 321 0004 00AF     		add	r7, sp, #0
 322              	.LCFI31:
 323              		.cfi_def_cfa_register 7
  68:d:/LiteOS_Lab/iot_link/os/liteos/base/ipc\los_queue.c ****     QUEUE_CB_S *pstQueueNode;
  69:d:/LiteOS_Lab/iot_link/os/liteos/base/ipc\los_queue.c ****     UINT16   usIndex;
  70:d:/LiteOS_Lab/iot_link/os/liteos/base/ipc\los_queue.c **** 
  71:d:/LiteOS_Lab/iot_link/os/liteos/base/ipc\los_queue.c ****     if (0 == LOSCFG_BASE_IPC_QUEUE_LIMIT)   /*lint !e506*/
  72:d:/LiteOS_Lab/iot_link/os/liteos/base/ipc\los_queue.c ****     {
  73:d:/LiteOS_Lab/iot_link/os/liteos/base/ipc\los_queue.c ****         return LOS_ERRNO_QUEUE_MAXNUM_ZERO;
  74:d:/LiteOS_Lab/iot_link/os/liteos/base/ipc\los_queue.c ****     }
  75:d:/LiteOS_Lab/iot_link/os/liteos/base/ipc\los_queue.c **** 
  76:d:/LiteOS_Lab/iot_link/os/liteos/base/ipc\los_queue.c ****     g_pstAllQueue = (QUEUE_CB_S *)LOS_MemAlloc(m_aucSysMem0, LOSCFG_BASE_IPC_QUEUE_LIMIT * sizeof(Q
 324              		.loc 2 76 35
 325 0006 1D4B     		ldr	r3, .L12
 326 0008 1B68     		ldr	r3, [r3]
 327 000a 4FF4DC71 		mov	r1, #440
 328 000e 1846     		mov	r0, r3
 329 0010 FFF7FEFF 		bl	LOS_MemAlloc
 330 0014 0346     		mov	r3, r0
 331              		.loc 2 76 19
 332 0016 1A4A     		ldr	r2, .L12+4
 333 0018 1360     		str	r3, [r2]
  77:d:/LiteOS_Lab/iot_link/os/liteos/base/ipc\los_queue.c ****     if (NULL == g_pstAllQueue)
 334              		.loc 2 77 14
 335 001a 194B     		ldr	r3, .L12+4
 336 001c 1B68     		ldr	r3, [r3]
 337              		.loc 2 77 8
 338 001e 002B     		cmp	r3, #0
 339 0020 01D1     		bne	.L8
  78:d:/LiteOS_Lab/iot_link/os/liteos/base/ipc\los_queue.c ****     {
  79:d:/LiteOS_Lab/iot_link/os/liteos/base/ipc\los_queue.c ****         return LOS_ERRNO_QUEUE_NO_MEMORY;
 340              		.loc 2 79 16
 341 0022 184B     		ldr	r3, .L12+8
 342 0024 25E0     		b	.L9
 343              	.L8:
ARM GAS  C:\Users\ADMINI~1\AppData\Local\Temp\ccpUKxjn.s 			page 12


  80:d:/LiteOS_Lab/iot_link/os/liteos/base/ipc\los_queue.c ****     }
  81:d:/LiteOS_Lab/iot_link/os/liteos/base/ipc\los_queue.c **** 
  82:d:/LiteOS_Lab/iot_link/os/liteos/base/ipc\los_queue.c ****     (VOID)memset(g_pstAllQueue, 0, LOSCFG_BASE_IPC_QUEUE_LIMIT * sizeof(QUEUE_CB_S));
 344              		.loc 2 82 11
 345 0026 164B     		ldr	r3, .L12+4
 346 0028 1B68     		ldr	r3, [r3]
 347 002a 4FF4DC72 		mov	r2, #440
 348 002e 0021     		movs	r1, #0
 349 0030 1846     		mov	r0, r3
 350 0032 FFF7FEFF 		bl	memset
  83:d:/LiteOS_Lab/iot_link/os/liteos/base/ipc\los_queue.c **** 
  84:d:/LiteOS_Lab/iot_link/os/liteos/base/ipc\los_queue.c ****     LOS_ListInit(&g_stFreeQueueList);
 351              		.loc 2 84 5
 352 0036 1448     		ldr	r0, .L12+12
 353 0038 FFF7FEFF 		bl	LOS_ListInit
  85:d:/LiteOS_Lab/iot_link/os/liteos/base/ipc\los_queue.c ****     for (usIndex = 0; usIndex < LOSCFG_BASE_IPC_QUEUE_LIMIT; usIndex++)
 354              		.loc 2 85 18
 355 003c 0023     		movs	r3, #0
 356 003e FB80     		strh	r3, [r7, #6]	@ movhi
 357              		.loc 2 85 5
 358 0040 13E0     		b	.L10
 359              	.L11:
  86:d:/LiteOS_Lab/iot_link/os/liteos/base/ipc\los_queue.c ****     {
  87:d:/LiteOS_Lab/iot_link/os/liteos/base/ipc\los_queue.c ****         pstQueueNode = ((QUEUE_CB_S *)g_pstAllQueue) + usIndex;
 360              		.loc 2 87 54 discriminator 3
 361 0042 0F4B     		ldr	r3, .L12+4
 362 0044 1A68     		ldr	r2, [r3]
 363 0046 FB88     		ldrh	r3, [r7, #6]
 364 0048 2C21     		movs	r1, #44
 365 004a 01FB03F3 		mul	r3, r1, r3
 366              		.loc 2 87 22 discriminator 3
 367 004e 1344     		add	r3, r3, r2
 368 0050 3B60     		str	r3, [r7]
  88:d:/LiteOS_Lab/iot_link/os/liteos/base/ipc\los_queue.c ****         pstQueueNode->usQueueID = usIndex;
 369              		.loc 2 88 33 discriminator 3
 370 0052 3B68     		ldr	r3, [r7]
 371 0054 FA88     		ldrh	r2, [r7, #6]	@ movhi
 372 0056 5A81     		strh	r2, [r3, #10]	@ movhi
  89:d:/LiteOS_Lab/iot_link/os/liteos/base/ipc\los_queue.c ****         LOS_ListTailInsert(&g_stFreeQueueList, &pstQueueNode->stReadWriteList[OS_QUEUE_WRITE]);
 373              		.loc 2 89 9 discriminator 3
 374 0058 3B68     		ldr	r3, [r7]
 375 005a 1C33     		adds	r3, r3, #28
 376 005c 1946     		mov	r1, r3
 377 005e 0A48     		ldr	r0, .L12+12
 378 0060 FFF7FEFF 		bl	LOS_ListTailInsert
  85:d:/LiteOS_Lab/iot_link/os/liteos/base/ipc\los_queue.c ****     {
 379              		.loc 2 85 69 discriminator 3
 380 0064 FB88     		ldrh	r3, [r7, #6]
 381 0066 0133     		adds	r3, r3, #1
 382 0068 FB80     		strh	r3, [r7, #6]	@ movhi
 383              	.L10:
  85:d:/LiteOS_Lab/iot_link/os/liteos/base/ipc\los_queue.c ****     {
 384              		.loc 2 85 5 discriminator 1
 385 006a FB88     		ldrh	r3, [r7, #6]
 386 006c 092B     		cmp	r3, #9
 387 006e E8D9     		bls	.L11
  90:d:/LiteOS_Lab/iot_link/os/liteos/base/ipc\los_queue.c ****     }
ARM GAS  C:\Users\ADMINI~1\AppData\Local\Temp\ccpUKxjn.s 			page 13


  91:d:/LiteOS_Lab/iot_link/os/liteos/base/ipc\los_queue.c **** 
  92:d:/LiteOS_Lab/iot_link/os/liteos/base/ipc\los_queue.c **** #if ((LOSCFG_PLATFORM_EXC == YES) && (LOSCFG_SAVE_EXC_INFO == YES))
  93:d:/LiteOS_Lab/iot_link/os/liteos/base/ipc\los_queue.c ****     g_uwExcQueueMaxNum = LOSCFG_BASE_IPC_QUEUE_LIMIT;
  94:d:/LiteOS_Lab/iot_link/os/liteos/base/ipc\los_queue.c ****     osExcRegister(OS_EXC_TYPE_QUE, (EXC_INFO_SAVE_CALLBACK)LOS_QueueInfoGet, &g_uwExcQueueMaxNum);
  95:d:/LiteOS_Lab/iot_link/os/liteos/base/ipc\los_queue.c **** #endif
  96:d:/LiteOS_Lab/iot_link/os/liteos/base/ipc\los_queue.c **** 
  97:d:/LiteOS_Lab/iot_link/os/liteos/base/ipc\los_queue.c ****     return LOS_OK;
 388              		.loc 2 97 12
 389 0070 0023     		movs	r3, #0
 390              	.L9:
  98:d:/LiteOS_Lab/iot_link/os/liteos/base/ipc\los_queue.c **** }
 391              		.loc 2 98 1
 392 0072 1846     		mov	r0, r3
 393 0074 0837     		adds	r7, r7, #8
 394              	.LCFI32:
 395              		.cfi_def_cfa_offset 8
 396 0076 BD46     		mov	sp, r7
 397              	.LCFI33:
 398              		.cfi_def_cfa_register 13
 399              		@ sp needed
 400 0078 80BD     		pop	{r7, pc}
 401              	.L13:
 402 007a 00BF     		.align	2
 403              	.L12:
 404 007c 00000000 		.word	m_aucSysMem0
 405 0080 00000000 		.word	g_pstAllQueue
 406 0084 01060002 		.word	33555969
 407 0088 00000000 		.word	g_stFreeQueueList
 408              		.cfi_endproc
 409              	.LFE287:
 411              		.section	.text.LOS_QueueCreate,"ax",%progbits
 412              		.align	1
 413              		.global	LOS_QueueCreate
 414              		.syntax unified
 415              		.thumb
 416              		.thumb_func
 417              		.fpu fpv4-sp-d16
 419              	LOS_QueueCreate:
 420              	.LFB288:
  99:d:/LiteOS_Lab/iot_link/os/liteos/base/ipc\los_queue.c **** 
 100:d:/LiteOS_Lab/iot_link/os/liteos/base/ipc\los_queue.c **** /*****************************************************************************
 101:d:/LiteOS_Lab/iot_link/os/liteos/base/ipc\los_queue.c ****  Function    : LOS_QueueCreate
 102:d:/LiteOS_Lab/iot_link/os/liteos/base/ipc\los_queue.c ****  Description : Create a queue
 103:d:/LiteOS_Lab/iot_link/os/liteos/base/ipc\los_queue.c ****  Input       : pcQueueName  --- Queue name, less than 4 characters
 104:d:/LiteOS_Lab/iot_link/os/liteos/base/ipc\los_queue.c ****                usLen        --- Queue lenth
 105:d:/LiteOS_Lab/iot_link/os/liteos/base/ipc\los_queue.c ****                uwFlags      --- Queue type, FIFO or PRIO
 106:d:/LiteOS_Lab/iot_link/os/liteos/base/ipc\los_queue.c ****                usMaxMsgSize --- Maximum message size in byte
 107:d:/LiteOS_Lab/iot_link/os/liteos/base/ipc\los_queue.c ****  Output      : puwQueueID   --- Queue ID
 108:d:/LiteOS_Lab/iot_link/os/liteos/base/ipc\los_queue.c ****  Return      : LOS_OK on success or error code on failure
 109:d:/LiteOS_Lab/iot_link/os/liteos/base/ipc\los_queue.c ****  *****************************************************************************/
 110:d:/LiteOS_Lab/iot_link/os/liteos/base/ipc\los_queue.c **** LITE_OS_SEC_TEXT_INIT UINT32 LOS_QueueCreate(CHAR *pcQueueName,
 111:d:/LiteOS_Lab/iot_link/os/liteos/base/ipc\los_queue.c ****                                           UINT16 usLen,
 112:d:/LiteOS_Lab/iot_link/os/liteos/base/ipc\los_queue.c ****                                           UINT32 *puwQueueID,
 113:d:/LiteOS_Lab/iot_link/os/liteos/base/ipc\los_queue.c ****                                           UINT32 uwFlags,
 114:d:/LiteOS_Lab/iot_link/os/liteos/base/ipc\los_queue.c ****                                           UINT16 usMaxMsgSize )
 115:d:/LiteOS_Lab/iot_link/os/liteos/base/ipc\los_queue.c **** {
 421              		.loc 2 115 1
ARM GAS  C:\Users\ADMINI~1\AppData\Local\Temp\ccpUKxjn.s 			page 14


 422              		.cfi_startproc
 423              		@ args = 4, pretend = 0, frame = 40
 424              		@ frame_needed = 1, uses_anonymous_args = 0
 425 0000 80B5     		push	{r7, lr}
 426              	.LCFI34:
 427              		.cfi_def_cfa_offset 8
 428              		.cfi_offset 7, -8
 429              		.cfi_offset 14, -4
 430 0002 8AB0     		sub	sp, sp, #40
 431              	.LCFI35:
 432              		.cfi_def_cfa_offset 48
 433 0004 00AF     		add	r7, sp, #0
 434              	.LCFI36:
 435              		.cfi_def_cfa_register 7
 436 0006 F860     		str	r0, [r7, #12]
 437 0008 7A60     		str	r2, [r7, #4]
 438 000a 3B60     		str	r3, [r7]
 439 000c 0B46     		mov	r3, r1	@ movhi
 440 000e 7B81     		strh	r3, [r7, #10]	@ movhi
 116:d:/LiteOS_Lab/iot_link/os/liteos/base/ipc\los_queue.c ****     QUEUE_CB_S      *pstQueueCB;
 117:d:/LiteOS_Lab/iot_link/os/liteos/base/ipc\los_queue.c ****     UINTPTR         uvIntSave;
 118:d:/LiteOS_Lab/iot_link/os/liteos/base/ipc\los_queue.c ****     LOS_DL_LIST     *pstUnusedQueue;
 119:d:/LiteOS_Lab/iot_link/os/liteos/base/ipc\los_queue.c ****     UINT8           *pucQueue;
 120:d:/LiteOS_Lab/iot_link/os/liteos/base/ipc\los_queue.c ****     UINT16          usMsgSize = usMaxMsgSize + sizeof(UINT32);
 441              		.loc 2 120 21
 442 0010 3B8E     		ldrh	r3, [r7, #48]	@ movhi
 443 0012 0433     		adds	r3, r3, #4
 444 0014 FB84     		strh	r3, [r7, #38]	@ movhi
 121:d:/LiteOS_Lab/iot_link/os/liteos/base/ipc\los_queue.c **** 
 122:d:/LiteOS_Lab/iot_link/os/liteos/base/ipc\los_queue.c ****     (VOID)pcQueueName;
 123:d:/LiteOS_Lab/iot_link/os/liteos/base/ipc\los_queue.c ****     (VOID)uwFlags;
 124:d:/LiteOS_Lab/iot_link/os/liteos/base/ipc\los_queue.c **** 
 125:d:/LiteOS_Lab/iot_link/os/liteos/base/ipc\los_queue.c ****     if (NULL == puwQueueID)
 445              		.loc 2 125 8
 446 0016 7B68     		ldr	r3, [r7, #4]
 447 0018 002B     		cmp	r3, #0
 448 001a 01D1     		bne	.L15
 126:d:/LiteOS_Lab/iot_link/os/liteos/base/ipc\los_queue.c ****     {
 127:d:/LiteOS_Lab/iot_link/os/liteos/base/ipc\los_queue.c ****         return LOS_ERRNO_QUEUE_CREAT_PTR_NULL;
 449              		.loc 2 127 16
 450 001c 384B     		ldr	r3, .L22
 451 001e 6AE0     		b	.L16
 452              	.L15:
 128:d:/LiteOS_Lab/iot_link/os/liteos/base/ipc\los_queue.c ****     }
 129:d:/LiteOS_Lab/iot_link/os/liteos/base/ipc\los_queue.c **** 
 130:d:/LiteOS_Lab/iot_link/os/liteos/base/ipc\los_queue.c ****     if(usMaxMsgSize > OS_NULL_SHORT -4)
 453              		.loc 2 130 7
 454 0020 3B8E     		ldrh	r3, [r7, #48]
 455 0022 4FF6FB72 		movw	r2, #65531
 456 0026 9342     		cmp	r3, r2
 457 0028 01D9     		bls	.L17
 131:d:/LiteOS_Lab/iot_link/os/liteos/base/ipc\los_queue.c ****     {
 132:d:/LiteOS_Lab/iot_link/os/liteos/base/ipc\los_queue.c ****         return LOS_ERRNO_QUEUE_SIZE_TOO_BIG;
 458              		.loc 2 132 16
 459 002a 364B     		ldr	r3, .L22+4
 460 002c 63E0     		b	.L16
 461              	.L17:
ARM GAS  C:\Users\ADMINI~1\AppData\Local\Temp\ccpUKxjn.s 			page 15


 133:d:/LiteOS_Lab/iot_link/os/liteos/base/ipc\los_queue.c ****     }
 134:d:/LiteOS_Lab/iot_link/os/liteos/base/ipc\los_queue.c **** 
 135:d:/LiteOS_Lab/iot_link/os/liteos/base/ipc\los_queue.c ****     if ((0 == usLen) || (0 == usMaxMsgSize))
 462              		.loc 2 135 8
 463 002e 7B89     		ldrh	r3, [r7, #10]
 464 0030 002B     		cmp	r3, #0
 465 0032 02D0     		beq	.L18
 466              		.loc 2 135 22 discriminator 1
 467 0034 3B8E     		ldrh	r3, [r7, #48]
 468 0036 002B     		cmp	r3, #0
 469 0038 01D1     		bne	.L19
 470              	.L18:
 136:d:/LiteOS_Lab/iot_link/os/liteos/base/ipc\los_queue.c ****     {
 137:d:/LiteOS_Lab/iot_link/os/liteos/base/ipc\los_queue.c ****         return LOS_ERRNO_QUEUE_PARA_ISZERO;
 471              		.loc 2 137 16
 472 003a 334B     		ldr	r3, .L22+8
 473 003c 5BE0     		b	.L16
 474              	.L19:
 138:d:/LiteOS_Lab/iot_link/os/liteos/base/ipc\los_queue.c ****     }
 139:d:/LiteOS_Lab/iot_link/os/liteos/base/ipc\los_queue.c **** 
 140:d:/LiteOS_Lab/iot_link/os/liteos/base/ipc\los_queue.c ****     /* Memory allocation is time-consuming, to shorten the time of disable interrupt,
 141:d:/LiteOS_Lab/iot_link/os/liteos/base/ipc\los_queue.c ****        move the memory allocation to here. */
 142:d:/LiteOS_Lab/iot_link/os/liteos/base/ipc\los_queue.c ****     pucQueue = (UINT8 *)LOS_MemAlloc(m_aucSysMem0, usLen * usMsgSize);
 475              		.loc 2 142 25
 476 003e 334B     		ldr	r3, .L22+12
 477 0040 1868     		ldr	r0, [r3]
 478              		.loc 2 142 58
 479 0042 7B89     		ldrh	r3, [r7, #10]
 480 0044 FA8C     		ldrh	r2, [r7, #38]
 481 0046 02FB03F3 		mul	r3, r2, r3
 482              		.loc 2 142 25
 483 004a 1946     		mov	r1, r3
 484 004c FFF7FEFF 		bl	LOS_MemAlloc
 485 0050 3862     		str	r0, [r7, #32]
 143:d:/LiteOS_Lab/iot_link/os/liteos/base/ipc\los_queue.c ****     if (NULL == pucQueue)
 486              		.loc 2 143 8
 487 0052 3B6A     		ldr	r3, [r7, #32]
 488 0054 002B     		cmp	r3, #0
 489 0056 01D1     		bne	.L20
 144:d:/LiteOS_Lab/iot_link/os/liteos/base/ipc\los_queue.c ****     {
 145:d:/LiteOS_Lab/iot_link/os/liteos/base/ipc\los_queue.c ****         return LOS_ERRNO_QUEUE_CREATE_NO_MEMORY;
 490              		.loc 2 145 16
 491 0058 2D4B     		ldr	r3, .L22+16
 492 005a 4CE0     		b	.L16
 493              	.L20:
 146:d:/LiteOS_Lab/iot_link/os/liteos/base/ipc\los_queue.c ****     }
 147:d:/LiteOS_Lab/iot_link/os/liteos/base/ipc\los_queue.c **** 
 148:d:/LiteOS_Lab/iot_link/os/liteos/base/ipc\los_queue.c ****     uvIntSave = LOS_IntLock();
 494              		.loc 2 148 17
 495 005c FFF7FEFF 		bl	LOS_IntLock
 496 0060 F861     		str	r0, [r7, #28]
 149:d:/LiteOS_Lab/iot_link/os/liteos/base/ipc\los_queue.c ****     if (LOS_ListEmpty(&g_stFreeQueueList))
 497              		.loc 2 149 9
 498 0062 2C48     		ldr	r0, .L22+20
 499 0064 FFF7FEFF 		bl	LOS_ListEmpty
 500 0068 0346     		mov	r3, r0
 501              		.loc 2 149 8
ARM GAS  C:\Users\ADMINI~1\AppData\Local\Temp\ccpUKxjn.s 			page 16


 502 006a 002B     		cmp	r3, #0
 503 006c 0AD0     		beq	.L21
 150:d:/LiteOS_Lab/iot_link/os/liteos/base/ipc\los_queue.c ****     {
 151:d:/LiteOS_Lab/iot_link/os/liteos/base/ipc\los_queue.c ****         LOS_IntRestore(uvIntSave);
 504              		.loc 2 151 9
 505 006e F869     		ldr	r0, [r7, #28]
 506 0070 FFF7FEFF 		bl	LOS_IntRestore
 152:d:/LiteOS_Lab/iot_link/os/liteos/base/ipc\los_queue.c ****         (VOID)LOS_MemFree(m_aucSysMem0, pucQueue);
 507              		.loc 2 152 15
 508 0074 254B     		ldr	r3, .L22+12
 509 0076 1B68     		ldr	r3, [r3]
 510 0078 396A     		ldr	r1, [r7, #32]
 511 007a 1846     		mov	r0, r3
 512 007c FFF7FEFF 		bl	LOS_MemFree
 153:d:/LiteOS_Lab/iot_link/os/liteos/base/ipc\los_queue.c ****         return LOS_ERRNO_QUEUE_CB_UNAVAILABLE;
 513              		.loc 2 153 16
 514 0080 254B     		ldr	r3, .L22+24
 515 0082 38E0     		b	.L16
 516              	.L21:
 154:d:/LiteOS_Lab/iot_link/os/liteos/base/ipc\los_queue.c ****     }
 155:d:/LiteOS_Lab/iot_link/os/liteos/base/ipc\los_queue.c **** 
 156:d:/LiteOS_Lab/iot_link/os/liteos/base/ipc\los_queue.c ****     pstUnusedQueue = LOS_DL_LIST_FIRST(&(g_stFreeQueueList));
 517              		.loc 2 156 20
 518 0084 234B     		ldr	r3, .L22+20
 519 0086 5B68     		ldr	r3, [r3, #4]
 520 0088 BB61     		str	r3, [r7, #24]
 157:d:/LiteOS_Lab/iot_link/os/liteos/base/ipc\los_queue.c ****     LOS_ListDelete(pstUnusedQueue);
 521              		.loc 2 157 5
 522 008a B869     		ldr	r0, [r7, #24]
 523 008c FFF7FEFF 		bl	LOS_ListDelete
 158:d:/LiteOS_Lab/iot_link/os/liteos/base/ipc\los_queue.c ****     pstQueueCB = (GET_QUEUE_LIST(pstUnusedQueue));
 524              		.loc 2 158 16
 525 0090 BB69     		ldr	r3, [r7, #24]
 526 0092 1C3B     		subs	r3, r3, #28
 527 0094 7B61     		str	r3, [r7, #20]
 159:d:/LiteOS_Lab/iot_link/os/liteos/base/ipc\los_queue.c ****     pstQueueCB->usQueueLen = usLen;
 528              		.loc 2 159 28
 529 0096 7B69     		ldr	r3, [r7, #20]
 530 0098 7A89     		ldrh	r2, [r7, #10]	@ movhi
 531 009a DA80     		strh	r2, [r3, #6]	@ movhi
 160:d:/LiteOS_Lab/iot_link/os/liteos/base/ipc\los_queue.c ****     pstQueueCB->usQueueSize = usMsgSize;
 532              		.loc 2 160 29
 533 009c 7B69     		ldr	r3, [r7, #20]
 534 009e FA8C     		ldrh	r2, [r7, #38]	@ movhi
 535 00a0 1A81     		strh	r2, [r3, #8]	@ movhi
 161:d:/LiteOS_Lab/iot_link/os/liteos/base/ipc\los_queue.c ****     pstQueueCB->pucQueue = pucQueue;
 536              		.loc 2 161 26
 537 00a2 7B69     		ldr	r3, [r7, #20]
 538 00a4 3A6A     		ldr	r2, [r7, #32]
 539 00a6 1A60     		str	r2, [r3]
 162:d:/LiteOS_Lab/iot_link/os/liteos/base/ipc\los_queue.c ****     pstQueueCB->usQueueState = OS_QUEUE_INUSED;
 540              		.loc 2 162 30
 541 00a8 7B69     		ldr	r3, [r7, #20]
 542 00aa 0122     		movs	r2, #1
 543 00ac 9A80     		strh	r2, [r3, #4]	@ movhi
 163:d:/LiteOS_Lab/iot_link/os/liteos/base/ipc\los_queue.c ****     pstQueueCB->usReadWriteableCnt[OS_QUEUE_READ]  = 0;
 544              		.loc 2 163 52
ARM GAS  C:\Users\ADMINI~1\AppData\Local\Temp\ccpUKxjn.s 			page 17


 545 00ae 7B69     		ldr	r3, [r7, #20]
 546 00b0 0022     		movs	r2, #0
 547 00b2 1A82     		strh	r2, [r3, #16]	@ movhi
 164:d:/LiteOS_Lab/iot_link/os/liteos/base/ipc\los_queue.c ****     pstQueueCB->usReadWriteableCnt[OS_QUEUE_WRITE] = usLen;
 548              		.loc 2 164 52
 549 00b4 7B69     		ldr	r3, [r7, #20]
 550 00b6 7A89     		ldrh	r2, [r7, #10]	@ movhi
 551 00b8 5A82     		strh	r2, [r3, #18]	@ movhi
 165:d:/LiteOS_Lab/iot_link/os/liteos/base/ipc\los_queue.c ****     pstQueueCB->usQueueHead = 0;
 552              		.loc 2 165 29
 553 00ba 7B69     		ldr	r3, [r7, #20]
 554 00bc 0022     		movs	r2, #0
 555 00be 9A81     		strh	r2, [r3, #12]	@ movhi
 166:d:/LiteOS_Lab/iot_link/os/liteos/base/ipc\los_queue.c ****     pstQueueCB->usQueueTail = 0;
 556              		.loc 2 166 29
 557 00c0 7B69     		ldr	r3, [r7, #20]
 558 00c2 0022     		movs	r2, #0
 559 00c4 DA81     		strh	r2, [r3, #14]	@ movhi
 167:d:/LiteOS_Lab/iot_link/os/liteos/base/ipc\los_queue.c ****     LOS_ListInit(&pstQueueCB->stReadWriteList[OS_QUEUE_READ]);
 560              		.loc 2 167 5
 561 00c6 7B69     		ldr	r3, [r7, #20]
 562 00c8 1433     		adds	r3, r3, #20
 563 00ca 1846     		mov	r0, r3
 564 00cc FFF7FEFF 		bl	LOS_ListInit
 168:d:/LiteOS_Lab/iot_link/os/liteos/base/ipc\los_queue.c ****     LOS_ListInit(&pstQueueCB->stReadWriteList[OS_QUEUE_WRITE]);
 565              		.loc 2 168 5
 566 00d0 7B69     		ldr	r3, [r7, #20]
 567 00d2 1C33     		adds	r3, r3, #28
 568 00d4 1846     		mov	r0, r3
 569 00d6 FFF7FEFF 		bl	LOS_ListInit
 169:d:/LiteOS_Lab/iot_link/os/liteos/base/ipc\los_queue.c ****     LOS_ListInit(&pstQueueCB->stMemList);
 570              		.loc 2 169 5
 571 00da 7B69     		ldr	r3, [r7, #20]
 572 00dc 2433     		adds	r3, r3, #36
 573 00de 1846     		mov	r0, r3
 574 00e0 FFF7FEFF 		bl	LOS_ListInit
 170:d:/LiteOS_Lab/iot_link/os/liteos/base/ipc\los_queue.c ****     LOS_IntRestore(uvIntSave);
 575              		.loc 2 170 5
 576 00e4 F869     		ldr	r0, [r7, #28]
 577 00e6 FFF7FEFF 		bl	LOS_IntRestore
 171:d:/LiteOS_Lab/iot_link/os/liteos/base/ipc\los_queue.c **** 
 172:d:/LiteOS_Lab/iot_link/os/liteos/base/ipc\los_queue.c ****     *puwQueueID = pstQueueCB->usQueueID;
 578              		.loc 2 172 29
 579 00ea 7B69     		ldr	r3, [r7, #20]
 580 00ec 5B89     		ldrh	r3, [r3, #10]
 581 00ee 1A46     		mov	r2, r3
 582              		.loc 2 172 17
 583 00f0 7B68     		ldr	r3, [r7, #4]
 584 00f2 1A60     		str	r2, [r3]
 173:d:/LiteOS_Lab/iot_link/os/liteos/base/ipc\los_queue.c **** 
 174:d:/LiteOS_Lab/iot_link/os/liteos/base/ipc\los_queue.c ****     return LOS_OK;
 585              		.loc 2 174 12
 586 00f4 0023     		movs	r3, #0
 587              	.L16:
 175:d:/LiteOS_Lab/iot_link/os/liteos/base/ipc\los_queue.c **** }
 588              		.loc 2 175 1
 589 00f6 1846     		mov	r0, r3
ARM GAS  C:\Users\ADMINI~1\AppData\Local\Temp\ccpUKxjn.s 			page 18


 590 00f8 2837     		adds	r7, r7, #40
 591              	.LCFI37:
 592              		.cfi_def_cfa_offset 8
 593 00fa BD46     		mov	sp, r7
 594              	.LCFI38:
 595              		.cfi_def_cfa_register 13
 596              		@ sp needed
 597 00fc 80BD     		pop	{r7, pc}
 598              	.L23:
 599 00fe 00BF     		.align	2
 600              	.L22:
 601 0100 0C060002 		.word	33555980
 602 0104 03060002 		.word	33555971
 603 0108 0D060002 		.word	33555981
 604 010c 00000000 		.word	m_aucSysMem0
 605 0110 02060002 		.word	33555970
 606 0114 00000000 		.word	g_stFreeQueueList
 607 0118 04060002 		.word	33555972
 608              		.cfi_endproc
 609              	.LFE288:
 611              		.section	.text.osQueueReadParameterCheck,"ax",%progbits
 612              		.align	1
 613              		.syntax unified
 614              		.thumb
 615              		.thumb_func
 616              		.fpu fpv4-sp-d16
 618              	osQueueReadParameterCheck:
 619              	.LFB289:
 176:d:/LiteOS_Lab/iot_link/os/liteos/base/ipc\los_queue.c **** 
 177:d:/LiteOS_Lab/iot_link/os/liteos/base/ipc\los_queue.c **** LITE_OS_SEC_TEXT static INLINE UINT32 osQueueReadParameterCheck(UINT32 uwQueueID, VOID *pBufferAddr
 178:d:/LiteOS_Lab/iot_link/os/liteos/base/ipc\los_queue.c **** {
 620              		.loc 2 178 1
 621              		.cfi_startproc
 622              		@ args = 0, pretend = 0, frame = 16
 623              		@ frame_needed = 1, uses_anonymous_args = 0
 624 0000 80B5     		push	{r7, lr}
 625              	.LCFI39:
 626              		.cfi_def_cfa_offset 8
 627              		.cfi_offset 7, -8
 628              		.cfi_offset 14, -4
 629 0002 84B0     		sub	sp, sp, #16
 630              	.LCFI40:
 631              		.cfi_def_cfa_offset 24
 632 0004 00AF     		add	r7, sp, #0
 633              	.LCFI41:
 634              		.cfi_def_cfa_register 7
 635 0006 F860     		str	r0, [r7, #12]
 636 0008 B960     		str	r1, [r7, #8]
 637 000a 7A60     		str	r2, [r7, #4]
 638 000c 3B60     		str	r3, [r7]
 179:d:/LiteOS_Lab/iot_link/os/liteos/base/ipc\los_queue.c ****     if (uwQueueID >= LOSCFG_BASE_IPC_QUEUE_LIMIT)
 639              		.loc 2 179 8
 640 000e FB68     		ldr	r3, [r7, #12]
 641 0010 092B     		cmp	r3, #9
 642 0012 01D9     		bls	.L25
 180:d:/LiteOS_Lab/iot_link/os/liteos/base/ipc\los_queue.c ****     {
 181:d:/LiteOS_Lab/iot_link/os/liteos/base/ipc\los_queue.c ****         return LOS_ERRNO_QUEUE_INVALID;
ARM GAS  C:\Users\ADMINI~1\AppData\Local\Temp\ccpUKxjn.s 			page 19


 643              		.loc 2 181 16
 644 0014 0F4B     		ldr	r3, .L31
 645 0016 18E0     		b	.L26
 646              	.L25:
 182:d:/LiteOS_Lab/iot_link/os/liteos/base/ipc\los_queue.c ****     }
 183:d:/LiteOS_Lab/iot_link/os/liteos/base/ipc\los_queue.c ****     if ((NULL == pBufferAddr) || (NULL == puwBufferSize))
 647              		.loc 2 183 8
 648 0018 BB68     		ldr	r3, [r7, #8]
 649 001a 002B     		cmp	r3, #0
 650 001c 02D0     		beq	.L27
 651              		.loc 2 183 31 discriminator 1
 652 001e 7B68     		ldr	r3, [r7, #4]
 653 0020 002B     		cmp	r3, #0
 654 0022 01D1     		bne	.L28
 655              	.L27:
 184:d:/LiteOS_Lab/iot_link/os/liteos/base/ipc\los_queue.c ****     {
 185:d:/LiteOS_Lab/iot_link/os/liteos/base/ipc\los_queue.c ****         return LOS_ERRNO_QUEUE_READ_PTR_NULL;
 656              		.loc 2 185 16
 657 0024 0C4B     		ldr	r3, .L31+4
 658 0026 10E0     		b	.L26
 659              	.L28:
 186:d:/LiteOS_Lab/iot_link/os/liteos/base/ipc\los_queue.c ****     }
 187:d:/LiteOS_Lab/iot_link/os/liteos/base/ipc\los_queue.c **** 
 188:d:/LiteOS_Lab/iot_link/os/liteos/base/ipc\los_queue.c ****     if (0 == *puwBufferSize)
 660              		.loc 2 188 14
 661 0028 7B68     		ldr	r3, [r7, #4]
 662 002a 1B68     		ldr	r3, [r3]
 663              		.loc 2 188 8
 664 002c 002B     		cmp	r3, #0
 665 002e 01D1     		bne	.L29
 189:d:/LiteOS_Lab/iot_link/os/liteos/base/ipc\los_queue.c ****     {
 190:d:/LiteOS_Lab/iot_link/os/liteos/base/ipc\los_queue.c ****         return LOS_ERRNO_QUEUE_READSIZE_ISZERO;
 666              		.loc 2 190 16
 667 0030 0A4B     		ldr	r3, .L31+8
 668 0032 0AE0     		b	.L26
 669              	.L29:
 191:d:/LiteOS_Lab/iot_link/os/liteos/base/ipc\los_queue.c ****     }
 192:d:/LiteOS_Lab/iot_link/os/liteos/base/ipc\los_queue.c **** 
 193:d:/LiteOS_Lab/iot_link/os/liteos/base/ipc\los_queue.c ****     if (LOS_NO_WAIT != uwTimeOut)
 670              		.loc 2 193 8
 671 0034 3B68     		ldr	r3, [r7]
 672 0036 002B     		cmp	r3, #0
 673 0038 06D0     		beq	.L30
 194:d:/LiteOS_Lab/iot_link/os/liteos/base/ipc\los_queue.c ****     {
 195:d:/LiteOS_Lab/iot_link/os/liteos/base/ipc\los_queue.c ****         if (OS_INT_ACTIVE)
 674              		.loc 2 195 13
 675 003a FFF7FEFF 		bl	osIntNumGet
 676 003e 0346     		mov	r3, r0
 677              		.loc 2 195 12
 678 0040 002B     		cmp	r3, #0
 679 0042 01D0     		beq	.L30
 196:d:/LiteOS_Lab/iot_link/os/liteos/base/ipc\los_queue.c ****         {
 197:d:/LiteOS_Lab/iot_link/os/liteos/base/ipc\los_queue.c ****             return LOS_ERRNO_QUEUE_READ_IN_INTERRUPT;
 680              		.loc 2 197 20
 681 0044 064B     		ldr	r3, .L31+12
 682 0046 00E0     		b	.L26
 683              	.L30:
ARM GAS  C:\Users\ADMINI~1\AppData\Local\Temp\ccpUKxjn.s 			page 20


 198:d:/LiteOS_Lab/iot_link/os/liteos/base/ipc\los_queue.c ****         }
 199:d:/LiteOS_Lab/iot_link/os/liteos/base/ipc\los_queue.c ****     }
 200:d:/LiteOS_Lab/iot_link/os/liteos/base/ipc\los_queue.c ****     return LOS_OK;
 684              		.loc 2 200 12
 685 0048 0023     		movs	r3, #0
 686              	.L26:
 201:d:/LiteOS_Lab/iot_link/os/liteos/base/ipc\los_queue.c **** }
 687              		.loc 2 201 1
 688 004a 1846     		mov	r0, r3
 689 004c 1037     		adds	r7, r7, #16
 690              	.LCFI42:
 691              		.cfi_def_cfa_offset 8
 692 004e BD46     		mov	sp, r7
 693              	.LCFI43:
 694              		.cfi_def_cfa_register 13
 695              		@ sp needed
 696 0050 80BD     		pop	{r7, pc}
 697              	.L32:
 698 0052 00BF     		.align	2
 699              	.L31:
 700 0054 0E060002 		.word	33555982
 701 0058 0F060002 		.word	33555983
 702 005c 10060002 		.word	33555984
 703 0060 18060002 		.word	33555992
 704              		.cfi_endproc
 705              	.LFE289:
 707              		.section	.text.osQueueWriteParameterCheck,"ax",%progbits
 708              		.align	1
 709              		.syntax unified
 710              		.thumb
 711              		.thumb_func
 712              		.fpu fpv4-sp-d16
 714              	osQueueWriteParameterCheck:
 715              	.LFB290:
 202:d:/LiteOS_Lab/iot_link/os/liteos/base/ipc\los_queue.c **** 
 203:d:/LiteOS_Lab/iot_link/os/liteos/base/ipc\los_queue.c **** 
 204:d:/LiteOS_Lab/iot_link/os/liteos/base/ipc\los_queue.c **** LITE_OS_SEC_TEXT static INLINE UINT32 osQueueWriteParameterCheck(UINT32 uwQueueID, VOID *pBufferAdd
 205:d:/LiteOS_Lab/iot_link/os/liteos/base/ipc\los_queue.c **** {
 716              		.loc 2 205 1
 717              		.cfi_startproc
 718              		@ args = 0, pretend = 0, frame = 16
 719              		@ frame_needed = 1, uses_anonymous_args = 0
 720 0000 80B5     		push	{r7, lr}
 721              	.LCFI44:
 722              		.cfi_def_cfa_offset 8
 723              		.cfi_offset 7, -8
 724              		.cfi_offset 14, -4
 725 0002 84B0     		sub	sp, sp, #16
 726              	.LCFI45:
 727              		.cfi_def_cfa_offset 24
 728 0004 00AF     		add	r7, sp, #0
 729              	.LCFI46:
 730              		.cfi_def_cfa_register 7
 731 0006 F860     		str	r0, [r7, #12]
 732 0008 B960     		str	r1, [r7, #8]
 733 000a 7A60     		str	r2, [r7, #4]
 734 000c 3B60     		str	r3, [r7]
ARM GAS  C:\Users\ADMINI~1\AppData\Local\Temp\ccpUKxjn.s 			page 21


 206:d:/LiteOS_Lab/iot_link/os/liteos/base/ipc\los_queue.c ****     if (uwQueueID >= LOSCFG_BASE_IPC_QUEUE_LIMIT)
 735              		.loc 2 206 8
 736 000e FB68     		ldr	r3, [r7, #12]
 737 0010 092B     		cmp	r3, #9
 738 0012 01D9     		bls	.L34
 207:d:/LiteOS_Lab/iot_link/os/liteos/base/ipc\los_queue.c ****     {
 208:d:/LiteOS_Lab/iot_link/os/liteos/base/ipc\los_queue.c ****         return LOS_ERRNO_QUEUE_INVALID;
 739              		.loc 2 208 16
 740 0014 0D4B     		ldr	r3, .L39
 741 0016 15E0     		b	.L35
 742              	.L34:
 209:d:/LiteOS_Lab/iot_link/os/liteos/base/ipc\los_queue.c ****     }
 210:d:/LiteOS_Lab/iot_link/os/liteos/base/ipc\los_queue.c **** 
 211:d:/LiteOS_Lab/iot_link/os/liteos/base/ipc\los_queue.c ****     if (NULL == pBufferAddr)
 743              		.loc 2 211 8
 744 0018 BB68     		ldr	r3, [r7, #8]
 745 001a 002B     		cmp	r3, #0
 746 001c 01D1     		bne	.L36
 212:d:/LiteOS_Lab/iot_link/os/liteos/base/ipc\los_queue.c ****     {
 213:d:/LiteOS_Lab/iot_link/os/liteos/base/ipc\los_queue.c ****         return LOS_ERRNO_QUEUE_WRITE_PTR_NULL;
 747              		.loc 2 213 16
 748 001e 0C4B     		ldr	r3, .L39+4
 749 0020 10E0     		b	.L35
 750              	.L36:
 214:d:/LiteOS_Lab/iot_link/os/liteos/base/ipc\los_queue.c ****     }
 215:d:/LiteOS_Lab/iot_link/os/liteos/base/ipc\los_queue.c **** 
 216:d:/LiteOS_Lab/iot_link/os/liteos/base/ipc\los_queue.c ****     if (0 == *puwBufferSize)
 751              		.loc 2 216 14
 752 0022 7B68     		ldr	r3, [r7, #4]
 753 0024 1B68     		ldr	r3, [r3]
 754              		.loc 2 216 8
 755 0026 002B     		cmp	r3, #0
 756 0028 01D1     		bne	.L37
 217:d:/LiteOS_Lab/iot_link/os/liteos/base/ipc\los_queue.c ****     {
 218:d:/LiteOS_Lab/iot_link/os/liteos/base/ipc\los_queue.c ****         return LOS_ERRNO_QUEUE_WRITESIZE_ISZERO;
 757              		.loc 2 218 16
 758 002a 0A4B     		ldr	r3, .L39+8
 759 002c 0AE0     		b	.L35
 760              	.L37:
 219:d:/LiteOS_Lab/iot_link/os/liteos/base/ipc\los_queue.c ****     }
 220:d:/LiteOS_Lab/iot_link/os/liteos/base/ipc\los_queue.c **** 
 221:d:/LiteOS_Lab/iot_link/os/liteos/base/ipc\los_queue.c ****     if (LOS_NO_WAIT != uwTimeOut)
 761              		.loc 2 221 8
 762 002e 3B68     		ldr	r3, [r7]
 763 0030 002B     		cmp	r3, #0
 764 0032 06D0     		beq	.L38
 222:d:/LiteOS_Lab/iot_link/os/liteos/base/ipc\los_queue.c ****     {
 223:d:/LiteOS_Lab/iot_link/os/liteos/base/ipc\los_queue.c ****         if (OS_INT_ACTIVE)
 765              		.loc 2 223 13
 766 0034 FFF7FEFF 		bl	osIntNumGet
 767 0038 0346     		mov	r3, r0
 768              		.loc 2 223 12
 769 003a 002B     		cmp	r3, #0
 770 003c 01D0     		beq	.L38
 224:d:/LiteOS_Lab/iot_link/os/liteos/base/ipc\los_queue.c ****         {
 225:d:/LiteOS_Lab/iot_link/os/liteos/base/ipc\los_queue.c ****             return LOS_ERRNO_QUEUE_WRITE_IN_INTERRUPT;
 771              		.loc 2 225 20
ARM GAS  C:\Users\ADMINI~1\AppData\Local\Temp\ccpUKxjn.s 			page 22


 772 003e 064B     		ldr	r3, .L39+12
 773 0040 00E0     		b	.L35
 774              	.L38:
 226:d:/LiteOS_Lab/iot_link/os/liteos/base/ipc\los_queue.c ****         }
 227:d:/LiteOS_Lab/iot_link/os/liteos/base/ipc\los_queue.c ****     }
 228:d:/LiteOS_Lab/iot_link/os/liteos/base/ipc\los_queue.c ****     return LOS_OK;
 775              		.loc 2 228 12
 776 0042 0023     		movs	r3, #0
 777              	.L35:
 229:d:/LiteOS_Lab/iot_link/os/liteos/base/ipc\los_queue.c **** }
 778              		.loc 2 229 1
 779 0044 1846     		mov	r0, r3
 780 0046 1037     		adds	r7, r7, #16
 781              	.LCFI47:
 782              		.cfi_def_cfa_offset 8
 783 0048 BD46     		mov	sp, r7
 784              	.LCFI48:
 785              		.cfi_def_cfa_register 13
 786              		@ sp needed
 787 004a 80BD     		pop	{r7, pc}
 788              	.L40:
 789              		.align	2
 790              	.L39:
 791 004c 0E060002 		.word	33555982
 792 0050 12060002 		.word	33555986
 793 0054 13060002 		.word	33555987
 794 0058 09060002 		.word	33555977
 795              		.cfi_endproc
 796              	.LFE290:
 798              		.section	.rodata
 799              		.align	2
 800              	.LC0:
 801 0000 5B455252 		.ascii	"[ERR] \000"
 801      5D2000
 802 0007 00       		.align	2
 803              	.LC1:
 804 0008 696E7661 		.ascii	"invalid queue operate type!\000"
 804      6C696420 
 804      71756575 
 804      65206F70 
 804      65726174 
 805              		.section	.text.osQueueBufferOperate,"ax",%progbits
 806              		.align	1
 807              		.syntax unified
 808              		.thumb
 809              		.thumb_func
 810              		.fpu fpv4-sp-d16
 812              	osQueueBufferOperate:
 813              	.LFB291:
 230:d:/LiteOS_Lab/iot_link/os/liteos/base/ipc\los_queue.c **** 
 231:d:/LiteOS_Lab/iot_link/os/liteos/base/ipc\los_queue.c **** LITE_OS_SEC_TEXT static INLINE VOID osQueueBufferOperate(QUEUE_CB_S *pstQueueCB, UINT32 uwOperateTy
 232:d:/LiteOS_Lab/iot_link/os/liteos/base/ipc\los_queue.c **** {
 814              		.loc 2 232 1
 815              		.cfi_startproc
 816              		@ args = 0, pretend = 0, frame = 32
 817              		@ frame_needed = 1, uses_anonymous_args = 0
 818 0000 80B5     		push	{r7, lr}
ARM GAS  C:\Users\ADMINI~1\AppData\Local\Temp\ccpUKxjn.s 			page 23


 819              	.LCFI49:
 820              		.cfi_def_cfa_offset 8
 821              		.cfi_offset 7, -8
 822              		.cfi_offset 14, -4
 823 0002 88B0     		sub	sp, sp, #32
 824              	.LCFI50:
 825              		.cfi_def_cfa_offset 40
 826 0004 00AF     		add	r7, sp, #0
 827              	.LCFI51:
 828              		.cfi_def_cfa_register 7
 829 0006 F860     		str	r0, [r7, #12]
 830 0008 B960     		str	r1, [r7, #8]
 831 000a 7A60     		str	r2, [r7, #4]
 832 000c 3B60     		str	r3, [r7]
 233:d:/LiteOS_Lab/iot_link/os/liteos/base/ipc\los_queue.c ****     UINT8        *pucQueueNode;
 234:d:/LiteOS_Lab/iot_link/os/liteos/base/ipc\los_queue.c ****     UINT32       uwMsgDataSize = 0;
 833              		.loc 2 234 18
 834 000e 0023     		movs	r3, #0
 835 0010 7B61     		str	r3, [r7, #20]
 235:d:/LiteOS_Lab/iot_link/os/liteos/base/ipc\los_queue.c ****     UINT16      usQueuePosion = 0;
 836              		.loc 2 235 17
 837 0012 0023     		movs	r3, #0
 838 0014 FB83     		strh	r3, [r7, #30]	@ movhi
 236:d:/LiteOS_Lab/iot_link/os/liteos/base/ipc\los_queue.c **** 
 237:d:/LiteOS_Lab/iot_link/os/liteos/base/ipc\los_queue.c ****     /* get the queue position */
 238:d:/LiteOS_Lab/iot_link/os/liteos/base/ipc\los_queue.c ****     switch (OS_QUEUE_OPERATE_GET(uwOperateType))
 839              		.loc 2 238 13
 840 0016 BB68     		ldr	r3, [r7, #8]
 841 0018 03F00303 		and	r3, r3, #3
 842              		.loc 2 238 5
 843 001c 032B     		cmp	r3, #3
 844 001e 30D0     		beq	.L42
 845 0020 032B     		cmp	r3, #3
 846 0022 43D8     		bhi	.L43
 847 0024 002B     		cmp	r3, #0
 848 0026 02D0     		beq	.L44
 849 0028 012B     		cmp	r3, #1
 850 002a 15D0     		beq	.L45
 851 002c 3EE0     		b	.L43
 852              	.L44:
 239:d:/LiteOS_Lab/iot_link/os/liteos/base/ipc\los_queue.c ****     {
 240:d:/LiteOS_Lab/iot_link/os/liteos/base/ipc\los_queue.c ****         case OS_QUEUE_READ_HEAD:
 241:d:/LiteOS_Lab/iot_link/os/liteos/base/ipc\los_queue.c ****             usQueuePosion = pstQueueCB->usQueueHead;
 853              		.loc 2 241 27
 854 002e FB68     		ldr	r3, [r7, #12]
 855 0030 9B89     		ldrh	r3, [r3, #12]	@ movhi
 856 0032 FB83     		strh	r3, [r7, #30]	@ movhi
 242:d:/LiteOS_Lab/iot_link/os/liteos/base/ipc\los_queue.c ****             (pstQueueCB->usQueueHead + 1 == pstQueueCB->usQueueLen) ? (pstQueueCB->usQueueHead = 0)
 857              		.loc 2 242 24
 858 0034 FB68     		ldr	r3, [r7, #12]
 859 0036 9B89     		ldrh	r3, [r3, #12]
 860              		.loc 2 242 38
 861 0038 0133     		adds	r3, r3, #1
 862              		.loc 2 242 55
 863 003a FA68     		ldr	r2, [r7, #12]
 864 003c D288     		ldrh	r2, [r2, #6]
 865              		.loc 2 242 101
ARM GAS  C:\Users\ADMINI~1\AppData\Local\Temp\ccpUKxjn.s 			page 24


 866 003e 9342     		cmp	r3, r2
 867 0040 03D1     		bne	.L46
 868              		.loc 2 242 96 discriminator 1
 869 0042 FB68     		ldr	r3, [r7, #12]
 870 0044 0022     		movs	r2, #0
 871 0046 9A81     		strh	r2, [r3, #12]	@ movhi
 243:d:/LiteOS_Lab/iot_link/os/liteos/base/ipc\los_queue.c ****             break;
 872              		.loc 2 243 13 discriminator 1
 873 0048 37E0     		b	.L48
 874              	.L46:
 242:d:/LiteOS_Lab/iot_link/os/liteos/base/ipc\los_queue.c ****             (pstQueueCB->usQueueHead + 1 == pstQueueCB->usQueueLen) ? (pstQueueCB->usQueueHead = 0)
 875              		.loc 2 242 114 discriminator 2
 876 004a FB68     		ldr	r3, [r7, #12]
 877 004c 9B89     		ldrh	r3, [r3, #12]
 242:d:/LiteOS_Lab/iot_link/os/liteos/base/ipc\los_queue.c ****             (pstQueueCB->usQueueHead + 1 == pstQueueCB->usQueueLen) ? (pstQueueCB->usQueueHead = 0)
 878              		.loc 2 242 127 discriminator 2
 879 004e 0133     		adds	r3, r3, #1
 880 0050 9AB2     		uxth	r2, r3
 881 0052 FB68     		ldr	r3, [r7, #12]
 882 0054 9A81     		strh	r2, [r3, #12]	@ movhi
 883              		.loc 2 243 13 discriminator 2
 884 0056 30E0     		b	.L48
 885              	.L45:
 244:d:/LiteOS_Lab/iot_link/os/liteos/base/ipc\los_queue.c **** 
 245:d:/LiteOS_Lab/iot_link/os/liteos/base/ipc\los_queue.c ****         case OS_QUEUE_WRITE_HEAD:
 246:d:/LiteOS_Lab/iot_link/os/liteos/base/ipc\los_queue.c ****             (0 == pstQueueCB->usQueueHead) ? (pstQueueCB->usQueueHead = pstQueueCB->usQueueLen - 1)
 886              		.loc 2 246 29
 887 0058 FB68     		ldr	r3, [r7, #12]
 888 005a 9B89     		ldrh	r3, [r3, #12]
 889              		.loc 2 246 101
 890 005c 002B     		cmp	r3, #0
 891 005e 06D1     		bne	.L49
 892              		.loc 2 246 83 discriminator 1
 893 0060 FB68     		ldr	r3, [r7, #12]
 894 0062 DB88     		ldrh	r3, [r3, #6]
 895              		.loc 2 246 96 discriminator 1
 896 0064 013B     		subs	r3, r3, #1
 897 0066 9AB2     		uxth	r2, r3
 898              		.loc 2 246 71 discriminator 1
 899 0068 FB68     		ldr	r3, [r7, #12]
 900 006a 9A81     		strh	r2, [r3, #12]	@ movhi
 901 006c 05E0     		b	.L50
 902              	.L49:
 903              		.loc 2 246 116 discriminator 2
 904 006e FB68     		ldr	r3, [r7, #12]
 905 0070 9B89     		ldrh	r3, [r3, #12]
 906              		.loc 2 246 104 discriminator 2
 907 0072 013B     		subs	r3, r3, #1
 908 0074 9AB2     		uxth	r2, r3
 909              		.loc 2 246 101 discriminator 2
 910 0076 FB68     		ldr	r3, [r7, #12]
 911 0078 9A81     		strh	r2, [r3, #12]	@ movhi
 912              	.L50:
 247:d:/LiteOS_Lab/iot_link/os/liteos/base/ipc\los_queue.c ****             usQueuePosion = pstQueueCB->usQueueHead;
 913              		.loc 2 247 27
 914 007a FB68     		ldr	r3, [r7, #12]
 915 007c 9B89     		ldrh	r3, [r3, #12]	@ movhi
ARM GAS  C:\Users\ADMINI~1\AppData\Local\Temp\ccpUKxjn.s 			page 25


 916 007e FB83     		strh	r3, [r7, #30]	@ movhi
 248:d:/LiteOS_Lab/iot_link/os/liteos/base/ipc\los_queue.c ****             break;
 917              		.loc 2 248 13
 918 0080 1BE0     		b	.L48
 919              	.L42:
 249:d:/LiteOS_Lab/iot_link/os/liteos/base/ipc\los_queue.c **** 
 250:d:/LiteOS_Lab/iot_link/os/liteos/base/ipc\los_queue.c ****         case OS_QUEUE_WRITE_TAIL :
 251:d:/LiteOS_Lab/iot_link/os/liteos/base/ipc\los_queue.c ****             usQueuePosion = pstQueueCB->usQueueTail;
 920              		.loc 2 251 27
 921 0082 FB68     		ldr	r3, [r7, #12]
 922 0084 DB89     		ldrh	r3, [r3, #14]	@ movhi
 923 0086 FB83     		strh	r3, [r7, #30]	@ movhi
 252:d:/LiteOS_Lab/iot_link/os/liteos/base/ipc\los_queue.c ****             (pstQueueCB->usQueueTail + 1 == pstQueueCB->usQueueLen) ? (pstQueueCB->usQueueTail = 0)
 924              		.loc 2 252 24
 925 0088 FB68     		ldr	r3, [r7, #12]
 926 008a DB89     		ldrh	r3, [r3, #14]
 927              		.loc 2 252 38
 928 008c 0133     		adds	r3, r3, #1
 929              		.loc 2 252 55
 930 008e FA68     		ldr	r2, [r7, #12]
 931 0090 D288     		ldrh	r2, [r2, #6]
 932              		.loc 2 252 101
 933 0092 9342     		cmp	r3, r2
 934 0094 03D1     		bne	.L51
 935              		.loc 2 252 96 discriminator 1
 936 0096 FB68     		ldr	r3, [r7, #12]
 937 0098 0022     		movs	r2, #0
 938 009a DA81     		strh	r2, [r3, #14]	@ movhi
 253:d:/LiteOS_Lab/iot_link/os/liteos/base/ipc\los_queue.c ****             break;
 939              		.loc 2 253 13 discriminator 1
 940 009c 0DE0     		b	.L48
 941              	.L51:
 252:d:/LiteOS_Lab/iot_link/os/liteos/base/ipc\los_queue.c ****             (pstQueueCB->usQueueTail + 1 == pstQueueCB->usQueueLen) ? (pstQueueCB->usQueueTail = 0)
 942              		.loc 2 252 114 discriminator 2
 943 009e FB68     		ldr	r3, [r7, #12]
 944 00a0 DB89     		ldrh	r3, [r3, #14]
 252:d:/LiteOS_Lab/iot_link/os/liteos/base/ipc\los_queue.c ****             (pstQueueCB->usQueueTail + 1 == pstQueueCB->usQueueLen) ? (pstQueueCB->usQueueTail = 0)
 945              		.loc 2 252 127 discriminator 2
 946 00a2 0133     		adds	r3, r3, #1
 947 00a4 9AB2     		uxth	r2, r3
 948 00a6 FB68     		ldr	r3, [r7, #12]
 949 00a8 DA81     		strh	r2, [r3, #14]	@ movhi
 950              		.loc 2 253 13 discriminator 2
 951 00aa 06E0     		b	.L48
 952              	.L43:
 254:d:/LiteOS_Lab/iot_link/os/liteos/base/ipc\los_queue.c **** 
 255:d:/LiteOS_Lab/iot_link/os/liteos/base/ipc\los_queue.c ****         default: //read tail , reserved.
 256:d:/LiteOS_Lab/iot_link/os/liteos/base/ipc\los_queue.c ****             PRINT_ERR("invalid queue operate type!\n");
 953              		.loc 2 256 13
 954 00ac 2548     		ldr	r0, .L58
 955 00ae FFF7FEFF 		bl	printf
 956 00b2 2548     		ldr	r0, .L58+4
 957 00b4 FFF7FEFF 		bl	puts
 958 00b8 41E0     		b	.L41
 959              	.L48:
 257:d:/LiteOS_Lab/iot_link/os/liteos/base/ipc\los_queue.c ****             return;
 258:d:/LiteOS_Lab/iot_link/os/liteos/base/ipc\los_queue.c ****     }
ARM GAS  C:\Users\ADMINI~1\AppData\Local\Temp\ccpUKxjn.s 			page 26


 259:d:/LiteOS_Lab/iot_link/os/liteos/base/ipc\los_queue.c **** 
 260:d:/LiteOS_Lab/iot_link/os/liteos/base/ipc\los_queue.c ****     pucQueueNode = &(pstQueueCB->pucQueue[(usQueuePosion * (pstQueueCB->usQueueSize))]);
 960              		.loc 2 260 32
 961 00ba FB68     		ldr	r3, [r7, #12]
 962 00bc 1B68     		ldr	r3, [r3]
 963              		.loc 2 260 58
 964 00be FA8B     		ldrh	r2, [r7, #30]
 965              		.loc 2 260 71
 966 00c0 F968     		ldr	r1, [r7, #12]
 967 00c2 0989     		ldrh	r1, [r1, #8]
 968              		.loc 2 260 58
 969 00c4 01FB02F2 		mul	r2, r1, r2
 970              		.loc 2 260 18
 971 00c8 1344     		add	r3, r3, r2
 972 00ca BB61     		str	r3, [r7, #24]
 261:d:/LiteOS_Lab/iot_link/os/liteos/base/ipc\los_queue.c **** 
 262:d:/LiteOS_Lab/iot_link/os/liteos/base/ipc\los_queue.c ****     if(OS_QUEUE_IS_POINT(uwOperateType))
 973              		.loc 2 262 8
 974 00cc BB68     		ldr	r3, [r7, #8]
 975 00ce 03F00403 		and	r3, r3, #4
 976              		.loc 2 262 7
 977 00d2 002B     		cmp	r3, #0
 978 00d4 0ED0     		beq	.L54
 263:d:/LiteOS_Lab/iot_link/os/liteos/base/ipc\los_queue.c ****     {
 264:d:/LiteOS_Lab/iot_link/os/liteos/base/ipc\los_queue.c ****         if(OS_QUEUE_IS_READ(uwOperateType))
 979              		.loc 2 264 12
 980 00d6 BB68     		ldr	r3, [r7, #8]
 981 00d8 03F00103 		and	r3, r3, #1
 982              		.loc 2 264 11
 983 00dc 002B     		cmp	r3, #0
 984 00de 04D1     		bne	.L55
 265:d:/LiteOS_Lab/iot_link/os/liteos/base/ipc\los_queue.c ****         {
 266:d:/LiteOS_Lab/iot_link/os/liteos/base/ipc\los_queue.c ****             *(UINT32 *)pBufferAddr = *(UINT32 *)pucQueueNode;
 985              		.loc 2 266 38
 986 00e0 BB69     		ldr	r3, [r7, #24]
 987 00e2 1A68     		ldr	r2, [r3]
 988              		.loc 2 266 36
 989 00e4 7B68     		ldr	r3, [r7, #4]
 990 00e6 1A60     		str	r2, [r3]
 991 00e8 29E0     		b	.L41
 992              	.L55:
 267:d:/LiteOS_Lab/iot_link/os/liteos/base/ipc\los_queue.c ****         }
 268:d:/LiteOS_Lab/iot_link/os/liteos/base/ipc\los_queue.c ****         else
 269:d:/LiteOS_Lab/iot_link/os/liteos/base/ipc\los_queue.c ****         {
 270:d:/LiteOS_Lab/iot_link/os/liteos/base/ipc\los_queue.c ****             *(UINT32 *)pucQueueNode = *(UINT32 *)pBufferAddr;//change to pp when calling osQueueOpe
 993              		.loc 2 270 39
 994 00ea 7B68     		ldr	r3, [r7, #4]
 995 00ec 1A68     		ldr	r2, [r3]
 996              		.loc 2 270 37
 997 00ee BB69     		ldr	r3, [r7, #24]
 998 00f0 1A60     		str	r2, [r3]
 999 00f2 24E0     		b	.L41
 1000              	.L54:
 271:d:/LiteOS_Lab/iot_link/os/liteos/base/ipc\los_queue.c ****         }
 272:d:/LiteOS_Lab/iot_link/os/liteos/base/ipc\los_queue.c ****     }
 273:d:/LiteOS_Lab/iot_link/os/liteos/base/ipc\los_queue.c ****     else
 274:d:/LiteOS_Lab/iot_link/os/liteos/base/ipc\los_queue.c ****     {
ARM GAS  C:\Users\ADMINI~1\AppData\Local\Temp\ccpUKxjn.s 			page 27


 275:d:/LiteOS_Lab/iot_link/os/liteos/base/ipc\los_queue.c ****         if(OS_QUEUE_IS_READ(uwOperateType))
 1001              		.loc 2 275 12
 1002 00f4 BB68     		ldr	r3, [r7, #8]
 1003 00f6 03F00103 		and	r3, r3, #1
 1004              		.loc 2 275 11
 1005 00fa 002B     		cmp	r3, #0
 1006 00fc 10D1     		bne	.L57
 276:d:/LiteOS_Lab/iot_link/os/liteos/base/ipc\los_queue.c ****         {
 277:d:/LiteOS_Lab/iot_link/os/liteos/base/ipc\los_queue.c ****             memcpy((VOID *)&uwMsgDataSize, (VOID *)(pucQueueNode + pstQueueCB->usQueueSize - sizeof
 1007              		.loc 2 277 78
 1008 00fe FB68     		ldr	r3, [r7, #12]
 1009 0100 1B89     		ldrh	r3, [r3, #8]
 1010              		.loc 2 277 92
 1011 0102 043B     		subs	r3, r3, #4
 1012 0104 BA69     		ldr	r2, [r7, #24]
 1013 0106 1344     		add	r3, r3, r2
 1014 0108 1B68     		ldr	r3, [r3]	@ unaligned
 1015              		.loc 2 277 13
 1016 010a 7B61     		str	r3, [r7, #20]
 278:d:/LiteOS_Lab/iot_link/os/liteos/base/ipc\los_queue.c ****             memcpy((VOID *)pBufferAddr, (VOID *)pucQueueNode, uwMsgDataSize);
 1017              		.loc 2 278 13
 1018 010c 7B69     		ldr	r3, [r7, #20]
 1019 010e 1A46     		mov	r2, r3
 1020 0110 B969     		ldr	r1, [r7, #24]
 1021 0112 7868     		ldr	r0, [r7, #4]
 1022 0114 FFF7FEFF 		bl	memcpy
 279:d:/LiteOS_Lab/iot_link/os/liteos/base/ipc\los_queue.c ****             *puwBufferSize = uwMsgDataSize;
 1023              		.loc 2 279 28
 1024 0118 7A69     		ldr	r2, [r7, #20]
 1025 011a 3B68     		ldr	r3, [r7]
 1026 011c 1A60     		str	r2, [r3]
 1027 011e 0EE0     		b	.L41
 1028              	.L57:
 280:d:/LiteOS_Lab/iot_link/os/liteos/base/ipc\los_queue.c ****         }
 281:d:/LiteOS_Lab/iot_link/os/liteos/base/ipc\los_queue.c ****         else
 282:d:/LiteOS_Lab/iot_link/os/liteos/base/ipc\los_queue.c ****         {
 283:d:/LiteOS_Lab/iot_link/os/liteos/base/ipc\los_queue.c ****             memcpy((VOID *)pucQueueNode, (VOID *)pBufferAddr, *puwBufferSize);
 1029              		.loc 2 283 13
 1030 0120 3B68     		ldr	r3, [r7]
 1031 0122 1B68     		ldr	r3, [r3]
 1032 0124 1A46     		mov	r2, r3
 1033 0126 7968     		ldr	r1, [r7, #4]
 1034 0128 B869     		ldr	r0, [r7, #24]
 1035 012a FFF7FEFF 		bl	memcpy
 284:d:/LiteOS_Lab/iot_link/os/liteos/base/ipc\los_queue.c ****             memcpy((VOID *)(pucQueueNode + pstQueueCB->usQueueSize - sizeof(UINT32)), puwBufferSize
 1036              		.loc 2 284 54
 1037 012e FB68     		ldr	r3, [r7, #12]
 1038 0130 1B89     		ldrh	r3, [r3, #8]
 1039              		.loc 2 284 68
 1040 0132 043B     		subs	r3, r3, #4
 1041 0134 BA69     		ldr	r2, [r7, #24]
 1042 0136 1344     		add	r3, r3, r2
 1043 0138 3A68     		ldr	r2, [r7]
 1044 013a 1268     		ldr	r2, [r2]	@ unaligned
 1045              		.loc 2 284 13
 1046 013c 1A60     		str	r2, [r3]	@ unaligned
 1047              	.L41:
ARM GAS  C:\Users\ADMINI~1\AppData\Local\Temp\ccpUKxjn.s 			page 28


 285:d:/LiteOS_Lab/iot_link/os/liteos/base/ipc\los_queue.c ****         }
 286:d:/LiteOS_Lab/iot_link/os/liteos/base/ipc\los_queue.c ****     }
 287:d:/LiteOS_Lab/iot_link/os/liteos/base/ipc\los_queue.c **** }
 1048              		.loc 2 287 1
 1049 013e 2037     		adds	r7, r7, #32
 1050              	.LCFI52:
 1051              		.cfi_def_cfa_offset 8
 1052 0140 BD46     		mov	sp, r7
 1053              	.LCFI53:
 1054              		.cfi_def_cfa_register 13
 1055              		@ sp needed
 1056 0142 80BD     		pop	{r7, pc}
 1057              	.L59:
 1058              		.align	2
 1059              	.L58:
 1060 0144 00000000 		.word	.LC0
 1061 0148 08000000 		.word	.LC1
 1062              		.cfi_endproc
 1063              	.LFE291:
 1065              		.section	.text.osQueueOperate,"ax",%progbits
 1066              		.align	1
 1067              		.global	osQueueOperate
 1068              		.syntax unified
 1069              		.thumb
 1070              		.thumb_func
 1071              		.fpu fpv4-sp-d16
 1073              	osQueueOperate:
 1074              	.LFB292:
 288:d:/LiteOS_Lab/iot_link/os/liteos/base/ipc\los_queue.c **** 
 289:d:/LiteOS_Lab/iot_link/os/liteos/base/ipc\los_queue.c **** 
 290:d:/LiteOS_Lab/iot_link/os/liteos/base/ipc\los_queue.c **** LITE_OS_SEC_TEXT UINT32 osQueueOperate(UINT32 uwQueueID, UINT32 uwOperateType, VOID *pBufferAddr, U
 291:d:/LiteOS_Lab/iot_link/os/liteos/base/ipc\los_queue.c **** {
 1075              		.loc 2 291 1
 1076              		.cfi_startproc
 1077              		@ args = 4, pretend = 0, frame = 40
 1078              		@ frame_needed = 1, uses_anonymous_args = 0
 1079 0000 80B5     		push	{r7, lr}
 1080              	.LCFI54:
 1081              		.cfi_def_cfa_offset 8
 1082              		.cfi_offset 7, -8
 1083              		.cfi_offset 14, -4
 1084 0002 8AB0     		sub	sp, sp, #40
 1085              	.LCFI55:
 1086              		.cfi_def_cfa_offset 48
 1087 0004 00AF     		add	r7, sp, #0
 1088              	.LCFI56:
 1089              		.cfi_def_cfa_register 7
 1090 0006 F860     		str	r0, [r7, #12]
 1091 0008 B960     		str	r1, [r7, #8]
 1092 000a 7A60     		str	r2, [r7, #4]
 1093 000c 3B60     		str	r3, [r7]
 292:d:/LiteOS_Lab/iot_link/os/liteos/base/ipc\los_queue.c ****     QUEUE_CB_S *pstQueueCB;
 293:d:/LiteOS_Lab/iot_link/os/liteos/base/ipc\los_queue.c ****     LOS_TASK_CB  *pstRunTsk;
 294:d:/LiteOS_Lab/iot_link/os/liteos/base/ipc\los_queue.c ****     UINTPTR      uvIntSave;
 295:d:/LiteOS_Lab/iot_link/os/liteos/base/ipc\los_queue.c ****     LOS_TASK_CB  *pstResumedTask;
 296:d:/LiteOS_Lab/iot_link/os/liteos/base/ipc\los_queue.c ****     UINT32       uwRet = LOS_OK;
 1094              		.loc 2 296 18
ARM GAS  C:\Users\ADMINI~1\AppData\Local\Temp\ccpUKxjn.s 			page 29


 1095 000e 0023     		movs	r3, #0
 1096 0010 3B62     		str	r3, [r7, #32]
 297:d:/LiteOS_Lab/iot_link/os/liteos/base/ipc\los_queue.c ****     UINT32       uwReadWrite = OS_QUEUE_READ_WRITE_GET(uwOperateType);
 1097              		.loc 2 297 18
 1098 0012 BB68     		ldr	r3, [r7, #8]
 1099 0014 03F00103 		and	r3, r3, #1
 1100 0018 FB61     		str	r3, [r7, #28]
 298:d:/LiteOS_Lab/iot_link/os/liteos/base/ipc\los_queue.c **** 
 299:d:/LiteOS_Lab/iot_link/os/liteos/base/ipc\los_queue.c ****     uvIntSave = LOS_IntLock();
 1101              		.loc 2 299 17
 1102 001a FFF7FEFF 		bl	LOS_IntLock
 1103 001e 7862     		str	r0, [r7, #36]
 300:d:/LiteOS_Lab/iot_link/os/liteos/base/ipc\los_queue.c **** 
 301:d:/LiteOS_Lab/iot_link/os/liteos/base/ipc\los_queue.c ****     pstQueueCB = (QUEUE_CB_S *)GET_QUEUE_HANDLE(uwQueueID);
 1104              		.loc 2 301 18
 1105 0020 614B     		ldr	r3, .L73
 1106 0022 1A68     		ldr	r2, [r3]
 1107              		.loc 2 301 32
 1108 0024 FB68     		ldr	r3, [r7, #12]
 1109 0026 2C21     		movs	r1, #44
 1110 0028 01FB03F3 		mul	r3, r1, r3
 1111              		.loc 2 301 16
 1112 002c 1344     		add	r3, r3, r2
 1113 002e BB61     		str	r3, [r7, #24]
 302:d:/LiteOS_Lab/iot_link/os/liteos/base/ipc\los_queue.c ****     if (OS_QUEUE_UNUSED == pstQueueCB->usQueueState)
 1114              		.loc 2 302 38
 1115 0030 BB69     		ldr	r3, [r7, #24]
 1116 0032 9B88     		ldrh	r3, [r3, #4]
 1117              		.loc 2 302 8
 1118 0034 002B     		cmp	r3, #0
 1119 0036 02D1     		bne	.L61
 303:d:/LiteOS_Lab/iot_link/os/liteos/base/ipc\los_queue.c ****     {
 304:d:/LiteOS_Lab/iot_link/os/liteos/base/ipc\los_queue.c ****         uwRet = LOS_ERRNO_QUEUE_NOT_CREATE;
 1120              		.loc 2 304 15
 1121 0038 5C4B     		ldr	r3, .L73+4
 1122 003a 3B62     		str	r3, [r7, #32]
 305:d:/LiteOS_Lab/iot_link/os/liteos/base/ipc\los_queue.c ****         goto QUEUE_END;
 1123              		.loc 2 305 9
 1124 003c ACE0     		b	.L62
 1125              	.L61:
 306:d:/LiteOS_Lab/iot_link/os/liteos/base/ipc\los_queue.c **** 
 307:d:/LiteOS_Lab/iot_link/os/liteos/base/ipc\los_queue.c ****     }
 308:d:/LiteOS_Lab/iot_link/os/liteos/base/ipc\los_queue.c **** 
 309:d:/LiteOS_Lab/iot_link/os/liteos/base/ipc\los_queue.c ****     if(OS_QUEUE_IS_READ(uwOperateType) && (*puwBufferSize < pstQueueCB->usQueueSize - sizeof(UINT32
 1126              		.loc 2 309 8
 1127 003e BB68     		ldr	r3, [r7, #8]
 1128 0040 03F00103 		and	r3, r3, #1
 1129              		.loc 2 309 7
 1130 0044 002B     		cmp	r3, #0
 1131 0046 09D1     		bne	.L63
 1132              		.loc 2 309 44 discriminator 1
 1133 0048 3B68     		ldr	r3, [r7]
 1134 004a 1A68     		ldr	r2, [r3]
 1135              		.loc 2 309 71 discriminator 1
 1136 004c BB69     		ldr	r3, [r7, #24]
 1137 004e 1B89     		ldrh	r3, [r3, #8]
 1138              		.loc 2 309 85 discriminator 1
ARM GAS  C:\Users\ADMINI~1\AppData\Local\Temp\ccpUKxjn.s 			page 30


 1139 0050 043B     		subs	r3, r3, #4
 1140              		.loc 2 309 40 discriminator 1
 1141 0052 9A42     		cmp	r2, r3
 1142 0054 02D2     		bcs	.L63
 310:d:/LiteOS_Lab/iot_link/os/liteos/base/ipc\los_queue.c ****     {
 311:d:/LiteOS_Lab/iot_link/os/liteos/base/ipc\los_queue.c ****         uwRet = LOS_ERRNO_QUEUE_READ_SIZE_TOO_SMALL;
 1143              		.loc 2 311 15
 1144 0056 564B     		ldr	r3, .L73+8
 1145 0058 3B62     		str	r3, [r7, #32]
 312:d:/LiteOS_Lab/iot_link/os/liteos/base/ipc\los_queue.c ****         goto QUEUE_END;
 1146              		.loc 2 312 9
 1147 005a 9DE0     		b	.L62
 1148              	.L63:
 313:d:/LiteOS_Lab/iot_link/os/liteos/base/ipc\los_queue.c ****     }
 314:d:/LiteOS_Lab/iot_link/os/liteos/base/ipc\los_queue.c ****     else if(OS_QUEUE_IS_WRITE(uwOperateType) && (*puwBufferSize > pstQueueCB->usQueueSize - sizeof(
 1149              		.loc 2 314 13
 1150 005c BB68     		ldr	r3, [r7, #8]
 1151 005e 03F00103 		and	r3, r3, #1
 1152              		.loc 2 314 12
 1153 0062 002B     		cmp	r3, #0
 1154 0064 09D0     		beq	.L64
 1155              		.loc 2 314 50 discriminator 1
 1156 0066 3B68     		ldr	r3, [r7]
 1157 0068 1A68     		ldr	r2, [r3]
 1158              		.loc 2 314 77 discriminator 1
 1159 006a BB69     		ldr	r3, [r7, #24]
 1160 006c 1B89     		ldrh	r3, [r3, #8]
 1161              		.loc 2 314 91 discriminator 1
 1162 006e 043B     		subs	r3, r3, #4
 1163              		.loc 2 314 46 discriminator 1
 1164 0070 9A42     		cmp	r2, r3
 1165 0072 02D9     		bls	.L64
 315:d:/LiteOS_Lab/iot_link/os/liteos/base/ipc\los_queue.c ****     {
 316:d:/LiteOS_Lab/iot_link/os/liteos/base/ipc\los_queue.c ****         uwRet = LOS_ERRNO_QUEUE_WRITE_SIZE_TOO_BIG;
 1166              		.loc 2 316 15
 1167 0074 4F4B     		ldr	r3, .L73+12
 1168 0076 3B62     		str	r3, [r7, #32]
 317:d:/LiteOS_Lab/iot_link/os/liteos/base/ipc\los_queue.c ****         goto QUEUE_END;
 1169              		.loc 2 317 9
 1170 0078 8EE0     		b	.L62
 1171              	.L64:
 318:d:/LiteOS_Lab/iot_link/os/liteos/base/ipc\los_queue.c ****     }
 319:d:/LiteOS_Lab/iot_link/os/liteos/base/ipc\los_queue.c **** 
 320:d:/LiteOS_Lab/iot_link/os/liteos/base/ipc\los_queue.c ****     if (0 == pstQueueCB->usReadWriteableCnt[uwReadWrite])
 1172              		.loc 2 320 44
 1173 007a BB69     		ldr	r3, [r7, #24]
 1174 007c FA69     		ldr	r2, [r7, #28]
 1175 007e 0832     		adds	r2, r2, #8
 1176 0080 33F81230 		ldrh	r3, [r3, r2, lsl #1]
 1177              		.loc 2 320 8
 1178 0084 002B     		cmp	r3, #0
 1179 0086 3AD1     		bne	.L65
 321:d:/LiteOS_Lab/iot_link/os/liteos/base/ipc\los_queue.c ****     {
 322:d:/LiteOS_Lab/iot_link/os/liteos/base/ipc\los_queue.c ****         if (LOS_NO_WAIT == uwTimeOut)
 1180              		.loc 2 322 12
 1181 0088 3B6B     		ldr	r3, [r7, #48]
 1182 008a 002B     		cmp	r3, #0
ARM GAS  C:\Users\ADMINI~1\AppData\Local\Temp\ccpUKxjn.s 			page 31


 1183 008c 09D1     		bne	.L66
 323:d:/LiteOS_Lab/iot_link/os/liteos/base/ipc\los_queue.c ****         {
 324:d:/LiteOS_Lab/iot_link/os/liteos/base/ipc\los_queue.c ****             uwRet = OS_QUEUE_IS_READ(uwOperateType) ? LOS_ERRNO_QUEUE_ISEMPTY : LOS_ERRNO_QUEUE_ISF
 1184              		.loc 2 324 21
 1185 008e BB68     		ldr	r3, [r7, #8]
 1186 0090 03F00103 		and	r3, r3, #1
 1187              		.loc 2 324 79
 1188 0094 002B     		cmp	r3, #0
 1189 0096 01D1     		bne	.L67
 1190              		.loc 2 324 79 is_stmt 0 discriminator 1
 1191 0098 474B     		ldr	r3, .L73+16
 1192 009a 00E0     		b	.L68
 1193              	.L67:
 1194              		.loc 2 324 79 discriminator 2
 1195 009c 474B     		ldr	r3, .L73+20
 1196              	.L68:
 1197              		.loc 2 324 19 is_stmt 1 discriminator 4
 1198 009e 3B62     		str	r3, [r7, #32]
 325:d:/LiteOS_Lab/iot_link/os/liteos/base/ipc\los_queue.c ****             goto QUEUE_END;
 1199              		.loc 2 325 13 discriminator 4
 1200 00a0 7AE0     		b	.L62
 1201              	.L66:
 326:d:/LiteOS_Lab/iot_link/os/liteos/base/ipc\los_queue.c ****         }
 327:d:/LiteOS_Lab/iot_link/os/liteos/base/ipc\los_queue.c **** 
 328:d:/LiteOS_Lab/iot_link/os/liteos/base/ipc\los_queue.c ****         if (g_usLosTaskLock)
 1202              		.loc 2 328 13
 1203 00a2 474B     		ldr	r3, .L73+24
 1204 00a4 1B88     		ldrh	r3, [r3]
 1205              		.loc 2 328 12
 1206 00a6 002B     		cmp	r3, #0
 1207 00a8 02D0     		beq	.L69
 329:d:/LiteOS_Lab/iot_link/os/liteos/base/ipc\los_queue.c ****         {
 330:d:/LiteOS_Lab/iot_link/os/liteos/base/ipc\los_queue.c ****             uwRet = LOS_ERRNO_QUEUE_PEND_IN_LOCK;
 1208              		.loc 2 330 19
 1209 00aa 464B     		ldr	r3, .L73+28
 1210 00ac 3B62     		str	r3, [r7, #32]
 331:d:/LiteOS_Lab/iot_link/os/liteos/base/ipc\los_queue.c ****             goto QUEUE_END;
 1211              		.loc 2 331 13
 1212 00ae 73E0     		b	.L62
 1213              	.L69:
 332:d:/LiteOS_Lab/iot_link/os/liteos/base/ipc\los_queue.c ****         }
 333:d:/LiteOS_Lab/iot_link/os/liteos/base/ipc\los_queue.c **** 
 334:d:/LiteOS_Lab/iot_link/os/liteos/base/ipc\los_queue.c ****         pstRunTsk = (LOS_TASK_CB *)g_stLosTask.pstRunTask;
 1214              		.loc 2 334 19
 1215 00b0 454B     		ldr	r3, .L73+32
 1216 00b2 1B68     		ldr	r3, [r3]
 1217 00b4 7B61     		str	r3, [r7, #20]
 335:d:/LiteOS_Lab/iot_link/os/liteos/base/ipc\los_queue.c ****         osTaskWait(&pstQueueCB->stReadWriteList[uwReadWrite], OS_TASK_STATUS_PEND_QUEUE, uwTimeOut)
 1218              		.loc 2 335 9
 1219 00b6 FB69     		ldr	r3, [r7, #28]
 1220 00b8 0233     		adds	r3, r3, #2
 1221 00ba DB00     		lsls	r3, r3, #3
 1222 00bc BA69     		ldr	r2, [r7, #24]
 1223 00be 1344     		add	r3, r3, r2
 1224 00c0 0433     		adds	r3, r3, #4
 1225 00c2 3A6B     		ldr	r2, [r7, #48]
 1226 00c4 4FF40051 		mov	r1, #8192
ARM GAS  C:\Users\ADMINI~1\AppData\Local\Temp\ccpUKxjn.s 			page 32


 1227 00c8 1846     		mov	r0, r3
 1228 00ca FFF7FEFF 		bl	osTaskWait
 336:d:/LiteOS_Lab/iot_link/os/liteos/base/ipc\los_queue.c ****         LOS_IntRestore(uvIntSave);
 1229              		.loc 2 336 9
 1230 00ce 786A     		ldr	r0, [r7, #36]
 1231 00d0 FFF7FEFF 		bl	LOS_IntRestore
 337:d:/LiteOS_Lab/iot_link/os/liteos/base/ipc\los_queue.c ****         LOS_Schedule();
 1232              		.loc 2 337 9
 1233 00d4 FFF7FEFF 		bl	LOS_Schedule
 338:d:/LiteOS_Lab/iot_link/os/liteos/base/ipc\los_queue.c **** 
 339:d:/LiteOS_Lab/iot_link/os/liteos/base/ipc\los_queue.c ****         uvIntSave = LOS_IntLock();
 1234              		.loc 2 339 21
 1235 00d8 FFF7FEFF 		bl	LOS_IntLock
 1236 00dc 7862     		str	r0, [r7, #36]
 340:d:/LiteOS_Lab/iot_link/os/liteos/base/ipc\los_queue.c **** 
 341:d:/LiteOS_Lab/iot_link/os/liteos/base/ipc\los_queue.c ****         if (pstRunTsk->usTaskStatus & OS_TASK_STATUS_TIMEOUT)
 1237              		.loc 2 341 22
 1238 00de 7B69     		ldr	r3, [r7, #20]
 1239 00e0 9B88     		ldrh	r3, [r3, #4]
 1240              		.loc 2 341 37
 1241 00e2 03F04003 		and	r3, r3, #64
 1242              		.loc 2 341 12
 1243 00e6 002B     		cmp	r3, #0
 1244 00e8 15D0     		beq	.L70
 342:d:/LiteOS_Lab/iot_link/os/liteos/base/ipc\los_queue.c ****         {
 343:d:/LiteOS_Lab/iot_link/os/liteos/base/ipc\los_queue.c ****             pstRunTsk->usTaskStatus &= (~OS_TASK_STATUS_TIMEOUT);
 1245              		.loc 2 343 37
 1246 00ea 7B69     		ldr	r3, [r7, #20]
 1247 00ec 9B88     		ldrh	r3, [r3, #4]
 1248 00ee 23F04003 		bic	r3, r3, #64
 1249 00f2 9AB2     		uxth	r2, r3
 1250 00f4 7B69     		ldr	r3, [r7, #20]
 1251 00f6 9A80     		strh	r2, [r3, #4]	@ movhi
 344:d:/LiteOS_Lab/iot_link/os/liteos/base/ipc\los_queue.c ****             uwRet = LOS_ERRNO_QUEUE_TIMEOUT;
 1252              		.loc 2 344 19
 1253 00f8 344B     		ldr	r3, .L73+36
 1254 00fa 3B62     		str	r3, [r7, #32]
 345:d:/LiteOS_Lab/iot_link/os/liteos/base/ipc\los_queue.c ****             goto QUEUE_END;
 1255              		.loc 2 345 13
 1256 00fc 4CE0     		b	.L62
 1257              	.L65:
 346:d:/LiteOS_Lab/iot_link/os/liteos/base/ipc\los_queue.c ****         }
 347:d:/LiteOS_Lab/iot_link/os/liteos/base/ipc\los_queue.c ****     }
 348:d:/LiteOS_Lab/iot_link/os/liteos/base/ipc\los_queue.c ****     else
 349:d:/LiteOS_Lab/iot_link/os/liteos/base/ipc\los_queue.c ****     {
 350:d:/LiteOS_Lab/iot_link/os/liteos/base/ipc\los_queue.c ****         pstQueueCB->usReadWriteableCnt[uwReadWrite]--;
 1258              		.loc 2 350 39
 1259 00fe BB69     		ldr	r3, [r7, #24]
 1260 0100 FA69     		ldr	r2, [r7, #28]
 1261 0102 0832     		adds	r2, r2, #8
 1262 0104 33F81230 		ldrh	r3, [r3, r2, lsl #1]
 1263              		.loc 2 350 52
 1264 0108 013B     		subs	r3, r3, #1
 1265 010a 99B2     		uxth	r1, r3
 1266 010c BB69     		ldr	r3, [r7, #24]
 1267 010e FA69     		ldr	r2, [r7, #28]
 1268 0110 0832     		adds	r2, r2, #8
ARM GAS  C:\Users\ADMINI~1\AppData\Local\Temp\ccpUKxjn.s 			page 33


 1269 0112 23F81210 		strh	r1, [r3, r2, lsl #1]	@ movhi
 1270              	.L70:
 351:d:/LiteOS_Lab/iot_link/os/liteos/base/ipc\los_queue.c ****     }
 352:d:/LiteOS_Lab/iot_link/os/liteos/base/ipc\los_queue.c **** 
 353:d:/LiteOS_Lab/iot_link/os/liteos/base/ipc\los_queue.c ****     osQueueBufferOperate(pstQueueCB, uwOperateType, pBufferAddr, puwBufferSize);
 1271              		.loc 2 353 5
 1272 0116 3B68     		ldr	r3, [r7]
 1273 0118 7A68     		ldr	r2, [r7, #4]
 1274 011a B968     		ldr	r1, [r7, #8]
 1275 011c B869     		ldr	r0, [r7, #24]
 1276 011e FFF7FEFF 		bl	osQueueBufferOperate
 354:d:/LiteOS_Lab/iot_link/os/liteos/base/ipc\los_queue.c **** 
 355:d:/LiteOS_Lab/iot_link/os/liteos/base/ipc\los_queue.c ****     if (!LOS_ListEmpty(&pstQueueCB->stReadWriteList[!uwReadWrite])) /*lint !e514*/
 1277              		.loc 2 355 53
 1278 0122 FB69     		ldr	r3, [r7, #28]
 1279 0124 002B     		cmp	r3, #0
 1280 0126 0CBF     		ite	eq
 1281 0128 0123     		moveq	r3, #1
 1282 012a 0023     		movne	r3, #0
 1283 012c DBB2     		uxtb	r3, r3
 1284              		.loc 2 355 10
 1285 012e 0233     		adds	r3, r3, #2
 1286 0130 DB00     		lsls	r3, r3, #3
 1287 0132 BA69     		ldr	r2, [r7, #24]
 1288 0134 1344     		add	r3, r3, r2
 1289 0136 0433     		adds	r3, r3, #4
 1290 0138 1846     		mov	r0, r3
 1291 013a FFF7FEFF 		bl	LOS_ListEmpty
 1292 013e 0346     		mov	r3, r0
 1293              		.loc 2 355 8
 1294 0140 002B     		cmp	r3, #0
 1295 0142 18D1     		bne	.L71
 356:d:/LiteOS_Lab/iot_link/os/liteos/base/ipc\los_queue.c ****     {
 357:d:/LiteOS_Lab/iot_link/os/liteos/base/ipc\los_queue.c ****         pstResumedTask = OS_TCB_FROM_PENDLIST(LOS_DL_LIST_FIRST(&pstQueueCB->stReadWriteList[!uwRea
 1296              		.loc 2 357 26
 1297 0144 FB69     		ldr	r3, [r7, #28]
 1298 0146 002B     		cmp	r3, #0
 1299 0148 0CBF     		ite	eq
 1300 014a 0123     		moveq	r3, #1
 1301 014c 0023     		movne	r3, #0
 1302 014e DBB2     		uxtb	r3, r3
 1303 0150 BA69     		ldr	r2, [r7, #24]
 1304 0152 0233     		adds	r3, r3, #2
 1305 0154 DB00     		lsls	r3, r3, #3
 1306 0156 1344     		add	r3, r3, r2
 1307 0158 9B68     		ldr	r3, [r3, #8]
 1308              		.loc 2 357 24
 1309 015a 283B     		subs	r3, r3, #40
 1310 015c 3B61     		str	r3, [r7, #16]
 358:d:/LiteOS_Lab/iot_link/os/liteos/base/ipc\los_queue.c ****         osTaskWake(pstResumedTask, OS_TASK_STATUS_PEND_QUEUE);
 1311              		.loc 2 358 9
 1312 015e 4FF40051 		mov	r1, #8192
 1313 0162 3869     		ldr	r0, [r7, #16]
 1314 0164 FFF7FEFF 		bl	osTaskWake
 359:d:/LiteOS_Lab/iot_link/os/liteos/base/ipc\los_queue.c ****         LOS_IntRestore(uvIntSave);
 1315              		.loc 2 359 9
 1316 0168 786A     		ldr	r0, [r7, #36]
ARM GAS  C:\Users\ADMINI~1\AppData\Local\Temp\ccpUKxjn.s 			page 34


 1317 016a FFF7FEFF 		bl	LOS_IntRestore
 360:d:/LiteOS_Lab/iot_link/os/liteos/base/ipc\los_queue.c ****         LOS_Schedule();
 1318              		.loc 2 360 9
 1319 016e FFF7FEFF 		bl	LOS_Schedule
 361:d:/LiteOS_Lab/iot_link/os/liteos/base/ipc\los_queue.c ****         return LOS_OK;
 1320              		.loc 2 361 16
 1321 0172 0023     		movs	r3, #0
 1322 0174 14E0     		b	.L72
 1323              	.L71:
 362:d:/LiteOS_Lab/iot_link/os/liteos/base/ipc\los_queue.c ****     }
 363:d:/LiteOS_Lab/iot_link/os/liteos/base/ipc\los_queue.c ****     else
 364:d:/LiteOS_Lab/iot_link/os/liteos/base/ipc\los_queue.c ****     {
 365:d:/LiteOS_Lab/iot_link/os/liteos/base/ipc\los_queue.c ****         pstQueueCB->usReadWriteableCnt[!uwReadWrite]++; /*lint !e514*/
 1324              		.loc 2 365 40
 1325 0176 FB69     		ldr	r3, [r7, #28]
 1326 0178 002B     		cmp	r3, #0
 1327 017a 0CBF     		ite	eq
 1328 017c 0123     		moveq	r3, #1
 1329 017e 0023     		movne	r3, #0
 1330 0180 DBB2     		uxtb	r3, r3
 1331              		.loc 2 365 39
 1332 0182 BA69     		ldr	r2, [r7, #24]
 1333 0184 03F10801 		add	r1, r3, #8
 1334 0188 32F81120 		ldrh	r2, [r2, r1, lsl #1]
 1335              		.loc 2 365 53
 1336 018c 0132     		adds	r2, r2, #1
 1337 018e 91B2     		uxth	r1, r2
 1338 0190 BA69     		ldr	r2, [r7, #24]
 1339 0192 0833     		adds	r3, r3, #8
 1340 0194 22F81310 		strh	r1, [r2, r3, lsl #1]	@ movhi
 1341              	.L62:
 366:d:/LiteOS_Lab/iot_link/os/liteos/base/ipc\los_queue.c ****     }
 367:d:/LiteOS_Lab/iot_link/os/liteos/base/ipc\los_queue.c **** 
 368:d:/LiteOS_Lab/iot_link/os/liteos/base/ipc\los_queue.c **** QUEUE_END:
 369:d:/LiteOS_Lab/iot_link/os/liteos/base/ipc\los_queue.c ****     LOS_IntRestore(uvIntSave);
 1342              		.loc 2 369 5
 1343 0198 786A     		ldr	r0, [r7, #36]
 1344 019a FFF7FEFF 		bl	LOS_IntRestore
 370:d:/LiteOS_Lab/iot_link/os/liteos/base/ipc\los_queue.c ****     return uwRet;
 1345              		.loc 2 370 12
 1346 019e 3B6A     		ldr	r3, [r7, #32]
 1347              	.L72:
 371:d:/LiteOS_Lab/iot_link/os/liteos/base/ipc\los_queue.c **** }
 1348              		.loc 2 371 1
 1349 01a0 1846     		mov	r0, r3
 1350 01a2 2837     		adds	r7, r7, #40
 1351              	.LCFI57:
 1352              		.cfi_def_cfa_offset 8
 1353 01a4 BD46     		mov	sp, r7
 1354              	.LCFI58:
 1355              		.cfi_def_cfa_register 13
 1356              		@ sp needed
 1357 01a6 80BD     		pop	{r7, pc}
 1358              	.L74:
 1359              		.align	2
 1360              	.L73:
 1361 01a8 00000000 		.word	g_pstAllQueue
ARM GAS  C:\Users\ADMINI~1\AppData\Local\Temp\ccpUKxjn.s 			page 35


 1362 01ac 0A060002 		.word	33555978
 1363 01b0 1F060002 		.word	33555999
 1364 01b4 15060002 		.word	33555989
 1365 01b8 1D060002 		.word	33555997
 1366 01bc 16060002 		.word	33555990
 1367 01c0 00000000 		.word	g_usLosTaskLock
 1368 01c4 06060002 		.word	33555974
 1369 01c8 00000000 		.word	g_stLosTask
 1370 01cc 07060002 		.word	33555975
 1371              		.cfi_endproc
 1372              	.LFE292:
 1374              		.section	.text.LOS_QueueReadCopy,"ax",%progbits
 1375              		.align	1
 1376              		.global	LOS_QueueReadCopy
 1377              		.syntax unified
 1378              		.thumb
 1379              		.thumb_func
 1380              		.fpu fpv4-sp-d16
 1382              	LOS_QueueReadCopy:
 1383              	.LFB293:
 372:d:/LiteOS_Lab/iot_link/os/liteos/base/ipc\los_queue.c **** 
 373:d:/LiteOS_Lab/iot_link/os/liteos/base/ipc\los_queue.c **** /*****************************************************************************
 374:d:/LiteOS_Lab/iot_link/os/liteos/base/ipc\los_queue.c ****  Function    : LOS_QueueReadCopy
 375:d:/LiteOS_Lab/iot_link/os/liteos/base/ipc\los_queue.c ****  Description : Read queue
 376:d:/LiteOS_Lab/iot_link/os/liteos/base/ipc\los_queue.c ****  Input       : uwQueueID
 377:d:/LiteOS_Lab/iot_link/os/liteos/base/ipc\los_queue.c ****                puwBufferSize
 378:d:/LiteOS_Lab/iot_link/os/liteos/base/ipc\los_queue.c ****                uwTimeOut
 379:d:/LiteOS_Lab/iot_link/os/liteos/base/ipc\los_queue.c ****  Output      : pBufferAddr
 380:d:/LiteOS_Lab/iot_link/os/liteos/base/ipc\los_queue.c ****                puwBufferSize
 381:d:/LiteOS_Lab/iot_link/os/liteos/base/ipc\los_queue.c ****  Return      : LOS_OK on success or error code on failure
 382:d:/LiteOS_Lab/iot_link/os/liteos/base/ipc\los_queue.c ****  *****************************************************************************/
 383:d:/LiteOS_Lab/iot_link/os/liteos/base/ipc\los_queue.c **** LITE_OS_SEC_TEXT UINT32 LOS_QueueReadCopy(UINT32  uwQueueID,
 384:d:/LiteOS_Lab/iot_link/os/liteos/base/ipc\los_queue.c ****                     VOID *  pBufferAddr,
 385:d:/LiteOS_Lab/iot_link/os/liteos/base/ipc\los_queue.c ****                     UINT32 * puwBufferSize,
 386:d:/LiteOS_Lab/iot_link/os/liteos/base/ipc\los_queue.c ****                     UINT32  uwTimeOut)
 387:d:/LiteOS_Lab/iot_link/os/liteos/base/ipc\los_queue.c **** {
 1384              		.loc 2 387 1
 1385              		.cfi_startproc
 1386              		@ args = 0, pretend = 0, frame = 24
 1387              		@ frame_needed = 1, uses_anonymous_args = 0
 1388 0000 80B5     		push	{r7, lr}
 1389              	.LCFI59:
 1390              		.cfi_def_cfa_offset 8
 1391              		.cfi_offset 7, -8
 1392              		.cfi_offset 14, -4
 1393 0002 88B0     		sub	sp, sp, #32
 1394              	.LCFI60:
 1395              		.cfi_def_cfa_offset 40
 1396 0004 02AF     		add	r7, sp, #8
 1397              	.LCFI61:
 1398              		.cfi_def_cfa 7, 32
 1399 0006 F860     		str	r0, [r7, #12]
 1400 0008 B960     		str	r1, [r7, #8]
 1401 000a 7A60     		str	r2, [r7, #4]
 1402 000c 3B60     		str	r3, [r7]
 388:d:/LiteOS_Lab/iot_link/os/liteos/base/ipc\los_queue.c ****     UINT32 uwRet;
 389:d:/LiteOS_Lab/iot_link/os/liteos/base/ipc\los_queue.c ****     UINT32 uwOperateType;
ARM GAS  C:\Users\ADMINI~1\AppData\Local\Temp\ccpUKxjn.s 			page 36


 390:d:/LiteOS_Lab/iot_link/os/liteos/base/ipc\los_queue.c **** 
 391:d:/LiteOS_Lab/iot_link/os/liteos/base/ipc\los_queue.c ****     uwRet = osQueueReadParameterCheck(uwQueueID, pBufferAddr, puwBufferSize, uwTimeOut);
 1403              		.loc 2 391 13
 1404 000e 3B68     		ldr	r3, [r7]
 1405 0010 7A68     		ldr	r2, [r7, #4]
 1406 0012 B968     		ldr	r1, [r7, #8]
 1407 0014 F868     		ldr	r0, [r7, #12]
 1408 0016 FFF7FEFF 		bl	osQueueReadParameterCheck
 1409 001a 7861     		str	r0, [r7, #20]
 392:d:/LiteOS_Lab/iot_link/os/liteos/base/ipc\los_queue.c ****     if(uwRet != LOS_OK)
 1410              		.loc 2 392 7
 1411 001c 7B69     		ldr	r3, [r7, #20]
 1412 001e 002B     		cmp	r3, #0
 1413 0020 01D0     		beq	.L76
 393:d:/LiteOS_Lab/iot_link/os/liteos/base/ipc\los_queue.c ****     {
 394:d:/LiteOS_Lab/iot_link/os/liteos/base/ipc\los_queue.c ****         return uwRet;
 1414              		.loc 2 394 16
 1415 0022 7B69     		ldr	r3, [r7, #20]
 1416 0024 0AE0     		b	.L77
 1417              	.L76:
 395:d:/LiteOS_Lab/iot_link/os/liteos/base/ipc\los_queue.c ****     }
 396:d:/LiteOS_Lab/iot_link/os/liteos/base/ipc\los_queue.c **** 
 397:d:/LiteOS_Lab/iot_link/os/liteos/base/ipc\los_queue.c ****     uwOperateType = OS_QUEUE_OPERATE_TYPE(OS_QUEUE_READ, OS_QUEUE_HEAD,OS_QUEUE_NOT_POINT);
 1418              		.loc 2 397 19
 1419 0026 0023     		movs	r3, #0
 1420 0028 3B61     		str	r3, [r7, #16]
 398:d:/LiteOS_Lab/iot_link/os/liteos/base/ipc\los_queue.c ****     return osQueueOperate(uwQueueID, uwOperateType, pBufferAddr, puwBufferSize, uwTimeOut);
 1421              		.loc 2 398 12
 1422 002a 3B68     		ldr	r3, [r7]
 1423 002c 0093     		str	r3, [sp]
 1424 002e 7B68     		ldr	r3, [r7, #4]
 1425 0030 BA68     		ldr	r2, [r7, #8]
 1426 0032 3969     		ldr	r1, [r7, #16]
 1427 0034 F868     		ldr	r0, [r7, #12]
 1428 0036 FFF7FEFF 		bl	osQueueOperate
 1429 003a 0346     		mov	r3, r0
 1430              	.L77:
 399:d:/LiteOS_Lab/iot_link/os/liteos/base/ipc\los_queue.c **** }
 1431              		.loc 2 399 1
 1432 003c 1846     		mov	r0, r3
 1433 003e 1837     		adds	r7, r7, #24
 1434              	.LCFI62:
 1435              		.cfi_def_cfa_offset 8
 1436 0040 BD46     		mov	sp, r7
 1437              	.LCFI63:
 1438              		.cfi_def_cfa_register 13
 1439              		@ sp needed
 1440 0042 80BD     		pop	{r7, pc}
 1441              		.cfi_endproc
 1442              	.LFE293:
 1444              		.section	.text.LOS_QueueWriteHeadCopy,"ax",%progbits
 1445              		.align	1
 1446              		.global	LOS_QueueWriteHeadCopy
 1447              		.syntax unified
 1448              		.thumb
 1449              		.thumb_func
 1450              		.fpu fpv4-sp-d16
ARM GAS  C:\Users\ADMINI~1\AppData\Local\Temp\ccpUKxjn.s 			page 37


 1452              	LOS_QueueWriteHeadCopy:
 1453              	.LFB294:
 400:d:/LiteOS_Lab/iot_link/os/liteos/base/ipc\los_queue.c **** 
 401:d:/LiteOS_Lab/iot_link/os/liteos/base/ipc\los_queue.c **** /*****************************************************************************
 402:d:/LiteOS_Lab/iot_link/os/liteos/base/ipc\los_queue.c ****  Function    : LOS_QueueWriteHeadCopy
 403:d:/LiteOS_Lab/iot_link/os/liteos/base/ipc\los_queue.c ****  Description : Write queue head
 404:d:/LiteOS_Lab/iot_link/os/liteos/base/ipc\los_queue.c ****  Input       : uwQueueID
 405:d:/LiteOS_Lab/iot_link/os/liteos/base/ipc\los_queue.c ****                pBufferAddr
 406:d:/LiteOS_Lab/iot_link/os/liteos/base/ipc\los_queue.c ****                uwBufferSize
 407:d:/LiteOS_Lab/iot_link/os/liteos/base/ipc\los_queue.c ****                uwTimeOut
 408:d:/LiteOS_Lab/iot_link/os/liteos/base/ipc\los_queue.c ****  Output      : None
 409:d:/LiteOS_Lab/iot_link/os/liteos/base/ipc\los_queue.c ****  Return      : LOS_OK on success or error code on failure
 410:d:/LiteOS_Lab/iot_link/os/liteos/base/ipc\los_queue.c ****  *****************************************************************************/
 411:d:/LiteOS_Lab/iot_link/os/liteos/base/ipc\los_queue.c **** LITE_OS_SEC_TEXT UINT32 LOS_QueueWriteHeadCopy(UINT32 uwQueueID,
 412:d:/LiteOS_Lab/iot_link/os/liteos/base/ipc\los_queue.c ****                                      VOID * pBufferAddr,
 413:d:/LiteOS_Lab/iot_link/os/liteos/base/ipc\los_queue.c ****                                      UINT32 uwBufferSize,
 414:d:/LiteOS_Lab/iot_link/os/liteos/base/ipc\los_queue.c ****                                      UINT32 uwTimeOut )
 415:d:/LiteOS_Lab/iot_link/os/liteos/base/ipc\los_queue.c **** {
 1454              		.loc 2 415 1
 1455              		.cfi_startproc
 1456              		@ args = 0, pretend = 0, frame = 24
 1457              		@ frame_needed = 1, uses_anonymous_args = 0
 1458 0000 80B5     		push	{r7, lr}
 1459              	.LCFI64:
 1460              		.cfi_def_cfa_offset 8
 1461              		.cfi_offset 7, -8
 1462              		.cfi_offset 14, -4
 1463 0002 88B0     		sub	sp, sp, #32
 1464              	.LCFI65:
 1465              		.cfi_def_cfa_offset 40
 1466 0004 02AF     		add	r7, sp, #8
 1467              	.LCFI66:
 1468              		.cfi_def_cfa 7, 32
 1469 0006 F860     		str	r0, [r7, #12]
 1470 0008 B960     		str	r1, [r7, #8]
 1471 000a 7A60     		str	r2, [r7, #4]
 1472 000c 3B60     		str	r3, [r7]
 416:d:/LiteOS_Lab/iot_link/os/liteos/base/ipc\los_queue.c ****     UINT32 uwRet;
 417:d:/LiteOS_Lab/iot_link/os/liteos/base/ipc\los_queue.c ****     UINT32 uwOperateType;
 418:d:/LiteOS_Lab/iot_link/os/liteos/base/ipc\los_queue.c **** 
 419:d:/LiteOS_Lab/iot_link/os/liteos/base/ipc\los_queue.c ****     uwRet = osQueueWriteParameterCheck(uwQueueID, pBufferAddr, &uwBufferSize, uwTimeOut);
 1473              		.loc 2 419 13
 1474 000e 3A1D     		adds	r2, r7, #4
 1475 0010 3B68     		ldr	r3, [r7]
 1476 0012 B968     		ldr	r1, [r7, #8]
 1477 0014 F868     		ldr	r0, [r7, #12]
 1478 0016 FFF7FEFF 		bl	osQueueWriteParameterCheck
 1479 001a 7861     		str	r0, [r7, #20]
 420:d:/LiteOS_Lab/iot_link/os/liteos/base/ipc\los_queue.c ****     if(uwRet != LOS_OK)
 1480              		.loc 2 420 7
 1481 001c 7B69     		ldr	r3, [r7, #20]
 1482 001e 002B     		cmp	r3, #0
 1483 0020 01D0     		beq	.L79
 421:d:/LiteOS_Lab/iot_link/os/liteos/base/ipc\los_queue.c ****     {
 422:d:/LiteOS_Lab/iot_link/os/liteos/base/ipc\los_queue.c ****         return uwRet;
 1484              		.loc 2 422 16
 1485 0022 7B69     		ldr	r3, [r7, #20]
ARM GAS  C:\Users\ADMINI~1\AppData\Local\Temp\ccpUKxjn.s 			page 38


 1486 0024 0BE0     		b	.L80
 1487              	.L79:
 423:d:/LiteOS_Lab/iot_link/os/liteos/base/ipc\los_queue.c ****     }
 424:d:/LiteOS_Lab/iot_link/os/liteos/base/ipc\los_queue.c **** 
 425:d:/LiteOS_Lab/iot_link/os/liteos/base/ipc\los_queue.c ****     uwOperateType = OS_QUEUE_OPERATE_TYPE(OS_QUEUE_WRITE, OS_QUEUE_HEAD,OS_QUEUE_NOT_POINT);
 1488              		.loc 2 425 19
 1489 0026 0123     		movs	r3, #1
 1490 0028 3B61     		str	r3, [r7, #16]
 426:d:/LiteOS_Lab/iot_link/os/liteos/base/ipc\los_queue.c ****     return osQueueOperate(uwQueueID, uwOperateType, pBufferAddr, &uwBufferSize, uwTimeOut);
 1491              		.loc 2 426 12
 1492 002a 3A1D     		adds	r2, r7, #4
 1493 002c 3B68     		ldr	r3, [r7]
 1494 002e 0093     		str	r3, [sp]
 1495 0030 1346     		mov	r3, r2
 1496 0032 BA68     		ldr	r2, [r7, #8]
 1497 0034 3969     		ldr	r1, [r7, #16]
 1498 0036 F868     		ldr	r0, [r7, #12]
 1499 0038 FFF7FEFF 		bl	osQueueOperate
 1500 003c 0346     		mov	r3, r0
 1501              	.L80:
 427:d:/LiteOS_Lab/iot_link/os/liteos/base/ipc\los_queue.c **** }
 1502              		.loc 2 427 1
 1503 003e 1846     		mov	r0, r3
 1504 0040 1837     		adds	r7, r7, #24
 1505              	.LCFI67:
 1506              		.cfi_def_cfa_offset 8
 1507 0042 BD46     		mov	sp, r7
 1508              	.LCFI68:
 1509              		.cfi_def_cfa_register 13
 1510              		@ sp needed
 1511 0044 80BD     		pop	{r7, pc}
 1512              		.cfi_endproc
 1513              	.LFE294:
 1515              		.section	.text.LOS_QueueWriteCopy,"ax",%progbits
 1516              		.align	1
 1517              		.global	LOS_QueueWriteCopy
 1518              		.syntax unified
 1519              		.thumb
 1520              		.thumb_func
 1521              		.fpu fpv4-sp-d16
 1523              	LOS_QueueWriteCopy:
 1524              	.LFB295:
 428:d:/LiteOS_Lab/iot_link/os/liteos/base/ipc\los_queue.c **** 
 429:d:/LiteOS_Lab/iot_link/os/liteos/base/ipc\los_queue.c **** /*****************************************************************************
 430:d:/LiteOS_Lab/iot_link/os/liteos/base/ipc\los_queue.c ****  Function    : LOS_QueueWriteCopy
 431:d:/LiteOS_Lab/iot_link/os/liteos/base/ipc\los_queue.c ****  Description : Write queue tail
 432:d:/LiteOS_Lab/iot_link/os/liteos/base/ipc\los_queue.c ****  Input       : uwQueueID
 433:d:/LiteOS_Lab/iot_link/os/liteos/base/ipc\los_queue.c ****                pBufferAddr
 434:d:/LiteOS_Lab/iot_link/os/liteos/base/ipc\los_queue.c ****                uwBufferSize
 435:d:/LiteOS_Lab/iot_link/os/liteos/base/ipc\los_queue.c ****                uwTimeOut
 436:d:/LiteOS_Lab/iot_link/os/liteos/base/ipc\los_queue.c ****  Output      : None
 437:d:/LiteOS_Lab/iot_link/os/liteos/base/ipc\los_queue.c ****  Return      : LOS_OK on success or error code on failure
 438:d:/LiteOS_Lab/iot_link/os/liteos/base/ipc\los_queue.c ****  *****************************************************************************/
 439:d:/LiteOS_Lab/iot_link/os/liteos/base/ipc\los_queue.c **** LITE_OS_SEC_TEXT UINT32 LOS_QueueWriteCopy( UINT32 uwQueueID,
 440:d:/LiteOS_Lab/iot_link/os/liteos/base/ipc\los_queue.c ****                                      VOID * pBufferAddr,
 441:d:/LiteOS_Lab/iot_link/os/liteos/base/ipc\los_queue.c ****                                      UINT32 uwBufferSize,
 442:d:/LiteOS_Lab/iot_link/os/liteos/base/ipc\los_queue.c ****                                      UINT32 uwTimeOut )
ARM GAS  C:\Users\ADMINI~1\AppData\Local\Temp\ccpUKxjn.s 			page 39


 443:d:/LiteOS_Lab/iot_link/os/liteos/base/ipc\los_queue.c **** {
 1525              		.loc 2 443 1
 1526              		.cfi_startproc
 1527              		@ args = 0, pretend = 0, frame = 24
 1528              		@ frame_needed = 1, uses_anonymous_args = 0
 1529 0000 80B5     		push	{r7, lr}
 1530              	.LCFI69:
 1531              		.cfi_def_cfa_offset 8
 1532              		.cfi_offset 7, -8
 1533              		.cfi_offset 14, -4
 1534 0002 88B0     		sub	sp, sp, #32
 1535              	.LCFI70:
 1536              		.cfi_def_cfa_offset 40
 1537 0004 02AF     		add	r7, sp, #8
 1538              	.LCFI71:
 1539              		.cfi_def_cfa 7, 32
 1540 0006 F860     		str	r0, [r7, #12]
 1541 0008 B960     		str	r1, [r7, #8]
 1542 000a 7A60     		str	r2, [r7, #4]
 1543 000c 3B60     		str	r3, [r7]
 444:d:/LiteOS_Lab/iot_link/os/liteos/base/ipc\los_queue.c ****     UINT32 uwRet;
 445:d:/LiteOS_Lab/iot_link/os/liteos/base/ipc\los_queue.c ****     UINT32 uwOperateType;
 446:d:/LiteOS_Lab/iot_link/os/liteos/base/ipc\los_queue.c **** 
 447:d:/LiteOS_Lab/iot_link/os/liteos/base/ipc\los_queue.c ****     uwRet = osQueueWriteParameterCheck(uwQueueID, pBufferAddr, &uwBufferSize, uwTimeOut);
 1544              		.loc 2 447 13
 1545 000e 3A1D     		adds	r2, r7, #4
 1546 0010 3B68     		ldr	r3, [r7]
 1547 0012 B968     		ldr	r1, [r7, #8]
 1548 0014 F868     		ldr	r0, [r7, #12]
 1549 0016 FFF7FEFF 		bl	osQueueWriteParameterCheck
 1550 001a 7861     		str	r0, [r7, #20]
 448:d:/LiteOS_Lab/iot_link/os/liteos/base/ipc\los_queue.c ****     if(uwRet != LOS_OK)
 1551              		.loc 2 448 7
 1552 001c 7B69     		ldr	r3, [r7, #20]
 1553 001e 002B     		cmp	r3, #0
 1554 0020 01D0     		beq	.L82
 449:d:/LiteOS_Lab/iot_link/os/liteos/base/ipc\los_queue.c ****     {
 450:d:/LiteOS_Lab/iot_link/os/liteos/base/ipc\los_queue.c ****         return uwRet;
 1555              		.loc 2 450 16
 1556 0022 7B69     		ldr	r3, [r7, #20]
 1557 0024 0BE0     		b	.L83
 1558              	.L82:
 451:d:/LiteOS_Lab/iot_link/os/liteos/base/ipc\los_queue.c ****     }
 452:d:/LiteOS_Lab/iot_link/os/liteos/base/ipc\los_queue.c **** 
 453:d:/LiteOS_Lab/iot_link/os/liteos/base/ipc\los_queue.c ****     uwOperateType = OS_QUEUE_OPERATE_TYPE(OS_QUEUE_WRITE, OS_QUEUE_TAIL, OS_QUEUE_NOT_POINT);
 1559              		.loc 2 453 19
 1560 0026 0323     		movs	r3, #3
 1561 0028 3B61     		str	r3, [r7, #16]
 454:d:/LiteOS_Lab/iot_link/os/liteos/base/ipc\los_queue.c ****     return osQueueOperate(uwQueueID, uwOperateType, pBufferAddr, &uwBufferSize, uwTimeOut);
 1562              		.loc 2 454 12
 1563 002a 3A1D     		adds	r2, r7, #4
 1564 002c 3B68     		ldr	r3, [r7]
 1565 002e 0093     		str	r3, [sp]
 1566 0030 1346     		mov	r3, r2
 1567 0032 BA68     		ldr	r2, [r7, #8]
 1568 0034 3969     		ldr	r1, [r7, #16]
 1569 0036 F868     		ldr	r0, [r7, #12]
ARM GAS  C:\Users\ADMINI~1\AppData\Local\Temp\ccpUKxjn.s 			page 40


 1570 0038 FFF7FEFF 		bl	osQueueOperate
 1571 003c 0346     		mov	r3, r0
 1572              	.L83:
 455:d:/LiteOS_Lab/iot_link/os/liteos/base/ipc\los_queue.c **** }
 1573              		.loc 2 455 1
 1574 003e 1846     		mov	r0, r3
 1575 0040 1837     		adds	r7, r7, #24
 1576              	.LCFI72:
 1577              		.cfi_def_cfa_offset 8
 1578 0042 BD46     		mov	sp, r7
 1579              	.LCFI73:
 1580              		.cfi_def_cfa_register 13
 1581              		@ sp needed
 1582 0044 80BD     		pop	{r7, pc}
 1583              		.cfi_endproc
 1584              	.LFE295:
 1586              		.section	.text.LOS_QueueRead,"ax",%progbits
 1587              		.align	1
 1588              		.global	LOS_QueueRead
 1589              		.syntax unified
 1590              		.thumb
 1591              		.thumb_func
 1592              		.fpu fpv4-sp-d16
 1594              	LOS_QueueRead:
 1595              	.LFB296:
 456:d:/LiteOS_Lab/iot_link/os/liteos/base/ipc\los_queue.c **** 
 457:d:/LiteOS_Lab/iot_link/os/liteos/base/ipc\los_queue.c **** /*****************************************************************************
 458:d:/LiteOS_Lab/iot_link/os/liteos/base/ipc\los_queue.c ****  Function    : LOS_QueueRead
 459:d:/LiteOS_Lab/iot_link/os/liteos/base/ipc\los_queue.c ****  Description : read queue
 460:d:/LiteOS_Lab/iot_link/os/liteos/base/ipc\los_queue.c ****  Input       : uwQueueID
 461:d:/LiteOS_Lab/iot_link/os/liteos/base/ipc\los_queue.c ****                uwBufferSize
 462:d:/LiteOS_Lab/iot_link/os/liteos/base/ipc\los_queue.c ****                uwTimeOut
 463:d:/LiteOS_Lab/iot_link/os/liteos/base/ipc\los_queue.c ****  Output      : pBufferAddr
 464:d:/LiteOS_Lab/iot_link/os/liteos/base/ipc\los_queue.c ****  Return      : LOS_OK on success or error code on failure
 465:d:/LiteOS_Lab/iot_link/os/liteos/base/ipc\los_queue.c ****  *****************************************************************************/
 466:d:/LiteOS_Lab/iot_link/os/liteos/base/ipc\los_queue.c **** LITE_OS_SEC_TEXT UINT32 LOS_QueueRead(UINT32  uwQueueID, VOID *pBufferAddr, UINT32 uwBufferSize, UI
 467:d:/LiteOS_Lab/iot_link/os/liteos/base/ipc\los_queue.c **** {
 1596              		.loc 2 467 1
 1597              		.cfi_startproc
 1598              		@ args = 0, pretend = 0, frame = 24
 1599              		@ frame_needed = 1, uses_anonymous_args = 0
 1600 0000 80B5     		push	{r7, lr}
 1601              	.LCFI74:
 1602              		.cfi_def_cfa_offset 8
 1603              		.cfi_offset 7, -8
 1604              		.cfi_offset 14, -4
 1605 0002 88B0     		sub	sp, sp, #32
 1606              	.LCFI75:
 1607              		.cfi_def_cfa_offset 40
 1608 0004 02AF     		add	r7, sp, #8
 1609              	.LCFI76:
 1610              		.cfi_def_cfa 7, 32
 1611 0006 F860     		str	r0, [r7, #12]
 1612 0008 B960     		str	r1, [r7, #8]
 1613 000a 7A60     		str	r2, [r7, #4]
 1614 000c 3B60     		str	r3, [r7]
 468:d:/LiteOS_Lab/iot_link/os/liteos/base/ipc\los_queue.c ****     UINT32 uwRet;
ARM GAS  C:\Users\ADMINI~1\AppData\Local\Temp\ccpUKxjn.s 			page 41


 469:d:/LiteOS_Lab/iot_link/os/liteos/base/ipc\los_queue.c ****     UINT32 uwOperateType;
 470:d:/LiteOS_Lab/iot_link/os/liteos/base/ipc\los_queue.c **** 
 471:d:/LiteOS_Lab/iot_link/os/liteos/base/ipc\los_queue.c ****     uwRet = osQueueReadParameterCheck(uwQueueID, pBufferAddr, &uwBufferSize, uwTimeOut);
 1615              		.loc 2 471 13
 1616 000e 3A1D     		adds	r2, r7, #4
 1617 0010 3B68     		ldr	r3, [r7]
 1618 0012 B968     		ldr	r1, [r7, #8]
 1619 0014 F868     		ldr	r0, [r7, #12]
 1620 0016 FFF7FEFF 		bl	osQueueReadParameterCheck
 1621 001a 7861     		str	r0, [r7, #20]
 472:d:/LiteOS_Lab/iot_link/os/liteos/base/ipc\los_queue.c ****     if(uwRet != LOS_OK)
 1622              		.loc 2 472 7
 1623 001c 7B69     		ldr	r3, [r7, #20]
 1624 001e 002B     		cmp	r3, #0
 1625 0020 01D0     		beq	.L85
 473:d:/LiteOS_Lab/iot_link/os/liteos/base/ipc\los_queue.c ****     {
 474:d:/LiteOS_Lab/iot_link/os/liteos/base/ipc\los_queue.c ****         return uwRet;
 1626              		.loc 2 474 16
 1627 0022 7B69     		ldr	r3, [r7, #20]
 1628 0024 0BE0     		b	.L86
 1629              	.L85:
 475:d:/LiteOS_Lab/iot_link/os/liteos/base/ipc\los_queue.c ****     }
 476:d:/LiteOS_Lab/iot_link/os/liteos/base/ipc\los_queue.c **** 
 477:d:/LiteOS_Lab/iot_link/os/liteos/base/ipc\los_queue.c ****     uwOperateType = OS_QUEUE_OPERATE_TYPE(OS_QUEUE_READ, OS_QUEUE_HEAD, OS_QUEUE_POINT);
 1630              		.loc 2 477 19
 1631 0026 0423     		movs	r3, #4
 1632 0028 3B61     		str	r3, [r7, #16]
 478:d:/LiteOS_Lab/iot_link/os/liteos/base/ipc\los_queue.c ****     return osQueueOperate(uwQueueID, uwOperateType, pBufferAddr, &uwBufferSize, uwTimeOut);
 1633              		.loc 2 478 12
 1634 002a 3A1D     		adds	r2, r7, #4
 1635 002c 3B68     		ldr	r3, [r7]
 1636 002e 0093     		str	r3, [sp]
 1637 0030 1346     		mov	r3, r2
 1638 0032 BA68     		ldr	r2, [r7, #8]
 1639 0034 3969     		ldr	r1, [r7, #16]
 1640 0036 F868     		ldr	r0, [r7, #12]
 1641 0038 FFF7FEFF 		bl	osQueueOperate
 1642 003c 0346     		mov	r3, r0
 1643              	.L86:
 479:d:/LiteOS_Lab/iot_link/os/liteos/base/ipc\los_queue.c **** }
 1644              		.loc 2 479 1
 1645 003e 1846     		mov	r0, r3
 1646 0040 1837     		adds	r7, r7, #24
 1647              	.LCFI77:
 1648              		.cfi_def_cfa_offset 8
 1649 0042 BD46     		mov	sp, r7
 1650              	.LCFI78:
 1651              		.cfi_def_cfa_register 13
 1652              		@ sp needed
 1653 0044 80BD     		pop	{r7, pc}
 1654              		.cfi_endproc
 1655              	.LFE296:
 1657              		.section	.text.LOS_QueueWrite,"ax",%progbits
 1658              		.align	1
 1659              		.global	LOS_QueueWrite
 1660              		.syntax unified
 1661              		.thumb
ARM GAS  C:\Users\ADMINI~1\AppData\Local\Temp\ccpUKxjn.s 			page 42


 1662              		.thumb_func
 1663              		.fpu fpv4-sp-d16
 1665              	LOS_QueueWrite:
 1666              	.LFB297:
 480:d:/LiteOS_Lab/iot_link/os/liteos/base/ipc\los_queue.c **** 
 481:d:/LiteOS_Lab/iot_link/os/liteos/base/ipc\los_queue.c **** /*****************************************************************************
 482:d:/LiteOS_Lab/iot_link/os/liteos/base/ipc\los_queue.c ****  Function    : LOS_QueueWrite
 483:d:/LiteOS_Lab/iot_link/os/liteos/base/ipc\los_queue.c ****  Description : Write queue tail
 484:d:/LiteOS_Lab/iot_link/os/liteos/base/ipc\los_queue.c ****  Input       : uwQueueID
 485:d:/LiteOS_Lab/iot_link/os/liteos/base/ipc\los_queue.c ****                pBufferAddr
 486:d:/LiteOS_Lab/iot_link/os/liteos/base/ipc\los_queue.c ****                uwBufferSize
 487:d:/LiteOS_Lab/iot_link/os/liteos/base/ipc\los_queue.c ****                uwTimeOut
 488:d:/LiteOS_Lab/iot_link/os/liteos/base/ipc\los_queue.c ****  Output      : None
 489:d:/LiteOS_Lab/iot_link/os/liteos/base/ipc\los_queue.c ****  Return      : LOS_OK on success or error code on failure
 490:d:/LiteOS_Lab/iot_link/os/liteos/base/ipc\los_queue.c ****  *****************************************************************************/
 491:d:/LiteOS_Lab/iot_link/os/liteos/base/ipc\los_queue.c **** LITE_OS_SEC_TEXT UINT32 LOS_QueueWrite(UINT32 uwQueueID, VOID *pBufferAddr, UINT32 uwBufferSize, UI
 492:d:/LiteOS_Lab/iot_link/os/liteos/base/ipc\los_queue.c **** {
 1667              		.loc 2 492 1
 1668              		.cfi_startproc
 1669              		@ args = 0, pretend = 0, frame = 24
 1670              		@ frame_needed = 1, uses_anonymous_args = 0
 1671 0000 80B5     		push	{r7, lr}
 1672              	.LCFI79:
 1673              		.cfi_def_cfa_offset 8
 1674              		.cfi_offset 7, -8
 1675              		.cfi_offset 14, -4
 1676 0002 88B0     		sub	sp, sp, #32
 1677              	.LCFI80:
 1678              		.cfi_def_cfa_offset 40
 1679 0004 02AF     		add	r7, sp, #8
 1680              	.LCFI81:
 1681              		.cfi_def_cfa 7, 32
 1682 0006 F860     		str	r0, [r7, #12]
 1683 0008 B960     		str	r1, [r7, #8]
 1684 000a 7A60     		str	r2, [r7, #4]
 1685 000c 3B60     		str	r3, [r7]
 493:d:/LiteOS_Lab/iot_link/os/liteos/base/ipc\los_queue.c ****     UINT32 uwRet;
 494:d:/LiteOS_Lab/iot_link/os/liteos/base/ipc\los_queue.c ****     UINT32 uwOperateType;
 495:d:/LiteOS_Lab/iot_link/os/liteos/base/ipc\los_queue.c **** 
 496:d:/LiteOS_Lab/iot_link/os/liteos/base/ipc\los_queue.c ****     uwBufferSize = sizeof(UINT32*);
 1686              		.loc 2 496 18
 1687 000e 0423     		movs	r3, #4
 1688 0010 7B60     		str	r3, [r7, #4]
 497:d:/LiteOS_Lab/iot_link/os/liteos/base/ipc\los_queue.c **** 
 498:d:/LiteOS_Lab/iot_link/os/liteos/base/ipc\los_queue.c ****     uwRet = osQueueWriteParameterCheck(uwQueueID, pBufferAddr, &uwBufferSize, uwTimeOut);
 1689              		.loc 2 498 13
 1690 0012 B968     		ldr	r1, [r7, #8]
 1691 0014 3A1D     		adds	r2, r7, #4
 1692 0016 3B68     		ldr	r3, [r7]
 1693 0018 F868     		ldr	r0, [r7, #12]
 1694 001a FFF7FEFF 		bl	osQueueWriteParameterCheck
 1695 001e 7861     		str	r0, [r7, #20]
 499:d:/LiteOS_Lab/iot_link/os/liteos/base/ipc\los_queue.c ****     if(uwRet != LOS_OK)
 1696              		.loc 2 499 7
 1697 0020 7B69     		ldr	r3, [r7, #20]
 1698 0022 002B     		cmp	r3, #0
 1699 0024 01D0     		beq	.L88
ARM GAS  C:\Users\ADMINI~1\AppData\Local\Temp\ccpUKxjn.s 			page 43


 500:d:/LiteOS_Lab/iot_link/os/liteos/base/ipc\los_queue.c ****     {
 501:d:/LiteOS_Lab/iot_link/os/liteos/base/ipc\los_queue.c ****         return uwRet;
 1700              		.loc 2 501 16
 1701 0026 7B69     		ldr	r3, [r7, #20]
 1702 0028 0CE0     		b	.L89
 1703              	.L88:
 502:d:/LiteOS_Lab/iot_link/os/liteos/base/ipc\los_queue.c ****     }
 503:d:/LiteOS_Lab/iot_link/os/liteos/base/ipc\los_queue.c **** 
 504:d:/LiteOS_Lab/iot_link/os/liteos/base/ipc\los_queue.c ****     uwOperateType = OS_QUEUE_OPERATE_TYPE(OS_QUEUE_WRITE, OS_QUEUE_TAIL, OS_QUEUE_POINT);
 1704              		.loc 2 504 19
 1705 002a 0723     		movs	r3, #7
 1706 002c 3B61     		str	r3, [r7, #16]
 505:d:/LiteOS_Lab/iot_link/os/liteos/base/ipc\los_queue.c ****     return osQueueOperate(uwQueueID, uwOperateType, &pBufferAddr, &uwBufferSize, uwTimeOut);
 1707              		.loc 2 505 12
 1708 002e 391D     		adds	r1, r7, #4
 1709 0030 07F10802 		add	r2, r7, #8
 1710 0034 3B68     		ldr	r3, [r7]
 1711 0036 0093     		str	r3, [sp]
 1712 0038 0B46     		mov	r3, r1
 1713 003a 3969     		ldr	r1, [r7, #16]
 1714 003c F868     		ldr	r0, [r7, #12]
 1715 003e FFF7FEFF 		bl	osQueueOperate
 1716 0042 0346     		mov	r3, r0
 1717              	.L89:
 506:d:/LiteOS_Lab/iot_link/os/liteos/base/ipc\los_queue.c **** }
 1718              		.loc 2 506 1
 1719 0044 1846     		mov	r0, r3
 1720 0046 1837     		adds	r7, r7, #24
 1721              	.LCFI82:
 1722              		.cfi_def_cfa_offset 8
 1723 0048 BD46     		mov	sp, r7
 1724              	.LCFI83:
 1725              		.cfi_def_cfa_register 13
 1726              		@ sp needed
 1727 004a 80BD     		pop	{r7, pc}
 1728              		.cfi_endproc
 1729              	.LFE297:
 1731              		.section	.text.LOS_QueueWriteHead,"ax",%progbits
 1732              		.align	1
 1733              		.global	LOS_QueueWriteHead
 1734              		.syntax unified
 1735              		.thumb
 1736              		.thumb_func
 1737              		.fpu fpv4-sp-d16
 1739              	LOS_QueueWriteHead:
 1740              	.LFB298:
 507:d:/LiteOS_Lab/iot_link/os/liteos/base/ipc\los_queue.c **** 
 508:d:/LiteOS_Lab/iot_link/os/liteos/base/ipc\los_queue.c **** /*****************************************************************************
 509:d:/LiteOS_Lab/iot_link/os/liteos/base/ipc\los_queue.c ****  Function    : LOS_QueueWriteHead
 510:d:/LiteOS_Lab/iot_link/os/liteos/base/ipc\los_queue.c ****  Description : write queue head
 511:d:/LiteOS_Lab/iot_link/os/liteos/base/ipc\los_queue.c ****  Input       : uwQueueID
 512:d:/LiteOS_Lab/iot_link/os/liteos/base/ipc\los_queue.c ****                pBufferAddr
 513:d:/LiteOS_Lab/iot_link/os/liteos/base/ipc\los_queue.c ****                uwBufferSize
 514:d:/LiteOS_Lab/iot_link/os/liteos/base/ipc\los_queue.c ****                uwTimeOut
 515:d:/LiteOS_Lab/iot_link/os/liteos/base/ipc\los_queue.c ****  Output      : None
 516:d:/LiteOS_Lab/iot_link/os/liteos/base/ipc\los_queue.c ****  Return      : LOS_OK on success or error code on failure
 517:d:/LiteOS_Lab/iot_link/os/liteos/base/ipc\los_queue.c ****  *****************************************************************************/
ARM GAS  C:\Users\ADMINI~1\AppData\Local\Temp\ccpUKxjn.s 			page 44


 518:d:/LiteOS_Lab/iot_link/os/liteos/base/ipc\los_queue.c **** LITE_OS_SEC_TEXT UINT32 LOS_QueueWriteHead( UINT32 uwQueueID,
 519:d:/LiteOS_Lab/iot_link/os/liteos/base/ipc\los_queue.c ****                                      VOID * pBufferAddr,
 520:d:/LiteOS_Lab/iot_link/os/liteos/base/ipc\los_queue.c ****                                      UINT32 uwBufferSize,
 521:d:/LiteOS_Lab/iot_link/os/liteos/base/ipc\los_queue.c ****                                      UINT32 uwTimeOut )
 522:d:/LiteOS_Lab/iot_link/os/liteos/base/ipc\los_queue.c **** {
 1741              		.loc 2 522 1
 1742              		.cfi_startproc
 1743              		@ args = 0, pretend = 0, frame = 16
 1744              		@ frame_needed = 1, uses_anonymous_args = 0
 1745 0000 80B5     		push	{r7, lr}
 1746              	.LCFI84:
 1747              		.cfi_def_cfa_offset 8
 1748              		.cfi_offset 7, -8
 1749              		.cfi_offset 14, -4
 1750 0002 84B0     		sub	sp, sp, #16
 1751              	.LCFI85:
 1752              		.cfi_def_cfa_offset 24
 1753 0004 00AF     		add	r7, sp, #0
 1754              	.LCFI86:
 1755              		.cfi_def_cfa_register 7
 1756 0006 F860     		str	r0, [r7, #12]
 1757 0008 B960     		str	r1, [r7, #8]
 1758 000a 7A60     		str	r2, [r7, #4]
 1759 000c 3B60     		str	r3, [r7]
 523:d:/LiteOS_Lab/iot_link/os/liteos/base/ipc\los_queue.c ****     if(pBufferAddr == NULL)
 1760              		.loc 2 523 20
 1761 000e BB68     		ldr	r3, [r7, #8]
 1762              		.loc 2 523 7
 1763 0010 002B     		cmp	r3, #0
 1764 0012 01D1     		bne	.L91
 524:d:/LiteOS_Lab/iot_link/os/liteos/base/ipc\los_queue.c ****     {
 525:d:/LiteOS_Lab/iot_link/os/liteos/base/ipc\los_queue.c ****         return LOS_ERRNO_QUEUE_WRITE_PTR_NULL;
 1765              		.loc 2 525 16
 1766 0014 074B     		ldr	r3, .L93
 1767 0016 09E0     		b	.L92
 1768              	.L91:
 526:d:/LiteOS_Lab/iot_link/os/liteos/base/ipc\los_queue.c ****     }
 527:d:/LiteOS_Lab/iot_link/os/liteos/base/ipc\los_queue.c ****     uwBufferSize = sizeof(UINT32*);
 1769              		.loc 2 527 18
 1770 0018 0423     		movs	r3, #4
 1771 001a 7B60     		str	r3, [r7, #4]
 528:d:/LiteOS_Lab/iot_link/os/liteos/base/ipc\los_queue.c ****     return LOS_QueueWriteHeadCopy(uwQueueID, &pBufferAddr, uwBufferSize, uwTimeOut);
 1772              		.loc 2 528 12
 1773 001c 07F10801 		add	r1, r7, #8
 1774 0020 3B68     		ldr	r3, [r7]
 1775 0022 7A68     		ldr	r2, [r7, #4]
 1776 0024 F868     		ldr	r0, [r7, #12]
 1777 0026 FFF7FEFF 		bl	LOS_QueueWriteHeadCopy
 1778 002a 0346     		mov	r3, r0
 1779              	.L92:
 529:d:/LiteOS_Lab/iot_link/os/liteos/base/ipc\los_queue.c **** }
 1780              		.loc 2 529 1
 1781 002c 1846     		mov	r0, r3
 1782 002e 1037     		adds	r7, r7, #16
 1783              	.LCFI87:
 1784              		.cfi_def_cfa_offset 8
 1785 0030 BD46     		mov	sp, r7
ARM GAS  C:\Users\ADMINI~1\AppData\Local\Temp\ccpUKxjn.s 			page 45


 1786              	.LCFI88:
 1787              		.cfi_def_cfa_register 13
 1788              		@ sp needed
 1789 0032 80BD     		pop	{r7, pc}
 1790              	.L94:
 1791              		.align	2
 1792              	.L93:
 1793 0034 12060002 		.word	33555986
 1794              		.cfi_endproc
 1795              	.LFE298:
 1797              		.section	.text.osQueueMailAlloc,"ax",%progbits
 1798              		.align	1
 1799              		.global	osQueueMailAlloc
 1800              		.syntax unified
 1801              		.thumb
 1802              		.thumb_func
 1803              		.fpu fpv4-sp-d16
 1805              	osQueueMailAlloc:
 1806              	.LFB299:
 530:d:/LiteOS_Lab/iot_link/os/liteos/base/ipc\los_queue.c **** 
 531:d:/LiteOS_Lab/iot_link/os/liteos/base/ipc\los_queue.c **** /*****************************************************************************
 532:d:/LiteOS_Lab/iot_link/os/liteos/base/ipc\los_queue.c ****  Function    : osQueueMailAlloc
 533:d:/LiteOS_Lab/iot_link/os/liteos/base/ipc\los_queue.c ****  Description : Mail allocate memory
 534:d:/LiteOS_Lab/iot_link/os/liteos/base/ipc\los_queue.c ****  Input       : uwQueueID   --- QueueID
 535:d:/LiteOS_Lab/iot_link/os/liteos/base/ipc\los_queue.c ****              : pMailPool   --- MailPool
 536:d:/LiteOS_Lab/iot_link/os/liteos/base/ipc\los_queue.c ****              : uwTimeOut   --- TimeOut
 537:d:/LiteOS_Lab/iot_link/os/liteos/base/ipc\los_queue.c ****  Output      : None
 538:d:/LiteOS_Lab/iot_link/os/liteos/base/ipc\los_queue.c ****  Return      : pointer if success otherwise NULL
 539:d:/LiteOS_Lab/iot_link/os/liteos/base/ipc\los_queue.c ****  *****************************************************************************/
 540:d:/LiteOS_Lab/iot_link/os/liteos/base/ipc\los_queue.c **** LITE_OS_SEC_TEXT VOID *osQueueMailAlloc(UINT32  uwQueueID, VOID* pMailPool, UINT32 uwTimeOut)
 541:d:/LiteOS_Lab/iot_link/os/liteos/base/ipc\los_queue.c **** {
 1807              		.loc 2 541 1
 1808              		.cfi_startproc
 1809              		@ args = 0, pretend = 0, frame = 32
 1810              		@ frame_needed = 1, uses_anonymous_args = 0
 1811 0000 80B5     		push	{r7, lr}
 1812              	.LCFI89:
 1813              		.cfi_def_cfa_offset 8
 1814              		.cfi_offset 7, -8
 1815              		.cfi_offset 14, -4
 1816 0002 88B0     		sub	sp, sp, #32
 1817              	.LCFI90:
 1818              		.cfi_def_cfa_offset 40
 1819 0004 00AF     		add	r7, sp, #0
 1820              	.LCFI91:
 1821              		.cfi_def_cfa_register 7
 1822 0006 F860     		str	r0, [r7, #12]
 1823 0008 B960     		str	r1, [r7, #8]
 1824 000a 7A60     		str	r2, [r7, #4]
 542:d:/LiteOS_Lab/iot_link/os/liteos/base/ipc\los_queue.c ****     VOID *pMem = (VOID *)NULL;
 1825              		.loc 2 542 11
 1826 000c 0023     		movs	r3, #0
 1827 000e FB61     		str	r3, [r7, #28]
 543:d:/LiteOS_Lab/iot_link/os/liteos/base/ipc\los_queue.c ****     UINTPTR uvIntSave;
 544:d:/LiteOS_Lab/iot_link/os/liteos/base/ipc\los_queue.c ****     QUEUE_CB_S *pstQueueCB = (QUEUE_CB_S *)NULL;
 1828              		.loc 2 544 17
 1829 0010 0023     		movs	r3, #0
ARM GAS  C:\Users\ADMINI~1\AppData\Local\Temp\ccpUKxjn.s 			page 46


 1830 0012 7B61     		str	r3, [r7, #20]
 545:d:/LiteOS_Lab/iot_link/os/liteos/base/ipc\los_queue.c ****     LOS_TASK_CB *pstRunTsk = (LOS_TASK_CB *)NULL;
 1831              		.loc 2 545 18
 1832 0014 0023     		movs	r3, #0
 1833 0016 3B61     		str	r3, [r7, #16]
 546:d:/LiteOS_Lab/iot_link/os/liteos/base/ipc\los_queue.c **** 
 547:d:/LiteOS_Lab/iot_link/os/liteos/base/ipc\los_queue.c ****     if (uwQueueID >= LOSCFG_BASE_IPC_QUEUE_LIMIT)
 1834              		.loc 2 547 8
 1835 0018 FB68     		ldr	r3, [r7, #12]
 1836 001a 092B     		cmp	r3, #9
 1837 001c 01D9     		bls	.L96
 548:d:/LiteOS_Lab/iot_link/os/liteos/base/ipc\los_queue.c ****     {
 549:d:/LiteOS_Lab/iot_link/os/liteos/base/ipc\los_queue.c ****         return NULL;
 1838              		.loc 2 549 16
 1839 001e 0023     		movs	r3, #0
 1840 0020 58E0     		b	.L97
 1841              	.L96:
 550:d:/LiteOS_Lab/iot_link/os/liteos/base/ipc\los_queue.c ****     }
 551:d:/LiteOS_Lab/iot_link/os/liteos/base/ipc\los_queue.c **** 
 552:d:/LiteOS_Lab/iot_link/os/liteos/base/ipc\los_queue.c ****     if (pMailPool == NULL)
 1842              		.loc 2 552 8
 1843 0022 BB68     		ldr	r3, [r7, #8]
 1844 0024 002B     		cmp	r3, #0
 1845 0026 01D1     		bne	.L98
 553:d:/LiteOS_Lab/iot_link/os/liteos/base/ipc\los_queue.c ****     {
 554:d:/LiteOS_Lab/iot_link/os/liteos/base/ipc\los_queue.c ****         return NULL;
 1846              		.loc 2 554 16
 1847 0028 0023     		movs	r3, #0
 1848 002a 53E0     		b	.L97
 1849              	.L98:
 555:d:/LiteOS_Lab/iot_link/os/liteos/base/ipc\los_queue.c ****     }
 556:d:/LiteOS_Lab/iot_link/os/liteos/base/ipc\los_queue.c **** 
 557:d:/LiteOS_Lab/iot_link/os/liteos/base/ipc\los_queue.c ****     if (LOS_NO_WAIT != uwTimeOut)
 1850              		.loc 2 557 8
 1851 002c 7B68     		ldr	r3, [r7, #4]
 1852 002e 002B     		cmp	r3, #0
 1853 0030 06D0     		beq	.L99
 558:d:/LiteOS_Lab/iot_link/os/liteos/base/ipc\los_queue.c ****     {
 559:d:/LiteOS_Lab/iot_link/os/liteos/base/ipc\los_queue.c ****         if (OS_INT_ACTIVE)
 1854              		.loc 2 559 13
 1855 0032 FFF7FEFF 		bl	osIntNumGet
 1856 0036 0346     		mov	r3, r0
 1857              		.loc 2 559 12
 1858 0038 002B     		cmp	r3, #0
 1859 003a 01D0     		beq	.L99
 560:d:/LiteOS_Lab/iot_link/os/liteos/base/ipc\los_queue.c ****         {
 561:d:/LiteOS_Lab/iot_link/os/liteos/base/ipc\los_queue.c ****             return NULL;
 1860              		.loc 2 561 20
 1861 003c 0023     		movs	r3, #0
 1862 003e 49E0     		b	.L97
 1863              	.L99:
 562:d:/LiteOS_Lab/iot_link/os/liteos/base/ipc\los_queue.c ****         }
 563:d:/LiteOS_Lab/iot_link/os/liteos/base/ipc\los_queue.c ****     }
 564:d:/LiteOS_Lab/iot_link/os/liteos/base/ipc\los_queue.c **** 
 565:d:/LiteOS_Lab/iot_link/os/liteos/base/ipc\los_queue.c ****     uvIntSave = LOS_IntLock();
 1864              		.loc 2 565 17
 1865 0040 FFF7FEFF 		bl	LOS_IntLock
ARM GAS  C:\Users\ADMINI~1\AppData\Local\Temp\ccpUKxjn.s 			page 47


 1866 0044 B861     		str	r0, [r7, #24]
 566:d:/LiteOS_Lab/iot_link/os/liteos/base/ipc\los_queue.c ****     pstQueueCB = GET_QUEUE_HANDLE(uwQueueID);
 1867              		.loc 2 566 18
 1868 0046 254B     		ldr	r3, .L107
 1869 0048 1A68     		ldr	r2, [r3]
 1870 004a FB68     		ldr	r3, [r7, #12]
 1871 004c 2C21     		movs	r1, #44
 1872 004e 01FB03F3 		mul	r3, r1, r3
 1873              		.loc 2 566 16
 1874 0052 1344     		add	r3, r3, r2
 1875 0054 7B61     		str	r3, [r7, #20]
 567:d:/LiteOS_Lab/iot_link/os/liteos/base/ipc\los_queue.c ****     if (OS_QUEUE_UNUSED == pstQueueCB->usQueueState)
 1876              		.loc 2 567 38
 1877 0056 7B69     		ldr	r3, [r7, #20]
 1878 0058 9B88     		ldrh	r3, [r3, #4]
 1879              		.loc 2 567 8
 1880 005a 002B     		cmp	r3, #0
 1881 005c 31D0     		beq	.L104
 568:d:/LiteOS_Lab/iot_link/os/liteos/base/ipc\los_queue.c ****     {
 569:d:/LiteOS_Lab/iot_link/os/liteos/base/ipc\los_queue.c ****         goto END;
 570:d:/LiteOS_Lab/iot_link/os/liteos/base/ipc\los_queue.c ****     }
 571:d:/LiteOS_Lab/iot_link/os/liteos/base/ipc\los_queue.c **** 
 572:d:/LiteOS_Lab/iot_link/os/liteos/base/ipc\los_queue.c ****     pMem = LOS_MemboxAlloc(pMailPool);
 1882              		.loc 2 572 12
 1883 005e B868     		ldr	r0, [r7, #8]
 1884 0060 FFF7FEFF 		bl	LOS_MemboxAlloc
 1885 0064 F861     		str	r0, [r7, #28]
 573:d:/LiteOS_Lab/iot_link/os/liteos/base/ipc\los_queue.c ****     if (NULL == pMem)
 1886              		.loc 2 573 8
 1887 0066 FB69     		ldr	r3, [r7, #28]
 1888 0068 002B     		cmp	r3, #0
 1889 006a 2CD1     		bne	.L105
 574:d:/LiteOS_Lab/iot_link/os/liteos/base/ipc\los_queue.c ****     {
 575:d:/LiteOS_Lab/iot_link/os/liteos/base/ipc\los_queue.c ****         if (uwTimeOut == LOS_NO_WAIT)
 1890              		.loc 2 575 12
 1891 006c 7B68     		ldr	r3, [r7, #4]
 1892 006e 002B     		cmp	r3, #0
 1893 0070 2BD0     		beq	.L106
 576:d:/LiteOS_Lab/iot_link/os/liteos/base/ipc\los_queue.c ****         {
 577:d:/LiteOS_Lab/iot_link/os/liteos/base/ipc\los_queue.c ****             goto END;
 578:d:/LiteOS_Lab/iot_link/os/liteos/base/ipc\los_queue.c ****         }
 579:d:/LiteOS_Lab/iot_link/os/liteos/base/ipc\los_queue.c **** 
 580:d:/LiteOS_Lab/iot_link/os/liteos/base/ipc\los_queue.c ****         pstRunTsk = (LOS_TASK_CB *)g_stLosTask.pstRunTask;
 1894              		.loc 2 580 19
 1895 0072 1B4B     		ldr	r3, .L107+4
 1896 0074 1B68     		ldr	r3, [r3]
 1897 0076 3B61     		str	r3, [r7, #16]
 581:d:/LiteOS_Lab/iot_link/os/liteos/base/ipc\los_queue.c ****         osTaskWait(&pstQueueCB->stMemList, OS_TASK_STATUS_PEND_QUEUE, uwTimeOut);
 1898              		.loc 2 581 9
 1899 0078 7B69     		ldr	r3, [r7, #20]
 1900 007a 2433     		adds	r3, r3, #36
 1901 007c 7A68     		ldr	r2, [r7, #4]
 1902 007e 4FF40051 		mov	r1, #8192
 1903 0082 1846     		mov	r0, r3
 1904 0084 FFF7FEFF 		bl	osTaskWait
 582:d:/LiteOS_Lab/iot_link/os/liteos/base/ipc\los_queue.c ****         LOS_IntRestore(uvIntSave);
 1905              		.loc 2 582 9
ARM GAS  C:\Users\ADMINI~1\AppData\Local\Temp\ccpUKxjn.s 			page 48


 1906 0088 B869     		ldr	r0, [r7, #24]
 1907 008a FFF7FEFF 		bl	LOS_IntRestore
 583:d:/LiteOS_Lab/iot_link/os/liteos/base/ipc\los_queue.c ****         LOS_Schedule();
 1908              		.loc 2 583 9
 1909 008e FFF7FEFF 		bl	LOS_Schedule
 584:d:/LiteOS_Lab/iot_link/os/liteos/base/ipc\los_queue.c **** 
 585:d:/LiteOS_Lab/iot_link/os/liteos/base/ipc\los_queue.c ****         uvIntSave = LOS_IntLock();
 1910              		.loc 2 585 21
 1911 0092 FFF7FEFF 		bl	LOS_IntLock
 1912 0096 B861     		str	r0, [r7, #24]
 586:d:/LiteOS_Lab/iot_link/os/liteos/base/ipc\los_queue.c ****         if (pstRunTsk->usTaskStatus & OS_TASK_STATUS_TIMEOUT)
 1913              		.loc 2 586 22
 1914 0098 3B69     		ldr	r3, [r7, #16]
 1915 009a 9B88     		ldrh	r3, [r3, #4]
 1916              		.loc 2 586 37
 1917 009c 03F04003 		and	r3, r3, #64
 1918              		.loc 2 586 12
 1919 00a0 002B     		cmp	r3, #0
 1920 00a2 07D0     		beq	.L103
 587:d:/LiteOS_Lab/iot_link/os/liteos/base/ipc\los_queue.c ****         {
 588:d:/LiteOS_Lab/iot_link/os/liteos/base/ipc\los_queue.c ****             pstRunTsk->usTaskStatus &= (~OS_TASK_STATUS_TIMEOUT);
 1921              		.loc 2 588 37
 1922 00a4 3B69     		ldr	r3, [r7, #16]
 1923 00a6 9B88     		ldrh	r3, [r3, #4]
 1924 00a8 23F04003 		bic	r3, r3, #64
 1925 00ac 9AB2     		uxth	r2, r3
 1926 00ae 3B69     		ldr	r3, [r7, #16]
 1927 00b0 9A80     		strh	r2, [r3, #4]	@ movhi
 589:d:/LiteOS_Lab/iot_link/os/liteos/base/ipc\los_queue.c ****             goto END;
 1928              		.loc 2 589 13
 1929 00b2 0BE0     		b	.L101
 1930              	.L103:
 590:d:/LiteOS_Lab/iot_link/os/liteos/base/ipc\los_queue.c ****         }
 591:d:/LiteOS_Lab/iot_link/os/liteos/base/ipc\los_queue.c ****         else
 592:d:/LiteOS_Lab/iot_link/os/liteos/base/ipc\los_queue.c ****         {
 593:d:/LiteOS_Lab/iot_link/os/liteos/base/ipc\los_queue.c ****             /* When enters the current branch, means the current task already got a available membo
 594:d:/LiteOS_Lab/iot_link/os/liteos/base/ipc\los_queue.c ****              * so the pstRunTsk->puwMsg can not be NULL.
 595:d:/LiteOS_Lab/iot_link/os/liteos/base/ipc\los_queue.c ****              */
 596:d:/LiteOS_Lab/iot_link/os/liteos/base/ipc\los_queue.c ****             pMem = pstRunTsk->puwMsg;
 1931              		.loc 2 596 18
 1932 00b4 3B69     		ldr	r3, [r7, #16]
 1933 00b6 1B6D     		ldr	r3, [r3, #80]
 1934 00b8 FB61     		str	r3, [r7, #28]
 597:d:/LiteOS_Lab/iot_link/os/liteos/base/ipc\los_queue.c ****             pstRunTsk->puwMsg = NULL;
 1935              		.loc 2 597 31
 1936 00ba 3B69     		ldr	r3, [r7, #16]
 1937 00bc 0022     		movs	r2, #0
 1938 00be 1A65     		str	r2, [r3, #80]
 1939 00c0 04E0     		b	.L101
 1940              	.L104:
 569:d:/LiteOS_Lab/iot_link/os/liteos/base/ipc\los_queue.c ****     }
 1941              		.loc 2 569 9
 1942 00c2 00BF     		nop
 1943 00c4 02E0     		b	.L101
 1944              	.L105:
 598:d:/LiteOS_Lab/iot_link/os/liteos/base/ipc\los_queue.c ****         }
 599:d:/LiteOS_Lab/iot_link/os/liteos/base/ipc\los_queue.c ****     }
ARM GAS  C:\Users\ADMINI~1\AppData\Local\Temp\ccpUKxjn.s 			page 49


 600:d:/LiteOS_Lab/iot_link/os/liteos/base/ipc\los_queue.c **** 
 601:d:/LiteOS_Lab/iot_link/os/liteos/base/ipc\los_queue.c **** END:
 1945              		.loc 2 601 1
 1946 00c6 00BF     		nop
 1947 00c8 00E0     		b	.L101
 1948              	.L106:
 577:d:/LiteOS_Lab/iot_link/os/liteos/base/ipc\los_queue.c ****         }
 1949              		.loc 2 577 13
 1950 00ca 00BF     		nop
 1951              	.L101:
 602:d:/LiteOS_Lab/iot_link/os/liteos/base/ipc\los_queue.c ****     LOS_IntRestore(uvIntSave);
 1952              		.loc 2 602 5
 1953 00cc B869     		ldr	r0, [r7, #24]
 1954 00ce FFF7FEFF 		bl	LOS_IntRestore
 603:d:/LiteOS_Lab/iot_link/os/liteos/base/ipc\los_queue.c ****     return pMem;
 1955              		.loc 2 603 12
 1956 00d2 FB69     		ldr	r3, [r7, #28]
 1957              	.L97:
 604:d:/LiteOS_Lab/iot_link/os/liteos/base/ipc\los_queue.c **** }
 1958              		.loc 2 604 1
 1959 00d4 1846     		mov	r0, r3
 1960 00d6 2037     		adds	r7, r7, #32
 1961              	.LCFI92:
 1962              		.cfi_def_cfa_offset 8
 1963 00d8 BD46     		mov	sp, r7
 1964              	.LCFI93:
 1965              		.cfi_def_cfa_register 13
 1966              		@ sp needed
 1967 00da 80BD     		pop	{r7, pc}
 1968              	.L108:
 1969              		.align	2
 1970              	.L107:
 1971 00dc 00000000 		.word	g_pstAllQueue
 1972 00e0 00000000 		.word	g_stLosTask
 1973              		.cfi_endproc
 1974              	.LFE299:
 1976              		.section	.text.osQueueMailFree,"ax",%progbits
 1977              		.align	1
 1978              		.global	osQueueMailFree
 1979              		.syntax unified
 1980              		.thumb
 1981              		.thumb_func
 1982              		.fpu fpv4-sp-d16
 1984              	osQueueMailFree:
 1985              	.LFB300:
 605:d:/LiteOS_Lab/iot_link/os/liteos/base/ipc\los_queue.c **** 
 606:d:/LiteOS_Lab/iot_link/os/liteos/base/ipc\los_queue.c **** /*****************************************************************************
 607:d:/LiteOS_Lab/iot_link/os/liteos/base/ipc\los_queue.c ****  Function    : osQueueMailFree
 608:d:/LiteOS_Lab/iot_link/os/liteos/base/ipc\los_queue.c ****  Description : Mail free memory
 609:d:/LiteOS_Lab/iot_link/os/liteos/base/ipc\los_queue.c ****  Input       : uwQueueID   --- QueueID
 610:d:/LiteOS_Lab/iot_link/os/liteos/base/ipc\los_queue.c ****              : pMailPool   --- MailPool
 611:d:/LiteOS_Lab/iot_link/os/liteos/base/ipc\los_queue.c ****  Output      : None
 612:d:/LiteOS_Lab/iot_link/os/liteos/base/ipc\los_queue.c ****  Return      : LOS_OK on success or error code on failure
 613:d:/LiteOS_Lab/iot_link/os/liteos/base/ipc\los_queue.c ****  *****************************************************************************/
 614:d:/LiteOS_Lab/iot_link/os/liteos/base/ipc\los_queue.c **** LITE_OS_SEC_TEXT UINT32 osQueueMailFree(UINT32  uwQueueID, VOID* pMailPool, VOID* pMailMem)
 615:d:/LiteOS_Lab/iot_link/os/liteos/base/ipc\los_queue.c **** {
 1986              		.loc 2 615 1
ARM GAS  C:\Users\ADMINI~1\AppData\Local\Temp\ccpUKxjn.s 			page 50


 1987              		.cfi_startproc
 1988              		@ args = 0, pretend = 0, frame = 32
 1989              		@ frame_needed = 1, uses_anonymous_args = 0
 1990 0000 80B5     		push	{r7, lr}
 1991              	.LCFI94:
 1992              		.cfi_def_cfa_offset 8
 1993              		.cfi_offset 7, -8
 1994              		.cfi_offset 14, -4
 1995 0002 88B0     		sub	sp, sp, #32
 1996              	.LCFI95:
 1997              		.cfi_def_cfa_offset 40
 1998 0004 00AF     		add	r7, sp, #0
 1999              	.LCFI96:
 2000              		.cfi_def_cfa_register 7
 2001 0006 F860     		str	r0, [r7, #12]
 2002 0008 B960     		str	r1, [r7, #8]
 2003 000a 7A60     		str	r2, [r7, #4]
 616:d:/LiteOS_Lab/iot_link/os/liteos/base/ipc\los_queue.c ****     VOID *pMem = (VOID *)NULL;
 2004              		.loc 2 616 11
 2005 000c 0023     		movs	r3, #0
 2006 000e FB61     		str	r3, [r7, #28]
 617:d:/LiteOS_Lab/iot_link/os/liteos/base/ipc\los_queue.c ****     UINTPTR uvIntSave;
 618:d:/LiteOS_Lab/iot_link/os/liteos/base/ipc\los_queue.c ****     QUEUE_CB_S *pstQueueCB = (QUEUE_CB_S *)NULL;
 2007              		.loc 2 618 17
 2008 0010 0023     		movs	r3, #0
 2009 0012 BB61     		str	r3, [r7, #24]
 619:d:/LiteOS_Lab/iot_link/os/liteos/base/ipc\los_queue.c ****     LOS_TASK_CB *pstResumedTask = (LOS_TASK_CB *)NULL;
 2010              		.loc 2 619 18
 2011 0014 0023     		movs	r3, #0
 2012 0016 7B61     		str	r3, [r7, #20]
 620:d:/LiteOS_Lab/iot_link/os/liteos/base/ipc\los_queue.c **** 
 621:d:/LiteOS_Lab/iot_link/os/liteos/base/ipc\los_queue.c ****     if (uwQueueID >= LOSCFG_BASE_IPC_QUEUE_LIMIT)
 2013              		.loc 2 621 8
 2014 0018 FB68     		ldr	r3, [r7, #12]
 2015 001a 092B     		cmp	r3, #9
 2016 001c 01D9     		bls	.L110
 622:d:/LiteOS_Lab/iot_link/os/liteos/base/ipc\los_queue.c ****     {
 623:d:/LiteOS_Lab/iot_link/os/liteos/base/ipc\los_queue.c ****         return LOS_ERRNO_QUEUE_MAIL_HANDLE_INVALID;
 2017              		.loc 2 623 16
 2018 001e 264B     		ldr	r3, .L117
 2019 0020 46E0     		b	.L111
 2020              	.L110:
 624:d:/LiteOS_Lab/iot_link/os/liteos/base/ipc\los_queue.c ****     }
 625:d:/LiteOS_Lab/iot_link/os/liteos/base/ipc\los_queue.c **** 
 626:d:/LiteOS_Lab/iot_link/os/liteos/base/ipc\los_queue.c ****     if (pMailPool == NULL)
 2021              		.loc 2 626 8
 2022 0022 BB68     		ldr	r3, [r7, #8]
 2023 0024 002B     		cmp	r3, #0
 2024 0026 01D1     		bne	.L112
 627:d:/LiteOS_Lab/iot_link/os/liteos/base/ipc\los_queue.c ****     {
 628:d:/LiteOS_Lab/iot_link/os/liteos/base/ipc\los_queue.c ****         return LOS_ERRNO_QUEUE_MAIL_PTR_INVALID;
 2025              		.loc 2 628 16
 2026 0028 244B     		ldr	r3, .L117+4
 2027 002a 41E0     		b	.L111
 2028              	.L112:
 629:d:/LiteOS_Lab/iot_link/os/liteos/base/ipc\los_queue.c ****     }
 630:d:/LiteOS_Lab/iot_link/os/liteos/base/ipc\los_queue.c **** 
ARM GAS  C:\Users\ADMINI~1\AppData\Local\Temp\ccpUKxjn.s 			page 51


 631:d:/LiteOS_Lab/iot_link/os/liteos/base/ipc\los_queue.c ****     uvIntSave = LOS_IntLock();
 2029              		.loc 2 631 17
 2030 002c FFF7FEFF 		bl	LOS_IntLock
 2031 0030 3861     		str	r0, [r7, #16]
 632:d:/LiteOS_Lab/iot_link/os/liteos/base/ipc\los_queue.c **** 
 633:d:/LiteOS_Lab/iot_link/os/liteos/base/ipc\los_queue.c ****     if (LOS_MemboxFree(pMailPool, pMailMem))
 2032              		.loc 2 633 9
 2033 0032 7968     		ldr	r1, [r7, #4]
 2034 0034 B868     		ldr	r0, [r7, #8]
 2035 0036 FFF7FEFF 		bl	LOS_MemboxFree
 2036 003a 0346     		mov	r3, r0
 2037              		.loc 2 633 8
 2038 003c 002B     		cmp	r3, #0
 2039 003e 04D0     		beq	.L113
 634:d:/LiteOS_Lab/iot_link/os/liteos/base/ipc\los_queue.c ****     {
 635:d:/LiteOS_Lab/iot_link/os/liteos/base/ipc\los_queue.c ****         LOS_IntRestore(uvIntSave);
 2040              		.loc 2 635 9
 2041 0040 3869     		ldr	r0, [r7, #16]
 2042 0042 FFF7FEFF 		bl	LOS_IntRestore
 636:d:/LiteOS_Lab/iot_link/os/liteos/base/ipc\los_queue.c ****         return LOS_ERRNO_QUEUE_MAIL_FREE_ERROR;
 2043              		.loc 2 636 16
 2044 0046 1E4B     		ldr	r3, .L117+8
 2045 0048 32E0     		b	.L111
 2046              	.L113:
 637:d:/LiteOS_Lab/iot_link/os/liteos/base/ipc\los_queue.c ****     }
 638:d:/LiteOS_Lab/iot_link/os/liteos/base/ipc\los_queue.c **** 
 639:d:/LiteOS_Lab/iot_link/os/liteos/base/ipc\los_queue.c ****     pstQueueCB = GET_QUEUE_HANDLE(uwQueueID);
 2047              		.loc 2 639 18
 2048 004a 1E4B     		ldr	r3, .L117+12
 2049 004c 1A68     		ldr	r2, [r3]
 2050 004e FB68     		ldr	r3, [r7, #12]
 2051 0050 2C21     		movs	r1, #44
 2052 0052 01FB03F3 		mul	r3, r1, r3
 2053              		.loc 2 639 16
 2054 0056 1344     		add	r3, r3, r2
 2055 0058 BB61     		str	r3, [r7, #24]
 640:d:/LiteOS_Lab/iot_link/os/liteos/base/ipc\los_queue.c ****     if (OS_QUEUE_UNUSED == pstQueueCB->usQueueState)
 2056              		.loc 2 640 38
 2057 005a BB69     		ldr	r3, [r7, #24]
 2058 005c 9B88     		ldrh	r3, [r3, #4]
 2059              		.loc 2 640 8
 2060 005e 002B     		cmp	r3, #0
 2061 0060 04D1     		bne	.L114
 641:d:/LiteOS_Lab/iot_link/os/liteos/base/ipc\los_queue.c ****     {
 642:d:/LiteOS_Lab/iot_link/os/liteos/base/ipc\los_queue.c ****         LOS_IntRestore(uvIntSave);
 2062              		.loc 2 642 9
 2063 0062 3869     		ldr	r0, [r7, #16]
 2064 0064 FFF7FEFF 		bl	LOS_IntRestore
 643:d:/LiteOS_Lab/iot_link/os/liteos/base/ipc\los_queue.c ****         return LOS_ERRNO_QUEUE_NOT_CREATE;
 2065              		.loc 2 643 16
 2066 0068 174B     		ldr	r3, .L117+16
 2067 006a 21E0     		b	.L111
 2068              	.L114:
 644:d:/LiteOS_Lab/iot_link/os/liteos/base/ipc\los_queue.c ****     }
 645:d:/LiteOS_Lab/iot_link/os/liteos/base/ipc\los_queue.c **** 
 646:d:/LiteOS_Lab/iot_link/os/liteos/base/ipc\los_queue.c ****     if (!LOS_ListEmpty(&pstQueueCB->stMemList))
 2069              		.loc 2 646 10
ARM GAS  C:\Users\ADMINI~1\AppData\Local\Temp\ccpUKxjn.s 			page 52


 2070 006c BB69     		ldr	r3, [r7, #24]
 2071 006e 2433     		adds	r3, r3, #36
 2072 0070 1846     		mov	r0, r3
 2073 0072 FFF7FEFF 		bl	LOS_ListEmpty
 2074 0076 0346     		mov	r3, r0
 2075              		.loc 2 646 8
 2076 0078 002B     		cmp	r3, #0
 2077 007a 15D1     		bne	.L115
 647:d:/LiteOS_Lab/iot_link/os/liteos/base/ipc\los_queue.c ****     {
 648:d:/LiteOS_Lab/iot_link/os/liteos/base/ipc\los_queue.c ****         pstResumedTask = OS_TCB_FROM_PENDLIST(LOS_DL_LIST_FIRST(&pstQueueCB->stMemList)); /*lint !e
 2078              		.loc 2 648 26
 2079 007c BB69     		ldr	r3, [r7, #24]
 2080 007e 9B6A     		ldr	r3, [r3, #40]
 2081              		.loc 2 648 24
 2082 0080 283B     		subs	r3, r3, #40
 2083 0082 7B61     		str	r3, [r7, #20]
 649:d:/LiteOS_Lab/iot_link/os/liteos/base/ipc\los_queue.c ****         osTaskWake(pstResumedTask, OS_TASK_STATUS_PEND_QUEUE);
 2084              		.loc 2 649 9
 2085 0084 4FF40051 		mov	r1, #8192
 2086 0088 7869     		ldr	r0, [r7, #20]
 2087 008a FFF7FEFF 		bl	osTaskWake
 650:d:/LiteOS_Lab/iot_link/os/liteos/base/ipc\los_queue.c ****         pMem = LOS_MemboxAlloc(pMailPool);
 2088              		.loc 2 650 16
 2089 008e B868     		ldr	r0, [r7, #8]
 2090 0090 FFF7FEFF 		bl	LOS_MemboxAlloc
 2091 0094 F861     		str	r0, [r7, #28]
 651:d:/LiteOS_Lab/iot_link/os/liteos/base/ipc\los_queue.c ****         /* At the state of LOS_IntLock, the allocation can not be failed after releasing succefully
 652:d:/LiteOS_Lab/iot_link/os/liteos/base/ipc\los_queue.c **** 
 653:d:/LiteOS_Lab/iot_link/os/liteos/base/ipc\los_queue.c ****         pstResumedTask->puwMsg = pMem;
 2092              		.loc 2 653 32
 2093 0096 7B69     		ldr	r3, [r7, #20]
 2094 0098 FA69     		ldr	r2, [r7, #28]
 2095 009a 1A65     		str	r2, [r3, #80]
 654:d:/LiteOS_Lab/iot_link/os/liteos/base/ipc\los_queue.c ****         LOS_IntRestore(uvIntSave);
 2096              		.loc 2 654 9
 2097 009c 3869     		ldr	r0, [r7, #16]
 2098 009e FFF7FEFF 		bl	LOS_IntRestore
 655:d:/LiteOS_Lab/iot_link/os/liteos/base/ipc\los_queue.c ****         LOS_Schedule();
 2099              		.loc 2 655 9
 2100 00a2 FFF7FEFF 		bl	LOS_Schedule
 2101 00a6 02E0     		b	.L116
 2102              	.L115:
 656:d:/LiteOS_Lab/iot_link/os/liteos/base/ipc\los_queue.c ****     }
 657:d:/LiteOS_Lab/iot_link/os/liteos/base/ipc\los_queue.c ****     else
 658:d:/LiteOS_Lab/iot_link/os/liteos/base/ipc\los_queue.c ****     {
 659:d:/LiteOS_Lab/iot_link/os/liteos/base/ipc\los_queue.c ****         LOS_IntRestore(uvIntSave);
 2103              		.loc 2 659 9
 2104 00a8 3869     		ldr	r0, [r7, #16]
 2105 00aa FFF7FEFF 		bl	LOS_IntRestore
 2106              	.L116:
 660:d:/LiteOS_Lab/iot_link/os/liteos/base/ipc\los_queue.c ****     }
 661:d:/LiteOS_Lab/iot_link/os/liteos/base/ipc\los_queue.c ****     return LOS_OK;
 2107              		.loc 2 661 12
 2108 00ae 0023     		movs	r3, #0
 2109              	.L111:
 662:d:/LiteOS_Lab/iot_link/os/liteos/base/ipc\los_queue.c **** }
 2110              		.loc 2 662 1
ARM GAS  C:\Users\ADMINI~1\AppData\Local\Temp\ccpUKxjn.s 			page 53


 2111 00b0 1846     		mov	r0, r3
 2112 00b2 2037     		adds	r7, r7, #32
 2113              	.LCFI97:
 2114              		.cfi_def_cfa_offset 8
 2115 00b4 BD46     		mov	sp, r7
 2116              	.LCFI98:
 2117              		.cfi_def_cfa_register 13
 2118              		@ sp needed
 2119 00b6 80BD     		pop	{r7, pc}
 2120              	.L118:
 2121              		.align	2
 2122              	.L117:
 2123 00b8 19060002 		.word	33555993
 2124 00bc 1A060002 		.word	33555994
 2125 00c0 1B060002 		.word	33555995
 2126 00c4 00000000 		.word	g_pstAllQueue
 2127 00c8 0A060002 		.word	33555978
 2128              		.cfi_endproc
 2129              	.LFE300:
 2131              		.section	.text.LOS_QueueDelete,"ax",%progbits
 2132              		.align	1
 2133              		.global	LOS_QueueDelete
 2134              		.syntax unified
 2135              		.thumb
 2136              		.thumb_func
 2137              		.fpu fpv4-sp-d16
 2139              	LOS_QueueDelete:
 2140              	.LFB301:
 663:d:/LiteOS_Lab/iot_link/os/liteos/base/ipc\los_queue.c **** 
 664:d:/LiteOS_Lab/iot_link/os/liteos/base/ipc\los_queue.c **** /*****************************************************************************
 665:d:/LiteOS_Lab/iot_link/os/liteos/base/ipc\los_queue.c ****  Function    : LOS_QueueDelete
 666:d:/LiteOS_Lab/iot_link/os/liteos/base/ipc\los_queue.c ****  Description : Delete a queue
 667:d:/LiteOS_Lab/iot_link/os/liteos/base/ipc\los_queue.c ****  Input       : puwQueueID   --- QueueID
 668:d:/LiteOS_Lab/iot_link/os/liteos/base/ipc\los_queue.c ****  Output      : None
 669:d:/LiteOS_Lab/iot_link/os/liteos/base/ipc\los_queue.c ****  Return      : LOS_OK on success or error code on failure
 670:d:/LiteOS_Lab/iot_link/os/liteos/base/ipc\los_queue.c ****  *****************************************************************************/
 671:d:/LiteOS_Lab/iot_link/os/liteos/base/ipc\los_queue.c **** LITE_OS_SEC_TEXT_INIT UINT32 LOS_QueueDelete(UINT32 uwQueueID)
 672:d:/LiteOS_Lab/iot_link/os/liteos/base/ipc\los_queue.c **** {
 2141              		.loc 2 672 1
 2142              		.cfi_startproc
 2143              		@ args = 0, pretend = 0, frame = 24
 2144              		@ frame_needed = 1, uses_anonymous_args = 0
 2145 0000 80B5     		push	{r7, lr}
 2146              	.LCFI99:
 2147              		.cfi_def_cfa_offset 8
 2148              		.cfi_offset 7, -8
 2149              		.cfi_offset 14, -4
 2150 0002 86B0     		sub	sp, sp, #24
 2151              	.LCFI100:
 2152              		.cfi_def_cfa_offset 32
 2153 0004 00AF     		add	r7, sp, #0
 2154              	.LCFI101:
 2155              		.cfi_def_cfa_register 7
 2156 0006 7860     		str	r0, [r7, #4]
 673:d:/LiteOS_Lab/iot_link/os/liteos/base/ipc\los_queue.c ****     QUEUE_CB_S *pstQueueCB;
 674:d:/LiteOS_Lab/iot_link/os/liteos/base/ipc\los_queue.c ****     UINT8 *pucQueue = NULL;
 2157              		.loc 2 674 12
ARM GAS  C:\Users\ADMINI~1\AppData\Local\Temp\ccpUKxjn.s 			page 54


 2158 0008 0023     		movs	r3, #0
 2159 000a 3B61     		str	r3, [r7, #16]
 675:d:/LiteOS_Lab/iot_link/os/liteos/base/ipc\los_queue.c ****     UINTPTR  uvIntSave;
 676:d:/LiteOS_Lab/iot_link/os/liteos/base/ipc\los_queue.c ****     UINT32 uwRet;
 677:d:/LiteOS_Lab/iot_link/os/liteos/base/ipc\los_queue.c **** 
 678:d:/LiteOS_Lab/iot_link/os/liteos/base/ipc\los_queue.c ****     if (uwQueueID >= LOSCFG_BASE_IPC_QUEUE_LIMIT)
 2160              		.loc 2 678 8
 2161 000c 7B68     		ldr	r3, [r7, #4]
 2162 000e 092B     		cmp	r3, #9
 2163 0010 01D9     		bls	.L120
 679:d:/LiteOS_Lab/iot_link/os/liteos/base/ipc\los_queue.c ****     {
 680:d:/LiteOS_Lab/iot_link/os/liteos/base/ipc\los_queue.c ****         return LOS_ERRNO_QUEUE_NOT_FOUND;
 2164              		.loc 2 680 16
 2165 0012 324B     		ldr	r3, .L128
 2166 0014 5EE0     		b	.L121
 2167              	.L120:
 681:d:/LiteOS_Lab/iot_link/os/liteos/base/ipc\los_queue.c ****     }
 682:d:/LiteOS_Lab/iot_link/os/liteos/base/ipc\los_queue.c **** 
 683:d:/LiteOS_Lab/iot_link/os/liteos/base/ipc\los_queue.c ****     uvIntSave = LOS_IntLock();
 2168              		.loc 2 683 17
 2169 0016 FFF7FEFF 		bl	LOS_IntLock
 2170 001a F860     		str	r0, [r7, #12]
 684:d:/LiteOS_Lab/iot_link/os/liteos/base/ipc\los_queue.c ****     pstQueueCB = (QUEUE_CB_S *)GET_QUEUE_HANDLE(uwQueueID);
 2171              		.loc 2 684 18
 2172 001c 304B     		ldr	r3, .L128+4
 2173 001e 1A68     		ldr	r2, [r3]
 2174              		.loc 2 684 32
 2175 0020 7B68     		ldr	r3, [r7, #4]
 2176 0022 2C21     		movs	r1, #44
 2177 0024 01FB03F3 		mul	r3, r1, r3
 2178              		.loc 2 684 16
 2179 0028 1344     		add	r3, r3, r2
 2180 002a BB60     		str	r3, [r7, #8]
 685:d:/LiteOS_Lab/iot_link/os/liteos/base/ipc\los_queue.c ****     if (OS_QUEUE_UNUSED == pstQueueCB->usQueueState)
 2181              		.loc 2 685 38
 2182 002c BB68     		ldr	r3, [r7, #8]
 2183 002e 9B88     		ldrh	r3, [r3, #4]
 2184              		.loc 2 685 8
 2185 0030 002B     		cmp	r3, #0
 2186 0032 02D1     		bne	.L122
 686:d:/LiteOS_Lab/iot_link/os/liteos/base/ipc\los_queue.c ****     {
 687:d:/LiteOS_Lab/iot_link/os/liteos/base/ipc\los_queue.c ****         uwRet = LOS_ERRNO_QUEUE_NOT_CREATE;
 2187              		.loc 2 687 15
 2188 0034 2B4B     		ldr	r3, .L128+8
 2189 0036 7B61     		str	r3, [r7, #20]
 688:d:/LiteOS_Lab/iot_link/os/liteos/base/ipc\los_queue.c ****         goto QUEUE_END;
 2190              		.loc 2 688 9
 2191 0038 48E0     		b	.L123
 2192              	.L122:
 689:d:/LiteOS_Lab/iot_link/os/liteos/base/ipc\los_queue.c ****     }
 690:d:/LiteOS_Lab/iot_link/os/liteos/base/ipc\los_queue.c **** 
 691:d:/LiteOS_Lab/iot_link/os/liteos/base/ipc\los_queue.c ****     if (!LOS_ListEmpty(&pstQueueCB->stReadWriteList[OS_QUEUE_READ]))
 2193              		.loc 2 691 10
 2194 003a BB68     		ldr	r3, [r7, #8]
 2195 003c 1433     		adds	r3, r3, #20
 2196 003e 1846     		mov	r0, r3
 2197 0040 FFF7FEFF 		bl	LOS_ListEmpty
ARM GAS  C:\Users\ADMINI~1\AppData\Local\Temp\ccpUKxjn.s 			page 55


 2198 0044 0346     		mov	r3, r0
 2199              		.loc 2 691 8
 2200 0046 002B     		cmp	r3, #0
 2201 0048 02D1     		bne	.L124
 692:d:/LiteOS_Lab/iot_link/os/liteos/base/ipc\los_queue.c ****     {
 693:d:/LiteOS_Lab/iot_link/os/liteos/base/ipc\los_queue.c ****         uwRet = LOS_ERRNO_QUEUE_IN_TSKUSE;
 2202              		.loc 2 693 15
 2203 004a 274B     		ldr	r3, .L128+12
 2204 004c 7B61     		str	r3, [r7, #20]
 694:d:/LiteOS_Lab/iot_link/os/liteos/base/ipc\los_queue.c ****         goto QUEUE_END;
 2205              		.loc 2 694 9
 2206 004e 3DE0     		b	.L123
 2207              	.L124:
 695:d:/LiteOS_Lab/iot_link/os/liteos/base/ipc\los_queue.c ****     }
 696:d:/LiteOS_Lab/iot_link/os/liteos/base/ipc\los_queue.c **** 
 697:d:/LiteOS_Lab/iot_link/os/liteos/base/ipc\los_queue.c ****     if (!LOS_ListEmpty(&pstQueueCB->stReadWriteList[OS_QUEUE_WRITE]))
 2208              		.loc 2 697 10
 2209 0050 BB68     		ldr	r3, [r7, #8]
 2210 0052 1C33     		adds	r3, r3, #28
 2211 0054 1846     		mov	r0, r3
 2212 0056 FFF7FEFF 		bl	LOS_ListEmpty
 2213 005a 0346     		mov	r3, r0
 2214              		.loc 2 697 8
 2215 005c 002B     		cmp	r3, #0
 2216 005e 02D1     		bne	.L125
 698:d:/LiteOS_Lab/iot_link/os/liteos/base/ipc\los_queue.c ****     {
 699:d:/LiteOS_Lab/iot_link/os/liteos/base/ipc\los_queue.c ****         uwRet = LOS_ERRNO_QUEUE_IN_TSKUSE;
 2217              		.loc 2 699 15
 2218 0060 214B     		ldr	r3, .L128+12
 2219 0062 7B61     		str	r3, [r7, #20]
 700:d:/LiteOS_Lab/iot_link/os/liteos/base/ipc\los_queue.c ****         goto QUEUE_END;
 2220              		.loc 2 700 9
 2221 0064 32E0     		b	.L123
 2222              	.L125:
 701:d:/LiteOS_Lab/iot_link/os/liteos/base/ipc\los_queue.c ****     }
 702:d:/LiteOS_Lab/iot_link/os/liteos/base/ipc\los_queue.c **** 
 703:d:/LiteOS_Lab/iot_link/os/liteos/base/ipc\los_queue.c ****     if (!LOS_ListEmpty(&pstQueueCB->stMemList))
 2223              		.loc 2 703 10
 2224 0066 BB68     		ldr	r3, [r7, #8]
 2225 0068 2433     		adds	r3, r3, #36
 2226 006a 1846     		mov	r0, r3
 2227 006c FFF7FEFF 		bl	LOS_ListEmpty
 2228 0070 0346     		mov	r3, r0
 2229              		.loc 2 703 8
 2230 0072 002B     		cmp	r3, #0
 2231 0074 02D1     		bne	.L126
 704:d:/LiteOS_Lab/iot_link/os/liteos/base/ipc\los_queue.c ****     {
 705:d:/LiteOS_Lab/iot_link/os/liteos/base/ipc\los_queue.c ****         uwRet = LOS_ERRNO_QUEUE_IN_TSKUSE;
 2232              		.loc 2 705 15
 2233 0076 1C4B     		ldr	r3, .L128+12
 2234 0078 7B61     		str	r3, [r7, #20]
 706:d:/LiteOS_Lab/iot_link/os/liteos/base/ipc\los_queue.c ****         goto QUEUE_END;
 2235              		.loc 2 706 9
 2236 007a 27E0     		b	.L123
 2237              	.L126:
 707:d:/LiteOS_Lab/iot_link/os/liteos/base/ipc\los_queue.c ****     }
 708:d:/LiteOS_Lab/iot_link/os/liteos/base/ipc\los_queue.c **** 
ARM GAS  C:\Users\ADMINI~1\AppData\Local\Temp\ccpUKxjn.s 			page 56


 709:d:/LiteOS_Lab/iot_link/os/liteos/base/ipc\los_queue.c ****     if ((pstQueueCB->usReadWriteableCnt[OS_QUEUE_WRITE] + pstQueueCB->usReadWriteableCnt[OS_QUEUE_R
 2238              		.loc 2 709 40
 2239 007c BB68     		ldr	r3, [r7, #8]
 2240 007e 5B8A     		ldrh	r3, [r3, #18]
 2241 0080 1A46     		mov	r2, r3
 2242              		.loc 2 709 89
 2243 0082 BB68     		ldr	r3, [r7, #8]
 2244 0084 1B8A     		ldrh	r3, [r3, #16]
 2245              		.loc 2 709 57
 2246 0086 1344     		add	r3, r3, r2
 2247              		.loc 2 709 119
 2248 0088 BA68     		ldr	r2, [r7, #8]
 2249 008a D288     		ldrh	r2, [r2, #6]
 2250              		.loc 2 709 8
 2251 008c 9342     		cmp	r3, r2
 2252 008e 02D0     		beq	.L127
 710:d:/LiteOS_Lab/iot_link/os/liteos/base/ipc\los_queue.c ****     {
 711:d:/LiteOS_Lab/iot_link/os/liteos/base/ipc\los_queue.c ****         uwRet = LOS_ERRNO_QUEUE_IN_TSKWRITE;
 2253              		.loc 2 711 15
 2254 0090 164B     		ldr	r3, .L128+16
 2255 0092 7B61     		str	r3, [r7, #20]
 712:d:/LiteOS_Lab/iot_link/os/liteos/base/ipc\los_queue.c ****         goto QUEUE_END;
 2256              		.loc 2 712 9
 2257 0094 1AE0     		b	.L123
 2258              	.L127:
 713:d:/LiteOS_Lab/iot_link/os/liteos/base/ipc\los_queue.c ****     }
 714:d:/LiteOS_Lab/iot_link/os/liteos/base/ipc\los_queue.c **** 
 715:d:/LiteOS_Lab/iot_link/os/liteos/base/ipc\los_queue.c ****     pucQueue = pstQueueCB->pucQueue;
 2259              		.loc 2 715 14
 2260 0096 BB68     		ldr	r3, [r7, #8]
 2261 0098 1B68     		ldr	r3, [r3]
 2262 009a 3B61     		str	r3, [r7, #16]
 716:d:/LiteOS_Lab/iot_link/os/liteos/base/ipc\los_queue.c ****     pstQueueCB->pucQueue = (UINT8 *)NULL;
 2263              		.loc 2 716 26
 2264 009c BB68     		ldr	r3, [r7, #8]
 2265 009e 0022     		movs	r2, #0
 2266 00a0 1A60     		str	r2, [r3]
 717:d:/LiteOS_Lab/iot_link/os/liteos/base/ipc\los_queue.c ****     pstQueueCB->usQueueState = OS_QUEUE_UNUSED;
 2267              		.loc 2 717 30
 2268 00a2 BB68     		ldr	r3, [r7, #8]
 2269 00a4 0022     		movs	r2, #0
 2270 00a6 9A80     		strh	r2, [r3, #4]	@ movhi
 718:d:/LiteOS_Lab/iot_link/os/liteos/base/ipc\los_queue.c ****     LOS_ListAdd(&g_stFreeQueueList, &pstQueueCB->stReadWriteList[OS_QUEUE_WRITE]);
 2271              		.loc 2 718 5
 2272 00a8 BB68     		ldr	r3, [r7, #8]
 2273 00aa 1C33     		adds	r3, r3, #28
 2274 00ac 1946     		mov	r1, r3
 2275 00ae 1048     		ldr	r0, .L128+20
 2276 00b0 FFF7FEFF 		bl	LOS_ListAdd
 719:d:/LiteOS_Lab/iot_link/os/liteos/base/ipc\los_queue.c ****     LOS_IntRestore(uvIntSave);
 2277              		.loc 2 719 5
 2278 00b4 F868     		ldr	r0, [r7, #12]
 2279 00b6 FFF7FEFF 		bl	LOS_IntRestore
 720:d:/LiteOS_Lab/iot_link/os/liteos/base/ipc\los_queue.c **** 
 721:d:/LiteOS_Lab/iot_link/os/liteos/base/ipc\los_queue.c ****     uwRet = LOS_MemFree(m_aucSysMem0, (VOID *)pucQueue);
 2280              		.loc 2 721 13
 2281 00ba 0E4B     		ldr	r3, .L128+24
ARM GAS  C:\Users\ADMINI~1\AppData\Local\Temp\ccpUKxjn.s 			page 57


 2282 00bc 1B68     		ldr	r3, [r3]
 2283 00be 3969     		ldr	r1, [r7, #16]
 2284 00c0 1846     		mov	r0, r3
 2285 00c2 FFF7FEFF 		bl	LOS_MemFree
 2286 00c6 7861     		str	r0, [r7, #20]
 722:d:/LiteOS_Lab/iot_link/os/liteos/base/ipc\los_queue.c ****     return uwRet;
 2287              		.loc 2 722 12
 2288 00c8 7B69     		ldr	r3, [r7, #20]
 2289 00ca 03E0     		b	.L121
 2290              	.L123:
 723:d:/LiteOS_Lab/iot_link/os/liteos/base/ipc\los_queue.c **** 
 724:d:/LiteOS_Lab/iot_link/os/liteos/base/ipc\los_queue.c **** QUEUE_END:
 725:d:/LiteOS_Lab/iot_link/os/liteos/base/ipc\los_queue.c ****     LOS_IntRestore(uvIntSave);
 2291              		.loc 2 725 5
 2292 00cc F868     		ldr	r0, [r7, #12]
 2293 00ce FFF7FEFF 		bl	LOS_IntRestore
 726:d:/LiteOS_Lab/iot_link/os/liteos/base/ipc\los_queue.c ****     return uwRet;
 2294              		.loc 2 726 12
 2295 00d2 7B69     		ldr	r3, [r7, #20]
 2296              	.L121:
 727:d:/LiteOS_Lab/iot_link/os/liteos/base/ipc\los_queue.c **** }
 2297              		.loc 2 727 1
 2298 00d4 1846     		mov	r0, r3
 2299 00d6 1837     		adds	r7, r7, #24
 2300              	.LCFI102:
 2301              		.cfi_def_cfa_offset 8
 2302 00d8 BD46     		mov	sp, r7
 2303              	.LCFI103:
 2304              		.cfi_def_cfa_register 13
 2305              		@ sp needed
 2306 00da 80BD     		pop	{r7, pc}
 2307              	.L129:
 2308              		.align	2
 2309              	.L128:
 2310 00dc 05060002 		.word	33555973
 2311 00e0 00000000 		.word	g_pstAllQueue
 2312 00e4 0A060002 		.word	33555978
 2313 00e8 08060002 		.word	33555976
 2314 00ec 0B060002 		.word	33555979
 2315 00f0 00000000 		.word	g_stFreeQueueList
 2316 00f4 00000000 		.word	m_aucSysMem0
 2317              		.cfi_endproc
 2318              	.LFE301:
 2320              		.section	.text.LOS_QueueInfoGet,"ax",%progbits
 2321              		.align	1
 2322              		.global	LOS_QueueInfoGet
 2323              		.syntax unified
 2324              		.thumb
 2325              		.thumb_func
 2326              		.fpu fpv4-sp-d16
 2328              	LOS_QueueInfoGet:
 2329              	.LFB302:
 728:d:/LiteOS_Lab/iot_link/os/liteos/base/ipc\los_queue.c **** 
 729:d:/LiteOS_Lab/iot_link/os/liteos/base/ipc\los_queue.c **** /*****************************************************************************
 730:d:/LiteOS_Lab/iot_link/os/liteos/base/ipc\los_queue.c ****  Function    : LOS_QueueInfoGet
 731:d:/LiteOS_Lab/iot_link/os/liteos/base/ipc\los_queue.c ****  Description : Get queue infomation
 732:d:/LiteOS_Lab/iot_link/os/liteos/base/ipc\los_queue.c ****  Input       : puwQueueID   --- QueueID
ARM GAS  C:\Users\ADMINI~1\AppData\Local\Temp\ccpUKxjn.s 			page 58


 733:d:/LiteOS_Lab/iot_link/os/liteos/base/ipc\los_queue.c ****  Output      : pstQueueInfo
 734:d:/LiteOS_Lab/iot_link/os/liteos/base/ipc\los_queue.c ****  Return      : LOS_OK on success or error code on failure
 735:d:/LiteOS_Lab/iot_link/os/liteos/base/ipc\los_queue.c ****  *****************************************************************************/
 736:d:/LiteOS_Lab/iot_link/os/liteos/base/ipc\los_queue.c **** LITE_OS_SEC_TEXT_MINOR UINT32 LOS_QueueInfoGet(UINT32 uwQueueID, QUEUE_INFO_S *pstQueueInfo)
 737:d:/LiteOS_Lab/iot_link/os/liteos/base/ipc\los_queue.c **** {
 2330              		.loc 2 737 1
 2331              		.cfi_startproc
 2332              		@ args = 0, pretend = 0, frame = 24
 2333              		@ frame_needed = 1, uses_anonymous_args = 0
 2334 0000 80B5     		push	{r7, lr}
 2335              	.LCFI104:
 2336              		.cfi_def_cfa_offset 8
 2337              		.cfi_offset 7, -8
 2338              		.cfi_offset 14, -4
 2339 0002 86B0     		sub	sp, sp, #24
 2340              	.LCFI105:
 2341              		.cfi_def_cfa_offset 32
 2342 0004 00AF     		add	r7, sp, #0
 2343              	.LCFI106:
 2344              		.cfi_def_cfa_register 7
 2345 0006 7860     		str	r0, [r7, #4]
 2346 0008 3960     		str	r1, [r7]
 738:d:/LiteOS_Lab/iot_link/os/liteos/base/ipc\los_queue.c ****     UINTPTR uvIntSave;
 739:d:/LiteOS_Lab/iot_link/os/liteos/base/ipc\los_queue.c ****     UINT32 uwRet = LOS_OK;
 2347              		.loc 2 739 12
 2348 000a 0023     		movs	r3, #0
 2349 000c 7B61     		str	r3, [r7, #20]
 740:d:/LiteOS_Lab/iot_link/os/liteos/base/ipc\los_queue.c ****     QUEUE_CB_S *pstQueueCB;
 741:d:/LiteOS_Lab/iot_link/os/liteos/base/ipc\los_queue.c ****     LOS_TASK_CB *pstTskCB;
 742:d:/LiteOS_Lab/iot_link/os/liteos/base/ipc\los_queue.c **** 
 743:d:/LiteOS_Lab/iot_link/os/liteos/base/ipc\los_queue.c ****     if (NULL == pstQueueInfo)
 2350              		.loc 2 743 8
 2351 000e 3B68     		ldr	r3, [r7]
 2352 0010 002B     		cmp	r3, #0
 2353 0012 01D1     		bne	.L131
 744:d:/LiteOS_Lab/iot_link/os/liteos/base/ipc\los_queue.c ****     {
 745:d:/LiteOS_Lab/iot_link/os/liteos/base/ipc\los_queue.c ****         return LOS_ERRNO_QUEUE_PTR_NULL;
 2354              		.loc 2 745 16
 2355 0014 474B     		ldr	r3, .L142
 2356 0016 89E0     		b	.L132
 2357              	.L131:
 746:d:/LiteOS_Lab/iot_link/os/liteos/base/ipc\los_queue.c ****     }
 747:d:/LiteOS_Lab/iot_link/os/liteos/base/ipc\los_queue.c **** 
 748:d:/LiteOS_Lab/iot_link/os/liteos/base/ipc\los_queue.c ****     if (uwQueueID >= LOSCFG_BASE_IPC_QUEUE_LIMIT)
 2358              		.loc 2 748 8
 2359 0018 7B68     		ldr	r3, [r7, #4]
 2360 001a 092B     		cmp	r3, #9
 2361 001c 01D9     		bls	.L133
 749:d:/LiteOS_Lab/iot_link/os/liteos/base/ipc\los_queue.c ****     {
 750:d:/LiteOS_Lab/iot_link/os/liteos/base/ipc\los_queue.c ****         return LOS_ERRNO_QUEUE_INVALID;
 2362              		.loc 2 750 16
 2363 001e 464B     		ldr	r3, .L142+4
 2364 0020 84E0     		b	.L132
 2365              	.L133:
 751:d:/LiteOS_Lab/iot_link/os/liteos/base/ipc\los_queue.c ****     }
 752:d:/LiteOS_Lab/iot_link/os/liteos/base/ipc\los_queue.c **** 
 753:d:/LiteOS_Lab/iot_link/os/liteos/base/ipc\los_queue.c ****     (VOID)memset((VOID *)pstQueueInfo, 0, sizeof(QUEUE_INFO_S));
ARM GAS  C:\Users\ADMINI~1\AppData\Local\Temp\ccpUKxjn.s 			page 59


 2366              		.loc 2 753 11
 2367 0022 1C22     		movs	r2, #28
 2368 0024 0021     		movs	r1, #0
 2369 0026 3868     		ldr	r0, [r7]
 2370 0028 FFF7FEFF 		bl	memset
 754:d:/LiteOS_Lab/iot_link/os/liteos/base/ipc\los_queue.c ****     uvIntSave = LOS_IntLock();
 2371              		.loc 2 754 17
 2372 002c FFF7FEFF 		bl	LOS_IntLock
 2373 0030 F860     		str	r0, [r7, #12]
 755:d:/LiteOS_Lab/iot_link/os/liteos/base/ipc\los_queue.c **** 
 756:d:/LiteOS_Lab/iot_link/os/liteos/base/ipc\los_queue.c ****     pstQueueCB = (QUEUE_CB_S *)GET_QUEUE_HANDLE(uwQueueID);
 2374              		.loc 2 756 18
 2375 0032 424B     		ldr	r3, .L142+8
 2376 0034 1A68     		ldr	r2, [r3]
 2377              		.loc 2 756 32
 2378 0036 7B68     		ldr	r3, [r7, #4]
 2379 0038 2C21     		movs	r1, #44
 2380 003a 01FB03F3 		mul	r3, r1, r3
 2381              		.loc 2 756 16
 2382 003e 1344     		add	r3, r3, r2
 2383 0040 BB60     		str	r3, [r7, #8]
 757:d:/LiteOS_Lab/iot_link/os/liteos/base/ipc\los_queue.c **** 
 758:d:/LiteOS_Lab/iot_link/os/liteos/base/ipc\los_queue.c ****     if (OS_QUEUE_UNUSED == pstQueueCB->usQueueState)
 2384              		.loc 2 758 38
 2385 0042 BB68     		ldr	r3, [r7, #8]
 2386 0044 9B88     		ldrh	r3, [r3, #4]
 2387              		.loc 2 758 8
 2388 0046 002B     		cmp	r3, #0
 2389 0048 02D1     		bne	.L134
 759:d:/LiteOS_Lab/iot_link/os/liteos/base/ipc\los_queue.c ****     {
 760:d:/LiteOS_Lab/iot_link/os/liteos/base/ipc\los_queue.c ****         uwRet = LOS_ERRNO_QUEUE_NOT_CREATE;
 2390              		.loc 2 760 15
 2391 004a 3D4B     		ldr	r3, .L142+12
 2392 004c 7B61     		str	r3, [r7, #20]
 761:d:/LiteOS_Lab/iot_link/os/liteos/base/ipc\los_queue.c ****         goto QUEUE_END;
 2393              		.loc 2 761 9
 2394 004e 69E0     		b	.L135
 2395              	.L134:
 762:d:/LiteOS_Lab/iot_link/os/liteos/base/ipc\los_queue.c ****     }
 763:d:/LiteOS_Lab/iot_link/os/liteos/base/ipc\los_queue.c **** 
 764:d:/LiteOS_Lab/iot_link/os/liteos/base/ipc\los_queue.c ****     pstQueueInfo->uwQueueID = uwQueueID;
 2396              		.loc 2 764 29
 2397 0050 3B68     		ldr	r3, [r7]
 2398 0052 7A68     		ldr	r2, [r7, #4]
 2399 0054 1A60     		str	r2, [r3]
 765:d:/LiteOS_Lab/iot_link/os/liteos/base/ipc\los_queue.c ****     pstQueueInfo->usQueueLen = pstQueueCB->usQueueLen;
 2400              		.loc 2 765 42
 2401 0056 BB68     		ldr	r3, [r7, #8]
 2402 0058 DA88     		ldrh	r2, [r3, #6]
 2403              		.loc 2 765 30
 2404 005a 3B68     		ldr	r3, [r7]
 2405 005c 9A80     		strh	r2, [r3, #4]	@ movhi
 766:d:/LiteOS_Lab/iot_link/os/liteos/base/ipc\los_queue.c ****     pstQueueInfo->usQueueSize = pstQueueCB->usQueueSize;
 2406              		.loc 2 766 43
 2407 005e BB68     		ldr	r3, [r7, #8]
 2408 0060 1A89     		ldrh	r2, [r3, #8]
 2409              		.loc 2 766 31
ARM GAS  C:\Users\ADMINI~1\AppData\Local\Temp\ccpUKxjn.s 			page 60


 2410 0062 3B68     		ldr	r3, [r7]
 2411 0064 DA80     		strh	r2, [r3, #6]	@ movhi
 767:d:/LiteOS_Lab/iot_link/os/liteos/base/ipc\los_queue.c ****     pstQueueInfo->usQueueHead = pstQueueCB->usQueueHead;
 2412              		.loc 2 767 43
 2413 0066 BB68     		ldr	r3, [r7, #8]
 2414 0068 9A89     		ldrh	r2, [r3, #12]
 2415              		.loc 2 767 31
 2416 006a 3B68     		ldr	r3, [r7]
 2417 006c 1A81     		strh	r2, [r3, #8]	@ movhi
 768:d:/LiteOS_Lab/iot_link/os/liteos/base/ipc\los_queue.c ****     pstQueueInfo->usQueueTail = pstQueueCB->usQueueTail;
 2418              		.loc 2 768 43
 2419 006e BB68     		ldr	r3, [r7, #8]
 2420 0070 DA89     		ldrh	r2, [r3, #14]
 2421              		.loc 2 768 31
 2422 0072 3B68     		ldr	r3, [r7]
 2423 0074 5A81     		strh	r2, [r3, #10]	@ movhi
 769:d:/LiteOS_Lab/iot_link/os/liteos/base/ipc\los_queue.c ****     pstQueueInfo->usReadableCnt = pstQueueCB->usReadWriteableCnt[OS_QUEUE_READ];
 2424              		.loc 2 769 65
 2425 0076 BB68     		ldr	r3, [r7, #8]
 2426 0078 1A8A     		ldrh	r2, [r3, #16]
 2427              		.loc 2 769 33
 2428 007a 3B68     		ldr	r3, [r7]
 2429 007c DA81     		strh	r2, [r3, #14]	@ movhi
 770:d:/LiteOS_Lab/iot_link/os/liteos/base/ipc\los_queue.c ****     pstQueueInfo->usWritableCnt = pstQueueCB->usReadWriteableCnt[OS_QUEUE_WRITE];
 2430              		.loc 2 770 65
 2431 007e BB68     		ldr	r3, [r7, #8]
 2432 0080 5A8A     		ldrh	r2, [r3, #18]
 2433              		.loc 2 770 33
 2434 0082 3B68     		ldr	r3, [r7]
 2435 0084 9A81     		strh	r2, [r3, #12]	@ movhi
 771:d:/LiteOS_Lab/iot_link/os/liteos/base/ipc\los_queue.c **** 
 772:d:/LiteOS_Lab/iot_link/os/liteos/base/ipc\los_queue.c ****     LOS_DL_LIST_FOR_EACH_ENTRY(pstTskCB, &pstQueueCB->stReadWriteList[OS_QUEUE_READ], LOS_TASK_CB, 
 2436              		.loc 2 772 5
 2437 0086 BB68     		ldr	r3, [r7, #8]
 2438 0088 9B69     		ldr	r3, [r3, #24]
 2439 008a 283B     		subs	r3, r3, #40
 2440 008c 3B61     		str	r3, [r7, #16]
 2441 008e 0DE0     		b	.L136
 2442              	.L137:
 773:d:/LiteOS_Lab/iot_link/os/liteos/base/ipc\los_queue.c ****     {
 774:d:/LiteOS_Lab/iot_link/os/liteos/base/ipc\los_queue.c ****         pstQueueInfo->uwWaitReadTask |= (1 << pstTskCB->uwTaskID);
 2443              		.loc 2 774 38 discriminator 3
 2444 0090 3B68     		ldr	r3, [r7]
 2445 0092 1B69     		ldr	r3, [r3, #16]
 2446              		.loc 2 774 55 discriminator 3
 2447 0094 3A69     		ldr	r2, [r7, #16]
 2448 0096 1269     		ldr	r2, [r2, #16]
 2449              		.loc 2 774 44 discriminator 3
 2450 0098 0121     		movs	r1, #1
 2451 009a 01FA02F2 		lsl	r2, r1, r2
 2452              		.loc 2 774 38 discriminator 3
 2453 009e 1A43     		orrs	r2, r2, r3
 2454 00a0 3B68     		ldr	r3, [r7]
 2455 00a2 1A61     		str	r2, [r3, #16]
 772:d:/LiteOS_Lab/iot_link/os/liteos/base/ipc\los_queue.c ****     {
 2456              		.loc 2 772 5 discriminator 3
 2457 00a4 3B69     		ldr	r3, [r7, #16]
ARM GAS  C:\Users\ADMINI~1\AppData\Local\Temp\ccpUKxjn.s 			page 61


 2458 00a6 DB6A     		ldr	r3, [r3, #44]
 2459 00a8 283B     		subs	r3, r3, #40
 2460 00aa 3B61     		str	r3, [r7, #16]
 2461              	.L136:
 772:d:/LiteOS_Lab/iot_link/os/liteos/base/ipc\los_queue.c ****     {
 2462              		.loc 2 772 5 is_stmt 0 discriminator 1
 2463 00ac 3B69     		ldr	r3, [r7, #16]
 2464 00ae 03F12802 		add	r2, r3, #40
 2465 00b2 BB68     		ldr	r3, [r7, #8]
 2466 00b4 1433     		adds	r3, r3, #20
 2467 00b6 9A42     		cmp	r2, r3
 2468 00b8 EAD1     		bne	.L137
 775:d:/LiteOS_Lab/iot_link/os/liteos/base/ipc\los_queue.c ****     }
 776:d:/LiteOS_Lab/iot_link/os/liteos/base/ipc\los_queue.c **** 
 777:d:/LiteOS_Lab/iot_link/os/liteos/base/ipc\los_queue.c ****     LOS_DL_LIST_FOR_EACH_ENTRY(pstTskCB, &pstQueueCB->stReadWriteList[OS_QUEUE_WRITE], LOS_TASK_CB,
 2469              		.loc 2 777 5 is_stmt 1
 2470 00ba BB68     		ldr	r3, [r7, #8]
 2471 00bc 1B6A     		ldr	r3, [r3, #32]
 2472 00be 283B     		subs	r3, r3, #40
 2473 00c0 3B61     		str	r3, [r7, #16]
 2474 00c2 0DE0     		b	.L138
 2475              	.L139:
 778:d:/LiteOS_Lab/iot_link/os/liteos/base/ipc\los_queue.c ****     {
 779:d:/LiteOS_Lab/iot_link/os/liteos/base/ipc\los_queue.c ****         pstQueueInfo->uwWaitWriteTask |= (1 << pstTskCB->uwTaskID);
 2476              		.loc 2 779 39 discriminator 3
 2477 00c4 3B68     		ldr	r3, [r7]
 2478 00c6 5B69     		ldr	r3, [r3, #20]
 2479              		.loc 2 779 56 discriminator 3
 2480 00c8 3A69     		ldr	r2, [r7, #16]
 2481 00ca 1269     		ldr	r2, [r2, #16]
 2482              		.loc 2 779 45 discriminator 3
 2483 00cc 0121     		movs	r1, #1
 2484 00ce 01FA02F2 		lsl	r2, r1, r2
 2485              		.loc 2 779 39 discriminator 3
 2486 00d2 1A43     		orrs	r2, r2, r3
 2487 00d4 3B68     		ldr	r3, [r7]
 2488 00d6 5A61     		str	r2, [r3, #20]
 777:d:/LiteOS_Lab/iot_link/os/liteos/base/ipc\los_queue.c ****     {
 2489              		.loc 2 777 5 discriminator 3
 2490 00d8 3B69     		ldr	r3, [r7, #16]
 2491 00da DB6A     		ldr	r3, [r3, #44]
 2492 00dc 283B     		subs	r3, r3, #40
 2493 00de 3B61     		str	r3, [r7, #16]
 2494              	.L138:
 777:d:/LiteOS_Lab/iot_link/os/liteos/base/ipc\los_queue.c ****     {
 2495              		.loc 2 777 5 is_stmt 0 discriminator 1
 2496 00e0 3B69     		ldr	r3, [r7, #16]
 2497 00e2 03F12802 		add	r2, r3, #40
 2498 00e6 BB68     		ldr	r3, [r7, #8]
 2499 00e8 1C33     		adds	r3, r3, #28
 2500 00ea 9A42     		cmp	r2, r3
 2501 00ec EAD1     		bne	.L139
 780:d:/LiteOS_Lab/iot_link/os/liteos/base/ipc\los_queue.c ****     }
 781:d:/LiteOS_Lab/iot_link/os/liteos/base/ipc\los_queue.c **** 
 782:d:/LiteOS_Lab/iot_link/os/liteos/base/ipc\los_queue.c ****     LOS_DL_LIST_FOR_EACH_ENTRY(pstTskCB, &pstQueueCB->stMemList, LOS_TASK_CB, stPendList) /*lint !e
 2502              		.loc 2 782 5 is_stmt 1
 2503 00ee BB68     		ldr	r3, [r7, #8]
ARM GAS  C:\Users\ADMINI~1\AppData\Local\Temp\ccpUKxjn.s 			page 62


 2504 00f0 9B6A     		ldr	r3, [r3, #40]
 2505 00f2 283B     		subs	r3, r3, #40
 2506 00f4 3B61     		str	r3, [r7, #16]
 2507 00f6 0DE0     		b	.L140
 2508              	.L141:
 783:d:/LiteOS_Lab/iot_link/os/liteos/base/ipc\los_queue.c ****     {
 784:d:/LiteOS_Lab/iot_link/os/liteos/base/ipc\los_queue.c ****         pstQueueInfo->uwWaitMemTask |= (1 << pstTskCB->uwTaskID);
 2509              		.loc 2 784 37 discriminator 3
 2510 00f8 3B68     		ldr	r3, [r7]
 2511 00fa 9B69     		ldr	r3, [r3, #24]
 2512              		.loc 2 784 54 discriminator 3
 2513 00fc 3A69     		ldr	r2, [r7, #16]
 2514 00fe 1269     		ldr	r2, [r2, #16]
 2515              		.loc 2 784 43 discriminator 3
 2516 0100 0121     		movs	r1, #1
 2517 0102 01FA02F2 		lsl	r2, r1, r2
 2518              		.loc 2 784 37 discriminator 3
 2519 0106 1A43     		orrs	r2, r2, r3
 2520 0108 3B68     		ldr	r3, [r7]
 2521 010a 9A61     		str	r2, [r3, #24]
 782:d:/LiteOS_Lab/iot_link/os/liteos/base/ipc\los_queue.c ****     {
 2522              		.loc 2 782 5 discriminator 3
 2523 010c 3B69     		ldr	r3, [r7, #16]
 2524 010e DB6A     		ldr	r3, [r3, #44]
 2525 0110 283B     		subs	r3, r3, #40
 2526 0112 3B61     		str	r3, [r7, #16]
 2527              	.L140:
 782:d:/LiteOS_Lab/iot_link/os/liteos/base/ipc\los_queue.c ****     {
 2528              		.loc 2 782 5 is_stmt 0 discriminator 1
 2529 0114 3B69     		ldr	r3, [r7, #16]
 2530 0116 03F12802 		add	r2, r3, #40
 2531 011a BB68     		ldr	r3, [r7, #8]
 2532 011c 2433     		adds	r3, r3, #36
 2533 011e 9A42     		cmp	r2, r3
 2534 0120 EAD1     		bne	.L141
 785:d:/LiteOS_Lab/iot_link/os/liteos/base/ipc\los_queue.c ****     }
 786:d:/LiteOS_Lab/iot_link/os/liteos/base/ipc\los_queue.c **** 
 787:d:/LiteOS_Lab/iot_link/os/liteos/base/ipc\los_queue.c **** QUEUE_END:
 2535              		.loc 2 787 1 is_stmt 1
 2536 0122 00BF     		nop
 2537              	.L135:
 788:d:/LiteOS_Lab/iot_link/os/liteos/base/ipc\los_queue.c ****     LOS_IntRestore(uvIntSave);
 2538              		.loc 2 788 5
 2539 0124 F868     		ldr	r0, [r7, #12]
 2540 0126 FFF7FEFF 		bl	LOS_IntRestore
 789:d:/LiteOS_Lab/iot_link/os/liteos/base/ipc\los_queue.c ****     return uwRet;
 2541              		.loc 2 789 12
 2542 012a 7B69     		ldr	r3, [r7, #20]
 2543              	.L132:
 790:d:/LiteOS_Lab/iot_link/os/liteos/base/ipc\los_queue.c **** }
 2544              		.loc 2 790 1
 2545 012c 1846     		mov	r0, r3
 2546 012e 1837     		adds	r7, r7, #24
 2547              	.LCFI107:
 2548              		.cfi_def_cfa_offset 8
 2549 0130 BD46     		mov	sp, r7
 2550              	.LCFI108:
ARM GAS  C:\Users\ADMINI~1\AppData\Local\Temp\ccpUKxjn.s 			page 63


 2551              		.cfi_def_cfa_register 13
 2552              		@ sp needed
 2553 0132 80BD     		pop	{r7, pc}
 2554              	.L143:
 2555              		.align	2
 2556              	.L142:
 2557 0134 17060002 		.word	33555991
 2558 0138 0E060002 		.word	33555982
 2559 013c 00000000 		.word	g_pstAllQueue
 2560 0140 0A060002 		.word	33555978
 2561              		.cfi_endproc
 2562              	.LFE302:
 2564              		.text
 2565              	.Letext0:
 2566              		.file 3 "c:\\users\\administrator\\.huawei-liteos-studio\\tools\\arm-none-eabi\\arm-none-eabi\\inc
 2567              		.file 4 "c:\\users\\administrator\\.huawei-liteos-studio\\tools\\arm-none-eabi\\arm-none-eabi\\inc
 2568              		.file 5 "c:\\users\\administrator\\.huawei-liteos-studio\\tools\\arm-none-eabi\\arm-none-eabi\\inc
 2569              		.file 6 "c:\\users\\administrator\\.huawei-liteos-studio\\tools\\arm-none-eabi\\lib\\gcc\\arm-none
 2570              		.file 7 "c:\\users\\administrator\\.huawei-liteos-studio\\tools\\arm-none-eabi\\arm-none-eabi\\inc
 2571              		.file 8 "d:/LiteOS_Lab/iot_link/os/liteos/include/los_typedef.h"
 2572              		.file 9 "c:\\users\\administrator\\.huawei-liteos-studio\\tools\\arm-none-eabi\\arm-none-eabi\\inc
 2573              		.file 10 "d:/LiteOS_Lab/iot_link/os/liteos/arch/arm/common/cmsis/core_cm4.h"
 2574              		.file 11 "d:/LiteOS_Lab/targets/STM32L431VCT6_Bossay/Inc/system_stm32l4xx.h"
 2575              		.file 12 "d:/LiteOS_Lab/iot_link/os/liteos/arch/arm/arm-m/include/los_hwi.h"
 2576              		.file 13 "d:/LiteOS_Lab/iot_link/os/liteos/include/los_event.h"
 2577              		.file 14 "d:/LiteOS_Lab/iot_link/os/liteos/include/los_config.h"
 2578              		.file 15 "d:/LiteOS_Lab/iot_link/os/liteos/include/los_err.h"
 2579              		.file 16 "d:/LiteOS_Lab/iot_link/os/liteos/include/los_queue.h"
 2580              		.file 17 "d:/LiteOS_Lab/iot_link/os/liteos/base/include/los_queue.ph"
 2581              		.file 18 "d:/LiteOS_Lab/iot_link/os/liteos/include/los_memory.h"
 2582              		.file 19 "d:/LiteOS_Lab/iot_link/os/liteos/include/los_tick.h"
 2583              		.file 20 "d:/LiteOS_Lab/iot_link/os/liteos/include/los_task.h"
 2584              		.file 21 "d:/LiteOS_Lab/iot_link/os/liteos/base/include/los_task.ph"
ARM GAS  C:\Users\ADMINI~1\AppData\Local\Temp\ccpUKxjn.s 			page 64

