ARM GAS  /tmp/cclpoteW.s 			page 1


   1              		.cpu cortex-m4
   2              		.eabi_attribute 27, 1
   3              		.eabi_attribute 28, 1
   4              		.eabi_attribute 20, 1
   5              		.eabi_attribute 21, 1
   6              		.eabi_attribute 23, 3
   7              		.eabi_attribute 24, 1
   8              		.eabi_attribute 25, 1
   9              		.eabi_attribute 26, 1
  10              		.eabi_attribute 30, 6
  11              		.eabi_attribute 34, 1
  12              		.eabi_attribute 18, 4
  13              		.file	"los_hw.c"
  14              		.text
  15              	.Ltext0:
  16              		.cfi_sections	.debug_frame
  17              		.section	.text.osSchedule,"ax",%progbits
  18              		.align	1
  19              		.global	osSchedule
  20              		.arch armv7e-m
  21              		.syntax unified
  22              		.thumb
  23              		.thumb_func
  24              		.fpu fpv4-sp-d16
  26              	osSchedule:
  27              	.LFB133:
  28              		.file 1 "/home/fanxinhao/Work/LiteOS_Lab/iot_link/os/liteos/arch/arm/arm-m/src/los_hw.c"
   1:/home/fanxinhao/Work/LiteOS_Lab/iot_link/os/liteos/arch/arm/arm-m/src/los_hw.c **** /*----------------------------------------------------------------------------
   2:/home/fanxinhao/Work/LiteOS_Lab/iot_link/os/liteos/arch/arm/arm-m/src/los_hw.c ****  * Copyright (c) <2013-2018>, <Huawei Technologies Co., Ltd>
   3:/home/fanxinhao/Work/LiteOS_Lab/iot_link/os/liteos/arch/arm/arm-m/src/los_hw.c ****  * All rights reserved.
   4:/home/fanxinhao/Work/LiteOS_Lab/iot_link/os/liteos/arch/arm/arm-m/src/los_hw.c ****  * Redistribution and use in source and binary forms, with or without modification,
   5:/home/fanxinhao/Work/LiteOS_Lab/iot_link/os/liteos/arch/arm/arm-m/src/los_hw.c ****  * are permitted provided that the following conditions are met:
   6:/home/fanxinhao/Work/LiteOS_Lab/iot_link/os/liteos/arch/arm/arm-m/src/los_hw.c ****  * 1. Redistributions of source code must retain the above copyright notice, this list of
   7:/home/fanxinhao/Work/LiteOS_Lab/iot_link/os/liteos/arch/arm/arm-m/src/los_hw.c ****  * conditions and the following disclaimer.
   8:/home/fanxinhao/Work/LiteOS_Lab/iot_link/os/liteos/arch/arm/arm-m/src/los_hw.c ****  * 2. Redistributions in binary form must reproduce the above copyright notice, this list
   9:/home/fanxinhao/Work/LiteOS_Lab/iot_link/os/liteos/arch/arm/arm-m/src/los_hw.c ****  * of conditions and the following disclaimer in the documentation and/or other materials
  10:/home/fanxinhao/Work/LiteOS_Lab/iot_link/os/liteos/arch/arm/arm-m/src/los_hw.c ****  * provided with the distribution.
  11:/home/fanxinhao/Work/LiteOS_Lab/iot_link/os/liteos/arch/arm/arm-m/src/los_hw.c ****  * 3. Neither the name of the copyright holder nor the names of its contributors may be used
  12:/home/fanxinhao/Work/LiteOS_Lab/iot_link/os/liteos/arch/arm/arm-m/src/los_hw.c ****  * to endorse or promote products derived from this software without specific prior written
  13:/home/fanxinhao/Work/LiteOS_Lab/iot_link/os/liteos/arch/arm/arm-m/src/los_hw.c ****  * permission.
  14:/home/fanxinhao/Work/LiteOS_Lab/iot_link/os/liteos/arch/arm/arm-m/src/los_hw.c ****  * THIS SOFTWARE IS PROVIDED BY THE COPYRIGHT HOLDERS AND CONTRIBUTORS
  15:/home/fanxinhao/Work/LiteOS_Lab/iot_link/os/liteos/arch/arm/arm-m/src/los_hw.c ****  * "AS IS" AND ANY EXPRESS OR IMPLIED WARRANTIES, INCLUDING, BUT NOT LIMITED TO,
  16:/home/fanxinhao/Work/LiteOS_Lab/iot_link/os/liteos/arch/arm/arm-m/src/los_hw.c ****  * THE IMPLIED WARRANTIES OF MERCHANTABILITY AND FITNESS FOR A PARTICULAR
  17:/home/fanxinhao/Work/LiteOS_Lab/iot_link/os/liteos/arch/arm/arm-m/src/los_hw.c ****  * PURPOSE ARE DISCLAIMED. IN NO EVENT SHALL THE COPYRIGHT HOLDER OR
  18:/home/fanxinhao/Work/LiteOS_Lab/iot_link/os/liteos/arch/arm/arm-m/src/los_hw.c ****  * CONTRIBUTORS BE LIABLE FOR ANY DIRECT, INDIRECT, INCIDENTAL, SPECIAL,
  19:/home/fanxinhao/Work/LiteOS_Lab/iot_link/os/liteos/arch/arm/arm-m/src/los_hw.c ****  * EXEMPLARY, OR CONSEQUENTIAL DAMAGES (INCLUDING, BUT NOT LIMITED TO,
  20:/home/fanxinhao/Work/LiteOS_Lab/iot_link/os/liteos/arch/arm/arm-m/src/los_hw.c ****  * PROCUREMENT OF SUBSTITUTE GOODS OR SERVICES; LOSS OF USE, DATA, OR PROFITS;
  21:/home/fanxinhao/Work/LiteOS_Lab/iot_link/os/liteos/arch/arm/arm-m/src/los_hw.c ****  * OR BUSINESS INTERRUPTION) HOWEVER CAUSED AND ON ANY THEORY OF LIABILITY,
  22:/home/fanxinhao/Work/LiteOS_Lab/iot_link/os/liteos/arch/arm/arm-m/src/los_hw.c ****  * WHETHER IN CONTRACT, STRICT LIABILITY, OR TORT (INCLUDING NEGLIGENCE OR
  23:/home/fanxinhao/Work/LiteOS_Lab/iot_link/os/liteos/arch/arm/arm-m/src/los_hw.c ****  * OTHERWISE) ARISING IN ANY WAY OUT OF THE USE OF THIS SOFTWARE, EVEN IF
  24:/home/fanxinhao/Work/LiteOS_Lab/iot_link/os/liteos/arch/arm/arm-m/src/los_hw.c ****  * ADVISED OF THE POSSIBILITY OF SUCH DAMAGE.
  25:/home/fanxinhao/Work/LiteOS_Lab/iot_link/os/liteos/arch/arm/arm-m/src/los_hw.c ****  *---------------------------------------------------------------------------*/
  26:/home/fanxinhao/Work/LiteOS_Lab/iot_link/os/liteos/arch/arm/arm-m/src/los_hw.c **** /*----------------------------------------------------------------------------
  27:/home/fanxinhao/Work/LiteOS_Lab/iot_link/os/liteos/arch/arm/arm-m/src/los_hw.c ****  * Notice of Export Control Law
  28:/home/fanxinhao/Work/LiteOS_Lab/iot_link/os/liteos/arch/arm/arm-m/src/los_hw.c ****  * ===============================================
  29:/home/fanxinhao/Work/LiteOS_Lab/iot_link/os/liteos/arch/arm/arm-m/src/los_hw.c ****  * Huawei LiteOS may be subject to applicable export control laws and regulations, which might
  30:/home/fanxinhao/Work/LiteOS_Lab/iot_link/os/liteos/arch/arm/arm-m/src/los_hw.c ****  * include those applicable to Huawei LiteOS of U.S. and the country in which you are located.
ARM GAS  /tmp/cclpoteW.s 			page 2


  31:/home/fanxinhao/Work/LiteOS_Lab/iot_link/os/liteos/arch/arm/arm-m/src/los_hw.c ****  * Import, export and usage of Huawei LiteOS in any manner by you shall be in compliance with such
  32:/home/fanxinhao/Work/LiteOS_Lab/iot_link/os/liteos/arch/arm/arm-m/src/los_hw.c ****  * applicable export control laws and regulations.
  33:/home/fanxinhao/Work/LiteOS_Lab/iot_link/os/liteos/arch/arm/arm-m/src/los_hw.c ****  *---------------------------------------------------------------------------*/
  34:/home/fanxinhao/Work/LiteOS_Lab/iot_link/os/liteos/arch/arm/arm-m/src/los_hw.c **** 
  35:/home/fanxinhao/Work/LiteOS_Lab/iot_link/os/liteos/arch/arm/arm-m/src/los_hw.c **** #include "los_config.h"
  36:/home/fanxinhao/Work/LiteOS_Lab/iot_link/os/liteos/arch/arm/arm-m/src/los_hw.c **** #include "los_base.h"
  37:/home/fanxinhao/Work/LiteOS_Lab/iot_link/os/liteos/arch/arm/arm-m/src/los_hw.c **** #include "los_task.ph"
  38:/home/fanxinhao/Work/LiteOS_Lab/iot_link/os/liteos/arch/arm/arm-m/src/los_hw.c **** #include "los_hw.h"
  39:/home/fanxinhao/Work/LiteOS_Lab/iot_link/os/liteos/arch/arm/arm-m/src/los_hw.c **** #include "los_priqueue.ph"
  40:/home/fanxinhao/Work/LiteOS_Lab/iot_link/os/liteos/arch/arm/arm-m/src/los_hw.c **** #include "los_mpu.h"
  41:/home/fanxinhao/Work/LiteOS_Lab/iot_link/os/liteos/arch/arm/arm-m/src/los_hw.c **** #include "los_memory.h"
  42:/home/fanxinhao/Work/LiteOS_Lab/iot_link/os/liteos/arch/arm/arm-m/src/los_hw.c **** #include "los_printf.h"
  43:/home/fanxinhao/Work/LiteOS_Lab/iot_link/os/liteos/arch/arm/arm-m/src/los_hw.c **** 
  44:/home/fanxinhao/Work/LiteOS_Lab/iot_link/os/liteos/arch/arm/arm-m/src/los_hw.c **** #if (LOSCFG_ENABLE_MPU == YES)
  45:/home/fanxinhao/Work/LiteOS_Lab/iot_link/os/liteos/arch/arm/arm-m/src/los_hw.c **** #include "heap.h"
  46:/home/fanxinhao/Work/LiteOS_Lab/iot_link/os/liteos/arch/arm/arm-m/src/los_hw.c **** #include "los_svc.h"
  47:/home/fanxinhao/Work/LiteOS_Lab/iot_link/os/liteos/arch/arm/arm-m/src/los_hw.c **** #endif
  48:/home/fanxinhao/Work/LiteOS_Lab/iot_link/os/liteos/arch/arm/arm-m/src/los_hw.c **** 
  49:/home/fanxinhao/Work/LiteOS_Lab/iot_link/os/liteos/arch/arm/arm-m/src/los_hw.c **** #ifdef __cplusplus
  50:/home/fanxinhao/Work/LiteOS_Lab/iot_link/os/liteos/arch/arm/arm-m/src/los_hw.c **** #if __cplusplus
  51:/home/fanxinhao/Work/LiteOS_Lab/iot_link/os/liteos/arch/arm/arm-m/src/los_hw.c **** extern "C" {
  52:/home/fanxinhao/Work/LiteOS_Lab/iot_link/os/liteos/arch/arm/arm-m/src/los_hw.c **** #endif /* __cplusplus */
  53:/home/fanxinhao/Work/LiteOS_Lab/iot_link/os/liteos/arch/arm/arm-m/src/los_hw.c **** #endif /* __cplusplus */
  54:/home/fanxinhao/Work/LiteOS_Lab/iot_link/os/liteos/arch/arm/arm-m/src/los_hw.c **** 
  55:/home/fanxinhao/Work/LiteOS_Lab/iot_link/os/liteos/arch/arm/arm-m/src/los_hw.c **** 
  56:/home/fanxinhao/Work/LiteOS_Lab/iot_link/os/liteos/arch/arm/arm-m/src/los_hw.c **** /*****************************************************************************
  57:/home/fanxinhao/Work/LiteOS_Lab/iot_link/os/liteos/arch/arm/arm-m/src/los_hw.c ****  Function    : osSchedule
  58:/home/fanxinhao/Work/LiteOS_Lab/iot_link/os/liteos/arch/arm/arm-m/src/los_hw.c ****  Description : task scheduling
  59:/home/fanxinhao/Work/LiteOS_Lab/iot_link/os/liteos/arch/arm/arm-m/src/los_hw.c ****  Input       : None
  60:/home/fanxinhao/Work/LiteOS_Lab/iot_link/os/liteos/arch/arm/arm-m/src/los_hw.c ****  Output      : None
  61:/home/fanxinhao/Work/LiteOS_Lab/iot_link/os/liteos/arch/arm/arm-m/src/los_hw.c ****  Return      : None
  62:/home/fanxinhao/Work/LiteOS_Lab/iot_link/os/liteos/arch/arm/arm-m/src/los_hw.c ****  *****************************************************************************/
  63:/home/fanxinhao/Work/LiteOS_Lab/iot_link/os/liteos/arch/arm/arm-m/src/los_hw.c **** LITE_OS_SEC_TEXT VOID osSchedule(VOID)
  64:/home/fanxinhao/Work/LiteOS_Lab/iot_link/os/liteos/arch/arm/arm-m/src/los_hw.c **** {
  29              		.loc 1 64 1
  30              		.cfi_startproc
  31              		@ args = 0, pretend = 0, frame = 0
  32              		@ frame_needed = 1, uses_anonymous_args = 0
  33 0000 80B5     		push	{r7, lr}
  34              	.LCFI0:
  35              		.cfi_def_cfa_offset 8
  36              		.cfi_offset 7, -8
  37              		.cfi_offset 14, -4
  38 0002 00AF     		add	r7, sp, #0
  39              	.LCFI1:
  40              		.cfi_def_cfa_register 7
  65:/home/fanxinhao/Work/LiteOS_Lab/iot_link/os/liteos/arch/arm/arm-m/src/los_hw.c ****     osTaskSchedule();
  41              		.loc 1 65 5
  42 0004 FFF7FEFF 		bl	osTaskSchedule
  66:/home/fanxinhao/Work/LiteOS_Lab/iot_link/os/liteos/arch/arm/arm-m/src/los_hw.c **** }
  43              		.loc 1 66 1
  44 0008 00BF     		nop
  45 000a 80BD     		pop	{r7, pc}
  46              		.cfi_endproc
  47              	.LFE133:
  49              		.section	.text.LOS_Schedule,"ax",%progbits
  50              		.align	1
ARM GAS  /tmp/cclpoteW.s 			page 3


  51              		.global	LOS_Schedule
  52              		.syntax unified
  53              		.thumb
  54              		.thumb_func
  55              		.fpu fpv4-sp-d16
  57              	LOS_Schedule:
  58              	.LFB134:
  67:/home/fanxinhao/Work/LiteOS_Lab/iot_link/os/liteos/arch/arm/arm-m/src/los_hw.c **** 
  68:/home/fanxinhao/Work/LiteOS_Lab/iot_link/os/liteos/arch/arm/arm-m/src/los_hw.c **** /*****************************************************************************
  69:/home/fanxinhao/Work/LiteOS_Lab/iot_link/os/liteos/arch/arm/arm-m/src/los_hw.c ****  Function    : LOS_Schedule
  70:/home/fanxinhao/Work/LiteOS_Lab/iot_link/os/liteos/arch/arm/arm-m/src/los_hw.c ****  Description : Function to determine whether task scheduling is required
  71:/home/fanxinhao/Work/LiteOS_Lab/iot_link/os/liteos/arch/arm/arm-m/src/los_hw.c ****  Input       : None
  72:/home/fanxinhao/Work/LiteOS_Lab/iot_link/os/liteos/arch/arm/arm-m/src/los_hw.c ****  Output      : None
  73:/home/fanxinhao/Work/LiteOS_Lab/iot_link/os/liteos/arch/arm/arm-m/src/los_hw.c ****  Return      : None
  74:/home/fanxinhao/Work/LiteOS_Lab/iot_link/os/liteos/arch/arm/arm-m/src/los_hw.c ****  *****************************************************************************/
  75:/home/fanxinhao/Work/LiteOS_Lab/iot_link/os/liteos/arch/arm/arm-m/src/los_hw.c **** LITE_OS_SEC_TEXT VOID LOS_Schedule(VOID)
  76:/home/fanxinhao/Work/LiteOS_Lab/iot_link/os/liteos/arch/arm/arm-m/src/los_hw.c **** {
  59              		.loc 1 76 1
  60              		.cfi_startproc
  61              		@ args = 0, pretend = 0, frame = 8
  62              		@ frame_needed = 1, uses_anonymous_args = 0
  63 0000 80B5     		push	{r7, lr}
  64              	.LCFI2:
  65              		.cfi_def_cfa_offset 8
  66              		.cfi_offset 7, -8
  67              		.cfi_offset 14, -4
  68 0002 82B0     		sub	sp, sp, #8
  69              	.LCFI3:
  70              		.cfi_def_cfa_offset 16
  71 0004 00AF     		add	r7, sp, #0
  72              	.LCFI4:
  73              		.cfi_def_cfa_register 7
  77:/home/fanxinhao/Work/LiteOS_Lab/iot_link/os/liteos/arch/arm/arm-m/src/los_hw.c ****     UINTPTR uvIntSave;
  78:/home/fanxinhao/Work/LiteOS_Lab/iot_link/os/liteos/arch/arm/arm-m/src/los_hw.c **** 
  79:/home/fanxinhao/Work/LiteOS_Lab/iot_link/os/liteos/arch/arm/arm-m/src/los_hw.c ****     uvIntSave = LOS_IntLock();
  74              		.loc 1 79 17
  75 0006 FFF7FEFF 		bl	LOS_IntLock
  76 000a 7860     		str	r0, [r7, #4]
  80:/home/fanxinhao/Work/LiteOS_Lab/iot_link/os/liteos/arch/arm/arm-m/src/los_hw.c **** 
  81:/home/fanxinhao/Work/LiteOS_Lab/iot_link/os/liteos/arch/arm/arm-m/src/los_hw.c ****     /* Find the highest task */
  82:/home/fanxinhao/Work/LiteOS_Lab/iot_link/os/liteos/arch/arm/arm-m/src/los_hw.c ****     g_stLosTask.pstNewTask = LOS_DL_LIST_ENTRY(osPriqueueTop(), LOS_TASK_CB, stPendList);
  77              		.loc 1 82 30
  78 000c FFF7FEFF 		bl	osPriqueueTop
  79 0010 0346     		mov	r3, r0
  80 0012 283B     		subs	r3, r3, #40
  81              		.loc 1 82 28
  82 0014 0B4A     		ldr	r2, .L5
  83 0016 5360     		str	r3, [r2, #4]
  83:/home/fanxinhao/Work/LiteOS_Lab/iot_link/os/liteos/arch/arm/arm-m/src/los_hw.c **** 
  84:/home/fanxinhao/Work/LiteOS_Lab/iot_link/os/liteos/arch/arm/arm-m/src/los_hw.c ****     /* In case that running is not highest then reschedule */
  85:/home/fanxinhao/Work/LiteOS_Lab/iot_link/os/liteos/arch/arm/arm-m/src/los_hw.c ****     if (g_stLosTask.pstRunTask != g_stLosTask.pstNewTask)
  84              		.loc 1 85 20
  85 0018 0A4B     		ldr	r3, .L5
  86 001a 1A68     		ldr	r2, [r3]
  87              		.loc 1 85 46
  88 001c 094B     		ldr	r3, .L5
  89 001e 5B68     		ldr	r3, [r3, #4]
ARM GAS  /tmp/cclpoteW.s 			page 4


  90              		.loc 1 85 8
  91 0020 9A42     		cmp	r2, r3
  92 0022 09D0     		beq	.L3
  86:/home/fanxinhao/Work/LiteOS_Lab/iot_link/os/liteos/arch/arm/arm-m/src/los_hw.c ****     {
  87:/home/fanxinhao/Work/LiteOS_Lab/iot_link/os/liteos/arch/arm/arm-m/src/los_hw.c ****         if ((!g_usLosTaskLock))
  93              		.loc 1 87 14
  94 0024 084B     		ldr	r3, .L5+4
  95 0026 1B88     		ldrh	r3, [r3]
  96              		.loc 1 87 12
  97 0028 002B     		cmp	r3, #0
  98 002a 05D1     		bne	.L3
  88:/home/fanxinhao/Work/LiteOS_Lab/iot_link/os/liteos/arch/arm/arm-m/src/los_hw.c ****         {
  89:/home/fanxinhao/Work/LiteOS_Lab/iot_link/os/liteos/arch/arm/arm-m/src/los_hw.c ****             (VOID)LOS_IntRestore(uvIntSave);
  99              		.loc 1 89 13
 100 002c 7868     		ldr	r0, [r7, #4]
 101 002e FFF7FEFF 		bl	LOS_IntRestore
  90:/home/fanxinhao/Work/LiteOS_Lab/iot_link/os/liteos/arch/arm/arm-m/src/los_hw.c **** 
  91:/home/fanxinhao/Work/LiteOS_Lab/iot_link/os/liteos/arch/arm/arm-m/src/los_hw.c ****             osTaskSchedule();
 102              		.loc 1 91 13
 103 0032 FFF7FEFF 		bl	osTaskSchedule
  92:/home/fanxinhao/Work/LiteOS_Lab/iot_link/os/liteos/arch/arm/arm-m/src/los_hw.c **** 
  93:/home/fanxinhao/Work/LiteOS_Lab/iot_link/os/liteos/arch/arm/arm-m/src/los_hw.c ****             return;
 104              		.loc 1 93 13
 105 0036 02E0     		b	.L2
 106              	.L3:
  94:/home/fanxinhao/Work/LiteOS_Lab/iot_link/os/liteos/arch/arm/arm-m/src/los_hw.c ****         }
  95:/home/fanxinhao/Work/LiteOS_Lab/iot_link/os/liteos/arch/arm/arm-m/src/los_hw.c ****     }
  96:/home/fanxinhao/Work/LiteOS_Lab/iot_link/os/liteos/arch/arm/arm-m/src/los_hw.c **** 
  97:/home/fanxinhao/Work/LiteOS_Lab/iot_link/os/liteos/arch/arm/arm-m/src/los_hw.c ****     (VOID)LOS_IntRestore(uvIntSave);
 107              		.loc 1 97 5
 108 0038 7868     		ldr	r0, [r7, #4]
 109 003a FFF7FEFF 		bl	LOS_IntRestore
 110              	.L2:
  98:/home/fanxinhao/Work/LiteOS_Lab/iot_link/os/liteos/arch/arm/arm-m/src/los_hw.c **** }
 111              		.loc 1 98 1
 112 003e 0837     		adds	r7, r7, #8
 113              	.LCFI5:
 114              		.cfi_def_cfa_offset 8
 115 0040 BD46     		mov	sp, r7
 116              	.LCFI6:
 117              		.cfi_def_cfa_register 13
 118              		@ sp needed
 119 0042 80BD     		pop	{r7, pc}
 120              	.L6:
 121              		.align	2
 122              	.L5:
 123 0044 00000000 		.word	g_stLosTask
 124 0048 00000000 		.word	g_usLosTaskLock
 125              		.cfi_endproc
 126              	.LFE134:
 128              		.section	.text.osTaskExit,"ax",%progbits
 129              		.align	1
 130              		.global	osTaskExit
 131              		.syntax unified
 132              		.thumb
 133              		.thumb_func
 134              		.fpu fpv4-sp-d16
ARM GAS  /tmp/cclpoteW.s 			page 5


 136              	osTaskExit:
 137              	.LFB135:
  99:/home/fanxinhao/Work/LiteOS_Lab/iot_link/os/liteos/arch/arm/arm-m/src/los_hw.c **** 
 100:/home/fanxinhao/Work/LiteOS_Lab/iot_link/os/liteos/arch/arm/arm-m/src/los_hw.c **** /*****************************************************************************
 101:/home/fanxinhao/Work/LiteOS_Lab/iot_link/os/liteos/arch/arm/arm-m/src/los_hw.c ****  Function    : osTaskExit
 102:/home/fanxinhao/Work/LiteOS_Lab/iot_link/os/liteos/arch/arm/arm-m/src/los_hw.c ****  Description : Task exit function
 103:/home/fanxinhao/Work/LiteOS_Lab/iot_link/os/liteos/arch/arm/arm-m/src/los_hw.c ****  Input       : None
 104:/home/fanxinhao/Work/LiteOS_Lab/iot_link/os/liteos/arch/arm/arm-m/src/los_hw.c ****  Output      : None
 105:/home/fanxinhao/Work/LiteOS_Lab/iot_link/os/liteos/arch/arm/arm-m/src/los_hw.c ****  Return      : None
 106:/home/fanxinhao/Work/LiteOS_Lab/iot_link/os/liteos/arch/arm/arm-m/src/los_hw.c ****  *****************************************************************************/
 107:/home/fanxinhao/Work/LiteOS_Lab/iot_link/os/liteos/arch/arm/arm-m/src/los_hw.c **** LITE_OS_SEC_TEXT_MINOR VOID osTaskExit(VOID)
 108:/home/fanxinhao/Work/LiteOS_Lab/iot_link/os/liteos/arch/arm/arm-m/src/los_hw.c **** {
 138              		.loc 1 108 1
 139              		.cfi_startproc
 140              		@ args = 0, pretend = 0, frame = 0
 141              		@ frame_needed = 1, uses_anonymous_args = 0
 142              		@ link register save eliminated.
 143 0000 80B4     		push	{r7}
 144              	.LCFI7:
 145              		.cfi_def_cfa_offset 4
 146              		.cfi_offset 7, -4
 147 0002 00AF     		add	r7, sp, #0
 148              	.LCFI8:
 149              		.cfi_def_cfa_register 7
 150              	.LBB8:
 151              	.LBB9:
 152              		.file 2 "/home/fanxinhao/Work/LiteOS_Lab/iot_link/os/liteos/arch/arm/common/cmsis/cmsis_gcc.h"
   1:/home/fanxinhao/Work/LiteOS_Lab/iot_link/os/liteos/arch/arm/common/cmsis/cmsis_gcc.h **** /**************************************************************************//**
   2:/home/fanxinhao/Work/LiteOS_Lab/iot_link/os/liteos/arch/arm/common/cmsis/cmsis_gcc.h ****  * @file     cmsis_gcc.h
   3:/home/fanxinhao/Work/LiteOS_Lab/iot_link/os/liteos/arch/arm/common/cmsis/cmsis_gcc.h ****  * @brief    CMSIS compiler GCC header file
   4:/home/fanxinhao/Work/LiteOS_Lab/iot_link/os/liteos/arch/arm/common/cmsis/cmsis_gcc.h ****  * @version  V5.0.1
   5:/home/fanxinhao/Work/LiteOS_Lab/iot_link/os/liteos/arch/arm/common/cmsis/cmsis_gcc.h ****  * @date     02. February 2017
   6:/home/fanxinhao/Work/LiteOS_Lab/iot_link/os/liteos/arch/arm/common/cmsis/cmsis_gcc.h ****  ******************************************************************************/
   7:/home/fanxinhao/Work/LiteOS_Lab/iot_link/os/liteos/arch/arm/common/cmsis/cmsis_gcc.h **** /*
   8:/home/fanxinhao/Work/LiteOS_Lab/iot_link/os/liteos/arch/arm/common/cmsis/cmsis_gcc.h ****  * Copyright (c) 2009-2017 ARM Limited. All rights reserved.
   9:/home/fanxinhao/Work/LiteOS_Lab/iot_link/os/liteos/arch/arm/common/cmsis/cmsis_gcc.h ****  *
  10:/home/fanxinhao/Work/LiteOS_Lab/iot_link/os/liteos/arch/arm/common/cmsis/cmsis_gcc.h ****  * SPDX-License-Identifier: Apache-2.0
  11:/home/fanxinhao/Work/LiteOS_Lab/iot_link/os/liteos/arch/arm/common/cmsis/cmsis_gcc.h ****  *
  12:/home/fanxinhao/Work/LiteOS_Lab/iot_link/os/liteos/arch/arm/common/cmsis/cmsis_gcc.h ****  * Licensed under the Apache License, Version 2.0 (the License); you may
  13:/home/fanxinhao/Work/LiteOS_Lab/iot_link/os/liteos/arch/arm/common/cmsis/cmsis_gcc.h ****  * not use this file except in compliance with the License.
  14:/home/fanxinhao/Work/LiteOS_Lab/iot_link/os/liteos/arch/arm/common/cmsis/cmsis_gcc.h ****  * You may obtain a copy of the License at
  15:/home/fanxinhao/Work/LiteOS_Lab/iot_link/os/liteos/arch/arm/common/cmsis/cmsis_gcc.h ****  *
  16:/home/fanxinhao/Work/LiteOS_Lab/iot_link/os/liteos/arch/arm/common/cmsis/cmsis_gcc.h ****  * www.apache.org/licenses/LICENSE-2.0
  17:/home/fanxinhao/Work/LiteOS_Lab/iot_link/os/liteos/arch/arm/common/cmsis/cmsis_gcc.h ****  *
  18:/home/fanxinhao/Work/LiteOS_Lab/iot_link/os/liteos/arch/arm/common/cmsis/cmsis_gcc.h ****  * Unless required by applicable law or agreed to in writing, software
  19:/home/fanxinhao/Work/LiteOS_Lab/iot_link/os/liteos/arch/arm/common/cmsis/cmsis_gcc.h ****  * distributed under the License is distributed on an AS IS BASIS, WITHOUT
  20:/home/fanxinhao/Work/LiteOS_Lab/iot_link/os/liteos/arch/arm/common/cmsis/cmsis_gcc.h ****  * WARRANTIES OR CONDITIONS OF ANY KIND, either express or implied.
  21:/home/fanxinhao/Work/LiteOS_Lab/iot_link/os/liteos/arch/arm/common/cmsis/cmsis_gcc.h ****  * See the License for the specific language governing permissions and
  22:/home/fanxinhao/Work/LiteOS_Lab/iot_link/os/liteos/arch/arm/common/cmsis/cmsis_gcc.h ****  * limitations under the License.
  23:/home/fanxinhao/Work/LiteOS_Lab/iot_link/os/liteos/arch/arm/common/cmsis/cmsis_gcc.h ****  */
  24:/home/fanxinhao/Work/LiteOS_Lab/iot_link/os/liteos/arch/arm/common/cmsis/cmsis_gcc.h **** 
  25:/home/fanxinhao/Work/LiteOS_Lab/iot_link/os/liteos/arch/arm/common/cmsis/cmsis_gcc.h **** #ifndef __CMSIS_GCC_H
  26:/home/fanxinhao/Work/LiteOS_Lab/iot_link/os/liteos/arch/arm/common/cmsis/cmsis_gcc.h **** #define __CMSIS_GCC_H
  27:/home/fanxinhao/Work/LiteOS_Lab/iot_link/os/liteos/arch/arm/common/cmsis/cmsis_gcc.h **** 
  28:/home/fanxinhao/Work/LiteOS_Lab/iot_link/os/liteos/arch/arm/common/cmsis/cmsis_gcc.h **** /* ignore some GCC warnings */
  29:/home/fanxinhao/Work/LiteOS_Lab/iot_link/os/liteos/arch/arm/common/cmsis/cmsis_gcc.h **** #pragma GCC diagnostic push
  30:/home/fanxinhao/Work/LiteOS_Lab/iot_link/os/liteos/arch/arm/common/cmsis/cmsis_gcc.h **** #pragma GCC diagnostic ignored "-Wsign-conversion"
ARM GAS  /tmp/cclpoteW.s 			page 6


  31:/home/fanxinhao/Work/LiteOS_Lab/iot_link/os/liteos/arch/arm/common/cmsis/cmsis_gcc.h **** #pragma GCC diagnostic ignored "-Wconversion"
  32:/home/fanxinhao/Work/LiteOS_Lab/iot_link/os/liteos/arch/arm/common/cmsis/cmsis_gcc.h **** #pragma GCC diagnostic ignored "-Wunused-parameter"
  33:/home/fanxinhao/Work/LiteOS_Lab/iot_link/os/liteos/arch/arm/common/cmsis/cmsis_gcc.h **** 
  34:/home/fanxinhao/Work/LiteOS_Lab/iot_link/os/liteos/arch/arm/common/cmsis/cmsis_gcc.h **** /* CMSIS compiler specific defines */
  35:/home/fanxinhao/Work/LiteOS_Lab/iot_link/os/liteos/arch/arm/common/cmsis/cmsis_gcc.h **** #ifndef   __ASM
  36:/home/fanxinhao/Work/LiteOS_Lab/iot_link/os/liteos/arch/arm/common/cmsis/cmsis_gcc.h ****   #define __ASM                     __asm
  37:/home/fanxinhao/Work/LiteOS_Lab/iot_link/os/liteos/arch/arm/common/cmsis/cmsis_gcc.h **** #endif
  38:/home/fanxinhao/Work/LiteOS_Lab/iot_link/os/liteos/arch/arm/common/cmsis/cmsis_gcc.h **** #ifndef   __INLINE
  39:/home/fanxinhao/Work/LiteOS_Lab/iot_link/os/liteos/arch/arm/common/cmsis/cmsis_gcc.h ****   #define __INLINE                  inline
  40:/home/fanxinhao/Work/LiteOS_Lab/iot_link/os/liteos/arch/arm/common/cmsis/cmsis_gcc.h **** #endif
  41:/home/fanxinhao/Work/LiteOS_Lab/iot_link/os/liteos/arch/arm/common/cmsis/cmsis_gcc.h **** #ifndef   __STATIC_INLINE
  42:/home/fanxinhao/Work/LiteOS_Lab/iot_link/os/liteos/arch/arm/common/cmsis/cmsis_gcc.h ****   #define __STATIC_INLINE           static inline
  43:/home/fanxinhao/Work/LiteOS_Lab/iot_link/os/liteos/arch/arm/common/cmsis/cmsis_gcc.h **** #endif
  44:/home/fanxinhao/Work/LiteOS_Lab/iot_link/os/liteos/arch/arm/common/cmsis/cmsis_gcc.h **** #ifndef   __NO_RETURN
  45:/home/fanxinhao/Work/LiteOS_Lab/iot_link/os/liteos/arch/arm/common/cmsis/cmsis_gcc.h ****   #define __NO_RETURN               __attribute__((noreturn))
  46:/home/fanxinhao/Work/LiteOS_Lab/iot_link/os/liteos/arch/arm/common/cmsis/cmsis_gcc.h **** #endif
  47:/home/fanxinhao/Work/LiteOS_Lab/iot_link/os/liteos/arch/arm/common/cmsis/cmsis_gcc.h **** #ifndef   __USED
  48:/home/fanxinhao/Work/LiteOS_Lab/iot_link/os/liteos/arch/arm/common/cmsis/cmsis_gcc.h ****   #define __USED                    __attribute__((used))
  49:/home/fanxinhao/Work/LiteOS_Lab/iot_link/os/liteos/arch/arm/common/cmsis/cmsis_gcc.h **** #endif
  50:/home/fanxinhao/Work/LiteOS_Lab/iot_link/os/liteos/arch/arm/common/cmsis/cmsis_gcc.h **** #ifndef   __WEAK
  51:/home/fanxinhao/Work/LiteOS_Lab/iot_link/os/liteos/arch/arm/common/cmsis/cmsis_gcc.h ****   #define __WEAK                    __attribute__((weak))
  52:/home/fanxinhao/Work/LiteOS_Lab/iot_link/os/liteos/arch/arm/common/cmsis/cmsis_gcc.h **** #endif
  53:/home/fanxinhao/Work/LiteOS_Lab/iot_link/os/liteos/arch/arm/common/cmsis/cmsis_gcc.h **** #ifndef   __UNALIGNED_UINT32
  54:/home/fanxinhao/Work/LiteOS_Lab/iot_link/os/liteos/arch/arm/common/cmsis/cmsis_gcc.h **** #pragma GCC diagnostic push
  55:/home/fanxinhao/Work/LiteOS_Lab/iot_link/os/liteos/arch/arm/common/cmsis/cmsis_gcc.h **** #pragma GCC diagnostic ignored "-Wpacked"
  56:/home/fanxinhao/Work/LiteOS_Lab/iot_link/os/liteos/arch/arm/common/cmsis/cmsis_gcc.h **** #pragma GCC diagnostic ignored "-Wattributes"
  57:/home/fanxinhao/Work/LiteOS_Lab/iot_link/os/liteos/arch/arm/common/cmsis/cmsis_gcc.h ****   struct __attribute__((packed)) T_UINT32 { uint32_t v; };
  58:/home/fanxinhao/Work/LiteOS_Lab/iot_link/os/liteos/arch/arm/common/cmsis/cmsis_gcc.h **** #pragma GCC diagnostic pop
  59:/home/fanxinhao/Work/LiteOS_Lab/iot_link/os/liteos/arch/arm/common/cmsis/cmsis_gcc.h ****   #define __UNALIGNED_UINT32(x)     (((struct T_UINT32 *)(x))->v)
  60:/home/fanxinhao/Work/LiteOS_Lab/iot_link/os/liteos/arch/arm/common/cmsis/cmsis_gcc.h **** #endif
  61:/home/fanxinhao/Work/LiteOS_Lab/iot_link/os/liteos/arch/arm/common/cmsis/cmsis_gcc.h **** #ifndef   __ALIGNED
  62:/home/fanxinhao/Work/LiteOS_Lab/iot_link/os/liteos/arch/arm/common/cmsis/cmsis_gcc.h ****   #define __ALIGNED(x)              __attribute__((aligned(x)))
  63:/home/fanxinhao/Work/LiteOS_Lab/iot_link/os/liteos/arch/arm/common/cmsis/cmsis_gcc.h **** #endif
  64:/home/fanxinhao/Work/LiteOS_Lab/iot_link/os/liteos/arch/arm/common/cmsis/cmsis_gcc.h **** #ifndef   __PACKED
  65:/home/fanxinhao/Work/LiteOS_Lab/iot_link/os/liteos/arch/arm/common/cmsis/cmsis_gcc.h ****   #define __PACKED                  __attribute__((packed, aligned(1)))
  66:/home/fanxinhao/Work/LiteOS_Lab/iot_link/os/liteos/arch/arm/common/cmsis/cmsis_gcc.h **** #endif
  67:/home/fanxinhao/Work/LiteOS_Lab/iot_link/os/liteos/arch/arm/common/cmsis/cmsis_gcc.h **** #ifndef   __PACKED_STRUCT
  68:/home/fanxinhao/Work/LiteOS_Lab/iot_link/os/liteos/arch/arm/common/cmsis/cmsis_gcc.h ****   #define __PACKED_STRUCT           struct __attribute__((packed, aligned(1)))
  69:/home/fanxinhao/Work/LiteOS_Lab/iot_link/os/liteos/arch/arm/common/cmsis/cmsis_gcc.h **** #endif
  70:/home/fanxinhao/Work/LiteOS_Lab/iot_link/os/liteos/arch/arm/common/cmsis/cmsis_gcc.h **** 
  71:/home/fanxinhao/Work/LiteOS_Lab/iot_link/os/liteos/arch/arm/common/cmsis/cmsis_gcc.h **** 
  72:/home/fanxinhao/Work/LiteOS_Lab/iot_link/os/liteos/arch/arm/common/cmsis/cmsis_gcc.h **** /* ###########################  Core Function Access  ########################### */
  73:/home/fanxinhao/Work/LiteOS_Lab/iot_link/os/liteos/arch/arm/common/cmsis/cmsis_gcc.h **** /** \ingroup  CMSIS_Core_FunctionInterface
  74:/home/fanxinhao/Work/LiteOS_Lab/iot_link/os/liteos/arch/arm/common/cmsis/cmsis_gcc.h ****     \defgroup CMSIS_Core_RegAccFunctions CMSIS Core Register Access Functions
  75:/home/fanxinhao/Work/LiteOS_Lab/iot_link/os/liteos/arch/arm/common/cmsis/cmsis_gcc.h ****   @{
  76:/home/fanxinhao/Work/LiteOS_Lab/iot_link/os/liteos/arch/arm/common/cmsis/cmsis_gcc.h ****  */
  77:/home/fanxinhao/Work/LiteOS_Lab/iot_link/os/liteos/arch/arm/common/cmsis/cmsis_gcc.h **** 
  78:/home/fanxinhao/Work/LiteOS_Lab/iot_link/os/liteos/arch/arm/common/cmsis/cmsis_gcc.h **** /**
  79:/home/fanxinhao/Work/LiteOS_Lab/iot_link/os/liteos/arch/arm/common/cmsis/cmsis_gcc.h ****   \brief   Enable IRQ Interrupts
  80:/home/fanxinhao/Work/LiteOS_Lab/iot_link/os/liteos/arch/arm/common/cmsis/cmsis_gcc.h ****   \details Enables IRQ interrupts by clearing the I-bit in the CPSR.
  81:/home/fanxinhao/Work/LiteOS_Lab/iot_link/os/liteos/arch/arm/common/cmsis/cmsis_gcc.h ****            Can only be executed in Privileged modes.
  82:/home/fanxinhao/Work/LiteOS_Lab/iot_link/os/liteos/arch/arm/common/cmsis/cmsis_gcc.h ****  */
  83:/home/fanxinhao/Work/LiteOS_Lab/iot_link/os/liteos/arch/arm/common/cmsis/cmsis_gcc.h **** __attribute__((always_inline)) __STATIC_INLINE void __enable_irq(void)
  84:/home/fanxinhao/Work/LiteOS_Lab/iot_link/os/liteos/arch/arm/common/cmsis/cmsis_gcc.h **** {
  85:/home/fanxinhao/Work/LiteOS_Lab/iot_link/os/liteos/arch/arm/common/cmsis/cmsis_gcc.h ****   __ASM volatile ("cpsie i" : : : "memory");
  86:/home/fanxinhao/Work/LiteOS_Lab/iot_link/os/liteos/arch/arm/common/cmsis/cmsis_gcc.h **** }
  87:/home/fanxinhao/Work/LiteOS_Lab/iot_link/os/liteos/arch/arm/common/cmsis/cmsis_gcc.h **** 
ARM GAS  /tmp/cclpoteW.s 			page 7


  88:/home/fanxinhao/Work/LiteOS_Lab/iot_link/os/liteos/arch/arm/common/cmsis/cmsis_gcc.h **** 
  89:/home/fanxinhao/Work/LiteOS_Lab/iot_link/os/liteos/arch/arm/common/cmsis/cmsis_gcc.h **** /**
  90:/home/fanxinhao/Work/LiteOS_Lab/iot_link/os/liteos/arch/arm/common/cmsis/cmsis_gcc.h ****   \brief   Disable IRQ Interrupts
  91:/home/fanxinhao/Work/LiteOS_Lab/iot_link/os/liteos/arch/arm/common/cmsis/cmsis_gcc.h ****   \details Disables IRQ interrupts by setting the I-bit in the CPSR.
  92:/home/fanxinhao/Work/LiteOS_Lab/iot_link/os/liteos/arch/arm/common/cmsis/cmsis_gcc.h ****            Can only be executed in Privileged modes.
  93:/home/fanxinhao/Work/LiteOS_Lab/iot_link/os/liteos/arch/arm/common/cmsis/cmsis_gcc.h ****  */
  94:/home/fanxinhao/Work/LiteOS_Lab/iot_link/os/liteos/arch/arm/common/cmsis/cmsis_gcc.h **** __attribute__((always_inline)) __STATIC_INLINE void __disable_irq(void)
  95:/home/fanxinhao/Work/LiteOS_Lab/iot_link/os/liteos/arch/arm/common/cmsis/cmsis_gcc.h **** {
  96:/home/fanxinhao/Work/LiteOS_Lab/iot_link/os/liteos/arch/arm/common/cmsis/cmsis_gcc.h ****   __ASM volatile ("cpsid i" : : : "memory");
 153              		.loc 2 96 3
 154              		.syntax unified
 155              	@ 96 "/home/fanxinhao/Work/LiteOS_Lab/iot_link/os/liteos/arch/arm/common/cmsis/cmsis_gcc.h" 1
 156 0004 72B6     		cpsid i
 157              	@ 0 "" 2
  97:/home/fanxinhao/Work/LiteOS_Lab/iot_link/os/liteos/arch/arm/common/cmsis/cmsis_gcc.h **** }
 158              		.loc 2 97 1
 159              		.thumb
 160              		.syntax unified
 161 0006 00BF     		nop
 162              	.L8:
 163              	.LBE9:
 164              	.LBE8:
 109:/home/fanxinhao/Work/LiteOS_Lab/iot_link/os/liteos/arch/arm/arm-m/src/los_hw.c ****     __disable_irq();
 110:/home/fanxinhao/Work/LiteOS_Lab/iot_link/os/liteos/arch/arm/arm-m/src/los_hw.c ****     while(1);
 165              		.loc 1 110 10 discriminator 1
 166 0008 FEE7     		b	.L8
 167              		.cfi_endproc
 168              	.LFE135:
 170              		.section	.text.osTskStackInit,"ax",%progbits
 171              		.align	1
 172              		.global	osTskStackInit
 173              		.syntax unified
 174              		.thumb
 175              		.thumb_func
 176              		.fpu fpv4-sp-d16
 178              	osTskStackInit:
 179              	.LFB136:
 111:/home/fanxinhao/Work/LiteOS_Lab/iot_link/os/liteos/arch/arm/arm-m/src/los_hw.c **** }
 112:/home/fanxinhao/Work/LiteOS_Lab/iot_link/os/liteos/arch/arm/arm-m/src/los_hw.c **** 
 113:/home/fanxinhao/Work/LiteOS_Lab/iot_link/os/liteos/arch/arm/arm-m/src/los_hw.c **** #if (LOSCFG_ENABLE_MPU == YES)
 114:/home/fanxinhao/Work/LiteOS_Lab/iot_link/os/liteos/arch/arm/arm-m/src/los_hw.c **** LITE_OS_SEC_TEXT_INIT VOID osUsrTaskEntry(UINT32 uwTaskID)
 115:/home/fanxinhao/Work/LiteOS_Lab/iot_link/os/liteos/arch/arm/arm-m/src/los_hw.c **** {
 116:/home/fanxinhao/Work/LiteOS_Lab/iot_link/os/liteos/arch/arm/arm-m/src/los_hw.c ****     LOS_TASK_CB    *pstTaskCB;
 117:/home/fanxinhao/Work/LiteOS_Lab/iot_link/os/liteos/arch/arm/arm-m/src/los_hw.c ****     TSK_ENTRY_FUNC entry;
 118:/home/fanxinhao/Work/LiteOS_Lab/iot_link/os/liteos/arch/arm/arm-m/src/los_hw.c ****     UINT32         arg;
 119:/home/fanxinhao/Work/LiteOS_Lab/iot_link/os/liteos/arch/arm/arm-m/src/los_hw.c **** 
 120:/home/fanxinhao/Work/LiteOS_Lab/iot_link/os/liteos/arch/arm/arm-m/src/los_hw.c ****     pstTaskCB = OS_TCB_FROM_TID(uwTaskID);
 121:/home/fanxinhao/Work/LiteOS_Lab/iot_link/os/liteos/arch/arm/arm-m/src/los_hw.c **** 
 122:/home/fanxinhao/Work/LiteOS_Lab/iot_link/os/liteos/arch/arm/arm-m/src/los_hw.c ****     entry = pstTaskCB->pfnTaskEntry;
 123:/home/fanxinhao/Work/LiteOS_Lab/iot_link/os/liteos/arch/arm/arm-m/src/los_hw.c ****     arg   = pstTaskCB->uwArg;
 124:/home/fanxinhao/Work/LiteOS_Lab/iot_link/os/liteos/arch/arm/arm-m/src/los_hw.c **** 
 125:/home/fanxinhao/Work/LiteOS_Lab/iot_link/os/liteos/arch/arm/arm-m/src/los_hw.c ****     /* enter unprivileged */
 126:/home/fanxinhao/Work/LiteOS_Lab/iot_link/os/liteos/arch/arm/arm-m/src/los_hw.c **** 
 127:/home/fanxinhao/Work/LiteOS_Lab/iot_link/os/liteos/arch/arm/arm-m/src/los_hw.c ****     __set_CONTROL(__get_CONTROL() | CONTROL_nPRIV_Msk);
 128:/home/fanxinhao/Work/LiteOS_Lab/iot_link/os/liteos/arch/arm/arm-m/src/los_hw.c **** 
 129:/home/fanxinhao/Work/LiteOS_Lab/iot_link/os/liteos/arch/arm/arm-m/src/los_hw.c ****     (VOID)entry(arg);
 130:/home/fanxinhao/Work/LiteOS_Lab/iot_link/os/liteos/arch/arm/arm-m/src/los_hw.c **** 
ARM GAS  /tmp/cclpoteW.s 			page 8


 131:/home/fanxinhao/Work/LiteOS_Lab/iot_link/os/liteos/arch/arm/arm-m/src/los_hw.c ****     (VOID)LOS_UsrTaskDelete(uwTaskID);
 132:/home/fanxinhao/Work/LiteOS_Lab/iot_link/os/liteos/arch/arm/arm-m/src/los_hw.c **** }
 133:/home/fanxinhao/Work/LiteOS_Lab/iot_link/os/liteos/arch/arm/arm-m/src/los_hw.c **** #endif
 134:/home/fanxinhao/Work/LiteOS_Lab/iot_link/os/liteos/arch/arm/arm-m/src/los_hw.c **** 
 135:/home/fanxinhao/Work/LiteOS_Lab/iot_link/os/liteos/arch/arm/arm-m/src/los_hw.c **** /*****************************************************************************
 136:/home/fanxinhao/Work/LiteOS_Lab/iot_link/os/liteos/arch/arm/arm-m/src/los_hw.c ****  Function    : osTskStackInit
 137:/home/fanxinhao/Work/LiteOS_Lab/iot_link/os/liteos/arch/arm/arm-m/src/los_hw.c ****  Description : Task stack initialization function
 138:/home/fanxinhao/Work/LiteOS_Lab/iot_link/os/liteos/arch/arm/arm-m/src/los_hw.c ****  Input       : pstTaskCB    --- TCB
 139:/home/fanxinhao/Work/LiteOS_Lab/iot_link/os/liteos/arch/arm/arm-m/src/los_hw.c ****                pstInitParam --- Task init parameters
 140:/home/fanxinhao/Work/LiteOS_Lab/iot_link/os/liteos/arch/arm/arm-m/src/los_hw.c ****  Output      : None
 141:/home/fanxinhao/Work/LiteOS_Lab/iot_link/os/liteos/arch/arm/arm-m/src/los_hw.c ****  Return      :
 142:/home/fanxinhao/Work/LiteOS_Lab/iot_link/os/liteos/arch/arm/arm-m/src/los_hw.c ****  *****************************************************************************/
 143:/home/fanxinhao/Work/LiteOS_Lab/iot_link/os/liteos/arch/arm/arm-m/src/los_hw.c **** LITE_OS_SEC_TEXT_INIT VOID osTskStackInit(LOS_TASK_CB *pstTaskCB, TSK_INIT_PARAM_S *pstInitParam)
 144:/home/fanxinhao/Work/LiteOS_Lab/iot_link/os/liteos/arch/arm/arm-m/src/los_hw.c **** {
 180              		.loc 1 144 1
 181              		.cfi_startproc
 182              		@ args = 0, pretend = 0, frame = 24
 183              		@ frame_needed = 1, uses_anonymous_args = 0
 184 0000 80B5     		push	{r7, lr}
 185              	.LCFI9:
 186              		.cfi_def_cfa_offset 8
 187              		.cfi_offset 7, -8
 188              		.cfi_offset 14, -4
 189 0002 86B0     		sub	sp, sp, #24
 190              	.LCFI10:
 191              		.cfi_def_cfa_offset 32
 192 0004 00AF     		add	r7, sp, #0
 193              	.LCFI11:
 194              		.cfi_def_cfa_register 7
 195 0006 7860     		str	r0, [r7, #4]
 196 0008 3960     		str	r1, [r7]
 145:/home/fanxinhao/Work/LiteOS_Lab/iot_link/os/liteos/arch/arm/arm-m/src/los_hw.c ****     TSK_CONTEXT_S  *pstContext;
 146:/home/fanxinhao/Work/LiteOS_Lab/iot_link/os/liteos/arch/arm/arm-m/src/los_hw.c ****     char *pTopStack = (char *)pstTaskCB->uwTopOfStack;
 197              		.loc 1 146 40
 198 000a 7B68     		ldr	r3, [r7, #4]
 199 000c DB68     		ldr	r3, [r3, #12]
 200              		.loc 1 146 11
 201 000e 7B61     		str	r3, [r7, #20]
 147:/home/fanxinhao/Work/LiteOS_Lab/iot_link/os/liteos/arch/arm/arm-m/src/los_hw.c ****     char *pStack = pTopStack + pstTaskCB->uwStackSize;
 202              		.loc 1 147 41
 203 0010 7B68     		ldr	r3, [r7, #4]
 204 0012 9B68     		ldr	r3, [r3, #8]
 205              		.loc 1 147 11
 206 0014 7A69     		ldr	r2, [r7, #20]
 207 0016 1344     		add	r3, r3, r2
 208 0018 3B61     		str	r3, [r7, #16]
 148:/home/fanxinhao/Work/LiteOS_Lab/iot_link/os/liteos/arch/arm/arm-m/src/los_hw.c **** 
 149:/home/fanxinhao/Work/LiteOS_Lab/iot_link/os/liteos/arch/arm/arm-m/src/los_hw.c **** #if (LOSCFG_ENABLE_MPU == YES)
 150:/home/fanxinhao/Work/LiteOS_Lab/iot_link/os/liteos/arch/arm/arm-m/src/los_hw.c ****     int i;   //this var only be used when mpu enabled --zhangqf
 151:/home/fanxinhao/Work/LiteOS_Lab/iot_link/os/liteos/arch/arm/arm-m/src/los_hw.c ****     static LOS_MPU_ENTRY astNullMpuSetting [MPU_NR_USR_ENTRIES + 1] = {0};
 152:/home/fanxinhao/Work/LiteOS_Lab/iot_link/os/liteos/arch/arm/arm-m/src/los_hw.c ****     LOS_MPU_ENTRY * pstMpuSetting = NULL;
 153:/home/fanxinhao/Work/LiteOS_Lab/iot_link/os/liteos/arch/arm/arm-m/src/los_hw.c **** #if (LOSCFG_STATIC_TASK == YES)
 154:/home/fanxinhao/Work/LiteOS_Lab/iot_link/os/liteos/arch/arm/arm-m/src/los_hw.c ****     LOS_MPU_PARA  * pstMpuPara = (LOS_MPU_PARA *)pstTaskCB->pMpuSettings;
 155:/home/fanxinhao/Work/LiteOS_Lab/iot_link/os/liteos/arch/arm/arm-m/src/los_hw.c **** #else
 156:/home/fanxinhao/Work/LiteOS_Lab/iot_link/os/liteos/arch/arm/arm-m/src/los_hw.c ****     LOS_MPU_PARA  * pstMpuPara = (LOS_MPU_PARA *)pstInitParam->pRegions;
 157:/home/fanxinhao/Work/LiteOS_Lab/iot_link/os/liteos/arch/arm/arm-m/src/los_hw.c **** #endif
 158:/home/fanxinhao/Work/LiteOS_Lab/iot_link/os/liteos/arch/arm/arm-m/src/los_hw.c **** #endif
ARM GAS  /tmp/cclpoteW.s 			page 9


 159:/home/fanxinhao/Work/LiteOS_Lab/iot_link/os/liteos/arch/arm/arm-m/src/los_hw.c **** 
 160:/home/fanxinhao/Work/LiteOS_Lab/iot_link/os/liteos/arch/arm/arm-m/src/los_hw.c ****     /*initialize the task stack, write magic num to stack top*/
 161:/home/fanxinhao/Work/LiteOS_Lab/iot_link/os/liteos/arch/arm/arm-m/src/los_hw.c ****     memset(pTopStack, OS_TASK_STACK_INIT, pstTaskCB->uwStackSize);
 209              		.loc 1 161 5
 210 001a 7B68     		ldr	r3, [r7, #4]
 211 001c 9B68     		ldr	r3, [r3, #8]
 212 001e 1A46     		mov	r2, r3
 213 0020 4FF0CA31 		mov	r1, #-892679478
 214 0024 7869     		ldr	r0, [r7, #20]
 215 0026 FFF7FEFF 		bl	memset
 162:/home/fanxinhao/Work/LiteOS_Lab/iot_link/os/liteos/arch/arm/arm-m/src/los_hw.c ****     *((UINT32 *)(pTopStack)) = OS_TASK_MAGIC_WORD;
 216              		.loc 1 162 30
 217 002a 7B69     		ldr	r3, [r7, #20]
 218 002c 4FF0CC32 		mov	r2, #-858993460
 219 0030 1A60     		str	r2, [r3]
 163:/home/fanxinhao/Work/LiteOS_Lab/iot_link/os/liteos/arch/arm/arm-m/src/los_hw.c **** 
 164:/home/fanxinhao/Work/LiteOS_Lab/iot_link/os/liteos/arch/arm/arm-m/src/los_hw.c **** #if (LOSCFG_ENABLE_MPU == YES)
 165:/home/fanxinhao/Work/LiteOS_Lab/iot_link/os/liteos/arch/arm/arm-m/src/los_hw.c **** 
 166:/home/fanxinhao/Work/LiteOS_Lab/iot_link/os/liteos/arch/arm/arm-m/src/los_hw.c ****     if (pstMpuPara != NULL)
 167:/home/fanxinhao/Work/LiteOS_Lab/iot_link/os/liteos/arch/arm/arm-m/src/los_hw.c ****     {
 168:/home/fanxinhao/Work/LiteOS_Lab/iot_link/os/liteos/arch/arm/arm-m/src/los_hw.c ****         UINT32 allRegionBase, allRegionSize;
 169:/home/fanxinhao/Work/LiteOS_Lab/iot_link/os/liteos/arch/arm/arm-m/src/los_hw.c **** 
 170:/home/fanxinhao/Work/LiteOS_Lab/iot_link/os/liteos/arch/arm/arm-m/src/los_hw.c ****         /* per-task heap is only used for unprivileged task */
 171:/home/fanxinhao/Work/LiteOS_Lab/iot_link/os/liteos/arch/arm/arm-m/src/los_hw.c **** 
 172:/home/fanxinhao/Work/LiteOS_Lab/iot_link/os/liteos/arch/arm/arm-m/src/los_hw.c **** #if (LOSCFG_STATIC_TASK == NO)
 173:/home/fanxinhao/Work/LiteOS_Lab/iot_link/os/liteos/arch/arm/arm-m/src/los_hw.c ****         pstTaskCB->uwHeapSize = pstInitParam->uwHeapSize;
 174:/home/fanxinhao/Work/LiteOS_Lab/iot_link/os/liteos/arch/arm/arm-m/src/los_hw.c **** #endif
 175:/home/fanxinhao/Work/LiteOS_Lab/iot_link/os/liteos/arch/arm/arm-m/src/los_hw.c **** 
 176:/home/fanxinhao/Work/LiteOS_Lab/iot_link/os/liteos/arch/arm/arm-m/src/los_hw.c ****         if (pstTaskCB->uwHeapSize)
 177:/home/fanxinhao/Work/LiteOS_Lab/iot_link/os/liteos/arch/arm/arm-m/src/los_hw.c ****         {
 178:/home/fanxinhao/Work/LiteOS_Lab/iot_link/os/liteos/arch/arm/arm-m/src/los_hw.c **** 
 179:/home/fanxinhao/Work/LiteOS_Lab/iot_link/os/liteos/arch/arm/arm-m/src/los_hw.c ****             /* the pool address is just the begin of stack, see osTskStackAlloc */
 180:/home/fanxinhao/Work/LiteOS_Lab/iot_link/os/liteos/arch/arm/arm-m/src/los_hw.c **** 
 181:/home/fanxinhao/Work/LiteOS_Lab/iot_link/os/liteos/arch/arm/arm-m/src/los_hw.c ****             if (LOS_MemInit (pStack, pstTaskCB->uwHeapSize))
 182:/home/fanxinhao/Work/LiteOS_Lab/iot_link/os/liteos/arch/arm/arm-m/src/los_hw.c ****             {
 183:/home/fanxinhao/Work/LiteOS_Lab/iot_link/os/liteos/arch/arm/arm-m/src/los_hw.c ****                 PRINT_ERR("init per task heap fail!\n");
 184:/home/fanxinhao/Work/LiteOS_Lab/iot_link/os/liteos/arch/arm/arm-m/src/los_hw.c ****                 pstTaskCB->pPool = NULL;
 185:/home/fanxinhao/Work/LiteOS_Lab/iot_link/os/liteos/arch/arm/arm-m/src/los_hw.c ****             }
 186:/home/fanxinhao/Work/LiteOS_Lab/iot_link/os/liteos/arch/arm/arm-m/src/los_hw.c ****             else
 187:/home/fanxinhao/Work/LiteOS_Lab/iot_link/os/liteos/arch/arm/arm-m/src/los_hw.c ****             {
 188:/home/fanxinhao/Work/LiteOS_Lab/iot_link/os/liteos/arch/arm/arm-m/src/los_hw.c ****                 pstTaskCB->pPool = pStack;
 189:/home/fanxinhao/Work/LiteOS_Lab/iot_link/os/liteos/arch/arm/arm-m/src/los_hw.c ****             }
 190:/home/fanxinhao/Work/LiteOS_Lab/iot_link/os/liteos/arch/arm/arm-m/src/los_hw.c ****         }
 191:/home/fanxinhao/Work/LiteOS_Lab/iot_link/os/liteos/arch/arm/arm-m/src/los_hw.c **** 
 192:/home/fanxinhao/Work/LiteOS_Lab/iot_link/os/liteos/arch/arm/arm-m/src/los_hw.c ****         /* plus 1 for stack */
 193:/home/fanxinhao/Work/LiteOS_Lab/iot_link/os/liteos/arch/arm/arm-m/src/los_hw.c **** 
 194:/home/fanxinhao/Work/LiteOS_Lab/iot_link/os/liteos/arch/arm/arm-m/src/los_hw.c ****         pStack -= sizeof(LOS_MPU_ENTRY) * (MPU_NR_USR_ENTRIES + 1);
 195:/home/fanxinhao/Work/LiteOS_Lab/iot_link/os/liteos/arch/arm/arm-m/src/los_hw.c ****         pstMpuSetting = (LOS_MPU_ENTRY *)pStack;
 196:/home/fanxinhao/Work/LiteOS_Lab/iot_link/os/liteos/arch/arm/arm-m/src/los_hw.c **** 
 197:/home/fanxinhao/Work/LiteOS_Lab/iot_link/os/liteos/arch/arm/arm-m/src/los_hw.c ****         for (i = 0; i < MPU_NR_USR_ENTRIES; i++)
 198:/home/fanxinhao/Work/LiteOS_Lab/iot_link/os/liteos/arch/arm/arm-m/src/los_hw.c ****         {
 199:/home/fanxinhao/Work/LiteOS_Lab/iot_link/os/liteos/arch/arm/arm-m/src/los_hw.c ****             pstMpuSetting [i].uwRegionAddr = pstMpuPara[i].uwRegionAddr |
 200:/home/fanxinhao/Work/LiteOS_Lab/iot_link/os/liteos/arch/arm/arm-m/src/los_hw.c ****                 MPU_RBAR_REGION (i + MPU_FIRST_USR_REGION) | MPU_RBAR_VALID;
 201:/home/fanxinhao/Work/LiteOS_Lab/iot_link/os/liteos/arch/arm/arm-m/src/los_hw.c ****             pstMpuSetting [i].uwRegionAttr = pstMpuPara[i].uwRegionAttr |
 202:/home/fanxinhao/Work/LiteOS_Lab/iot_link/os/liteos/arch/arm/arm-m/src/los_hw.c ****                 MPU_ATTR_SZ (pstMpuPara[i].uwRegionSize);
 203:/home/fanxinhao/Work/LiteOS_Lab/iot_link/os/liteos/arch/arm/arm-m/src/los_hw.c ****         }
 204:/home/fanxinhao/Work/LiteOS_Lab/iot_link/os/liteos/arch/arm/arm-m/src/los_hw.c **** 
ARM GAS  /tmp/cclpoteW.s 			page 10


 205:/home/fanxinhao/Work/LiteOS_Lab/iot_link/os/liteos/arch/arm/arm-m/src/los_hw.c ****         allRegionBase = pstTaskCB->uwTopOfStack;
 206:/home/fanxinhao/Work/LiteOS_Lab/iot_link/os/liteos/arch/arm/arm-m/src/los_hw.c ****         allRegionSize = pstTaskCB->uwStackSize + pstTaskCB->uwHeapSize;
 207:/home/fanxinhao/Work/LiteOS_Lab/iot_link/os/liteos/arch/arm/arm-m/src/los_hw.c **** 
 208:/home/fanxinhao/Work/LiteOS_Lab/iot_link/os/liteos/arch/arm/arm-m/src/los_hw.c ****         pstMpuSetting [MPU_NR_USR_ENTRIES].uwRegionAddr =
 209:/home/fanxinhao/Work/LiteOS_Lab/iot_link/os/liteos/arch/arm/arm-m/src/los_hw.c ****             allRegionBase | MPU_RBAR_VALID |
 210:/home/fanxinhao/Work/LiteOS_Lab/iot_link/os/liteos/arch/arm/arm-m/src/los_hw.c ****             MPU_RBAR_REGION (MPU_NR_USR_ENTRIES + MPU_FIRST_USR_REGION);
 211:/home/fanxinhao/Work/LiteOS_Lab/iot_link/os/liteos/arch/arm/arm-m/src/los_hw.c ****         pstMpuSetting [MPU_NR_USR_ENTRIES].uwRegionAttr =
 212:/home/fanxinhao/Work/LiteOS_Lab/iot_link/os/liteos/arch/arm/arm-m/src/los_hw.c ****             MPU_ATTR_RW_RW | MPU_ATTR_SZ (allRegionSize) | MPU_ATTR_WB |
 213:/home/fanxinhao/Work/LiteOS_Lab/iot_link/os/liteos/arch/arm/arm-m/src/los_hw.c ****             MPU_ATTR_EN | MPU_ATTR_XN;
 214:/home/fanxinhao/Work/LiteOS_Lab/iot_link/os/liteos/arch/arm/arm-m/src/los_hw.c ****     }
 215:/home/fanxinhao/Work/LiteOS_Lab/iot_link/os/liteos/arch/arm/arm-m/src/los_hw.c ****     else
 216:/home/fanxinhao/Work/LiteOS_Lab/iot_link/os/liteos/arch/arm/arm-m/src/los_hw.c ****     {
 217:/home/fanxinhao/Work/LiteOS_Lab/iot_link/os/liteos/arch/arm/arm-m/src/los_hw.c ****         pstTaskCB->pPool = (void *)OS_SYS_MEM_ADDR;
 218:/home/fanxinhao/Work/LiteOS_Lab/iot_link/os/liteos/arch/arm/arm-m/src/los_hw.c **** 
 219:/home/fanxinhao/Work/LiteOS_Lab/iot_link/os/liteos/arch/arm/arm-m/src/los_hw.c ****         pstMpuSetting = astNullMpuSetting;
 220:/home/fanxinhao/Work/LiteOS_Lab/iot_link/os/liteos/arch/arm/arm-m/src/los_hw.c **** 
 221:/home/fanxinhao/Work/LiteOS_Lab/iot_link/os/liteos/arch/arm/arm-m/src/los_hw.c ****         for (i = 0; i < MPU_NR_USR_ENTRIES + 1; i++)
 222:/home/fanxinhao/Work/LiteOS_Lab/iot_link/os/liteos/arch/arm/arm-m/src/los_hw.c ****         {
 223:/home/fanxinhao/Work/LiteOS_Lab/iot_link/os/liteos/arch/arm/arm-m/src/los_hw.c ****             pstMpuSetting [i].uwRegionAddr = 0 |
 224:/home/fanxinhao/Work/LiteOS_Lab/iot_link/os/liteos/arch/arm/arm-m/src/los_hw.c ****                 MPU_RBAR_REGION (i + MPU_FIRST_USR_REGION) | MPU_RBAR_VALID;
 225:/home/fanxinhao/Work/LiteOS_Lab/iot_link/os/liteos/arch/arm/arm-m/src/los_hw.c ****             pstMpuSetting [i].uwRegionAttr = 0;
 226:/home/fanxinhao/Work/LiteOS_Lab/iot_link/os/liteos/arch/arm/arm-m/src/los_hw.c ****         }
 227:/home/fanxinhao/Work/LiteOS_Lab/iot_link/os/liteos/arch/arm/arm-m/src/los_hw.c ****     }
 228:/home/fanxinhao/Work/LiteOS_Lab/iot_link/os/liteos/arch/arm/arm-m/src/los_hw.c **** 
 229:/home/fanxinhao/Work/LiteOS_Lab/iot_link/os/liteos/arch/arm/arm-m/src/los_hw.c ****     pstTaskCB->pMpuSettings = (VOID *)pstMpuSetting;
 230:/home/fanxinhao/Work/LiteOS_Lab/iot_link/os/liteos/arch/arm/arm-m/src/los_hw.c **** #endif
 231:/home/fanxinhao/Work/LiteOS_Lab/iot_link/os/liteos/arch/arm/arm-m/src/los_hw.c **** 
 232:/home/fanxinhao/Work/LiteOS_Lab/iot_link/os/liteos/arch/arm/arm-m/src/los_hw.c ****     pStack -= sizeof(TSK_CONTEXT_S);
 220              		.loc 1 232 12
 221 0032 3B69     		ldr	r3, [r7, #16]
 222 0034 483B     		subs	r3, r3, #72
 223 0036 3B61     		str	r3, [r7, #16]
 233:/home/fanxinhao/Work/LiteOS_Lab/iot_link/os/liteos/arch/arm/arm-m/src/los_hw.c **** 
 234:/home/fanxinhao/Work/LiteOS_Lab/iot_link/os/liteos/arch/arm/arm-m/src/los_hw.c ****     pstContext = (TSK_CONTEXT_S *)pStack;
 224              		.loc 1 234 16
 225 0038 3B69     		ldr	r3, [r7, #16]
 226 003a FB60     		str	r3, [r7, #12]
 235:/home/fanxinhao/Work/LiteOS_Lab/iot_link/os/liteos/arch/arm/arm-m/src/los_hw.c **** 
 236:/home/fanxinhao/Work/LiteOS_Lab/iot_link/os/liteos/arch/arm/arm-m/src/los_hw.c **** #if (LOSCFG_ENABLE_MPU == YES)
 237:/home/fanxinhao/Work/LiteOS_Lab/iot_link/os/liteos/arch/arm/arm-m/src/los_hw.c **** 
 238:/home/fanxinhao/Work/LiteOS_Lab/iot_link/os/liteos/arch/arm/arm-m/src/los_hw.c ****     /*
 239:/home/fanxinhao/Work/LiteOS_Lab/iot_link/os/liteos/arch/arm/arm-m/src/los_hw.c ****      * 1. CONTROL.SPSEL is reserved in handler mode, and context load is always
 240:/home/fanxinhao/Work/LiteOS_Lab/iot_link/os/liteos/arch/arm/arm-m/src/los_hw.c ****      *    happend in handler mode expected the first one, so do not set this bit
 241:/home/fanxinhao/Work/LiteOS_Lab/iot_link/os/liteos/arch/arm/arm-m/src/los_hw.c ****      * 2. task is created at priveledged mode, for usr task, it is switched to
 242:/home/fanxinhao/Work/LiteOS_Lab/iot_link/os/liteos/arch/arm/arm-m/src/los_hw.c ****      *    usr mode in osUsrTaskEntry
 243:/home/fanxinhao/Work/LiteOS_Lab/iot_link/os/liteos/arch/arm/arm-m/src/los_hw.c ****      */
 244:/home/fanxinhao/Work/LiteOS_Lab/iot_link/os/liteos/arch/arm/arm-m/src/los_hw.c **** 
 245:/home/fanxinhao/Work/LiteOS_Lab/iot_link/os/liteos/arch/arm/arm-m/src/los_hw.c ****     pstContext->uwControl = 0;
 246:/home/fanxinhao/Work/LiteOS_Lab/iot_link/os/liteos/arch/arm/arm-m/src/los_hw.c **** #endif
 247:/home/fanxinhao/Work/LiteOS_Lab/iot_link/os/liteos/arch/arm/arm-m/src/los_hw.c **** 
 248:/home/fanxinhao/Work/LiteOS_Lab/iot_link/os/liteos/arch/arm/arm-m/src/los_hw.c ****     pstContext->uwR4  = 0x04040404L;
 227              		.loc 1 248 23
 228 003c FB68     		ldr	r3, [r7, #12]
 229 003e 4FF00432 		mov	r2, #67372036
 230 0042 1A60     		str	r2, [r3]
 249:/home/fanxinhao/Work/LiteOS_Lab/iot_link/os/liteos/arch/arm/arm-m/src/los_hw.c ****     pstContext->uwR5  = 0x05050505L;
 231              		.loc 1 249 23
ARM GAS  /tmp/cclpoteW.s 			page 11


 232 0044 FB68     		ldr	r3, [r7, #12]
 233 0046 4FF00532 		mov	r2, #84215045
 234 004a 5A60     		str	r2, [r3, #4]
 250:/home/fanxinhao/Work/LiteOS_Lab/iot_link/os/liteos/arch/arm/arm-m/src/los_hw.c ****     pstContext->uwR6  = 0x06060606L;
 235              		.loc 1 250 23
 236 004c FB68     		ldr	r3, [r7, #12]
 237 004e 4FF00632 		mov	r2, #101058054
 238 0052 9A60     		str	r2, [r3, #8]
 251:/home/fanxinhao/Work/LiteOS_Lab/iot_link/os/liteos/arch/arm/arm-m/src/los_hw.c ****     pstContext->uwR7  = 0x07070707L;
 239              		.loc 1 251 23
 240 0054 FB68     		ldr	r3, [r7, #12]
 241 0056 4FF00732 		mov	r2, #117901063
 242 005a DA60     		str	r2, [r3, #12]
 252:/home/fanxinhao/Work/LiteOS_Lab/iot_link/os/liteos/arch/arm/arm-m/src/los_hw.c ****     pstContext->uwR8  = 0x08080808L;
 243              		.loc 1 252 23
 244 005c FB68     		ldr	r3, [r7, #12]
 245 005e 4FF00832 		mov	r2, #134744072
 246 0062 1A61     		str	r2, [r3, #16]
 253:/home/fanxinhao/Work/LiteOS_Lab/iot_link/os/liteos/arch/arm/arm-m/src/los_hw.c ****     pstContext->uwR9  = 0x09090909L;
 247              		.loc 1 253 23
 248 0064 FB68     		ldr	r3, [r7, #12]
 249 0066 4FF00932 		mov	r2, #151587081
 250 006a 5A61     		str	r2, [r3, #20]
 254:/home/fanxinhao/Work/LiteOS_Lab/iot_link/os/liteos/arch/arm/arm-m/src/los_hw.c ****     pstContext->uwR10 = 0x10101010L;
 251              		.loc 1 254 23
 252 006c FB68     		ldr	r3, [r7, #12]
 253 006e 4FF01032 		mov	r2, #269488144
 254 0072 9A61     		str	r2, [r3, #24]
 255:/home/fanxinhao/Work/LiteOS_Lab/iot_link/os/liteos/arch/arm/arm-m/src/los_hw.c ****     pstContext->uwR11 = 0x11111111L;
 255              		.loc 1 255 23
 256 0074 FB68     		ldr	r3, [r7, #12]
 257 0076 4FF01132 		mov	r2, #286331153
 258 007a DA61     		str	r2, [r3, #28]
 256:/home/fanxinhao/Work/LiteOS_Lab/iot_link/os/liteos/arch/arm/arm-m/src/los_hw.c ****     /* The initial interruption state(PRIMASK value: 0 --- enable) of the task */
 257:/home/fanxinhao/Work/LiteOS_Lab/iot_link/os/liteos/arch/arm/arm-m/src/los_hw.c ****     pstContext->uwPriMask = 0;
 259              		.loc 1 257 27
 260 007c FB68     		ldr	r3, [r7, #12]
 261 007e 0022     		movs	r2, #0
 262 0080 1A62     		str	r2, [r3, #32]
 258:/home/fanxinhao/Work/LiteOS_Lab/iot_link/os/liteos/arch/arm/arm-m/src/los_hw.c **** #if FPU_EXIST
 259:/home/fanxinhao/Work/LiteOS_Lab/iot_link/os/liteos/arch/arm/arm-m/src/los_hw.c ****     /**
 260:/home/fanxinhao/Work/LiteOS_Lab/iot_link/os/liteos/arch/arm/arm-m/src/los_hw.c ****      * The initial EXC_RETURN value(use 8 word stack frame, return to thread mode and use PSP).
 261:/home/fanxinhao/Work/LiteOS_Lab/iot_link/os/liteos/arch/arm/arm-m/src/los_hw.c ****      * Please do not modify it.
 262:/home/fanxinhao/Work/LiteOS_Lab/iot_link/os/liteos/arch/arm/arm-m/src/los_hw.c ****      */
 263:/home/fanxinhao/Work/LiteOS_Lab/iot_link/os/liteos/arch/arm/arm-m/src/los_hw.c ****     pstContext->uwExcReturn = 0xFFFFFFFD;
 263              		.loc 1 263 29
 264 0082 FB68     		ldr	r3, [r7, #12]
 265 0084 6FF00202 		mvn	r2, #2
 266 0088 5A62     		str	r2, [r3, #36]
 264:/home/fanxinhao/Work/LiteOS_Lab/iot_link/os/liteos/arch/arm/arm-m/src/los_hw.c **** #endif
 265:/home/fanxinhao/Work/LiteOS_Lab/iot_link/os/liteos/arch/arm/arm-m/src/los_hw.c ****     pstContext->uwR0  = pstTaskCB->uwTaskID;
 267              		.loc 1 265 34
 268 008a 7B68     		ldr	r3, [r7, #4]
 269 008c 1A69     		ldr	r2, [r3, #16]
 270              		.loc 1 265 23
 271 008e FB68     		ldr	r3, [r7, #12]
 272 0090 9A62     		str	r2, [r3, #40]
ARM GAS  /tmp/cclpoteW.s 			page 12


 266:/home/fanxinhao/Work/LiteOS_Lab/iot_link/os/liteos/arch/arm/arm-m/src/los_hw.c ****     pstContext->uwR1  = 0x01010101L;
 273              		.loc 1 266 23
 274 0092 FB68     		ldr	r3, [r7, #12]
 275 0094 4FF00132 		mov	r2, #16843009
 276 0098 DA62     		str	r2, [r3, #44]
 267:/home/fanxinhao/Work/LiteOS_Lab/iot_link/os/liteos/arch/arm/arm-m/src/los_hw.c ****     pstContext->uwR2  = 0x02020202L;
 277              		.loc 1 267 23
 278 009a FB68     		ldr	r3, [r7, #12]
 279 009c 4FF00232 		mov	r2, #33686018
 280 00a0 1A63     		str	r2, [r3, #48]
 268:/home/fanxinhao/Work/LiteOS_Lab/iot_link/os/liteos/arch/arm/arm-m/src/los_hw.c ****     pstContext->uwR3  = 0x03030303L;
 281              		.loc 1 268 23
 282 00a2 FB68     		ldr	r3, [r7, #12]
 283 00a4 4FF00332 		mov	r2, #50529027
 284 00a8 5A63     		str	r2, [r3, #52]
 269:/home/fanxinhao/Work/LiteOS_Lab/iot_link/os/liteos/arch/arm/arm-m/src/los_hw.c ****     pstContext->uwR12 = 0x12121212L;
 285              		.loc 1 269 23
 286 00aa FB68     		ldr	r3, [r7, #12]
 287 00ac 4FF01232 		mov	r2, #303174162
 288 00b0 9A63     		str	r2, [r3, #56]
 270:/home/fanxinhao/Work/LiteOS_Lab/iot_link/os/liteos/arch/arm/arm-m/src/los_hw.c ****     pstContext->uwLR  = (UINT32)osTaskExit;
 289              		.loc 1 270 25
 290 00b2 084A     		ldr	r2, .L11
 291              		.loc 1 270 23
 292 00b4 FB68     		ldr	r3, [r7, #12]
 293 00b6 DA63     		str	r2, [r3, #60]
 271:/home/fanxinhao/Work/LiteOS_Lab/iot_link/os/liteos/arch/arm/arm-m/src/los_hw.c **** #if (LOSCFG_ENABLE_MPU == YES)
 272:/home/fanxinhao/Work/LiteOS_Lab/iot_link/os/liteos/arch/arm/arm-m/src/los_hw.c ****     if (pstMpuPara != NULL)
 273:/home/fanxinhao/Work/LiteOS_Lab/iot_link/os/liteos/arch/arm/arm-m/src/los_hw.c ****     {
 274:/home/fanxinhao/Work/LiteOS_Lab/iot_link/os/liteos/arch/arm/arm-m/src/los_hw.c ****         pstContext->uwPC  = (UINT32)osUsrTaskEntry;
 275:/home/fanxinhao/Work/LiteOS_Lab/iot_link/os/liteos/arch/arm/arm-m/src/los_hw.c ****     }
 276:/home/fanxinhao/Work/LiteOS_Lab/iot_link/os/liteos/arch/arm/arm-m/src/los_hw.c ****     else
 277:/home/fanxinhao/Work/LiteOS_Lab/iot_link/os/liteos/arch/arm/arm-m/src/los_hw.c **** #endif
 278:/home/fanxinhao/Work/LiteOS_Lab/iot_link/os/liteos/arch/arm/arm-m/src/los_hw.c ****     pstContext->uwPC  = (UINT32)osTaskEntry;
 294              		.loc 1 278 25
 295 00b8 074A     		ldr	r2, .L11+4
 296              		.loc 1 278 23
 297 00ba FB68     		ldr	r3, [r7, #12]
 298 00bc 1A64     		str	r2, [r3, #64]
 279:/home/fanxinhao/Work/LiteOS_Lab/iot_link/os/liteos/arch/arm/arm-m/src/los_hw.c ****     pstContext->uwxPSR = 0x01000000L;
 299              		.loc 1 279 24
 300 00be FB68     		ldr	r3, [r7, #12]
 301 00c0 4FF08072 		mov	r2, #16777216
 302 00c4 5A64     		str	r2, [r3, #68]
 280:/home/fanxinhao/Work/LiteOS_Lab/iot_link/os/liteos/arch/arm/arm-m/src/los_hw.c **** 
 281:/home/fanxinhao/Work/LiteOS_Lab/iot_link/os/liteos/arch/arm/arm-m/src/los_hw.c ****     pstTaskCB->pStackPointer = (VOID *)pStack;
 303              		.loc 1 281 30
 304 00c6 7B68     		ldr	r3, [r7, #4]
 305 00c8 3A69     		ldr	r2, [r7, #16]
 306 00ca 1A60     		str	r2, [r3]
 282:/home/fanxinhao/Work/LiteOS_Lab/iot_link/os/liteos/arch/arm/arm-m/src/los_hw.c **** 
 283:/home/fanxinhao/Work/LiteOS_Lab/iot_link/os/liteos/arch/arm/arm-m/src/los_hw.c ****     return;
 307              		.loc 1 283 5
 308 00cc 00BF     		nop
 284:/home/fanxinhao/Work/LiteOS_Lab/iot_link/os/liteos/arch/arm/arm-m/src/los_hw.c **** }
 309              		.loc 1 284 1
 310 00ce 1837     		adds	r7, r7, #24
ARM GAS  /tmp/cclpoteW.s 			page 13


 311              	.LCFI12:
 312              		.cfi_def_cfa_offset 8
 313 00d0 BD46     		mov	sp, r7
 314              	.LCFI13:
 315              		.cfi_def_cfa_register 13
 316              		@ sp needed
 317 00d2 80BD     		pop	{r7, pc}
 318              	.L12:
 319              		.align	2
 320              	.L11:
 321 00d4 00000000 		.word	osTaskExit
 322 00d8 00000000 		.word	osTaskEntry
 323              		.cfi_endproc
 324              	.LFE136:
 326              		.section	.text.osTskStackAlloc,"ax",%progbits
 327              		.align	1
 328              		.global	osTskStackAlloc
 329              		.syntax unified
 330              		.thumb
 331              		.thumb_func
 332              		.fpu fpv4-sp-d16
 334              	osTskStackAlloc:
 335              	.LFB137:
 285:/home/fanxinhao/Work/LiteOS_Lab/iot_link/os/liteos/arch/arm/arm-m/src/los_hw.c **** 
 286:/home/fanxinhao/Work/LiteOS_Lab/iot_link/os/liteos/arch/arm/arm-m/src/los_hw.c **** #if (LOSCFG_STATIC_TASK == NO)
 287:/home/fanxinhao/Work/LiteOS_Lab/iot_link/os/liteos/arch/arm/arm-m/src/los_hw.c **** LITE_OS_SEC_TEXT_INIT VOID *osTskStackAlloc (TSK_INIT_PARAM_S *pstInitParam)
 288:/home/fanxinhao/Work/LiteOS_Lab/iot_link/os/liteos/arch/arm/arm-m/src/los_hw.c **** {
 336              		.loc 1 288 1
 337              		.cfi_startproc
 338              		@ args = 0, pretend = 0, frame = 16
 339              		@ frame_needed = 1, uses_anonymous_args = 0
 340 0000 80B5     		push	{r7, lr}
 341              	.LCFI14:
 342              		.cfi_def_cfa_offset 8
 343              		.cfi_offset 7, -8
 344              		.cfi_offset 14, -4
 345 0002 84B0     		sub	sp, sp, #16
 346              	.LCFI15:
 347              		.cfi_def_cfa_offset 24
 348 0004 00AF     		add	r7, sp, #0
 349              	.LCFI16:
 350              		.cfi_def_cfa_register 7
 351 0006 7860     		str	r0, [r7, #4]
 289:/home/fanxinhao/Work/LiteOS_Lab/iot_link/os/liteos/arch/arm/arm-m/src/los_hw.c ****     UINT32 align = LOSCFG_STACK_POINT_ALIGN_SIZE;
 352              		.loc 1 289 12
 353 0008 0823     		movs	r3, #8
 354 000a FB60     		str	r3, [r7, #12]
 290:/home/fanxinhao/Work/LiteOS_Lab/iot_link/os/liteos/arch/arm/arm-m/src/los_hw.c ****     UINT32 alloc;
 291:/home/fanxinhao/Work/LiteOS_Lab/iot_link/os/liteos/arch/arm/arm-m/src/los_hw.c **** 
 292:/home/fanxinhao/Work/LiteOS_Lab/iot_link/os/liteos/arch/arm/arm-m/src/los_hw.c ****     /* TSK_CONTEXT_S will take space in stack, reserve space for it */
 293:/home/fanxinhao/Work/LiteOS_Lab/iot_link/os/liteos/arch/arm/arm-m/src/los_hw.c ****     pstInitParam->uwStackSize += ALIGN(sizeof (TSK_CONTEXT_S) , LOSCFG_STACK_POINT_ALIGN_SIZE);
 355              		.loc 1 293 34
 356 000c 0821     		movs	r1, #8
 357 000e 4820     		movs	r0, #72
 358 0010 FFF7FEFF 		bl	LOS_Align
 359 0014 0246     		mov	r2, r0
 360              		.loc 1 293 31
ARM GAS  /tmp/cclpoteW.s 			page 14


 361 0016 7B68     		ldr	r3, [r7, #4]
 362 0018 DB68     		ldr	r3, [r3, #12]
 363 001a 1A44     		add	r2, r2, r3
 364 001c 7B68     		ldr	r3, [r7, #4]
 365 001e DA60     		str	r2, [r3, #12]
 294:/home/fanxinhao/Work/LiteOS_Lab/iot_link/os/liteos/arch/arm/arm-m/src/los_hw.c **** 
 295:/home/fanxinhao/Work/LiteOS_Lab/iot_link/os/liteos/arch/arm/arm-m/src/los_hw.c **** 
 296:/home/fanxinhao/Work/LiteOS_Lab/iot_link/os/liteos/arch/arm/arm-m/src/los_hw.c **** 
 297:/home/fanxinhao/Work/LiteOS_Lab/iot_link/os/liteos/arch/arm/arm-m/src/los_hw.c **** #if (LOSCFG_ENABLE_MPU == YES)
 298:/home/fanxinhao/Work/LiteOS_Lab/iot_link/os/liteos/arch/arm/arm-m/src/los_hw.c ****     if (pstInitParam->pRegions != NULL)
 299:/home/fanxinhao/Work/LiteOS_Lab/iot_link/os/liteos/arch/arm/arm-m/src/los_hw.c ****     {
 300:/home/fanxinhao/Work/LiteOS_Lab/iot_link/os/liteos/arch/arm/arm-m/src/los_hw.c **** 
 301:/home/fanxinhao/Work/LiteOS_Lab/iot_link/os/liteos/arch/arm/arm-m/src/los_hw.c ****         /* LOS_MPU_ENTRY will be allocated from stack, reserve space for it,
 302:/home/fanxinhao/Work/LiteOS_Lab/iot_link/os/liteos/arch/arm/arm-m/src/los_hw.c ****            +1 for the stack entry */
 303:/home/fanxinhao/Work/LiteOS_Lab/iot_link/os/liteos/arch/arm/arm-m/src/los_hw.c **** 
 304:/home/fanxinhao/Work/LiteOS_Lab/iot_link/os/liteos/arch/arm/arm-m/src/los_hw.c ****         pstInitParam->uwStackSize += sizeof (LOS_MPU_ENTRY) * (MPU_NR_USR_ENTRIES + 1);
 305:/home/fanxinhao/Work/LiteOS_Lab/iot_link/os/liteos/arch/arm/arm-m/src/los_hw.c **** 
 306:/home/fanxinhao/Work/LiteOS_Lab/iot_link/os/liteos/arch/arm/arm-m/src/los_hw.c ****         /* make sure the heap size is correctly aligned */
 307:/home/fanxinhao/Work/LiteOS_Lab/iot_link/os/liteos/arch/arm/arm-m/src/los_hw.c **** 
 308:/home/fanxinhao/Work/LiteOS_Lab/iot_link/os/liteos/arch/arm/arm-m/src/los_hw.c ****         if (pstInitParam->uwHeapSize != 0)
 309:/home/fanxinhao/Work/LiteOS_Lab/iot_link/os/liteos/arch/arm/arm-m/src/los_hw.c ****             {
 310:/home/fanxinhao/Work/LiteOS_Lab/iot_link/os/liteos/arch/arm/arm-m/src/los_hw.c ****             pstInitParam->uwHeapSize += sizeof (heap_t);
 311:/home/fanxinhao/Work/LiteOS_Lab/iot_link/os/liteos/arch/arm/arm-m/src/los_hw.c ****             }
 312:/home/fanxinhao/Work/LiteOS_Lab/iot_link/os/liteos/arch/arm/arm-m/src/los_hw.c **** 
 313:/home/fanxinhao/Work/LiteOS_Lab/iot_link/os/liteos/arch/arm/arm-m/src/los_hw.c ****         pstInitParam->uwHeapSize = ALIGN(pstInitParam->uwHeapSize, 8);
 314:/home/fanxinhao/Work/LiteOS_Lab/iot_link/os/liteos/arch/arm/arm-m/src/los_hw.c **** 
 315:/home/fanxinhao/Work/LiteOS_Lab/iot_link/os/liteos/arch/arm/arm-m/src/los_hw.c ****         alloc = pstInitParam->uwStackSize + pstInitParam->uwHeapSize;
 316:/home/fanxinhao/Work/LiteOS_Lab/iot_link/os/liteos/arch/arm/arm-m/src/los_hw.c **** 
 317:/home/fanxinhao/Work/LiteOS_Lab/iot_link/os/liteos/arch/arm/arm-m/src/los_hw.c ****         if (alloc < 256)        /* the minimal supported region size is 256 */
 318:/home/fanxinhao/Work/LiteOS_Lab/iot_link/os/liteos/arch/arm/arm-m/src/los_hw.c ****         {
 319:/home/fanxinhao/Work/LiteOS_Lab/iot_link/os/liteos/arch/arm/arm-m/src/los_hw.c ****             alloc = 256;
 320:/home/fanxinhao/Work/LiteOS_Lab/iot_link/os/liteos/arch/arm/arm-m/src/los_hw.c ****         }
 321:/home/fanxinhao/Work/LiteOS_Lab/iot_link/os/liteos/arch/arm/arm-m/src/los_hw.c ****         else
 322:/home/fanxinhao/Work/LiteOS_Lab/iot_link/os/liteos/arch/arm/arm-m/src/los_hw.c ****         {
 323:/home/fanxinhao/Work/LiteOS_Lab/iot_link/os/liteos/arch/arm/arm-m/src/los_hw.c ****             /* make sure the size is power of 2 */
 324:/home/fanxinhao/Work/LiteOS_Lab/iot_link/os/liteos/arch/arm/arm-m/src/los_hw.c **** 
 325:/home/fanxinhao/Work/LiteOS_Lab/iot_link/os/liteos/arch/arm/arm-m/src/los_hw.c ****             if (alloc & (alloc - 1))
 326:/home/fanxinhao/Work/LiteOS_Lab/iot_link/os/liteos/arch/arm/arm-m/src/los_hw.c ****             {
 327:/home/fanxinhao/Work/LiteOS_Lab/iot_link/os/liteos/arch/arm/arm-m/src/los_hw.c ****                 alloc = 1 << (32 - CLZ (alloc));
 328:/home/fanxinhao/Work/LiteOS_Lab/iot_link/os/liteos/arch/arm/arm-m/src/los_hw.c ****             }
 329:/home/fanxinhao/Work/LiteOS_Lab/iot_link/os/liteos/arch/arm/arm-m/src/los_hw.c ****         }
 330:/home/fanxinhao/Work/LiteOS_Lab/iot_link/os/liteos/arch/arm/arm-m/src/los_hw.c **** 
 331:/home/fanxinhao/Work/LiteOS_Lab/iot_link/os/liteos/arch/arm/arm-m/src/los_hw.c ****         pstInitParam->uwStackSize = alloc - pstInitParam->uwHeapSize;
 332:/home/fanxinhao/Work/LiteOS_Lab/iot_link/os/liteos/arch/arm/arm-m/src/los_hw.c **** 
 333:/home/fanxinhao/Work/LiteOS_Lab/iot_link/os/liteos/arch/arm/arm-m/src/los_hw.c ****         align = alloc;
 334:/home/fanxinhao/Work/LiteOS_Lab/iot_link/os/liteos/arch/arm/arm-m/src/los_hw.c ****     }
 335:/home/fanxinhao/Work/LiteOS_Lab/iot_link/os/liteos/arch/arm/arm-m/src/los_hw.c ****     else
 336:/home/fanxinhao/Work/LiteOS_Lab/iot_link/os/liteos/arch/arm/arm-m/src/los_hw.c **** #endif
 337:/home/fanxinhao/Work/LiteOS_Lab/iot_link/os/liteos/arch/arm/arm-m/src/los_hw.c ****     {
 338:/home/fanxinhao/Work/LiteOS_Lab/iot_link/os/liteos/arch/arm/arm-m/src/los_hw.c ****         alloc = pstInitParam->uwStackSize;
 366              		.loc 1 338 15
 367 0020 7B68     		ldr	r3, [r7, #4]
 368 0022 DB68     		ldr	r3, [r3, #12]
 369 0024 BB60     		str	r3, [r7, #8]
 339:/home/fanxinhao/Work/LiteOS_Lab/iot_link/os/liteos/arch/arm/arm-m/src/los_hw.c ****     }
 340:/home/fanxinhao/Work/LiteOS_Lab/iot_link/os/liteos/arch/arm/arm-m/src/los_hw.c **** 
 341:/home/fanxinhao/Work/LiteOS_Lab/iot_link/os/liteos/arch/arm/arm-m/src/los_hw.c **** 
ARM GAS  /tmp/cclpoteW.s 			page 15


 342:/home/fanxinhao/Work/LiteOS_Lab/iot_link/os/liteos/arch/arm/arm-m/src/los_hw.c **** 
 343:/home/fanxinhao/Work/LiteOS_Lab/iot_link/os/liteos/arch/arm/arm-m/src/los_hw.c ****     return LOS_MemAllocAlign(OS_TASK_STACK_ADDR, alloc, align);
 370              		.loc 1 343 12
 371 0026 064B     		ldr	r3, .L15
 372 0028 1B68     		ldr	r3, [r3]
 373 002a FA68     		ldr	r2, [r7, #12]
 374 002c B968     		ldr	r1, [r7, #8]
 375 002e 1846     		mov	r0, r3
 376 0030 FFF7FEFF 		bl	LOS_MemAllocAlign
 377 0034 0346     		mov	r3, r0
 344:/home/fanxinhao/Work/LiteOS_Lab/iot_link/os/liteos/arch/arm/arm-m/src/los_hw.c **** }
 378              		.loc 1 344 1
 379 0036 1846     		mov	r0, r3
 380 0038 1037     		adds	r7, r7, #16
 381              	.LCFI17:
 382              		.cfi_def_cfa_offset 8
 383 003a BD46     		mov	sp, r7
 384              	.LCFI18:
 385              		.cfi_def_cfa_register 13
 386              		@ sp needed
 387 003c 80BD     		pop	{r7, pc}
 388              	.L16:
 389 003e 00BF     		.align	2
 390              	.L15:
 391 0040 00000000 		.word	m_aucSysMem0
 392              		.cfi_endproc
 393              	.LFE137:
 395              		.section	.text.osEnterSleep,"ax",%progbits
 396              		.align	1
 397              		.global	osEnterSleep
 398              		.syntax unified
 399              		.thumb
 400              		.thumb_func
 401              		.fpu fpv4-sp-d16
 403              	osEnterSleep:
 404              	.LFB138:
 345:/home/fanxinhao/Work/LiteOS_Lab/iot_link/os/liteos/arch/arm/arm-m/src/los_hw.c **** #endif
 346:/home/fanxinhao/Work/LiteOS_Lab/iot_link/os/liteos/arch/arm/arm-m/src/los_hw.c **** 
 347:/home/fanxinhao/Work/LiteOS_Lab/iot_link/os/liteos/arch/arm/arm-m/src/los_hw.c **** 
 348:/home/fanxinhao/Work/LiteOS_Lab/iot_link/os/liteos/arch/arm/arm-m/src/los_hw.c **** LITE_OS_SEC_TEXT_INIT VOID osEnterSleep(VOID)
 349:/home/fanxinhao/Work/LiteOS_Lab/iot_link/os/liteos/arch/arm/arm-m/src/los_hw.c **** {
 405              		.loc 1 349 1
 406              		.cfi_startproc
 407              		@ args = 0, pretend = 0, frame = 0
 408              		@ frame_needed = 1, uses_anonymous_args = 0
 409              		@ link register save eliminated.
 410 0000 80B4     		push	{r7}
 411              	.LCFI19:
 412              		.cfi_def_cfa_offset 4
 413              		.cfi_offset 7, -4
 414 0002 00AF     		add	r7, sp, #0
 415              	.LCFI20:
 416              		.cfi_def_cfa_register 7
 417              	.LBB10:
 418              	.LBB11:
  98:/home/fanxinhao/Work/LiteOS_Lab/iot_link/os/liteos/arch/arm/common/cmsis/cmsis_gcc.h **** 
  99:/home/fanxinhao/Work/LiteOS_Lab/iot_link/os/liteos/arch/arm/common/cmsis/cmsis_gcc.h **** 
ARM GAS  /tmp/cclpoteW.s 			page 16


 100:/home/fanxinhao/Work/LiteOS_Lab/iot_link/os/liteos/arch/arm/common/cmsis/cmsis_gcc.h **** /**
 101:/home/fanxinhao/Work/LiteOS_Lab/iot_link/os/liteos/arch/arm/common/cmsis/cmsis_gcc.h ****   \brief   Get Control Register
 102:/home/fanxinhao/Work/LiteOS_Lab/iot_link/os/liteos/arch/arm/common/cmsis/cmsis_gcc.h ****   \details Returns the content of the Control Register.
 103:/home/fanxinhao/Work/LiteOS_Lab/iot_link/os/liteos/arch/arm/common/cmsis/cmsis_gcc.h ****   \return               Control Register value
 104:/home/fanxinhao/Work/LiteOS_Lab/iot_link/os/liteos/arch/arm/common/cmsis/cmsis_gcc.h ****  */
 105:/home/fanxinhao/Work/LiteOS_Lab/iot_link/os/liteos/arch/arm/common/cmsis/cmsis_gcc.h **** __attribute__((always_inline)) __STATIC_INLINE uint32_t __get_CONTROL(void)
 106:/home/fanxinhao/Work/LiteOS_Lab/iot_link/os/liteos/arch/arm/common/cmsis/cmsis_gcc.h **** {
 107:/home/fanxinhao/Work/LiteOS_Lab/iot_link/os/liteos/arch/arm/common/cmsis/cmsis_gcc.h ****   uint32_t result;
 108:/home/fanxinhao/Work/LiteOS_Lab/iot_link/os/liteos/arch/arm/common/cmsis/cmsis_gcc.h **** 
 109:/home/fanxinhao/Work/LiteOS_Lab/iot_link/os/liteos/arch/arm/common/cmsis/cmsis_gcc.h ****   __ASM volatile ("MRS %0, control" : "=r" (result) );
 110:/home/fanxinhao/Work/LiteOS_Lab/iot_link/os/liteos/arch/arm/common/cmsis/cmsis_gcc.h ****   return(result);
 111:/home/fanxinhao/Work/LiteOS_Lab/iot_link/os/liteos/arch/arm/common/cmsis/cmsis_gcc.h **** }
 112:/home/fanxinhao/Work/LiteOS_Lab/iot_link/os/liteos/arch/arm/common/cmsis/cmsis_gcc.h **** 
 113:/home/fanxinhao/Work/LiteOS_Lab/iot_link/os/liteos/arch/arm/common/cmsis/cmsis_gcc.h **** 
 114:/home/fanxinhao/Work/LiteOS_Lab/iot_link/os/liteos/arch/arm/common/cmsis/cmsis_gcc.h **** #if (defined (__ARM_FEATURE_CMSE ) && (__ARM_FEATURE_CMSE == 3))
 115:/home/fanxinhao/Work/LiteOS_Lab/iot_link/os/liteos/arch/arm/common/cmsis/cmsis_gcc.h **** /**
 116:/home/fanxinhao/Work/LiteOS_Lab/iot_link/os/liteos/arch/arm/common/cmsis/cmsis_gcc.h ****   \brief   Get Control Register (non-secure)
 117:/home/fanxinhao/Work/LiteOS_Lab/iot_link/os/liteos/arch/arm/common/cmsis/cmsis_gcc.h ****   \details Returns the content of the non-secure Control Register when in secure mode.
 118:/home/fanxinhao/Work/LiteOS_Lab/iot_link/os/liteos/arch/arm/common/cmsis/cmsis_gcc.h ****   \return               non-secure Control Register value
 119:/home/fanxinhao/Work/LiteOS_Lab/iot_link/os/liteos/arch/arm/common/cmsis/cmsis_gcc.h ****  */
 120:/home/fanxinhao/Work/LiteOS_Lab/iot_link/os/liteos/arch/arm/common/cmsis/cmsis_gcc.h **** __attribute__((always_inline)) __STATIC_INLINE uint32_t __TZ_get_CONTROL_NS(void)
 121:/home/fanxinhao/Work/LiteOS_Lab/iot_link/os/liteos/arch/arm/common/cmsis/cmsis_gcc.h **** {
 122:/home/fanxinhao/Work/LiteOS_Lab/iot_link/os/liteos/arch/arm/common/cmsis/cmsis_gcc.h ****   uint32_t result;
 123:/home/fanxinhao/Work/LiteOS_Lab/iot_link/os/liteos/arch/arm/common/cmsis/cmsis_gcc.h **** 
 124:/home/fanxinhao/Work/LiteOS_Lab/iot_link/os/liteos/arch/arm/common/cmsis/cmsis_gcc.h ****   __ASM volatile ("MRS %0, control_ns" : "=r" (result) );
 125:/home/fanxinhao/Work/LiteOS_Lab/iot_link/os/liteos/arch/arm/common/cmsis/cmsis_gcc.h ****   return(result);
 126:/home/fanxinhao/Work/LiteOS_Lab/iot_link/os/liteos/arch/arm/common/cmsis/cmsis_gcc.h **** }
 127:/home/fanxinhao/Work/LiteOS_Lab/iot_link/os/liteos/arch/arm/common/cmsis/cmsis_gcc.h **** #endif
 128:/home/fanxinhao/Work/LiteOS_Lab/iot_link/os/liteos/arch/arm/common/cmsis/cmsis_gcc.h **** 
 129:/home/fanxinhao/Work/LiteOS_Lab/iot_link/os/liteos/arch/arm/common/cmsis/cmsis_gcc.h **** 
 130:/home/fanxinhao/Work/LiteOS_Lab/iot_link/os/liteos/arch/arm/common/cmsis/cmsis_gcc.h **** /**
 131:/home/fanxinhao/Work/LiteOS_Lab/iot_link/os/liteos/arch/arm/common/cmsis/cmsis_gcc.h ****   \brief   Set Control Register
 132:/home/fanxinhao/Work/LiteOS_Lab/iot_link/os/liteos/arch/arm/common/cmsis/cmsis_gcc.h ****   \details Writes the given value to the Control Register.
 133:/home/fanxinhao/Work/LiteOS_Lab/iot_link/os/liteos/arch/arm/common/cmsis/cmsis_gcc.h ****   \param [in]    control  Control Register value to set
 134:/home/fanxinhao/Work/LiteOS_Lab/iot_link/os/liteos/arch/arm/common/cmsis/cmsis_gcc.h ****  */
 135:/home/fanxinhao/Work/LiteOS_Lab/iot_link/os/liteos/arch/arm/common/cmsis/cmsis_gcc.h **** __attribute__((always_inline)) __STATIC_INLINE void __set_CONTROL(uint32_t control)
 136:/home/fanxinhao/Work/LiteOS_Lab/iot_link/os/liteos/arch/arm/common/cmsis/cmsis_gcc.h **** {
 137:/home/fanxinhao/Work/LiteOS_Lab/iot_link/os/liteos/arch/arm/common/cmsis/cmsis_gcc.h ****   __ASM volatile ("MSR control, %0" : : "r" (control) : "memory");
 138:/home/fanxinhao/Work/LiteOS_Lab/iot_link/os/liteos/arch/arm/common/cmsis/cmsis_gcc.h **** }
 139:/home/fanxinhao/Work/LiteOS_Lab/iot_link/os/liteos/arch/arm/common/cmsis/cmsis_gcc.h **** 
 140:/home/fanxinhao/Work/LiteOS_Lab/iot_link/os/liteos/arch/arm/common/cmsis/cmsis_gcc.h **** 
 141:/home/fanxinhao/Work/LiteOS_Lab/iot_link/os/liteos/arch/arm/common/cmsis/cmsis_gcc.h **** #if (defined (__ARM_FEATURE_CMSE ) && (__ARM_FEATURE_CMSE == 3))
 142:/home/fanxinhao/Work/LiteOS_Lab/iot_link/os/liteos/arch/arm/common/cmsis/cmsis_gcc.h **** /**
 143:/home/fanxinhao/Work/LiteOS_Lab/iot_link/os/liteos/arch/arm/common/cmsis/cmsis_gcc.h ****   \brief   Set Control Register (non-secure)
 144:/home/fanxinhao/Work/LiteOS_Lab/iot_link/os/liteos/arch/arm/common/cmsis/cmsis_gcc.h ****   \details Writes the given value to the non-secure Control Register when in secure state.
 145:/home/fanxinhao/Work/LiteOS_Lab/iot_link/os/liteos/arch/arm/common/cmsis/cmsis_gcc.h ****   \param [in]    control  Control Register value to set
 146:/home/fanxinhao/Work/LiteOS_Lab/iot_link/os/liteos/arch/arm/common/cmsis/cmsis_gcc.h ****  */
 147:/home/fanxinhao/Work/LiteOS_Lab/iot_link/os/liteos/arch/arm/common/cmsis/cmsis_gcc.h **** __attribute__((always_inline)) __STATIC_INLINE void __TZ_set_CONTROL_NS(uint32_t control)
 148:/home/fanxinhao/Work/LiteOS_Lab/iot_link/os/liteos/arch/arm/common/cmsis/cmsis_gcc.h **** {
 149:/home/fanxinhao/Work/LiteOS_Lab/iot_link/os/liteos/arch/arm/common/cmsis/cmsis_gcc.h ****   __ASM volatile ("MSR control_ns, %0" : : "r" (control) : "memory");
 150:/home/fanxinhao/Work/LiteOS_Lab/iot_link/os/liteos/arch/arm/common/cmsis/cmsis_gcc.h **** }
 151:/home/fanxinhao/Work/LiteOS_Lab/iot_link/os/liteos/arch/arm/common/cmsis/cmsis_gcc.h **** #endif
 152:/home/fanxinhao/Work/LiteOS_Lab/iot_link/os/liteos/arch/arm/common/cmsis/cmsis_gcc.h **** 
 153:/home/fanxinhao/Work/LiteOS_Lab/iot_link/os/liteos/arch/arm/common/cmsis/cmsis_gcc.h **** 
 154:/home/fanxinhao/Work/LiteOS_Lab/iot_link/os/liteos/arch/arm/common/cmsis/cmsis_gcc.h **** /**
 155:/home/fanxinhao/Work/LiteOS_Lab/iot_link/os/liteos/arch/arm/common/cmsis/cmsis_gcc.h ****   \brief   Get IPSR Register
 156:/home/fanxinhao/Work/LiteOS_Lab/iot_link/os/liteos/arch/arm/common/cmsis/cmsis_gcc.h ****   \details Returns the content of the IPSR Register.
ARM GAS  /tmp/cclpoteW.s 			page 17


 157:/home/fanxinhao/Work/LiteOS_Lab/iot_link/os/liteos/arch/arm/common/cmsis/cmsis_gcc.h ****   \return               IPSR Register value
 158:/home/fanxinhao/Work/LiteOS_Lab/iot_link/os/liteos/arch/arm/common/cmsis/cmsis_gcc.h ****  */
 159:/home/fanxinhao/Work/LiteOS_Lab/iot_link/os/liteos/arch/arm/common/cmsis/cmsis_gcc.h **** __attribute__((always_inline)) __STATIC_INLINE uint32_t __get_IPSR(void)
 160:/home/fanxinhao/Work/LiteOS_Lab/iot_link/os/liteos/arch/arm/common/cmsis/cmsis_gcc.h **** {
 161:/home/fanxinhao/Work/LiteOS_Lab/iot_link/os/liteos/arch/arm/common/cmsis/cmsis_gcc.h ****   uint32_t result;
 162:/home/fanxinhao/Work/LiteOS_Lab/iot_link/os/liteos/arch/arm/common/cmsis/cmsis_gcc.h **** 
 163:/home/fanxinhao/Work/LiteOS_Lab/iot_link/os/liteos/arch/arm/common/cmsis/cmsis_gcc.h ****   __ASM volatile ("MRS %0, ipsr" : "=r" (result) );
 164:/home/fanxinhao/Work/LiteOS_Lab/iot_link/os/liteos/arch/arm/common/cmsis/cmsis_gcc.h ****   return(result);
 165:/home/fanxinhao/Work/LiteOS_Lab/iot_link/os/liteos/arch/arm/common/cmsis/cmsis_gcc.h **** }
 166:/home/fanxinhao/Work/LiteOS_Lab/iot_link/os/liteos/arch/arm/common/cmsis/cmsis_gcc.h **** 
 167:/home/fanxinhao/Work/LiteOS_Lab/iot_link/os/liteos/arch/arm/common/cmsis/cmsis_gcc.h **** 
 168:/home/fanxinhao/Work/LiteOS_Lab/iot_link/os/liteos/arch/arm/common/cmsis/cmsis_gcc.h **** /**
 169:/home/fanxinhao/Work/LiteOS_Lab/iot_link/os/liteos/arch/arm/common/cmsis/cmsis_gcc.h ****   \brief   Get APSR Register
 170:/home/fanxinhao/Work/LiteOS_Lab/iot_link/os/liteos/arch/arm/common/cmsis/cmsis_gcc.h ****   \details Returns the content of the APSR Register.
 171:/home/fanxinhao/Work/LiteOS_Lab/iot_link/os/liteos/arch/arm/common/cmsis/cmsis_gcc.h ****   \return               APSR Register value
 172:/home/fanxinhao/Work/LiteOS_Lab/iot_link/os/liteos/arch/arm/common/cmsis/cmsis_gcc.h ****  */
 173:/home/fanxinhao/Work/LiteOS_Lab/iot_link/os/liteos/arch/arm/common/cmsis/cmsis_gcc.h **** __attribute__((always_inline)) __STATIC_INLINE uint32_t __get_APSR(void)
 174:/home/fanxinhao/Work/LiteOS_Lab/iot_link/os/liteos/arch/arm/common/cmsis/cmsis_gcc.h **** {
 175:/home/fanxinhao/Work/LiteOS_Lab/iot_link/os/liteos/arch/arm/common/cmsis/cmsis_gcc.h ****   uint32_t result;
 176:/home/fanxinhao/Work/LiteOS_Lab/iot_link/os/liteos/arch/arm/common/cmsis/cmsis_gcc.h **** 
 177:/home/fanxinhao/Work/LiteOS_Lab/iot_link/os/liteos/arch/arm/common/cmsis/cmsis_gcc.h ****   __ASM volatile ("MRS %0, apsr" : "=r" (result) );
 178:/home/fanxinhao/Work/LiteOS_Lab/iot_link/os/liteos/arch/arm/common/cmsis/cmsis_gcc.h ****   return(result);
 179:/home/fanxinhao/Work/LiteOS_Lab/iot_link/os/liteos/arch/arm/common/cmsis/cmsis_gcc.h **** }
 180:/home/fanxinhao/Work/LiteOS_Lab/iot_link/os/liteos/arch/arm/common/cmsis/cmsis_gcc.h **** 
 181:/home/fanxinhao/Work/LiteOS_Lab/iot_link/os/liteos/arch/arm/common/cmsis/cmsis_gcc.h **** 
 182:/home/fanxinhao/Work/LiteOS_Lab/iot_link/os/liteos/arch/arm/common/cmsis/cmsis_gcc.h **** /**
 183:/home/fanxinhao/Work/LiteOS_Lab/iot_link/os/liteos/arch/arm/common/cmsis/cmsis_gcc.h ****   \brief   Get xPSR Register
 184:/home/fanxinhao/Work/LiteOS_Lab/iot_link/os/liteos/arch/arm/common/cmsis/cmsis_gcc.h ****   \details Returns the content of the xPSR Register.
 185:/home/fanxinhao/Work/LiteOS_Lab/iot_link/os/liteos/arch/arm/common/cmsis/cmsis_gcc.h ****   \return               xPSR Register value
 186:/home/fanxinhao/Work/LiteOS_Lab/iot_link/os/liteos/arch/arm/common/cmsis/cmsis_gcc.h ****  */
 187:/home/fanxinhao/Work/LiteOS_Lab/iot_link/os/liteos/arch/arm/common/cmsis/cmsis_gcc.h **** __attribute__((always_inline)) __STATIC_INLINE uint32_t __get_xPSR(void)
 188:/home/fanxinhao/Work/LiteOS_Lab/iot_link/os/liteos/arch/arm/common/cmsis/cmsis_gcc.h **** {
 189:/home/fanxinhao/Work/LiteOS_Lab/iot_link/os/liteos/arch/arm/common/cmsis/cmsis_gcc.h ****   uint32_t result;
 190:/home/fanxinhao/Work/LiteOS_Lab/iot_link/os/liteos/arch/arm/common/cmsis/cmsis_gcc.h **** 
 191:/home/fanxinhao/Work/LiteOS_Lab/iot_link/os/liteos/arch/arm/common/cmsis/cmsis_gcc.h ****   __ASM volatile ("MRS %0, xpsr" : "=r" (result) );
 192:/home/fanxinhao/Work/LiteOS_Lab/iot_link/os/liteos/arch/arm/common/cmsis/cmsis_gcc.h ****   return(result);
 193:/home/fanxinhao/Work/LiteOS_Lab/iot_link/os/liteos/arch/arm/common/cmsis/cmsis_gcc.h **** }
 194:/home/fanxinhao/Work/LiteOS_Lab/iot_link/os/liteos/arch/arm/common/cmsis/cmsis_gcc.h **** 
 195:/home/fanxinhao/Work/LiteOS_Lab/iot_link/os/liteos/arch/arm/common/cmsis/cmsis_gcc.h **** 
 196:/home/fanxinhao/Work/LiteOS_Lab/iot_link/os/liteos/arch/arm/common/cmsis/cmsis_gcc.h **** /**
 197:/home/fanxinhao/Work/LiteOS_Lab/iot_link/os/liteos/arch/arm/common/cmsis/cmsis_gcc.h ****   \brief   Get Process Stack Pointer
 198:/home/fanxinhao/Work/LiteOS_Lab/iot_link/os/liteos/arch/arm/common/cmsis/cmsis_gcc.h ****   \details Returns the current value of the Process Stack Pointer (PSP).
 199:/home/fanxinhao/Work/LiteOS_Lab/iot_link/os/liteos/arch/arm/common/cmsis/cmsis_gcc.h ****   \return               PSP Register value
 200:/home/fanxinhao/Work/LiteOS_Lab/iot_link/os/liteos/arch/arm/common/cmsis/cmsis_gcc.h ****  */
 201:/home/fanxinhao/Work/LiteOS_Lab/iot_link/os/liteos/arch/arm/common/cmsis/cmsis_gcc.h **** __attribute__((always_inline)) __STATIC_INLINE uint32_t __get_PSP(void)
 202:/home/fanxinhao/Work/LiteOS_Lab/iot_link/os/liteos/arch/arm/common/cmsis/cmsis_gcc.h **** {
 203:/home/fanxinhao/Work/LiteOS_Lab/iot_link/os/liteos/arch/arm/common/cmsis/cmsis_gcc.h ****   register uint32_t result;
 204:/home/fanxinhao/Work/LiteOS_Lab/iot_link/os/liteos/arch/arm/common/cmsis/cmsis_gcc.h **** 
 205:/home/fanxinhao/Work/LiteOS_Lab/iot_link/os/liteos/arch/arm/common/cmsis/cmsis_gcc.h ****   __ASM volatile ("MRS %0, psp"  : "=r" (result) );
 206:/home/fanxinhao/Work/LiteOS_Lab/iot_link/os/liteos/arch/arm/common/cmsis/cmsis_gcc.h ****   return(result);
 207:/home/fanxinhao/Work/LiteOS_Lab/iot_link/os/liteos/arch/arm/common/cmsis/cmsis_gcc.h **** }
 208:/home/fanxinhao/Work/LiteOS_Lab/iot_link/os/liteos/arch/arm/common/cmsis/cmsis_gcc.h **** 
 209:/home/fanxinhao/Work/LiteOS_Lab/iot_link/os/liteos/arch/arm/common/cmsis/cmsis_gcc.h **** 
 210:/home/fanxinhao/Work/LiteOS_Lab/iot_link/os/liteos/arch/arm/common/cmsis/cmsis_gcc.h **** #if (defined (__ARM_FEATURE_CMSE ) && (__ARM_FEATURE_CMSE == 3))
 211:/home/fanxinhao/Work/LiteOS_Lab/iot_link/os/liteos/arch/arm/common/cmsis/cmsis_gcc.h **** /**
 212:/home/fanxinhao/Work/LiteOS_Lab/iot_link/os/liteos/arch/arm/common/cmsis/cmsis_gcc.h ****   \brief   Get Process Stack Pointer (non-secure)
 213:/home/fanxinhao/Work/LiteOS_Lab/iot_link/os/liteos/arch/arm/common/cmsis/cmsis_gcc.h ****   \details Returns the current value of the non-secure Process Stack Pointer (PSP) when in secure s
ARM GAS  /tmp/cclpoteW.s 			page 18


 214:/home/fanxinhao/Work/LiteOS_Lab/iot_link/os/liteos/arch/arm/common/cmsis/cmsis_gcc.h ****   \return               PSP Register value
 215:/home/fanxinhao/Work/LiteOS_Lab/iot_link/os/liteos/arch/arm/common/cmsis/cmsis_gcc.h ****  */
 216:/home/fanxinhao/Work/LiteOS_Lab/iot_link/os/liteos/arch/arm/common/cmsis/cmsis_gcc.h **** __attribute__((always_inline)) __STATIC_INLINE uint32_t __TZ_get_PSP_NS(void)
 217:/home/fanxinhao/Work/LiteOS_Lab/iot_link/os/liteos/arch/arm/common/cmsis/cmsis_gcc.h **** {
 218:/home/fanxinhao/Work/LiteOS_Lab/iot_link/os/liteos/arch/arm/common/cmsis/cmsis_gcc.h ****   register uint32_t result;
 219:/home/fanxinhao/Work/LiteOS_Lab/iot_link/os/liteos/arch/arm/common/cmsis/cmsis_gcc.h **** 
 220:/home/fanxinhao/Work/LiteOS_Lab/iot_link/os/liteos/arch/arm/common/cmsis/cmsis_gcc.h ****   __ASM volatile ("MRS %0, psp_ns"  : "=r" (result) );
 221:/home/fanxinhao/Work/LiteOS_Lab/iot_link/os/liteos/arch/arm/common/cmsis/cmsis_gcc.h ****   return(result);
 222:/home/fanxinhao/Work/LiteOS_Lab/iot_link/os/liteos/arch/arm/common/cmsis/cmsis_gcc.h **** }
 223:/home/fanxinhao/Work/LiteOS_Lab/iot_link/os/liteos/arch/arm/common/cmsis/cmsis_gcc.h **** #endif
 224:/home/fanxinhao/Work/LiteOS_Lab/iot_link/os/liteos/arch/arm/common/cmsis/cmsis_gcc.h **** 
 225:/home/fanxinhao/Work/LiteOS_Lab/iot_link/os/liteos/arch/arm/common/cmsis/cmsis_gcc.h **** 
 226:/home/fanxinhao/Work/LiteOS_Lab/iot_link/os/liteos/arch/arm/common/cmsis/cmsis_gcc.h **** /**
 227:/home/fanxinhao/Work/LiteOS_Lab/iot_link/os/liteos/arch/arm/common/cmsis/cmsis_gcc.h ****   \brief   Set Process Stack Pointer
 228:/home/fanxinhao/Work/LiteOS_Lab/iot_link/os/liteos/arch/arm/common/cmsis/cmsis_gcc.h ****   \details Assigns the given value to the Process Stack Pointer (PSP).
 229:/home/fanxinhao/Work/LiteOS_Lab/iot_link/os/liteos/arch/arm/common/cmsis/cmsis_gcc.h ****   \param [in]    topOfProcStack  Process Stack Pointer value to set
 230:/home/fanxinhao/Work/LiteOS_Lab/iot_link/os/liteos/arch/arm/common/cmsis/cmsis_gcc.h ****  */
 231:/home/fanxinhao/Work/LiteOS_Lab/iot_link/os/liteos/arch/arm/common/cmsis/cmsis_gcc.h **** __attribute__((always_inline)) __STATIC_INLINE void __set_PSP(uint32_t topOfProcStack)
 232:/home/fanxinhao/Work/LiteOS_Lab/iot_link/os/liteos/arch/arm/common/cmsis/cmsis_gcc.h **** {
 233:/home/fanxinhao/Work/LiteOS_Lab/iot_link/os/liteos/arch/arm/common/cmsis/cmsis_gcc.h ****   __ASM volatile ("MSR psp, %0" : : "r" (topOfProcStack) : );
 234:/home/fanxinhao/Work/LiteOS_Lab/iot_link/os/liteos/arch/arm/common/cmsis/cmsis_gcc.h **** }
 235:/home/fanxinhao/Work/LiteOS_Lab/iot_link/os/liteos/arch/arm/common/cmsis/cmsis_gcc.h **** 
 236:/home/fanxinhao/Work/LiteOS_Lab/iot_link/os/liteos/arch/arm/common/cmsis/cmsis_gcc.h **** 
 237:/home/fanxinhao/Work/LiteOS_Lab/iot_link/os/liteos/arch/arm/common/cmsis/cmsis_gcc.h **** #if (defined (__ARM_FEATURE_CMSE ) && (__ARM_FEATURE_CMSE == 3))
 238:/home/fanxinhao/Work/LiteOS_Lab/iot_link/os/liteos/arch/arm/common/cmsis/cmsis_gcc.h **** /**
 239:/home/fanxinhao/Work/LiteOS_Lab/iot_link/os/liteos/arch/arm/common/cmsis/cmsis_gcc.h ****   \brief   Set Process Stack Pointer (non-secure)
 240:/home/fanxinhao/Work/LiteOS_Lab/iot_link/os/liteos/arch/arm/common/cmsis/cmsis_gcc.h ****   \details Assigns the given value to the non-secure Process Stack Pointer (PSP) when in secure sta
 241:/home/fanxinhao/Work/LiteOS_Lab/iot_link/os/liteos/arch/arm/common/cmsis/cmsis_gcc.h ****   \param [in]    topOfProcStack  Process Stack Pointer value to set
 242:/home/fanxinhao/Work/LiteOS_Lab/iot_link/os/liteos/arch/arm/common/cmsis/cmsis_gcc.h ****  */
 243:/home/fanxinhao/Work/LiteOS_Lab/iot_link/os/liteos/arch/arm/common/cmsis/cmsis_gcc.h **** __attribute__((always_inline)) __STATIC_INLINE void __TZ_set_PSP_NS(uint32_t topOfProcStack)
 244:/home/fanxinhao/Work/LiteOS_Lab/iot_link/os/liteos/arch/arm/common/cmsis/cmsis_gcc.h **** {
 245:/home/fanxinhao/Work/LiteOS_Lab/iot_link/os/liteos/arch/arm/common/cmsis/cmsis_gcc.h ****   __ASM volatile ("MSR psp_ns, %0" : : "r" (topOfProcStack) : );
 246:/home/fanxinhao/Work/LiteOS_Lab/iot_link/os/liteos/arch/arm/common/cmsis/cmsis_gcc.h **** }
 247:/home/fanxinhao/Work/LiteOS_Lab/iot_link/os/liteos/arch/arm/common/cmsis/cmsis_gcc.h **** #endif
 248:/home/fanxinhao/Work/LiteOS_Lab/iot_link/os/liteos/arch/arm/common/cmsis/cmsis_gcc.h **** 
 249:/home/fanxinhao/Work/LiteOS_Lab/iot_link/os/liteos/arch/arm/common/cmsis/cmsis_gcc.h **** 
 250:/home/fanxinhao/Work/LiteOS_Lab/iot_link/os/liteos/arch/arm/common/cmsis/cmsis_gcc.h **** /**
 251:/home/fanxinhao/Work/LiteOS_Lab/iot_link/os/liteos/arch/arm/common/cmsis/cmsis_gcc.h ****   \brief   Get Main Stack Pointer
 252:/home/fanxinhao/Work/LiteOS_Lab/iot_link/os/liteos/arch/arm/common/cmsis/cmsis_gcc.h ****   \details Returns the current value of the Main Stack Pointer (MSP).
 253:/home/fanxinhao/Work/LiteOS_Lab/iot_link/os/liteos/arch/arm/common/cmsis/cmsis_gcc.h ****   \return               MSP Register value
 254:/home/fanxinhao/Work/LiteOS_Lab/iot_link/os/liteos/arch/arm/common/cmsis/cmsis_gcc.h ****  */
 255:/home/fanxinhao/Work/LiteOS_Lab/iot_link/os/liteos/arch/arm/common/cmsis/cmsis_gcc.h **** __attribute__((always_inline)) __STATIC_INLINE uint32_t __get_MSP(void)
 256:/home/fanxinhao/Work/LiteOS_Lab/iot_link/os/liteos/arch/arm/common/cmsis/cmsis_gcc.h **** {
 257:/home/fanxinhao/Work/LiteOS_Lab/iot_link/os/liteos/arch/arm/common/cmsis/cmsis_gcc.h ****   register uint32_t result;
 258:/home/fanxinhao/Work/LiteOS_Lab/iot_link/os/liteos/arch/arm/common/cmsis/cmsis_gcc.h **** 
 259:/home/fanxinhao/Work/LiteOS_Lab/iot_link/os/liteos/arch/arm/common/cmsis/cmsis_gcc.h ****   __ASM volatile ("MRS %0, msp" : "=r" (result) );
 260:/home/fanxinhao/Work/LiteOS_Lab/iot_link/os/liteos/arch/arm/common/cmsis/cmsis_gcc.h ****   return(result);
 261:/home/fanxinhao/Work/LiteOS_Lab/iot_link/os/liteos/arch/arm/common/cmsis/cmsis_gcc.h **** }
 262:/home/fanxinhao/Work/LiteOS_Lab/iot_link/os/liteos/arch/arm/common/cmsis/cmsis_gcc.h **** 
 263:/home/fanxinhao/Work/LiteOS_Lab/iot_link/os/liteos/arch/arm/common/cmsis/cmsis_gcc.h **** 
 264:/home/fanxinhao/Work/LiteOS_Lab/iot_link/os/liteos/arch/arm/common/cmsis/cmsis_gcc.h **** #if (defined (__ARM_FEATURE_CMSE ) && (__ARM_FEATURE_CMSE == 3))
 265:/home/fanxinhao/Work/LiteOS_Lab/iot_link/os/liteos/arch/arm/common/cmsis/cmsis_gcc.h **** /**
 266:/home/fanxinhao/Work/LiteOS_Lab/iot_link/os/liteos/arch/arm/common/cmsis/cmsis_gcc.h ****   \brief   Get Main Stack Pointer (non-secure)
 267:/home/fanxinhao/Work/LiteOS_Lab/iot_link/os/liteos/arch/arm/common/cmsis/cmsis_gcc.h ****   \details Returns the current value of the non-secure Main Stack Pointer (MSP) when in secure stat
 268:/home/fanxinhao/Work/LiteOS_Lab/iot_link/os/liteos/arch/arm/common/cmsis/cmsis_gcc.h ****   \return               MSP Register value
 269:/home/fanxinhao/Work/LiteOS_Lab/iot_link/os/liteos/arch/arm/common/cmsis/cmsis_gcc.h ****  */
 270:/home/fanxinhao/Work/LiteOS_Lab/iot_link/os/liteos/arch/arm/common/cmsis/cmsis_gcc.h **** __attribute__((always_inline)) __STATIC_INLINE uint32_t __TZ_get_MSP_NS(void)
ARM GAS  /tmp/cclpoteW.s 			page 19


 271:/home/fanxinhao/Work/LiteOS_Lab/iot_link/os/liteos/arch/arm/common/cmsis/cmsis_gcc.h **** {
 272:/home/fanxinhao/Work/LiteOS_Lab/iot_link/os/liteos/arch/arm/common/cmsis/cmsis_gcc.h ****   register uint32_t result;
 273:/home/fanxinhao/Work/LiteOS_Lab/iot_link/os/liteos/arch/arm/common/cmsis/cmsis_gcc.h **** 
 274:/home/fanxinhao/Work/LiteOS_Lab/iot_link/os/liteos/arch/arm/common/cmsis/cmsis_gcc.h ****   __ASM volatile ("MRS %0, msp_ns" : "=r" (result) );
 275:/home/fanxinhao/Work/LiteOS_Lab/iot_link/os/liteos/arch/arm/common/cmsis/cmsis_gcc.h ****   return(result);
 276:/home/fanxinhao/Work/LiteOS_Lab/iot_link/os/liteos/arch/arm/common/cmsis/cmsis_gcc.h **** }
 277:/home/fanxinhao/Work/LiteOS_Lab/iot_link/os/liteos/arch/arm/common/cmsis/cmsis_gcc.h **** #endif
 278:/home/fanxinhao/Work/LiteOS_Lab/iot_link/os/liteos/arch/arm/common/cmsis/cmsis_gcc.h **** 
 279:/home/fanxinhao/Work/LiteOS_Lab/iot_link/os/liteos/arch/arm/common/cmsis/cmsis_gcc.h **** 
 280:/home/fanxinhao/Work/LiteOS_Lab/iot_link/os/liteos/arch/arm/common/cmsis/cmsis_gcc.h **** /**
 281:/home/fanxinhao/Work/LiteOS_Lab/iot_link/os/liteos/arch/arm/common/cmsis/cmsis_gcc.h ****   \brief   Set Main Stack Pointer
 282:/home/fanxinhao/Work/LiteOS_Lab/iot_link/os/liteos/arch/arm/common/cmsis/cmsis_gcc.h ****   \details Assigns the given value to the Main Stack Pointer (MSP).
 283:/home/fanxinhao/Work/LiteOS_Lab/iot_link/os/liteos/arch/arm/common/cmsis/cmsis_gcc.h ****   \param [in]    topOfMainStack  Main Stack Pointer value to set
 284:/home/fanxinhao/Work/LiteOS_Lab/iot_link/os/liteos/arch/arm/common/cmsis/cmsis_gcc.h ****  */
 285:/home/fanxinhao/Work/LiteOS_Lab/iot_link/os/liteos/arch/arm/common/cmsis/cmsis_gcc.h **** __attribute__((always_inline)) __STATIC_INLINE void __set_MSP(uint32_t topOfMainStack)
 286:/home/fanxinhao/Work/LiteOS_Lab/iot_link/os/liteos/arch/arm/common/cmsis/cmsis_gcc.h **** {
 287:/home/fanxinhao/Work/LiteOS_Lab/iot_link/os/liteos/arch/arm/common/cmsis/cmsis_gcc.h ****   __ASM volatile ("MSR msp, %0" : : "r" (topOfMainStack) : );
 288:/home/fanxinhao/Work/LiteOS_Lab/iot_link/os/liteos/arch/arm/common/cmsis/cmsis_gcc.h **** }
 289:/home/fanxinhao/Work/LiteOS_Lab/iot_link/os/liteos/arch/arm/common/cmsis/cmsis_gcc.h **** 
 290:/home/fanxinhao/Work/LiteOS_Lab/iot_link/os/liteos/arch/arm/common/cmsis/cmsis_gcc.h **** 
 291:/home/fanxinhao/Work/LiteOS_Lab/iot_link/os/liteos/arch/arm/common/cmsis/cmsis_gcc.h **** #if (defined (__ARM_FEATURE_CMSE ) && (__ARM_FEATURE_CMSE == 3))
 292:/home/fanxinhao/Work/LiteOS_Lab/iot_link/os/liteos/arch/arm/common/cmsis/cmsis_gcc.h **** /**
 293:/home/fanxinhao/Work/LiteOS_Lab/iot_link/os/liteos/arch/arm/common/cmsis/cmsis_gcc.h ****   \brief   Set Main Stack Pointer (non-secure)
 294:/home/fanxinhao/Work/LiteOS_Lab/iot_link/os/liteos/arch/arm/common/cmsis/cmsis_gcc.h ****   \details Assigns the given value to the non-secure Main Stack Pointer (MSP) when in secure state.
 295:/home/fanxinhao/Work/LiteOS_Lab/iot_link/os/liteos/arch/arm/common/cmsis/cmsis_gcc.h ****   \param [in]    topOfMainStack  Main Stack Pointer value to set
 296:/home/fanxinhao/Work/LiteOS_Lab/iot_link/os/liteos/arch/arm/common/cmsis/cmsis_gcc.h ****  */
 297:/home/fanxinhao/Work/LiteOS_Lab/iot_link/os/liteos/arch/arm/common/cmsis/cmsis_gcc.h **** __attribute__((always_inline)) __STATIC_INLINE void __TZ_set_MSP_NS(uint32_t topOfMainStack)
 298:/home/fanxinhao/Work/LiteOS_Lab/iot_link/os/liteos/arch/arm/common/cmsis/cmsis_gcc.h **** {
 299:/home/fanxinhao/Work/LiteOS_Lab/iot_link/os/liteos/arch/arm/common/cmsis/cmsis_gcc.h ****   __ASM volatile ("MSR msp_ns, %0" : : "r" (topOfMainStack) : );
 300:/home/fanxinhao/Work/LiteOS_Lab/iot_link/os/liteos/arch/arm/common/cmsis/cmsis_gcc.h **** }
 301:/home/fanxinhao/Work/LiteOS_Lab/iot_link/os/liteos/arch/arm/common/cmsis/cmsis_gcc.h **** #endif
 302:/home/fanxinhao/Work/LiteOS_Lab/iot_link/os/liteos/arch/arm/common/cmsis/cmsis_gcc.h **** 
 303:/home/fanxinhao/Work/LiteOS_Lab/iot_link/os/liteos/arch/arm/common/cmsis/cmsis_gcc.h **** 
 304:/home/fanxinhao/Work/LiteOS_Lab/iot_link/os/liteos/arch/arm/common/cmsis/cmsis_gcc.h **** /**
 305:/home/fanxinhao/Work/LiteOS_Lab/iot_link/os/liteos/arch/arm/common/cmsis/cmsis_gcc.h ****   \brief   Get Priority Mask
 306:/home/fanxinhao/Work/LiteOS_Lab/iot_link/os/liteos/arch/arm/common/cmsis/cmsis_gcc.h ****   \details Returns the current state of the priority mask bit from the Priority Mask Register.
 307:/home/fanxinhao/Work/LiteOS_Lab/iot_link/os/liteos/arch/arm/common/cmsis/cmsis_gcc.h ****   \return               Priority Mask value
 308:/home/fanxinhao/Work/LiteOS_Lab/iot_link/os/liteos/arch/arm/common/cmsis/cmsis_gcc.h ****  */
 309:/home/fanxinhao/Work/LiteOS_Lab/iot_link/os/liteos/arch/arm/common/cmsis/cmsis_gcc.h **** __attribute__((always_inline)) __STATIC_INLINE uint32_t __get_PRIMASK(void)
 310:/home/fanxinhao/Work/LiteOS_Lab/iot_link/os/liteos/arch/arm/common/cmsis/cmsis_gcc.h **** {
 311:/home/fanxinhao/Work/LiteOS_Lab/iot_link/os/liteos/arch/arm/common/cmsis/cmsis_gcc.h ****   uint32_t result;
 312:/home/fanxinhao/Work/LiteOS_Lab/iot_link/os/liteos/arch/arm/common/cmsis/cmsis_gcc.h **** 
 313:/home/fanxinhao/Work/LiteOS_Lab/iot_link/os/liteos/arch/arm/common/cmsis/cmsis_gcc.h ****   __ASM volatile ("MRS %0, primask" : "=r" (result) );
 314:/home/fanxinhao/Work/LiteOS_Lab/iot_link/os/liteos/arch/arm/common/cmsis/cmsis_gcc.h ****   return(result);
 315:/home/fanxinhao/Work/LiteOS_Lab/iot_link/os/liteos/arch/arm/common/cmsis/cmsis_gcc.h **** }
 316:/home/fanxinhao/Work/LiteOS_Lab/iot_link/os/liteos/arch/arm/common/cmsis/cmsis_gcc.h **** 
 317:/home/fanxinhao/Work/LiteOS_Lab/iot_link/os/liteos/arch/arm/common/cmsis/cmsis_gcc.h **** 
 318:/home/fanxinhao/Work/LiteOS_Lab/iot_link/os/liteos/arch/arm/common/cmsis/cmsis_gcc.h **** #if (defined (__ARM_FEATURE_CMSE ) && (__ARM_FEATURE_CMSE == 3))
 319:/home/fanxinhao/Work/LiteOS_Lab/iot_link/os/liteos/arch/arm/common/cmsis/cmsis_gcc.h **** /**
 320:/home/fanxinhao/Work/LiteOS_Lab/iot_link/os/liteos/arch/arm/common/cmsis/cmsis_gcc.h ****   \brief   Get Priority Mask (non-secure)
 321:/home/fanxinhao/Work/LiteOS_Lab/iot_link/os/liteos/arch/arm/common/cmsis/cmsis_gcc.h ****   \details Returns the current state of the non-secure priority mask bit from the Priority Mask Reg
 322:/home/fanxinhao/Work/LiteOS_Lab/iot_link/os/liteos/arch/arm/common/cmsis/cmsis_gcc.h ****   \return               Priority Mask value
 323:/home/fanxinhao/Work/LiteOS_Lab/iot_link/os/liteos/arch/arm/common/cmsis/cmsis_gcc.h ****  */
 324:/home/fanxinhao/Work/LiteOS_Lab/iot_link/os/liteos/arch/arm/common/cmsis/cmsis_gcc.h **** __attribute__((always_inline)) __STATIC_INLINE uint32_t __TZ_get_PRIMASK_NS(void)
 325:/home/fanxinhao/Work/LiteOS_Lab/iot_link/os/liteos/arch/arm/common/cmsis/cmsis_gcc.h **** {
 326:/home/fanxinhao/Work/LiteOS_Lab/iot_link/os/liteos/arch/arm/common/cmsis/cmsis_gcc.h ****   uint32_t result;
 327:/home/fanxinhao/Work/LiteOS_Lab/iot_link/os/liteos/arch/arm/common/cmsis/cmsis_gcc.h **** 
ARM GAS  /tmp/cclpoteW.s 			page 20


 328:/home/fanxinhao/Work/LiteOS_Lab/iot_link/os/liteos/arch/arm/common/cmsis/cmsis_gcc.h ****   __ASM volatile ("MRS %0, primask_ns" : "=r" (result) );
 329:/home/fanxinhao/Work/LiteOS_Lab/iot_link/os/liteos/arch/arm/common/cmsis/cmsis_gcc.h ****   return(result);
 330:/home/fanxinhao/Work/LiteOS_Lab/iot_link/os/liteos/arch/arm/common/cmsis/cmsis_gcc.h **** }
 331:/home/fanxinhao/Work/LiteOS_Lab/iot_link/os/liteos/arch/arm/common/cmsis/cmsis_gcc.h **** #endif
 332:/home/fanxinhao/Work/LiteOS_Lab/iot_link/os/liteos/arch/arm/common/cmsis/cmsis_gcc.h **** 
 333:/home/fanxinhao/Work/LiteOS_Lab/iot_link/os/liteos/arch/arm/common/cmsis/cmsis_gcc.h **** 
 334:/home/fanxinhao/Work/LiteOS_Lab/iot_link/os/liteos/arch/arm/common/cmsis/cmsis_gcc.h **** /**
 335:/home/fanxinhao/Work/LiteOS_Lab/iot_link/os/liteos/arch/arm/common/cmsis/cmsis_gcc.h ****   \brief   Set Priority Mask
 336:/home/fanxinhao/Work/LiteOS_Lab/iot_link/os/liteos/arch/arm/common/cmsis/cmsis_gcc.h ****   \details Assigns the given value to the Priority Mask Register.
 337:/home/fanxinhao/Work/LiteOS_Lab/iot_link/os/liteos/arch/arm/common/cmsis/cmsis_gcc.h ****   \param [in]    priMask  Priority Mask
 338:/home/fanxinhao/Work/LiteOS_Lab/iot_link/os/liteos/arch/arm/common/cmsis/cmsis_gcc.h ****  */
 339:/home/fanxinhao/Work/LiteOS_Lab/iot_link/os/liteos/arch/arm/common/cmsis/cmsis_gcc.h **** __attribute__((always_inline)) __STATIC_INLINE void __set_PRIMASK(uint32_t priMask)
 340:/home/fanxinhao/Work/LiteOS_Lab/iot_link/os/liteos/arch/arm/common/cmsis/cmsis_gcc.h **** {
 341:/home/fanxinhao/Work/LiteOS_Lab/iot_link/os/liteos/arch/arm/common/cmsis/cmsis_gcc.h ****   __ASM volatile ("MSR primask, %0" : : "r" (priMask) : "memory");
 342:/home/fanxinhao/Work/LiteOS_Lab/iot_link/os/liteos/arch/arm/common/cmsis/cmsis_gcc.h **** }
 343:/home/fanxinhao/Work/LiteOS_Lab/iot_link/os/liteos/arch/arm/common/cmsis/cmsis_gcc.h **** 
 344:/home/fanxinhao/Work/LiteOS_Lab/iot_link/os/liteos/arch/arm/common/cmsis/cmsis_gcc.h **** 
 345:/home/fanxinhao/Work/LiteOS_Lab/iot_link/os/liteos/arch/arm/common/cmsis/cmsis_gcc.h **** #if (defined (__ARM_FEATURE_CMSE ) && (__ARM_FEATURE_CMSE == 3))
 346:/home/fanxinhao/Work/LiteOS_Lab/iot_link/os/liteos/arch/arm/common/cmsis/cmsis_gcc.h **** /**
 347:/home/fanxinhao/Work/LiteOS_Lab/iot_link/os/liteos/arch/arm/common/cmsis/cmsis_gcc.h ****   \brief   Set Priority Mask (non-secure)
 348:/home/fanxinhao/Work/LiteOS_Lab/iot_link/os/liteos/arch/arm/common/cmsis/cmsis_gcc.h ****   \details Assigns the given value to the non-secure Priority Mask Register when in secure state.
 349:/home/fanxinhao/Work/LiteOS_Lab/iot_link/os/liteos/arch/arm/common/cmsis/cmsis_gcc.h ****   \param [in]    priMask  Priority Mask
 350:/home/fanxinhao/Work/LiteOS_Lab/iot_link/os/liteos/arch/arm/common/cmsis/cmsis_gcc.h ****  */
 351:/home/fanxinhao/Work/LiteOS_Lab/iot_link/os/liteos/arch/arm/common/cmsis/cmsis_gcc.h **** __attribute__((always_inline)) __STATIC_INLINE void __TZ_set_PRIMASK_NS(uint32_t priMask)
 352:/home/fanxinhao/Work/LiteOS_Lab/iot_link/os/liteos/arch/arm/common/cmsis/cmsis_gcc.h **** {
 353:/home/fanxinhao/Work/LiteOS_Lab/iot_link/os/liteos/arch/arm/common/cmsis/cmsis_gcc.h ****   __ASM volatile ("MSR primask_ns, %0" : : "r" (priMask) : "memory");
 354:/home/fanxinhao/Work/LiteOS_Lab/iot_link/os/liteos/arch/arm/common/cmsis/cmsis_gcc.h **** }
 355:/home/fanxinhao/Work/LiteOS_Lab/iot_link/os/liteos/arch/arm/common/cmsis/cmsis_gcc.h **** #endif
 356:/home/fanxinhao/Work/LiteOS_Lab/iot_link/os/liteos/arch/arm/common/cmsis/cmsis_gcc.h **** 
 357:/home/fanxinhao/Work/LiteOS_Lab/iot_link/os/liteos/arch/arm/common/cmsis/cmsis_gcc.h **** 
 358:/home/fanxinhao/Work/LiteOS_Lab/iot_link/os/liteos/arch/arm/common/cmsis/cmsis_gcc.h **** #if ((defined (__ARM_ARCH_7M__      ) && (__ARM_ARCH_7M__      == 1)) || \
 359:/home/fanxinhao/Work/LiteOS_Lab/iot_link/os/liteos/arch/arm/common/cmsis/cmsis_gcc.h ****      (defined (__ARM_ARCH_7EM__     ) && (__ARM_ARCH_7EM__     == 1)) || \
 360:/home/fanxinhao/Work/LiteOS_Lab/iot_link/os/liteos/arch/arm/common/cmsis/cmsis_gcc.h ****      (defined (__ARM_ARCH_8M_MAIN__ ) && (__ARM_ARCH_8M_MAIN__ == 1))    )
 361:/home/fanxinhao/Work/LiteOS_Lab/iot_link/os/liteos/arch/arm/common/cmsis/cmsis_gcc.h **** /**
 362:/home/fanxinhao/Work/LiteOS_Lab/iot_link/os/liteos/arch/arm/common/cmsis/cmsis_gcc.h ****   \brief   Enable FIQ
 363:/home/fanxinhao/Work/LiteOS_Lab/iot_link/os/liteos/arch/arm/common/cmsis/cmsis_gcc.h ****   \details Enables FIQ interrupts by clearing the F-bit in the CPSR.
 364:/home/fanxinhao/Work/LiteOS_Lab/iot_link/os/liteos/arch/arm/common/cmsis/cmsis_gcc.h ****            Can only be executed in Privileged modes.
 365:/home/fanxinhao/Work/LiteOS_Lab/iot_link/os/liteos/arch/arm/common/cmsis/cmsis_gcc.h ****  */
 366:/home/fanxinhao/Work/LiteOS_Lab/iot_link/os/liteos/arch/arm/common/cmsis/cmsis_gcc.h **** __attribute__((always_inline)) __STATIC_INLINE void __enable_fault_irq(void)
 367:/home/fanxinhao/Work/LiteOS_Lab/iot_link/os/liteos/arch/arm/common/cmsis/cmsis_gcc.h **** {
 368:/home/fanxinhao/Work/LiteOS_Lab/iot_link/os/liteos/arch/arm/common/cmsis/cmsis_gcc.h ****   __ASM volatile ("cpsie f" : : : "memory");
 369:/home/fanxinhao/Work/LiteOS_Lab/iot_link/os/liteos/arch/arm/common/cmsis/cmsis_gcc.h **** }
 370:/home/fanxinhao/Work/LiteOS_Lab/iot_link/os/liteos/arch/arm/common/cmsis/cmsis_gcc.h **** 
 371:/home/fanxinhao/Work/LiteOS_Lab/iot_link/os/liteos/arch/arm/common/cmsis/cmsis_gcc.h **** 
 372:/home/fanxinhao/Work/LiteOS_Lab/iot_link/os/liteos/arch/arm/common/cmsis/cmsis_gcc.h **** /**
 373:/home/fanxinhao/Work/LiteOS_Lab/iot_link/os/liteos/arch/arm/common/cmsis/cmsis_gcc.h ****   \brief   Disable FIQ
 374:/home/fanxinhao/Work/LiteOS_Lab/iot_link/os/liteos/arch/arm/common/cmsis/cmsis_gcc.h ****   \details Disables FIQ interrupts by setting the F-bit in the CPSR.
 375:/home/fanxinhao/Work/LiteOS_Lab/iot_link/os/liteos/arch/arm/common/cmsis/cmsis_gcc.h ****            Can only be executed in Privileged modes.
 376:/home/fanxinhao/Work/LiteOS_Lab/iot_link/os/liteos/arch/arm/common/cmsis/cmsis_gcc.h ****  */
 377:/home/fanxinhao/Work/LiteOS_Lab/iot_link/os/liteos/arch/arm/common/cmsis/cmsis_gcc.h **** __attribute__((always_inline)) __STATIC_INLINE void __disable_fault_irq(void)
 378:/home/fanxinhao/Work/LiteOS_Lab/iot_link/os/liteos/arch/arm/common/cmsis/cmsis_gcc.h **** {
 379:/home/fanxinhao/Work/LiteOS_Lab/iot_link/os/liteos/arch/arm/common/cmsis/cmsis_gcc.h ****   __ASM volatile ("cpsid f" : : : "memory");
 380:/home/fanxinhao/Work/LiteOS_Lab/iot_link/os/liteos/arch/arm/common/cmsis/cmsis_gcc.h **** }
 381:/home/fanxinhao/Work/LiteOS_Lab/iot_link/os/liteos/arch/arm/common/cmsis/cmsis_gcc.h **** 
 382:/home/fanxinhao/Work/LiteOS_Lab/iot_link/os/liteos/arch/arm/common/cmsis/cmsis_gcc.h **** 
 383:/home/fanxinhao/Work/LiteOS_Lab/iot_link/os/liteos/arch/arm/common/cmsis/cmsis_gcc.h **** /**
 384:/home/fanxinhao/Work/LiteOS_Lab/iot_link/os/liteos/arch/arm/common/cmsis/cmsis_gcc.h ****   \brief   Get Base Priority
ARM GAS  /tmp/cclpoteW.s 			page 21


 385:/home/fanxinhao/Work/LiteOS_Lab/iot_link/os/liteos/arch/arm/common/cmsis/cmsis_gcc.h ****   \details Returns the current value of the Base Priority register.
 386:/home/fanxinhao/Work/LiteOS_Lab/iot_link/os/liteos/arch/arm/common/cmsis/cmsis_gcc.h ****   \return               Base Priority register value
 387:/home/fanxinhao/Work/LiteOS_Lab/iot_link/os/liteos/arch/arm/common/cmsis/cmsis_gcc.h ****  */
 388:/home/fanxinhao/Work/LiteOS_Lab/iot_link/os/liteos/arch/arm/common/cmsis/cmsis_gcc.h **** __attribute__((always_inline)) __STATIC_INLINE uint32_t __get_BASEPRI(void)
 389:/home/fanxinhao/Work/LiteOS_Lab/iot_link/os/liteos/arch/arm/common/cmsis/cmsis_gcc.h **** {
 390:/home/fanxinhao/Work/LiteOS_Lab/iot_link/os/liteos/arch/arm/common/cmsis/cmsis_gcc.h ****   uint32_t result;
 391:/home/fanxinhao/Work/LiteOS_Lab/iot_link/os/liteos/arch/arm/common/cmsis/cmsis_gcc.h **** 
 392:/home/fanxinhao/Work/LiteOS_Lab/iot_link/os/liteos/arch/arm/common/cmsis/cmsis_gcc.h ****   __ASM volatile ("MRS %0, basepri" : "=r" (result) );
 393:/home/fanxinhao/Work/LiteOS_Lab/iot_link/os/liteos/arch/arm/common/cmsis/cmsis_gcc.h ****   return(result);
 394:/home/fanxinhao/Work/LiteOS_Lab/iot_link/os/liteos/arch/arm/common/cmsis/cmsis_gcc.h **** }
 395:/home/fanxinhao/Work/LiteOS_Lab/iot_link/os/liteos/arch/arm/common/cmsis/cmsis_gcc.h **** 
 396:/home/fanxinhao/Work/LiteOS_Lab/iot_link/os/liteos/arch/arm/common/cmsis/cmsis_gcc.h **** 
 397:/home/fanxinhao/Work/LiteOS_Lab/iot_link/os/liteos/arch/arm/common/cmsis/cmsis_gcc.h **** #if (defined (__ARM_FEATURE_CMSE ) && (__ARM_FEATURE_CMSE == 3))
 398:/home/fanxinhao/Work/LiteOS_Lab/iot_link/os/liteos/arch/arm/common/cmsis/cmsis_gcc.h **** /**
 399:/home/fanxinhao/Work/LiteOS_Lab/iot_link/os/liteos/arch/arm/common/cmsis/cmsis_gcc.h ****   \brief   Get Base Priority (non-secure)
 400:/home/fanxinhao/Work/LiteOS_Lab/iot_link/os/liteos/arch/arm/common/cmsis/cmsis_gcc.h ****   \details Returns the current value of the non-secure Base Priority register when in secure state.
 401:/home/fanxinhao/Work/LiteOS_Lab/iot_link/os/liteos/arch/arm/common/cmsis/cmsis_gcc.h ****   \return               Base Priority register value
 402:/home/fanxinhao/Work/LiteOS_Lab/iot_link/os/liteos/arch/arm/common/cmsis/cmsis_gcc.h ****  */
 403:/home/fanxinhao/Work/LiteOS_Lab/iot_link/os/liteos/arch/arm/common/cmsis/cmsis_gcc.h **** __attribute__((always_inline)) __STATIC_INLINE uint32_t __TZ_get_BASEPRI_NS(void)
 404:/home/fanxinhao/Work/LiteOS_Lab/iot_link/os/liteos/arch/arm/common/cmsis/cmsis_gcc.h **** {
 405:/home/fanxinhao/Work/LiteOS_Lab/iot_link/os/liteos/arch/arm/common/cmsis/cmsis_gcc.h ****   uint32_t result;
 406:/home/fanxinhao/Work/LiteOS_Lab/iot_link/os/liteos/arch/arm/common/cmsis/cmsis_gcc.h **** 
 407:/home/fanxinhao/Work/LiteOS_Lab/iot_link/os/liteos/arch/arm/common/cmsis/cmsis_gcc.h ****   __ASM volatile ("MRS %0, basepri_ns" : "=r" (result) );
 408:/home/fanxinhao/Work/LiteOS_Lab/iot_link/os/liteos/arch/arm/common/cmsis/cmsis_gcc.h ****   return(result);
 409:/home/fanxinhao/Work/LiteOS_Lab/iot_link/os/liteos/arch/arm/common/cmsis/cmsis_gcc.h **** }
 410:/home/fanxinhao/Work/LiteOS_Lab/iot_link/os/liteos/arch/arm/common/cmsis/cmsis_gcc.h **** #endif
 411:/home/fanxinhao/Work/LiteOS_Lab/iot_link/os/liteos/arch/arm/common/cmsis/cmsis_gcc.h **** 
 412:/home/fanxinhao/Work/LiteOS_Lab/iot_link/os/liteos/arch/arm/common/cmsis/cmsis_gcc.h **** 
 413:/home/fanxinhao/Work/LiteOS_Lab/iot_link/os/liteos/arch/arm/common/cmsis/cmsis_gcc.h **** /**
 414:/home/fanxinhao/Work/LiteOS_Lab/iot_link/os/liteos/arch/arm/common/cmsis/cmsis_gcc.h ****   \brief   Set Base Priority
 415:/home/fanxinhao/Work/LiteOS_Lab/iot_link/os/liteos/arch/arm/common/cmsis/cmsis_gcc.h ****   \details Assigns the given value to the Base Priority register.
 416:/home/fanxinhao/Work/LiteOS_Lab/iot_link/os/liteos/arch/arm/common/cmsis/cmsis_gcc.h ****   \param [in]    basePri  Base Priority value to set
 417:/home/fanxinhao/Work/LiteOS_Lab/iot_link/os/liteos/arch/arm/common/cmsis/cmsis_gcc.h ****  */
 418:/home/fanxinhao/Work/LiteOS_Lab/iot_link/os/liteos/arch/arm/common/cmsis/cmsis_gcc.h **** __attribute__((always_inline)) __STATIC_INLINE void __set_BASEPRI(uint32_t basePri)
 419:/home/fanxinhao/Work/LiteOS_Lab/iot_link/os/liteos/arch/arm/common/cmsis/cmsis_gcc.h **** {
 420:/home/fanxinhao/Work/LiteOS_Lab/iot_link/os/liteos/arch/arm/common/cmsis/cmsis_gcc.h ****   __ASM volatile ("MSR basepri, %0" : : "r" (basePri) : "memory");
 421:/home/fanxinhao/Work/LiteOS_Lab/iot_link/os/liteos/arch/arm/common/cmsis/cmsis_gcc.h **** }
 422:/home/fanxinhao/Work/LiteOS_Lab/iot_link/os/liteos/arch/arm/common/cmsis/cmsis_gcc.h **** 
 423:/home/fanxinhao/Work/LiteOS_Lab/iot_link/os/liteos/arch/arm/common/cmsis/cmsis_gcc.h **** 
 424:/home/fanxinhao/Work/LiteOS_Lab/iot_link/os/liteos/arch/arm/common/cmsis/cmsis_gcc.h **** #if (defined (__ARM_FEATURE_CMSE ) && (__ARM_FEATURE_CMSE == 3))
 425:/home/fanxinhao/Work/LiteOS_Lab/iot_link/os/liteos/arch/arm/common/cmsis/cmsis_gcc.h **** /**
 426:/home/fanxinhao/Work/LiteOS_Lab/iot_link/os/liteos/arch/arm/common/cmsis/cmsis_gcc.h ****   \brief   Set Base Priority (non-secure)
 427:/home/fanxinhao/Work/LiteOS_Lab/iot_link/os/liteos/arch/arm/common/cmsis/cmsis_gcc.h ****   \details Assigns the given value to the non-secure Base Priority register when in secure state.
 428:/home/fanxinhao/Work/LiteOS_Lab/iot_link/os/liteos/arch/arm/common/cmsis/cmsis_gcc.h ****   \param [in]    basePri  Base Priority value to set
 429:/home/fanxinhao/Work/LiteOS_Lab/iot_link/os/liteos/arch/arm/common/cmsis/cmsis_gcc.h ****  */
 430:/home/fanxinhao/Work/LiteOS_Lab/iot_link/os/liteos/arch/arm/common/cmsis/cmsis_gcc.h **** __attribute__((always_inline)) __STATIC_INLINE void __TZ_set_BASEPRI_NS(uint32_t basePri)
 431:/home/fanxinhao/Work/LiteOS_Lab/iot_link/os/liteos/arch/arm/common/cmsis/cmsis_gcc.h **** {
 432:/home/fanxinhao/Work/LiteOS_Lab/iot_link/os/liteos/arch/arm/common/cmsis/cmsis_gcc.h ****   __ASM volatile ("MSR basepri_ns, %0" : : "r" (basePri) : "memory");
 433:/home/fanxinhao/Work/LiteOS_Lab/iot_link/os/liteos/arch/arm/common/cmsis/cmsis_gcc.h **** }
 434:/home/fanxinhao/Work/LiteOS_Lab/iot_link/os/liteos/arch/arm/common/cmsis/cmsis_gcc.h **** #endif
 435:/home/fanxinhao/Work/LiteOS_Lab/iot_link/os/liteos/arch/arm/common/cmsis/cmsis_gcc.h **** 
 436:/home/fanxinhao/Work/LiteOS_Lab/iot_link/os/liteos/arch/arm/common/cmsis/cmsis_gcc.h **** 
 437:/home/fanxinhao/Work/LiteOS_Lab/iot_link/os/liteos/arch/arm/common/cmsis/cmsis_gcc.h **** /**
 438:/home/fanxinhao/Work/LiteOS_Lab/iot_link/os/liteos/arch/arm/common/cmsis/cmsis_gcc.h ****   \brief   Set Base Priority with condition
 439:/home/fanxinhao/Work/LiteOS_Lab/iot_link/os/liteos/arch/arm/common/cmsis/cmsis_gcc.h ****   \details Assigns the given value to the Base Priority register only if BASEPRI masking is disable
 440:/home/fanxinhao/Work/LiteOS_Lab/iot_link/os/liteos/arch/arm/common/cmsis/cmsis_gcc.h ****            or the new value increases the BASEPRI priority level.
 441:/home/fanxinhao/Work/LiteOS_Lab/iot_link/os/liteos/arch/arm/common/cmsis/cmsis_gcc.h ****   \param [in]    basePri  Base Priority value to set
ARM GAS  /tmp/cclpoteW.s 			page 22


 442:/home/fanxinhao/Work/LiteOS_Lab/iot_link/os/liteos/arch/arm/common/cmsis/cmsis_gcc.h ****  */
 443:/home/fanxinhao/Work/LiteOS_Lab/iot_link/os/liteos/arch/arm/common/cmsis/cmsis_gcc.h **** __attribute__((always_inline)) __STATIC_INLINE void __set_BASEPRI_MAX(uint32_t basePri)
 444:/home/fanxinhao/Work/LiteOS_Lab/iot_link/os/liteos/arch/arm/common/cmsis/cmsis_gcc.h **** {
 445:/home/fanxinhao/Work/LiteOS_Lab/iot_link/os/liteos/arch/arm/common/cmsis/cmsis_gcc.h ****   __ASM volatile ("MSR basepri_max, %0" : : "r" (basePri) : "memory");
 446:/home/fanxinhao/Work/LiteOS_Lab/iot_link/os/liteos/arch/arm/common/cmsis/cmsis_gcc.h **** }
 447:/home/fanxinhao/Work/LiteOS_Lab/iot_link/os/liteos/arch/arm/common/cmsis/cmsis_gcc.h **** 
 448:/home/fanxinhao/Work/LiteOS_Lab/iot_link/os/liteos/arch/arm/common/cmsis/cmsis_gcc.h **** 
 449:/home/fanxinhao/Work/LiteOS_Lab/iot_link/os/liteos/arch/arm/common/cmsis/cmsis_gcc.h **** /**
 450:/home/fanxinhao/Work/LiteOS_Lab/iot_link/os/liteos/arch/arm/common/cmsis/cmsis_gcc.h ****   \brief   Get Fault Mask
 451:/home/fanxinhao/Work/LiteOS_Lab/iot_link/os/liteos/arch/arm/common/cmsis/cmsis_gcc.h ****   \details Returns the current value of the Fault Mask register.
 452:/home/fanxinhao/Work/LiteOS_Lab/iot_link/os/liteos/arch/arm/common/cmsis/cmsis_gcc.h ****   \return               Fault Mask register value
 453:/home/fanxinhao/Work/LiteOS_Lab/iot_link/os/liteos/arch/arm/common/cmsis/cmsis_gcc.h ****  */
 454:/home/fanxinhao/Work/LiteOS_Lab/iot_link/os/liteos/arch/arm/common/cmsis/cmsis_gcc.h **** __attribute__((always_inline)) __STATIC_INLINE uint32_t __get_FAULTMASK(void)
 455:/home/fanxinhao/Work/LiteOS_Lab/iot_link/os/liteos/arch/arm/common/cmsis/cmsis_gcc.h **** {
 456:/home/fanxinhao/Work/LiteOS_Lab/iot_link/os/liteos/arch/arm/common/cmsis/cmsis_gcc.h ****   uint32_t result;
 457:/home/fanxinhao/Work/LiteOS_Lab/iot_link/os/liteos/arch/arm/common/cmsis/cmsis_gcc.h **** 
 458:/home/fanxinhao/Work/LiteOS_Lab/iot_link/os/liteos/arch/arm/common/cmsis/cmsis_gcc.h ****   __ASM volatile ("MRS %0, faultmask" : "=r" (result) );
 459:/home/fanxinhao/Work/LiteOS_Lab/iot_link/os/liteos/arch/arm/common/cmsis/cmsis_gcc.h ****   return(result);
 460:/home/fanxinhao/Work/LiteOS_Lab/iot_link/os/liteos/arch/arm/common/cmsis/cmsis_gcc.h **** }
 461:/home/fanxinhao/Work/LiteOS_Lab/iot_link/os/liteos/arch/arm/common/cmsis/cmsis_gcc.h **** 
 462:/home/fanxinhao/Work/LiteOS_Lab/iot_link/os/liteos/arch/arm/common/cmsis/cmsis_gcc.h **** 
 463:/home/fanxinhao/Work/LiteOS_Lab/iot_link/os/liteos/arch/arm/common/cmsis/cmsis_gcc.h **** #if (defined (__ARM_FEATURE_CMSE ) && (__ARM_FEATURE_CMSE == 3))
 464:/home/fanxinhao/Work/LiteOS_Lab/iot_link/os/liteos/arch/arm/common/cmsis/cmsis_gcc.h **** /**
 465:/home/fanxinhao/Work/LiteOS_Lab/iot_link/os/liteos/arch/arm/common/cmsis/cmsis_gcc.h ****   \brief   Get Fault Mask (non-secure)
 466:/home/fanxinhao/Work/LiteOS_Lab/iot_link/os/liteos/arch/arm/common/cmsis/cmsis_gcc.h ****   \details Returns the current value of the non-secure Fault Mask register when in secure state.
 467:/home/fanxinhao/Work/LiteOS_Lab/iot_link/os/liteos/arch/arm/common/cmsis/cmsis_gcc.h ****   \return               Fault Mask register value
 468:/home/fanxinhao/Work/LiteOS_Lab/iot_link/os/liteos/arch/arm/common/cmsis/cmsis_gcc.h ****  */
 469:/home/fanxinhao/Work/LiteOS_Lab/iot_link/os/liteos/arch/arm/common/cmsis/cmsis_gcc.h **** __attribute__((always_inline)) __STATIC_INLINE uint32_t __TZ_get_FAULTMASK_NS(void)
 470:/home/fanxinhao/Work/LiteOS_Lab/iot_link/os/liteos/arch/arm/common/cmsis/cmsis_gcc.h **** {
 471:/home/fanxinhao/Work/LiteOS_Lab/iot_link/os/liteos/arch/arm/common/cmsis/cmsis_gcc.h ****   uint32_t result;
 472:/home/fanxinhao/Work/LiteOS_Lab/iot_link/os/liteos/arch/arm/common/cmsis/cmsis_gcc.h **** 
 473:/home/fanxinhao/Work/LiteOS_Lab/iot_link/os/liteos/arch/arm/common/cmsis/cmsis_gcc.h ****   __ASM volatile ("MRS %0, faultmask_ns" : "=r" (result) );
 474:/home/fanxinhao/Work/LiteOS_Lab/iot_link/os/liteos/arch/arm/common/cmsis/cmsis_gcc.h ****   return(result);
 475:/home/fanxinhao/Work/LiteOS_Lab/iot_link/os/liteos/arch/arm/common/cmsis/cmsis_gcc.h **** }
 476:/home/fanxinhao/Work/LiteOS_Lab/iot_link/os/liteos/arch/arm/common/cmsis/cmsis_gcc.h **** #endif
 477:/home/fanxinhao/Work/LiteOS_Lab/iot_link/os/liteos/arch/arm/common/cmsis/cmsis_gcc.h **** 
 478:/home/fanxinhao/Work/LiteOS_Lab/iot_link/os/liteos/arch/arm/common/cmsis/cmsis_gcc.h **** 
 479:/home/fanxinhao/Work/LiteOS_Lab/iot_link/os/liteos/arch/arm/common/cmsis/cmsis_gcc.h **** /**
 480:/home/fanxinhao/Work/LiteOS_Lab/iot_link/os/liteos/arch/arm/common/cmsis/cmsis_gcc.h ****   \brief   Set Fault Mask
 481:/home/fanxinhao/Work/LiteOS_Lab/iot_link/os/liteos/arch/arm/common/cmsis/cmsis_gcc.h ****   \details Assigns the given value to the Fault Mask register.
 482:/home/fanxinhao/Work/LiteOS_Lab/iot_link/os/liteos/arch/arm/common/cmsis/cmsis_gcc.h ****   \param [in]    faultMask  Fault Mask value to set
 483:/home/fanxinhao/Work/LiteOS_Lab/iot_link/os/liteos/arch/arm/common/cmsis/cmsis_gcc.h ****  */
 484:/home/fanxinhao/Work/LiteOS_Lab/iot_link/os/liteos/arch/arm/common/cmsis/cmsis_gcc.h **** __attribute__((always_inline)) __STATIC_INLINE void __set_FAULTMASK(uint32_t faultMask)
 485:/home/fanxinhao/Work/LiteOS_Lab/iot_link/os/liteos/arch/arm/common/cmsis/cmsis_gcc.h **** {
 486:/home/fanxinhao/Work/LiteOS_Lab/iot_link/os/liteos/arch/arm/common/cmsis/cmsis_gcc.h ****   __ASM volatile ("MSR faultmask, %0" : : "r" (faultMask) : "memory");
 487:/home/fanxinhao/Work/LiteOS_Lab/iot_link/os/liteos/arch/arm/common/cmsis/cmsis_gcc.h **** }
 488:/home/fanxinhao/Work/LiteOS_Lab/iot_link/os/liteos/arch/arm/common/cmsis/cmsis_gcc.h **** 
 489:/home/fanxinhao/Work/LiteOS_Lab/iot_link/os/liteos/arch/arm/common/cmsis/cmsis_gcc.h **** 
 490:/home/fanxinhao/Work/LiteOS_Lab/iot_link/os/liteos/arch/arm/common/cmsis/cmsis_gcc.h **** #if (defined (__ARM_FEATURE_CMSE ) && (__ARM_FEATURE_CMSE == 3))
 491:/home/fanxinhao/Work/LiteOS_Lab/iot_link/os/liteos/arch/arm/common/cmsis/cmsis_gcc.h **** /**
 492:/home/fanxinhao/Work/LiteOS_Lab/iot_link/os/liteos/arch/arm/common/cmsis/cmsis_gcc.h ****   \brief   Set Fault Mask (non-secure)
 493:/home/fanxinhao/Work/LiteOS_Lab/iot_link/os/liteos/arch/arm/common/cmsis/cmsis_gcc.h ****   \details Assigns the given value to the non-secure Fault Mask register when in secure state.
 494:/home/fanxinhao/Work/LiteOS_Lab/iot_link/os/liteos/arch/arm/common/cmsis/cmsis_gcc.h ****   \param [in]    faultMask  Fault Mask value to set
 495:/home/fanxinhao/Work/LiteOS_Lab/iot_link/os/liteos/arch/arm/common/cmsis/cmsis_gcc.h ****  */
 496:/home/fanxinhao/Work/LiteOS_Lab/iot_link/os/liteos/arch/arm/common/cmsis/cmsis_gcc.h **** __attribute__((always_inline)) __STATIC_INLINE void __TZ_set_FAULTMASK_NS(uint32_t faultMask)
 497:/home/fanxinhao/Work/LiteOS_Lab/iot_link/os/liteos/arch/arm/common/cmsis/cmsis_gcc.h **** {
 498:/home/fanxinhao/Work/LiteOS_Lab/iot_link/os/liteos/arch/arm/common/cmsis/cmsis_gcc.h ****   __ASM volatile ("MSR faultmask_ns, %0" : : "r" (faultMask) : "memory");
ARM GAS  /tmp/cclpoteW.s 			page 23


 499:/home/fanxinhao/Work/LiteOS_Lab/iot_link/os/liteos/arch/arm/common/cmsis/cmsis_gcc.h **** }
 500:/home/fanxinhao/Work/LiteOS_Lab/iot_link/os/liteos/arch/arm/common/cmsis/cmsis_gcc.h **** #endif
 501:/home/fanxinhao/Work/LiteOS_Lab/iot_link/os/liteos/arch/arm/common/cmsis/cmsis_gcc.h **** 
 502:/home/fanxinhao/Work/LiteOS_Lab/iot_link/os/liteos/arch/arm/common/cmsis/cmsis_gcc.h **** #endif /* ((defined (__ARM_ARCH_7M__      ) && (__ARM_ARCH_7M__      == 1)) || \
 503:/home/fanxinhao/Work/LiteOS_Lab/iot_link/os/liteos/arch/arm/common/cmsis/cmsis_gcc.h ****            (defined (__ARM_ARCH_7EM__     ) && (__ARM_ARCH_7EM__     == 1)) || \
 504:/home/fanxinhao/Work/LiteOS_Lab/iot_link/os/liteos/arch/arm/common/cmsis/cmsis_gcc.h ****            (defined (__ARM_ARCH_8M_MAIN__ ) && (__ARM_ARCH_8M_MAIN__ == 1))    ) */
 505:/home/fanxinhao/Work/LiteOS_Lab/iot_link/os/liteos/arch/arm/common/cmsis/cmsis_gcc.h **** 
 506:/home/fanxinhao/Work/LiteOS_Lab/iot_link/os/liteos/arch/arm/common/cmsis/cmsis_gcc.h **** 
 507:/home/fanxinhao/Work/LiteOS_Lab/iot_link/os/liteos/arch/arm/common/cmsis/cmsis_gcc.h **** #if ((defined (__ARM_ARCH_8M_MAIN__ ) && (__ARM_ARCH_8M_MAIN__ == 1)) || \
 508:/home/fanxinhao/Work/LiteOS_Lab/iot_link/os/liteos/arch/arm/common/cmsis/cmsis_gcc.h ****      (defined (__ARM_ARCH_8M_BASE__ ) && (__ARM_ARCH_8M_BASE__ == 1))    )
 509:/home/fanxinhao/Work/LiteOS_Lab/iot_link/os/liteos/arch/arm/common/cmsis/cmsis_gcc.h **** 
 510:/home/fanxinhao/Work/LiteOS_Lab/iot_link/os/liteos/arch/arm/common/cmsis/cmsis_gcc.h **** /**
 511:/home/fanxinhao/Work/LiteOS_Lab/iot_link/os/liteos/arch/arm/common/cmsis/cmsis_gcc.h ****   \brief   Get Process Stack Pointer Limit
 512:/home/fanxinhao/Work/LiteOS_Lab/iot_link/os/liteos/arch/arm/common/cmsis/cmsis_gcc.h ****   \details Returns the current value of the Process Stack Pointer Limit (PSPLIM).
 513:/home/fanxinhao/Work/LiteOS_Lab/iot_link/os/liteos/arch/arm/common/cmsis/cmsis_gcc.h ****   \return               PSPLIM Register value
 514:/home/fanxinhao/Work/LiteOS_Lab/iot_link/os/liteos/arch/arm/common/cmsis/cmsis_gcc.h ****  */
 515:/home/fanxinhao/Work/LiteOS_Lab/iot_link/os/liteos/arch/arm/common/cmsis/cmsis_gcc.h **** __attribute__((always_inline)) __STATIC_INLINE uint32_t __get_PSPLIM(void)
 516:/home/fanxinhao/Work/LiteOS_Lab/iot_link/os/liteos/arch/arm/common/cmsis/cmsis_gcc.h **** {
 517:/home/fanxinhao/Work/LiteOS_Lab/iot_link/os/liteos/arch/arm/common/cmsis/cmsis_gcc.h ****   register uint32_t result;
 518:/home/fanxinhao/Work/LiteOS_Lab/iot_link/os/liteos/arch/arm/common/cmsis/cmsis_gcc.h **** 
 519:/home/fanxinhao/Work/LiteOS_Lab/iot_link/os/liteos/arch/arm/common/cmsis/cmsis_gcc.h ****   __ASM volatile ("MRS %0, psplim"  : "=r" (result) );
 520:/home/fanxinhao/Work/LiteOS_Lab/iot_link/os/liteos/arch/arm/common/cmsis/cmsis_gcc.h ****   return(result);
 521:/home/fanxinhao/Work/LiteOS_Lab/iot_link/os/liteos/arch/arm/common/cmsis/cmsis_gcc.h **** }
 522:/home/fanxinhao/Work/LiteOS_Lab/iot_link/os/liteos/arch/arm/common/cmsis/cmsis_gcc.h **** 
 523:/home/fanxinhao/Work/LiteOS_Lab/iot_link/os/liteos/arch/arm/common/cmsis/cmsis_gcc.h **** 
 524:/home/fanxinhao/Work/LiteOS_Lab/iot_link/os/liteos/arch/arm/common/cmsis/cmsis_gcc.h **** #if ((defined (__ARM_FEATURE_CMSE  ) && (__ARM_FEATURE_CMSE   == 3)) && \
 525:/home/fanxinhao/Work/LiteOS_Lab/iot_link/os/liteos/arch/arm/common/cmsis/cmsis_gcc.h ****      (defined (__ARM_ARCH_8M_MAIN__) && (__ARM_ARCH_8M_MAIN__ == 1))    )
 526:/home/fanxinhao/Work/LiteOS_Lab/iot_link/os/liteos/arch/arm/common/cmsis/cmsis_gcc.h **** /**
 527:/home/fanxinhao/Work/LiteOS_Lab/iot_link/os/liteos/arch/arm/common/cmsis/cmsis_gcc.h ****   \brief   Get Process Stack Pointer Limit (non-secure)
 528:/home/fanxinhao/Work/LiteOS_Lab/iot_link/os/liteos/arch/arm/common/cmsis/cmsis_gcc.h ****   \details Returns the current value of the non-secure Process Stack Pointer Limit (PSPLIM) when in
 529:/home/fanxinhao/Work/LiteOS_Lab/iot_link/os/liteos/arch/arm/common/cmsis/cmsis_gcc.h ****   \return               PSPLIM Register value
 530:/home/fanxinhao/Work/LiteOS_Lab/iot_link/os/liteos/arch/arm/common/cmsis/cmsis_gcc.h ****  */
 531:/home/fanxinhao/Work/LiteOS_Lab/iot_link/os/liteos/arch/arm/common/cmsis/cmsis_gcc.h **** __attribute__((always_inline)) __STATIC_INLINE uint32_t __TZ_get_PSPLIM_NS(void)
 532:/home/fanxinhao/Work/LiteOS_Lab/iot_link/os/liteos/arch/arm/common/cmsis/cmsis_gcc.h **** {
 533:/home/fanxinhao/Work/LiteOS_Lab/iot_link/os/liteos/arch/arm/common/cmsis/cmsis_gcc.h ****   register uint32_t result;
 534:/home/fanxinhao/Work/LiteOS_Lab/iot_link/os/liteos/arch/arm/common/cmsis/cmsis_gcc.h **** 
 535:/home/fanxinhao/Work/LiteOS_Lab/iot_link/os/liteos/arch/arm/common/cmsis/cmsis_gcc.h ****   __ASM volatile ("MRS %0, psplim_ns"  : "=r" (result) );
 536:/home/fanxinhao/Work/LiteOS_Lab/iot_link/os/liteos/arch/arm/common/cmsis/cmsis_gcc.h ****   return(result);
 537:/home/fanxinhao/Work/LiteOS_Lab/iot_link/os/liteos/arch/arm/common/cmsis/cmsis_gcc.h **** }
 538:/home/fanxinhao/Work/LiteOS_Lab/iot_link/os/liteos/arch/arm/common/cmsis/cmsis_gcc.h **** #endif
 539:/home/fanxinhao/Work/LiteOS_Lab/iot_link/os/liteos/arch/arm/common/cmsis/cmsis_gcc.h **** 
 540:/home/fanxinhao/Work/LiteOS_Lab/iot_link/os/liteos/arch/arm/common/cmsis/cmsis_gcc.h **** 
 541:/home/fanxinhao/Work/LiteOS_Lab/iot_link/os/liteos/arch/arm/common/cmsis/cmsis_gcc.h **** /**
 542:/home/fanxinhao/Work/LiteOS_Lab/iot_link/os/liteos/arch/arm/common/cmsis/cmsis_gcc.h ****   \brief   Set Process Stack Pointer Limit
 543:/home/fanxinhao/Work/LiteOS_Lab/iot_link/os/liteos/arch/arm/common/cmsis/cmsis_gcc.h ****   \details Assigns the given value to the Process Stack Pointer Limit (PSPLIM).
 544:/home/fanxinhao/Work/LiteOS_Lab/iot_link/os/liteos/arch/arm/common/cmsis/cmsis_gcc.h ****   \param [in]    ProcStackPtrLimit  Process Stack Pointer Limit value to set
 545:/home/fanxinhao/Work/LiteOS_Lab/iot_link/os/liteos/arch/arm/common/cmsis/cmsis_gcc.h ****  */
 546:/home/fanxinhao/Work/LiteOS_Lab/iot_link/os/liteos/arch/arm/common/cmsis/cmsis_gcc.h **** __attribute__((always_inline)) __STATIC_INLINE void __set_PSPLIM(uint32_t ProcStackPtrLimit)
 547:/home/fanxinhao/Work/LiteOS_Lab/iot_link/os/liteos/arch/arm/common/cmsis/cmsis_gcc.h **** {
 548:/home/fanxinhao/Work/LiteOS_Lab/iot_link/os/liteos/arch/arm/common/cmsis/cmsis_gcc.h ****   __ASM volatile ("MSR psplim, %0" : : "r" (ProcStackPtrLimit));
 549:/home/fanxinhao/Work/LiteOS_Lab/iot_link/os/liteos/arch/arm/common/cmsis/cmsis_gcc.h **** }
 550:/home/fanxinhao/Work/LiteOS_Lab/iot_link/os/liteos/arch/arm/common/cmsis/cmsis_gcc.h **** 
 551:/home/fanxinhao/Work/LiteOS_Lab/iot_link/os/liteos/arch/arm/common/cmsis/cmsis_gcc.h **** 
 552:/home/fanxinhao/Work/LiteOS_Lab/iot_link/os/liteos/arch/arm/common/cmsis/cmsis_gcc.h **** #if ((defined (__ARM_FEATURE_CMSE  ) && (__ARM_FEATURE_CMSE   == 3)) && \
 553:/home/fanxinhao/Work/LiteOS_Lab/iot_link/os/liteos/arch/arm/common/cmsis/cmsis_gcc.h ****      (defined (__ARM_ARCH_8M_MAIN__) && (__ARM_ARCH_8M_MAIN__ == 1))    )
 554:/home/fanxinhao/Work/LiteOS_Lab/iot_link/os/liteos/arch/arm/common/cmsis/cmsis_gcc.h **** /**
 555:/home/fanxinhao/Work/LiteOS_Lab/iot_link/os/liteos/arch/arm/common/cmsis/cmsis_gcc.h ****   \brief   Set Process Stack Pointer (non-secure)
ARM GAS  /tmp/cclpoteW.s 			page 24


 556:/home/fanxinhao/Work/LiteOS_Lab/iot_link/os/liteos/arch/arm/common/cmsis/cmsis_gcc.h ****   \details Assigns the given value to the non-secure Process Stack Pointer Limit (PSPLIM) when in s
 557:/home/fanxinhao/Work/LiteOS_Lab/iot_link/os/liteos/arch/arm/common/cmsis/cmsis_gcc.h ****   \param [in]    ProcStackPtrLimit  Process Stack Pointer Limit value to set
 558:/home/fanxinhao/Work/LiteOS_Lab/iot_link/os/liteos/arch/arm/common/cmsis/cmsis_gcc.h ****  */
 559:/home/fanxinhao/Work/LiteOS_Lab/iot_link/os/liteos/arch/arm/common/cmsis/cmsis_gcc.h **** __attribute__((always_inline)) __STATIC_INLINE void __TZ_set_PSPLIM_NS(uint32_t ProcStackPtrLimit)
 560:/home/fanxinhao/Work/LiteOS_Lab/iot_link/os/liteos/arch/arm/common/cmsis/cmsis_gcc.h **** {
 561:/home/fanxinhao/Work/LiteOS_Lab/iot_link/os/liteos/arch/arm/common/cmsis/cmsis_gcc.h ****   __ASM volatile ("MSR psplim_ns, %0\n" : : "r" (ProcStackPtrLimit));
 562:/home/fanxinhao/Work/LiteOS_Lab/iot_link/os/liteos/arch/arm/common/cmsis/cmsis_gcc.h **** }
 563:/home/fanxinhao/Work/LiteOS_Lab/iot_link/os/liteos/arch/arm/common/cmsis/cmsis_gcc.h **** #endif
 564:/home/fanxinhao/Work/LiteOS_Lab/iot_link/os/liteos/arch/arm/common/cmsis/cmsis_gcc.h **** 
 565:/home/fanxinhao/Work/LiteOS_Lab/iot_link/os/liteos/arch/arm/common/cmsis/cmsis_gcc.h **** 
 566:/home/fanxinhao/Work/LiteOS_Lab/iot_link/os/liteos/arch/arm/common/cmsis/cmsis_gcc.h **** /**
 567:/home/fanxinhao/Work/LiteOS_Lab/iot_link/os/liteos/arch/arm/common/cmsis/cmsis_gcc.h ****   \brief   Get Main Stack Pointer Limit
 568:/home/fanxinhao/Work/LiteOS_Lab/iot_link/os/liteos/arch/arm/common/cmsis/cmsis_gcc.h ****   \details Returns the current value of the Main Stack Pointer Limit (MSPLIM).
 569:/home/fanxinhao/Work/LiteOS_Lab/iot_link/os/liteos/arch/arm/common/cmsis/cmsis_gcc.h ****   \return               MSPLIM Register value
 570:/home/fanxinhao/Work/LiteOS_Lab/iot_link/os/liteos/arch/arm/common/cmsis/cmsis_gcc.h ****  */
 571:/home/fanxinhao/Work/LiteOS_Lab/iot_link/os/liteos/arch/arm/common/cmsis/cmsis_gcc.h **** __attribute__((always_inline)) __STATIC_INLINE uint32_t __get_MSPLIM(void)
 572:/home/fanxinhao/Work/LiteOS_Lab/iot_link/os/liteos/arch/arm/common/cmsis/cmsis_gcc.h **** {
 573:/home/fanxinhao/Work/LiteOS_Lab/iot_link/os/liteos/arch/arm/common/cmsis/cmsis_gcc.h ****   register uint32_t result;
 574:/home/fanxinhao/Work/LiteOS_Lab/iot_link/os/liteos/arch/arm/common/cmsis/cmsis_gcc.h **** 
 575:/home/fanxinhao/Work/LiteOS_Lab/iot_link/os/liteos/arch/arm/common/cmsis/cmsis_gcc.h ****   __ASM volatile ("MRS %0, msplim" : "=r" (result) );
 576:/home/fanxinhao/Work/LiteOS_Lab/iot_link/os/liteos/arch/arm/common/cmsis/cmsis_gcc.h **** 
 577:/home/fanxinhao/Work/LiteOS_Lab/iot_link/os/liteos/arch/arm/common/cmsis/cmsis_gcc.h ****   return(result);
 578:/home/fanxinhao/Work/LiteOS_Lab/iot_link/os/liteos/arch/arm/common/cmsis/cmsis_gcc.h **** }
 579:/home/fanxinhao/Work/LiteOS_Lab/iot_link/os/liteos/arch/arm/common/cmsis/cmsis_gcc.h **** 
 580:/home/fanxinhao/Work/LiteOS_Lab/iot_link/os/liteos/arch/arm/common/cmsis/cmsis_gcc.h **** 
 581:/home/fanxinhao/Work/LiteOS_Lab/iot_link/os/liteos/arch/arm/common/cmsis/cmsis_gcc.h **** #if ((defined (__ARM_FEATURE_CMSE  ) && (__ARM_FEATURE_CMSE   == 3)) && \
 582:/home/fanxinhao/Work/LiteOS_Lab/iot_link/os/liteos/arch/arm/common/cmsis/cmsis_gcc.h ****      (defined (__ARM_ARCH_8M_MAIN__) && (__ARM_ARCH_8M_MAIN__ == 1))    )
 583:/home/fanxinhao/Work/LiteOS_Lab/iot_link/os/liteos/arch/arm/common/cmsis/cmsis_gcc.h **** /**
 584:/home/fanxinhao/Work/LiteOS_Lab/iot_link/os/liteos/arch/arm/common/cmsis/cmsis_gcc.h ****   \brief   Get Main Stack Pointer Limit (non-secure)
 585:/home/fanxinhao/Work/LiteOS_Lab/iot_link/os/liteos/arch/arm/common/cmsis/cmsis_gcc.h ****   \details Returns the current value of the non-secure Main Stack Pointer Limit(MSPLIM) when in sec
 586:/home/fanxinhao/Work/LiteOS_Lab/iot_link/os/liteos/arch/arm/common/cmsis/cmsis_gcc.h ****   \return               MSPLIM Register value
 587:/home/fanxinhao/Work/LiteOS_Lab/iot_link/os/liteos/arch/arm/common/cmsis/cmsis_gcc.h ****  */
 588:/home/fanxinhao/Work/LiteOS_Lab/iot_link/os/liteos/arch/arm/common/cmsis/cmsis_gcc.h **** __attribute__((always_inline)) __STATIC_INLINE uint32_t __TZ_get_MSPLIM_NS(void)
 589:/home/fanxinhao/Work/LiteOS_Lab/iot_link/os/liteos/arch/arm/common/cmsis/cmsis_gcc.h **** {
 590:/home/fanxinhao/Work/LiteOS_Lab/iot_link/os/liteos/arch/arm/common/cmsis/cmsis_gcc.h ****   register uint32_t result;
 591:/home/fanxinhao/Work/LiteOS_Lab/iot_link/os/liteos/arch/arm/common/cmsis/cmsis_gcc.h **** 
 592:/home/fanxinhao/Work/LiteOS_Lab/iot_link/os/liteos/arch/arm/common/cmsis/cmsis_gcc.h ****   __ASM volatile ("MRS %0, msplim_ns" : "=r" (result) );
 593:/home/fanxinhao/Work/LiteOS_Lab/iot_link/os/liteos/arch/arm/common/cmsis/cmsis_gcc.h ****   return(result);
 594:/home/fanxinhao/Work/LiteOS_Lab/iot_link/os/liteos/arch/arm/common/cmsis/cmsis_gcc.h **** }
 595:/home/fanxinhao/Work/LiteOS_Lab/iot_link/os/liteos/arch/arm/common/cmsis/cmsis_gcc.h **** #endif
 596:/home/fanxinhao/Work/LiteOS_Lab/iot_link/os/liteos/arch/arm/common/cmsis/cmsis_gcc.h **** 
 597:/home/fanxinhao/Work/LiteOS_Lab/iot_link/os/liteos/arch/arm/common/cmsis/cmsis_gcc.h **** 
 598:/home/fanxinhao/Work/LiteOS_Lab/iot_link/os/liteos/arch/arm/common/cmsis/cmsis_gcc.h **** /**
 599:/home/fanxinhao/Work/LiteOS_Lab/iot_link/os/liteos/arch/arm/common/cmsis/cmsis_gcc.h ****   \brief   Set Main Stack Pointer Limit
 600:/home/fanxinhao/Work/LiteOS_Lab/iot_link/os/liteos/arch/arm/common/cmsis/cmsis_gcc.h ****   \details Assigns the given value to the Main Stack Pointer Limit (MSPLIM).
 601:/home/fanxinhao/Work/LiteOS_Lab/iot_link/os/liteos/arch/arm/common/cmsis/cmsis_gcc.h ****   \param [in]    MainStackPtrLimit  Main Stack Pointer Limit value to set
 602:/home/fanxinhao/Work/LiteOS_Lab/iot_link/os/liteos/arch/arm/common/cmsis/cmsis_gcc.h ****  */
 603:/home/fanxinhao/Work/LiteOS_Lab/iot_link/os/liteos/arch/arm/common/cmsis/cmsis_gcc.h **** __attribute__((always_inline)) __STATIC_INLINE void __set_MSPLIM(uint32_t MainStackPtrLimit)
 604:/home/fanxinhao/Work/LiteOS_Lab/iot_link/os/liteos/arch/arm/common/cmsis/cmsis_gcc.h **** {
 605:/home/fanxinhao/Work/LiteOS_Lab/iot_link/os/liteos/arch/arm/common/cmsis/cmsis_gcc.h ****   __ASM volatile ("MSR msplim, %0" : : "r" (MainStackPtrLimit));
 606:/home/fanxinhao/Work/LiteOS_Lab/iot_link/os/liteos/arch/arm/common/cmsis/cmsis_gcc.h **** }
 607:/home/fanxinhao/Work/LiteOS_Lab/iot_link/os/liteos/arch/arm/common/cmsis/cmsis_gcc.h **** 
 608:/home/fanxinhao/Work/LiteOS_Lab/iot_link/os/liteos/arch/arm/common/cmsis/cmsis_gcc.h **** 
 609:/home/fanxinhao/Work/LiteOS_Lab/iot_link/os/liteos/arch/arm/common/cmsis/cmsis_gcc.h **** #if ((defined (__ARM_FEATURE_CMSE  ) && (__ARM_FEATURE_CMSE   == 3)) && \
 610:/home/fanxinhao/Work/LiteOS_Lab/iot_link/os/liteos/arch/arm/common/cmsis/cmsis_gcc.h ****      (defined (__ARM_ARCH_8M_MAIN__) && (__ARM_ARCH_8M_MAIN__ == 1))    )
 611:/home/fanxinhao/Work/LiteOS_Lab/iot_link/os/liteos/arch/arm/common/cmsis/cmsis_gcc.h **** /**
 612:/home/fanxinhao/Work/LiteOS_Lab/iot_link/os/liteos/arch/arm/common/cmsis/cmsis_gcc.h ****   \brief   Set Main Stack Pointer Limit (non-secure)
ARM GAS  /tmp/cclpoteW.s 			page 25


 613:/home/fanxinhao/Work/LiteOS_Lab/iot_link/os/liteos/arch/arm/common/cmsis/cmsis_gcc.h ****   \details Assigns the given value to the non-secure Main Stack Pointer Limit (MSPLIM) when in secu
 614:/home/fanxinhao/Work/LiteOS_Lab/iot_link/os/liteos/arch/arm/common/cmsis/cmsis_gcc.h ****   \param [in]    MainStackPtrLimit  Main Stack Pointer value to set
 615:/home/fanxinhao/Work/LiteOS_Lab/iot_link/os/liteos/arch/arm/common/cmsis/cmsis_gcc.h ****  */
 616:/home/fanxinhao/Work/LiteOS_Lab/iot_link/os/liteos/arch/arm/common/cmsis/cmsis_gcc.h **** __attribute__((always_inline)) __STATIC_INLINE void __TZ_set_MSPLIM_NS(uint32_t MainStackPtrLimit)
 617:/home/fanxinhao/Work/LiteOS_Lab/iot_link/os/liteos/arch/arm/common/cmsis/cmsis_gcc.h **** {
 618:/home/fanxinhao/Work/LiteOS_Lab/iot_link/os/liteos/arch/arm/common/cmsis/cmsis_gcc.h ****   __ASM volatile ("MSR msplim_ns, %0" : : "r" (MainStackPtrLimit));
 619:/home/fanxinhao/Work/LiteOS_Lab/iot_link/os/liteos/arch/arm/common/cmsis/cmsis_gcc.h **** }
 620:/home/fanxinhao/Work/LiteOS_Lab/iot_link/os/liteos/arch/arm/common/cmsis/cmsis_gcc.h **** #endif
 621:/home/fanxinhao/Work/LiteOS_Lab/iot_link/os/liteos/arch/arm/common/cmsis/cmsis_gcc.h **** 
 622:/home/fanxinhao/Work/LiteOS_Lab/iot_link/os/liteos/arch/arm/common/cmsis/cmsis_gcc.h **** #endif /* ((defined (__ARM_ARCH_8M_MAIN__ ) && (__ARM_ARCH_8M_MAIN__ == 1)) || \
 623:/home/fanxinhao/Work/LiteOS_Lab/iot_link/os/liteos/arch/arm/common/cmsis/cmsis_gcc.h ****            (defined (__ARM_ARCH_8M_BASE__ ) && (__ARM_ARCH_8M_BASE__ == 1))    ) */
 624:/home/fanxinhao/Work/LiteOS_Lab/iot_link/os/liteos/arch/arm/common/cmsis/cmsis_gcc.h **** 
 625:/home/fanxinhao/Work/LiteOS_Lab/iot_link/os/liteos/arch/arm/common/cmsis/cmsis_gcc.h **** 
 626:/home/fanxinhao/Work/LiteOS_Lab/iot_link/os/liteos/arch/arm/common/cmsis/cmsis_gcc.h **** #if ((defined (__ARM_ARCH_7EM__     ) && (__ARM_ARCH_7EM__     == 1)) || \
 627:/home/fanxinhao/Work/LiteOS_Lab/iot_link/os/liteos/arch/arm/common/cmsis/cmsis_gcc.h ****      (defined (__ARM_ARCH_8M_MAIN__ ) && (__ARM_ARCH_8M_MAIN__ == 1))    )
 628:/home/fanxinhao/Work/LiteOS_Lab/iot_link/os/liteos/arch/arm/common/cmsis/cmsis_gcc.h **** 
 629:/home/fanxinhao/Work/LiteOS_Lab/iot_link/os/liteos/arch/arm/common/cmsis/cmsis_gcc.h **** /**
 630:/home/fanxinhao/Work/LiteOS_Lab/iot_link/os/liteos/arch/arm/common/cmsis/cmsis_gcc.h ****   \brief   Get FPSCR
 631:/home/fanxinhao/Work/LiteOS_Lab/iot_link/os/liteos/arch/arm/common/cmsis/cmsis_gcc.h ****   \details Returns the current value of the Floating Point Status/Control register.
 632:/home/fanxinhao/Work/LiteOS_Lab/iot_link/os/liteos/arch/arm/common/cmsis/cmsis_gcc.h ****   \return               Floating Point Status/Control register value
 633:/home/fanxinhao/Work/LiteOS_Lab/iot_link/os/liteos/arch/arm/common/cmsis/cmsis_gcc.h ****  */
 634:/home/fanxinhao/Work/LiteOS_Lab/iot_link/os/liteos/arch/arm/common/cmsis/cmsis_gcc.h **** __attribute__((always_inline)) __STATIC_INLINE uint32_t __get_FPSCR(void)
 635:/home/fanxinhao/Work/LiteOS_Lab/iot_link/os/liteos/arch/arm/common/cmsis/cmsis_gcc.h **** {
 636:/home/fanxinhao/Work/LiteOS_Lab/iot_link/os/liteos/arch/arm/common/cmsis/cmsis_gcc.h **** #if ((defined (__FPU_PRESENT) && (__FPU_PRESENT == 1U)) && \
 637:/home/fanxinhao/Work/LiteOS_Lab/iot_link/os/liteos/arch/arm/common/cmsis/cmsis_gcc.h ****      (defined (__FPU_USED   ) && (__FPU_USED    == 1U))     )
 638:/home/fanxinhao/Work/LiteOS_Lab/iot_link/os/liteos/arch/arm/common/cmsis/cmsis_gcc.h ****   uint32_t result;
 639:/home/fanxinhao/Work/LiteOS_Lab/iot_link/os/liteos/arch/arm/common/cmsis/cmsis_gcc.h **** 
 640:/home/fanxinhao/Work/LiteOS_Lab/iot_link/os/liteos/arch/arm/common/cmsis/cmsis_gcc.h ****   __ASM volatile ("VMRS %0, fpscr" : "=r" (result) );
 641:/home/fanxinhao/Work/LiteOS_Lab/iot_link/os/liteos/arch/arm/common/cmsis/cmsis_gcc.h ****   return(result);
 642:/home/fanxinhao/Work/LiteOS_Lab/iot_link/os/liteos/arch/arm/common/cmsis/cmsis_gcc.h **** #else
 643:/home/fanxinhao/Work/LiteOS_Lab/iot_link/os/liteos/arch/arm/common/cmsis/cmsis_gcc.h ****    return(0U);
 644:/home/fanxinhao/Work/LiteOS_Lab/iot_link/os/liteos/arch/arm/common/cmsis/cmsis_gcc.h **** #endif
 645:/home/fanxinhao/Work/LiteOS_Lab/iot_link/os/liteos/arch/arm/common/cmsis/cmsis_gcc.h **** }
 646:/home/fanxinhao/Work/LiteOS_Lab/iot_link/os/liteos/arch/arm/common/cmsis/cmsis_gcc.h **** 
 647:/home/fanxinhao/Work/LiteOS_Lab/iot_link/os/liteos/arch/arm/common/cmsis/cmsis_gcc.h **** 
 648:/home/fanxinhao/Work/LiteOS_Lab/iot_link/os/liteos/arch/arm/common/cmsis/cmsis_gcc.h **** /**
 649:/home/fanxinhao/Work/LiteOS_Lab/iot_link/os/liteos/arch/arm/common/cmsis/cmsis_gcc.h ****   \brief   Set FPSCR
 650:/home/fanxinhao/Work/LiteOS_Lab/iot_link/os/liteos/arch/arm/common/cmsis/cmsis_gcc.h ****   \details Assigns the given value to the Floating Point Status/Control register.
 651:/home/fanxinhao/Work/LiteOS_Lab/iot_link/os/liteos/arch/arm/common/cmsis/cmsis_gcc.h ****   \param [in]    fpscr  Floating Point Status/Control value to set
 652:/home/fanxinhao/Work/LiteOS_Lab/iot_link/os/liteos/arch/arm/common/cmsis/cmsis_gcc.h ****  */
 653:/home/fanxinhao/Work/LiteOS_Lab/iot_link/os/liteos/arch/arm/common/cmsis/cmsis_gcc.h **** __attribute__((always_inline)) __STATIC_INLINE void __set_FPSCR(uint32_t fpscr)
 654:/home/fanxinhao/Work/LiteOS_Lab/iot_link/os/liteos/arch/arm/common/cmsis/cmsis_gcc.h **** {
 655:/home/fanxinhao/Work/LiteOS_Lab/iot_link/os/liteos/arch/arm/common/cmsis/cmsis_gcc.h **** #if ((defined (__FPU_PRESENT) && (__FPU_PRESENT == 1U)) && \
 656:/home/fanxinhao/Work/LiteOS_Lab/iot_link/os/liteos/arch/arm/common/cmsis/cmsis_gcc.h ****      (defined (__FPU_USED   ) && (__FPU_USED    == 1U))     )
 657:/home/fanxinhao/Work/LiteOS_Lab/iot_link/os/liteos/arch/arm/common/cmsis/cmsis_gcc.h ****   __ASM volatile ("VMSR fpscr, %0" : : "r" (fpscr) : "vfpcc", "memory");
 658:/home/fanxinhao/Work/LiteOS_Lab/iot_link/os/liteos/arch/arm/common/cmsis/cmsis_gcc.h **** #else
 659:/home/fanxinhao/Work/LiteOS_Lab/iot_link/os/liteos/arch/arm/common/cmsis/cmsis_gcc.h ****   (void)fpscr;
 660:/home/fanxinhao/Work/LiteOS_Lab/iot_link/os/liteos/arch/arm/common/cmsis/cmsis_gcc.h **** #endif
 661:/home/fanxinhao/Work/LiteOS_Lab/iot_link/os/liteos/arch/arm/common/cmsis/cmsis_gcc.h **** }
 662:/home/fanxinhao/Work/LiteOS_Lab/iot_link/os/liteos/arch/arm/common/cmsis/cmsis_gcc.h **** 
 663:/home/fanxinhao/Work/LiteOS_Lab/iot_link/os/liteos/arch/arm/common/cmsis/cmsis_gcc.h **** #endif /* ((defined (__ARM_ARCH_7EM__     ) && (__ARM_ARCH_7EM__     == 1)) || \
 664:/home/fanxinhao/Work/LiteOS_Lab/iot_link/os/liteos/arch/arm/common/cmsis/cmsis_gcc.h ****            (defined (__ARM_ARCH_8M_MAIN__ ) && (__ARM_ARCH_8M_MAIN__ == 1))    ) */
 665:/home/fanxinhao/Work/LiteOS_Lab/iot_link/os/liteos/arch/arm/common/cmsis/cmsis_gcc.h **** 
 666:/home/fanxinhao/Work/LiteOS_Lab/iot_link/os/liteos/arch/arm/common/cmsis/cmsis_gcc.h **** 
 667:/home/fanxinhao/Work/LiteOS_Lab/iot_link/os/liteos/arch/arm/common/cmsis/cmsis_gcc.h **** 
 668:/home/fanxinhao/Work/LiteOS_Lab/iot_link/os/liteos/arch/arm/common/cmsis/cmsis_gcc.h **** /*@} end of CMSIS_Core_RegAccFunctions */
 669:/home/fanxinhao/Work/LiteOS_Lab/iot_link/os/liteos/arch/arm/common/cmsis/cmsis_gcc.h **** 
ARM GAS  /tmp/cclpoteW.s 			page 26


 670:/home/fanxinhao/Work/LiteOS_Lab/iot_link/os/liteos/arch/arm/common/cmsis/cmsis_gcc.h **** 
 671:/home/fanxinhao/Work/LiteOS_Lab/iot_link/os/liteos/arch/arm/common/cmsis/cmsis_gcc.h **** /* ##########################  Core Instruction Access  ######################### */
 672:/home/fanxinhao/Work/LiteOS_Lab/iot_link/os/liteos/arch/arm/common/cmsis/cmsis_gcc.h **** /** \defgroup CMSIS_Core_InstructionInterface CMSIS Core Instruction Interface
 673:/home/fanxinhao/Work/LiteOS_Lab/iot_link/os/liteos/arch/arm/common/cmsis/cmsis_gcc.h ****   Access to dedicated instructions
 674:/home/fanxinhao/Work/LiteOS_Lab/iot_link/os/liteos/arch/arm/common/cmsis/cmsis_gcc.h ****   @{
 675:/home/fanxinhao/Work/LiteOS_Lab/iot_link/os/liteos/arch/arm/common/cmsis/cmsis_gcc.h **** */
 676:/home/fanxinhao/Work/LiteOS_Lab/iot_link/os/liteos/arch/arm/common/cmsis/cmsis_gcc.h **** 
 677:/home/fanxinhao/Work/LiteOS_Lab/iot_link/os/liteos/arch/arm/common/cmsis/cmsis_gcc.h **** /* Define macros for porting to both thumb1 and thumb2.
 678:/home/fanxinhao/Work/LiteOS_Lab/iot_link/os/liteos/arch/arm/common/cmsis/cmsis_gcc.h ****  * For thumb1, use low register (r0-r7), specified by constraint "l"
 679:/home/fanxinhao/Work/LiteOS_Lab/iot_link/os/liteos/arch/arm/common/cmsis/cmsis_gcc.h ****  * Otherwise, use general registers, specified by constraint "r" */
 680:/home/fanxinhao/Work/LiteOS_Lab/iot_link/os/liteos/arch/arm/common/cmsis/cmsis_gcc.h **** #if defined (__thumb__) && !defined (__thumb2__)
 681:/home/fanxinhao/Work/LiteOS_Lab/iot_link/os/liteos/arch/arm/common/cmsis/cmsis_gcc.h **** #define __CMSIS_GCC_OUT_REG(r) "=l" (r)
 682:/home/fanxinhao/Work/LiteOS_Lab/iot_link/os/liteos/arch/arm/common/cmsis/cmsis_gcc.h **** #define __CMSIS_GCC_RW_REG(r) "+l" (r)
 683:/home/fanxinhao/Work/LiteOS_Lab/iot_link/os/liteos/arch/arm/common/cmsis/cmsis_gcc.h **** #define __CMSIS_GCC_USE_REG(r) "l" (r)
 684:/home/fanxinhao/Work/LiteOS_Lab/iot_link/os/liteos/arch/arm/common/cmsis/cmsis_gcc.h **** #else
 685:/home/fanxinhao/Work/LiteOS_Lab/iot_link/os/liteos/arch/arm/common/cmsis/cmsis_gcc.h **** #define __CMSIS_GCC_OUT_REG(r) "=r" (r)
 686:/home/fanxinhao/Work/LiteOS_Lab/iot_link/os/liteos/arch/arm/common/cmsis/cmsis_gcc.h **** #define __CMSIS_GCC_RW_REG(r) "+r" (r)
 687:/home/fanxinhao/Work/LiteOS_Lab/iot_link/os/liteos/arch/arm/common/cmsis/cmsis_gcc.h **** #define __CMSIS_GCC_USE_REG(r) "r" (r)
 688:/home/fanxinhao/Work/LiteOS_Lab/iot_link/os/liteos/arch/arm/common/cmsis/cmsis_gcc.h **** #endif
 689:/home/fanxinhao/Work/LiteOS_Lab/iot_link/os/liteos/arch/arm/common/cmsis/cmsis_gcc.h **** 
 690:/home/fanxinhao/Work/LiteOS_Lab/iot_link/os/liteos/arch/arm/common/cmsis/cmsis_gcc.h **** /**
 691:/home/fanxinhao/Work/LiteOS_Lab/iot_link/os/liteos/arch/arm/common/cmsis/cmsis_gcc.h ****   \brief   No Operation
 692:/home/fanxinhao/Work/LiteOS_Lab/iot_link/os/liteos/arch/arm/common/cmsis/cmsis_gcc.h ****   \details No Operation does nothing. This instruction can be used for code alignment purposes.
 693:/home/fanxinhao/Work/LiteOS_Lab/iot_link/os/liteos/arch/arm/common/cmsis/cmsis_gcc.h ****  */
 694:/home/fanxinhao/Work/LiteOS_Lab/iot_link/os/liteos/arch/arm/common/cmsis/cmsis_gcc.h **** //__attribute__((always_inline)) __STATIC_INLINE void __NOP(void)
 695:/home/fanxinhao/Work/LiteOS_Lab/iot_link/os/liteos/arch/arm/common/cmsis/cmsis_gcc.h **** //{
 696:/home/fanxinhao/Work/LiteOS_Lab/iot_link/os/liteos/arch/arm/common/cmsis/cmsis_gcc.h **** //  __ASM volatile ("nop");
 697:/home/fanxinhao/Work/LiteOS_Lab/iot_link/os/liteos/arch/arm/common/cmsis/cmsis_gcc.h **** //}
 698:/home/fanxinhao/Work/LiteOS_Lab/iot_link/os/liteos/arch/arm/common/cmsis/cmsis_gcc.h **** #define __NOP()                             __ASM volatile ("nop")       /* This implementation gen
 699:/home/fanxinhao/Work/LiteOS_Lab/iot_link/os/liteos/arch/arm/common/cmsis/cmsis_gcc.h **** 
 700:/home/fanxinhao/Work/LiteOS_Lab/iot_link/os/liteos/arch/arm/common/cmsis/cmsis_gcc.h **** /**
 701:/home/fanxinhao/Work/LiteOS_Lab/iot_link/os/liteos/arch/arm/common/cmsis/cmsis_gcc.h ****   \brief   Wait For Interrupt
 702:/home/fanxinhao/Work/LiteOS_Lab/iot_link/os/liteos/arch/arm/common/cmsis/cmsis_gcc.h ****   \details Wait For Interrupt is a hint instruction that suspends execution until one of a number o
 703:/home/fanxinhao/Work/LiteOS_Lab/iot_link/os/liteos/arch/arm/common/cmsis/cmsis_gcc.h ****  */
 704:/home/fanxinhao/Work/LiteOS_Lab/iot_link/os/liteos/arch/arm/common/cmsis/cmsis_gcc.h **** //__attribute__((always_inline)) __STATIC_INLINE void __WFI(void)
 705:/home/fanxinhao/Work/LiteOS_Lab/iot_link/os/liteos/arch/arm/common/cmsis/cmsis_gcc.h **** //{
 706:/home/fanxinhao/Work/LiteOS_Lab/iot_link/os/liteos/arch/arm/common/cmsis/cmsis_gcc.h **** //  __ASM volatile ("wfi");
 707:/home/fanxinhao/Work/LiteOS_Lab/iot_link/os/liteos/arch/arm/common/cmsis/cmsis_gcc.h **** //}
 708:/home/fanxinhao/Work/LiteOS_Lab/iot_link/os/liteos/arch/arm/common/cmsis/cmsis_gcc.h **** #define __WFI()                             __ASM volatile ("wfi")       /* This implementation gen
 709:/home/fanxinhao/Work/LiteOS_Lab/iot_link/os/liteos/arch/arm/common/cmsis/cmsis_gcc.h **** 
 710:/home/fanxinhao/Work/LiteOS_Lab/iot_link/os/liteos/arch/arm/common/cmsis/cmsis_gcc.h **** 
 711:/home/fanxinhao/Work/LiteOS_Lab/iot_link/os/liteos/arch/arm/common/cmsis/cmsis_gcc.h **** /**
 712:/home/fanxinhao/Work/LiteOS_Lab/iot_link/os/liteos/arch/arm/common/cmsis/cmsis_gcc.h ****   \brief   Wait For Event
 713:/home/fanxinhao/Work/LiteOS_Lab/iot_link/os/liteos/arch/arm/common/cmsis/cmsis_gcc.h ****   \details Wait For Event is a hint instruction that permits the processor to enter
 714:/home/fanxinhao/Work/LiteOS_Lab/iot_link/os/liteos/arch/arm/common/cmsis/cmsis_gcc.h ****            a low-power state until one of a number of events occurs.
 715:/home/fanxinhao/Work/LiteOS_Lab/iot_link/os/liteos/arch/arm/common/cmsis/cmsis_gcc.h ****  */
 716:/home/fanxinhao/Work/LiteOS_Lab/iot_link/os/liteos/arch/arm/common/cmsis/cmsis_gcc.h **** //__attribute__((always_inline)) __STATIC_INLINE void __WFE(void)
 717:/home/fanxinhao/Work/LiteOS_Lab/iot_link/os/liteos/arch/arm/common/cmsis/cmsis_gcc.h **** //{
 718:/home/fanxinhao/Work/LiteOS_Lab/iot_link/os/liteos/arch/arm/common/cmsis/cmsis_gcc.h **** //  __ASM volatile ("wfe");
 719:/home/fanxinhao/Work/LiteOS_Lab/iot_link/os/liteos/arch/arm/common/cmsis/cmsis_gcc.h **** //}
 720:/home/fanxinhao/Work/LiteOS_Lab/iot_link/os/liteos/arch/arm/common/cmsis/cmsis_gcc.h **** #define __WFE()                             __ASM volatile ("wfe")       /* This implementation gen
 721:/home/fanxinhao/Work/LiteOS_Lab/iot_link/os/liteos/arch/arm/common/cmsis/cmsis_gcc.h **** 
 722:/home/fanxinhao/Work/LiteOS_Lab/iot_link/os/liteos/arch/arm/common/cmsis/cmsis_gcc.h **** 
 723:/home/fanxinhao/Work/LiteOS_Lab/iot_link/os/liteos/arch/arm/common/cmsis/cmsis_gcc.h **** /**
 724:/home/fanxinhao/Work/LiteOS_Lab/iot_link/os/liteos/arch/arm/common/cmsis/cmsis_gcc.h ****   \brief   Send Event
 725:/home/fanxinhao/Work/LiteOS_Lab/iot_link/os/liteos/arch/arm/common/cmsis/cmsis_gcc.h ****   \details Send Event is a hint instruction. It causes an event to be signaled to the CPU.
 726:/home/fanxinhao/Work/LiteOS_Lab/iot_link/os/liteos/arch/arm/common/cmsis/cmsis_gcc.h ****  */
ARM GAS  /tmp/cclpoteW.s 			page 27


 727:/home/fanxinhao/Work/LiteOS_Lab/iot_link/os/liteos/arch/arm/common/cmsis/cmsis_gcc.h **** //__attribute__((always_inline)) __STATIC_INLINE void __SEV(void)
 728:/home/fanxinhao/Work/LiteOS_Lab/iot_link/os/liteos/arch/arm/common/cmsis/cmsis_gcc.h **** //{
 729:/home/fanxinhao/Work/LiteOS_Lab/iot_link/os/liteos/arch/arm/common/cmsis/cmsis_gcc.h **** //  __ASM volatile ("sev");
 730:/home/fanxinhao/Work/LiteOS_Lab/iot_link/os/liteos/arch/arm/common/cmsis/cmsis_gcc.h **** //}
 731:/home/fanxinhao/Work/LiteOS_Lab/iot_link/os/liteos/arch/arm/common/cmsis/cmsis_gcc.h **** #define __SEV()                             __ASM volatile ("sev")       /* This implementation gen
 732:/home/fanxinhao/Work/LiteOS_Lab/iot_link/os/liteos/arch/arm/common/cmsis/cmsis_gcc.h **** 
 733:/home/fanxinhao/Work/LiteOS_Lab/iot_link/os/liteos/arch/arm/common/cmsis/cmsis_gcc.h **** 
 734:/home/fanxinhao/Work/LiteOS_Lab/iot_link/os/liteos/arch/arm/common/cmsis/cmsis_gcc.h **** /**
 735:/home/fanxinhao/Work/LiteOS_Lab/iot_link/os/liteos/arch/arm/common/cmsis/cmsis_gcc.h ****   \brief   Instruction Synchronization Barrier
 736:/home/fanxinhao/Work/LiteOS_Lab/iot_link/os/liteos/arch/arm/common/cmsis/cmsis_gcc.h ****   \details Instruction Synchronization Barrier flushes the pipeline in the processor,
 737:/home/fanxinhao/Work/LiteOS_Lab/iot_link/os/liteos/arch/arm/common/cmsis/cmsis_gcc.h ****            so that all instructions following the ISB are fetched from cache or memory,
 738:/home/fanxinhao/Work/LiteOS_Lab/iot_link/os/liteos/arch/arm/common/cmsis/cmsis_gcc.h ****            after the instruction has been completed.
 739:/home/fanxinhao/Work/LiteOS_Lab/iot_link/os/liteos/arch/arm/common/cmsis/cmsis_gcc.h ****  */
 740:/home/fanxinhao/Work/LiteOS_Lab/iot_link/os/liteos/arch/arm/common/cmsis/cmsis_gcc.h **** __attribute__((always_inline)) __STATIC_INLINE void __ISB(void)
 741:/home/fanxinhao/Work/LiteOS_Lab/iot_link/os/liteos/arch/arm/common/cmsis/cmsis_gcc.h **** {
 742:/home/fanxinhao/Work/LiteOS_Lab/iot_link/os/liteos/arch/arm/common/cmsis/cmsis_gcc.h ****   __ASM volatile ("isb 0xF":::"memory");
 743:/home/fanxinhao/Work/LiteOS_Lab/iot_link/os/liteos/arch/arm/common/cmsis/cmsis_gcc.h **** }
 744:/home/fanxinhao/Work/LiteOS_Lab/iot_link/os/liteos/arch/arm/common/cmsis/cmsis_gcc.h **** 
 745:/home/fanxinhao/Work/LiteOS_Lab/iot_link/os/liteos/arch/arm/common/cmsis/cmsis_gcc.h **** 
 746:/home/fanxinhao/Work/LiteOS_Lab/iot_link/os/liteos/arch/arm/common/cmsis/cmsis_gcc.h **** /**
 747:/home/fanxinhao/Work/LiteOS_Lab/iot_link/os/liteos/arch/arm/common/cmsis/cmsis_gcc.h ****   \brief   Data Synchronization Barrier
 748:/home/fanxinhao/Work/LiteOS_Lab/iot_link/os/liteos/arch/arm/common/cmsis/cmsis_gcc.h ****   \details Acts as a special kind of Data Memory Barrier.
 749:/home/fanxinhao/Work/LiteOS_Lab/iot_link/os/liteos/arch/arm/common/cmsis/cmsis_gcc.h ****            It completes when all explicit memory accesses before this instruction complete.
 750:/home/fanxinhao/Work/LiteOS_Lab/iot_link/os/liteos/arch/arm/common/cmsis/cmsis_gcc.h ****  */
 751:/home/fanxinhao/Work/LiteOS_Lab/iot_link/os/liteos/arch/arm/common/cmsis/cmsis_gcc.h **** __attribute__((always_inline)) __STATIC_INLINE void __DSB(void)
 752:/home/fanxinhao/Work/LiteOS_Lab/iot_link/os/liteos/arch/arm/common/cmsis/cmsis_gcc.h **** {
 753:/home/fanxinhao/Work/LiteOS_Lab/iot_link/os/liteos/arch/arm/common/cmsis/cmsis_gcc.h ****   __ASM volatile ("dsb 0xF":::"memory");
 419              		.loc 2 753 3
 420              		.syntax unified
 421              	@ 753 "/home/fanxinhao/Work/LiteOS_Lab/iot_link/os/liteos/arch/arm/common/cmsis/cmsis_gcc.h" 1
 422 0004 BFF34F8F 		dsb 0xF
 423              	@ 0 "" 2
 754:/home/fanxinhao/Work/LiteOS_Lab/iot_link/os/liteos/arch/arm/common/cmsis/cmsis_gcc.h **** }
 424              		.loc 2 754 1
 425              		.thumb
 426              		.syntax unified
 427 0008 00BF     		nop
 428              	.LBE11:
 429              	.LBE10:
 350:/home/fanxinhao/Work/LiteOS_Lab/iot_link/os/liteos/arch/arm/arm-m/src/los_hw.c ****     __DSB();
 351:/home/fanxinhao/Work/LiteOS_Lab/iot_link/os/liteos/arch/arm/arm-m/src/los_hw.c ****     __WFI();
 430              		.loc 1 351 5
 431              		.syntax unified
 432              	@ 351 "/home/fanxinhao/Work/LiteOS_Lab/iot_link/os/liteos/arch/arm/arm-m/src/los_hw.c" 1
 433 000a 30BF     		wfi
 434              	@ 0 "" 2
 435              		.thumb
 436              		.syntax unified
 437              	.LBB12:
 438              	.LBB13:
 742:/home/fanxinhao/Work/LiteOS_Lab/iot_link/os/liteos/arch/arm/common/cmsis/cmsis_gcc.h **** }
 439              		.loc 2 742 3
 440              		.syntax unified
 441              	@ 742 "/home/fanxinhao/Work/LiteOS_Lab/iot_link/os/liteos/arch/arm/common/cmsis/cmsis_gcc.h" 1
 442 000c BFF36F8F 		isb 0xF
 443              	@ 0 "" 2
 743:/home/fanxinhao/Work/LiteOS_Lab/iot_link/os/liteos/arch/arm/common/cmsis/cmsis_gcc.h **** 
ARM GAS  /tmp/cclpoteW.s 			page 28


 444              		.loc 2 743 1
 445              		.thumb
 446              		.syntax unified
 447 0010 00BF     		nop
 448              	.LBE13:
 449              	.LBE12:
 352:/home/fanxinhao/Work/LiteOS_Lab/iot_link/os/liteos/arch/arm/arm-m/src/los_hw.c ****     __ISB();
 353:/home/fanxinhao/Work/LiteOS_Lab/iot_link/os/liteos/arch/arm/arm-m/src/los_hw.c **** }
 450              		.loc 1 353 1
 451 0012 00BF     		nop
 452 0014 BD46     		mov	sp, r7
 453              	.LCFI21:
 454              		.cfi_def_cfa_register 13
 455              		@ sp needed
 456 0016 5DF8047B 		ldr	r7, [sp], #4
 457              	.LCFI22:
 458              		.cfi_restore 7
 459              		.cfi_def_cfa_offset 0
 460 001a 7047     		bx	lr
 461              		.cfi_endproc
 462              	.LFE138:
 464              		.text
 465              	.Letext0:
 466              		.file 3 "/home/fanxinhao/toolchain/gcc-arm-none-eabi-9-2019-q4-major/arm-none-eabi/include/machine
 467              		.file 4 "/home/fanxinhao/toolchain/gcc-arm-none-eabi-9-2019-q4-major/arm-none-eabi/include/sys/loc
 468              		.file 5 "/home/fanxinhao/toolchain/gcc-arm-none-eabi-9-2019-q4-major/arm-none-eabi/include/sys/_ty
 469              		.file 6 "/home/fanxinhao/toolchain/gcc-arm-none-eabi-9-2019-q4-major/lib/gcc/arm-none-eabi/9.2.1/i
 470              		.file 7 "/home/fanxinhao/toolchain/gcc-arm-none-eabi-9-2019-q4-major/arm-none-eabi/include/sys/ree
 471              		.file 8 "/home/fanxinhao/Work/LiteOS_Lab/iot_link/os/liteos/include/los_typedef.h"
 472              		.file 9 "/home/fanxinhao/toolchain/gcc-arm-none-eabi-9-2019-q4-major/arm-none-eabi/include/sys/_st
 473              		.file 10 "/home/fanxinhao/Work/LiteOS_Lab/iot_link/os/liteos/arch/arm/common/cmsis/core_cm4.h"
 474              		.file 11 "/home/fanxinhao/Work/LiteOS_Lab/targets/STM32L476RG_NB476/Inc/system_stm32l4xx.h"
 475              		.file 12 "/home/fanxinhao/Work/LiteOS_Lab/iot_link/os/liteos/include/los_config.h"
 476              		.file 13 "/home/fanxinhao/Work/LiteOS_Lab/iot_link/os/liteos/include/los_list.h"
 477              		.file 14 "/home/fanxinhao/Work/LiteOS_Lab/iot_link/os/liteos/include/los_err.h"
 478              		.file 15 "/home/fanxinhao/Work/LiteOS_Lab/iot_link/os/liteos/arch/arm/arm-m/include/los_hwi.h"
 479              		.file 16 "/home/fanxinhao/Work/LiteOS_Lab/iot_link/os/liteos/include/los_tick.h"
 480              		.file 17 "/home/fanxinhao/Work/LiteOS_Lab/iot_link/os/liteos/include/los_event.h"
 481              		.file 18 "/home/fanxinhao/Work/LiteOS_Lab/iot_link/os/liteos/include/los_task.h"
 482              		.file 19 "/home/fanxinhao/Work/LiteOS_Lab/iot_link/os/liteos/base/include/los_task.ph"
 483              		.file 20 "/home/fanxinhao/Work/LiteOS_Lab/iot_link/os/liteos/arch/arm/arm-m/include/los_hw.h"
 484              		.file 21 "/home/fanxinhao/Work/LiteOS_Lab/iot_link/os/liteos/include/los_memory.h"
ARM GAS  /tmp/cclpoteW.s 			page 29

