GAS LISTING /tmp/ccHSWKEC.s 			page 1


   1              		.file	"dtls_interface.c"
   2              		.text
   3              	.Ltext0:
   4              		.section	.rodata
   5              	.LC0:
   6 0000 73736C5F 		.string	"ssl_client"
   6      636C6965 
   6      6E7400
   7 000b 00000000 		.align 8
   7      00
   8              	.LC1:
   9 0010 5B25735D 		.string	"[%s][%u][%s] mbedtls_ctr_drbg_seed failed: -0x%x\r\n"
   9      5B25755D 
   9      5B25735D 
   9      206D6265 
   9      64746C73 
  10 0043 00000000 		.align 8
  10      00
  11              	.LC2:
  12 0048 5B25735D 		.string	"[%s][%u][%s] setting up the SSL structure\r\n"
  12      5B25755D 
  12      5B25735D 
  12      20736574 
  12      74696E67 
  13 0074 00000000 		.align 8
  14              	.LC3:
  15 0078 5B25735D 		.string	"[%s][%u][%s] mbedtls_x509_crt_parse failed -0x%x\r\n"
  15      5B25755D 
  15      5B25735D 
  15      206D6265 
  15      64746C73 
  16 00ab 00000000 		.align 8
  16      00
  17              	.LC4:
  18 00b0 5B25735D 		.string	"[%s][%u][%s] mbedtls_ssl_setup failed: -0x%x\r\n"
  18      5B25755D 
  18      5B25735D 
  18      206D6265 
  18      64746C73 
  19 00df 00       		.align 8
  20              	.LC5:
  21 00e0 5B25735D 		.string	"[%s][%u][%s] set SSL structure succeed\r\n"
  21      5B25755D 
  21      5B25735D 
  21      20736574 
  21      2053534C 
  22              		.section	.text.dtls_ssl_new,"ax",@progbits
  23              		.globl	dtls_ssl_new
  25              	dtls_ssl_new:
  26              	.LFB27:
  27              		.file 1 "/home/xingli/share/LiteOS_Lab/network/dtls/mbedtls/mbedtls_port/dtls_interface.c"
   1:/home/xingli/share/LiteOS_Lab/network/dtls/mbedtls/mbedtls_port/dtls_interface.c **** /* ----------------------------------------------------------------------------
   2:/home/xingli/share/LiteOS_Lab/network/dtls/mbedtls/mbedtls_port/dtls_interface.c ****  * Copyright (c) <2016-2018>, <Huawei Technologies Co., Ltd>
   3:/home/xingli/share/LiteOS_Lab/network/dtls/mbedtls/mbedtls_port/dtls_interface.c ****  * All rights reserved.
   4:/home/xingli/share/LiteOS_Lab/network/dtls/mbedtls/mbedtls_port/dtls_interface.c ****  * Redistribution and use in source and binary forms, with or without modification,
   5:/home/xingli/share/LiteOS_Lab/network/dtls/mbedtls/mbedtls_port/dtls_interface.c ****  * are permitted provided that the following conditions are met:
   6:/home/xingli/share/LiteOS_Lab/network/dtls/mbedtls/mbedtls_port/dtls_interface.c ****  * 1. Redistributions of source code must retain the above copyright notice, this list of
GAS LISTING /tmp/ccHSWKEC.s 			page 2


   7:/home/xingli/share/LiteOS_Lab/network/dtls/mbedtls/mbedtls_port/dtls_interface.c ****  * conditions and the following disclaimer.
   8:/home/xingli/share/LiteOS_Lab/network/dtls/mbedtls/mbedtls_port/dtls_interface.c ****  * 2. Redistributions in binary form must reproduce the above copyright notice, this list
   9:/home/xingli/share/LiteOS_Lab/network/dtls/mbedtls/mbedtls_port/dtls_interface.c ****  * of conditions and the following disclaimer in the documentation and/or other materials
  10:/home/xingli/share/LiteOS_Lab/network/dtls/mbedtls/mbedtls_port/dtls_interface.c ****  * provided with the distribution.
  11:/home/xingli/share/LiteOS_Lab/network/dtls/mbedtls/mbedtls_port/dtls_interface.c ****  * 3. Neither the name of the copyright holder nor the names of its contributors may be used
  12:/home/xingli/share/LiteOS_Lab/network/dtls/mbedtls/mbedtls_port/dtls_interface.c ****  * to endorse or promote products derived from this software without specific prior written
  13:/home/xingli/share/LiteOS_Lab/network/dtls/mbedtls/mbedtls_port/dtls_interface.c ****  * permission.
  14:/home/xingli/share/LiteOS_Lab/network/dtls/mbedtls/mbedtls_port/dtls_interface.c ****  * THIS SOFTWARE IS PROVIDED BY THE COPYRIGHT HOLDERS AND CONTRIBUTORS
  15:/home/xingli/share/LiteOS_Lab/network/dtls/mbedtls/mbedtls_port/dtls_interface.c ****  * "AS IS" AND ANY EXPRESS OR IMPLIED WARRANTIES, INCLUDING, BUT NOT LIMITED TO,
  16:/home/xingli/share/LiteOS_Lab/network/dtls/mbedtls/mbedtls_port/dtls_interface.c ****  * THE IMPLIED WARRANTIES OF MERCHANTABILITY AND FITNESS FOR A PARTICULAR
  17:/home/xingli/share/LiteOS_Lab/network/dtls/mbedtls/mbedtls_port/dtls_interface.c ****  * PURPOSE ARE DISCLAIMED. IN NO EVENT SHALL THE COPYRIGHT HOLDER OR
  18:/home/xingli/share/LiteOS_Lab/network/dtls/mbedtls/mbedtls_port/dtls_interface.c ****  * CONTRIBUTORS BE LIABLE FOR ANY DIRECT, INDIRECT, INCIDENTAL, SPECIAL,
  19:/home/xingli/share/LiteOS_Lab/network/dtls/mbedtls/mbedtls_port/dtls_interface.c ****  * EXEMPLARY, OR CONSEQUENTIAL DAMAGES (INCLUDING, BUT NOT LIMITED TO,
  20:/home/xingli/share/LiteOS_Lab/network/dtls/mbedtls/mbedtls_port/dtls_interface.c ****  * PROCUREMENT OF SUBSTITUTE GOODS OR SERVICES; LOSS OF USE, DATA, OR PROFITS;
  21:/home/xingli/share/LiteOS_Lab/network/dtls/mbedtls/mbedtls_port/dtls_interface.c ****  * OR BUSINESS INTERRUPTION) HOWEVER CAUSED AND ON ANY THEORY OF LIABILITY,
  22:/home/xingli/share/LiteOS_Lab/network/dtls/mbedtls/mbedtls_port/dtls_interface.c ****  * WHETHER IN CONTRACT, STRICT LIABILITY, OR TORT (INCLUDING NEGLIGENCE OR
  23:/home/xingli/share/LiteOS_Lab/network/dtls/mbedtls/mbedtls_port/dtls_interface.c ****  * OTHERWISE) ARISING IN ANY WAY OUT OF THE USE OF THIS SOFTWARE, EVEN IF
  24:/home/xingli/share/LiteOS_Lab/network/dtls/mbedtls/mbedtls_port/dtls_interface.c ****  * ADVISED OF THE POSSIBILITY OF SUCH DAMAGE.
  25:/home/xingli/share/LiteOS_Lab/network/dtls/mbedtls/mbedtls_port/dtls_interface.c ****  * --------------------------------------------------------------------------- */
  26:/home/xingli/share/LiteOS_Lab/network/dtls/mbedtls/mbedtls_port/dtls_interface.c **** /* ----------------------------------------------------------------------------
  27:/home/xingli/share/LiteOS_Lab/network/dtls/mbedtls/mbedtls_port/dtls_interface.c ****  * Notice of Export Control Law
  28:/home/xingli/share/LiteOS_Lab/network/dtls/mbedtls/mbedtls_port/dtls_interface.c ****  * ===============================================
  29:/home/xingli/share/LiteOS_Lab/network/dtls/mbedtls/mbedtls_port/dtls_interface.c ****  * Huawei LiteOS may be subject to applicable export control laws and regulations, which might
  30:/home/xingli/share/LiteOS_Lab/network/dtls/mbedtls/mbedtls_port/dtls_interface.c ****  * include those applicable to Huawei LiteOS of U.S. and the country in which you are located.
  31:/home/xingli/share/LiteOS_Lab/network/dtls/mbedtls/mbedtls_port/dtls_interface.c ****  * Import, export and usage of Huawei LiteOS in any manner by you shall be in compliance with such
  32:/home/xingli/share/LiteOS_Lab/network/dtls/mbedtls/mbedtls_port/dtls_interface.c ****  * applicable export control laws and regulations.
  33:/home/xingli/share/LiteOS_Lab/network/dtls/mbedtls/mbedtls_port/dtls_interface.c ****  * --------------------------------------------------------------------------- */
  34:/home/xingli/share/LiteOS_Lab/network/dtls/mbedtls/mbedtls_port/dtls_interface.c **** 
  35:/home/xingli/share/LiteOS_Lab/network/dtls/mbedtls/mbedtls_port/dtls_interface.c **** /*
  36:/home/xingli/share/LiteOS_Lab/network/dtls/mbedtls/mbedtls_port/dtls_interface.c ****  * Simple DTLS client demonstration program
  37:/home/xingli/share/LiteOS_Lab/network/dtls/mbedtls/mbedtls_port/dtls_interface.c ****  *
  38:/home/xingli/share/LiteOS_Lab/network/dtls/mbedtls/mbedtls_port/dtls_interface.c ****  * Copyright (C) 2006-2015, ARM Limited, All Rights Reserved
  39:/home/xingli/share/LiteOS_Lab/network/dtls/mbedtls/mbedtls_port/dtls_interface.c ****  * SPDX-License-Identifier: Apache-2.0
  40:/home/xingli/share/LiteOS_Lab/network/dtls/mbedtls/mbedtls_port/dtls_interface.c ****  *
  41:/home/xingli/share/LiteOS_Lab/network/dtls/mbedtls/mbedtls_port/dtls_interface.c ****  * Licensed under the Apache License, Version 2.0 (the "License"); you may
  42:/home/xingli/share/LiteOS_Lab/network/dtls/mbedtls/mbedtls_port/dtls_interface.c ****  * not use this file except in compliance with the License.
  43:/home/xingli/share/LiteOS_Lab/network/dtls/mbedtls/mbedtls_port/dtls_interface.c ****  * You may obtain a copy of the License at
  44:/home/xingli/share/LiteOS_Lab/network/dtls/mbedtls/mbedtls_port/dtls_interface.c ****  *
  45:/home/xingli/share/LiteOS_Lab/network/dtls/mbedtls/mbedtls_port/dtls_interface.c ****  * http://www.apache.org/licenses/LICENSE-2.0
  46:/home/xingli/share/LiteOS_Lab/network/dtls/mbedtls/mbedtls_port/dtls_interface.c ****  *
  47:/home/xingli/share/LiteOS_Lab/network/dtls/mbedtls/mbedtls_port/dtls_interface.c ****  * Unless required by applicable law or agreed to in writing, software
  48:/home/xingli/share/LiteOS_Lab/network/dtls/mbedtls/mbedtls_port/dtls_interface.c ****  * distributed under the License is distributed on an "AS IS" BASIS, WITHOUT
  49:/home/xingli/share/LiteOS_Lab/network/dtls/mbedtls/mbedtls_port/dtls_interface.c ****  * WARRANTIES OR CONDITIONS OF ANY KIND, either express or implied.
  50:/home/xingli/share/LiteOS_Lab/network/dtls/mbedtls/mbedtls_port/dtls_interface.c ****  * See the License for the specific language governing permissions and
  51:/home/xingli/share/LiteOS_Lab/network/dtls/mbedtls/mbedtls_port/dtls_interface.c ****  * limitations under the License.
  52:/home/xingli/share/LiteOS_Lab/network/dtls/mbedtls/mbedtls_port/dtls_interface.c ****  *
  53:/home/xingli/share/LiteOS_Lab/network/dtls/mbedtls/mbedtls_port/dtls_interface.c ****  * This file is part of mbed TLS (https://tls.mbed.org)
  54:/home/xingli/share/LiteOS_Lab/network/dtls/mbedtls/mbedtls_port/dtls_interface.c ****  */
  55:/home/xingli/share/LiteOS_Lab/network/dtls/mbedtls/mbedtls_port/dtls_interface.c **** #include <string.h>
  56:/home/xingli/share/LiteOS_Lab/network/dtls/mbedtls/mbedtls_port/dtls_interface.c **** #include "dtls_interface.h"
  57:/home/xingli/share/LiteOS_Lab/network/dtls/mbedtls/mbedtls_port/dtls_interface.c **** #include "mbedtls/net_sockets.h"
  58:/home/xingli/share/LiteOS_Lab/network/dtls/mbedtls/mbedtls_port/dtls_interface.c **** #include "mbedtls/ssl_internal.h"
  59:/home/xingli/share/LiteOS_Lab/network/dtls/mbedtls/mbedtls_port/dtls_interface.c **** #include "sal.h"
  60:/home/xingli/share/LiteOS_Lab/network/dtls/mbedtls/mbedtls_port/dtls_interface.c **** #include "osal.h"
  61:/home/xingli/share/LiteOS_Lab/network/dtls/mbedtls/mbedtls_port/dtls_interface.c **** 
  62:/home/xingli/share/LiteOS_Lab/network/dtls/mbedtls/mbedtls_port/dtls_interface.c **** #define MBEDTLS_LOG LINK_LOG_DEBUG
  63:/home/xingli/share/LiteOS_Lab/network/dtls/mbedtls/mbedtls_port/dtls_interface.c **** 
GAS LISTING /tmp/ccHSWKEC.s 			page 3


  64:/home/xingli/share/LiteOS_Lab/network/dtls/mbedtls/mbedtls_port/dtls_interface.c **** mbedtls_ssl_context *dtls_ssl_new(dtls_establish_info_s *info, char plat_type)
  65:/home/xingli/share/LiteOS_Lab/network/dtls/mbedtls/mbedtls_port/dtls_interface.c **** {
  28              		.loc 1 65 1
  29              		.cfi_startproc
  30 0000 F30F1EFA 		endbr64
  31 0004 55       		pushq	%rbp
  32              	.LCFI0:
  33              		.cfi_def_cfa_offset 16
  34              		.cfi_offset 6, -16
  35 0005 4889E5   		movq	%rsp, %rbp
  36              	.LCFI1:
  37              		.cfi_def_cfa_register 6
  38 0008 4154     		pushq	%r12
  39 000a 53       		pushq	%rbx
  40 000b 4883EC70 		subq	$112, %rsp
  41              		.cfi_offset 12, -24
  42              		.cfi_offset 3, -32
  43 000f 48897D88 		movq	%rdi, -120(%rbp)
  44 0013 89F0     		movl	%esi, %eax
  45 0015 884584   		movb	%al, -124(%rbp)
  46              		.loc 1 65 1
  47 0018 64488B04 		movq	%fs:40, %rax
  47      25280000 
  47      00
  48 0021 488945E8 		movq	%rax, -24(%rbp)
  49 0025 31C0     		xorl	%eax, %eax
  66:/home/xingli/share/LiteOS_Lab/network/dtls/mbedtls/mbedtls_port/dtls_interface.c ****     int ret = -1;
  50              		.loc 1 66 9
  51 0027 C7459CFF 		movl	$-1, -100(%rbp)
  51      FFFFFF
  67:/home/xingli/share/LiteOS_Lab/network/dtls/mbedtls/mbedtls_port/dtls_interface.c ****     mbedtls_ssl_context *ssl = NULL;
  52              		.loc 1 67 26
  53 002e 48C745B8 		movq	$0, -72(%rbp)
  53      00000000 
  68:/home/xingli/share/LiteOS_Lab/network/dtls/mbedtls/mbedtls_port/dtls_interface.c ****     mbedtls_ssl_config *conf = NULL;
  54              		.loc 1 68 25
  55 0036 48C745C0 		movq	$0, -64(%rbp)
  55      00000000 
  69:/home/xingli/share/LiteOS_Lab/network/dtls/mbedtls/mbedtls_port/dtls_interface.c ****     mbedtls_entropy_context *entropy = NULL;
  56              		.loc 1 69 30
  57 003e 48C745C8 		movq	$0, -56(%rbp)
  57      00000000 
  70:/home/xingli/share/LiteOS_Lab/network/dtls/mbedtls/mbedtls_port/dtls_interface.c ****     mbedtls_ctr_drbg_context *ctr_drbg = NULL;
  58              		.loc 1 70 31
  59 0046 48C745D0 		movq	$0, -48(%rbp)
  59      00000000 
  71:/home/xingli/share/LiteOS_Lab/network/dtls/mbedtls/mbedtls_port/dtls_interface.c ****     mbedtls_timing_delay_context *timer = NULL;
  60              		.loc 1 71 35
  61 004e 48C745A0 		movq	$0, -96(%rbp)
  61      00000000 
  72:/home/xingli/share/LiteOS_Lab/network/dtls/mbedtls/mbedtls_port/dtls_interface.c **** #if defined(MBEDTLS_X509_CRT_PARSE_C)
  73:/home/xingli/share/LiteOS_Lab/network/dtls/mbedtls/mbedtls_port/dtls_interface.c ****     mbedtls_x509_crt *cacert;
  74:/home/xingli/share/LiteOS_Lab/network/dtls/mbedtls/mbedtls_port/dtls_interface.c ****     mbedtls_x509_crt *client_ca = NULL;
  62              		.loc 1 74 23
  63 0056 48C745A8 		movq	$0, -88(%rbp)
  63      00000000 
  75:/home/xingli/share/LiteOS_Lab/network/dtls/mbedtls/mbedtls_port/dtls_interface.c ****     mbedtls_pk_context *client_pk = NULL;
GAS LISTING /tmp/ccHSWKEC.s 			page 4


  64              		.loc 1 75 25
  65 005e 48C745B0 		movq	$0, -80(%rbp)
  65      00000000 
  76:/home/xingli/share/LiteOS_Lab/network/dtls/mbedtls/mbedtls_port/dtls_interface.c **** #endif
  77:/home/xingli/share/LiteOS_Lab/network/dtls/mbedtls/mbedtls_port/dtls_interface.c **** 
  78:/home/xingli/share/LiteOS_Lab/network/dtls/mbedtls/mbedtls_port/dtls_interface.c ****     const char *pers = "ssl_client";
  66              		.loc 1 78 17
  67 0066 488D0500 		leaq	.LC0(%rip), %rax
  67      000000
  68 006d 488945D8 		movq	%rax, -40(%rbp)
  79:/home/xingli/share/LiteOS_Lab/network/dtls/mbedtls/mbedtls_port/dtls_interface.c ****     int transport;
  80:/home/xingli/share/LiteOS_Lab/network/dtls/mbedtls/mbedtls_port/dtls_interface.c ****     ssl = mbedtls_calloc(1, sizeof(mbedtls_ssl_context));
  69              		.loc 1 80 11
  70 0071 BE880100 		movl	$392, %esi
  70      00
  71 0076 BF010000 		movl	$1, %edi
  71      00
  72 007b E8000000 		call	mbedtls_calloc@PLT
  72      00
  73 0080 488945B8 		movq	%rax, -72(%rbp)
  81:/home/xingli/share/LiteOS_Lab/network/dtls/mbedtls/mbedtls_port/dtls_interface.c ****     conf = mbedtls_calloc(1, sizeof(mbedtls_ssl_config));
  74              		.loc 1 81 12
  75 0084 BEC00000 		movl	$192, %esi
  75      00
  76 0089 BF010000 		movl	$1, %edi
  76      00
  77 008e E8000000 		call	mbedtls_calloc@PLT
  77      00
  78 0093 488945C0 		movq	%rax, -64(%rbp)
  82:/home/xingli/share/LiteOS_Lab/network/dtls/mbedtls/mbedtls_port/dtls_interface.c ****     entropy = mbedtls_calloc(1, sizeof(mbedtls_entropy_context));
  79              		.loc 1 82 15
  80 0097 BEA00000 		movl	$160, %esi
  80      00
  81 009c BF010000 		movl	$1, %edi
  81      00
  82 00a1 E8000000 		call	mbedtls_calloc@PLT
  82      00
  83 00a6 488945C8 		movq	%rax, -56(%rbp)
  83:/home/xingli/share/LiteOS_Lab/network/dtls/mbedtls/mbedtls_port/dtls_interface.c ****     ctr_drbg = mbedtls_calloc(1, sizeof(mbedtls_ctr_drbg_context));
  84              		.loc 1 83 16
  85 00aa BE580100 		movl	$344, %esi
  85      00
  86 00af BF010000 		movl	$1, %edi
  86      00
  87 00b4 E8000000 		call	mbedtls_calloc@PLT
  87      00
  88 00b9 488945D0 		movq	%rax, -48(%rbp)
  84:/home/xingli/share/LiteOS_Lab/network/dtls/mbedtls/mbedtls_port/dtls_interface.c **** #if defined(MBEDTLS_X509_CRT_PARSE_C)
  85:/home/xingli/share/LiteOS_Lab/network/dtls/mbedtls/mbedtls_port/dtls_interface.c ****     cacert = mbedtls_calloc(1, sizeof(mbedtls_x509_crt));
  89              		.loc 1 85 14
  90 00bd BE280200 		movl	$552, %esi
  90      00
  91 00c2 BF010000 		movl	$1, %edi
  91      00
  92 00c7 E8000000 		call	mbedtls_calloc@PLT
  92      00
  93 00cc 488945E0 		movq	%rax, -32(%rbp)
GAS LISTING /tmp/ccHSWKEC.s 			page 5


  86:/home/xingli/share/LiteOS_Lab/network/dtls/mbedtls/mbedtls_port/dtls_interface.c **** #endif
  87:/home/xingli/share/LiteOS_Lab/network/dtls/mbedtls/mbedtls_port/dtls_interface.c **** 
  88:/home/xingli/share/LiteOS_Lab/network/dtls/mbedtls/mbedtls_port/dtls_interface.c ****     if (NULL == info || NULL == ssl || NULL == conf || NULL == entropy || NULL == ctr_drbg
  94              		.loc 1 88 8
  95 00d0 48837D88 		cmpq	$0, -120(%rbp)
  95      00
  96 00d5 0F84BA04 		je	.L34
  96      0000
  97              		.loc 1 88 22 discriminator 1
  98 00db 48837DB8 		cmpq	$0, -72(%rbp)
  98      00
  99 00e0 0F84AF04 		je	.L34
  99      0000
 100              		.loc 1 88 37 discriminator 2
 101 00e6 48837DC0 		cmpq	$0, -64(%rbp)
 101      00
 102 00eb 0F84A404 		je	.L34
 102      0000
 103              		.loc 1 88 53 discriminator 3
 104 00f1 48837DC8 		cmpq	$0, -56(%rbp)
 104      00
 105 00f6 0F849904 		je	.L34
 105      0000
 106              		.loc 1 88 72 discriminator 4
 107 00fc 48837DD0 		cmpq	$0, -48(%rbp)
 107      00
 108 0101 0F848E04 		je	.L34
 108      0000
  89:/home/xingli/share/LiteOS_Lab/network/dtls/mbedtls/mbedtls_port/dtls_interface.c **** #if defined(MBEDTLS_X509_CRT_PARSE_C)
  90:/home/xingli/share/LiteOS_Lab/network/dtls/mbedtls/mbedtls_port/dtls_interface.c ****         || NULL == cacert
 109              		.loc 1 90 9
 110 0107 48837DE0 		cmpq	$0, -32(%rbp)
 110      00
 111 010c 0F848304 		je	.L34
 111      0000
  91:/home/xingli/share/LiteOS_Lab/network/dtls/mbedtls/mbedtls_port/dtls_interface.c **** #endif
  92:/home/xingli/share/LiteOS_Lab/network/dtls/mbedtls/mbedtls_port/dtls_interface.c ****     ) {
  93:/home/xingli/share/LiteOS_Lab/network/dtls/mbedtls/mbedtls_port/dtls_interface.c ****         goto exit_fail;
  94:/home/xingli/share/LiteOS_Lab/network/dtls/mbedtls/mbedtls_port/dtls_interface.c ****     }
  95:/home/xingli/share/LiteOS_Lab/network/dtls/mbedtls/mbedtls_port/dtls_interface.c **** 
  96:/home/xingli/share/LiteOS_Lab/network/dtls/mbedtls/mbedtls_port/dtls_interface.c **** #if defined(MBEDTLS_X509_CRT_PARSE_C)
  97:/home/xingli/share/LiteOS_Lab/network/dtls/mbedtls/mbedtls_port/dtls_interface.c ****     if (NULL != info->v.c.client_ca) { // / we'd better to make the client ca and key
 112              		.loc 1 97 26
 113 0112 488B4588 		movq	-120(%rbp), %rax
 114 0116 488B4010 		movq	16(%rax), %rax
 115              		.loc 1 97 8
 116 011a 4885C0   		testq	%rax, %rax
 117 011d 7454     		je	.L5
  98:/home/xingli/share/LiteOS_Lab/network/dtls/mbedtls/mbedtls_port/dtls_interface.c ****         client_ca = mbedtls_calloc(1, sizeof(mbedtls_x509_crt));
 118              		.loc 1 98 21
 119 011f BE280200 		movl	$552, %esi
 119      00
 120 0124 BF010000 		movl	$1, %edi
 120      00
 121 0129 E8000000 		call	mbedtls_calloc@PLT
 121      00
 122 012e 488945A8 		movq	%rax, -88(%rbp)
GAS LISTING /tmp/ccHSWKEC.s 			page 6


  99:/home/xingli/share/LiteOS_Lab/network/dtls/mbedtls/mbedtls_port/dtls_interface.c ****         client_pk = mbedtls_calloc(1, sizeof(mbedtls_pk_context));
 123              		.loc 1 99 21
 124 0132 BE100000 		movl	$16, %esi
 124      00
 125 0137 BF010000 		movl	$1, %edi
 125      00
 126 013c E8000000 		call	mbedtls_calloc@PLT
 126      00
 127 0141 488945B0 		movq	%rax, -80(%rbp)
 100:/home/xingli/share/LiteOS_Lab/network/dtls/mbedtls/mbedtls_port/dtls_interface.c ****         if ((NULL == client_ca) || (NULL == client_pk)) {
 128              		.loc 1 100 12
 129 0145 48837DA8 		cmpq	$0, -88(%rbp)
 129      00
 130 014a 0F844804 		je	.L35
 130      0000
 131              		.loc 1 100 33 discriminator 1
 132 0150 48837DB0 		cmpq	$0, -80(%rbp)
 132      00
 133 0155 0F843D04 		je	.L35
 133      0000
 101:/home/xingli/share/LiteOS_Lab/network/dtls/mbedtls/mbedtls_port/dtls_interface.c ****             goto exit_fail;
 102:/home/xingli/share/LiteOS_Lab/network/dtls/mbedtls/mbedtls_port/dtls_interface.c ****         }
 103:/home/xingli/share/LiteOS_Lab/network/dtls/mbedtls/mbedtls_port/dtls_interface.c ****         mbedtls_x509_crt_init(client_ca);
 134              		.loc 1 103 9
 135 015b 488B45A8 		movq	-88(%rbp), %rax
 136 015f 4889C7   		movq	%rax, %rdi
 137 0162 E8000000 		call	mbedtls_x509_crt_init@PLT
 137      00
 104:/home/xingli/share/LiteOS_Lab/network/dtls/mbedtls/mbedtls_port/dtls_interface.c ****         mbedtls_pk_init(client_pk);
 138              		.loc 1 104 9
 139 0167 488B45B0 		movq	-80(%rbp), %rax
 140 016b 4889C7   		movq	%rax, %rdi
 141 016e E8000000 		call	mbedtls_pk_init@PLT
 141      00
 142              	.L5:
 105:/home/xingli/share/LiteOS_Lab/network/dtls/mbedtls/mbedtls_port/dtls_interface.c ****     }
 106:/home/xingli/share/LiteOS_Lab/network/dtls/mbedtls/mbedtls_port/dtls_interface.c **** #endif
 107:/home/xingli/share/LiteOS_Lab/network/dtls/mbedtls/mbedtls_port/dtls_interface.c **** 
 108:/home/xingli/share/LiteOS_Lab/network/dtls/mbedtls/mbedtls_port/dtls_interface.c ****     if (info->udp_or_tcp == MBEDTLS_NET_PROTO_UDP) {
 143              		.loc 1 108 13
 144 0173 488B4588 		movq	-120(%rbp), %rax
 145 0177 8B4044   		movl	68(%rax), %eax
 146              		.loc 1 108 8
 147 017a 83F801   		cmpl	$1, %eax
 148 017d 7526     		jne	.L8
 109:/home/xingli/share/LiteOS_Lab/network/dtls/mbedtls/mbedtls_port/dtls_interface.c ****         transport = MBEDTLS_SSL_TRANSPORT_DATAGRAM;
 149              		.loc 1 109 19
 150 017f C7459801 		movl	$1, -104(%rbp)
 150      000000
 110:/home/xingli/share/LiteOS_Lab/network/dtls/mbedtls/mbedtls_port/dtls_interface.c ****         timer = mbedtls_calloc(1, sizeof(mbedtls_timing_delay_context));
 151              		.loc 1 110 17
 152 0186 BE280000 		movl	$40, %esi
 152      00
 153 018b BF010000 		movl	$1, %edi
 153      00
 154 0190 E8000000 		call	mbedtls_calloc@PLT
 154      00
GAS LISTING /tmp/ccHSWKEC.s 			page 7


 155 0195 488945A0 		movq	%rax, -96(%rbp)
 111:/home/xingli/share/LiteOS_Lab/network/dtls/mbedtls/mbedtls_port/dtls_interface.c ****         if (NULL == timer)
 156              		.loc 1 111 12
 157 0199 48837DA0 		cmpq	$0, -96(%rbp)
 157      00
 158 019e 750C     		jne	.L9
 112:/home/xingli/share/LiteOS_Lab/network/dtls/mbedtls/mbedtls_port/dtls_interface.c ****             goto exit_fail;
 159              		.loc 1 112 13
 160 01a0 E9060400 		jmp	.L4
 160      00
 161              	.L8:
 113:/home/xingli/share/LiteOS_Lab/network/dtls/mbedtls/mbedtls_port/dtls_interface.c ****     } else {
 114:/home/xingli/share/LiteOS_Lab/network/dtls/mbedtls/mbedtls_port/dtls_interface.c ****         transport = MBEDTLS_SSL_TRANSPORT_STREAM;
 162              		.loc 1 114 19
 163 01a5 C7459800 		movl	$0, -104(%rbp)
 163      000000
 164              	.L9:
 115:/home/xingli/share/LiteOS_Lab/network/dtls/mbedtls/mbedtls_port/dtls_interface.c ****     }
 116:/home/xingli/share/LiteOS_Lab/network/dtls/mbedtls/mbedtls_port/dtls_interface.c **** 
 117:/home/xingli/share/LiteOS_Lab/network/dtls/mbedtls/mbedtls_port/dtls_interface.c ****     mbedtls_ssl_init(ssl);
 165              		.loc 1 117 5
 166 01ac 488B45B8 		movq	-72(%rbp), %rax
 167 01b0 4889C7   		movq	%rax, %rdi
 168 01b3 E8000000 		call	mbedtls_ssl_init@PLT
 168      00
 118:/home/xingli/share/LiteOS_Lab/network/dtls/mbedtls/mbedtls_port/dtls_interface.c ****     mbedtls_ssl_config_init(conf);
 169              		.loc 1 118 5
 170 01b8 488B45C0 		movq	-64(%rbp), %rax
 171 01bc 4889C7   		movq	%rax, %rdi
 172 01bf E8000000 		call	mbedtls_ssl_config_init@PLT
 172      00
 119:/home/xingli/share/LiteOS_Lab/network/dtls/mbedtls/mbedtls_port/dtls_interface.c ****     mbedtls_ctr_drbg_init(ctr_drbg);
 173              		.loc 1 119 5
 174 01c4 488B45D0 		movq	-48(%rbp), %rax
 175 01c8 4889C7   		movq	%rax, %rdi
 176 01cb E8000000 		call	mbedtls_ctr_drbg_init@PLT
 176      00
 120:/home/xingli/share/LiteOS_Lab/network/dtls/mbedtls/mbedtls_port/dtls_interface.c ****     mbedtls_entropy_init(entropy);
 177              		.loc 1 120 5
 178 01d0 488B45C8 		movq	-56(%rbp), %rax
 179 01d4 4889C7   		movq	%rax, %rdi
 180 01d7 E8000000 		call	mbedtls_entropy_init@PLT
 180      00
 121:/home/xingli/share/LiteOS_Lab/network/dtls/mbedtls/mbedtls_port/dtls_interface.c **** 
 122:/home/xingli/share/LiteOS_Lab/network/dtls/mbedtls/mbedtls_port/dtls_interface.c **** #if defined(MBEDTLS_X509_CRT_PARSE_C)
 123:/home/xingli/share/LiteOS_Lab/network/dtls/mbedtls/mbedtls_port/dtls_interface.c ****     if (info->psk_or_cert == VERIFY_WITH_CERT) {
 181              		.loc 1 123 13
 182 01dc 488B4588 		movq	-120(%rbp), %rax
 183 01e0 8B4040   		movl	64(%rax), %eax
 184              		.loc 1 123 8
 185 01e3 83F801   		cmpl	$1, %eax
 186 01e6 750C     		jne	.L10
 124:/home/xingli/share/LiteOS_Lab/network/dtls/mbedtls/mbedtls_port/dtls_interface.c ****         mbedtls_x509_crt_init(cacert);
 187              		.loc 1 124 9
 188 01e8 488B45E0 		movq	-32(%rbp), %rax
 189 01ec 4889C7   		movq	%rax, %rdi
 190 01ef E8000000 		call	mbedtls_x509_crt_init@PLT
GAS LISTING /tmp/ccHSWKEC.s 			page 8


 190      00
 191              	.L10:
 125:/home/xingli/share/LiteOS_Lab/network/dtls/mbedtls/mbedtls_port/dtls_interface.c ****     }
 126:/home/xingli/share/LiteOS_Lab/network/dtls/mbedtls/mbedtls_port/dtls_interface.c **** #endif
 127:/home/xingli/share/LiteOS_Lab/network/dtls/mbedtls/mbedtls_port/dtls_interface.c **** 
 128:/home/xingli/share/LiteOS_Lab/network/dtls/mbedtls/mbedtls_port/dtls_interface.c ****     if ((ret = mbedtls_ctr_drbg_seed(ctr_drbg, mbedtls_entropy_func, entropy, (const unsigned char 
 192              		.loc 1 128 16
 193 01f4 488B45D8 		movq	-40(%rbp), %rax
 194 01f8 4889C7   		movq	%rax, %rdi
 195 01fb E8000000 		call	strlen@PLT
 195      00
 196 0200 4889C6   		movq	%rax, %rsi
 197 0203 488B4DD8 		movq	-40(%rbp), %rcx
 198 0207 488B55C8 		movq	-56(%rbp), %rdx
 199 020b 488B45D0 		movq	-48(%rbp), %rax
 200 020f 4989F0   		movq	%rsi, %r8
 201 0212 488B3500 		movq	mbedtls_entropy_func@GOTPCREL(%rip), %rsi
 201      000000
 202 0219 4889C7   		movq	%rax, %rdi
 203 021c E8000000 		call	mbedtls_ctr_drbg_seed@PLT
 203      00
 204 0221 89459C   		movl	%eax, -100(%rbp)
 205              		.loc 1 128 8
 206 0224 837D9C00 		cmpl	$0, -100(%rbp)
 207 0228 745C     		je	.L11
 129:/home/xingli/share/LiteOS_Lab/network/dtls/mbedtls/mbedtls_port/dtls_interface.c ****         strlen(pers))) != 0) {
 130:/home/xingli/share/LiteOS_Lab/network/dtls/mbedtls/mbedtls_port/dtls_interface.c ****         MBEDTLS_LOG("mbedtls_ctr_drbg_seed failed: -0x%x", -ret);
 208              		.loc 1 130 9
 209 022a E8000000 		call	link_log_level_get@PLT
 209      00
 210 022f 83F801   		cmpl	$1, %eax
 211 0232 0F876303 		ja	.L36
 211      0000
 212              		.loc 1 130 9 is_stmt 0 discriminator 1
 213 0238 8B459C   		movl	-100(%rbp), %eax
 214 023b F7D8     		negl	%eax
 215 023d 89C3     		movl	%eax, %ebx
 216 023f E8000000 		call	osal_sys_time@PLT
 216      00
 217 0244 4189C4   		movl	%eax, %r12d
 218 0247 BF010000 		movl	$1, %edi
 218      00
 219 024c E8000000 		call	link_log_level_name@PLT
 219      00
 220 0251 4189D8   		movl	%ebx, %r8d
 221 0254 488D0D00 		leaq	__FUNCTION__.6281(%rip), %rcx
 221      000000
 222 025b 4489E2   		movl	%r12d, %edx
 223 025e 4889C6   		movq	%rax, %rsi
 224 0261 488D3D00 		leaq	.LC1(%rip), %rdi
 224      000000
 225 0268 B8000000 		movl	$0, %eax
 225      00
 226 026d E8000000 		call	printf@PLT
 226      00
 227 0272 488B0500 		movq	stdout(%rip), %rax
 227      000000
GAS LISTING /tmp/ccHSWKEC.s 			page 9


 228 0279 4889C7   		movq	%rax, %rdi
 229 027c E8000000 		call	fflush@PLT
 229      00
 131:/home/xingli/share/LiteOS_Lab/network/dtls/mbedtls/mbedtls_port/dtls_interface.c ****         goto exit_fail;
 230              		.loc 1 131 9 is_stmt 1 discriminator 1
 231 0281 E9150300 		jmp	.L36
 231      00
 232              	.L11:
 132:/home/xingli/share/LiteOS_Lab/network/dtls/mbedtls/mbedtls_port/dtls_interface.c ****     }
 133:/home/xingli/share/LiteOS_Lab/network/dtls/mbedtls/mbedtls_port/dtls_interface.c **** 
 134:/home/xingli/share/LiteOS_Lab/network/dtls/mbedtls/mbedtls_port/dtls_interface.c ****     MBEDTLS_LOG("setting up the SSL structure");
 233              		.loc 1 134 5
 234 0286 E8000000 		call	link_log_level_get@PLT
 234      00
 235 028b 83F801   		cmpl	$1, %eax
 236 028e 773D     		ja	.L13
 237              		.loc 1 134 5 is_stmt 0 discriminator 1
 238 0290 E8000000 		call	osal_sys_time@PLT
 238      00
 239 0295 89C3     		movl	%eax, %ebx
 240 0297 BF010000 		movl	$1, %edi
 240      00
 241 029c E8000000 		call	link_log_level_name@PLT
 241      00
 242 02a1 488D0D00 		leaq	__FUNCTION__.6281(%rip), %rcx
 242      000000
 243 02a8 89DA     		movl	%ebx, %edx
 244 02aa 4889C6   		movq	%rax, %rsi
 245 02ad 488D3D00 		leaq	.LC2(%rip), %rdi
 245      000000
 246 02b4 B8000000 		movl	$0, %eax
 246      00
 247 02b9 E8000000 		call	printf@PLT
 247      00
 248 02be 488B0500 		movq	stdout(%rip), %rax
 248      000000
 249 02c5 4889C7   		movq	%rax, %rdi
 250 02c8 E8000000 		call	fflush@PLT
 250      00
 251              	.L13:
 135:/home/xingli/share/LiteOS_Lab/network/dtls/mbedtls/mbedtls_port/dtls_interface.c **** 
 136:/home/xingli/share/LiteOS_Lab/network/dtls/mbedtls/mbedtls_port/dtls_interface.c ****     (void)mbedtls_ssl_config_defaults(conf, plat_type, transport, MBEDTLS_SSL_PRESET_DEFAULT);
 252              		.loc 1 136 11 is_stmt 1
 253 02cd 0FBE7584 		movsbl	-124(%rbp), %esi
 254 02d1 8B5598   		movl	-104(%rbp), %edx
 255 02d4 488B45C0 		movq	-64(%rbp), %rax
 256 02d8 B9000000 		movl	$0, %ecx
 256      00
 257 02dd 4889C7   		movq	%rax, %rdi
 258 02e0 E8000000 		call	mbedtls_ssl_config_defaults@PLT
 258      00
 137:/home/xingli/share/LiteOS_Lab/network/dtls/mbedtls/mbedtls_port/dtls_interface.c **** 
 138:/home/xingli/share/LiteOS_Lab/network/dtls/mbedtls/mbedtls_port/dtls_interface.c ****     mbedtls_ssl_conf_authmode(conf, MBEDTLS_SSL_VERIFY_REQUIRED);
 259              		.loc 1 138 5
 260 02e5 488B45C0 		movq	-64(%rbp), %rax
 261 02e9 BE020000 		movl	$2, %esi
 261      00
GAS LISTING /tmp/ccHSWKEC.s 			page 10


 262 02ee 4889C7   		movq	%rax, %rdi
 263 02f1 E8000000 		call	mbedtls_ssl_conf_authmode@PLT
 263      00
 139:/home/xingli/share/LiteOS_Lab/network/dtls/mbedtls/mbedtls_port/dtls_interface.c ****     mbedtls_ssl_conf_rng(conf, mbedtls_ctr_drbg_random, ctr_drbg);
 264              		.loc 1 139 5
 265 02f6 488B55D0 		movq	-48(%rbp), %rdx
 266 02fa 488B45C0 		movq	-64(%rbp), %rax
 267 02fe 488B0D00 		movq	mbedtls_ctr_drbg_random@GOTPCREL(%rip), %rcx
 267      000000
 268 0305 4889CE   		movq	%rcx, %rsi
 269 0308 4889C7   		movq	%rax, %rdi
 270 030b E8000000 		call	mbedtls_ssl_conf_rng@PLT
 270      00
 140:/home/xingli/share/LiteOS_Lab/network/dtls/mbedtls/mbedtls_port/dtls_interface.c **** 
 141:/home/xingli/share/LiteOS_Lab/network/dtls/mbedtls/mbedtls_port/dtls_interface.c ****     if (info->udp_or_tcp == MBEDTLS_NET_PROTO_TCP) {
 271              		.loc 1 141 13
 272 0310 488B4588 		movq	-120(%rbp), %rax
 273 0314 8B4044   		movl	68(%rax), %eax
 274              		.loc 1 141 8
 275 0317 85C0     		testl	%eax, %eax
 276 0319 7511     		jne	.L14
 142:/home/xingli/share/LiteOS_Lab/network/dtls/mbedtls/mbedtls_port/dtls_interface.c ****         mbedtls_ssl_conf_read_timeout(conf, TLS_SHAKEHAND_TIMEOUT);
 277              		.loc 1 142 9
 278 031b 488B45C0 		movq	-64(%rbp), %rax
 279 031f BEE80300 		movl	$1000, %esi
 279      00
 280 0324 4889C7   		movq	%rax, %rdi
 281 0327 E8000000 		call	mbedtls_ssl_conf_read_timeout@PLT
 281      00
 282              	.L14:
 143:/home/xingli/share/LiteOS_Lab/network/dtls/mbedtls/mbedtls_port/dtls_interface.c ****     }
 144:/home/xingli/share/LiteOS_Lab/network/dtls/mbedtls/mbedtls_port/dtls_interface.c **** 
 145:/home/xingli/share/LiteOS_Lab/network/dtls/mbedtls/mbedtls_port/dtls_interface.c **** #if defined(MBEDTLS_KEY_EXCHANGE__SOME__PSK_ENABLED)
 146:/home/xingli/share/LiteOS_Lab/network/dtls/mbedtls/mbedtls_port/dtls_interface.c ****     if (info->psk_or_cert == VERIFY_WITH_PSK) {
 147:/home/xingli/share/LiteOS_Lab/network/dtls/mbedtls/mbedtls_port/dtls_interface.c ****         if ((ret = mbedtls_ssl_conf_psk(conf, info->v.p.psk, info->v.p.psk_len, info->v.p.psk_ident
 148:/home/xingli/share/LiteOS_Lab/network/dtls/mbedtls/mbedtls_port/dtls_interface.c ****             strlen((const char *)info->v.p.psk_identity))) != 0) {
 149:/home/xingli/share/LiteOS_Lab/network/dtls/mbedtls/mbedtls_port/dtls_interface.c ****             MBEDTLS_LOG("mbedtls_ssl_conf_psk failed: -0x%x", -ret);
 150:/home/xingli/share/LiteOS_Lab/network/dtls/mbedtls/mbedtls_port/dtls_interface.c ****             goto exit_fail;
 151:/home/xingli/share/LiteOS_Lab/network/dtls/mbedtls/mbedtls_port/dtls_interface.c ****         }
 152:/home/xingli/share/LiteOS_Lab/network/dtls/mbedtls/mbedtls_port/dtls_interface.c ****     }
 153:/home/xingli/share/LiteOS_Lab/network/dtls/mbedtls/mbedtls_port/dtls_interface.c **** #endif
 154:/home/xingli/share/LiteOS_Lab/network/dtls/mbedtls/mbedtls_port/dtls_interface.c **** 
 155:/home/xingli/share/LiteOS_Lab/network/dtls/mbedtls/mbedtls_port/dtls_interface.c **** #if defined(MBEDTLS_X509_CRT_PARSE_C)
 156:/home/xingli/share/LiteOS_Lab/network/dtls/mbedtls/mbedtls_port/dtls_interface.c ****     if (info->psk_or_cert == VERIFY_WITH_CERT) {
 283              		.loc 1 156 13
 284 032c 488B4588 		movq	-120(%rbp), %rax
 285 0330 8B4040   		movl	64(%rax), %eax
 286              		.loc 1 156 8
 287 0333 83F801   		cmpl	$1, %eax
 288 0336 0F855301 		jne	.L15
 288      0000
 157:/home/xingli/share/LiteOS_Lab/network/dtls/mbedtls/mbedtls_port/dtls_interface.c ****         ret = mbedtls_x509_crt_parse(cacert, info->v.c.ca_cert, info->v.c.cert_len);
 289              		.loc 1 157 74
 290 033c 488B4588 		movq	-120(%rbp), %rax
 291 0340 8B4008   		movl	8(%rax), %eax
 292              		.loc 1 157 15
 293 0343 89C2     		movl	%eax, %edx
GAS LISTING /tmp/ccHSWKEC.s 			page 11


 294 0345 488B4588 		movq	-120(%rbp), %rax
 295 0349 488B08   		movq	(%rax), %rcx
 296 034c 488B45E0 		movq	-32(%rbp), %rax
 297 0350 4889CE   		movq	%rcx, %rsi
 298 0353 4889C7   		movq	%rax, %rdi
 299 0356 E8000000 		call	mbedtls_x509_crt_parse@PLT
 299      00
 300 035b 89459C   		movl	%eax, -100(%rbp)
 158:/home/xingli/share/LiteOS_Lab/network/dtls/mbedtls/mbedtls_port/dtls_interface.c ****         if (ret < 0) {
 301              		.loc 1 158 12
 302 035e 837D9C00 		cmpl	$0, -100(%rbp)
 303 0362 795C     		jns	.L16
 159:/home/xingli/share/LiteOS_Lab/network/dtls/mbedtls/mbedtls_port/dtls_interface.c ****             MBEDTLS_LOG("mbedtls_x509_crt_parse failed -0x%x", -ret);
 304              		.loc 1 159 13
 305 0364 E8000000 		call	link_log_level_get@PLT
 305      00
 306 0369 83F801   		cmpl	$1, %eax
 307 036c 0F872C02 		ja	.L37
 307      0000
 308              		.loc 1 159 13 is_stmt 0 discriminator 1
 309 0372 8B459C   		movl	-100(%rbp), %eax
 310 0375 F7D8     		negl	%eax
 311 0377 89C3     		movl	%eax, %ebx
 312 0379 E8000000 		call	osal_sys_time@PLT
 312      00
 313 037e 4189C4   		movl	%eax, %r12d
 314 0381 BF010000 		movl	$1, %edi
 314      00
 315 0386 E8000000 		call	link_log_level_name@PLT
 315      00
 316 038b 4189D8   		movl	%ebx, %r8d
 317 038e 488D0D00 		leaq	__FUNCTION__.6281(%rip), %rcx
 317      000000
 318 0395 4489E2   		movl	%r12d, %edx
 319 0398 4889C6   		movq	%rax, %rsi
 320 039b 488D3D00 		leaq	.LC3(%rip), %rdi
 320      000000
 321 03a2 B8000000 		movl	$0, %eax
 321      00
 322 03a7 E8000000 		call	printf@PLT
 322      00
 323 03ac 488B0500 		movq	stdout(%rip), %rax
 323      000000
 324 03b3 4889C7   		movq	%rax, %rdi
 325 03b6 E8000000 		call	fflush@PLT
 325      00
 160:/home/xingli/share/LiteOS_Lab/network/dtls/mbedtls/mbedtls_port/dtls_interface.c ****             goto exit_fail;
 326              		.loc 1 160 13 is_stmt 1 discriminator 1
 327 03bb E9DE0100 		jmp	.L37
 327      00
 328              	.L16:
 161:/home/xingli/share/LiteOS_Lab/network/dtls/mbedtls/mbedtls_port/dtls_interface.c ****         }
 162:/home/xingli/share/LiteOS_Lab/network/dtls/mbedtls/mbedtls_port/dtls_interface.c ****         mbedtls_ssl_conf_authmode(conf, MBEDTLS_SSL_VERIFY_REQUIRED);
 329              		.loc 1 162 9
 330 03c0 488B45C0 		movq	-64(%rbp), %rax
 331 03c4 BE020000 		movl	$2, %esi
 331      00
GAS LISTING /tmp/ccHSWKEC.s 			page 12


 332 03c9 4889C7   		movq	%rax, %rdi
 333 03cc E8000000 		call	mbedtls_ssl_conf_authmode@PLT
 333      00
 163:/home/xingli/share/LiteOS_Lab/network/dtls/mbedtls/mbedtls_port/dtls_interface.c ****         mbedtls_ssl_conf_ca_chain(conf, cacert, NULL);
 334              		.loc 1 163 9
 335 03d1 488B4DE0 		movq	-32(%rbp), %rcx
 336 03d5 488B45C0 		movq	-64(%rbp), %rax
 337 03d9 BA000000 		movl	$0, %edx
 337      00
 338 03de 4889CE   		movq	%rcx, %rsi
 339 03e1 4889C7   		movq	%rax, %rdi
 340 03e4 E8000000 		call	mbedtls_ssl_conf_ca_chain@PLT
 340      00
 164:/home/xingli/share/LiteOS_Lab/network/dtls/mbedtls/mbedtls_port/dtls_interface.c **** 
 165:/home/xingli/share/LiteOS_Lab/network/dtls/mbedtls/mbedtls_port/dtls_interface.c ****         if (NULL != info->v.c.client_ca) { // /< setup the client key and ca
 341              		.loc 1 165 30
 342 03e9 488B4588 		movq	-120(%rbp), %rax
 343 03ed 488B4010 		movq	16(%rax), %rax
 344              		.loc 1 165 12
 345 03f1 4885C0   		testq	%rax, %rax
 346 03f4 0F849500 		je	.L15
 346      0000
 166:/home/xingli/share/LiteOS_Lab/network/dtls/mbedtls/mbedtls_port/dtls_interface.c ****             ret = mbedtls_x509_crt_parse(client_ca, info->v.c.client_ca, info->v.c.client_ca_len);
 347              		.loc 1 166 83
 348 03fa 488B4588 		movq	-120(%rbp), %rax
 349 03fe 8B4018   		movl	24(%rax), %eax
 350              		.loc 1 166 19
 351 0401 89C2     		movl	%eax, %edx
 352 0403 488B4588 		movq	-120(%rbp), %rax
 353 0407 488B4810 		movq	16(%rax), %rcx
 354 040b 488B45A8 		movq	-88(%rbp), %rax
 355 040f 4889CE   		movq	%rcx, %rsi
 356 0412 4889C7   		movq	%rax, %rdi
 357 0415 E8000000 		call	mbedtls_x509_crt_parse@PLT
 357      00
 358 041a 89459C   		movl	%eax, -100(%rbp)
 167:/home/xingli/share/LiteOS_Lab/network/dtls/mbedtls/mbedtls_port/dtls_interface.c ****             if (ret < 0) {
 359              		.loc 1 167 16
 360 041d 837D9C00 		cmpl	$0, -100(%rbp)
 361 0421 0F887A01 		js	.L38
 361      0000
 168:/home/xingli/share/LiteOS_Lab/network/dtls/mbedtls/mbedtls_port/dtls_interface.c ****                 goto exit_fail;
 169:/home/xingli/share/LiteOS_Lab/network/dtls/mbedtls/mbedtls_port/dtls_interface.c ****             }
 170:/home/xingli/share/LiteOS_Lab/network/dtls/mbedtls/mbedtls_port/dtls_interface.c **** 
 171:/home/xingli/share/LiteOS_Lab/network/dtls/mbedtls/mbedtls_port/dtls_interface.c ****             ret = mbedtls_pk_parse_key(client_pk, info->v.c.client_pk, info->v.c.client_pk_len, inf
 172:/home/xingli/share/LiteOS_Lab/network/dtls/mbedtls/mbedtls_port/dtls_interface.c ****                 info->v.c.client_pk_pwd_len);
 362              		.loc 1 172 26
 363 0427 488B4588 		movq	-120(%rbp), %rax
 364 042b 8B4038   		movl	56(%rax), %eax
 171:/home/xingli/share/LiteOS_Lab/network/dtls/mbedtls/mbedtls_port/dtls_interface.c ****                 info->v.c.client_pk_pwd_len);
 365              		.loc 1 171 19
 366 042e 89C1     		movl	%eax, %ecx
 367 0430 488B4588 		movq	-120(%rbp), %rax
 368 0434 488B5030 		movq	48(%rax), %rdx
 171:/home/xingli/share/LiteOS_Lab/network/dtls/mbedtls/mbedtls_port/dtls_interface.c ****                 info->v.c.client_pk_pwd_len);
 369              		.loc 1 171 81
 370 0438 488B4588 		movq	-120(%rbp), %rax
GAS LISTING /tmp/ccHSWKEC.s 			page 13


 371 043c 8B4028   		movl	40(%rax), %eax
 171:/home/xingli/share/LiteOS_Lab/network/dtls/mbedtls/mbedtls_port/dtls_interface.c ****                 info->v.c.client_pk_pwd_len);
 372              		.loc 1 171 19
 373 043f 89C7     		movl	%eax, %edi
 374 0441 488B4588 		movq	-120(%rbp), %rax
 375 0445 488B7020 		movq	32(%rax), %rsi
 376 0449 488B45B0 		movq	-80(%rbp), %rax
 377 044d 4989C8   		movq	%rcx, %r8
 378 0450 4889D1   		movq	%rdx, %rcx
 379 0453 4889FA   		movq	%rdi, %rdx
 380 0456 4889C7   		movq	%rax, %rdi
 381 0459 E8000000 		call	mbedtls_pk_parse_key@PLT
 381      00
 382 045e 89459C   		movl	%eax, -100(%rbp)
 173:/home/xingli/share/LiteOS_Lab/network/dtls/mbedtls/mbedtls_port/dtls_interface.c ****             if (ret < 0) {
 383              		.loc 1 173 16
 384 0461 837D9C00 		cmpl	$0, -100(%rbp)
 385 0465 0F883901 		js	.L39
 385      0000
 174:/home/xingli/share/LiteOS_Lab/network/dtls/mbedtls/mbedtls_port/dtls_interface.c ****                 goto exit_fail;
 175:/home/xingli/share/LiteOS_Lab/network/dtls/mbedtls/mbedtls_port/dtls_interface.c ****             }
 176:/home/xingli/share/LiteOS_Lab/network/dtls/mbedtls/mbedtls_port/dtls_interface.c **** 
 177:/home/xingli/share/LiteOS_Lab/network/dtls/mbedtls/mbedtls_port/dtls_interface.c ****             ret = mbedtls_ssl_conf_own_cert(conf, client_ca, client_pk);
 386              		.loc 1 177 19
 387 046b 488B55B0 		movq	-80(%rbp), %rdx
 388 046f 488B4DA8 		movq	-88(%rbp), %rcx
 389 0473 488B45C0 		movq	-64(%rbp), %rax
 390 0477 4889CE   		movq	%rcx, %rsi
 391 047a 4889C7   		movq	%rax, %rdi
 392 047d E8000000 		call	mbedtls_ssl_conf_own_cert@PLT
 392      00
 393 0482 89459C   		movl	%eax, -100(%rbp)
 178:/home/xingli/share/LiteOS_Lab/network/dtls/mbedtls/mbedtls_port/dtls_interface.c ****             if (ret != 0) {
 394              		.loc 1 178 16
 395 0485 837D9C00 		cmpl	$0, -100(%rbp)
 396 0489 0F851801 		jne	.L40
 396      0000
 397              	.L15:
 179:/home/xingli/share/LiteOS_Lab/network/dtls/mbedtls/mbedtls_port/dtls_interface.c ****                 goto exit_fail;
 180:/home/xingli/share/LiteOS_Lab/network/dtls/mbedtls/mbedtls_port/dtls_interface.c ****             }
 181:/home/xingli/share/LiteOS_Lab/network/dtls/mbedtls/mbedtls_port/dtls_interface.c ****         }
 182:/home/xingli/share/LiteOS_Lab/network/dtls/mbedtls/mbedtls_port/dtls_interface.c ****     }
 183:/home/xingli/share/LiteOS_Lab/network/dtls/mbedtls/mbedtls_port/dtls_interface.c **** #endif
 184:/home/xingli/share/LiteOS_Lab/network/dtls/mbedtls/mbedtls_port/dtls_interface.c **** 
 185:/home/xingli/share/LiteOS_Lab/network/dtls/mbedtls/mbedtls_port/dtls_interface.c ****     mbedtls_ssl_conf_authmode(conf,
 398              		.loc 1 185 5
 399 048f 488B45C0 		movq	-64(%rbp), %rax
 400 0493 BE020000 		movl	$2, %esi
 400      00
 401 0498 4889C7   		movq	%rax, %rdi
 402 049b E8000000 		call	mbedtls_ssl_conf_authmode@PLT
 402      00
 186:/home/xingli/share/LiteOS_Lab/network/dtls/mbedtls/mbedtls_port/dtls_interface.c ****         MBEDTLS_SSL_VERIFY_REQUIRED); // TODO--test for no check the ca_rt--only for the debug
 187:/home/xingli/share/LiteOS_Lab/network/dtls/mbedtls/mbedtls_port/dtls_interface.c **** 
 188:/home/xingli/share/LiteOS_Lab/network/dtls/mbedtls/mbedtls_port/dtls_interface.c ****     if ((ret = mbedtls_ssl_setup(ssl, conf)) != 0) {
 403              		.loc 1 188 16
 404 04a0 488B55C0 		movq	-64(%rbp), %rdx
GAS LISTING /tmp/ccHSWKEC.s 			page 14


 405 04a4 488B45B8 		movq	-72(%rbp), %rax
 406 04a8 4889D6   		movq	%rdx, %rsi
 407 04ab 4889C7   		movq	%rax, %rdi
 408 04ae E8000000 		call	mbedtls_ssl_setup@PLT
 408      00
 409 04b3 89459C   		movl	%eax, -100(%rbp)
 410              		.loc 1 188 8
 411 04b6 837D9C00 		cmpl	$0, -100(%rbp)
 412 04ba 745C     		je	.L20
 189:/home/xingli/share/LiteOS_Lab/network/dtls/mbedtls/mbedtls_port/dtls_interface.c ****         MBEDTLS_LOG("mbedtls_ssl_setup failed: -0x%x", -ret);
 413              		.loc 1 189 9
 414 04bc E8000000 		call	link_log_level_get@PLT
 414      00
 415 04c1 83F801   		cmpl	$1, %eax
 416 04c4 0F87E000 		ja	.L41
 416      0000
 417              		.loc 1 189 9 is_stmt 0 discriminator 1
 418 04ca 8B459C   		movl	-100(%rbp), %eax
 419 04cd F7D8     		negl	%eax
 420 04cf 89C3     		movl	%eax, %ebx
 421 04d1 E8000000 		call	osal_sys_time@PLT
 421      00
 422 04d6 4189C4   		movl	%eax, %r12d
 423 04d9 BF010000 		movl	$1, %edi
 423      00
 424 04de E8000000 		call	link_log_level_name@PLT
 424      00
 425 04e3 4189D8   		movl	%ebx, %r8d
 426 04e6 488D0D00 		leaq	__FUNCTION__.6281(%rip), %rcx
 426      000000
 427 04ed 4489E2   		movl	%r12d, %edx
 428 04f0 4889C6   		movq	%rax, %rsi
 429 04f3 488D3D00 		leaq	.LC4(%rip), %rdi
 429      000000
 430 04fa B8000000 		movl	$0, %eax
 430      00
 431 04ff E8000000 		call	printf@PLT
 431      00
 432 0504 488B0500 		movq	stdout(%rip), %rax
 432      000000
 433 050b 4889C7   		movq	%rax, %rdi
 434 050e E8000000 		call	fflush@PLT
 434      00
 190:/home/xingli/share/LiteOS_Lab/network/dtls/mbedtls/mbedtls_port/dtls_interface.c ****         goto exit_fail;
 435              		.loc 1 190 9 is_stmt 1 discriminator 1
 436 0513 E9920000 		jmp	.L41
 436      00
 437              	.L20:
 191:/home/xingli/share/LiteOS_Lab/network/dtls/mbedtls/mbedtls_port/dtls_interface.c ****     }
 192:/home/xingli/share/LiteOS_Lab/network/dtls/mbedtls/mbedtls_port/dtls_interface.c **** 
 193:/home/xingli/share/LiteOS_Lab/network/dtls/mbedtls/mbedtls_port/dtls_interface.c ****     if (info->udp_or_tcp == MBEDTLS_NET_PROTO_UDP) {
 438              		.loc 1 193 13
 439 0518 488B4588 		movq	-120(%rbp), %rax
 440 051c 8B4044   		movl	68(%rax), %eax
 441              		.loc 1 193 8
 442 051f 83F801   		cmpl	$1, %eax
 443 0522 7521     		jne	.L22
GAS LISTING /tmp/ccHSWKEC.s 			page 15


 194:/home/xingli/share/LiteOS_Lab/network/dtls/mbedtls/mbedtls_port/dtls_interface.c ****         mbedtls_ssl_set_timer_cb(ssl, timer, mbedtls_timing_set_delay, mbedtls_timing_get_delay);
 444              		.loc 1 194 9
 445 0524 488B75A0 		movq	-96(%rbp), %rsi
 446 0528 488B45B8 		movq	-72(%rbp), %rax
 447 052c 488B1500 		movq	mbedtls_timing_get_delay@GOTPCREL(%rip), %rdx
 447      000000
 448 0533 4889D1   		movq	%rdx, %rcx
 449 0536 488B1500 		movq	mbedtls_timing_set_delay@GOTPCREL(%rip), %rdx
 449      000000
 450 053d 4889C7   		movq	%rax, %rdi
 451 0540 E8000000 		call	mbedtls_ssl_set_timer_cb@PLT
 451      00
 452              	.L22:
 195:/home/xingli/share/LiteOS_Lab/network/dtls/mbedtls/mbedtls_port/dtls_interface.c ****     }
 196:/home/xingli/share/LiteOS_Lab/network/dtls/mbedtls/mbedtls_port/dtls_interface.c **** 
 197:/home/xingli/share/LiteOS_Lab/network/dtls/mbedtls/mbedtls_port/dtls_interface.c ****     MBEDTLS_LOG("set SSL structure succeed");
 453              		.loc 1 197 5
 454 0545 E8000000 		call	link_log_level_get@PLT
 454      00
 455 054a 83F801   		cmpl	$1, %eax
 456 054d 773D     		ja	.L23
 457              		.loc 1 197 5 is_stmt 0 discriminator 1
 458 054f E8000000 		call	osal_sys_time@PLT
 458      00
 459 0554 89C3     		movl	%eax, %ebx
 460 0556 BF010000 		movl	$1, %edi
 460      00
 461 055b E8000000 		call	link_log_level_name@PLT
 461      00
 462 0560 488D0D00 		leaq	__FUNCTION__.6281(%rip), %rcx
 462      000000
 463 0567 89DA     		movl	%ebx, %edx
 464 0569 4889C6   		movq	%rax, %rsi
 465 056c 488D3D00 		leaq	.LC5(%rip), %rdi
 465      000000
 466 0573 B8000000 		movl	$0, %eax
 466      00
 467 0578 E8000000 		call	printf@PLT
 467      00
 468 057d 488B0500 		movq	stdout(%rip), %rax
 468      000000
 469 0584 4889C7   		movq	%rax, %rdi
 470 0587 E8000000 		call	fflush@PLT
 470      00
 471              	.L23:
 198:/home/xingli/share/LiteOS_Lab/network/dtls/mbedtls/mbedtls_port/dtls_interface.c **** 
 199:/home/xingli/share/LiteOS_Lab/network/dtls/mbedtls/mbedtls_port/dtls_interface.c ****     return ssl;
 472              		.loc 1 199 12 is_stmt 1
 473 058c 488B45B8 		movq	-72(%rbp), %rax
 474 0590 E9070100 		jmp	.L24
 474      00
 475              	.L34:
  93:/home/xingli/share/LiteOS_Lab/network/dtls/mbedtls/mbedtls_port/dtls_interface.c ****     }
 476              		.loc 1 93 9
 477 0595 90       		nop
 478 0596 EB13     		jmp	.L4
 479              	.L35:
GAS LISTING /tmp/ccHSWKEC.s 			page 16


 101:/home/xingli/share/LiteOS_Lab/network/dtls/mbedtls/mbedtls_port/dtls_interface.c ****         }
 480              		.loc 1 101 13
 481 0598 90       		nop
 482 0599 EB10     		jmp	.L4
 483              	.L36:
 131:/home/xingli/share/LiteOS_Lab/network/dtls/mbedtls/mbedtls_port/dtls_interface.c ****     }
 484              		.loc 1 131 9
 485 059b 90       		nop
 486 059c EB0D     		jmp	.L4
 487              	.L37:
 160:/home/xingli/share/LiteOS_Lab/network/dtls/mbedtls/mbedtls_port/dtls_interface.c ****         }
 488              		.loc 1 160 13
 489 059e 90       		nop
 490 059f EB0A     		jmp	.L4
 491              	.L38:
 168:/home/xingli/share/LiteOS_Lab/network/dtls/mbedtls/mbedtls_port/dtls_interface.c ****             }
 492              		.loc 1 168 17
 493 05a1 90       		nop
 494 05a2 EB07     		jmp	.L4
 495              	.L39:
 174:/home/xingli/share/LiteOS_Lab/network/dtls/mbedtls/mbedtls_port/dtls_interface.c ****             }
 496              		.loc 1 174 17
 497 05a4 90       		nop
 498 05a5 EB04     		jmp	.L4
 499              	.L40:
 179:/home/xingli/share/LiteOS_Lab/network/dtls/mbedtls/mbedtls_port/dtls_interface.c ****             }
 500              		.loc 1 179 17
 501 05a7 90       		nop
 502 05a8 EB01     		jmp	.L4
 503              	.L41:
 190:/home/xingli/share/LiteOS_Lab/network/dtls/mbedtls/mbedtls_port/dtls_interface.c ****     }
 504              		.loc 1 190 9
 505 05aa 90       		nop
 506              	.L4:
 200:/home/xingli/share/LiteOS_Lab/network/dtls/mbedtls/mbedtls_port/dtls_interface.c **** 
 201:/home/xingli/share/LiteOS_Lab/network/dtls/mbedtls/mbedtls_port/dtls_interface.c **** exit_fail:
 202:/home/xingli/share/LiteOS_Lab/network/dtls/mbedtls/mbedtls_port/dtls_interface.c **** 
 203:/home/xingli/share/LiteOS_Lab/network/dtls/mbedtls/mbedtls_port/dtls_interface.c ****     if (conf) {
 507              		.loc 1 203 8
 508 05ab 48837DC0 		cmpq	$0, -64(%rbp)
 508      00
 509 05b0 7418     		je	.L25
 204:/home/xingli/share/LiteOS_Lab/network/dtls/mbedtls/mbedtls_port/dtls_interface.c ****         mbedtls_ssl_config_free(conf);
 510              		.loc 1 204 9
 511 05b2 488B45C0 		movq	-64(%rbp), %rax
 512 05b6 4889C7   		movq	%rax, %rdi
 513 05b9 E8000000 		call	mbedtls_ssl_config_free@PLT
 513      00
 205:/home/xingli/share/LiteOS_Lab/network/dtls/mbedtls/mbedtls_port/dtls_interface.c ****         mbedtls_free(conf);
 514              		.loc 1 205 9
 515 05be 488B45C0 		movq	-64(%rbp), %rax
 516 05c2 4889C7   		movq	%rax, %rdi
 517 05c5 E8000000 		call	mbedtls_free@PLT
 517      00
 518              	.L25:
 206:/home/xingli/share/LiteOS_Lab/network/dtls/mbedtls/mbedtls_port/dtls_interface.c ****     }
 207:/home/xingli/share/LiteOS_Lab/network/dtls/mbedtls/mbedtls_port/dtls_interface.c **** 
GAS LISTING /tmp/ccHSWKEC.s 			page 17


 208:/home/xingli/share/LiteOS_Lab/network/dtls/mbedtls/mbedtls_port/dtls_interface.c ****     if (ctr_drbg) {
 519              		.loc 1 208 8
 520 05ca 48837DD0 		cmpq	$0, -48(%rbp)
 520      00
 521 05cf 7418     		je	.L26
 209:/home/xingli/share/LiteOS_Lab/network/dtls/mbedtls/mbedtls_port/dtls_interface.c ****         mbedtls_ctr_drbg_free(ctr_drbg);
 522              		.loc 1 209 9
 523 05d1 488B45D0 		movq	-48(%rbp), %rax
 524 05d5 4889C7   		movq	%rax, %rdi
 525 05d8 E8000000 		call	mbedtls_ctr_drbg_free@PLT
 525      00
 210:/home/xingli/share/LiteOS_Lab/network/dtls/mbedtls/mbedtls_port/dtls_interface.c ****         mbedtls_free(ctr_drbg);
 526              		.loc 1 210 9
 527 05dd 488B45D0 		movq	-48(%rbp), %rax
 528 05e1 4889C7   		movq	%rax, %rdi
 529 05e4 E8000000 		call	mbedtls_free@PLT
 529      00
 530              	.L26:
 211:/home/xingli/share/LiteOS_Lab/network/dtls/mbedtls/mbedtls_port/dtls_interface.c ****     }
 212:/home/xingli/share/LiteOS_Lab/network/dtls/mbedtls/mbedtls_port/dtls_interface.c **** 
 213:/home/xingli/share/LiteOS_Lab/network/dtls/mbedtls/mbedtls_port/dtls_interface.c ****     if (entropy) {
 531              		.loc 1 213 8
 532 05e9 48837DC8 		cmpq	$0, -56(%rbp)
 532      00
 533 05ee 7418     		je	.L27
 214:/home/xingli/share/LiteOS_Lab/network/dtls/mbedtls/mbedtls_port/dtls_interface.c ****         mbedtls_entropy_free(entropy);
 534              		.loc 1 214 9
 535 05f0 488B45C8 		movq	-56(%rbp), %rax
 536 05f4 4889C7   		movq	%rax, %rdi
 537 05f7 E8000000 		call	mbedtls_entropy_free@PLT
 537      00
 215:/home/xingli/share/LiteOS_Lab/network/dtls/mbedtls/mbedtls_port/dtls_interface.c ****         mbedtls_free(entropy);
 538              		.loc 1 215 9
 539 05fc 488B45C8 		movq	-56(%rbp), %rax
 540 0600 4889C7   		movq	%rax, %rdi
 541 0603 E8000000 		call	mbedtls_free@PLT
 541      00
 542              	.L27:
 216:/home/xingli/share/LiteOS_Lab/network/dtls/mbedtls/mbedtls_port/dtls_interface.c ****     }
 217:/home/xingli/share/LiteOS_Lab/network/dtls/mbedtls/mbedtls_port/dtls_interface.c **** 
 218:/home/xingli/share/LiteOS_Lab/network/dtls/mbedtls/mbedtls_port/dtls_interface.c ****     if (timer) {
 543              		.loc 1 218 8
 544 0608 48837DA0 		cmpq	$0, -96(%rbp)
 544      00
 545 060d 740C     		je	.L28
 219:/home/xingli/share/LiteOS_Lab/network/dtls/mbedtls/mbedtls_port/dtls_interface.c ****         mbedtls_free(timer);
 546              		.loc 1 219 9
 547 060f 488B45A0 		movq	-96(%rbp), %rax
 548 0613 4889C7   		movq	%rax, %rdi
 549 0616 E8000000 		call	mbedtls_free@PLT
 549      00
 550              	.L28:
 220:/home/xingli/share/LiteOS_Lab/network/dtls/mbedtls/mbedtls_port/dtls_interface.c ****     }
 221:/home/xingli/share/LiteOS_Lab/network/dtls/mbedtls/mbedtls_port/dtls_interface.c **** 
 222:/home/xingli/share/LiteOS_Lab/network/dtls/mbedtls/mbedtls_port/dtls_interface.c **** #if defined(MBEDTLS_X509_CRT_PARSE_C)
 223:/home/xingli/share/LiteOS_Lab/network/dtls/mbedtls/mbedtls_port/dtls_interface.c ****     if (cacert) {
 551              		.loc 1 223 8
GAS LISTING /tmp/ccHSWKEC.s 			page 18


 552 061b 48837DE0 		cmpq	$0, -32(%rbp)
 552      00
 553 0620 7418     		je	.L29
 224:/home/xingli/share/LiteOS_Lab/network/dtls/mbedtls/mbedtls_port/dtls_interface.c ****         mbedtls_x509_crt_free(cacert);
 554              		.loc 1 224 9
 555 0622 488B45E0 		movq	-32(%rbp), %rax
 556 0626 4889C7   		movq	%rax, %rdi
 557 0629 E8000000 		call	mbedtls_x509_crt_free@PLT
 557      00
 225:/home/xingli/share/LiteOS_Lab/network/dtls/mbedtls/mbedtls_port/dtls_interface.c ****         mbedtls_free(cacert);
 558              		.loc 1 225 9
 559 062e 488B45E0 		movq	-32(%rbp), %rax
 560 0632 4889C7   		movq	%rax, %rdi
 561 0635 E8000000 		call	mbedtls_free@PLT
 561      00
 562              	.L29:
 226:/home/xingli/share/LiteOS_Lab/network/dtls/mbedtls/mbedtls_port/dtls_interface.c ****     }
 227:/home/xingli/share/LiteOS_Lab/network/dtls/mbedtls/mbedtls_port/dtls_interface.c **** 
 228:/home/xingli/share/LiteOS_Lab/network/dtls/mbedtls/mbedtls_port/dtls_interface.c ****     if (client_ca) {
 563              		.loc 1 228 8
 564 063a 48837DA8 		cmpq	$0, -88(%rbp)
 564      00
 565 063f 7418     		je	.L30
 229:/home/xingli/share/LiteOS_Lab/network/dtls/mbedtls/mbedtls_port/dtls_interface.c ****         mbedtls_x509_crt_free(client_ca);
 566              		.loc 1 229 9
 567 0641 488B45A8 		movq	-88(%rbp), %rax
 568 0645 4889C7   		movq	%rax, %rdi
 569 0648 E8000000 		call	mbedtls_x509_crt_free@PLT
 569      00
 230:/home/xingli/share/LiteOS_Lab/network/dtls/mbedtls/mbedtls_port/dtls_interface.c ****         mbedtls_free(client_ca);
 570              		.loc 1 230 9
 571 064d 488B45A8 		movq	-88(%rbp), %rax
 572 0651 4889C7   		movq	%rax, %rdi
 573 0654 E8000000 		call	mbedtls_free@PLT
 573      00
 574              	.L30:
 231:/home/xingli/share/LiteOS_Lab/network/dtls/mbedtls/mbedtls_port/dtls_interface.c ****     }
 232:/home/xingli/share/LiteOS_Lab/network/dtls/mbedtls/mbedtls_port/dtls_interface.c **** 
 233:/home/xingli/share/LiteOS_Lab/network/dtls/mbedtls/mbedtls_port/dtls_interface.c ****     if (client_pk) {
 575              		.loc 1 233 8
 576 0659 48837DB0 		cmpq	$0, -80(%rbp)
 576      00
 577 065e 7418     		je	.L31
 234:/home/xingli/share/LiteOS_Lab/network/dtls/mbedtls/mbedtls_port/dtls_interface.c ****         mbedtls_pk_free(client_pk);
 578              		.loc 1 234 9
 579 0660 488B45B0 		movq	-80(%rbp), %rax
 580 0664 4889C7   		movq	%rax, %rdi
 581 0667 E8000000 		call	mbedtls_pk_free@PLT
 581      00
 235:/home/xingli/share/LiteOS_Lab/network/dtls/mbedtls/mbedtls_port/dtls_interface.c ****         mbedtls_free(client_pk);
 582              		.loc 1 235 9
 583 066c 488B45B0 		movq	-80(%rbp), %rax
 584 0670 4889C7   		movq	%rax, %rdi
 585 0673 E8000000 		call	mbedtls_free@PLT
 585      00
 586              	.L31:
 236:/home/xingli/share/LiteOS_Lab/network/dtls/mbedtls/mbedtls_port/dtls_interface.c ****     }
GAS LISTING /tmp/ccHSWKEC.s 			page 19


 237:/home/xingli/share/LiteOS_Lab/network/dtls/mbedtls/mbedtls_port/dtls_interface.c **** #endif
 238:/home/xingli/share/LiteOS_Lab/network/dtls/mbedtls/mbedtls_port/dtls_interface.c **** 
 239:/home/xingli/share/LiteOS_Lab/network/dtls/mbedtls/mbedtls_port/dtls_interface.c ****     if (ssl) {
 587              		.loc 1 239 8
 588 0678 48837DB8 		cmpq	$0, -72(%rbp)
 588      00
 589 067d 7418     		je	.L32
 240:/home/xingli/share/LiteOS_Lab/network/dtls/mbedtls/mbedtls_port/dtls_interface.c ****         mbedtls_ssl_free(ssl);
 590              		.loc 1 240 9
 591 067f 488B45B8 		movq	-72(%rbp), %rax
 592 0683 4889C7   		movq	%rax, %rdi
 593 0686 E8000000 		call	mbedtls_ssl_free@PLT
 593      00
 241:/home/xingli/share/LiteOS_Lab/network/dtls/mbedtls/mbedtls_port/dtls_interface.c ****         mbedtls_free(ssl);
 594              		.loc 1 241 9
 595 068b 488B45B8 		movq	-72(%rbp), %rax
 596 068f 4889C7   		movq	%rax, %rdi
 597 0692 E8000000 		call	mbedtls_free@PLT
 597      00
 598              	.L32:
 242:/home/xingli/share/LiteOS_Lab/network/dtls/mbedtls/mbedtls_port/dtls_interface.c ****     }
 243:/home/xingli/share/LiteOS_Lab/network/dtls/mbedtls/mbedtls_port/dtls_interface.c ****     return NULL;
 599              		.loc 1 243 12
 600 0697 B8000000 		movl	$0, %eax
 600      00
 601              	.L24:
 244:/home/xingli/share/LiteOS_Lab/network/dtls/mbedtls/mbedtls_port/dtls_interface.c **** }
 602              		.loc 1 244 1
 603 069c 488B5DE8 		movq	-24(%rbp), %rbx
 604 06a0 6448331C 		xorq	%fs:40, %rbx
 604      25280000 
 604      00
 605 06a9 7405     		je	.L33
 606 06ab E8000000 		call	__stack_chk_fail@PLT
 606      00
 607              	.L33:
 608 06b0 4883C470 		addq	$112, %rsp
 609 06b4 5B       		popq	%rbx
 610 06b5 415C     		popq	%r12
 611 06b7 5D       		popq	%rbp
 612              	.LCFI2:
 613              		.cfi_def_cfa 7, 8
 614 06b8 C3       		ret
 615              		.cfi_endproc
 616              	.LFE27:
 618              		.section	.text.dtls_gettime,"ax",@progbits
 620              	dtls_gettime:
 621              	.LFB28:
 245:/home/xingli/share/LiteOS_Lab/network/dtls/mbedtls/mbedtls_port/dtls_interface.c **** 
 246:/home/xingli/share/LiteOS_Lab/network/dtls/mbedtls/mbedtls_port/dtls_interface.c **** static inline uint32_t dtls_gettime()
 247:/home/xingli/share/LiteOS_Lab/network/dtls/mbedtls/mbedtls_port/dtls_interface.c **** {
 622              		.loc 1 247 1
 623              		.cfi_startproc
 624 0000 55       		pushq	%rbp
 625              	.LCFI3:
 626              		.cfi_def_cfa_offset 16
 627              		.cfi_offset 6, -16
GAS LISTING /tmp/ccHSWKEC.s 			page 20


 628 0001 4889E5   		movq	%rsp, %rbp
 629              	.LCFI4:
 630              		.cfi_def_cfa_register 6
 631 0004 4883EC10 		subq	$16, %rsp
 632              		.loc 1 247 1
 633 0008 64488B04 		movq	%fs:40, %rax
 633      25280000 
 633      00
 634 0011 488945F8 		movq	%rax, -8(%rbp)
 635 0015 31C0     		xorl	%eax, %eax
 248:/home/xingli/share/LiteOS_Lab/network/dtls/mbedtls/mbedtls_port/dtls_interface.c ****     return (uint32_t)(osal_sys_time());
 636              		.loc 1 248 23
 637 0017 E8000000 		call	osal_sys_time@PLT
 637      00
 249:/home/xingli/share/LiteOS_Lab/network/dtls/mbedtls/mbedtls_port/dtls_interface.c **** }
 638              		.loc 1 249 1
 639 001c 488B55F8 		movq	-8(%rbp), %rdx
 640 0020 64483314 		xorq	%fs:40, %rdx
 640      25280000 
 640      00
 641 0029 7405     		je	.L44
 642 002b E8000000 		call	__stack_chk_fail@PLT
 642      00
 643              	.L44:
 644 0030 C9       		leave
 645              	.LCFI5:
 646              		.cfi_def_cfa 7, 8
 647 0031 C3       		ret
 648              		.cfi_endproc
 649              	.LFE28:
 651              		.section	.rodata
 652 0109 00000000 		.align 8
 652      000000
 653              	.LC6:
 654 0110 5B25735D 		.string	"[%s][%u][%s] connecting to server\r\n"
 654      5B25755D 
 654      5B25735D 
 654      20636F6E 
 654      6E656374 
 655 0134 00000000 		.align 8
 656              	.LC7:
 657 0138 5B25735D 		.string	"[%s][%u][%s] connect failed! mode %d\r\n"
 657      5B25755D 
 657      5B25735D 
 657      20636F6E 
 657      6E656374 
 658 015f 00       		.align 8
 659              	.LC8:
 660 0160 5B25735D 		.string	"[%s][%u][%s] performing the SSL/TLS handshake\r\n"
 660      5B25755D 
 660      5B25735D 
 660      20706572 
 660      666F726D 
 661              		.align 8
 662              	.LC9:
 663 0190 5B25735D 		.string	"[%s][%u][%s] mbedtls_ssl_handshake failed: -0x%x\r\n"
 663      5B25755D 
GAS LISTING /tmp/ccHSWKEC.s 			page 21


 663      5B25735D 
 663      206D6265 
 663      64746C73 
 664              	.LC10:
 665 01c3 20202120 		.string	"  ! "
 665      00
 666              		.align 8
 667              	.LC11:
 668 01c8 5B25735D 		.string	"[%s][%u][%s] cert verify failed: %s\r\n"
 668      5B25755D 
 668      5B25735D 
 668      20636572 
 668      74207665 
 669 01ee 0000     		.align 8
 670              	.LC12:
 671 01f0 5B25735D 		.string	"[%s][%u][%s] cert verify succeed\r\n"
 671      5B25755D 
 671      5B25735D 
 671      20636572 
 671      74207665 
 672 0213 00000000 		.align 8
 672      00
 673              	.LC13:
 674 0218 5B25735D 		.string	"[%s][%u][%s] handshake succeed\r\n"
 674      5B25755D 
 674      5B25735D 
 674      2068616E 
 674      64736861 
 675              		.section	.text.dtls_shakehand,"ax",@progbits
 676              		.globl	dtls_shakehand
 678              	dtls_shakehand:
 679              	.LFB29:
 250:/home/xingli/share/LiteOS_Lab/network/dtls/mbedtls/mbedtls_port/dtls_interface.c **** 
 251:/home/xingli/share/LiteOS_Lab/network/dtls/mbedtls/mbedtls_port/dtls_interface.c **** int dtls_shakehand(mbedtls_ssl_context *ssl, const dtls_shakehand_info_s *info)
 252:/home/xingli/share/LiteOS_Lab/network/dtls/mbedtls/mbedtls_port/dtls_interface.c **** {
 680              		.loc 1 252 1
 681              		.cfi_startproc
 682 0000 F30F1EFA 		endbr64
 683 0004 55       		pushq	%rbp
 684              	.LCFI6:
 685              		.cfi_def_cfa_offset 16
 686              		.cfi_offset 6, -16
 687 0005 4889E5   		movq	%rsp, %rbp
 688              	.LCFI7:
 689              		.cfi_def_cfa_register 6
 690 0008 4154     		pushq	%r12
 691 000a 53       		pushq	%rbx
 692 000b 4881EC40 		subq	$576, %rsp
 692      020000
 693              		.cfi_offset 12, -24
 694              		.cfi_offset 3, -32
 695 0012 4889BDB8 		movq	%rdi, -584(%rbp)
 695      FDFFFF
 696 0019 4889B5B0 		movq	%rsi, -592(%rbp)
 696      FDFFFF
 697              		.loc 1 252 1
 698 0020 64488B04 		movq	%fs:40, %rax
GAS LISTING /tmp/ccHSWKEC.s 			page 22


 698      25280000 
 698      00
 699 0029 488945E8 		movq	%rax, -24(%rbp)
 700 002d 31C0     		xorl	%eax, %eax
 253:/home/xingli/share/LiteOS_Lab/network/dtls/mbedtls/mbedtls_port/dtls_interface.c ****     int ret = MBEDTLS_ERR_NET_CONNECT_FAILED;
 701              		.loc 1 253 9
 702 002f C785C8FD 		movl	$-68, -568(%rbp)
 702      FFFFBCFF 
 702      FFFF
 254:/home/xingli/share/LiteOS_Lab/network/dtls/mbedtls/mbedtls_port/dtls_interface.c ****     uint32_t change_value = 0;
 703              		.loc 1 254 14
 704 0039 C785CCFD 		movl	$0, -564(%rbp)
 704      FFFF0000 
 704      0000
 255:/home/xingli/share/LiteOS_Lab/network/dtls/mbedtls/mbedtls_port/dtls_interface.c ****     mbedtls_net_context *server_fd = NULL;
 705              		.loc 1 255 26
 706 0043 48C785D8 		movq	$0, -552(%rbp)
 706      FDFFFF00 
 706      000000
 256:/home/xingli/share/LiteOS_Lab/network/dtls/mbedtls/mbedtls_port/dtls_interface.c ****     uint32_t max_value;
 257:/home/xingli/share/LiteOS_Lab/network/dtls/mbedtls/mbedtls_port/dtls_interface.c **** #if defined(MBEDTLS_X509_CRT_PARSE_C)
 258:/home/xingli/share/LiteOS_Lab/network/dtls/mbedtls/mbedtls_port/dtls_interface.c ****     unsigned int flags;
 259:/home/xingli/share/LiteOS_Lab/network/dtls/mbedtls/mbedtls_port/dtls_interface.c **** #endif
 260:/home/xingli/share/LiteOS_Lab/network/dtls/mbedtls/mbedtls_port/dtls_interface.c **** 
 261:/home/xingli/share/LiteOS_Lab/network/dtls/mbedtls/mbedtls_port/dtls_interface.c ****     MBEDTLS_LOG("connecting to server");
 707              		.loc 1 261 5
 708 004e E8000000 		call	link_log_level_get@PLT
 708      00
 709 0053 83F801   		cmpl	$1, %eax
 710 0056 773D     		ja	.L46
 711              		.loc 1 261 5 is_stmt 0 discriminator 1
 712 0058 E8000000 		call	osal_sys_time@PLT
 712      00
 713 005d 89C3     		movl	%eax, %ebx
 714 005f BF010000 		movl	$1, %edi
 714      00
 715 0064 E8000000 		call	link_log_level_name@PLT
 715      00
 716 0069 488D0D00 		leaq	__FUNCTION__.6293(%rip), %rcx
 716      000000
 717 0070 89DA     		movl	%ebx, %edx
 718 0072 4889C6   		movq	%rax, %rsi
 719 0075 488D3D00 		leaq	.LC6(%rip), %rdi
 719      000000
 720 007c B8000000 		movl	$0, %eax
 720      00
 721 0081 E8000000 		call	printf@PLT
 721      00
 722 0086 488B0500 		movq	stdout(%rip), %rax
 722      000000
 723 008d 4889C7   		movq	%rax, %rdi
 724 0090 E8000000 		call	fflush@PLT
 724      00
 725              	.L46:
 262:/home/xingli/share/LiteOS_Lab/network/dtls/mbedtls/mbedtls_port/dtls_interface.c **** 
 263:/home/xingli/share/LiteOS_Lab/network/dtls/mbedtls/mbedtls_port/dtls_interface.c ****     server_fd = (mbedtls_net_context *)osal_malloc(sizeof(mbedtls_net_context));
 726              		.loc 1 263 40 is_stmt 1
GAS LISTING /tmp/ccHSWKEC.s 			page 23


 727 0095 BF040000 		movl	$4, %edi
 727      00
 728 009a E8000000 		call	osal_malloc@PLT
 728      00
 729 009f 488985D8 		movq	%rax, -552(%rbp)
 729      FDFFFF
 264:/home/xingli/share/LiteOS_Lab/network/dtls/mbedtls/mbedtls_port/dtls_interface.c ****     if (server_fd == NULL) {
 730              		.loc 1 264 8
 731 00a6 4883BDD8 		cmpq	$0, -552(%rbp)
 731      FDFFFF00 
 732 00ae 7565     		jne	.L47
 265:/home/xingli/share/LiteOS_Lab/network/dtls/mbedtls/mbedtls_port/dtls_interface.c ****         MBEDTLS_LOG("connect failed! mode %d", info->client_or_server);
 733              		.loc 1 265 9
 734 00b0 E8000000 		call	link_log_level_get@PLT
 734      00
 735 00b5 83F801   		cmpl	$1, %eax
 736 00b8 774C     		ja	.L48
 737              		.loc 1 265 9 is_stmt 0 discriminator 1
 738 00ba 488B85B0 		movq	-592(%rbp), %rax
 738      FDFFFF
 739 00c1 8B5814   		movl	20(%rax), %ebx
 740 00c4 E8000000 		call	osal_sys_time@PLT
 740      00
 741 00c9 4189C4   		movl	%eax, %r12d
 742 00cc BF010000 		movl	$1, %edi
 742      00
 743 00d1 E8000000 		call	link_log_level_name@PLT
 743      00
 744 00d6 4189D8   		movl	%ebx, %r8d
 745 00d9 488D0D00 		leaq	__FUNCTION__.6293(%rip), %rcx
 745      000000
 746 00e0 4489E2   		movl	%r12d, %edx
 747 00e3 4889C6   		movq	%rax, %rsi
 748 00e6 488D3D00 		leaq	.LC7(%rip), %rdi
 748      000000
 749 00ed B8000000 		movl	$0, %eax
 749      00
 750 00f2 E8000000 		call	printf@PLT
 750      00
 751 00f7 488B0500 		movq	stdout(%rip), %rax
 751      000000
 752 00fe 4889C7   		movq	%rax, %rdi
 753 0101 E8000000 		call	fflush@PLT
 753      00
 754              	.L48:
 266:/home/xingli/share/LiteOS_Lab/network/dtls/mbedtls/mbedtls_port/dtls_interface.c ****         ret = MBEDTLS_ERR_NET_CONNECT_FAILED;
 755              		.loc 1 266 13 is_stmt 1
 756 0106 C785C8FD 		movl	$-68, -568(%rbp)
 756      FFFFBCFF 
 756      FFFF
 267:/home/xingli/share/LiteOS_Lab/network/dtls/mbedtls/mbedtls_port/dtls_interface.c ****         goto exit_fail;
 757              		.loc 1 267 9
 758 0110 E9A30300 		jmp	.L49
 758      00
 759              	.L47:
 268:/home/xingli/share/LiteOS_Lab/network/dtls/mbedtls/mbedtls_port/dtls_interface.c ****     }
 269:/home/xingli/share/LiteOS_Lab/network/dtls/mbedtls/mbedtls_port/dtls_interface.c **** 
GAS LISTING /tmp/ccHSWKEC.s 			page 24


 270:/home/xingli/share/LiteOS_Lab/network/dtls/mbedtls/mbedtls_port/dtls_interface.c ****     if (MBEDTLS_SSL_IS_CLIENT == info->client_or_server) {
 760              		.loc 1 270 38
 761 0115 488B85B0 		movq	-592(%rbp), %rax
 761      FDFFFF
 762 011c 8B4014   		movl	20(%rax), %eax
 763              		.loc 1 270 8
 764 011f 85C0     		testl	%eax, %eax
 765 0121 754C     		jne	.L50
 271:/home/xingli/share/LiteOS_Lab/network/dtls/mbedtls/mbedtls_port/dtls_interface.c ****         ret = mbedtls_net_connect(server_fd, info->u.c.host, info->u.c.port, info->udp_or_tcp);
 766              		.loc 1 271 15
 767 0123 488B85B0 		movq	-592(%rbp), %rax
 767      FDFFFF
 768 012a 8B4818   		movl	24(%rax), %ecx
 769 012d 488B85B0 		movq	-592(%rbp), %rax
 769      FDFFFF
 770 0134 488B5008 		movq	8(%rax), %rdx
 771 0138 488B85B0 		movq	-592(%rbp), %rax
 771      FDFFFF
 772 013f 488B30   		movq	(%rax), %rsi
 773 0142 488B85D8 		movq	-552(%rbp), %rax
 773      FDFFFF
 774 0149 4889C7   		movq	%rax, %rdi
 775 014c E8000000 		call	mbedtls_net_connect@PLT
 775      00
 776 0151 8985C8FD 		movl	%eax, -568(%rbp)
 776      FFFF
 272:/home/xingli/share/LiteOS_Lab/network/dtls/mbedtls/mbedtls_port/dtls_interface.c ****         if (0 != ret) {
 777              		.loc 1 272 12
 778 0157 83BDC8FD 		cmpl	$0, -568(%rbp)
 778      FFFF00
 779 015e 740F     		je	.L50
 273:/home/xingli/share/LiteOS_Lab/network/dtls/mbedtls/mbedtls_port/dtls_interface.c ****             ret = MBEDTLS_ERR_NET_CONNECT_FAILED;
 780              		.loc 1 273 17
 781 0160 C785C8FD 		movl	$-68, -568(%rbp)
 781      FFFFBCFF 
 781      FFFF
 274:/home/xingli/share/LiteOS_Lab/network/dtls/mbedtls/mbedtls_port/dtls_interface.c ****             goto exit_fail;
 782              		.loc 1 274 13
 783 016a E9490300 		jmp	.L49
 783      00
 784              	.L50:
 275:/home/xingli/share/LiteOS_Lab/network/dtls/mbedtls/mbedtls_port/dtls_interface.c ****         }
 276:/home/xingli/share/LiteOS_Lab/network/dtls/mbedtls/mbedtls_port/dtls_interface.c ****     } else {
 277:/home/xingli/share/LiteOS_Lab/network/dtls/mbedtls/mbedtls_port/dtls_interface.c ****         // server_fd = (mbedtls_net_context*)atiny_net_bind(NULL, info->u.s.local_port, MBEDTLS_NET
 278:/home/xingli/share/LiteOS_Lab/network/dtls/mbedtls/mbedtls_port/dtls_interface.c ****         // /< --TODO ,not implement yet
 279:/home/xingli/share/LiteOS_Lab/network/dtls/mbedtls/mbedtls_port/dtls_interface.c ****     }
 280:/home/xingli/share/LiteOS_Lab/network/dtls/mbedtls/mbedtls_port/dtls_interface.c **** 
 281:/home/xingli/share/LiteOS_Lab/network/dtls/mbedtls/mbedtls_port/dtls_interface.c ****     mbedtls_ssl_set_bio(ssl, server_fd, mbedtls_net_send, mbedtls_net_recv, mbedtls_net_recv_timeou
 785              		.loc 1 281 5
 786 016f 488BB5D8 		movq	-552(%rbp), %rsi
 786      FDFFFF
 787 0176 488B85B8 		movq	-584(%rbp), %rax
 787      FDFFFF
 788 017d 488B1500 		movq	mbedtls_net_recv_timeout@GOTPCREL(%rip), %rdx
 788      000000
 789 0184 4989D0   		movq	%rdx, %r8
 790 0187 488B1500 		movq	mbedtls_net_recv@GOTPCREL(%rip), %rdx
GAS LISTING /tmp/ccHSWKEC.s 			page 25


 790      000000
 791 018e 4889D1   		movq	%rdx, %rcx
 792 0191 488B1500 		movq	mbedtls_net_send@GOTPCREL(%rip), %rdx
 792      000000
 793 0198 4889C7   		movq	%rax, %rdi
 794 019b E8000000 		call	mbedtls_ssl_set_bio@PLT
 794      00
 282:/home/xingli/share/LiteOS_Lab/network/dtls/mbedtls/mbedtls_port/dtls_interface.c **** 
 283:/home/xingli/share/LiteOS_Lab/network/dtls/mbedtls/mbedtls_port/dtls_interface.c ****     MBEDTLS_LOG("performing the SSL/TLS handshake");
 795              		.loc 1 283 5
 796 01a0 E8000000 		call	link_log_level_get@PLT
 796      00
 797 01a5 83F801   		cmpl	$1, %eax
 798 01a8 773D     		ja	.L51
 799              		.loc 1 283 5 is_stmt 0 discriminator 1
 800 01aa E8000000 		call	osal_sys_time@PLT
 800      00
 801 01af 89C3     		movl	%eax, %ebx
 802 01b1 BF010000 		movl	$1, %edi
 802      00
 803 01b6 E8000000 		call	link_log_level_name@PLT
 803      00
 804 01bb 488D0D00 		leaq	__FUNCTION__.6293(%rip), %rcx
 804      000000
 805 01c2 89DA     		movl	%ebx, %edx
 806 01c4 4889C6   		movq	%rax, %rsi
 807 01c7 488D3D00 		leaq	.LC8(%rip), %rdi
 807      000000
 808 01ce B8000000 		movl	$0, %eax
 808      00
 809 01d3 E8000000 		call	printf@PLT
 809      00
 810 01d8 488B0500 		movq	stdout(%rip), %rax
 810      000000
 811 01df 4889C7   		movq	%rax, %rdi
 812 01e2 E8000000 		call	fflush@PLT
 812      00
 813              	.L51:
 284:/home/xingli/share/LiteOS_Lab/network/dtls/mbedtls/mbedtls_port/dtls_interface.c **** 
 285:/home/xingli/share/LiteOS_Lab/network/dtls/mbedtls/mbedtls_port/dtls_interface.c ****     max_value = ((MBEDTLS_SSL_IS_SERVER == info->client_or_server || info->udp_or_tcp == MBEDTLS_NE
 814              		.loc 1 285 48 is_stmt 1
 815 01e7 488B85B0 		movq	-592(%rbp), %rax
 815      FDFFFF
 816 01ee 8B4014   		movl	20(%rax), %eax
 286:/home/xingli/share/LiteOS_Lab/network/dtls/mbedtls/mbedtls_port/dtls_interface.c ****         (dtls_gettime() + info->timeout) :
 817              		.loc 1 286 42
 818 01f1 83F801   		cmpl	$1, %eax
 819 01f4 740F     		je	.L52
 285:/home/xingli/share/LiteOS_Lab/network/dtls/mbedtls/mbedtls_port/dtls_interface.c ****         (dtls_gettime() + info->timeout) :
 820              		.loc 1 285 74
 821 01f6 488B85B0 		movq	-592(%rbp), %rax
 821      FDFFFF
 822 01fd 8B4018   		movl	24(%rax), %eax
 285:/home/xingli/share/LiteOS_Lab/network/dtls/mbedtls/mbedtls_port/dtls_interface.c ****         (dtls_gettime() + info->timeout) :
 823              		.loc 1 285 67
 824 0200 83F801   		cmpl	$1, %eax
 825 0203 7518     		jne	.L53
GAS LISTING /tmp/ccHSWKEC.s 			page 26


 826              	.L52:
 827              		.loc 1 286 10 discriminator 1
 828 0205 B8000000 		movl	$0, %eax
 828      00
 829 020a E8000000 		call	dtls_gettime
 829      00
 830              		.loc 1 286 31 discriminator 1
 831 020f 488B95B0 		movq	-592(%rbp), %rdx
 831      FDFFFF
 832 0216 8B5210   		movl	16(%rdx), %edx
 833              		.loc 1 286 42 discriminator 1
 834 0219 01D0     		addl	%edx, %eax
 835 021b EB05     		jmp	.L54
 836              	.L53:
 837              		.loc 1 286 42 is_stmt 0
 838 021d B8320000 		movl	$50, %eax
 838      00
 839              	.L54:
 285:/home/xingli/share/LiteOS_Lab/network/dtls/mbedtls/mbedtls_port/dtls_interface.c ****         (dtls_gettime() + info->timeout) :
 840              		.loc 1 285 15 is_stmt 1
 841 0222 8985D0FD 		movl	%eax, -560(%rbp)
 841      FFFF
 842              	.L60:
 287:/home/xingli/share/LiteOS_Lab/network/dtls/mbedtls/mbedtls_port/dtls_interface.c ****         50);
 288:/home/xingli/share/LiteOS_Lab/network/dtls/mbedtls/mbedtls_port/dtls_interface.c **** 
 289:/home/xingli/share/LiteOS_Lab/network/dtls/mbedtls/mbedtls_port/dtls_interface.c ****     do {
 290:/home/xingli/share/LiteOS_Lab/network/dtls/mbedtls/mbedtls_port/dtls_interface.c ****         ret = mbedtls_ssl_handshake(ssl);
 843              		.loc 1 290 15
 844 0228 488B85B8 		movq	-584(%rbp), %rax
 844      FDFFFF
 845 022f 4889C7   		movq	%rax, %rdi
 846 0232 E8000000 		call	mbedtls_ssl_handshake@PLT
 846      00
 847 0237 8985C8FD 		movl	%eax, -568(%rbp)
 847      FFFF
 291:/home/xingli/share/LiteOS_Lab/network/dtls/mbedtls/mbedtls_port/dtls_interface.c **** 
 292:/home/xingli/share/LiteOS_Lab/network/dtls/mbedtls/mbedtls_port/dtls_interface.c ****         if (MBEDTLS_SSL_IS_CLIENT == info->client_or_server && info->udp_or_tcp == MBEDTLS_NET_PROT
 848              		.loc 1 292 42
 849 023d 488B85B0 		movq	-592(%rbp), %rax
 849      FDFFFF
 850 0244 8B4014   		movl	20(%rax), %eax
 851              		.loc 1 292 12
 852 0247 85C0     		testl	%eax, %eax
 853 0249 7517     		jne	.L55
 854              		.loc 1 292 68 discriminator 1
 855 024b 488B85B0 		movq	-592(%rbp), %rax
 855      FDFFFF
 856 0252 8B4018   		movl	24(%rax), %eax
 857              		.loc 1 292 61 discriminator 1
 858 0255 85C0     		testl	%eax, %eax
 859 0257 7509     		jne	.L55
 293:/home/xingli/share/LiteOS_Lab/network/dtls/mbedtls/mbedtls_port/dtls_interface.c ****             change_value++;
 860              		.loc 1 293 25
 861 0259 8385CCFD 		addl	$1, -564(%rbp)
 861      FFFF01
 862 0260 EB10     		jmp	.L56
 863              	.L55:
GAS LISTING /tmp/ccHSWKEC.s 			page 27


 294:/home/xingli/share/LiteOS_Lab/network/dtls/mbedtls/mbedtls_port/dtls_interface.c ****         } else {
 295:/home/xingli/share/LiteOS_Lab/network/dtls/mbedtls/mbedtls_port/dtls_interface.c ****             change_value = dtls_gettime();
 864              		.loc 1 295 28
 865 0262 B8000000 		movl	$0, %eax
 865      00
 866 0267 E8000000 		call	dtls_gettime
 866      00
 867 026c 8985CCFD 		movl	%eax, -564(%rbp)
 867      FFFF
 868              	.L56:
 296:/home/xingli/share/LiteOS_Lab/network/dtls/mbedtls/mbedtls_port/dtls_interface.c ****         }
 297:/home/xingli/share/LiteOS_Lab/network/dtls/mbedtls/mbedtls_port/dtls_interface.c **** 
 298:/home/xingli/share/LiteOS_Lab/network/dtls/mbedtls/mbedtls_port/dtls_interface.c ****         if (info->step_notify) {
 869              		.loc 1 298 17
 870 0272 488B85B0 		movq	-592(%rbp), %rax
 870      FDFFFF
 871 0279 488B4020 		movq	32(%rax), %rax
 872              		.loc 1 298 12
 873 027d 4885C0   		testq	%rax, %rax
 874 0280 741B     		je	.L57
 299:/home/xingli/share/LiteOS_Lab/network/dtls/mbedtls/mbedtls_port/dtls_interface.c ****             info->step_notify(info->param);
 875              		.loc 1 299 17
 876 0282 488B85B0 		movq	-592(%rbp), %rax
 876      FDFFFF
 877 0289 488B5020 		movq	32(%rax), %rdx
 878              		.loc 1 299 13
 879 028d 488B85B0 		movq	-592(%rbp), %rax
 879      FDFFFF
 880 0294 488B4030 		movq	48(%rax), %rax
 881 0298 4889C7   		movq	%rax, %rdi
 882 029b FFD2     		call	*%rdx
 883              	.LVL0:
 884              	.L57:
 300:/home/xingli/share/LiteOS_Lab/network/dtls/mbedtls/mbedtls_port/dtls_interface.c ****         }
 301:/home/xingli/share/LiteOS_Lab/network/dtls/mbedtls/mbedtls_port/dtls_interface.c ****     } while ((ret == MBEDTLS_ERR_SSL_WANT_READ || ret == MBEDTLS_ERR_SSL_WANT_WRITE ||
 302:/home/xingli/share/LiteOS_Lab/network/dtls/mbedtls/mbedtls_port/dtls_interface.c ****         (ret == MBEDTLS_ERR_SSL_TIMEOUT && info->udp_or_tcp == MBEDTLS_NET_PROTO_TCP)) &&
 303:/home/xingli/share/LiteOS_Lab/network/dtls/mbedtls/mbedtls_port/dtls_interface.c ****         (change_value < max_value));
 885              		.loc 1 303 9
 886 029d 81BDC8FD 		cmpl	$-26880, -568(%rbp)
 886      FFFF0097 
 886      FFFF
 887 02a7 7426     		je	.L58
 301:/home/xingli/share/LiteOS_Lab/network/dtls/mbedtls/mbedtls_port/dtls_interface.c ****         (ret == MBEDTLS_ERR_SSL_TIMEOUT && info->udp_or_tcp == MBEDTLS_NET_PROTO_TCP)) &&
 888              		.loc 1 301 48
 889 02a9 81BDC8FD 		cmpl	$-26752, -568(%rbp)
 889      FFFF8097 
 889      FFFF
 890 02b3 741A     		je	.L58
 301:/home/xingli/share/LiteOS_Lab/network/dtls/mbedtls/mbedtls_port/dtls_interface.c ****         (ret == MBEDTLS_ERR_SSL_TIMEOUT && info->udp_or_tcp == MBEDTLS_NET_PROTO_TCP)) &&
 891              		.loc 1 301 85 discriminator 1
 892 02b5 81BDC8FD 		cmpl	$-26624, -568(%rbp)
 892      FFFF0098 
 892      FFFF
 893 02bf 7520     		jne	.L59
 302:/home/xingli/share/LiteOS_Lab/network/dtls/mbedtls/mbedtls_port/dtls_interface.c ****         (change_value < max_value));
 894              		.loc 1 302 48
 895 02c1 488B85B0 		movq	-592(%rbp), %rax
GAS LISTING /tmp/ccHSWKEC.s 			page 28


 895      FDFFFF
 896 02c8 8B4018   		movl	24(%rax), %eax
 302:/home/xingli/share/LiteOS_Lab/network/dtls/mbedtls/mbedtls_port/dtls_interface.c ****         (change_value < max_value));
 897              		.loc 1 302 41
 898 02cb 85C0     		testl	%eax, %eax
 899 02cd 7512     		jne	.L59
 900              	.L58:
 302:/home/xingli/share/LiteOS_Lab/network/dtls/mbedtls/mbedtls_port/dtls_interface.c ****         (change_value < max_value));
 901              		.loc 1 302 88 discriminator 1
 902 02cf 8B85CCFD 		movl	-564(%rbp), %eax
 902      FFFF
 903 02d5 3B85D0FD 		cmpl	-560(%rbp), %eax
 903      FFFF
 904 02db 0F8247FF 		jb	.L60
 904      FFFF
 905              	.L59:
 304:/home/xingli/share/LiteOS_Lab/network/dtls/mbedtls/mbedtls_port/dtls_interface.c **** 
 305:/home/xingli/share/LiteOS_Lab/network/dtls/mbedtls/mbedtls_port/dtls_interface.c ****     if (info->finish_notify) {
 906              		.loc 1 305 13
 907 02e1 488B85B0 		movq	-592(%rbp), %rax
 907      FDFFFF
 908 02e8 488B4028 		movq	40(%rax), %rax
 909              		.loc 1 305 8
 910 02ec 4885C0   		testq	%rax, %rax
 911 02ef 741B     		je	.L61
 306:/home/xingli/share/LiteOS_Lab/network/dtls/mbedtls/mbedtls_port/dtls_interface.c ****         info->finish_notify(info->param);
 912              		.loc 1 306 13
 913 02f1 488B85B0 		movq	-592(%rbp), %rax
 913      FDFFFF
 914 02f8 488B5028 		movq	40(%rax), %rdx
 915              		.loc 1 306 9
 916 02fc 488B85B0 		movq	-592(%rbp), %rax
 916      FDFFFF
 917 0303 488B4030 		movq	48(%rax), %rax
 918 0307 4889C7   		movq	%rax, %rdi
 919 030a FFD2     		call	*%rdx
 920              	.LVL1:
 921              	.L61:
 307:/home/xingli/share/LiteOS_Lab/network/dtls/mbedtls/mbedtls_port/dtls_interface.c ****     }
 308:/home/xingli/share/LiteOS_Lab/network/dtls/mbedtls/mbedtls_port/dtls_interface.c **** 
 309:/home/xingli/share/LiteOS_Lab/network/dtls/mbedtls/mbedtls_port/dtls_interface.c ****     if (ret != 0) {
 922              		.loc 1 309 8
 923 030c 83BDC8FD 		cmpl	$0, -568(%rbp)
 923      FFFF00
 924 0313 745F     		je	.L62
 310:/home/xingli/share/LiteOS_Lab/network/dtls/mbedtls/mbedtls_port/dtls_interface.c ****         MBEDTLS_LOG("mbedtls_ssl_handshake failed: -0x%x", -ret);
 925              		.loc 1 310 9
 926 0315 E8000000 		call	link_log_level_get@PLT
 926      00
 927 031a 83F801   		cmpl	$1, %eax
 928 031d 0F879401 		ja	.L71
 928      0000
 929              		.loc 1 310 9 is_stmt 0 discriminator 1
 930 0323 8B85C8FD 		movl	-568(%rbp), %eax
 930      FFFF
 931 0329 F7D8     		negl	%eax
 932 032b 89C3     		movl	%eax, %ebx
GAS LISTING /tmp/ccHSWKEC.s 			page 29


 933 032d E8000000 		call	osal_sys_time@PLT
 933      00
 934 0332 4189C4   		movl	%eax, %r12d
 935 0335 BF010000 		movl	$1, %edi
 935      00
 936 033a E8000000 		call	link_log_level_name@PLT
 936      00
 937 033f 4189D8   		movl	%ebx, %r8d
 938 0342 488D0D00 		leaq	__FUNCTION__.6293(%rip), %rcx
 938      000000
 939 0349 4489E2   		movl	%r12d, %edx
 940 034c 4889C6   		movq	%rax, %rsi
 941 034f 488D3D00 		leaq	.LC9(%rip), %rdi
 941      000000
 942 0356 B8000000 		movl	$0, %eax
 942      00
 943 035b E8000000 		call	printf@PLT
 943      00
 944 0360 488B0500 		movq	stdout(%rip), %rax
 944      000000
 945 0367 4889C7   		movq	%rax, %rdi
 946 036a E8000000 		call	fflush@PLT
 946      00
 311:/home/xingli/share/LiteOS_Lab/network/dtls/mbedtls/mbedtls_port/dtls_interface.c ****         goto exit_fail;
 947              		.loc 1 311 9 is_stmt 1 discriminator 1
 948 036f E9430100 		jmp	.L71
 948      00
 949              	.L62:
 312:/home/xingli/share/LiteOS_Lab/network/dtls/mbedtls/mbedtls_port/dtls_interface.c ****     }
 313:/home/xingli/share/LiteOS_Lab/network/dtls/mbedtls/mbedtls_port/dtls_interface.c **** 
 314:/home/xingli/share/LiteOS_Lab/network/dtls/mbedtls/mbedtls_port/dtls_interface.c **** #if defined(MBEDTLS_X509_CRT_PARSE_C)
 315:/home/xingli/share/LiteOS_Lab/network/dtls/mbedtls/mbedtls_port/dtls_interface.c ****     if (info->psk_or_cert == VERIFY_WITH_CERT) {
 950              		.loc 1 315 13
 951 0374 488B85B0 		movq	-592(%rbp), %rax
 951      FDFFFF
 952 037b 8B401C   		movl	28(%rax), %eax
 953              		.loc 1 315 8
 954 037e 83F801   		cmpl	$1, %eax
 955 0381 0F85E200 		jne	.L64
 955      0000
 316:/home/xingli/share/LiteOS_Lab/network/dtls/mbedtls/mbedtls_port/dtls_interface.c ****         if ((flags = mbedtls_ssl_get_verify_result(ssl)) != 0) {
 956              		.loc 1 316 22
 957 0387 488B85B8 		movq	-584(%rbp), %rax
 957      FDFFFF
 958 038e 4889C7   		movq	%rax, %rdi
 959 0391 E8000000 		call	mbedtls_ssl_get_verify_result@PLT
 959      00
 960 0396 8985D4FD 		movl	%eax, -556(%rbp)
 960      FFFF
 961              		.loc 1 316 12
 962 039c 83BDD4FD 		cmpl	$0, -556(%rbp)
 962      FFFF00
 963 03a3 747D     		je	.L65
 964              	.LBB2:
 317:/home/xingli/share/LiteOS_Lab/network/dtls/mbedtls/mbedtls_port/dtls_interface.c ****             char vrfy_buf[512];
 318:/home/xingli/share/LiteOS_Lab/network/dtls/mbedtls/mbedtls_port/dtls_interface.c ****             (void)mbedtls_x509_crt_verify_info(vrfy_buf, sizeof(vrfy_buf), "  ! ", flags);
 965              		.loc 1 318 19
GAS LISTING /tmp/ccHSWKEC.s 			page 30


 966 03a5 8B95D4FD 		movl	-556(%rbp), %edx
 966      FFFF
 967 03ab 488D85E0 		leaq	-544(%rbp), %rax
 967      FDFFFF
 968 03b2 89D1     		movl	%edx, %ecx
 969 03b4 488D1500 		leaq	.LC10(%rip), %rdx
 969      000000
 970 03bb BE000200 		movl	$512, %esi
 970      00
 971 03c0 4889C7   		movq	%rax, %rdi
 972 03c3 E8000000 		call	mbedtls_x509_crt_verify_info@PLT
 972      00
 319:/home/xingli/share/LiteOS_Lab/network/dtls/mbedtls/mbedtls_port/dtls_interface.c ****             MBEDTLS_LOG("cert verify failed: %s", vrfy_buf);
 973              		.loc 1 319 13
 974 03c8 E8000000 		call	link_log_level_get@PLT
 974      00
 975 03cd 83F801   		cmpl	$1, %eax
 976 03d0 0F87E200 		ja	.L49
 976      0000
 977              		.loc 1 319 13 is_stmt 0 discriminator 1
 978 03d6 E8000000 		call	osal_sys_time@PLT
 978      00
 979 03db 89C3     		movl	%eax, %ebx
 980 03dd BF010000 		movl	$1, %edi
 980      00
 981 03e2 E8000000 		call	link_log_level_name@PLT
 981      00
 982 03e7 488D95E0 		leaq	-544(%rbp), %rdx
 982      FDFFFF
 983 03ee 4989D0   		movq	%rdx, %r8
 984 03f1 488D0D00 		leaq	__FUNCTION__.6293(%rip), %rcx
 984      000000
 985 03f8 89DA     		movl	%ebx, %edx
 986 03fa 4889C6   		movq	%rax, %rsi
 987 03fd 488D3D00 		leaq	.LC11(%rip), %rdi
 987      000000
 988 0404 B8000000 		movl	$0, %eax
 988      00
 989 0409 E8000000 		call	printf@PLT
 989      00
 990 040e 488B0500 		movq	stdout(%rip), %rax
 990      000000
 991 0415 4889C7   		movq	%rax, %rdi
 992 0418 E8000000 		call	fflush@PLT
 992      00
 993 041d E9960000 		jmp	.L49
 993      00
 994              	.L65:
 995              	.LBE2:
 320:/home/xingli/share/LiteOS_Lab/network/dtls/mbedtls/mbedtls_port/dtls_interface.c ****             goto exit_fail;
 321:/home/xingli/share/LiteOS_Lab/network/dtls/mbedtls/mbedtls_port/dtls_interface.c ****         } else
 322:/home/xingli/share/LiteOS_Lab/network/dtls/mbedtls/mbedtls_port/dtls_interface.c ****             MBEDTLS_LOG("cert verify succeed");
 996              		.loc 1 322 13 is_stmt 1
 997 0422 E8000000 		call	link_log_level_get@PLT
 997      00
 998 0427 83F801   		cmpl	$1, %eax
 999 042a 773D     		ja	.L64
GAS LISTING /tmp/ccHSWKEC.s 			page 31


 1000              		.loc 1 322 13 is_stmt 0 discriminator 1
 1001 042c E8000000 		call	osal_sys_time@PLT
 1001      00
 1002 0431 89C3     		movl	%eax, %ebx
 1003 0433 BF010000 		movl	$1, %edi
 1003      00
 1004 0438 E8000000 		call	link_log_level_name@PLT
 1004      00
 1005 043d 488D0D00 		leaq	__FUNCTION__.6293(%rip), %rcx
 1005      000000
 1006 0444 89DA     		movl	%ebx, %edx
 1007 0446 4889C6   		movq	%rax, %rsi
 1008 0449 488D3D00 		leaq	.LC12(%rip), %rdi
 1008      000000
 1009 0450 B8000000 		movl	$0, %eax
 1009      00
 1010 0455 E8000000 		call	printf@PLT
 1010      00
 1011 045a 488B0500 		movq	stdout(%rip), %rax
 1011      000000
 1012 0461 4889C7   		movq	%rax, %rdi
 1013 0464 E8000000 		call	fflush@PLT
 1013      00
 1014              	.L64:
 323:/home/xingli/share/LiteOS_Lab/network/dtls/mbedtls/mbedtls_port/dtls_interface.c ****     }
 324:/home/xingli/share/LiteOS_Lab/network/dtls/mbedtls/mbedtls_port/dtls_interface.c **** #endif
 325:/home/xingli/share/LiteOS_Lab/network/dtls/mbedtls/mbedtls_port/dtls_interface.c **** 
 326:/home/xingli/share/LiteOS_Lab/network/dtls/mbedtls/mbedtls_port/dtls_interface.c ****     MBEDTLS_LOG("handshake succeed");
 1015              		.loc 1 326 5 is_stmt 1
 1016 0469 E8000000 		call	link_log_level_get@PLT
 1016      00
 1017 046e 83F801   		cmpl	$1, %eax
 1018 0471 773D     		ja	.L67
 1019              		.loc 1 326 5 is_stmt 0 discriminator 1
 1020 0473 E8000000 		call	osal_sys_time@PLT
 1020      00
 1021 0478 89C3     		movl	%eax, %ebx
 1022 047a BF010000 		movl	$1, %edi
 1022      00
 1023 047f E8000000 		call	link_log_level_name@PLT
 1023      00
 1024 0484 488D0D00 		leaq	__FUNCTION__.6293(%rip), %rcx
 1024      000000
 1025 048b 89DA     		movl	%ebx, %edx
 1026 048d 4889C6   		movq	%rax, %rsi
 1027 0490 488D3D00 		leaq	.LC13(%rip), %rdi
 1027      000000
 1028 0497 B8000000 		movl	$0, %eax
 1028      00
 1029 049c E8000000 		call	printf@PLT
 1029      00
 1030 04a1 488B0500 		movq	stdout(%rip), %rax
 1030      000000
 1031 04a8 4889C7   		movq	%rax, %rdi
 1032 04ab E8000000 		call	fflush@PLT
 1032      00
 1033              	.L67:
GAS LISTING /tmp/ccHSWKEC.s 			page 32


 327:/home/xingli/share/LiteOS_Lab/network/dtls/mbedtls/mbedtls_port/dtls_interface.c **** 
 328:/home/xingli/share/LiteOS_Lab/network/dtls/mbedtls/mbedtls_port/dtls_interface.c ****     return 0;
 1034              		.loc 1 328 12 is_stmt 1
 1035 04b0 B8000000 		movl	$0, %eax
 1035      00
 1036 04b5 EB2F     		jmp	.L68
 1037              	.L71:
 311:/home/xingli/share/LiteOS_Lab/network/dtls/mbedtls/mbedtls_port/dtls_interface.c ****     }
 1038              		.loc 1 311 9
 1039 04b7 90       		nop
 1040              	.L49:
 329:/home/xingli/share/LiteOS_Lab/network/dtls/mbedtls/mbedtls_port/dtls_interface.c **** 
 330:/home/xingli/share/LiteOS_Lab/network/dtls/mbedtls/mbedtls_port/dtls_interface.c **** exit_fail:
 331:/home/xingli/share/LiteOS_Lab/network/dtls/mbedtls/mbedtls_port/dtls_interface.c **** 
 332:/home/xingli/share/LiteOS_Lab/network/dtls/mbedtls/mbedtls_port/dtls_interface.c ****     if (server_fd) {
 1041              		.loc 1 332 8
 1042 04b8 4883BDD8 		cmpq	$0, -552(%rbp)
 1042      FDFFFF00 
 1043 04c0 741E     		je	.L69
 333:/home/xingli/share/LiteOS_Lab/network/dtls/mbedtls/mbedtls_port/dtls_interface.c ****         mbedtls_net_free(server_fd);
 1044              		.loc 1 333 9
 1045 04c2 488B85D8 		movq	-552(%rbp), %rax
 1045      FDFFFF
 1046 04c9 4889C7   		movq	%rax, %rdi
 1047 04cc E8000000 		call	mbedtls_net_free@PLT
 1047      00
 334:/home/xingli/share/LiteOS_Lab/network/dtls/mbedtls/mbedtls_port/dtls_interface.c ****         ssl->p_bio = NULL;
 1048              		.loc 1 334 20
 1049 04d1 488B85B8 		movq	-584(%rbp), %rax
 1049      FDFFFF
 1050 04d8 48C74038 		movq	$0, 56(%rax)
 1050      00000000 
 1051              	.L69:
 335:/home/xingli/share/LiteOS_Lab/network/dtls/mbedtls/mbedtls_port/dtls_interface.c ****     }
 336:/home/xingli/share/LiteOS_Lab/network/dtls/mbedtls/mbedtls_port/dtls_interface.c **** 
 337:/home/xingli/share/LiteOS_Lab/network/dtls/mbedtls/mbedtls_port/dtls_interface.c ****     return ret;
 1052              		.loc 1 337 12
 1053 04e0 8B85C8FD 		movl	-568(%rbp), %eax
 1053      FFFF
 1054              	.L68:
 338:/home/xingli/share/LiteOS_Lab/network/dtls/mbedtls/mbedtls_port/dtls_interface.c **** }
 1055              		.loc 1 338 1
 1056 04e6 488B4DE8 		movq	-24(%rbp), %rcx
 1057 04ea 6448330C 		xorq	%fs:40, %rcx
 1057      25280000 
 1057      00
 1058 04f3 7405     		je	.L70
 1059 04f5 E8000000 		call	__stack_chk_fail@PLT
 1059      00
 1060              	.L70:
 1061 04fa 4881C440 		addq	$576, %rsp
 1061      020000
 1062 0501 5B       		popq	%rbx
 1063 0502 415C     		popq	%r12
 1064 0504 5D       		popq	%rbp
 1065              	.LCFI8:
 1066              		.cfi_def_cfa 7, 8
GAS LISTING /tmp/ccHSWKEC.s 			page 33


 1067 0505 C3       		ret
 1068              		.cfi_endproc
 1069              	.LFE29:
 1071              		.section	.text.dtls_ssl_destroy,"ax",@progbits
 1072              		.globl	dtls_ssl_destroy
 1074              	dtls_ssl_destroy:
 1075              	.LFB30:
 339:/home/xingli/share/LiteOS_Lab/network/dtls/mbedtls/mbedtls_port/dtls_interface.c **** void dtls_ssl_destroy(mbedtls_ssl_context *ssl)
 340:/home/xingli/share/LiteOS_Lab/network/dtls/mbedtls/mbedtls_port/dtls_interface.c **** {
 1076              		.loc 1 340 1
 1077              		.cfi_startproc
 1078 0000 F30F1EFA 		endbr64
 1079 0004 55       		pushq	%rbp
 1080              	.LCFI9:
 1081              		.cfi_def_cfa_offset 16
 1082              		.cfi_offset 6, -16
 1083 0005 4889E5   		movq	%rsp, %rbp
 1084              	.LCFI10:
 1085              		.cfi_def_cfa_register 6
 1086 0008 4883EC70 		subq	$112, %rsp
 1087 000c 48897D98 		movq	%rdi, -104(%rbp)
 1088              		.loc 1 340 1
 1089 0010 64488B04 		movq	%fs:40, %rax
 1089      25280000 
 1089      00
 1090 0019 488945F8 		movq	%rax, -8(%rbp)
 1091 001d 31C0     		xorl	%eax, %eax
 341:/home/xingli/share/LiteOS_Lab/network/dtls/mbedtls/mbedtls_port/dtls_interface.c ****     int ret;
 342:/home/xingli/share/LiteOS_Lab/network/dtls/mbedtls/mbedtls_port/dtls_interface.c ****     mbedtls_ssl_config *conf = NULL;
 1092              		.loc 1 342 25
 1093 001f 48C745D8 		movq	$0, -40(%rbp)
 1093      00000000 
 343:/home/xingli/share/LiteOS_Lab/network/dtls/mbedtls/mbedtls_port/dtls_interface.c ****     mbedtls_ctr_drbg_context *ctr_drbg = NULL;
 1094              		.loc 1 343 31
 1095 0027 48C745B0 		movq	$0, -80(%rbp)
 1095      00000000 
 344:/home/xingli/share/LiteOS_Lab/network/dtls/mbedtls/mbedtls_port/dtls_interface.c ****     mbedtls_entropy_context *entropy = NULL;
 1096              		.loc 1 344 30
 1097 002f 48C745B8 		movq	$0, -72(%rbp)
 1097      00000000 
 345:/home/xingli/share/LiteOS_Lab/network/dtls/mbedtls/mbedtls_port/dtls_interface.c ****     mbedtls_net_context *server_fd = NULL;
 1098              		.loc 1 345 26
 1099 0037 48C745E0 		movq	$0, -32(%rbp)
 1099      00000000 
 346:/home/xingli/share/LiteOS_Lab/network/dtls/mbedtls/mbedtls_port/dtls_interface.c ****     mbedtls_timing_delay_context *timer = NULL;
 1100              		.loc 1 346 35
 1101 003f 48C745E8 		movq	$0, -24(%rbp)
 1101      00000000 
 347:/home/xingli/share/LiteOS_Lab/network/dtls/mbedtls/mbedtls_port/dtls_interface.c **** #if defined(MBEDTLS_X509_CRT_PARSE_C)
 348:/home/xingli/share/LiteOS_Lab/network/dtls/mbedtls/mbedtls_port/dtls_interface.c ****     mbedtls_x509_crt *cacert = NULL;
 1102              		.loc 1 348 23
 1103 0047 48C745C0 		movq	$0, -64(%rbp)
 1103      00000000 
 349:/home/xingli/share/LiteOS_Lab/network/dtls/mbedtls/mbedtls_port/dtls_interface.c ****     mbedtls_x509_crt *client_ca = NULL;
 1104              		.loc 1 349 23
 1105 004f 48C745C8 		movq	$0, -56(%rbp)
 1105      00000000 
GAS LISTING /tmp/ccHSWKEC.s 			page 34


 350:/home/xingli/share/LiteOS_Lab/network/dtls/mbedtls/mbedtls_port/dtls_interface.c ****     mbedtls_pk_context *client_pk = NULL;
 1106              		.loc 1 350 25
 1107 0057 48C745D0 		movq	$0, -48(%rbp)
 1107      00000000 
 351:/home/xingli/share/LiteOS_Lab/network/dtls/mbedtls/mbedtls_port/dtls_interface.c ****     mbedtls_ssl_key_cert *key_cert = NULL;
 1108              		.loc 1 351 27
 1109 005f 48C745F0 		movq	$0, -16(%rbp)
 1109      00000000 
 352:/home/xingli/share/LiteOS_Lab/network/dtls/mbedtls/mbedtls_port/dtls_interface.c **** #endif
 353:/home/xingli/share/LiteOS_Lab/network/dtls/mbedtls/mbedtls_port/dtls_interface.c **** 
 354:/home/xingli/share/LiteOS_Lab/network/dtls/mbedtls/mbedtls_port/dtls_interface.c ****     if (ssl == NULL) {
 1110              		.loc 1 354 8
 1111 0067 48837D98 		cmpq	$0, -104(%rbp)
 1111      00
 1112 006c 0F84A801 		je	.L87
 1112      0000
 355:/home/xingli/share/LiteOS_Lab/network/dtls/mbedtls/mbedtls_port/dtls_interface.c ****         return;
 356:/home/xingli/share/LiteOS_Lab/network/dtls/mbedtls/mbedtls_port/dtls_interface.c ****     }
 357:/home/xingli/share/LiteOS_Lab/network/dtls/mbedtls/mbedtls_port/dtls_interface.c **** 
 358:/home/xingli/share/LiteOS_Lab/network/dtls/mbedtls/mbedtls_port/dtls_interface.c ****     conf = (mbedtls_ssl_config *)ssl->conf;
 1113              		.loc 1 358 10
 1114 0072 488B4598 		movq	-104(%rbp), %rax
 1115 0076 488B00   		movq	(%rax), %rax
 1116 0079 488945D8 		movq	%rax, -40(%rbp)
 359:/home/xingli/share/LiteOS_Lab/network/dtls/mbedtls/mbedtls_port/dtls_interface.c ****     server_fd = (mbedtls_net_context *)ssl->p_bio;
 1117              		.loc 1 359 15
 1118 007d 488B4598 		movq	-104(%rbp), %rax
 1119 0081 488B4038 		movq	56(%rax), %rax
 1120 0085 488945E0 		movq	%rax, -32(%rbp)
 360:/home/xingli/share/LiteOS_Lab/network/dtls/mbedtls/mbedtls_port/dtls_interface.c ****     timer = (mbedtls_timing_delay_context *)ssl->p_timer;
 1121              		.loc 1 360 11
 1122 0089 488B4598 		movq	-104(%rbp), %rax
 1123 008d 488B8088 		movq	136(%rax), %rax
 1123      000000
 1124 0094 488945E8 		movq	%rax, -24(%rbp)
 1125              	.L75:
 361:/home/xingli/share/LiteOS_Lab/network/dtls/mbedtls/mbedtls_port/dtls_interface.c **** 
 362:/home/xingli/share/LiteOS_Lab/network/dtls/mbedtls/mbedtls_port/dtls_interface.c **** 
 363:/home/xingli/share/LiteOS_Lab/network/dtls/mbedtls/mbedtls_port/dtls_interface.c ****     do
 364:/home/xingli/share/LiteOS_Lab/network/dtls/mbedtls/mbedtls_port/dtls_interface.c ****         ret = mbedtls_ssl_close_notify(ssl);
 1126              		.loc 1 364 15 discriminator 1
 1127 0098 488B4598 		movq	-104(%rbp), %rax
 1128 009c 4889C7   		movq	%rax, %rdi
 1129 009f E8000000 		call	mbedtls_ssl_close_notify@PLT
 1129      00
 1130 00a4 8945AC   		movl	%eax, -84(%rbp)
 365:/home/xingli/share/LiteOS_Lab/network/dtls/mbedtls/mbedtls_port/dtls_interface.c ****     while (ret == MBEDTLS_ERR_SSL_WANT_WRITE);
 1131              		.loc 1 365 5 discriminator 1
 1132 00a7 817DAC80 		cmpl	$-26752, -84(%rbp)
 1132      97FFFF
 1133 00ae 74E8     		je	.L75
 366:/home/xingli/share/LiteOS_Lab/network/dtls/mbedtls/mbedtls_port/dtls_interface.c **** 
 367:/home/xingli/share/LiteOS_Lab/network/dtls/mbedtls/mbedtls_port/dtls_interface.c **** 
 368:/home/xingli/share/LiteOS_Lab/network/dtls/mbedtls/mbedtls_port/dtls_interface.c ****     if (NULL != conf) {
 1134              		.loc 1 368 8
 1135 00b0 48837DD8 		cmpq	$0, -40(%rbp)
 1135      00
GAS LISTING /tmp/ccHSWKEC.s 			page 35


 1136 00b5 745E     		je	.L76
 369:/home/xingli/share/LiteOS_Lab/network/dtls/mbedtls/mbedtls_port/dtls_interface.c ****         ctr_drbg = conf->p_rng;
 1137              		.loc 1 369 18
 1138 00b7 488B45D8 		movq	-40(%rbp), %rax
 1139 00bb 488B4038 		movq	56(%rax), %rax
 1140 00bf 488945B0 		movq	%rax, -80(%rbp)
 370:/home/xingli/share/LiteOS_Lab/network/dtls/mbedtls/mbedtls_port/dtls_interface.c **** 
 371:/home/xingli/share/LiteOS_Lab/network/dtls/mbedtls/mbedtls_port/dtls_interface.c ****         if (NULL != ctr_drbg) {
 1141              		.loc 1 371 12
 1142 00c3 48837DB0 		cmpq	$0, -80(%rbp)
 1142      00
 1143 00c8 740F     		je	.L77
 372:/home/xingli/share/LiteOS_Lab/network/dtls/mbedtls/mbedtls_port/dtls_interface.c ****             entropy = ctr_drbg->p_entropy;
 1144              		.loc 1 372 21
 1145 00ca 488B45B0 		movq	-80(%rbp), %rax
 1146 00ce 488B8050 		movq	336(%rax), %rax
 1146      010000
 1147 00d5 488945B8 		movq	%rax, -72(%rbp)
 1148              	.L77:
 373:/home/xingli/share/LiteOS_Lab/network/dtls/mbedtls/mbedtls_port/dtls_interface.c ****         }
 374:/home/xingli/share/LiteOS_Lab/network/dtls/mbedtls/mbedtls_port/dtls_interface.c **** 
 375:/home/xingli/share/LiteOS_Lab/network/dtls/mbedtls/mbedtls_port/dtls_interface.c **** #if defined(MBEDTLS_X509_CRT_PARSE_C)
 376:/home/xingli/share/LiteOS_Lab/network/dtls/mbedtls/mbedtls_port/dtls_interface.c ****         cacert = (mbedtls_x509_crt *)conf->ca_chain;
 1149              		.loc 1 376 16
 1150 00d9 488B45D8 		movq	-40(%rbp), %rax
 1151 00dd 488B8088 		movq	136(%rax), %rax
 1151      000000
 1152 00e4 488945C0 		movq	%rax, -64(%rbp)
 377:/home/xingli/share/LiteOS_Lab/network/dtls/mbedtls/mbedtls_port/dtls_interface.c **** 
 378:/home/xingli/share/LiteOS_Lab/network/dtls/mbedtls/mbedtls_port/dtls_interface.c ****         key_cert = conf->key_cert;
 1153              		.loc 1 378 18
 1154 00e8 488B45D8 		movq	-40(%rbp), %rax
 1155 00ec 488B8080 		movq	128(%rax), %rax
 1155      000000
 1156 00f3 488945F0 		movq	%rax, -16(%rbp)
 379:/home/xingli/share/LiteOS_Lab/network/dtls/mbedtls/mbedtls_port/dtls_interface.c ****         if (NULL != key_cert) {
 1157              		.loc 1 379 12
 1158 00f7 48837DF0 		cmpq	$0, -16(%rbp)
 1158      00
 1159 00fc 7417     		je	.L76
 380:/home/xingli/share/LiteOS_Lab/network/dtls/mbedtls/mbedtls_port/dtls_interface.c ****             client_ca = (mbedtls_x509_crt *)key_cert->cert;
 1160              		.loc 1 380 23
 1161 00fe 488B45F0 		movq	-16(%rbp), %rax
 1162 0102 488B00   		movq	(%rax), %rax
 1163 0105 488945C8 		movq	%rax, -56(%rbp)
 381:/home/xingli/share/LiteOS_Lab/network/dtls/mbedtls/mbedtls_port/dtls_interface.c ****             client_pk = key_cert->key;
 1164              		.loc 1 381 23
 1165 0109 488B45F0 		movq	-16(%rbp), %rax
 1166 010d 488B4008 		movq	8(%rax), %rax
 1167 0111 488945D0 		movq	%rax, -48(%rbp)
 1168              	.L76:
 382:/home/xingli/share/LiteOS_Lab/network/dtls/mbedtls/mbedtls_port/dtls_interface.c ****         }
 383:/home/xingli/share/LiteOS_Lab/network/dtls/mbedtls/mbedtls_port/dtls_interface.c **** 
 384:/home/xingli/share/LiteOS_Lab/network/dtls/mbedtls/mbedtls_port/dtls_interface.c **** #endif
 385:/home/xingli/share/LiteOS_Lab/network/dtls/mbedtls/mbedtls_port/dtls_interface.c ****     }
 386:/home/xingli/share/LiteOS_Lab/network/dtls/mbedtls/mbedtls_port/dtls_interface.c **** 
 387:/home/xingli/share/LiteOS_Lab/network/dtls/mbedtls/mbedtls_port/dtls_interface.c ****     if (NULL != server_fd) {
GAS LISTING /tmp/ccHSWKEC.s 			page 36


 1169              		.loc 1 387 8
 1170 0115 48837DE0 		cmpq	$0, -32(%rbp)
 1170      00
 1171 011a 740C     		je	.L78
 388:/home/xingli/share/LiteOS_Lab/network/dtls/mbedtls/mbedtls_port/dtls_interface.c ****         mbedtls_net_free(server_fd);
 1172              		.loc 1 388 9
 1173 011c 488B45E0 		movq	-32(%rbp), %rax
 1174 0120 4889C7   		movq	%rax, %rdi
 1175 0123 E8000000 		call	mbedtls_net_free@PLT
 1175      00
 1176              	.L78:
 389:/home/xingli/share/LiteOS_Lab/network/dtls/mbedtls/mbedtls_port/dtls_interface.c ****     }
 390:/home/xingli/share/LiteOS_Lab/network/dtls/mbedtls/mbedtls_port/dtls_interface.c **** 
 391:/home/xingli/share/LiteOS_Lab/network/dtls/mbedtls/mbedtls_port/dtls_interface.c ****     if (NULL != conf) {
 1177              		.loc 1 391 8
 1178 0128 48837DD8 		cmpq	$0, -40(%rbp)
 1178      00
 1179 012d 7423     		je	.L79
 392:/home/xingli/share/LiteOS_Lab/network/dtls/mbedtls/mbedtls_port/dtls_interface.c ****         mbedtls_ssl_config_free(conf);
 1180              		.loc 1 392 9
 1181 012f 488B45D8 		movq	-40(%rbp), %rax
 1182 0133 4889C7   		movq	%rax, %rdi
 1183 0136 E8000000 		call	mbedtls_ssl_config_free@PLT
 1183      00
 393:/home/xingli/share/LiteOS_Lab/network/dtls/mbedtls/mbedtls_port/dtls_interface.c ****         mbedtls_free(conf);
 1184              		.loc 1 393 9
 1185 013b 488B45D8 		movq	-40(%rbp), %rax
 1186 013f 4889C7   		movq	%rax, %rdi
 1187 0142 E8000000 		call	mbedtls_free@PLT
 1187      00
 394:/home/xingli/share/LiteOS_Lab/network/dtls/mbedtls/mbedtls_port/dtls_interface.c ****         ssl->conf = NULL; //  need by mbedtls_debug_print_msg(), see mbedtls_ssl_free(ssl)
 1188              		.loc 1 394 19
 1189 0147 488B4598 		movq	-104(%rbp), %rax
 1190 014b 48C70000 		movq	$0, (%rax)
 1190      000000
 1191              	.L79:
 395:/home/xingli/share/LiteOS_Lab/network/dtls/mbedtls/mbedtls_port/dtls_interface.c ****     }
 396:/home/xingli/share/LiteOS_Lab/network/dtls/mbedtls/mbedtls_port/dtls_interface.c **** 
 397:/home/xingli/share/LiteOS_Lab/network/dtls/mbedtls/mbedtls_port/dtls_interface.c ****     if (ctr_drbg) {
 1192              		.loc 1 397 8
 1193 0152 48837DB0 		cmpq	$0, -80(%rbp)
 1193      00
 1194 0157 7418     		je	.L80
 398:/home/xingli/share/LiteOS_Lab/network/dtls/mbedtls/mbedtls_port/dtls_interface.c ****         mbedtls_ctr_drbg_free(ctr_drbg);
 1195              		.loc 1 398 9
 1196 0159 488B45B0 		movq	-80(%rbp), %rax
 1197 015d 4889C7   		movq	%rax, %rdi
 1198 0160 E8000000 		call	mbedtls_ctr_drbg_free@PLT
 1198      00
 399:/home/xingli/share/LiteOS_Lab/network/dtls/mbedtls/mbedtls_port/dtls_interface.c ****         mbedtls_free(ctr_drbg);
 1199              		.loc 1 399 9
 1200 0165 488B45B0 		movq	-80(%rbp), %rax
 1201 0169 4889C7   		movq	%rax, %rdi
 1202 016c E8000000 		call	mbedtls_free@PLT
 1202      00
 1203              	.L80:
 400:/home/xingli/share/LiteOS_Lab/network/dtls/mbedtls/mbedtls_port/dtls_interface.c ****     }
GAS LISTING /tmp/ccHSWKEC.s 			page 37


 401:/home/xingli/share/LiteOS_Lab/network/dtls/mbedtls/mbedtls_port/dtls_interface.c **** 
 402:/home/xingli/share/LiteOS_Lab/network/dtls/mbedtls/mbedtls_port/dtls_interface.c ****     if (entropy) {
 1204              		.loc 1 402 8
 1205 0171 48837DB8 		cmpq	$0, -72(%rbp)
 1205      00
 1206 0176 7418     		je	.L81
 403:/home/xingli/share/LiteOS_Lab/network/dtls/mbedtls/mbedtls_port/dtls_interface.c ****         mbedtls_entropy_free(entropy);
 1207              		.loc 1 403 9
 1208 0178 488B45B8 		movq	-72(%rbp), %rax
 1209 017c 4889C7   		movq	%rax, %rdi
 1210 017f E8000000 		call	mbedtls_entropy_free@PLT
 1210      00
 404:/home/xingli/share/LiteOS_Lab/network/dtls/mbedtls/mbedtls_port/dtls_interface.c ****         mbedtls_free(entropy);
 1211              		.loc 1 404 9
 1212 0184 488B45B8 		movq	-72(%rbp), %rax
 1213 0188 4889C7   		movq	%rax, %rdi
 1214 018b E8000000 		call	mbedtls_free@PLT
 1214      00
 1215              	.L81:
 405:/home/xingli/share/LiteOS_Lab/network/dtls/mbedtls/mbedtls_port/dtls_interface.c ****     }
 406:/home/xingli/share/LiteOS_Lab/network/dtls/mbedtls/mbedtls_port/dtls_interface.c **** 
 407:/home/xingli/share/LiteOS_Lab/network/dtls/mbedtls/mbedtls_port/dtls_interface.c ****     if (timer) {
 1216              		.loc 1 407 8
 1217 0190 48837DE8 		cmpq	$0, -24(%rbp)
 1217      00
 1218 0195 740C     		je	.L82
 408:/home/xingli/share/LiteOS_Lab/network/dtls/mbedtls/mbedtls_port/dtls_interface.c ****         mbedtls_free(timer);
 1219              		.loc 1 408 9
 1220 0197 488B45E8 		movq	-24(%rbp), %rax
 1221 019b 4889C7   		movq	%rax, %rdi
 1222 019e E8000000 		call	mbedtls_free@PLT
 1222      00
 1223              	.L82:
 409:/home/xingli/share/LiteOS_Lab/network/dtls/mbedtls/mbedtls_port/dtls_interface.c ****     }
 410:/home/xingli/share/LiteOS_Lab/network/dtls/mbedtls/mbedtls_port/dtls_interface.c **** 
 411:/home/xingli/share/LiteOS_Lab/network/dtls/mbedtls/mbedtls_port/dtls_interface.c **** #if defined(MBEDTLS_X509_CRT_PARSE_C)
 412:/home/xingli/share/LiteOS_Lab/network/dtls/mbedtls/mbedtls_port/dtls_interface.c ****     if (cacert) {
 1224              		.loc 1 412 8
 1225 01a3 48837DC0 		cmpq	$0, -64(%rbp)
 1225      00
 1226 01a8 7418     		je	.L83
 413:/home/xingli/share/LiteOS_Lab/network/dtls/mbedtls/mbedtls_port/dtls_interface.c ****         mbedtls_x509_crt_free(cacert);
 1227              		.loc 1 413 9
 1228 01aa 488B45C0 		movq	-64(%rbp), %rax
 1229 01ae 4889C7   		movq	%rax, %rdi
 1230 01b1 E8000000 		call	mbedtls_x509_crt_free@PLT
 1230      00
 414:/home/xingli/share/LiteOS_Lab/network/dtls/mbedtls/mbedtls_port/dtls_interface.c ****         mbedtls_free(cacert);
 1231              		.loc 1 414 9
 1232 01b6 488B45C0 		movq	-64(%rbp), %rax
 1233 01ba 4889C7   		movq	%rax, %rdi
 1234 01bd E8000000 		call	mbedtls_free@PLT
 1234      00
 1235              	.L83:
 415:/home/xingli/share/LiteOS_Lab/network/dtls/mbedtls/mbedtls_port/dtls_interface.c ****     }
 416:/home/xingli/share/LiteOS_Lab/network/dtls/mbedtls/mbedtls_port/dtls_interface.c ****     if (client_ca) {
 1236              		.loc 1 416 8
GAS LISTING /tmp/ccHSWKEC.s 			page 38


 1237 01c2 48837DC8 		cmpq	$0, -56(%rbp)
 1237      00
 1238 01c7 7418     		je	.L84
 417:/home/xingli/share/LiteOS_Lab/network/dtls/mbedtls/mbedtls_port/dtls_interface.c ****         mbedtls_x509_crt_free(client_ca);
 1239              		.loc 1 417 9
 1240 01c9 488B45C8 		movq	-56(%rbp), %rax
 1241 01cd 4889C7   		movq	%rax, %rdi
 1242 01d0 E8000000 		call	mbedtls_x509_crt_free@PLT
 1242      00
 418:/home/xingli/share/LiteOS_Lab/network/dtls/mbedtls/mbedtls_port/dtls_interface.c ****         mbedtls_free(client_ca);
 1243              		.loc 1 418 9
 1244 01d5 488B45C8 		movq	-56(%rbp), %rax
 1245 01d9 4889C7   		movq	%rax, %rdi
 1246 01dc E8000000 		call	mbedtls_free@PLT
 1246      00
 1247              	.L84:
 419:/home/xingli/share/LiteOS_Lab/network/dtls/mbedtls/mbedtls_port/dtls_interface.c ****     }
 420:/home/xingli/share/LiteOS_Lab/network/dtls/mbedtls/mbedtls_port/dtls_interface.c **** 
 421:/home/xingli/share/LiteOS_Lab/network/dtls/mbedtls/mbedtls_port/dtls_interface.c ****     if (client_pk) {
 1248              		.loc 1 421 8
 1249 01e1 48837DD0 		cmpq	$0, -48(%rbp)
 1249      00
 1250 01e6 7418     		je	.L85
 422:/home/xingli/share/LiteOS_Lab/network/dtls/mbedtls/mbedtls_port/dtls_interface.c ****         mbedtls_pk_free(client_pk);
 1251              		.loc 1 422 9
 1252 01e8 488B45D0 		movq	-48(%rbp), %rax
 1253 01ec 4889C7   		movq	%rax, %rdi
 1254 01ef E8000000 		call	mbedtls_pk_free@PLT
 1254      00
 423:/home/xingli/share/LiteOS_Lab/network/dtls/mbedtls/mbedtls_port/dtls_interface.c ****         mbedtls_free(client_pk);
 1255              		.loc 1 423 9
 1256 01f4 488B45D0 		movq	-48(%rbp), %rax
 1257 01f8 4889C7   		movq	%rax, %rdi
 1258 01fb E8000000 		call	mbedtls_free@PLT
 1258      00
 1259              	.L85:
 424:/home/xingli/share/LiteOS_Lab/network/dtls/mbedtls/mbedtls_port/dtls_interface.c ****     }
 425:/home/xingli/share/LiteOS_Lab/network/dtls/mbedtls/mbedtls_port/dtls_interface.c **** 
 426:/home/xingli/share/LiteOS_Lab/network/dtls/mbedtls/mbedtls_port/dtls_interface.c **** #endif
 427:/home/xingli/share/LiteOS_Lab/network/dtls/mbedtls/mbedtls_port/dtls_interface.c **** 
 428:/home/xingli/share/LiteOS_Lab/network/dtls/mbedtls/mbedtls_port/dtls_interface.c ****     mbedtls_ssl_free(ssl);
 1260              		.loc 1 428 5
 1261 0200 488B4598 		movq	-104(%rbp), %rax
 1262 0204 4889C7   		movq	%rax, %rdi
 1263 0207 E8000000 		call	mbedtls_ssl_free@PLT
 1263      00
 429:/home/xingli/share/LiteOS_Lab/network/dtls/mbedtls/mbedtls_port/dtls_interface.c ****     mbedtls_free(ssl);
 1264              		.loc 1 429 5
 1265 020c 488B4598 		movq	-104(%rbp), %rax
 1266 0210 4889C7   		movq	%rax, %rdi
 1267 0213 E8000000 		call	mbedtls_free@PLT
 1267      00
 1268 0218 EB01     		jmp	.L72
 1269              	.L87:
 355:/home/xingli/share/LiteOS_Lab/network/dtls/mbedtls/mbedtls_port/dtls_interface.c ****     }
 1270              		.loc 1 355 9
 1271 021a 90       		nop
GAS LISTING /tmp/ccHSWKEC.s 			page 39


 1272              	.L72:
 430:/home/xingli/share/LiteOS_Lab/network/dtls/mbedtls/mbedtls_port/dtls_interface.c **** }
 1273              		.loc 1 430 1
 1274 021b 488B45F8 		movq	-8(%rbp), %rax
 1275 021f 64483304 		xorq	%fs:40, %rax
 1275      25280000 
 1275      00
 1276 0228 7405     		je	.L86
 1277 022a E8000000 		call	__stack_chk_fail@PLT
 1277      00
 1278              	.L86:
 1279 022f C9       		leave
 1280              	.LCFI11:
 1281              		.cfi_def_cfa 7, 8
 1282 0230 C3       		ret
 1283              		.cfi_endproc
 1284              	.LFE30:
 1286              		.section	.text.dtls_write,"ax",@progbits
 1287              		.globl	dtls_write
 1289              	dtls_write:
 1290              	.LFB31:
 431:/home/xingli/share/LiteOS_Lab/network/dtls/mbedtls/mbedtls_port/dtls_interface.c **** 
 432:/home/xingli/share/LiteOS_Lab/network/dtls/mbedtls/mbedtls_port/dtls_interface.c **** int dtls_write(mbedtls_ssl_context *ssl, const unsigned char *buf, size_t len)
 433:/home/xingli/share/LiteOS_Lab/network/dtls/mbedtls/mbedtls_port/dtls_interface.c **** {
 1291              		.loc 1 433 1
 1292              		.cfi_startproc
 1293 0000 F30F1EFA 		endbr64
 1294 0004 55       		pushq	%rbp
 1295              	.LCFI12:
 1296              		.cfi_def_cfa_offset 16
 1297              		.cfi_offset 6, -16
 1298 0005 4889E5   		movq	%rsp, %rbp
 1299              	.LCFI13:
 1300              		.cfi_def_cfa_register 6
 1301 0008 4883EC30 		subq	$48, %rsp
 1302 000c 48897DE8 		movq	%rdi, -24(%rbp)
 1303 0010 488975E0 		movq	%rsi, -32(%rbp)
 1304 0014 488955D8 		movq	%rdx, -40(%rbp)
 1305              		.loc 1 433 1
 1306 0018 64488B04 		movq	%fs:40, %rax
 1306      25280000 
 1306      00
 1307 0021 488945F8 		movq	%rax, -8(%rbp)
 1308 0025 31C0     		xorl	%eax, %eax
 434:/home/xingli/share/LiteOS_Lab/network/dtls/mbedtls/mbedtls_port/dtls_interface.c ****     int ret;
 435:/home/xingli/share/LiteOS_Lab/network/dtls/mbedtls/mbedtls_port/dtls_interface.c **** 
 436:/home/xingli/share/LiteOS_Lab/network/dtls/mbedtls/mbedtls_port/dtls_interface.c ****     ret = mbedtls_ssl_write(ssl, (unsigned char *)buf, len);
 1309              		.loc 1 436 11
 1310 0027 488B55D8 		movq	-40(%rbp), %rdx
 1311 002b 488B4DE0 		movq	-32(%rbp), %rcx
 1312 002f 488B45E8 		movq	-24(%rbp), %rax
 1313 0033 4889CE   		movq	%rcx, %rsi
 1314 0036 4889C7   		movq	%rax, %rdi
 1315 0039 E8000000 		call	mbedtls_ssl_write@PLT
 1315      00
 1316 003e 8945F4   		movl	%eax, -12(%rbp)
 437:/home/xingli/share/LiteOS_Lab/network/dtls/mbedtls/mbedtls_port/dtls_interface.c ****     if ((ret == MBEDTLS_ERR_SSL_WANT_WRITE) || (ret == MBEDTLS_ERR_SSL_TIMEOUT)) {
GAS LISTING /tmp/ccHSWKEC.s 			page 40


 1317              		.loc 1 437 8
 1318 0041 817DF480 		cmpl	$-26752, -12(%rbp)
 1318      97FFFF
 1319 0048 7409     		je	.L89
 1320              		.loc 1 437 45 discriminator 1
 1321 004a 817DF400 		cmpl	$-26624, -12(%rbp)
 1321      98FFFF
 1322 0051 7509     		jne	.L90
 1323              	.L89:
 438:/home/xingli/share/LiteOS_Lab/network/dtls/mbedtls/mbedtls_port/dtls_interface.c ****         ret = -1;
 1324              		.loc 1 438 13
 1325 0053 C745F4FF 		movl	$-1, -12(%rbp)
 1325      FFFFFF
 1326 005a EB0D     		jmp	.L91
 1327              	.L90:
 439:/home/xingli/share/LiteOS_Lab/network/dtls/mbedtls/mbedtls_port/dtls_interface.c ****     } else if (ret <= 0) {
 1328              		.loc 1 439 15
 1329 005c 837DF400 		cmpl	$0, -12(%rbp)
 1330 0060 7F07     		jg	.L91
 440:/home/xingli/share/LiteOS_Lab/network/dtls/mbedtls/mbedtls_port/dtls_interface.c ****         ret = 0;
 1331              		.loc 1 440 13
 1332 0062 C745F400 		movl	$0, -12(%rbp)
 1332      000000
 1333              	.L91:
 441:/home/xingli/share/LiteOS_Lab/network/dtls/mbedtls/mbedtls_port/dtls_interface.c ****     }
 442:/home/xingli/share/LiteOS_Lab/network/dtls/mbedtls/mbedtls_port/dtls_interface.c **** 
 443:/home/xingli/share/LiteOS_Lab/network/dtls/mbedtls/mbedtls_port/dtls_interface.c ****     return ret;
 1334              		.loc 1 443 12
 1335 0069 8B45F4   		movl	-12(%rbp), %eax
 444:/home/xingli/share/LiteOS_Lab/network/dtls/mbedtls/mbedtls_port/dtls_interface.c **** }
 1336              		.loc 1 444 1
 1337 006c 488B4DF8 		movq	-8(%rbp), %rcx
 1338 0070 6448330C 		xorq	%fs:40, %rcx
 1338      25280000 
 1338      00
 1339 0079 7405     		je	.L93
 1340 007b E8000000 		call	__stack_chk_fail@PLT
 1340      00
 1341              	.L93:
 1342 0080 C9       		leave
 1343              	.LCFI14:
 1344              		.cfi_def_cfa 7, 8
 1345 0081 C3       		ret
 1346              		.cfi_endproc
 1347              	.LFE31:
 1349              		.section	.text.dtls_read,"ax",@progbits
 1350              		.globl	dtls_read
 1352              	dtls_read:
 1353              	.LFB32:
 445:/home/xingli/share/LiteOS_Lab/network/dtls/mbedtls/mbedtls_port/dtls_interface.c **** 
 446:/home/xingli/share/LiteOS_Lab/network/dtls/mbedtls/mbedtls_port/dtls_interface.c **** // /< make it return as normal socket return
 447:/home/xingli/share/LiteOS_Lab/network/dtls/mbedtls/mbedtls_port/dtls_interface.c **** int dtls_read(mbedtls_ssl_context *ssl, unsigned char *buf, size_t len, uint32_t timeout)
 448:/home/xingli/share/LiteOS_Lab/network/dtls/mbedtls/mbedtls_port/dtls_interface.c **** {
 1354              		.loc 1 448 1
 1355              		.cfi_startproc
 1356 0000 F30F1EFA 		endbr64
 1357 0004 55       		pushq	%rbp
GAS LISTING /tmp/ccHSWKEC.s 			page 41


 1358              	.LCFI15:
 1359              		.cfi_def_cfa_offset 16
 1360              		.cfi_offset 6, -16
 1361 0005 4889E5   		movq	%rsp, %rbp
 1362              	.LCFI16:
 1363              		.cfi_def_cfa_register 6
 1364 0008 4883EC30 		subq	$48, %rsp
 1365 000c 48897DE8 		movq	%rdi, -24(%rbp)
 1366 0010 488975E0 		movq	%rsi, -32(%rbp)
 1367 0014 488955D8 		movq	%rdx, -40(%rbp)
 1368 0018 894DD4   		movl	%ecx, -44(%rbp)
 1369              		.loc 1 448 1
 1370 001b 64488B04 		movq	%fs:40, %rax
 1370      25280000 
 1370      00
 1371 0024 488945F8 		movq	%rax, -8(%rbp)
 1372 0028 31C0     		xorl	%eax, %eax
 449:/home/xingli/share/LiteOS_Lab/network/dtls/mbedtls/mbedtls_port/dtls_interface.c ****     int ret;
 450:/home/xingli/share/LiteOS_Lab/network/dtls/mbedtls/mbedtls_port/dtls_interface.c ****     mbedtls_ssl_conf_read_timeout((mbedtls_ssl_config *)ssl->conf, timeout);
 1373              		.loc 1 450 60
 1374 002a 488B45E8 		movq	-24(%rbp), %rax
 1375 002e 488B00   		movq	(%rax), %rax
 1376              		.loc 1 450 5
 1377 0031 8B55D4   		movl	-44(%rbp), %edx
 1378 0034 89D6     		movl	%edx, %esi
 1379 0036 4889C7   		movq	%rax, %rdi
 1380 0039 E8000000 		call	mbedtls_ssl_conf_read_timeout@PLT
 1380      00
 451:/home/xingli/share/LiteOS_Lab/network/dtls/mbedtls/mbedtls_port/dtls_interface.c **** 
 452:/home/xingli/share/LiteOS_Lab/network/dtls/mbedtls/mbedtls_port/dtls_interface.c ****     ret = mbedtls_ssl_read(ssl, buf, len);
 1381              		.loc 1 452 11
 1382 003e 488B55D8 		movq	-40(%rbp), %rdx
 1383 0042 488B4DE0 		movq	-32(%rbp), %rcx
 1384 0046 488B45E8 		movq	-24(%rbp), %rax
 1385 004a 4889CE   		movq	%rcx, %rsi
 1386 004d 4889C7   		movq	%rax, %rdi
 1387 0050 E8000000 		call	mbedtls_ssl_read@PLT
 1387      00
 1388 0055 8945F4   		movl	%eax, -12(%rbp)
 453:/home/xingli/share/LiteOS_Lab/network/dtls/mbedtls/mbedtls_port/dtls_interface.c ****     if ((ret == MBEDTLS_ERR_SSL_WANT_READ) || (ret == MBEDTLS_ERR_SSL_TIMEOUT)) {
 1389              		.loc 1 453 8
 1390 0058 817DF400 		cmpl	$-26880, -12(%rbp)
 1390      97FFFF
 1391 005f 7409     		je	.L95
 1392              		.loc 1 453 44 discriminator 1
 1393 0061 817DF400 		cmpl	$-26624, -12(%rbp)
 1393      98FFFF
 1394 0068 7509     		jne	.L96
 1395              	.L95:
 454:/home/xingli/share/LiteOS_Lab/network/dtls/mbedtls/mbedtls_port/dtls_interface.c ****         ret = -1;
 1396              		.loc 1 454 13
 1397 006a C745F4FF 		movl	$-1, -12(%rbp)
 1397      FFFFFF
 1398 0071 EB0D     		jmp	.L97
 1399              	.L96:
 455:/home/xingli/share/LiteOS_Lab/network/dtls/mbedtls/mbedtls_port/dtls_interface.c ****     } else if (ret <= 0) {
 1400              		.loc 1 455 15
GAS LISTING /tmp/ccHSWKEC.s 			page 42


 1401 0073 837DF400 		cmpl	$0, -12(%rbp)
 1402 0077 7F07     		jg	.L97
 456:/home/xingli/share/LiteOS_Lab/network/dtls/mbedtls/mbedtls_port/dtls_interface.c ****         ret = 0;
 1403              		.loc 1 456 13
 1404 0079 C745F400 		movl	$0, -12(%rbp)
 1404      000000
 1405              	.L97:
 457:/home/xingli/share/LiteOS_Lab/network/dtls/mbedtls/mbedtls_port/dtls_interface.c ****     }
 458:/home/xingli/share/LiteOS_Lab/network/dtls/mbedtls/mbedtls_port/dtls_interface.c **** 
 459:/home/xingli/share/LiteOS_Lab/network/dtls/mbedtls/mbedtls_port/dtls_interface.c ****     return ret;
 1406              		.loc 1 459 12
 1407 0080 8B45F4   		movl	-12(%rbp), %eax
 460:/home/xingli/share/LiteOS_Lab/network/dtls/mbedtls/mbedtls_port/dtls_interface.c **** }
 1408              		.loc 1 460 1
 1409 0083 488B4DF8 		movq	-8(%rbp), %rcx
 1410 0087 6448330C 		xorq	%fs:40, %rcx
 1410      25280000 
 1410      00
 1411 0090 7405     		je	.L99
 1412 0092 E8000000 		call	__stack_chk_fail@PLT
 1412      00
 1413              	.L99:
 1414 0097 C9       		leave
 1415              	.LCFI17:
 1416              		.cfi_def_cfa 7, 8
 1417 0098 C3       		ret
 1418              		.cfi_endproc
 1419              	.LFE32:
 1421              		.section	.text.dtls_accept,"ax",@progbits
 1422              		.globl	dtls_accept
 1424              	dtls_accept:
 1425              	.LFB33:
 461:/home/xingli/share/LiteOS_Lab/network/dtls/mbedtls/mbedtls_port/dtls_interface.c **** 
 462:/home/xingli/share/LiteOS_Lab/network/dtls/mbedtls/mbedtls_port/dtls_interface.c **** int dtls_accept(mbedtls_net_context *bind_ctx, mbedtls_net_context *client_ctx, void *client_ip, si
 463:/home/xingli/share/LiteOS_Lab/network/dtls/mbedtls/mbedtls_port/dtls_interface.c ****     size_t *ip_len)
 464:/home/xingli/share/LiteOS_Lab/network/dtls/mbedtls/mbedtls_port/dtls_interface.c **** {
 1426              		.loc 1 464 1
 1427              		.cfi_startproc
 1428 0000 F30F1EFA 		endbr64
 1429 0004 55       		pushq	%rbp
 1430              	.LCFI18:
 1431              		.cfi_def_cfa_offset 16
 1432              		.cfi_offset 6, -16
 1433 0005 4889E5   		movq	%rsp, %rbp
 1434              	.LCFI19:
 1435              		.cfi_def_cfa_register 6
 1436 0008 4883EC40 		subq	$64, %rsp
 1437 000c 48897DE8 		movq	%rdi, -24(%rbp)
 1438 0010 488975E0 		movq	%rsi, -32(%rbp)
 1439 0014 488955D8 		movq	%rdx, -40(%rbp)
 1440 0018 48894DD0 		movq	%rcx, -48(%rbp)
 1441 001c 4C8945C8 		movq	%r8, -56(%rbp)
 1442              		.loc 1 464 1
 1443 0020 64488B04 		movq	%fs:40, %rax
 1443      25280000 
 1443      00
 1444 0029 488945F8 		movq	%rax, -8(%rbp)
GAS LISTING /tmp/ccHSWKEC.s 			page 43


 1445 002d 31C0     		xorl	%eax, %eax
 465:/home/xingli/share/LiteOS_Lab/network/dtls/mbedtls/mbedtls_port/dtls_interface.c ****     return mbedtls_net_accept(bind_ctx, client_ctx, client_ip, buf_size, ip_len);
 1446              		.loc 1 465 12
 1447 002f 488B7DC8 		movq	-56(%rbp), %rdi
 1448 0033 488B4DD0 		movq	-48(%rbp), %rcx
 1449 0037 488B55D8 		movq	-40(%rbp), %rdx
 1450 003b 488B75E0 		movq	-32(%rbp), %rsi
 1451 003f 488B45E8 		movq	-24(%rbp), %rax
 1452 0043 4989F8   		movq	%rdi, %r8
 1453 0046 4889C7   		movq	%rax, %rdi
 1454 0049 E8000000 		call	mbedtls_net_accept@PLT
 1454      00
 466:/home/xingli/share/LiteOS_Lab/network/dtls/mbedtls/mbedtls_port/dtls_interface.c **** }
 1455              		.loc 1 466 1
 1456 004e 488B55F8 		movq	-8(%rbp), %rdx
 1457 0052 64483314 		xorq	%fs:40, %rdx
 1457      25280000 
 1457      00
 1458 005b 7405     		je	.L102
 1459 005d E8000000 		call	__stack_chk_fail@PLT
 1459      00
 1460              	.L102:
 1461 0062 C9       		leave
 1462              	.LCFI20:
 1463              		.cfi_def_cfa 7, 8
 1464 0063 C3       		ret
 1465              		.cfi_endproc
 1466              	.LFE33:
 1468              		.section	.text.dtls_init,"ax",@progbits
 1469              		.globl	dtls_init
 1471              	dtls_init:
 1472              	.LFB34:
 467:/home/xingli/share/LiteOS_Lab/network/dtls/mbedtls/mbedtls_port/dtls_interface.c **** 
 468:/home/xingli/share/LiteOS_Lab/network/dtls/mbedtls/mbedtls_port/dtls_interface.c **** void dtls_init(void)
 469:/home/xingli/share/LiteOS_Lab/network/dtls/mbedtls/mbedtls_port/dtls_interface.c **** {
 1473              		.loc 1 469 1
 1474              		.cfi_startproc
 1475 0000 F30F1EFA 		endbr64
 1476 0004 55       		pushq	%rbp
 1477              	.LCFI21:
 1478              		.cfi_def_cfa_offset 16
 1479              		.cfi_offset 6, -16
 1480 0005 4889E5   		movq	%rsp, %rbp
 1481              	.LCFI22:
 1482              		.cfi_def_cfa_register 6
 1483 0008 4883EC10 		subq	$16, %rsp
 1484              		.loc 1 469 1
 1485 000c 64488B04 		movq	%fs:40, %rax
 1485      25280000 
 1485      00
 1486 0015 488945F8 		movq	%rax, -8(%rbp)
 1487 0019 31C0     		xorl	%eax, %eax
 470:/home/xingli/share/LiteOS_Lab/network/dtls/mbedtls/mbedtls_port/dtls_interface.c ****     (void)mbedtls_platform_set_calloc_free(osal_calloc, osal_free);
 1488              		.loc 1 470 11
 1489 001b 488B0500 		movq	osal_free@GOTPCREL(%rip), %rax
 1489      000000
 1490 0022 4889C6   		movq	%rax, %rsi
GAS LISTING /tmp/ccHSWKEC.s 			page 44


 1491 0025 488B0500 		movq	osal_calloc@GOTPCREL(%rip), %rax
 1491      000000
 1492 002c 4889C7   		movq	%rax, %rdi
 1493 002f E8000000 		call	mbedtls_platform_set_calloc_free@PLT
 1493      00
 471:/home/xingli/share/LiteOS_Lab/network/dtls/mbedtls/mbedtls_port/dtls_interface.c ****     (void)mbedtls_platform_set_snprintf(snprintf);
 1494              		.loc 1 471 11
 1495 0034 488B0500 		movq	snprintf@GOTPCREL(%rip), %rax
 1495      000000
 1496 003b 4889C7   		movq	%rax, %rdi
 1497 003e E8000000 		call	mbedtls_platform_set_snprintf@PLT
 1497      00
 472:/home/xingli/share/LiteOS_Lab/network/dtls/mbedtls/mbedtls_port/dtls_interface.c ****     (void)mbedtls_platform_set_printf(printf);
 1498              		.loc 1 472 11
 1499 0043 488B0500 		movq	printf@GOTPCREL(%rip), %rax
 1499      000000
 1500 004a 4889C7   		movq	%rax, %rdi
 1501 004d E8000000 		call	mbedtls_platform_set_printf@PLT
 1501      00
 473:/home/xingli/share/LiteOS_Lab/network/dtls/mbedtls/mbedtls_port/dtls_interface.c **** }
 1502              		.loc 1 473 1
 1503 0052 90       		nop
 1504 0053 488B45F8 		movq	-8(%rbp), %rax
 1505 0057 64483304 		xorq	%fs:40, %rax
 1505      25280000 
 1505      00
 1506 0060 7405     		je	.L104
 1507 0062 E8000000 		call	__stack_chk_fail@PLT
 1507      00
 1508              	.L104:
 1509 0067 C9       		leave
 1510              	.LCFI23:
 1511              		.cfi_def_cfa 7, 8
 1512 0068 C3       		ret
 1513              		.cfi_endproc
 1514              	.LFE34:
 1516              		.section	.rodata.__FUNCTION__.6281,"a"
 1517              		.align 8
 1520              	__FUNCTION__.6281:
 1521 0000 64746C73 		.string	"dtls_ssl_new"
 1521      5F73736C 
 1521      5F6E6577 
 1521      00
 1522              		.section	.rodata.__FUNCTION__.6293,"a"
 1523              		.align 8
 1526              	__FUNCTION__.6293:
 1527 0000 64746C73 		.string	"dtls_shakehand"
 1527      5F736861 
 1527      6B656861 
 1527      6E6400
 1528              		.text
 1529              	.Letext0:
 1530              		.file 2 "/usr/lib/gcc/x86_64-linux-gnu/9/include/stddef.h"
 1531              		.file 3 "/usr/include/x86_64-linux-gnu/bits/types.h"
 1532              		.file 4 "/usr/include/x86_64-linux-gnu/bits/stdint-uintn.h"
 1533              		.file 5 "/usr/include/x86_64-linux-gnu/bits/types/struct_FILE.h"
 1534              		.file 6 "/usr/include/x86_64-linux-gnu/bits/types/FILE.h"
GAS LISTING /tmp/ccHSWKEC.s 			page 45


 1535              		.file 7 "/usr/include/stdio.h"
 1536              		.file 8 "/usr/include/x86_64-linux-gnu/bits/sys_errlist.h"
 1537              		.file 9 "/usr/include/time.h"
 1538              		.file 10 "/home/xingli/share/LiteOS_Lab/network/dtls/mbedtls/mbedtls-2.16.2/include/mbedtls/platfo
 1539              		.file 11 "/home/xingli/share/LiteOS_Lab/network/dtls/mbedtls/mbedtls-2.16.2/include/mbedtls/bignum
 1540              		.file 12 "/home/xingli/share/LiteOS_Lab/inc/link_log.h"
 1541              		.file 13 "/home/xingli/share/LiteOS_Lab/network/dtls/mbedtls/mbedtls-2.16.2/include/mbedtls/ecp.h"
 1542              		.file 14 "/home/xingli/share/LiteOS_Lab/network/dtls/mbedtls/mbedtls-2.16.2/include/mbedtls/md.h"
 1543              		.file 15 "/home/xingli/share/LiteOS_Lab/network/dtls/mbedtls/mbedtls-2.16.2/include/mbedtls/pk.h"
 1544              		.file 16 "/home/xingli/share/LiteOS_Lab/network/dtls/mbedtls/mbedtls-2.16.2/include/mbedtls/cipher
 1545              		.file 17 "/home/xingli/share/LiteOS_Lab/network/dtls/mbedtls/mbedtls-2.16.2/include/mbedtls/ssl_ci
 1546              		.file 18 "/home/xingli/share/LiteOS_Lab/network/dtls/mbedtls/mbedtls-2.16.2/include/mbedtls/asn1.h
 1547              		.file 19 "/home/xingli/share/LiteOS_Lab/network/dtls/mbedtls/mbedtls-2.16.2/include/mbedtls/x509.h
 1548              		.file 20 "/home/xingli/share/LiteOS_Lab/network/dtls/mbedtls/mbedtls-2.16.2/include/mbedtls/x509_c
 1549              		.file 21 "/home/xingli/share/LiteOS_Lab/network/dtls/mbedtls/mbedtls-2.16.2/include/mbedtls/x509_c
 1550              		.file 22 "/home/xingli/share/LiteOS_Lab/network/dtls/mbedtls/mbedtls-2.16.2/include/mbedtls/ecdh.h
 1551              		.file 23 "/home/xingli/share/LiteOS_Lab/network/dtls/mbedtls/mbedtls-2.16.2/include/mbedtls/ssl.h"
 1552              		.file 24 "/home/xingli/share/LiteOS_Lab/network/dtls/mbedtls/mbedtls-2.16.2/include/mbedtls/ssl_in
 1553              		.file 25 "/home/xingli/share/LiteOS_Lab/network/dtls/mbedtls/mbedtls-2.16.2/include/mbedtls/net_so
 1554              		.file 26 "/home/xingli/share/LiteOS_Lab/network/dtls/mbedtls/mbedtls-2.16.2/include/mbedtls/sha256
 1555              		.file 27 "/home/xingli/share/LiteOS_Lab/network/dtls/mbedtls/mbedtls-2.16.2/include/mbedtls/entrop
 1556              		.file 28 "/home/xingli/share/LiteOS_Lab/network/dtls/mbedtls/mbedtls-2.16.2/include/mbedtls/aes.h"
 1557              		.file 29 "/home/xingli/share/LiteOS_Lab/network/dtls/mbedtls/mbedtls-2.16.2/include/mbedtls/ctr_dr
 1558              		.file 30 "/home/xingli/share/LiteOS_Lab/network/dtls/mbedtls/mbedtls-2.16.2/include/mbedtls/timing
 1559              		.file 31 "/home/xingli/share/LiteOS_Lab/network/dtls/mbedtls/mbedtls_port/dtls_interface.h"
 9450              		.section	.note.gnu.property,"a"
 9451              		.align 8
 9452 0000 04000000 		.long	 1f - 0f
 9453 0004 10000000 		.long	 4f - 1f
 9454 0008 05000000 		.long	 5
 9455              	0:
 9456 000c 474E5500 		.string	 "GNU"
 9457              	1:
 9458              		.align 8
 9459 0010 020000C0 		.long	 0xc0000002
 9460 0014 04000000 		.long	 3f - 2f
 9461              	2:
 9462 0018 03000000 		.long	 0x3
 9463              	3:
 9464 001c 00000000 		.align 8
 9465              	4:
GAS LISTING /tmp/ccHSWKEC.s 			page 46

