GAS LISTING /tmp/ccWetWXi.s 			page 1


   1              		.file	"timing_alt.c"
   2              		.text
   3              	.Ltext0:
   4              		.section	.text.mbedtls_timing_get_timer,"ax",@progbits
   5              		.globl	mbedtls_timing_get_timer
   7              	mbedtls_timing_get_timer:
   8              	.LFB0:
   9              		.file 1 "/home/xingli/share/LiteOS_Lab/network/dtls/mbedtls/mbedtls_port/timing_alt.c"
   1:/home/xingli/share/LiteOS_Lab/network/dtls/mbedtls/mbedtls_port/timing_alt.c **** /* ----------------------------------------------------------------------------
   2:/home/xingli/share/LiteOS_Lab/network/dtls/mbedtls/mbedtls_port/timing_alt.c ****  * Copyright (c) <2016-2018>, <Huawei Technologies Co., Ltd>
   3:/home/xingli/share/LiteOS_Lab/network/dtls/mbedtls/mbedtls_port/timing_alt.c ****  * All rights reserved.
   4:/home/xingli/share/LiteOS_Lab/network/dtls/mbedtls/mbedtls_port/timing_alt.c ****  * Redistribution and use in source and binary forms, with or without modification,
   5:/home/xingli/share/LiteOS_Lab/network/dtls/mbedtls/mbedtls_port/timing_alt.c ****  * are permitted provided that the following conditions are met:
   6:/home/xingli/share/LiteOS_Lab/network/dtls/mbedtls/mbedtls_port/timing_alt.c ****  * 1. Redistributions of source code must retain the above copyright notice, this list of
   7:/home/xingli/share/LiteOS_Lab/network/dtls/mbedtls/mbedtls_port/timing_alt.c ****  * conditions and the following disclaimer.
   8:/home/xingli/share/LiteOS_Lab/network/dtls/mbedtls/mbedtls_port/timing_alt.c ****  * 2. Redistributions in binary form must reproduce the above copyright notice, this list
   9:/home/xingli/share/LiteOS_Lab/network/dtls/mbedtls/mbedtls_port/timing_alt.c ****  * of conditions and the following disclaimer in the documentation and/or other materials
  10:/home/xingli/share/LiteOS_Lab/network/dtls/mbedtls/mbedtls_port/timing_alt.c ****  * provided with the distribution.
  11:/home/xingli/share/LiteOS_Lab/network/dtls/mbedtls/mbedtls_port/timing_alt.c ****  * 3. Neither the name of the copyright holder nor the names of its contributors may be used
  12:/home/xingli/share/LiteOS_Lab/network/dtls/mbedtls/mbedtls_port/timing_alt.c ****  * to endorse or promote products derived from this software without specific prior written
  13:/home/xingli/share/LiteOS_Lab/network/dtls/mbedtls/mbedtls_port/timing_alt.c ****  * permission.
  14:/home/xingli/share/LiteOS_Lab/network/dtls/mbedtls/mbedtls_port/timing_alt.c ****  * THIS SOFTWARE IS PROVIDED BY THE COPYRIGHT HOLDERS AND CONTRIBUTORS
  15:/home/xingli/share/LiteOS_Lab/network/dtls/mbedtls/mbedtls_port/timing_alt.c ****  * "AS IS" AND ANY EXPRESS OR IMPLIED WARRANTIES, INCLUDING, BUT NOT LIMITED TO,
  16:/home/xingli/share/LiteOS_Lab/network/dtls/mbedtls/mbedtls_port/timing_alt.c ****  * THE IMPLIED WARRANTIES OF MERCHANTABILITY AND FITNESS FOR A PARTICULAR
  17:/home/xingli/share/LiteOS_Lab/network/dtls/mbedtls/mbedtls_port/timing_alt.c ****  * PURPOSE ARE DISCLAIMED. IN NO EVENT SHALL THE COPYRIGHT HOLDER OR
  18:/home/xingli/share/LiteOS_Lab/network/dtls/mbedtls/mbedtls_port/timing_alt.c ****  * CONTRIBUTORS BE LIABLE FOR ANY DIRECT, INDIRECT, INCIDENTAL, SPECIAL,
  19:/home/xingli/share/LiteOS_Lab/network/dtls/mbedtls/mbedtls_port/timing_alt.c ****  * EXEMPLARY, OR CONSEQUENTIAL DAMAGES (INCLUDING, BUT NOT LIMITED TO,
  20:/home/xingli/share/LiteOS_Lab/network/dtls/mbedtls/mbedtls_port/timing_alt.c ****  * PROCUREMENT OF SUBSTITUTE GOODS OR SERVICES; LOSS OF USE, DATA, OR PROFITS;
  21:/home/xingli/share/LiteOS_Lab/network/dtls/mbedtls/mbedtls_port/timing_alt.c ****  * OR BUSINESS INTERRUPTION) HOWEVER CAUSED AND ON ANY THEORY OF LIABILITY,
  22:/home/xingli/share/LiteOS_Lab/network/dtls/mbedtls/mbedtls_port/timing_alt.c ****  * WHETHER IN CONTRACT, STRICT LIABILITY, OR TORT (INCLUDING NEGLIGENCE OR
  23:/home/xingli/share/LiteOS_Lab/network/dtls/mbedtls/mbedtls_port/timing_alt.c ****  * OTHERWISE) ARISING IN ANY WAY OUT OF THE USE OF THIS SOFTWARE, EVEN IF
  24:/home/xingli/share/LiteOS_Lab/network/dtls/mbedtls/mbedtls_port/timing_alt.c ****  * ADVISED OF THE POSSIBILITY OF SUCH DAMAGE.
  25:/home/xingli/share/LiteOS_Lab/network/dtls/mbedtls/mbedtls_port/timing_alt.c ****  * --------------------------------------------------------------------------- */
  26:/home/xingli/share/LiteOS_Lab/network/dtls/mbedtls/mbedtls_port/timing_alt.c **** /* ----------------------------------------------------------------------------
  27:/home/xingli/share/LiteOS_Lab/network/dtls/mbedtls/mbedtls_port/timing_alt.c ****  * Notice of Export Control Law
  28:/home/xingli/share/LiteOS_Lab/network/dtls/mbedtls/mbedtls_port/timing_alt.c ****  * ===============================================
  29:/home/xingli/share/LiteOS_Lab/network/dtls/mbedtls/mbedtls_port/timing_alt.c ****  * Huawei LiteOS may be subject to applicable export control laws and regulations, which might
  30:/home/xingli/share/LiteOS_Lab/network/dtls/mbedtls/mbedtls_port/timing_alt.c ****  * include those applicable to Huawei LiteOS of U.S. and the country in which you are located.
  31:/home/xingli/share/LiteOS_Lab/network/dtls/mbedtls/mbedtls_port/timing_alt.c ****  * Import, export and usage of Huawei LiteOS in any manner by you shall be in compliance with such
  32:/home/xingli/share/LiteOS_Lab/network/dtls/mbedtls/mbedtls_port/timing_alt.c ****  * applicable export control laws and regulations.
  33:/home/xingli/share/LiteOS_Lab/network/dtls/mbedtls/mbedtls_port/timing_alt.c ****  * --------------------------------------------------------------------------- */
  34:/home/xingli/share/LiteOS_Lab/network/dtls/mbedtls/mbedtls_port/timing_alt.c **** 
  35:/home/xingli/share/LiteOS_Lab/network/dtls/mbedtls/mbedtls_port/timing_alt.c **** #if !defined(MBEDTLS_CONFIG_FILE)
  36:/home/xingli/share/LiteOS_Lab/network/dtls/mbedtls/mbedtls_port/timing_alt.c **** #include "mbedtls/config.h"
  37:/home/xingli/share/LiteOS_Lab/network/dtls/mbedtls/mbedtls_port/timing_alt.c **** #else
  38:/home/xingli/share/LiteOS_Lab/network/dtls/mbedtls/mbedtls_port/timing_alt.c **** #include MBEDTLS_CONFIG_FILE
  39:/home/xingli/share/LiteOS_Lab/network/dtls/mbedtls/mbedtls_port/timing_alt.c **** #endif
  40:/home/xingli/share/LiteOS_Lab/network/dtls/mbedtls/mbedtls_port/timing_alt.c **** 
  41:/home/xingli/share/LiteOS_Lab/network/dtls/mbedtls/mbedtls_port/timing_alt.c **** #include "osal.h"
  42:/home/xingli/share/LiteOS_Lab/network/dtls/mbedtls/mbedtls_port/timing_alt.c **** #include "timing_alt.h"
  43:/home/xingli/share/LiteOS_Lab/network/dtls/mbedtls/mbedtls_port/timing_alt.c **** 
  44:/home/xingli/share/LiteOS_Lab/network/dtls/mbedtls/mbedtls_port/timing_alt.c **** unsigned long mbedtls_timing_get_timer(struct mbedtls_timing_hr_time *val, int reset)
  45:/home/xingli/share/LiteOS_Lab/network/dtls/mbedtls/mbedtls_port/timing_alt.c **** {
  10              		.loc 1 45 1
  11              		.cfi_startproc
  12 0000 F30F1EFA 		endbr64
  13 0004 55       		pushq	%rbp
GAS LISTING /tmp/ccWetWXi.s 			page 2


  14              	.LCFI0:
  15              		.cfi_def_cfa_offset 16
  16              		.cfi_offset 6, -16
  17 0005 4889E5   		movq	%rsp, %rbp
  18              	.LCFI1:
  19              		.cfi_def_cfa_register 6
  20 0008 4883EC20 		subq	$32, %rsp
  21 000c 48897DE8 		movq	%rdi, -24(%rbp)
  22 0010 8975E4   		movl	%esi, -28(%rbp)
  23              		.loc 1 45 1
  24 0013 64488B04 		movq	%fs:40, %rax
  24      25280000 
  24      00
  25 001c 488945F8 		movq	%rax, -8(%rbp)
  26 0020 31C0     		xorl	%eax, %eax
  46:/home/xingli/share/LiteOS_Lab/network/dtls/mbedtls/mbedtls_port/timing_alt.c ****     struct mbedtls_timing_hr_time now;
  47:/home/xingli/share/LiteOS_Lab/network/dtls/mbedtls/mbedtls_port/timing_alt.c ****     now.timer_ms = osal_sys_time();
  27              		.loc 1 47 20
  28 0022 E8000000 		call	osal_sys_time@PLT
  28      00
  29              		.loc 1 47 18
  30 0027 488945F0 		movq	%rax, -16(%rbp)
  48:/home/xingli/share/LiteOS_Lab/network/dtls/mbedtls/mbedtls_port/timing_alt.c **** 
  49:/home/xingli/share/LiteOS_Lab/network/dtls/mbedtls/mbedtls_port/timing_alt.c ****     if (reset) {
  31              		.loc 1 49 8
  32 002b 837DE400 		cmpl	$0, -28(%rbp)
  33 002f 740B     		je	.L2
  50:/home/xingli/share/LiteOS_Lab/network/dtls/mbedtls/mbedtls_port/timing_alt.c ****         val->timer_ms = now.timer_ms;
  34              		.loc 1 50 28
  35 0031 488B55F0 		movq	-16(%rbp), %rdx
  36              		.loc 1 50 23
  37 0035 488B45E8 		movq	-24(%rbp), %rax
  38 0039 488910   		movq	%rdx, (%rax)
  39              	.L2:
  51:/home/xingli/share/LiteOS_Lab/network/dtls/mbedtls/mbedtls_port/timing_alt.c ****     }
  52:/home/xingli/share/LiteOS_Lab/network/dtls/mbedtls/mbedtls_port/timing_alt.c **** 
  53:/home/xingli/share/LiteOS_Lab/network/dtls/mbedtls/mbedtls_port/timing_alt.c ****     return (unsigned long)(now.timer_ms - val->timer_ms);
  40              		.loc 1 53 31
  41 003c 488B55F0 		movq	-16(%rbp), %rdx
  42              		.loc 1 53 46
  43 0040 488B45E8 		movq	-24(%rbp), %rax
  44 0044 488B00   		movq	(%rax), %rax
  45              		.loc 1 53 12
  46 0047 4829C2   		subq	%rax, %rdx
  47 004a 4889D0   		movq	%rdx, %rax
  54:/home/xingli/share/LiteOS_Lab/network/dtls/mbedtls/mbedtls_port/timing_alt.c **** }
  48              		.loc 1 54 1
  49 004d 488B4DF8 		movq	-8(%rbp), %rcx
  50 0051 6448330C 		xorq	%fs:40, %rcx
  50      25280000 
  50      00
  51 005a 7405     		je	.L4
  52 005c E8000000 		call	__stack_chk_fail@PLT
  52      00
  53              	.L4:
  54 0061 C9       		leave
  55              	.LCFI2:
GAS LISTING /tmp/ccWetWXi.s 			page 3


  56              		.cfi_def_cfa 7, 8
  57 0062 C3       		ret
  58              		.cfi_endproc
  59              	.LFE0:
  61              		.section	.text.mbedtls_timing_set_delay,"ax",@progbits
  62              		.globl	mbedtls_timing_set_delay
  64              	mbedtls_timing_set_delay:
  65              	.LFB1:
  55:/home/xingli/share/LiteOS_Lab/network/dtls/mbedtls/mbedtls_port/timing_alt.c **** 
  56:/home/xingli/share/LiteOS_Lab/network/dtls/mbedtls/mbedtls_port/timing_alt.c **** /*
  57:/home/xingli/share/LiteOS_Lab/network/dtls/mbedtls/mbedtls_port/timing_alt.c ****  * Set delays to watch
  58:/home/xingli/share/LiteOS_Lab/network/dtls/mbedtls/mbedtls_port/timing_alt.c ****  */
  59:/home/xingli/share/LiteOS_Lab/network/dtls/mbedtls/mbedtls_port/timing_alt.c **** void mbedtls_timing_set_delay(void *data, uint32_t int_ms, uint32_t fin_ms)
  60:/home/xingli/share/LiteOS_Lab/network/dtls/mbedtls/mbedtls_port/timing_alt.c **** {
  66              		.loc 1 60 1
  67              		.cfi_startproc
  68 0000 F30F1EFA 		endbr64
  69 0004 55       		pushq	%rbp
  70              	.LCFI3:
  71              		.cfi_def_cfa_offset 16
  72              		.cfi_offset 6, -16
  73 0005 4889E5   		movq	%rsp, %rbp
  74              	.LCFI4:
  75              		.cfi_def_cfa_register 6
  76 0008 4883EC20 		subq	$32, %rsp
  77 000c 48897DE8 		movq	%rdi, -24(%rbp)
  78 0010 8975E4   		movl	%esi, -28(%rbp)
  79 0013 8955E0   		movl	%edx, -32(%rbp)
  80              		.loc 1 60 1
  81 0016 64488B04 		movq	%fs:40, %rax
  81      25280000 
  81      00
  82 001f 488945F8 		movq	%rax, -8(%rbp)
  83 0023 31C0     		xorl	%eax, %eax
  61:/home/xingli/share/LiteOS_Lab/network/dtls/mbedtls/mbedtls_port/timing_alt.c ****     mbedtls_timing_delay_context *ctx = (mbedtls_timing_delay_context *)data;
  84              		.loc 1 61 35
  85 0025 488B45E8 		movq	-24(%rbp), %rax
  86 0029 488945F0 		movq	%rax, -16(%rbp)
  62:/home/xingli/share/LiteOS_Lab/network/dtls/mbedtls/mbedtls_port/timing_alt.c **** 
  63:/home/xingli/share/LiteOS_Lab/network/dtls/mbedtls/mbedtls_port/timing_alt.c ****     ctx->int_ms = int_ms;
  87              		.loc 1 63 17
  88 002d 488B45F0 		movq	-16(%rbp), %rax
  89 0031 8B55E4   		movl	-28(%rbp), %edx
  90 0034 895008   		movl	%edx, 8(%rax)
  64:/home/xingli/share/LiteOS_Lab/network/dtls/mbedtls/mbedtls_port/timing_alt.c ****     ctx->fin_ms = fin_ms;
  91              		.loc 1 64 17
  92 0037 488B45F0 		movq	-16(%rbp), %rax
  93 003b 8B55E0   		movl	-32(%rbp), %edx
  94 003e 89500C   		movl	%edx, 12(%rax)
  65:/home/xingli/share/LiteOS_Lab/network/dtls/mbedtls/mbedtls_port/timing_alt.c **** 
  66:/home/xingli/share/LiteOS_Lab/network/dtls/mbedtls/mbedtls_port/timing_alt.c ****     if (fin_ms != 0) {
  95              		.loc 1 66 8
  96 0041 837DE000 		cmpl	$0, -32(%rbp)
  97 0045 7411     		je	.L8
  67:/home/xingli/share/LiteOS_Lab/network/dtls/mbedtls/mbedtls_port/timing_alt.c ****         (void)mbedtls_timing_get_timer(&ctx->timer, 1);
  98              		.loc 1 67 15
  99 0047 488B45F0 		movq	-16(%rbp), %rax
GAS LISTING /tmp/ccWetWXi.s 			page 4


 100 004b BE010000 		movl	$1, %esi
 100      00
 101 0050 4889C7   		movq	%rax, %rdi
 102 0053 E8000000 		call	mbedtls_timing_get_timer
 102      00
 103              	.L8:
  68:/home/xingli/share/LiteOS_Lab/network/dtls/mbedtls/mbedtls_port/timing_alt.c ****     }
  69:/home/xingli/share/LiteOS_Lab/network/dtls/mbedtls/mbedtls_port/timing_alt.c **** }
 104              		.loc 1 69 1
 105 0058 90       		nop
 106 0059 488B45F8 		movq	-8(%rbp), %rax
 107 005d 64483304 		xorq	%fs:40, %rax
 107      25280000 
 107      00
 108 0066 7405     		je	.L7
 109 0068 E8000000 		call	__stack_chk_fail@PLT
 109      00
 110              	.L7:
 111 006d C9       		leave
 112              	.LCFI5:
 113              		.cfi_def_cfa 7, 8
 114 006e C3       		ret
 115              		.cfi_endproc
 116              	.LFE1:
 118              		.section	.text.mbedtls_timing_get_delay,"ax",@progbits
 119              		.globl	mbedtls_timing_get_delay
 121              	mbedtls_timing_get_delay:
 122              	.LFB2:
  70:/home/xingli/share/LiteOS_Lab/network/dtls/mbedtls/mbedtls_port/timing_alt.c **** 
  71:/home/xingli/share/LiteOS_Lab/network/dtls/mbedtls/mbedtls_port/timing_alt.c **** /*
  72:/home/xingli/share/LiteOS_Lab/network/dtls/mbedtls/mbedtls_port/timing_alt.c ****  * Get number of delays expired
  73:/home/xingli/share/LiteOS_Lab/network/dtls/mbedtls/mbedtls_port/timing_alt.c ****  */
  74:/home/xingli/share/LiteOS_Lab/network/dtls/mbedtls/mbedtls_port/timing_alt.c **** int mbedtls_timing_get_delay(void *data)
  75:/home/xingli/share/LiteOS_Lab/network/dtls/mbedtls/mbedtls_port/timing_alt.c **** {
 123              		.loc 1 75 1
 124              		.cfi_startproc
 125 0000 F30F1EFA 		endbr64
 126 0004 55       		pushq	%rbp
 127              	.LCFI6:
 128              		.cfi_def_cfa_offset 16
 129              		.cfi_offset 6, -16
 130 0005 4889E5   		movq	%rsp, %rbp
 131              	.LCFI7:
 132              		.cfi_def_cfa_register 6
 133 0008 4883EC30 		subq	$48, %rsp
 134 000c 48897DD8 		movq	%rdi, -40(%rbp)
 135              		.loc 1 75 1
 136 0010 64488B04 		movq	%fs:40, %rax
 136      25280000 
 136      00
 137 0019 488945F8 		movq	%rax, -8(%rbp)
 138 001d 31C0     		xorl	%eax, %eax
  76:/home/xingli/share/LiteOS_Lab/network/dtls/mbedtls/mbedtls_port/timing_alt.c ****     mbedtls_timing_delay_context *ctx = (mbedtls_timing_delay_context *)data;
 139              		.loc 1 76 35
 140 001f 488B45D8 		movq	-40(%rbp), %rax
 141 0023 488945E8 		movq	%rax, -24(%rbp)
  77:/home/xingli/share/LiteOS_Lab/network/dtls/mbedtls/mbedtls_port/timing_alt.c ****     unsigned long elapsed_ms;
GAS LISTING /tmp/ccWetWXi.s 			page 5


  78:/home/xingli/share/LiteOS_Lab/network/dtls/mbedtls/mbedtls_port/timing_alt.c **** 
  79:/home/xingli/share/LiteOS_Lab/network/dtls/mbedtls/mbedtls_port/timing_alt.c ****     if (ctx->fin_ms == 0) {
 142              		.loc 1 79 12
 143 0027 488B45E8 		movq	-24(%rbp), %rax
 144 002b 8B400C   		movl	12(%rax), %eax
 145              		.loc 1 79 8
 146 002e 85C0     		testl	%eax, %eax
 147 0030 7507     		jne	.L10
  80:/home/xingli/share/LiteOS_Lab/network/dtls/mbedtls/mbedtls_port/timing_alt.c ****         return -1;
 148              		.loc 1 80 16
 149 0032 B8FFFFFF 		movl	$-1, %eax
 149      FF
 150 0037 EB46     		jmp	.L11
 151              	.L10:
  81:/home/xingli/share/LiteOS_Lab/network/dtls/mbedtls/mbedtls_port/timing_alt.c ****     }
  82:/home/xingli/share/LiteOS_Lab/network/dtls/mbedtls/mbedtls_port/timing_alt.c **** 
  83:/home/xingli/share/LiteOS_Lab/network/dtls/mbedtls/mbedtls_port/timing_alt.c ****     elapsed_ms = mbedtls_timing_get_timer(&ctx->timer, 0);
 152              		.loc 1 83 18
 153 0039 488B45E8 		movq	-24(%rbp), %rax
 154 003d BE000000 		movl	$0, %esi
 154      00
 155 0042 4889C7   		movq	%rax, %rdi
 156 0045 E8000000 		call	mbedtls_timing_get_timer
 156      00
 157 004a 488945F0 		movq	%rax, -16(%rbp)
  84:/home/xingli/share/LiteOS_Lab/network/dtls/mbedtls/mbedtls_port/timing_alt.c **** 
  85:/home/xingli/share/LiteOS_Lab/network/dtls/mbedtls/mbedtls_port/timing_alt.c ****     if (elapsed_ms >= ctx->fin_ms) {
 158              		.loc 1 85 26
 159 004e 488B45E8 		movq	-24(%rbp), %rax
 160 0052 8B400C   		movl	12(%rax), %eax
 161 0055 89C0     		movl	%eax, %eax
 162              		.loc 1 85 8
 163 0057 483945F0 		cmpq	%rax, -16(%rbp)
 164 005b 7207     		jb	.L12
  86:/home/xingli/share/LiteOS_Lab/network/dtls/mbedtls/mbedtls_port/timing_alt.c ****         return 2;
 165              		.loc 1 86 16
 166 005d B8020000 		movl	$2, %eax
 166      00
 167 0062 EB1B     		jmp	.L11
 168              	.L12:
  87:/home/xingli/share/LiteOS_Lab/network/dtls/mbedtls/mbedtls_port/timing_alt.c ****     }
  88:/home/xingli/share/LiteOS_Lab/network/dtls/mbedtls/mbedtls_port/timing_alt.c **** 
  89:/home/xingli/share/LiteOS_Lab/network/dtls/mbedtls/mbedtls_port/timing_alt.c ****     if (elapsed_ms >= ctx->int_ms) {
 169              		.loc 1 89 26
 170 0064 488B45E8 		movq	-24(%rbp), %rax
 171 0068 8B4008   		movl	8(%rax), %eax
 172 006b 89C0     		movl	%eax, %eax
 173              		.loc 1 89 8
 174 006d 483945F0 		cmpq	%rax, -16(%rbp)
 175 0071 7207     		jb	.L13
  90:/home/xingli/share/LiteOS_Lab/network/dtls/mbedtls/mbedtls_port/timing_alt.c ****         return 1;
 176              		.loc 1 90 16
 177 0073 B8010000 		movl	$1, %eax
 177      00
 178 0078 EB05     		jmp	.L11
 179              	.L13:
  91:/home/xingli/share/LiteOS_Lab/network/dtls/mbedtls/mbedtls_port/timing_alt.c ****     }
GAS LISTING /tmp/ccWetWXi.s 			page 6


  92:/home/xingli/share/LiteOS_Lab/network/dtls/mbedtls/mbedtls_port/timing_alt.c **** 
  93:/home/xingli/share/LiteOS_Lab/network/dtls/mbedtls/mbedtls_port/timing_alt.c ****     return 0;
 180              		.loc 1 93 12
 181 007a B8000000 		movl	$0, %eax
 181      00
 182              	.L11:
  94:/home/xingli/share/LiteOS_Lab/network/dtls/mbedtls/mbedtls_port/timing_alt.c **** }
 183              		.loc 1 94 1
 184 007f 488B55F8 		movq	-8(%rbp), %rdx
 185 0083 64483314 		xorq	%fs:40, %rdx
 185      25280000 
 185      00
 186 008c 7405     		je	.L14
 187 008e E8000000 		call	__stack_chk_fail@PLT
 187      00
 188              	.L14:
 189 0093 C9       		leave
 190              	.LCFI8:
 191              		.cfi_def_cfa 7, 8
 192 0094 C3       		ret
 193              		.cfi_endproc
 194              	.LFE2:
 196              		.text
 197              	.Letext0:
 198              		.file 2 "/usr/include/x86_64-linux-gnu/bits/types.h"
 199              		.file 3 "/usr/include/x86_64-linux-gnu/bits/stdint-uintn.h"
 200              		.file 4 "/usr/lib/gcc/x86_64-linux-gnu/9/include/stddef.h"
 201              		.file 5 "/usr/include/x86_64-linux-gnu/bits/types/struct_FILE.h"
 202              		.file 6 "/usr/include/x86_64-linux-gnu/bits/types/FILE.h"
 203              		.file 7 "/usr/include/stdio.h"
 204              		.file 8 "/usr/include/x86_64-linux-gnu/bits/sys_errlist.h"
 205              		.file 9 "/home/xingli/share/LiteOS_Lab/network/dtls/mbedtls/mbedtls_port/timing_alt.h"
 1455              		.section	.note.gnu.property,"a"
 1456              		.align 8
 1457 0000 04000000 		.long	 1f - 0f
 1458 0004 10000000 		.long	 4f - 1f
 1459 0008 05000000 		.long	 5
 1460              	0:
 1461 000c 474E5500 		.string	 "GNU"
 1462              	1:
 1463              		.align 8
 1464 0010 020000C0 		.long	 0xc0000002
 1465 0014 04000000 		.long	 3f - 2f
 1466              	2:
 1467 0018 03000000 		.long	 0x3
 1468              	3:
 1469 001c 00000000 		.align 8
 1470              	4:
GAS LISTING /tmp/ccWetWXi.s 			page 7

