GAS LISTING /tmp/ccc4KXmq.s 			page 1


   1              		.file	"MQTTUnsubscribeClient.c"
   2              		.text
   3              	.Ltext0:
   4              		.section	.text.MQTTSerialize_unsubscribeLength,"ax",@progbits
   5              		.globl	MQTTSerialize_unsubscribeLength
   7              	MQTTSerialize_unsubscribeLength:
   8              	.LFB0:
   9              		.file 1 "/home/xingli/share/1205tiny/network/mqtt/paho_mqtt/paho/MQTTPacket/src/MQTTUnsubscribeCli
   1:/home/xingli/share/1205tiny/network/mqtt/paho_mqtt/paho/MQTTPacket/src/MQTTUnsubscribeClient.c **** /*******************************************************************************
   2:/home/xingli/share/1205tiny/network/mqtt/paho_mqtt/paho/MQTTPacket/src/MQTTUnsubscribeClient.c ****  * Copyright (c) 2014 IBM Corp.
   3:/home/xingli/share/1205tiny/network/mqtt/paho_mqtt/paho/MQTTPacket/src/MQTTUnsubscribeClient.c ****  *
   4:/home/xingli/share/1205tiny/network/mqtt/paho_mqtt/paho/MQTTPacket/src/MQTTUnsubscribeClient.c ****  * All rights reserved. This program and the accompanying materials
   5:/home/xingli/share/1205tiny/network/mqtt/paho_mqtt/paho/MQTTPacket/src/MQTTUnsubscribeClient.c ****  * are made available under the terms of the Eclipse Public License v1.0
   6:/home/xingli/share/1205tiny/network/mqtt/paho_mqtt/paho/MQTTPacket/src/MQTTUnsubscribeClient.c ****  * and Eclipse Distribution License v1.0 which accompany this distribution.
   7:/home/xingli/share/1205tiny/network/mqtt/paho_mqtt/paho/MQTTPacket/src/MQTTUnsubscribeClient.c ****  *
   8:/home/xingli/share/1205tiny/network/mqtt/paho_mqtt/paho/MQTTPacket/src/MQTTUnsubscribeClient.c ****  * The Eclipse Public License is available at
   9:/home/xingli/share/1205tiny/network/mqtt/paho_mqtt/paho/MQTTPacket/src/MQTTUnsubscribeClient.c ****  *    http://www.eclipse.org/legal/epl-v10.html
  10:/home/xingli/share/1205tiny/network/mqtt/paho_mqtt/paho/MQTTPacket/src/MQTTUnsubscribeClient.c ****  * and the Eclipse Distribution License is available at
  11:/home/xingli/share/1205tiny/network/mqtt/paho_mqtt/paho/MQTTPacket/src/MQTTUnsubscribeClient.c ****  *   http://www.eclipse.org/org/documents/edl-v10.php.
  12:/home/xingli/share/1205tiny/network/mqtt/paho_mqtt/paho/MQTTPacket/src/MQTTUnsubscribeClient.c ****  *
  13:/home/xingli/share/1205tiny/network/mqtt/paho_mqtt/paho/MQTTPacket/src/MQTTUnsubscribeClient.c ****  * Contributors:
  14:/home/xingli/share/1205tiny/network/mqtt/paho_mqtt/paho/MQTTPacket/src/MQTTUnsubscribeClient.c ****  *    Ian Craggs - initial API and implementation and/or initial documentation
  15:/home/xingli/share/1205tiny/network/mqtt/paho_mqtt/paho/MQTTPacket/src/MQTTUnsubscribeClient.c ****  *******************************************************************************/
  16:/home/xingli/share/1205tiny/network/mqtt/paho_mqtt/paho/MQTTPacket/src/MQTTUnsubscribeClient.c **** 
  17:/home/xingli/share/1205tiny/network/mqtt/paho_mqtt/paho/MQTTPacket/src/MQTTUnsubscribeClient.c **** #include "MQTTPacket.h"
  18:/home/xingli/share/1205tiny/network/mqtt/paho_mqtt/paho/MQTTPacket/src/MQTTUnsubscribeClient.c **** #include "StackTrace.h"
  19:/home/xingli/share/1205tiny/network/mqtt/paho_mqtt/paho/MQTTPacket/src/MQTTUnsubscribeClient.c **** 
  20:/home/xingli/share/1205tiny/network/mqtt/paho_mqtt/paho/MQTTPacket/src/MQTTUnsubscribeClient.c **** #include <string.h>
  21:/home/xingli/share/1205tiny/network/mqtt/paho_mqtt/paho/MQTTPacket/src/MQTTUnsubscribeClient.c **** 
  22:/home/xingli/share/1205tiny/network/mqtt/paho_mqtt/paho/MQTTPacket/src/MQTTUnsubscribeClient.c **** /**
  23:/home/xingli/share/1205tiny/network/mqtt/paho_mqtt/paho/MQTTPacket/src/MQTTUnsubscribeClient.c ****   * Determines the length of the MQTT unsubscribe packet that would be produced using the supplied 
  24:/home/xingli/share/1205tiny/network/mqtt/paho_mqtt/paho/MQTTPacket/src/MQTTUnsubscribeClient.c ****   * @param count the number of topic filter strings in topicFilters
  25:/home/xingli/share/1205tiny/network/mqtt/paho_mqtt/paho/MQTTPacket/src/MQTTUnsubscribeClient.c ****   * @param topicFilters the array of topic filter strings to be used in the publish
  26:/home/xingli/share/1205tiny/network/mqtt/paho_mqtt/paho/MQTTPacket/src/MQTTUnsubscribeClient.c ****   * @return the length of buffer needed to contain the serialized version of the packet
  27:/home/xingli/share/1205tiny/network/mqtt/paho_mqtt/paho/MQTTPacket/src/MQTTUnsubscribeClient.c ****   */
  28:/home/xingli/share/1205tiny/network/mqtt/paho_mqtt/paho/MQTTPacket/src/MQTTUnsubscribeClient.c **** int MQTTSerialize_unsubscribeLength(int count, MQTTString topicFilters[])
  29:/home/xingli/share/1205tiny/network/mqtt/paho_mqtt/paho/MQTTPacket/src/MQTTUnsubscribeClient.c **** {
  10              		.loc 1 29 1
  11              		.cfi_startproc
  12 0000 F30F1EFA 		endbr64
  13 0004 55       		pushq	%rbp
  14              	.LCFI0:
  15              		.cfi_def_cfa_offset 16
  16              		.cfi_offset 6, -16
  17 0005 4889E5   		movq	%rsp, %rbp
  18              	.LCFI1:
  19              		.cfi_def_cfa_register 6
  20 0008 4883EC20 		subq	$32, %rsp
  21 000c 897DEC   		movl	%edi, -20(%rbp)
  22 000f 488975E0 		movq	%rsi, -32(%rbp)
  23              		.loc 1 29 1
  24 0013 64488B04 		movq	%fs:40, %rax
  24      25280000 
  24      00
  25 001c 488945F8 		movq	%rax, -8(%rbp)
  26 0020 31C0     		xorl	%eax, %eax
  30:/home/xingli/share/1205tiny/network/mqtt/paho_mqtt/paho/MQTTPacket/src/MQTTUnsubscribeClient.c **** 	int i;
GAS LISTING /tmp/ccc4KXmq.s 			page 2


  31:/home/xingli/share/1205tiny/network/mqtt/paho_mqtt/paho/MQTTPacket/src/MQTTUnsubscribeClient.c **** 	int len = 2; /* packetid */
  27              		.loc 1 31 6
  28 0022 C745F402 		movl	$2, -12(%rbp)
  28      000000
  32:/home/xingli/share/1205tiny/network/mqtt/paho_mqtt/paho/MQTTPacket/src/MQTTUnsubscribeClient.c **** 
  33:/home/xingli/share/1205tiny/network/mqtt/paho_mqtt/paho/MQTTPacket/src/MQTTUnsubscribeClient.c **** 	for (i = 0; i < count; ++i)
  29              		.loc 1 33 9
  30 0029 C745F000 		movl	$0, -16(%rbp)
  30      000000
  31              		.loc 1 33 2
  32 0030 EB3C     		jmp	.L2
  33              	.L3:
  34:/home/xingli/share/1205tiny/network/mqtt/paho_mqtt/paho/MQTTPacket/src/MQTTUnsubscribeClient.c **** 		len += 2 + MQTTstrlen(topicFilters[i]); /* length + topic*/
  34              		.loc 1 34 37 discriminator 3
  35 0032 8B45F0   		movl	-16(%rbp), %eax
  36 0035 4863D0   		movslq	%eax, %rdx
  37 0038 4889D0   		movq	%rdx, %rax
  38 003b 4801C0   		addq	%rax, %rax
  39 003e 4801D0   		addq	%rdx, %rax
  40 0041 48C1E003 		salq	$3, %rax
  41 0045 4889C2   		movq	%rax, %rdx
  42 0048 488B45E0 		movq	-32(%rbp), %rax
  43 004c 4801D0   		addq	%rdx, %rax
  44              		.loc 1 34 14 discriminator 3
  45 004f 4883EC08 		subq	$8, %rsp
  46 0053 FF7010   		pushq	16(%rax)
  47 0056 FF7008   		pushq	8(%rax)
  48 0059 FF30     		pushq	(%rax)
  49 005b E8000000 		call	MQTTstrlen@PLT
  49      00
  50 0060 4883C420 		addq	$32, %rsp
  51              		.loc 1 34 12 discriminator 3
  52 0064 83C002   		addl	$2, %eax
  53              		.loc 1 34 7 discriminator 3
  54 0067 0145F4   		addl	%eax, -12(%rbp)
  33:/home/xingli/share/1205tiny/network/mqtt/paho_mqtt/paho/MQTTPacket/src/MQTTUnsubscribeClient.c **** 		len += 2 + MQTTstrlen(topicFilters[i]); /* length + topic*/
  55              		.loc 1 33 25 discriminator 3
  56 006a 8345F001 		addl	$1, -16(%rbp)
  57              	.L2:
  33:/home/xingli/share/1205tiny/network/mqtt/paho_mqtt/paho/MQTTPacket/src/MQTTUnsubscribeClient.c **** 		len += 2 + MQTTstrlen(topicFilters[i]); /* length + topic*/
  58              		.loc 1 33 2 discriminator 1
  59 006e 8B45F0   		movl	-16(%rbp), %eax
  60 0071 3B45EC   		cmpl	-20(%rbp), %eax
  61 0074 7CBC     		jl	.L3
  35:/home/xingli/share/1205tiny/network/mqtt/paho_mqtt/paho/MQTTPacket/src/MQTTUnsubscribeClient.c **** 	return len;
  62              		.loc 1 35 9
  63 0076 8B45F4   		movl	-12(%rbp), %eax
  36:/home/xingli/share/1205tiny/network/mqtt/paho_mqtt/paho/MQTTPacket/src/MQTTUnsubscribeClient.c **** }
  64              		.loc 1 36 1
  65 0079 488B4DF8 		movq	-8(%rbp), %rcx
  66 007d 6448330C 		xorq	%fs:40, %rcx
  66      25280000 
  66      00
  67 0086 7405     		je	.L5
  68 0088 E8000000 		call	__stack_chk_fail@PLT
  68      00
  69              	.L5:
GAS LISTING /tmp/ccc4KXmq.s 			page 3


  70 008d C9       		leave
  71              	.LCFI2:
  72              		.cfi_def_cfa 7, 8
  73 008e C3       		ret
  74              		.cfi_endproc
  75              	.LFE0:
  77              		.section	.text.MQTTSerialize_unsubscribe,"ax",@progbits
  78              		.globl	MQTTSerialize_unsubscribe
  80              	MQTTSerialize_unsubscribe:
  81              	.LFB1:
  37:/home/xingli/share/1205tiny/network/mqtt/paho_mqtt/paho/MQTTPacket/src/MQTTUnsubscribeClient.c **** 
  38:/home/xingli/share/1205tiny/network/mqtt/paho_mqtt/paho/MQTTPacket/src/MQTTUnsubscribeClient.c **** 
  39:/home/xingli/share/1205tiny/network/mqtt/paho_mqtt/paho/MQTTPacket/src/MQTTUnsubscribeClient.c **** /**
  40:/home/xingli/share/1205tiny/network/mqtt/paho_mqtt/paho/MQTTPacket/src/MQTTUnsubscribeClient.c ****   * Serializes the supplied unsubscribe data into the supplied buffer, ready for sending
  41:/home/xingli/share/1205tiny/network/mqtt/paho_mqtt/paho/MQTTPacket/src/MQTTUnsubscribeClient.c ****   * @param buf the raw buffer data, of the correct length determined by the remaining length field
  42:/home/xingli/share/1205tiny/network/mqtt/paho_mqtt/paho/MQTTPacket/src/MQTTUnsubscribeClient.c ****   * @param buflen the length in bytes of the data in the supplied buffer
  43:/home/xingli/share/1205tiny/network/mqtt/paho_mqtt/paho/MQTTPacket/src/MQTTUnsubscribeClient.c ****   * @param dup integer - the MQTT dup flag
  44:/home/xingli/share/1205tiny/network/mqtt/paho_mqtt/paho/MQTTPacket/src/MQTTUnsubscribeClient.c ****   * @param packetid integer - the MQTT packet identifier
  45:/home/xingli/share/1205tiny/network/mqtt/paho_mqtt/paho/MQTTPacket/src/MQTTUnsubscribeClient.c ****   * @param count - number of members in the topicFilters array
  46:/home/xingli/share/1205tiny/network/mqtt/paho_mqtt/paho/MQTTPacket/src/MQTTUnsubscribeClient.c ****   * @param topicFilters - array of topic filter names
  47:/home/xingli/share/1205tiny/network/mqtt/paho_mqtt/paho/MQTTPacket/src/MQTTUnsubscribeClient.c ****   * @return the length of the serialized data.  <= 0 indicates error
  48:/home/xingli/share/1205tiny/network/mqtt/paho_mqtt/paho/MQTTPacket/src/MQTTUnsubscribeClient.c ****   */
  49:/home/xingli/share/1205tiny/network/mqtt/paho_mqtt/paho/MQTTPacket/src/MQTTUnsubscribeClient.c **** int MQTTSerialize_unsubscribe(unsigned char* buf, int buflen, unsigned char dup, unsigned short pac
  50:/home/xingli/share/1205tiny/network/mqtt/paho_mqtt/paho/MQTTPacket/src/MQTTUnsubscribeClient.c **** 		int count, MQTTString topicFilters[])
  51:/home/xingli/share/1205tiny/network/mqtt/paho_mqtt/paho/MQTTPacket/src/MQTTUnsubscribeClient.c **** {
  82              		.loc 1 51 1
  83              		.cfi_startproc
  84 0000 F30F1EFA 		endbr64
  85 0004 55       		pushq	%rbp
  86              	.LCFI3:
  87              		.cfi_def_cfa_offset 16
  88              		.cfi_offset 6, -16
  89 0005 4889E5   		movq	%rsp, %rbp
  90              	.LCFI4:
  91              		.cfi_def_cfa_register 6
  92 0008 4883EC40 		subq	$64, %rsp
  93 000c 48897DD8 		movq	%rdi, -40(%rbp)
  94 0010 8975D4   		movl	%esi, -44(%rbp)
  95 0013 89C8     		movl	%ecx, %eax
  96 0015 448945C8 		movl	%r8d, -56(%rbp)
  97 0019 4C894DC0 		movq	%r9, -64(%rbp)
  98 001d 8855D0   		movb	%dl, -48(%rbp)
  99 0020 668945CC 		movw	%ax, -52(%rbp)
 100              		.loc 1 51 1
 101 0024 64488B04 		movq	%fs:40, %rax
 101      25280000 
 101      00
 102 002d 488945F8 		movq	%rax, -8(%rbp)
 103 0031 31C0     		xorl	%eax, %eax
  52:/home/xingli/share/1205tiny/network/mqtt/paho_mqtt/paho/MQTTPacket/src/MQTTUnsubscribeClient.c **** 	unsigned char *ptr = buf;
 104              		.loc 1 52 17
 105 0033 488B45D8 		movq	-40(%rbp), %rax
 106 0037 488945F0 		movq	%rax, -16(%rbp)
  53:/home/xingli/share/1205tiny/network/mqtt/paho_mqtt/paho/MQTTPacket/src/MQTTUnsubscribeClient.c **** 	MQTTHeader header = {0};
 107              		.loc 1 53 13
 108 003b C745E000 		movl	$0, -32(%rbp)
 108      000000
GAS LISTING /tmp/ccc4KXmq.s 			page 4


  54:/home/xingli/share/1205tiny/network/mqtt/paho_mqtt/paho/MQTTPacket/src/MQTTUnsubscribeClient.c **** 	int rem_len = 0;
 109              		.loc 1 54 6
 110 0042 C745EC00 		movl	$0, -20(%rbp)
 110      000000
  55:/home/xingli/share/1205tiny/network/mqtt/paho_mqtt/paho/MQTTPacket/src/MQTTUnsubscribeClient.c **** 	int rc = -1;
 111              		.loc 1 55 6
 112 0049 C745E4FF 		movl	$-1, -28(%rbp)
 112      FFFFFF
  56:/home/xingli/share/1205tiny/network/mqtt/paho_mqtt/paho/MQTTPacket/src/MQTTUnsubscribeClient.c **** 	int i = 0;
 113              		.loc 1 56 6
 114 0050 C745E800 		movl	$0, -24(%rbp)
 114      000000
  57:/home/xingli/share/1205tiny/network/mqtt/paho_mqtt/paho/MQTTPacket/src/MQTTUnsubscribeClient.c **** 
  58:/home/xingli/share/1205tiny/network/mqtt/paho_mqtt/paho/MQTTPacket/src/MQTTUnsubscribeClient.c **** 	FUNC_ENTRY;
  59:/home/xingli/share/1205tiny/network/mqtt/paho_mqtt/paho/MQTTPacket/src/MQTTUnsubscribeClient.c **** 	if (MQTTPacket_len(rem_len = MQTTSerialize_unsubscribeLength(count, topicFilters)) > buflen)
 115              		.loc 1 59 31
 116 0057 488B55C0 		movq	-64(%rbp), %rdx
 117 005b 8B45C8   		movl	-56(%rbp), %eax
 118 005e 4889D6   		movq	%rdx, %rsi
 119 0061 89C7     		movl	%eax, %edi
 120 0063 E8000000 		call	MQTTSerialize_unsubscribeLength
 120      00
 121 0068 8945EC   		movl	%eax, -20(%rbp)
 122              		.loc 1 59 6
 123 006b 8B45EC   		movl	-20(%rbp), %eax
 124 006e 89C7     		movl	%eax, %edi
 125 0070 E8000000 		call	MQTTPacket_len@PLT
 125      00
 126              		.loc 1 59 5
 127 0075 3945D4   		cmpl	%eax, -44(%rbp)
 128 0078 7D0C     		jge	.L7
  60:/home/xingli/share/1205tiny/network/mqtt/paho_mqtt/paho/MQTTPacket/src/MQTTUnsubscribeClient.c **** 	{
  61:/home/xingli/share/1205tiny/network/mqtt/paho_mqtt/paho/MQTTPacket/src/MQTTUnsubscribeClient.c **** 		rc = MQTTPACKET_BUFFER_TOO_SHORT;
 129              		.loc 1 61 6
 130 007a C745E4FE 		movl	$-2, -28(%rbp)
 130      FFFFFF
  62:/home/xingli/share/1205tiny/network/mqtt/paho_mqtt/paho/MQTTPacket/src/MQTTUnsubscribeClient.c **** 		goto exit;
 131              		.loc 1 62 3
 132 0081 E9D90000 		jmp	.L8
 132      00
 133              	.L7:
  63:/home/xingli/share/1205tiny/network/mqtt/paho_mqtt/paho/MQTTPacket/src/MQTTUnsubscribeClient.c **** 	}
  64:/home/xingli/share/1205tiny/network/mqtt/paho_mqtt/paho/MQTTPacket/src/MQTTUnsubscribeClient.c **** 
  65:/home/xingli/share/1205tiny/network/mqtt/paho_mqtt/paho/MQTTPacket/src/MQTTUnsubscribeClient.c **** 	header.byte = 0;
 134              		.loc 1 65 14
 135 0086 C645E000 		movb	$0, -32(%rbp)
  66:/home/xingli/share/1205tiny/network/mqtt/paho_mqtt/paho/MQTTPacket/src/MQTTUnsubscribeClient.c **** 	header.bits.type = UNSUBSCRIBE;
 136              		.loc 1 66 19
 137 008a 0FB645E0 		movzbl	-32(%rbp), %eax
 138 008e 83E00F   		andl	$15, %eax
 139 0091 83C8A0   		orl	$-96, %eax
 140 0094 8845E0   		movb	%al, -32(%rbp)
  67:/home/xingli/share/1205tiny/network/mqtt/paho_mqtt/paho/MQTTPacket/src/MQTTUnsubscribeClient.c **** 	header.bits.dup = dup;
 141              		.loc 1 67 18
 142 0097 0FB645D0 		movzbl	-48(%rbp), %eax
 143 009b 83E001   		andl	$1, %eax
 144 009e 83E001   		andl	$1, %eax
GAS LISTING /tmp/ccc4KXmq.s 			page 5


 145 00a1 8D14C500 		leal	0(,%rax,8), %edx
 145      000000
 146 00a8 0FB645E0 		movzbl	-32(%rbp), %eax
 147 00ac 83E0F7   		andl	$-9, %eax
 148 00af 09D0     		orl	%edx, %eax
 149 00b1 8845E0   		movb	%al, -32(%rbp)
  68:/home/xingli/share/1205tiny/network/mqtt/paho_mqtt/paho/MQTTPacket/src/MQTTUnsubscribeClient.c **** 	header.bits.qos = 1;
 150              		.loc 1 68 18
 151 00b4 0FB645E0 		movzbl	-32(%rbp), %eax
 152 00b8 83E0F9   		andl	$-7, %eax
 153 00bb 83C802   		orl	$2, %eax
 154 00be 8845E0   		movb	%al, -32(%rbp)
  69:/home/xingli/share/1205tiny/network/mqtt/paho_mqtt/paho/MQTTPacket/src/MQTTUnsubscribeClient.c **** 	writeChar(&ptr, header.byte); /* write header */
 155              		.loc 1 69 24
 156 00c1 0FB645E0 		movzbl	-32(%rbp), %eax
 157              		.loc 1 69 2
 158 00c5 0FBED0   		movsbl	%al, %edx
 159 00c8 488D45F0 		leaq	-16(%rbp), %rax
 160 00cc 89D6     		movl	%edx, %esi
 161 00ce 4889C7   		movq	%rax, %rdi
 162 00d1 E8000000 		call	writeChar@PLT
 162      00
  70:/home/xingli/share/1205tiny/network/mqtt/paho_mqtt/paho/MQTTPacket/src/MQTTUnsubscribeClient.c **** 
  71:/home/xingli/share/1205tiny/network/mqtt/paho_mqtt/paho/MQTTPacket/src/MQTTUnsubscribeClient.c **** 	ptr += MQTTPacket_encode(ptr, rem_len); /* write remaining length */;
 163              		.loc 1 71 9
 164 00d6 488B45F0 		movq	-16(%rbp), %rax
 165 00da 8B55EC   		movl	-20(%rbp), %edx
 166 00dd 89D6     		movl	%edx, %esi
 167 00df 4889C7   		movq	%rax, %rdi
 168 00e2 E8000000 		call	MQTTPacket_encode@PLT
 168      00
 169              		.loc 1 71 6
 170 00e7 488B55F0 		movq	-16(%rbp), %rdx
 171              		.loc 1 71 9
 172 00eb 4898     		cltq
 173              		.loc 1 71 6
 174 00ed 4801D0   		addq	%rdx, %rax
 175 00f0 488945F0 		movq	%rax, -16(%rbp)
  72:/home/xingli/share/1205tiny/network/mqtt/paho_mqtt/paho/MQTTPacket/src/MQTTUnsubscribeClient.c **** 
  73:/home/xingli/share/1205tiny/network/mqtt/paho_mqtt/paho/MQTTPacket/src/MQTTUnsubscribeClient.c **** 	writeInt(&ptr, packetid);
 176              		.loc 1 73 2
 177 00f4 0FB755CC 		movzwl	-52(%rbp), %edx
 178 00f8 488D45F0 		leaq	-16(%rbp), %rax
 179 00fc 89D6     		movl	%edx, %esi
 180 00fe 4889C7   		movq	%rax, %rdi
 181 0101 E8000000 		call	writeInt@PLT
 181      00
  74:/home/xingli/share/1205tiny/network/mqtt/paho_mqtt/paho/MQTTPacket/src/MQTTUnsubscribeClient.c **** 
  75:/home/xingli/share/1205tiny/network/mqtt/paho_mqtt/paho/MQTTPacket/src/MQTTUnsubscribeClient.c **** 	for (i = 0; i < count; ++i)
 182              		.loc 1 75 9
 183 0106 C745E800 		movl	$0, -24(%rbp)
 183      000000
 184              		.loc 1 75 2
 185 010d EB3D     		jmp	.L9
 186              	.L10:
  76:/home/xingli/share/1205tiny/network/mqtt/paho_mqtt/paho/MQTTPacket/src/MQTTUnsubscribeClient.c **** 		writeMQTTString(&ptr, topicFilters[i]);
 187              		.loc 1 76 37 discriminator 3
GAS LISTING /tmp/ccc4KXmq.s 			page 6


 188 010f 8B45E8   		movl	-24(%rbp), %eax
 189 0112 4863D0   		movslq	%eax, %rdx
 190 0115 4889D0   		movq	%rdx, %rax
 191 0118 4801C0   		addq	%rax, %rax
 192 011b 4801D0   		addq	%rdx, %rax
 193 011e 48C1E003 		salq	$3, %rax
 194 0122 4889C2   		movq	%rax, %rdx
 195 0125 488B45C0 		movq	-64(%rbp), %rax
 196 0129 4801D0   		addq	%rdx, %rax
 197              		.loc 1 76 3 discriminator 3
 198 012c 488D55F0 		leaq	-16(%rbp), %rdx
 199 0130 4883EC08 		subq	$8, %rsp
 200 0134 FF7010   		pushq	16(%rax)
 201 0137 FF7008   		pushq	8(%rax)
 202 013a FF30     		pushq	(%rax)
 203 013c 4889D7   		movq	%rdx, %rdi
 204 013f E8000000 		call	writeMQTTString@PLT
 204      00
 205 0144 4883C420 		addq	$32, %rsp
  75:/home/xingli/share/1205tiny/network/mqtt/paho_mqtt/paho/MQTTPacket/src/MQTTUnsubscribeClient.c **** 		writeMQTTString(&ptr, topicFilters[i]);
 206              		.loc 1 75 25 discriminator 3
 207 0148 8345E801 		addl	$1, -24(%rbp)
 208              	.L9:
  75:/home/xingli/share/1205tiny/network/mqtt/paho_mqtt/paho/MQTTPacket/src/MQTTUnsubscribeClient.c **** 		writeMQTTString(&ptr, topicFilters[i]);
 209              		.loc 1 75 2 discriminator 1
 210 014c 8B45E8   		movl	-24(%rbp), %eax
 211 014f 3B45C8   		cmpl	-56(%rbp), %eax
 212 0152 7CBB     		jl	.L10
  77:/home/xingli/share/1205tiny/network/mqtt/paho_mqtt/paho/MQTTPacket/src/MQTTUnsubscribeClient.c **** 
  78:/home/xingli/share/1205tiny/network/mqtt/paho_mqtt/paho/MQTTPacket/src/MQTTUnsubscribeClient.c **** 	rc = ptr - buf;
 213              		.loc 1 78 11
 214 0154 488B45F0 		movq	-16(%rbp), %rax
 215 0158 482B45D8 		subq	-40(%rbp), %rax
 216              		.loc 1 78 5
 217 015c 8945E4   		movl	%eax, -28(%rbp)
 218              	.L8:
  79:/home/xingli/share/1205tiny/network/mqtt/paho_mqtt/paho/MQTTPacket/src/MQTTUnsubscribeClient.c **** exit:
  80:/home/xingli/share/1205tiny/network/mqtt/paho_mqtt/paho/MQTTPacket/src/MQTTUnsubscribeClient.c **** 	FUNC_EXIT_RC(rc);
  81:/home/xingli/share/1205tiny/network/mqtt/paho_mqtt/paho/MQTTPacket/src/MQTTUnsubscribeClient.c **** 	return rc;
 219              		.loc 1 81 9
 220 015f 8B45E4   		movl	-28(%rbp), %eax
  82:/home/xingli/share/1205tiny/network/mqtt/paho_mqtt/paho/MQTTPacket/src/MQTTUnsubscribeClient.c **** }
 221              		.loc 1 82 1
 222 0162 488B4DF8 		movq	-8(%rbp), %rcx
 223 0166 6448330C 		xorq	%fs:40, %rcx
 223      25280000 
 223      00
 224 016f 7405     		je	.L12
 225 0171 E8000000 		call	__stack_chk_fail@PLT
 225      00
 226              	.L12:
 227 0176 C9       		leave
 228              	.LCFI5:
 229              		.cfi_def_cfa 7, 8
 230 0177 C3       		ret
 231              		.cfi_endproc
 232              	.LFE1:
GAS LISTING /tmp/ccc4KXmq.s 			page 7


 234              		.section	.text.MQTTDeserialize_unsuback,"ax",@progbits
 235              		.globl	MQTTDeserialize_unsuback
 237              	MQTTDeserialize_unsuback:
 238              	.LFB2:
  83:/home/xingli/share/1205tiny/network/mqtt/paho_mqtt/paho/MQTTPacket/src/MQTTUnsubscribeClient.c **** 
  84:/home/xingli/share/1205tiny/network/mqtt/paho_mqtt/paho/MQTTPacket/src/MQTTUnsubscribeClient.c **** 
  85:/home/xingli/share/1205tiny/network/mqtt/paho_mqtt/paho/MQTTPacket/src/MQTTUnsubscribeClient.c **** /**
  86:/home/xingli/share/1205tiny/network/mqtt/paho_mqtt/paho/MQTTPacket/src/MQTTUnsubscribeClient.c ****   * Deserializes the supplied (wire) buffer into unsuback data
  87:/home/xingli/share/1205tiny/network/mqtt/paho_mqtt/paho/MQTTPacket/src/MQTTUnsubscribeClient.c ****   * @param packetid returned integer - the MQTT packet identifier
  88:/home/xingli/share/1205tiny/network/mqtt/paho_mqtt/paho/MQTTPacket/src/MQTTUnsubscribeClient.c ****   * @param buf the raw buffer data, of the correct length determined by the remaining length field
  89:/home/xingli/share/1205tiny/network/mqtt/paho_mqtt/paho/MQTTPacket/src/MQTTUnsubscribeClient.c ****   * @param buflen the length in bytes of the data in the supplied buffer
  90:/home/xingli/share/1205tiny/network/mqtt/paho_mqtt/paho/MQTTPacket/src/MQTTUnsubscribeClient.c ****   * @return error code.  1 is success, 0 is failure
  91:/home/xingli/share/1205tiny/network/mqtt/paho_mqtt/paho/MQTTPacket/src/MQTTUnsubscribeClient.c ****   */
  92:/home/xingli/share/1205tiny/network/mqtt/paho_mqtt/paho/MQTTPacket/src/MQTTUnsubscribeClient.c **** int MQTTDeserialize_unsuback(unsigned short* packetid, unsigned char* buf, int buflen)
  93:/home/xingli/share/1205tiny/network/mqtt/paho_mqtt/paho/MQTTPacket/src/MQTTUnsubscribeClient.c **** {
 239              		.loc 1 93 1
 240              		.cfi_startproc
 241 0000 F30F1EFA 		endbr64
 242 0004 55       		pushq	%rbp
 243              	.LCFI6:
 244              		.cfi_def_cfa_offset 16
 245              		.cfi_offset 6, -16
 246 0005 4889E5   		movq	%rsp, %rbp
 247              	.LCFI7:
 248              		.cfi_def_cfa_register 6
 249 0008 4883EC30 		subq	$48, %rsp
 250 000c 48897DE8 		movq	%rdi, -24(%rbp)
 251 0010 488975E0 		movq	%rsi, -32(%rbp)
 252 0014 8955DC   		movl	%edx, -36(%rbp)
 253              		.loc 1 93 1
 254 0017 64488B04 		movq	%fs:40, %rax
 254      25280000 
 254      00
 255 0020 488945F8 		movq	%rax, -8(%rbp)
 256 0024 31C0     		xorl	%eax, %eax
  94:/home/xingli/share/1205tiny/network/mqtt/paho_mqtt/paho/MQTTPacket/src/MQTTUnsubscribeClient.c **** 	unsigned char type = 0;
 257              		.loc 1 94 16
 258 0026 C645F200 		movb	$0, -14(%rbp)
  95:/home/xingli/share/1205tiny/network/mqtt/paho_mqtt/paho/MQTTPacket/src/MQTTUnsubscribeClient.c **** 	unsigned char dup = 0;
 259              		.loc 1 95 16
 260 002a C645F300 		movb	$0, -13(%rbp)
  96:/home/xingli/share/1205tiny/network/mqtt/paho_mqtt/paho/MQTTPacket/src/MQTTUnsubscribeClient.c **** 	int rc = 0;
 261              		.loc 1 96 6
 262 002e C745F400 		movl	$0, -12(%rbp)
 262      000000
  97:/home/xingli/share/1205tiny/network/mqtt/paho_mqtt/paho/MQTTPacket/src/MQTTUnsubscribeClient.c **** 
  98:/home/xingli/share/1205tiny/network/mqtt/paho_mqtt/paho/MQTTPacket/src/MQTTUnsubscribeClient.c **** 	FUNC_ENTRY;
  99:/home/xingli/share/1205tiny/network/mqtt/paho_mqtt/paho/MQTTPacket/src/MQTTUnsubscribeClient.c **** 	rc = MQTTDeserialize_ack(&type, &dup, packetid, buf, buflen);
 263              		.loc 1 99 7
 264 0035 8B7DDC   		movl	-36(%rbp), %edi
 265 0038 488B4DE0 		movq	-32(%rbp), %rcx
 266 003c 488B55E8 		movq	-24(%rbp), %rdx
 267 0040 488D75F3 		leaq	-13(%rbp), %rsi
 268 0044 488D45F2 		leaq	-14(%rbp), %rax
 269 0048 4189F8   		movl	%edi, %r8d
 270 004b 4889C7   		movq	%rax, %rdi
 271 004e E8000000 		call	MQTTDeserialize_ack@PLT
GAS LISTING /tmp/ccc4KXmq.s 			page 8


 271      00
 272 0053 8945F4   		movl	%eax, -12(%rbp)
 100:/home/xingli/share/1205tiny/network/mqtt/paho_mqtt/paho/MQTTPacket/src/MQTTUnsubscribeClient.c **** 	if (type == UNSUBACK)
 273              		.loc 1 100 11
 274 0056 0FB645F2 		movzbl	-14(%rbp), %eax
 275              		.loc 1 100 5
 276 005a 3C0B     		cmpb	$11, %al
 277 005c 7507     		jne	.L14
 101:/home/xingli/share/1205tiny/network/mqtt/paho_mqtt/paho/MQTTPacket/src/MQTTUnsubscribeClient.c **** 		rc = 1;
 278              		.loc 1 101 6
 279 005e C745F401 		movl	$1, -12(%rbp)
 279      000000
 280              	.L14:
 102:/home/xingli/share/1205tiny/network/mqtt/paho_mqtt/paho/MQTTPacket/src/MQTTUnsubscribeClient.c **** 	FUNC_EXIT_RC(rc);
 103:/home/xingli/share/1205tiny/network/mqtt/paho_mqtt/paho/MQTTPacket/src/MQTTUnsubscribeClient.c **** 	return rc;
 281              		.loc 1 103 9
 282 0065 8B45F4   		movl	-12(%rbp), %eax
 104:/home/xingli/share/1205tiny/network/mqtt/paho_mqtt/paho/MQTTPacket/src/MQTTUnsubscribeClient.c **** }
 283              		.loc 1 104 1
 284 0068 488B4DF8 		movq	-8(%rbp), %rcx
 285 006c 6448330C 		xorq	%fs:40, %rcx
 285      25280000 
 285      00
 286 0075 7405     		je	.L16
 287 0077 E8000000 		call	__stack_chk_fail@PLT
 287      00
 288              	.L16:
 289 007c C9       		leave
 290              	.LCFI8:
 291              		.cfi_def_cfa 7, 8
 292 007d C3       		ret
 293              		.cfi_endproc
 294              	.LFE2:
 296              		.text
 297              	.Letext0:
 298              		.file 2 "/home/xingli/share/1205tiny/network/mqtt/paho_mqtt/paho/MQTTPacket/src/MQTTPacket.h"
 299              		.file 3 "/usr/lib/gcc/x86_64-linux-gnu/9/include/stddef.h"
 300              		.file 4 "/usr/include/x86_64-linux-gnu/bits/types.h"
 301              		.file 5 "/usr/include/x86_64-linux-gnu/bits/types/struct_FILE.h"
 302              		.file 6 "/usr/include/x86_64-linux-gnu/bits/types/FILE.h"
 303              		.file 7 "/usr/include/stdio.h"
 304              		.file 8 "/usr/include/x86_64-linux-gnu/bits/sys_errlist.h"
 1969              		.section	.note.gnu.property,"a"
 1970              		.align 8
 1971 0000 04000000 		.long	 1f - 0f
 1972 0004 10000000 		.long	 4f - 1f
 1973 0008 05000000 		.long	 5
 1974              	0:
 1975 000c 474E5500 		.string	 "GNU"
 1976              	1:
 1977              		.align 8
 1978 0010 020000C0 		.long	 0xc0000002
 1979 0014 04000000 		.long	 3f - 2f
 1980              	2:
 1981 0018 03000000 		.long	 0x3
 1982              	3:
 1983 001c 00000000 		.align 8
GAS LISTING /tmp/ccc4KXmq.s 			page 9


 1984              	4:
GAS LISTING /tmp/ccc4KXmq.s 			page 10

