GAS LISTING /tmp/ccmKBjaj.s 			page 1


   1              		.file	"MQTTSubscribeClient.c"
   2              		.text
   3              	.Ltext0:
   4              		.section	.text.MQTTSerialize_subscribeLength,"ax",@progbits
   5              		.globl	MQTTSerialize_subscribeLength
   7              	MQTTSerialize_subscribeLength:
   8              	.LFB0:
   9              		.file 1 "/home/xingli/share/1205tiny/network/mqtt/paho_mqtt/paho/MQTTPacket/src/MQTTSubscribeClien
   1:/home/xingli/share/1205tiny/network/mqtt/paho_mqtt/paho/MQTTPacket/src/MQTTSubscribeClient.c **** /*******************************************************************************
   2:/home/xingli/share/1205tiny/network/mqtt/paho_mqtt/paho/MQTTPacket/src/MQTTSubscribeClient.c ****  * Copyright (c) 2014 IBM Corp.
   3:/home/xingli/share/1205tiny/network/mqtt/paho_mqtt/paho/MQTTPacket/src/MQTTSubscribeClient.c ****  *
   4:/home/xingli/share/1205tiny/network/mqtt/paho_mqtt/paho/MQTTPacket/src/MQTTSubscribeClient.c ****  * All rights reserved. This program and the accompanying materials
   5:/home/xingli/share/1205tiny/network/mqtt/paho_mqtt/paho/MQTTPacket/src/MQTTSubscribeClient.c ****  * are made available under the terms of the Eclipse Public License v1.0
   6:/home/xingli/share/1205tiny/network/mqtt/paho_mqtt/paho/MQTTPacket/src/MQTTSubscribeClient.c ****  * and Eclipse Distribution License v1.0 which accompany this distribution.
   7:/home/xingli/share/1205tiny/network/mqtt/paho_mqtt/paho/MQTTPacket/src/MQTTSubscribeClient.c ****  *
   8:/home/xingli/share/1205tiny/network/mqtt/paho_mqtt/paho/MQTTPacket/src/MQTTSubscribeClient.c ****  * The Eclipse Public License is available at
   9:/home/xingli/share/1205tiny/network/mqtt/paho_mqtt/paho/MQTTPacket/src/MQTTSubscribeClient.c ****  *    http://www.eclipse.org/legal/epl-v10.html
  10:/home/xingli/share/1205tiny/network/mqtt/paho_mqtt/paho/MQTTPacket/src/MQTTSubscribeClient.c ****  * and the Eclipse Distribution License is available at
  11:/home/xingli/share/1205tiny/network/mqtt/paho_mqtt/paho/MQTTPacket/src/MQTTSubscribeClient.c ****  *   http://www.eclipse.org/org/documents/edl-v10.php.
  12:/home/xingli/share/1205tiny/network/mqtt/paho_mqtt/paho/MQTTPacket/src/MQTTSubscribeClient.c ****  *
  13:/home/xingli/share/1205tiny/network/mqtt/paho_mqtt/paho/MQTTPacket/src/MQTTSubscribeClient.c ****  * Contributors:
  14:/home/xingli/share/1205tiny/network/mqtt/paho_mqtt/paho/MQTTPacket/src/MQTTSubscribeClient.c ****  *    Ian Craggs - initial API and implementation and/or initial documentation
  15:/home/xingli/share/1205tiny/network/mqtt/paho_mqtt/paho/MQTTPacket/src/MQTTSubscribeClient.c ****  *******************************************************************************/
  16:/home/xingli/share/1205tiny/network/mqtt/paho_mqtt/paho/MQTTPacket/src/MQTTSubscribeClient.c **** 
  17:/home/xingli/share/1205tiny/network/mqtt/paho_mqtt/paho/MQTTPacket/src/MQTTSubscribeClient.c **** #include "MQTTPacket.h"
  18:/home/xingli/share/1205tiny/network/mqtt/paho_mqtt/paho/MQTTPacket/src/MQTTSubscribeClient.c **** #include "StackTrace.h"
  19:/home/xingli/share/1205tiny/network/mqtt/paho_mqtt/paho/MQTTPacket/src/MQTTSubscribeClient.c **** 
  20:/home/xingli/share/1205tiny/network/mqtt/paho_mqtt/paho/MQTTPacket/src/MQTTSubscribeClient.c **** #include <string.h>
  21:/home/xingli/share/1205tiny/network/mqtt/paho_mqtt/paho/MQTTPacket/src/MQTTSubscribeClient.c **** 
  22:/home/xingli/share/1205tiny/network/mqtt/paho_mqtt/paho/MQTTPacket/src/MQTTSubscribeClient.c **** /**
  23:/home/xingli/share/1205tiny/network/mqtt/paho_mqtt/paho/MQTTPacket/src/MQTTSubscribeClient.c ****   * Determines the length of the MQTT subscribe packet that would be produced using the supplied pa
  24:/home/xingli/share/1205tiny/network/mqtt/paho_mqtt/paho/MQTTPacket/src/MQTTSubscribeClient.c ****   * @param count the number of topic filter strings in topicFilters
  25:/home/xingli/share/1205tiny/network/mqtt/paho_mqtt/paho/MQTTPacket/src/MQTTSubscribeClient.c ****   * @param topicFilters the array of topic filter strings to be used in the publish
  26:/home/xingli/share/1205tiny/network/mqtt/paho_mqtt/paho/MQTTPacket/src/MQTTSubscribeClient.c ****   * @return the length of buffer needed to contain the serialized version of the packet
  27:/home/xingli/share/1205tiny/network/mqtt/paho_mqtt/paho/MQTTPacket/src/MQTTSubscribeClient.c ****   */
  28:/home/xingli/share/1205tiny/network/mqtt/paho_mqtt/paho/MQTTPacket/src/MQTTSubscribeClient.c **** int MQTTSerialize_subscribeLength(int count, MQTTString topicFilters[])
  29:/home/xingli/share/1205tiny/network/mqtt/paho_mqtt/paho/MQTTPacket/src/MQTTSubscribeClient.c **** {
  10              		.loc 1 29 1
  11              		.cfi_startproc
  12 0000 F30F1EFA 		endbr64
  13 0004 55       		pushq	%rbp
  14              	.LCFI0:
  15              		.cfi_def_cfa_offset 16
  16              		.cfi_offset 6, -16
  17 0005 4889E5   		movq	%rsp, %rbp
  18              	.LCFI1:
  19              		.cfi_def_cfa_register 6
  20 0008 4883EC20 		subq	$32, %rsp
  21 000c 897DEC   		movl	%edi, -20(%rbp)
  22 000f 488975E0 		movq	%rsi, -32(%rbp)
  23              		.loc 1 29 1
  24 0013 64488B04 		movq	%fs:40, %rax
  24      25280000 
  24      00
  25 001c 488945F8 		movq	%rax, -8(%rbp)
  26 0020 31C0     		xorl	%eax, %eax
  30:/home/xingli/share/1205tiny/network/mqtt/paho_mqtt/paho/MQTTPacket/src/MQTTSubscribeClient.c **** 	int i;
GAS LISTING /tmp/ccmKBjaj.s 			page 2


  31:/home/xingli/share/1205tiny/network/mqtt/paho_mqtt/paho/MQTTPacket/src/MQTTSubscribeClient.c **** 	int len = 2; /* packetid */
  27              		.loc 1 31 6
  28 0022 C745F402 		movl	$2, -12(%rbp)
  28      000000
  32:/home/xingli/share/1205tiny/network/mqtt/paho_mqtt/paho/MQTTPacket/src/MQTTSubscribeClient.c **** 
  33:/home/xingli/share/1205tiny/network/mqtt/paho_mqtt/paho/MQTTPacket/src/MQTTSubscribeClient.c **** 	for (i = 0; i < count; ++i)
  29              		.loc 1 33 9
  30 0029 C745F000 		movl	$0, -16(%rbp)
  30      000000
  31              		.loc 1 33 2
  32 0030 EB3C     		jmp	.L2
  33              	.L3:
  34:/home/xingli/share/1205tiny/network/mqtt/paho_mqtt/paho/MQTTPacket/src/MQTTSubscribeClient.c **** 		len += 2 + MQTTstrlen(topicFilters[i]) + 1; /* length + topic + req_qos */
  34              		.loc 1 34 37 discriminator 3
  35 0032 8B45F0   		movl	-16(%rbp), %eax
  36 0035 4863D0   		movslq	%eax, %rdx
  37 0038 4889D0   		movq	%rdx, %rax
  38 003b 4801C0   		addq	%rax, %rax
  39 003e 4801D0   		addq	%rdx, %rax
  40 0041 48C1E003 		salq	$3, %rax
  41 0045 4889C2   		movq	%rax, %rdx
  42 0048 488B45E0 		movq	-32(%rbp), %rax
  43 004c 4801D0   		addq	%rdx, %rax
  44              		.loc 1 34 14 discriminator 3
  45 004f 4883EC08 		subq	$8, %rsp
  46 0053 FF7010   		pushq	16(%rax)
  47 0056 FF7008   		pushq	8(%rax)
  48 0059 FF30     		pushq	(%rax)
  49 005b E8000000 		call	MQTTstrlen@PLT
  49      00
  50 0060 4883C420 		addq	$32, %rsp
  51              		.loc 1 34 42 discriminator 3
  52 0064 83C003   		addl	$3, %eax
  53              		.loc 1 34 7 discriminator 3
  54 0067 0145F4   		addl	%eax, -12(%rbp)
  33:/home/xingli/share/1205tiny/network/mqtt/paho_mqtt/paho/MQTTPacket/src/MQTTSubscribeClient.c **** 		len += 2 + MQTTstrlen(topicFilters[i]) + 1; /* length + topic + req_qos */
  55              		.loc 1 33 25 discriminator 3
  56 006a 8345F001 		addl	$1, -16(%rbp)
  57              	.L2:
  33:/home/xingli/share/1205tiny/network/mqtt/paho_mqtt/paho/MQTTPacket/src/MQTTSubscribeClient.c **** 		len += 2 + MQTTstrlen(topicFilters[i]) + 1; /* length + topic + req_qos */
  58              		.loc 1 33 2 discriminator 1
  59 006e 8B45F0   		movl	-16(%rbp), %eax
  60 0071 3B45EC   		cmpl	-20(%rbp), %eax
  61 0074 7CBC     		jl	.L3
  35:/home/xingli/share/1205tiny/network/mqtt/paho_mqtt/paho/MQTTPacket/src/MQTTSubscribeClient.c **** 	return len;
  62              		.loc 1 35 9
  63 0076 8B45F4   		movl	-12(%rbp), %eax
  36:/home/xingli/share/1205tiny/network/mqtt/paho_mqtt/paho/MQTTPacket/src/MQTTSubscribeClient.c **** }
  64              		.loc 1 36 1
  65 0079 488B4DF8 		movq	-8(%rbp), %rcx
  66 007d 6448330C 		xorq	%fs:40, %rcx
  66      25280000 
  66      00
  67 0086 7405     		je	.L5
  68 0088 E8000000 		call	__stack_chk_fail@PLT
  68      00
  69              	.L5:
GAS LISTING /tmp/ccmKBjaj.s 			page 3


  70 008d C9       		leave
  71              	.LCFI2:
  72              		.cfi_def_cfa 7, 8
  73 008e C3       		ret
  74              		.cfi_endproc
  75              	.LFE0:
  77              		.section	.text.MQTTSerialize_subscribe,"ax",@progbits
  78              		.globl	MQTTSerialize_subscribe
  80              	MQTTSerialize_subscribe:
  81              	.LFB1:
  37:/home/xingli/share/1205tiny/network/mqtt/paho_mqtt/paho/MQTTPacket/src/MQTTSubscribeClient.c **** 
  38:/home/xingli/share/1205tiny/network/mqtt/paho_mqtt/paho/MQTTPacket/src/MQTTSubscribeClient.c **** 
  39:/home/xingli/share/1205tiny/network/mqtt/paho_mqtt/paho/MQTTPacket/src/MQTTSubscribeClient.c **** /**
  40:/home/xingli/share/1205tiny/network/mqtt/paho_mqtt/paho/MQTTPacket/src/MQTTSubscribeClient.c ****   * Serializes the supplied subscribe data into the supplied buffer, ready for sending
  41:/home/xingli/share/1205tiny/network/mqtt/paho_mqtt/paho/MQTTPacket/src/MQTTSubscribeClient.c ****   * @param buf the buffer into which the packet will be serialized
  42:/home/xingli/share/1205tiny/network/mqtt/paho_mqtt/paho/MQTTPacket/src/MQTTSubscribeClient.c ****   * @param buflen the length in bytes of the supplied bufferr
  43:/home/xingli/share/1205tiny/network/mqtt/paho_mqtt/paho/MQTTPacket/src/MQTTSubscribeClient.c ****   * @param dup integer - the MQTT dup flag
  44:/home/xingli/share/1205tiny/network/mqtt/paho_mqtt/paho/MQTTPacket/src/MQTTSubscribeClient.c ****   * @param packetid integer - the MQTT packet identifier
  45:/home/xingli/share/1205tiny/network/mqtt/paho_mqtt/paho/MQTTPacket/src/MQTTSubscribeClient.c ****   * @param count - number of members in the topicFilters and reqQos arrays
  46:/home/xingli/share/1205tiny/network/mqtt/paho_mqtt/paho/MQTTPacket/src/MQTTSubscribeClient.c ****   * @param topicFilters - array of topic filter names
  47:/home/xingli/share/1205tiny/network/mqtt/paho_mqtt/paho/MQTTPacket/src/MQTTSubscribeClient.c ****   * @param requestedQoSs - array of requested QoS
  48:/home/xingli/share/1205tiny/network/mqtt/paho_mqtt/paho/MQTTPacket/src/MQTTSubscribeClient.c ****   * @return the length of the serialized data.  <= 0 indicates error
  49:/home/xingli/share/1205tiny/network/mqtt/paho_mqtt/paho/MQTTPacket/src/MQTTSubscribeClient.c ****   */
  50:/home/xingli/share/1205tiny/network/mqtt/paho_mqtt/paho/MQTTPacket/src/MQTTSubscribeClient.c **** int MQTTSerialize_subscribe(unsigned char* buf, int buflen, unsigned char dup, unsigned short packe
  51:/home/xingli/share/1205tiny/network/mqtt/paho_mqtt/paho/MQTTPacket/src/MQTTSubscribeClient.c **** 		MQTTString topicFilters[], int requestedQoSs[])
  52:/home/xingli/share/1205tiny/network/mqtt/paho_mqtt/paho/MQTTPacket/src/MQTTSubscribeClient.c **** {
  82              		.loc 1 52 1
  83              		.cfi_startproc
  84 0000 F30F1EFA 		endbr64
  85 0004 55       		pushq	%rbp
  86              	.LCFI3:
  87              		.cfi_def_cfa_offset 16
  88              		.cfi_offset 6, -16
  89 0005 4889E5   		movq	%rsp, %rbp
  90              	.LCFI4:
  91              		.cfi_def_cfa_register 6
  92 0008 4883EC50 		subq	$80, %rsp
  93 000c 48897DD8 		movq	%rdi, -40(%rbp)
  94 0010 8975D4   		movl	%esi, -44(%rbp)
  95 0013 89C8     		movl	%ecx, %eax
  96 0015 448945C8 		movl	%r8d, -56(%rbp)
  97 0019 4C894DC0 		movq	%r9, -64(%rbp)
  98 001d 8855D0   		movb	%dl, -48(%rbp)
  99 0020 668945CC 		movw	%ax, -52(%rbp)
 100 0024 488B4510 		movq	16(%rbp), %rax
 101 0028 488945B8 		movq	%rax, -72(%rbp)
 102              		.loc 1 52 1
 103 002c 64488B04 		movq	%fs:40, %rax
 103      25280000 
 103      00
 104 0035 488945F8 		movq	%rax, -8(%rbp)
 105 0039 31C0     		xorl	%eax, %eax
  53:/home/xingli/share/1205tiny/network/mqtt/paho_mqtt/paho/MQTTPacket/src/MQTTSubscribeClient.c **** 	unsigned char *ptr = buf;
 106              		.loc 1 53 17
 107 003b 488B45D8 		movq	-40(%rbp), %rax
 108 003f 488945F0 		movq	%rax, -16(%rbp)
  54:/home/xingli/share/1205tiny/network/mqtt/paho_mqtt/paho/MQTTPacket/src/MQTTSubscribeClient.c **** 	MQTTHeader header = {0};
GAS LISTING /tmp/ccmKBjaj.s 			page 4


 109              		.loc 1 54 13
 110 0043 C745E000 		movl	$0, -32(%rbp)
 110      000000
  55:/home/xingli/share/1205tiny/network/mqtt/paho_mqtt/paho/MQTTPacket/src/MQTTSubscribeClient.c **** 	int rem_len = 0;
 111              		.loc 1 55 6
 112 004a C745EC00 		movl	$0, -20(%rbp)
 112      000000
  56:/home/xingli/share/1205tiny/network/mqtt/paho_mqtt/paho/MQTTPacket/src/MQTTSubscribeClient.c **** 	int rc = 0;
 113              		.loc 1 56 6
 114 0051 C745E400 		movl	$0, -28(%rbp)
 114      000000
  57:/home/xingli/share/1205tiny/network/mqtt/paho_mqtt/paho/MQTTPacket/src/MQTTSubscribeClient.c **** 	int i = 0;
 115              		.loc 1 57 6
 116 0058 C745E800 		movl	$0, -24(%rbp)
 116      000000
  58:/home/xingli/share/1205tiny/network/mqtt/paho_mqtt/paho/MQTTPacket/src/MQTTSubscribeClient.c **** 
  59:/home/xingli/share/1205tiny/network/mqtt/paho_mqtt/paho/MQTTPacket/src/MQTTSubscribeClient.c **** 	FUNC_ENTRY;
  60:/home/xingli/share/1205tiny/network/mqtt/paho_mqtt/paho/MQTTPacket/src/MQTTSubscribeClient.c **** 	if (MQTTPacket_len(rem_len = MQTTSerialize_subscribeLength(count, topicFilters)) > buflen)
 117              		.loc 1 60 31
 118 005f 488B55C0 		movq	-64(%rbp), %rdx
 119 0063 8B45C8   		movl	-56(%rbp), %eax
 120 0066 4889D6   		movq	%rdx, %rsi
 121 0069 89C7     		movl	%eax, %edi
 122 006b E8000000 		call	MQTTSerialize_subscribeLength
 122      00
 123 0070 8945EC   		movl	%eax, -20(%rbp)
 124              		.loc 1 60 6
 125 0073 8B45EC   		movl	-20(%rbp), %eax
 126 0076 89C7     		movl	%eax, %edi
 127 0078 E8000000 		call	MQTTPacket_len@PLT
 127      00
 128              		.loc 1 60 5
 129 007d 3945D4   		cmpl	%eax, -44(%rbp)
 130 0080 7D0C     		jge	.L7
  61:/home/xingli/share/1205tiny/network/mqtt/paho_mqtt/paho/MQTTPacket/src/MQTTSubscribeClient.c **** 	{
  62:/home/xingli/share/1205tiny/network/mqtt/paho_mqtt/paho/MQTTPacket/src/MQTTSubscribeClient.c **** 		rc = MQTTPACKET_BUFFER_TOO_SHORT;
 131              		.loc 1 62 6
 132 0082 C745E4FE 		movl	$-2, -28(%rbp)
 132      FFFFFF
  63:/home/xingli/share/1205tiny/network/mqtt/paho_mqtt/paho/MQTTPacket/src/MQTTSubscribeClient.c **** 		goto exit;
 133              		.loc 1 63 3
 134 0089 E9000100 		jmp	.L8
 134      00
 135              	.L7:
  64:/home/xingli/share/1205tiny/network/mqtt/paho_mqtt/paho/MQTTPacket/src/MQTTSubscribeClient.c **** 	}
  65:/home/xingli/share/1205tiny/network/mqtt/paho_mqtt/paho/MQTTPacket/src/MQTTSubscribeClient.c **** 
  66:/home/xingli/share/1205tiny/network/mqtt/paho_mqtt/paho/MQTTPacket/src/MQTTSubscribeClient.c **** 	header.byte = 0;
 136              		.loc 1 66 14
 137 008e C645E000 		movb	$0, -32(%rbp)
  67:/home/xingli/share/1205tiny/network/mqtt/paho_mqtt/paho/MQTTPacket/src/MQTTSubscribeClient.c **** 	header.bits.type = SUBSCRIBE;
 138              		.loc 1 67 19
 139 0092 0FB645E0 		movzbl	-32(%rbp), %eax
 140 0096 83E00F   		andl	$15, %eax
 141 0099 83C880   		orl	$-128, %eax
 142 009c 8845E0   		movb	%al, -32(%rbp)
  68:/home/xingli/share/1205tiny/network/mqtt/paho_mqtt/paho/MQTTPacket/src/MQTTSubscribeClient.c **** 	header.bits.dup = dup;
 143              		.loc 1 68 18
GAS LISTING /tmp/ccmKBjaj.s 			page 5


 144 009f 0FB645D0 		movzbl	-48(%rbp), %eax
 145 00a3 83E001   		andl	$1, %eax
 146 00a6 83E001   		andl	$1, %eax
 147 00a9 8D14C500 		leal	0(,%rax,8), %edx
 147      000000
 148 00b0 0FB645E0 		movzbl	-32(%rbp), %eax
 149 00b4 83E0F7   		andl	$-9, %eax
 150 00b7 09D0     		orl	%edx, %eax
 151 00b9 8845E0   		movb	%al, -32(%rbp)
  69:/home/xingli/share/1205tiny/network/mqtt/paho_mqtt/paho/MQTTPacket/src/MQTTSubscribeClient.c **** 	header.bits.qos = 1;
 152              		.loc 1 69 18
 153 00bc 0FB645E0 		movzbl	-32(%rbp), %eax
 154 00c0 83E0F9   		andl	$-7, %eax
 155 00c3 83C802   		orl	$2, %eax
 156 00c6 8845E0   		movb	%al, -32(%rbp)
  70:/home/xingli/share/1205tiny/network/mqtt/paho_mqtt/paho/MQTTPacket/src/MQTTSubscribeClient.c **** 	writeChar(&ptr, header.byte); /* write header */
 157              		.loc 1 70 24
 158 00c9 0FB645E0 		movzbl	-32(%rbp), %eax
 159              		.loc 1 70 2
 160 00cd 0FBED0   		movsbl	%al, %edx
 161 00d0 488D45F0 		leaq	-16(%rbp), %rax
 162 00d4 89D6     		movl	%edx, %esi
 163 00d6 4889C7   		movq	%rax, %rdi
 164 00d9 E8000000 		call	writeChar@PLT
 164      00
  71:/home/xingli/share/1205tiny/network/mqtt/paho_mqtt/paho/MQTTPacket/src/MQTTSubscribeClient.c **** 
  72:/home/xingli/share/1205tiny/network/mqtt/paho_mqtt/paho/MQTTPacket/src/MQTTSubscribeClient.c **** 	ptr += MQTTPacket_encode(ptr, rem_len); /* write remaining length */;
 165              		.loc 1 72 9
 166 00de 488B45F0 		movq	-16(%rbp), %rax
 167 00e2 8B55EC   		movl	-20(%rbp), %edx
 168 00e5 89D6     		movl	%edx, %esi
 169 00e7 4889C7   		movq	%rax, %rdi
 170 00ea E8000000 		call	MQTTPacket_encode@PLT
 170      00
 171              		.loc 1 72 6
 172 00ef 488B55F0 		movq	-16(%rbp), %rdx
 173              		.loc 1 72 9
 174 00f3 4898     		cltq
 175              		.loc 1 72 6
 176 00f5 4801D0   		addq	%rdx, %rax
 177 00f8 488945F0 		movq	%rax, -16(%rbp)
  73:/home/xingli/share/1205tiny/network/mqtt/paho_mqtt/paho/MQTTPacket/src/MQTTSubscribeClient.c **** 
  74:/home/xingli/share/1205tiny/network/mqtt/paho_mqtt/paho/MQTTPacket/src/MQTTSubscribeClient.c **** 	writeInt(&ptr, packetid);
 178              		.loc 1 74 2
 179 00fc 0FB755CC 		movzwl	-52(%rbp), %edx
 180 0100 488D45F0 		leaq	-16(%rbp), %rax
 181 0104 89D6     		movl	%edx, %esi
 182 0106 4889C7   		movq	%rax, %rdi
 183 0109 E8000000 		call	writeInt@PLT
 183      00
  75:/home/xingli/share/1205tiny/network/mqtt/paho_mqtt/paho/MQTTPacket/src/MQTTSubscribeClient.c **** 
  76:/home/xingli/share/1205tiny/network/mqtt/paho_mqtt/paho/MQTTPacket/src/MQTTSubscribeClient.c **** 	for (i = 0; i < count; ++i)
 184              		.loc 1 76 9
 185 010e C745E800 		movl	$0, -24(%rbp)
 185      000000
 186              		.loc 1 76 2
 187 0115 EB64     		jmp	.L9
GAS LISTING /tmp/ccmKBjaj.s 			page 6


 188              	.L10:
  77:/home/xingli/share/1205tiny/network/mqtt/paho_mqtt/paho/MQTTPacket/src/MQTTSubscribeClient.c **** 	{
  78:/home/xingli/share/1205tiny/network/mqtt/paho_mqtt/paho/MQTTPacket/src/MQTTSubscribeClient.c **** 		writeMQTTString(&ptr, topicFilters[i]);
 189              		.loc 1 78 37 discriminator 3
 190 0117 8B45E8   		movl	-24(%rbp), %eax
 191 011a 4863D0   		movslq	%eax, %rdx
 192 011d 4889D0   		movq	%rdx, %rax
 193 0120 4801C0   		addq	%rax, %rax
 194 0123 4801D0   		addq	%rdx, %rax
 195 0126 48C1E003 		salq	$3, %rax
 196 012a 4889C2   		movq	%rax, %rdx
 197 012d 488B45C0 		movq	-64(%rbp), %rax
 198 0131 4801D0   		addq	%rdx, %rax
 199              		.loc 1 78 3 discriminator 3
 200 0134 488D55F0 		leaq	-16(%rbp), %rdx
 201 0138 4883EC08 		subq	$8, %rsp
 202 013c FF7010   		pushq	16(%rax)
 203 013f FF7008   		pushq	8(%rax)
 204 0142 FF30     		pushq	(%rax)
 205 0144 4889D7   		movq	%rdx, %rdi
 206 0147 E8000000 		call	writeMQTTString@PLT
 206      00
 207 014c 4883C420 		addq	$32, %rsp
  79:/home/xingli/share/1205tiny/network/mqtt/paho_mqtt/paho/MQTTPacket/src/MQTTSubscribeClient.c **** 		writeChar(&ptr, requestedQoSs[i]);
 208              		.loc 1 79 32 discriminator 3
 209 0150 8B45E8   		movl	-24(%rbp), %eax
 210 0153 4898     		cltq
 211 0155 488D1485 		leaq	0(,%rax,4), %rdx
 211      00000000 
 212 015d 488B45B8 		movq	-72(%rbp), %rax
 213 0161 4801D0   		addq	%rdx, %rax
 214 0164 8B00     		movl	(%rax), %eax
 215              		.loc 1 79 3 discriminator 3
 216 0166 0FBED0   		movsbl	%al, %edx
 217 0169 488D45F0 		leaq	-16(%rbp), %rax
 218 016d 89D6     		movl	%edx, %esi
 219 016f 4889C7   		movq	%rax, %rdi
 220 0172 E8000000 		call	writeChar@PLT
 220      00
  76:/home/xingli/share/1205tiny/network/mqtt/paho_mqtt/paho/MQTTPacket/src/MQTTSubscribeClient.c **** 	{
 221              		.loc 1 76 25 discriminator 3
 222 0177 8345E801 		addl	$1, -24(%rbp)
 223              	.L9:
  76:/home/xingli/share/1205tiny/network/mqtt/paho_mqtt/paho/MQTTPacket/src/MQTTSubscribeClient.c **** 	{
 224              		.loc 1 76 2 discriminator 1
 225 017b 8B45E8   		movl	-24(%rbp), %eax
 226 017e 3B45C8   		cmpl	-56(%rbp), %eax
 227 0181 7C94     		jl	.L10
  80:/home/xingli/share/1205tiny/network/mqtt/paho_mqtt/paho/MQTTPacket/src/MQTTSubscribeClient.c **** 	}
  81:/home/xingli/share/1205tiny/network/mqtt/paho_mqtt/paho/MQTTPacket/src/MQTTSubscribeClient.c **** 
  82:/home/xingli/share/1205tiny/network/mqtt/paho_mqtt/paho/MQTTPacket/src/MQTTSubscribeClient.c **** 	rc = ptr - buf;
 228              		.loc 1 82 11
 229 0183 488B45F0 		movq	-16(%rbp), %rax
 230 0187 482B45D8 		subq	-40(%rbp), %rax
 231              		.loc 1 82 5
 232 018b 8945E4   		movl	%eax, -28(%rbp)
 233              	.L8:
GAS LISTING /tmp/ccmKBjaj.s 			page 7


  83:/home/xingli/share/1205tiny/network/mqtt/paho_mqtt/paho/MQTTPacket/src/MQTTSubscribeClient.c **** exit:
  84:/home/xingli/share/1205tiny/network/mqtt/paho_mqtt/paho/MQTTPacket/src/MQTTSubscribeClient.c **** 	FUNC_EXIT_RC(rc);
  85:/home/xingli/share/1205tiny/network/mqtt/paho_mqtt/paho/MQTTPacket/src/MQTTSubscribeClient.c **** 	return rc;
 234              		.loc 1 85 9
 235 018e 8B45E4   		movl	-28(%rbp), %eax
  86:/home/xingli/share/1205tiny/network/mqtt/paho_mqtt/paho/MQTTPacket/src/MQTTSubscribeClient.c **** }
 236              		.loc 1 86 1
 237 0191 488B4DF8 		movq	-8(%rbp), %rcx
 238 0195 6448330C 		xorq	%fs:40, %rcx
 238      25280000 
 238      00
 239 019e 7405     		je	.L12
 240 01a0 E8000000 		call	__stack_chk_fail@PLT
 240      00
 241              	.L12:
 242 01a5 C9       		leave
 243              	.LCFI5:
 244              		.cfi_def_cfa 7, 8
 245 01a6 C3       		ret
 246              		.cfi_endproc
 247              	.LFE1:
 249              		.section	.text.MQTTDeserialize_suback,"ax",@progbits
 250              		.globl	MQTTDeserialize_suback
 252              	MQTTDeserialize_suback:
 253              	.LFB2:
  87:/home/xingli/share/1205tiny/network/mqtt/paho_mqtt/paho/MQTTPacket/src/MQTTSubscribeClient.c **** 
  88:/home/xingli/share/1205tiny/network/mqtt/paho_mqtt/paho/MQTTPacket/src/MQTTSubscribeClient.c **** 
  89:/home/xingli/share/1205tiny/network/mqtt/paho_mqtt/paho/MQTTPacket/src/MQTTSubscribeClient.c **** 
  90:/home/xingli/share/1205tiny/network/mqtt/paho_mqtt/paho/MQTTPacket/src/MQTTSubscribeClient.c **** /**
  91:/home/xingli/share/1205tiny/network/mqtt/paho_mqtt/paho/MQTTPacket/src/MQTTSubscribeClient.c ****   * Deserializes the supplied (wire) buffer into suback data
  92:/home/xingli/share/1205tiny/network/mqtt/paho_mqtt/paho/MQTTPacket/src/MQTTSubscribeClient.c ****   * @param packetid returned integer - the MQTT packet identifier
  93:/home/xingli/share/1205tiny/network/mqtt/paho_mqtt/paho/MQTTPacket/src/MQTTSubscribeClient.c ****   * @param maxcount - the maximum number of members allowed in the grantedQoSs array
  94:/home/xingli/share/1205tiny/network/mqtt/paho_mqtt/paho/MQTTPacket/src/MQTTSubscribeClient.c ****   * @param count returned integer - number of members in the grantedQoSs array
  95:/home/xingli/share/1205tiny/network/mqtt/paho_mqtt/paho/MQTTPacket/src/MQTTSubscribeClient.c ****   * @param grantedQoSs returned array of integers - the granted qualities of service
  96:/home/xingli/share/1205tiny/network/mqtt/paho_mqtt/paho/MQTTPacket/src/MQTTSubscribeClient.c ****   * @param buf the raw buffer data, of the correct length determined by the remaining length field
  97:/home/xingli/share/1205tiny/network/mqtt/paho_mqtt/paho/MQTTPacket/src/MQTTSubscribeClient.c ****   * @param buflen the length in bytes of the data in the supplied buffer
  98:/home/xingli/share/1205tiny/network/mqtt/paho_mqtt/paho/MQTTPacket/src/MQTTSubscribeClient.c ****   * @return error code.  1 is success, 0 is failure
  99:/home/xingli/share/1205tiny/network/mqtt/paho_mqtt/paho/MQTTPacket/src/MQTTSubscribeClient.c ****   */
 100:/home/xingli/share/1205tiny/network/mqtt/paho_mqtt/paho/MQTTPacket/src/MQTTSubscribeClient.c **** int MQTTDeserialize_suback(unsigned short* packetid, int maxcount, int* count, int grantedQoSs[], u
 101:/home/xingli/share/1205tiny/network/mqtt/paho_mqtt/paho/MQTTPacket/src/MQTTSubscribeClient.c **** {
 254              		.loc 1 101 1
 255              		.cfi_startproc
 256 0000 F30F1EFA 		endbr64
 257 0004 55       		pushq	%rbp
 258              	.LCFI6:
 259              		.cfi_def_cfa_offset 16
 260              		.cfi_offset 6, -16
 261 0005 4889E5   		movq	%rsp, %rbp
 262              	.LCFI7:
 263              		.cfi_def_cfa_register 6
 264 0008 4883EC60 		subq	$96, %rsp
 265 000c 48897DC8 		movq	%rdi, -56(%rbp)
 266 0010 8975C4   		movl	%esi, -60(%rbp)
 267 0013 488955B8 		movq	%rdx, -72(%rbp)
 268 0017 48894DB0 		movq	%rcx, -80(%rbp)
 269 001b 4C8945A8 		movq	%r8, -88(%rbp)
 270 001f 44894DC0 		movl	%r9d, -64(%rbp)
GAS LISTING /tmp/ccmKBjaj.s 			page 8


 271              		.loc 1 101 1
 272 0023 64488B04 		movq	%fs:40, %rax
 272      25280000 
 272      00
 273 002c 488945F8 		movq	%rax, -8(%rbp)
 274 0030 31C0     		xorl	%eax, %eax
 102:/home/xingli/share/1205tiny/network/mqtt/paho_mqtt/paho/MQTTPacket/src/MQTTSubscribeClient.c **** 	MQTTHeader header = {0};
 275              		.loc 1 102 13
 276 0032 C745DC00 		movl	$0, -36(%rbp)
 276      000000
 103:/home/xingli/share/1205tiny/network/mqtt/paho_mqtt/paho/MQTTPacket/src/MQTTSubscribeClient.c **** 	unsigned char* curdata = buf;
 277              		.loc 1 103 17
 278 0039 488B45A8 		movq	-88(%rbp), %rax
 279 003d 488945E8 		movq	%rax, -24(%rbp)
 104:/home/xingli/share/1205tiny/network/mqtt/paho_mqtt/paho/MQTTPacket/src/MQTTSubscribeClient.c **** 	unsigned char* enddata = NULL;
 280              		.loc 1 104 17
 281 0041 48C745F0 		movq	$0, -16(%rbp)
 281      00000000 
 105:/home/xingli/share/1205tiny/network/mqtt/paho_mqtt/paho/MQTTPacket/src/MQTTSubscribeClient.c **** 	int rc = 0;
 282              		.loc 1 105 6
 283 0049 C745E400 		movl	$0, -28(%rbp)
 283      000000
 106:/home/xingli/share/1205tiny/network/mqtt/paho_mqtt/paho/MQTTPacket/src/MQTTSubscribeClient.c **** 	int mylen;
 107:/home/xingli/share/1205tiny/network/mqtt/paho_mqtt/paho/MQTTPacket/src/MQTTSubscribeClient.c **** 
 108:/home/xingli/share/1205tiny/network/mqtt/paho_mqtt/paho/MQTTPacket/src/MQTTSubscribeClient.c **** 	FUNC_ENTRY;
 109:/home/xingli/share/1205tiny/network/mqtt/paho_mqtt/paho/MQTTPacket/src/MQTTSubscribeClient.c **** 	header.byte = readChar(&curdata);
 284              		.loc 1 109 16
 285 0050 488D45E8 		leaq	-24(%rbp), %rax
 286 0054 4889C7   		movq	%rax, %rdi
 287 0057 E8000000 		call	readChar@PLT
 287      00
 288              		.loc 1 109 14
 289 005c 8845DC   		movb	%al, -36(%rbp)
 110:/home/xingli/share/1205tiny/network/mqtt/paho_mqtt/paho/MQTTPacket/src/MQTTSubscribeClient.c **** 	if (header.bits.type != SUBACK)
 290              		.loc 1 110 23
 291 005f 0FB645DC 		movzbl	-36(%rbp), %eax
 292 0063 83E0F0   		andl	$-16, %eax
 293              		.loc 1 110 5
 294 0066 3C90     		cmpb	$-112, %al
 295 0068 0F85C500 		jne	.L22
 295      0000
 111:/home/xingli/share/1205tiny/network/mqtt/paho_mqtt/paho/MQTTPacket/src/MQTTSubscribeClient.c **** 		goto exit;
 112:/home/xingli/share/1205tiny/network/mqtt/paho_mqtt/paho/MQTTPacket/src/MQTTSubscribeClient.c **** 
 113:/home/xingli/share/1205tiny/network/mqtt/paho_mqtt/paho/MQTTPacket/src/MQTTSubscribeClient.c **** 	curdata += (rc = MQTTPacket_decodeBuf(curdata, &mylen)); /* read remaining length */
 296              		.loc 1 113 19
 297 006e 488B45E8 		movq	-24(%rbp), %rax
 298 0072 488D55E0 		leaq	-32(%rbp), %rdx
 299 0076 4889D6   		movq	%rdx, %rsi
 300 0079 4889C7   		movq	%rax, %rdi
 301 007c E8000000 		call	MQTTPacket_decodeBuf@PLT
 301      00
 302 0081 8945E4   		movl	%eax, -28(%rbp)
 303              		.loc 1 113 17
 304 0084 8B45E4   		movl	-28(%rbp), %eax
 305              		.loc 1 113 10
 306 0087 488B55E8 		movq	-24(%rbp), %rdx
 307              		.loc 1 113 17
GAS LISTING /tmp/ccmKBjaj.s 			page 9


 308 008b 4898     		cltq
 309              		.loc 1 113 10
 310 008d 4801D0   		addq	%rdx, %rax
 311 0090 488945E8 		movq	%rax, -24(%rbp)
 114:/home/xingli/share/1205tiny/network/mqtt/paho_mqtt/paho/MQTTPacket/src/MQTTSubscribeClient.c **** 	enddata = curdata + mylen;
 312              		.loc 1 114 20
 313 0094 488B55E8 		movq	-24(%rbp), %rdx
 314 0098 8B45E0   		movl	-32(%rbp), %eax
 315 009b 4898     		cltq
 316              		.loc 1 114 10
 317 009d 4801D0   		addq	%rdx, %rax
 318 00a0 488945F0 		movq	%rax, -16(%rbp)
 115:/home/xingli/share/1205tiny/network/mqtt/paho_mqtt/paho/MQTTPacket/src/MQTTSubscribeClient.c **** 	if (enddata - curdata < 2)
 319              		.loc 1 115 14
 320 00a4 488B45E8 		movq	-24(%rbp), %rax
 321 00a8 488B55F0 		movq	-16(%rbp), %rdx
 322 00ac 4829C2   		subq	%rax, %rdx
 323 00af 4889D0   		movq	%rdx, %rax
 324              		.loc 1 115 5
 325 00b2 4883F801 		cmpq	$1, %rax
 326 00b6 7E7E     		jle	.L23
 116:/home/xingli/share/1205tiny/network/mqtt/paho_mqtt/paho/MQTTPacket/src/MQTTSubscribeClient.c **** 		goto exit;
 117:/home/xingli/share/1205tiny/network/mqtt/paho_mqtt/paho/MQTTPacket/src/MQTTSubscribeClient.c **** 
 118:/home/xingli/share/1205tiny/network/mqtt/paho_mqtt/paho/MQTTPacket/src/MQTTSubscribeClient.c **** 	*packetid = readInt(&curdata);
 327              		.loc 1 118 14
 328 00b8 488D45E8 		leaq	-24(%rbp), %rax
 329 00bc 4889C7   		movq	%rax, %rdi
 330 00bf E8000000 		call	readInt@PLT
 330      00
 331              		.loc 1 118 12
 332 00c4 89C2     		movl	%eax, %edx
 333 00c6 488B45C8 		movq	-56(%rbp), %rax
 334 00ca 668910   		movw	%dx, (%rax)
 119:/home/xingli/share/1205tiny/network/mqtt/paho_mqtt/paho/MQTTPacket/src/MQTTSubscribeClient.c **** 
 120:/home/xingli/share/1205tiny/network/mqtt/paho_mqtt/paho/MQTTPacket/src/MQTTSubscribeClient.c **** 	*count = 0;
 335              		.loc 1 120 9
 336 00cd 488B45B8 		movq	-72(%rbp), %rax
 337 00d1 C7000000 		movl	$0, (%rax)
 337      0000
 121:/home/xingli/share/1205tiny/network/mqtt/paho_mqtt/paho/MQTTPacket/src/MQTTSubscribeClient.c **** 	while (curdata < enddata)
 338              		.loc 1 121 8
 339 00d7 EB47     		jmp	.L17
 340              	.L19:
 122:/home/xingli/share/1205tiny/network/mqtt/paho_mqtt/paho/MQTTPacket/src/MQTTSubscribeClient.c **** 	{
 123:/home/xingli/share/1205tiny/network/mqtt/paho_mqtt/paho/MQTTPacket/src/MQTTSubscribeClient.c **** 		if (*count > maxcount)
 341              		.loc 1 123 7
 342 00d9 488B45B8 		movq	-72(%rbp), %rax
 343 00dd 8B00     		movl	(%rax), %eax
 344              		.loc 1 123 6
 345 00df 3945C4   		cmpl	%eax, -60(%rbp)
 346 00e2 7D09     		jge	.L18
 124:/home/xingli/share/1205tiny/network/mqtt/paho_mqtt/paho/MQTTPacket/src/MQTTSubscribeClient.c **** 		{
 125:/home/xingli/share/1205tiny/network/mqtt/paho_mqtt/paho/MQTTPacket/src/MQTTSubscribeClient.c **** 			rc = -1;
 347              		.loc 1 125 7
 348 00e4 C745E4FF 		movl	$-1, -28(%rbp)
 348      FFFFFF
 126:/home/xingli/share/1205tiny/network/mqtt/paho_mqtt/paho/MQTTPacket/src/MQTTSubscribeClient.c **** 			goto exit;
GAS LISTING /tmp/ccmKBjaj.s 			page 10


 349              		.loc 1 126 4
 350 00eb EB4A     		jmp	.L15
 351              	.L18:
 127:/home/xingli/share/1205tiny/network/mqtt/paho_mqtt/paho/MQTTPacket/src/MQTTSubscribeClient.c **** 		}
 128:/home/xingli/share/1205tiny/network/mqtt/paho_mqtt/paho/MQTTPacket/src/MQTTSubscribeClient.c **** 		grantedQoSs[(*count)++] = readChar(&curdata);
 352              		.loc 1 128 29
 353 00ed 488D45E8 		leaq	-24(%rbp), %rax
 354 00f1 4889C7   		movq	%rax, %rdi
 355 00f4 E8000000 		call	readChar@PLT
 355      00
 356 00f9 89C2     		movl	%eax, %edx
 357              		.loc 1 128 16
 358 00fb 488B45B8 		movq	-72(%rbp), %rax
 359 00ff 8B00     		movl	(%rax), %eax
 360              		.loc 1 128 23
 361 0101 8D7001   		leal	1(%rax), %esi
 362 0104 488B4DB8 		movq	-72(%rbp), %rcx
 363 0108 8931     		movl	%esi, (%rcx)
 364 010a 4898     		cltq
 365              		.loc 1 128 14
 366 010c 488D0C85 		leaq	0(,%rax,4), %rcx
 366      00000000 
 367 0114 488B45B0 		movq	-80(%rbp), %rax
 368 0118 4801C1   		addq	%rax, %rcx
 369              		.loc 1 128 29
 370 011b 0FBEC2   		movsbl	%dl, %eax
 371              		.loc 1 128 27
 372 011e 8901     		movl	%eax, (%rcx)
 373              	.L17:
 121:/home/xingli/share/1205tiny/network/mqtt/paho_mqtt/paho/MQTTPacket/src/MQTTSubscribeClient.c **** 	{
 374              		.loc 1 121 17
 375 0120 488B45E8 		movq	-24(%rbp), %rax
 121:/home/xingli/share/1205tiny/network/mqtt/paho_mqtt/paho/MQTTPacket/src/MQTTSubscribeClient.c **** 	{
 376              		.loc 1 121 8
 377 0124 483945F0 		cmpq	%rax, -16(%rbp)
 378 0128 77AF     		ja	.L19
 129:/home/xingli/share/1205tiny/network/mqtt/paho_mqtt/paho/MQTTPacket/src/MQTTSubscribeClient.c **** 	}
 130:/home/xingli/share/1205tiny/network/mqtt/paho_mqtt/paho/MQTTPacket/src/MQTTSubscribeClient.c **** 
 131:/home/xingli/share/1205tiny/network/mqtt/paho_mqtt/paho/MQTTPacket/src/MQTTSubscribeClient.c **** 	rc = 1;
 379              		.loc 1 131 5
 380 012a C745E401 		movl	$1, -28(%rbp)
 380      000000
 381 0131 EB04     		jmp	.L15
 382              	.L22:
 111:/home/xingli/share/1205tiny/network/mqtt/paho_mqtt/paho/MQTTPacket/src/MQTTSubscribeClient.c **** 
 383              		.loc 1 111 3
 384 0133 90       		nop
 385 0134 EB01     		jmp	.L15
 386              	.L23:
 116:/home/xingli/share/1205tiny/network/mqtt/paho_mqtt/paho/MQTTPacket/src/MQTTSubscribeClient.c **** 
 387              		.loc 1 116 3
 388 0136 90       		nop
 389              	.L15:
 132:/home/xingli/share/1205tiny/network/mqtt/paho_mqtt/paho/MQTTPacket/src/MQTTSubscribeClient.c **** exit:
 133:/home/xingli/share/1205tiny/network/mqtt/paho_mqtt/paho/MQTTPacket/src/MQTTSubscribeClient.c **** 	FUNC_EXIT_RC(rc);
 134:/home/xingli/share/1205tiny/network/mqtt/paho_mqtt/paho/MQTTPacket/src/MQTTSubscribeClient.c **** 	return rc;
 390              		.loc 1 134 9
GAS LISTING /tmp/ccmKBjaj.s 			page 11


 391 0137 8B45E4   		movl	-28(%rbp), %eax
 135:/home/xingli/share/1205tiny/network/mqtt/paho_mqtt/paho/MQTTPacket/src/MQTTSubscribeClient.c **** }
 392              		.loc 1 135 1
 393 013a 488B75F8 		movq	-8(%rbp), %rsi
 394 013e 64483334 		xorq	%fs:40, %rsi
 394      25280000 
 394      00
 395 0147 7405     		je	.L21
 396 0149 E8000000 		call	__stack_chk_fail@PLT
 396      00
 397              	.L21:
 398 014e C9       		leave
 399              	.LCFI8:
 400              		.cfi_def_cfa 7, 8
 401 014f C3       		ret
 402              		.cfi_endproc
 403              	.LFE2:
 405              		.text
 406              	.Letext0:
 407              		.file 2 "/home/xingli/share/1205tiny/network/mqtt/paho_mqtt/paho/MQTTPacket/src/MQTTPacket.h"
 408              		.file 3 "/usr/lib/gcc/x86_64-linux-gnu/9/include/stddef.h"
 409              		.file 4 "/usr/include/x86_64-linux-gnu/bits/types.h"
 410              		.file 5 "/usr/include/x86_64-linux-gnu/bits/types/struct_FILE.h"
 411              		.file 6 "/usr/include/x86_64-linux-gnu/bits/types/FILE.h"
 412              		.file 7 "/usr/include/stdio.h"
 413              		.file 8 "/usr/include/x86_64-linux-gnu/bits/sys_errlist.h"
 2153              		.section	.note.gnu.property,"a"
 2154              		.align 8
 2155 0000 04000000 		.long	 1f - 0f
 2156 0004 10000000 		.long	 4f - 1f
 2157 0008 05000000 		.long	 5
 2158              	0:
 2159 000c 474E5500 		.string	 "GNU"
 2160              	1:
 2161              		.align 8
 2162 0010 020000C0 		.long	 0xc0000002
 2163 0014 04000000 		.long	 3f - 2f
 2164              	2:
 2165 0018 03000000 		.long	 0x3
 2166              	3:
 2167 001c 00000000 		.align 8
 2168              	4:
GAS LISTING /tmp/ccmKBjaj.s 			page 12

