GAS LISTING /tmp/ccK3Mg4e.s 			page 1


   1              		.file	"MQTTUnsubscribeServer.c"
   2              		.text
   3              	.Ltext0:
   4              		.section	.text.MQTTDeserialize_unsubscribe,"ax",@progbits
   5              		.globl	MQTTDeserialize_unsubscribe
   7              	MQTTDeserialize_unsubscribe:
   8              	.LFB0:
   9              		.file 1 "/home/xingli/share/1205tiny/network/mqtt/paho_mqtt/paho/MQTTPacket/src/MQTTUnsubscribeSer
   1:/home/xingli/share/1205tiny/network/mqtt/paho_mqtt/paho/MQTTPacket/src/MQTTUnsubscribeServer.c **** /*******************************************************************************
   2:/home/xingli/share/1205tiny/network/mqtt/paho_mqtt/paho/MQTTPacket/src/MQTTUnsubscribeServer.c ****  * Copyright (c) 2014 IBM Corp.
   3:/home/xingli/share/1205tiny/network/mqtt/paho_mqtt/paho/MQTTPacket/src/MQTTUnsubscribeServer.c ****  *
   4:/home/xingli/share/1205tiny/network/mqtt/paho_mqtt/paho/MQTTPacket/src/MQTTUnsubscribeServer.c ****  * All rights reserved. This program and the accompanying materials
   5:/home/xingli/share/1205tiny/network/mqtt/paho_mqtt/paho/MQTTPacket/src/MQTTUnsubscribeServer.c ****  * are made available under the terms of the Eclipse Public License v1.0
   6:/home/xingli/share/1205tiny/network/mqtt/paho_mqtt/paho/MQTTPacket/src/MQTTUnsubscribeServer.c ****  * and Eclipse Distribution License v1.0 which accompany this distribution.
   7:/home/xingli/share/1205tiny/network/mqtt/paho_mqtt/paho/MQTTPacket/src/MQTTUnsubscribeServer.c ****  *
   8:/home/xingli/share/1205tiny/network/mqtt/paho_mqtt/paho/MQTTPacket/src/MQTTUnsubscribeServer.c ****  * The Eclipse Public License is available at
   9:/home/xingli/share/1205tiny/network/mqtt/paho_mqtt/paho/MQTTPacket/src/MQTTUnsubscribeServer.c ****  *    http://www.eclipse.org/legal/epl-v10.html
  10:/home/xingli/share/1205tiny/network/mqtt/paho_mqtt/paho/MQTTPacket/src/MQTTUnsubscribeServer.c ****  * and the Eclipse Distribution License is available at
  11:/home/xingli/share/1205tiny/network/mqtt/paho_mqtt/paho/MQTTPacket/src/MQTTUnsubscribeServer.c ****  *   http://www.eclipse.org/org/documents/edl-v10.php.
  12:/home/xingli/share/1205tiny/network/mqtt/paho_mqtt/paho/MQTTPacket/src/MQTTUnsubscribeServer.c ****  *
  13:/home/xingli/share/1205tiny/network/mqtt/paho_mqtt/paho/MQTTPacket/src/MQTTUnsubscribeServer.c ****  * Contributors:
  14:/home/xingli/share/1205tiny/network/mqtt/paho_mqtt/paho/MQTTPacket/src/MQTTUnsubscribeServer.c ****  *    Ian Craggs - initial API and implementation and/or initial documentation
  15:/home/xingli/share/1205tiny/network/mqtt/paho_mqtt/paho/MQTTPacket/src/MQTTUnsubscribeServer.c ****  *******************************************************************************/
  16:/home/xingli/share/1205tiny/network/mqtt/paho_mqtt/paho/MQTTPacket/src/MQTTUnsubscribeServer.c **** 
  17:/home/xingli/share/1205tiny/network/mqtt/paho_mqtt/paho/MQTTPacket/src/MQTTUnsubscribeServer.c **** #include "MQTTPacket.h"
  18:/home/xingli/share/1205tiny/network/mqtt/paho_mqtt/paho/MQTTPacket/src/MQTTUnsubscribeServer.c **** #include "StackTrace.h"
  19:/home/xingli/share/1205tiny/network/mqtt/paho_mqtt/paho/MQTTPacket/src/MQTTUnsubscribeServer.c **** 
  20:/home/xingli/share/1205tiny/network/mqtt/paho_mqtt/paho/MQTTPacket/src/MQTTUnsubscribeServer.c **** #include <string.h>
  21:/home/xingli/share/1205tiny/network/mqtt/paho_mqtt/paho/MQTTPacket/src/MQTTUnsubscribeServer.c **** 
  22:/home/xingli/share/1205tiny/network/mqtt/paho_mqtt/paho/MQTTPacket/src/MQTTUnsubscribeServer.c **** 
  23:/home/xingli/share/1205tiny/network/mqtt/paho_mqtt/paho/MQTTPacket/src/MQTTUnsubscribeServer.c **** /**
  24:/home/xingli/share/1205tiny/network/mqtt/paho_mqtt/paho/MQTTPacket/src/MQTTUnsubscribeServer.c ****   * Deserializes the supplied (wire) buffer into unsubscribe data
  25:/home/xingli/share/1205tiny/network/mqtt/paho_mqtt/paho/MQTTPacket/src/MQTTUnsubscribeServer.c ****   * @param dup integer returned - the MQTT dup flag
  26:/home/xingli/share/1205tiny/network/mqtt/paho_mqtt/paho/MQTTPacket/src/MQTTUnsubscribeServer.c ****   * @param packetid integer returned - the MQTT packet identifier
  27:/home/xingli/share/1205tiny/network/mqtt/paho_mqtt/paho/MQTTPacket/src/MQTTUnsubscribeServer.c ****   * @param maxcount - the maximum number of members allowed in the topicFilters and requestedQoSs a
  28:/home/xingli/share/1205tiny/network/mqtt/paho_mqtt/paho/MQTTPacket/src/MQTTUnsubscribeServer.c ****   * @param count - number of members in the topicFilters and requestedQoSs arrays
  29:/home/xingli/share/1205tiny/network/mqtt/paho_mqtt/paho/MQTTPacket/src/MQTTUnsubscribeServer.c ****   * @param topicFilters - array of topic filter names
  30:/home/xingli/share/1205tiny/network/mqtt/paho_mqtt/paho/MQTTPacket/src/MQTTUnsubscribeServer.c ****   * @param buf the raw buffer data, of the correct length determined by the remaining length field
  31:/home/xingli/share/1205tiny/network/mqtt/paho_mqtt/paho/MQTTPacket/src/MQTTUnsubscribeServer.c ****   * @param buflen the length in bytes of the data in the supplied buffer
  32:/home/xingli/share/1205tiny/network/mqtt/paho_mqtt/paho/MQTTPacket/src/MQTTUnsubscribeServer.c ****   * @return the length of the serialized data.  <= 0 indicates error
  33:/home/xingli/share/1205tiny/network/mqtt/paho_mqtt/paho/MQTTPacket/src/MQTTUnsubscribeServer.c ****   */
  34:/home/xingli/share/1205tiny/network/mqtt/paho_mqtt/paho/MQTTPacket/src/MQTTUnsubscribeServer.c **** int MQTTDeserialize_unsubscribe(unsigned char* dup, unsigned short* packetid, int maxcount, int* co
  35:/home/xingli/share/1205tiny/network/mqtt/paho_mqtt/paho/MQTTPacket/src/MQTTUnsubscribeServer.c **** 		unsigned char* buf, int len)
  36:/home/xingli/share/1205tiny/network/mqtt/paho_mqtt/paho/MQTTPacket/src/MQTTUnsubscribeServer.c **** {
  10              		.loc 1 36 1
  11              		.cfi_startproc
  12 0000 F30F1EFA 		endbr64
  13 0004 55       		pushq	%rbp
  14              	.LCFI0:
  15              		.cfi_def_cfa_offset 16
  16              		.cfi_offset 6, -16
  17 0005 4889E5   		movq	%rsp, %rbp
  18              	.LCFI1:
  19              		.cfi_def_cfa_register 6
  20 0008 4883EC60 		subq	$96, %rsp
  21 000c 48897DC8 		movq	%rdi, -56(%rbp)
  22 0010 488975C0 		movq	%rsi, -64(%rbp)
GAS LISTING /tmp/ccK3Mg4e.s 			page 2


  23 0014 8955BC   		movl	%edx, -68(%rbp)
  24 0017 48894DB0 		movq	%rcx, -80(%rbp)
  25 001b 4C8945A8 		movq	%r8, -88(%rbp)
  26 001f 4C894DA0 		movq	%r9, -96(%rbp)
  27 0023 8B4510   		movl	16(%rbp), %eax
  28 0026 8945B8   		movl	%eax, -72(%rbp)
  29              		.loc 1 36 1
  30 0029 64488B04 		movq	%fs:40, %rax
  30      25280000 
  30      00
  31 0032 488945F8 		movq	%rax, -8(%rbp)
  32 0036 31C0     		xorl	%eax, %eax
  37:/home/xingli/share/1205tiny/network/mqtt/paho_mqtt/paho/MQTTPacket/src/MQTTUnsubscribeServer.c **** 	MQTTHeader header = {0};
  33              		.loc 1 37 13
  34 0038 C745DC00 		movl	$0, -36(%rbp)
  34      000000
  38:/home/xingli/share/1205tiny/network/mqtt/paho_mqtt/paho/MQTTPacket/src/MQTTUnsubscribeServer.c **** 	unsigned char* curdata = buf;
  35              		.loc 1 38 17
  36 003f 488B45A0 		movq	-96(%rbp), %rax
  37 0043 488945E8 		movq	%rax, -24(%rbp)
  39:/home/xingli/share/1205tiny/network/mqtt/paho_mqtt/paho/MQTTPacket/src/MQTTUnsubscribeServer.c **** 	unsigned char* enddata = NULL;
  38              		.loc 1 39 17
  39 0047 48C745F0 		movq	$0, -16(%rbp)
  39      00000000 
  40:/home/xingli/share/1205tiny/network/mqtt/paho_mqtt/paho/MQTTPacket/src/MQTTUnsubscribeServer.c **** 	int rc = 0;
  40              		.loc 1 40 6
  41 004f C745E400 		movl	$0, -28(%rbp)
  41      000000
  41:/home/xingli/share/1205tiny/network/mqtt/paho_mqtt/paho/MQTTPacket/src/MQTTUnsubscribeServer.c **** 	int mylen = 0;
  42              		.loc 1 41 6
  43 0056 C745E000 		movl	$0, -32(%rbp)
  43      000000
  42:/home/xingli/share/1205tiny/network/mqtt/paho_mqtt/paho/MQTTPacket/src/MQTTUnsubscribeServer.c **** 
  43:/home/xingli/share/1205tiny/network/mqtt/paho_mqtt/paho/MQTTPacket/src/MQTTUnsubscribeServer.c **** 	FUNC_ENTRY;
  44:/home/xingli/share/1205tiny/network/mqtt/paho_mqtt/paho/MQTTPacket/src/MQTTUnsubscribeServer.c **** 	header.byte = readChar(&curdata);
  44              		.loc 1 44 16
  45 005d 488D45E8 		leaq	-24(%rbp), %rax
  46 0061 4889C7   		movq	%rax, %rdi
  47 0064 E8000000 		call	readChar@PLT
  47      00
  48              		.loc 1 44 14
  49 0069 8845DC   		movb	%al, -36(%rbp)
  45:/home/xingli/share/1205tiny/network/mqtt/paho_mqtt/paho/MQTTPacket/src/MQTTUnsubscribeServer.c **** 	if (header.bits.type != UNSUBSCRIBE)
  50              		.loc 1 45 23
  51 006c 0FB645DC 		movzbl	-36(%rbp), %eax
  52 0070 83E0F0   		andl	$-16, %eax
  53              		.loc 1 45 5
  54 0073 3CA0     		cmpb	$-96, %al
  55 0075 0F85C300 		jne	.L9
  55      0000
  46:/home/xingli/share/1205tiny/network/mqtt/paho_mqtt/paho/MQTTPacket/src/MQTTUnsubscribeServer.c **** 		goto exit;
  47:/home/xingli/share/1205tiny/network/mqtt/paho_mqtt/paho/MQTTPacket/src/MQTTUnsubscribeServer.c **** 	*dup = header.bits.dup;
  56              		.loc 1 47 20
  57 007b 0FB645DC 		movzbl	-36(%rbp), %eax
  58 007f C0E803   		shrb	$3, %al
  59 0082 83E001   		andl	$1, %eax
  60 0085 89C2     		movl	%eax, %edx
GAS LISTING /tmp/ccK3Mg4e.s 			page 3


  61              		.loc 1 47 7
  62 0087 488B45C8 		movq	-56(%rbp), %rax
  63 008b 8810     		movb	%dl, (%rax)
  48:/home/xingli/share/1205tiny/network/mqtt/paho_mqtt/paho/MQTTPacket/src/MQTTUnsubscribeServer.c **** 
  49:/home/xingli/share/1205tiny/network/mqtt/paho_mqtt/paho/MQTTPacket/src/MQTTUnsubscribeServer.c **** 	curdata += (rc = MQTTPacket_decodeBuf(curdata, &mylen)); /* read remaining length */
  64              		.loc 1 49 19
  65 008d 488B45E8 		movq	-24(%rbp), %rax
  66 0091 488D55E0 		leaq	-32(%rbp), %rdx
  67 0095 4889D6   		movq	%rdx, %rsi
  68 0098 4889C7   		movq	%rax, %rdi
  69 009b E8000000 		call	MQTTPacket_decodeBuf@PLT
  69      00
  70 00a0 8945E4   		movl	%eax, -28(%rbp)
  71              		.loc 1 49 17
  72 00a3 8B45E4   		movl	-28(%rbp), %eax
  73              		.loc 1 49 10
  74 00a6 488B55E8 		movq	-24(%rbp), %rdx
  75              		.loc 1 49 17
  76 00aa 4898     		cltq
  77              		.loc 1 49 10
  78 00ac 4801D0   		addq	%rdx, %rax
  79 00af 488945E8 		movq	%rax, -24(%rbp)
  50:/home/xingli/share/1205tiny/network/mqtt/paho_mqtt/paho/MQTTPacket/src/MQTTUnsubscribeServer.c **** 	enddata = curdata + mylen;
  80              		.loc 1 50 20
  81 00b3 488B55E8 		movq	-24(%rbp), %rdx
  82 00b7 8B45E0   		movl	-32(%rbp), %eax
  83 00ba 4898     		cltq
  84              		.loc 1 50 10
  85 00bc 4801D0   		addq	%rdx, %rax
  86 00bf 488945F0 		movq	%rax, -16(%rbp)
  51:/home/xingli/share/1205tiny/network/mqtt/paho_mqtt/paho/MQTTPacket/src/MQTTUnsubscribeServer.c **** 
  52:/home/xingli/share/1205tiny/network/mqtt/paho_mqtt/paho/MQTTPacket/src/MQTTUnsubscribeServer.c **** 	*packetid = readInt(&curdata);
  87              		.loc 1 52 14
  88 00c3 488D45E8 		leaq	-24(%rbp), %rax
  89 00c7 4889C7   		movq	%rax, %rdi
  90 00ca E8000000 		call	readInt@PLT
  90      00
  91              		.loc 1 52 12
  92 00cf 89C2     		movl	%eax, %edx
  93 00d1 488B45C0 		movq	-64(%rbp), %rax
  94 00d5 668910   		movw	%dx, (%rax)
  53:/home/xingli/share/1205tiny/network/mqtt/paho_mqtt/paho/MQTTPacket/src/MQTTUnsubscribeServer.c **** 
  54:/home/xingli/share/1205tiny/network/mqtt/paho_mqtt/paho/MQTTPacket/src/MQTTUnsubscribeServer.c **** 	*count = 0;
  95              		.loc 1 54 9
  96 00d8 488B45B0 		movq	-80(%rbp), %rax
  97 00dc C7000000 		movl	$0, (%rax)
  97      0000
  55:/home/xingli/share/1205tiny/network/mqtt/paho_mqtt/paho/MQTTPacket/src/MQTTUnsubscribeServer.c **** 	while (curdata < enddata)
  98              		.loc 1 55 8
  99 00e2 EB47     		jmp	.L4
 100              	.L6:
  56:/home/xingli/share/1205tiny/network/mqtt/paho_mqtt/paho/MQTTPacket/src/MQTTUnsubscribeServer.c **** 	{
  57:/home/xingli/share/1205tiny/network/mqtt/paho_mqtt/paho/MQTTPacket/src/MQTTUnsubscribeServer.c **** 		if (!readMQTTLenString(&topicFilters[*count], &curdata, enddata))
 101              		.loc 1 57 40
 102 00e4 488B45B0 		movq	-80(%rbp), %rax
 103 00e8 8B00     		movl	(%rax), %eax
 104 00ea 4863D0   		movslq	%eax, %rdx
GAS LISTING /tmp/ccK3Mg4e.s 			page 4


 105              		.loc 1 57 39
 106 00ed 4889D0   		movq	%rdx, %rax
 107 00f0 4801C0   		addq	%rax, %rax
 108 00f3 4801D0   		addq	%rdx, %rax
 109 00f6 48C1E003 		salq	$3, %rax
 110 00fa 4889C2   		movq	%rax, %rdx
 111              		.loc 1 57 8
 112 00fd 488B45A8 		movq	-88(%rbp), %rax
 113 0101 488D0C02 		leaq	(%rdx,%rax), %rcx
 114 0105 488B55F0 		movq	-16(%rbp), %rdx
 115 0109 488D45E8 		leaq	-24(%rbp), %rax
 116 010d 4889C6   		movq	%rax, %rsi
 117 0110 4889CF   		movq	%rcx, %rdi
 118 0113 E8000000 		call	readMQTTLenString@PLT
 118      00
 119              		.loc 1 57 6
 120 0118 85C0     		testl	%eax, %eax
 121 011a 7425     		je	.L10
  58:/home/xingli/share/1205tiny/network/mqtt/paho_mqtt/paho/MQTTPacket/src/MQTTUnsubscribeServer.c **** 			goto exit;
  59:/home/xingli/share/1205tiny/network/mqtt/paho_mqtt/paho/MQTTPacket/src/MQTTUnsubscribeServer.c **** 		(*count)++;
 122              		.loc 1 59 4
 123 011c 488B45B0 		movq	-80(%rbp), %rax
 124 0120 8B00     		movl	(%rax), %eax
 125              		.loc 1 59 11
 126 0122 8D5001   		leal	1(%rax), %edx
 127 0125 488B45B0 		movq	-80(%rbp), %rax
 128 0129 8910     		movl	%edx, (%rax)
 129              	.L4:
  55:/home/xingli/share/1205tiny/network/mqtt/paho_mqtt/paho/MQTTPacket/src/MQTTUnsubscribeServer.c **** 	{
 130              		.loc 1 55 17
 131 012b 488B45E8 		movq	-24(%rbp), %rax
  55:/home/xingli/share/1205tiny/network/mqtt/paho_mqtt/paho/MQTTPacket/src/MQTTUnsubscribeServer.c **** 	{
 132              		.loc 1 55 8
 133 012f 483945F0 		cmpq	%rax, -16(%rbp)
 134 0133 77AF     		ja	.L6
  60:/home/xingli/share/1205tiny/network/mqtt/paho_mqtt/paho/MQTTPacket/src/MQTTUnsubscribeServer.c **** 	}
  61:/home/xingli/share/1205tiny/network/mqtt/paho_mqtt/paho/MQTTPacket/src/MQTTUnsubscribeServer.c **** 
  62:/home/xingli/share/1205tiny/network/mqtt/paho_mqtt/paho/MQTTPacket/src/MQTTUnsubscribeServer.c **** 	rc = 1;
 135              		.loc 1 62 5
 136 0135 C745E401 		movl	$1, -28(%rbp)
 136      000000
 137 013c EB04     		jmp	.L3
 138              	.L9:
  46:/home/xingli/share/1205tiny/network/mqtt/paho_mqtt/paho/MQTTPacket/src/MQTTUnsubscribeServer.c **** 	*dup = header.bits.dup;
 139              		.loc 1 46 3
 140 013e 90       		nop
 141 013f EB01     		jmp	.L3
 142              	.L10:
  58:/home/xingli/share/1205tiny/network/mqtt/paho_mqtt/paho/MQTTPacket/src/MQTTUnsubscribeServer.c **** 		(*count)++;
 143              		.loc 1 58 4
 144 0141 90       		nop
 145              	.L3:
  63:/home/xingli/share/1205tiny/network/mqtt/paho_mqtt/paho/MQTTPacket/src/MQTTUnsubscribeServer.c **** exit:
  64:/home/xingli/share/1205tiny/network/mqtt/paho_mqtt/paho/MQTTPacket/src/MQTTUnsubscribeServer.c **** 	FUNC_EXIT_RC(rc);
  65:/home/xingli/share/1205tiny/network/mqtt/paho_mqtt/paho/MQTTPacket/src/MQTTUnsubscribeServer.c **** 	return rc;
 146              		.loc 1 65 9
 147 0142 8B45E4   		movl	-28(%rbp), %eax
GAS LISTING /tmp/ccK3Mg4e.s 			page 5


  66:/home/xingli/share/1205tiny/network/mqtt/paho_mqtt/paho/MQTTPacket/src/MQTTUnsubscribeServer.c **** }
 148              		.loc 1 66 1
 149 0145 488B4DF8 		movq	-8(%rbp), %rcx
 150 0149 6448330C 		xorq	%fs:40, %rcx
 150      25280000 
 150      00
 151 0152 7405     		je	.L8
 152 0154 E8000000 		call	__stack_chk_fail@PLT
 152      00
 153              	.L8:
 154 0159 C9       		leave
 155              	.LCFI2:
 156              		.cfi_def_cfa 7, 8
 157 015a C3       		ret
 158              		.cfi_endproc
 159              	.LFE0:
 161              		.section	.text.MQTTSerialize_unsuback,"ax",@progbits
 162              		.globl	MQTTSerialize_unsuback
 164              	MQTTSerialize_unsuback:
 165              	.LFB1:
  67:/home/xingli/share/1205tiny/network/mqtt/paho_mqtt/paho/MQTTPacket/src/MQTTUnsubscribeServer.c **** 
  68:/home/xingli/share/1205tiny/network/mqtt/paho_mqtt/paho/MQTTPacket/src/MQTTUnsubscribeServer.c **** 
  69:/home/xingli/share/1205tiny/network/mqtt/paho_mqtt/paho/MQTTPacket/src/MQTTUnsubscribeServer.c **** /**
  70:/home/xingli/share/1205tiny/network/mqtt/paho_mqtt/paho/MQTTPacket/src/MQTTUnsubscribeServer.c ****   * Serializes the supplied unsuback data into the supplied buffer, ready for sending
  71:/home/xingli/share/1205tiny/network/mqtt/paho_mqtt/paho/MQTTPacket/src/MQTTUnsubscribeServer.c ****   * @param buf the buffer into which the packet will be serialized
  72:/home/xingli/share/1205tiny/network/mqtt/paho_mqtt/paho/MQTTPacket/src/MQTTUnsubscribeServer.c ****   * @param buflen the length in bytes of the supplied buffer
  73:/home/xingli/share/1205tiny/network/mqtt/paho_mqtt/paho/MQTTPacket/src/MQTTUnsubscribeServer.c ****   * @param packetid integer - the MQTT packet identifier
  74:/home/xingli/share/1205tiny/network/mqtt/paho_mqtt/paho/MQTTPacket/src/MQTTUnsubscribeServer.c ****   * @return the length of the serialized data.  <= 0 indicates error
  75:/home/xingli/share/1205tiny/network/mqtt/paho_mqtt/paho/MQTTPacket/src/MQTTUnsubscribeServer.c ****   */
  76:/home/xingli/share/1205tiny/network/mqtt/paho_mqtt/paho/MQTTPacket/src/MQTTUnsubscribeServer.c **** int MQTTSerialize_unsuback(unsigned char* buf, int buflen, unsigned short packetid)
  77:/home/xingli/share/1205tiny/network/mqtt/paho_mqtt/paho/MQTTPacket/src/MQTTUnsubscribeServer.c **** {
 166              		.loc 1 77 1
 167              		.cfi_startproc
 168 0000 F30F1EFA 		endbr64
 169 0004 55       		pushq	%rbp
 170              	.LCFI3:
 171              		.cfi_def_cfa_offset 16
 172              		.cfi_offset 6, -16
 173 0005 4889E5   		movq	%rsp, %rbp
 174              	.LCFI4:
 175              		.cfi_def_cfa_register 6
 176 0008 4883EC30 		subq	$48, %rsp
 177 000c 48897DD8 		movq	%rdi, -40(%rbp)
 178 0010 8975D4   		movl	%esi, -44(%rbp)
 179 0013 89D0     		movl	%edx, %eax
 180 0015 668945D0 		movw	%ax, -48(%rbp)
 181              		.loc 1 77 1
 182 0019 64488B04 		movq	%fs:40, %rax
 182      25280000 
 182      00
 183 0022 488945F8 		movq	%rax, -8(%rbp)
 184 0026 31C0     		xorl	%eax, %eax
  78:/home/xingli/share/1205tiny/network/mqtt/paho_mqtt/paho/MQTTPacket/src/MQTTUnsubscribeServer.c **** 	MQTTHeader header = {0};
 185              		.loc 1 78 13
 186 0028 C745E800 		movl	$0, -24(%rbp)
 186      000000
  79:/home/xingli/share/1205tiny/network/mqtt/paho_mqtt/paho/MQTTPacket/src/MQTTUnsubscribeServer.c **** 	int rc = 0;
GAS LISTING /tmp/ccK3Mg4e.s 			page 6


 187              		.loc 1 79 6
 188 002f C745EC00 		movl	$0, -20(%rbp)
 188      000000
  80:/home/xingli/share/1205tiny/network/mqtt/paho_mqtt/paho/MQTTPacket/src/MQTTUnsubscribeServer.c **** 	unsigned char *ptr = buf;
 189              		.loc 1 80 17
 190 0036 488B45D8 		movq	-40(%rbp), %rax
 191 003a 488945F0 		movq	%rax, -16(%rbp)
  81:/home/xingli/share/1205tiny/network/mqtt/paho_mqtt/paho/MQTTPacket/src/MQTTUnsubscribeServer.c **** 
  82:/home/xingli/share/1205tiny/network/mqtt/paho_mqtt/paho/MQTTPacket/src/MQTTUnsubscribeServer.c **** 	FUNC_ENTRY;
  83:/home/xingli/share/1205tiny/network/mqtt/paho_mqtt/paho/MQTTPacket/src/MQTTUnsubscribeServer.c **** 	if (buflen < 2)
 192              		.loc 1 83 5
 193 003e 837DD401 		cmpl	$1, -44(%rbp)
 194 0042 7F09     		jg	.L12
  84:/home/xingli/share/1205tiny/network/mqtt/paho_mqtt/paho/MQTTPacket/src/MQTTUnsubscribeServer.c **** 	{
  85:/home/xingli/share/1205tiny/network/mqtt/paho_mqtt/paho/MQTTPacket/src/MQTTUnsubscribeServer.c **** 		rc = MQTTPACKET_BUFFER_TOO_SHORT;
 195              		.loc 1 85 6
 196 0044 C745ECFE 		movl	$-2, -20(%rbp)
 196      FFFFFF
  86:/home/xingli/share/1205tiny/network/mqtt/paho_mqtt/paho/MQTTPacket/src/MQTTUnsubscribeServer.c **** 		goto exit;
 197              		.loc 1 86 3
 198 004b EB61     		jmp	.L13
 199              	.L12:
  87:/home/xingli/share/1205tiny/network/mqtt/paho_mqtt/paho/MQTTPacket/src/MQTTUnsubscribeServer.c **** 	}
  88:/home/xingli/share/1205tiny/network/mqtt/paho_mqtt/paho/MQTTPacket/src/MQTTUnsubscribeServer.c **** 	header.byte = 0;
 200              		.loc 1 88 14
 201 004d C645E800 		movb	$0, -24(%rbp)
  89:/home/xingli/share/1205tiny/network/mqtt/paho_mqtt/paho/MQTTPacket/src/MQTTUnsubscribeServer.c **** 	header.bits.type = UNSUBACK;
 202              		.loc 1 89 19
 203 0051 0FB645E8 		movzbl	-24(%rbp), %eax
 204 0055 83E00F   		andl	$15, %eax
 205 0058 83C8B0   		orl	$-80, %eax
 206 005b 8845E8   		movb	%al, -24(%rbp)
  90:/home/xingli/share/1205tiny/network/mqtt/paho_mqtt/paho/MQTTPacket/src/MQTTUnsubscribeServer.c **** 	writeChar(&ptr, header.byte); /* write header */
 207              		.loc 1 90 24
 208 005e 0FB645E8 		movzbl	-24(%rbp), %eax
 209              		.loc 1 90 2
 210 0062 0FBED0   		movsbl	%al, %edx
 211 0065 488D45F0 		leaq	-16(%rbp), %rax
 212 0069 89D6     		movl	%edx, %esi
 213 006b 4889C7   		movq	%rax, %rdi
 214 006e E8000000 		call	writeChar@PLT
 214      00
  91:/home/xingli/share/1205tiny/network/mqtt/paho_mqtt/paho/MQTTPacket/src/MQTTUnsubscribeServer.c **** 
  92:/home/xingli/share/1205tiny/network/mqtt/paho_mqtt/paho/MQTTPacket/src/MQTTUnsubscribeServer.c **** 	ptr += MQTTPacket_encode(ptr, 2); /* write remaining length */
 215              		.loc 1 92 9
 216 0073 488B45F0 		movq	-16(%rbp), %rax
 217 0077 BE020000 		movl	$2, %esi
 217      00
 218 007c 4889C7   		movq	%rax, %rdi
 219 007f E8000000 		call	MQTTPacket_encode@PLT
 219      00
 220              		.loc 1 92 6
 221 0084 488B55F0 		movq	-16(%rbp), %rdx
 222              		.loc 1 92 9
 223 0088 4898     		cltq
 224              		.loc 1 92 6
 225 008a 4801D0   		addq	%rdx, %rax
GAS LISTING /tmp/ccK3Mg4e.s 			page 7


 226 008d 488945F0 		movq	%rax, -16(%rbp)
  93:/home/xingli/share/1205tiny/network/mqtt/paho_mqtt/paho/MQTTPacket/src/MQTTUnsubscribeServer.c **** 
  94:/home/xingli/share/1205tiny/network/mqtt/paho_mqtt/paho/MQTTPacket/src/MQTTUnsubscribeServer.c **** 	writeInt(&ptr, packetid);
 227              		.loc 1 94 2
 228 0091 0FB755D0 		movzwl	-48(%rbp), %edx
 229 0095 488D45F0 		leaq	-16(%rbp), %rax
 230 0099 89D6     		movl	%edx, %esi
 231 009b 4889C7   		movq	%rax, %rdi
 232 009e E8000000 		call	writeInt@PLT
 232      00
  95:/home/xingli/share/1205tiny/network/mqtt/paho_mqtt/paho/MQTTPacket/src/MQTTUnsubscribeServer.c **** 
  96:/home/xingli/share/1205tiny/network/mqtt/paho_mqtt/paho/MQTTPacket/src/MQTTUnsubscribeServer.c **** 	rc = ptr - buf;
 233              		.loc 1 96 11
 234 00a3 488B45F0 		movq	-16(%rbp), %rax
 235 00a7 482B45D8 		subq	-40(%rbp), %rax
 236              		.loc 1 96 5
 237 00ab 8945EC   		movl	%eax, -20(%rbp)
 238              	.L13:
  97:/home/xingli/share/1205tiny/network/mqtt/paho_mqtt/paho/MQTTPacket/src/MQTTUnsubscribeServer.c **** exit:
  98:/home/xingli/share/1205tiny/network/mqtt/paho_mqtt/paho/MQTTPacket/src/MQTTUnsubscribeServer.c **** 	FUNC_EXIT_RC(rc);
  99:/home/xingli/share/1205tiny/network/mqtt/paho_mqtt/paho/MQTTPacket/src/MQTTUnsubscribeServer.c **** 	return rc;
 239              		.loc 1 99 9
 240 00ae 8B45EC   		movl	-20(%rbp), %eax
 100:/home/xingli/share/1205tiny/network/mqtt/paho_mqtt/paho/MQTTPacket/src/MQTTUnsubscribeServer.c **** }
 241              		.loc 1 100 1
 242 00b1 488B4DF8 		movq	-8(%rbp), %rcx
 243 00b5 6448330C 		xorq	%fs:40, %rcx
 243      25280000 
 243      00
 244 00be 7405     		je	.L15
 245 00c0 E8000000 		call	__stack_chk_fail@PLT
 245      00
 246              	.L15:
 247 00c5 C9       		leave
 248              	.LCFI5:
 249              		.cfi_def_cfa 7, 8
 250 00c6 C3       		ret
 251              		.cfi_endproc
 252              	.LFE1:
 254              		.text
 255              	.Letext0:
 256              		.file 2 "/home/xingli/share/1205tiny/network/mqtt/paho_mqtt/paho/MQTTPacket/src/MQTTPacket.h"
 257              		.file 3 "/usr/lib/gcc/x86_64-linux-gnu/9/include/stddef.h"
 258              		.file 4 "/usr/include/x86_64-linux-gnu/bits/types.h"
 259              		.file 5 "/usr/include/x86_64-linux-gnu/bits/types/struct_FILE.h"
 260              		.file 6 "/usr/include/x86_64-linux-gnu/bits/types/FILE.h"
 261              		.file 7 "/usr/include/stdio.h"
 262              		.file 8 "/usr/include/x86_64-linux-gnu/bits/sys_errlist.h"
 1846              		.section	.note.gnu.property,"a"
 1847              		.align 8
 1848 0000 04000000 		.long	 1f - 0f
 1849 0004 10000000 		.long	 4f - 1f
 1850 0008 05000000 		.long	 5
 1851              	0:
 1852 000c 474E5500 		.string	 "GNU"
 1853              	1:
 1854              		.align 8
GAS LISTING /tmp/ccK3Mg4e.s 			page 8


 1855 0010 020000C0 		.long	 0xc0000002
 1856 0014 04000000 		.long	 3f - 2f
 1857              	2:
 1858 0018 03000000 		.long	 0x3
 1859              	3:
 1860 001c 00000000 		.align 8
 1861              	4:
GAS LISTING /tmp/ccK3Mg4e.s 			page 9

