ARM GAS  C:\Users\ADMINI~1\AppData\Local\Temp\cc8zcKRS.s 			page 1


   1              		.cpu cortex-m4
   2              		.eabi_attribute 27, 1
   3              		.eabi_attribute 28, 1
   4              		.eabi_attribute 20, 1
   5              		.eabi_attribute 21, 1
   6              		.eabi_attribute 23, 3
   7              		.eabi_attribute 24, 1
   8              		.eabi_attribute 25, 1
   9              		.eabi_attribute 26, 1
  10              		.eabi_attribute 30, 6
  11              		.eabi_attribute 34, 1
  12              		.eabi_attribute 18, 4
  13              		.file	"E53_SC2.c"
  14              		.text
  15              	.Ltext0:
  16              		.cfi_sections	.debug_frame
  17              		.global	I2cxTimeout
  18              		.section	.data.I2cxTimeout,"aw"
  19              		.align	2
  22              	I2cxTimeout:
  23 0000 B80B0000 		.word	3000
  24              		.section	.text.MPU6050_WriteReg,"ax",%progbits
  25              		.align	1
  26              		.global	MPU6050_WriteReg
  27              		.arch armv7e-m
  28              		.syntax unified
  29              		.thumb
  30              		.thumb_func
  31              		.fpu fpv4-sp-d16
  33              	MPU6050_WriteReg:
  34              	.LFB287:
  35              		.file 1 "d:/LiteOS_Lab/targets/STM32L431VCT6_Bossay/Hardware/IoTBox/rsrvd_interface/E53_SC2.c"
   1:d:/LiteOS_Lab/targets/STM32L431VCT6_Bossay/Hardware/IoTBox/rsrvd_interface\E53_SC2.c **** /********************************************************************************
   2:d:/LiteOS_Lab/targets/STM32L431VCT6_Bossay/Hardware/IoTBox/rsrvd_interface\E53_SC2.c **** * æ–‡ä»¶åç§° ï¼šE53_SC2.h
   3:d:/LiteOS_Lab/targets/STM32L431VCT6_Bossay/Hardware/IoTBox/rsrvd_interface\E53_SC2.c **** * ä½œ è€…ï¼šBossay IoT å¼€å‘ç»„
   4:d:/LiteOS_Lab/targets/STM32L431VCT6_Bossay/Hardware/IoTBox/rsrvd_interface\E53_SC2.c **** * ç‰ˆ æœ¬ï¼šV1.0
   5:d:/LiteOS_Lab/targets/STM32L431VCT6_Bossay/Hardware/IoTBox/rsrvd_interface\E53_SC2.c **** * ç¼–å†™æ—¥æœŸ ï¼š2020-02-12
   6:d:/LiteOS_Lab/targets/STM32L431VCT6_Bossay/Hardware/IoTBox/rsrvd_interface\E53_SC2.c **** * åŠŸ èƒ½ï¼šäº•ç›–æ¨¡æ‹Ÿæ‰©å±•æ¿é©±åŠ¨
   7:d:/LiteOS_Lab/targets/STM32L431VCT6_Bossay/Hardware/IoTBox/rsrvd_interface\E53_SC2.c **** *********************************************************************************
   8:d:/LiteOS_Lab/targets/STM32L431VCT6_Bossay/Hardware/IoTBox/rsrvd_interface\E53_SC2.c **** * è¯´ æ˜ ï¼šæœ¬æ¡ˆä¾‹é…å¥—Bossay IoT Boxå¼€å‘æ¿ä½¿ç”¨
   9:d:/LiteOS_Lab/targets/STM32L431VCT6_Bossay/Hardware/IoTBox/rsrvd_interface\E53_SC2.c **** * ç½‘ ç«™ ï¼šedu.ibossay.com
  10:d:/LiteOS_Lab/targets/STM32L431VCT6_Bossay/Hardware/IoTBox/rsrvd_interface\E53_SC2.c **** * ç”µ è¯ ï¼š4006916913 
  11:d:/LiteOS_Lab/targets/STM32L431VCT6_Bossay/Hardware/IoTBox/rsrvd_interface\E53_SC2.c **** *********************************************************************************/
  12:d:/LiteOS_Lab/targets/STM32L431VCT6_Bossay/Hardware/IoTBox/rsrvd_interface\E53_SC2.c **** #include "E53_SC2.h"
  13:d:/LiteOS_Lab/targets/STM32L431VCT6_Bossay/Hardware/IoTBox/rsrvd_interface\E53_SC2.c **** #include "i2c.h"
  14:d:/LiteOS_Lab/targets/STM32L431VCT6_Bossay/Hardware/IoTBox/rsrvd_interface\E53_SC2.c **** #include "stm32l4xx.h"
  15:d:/LiteOS_Lab/targets/STM32L431VCT6_Bossay/Hardware/IoTBox/rsrvd_interface\E53_SC2.c **** 
  16:d:/LiteOS_Lab/targets/STM32L431VCT6_Bossay/Hardware/IoTBox/rsrvd_interface\E53_SC2.c **** #define EVAL_I2Cx_TIMEOUT_MAX                   3000
  17:d:/LiteOS_Lab/targets/STM32L431VCT6_Bossay/Hardware/IoTBox/rsrvd_interface\E53_SC2.c **** uint32_t I2cxTimeout = EVAL_I2Cx_TIMEOUT_MAX;
  18:d:/LiteOS_Lab/targets/STM32L431VCT6_Bossay/Hardware/IoTBox/rsrvd_interface\E53_SC2.c **** /***************************************************************
  19:d:/LiteOS_Lab/targets/STM32L431VCT6_Bossay/Hardware/IoTBox/rsrvd_interface\E53_SC2.c ****   * å‡½æ•°åŠŸèƒ½: å†™æ•°æ®åˆ°MPU6050å¯„å­˜å™¨
  20:d:/LiteOS_Lab/targets/STM32L431VCT6_Bossay/Hardware/IoTBox/rsrvd_interface\E53_SC2.c ****   * è¾“å…¥å‚æ•°: æ— 
  21:d:/LiteOS_Lab/targets/STM32L431VCT6_Bossay/Hardware/IoTBox/rsrvd_interface\E53_SC2.c ****   * è¿” å› å€¼: æ— 
  22:d:/LiteOS_Lab/targets/STM32L431VCT6_Bossay/Hardware/IoTBox/rsrvd_interface\E53_SC2.c ****   * è¯´    æ˜: æ— 
  23:d:/LiteOS_Lab/targets/STM32L431VCT6_Bossay/Hardware/IoTBox/rsrvd_interface\E53_SC2.c ****   ***************************************************************/
  24:d:/LiteOS_Lab/targets/STM32L431VCT6_Bossay/Hardware/IoTBox/rsrvd_interface\E53_SC2.c **** void MPU6050_WriteReg(uint8_t reg_add,uint8_t reg_dat)
  25:d:/LiteOS_Lab/targets/STM32L431VCT6_Bossay/Hardware/IoTBox/rsrvd_interface\E53_SC2.c **** {
ARM GAS  C:\Users\ADMINI~1\AppData\Local\Temp\cc8zcKRS.s 			page 2


  36              		.loc 1 25 1
  37              		.cfi_startproc
  38              		@ args = 0, pretend = 0, frame = 8
  39              		@ frame_needed = 1, uses_anonymous_args = 0
  40 0000 80B5     		push	{r7, lr}
  41              	.LCFI0:
  42              		.cfi_def_cfa_offset 8
  43              		.cfi_offset 7, -8
  44              		.cfi_offset 14, -4
  45 0002 82B0     		sub	sp, sp, #8
  46              	.LCFI1:
  47              		.cfi_def_cfa_offset 16
  48 0004 00AF     		add	r7, sp, #0
  49              	.LCFI2:
  50              		.cfi_def_cfa_register 7
  51 0006 0346     		mov	r3, r0
  52 0008 0A46     		mov	r2, r1
  53 000a FB71     		strb	r3, [r7, #7]
  54 000c 1346     		mov	r3, r2
  55 000e BB71     		strb	r3, [r7, #6]
  26:d:/LiteOS_Lab/targets/STM32L431VCT6_Bossay/Hardware/IoTBox/rsrvd_interface\E53_SC2.c ****   I2C_MPU6050_WriteData(MPU6050_SLAVE_ADDRESS,reg_add,reg_dat);
  56              		.loc 1 26 3
  57 0010 BA79     		ldrb	r2, [r7, #6]	@ zero_extendqisi2
  58 0012 FB79     		ldrb	r3, [r7, #7]	@ zero_extendqisi2
  59 0014 1946     		mov	r1, r3
  60 0016 D020     		movs	r0, #208
  61 0018 FFF7FEFF 		bl	I2C_MPU6050_WriteData
  27:d:/LiteOS_Lab/targets/STM32L431VCT6_Bossay/Hardware/IoTBox/rsrvd_interface\E53_SC2.c **** }
  62              		.loc 1 27 1
  63 001c 00BF     		nop
  64 001e 0837     		adds	r7, r7, #8
  65              	.LCFI3:
  66              		.cfi_def_cfa_offset 8
  67 0020 BD46     		mov	sp, r7
  68              	.LCFI4:
  69              		.cfi_def_cfa_register 13
  70              		@ sp needed
  71 0022 80BD     		pop	{r7, pc}
  72              		.cfi_endproc
  73              	.LFE287:
  75              		.section	.text.MPU6050_ReadData,"ax",%progbits
  76              		.align	1
  77              		.global	MPU6050_ReadData
  78              		.syntax unified
  79              		.thumb
  80              		.thumb_func
  81              		.fpu fpv4-sp-d16
  83              	MPU6050_ReadData:
  84              	.LFB288:
  28:d:/LiteOS_Lab/targets/STM32L431VCT6_Bossay/Hardware/IoTBox/rsrvd_interface\E53_SC2.c **** 
  29:d:/LiteOS_Lab/targets/STM32L431VCT6_Bossay/Hardware/IoTBox/rsrvd_interface\E53_SC2.c **** /***************************************************************
  30:d:/LiteOS_Lab/targets/STM32L431VCT6_Bossay/Hardware/IoTBox/rsrvd_interface\E53_SC2.c ****   * å‡½æ•°åŠŸèƒ½: ä»MPU6050å¯„å­˜å™¨è¯»å–æ•°æ®
  31:d:/LiteOS_Lab/targets/STM32L431VCT6_Bossay/Hardware/IoTBox/rsrvd_interface\E53_SC2.c ****   * è¾“å…¥å‚æ•°: æ— 
  32:d:/LiteOS_Lab/targets/STM32L431VCT6_Bossay/Hardware/IoTBox/rsrvd_interface\E53_SC2.c ****   * è¿” å› å€¼: æ— 
  33:d:/LiteOS_Lab/targets/STM32L431VCT6_Bossay/Hardware/IoTBox/rsrvd_interface\E53_SC2.c ****   * è¯´    æ˜: æ— 
  34:d:/LiteOS_Lab/targets/STM32L431VCT6_Bossay/Hardware/IoTBox/rsrvd_interface\E53_SC2.c **** ***************************************************************/ 
  35:d:/LiteOS_Lab/targets/STM32L431VCT6_Bossay/Hardware/IoTBox/rsrvd_interface\E53_SC2.c **** void MPU6050_ReadData(uint8_t reg_add,unsigned char *Read,uint8_t num)
ARM GAS  C:\Users\ADMINI~1\AppData\Local\Temp\cc8zcKRS.s 			page 3


  36:d:/LiteOS_Lab/targets/STM32L431VCT6_Bossay/Hardware/IoTBox/rsrvd_interface\E53_SC2.c **** {
  85              		.loc 1 36 1
  86              		.cfi_startproc
  87              		@ args = 0, pretend = 0, frame = 8
  88              		@ frame_needed = 1, uses_anonymous_args = 0
  89 0000 80B5     		push	{r7, lr}
  90              	.LCFI5:
  91              		.cfi_def_cfa_offset 8
  92              		.cfi_offset 7, -8
  93              		.cfi_offset 14, -4
  94 0002 84B0     		sub	sp, sp, #16
  95              	.LCFI6:
  96              		.cfi_def_cfa_offset 24
  97 0004 02AF     		add	r7, sp, #8
  98              	.LCFI7:
  99              		.cfi_def_cfa 7, 16
 100 0006 0346     		mov	r3, r0
 101 0008 3960     		str	r1, [r7]
 102 000a FB71     		strb	r3, [r7, #7]
 103 000c 1346     		mov	r3, r2
 104 000e BB71     		strb	r3, [r7, #6]
  37:d:/LiteOS_Lab/targets/STM32L431VCT6_Bossay/Hardware/IoTBox/rsrvd_interface\E53_SC2.c ****   I2C_MPU6050_ReadBuffer(MPU6050_SLAVE_ADDRESS,reg_add,I2C_MEMADD_SIZE_8BIT,Read,num);
 105              		.loc 1 37 3
 106 0010 BB79     		ldrb	r3, [r7, #6]	@ zero_extendqisi2
 107 0012 9BB2     		uxth	r3, r3
 108 0014 F979     		ldrb	r1, [r7, #7]	@ zero_extendqisi2
 109 0016 0093     		str	r3, [sp]
 110 0018 3B68     		ldr	r3, [r7]
 111 001a 0122     		movs	r2, #1
 112 001c D020     		movs	r0, #208
 113 001e FFF7FEFF 		bl	I2C_MPU6050_ReadBuffer
  38:d:/LiteOS_Lab/targets/STM32L431VCT6_Bossay/Hardware/IoTBox/rsrvd_interface\E53_SC2.c **** }
 114              		.loc 1 38 1
 115 0022 00BF     		nop
 116 0024 0837     		adds	r7, r7, #8
 117              	.LCFI8:
 118              		.cfi_def_cfa_offset 8
 119 0026 BD46     		mov	sp, r7
 120              	.LCFI9:
 121              		.cfi_def_cfa_register 13
 122              		@ sp needed
 123 0028 80BD     		pop	{r7, pc}
 124              		.cfi_endproc
 125              	.LFE288:
 127              		.section	.text.MPU6050_Init,"ax",%progbits
 128              		.align	1
 129              		.global	MPU6050_Init
 130              		.syntax unified
 131              		.thumb
 132              		.thumb_func
 133              		.fpu fpv4-sp-d16
 135              	MPU6050_Init:
 136              	.LFB289:
  39:d:/LiteOS_Lab/targets/STM32L431VCT6_Bossay/Hardware/IoTBox/rsrvd_interface\E53_SC2.c **** /***************************************************************
  40:d:/LiteOS_Lab/targets/STM32L431VCT6_Bossay/Hardware/IoTBox/rsrvd_interface\E53_SC2.c ****   * å‡½æ•°åŠŸèƒ½: åˆå§‹åŒ–MPU6050èŠ¯ç‰‡
  41:d:/LiteOS_Lab/targets/STM32L431VCT6_Bossay/Hardware/IoTBox/rsrvd_interface\E53_SC2.c ****   * è¾“å…¥å‚æ•°: æ— 
  42:d:/LiteOS_Lab/targets/STM32L431VCT6_Bossay/Hardware/IoTBox/rsrvd_interface\E53_SC2.c ****   * è¿” å› å€¼: æ— 
ARM GAS  C:\Users\ADMINI~1\AppData\Local\Temp\cc8zcKRS.s 			page 4


  43:d:/LiteOS_Lab/targets/STM32L431VCT6_Bossay/Hardware/IoTBox/rsrvd_interface\E53_SC2.c ****   * è¯´    æ˜: æ— 
  44:d:/LiteOS_Lab/targets/STM32L431VCT6_Bossay/Hardware/IoTBox/rsrvd_interface\E53_SC2.c ****   ***************************************************************/ 
  45:d:/LiteOS_Lab/targets/STM32L431VCT6_Bossay/Hardware/IoTBox/rsrvd_interface\E53_SC2.c **** void MPU6050_Init(void)
  46:d:/LiteOS_Lab/targets/STM32L431VCT6_Bossay/Hardware/IoTBox/rsrvd_interface\E53_SC2.c **** {
 137              		.loc 1 46 1
 138              		.cfi_startproc
 139              		@ args = 0, pretend = 0, frame = 8
 140              		@ frame_needed = 1, uses_anonymous_args = 0
 141 0000 80B5     		push	{r7, lr}
 142              	.LCFI10:
 143              		.cfi_def_cfa_offset 8
 144              		.cfi_offset 7, -8
 145              		.cfi_offset 14, -4
 146 0002 82B0     		sub	sp, sp, #8
 147              	.LCFI11:
 148              		.cfi_def_cfa_offset 16
 149 0004 00AF     		add	r7, sp, #0
 150              	.LCFI12:
 151              		.cfi_def_cfa_register 7
  47:d:/LiteOS_Lab/targets/STM32L431VCT6_Bossay/Hardware/IoTBox/rsrvd_interface\E53_SC2.c ****   int i=0,j=0;
 152              		.loc 1 47 7
 153 0006 0023     		movs	r3, #0
 154 0008 7B60     		str	r3, [r7, #4]
 155              		.loc 1 47 11
 156 000a 0023     		movs	r3, #0
 157 000c 3B60     		str	r3, [r7]
  48:d:/LiteOS_Lab/targets/STM32L431VCT6_Bossay/Hardware/IoTBox/rsrvd_interface\E53_SC2.c ****   //åœ¨åˆå§‹åŒ–ä¹‹å‰è¦å»¶æ—¶ä¸€æ®µæ—¶é—´ï¼Œè‹¥æ²¡æœ‰å»¶æ—¶ï¼Œåˆ™æ–­ç”µåå†ä¸Šç”µæ•°æ®å¯èƒ½ä¼
  49:d:/LiteOS_Lab/targets/STM32L431VCT6_Bossay/Hardware/IoTBox/rsrvd_interface\E53_SC2.c ****   for(i=0;i<1000;i++)
 158              		.loc 1 49 8
 159 000e 0023     		movs	r3, #0
 160 0010 7B60     		str	r3, [r7, #4]
 161              		.loc 1 49 3
 162 0012 0CE0     		b	.L4
 163              	.L7:
  50:d:/LiteOS_Lab/targets/STM32L431VCT6_Bossay/Hardware/IoTBox/rsrvd_interface\E53_SC2.c ****   {
  51:d:/LiteOS_Lab/targets/STM32L431VCT6_Bossay/Hardware/IoTBox/rsrvd_interface\E53_SC2.c ****     for(j=0;j<1000;j++)
 164              		.loc 1 51 10
 165 0014 0023     		movs	r3, #0
 166 0016 3B60     		str	r3, [r7]
 167              		.loc 1 51 5
 168 0018 02E0     		b	.L5
 169              	.L6:
 170              		.loc 1 51 21 discriminator 3
 171 001a 3B68     		ldr	r3, [r7]
 172 001c 0133     		adds	r3, r3, #1
 173 001e 3B60     		str	r3, [r7]
 174              	.L5:
 175              		.loc 1 51 5 discriminator 1
 176 0020 3B68     		ldr	r3, [r7]
 177 0022 B3F57A7F 		cmp	r3, #1000
 178 0026 F8DB     		blt	.L6
  49:d:/LiteOS_Lab/targets/STM32L431VCT6_Bossay/Hardware/IoTBox/rsrvd_interface\E53_SC2.c ****   {
 179              		.loc 1 49 19 discriminator 2
 180 0028 7B68     		ldr	r3, [r7, #4]
 181 002a 0133     		adds	r3, r3, #1
 182 002c 7B60     		str	r3, [r7, #4]
 183              	.L4:
ARM GAS  C:\Users\ADMINI~1\AppData\Local\Temp\cc8zcKRS.s 			page 5


  49:d:/LiteOS_Lab/targets/STM32L431VCT6_Bossay/Hardware/IoTBox/rsrvd_interface\E53_SC2.c ****   {
 184              		.loc 1 49 3 discriminator 1
 185 002e 7B68     		ldr	r3, [r7, #4]
 186 0030 B3F57A7F 		cmp	r3, #1000
 187 0034 EEDB     		blt	.L7
  52:d:/LiteOS_Lab/targets/STM32L431VCT6_Bossay/Hardware/IoTBox/rsrvd_interface\E53_SC2.c ****     {
  53:d:/LiteOS_Lab/targets/STM32L431VCT6_Bossay/Hardware/IoTBox/rsrvd_interface\E53_SC2.c ****       ;
  54:d:/LiteOS_Lab/targets/STM32L431VCT6_Bossay/Hardware/IoTBox/rsrvd_interface\E53_SC2.c ****     }
  55:d:/LiteOS_Lab/targets/STM32L431VCT6_Bossay/Hardware/IoTBox/rsrvd_interface\E53_SC2.c ****   }
  56:d:/LiteOS_Lab/targets/STM32L431VCT6_Bossay/Hardware/IoTBox/rsrvd_interface\E53_SC2.c **** 	MPU6050_WriteReg(MPU6050_RA_PWR_MGMT_1,0X80);       //å¤ä½MPU6050
 188              		.loc 1 56 2
 189 0036 8021     		movs	r1, #128
 190 0038 6B20     		movs	r0, #107
 191 003a FFF7FEFF 		bl	MPU6050_WriteReg
  57:d:/LiteOS_Lab/targets/STM32L431VCT6_Bossay/Hardware/IoTBox/rsrvd_interface\E53_SC2.c ****   HAL_Delay(100);
 192              		.loc 1 57 3
 193 003e 6420     		movs	r0, #100
 194 0040 FFF7FEFF 		bl	HAL_Delay
  58:d:/LiteOS_Lab/targets/STM32L431VCT6_Bossay/Hardware/IoTBox/rsrvd_interface\E53_SC2.c ****   MPU6050_WriteReg(MPU6050_RA_PWR_MGMT_1,0X00);       //å”¤é†’MPU6050
 195              		.loc 1 58 3
 196 0044 0021     		movs	r1, #0
 197 0046 6B20     		movs	r0, #107
 198 0048 FFF7FEFF 		bl	MPU6050_WriteReg
  59:d:/LiteOS_Lab/targets/STM32L431VCT6_Bossay/Hardware/IoTBox/rsrvd_interface\E53_SC2.c ****   MPU6050_WriteReg(MPU6050_RA_INT_ENABLE,0X00);       //å…³é—­æ‰€æœ‰ä¸­æ–­
 199              		.loc 1 59 3
 200 004c 0021     		movs	r1, #0
 201 004e 3820     		movs	r0, #56
 202 0050 FFF7FEFF 		bl	MPU6050_WriteReg
  60:d:/LiteOS_Lab/targets/STM32L431VCT6_Bossay/Hardware/IoTBox/rsrvd_interface\E53_SC2.c ****   MPU6050_WriteReg(MPU6050_RA_USER_CTRL,0X00);        //I2Cä¸»æ¨¡å¼å…³é—­
 203              		.loc 1 60 3
 204 0054 0021     		movs	r1, #0
 205 0056 6A20     		movs	r0, #106
 206 0058 FFF7FEFF 		bl	MPU6050_WriteReg
  61:d:/LiteOS_Lab/targets/STM32L431VCT6_Bossay/Hardware/IoTBox/rsrvd_interface\E53_SC2.c ****   MPU6050_WriteReg(MPU6050_RA_FIFO_EN,0X00);          //å…³é—­FIFO
 207              		.loc 1 61 3
 208 005c 0021     		movs	r1, #0
 209 005e 2320     		movs	r0, #35
 210 0060 FFF7FEFF 		bl	MPU6050_WriteReg
  62:d:/LiteOS_Lab/targets/STM32L431VCT6_Bossay/Hardware/IoTBox/rsrvd_interface\E53_SC2.c ****   MPU6050_WriteReg(MPU6050_RA_INT_PIN_CFG,0X80);      //ä¸­æ–­çš„é€»è¾‘ç”µå¹³æ¨¡å¼,è®¾ç½®ä¸º0ï¼Œä¸
 211              		.loc 1 62 3
 212 0064 8021     		movs	r1, #128
 213 0066 3720     		movs	r0, #55
 214 0068 FFF7FEFF 		bl	MPU6050_WriteReg
  63:d:/LiteOS_Lab/targets/STM32L431VCT6_Bossay/Hardware/IoTBox/rsrvd_interface\E53_SC2.c **** 	Motion_Interrupt();           					           	//è¿åŠ¨ä¸­æ–­
 215              		.loc 1 63 2
 216 006c FFF7FEFF 		bl	Motion_Interrupt
  64:d:/LiteOS_Lab/targets/STM32L431VCT6_Bossay/Hardware/IoTBox/rsrvd_interface\E53_SC2.c **** 	MPU6050_WriteReg(MPU6050_RA_CONFIG,0x04);           //é…ç½®å¤–éƒ¨å¼•è„šé‡‡æ ·å’ŒDLPFæ•°å­—ä½é€šæ
 217              		.loc 1 64 2
 218 0070 0421     		movs	r1, #4
 219 0072 1A20     		movs	r0, #26
 220 0074 FFF7FEFF 		bl	MPU6050_WriteReg
  65:d:/LiteOS_Lab/targets/STM32L431VCT6_Bossay/Hardware/IoTBox/rsrvd_interface\E53_SC2.c **** 	MPU6050_WriteReg(MPU6050_RA_ACCEL_CONFIG,0x1C);     //åŠ é€Ÿåº¦ä¼ æ„Ÿå™¨é‡ç¨‹å’Œé«˜é€šæ»¤æ³¢å™¨é…
 221              		.loc 1 65 2
 222 0078 1C21     		movs	r1, #28
 223 007a 1C20     		movs	r0, #28
 224 007c FFF7FEFF 		bl	MPU6050_WriteReg
  66:d:/LiteOS_Lab/targets/STM32L431VCT6_Bossay/Hardware/IoTBox/rsrvd_interface\E53_SC2.c **** 	MPU6050_WriteReg(MPU6050_RA_INT_PIN_CFG,0X1C);      //INTå¼•è„šä½ç”µå¹³å¹³æ—¶
ARM GAS  C:\Users\ADMINI~1\AppData\Local\Temp\cc8zcKRS.s 			page 6


 225              		.loc 1 66 2
 226 0080 1C21     		movs	r1, #28
 227 0082 3720     		movs	r0, #55
 228 0084 FFF7FEFF 		bl	MPU6050_WriteReg
  67:d:/LiteOS_Lab/targets/STM32L431VCT6_Bossay/Hardware/IoTBox/rsrvd_interface\E53_SC2.c **** 	MPU6050_WriteReg(MPU6050_RA_INT_ENABLE,0x40);       //ä¸­æ–­ä½¿èƒ½å¯„å­˜å™¨
 229              		.loc 1 67 2
 230 0088 4021     		movs	r1, #64
 231 008a 3820     		movs	r0, #56
 232 008c FFF7FEFF 		bl	MPU6050_WriteReg
  68:d:/LiteOS_Lab/targets/STM32L431VCT6_Bossay/Hardware/IoTBox/rsrvd_interface\E53_SC2.c **** }
 233              		.loc 1 68 1
 234 0090 00BF     		nop
 235 0092 0837     		adds	r7, r7, #8
 236              	.LCFI13:
 237              		.cfi_def_cfa_offset 8
 238 0094 BD46     		mov	sp, r7
 239              	.LCFI14:
 240              		.cfi_def_cfa_register 13
 241              		@ sp needed
 242 0096 80BD     		pop	{r7, pc}
 243              		.cfi_endproc
 244              	.LFE289:
 246              		.section	.rodata
 247              		.align	2
 248              	.LC0:
 249 0000 4D505536 		.ascii	"MPU6050 dectected error!\015\000"
 249      30353020 
 249      64656374 
 249      65637465 
 249      64206572 
 250 001a 0000     		.align	2
 251              	.LC1:
 252 001c 4D505536 		.ascii	"MPU6050 ID = %d\015\012\000"
 252      30353020 
 252      4944203D 
 252      2025640D 
 252      0A00
 253              		.section	.text.MPU6050ReadID,"ax",%progbits
 254              		.align	1
 255              		.global	MPU6050ReadID
 256              		.syntax unified
 257              		.thumb
 258              		.thumb_func
 259              		.fpu fpv4-sp-d16
 261              	MPU6050ReadID:
 262              	.LFB290:
  69:d:/LiteOS_Lab/targets/STM32L431VCT6_Bossay/Hardware/IoTBox/rsrvd_interface\E53_SC2.c **** 
  70:d:/LiteOS_Lab/targets/STM32L431VCT6_Bossay/Hardware/IoTBox/rsrvd_interface\E53_SC2.c **** /***************************************************************
  71:d:/LiteOS_Lab/targets/STM32L431VCT6_Bossay/Hardware/IoTBox/rsrvd_interface\E53_SC2.c ****   * å‡½æ•°åŠŸèƒ½: è¯»å–MPU6050çš„ID
  72:d:/LiteOS_Lab/targets/STM32L431VCT6_Bossay/Hardware/IoTBox/rsrvd_interface\E53_SC2.c ****   * è¾“å…¥å‚æ•°: æ— 
  73:d:/LiteOS_Lab/targets/STM32L431VCT6_Bossay/Hardware/IoTBox/rsrvd_interface\E53_SC2.c ****   * è¿” å› å€¼: æ— 
  74:d:/LiteOS_Lab/targets/STM32L431VCT6_Bossay/Hardware/IoTBox/rsrvd_interface\E53_SC2.c ****   * è¯´    æ˜: æ— 
  75:d:/LiteOS_Lab/targets/STM32L431VCT6_Bossay/Hardware/IoTBox/rsrvd_interface\E53_SC2.c ****   ***************************************************************/ 
  76:d:/LiteOS_Lab/targets/STM32L431VCT6_Bossay/Hardware/IoTBox/rsrvd_interface\E53_SC2.c **** uint8_t MPU6050ReadID(void)
  77:d:/LiteOS_Lab/targets/STM32L431VCT6_Bossay/Hardware/IoTBox/rsrvd_interface\E53_SC2.c **** {
 263              		.loc 1 77 1
 264              		.cfi_startproc
ARM GAS  C:\Users\ADMINI~1\AppData\Local\Temp\cc8zcKRS.s 			page 7


 265              		@ args = 0, pretend = 0, frame = 8
 266              		@ frame_needed = 1, uses_anonymous_args = 0
 267 0000 80B5     		push	{r7, lr}
 268              	.LCFI15:
 269              		.cfi_def_cfa_offset 8
 270              		.cfi_offset 7, -8
 271              		.cfi_offset 14, -4
 272 0002 82B0     		sub	sp, sp, #8
 273              	.LCFI16:
 274              		.cfi_def_cfa_offset 16
 275 0004 00AF     		add	r7, sp, #0
 276              	.LCFI17:
 277              		.cfi_def_cfa_register 7
  78:d:/LiteOS_Lab/targets/STM32L431VCT6_Bossay/Hardware/IoTBox/rsrvd_interface\E53_SC2.c **** 	unsigned char Re = 0;
 278              		.loc 1 78 16
 279 0006 0023     		movs	r3, #0
 280 0008 FB71     		strb	r3, [r7, #7]
  79:d:/LiteOS_Lab/targets/STM32L431VCT6_Bossay/Hardware/IoTBox/rsrvd_interface\E53_SC2.c **** 	MPU6050_ReadData(MPU6050_RA_WHO_AM_I,&Re,1);    //è¯»å™¨ä»¶åœ°å€
 281              		.loc 1 79 2
 282 000a FB1D     		adds	r3, r7, #7
 283 000c 0122     		movs	r2, #1
 284 000e 1946     		mov	r1, r3
 285 0010 7520     		movs	r0, #117
 286 0012 FFF7FEFF 		bl	MPU6050_ReadData
  80:d:/LiteOS_Lab/targets/STM32L431VCT6_Bossay/Hardware/IoTBox/rsrvd_interface\E53_SC2.c **** 	if(Re != 0x68)
 287              		.loc 1 80 8
 288 0016 FB79     		ldrb	r3, [r7, #7]	@ zero_extendqisi2
 289              		.loc 1 80 4
 290 0018 682B     		cmp	r3, #104
 291 001a 04D0     		beq	.L9
  81:d:/LiteOS_Lab/targets/STM32L431VCT6_Bossay/Hardware/IoTBox/rsrvd_interface\E53_SC2.c **** 	{
  82:d:/LiteOS_Lab/targets/STM32L431VCT6_Bossay/Hardware/IoTBox/rsrvd_interface\E53_SC2.c **** 		printf("MPU6050 dectected error!\r\n");
 292              		.loc 1 82 3
 293 001c 0748     		ldr	r0, .L12
 294 001e FFF7FEFF 		bl	puts
  83:d:/LiteOS_Lab/targets/STM32L431VCT6_Bossay/Hardware/IoTBox/rsrvd_interface\E53_SC2.c **** 		return 0;
 295              		.loc 1 83 10
 296 0022 0023     		movs	r3, #0
 297 0024 05E0     		b	.L11
 298              	.L9:
  84:d:/LiteOS_Lab/targets/STM32L431VCT6_Bossay/Hardware/IoTBox/rsrvd_interface\E53_SC2.c **** 	}
  85:d:/LiteOS_Lab/targets/STM32L431VCT6_Bossay/Hardware/IoTBox/rsrvd_interface\E53_SC2.c **** 	else
  86:d:/LiteOS_Lab/targets/STM32L431VCT6_Bossay/Hardware/IoTBox/rsrvd_interface\E53_SC2.c **** 	{
  87:d:/LiteOS_Lab/targets/STM32L431VCT6_Bossay/Hardware/IoTBox/rsrvd_interface\E53_SC2.c **** 		printf("MPU6050 ID = %d\r\n",Re);
 299              		.loc 1 87 3
 300 0026 FB79     		ldrb	r3, [r7, #7]	@ zero_extendqisi2
 301 0028 1946     		mov	r1, r3
 302 002a 0548     		ldr	r0, .L12+4
 303 002c FFF7FEFF 		bl	printf
  88:d:/LiteOS_Lab/targets/STM32L431VCT6_Bossay/Hardware/IoTBox/rsrvd_interface\E53_SC2.c **** 		return 1;
 304              		.loc 1 88 10
 305 0030 0123     		movs	r3, #1
 306              	.L11:
  89:d:/LiteOS_Lab/targets/STM32L431VCT6_Bossay/Hardware/IoTBox/rsrvd_interface\E53_SC2.c **** 	}
  90:d:/LiteOS_Lab/targets/STM32L431VCT6_Bossay/Hardware/IoTBox/rsrvd_interface\E53_SC2.c **** }
 307              		.loc 1 90 1 discriminator 1
 308 0032 1846     		mov	r0, r3
ARM GAS  C:\Users\ADMINI~1\AppData\Local\Temp\cc8zcKRS.s 			page 8


 309 0034 0837     		adds	r7, r7, #8
 310              	.LCFI18:
 311              		.cfi_def_cfa_offset 8
 312 0036 BD46     		mov	sp, r7
 313              	.LCFI19:
 314              		.cfi_def_cfa_register 13
 315              		@ sp needed
 316 0038 80BD     		pop	{r7, pc}
 317              	.L13:
 318 003a 00BF     		.align	2
 319              	.L12:
 320 003c 00000000 		.word	.LC0
 321 0040 1C000000 		.word	.LC1
 322              		.cfi_endproc
 323              	.LFE290:
 325              		.section	.text.MPU6050ReadAcc,"ax",%progbits
 326              		.align	1
 327              		.global	MPU6050ReadAcc
 328              		.syntax unified
 329              		.thumb
 330              		.thumb_func
 331              		.fpu fpv4-sp-d16
 333              	MPU6050ReadAcc:
 334              	.LFB291:
  91:d:/LiteOS_Lab/targets/STM32L431VCT6_Bossay/Hardware/IoTBox/rsrvd_interface\E53_SC2.c **** 
  92:d:/LiteOS_Lab/targets/STM32L431VCT6_Bossay/Hardware/IoTBox/rsrvd_interface\E53_SC2.c **** /***************************************************************
  93:d:/LiteOS_Lab/targets/STM32L431VCT6_Bossay/Hardware/IoTBox/rsrvd_interface\E53_SC2.c ****   * å‡½æ•°åŠŸèƒ½: è¯»å–MPU6050çš„åŠ é€Ÿåº¦æ•°æ®
  94:d:/LiteOS_Lab/targets/STM32L431VCT6_Bossay/Hardware/IoTBox/rsrvd_interface\E53_SC2.c ****   * è¾“å…¥å‚æ•°: æ— 
  95:d:/LiteOS_Lab/targets/STM32L431VCT6_Bossay/Hardware/IoTBox/rsrvd_interface\E53_SC2.c ****   * è¿” å› å€¼: æ— 
  96:d:/LiteOS_Lab/targets/STM32L431VCT6_Bossay/Hardware/IoTBox/rsrvd_interface\E53_SC2.c ****   * è¯´    æ˜: æ— 
  97:d:/LiteOS_Lab/targets/STM32L431VCT6_Bossay/Hardware/IoTBox/rsrvd_interface\E53_SC2.c **** ***************************************************************/ 
  98:d:/LiteOS_Lab/targets/STM32L431VCT6_Bossay/Hardware/IoTBox/rsrvd_interface\E53_SC2.c **** void MPU6050ReadAcc(short *accData)
  99:d:/LiteOS_Lab/targets/STM32L431VCT6_Bossay/Hardware/IoTBox/rsrvd_interface\E53_SC2.c **** {
 335              		.loc 1 99 1
 336              		.cfi_startproc
 337              		@ args = 0, pretend = 0, frame = 16
 338              		@ frame_needed = 1, uses_anonymous_args = 0
 339 0000 80B5     		push	{r7, lr}
 340              	.LCFI20:
 341              		.cfi_def_cfa_offset 8
 342              		.cfi_offset 7, -8
 343              		.cfi_offset 14, -4
 344 0002 84B0     		sub	sp, sp, #16
 345              	.LCFI21:
 346              		.cfi_def_cfa_offset 24
 347 0004 00AF     		add	r7, sp, #0
 348              	.LCFI22:
 349              		.cfi_def_cfa_register 7
 350 0006 7860     		str	r0, [r7, #4]
 100:d:/LiteOS_Lab/targets/STM32L431VCT6_Bossay/Hardware/IoTBox/rsrvd_interface\E53_SC2.c ****     uint8_t buf[6];
 101:d:/LiteOS_Lab/targets/STM32L431VCT6_Bossay/Hardware/IoTBox/rsrvd_interface\E53_SC2.c ****     MPU6050_ReadData(MPU6050_ACC_OUT, buf, 6);
 351              		.loc 1 101 5
 352 0008 07F10803 		add	r3, r7, #8
 353 000c 0622     		movs	r2, #6
 354 000e 1946     		mov	r1, r3
 355 0010 3B20     		movs	r0, #59
 356 0012 FFF7FEFF 		bl	MPU6050_ReadData
ARM GAS  C:\Users\ADMINI~1\AppData\Local\Temp\cc8zcKRS.s 			page 9


 102:d:/LiteOS_Lab/targets/STM32L431VCT6_Bossay/Hardware/IoTBox/rsrvd_interface\E53_SC2.c ****     accData[0] = (buf[0] << 8) | buf[1];
 357              		.loc 1 102 22
 358 0016 3B7A     		ldrb	r3, [r7, #8]	@ zero_extendqisi2
 359              		.loc 1 102 26
 360 0018 1B02     		lsls	r3, r3, #8
 361              		.loc 1 102 32
 362 001a 1AB2     		sxth	r2, r3
 363              		.loc 1 102 37
 364 001c 7B7A     		ldrb	r3, [r7, #9]	@ zero_extendqisi2
 365 001e 1BB2     		sxth	r3, r3
 366              		.loc 1 102 32
 367 0020 1343     		orrs	r3, r3, r2
 368 0022 1AB2     		sxth	r2, r3
 369              		.loc 1 102 16
 370 0024 7B68     		ldr	r3, [r7, #4]
 371 0026 1A80     		strh	r2, [r3]	@ movhi
 103:d:/LiteOS_Lab/targets/STM32L431VCT6_Bossay/Hardware/IoTBox/rsrvd_interface\E53_SC2.c ****     accData[1] = (buf[2] << 8) | buf[3];
 372              		.loc 1 103 22
 373 0028 BB7A     		ldrb	r3, [r7, #10]	@ zero_extendqisi2
 374              		.loc 1 103 26
 375 002a 1B02     		lsls	r3, r3, #8
 376              		.loc 1 103 32
 377 002c 19B2     		sxth	r1, r3
 378              		.loc 1 103 37
 379 002e FB7A     		ldrb	r3, [r7, #11]	@ zero_extendqisi2
 380 0030 1AB2     		sxth	r2, r3
 381              		.loc 1 103 12
 382 0032 7B68     		ldr	r3, [r7, #4]
 383 0034 0233     		adds	r3, r3, #2
 384              		.loc 1 103 32
 385 0036 0A43     		orrs	r2, r2, r1
 386 0038 12B2     		sxth	r2, r2
 387              		.loc 1 103 16
 388 003a 1A80     		strh	r2, [r3]	@ movhi
 104:d:/LiteOS_Lab/targets/STM32L431VCT6_Bossay/Hardware/IoTBox/rsrvd_interface\E53_SC2.c ****     accData[2] = (buf[4] << 8) | buf[5];
 389              		.loc 1 104 22
 390 003c 3B7B     		ldrb	r3, [r7, #12]	@ zero_extendqisi2
 391              		.loc 1 104 26
 392 003e 1B02     		lsls	r3, r3, #8
 393              		.loc 1 104 32
 394 0040 19B2     		sxth	r1, r3
 395              		.loc 1 104 37
 396 0042 7B7B     		ldrb	r3, [r7, #13]	@ zero_extendqisi2
 397 0044 1AB2     		sxth	r2, r3
 398              		.loc 1 104 12
 399 0046 7B68     		ldr	r3, [r7, #4]
 400 0048 0433     		adds	r3, r3, #4
 401              		.loc 1 104 32
 402 004a 0A43     		orrs	r2, r2, r1
 403 004c 12B2     		sxth	r2, r2
 404              		.loc 1 104 16
 405 004e 1A80     		strh	r2, [r3]	@ movhi
 105:d:/LiteOS_Lab/targets/STM32L431VCT6_Bossay/Hardware/IoTBox/rsrvd_interface\E53_SC2.c **** }
 406              		.loc 1 105 1
 407 0050 00BF     		nop
 408 0052 1037     		adds	r7, r7, #16
 409              	.LCFI23:
ARM GAS  C:\Users\ADMINI~1\AppData\Local\Temp\cc8zcKRS.s 			page 10


 410              		.cfi_def_cfa_offset 8
 411 0054 BD46     		mov	sp, r7
 412              	.LCFI24:
 413              		.cfi_def_cfa_register 13
 414              		@ sp needed
 415 0056 80BD     		pop	{r7, pc}
 416              		.cfi_endproc
 417              	.LFE291:
 419              		.section	.text.MPU6050ReadGyro,"ax",%progbits
 420              		.align	1
 421              		.global	MPU6050ReadGyro
 422              		.syntax unified
 423              		.thumb
 424              		.thumb_func
 425              		.fpu fpv4-sp-d16
 427              	MPU6050ReadGyro:
 428              	.LFB292:
 106:d:/LiteOS_Lab/targets/STM32L431VCT6_Bossay/Hardware/IoTBox/rsrvd_interface\E53_SC2.c **** 
 107:d:/LiteOS_Lab/targets/STM32L431VCT6_Bossay/Hardware/IoTBox/rsrvd_interface\E53_SC2.c **** /***************************************************************
 108:d:/LiteOS_Lab/targets/STM32L431VCT6_Bossay/Hardware/IoTBox/rsrvd_interface\E53_SC2.c ****   * å‡½æ•°åŠŸèƒ½: è¯»å–MPU6050çš„è§’é€Ÿåº¦æ•°æ®
 109:d:/LiteOS_Lab/targets/STM32L431VCT6_Bossay/Hardware/IoTBox/rsrvd_interface\E53_SC2.c ****   * è¾“å…¥å‚æ•°: æ— 
 110:d:/LiteOS_Lab/targets/STM32L431VCT6_Bossay/Hardware/IoTBox/rsrvd_interface\E53_SC2.c ****   * è¿” å› å€¼: æ— 
 111:d:/LiteOS_Lab/targets/STM32L431VCT6_Bossay/Hardware/IoTBox/rsrvd_interface\E53_SC2.c ****   * è¯´    æ˜: æ— 
 112:d:/LiteOS_Lab/targets/STM32L431VCT6_Bossay/Hardware/IoTBox/rsrvd_interface\E53_SC2.c ****  ***************************************************************/ 
 113:d:/LiteOS_Lab/targets/STM32L431VCT6_Bossay/Hardware/IoTBox/rsrvd_interface\E53_SC2.c **** void MPU6050ReadGyro(short *gyroData)
 114:d:/LiteOS_Lab/targets/STM32L431VCT6_Bossay/Hardware/IoTBox/rsrvd_interface\E53_SC2.c **** {
 429              		.loc 1 114 1
 430              		.cfi_startproc
 431              		@ args = 0, pretend = 0, frame = 16
 432              		@ frame_needed = 1, uses_anonymous_args = 0
 433 0000 80B5     		push	{r7, lr}
 434              	.LCFI25:
 435              		.cfi_def_cfa_offset 8
 436              		.cfi_offset 7, -8
 437              		.cfi_offset 14, -4
 438 0002 84B0     		sub	sp, sp, #16
 439              	.LCFI26:
 440              		.cfi_def_cfa_offset 24
 441 0004 00AF     		add	r7, sp, #0
 442              	.LCFI27:
 443              		.cfi_def_cfa_register 7
 444 0006 7860     		str	r0, [r7, #4]
 115:d:/LiteOS_Lab/targets/STM32L431VCT6_Bossay/Hardware/IoTBox/rsrvd_interface\E53_SC2.c ****     uint8_t buf[6];
 116:d:/LiteOS_Lab/targets/STM32L431VCT6_Bossay/Hardware/IoTBox/rsrvd_interface\E53_SC2.c ****     MPU6050_ReadData(MPU6050_GYRO_OUT,buf,6);
 445              		.loc 1 116 5
 446 0008 07F10803 		add	r3, r7, #8
 447 000c 0622     		movs	r2, #6
 448 000e 1946     		mov	r1, r3
 449 0010 4320     		movs	r0, #67
 450 0012 FFF7FEFF 		bl	MPU6050_ReadData
 117:d:/LiteOS_Lab/targets/STM32L431VCT6_Bossay/Hardware/IoTBox/rsrvd_interface\E53_SC2.c ****     gyroData[0] = (buf[0] << 8) | buf[1];
 451              		.loc 1 117 23
 452 0016 3B7A     		ldrb	r3, [r7, #8]	@ zero_extendqisi2
 453              		.loc 1 117 27
 454 0018 1B02     		lsls	r3, r3, #8
 455              		.loc 1 117 33
 456 001a 1AB2     		sxth	r2, r3
ARM GAS  C:\Users\ADMINI~1\AppData\Local\Temp\cc8zcKRS.s 			page 11


 457              		.loc 1 117 38
 458 001c 7B7A     		ldrb	r3, [r7, #9]	@ zero_extendqisi2
 459 001e 1BB2     		sxth	r3, r3
 460              		.loc 1 117 33
 461 0020 1343     		orrs	r3, r3, r2
 462 0022 1AB2     		sxth	r2, r3
 463              		.loc 1 117 17
 464 0024 7B68     		ldr	r3, [r7, #4]
 465 0026 1A80     		strh	r2, [r3]	@ movhi
 118:d:/LiteOS_Lab/targets/STM32L431VCT6_Bossay/Hardware/IoTBox/rsrvd_interface\E53_SC2.c ****     gyroData[1] = (buf[2] << 8) | buf[3];
 466              		.loc 1 118 23
 467 0028 BB7A     		ldrb	r3, [r7, #10]	@ zero_extendqisi2
 468              		.loc 1 118 27
 469 002a 1B02     		lsls	r3, r3, #8
 470              		.loc 1 118 33
 471 002c 19B2     		sxth	r1, r3
 472              		.loc 1 118 38
 473 002e FB7A     		ldrb	r3, [r7, #11]	@ zero_extendqisi2
 474 0030 1AB2     		sxth	r2, r3
 475              		.loc 1 118 13
 476 0032 7B68     		ldr	r3, [r7, #4]
 477 0034 0233     		adds	r3, r3, #2
 478              		.loc 1 118 33
 479 0036 0A43     		orrs	r2, r2, r1
 480 0038 12B2     		sxth	r2, r2
 481              		.loc 1 118 17
 482 003a 1A80     		strh	r2, [r3]	@ movhi
 119:d:/LiteOS_Lab/targets/STM32L431VCT6_Bossay/Hardware/IoTBox/rsrvd_interface\E53_SC2.c ****     gyroData[2] = (buf[4] << 8) | buf[5];
 483              		.loc 1 119 23
 484 003c 3B7B     		ldrb	r3, [r7, #12]	@ zero_extendqisi2
 485              		.loc 1 119 27
 486 003e 1B02     		lsls	r3, r3, #8
 487              		.loc 1 119 33
 488 0040 19B2     		sxth	r1, r3
 489              		.loc 1 119 38
 490 0042 7B7B     		ldrb	r3, [r7, #13]	@ zero_extendqisi2
 491 0044 1AB2     		sxth	r2, r3
 492              		.loc 1 119 13
 493 0046 7B68     		ldr	r3, [r7, #4]
 494 0048 0433     		adds	r3, r3, #4
 495              		.loc 1 119 33
 496 004a 0A43     		orrs	r2, r2, r1
 497 004c 12B2     		sxth	r2, r2
 498              		.loc 1 119 17
 499 004e 1A80     		strh	r2, [r3]	@ movhi
 120:d:/LiteOS_Lab/targets/STM32L431VCT6_Bossay/Hardware/IoTBox/rsrvd_interface\E53_SC2.c **** }
 500              		.loc 1 120 1
 501 0050 00BF     		nop
 502 0052 1037     		adds	r7, r7, #16
 503              	.LCFI28:
 504              		.cfi_def_cfa_offset 8
 505 0054 BD46     		mov	sp, r7
 506              	.LCFI29:
 507              		.cfi_def_cfa_register 13
 508              		@ sp needed
 509 0056 80BD     		pop	{r7, pc}
 510              		.cfi_endproc
ARM GAS  C:\Users\ADMINI~1\AppData\Local\Temp\cc8zcKRS.s 			page 12


 511              	.LFE292:
 513              		.section	.text.MPU6050ReadTemp,"ax",%progbits
 514              		.align	1
 515              		.global	MPU6050ReadTemp
 516              		.syntax unified
 517              		.thumb
 518              		.thumb_func
 519              		.fpu fpv4-sp-d16
 521              	MPU6050ReadTemp:
 522              	.LFB293:
 121:d:/LiteOS_Lab/targets/STM32L431VCT6_Bossay/Hardware/IoTBox/rsrvd_interface\E53_SC2.c **** 
 122:d:/LiteOS_Lab/targets/STM32L431VCT6_Bossay/Hardware/IoTBox/rsrvd_interface\E53_SC2.c **** /***************************************************************
 123:d:/LiteOS_Lab/targets/STM32L431VCT6_Bossay/Hardware/IoTBox/rsrvd_interface\E53_SC2.c ****   * å‡½æ•°åŠŸèƒ½: è¯»å–MPU6050çš„åŸå§‹æ¸©åº¦æ•°æ®
 124:d:/LiteOS_Lab/targets/STM32L431VCT6_Bossay/Hardware/IoTBox/rsrvd_interface\E53_SC2.c ****   * è¾“å…¥å‚æ•°: æ— 
 125:d:/LiteOS_Lab/targets/STM32L431VCT6_Bossay/Hardware/IoTBox/rsrvd_interface\E53_SC2.c ****   * è¿” å› å€¼: æ— 
 126:d:/LiteOS_Lab/targets/STM32L431VCT6_Bossay/Hardware/IoTBox/rsrvd_interface\E53_SC2.c ****   * è¯´    æ˜: æ— 
 127:d:/LiteOS_Lab/targets/STM32L431VCT6_Bossay/Hardware/IoTBox/rsrvd_interface\E53_SC2.c ****   ***************************************************************/
 128:d:/LiteOS_Lab/targets/STM32L431VCT6_Bossay/Hardware/IoTBox/rsrvd_interface\E53_SC2.c **** void MPU6050ReadTemp(short *tempData)
 129:d:/LiteOS_Lab/targets/STM32L431VCT6_Bossay/Hardware/IoTBox/rsrvd_interface\E53_SC2.c **** {
 523              		.loc 1 129 1
 524              		.cfi_startproc
 525              		@ args = 0, pretend = 0, frame = 16
 526              		@ frame_needed = 1, uses_anonymous_args = 0
 527 0000 80B5     		push	{r7, lr}
 528              	.LCFI30:
 529              		.cfi_def_cfa_offset 8
 530              		.cfi_offset 7, -8
 531              		.cfi_offset 14, -4
 532 0002 84B0     		sub	sp, sp, #16
 533              	.LCFI31:
 534              		.cfi_def_cfa_offset 24
 535 0004 00AF     		add	r7, sp, #0
 536              	.LCFI32:
 537              		.cfi_def_cfa_register 7
 538 0006 7860     		str	r0, [r7, #4]
 130:d:/LiteOS_Lab/targets/STM32L431VCT6_Bossay/Hardware/IoTBox/rsrvd_interface\E53_SC2.c **** 	  uint8_t buf[2];
 131:d:/LiteOS_Lab/targets/STM32L431VCT6_Bossay/Hardware/IoTBox/rsrvd_interface\E53_SC2.c ****     MPU6050_ReadData(MPU6050_RA_TEMP_OUT_H,buf,2);     //è¯»å–æ¸©åº¦å€¼
 539              		.loc 1 131 5
 540 0008 07F10C03 		add	r3, r7, #12
 541 000c 0222     		movs	r2, #2
 542 000e 1946     		mov	r1, r3
 543 0010 4120     		movs	r0, #65
 544 0012 FFF7FEFF 		bl	MPU6050_ReadData
 132:d:/LiteOS_Lab/targets/STM32L431VCT6_Bossay/Hardware/IoTBox/rsrvd_interface\E53_SC2.c ****     *tempData = (buf[0] << 8) | buf[1];
 545              		.loc 1 132 21
 546 0016 3B7B     		ldrb	r3, [r7, #12]	@ zero_extendqisi2
 547              		.loc 1 132 25
 548 0018 1B02     		lsls	r3, r3, #8
 549              		.loc 1 132 31
 550 001a 1AB2     		sxth	r2, r3
 551              		.loc 1 132 36
 552 001c 7B7B     		ldrb	r3, [r7, #13]	@ zero_extendqisi2
 553 001e 1BB2     		sxth	r3, r3
 554              		.loc 1 132 31
 555 0020 1343     		orrs	r3, r3, r2
 556 0022 1AB2     		sxth	r2, r3
 557              		.loc 1 132 15
ARM GAS  C:\Users\ADMINI~1\AppData\Local\Temp\cc8zcKRS.s 			page 13


 558 0024 7B68     		ldr	r3, [r7, #4]
 559 0026 1A80     		strh	r2, [r3]	@ movhi
 133:d:/LiteOS_Lab/targets/STM32L431VCT6_Bossay/Hardware/IoTBox/rsrvd_interface\E53_SC2.c **** }
 560              		.loc 1 133 1
 561 0028 00BF     		nop
 562 002a 1037     		adds	r7, r7, #16
 563              	.LCFI33:
 564              		.cfi_def_cfa_offset 8
 565 002c BD46     		mov	sp, r7
 566              	.LCFI34:
 567              		.cfi_def_cfa_register 13
 568              		@ sp needed
 569 002e 80BD     		pop	{r7, pc}
 570              		.cfi_endproc
 571              	.LFE293:
 573              		.global	__aeabi_i2d
 574              		.global	__aeabi_ddiv
 575              		.global	__aeabi_dsub
 576              		.global	__aeabi_d2iz
 577              		.section	.text.MPU6050_ReturnTemp,"ax",%progbits
 578              		.align	1
 579              		.global	MPU6050_ReturnTemp
 580              		.syntax unified
 581              		.thumb
 582              		.thumb_func
 583              		.fpu fpv4-sp-d16
 585              	MPU6050_ReturnTemp:
 586              	.LFB294:
 134:d:/LiteOS_Lab/targets/STM32L431VCT6_Bossay/Hardware/IoTBox/rsrvd_interface\E53_SC2.c **** 
 135:d:/LiteOS_Lab/targets/STM32L431VCT6_Bossay/Hardware/IoTBox/rsrvd_interface\E53_SC2.c **** /***************************************************************
 136:d:/LiteOS_Lab/targets/STM32L431VCT6_Bossay/Hardware/IoTBox/rsrvd_interface\E53_SC2.c ****   * å‡½æ•°åŠŸèƒ½: è¯»å–MPU6050çš„æ¸©åº¦æ•°æ®ï¼Œè½¬åŒ–æˆæ‘„æ°åº¦
 137:d:/LiteOS_Lab/targets/STM32L431VCT6_Bossay/Hardware/IoTBox/rsrvd_interface\E53_SC2.c ****   * è¾“å…¥å‚æ•°: æ— 
 138:d:/LiteOS_Lab/targets/STM32L431VCT6_Bossay/Hardware/IoTBox/rsrvd_interface\E53_SC2.c ****   * è¿” å› å€¼: æ— 
 139:d:/LiteOS_Lab/targets/STM32L431VCT6_Bossay/Hardware/IoTBox/rsrvd_interface\E53_SC2.c ****   * è¯´    æ˜: æ— 
 140:d:/LiteOS_Lab/targets/STM32L431VCT6_Bossay/Hardware/IoTBox/rsrvd_interface\E53_SC2.c ****   **************************************************************/ 
 141:d:/LiteOS_Lab/targets/STM32L431VCT6_Bossay/Hardware/IoTBox/rsrvd_interface\E53_SC2.c **** void MPU6050_ReturnTemp(short*Temperature)
 142:d:/LiteOS_Lab/targets/STM32L431VCT6_Bossay/Hardware/IoTBox/rsrvd_interface\E53_SC2.c **** {
 587              		.loc 1 142 1
 588              		.cfi_startproc
 589              		@ args = 0, pretend = 0, frame = 16
 590              		@ frame_needed = 1, uses_anonymous_args = 0
 591 0000 80B5     		push	{r7, lr}
 592              	.LCFI35:
 593              		.cfi_def_cfa_offset 8
 594              		.cfi_offset 7, -8
 595              		.cfi_offset 14, -4
 596 0002 84B0     		sub	sp, sp, #16
 597              	.LCFI36:
 598              		.cfi_def_cfa_offset 24
 599 0004 00AF     		add	r7, sp, #0
 600              	.LCFI37:
 601              		.cfi_def_cfa_register 7
 602 0006 7860     		str	r0, [r7, #4]
 143:d:/LiteOS_Lab/targets/STM32L431VCT6_Bossay/Hardware/IoTBox/rsrvd_interface\E53_SC2.c **** 	short temp3;
 144:d:/LiteOS_Lab/targets/STM32L431VCT6_Bossay/Hardware/IoTBox/rsrvd_interface\E53_SC2.c **** 	uint8_t buf[2];
 145:d:/LiteOS_Lab/targets/STM32L431VCT6_Bossay/Hardware/IoTBox/rsrvd_interface\E53_SC2.c **** 	
 146:d:/LiteOS_Lab/targets/STM32L431VCT6_Bossay/Hardware/IoTBox/rsrvd_interface\E53_SC2.c **** 	MPU6050_ReadData(MPU6050_RA_TEMP_OUT_H,buf,2);     //è¯»å–æ¸©åº¦å€¼
ARM GAS  C:\Users\ADMINI~1\AppData\Local\Temp\cc8zcKRS.s 			page 14


 603              		.loc 1 146 2
 604 0008 07F10C03 		add	r3, r7, #12
 605 000c 0222     		movs	r2, #2
 606 000e 1946     		mov	r1, r3
 607 0010 4120     		movs	r0, #65
 608 0012 FFF7FEFF 		bl	MPU6050_ReadData
 147:d:/LiteOS_Lab/targets/STM32L431VCT6_Bossay/Hardware/IoTBox/rsrvd_interface\E53_SC2.c ****   temp3= (buf[0] << 8) | buf[1];
 609              		.loc 1 147 14
 610 0016 3B7B     		ldrb	r3, [r7, #12]	@ zero_extendqisi2
 611              		.loc 1 147 18
 612 0018 1B02     		lsls	r3, r3, #8
 613              		.loc 1 147 24
 614 001a 1AB2     		sxth	r2, r3
 615              		.loc 1 147 29
 616 001c 7B7B     		ldrb	r3, [r7, #13]	@ zero_extendqisi2
 617 001e 1BB2     		sxth	r3, r3
 618              		.loc 1 147 8
 619 0020 1343     		orrs	r3, r3, r2
 620 0022 FB81     		strh	r3, [r7, #14]	@ movhi
 148:d:/LiteOS_Lab/targets/STM32L431VCT6_Bossay/Hardware/IoTBox/rsrvd_interface\E53_SC2.c **** 	*Temperature=(((double) (temp3 + 13200)) / 280)-13;
 621              		.loc 1 148 33
 622 0024 B7F90E30 		ldrsh	r3, [r7, #14]
 623 0028 03F54E53 		add	r3, r3, #13184
 624 002c 1033     		adds	r3, r3, #16
 625              		.loc 1 148 17
 626 002e 1846     		mov	r0, r3
 627 0030 FFF7FEFF 		bl	__aeabi_i2d
 628              	.LVL0:
 629              		.loc 1 148 43
 630 0034 4FF00002 		mov	r2, #0
 631 0038 0C4B     		ldr	r3, .L18
 632 003a FFF7FEFF 		bl	__aeabi_ddiv
 633              	.LVL1:
 634 003e 0246     		mov	r2, r0
 635 0040 0B46     		mov	r3, r1
 636 0042 1046     		mov	r0, r2
 637 0044 1946     		mov	r1, r3
 638              		.loc 1 148 49
 639 0046 4FF00002 		mov	r2, #0
 640 004a 094B     		ldr	r3, .L18+4
 641 004c FFF7FEFF 		bl	__aeabi_dsub
 642              	.LVL2:
 643 0050 0246     		mov	r2, r0
 644 0052 0B46     		mov	r3, r1
 645              		.loc 1 148 14
 646 0054 1046     		mov	r0, r2
 647 0056 1946     		mov	r1, r3
 648 0058 FFF7FEFF 		bl	__aeabi_d2iz
 649              	.LVL3:
 650 005c 0346     		mov	r3, r0
 651 005e 1AB2     		sxth	r2, r3
 652 0060 7B68     		ldr	r3, [r7, #4]
 653 0062 1A80     		strh	r2, [r3]	@ movhi
 149:d:/LiteOS_Lab/targets/STM32L431VCT6_Bossay/Hardware/IoTBox/rsrvd_interface\E53_SC2.c **** }
 654              		.loc 1 149 1
 655 0064 00BF     		nop
 656 0066 1037     		adds	r7, r7, #16
ARM GAS  C:\Users\ADMINI~1\AppData\Local\Temp\cc8zcKRS.s 			page 15


 657              	.LCFI38:
 658              		.cfi_def_cfa_offset 8
 659 0068 BD46     		mov	sp, r7
 660              	.LCFI39:
 661              		.cfi_def_cfa_register 13
 662              		@ sp needed
 663 006a 80BD     		pop	{r7, pc}
 664              	.L19:
 665              		.align	2
 666              	.L18:
 667 006c 00807140 		.word	1081180160
 668 0070 00002A40 		.word	1076494336
 669              		.cfi_endproc
 670              	.LFE294:
 672              		.section	.text.Free_Fall_Interrupt,"ax",%progbits
 673              		.align	1
 674              		.global	Free_Fall_Interrupt
 675              		.syntax unified
 676              		.thumb
 677              		.thumb_func
 678              		.fpu fpv4-sp-d16
 680              	Free_Fall_Interrupt:
 681              	.LFB295:
 150:d:/LiteOS_Lab/targets/STM32L431VCT6_Bossay/Hardware/IoTBox/rsrvd_interface\E53_SC2.c **** 
 151:d:/LiteOS_Lab/targets/STM32L431VCT6_Bossay/Hardware/IoTBox/rsrvd_interface\E53_SC2.c **** /***************************************************************
 152:d:/LiteOS_Lab/targets/STM32L431VCT6_Bossay/Hardware/IoTBox/rsrvd_interface\E53_SC2.c ****   * å‡½æ•°åŠŸèƒ½: è‡ªç”±è½ä½“ä¸­æ–­
 153:d:/LiteOS_Lab/targets/STM32L431VCT6_Bossay/Hardware/IoTBox/rsrvd_interface\E53_SC2.c ****   * è¾“å…¥å‚æ•°: æ— 
 154:d:/LiteOS_Lab/targets/STM32L431VCT6_Bossay/Hardware/IoTBox/rsrvd_interface\E53_SC2.c ****   * è¿” å› å€¼: æ— 
 155:d:/LiteOS_Lab/targets/STM32L431VCT6_Bossay/Hardware/IoTBox/rsrvd_interface\E53_SC2.c ****   * è¯´    æ˜: æ— 
 156:d:/LiteOS_Lab/targets/STM32L431VCT6_Bossay/Hardware/IoTBox/rsrvd_interface\E53_SC2.c ****   **************************************************************/
 157:d:/LiteOS_Lab/targets/STM32L431VCT6_Bossay/Hardware/IoTBox/rsrvd_interface\E53_SC2.c **** void Free_Fall_Interrupt(void)          //è‡ªç”±è½ä½“ä¸­æ–­
 158:d:/LiteOS_Lab/targets/STM32L431VCT6_Bossay/Hardware/IoTBox/rsrvd_interface\E53_SC2.c **** {
 682              		.loc 1 158 1
 683              		.cfi_startproc
 684              		@ args = 0, pretend = 0, frame = 0
 685              		@ frame_needed = 1, uses_anonymous_args = 0
 686 0000 80B5     		push	{r7, lr}
 687              	.LCFI40:
 688              		.cfi_def_cfa_offset 8
 689              		.cfi_offset 7, -8
 690              		.cfi_offset 14, -4
 691 0002 00AF     		add	r7, sp, #0
 692              	.LCFI41:
 693              		.cfi_def_cfa_register 7
 159:d:/LiteOS_Lab/targets/STM32L431VCT6_Bossay/Hardware/IoTBox/rsrvd_interface\E53_SC2.c ****     MPU6050_WriteReg(MPU6050_RA_FF_THR,0x01);             //è‡ªç”±è½ä½“é˜ˆå€¼ 
 694              		.loc 1 159 5
 695 0004 0121     		movs	r1, #1
 696 0006 1D20     		movs	r0, #29
 697 0008 FFF7FEFF 		bl	MPU6050_WriteReg
 160:d:/LiteOS_Lab/targets/STM32L431VCT6_Bossay/Hardware/IoTBox/rsrvd_interface\E53_SC2.c ****     MPU6050_WriteReg(MPU6050_RA_FF_DUR,0x01);             //è‡ªç”±è½ä½“æ£€æµ‹æ—¶é—´20ms å•ä½1ms 
 698              		.loc 1 160 5
 699 000c 0121     		movs	r1, #1
 700 000e 1E20     		movs	r0, #30
 701 0010 FFF7FEFF 		bl	MPU6050_WriteReg
 161:d:/LiteOS_Lab/targets/STM32L431VCT6_Bossay/Hardware/IoTBox/rsrvd_interface\E53_SC2.c **** }
 702              		.loc 1 161 1
 703 0014 00BF     		nop
ARM GAS  C:\Users\ADMINI~1\AppData\Local\Temp\cc8zcKRS.s 			page 16


 704 0016 80BD     		pop	{r7, pc}
 705              		.cfi_endproc
 706              	.LFE295:
 708              		.section	.text.Motion_Interrupt,"ax",%progbits
 709              		.align	1
 710              		.global	Motion_Interrupt
 711              		.syntax unified
 712              		.thumb
 713              		.thumb_func
 714              		.fpu fpv4-sp-d16
 716              	Motion_Interrupt:
 717              	.LFB296:
 162:d:/LiteOS_Lab/targets/STM32L431VCT6_Bossay/Hardware/IoTBox/rsrvd_interface\E53_SC2.c **** void Motion_Interrupt(void)             //è¿åŠ¨ä¸­æ–­
 163:d:/LiteOS_Lab/targets/STM32L431VCT6_Bossay/Hardware/IoTBox/rsrvd_interface\E53_SC2.c **** {
 718              		.loc 1 163 1
 719              		.cfi_startproc
 720              		@ args = 0, pretend = 0, frame = 0
 721              		@ frame_needed = 1, uses_anonymous_args = 0
 722 0000 80B5     		push	{r7, lr}
 723              	.LCFI42:
 724              		.cfi_def_cfa_offset 8
 725              		.cfi_offset 7, -8
 726              		.cfi_offset 14, -4
 727 0002 00AF     		add	r7, sp, #0
 728              	.LCFI43:
 729              		.cfi_def_cfa_register 7
 164:d:/LiteOS_Lab/targets/STM32L431VCT6_Bossay/Hardware/IoTBox/rsrvd_interface\E53_SC2.c ****     MPU6050_WriteReg(MPU6050_RA_MOT_THR,0x03);            //è¿åŠ¨é˜ˆå€¼ 
 730              		.loc 1 164 5
 731 0004 0321     		movs	r1, #3
 732 0006 1F20     		movs	r0, #31
 733 0008 FFF7FEFF 		bl	MPU6050_WriteReg
 165:d:/LiteOS_Lab/targets/STM32L431VCT6_Bossay/Hardware/IoTBox/rsrvd_interface\E53_SC2.c ****     MPU6050_WriteReg(MPU6050_RA_MOT_DUR,0x14);            //æ£€æµ‹æ—¶é—´20ms å•ä½1ms å¯„å­˜å™¨0X2
 734              		.loc 1 165 5
 735 000c 1421     		movs	r1, #20
 736 000e 2020     		movs	r0, #32
 737 0010 FFF7FEFF 		bl	MPU6050_WriteReg
 166:d:/LiteOS_Lab/targets/STM32L431VCT6_Bossay/Hardware/IoTBox/rsrvd_interface\E53_SC2.c **** }
 738              		.loc 1 166 1
 739 0014 00BF     		nop
 740 0016 80BD     		pop	{r7, pc}
 741              		.cfi_endproc
 742              	.LFE296:
 744              		.section	.text.Zero_Motion_Interrupt,"ax",%progbits
 745              		.align	1
 746              		.global	Zero_Motion_Interrupt
 747              		.syntax unified
 748              		.thumb
 749              		.thumb_func
 750              		.fpu fpv4-sp-d16
 752              	Zero_Motion_Interrupt:
 753              	.LFB297:
 167:d:/LiteOS_Lab/targets/STM32L431VCT6_Bossay/Hardware/IoTBox/rsrvd_interface\E53_SC2.c **** void Zero_Motion_Interrupt(void)        //é™æ­¢ä¸­æ–­
 168:d:/LiteOS_Lab/targets/STM32L431VCT6_Bossay/Hardware/IoTBox/rsrvd_interface\E53_SC2.c **** {
 754              		.loc 1 168 1
 755              		.cfi_startproc
 756              		@ args = 0, pretend = 0, frame = 0
 757              		@ frame_needed = 1, uses_anonymous_args = 0
ARM GAS  C:\Users\ADMINI~1\AppData\Local\Temp\cc8zcKRS.s 			page 17


 758 0000 80B5     		push	{r7, lr}
 759              	.LCFI44:
 760              		.cfi_def_cfa_offset 8
 761              		.cfi_offset 7, -8
 762              		.cfi_offset 14, -4
 763 0002 00AF     		add	r7, sp, #0
 764              	.LCFI45:
 765              		.cfi_def_cfa_register 7
 169:d:/LiteOS_Lab/targets/STM32L431VCT6_Bossay/Hardware/IoTBox/rsrvd_interface\E53_SC2.c ****     MPU6050_WriteReg(MPU6050_RA_ZRMOT_THR,0x20);          //é™æ­¢é˜ˆå€¼ 
 766              		.loc 1 169 5
 767 0004 2021     		movs	r1, #32
 768 0006 2120     		movs	r0, #33
 769 0008 FFF7FEFF 		bl	MPU6050_WriteReg
 170:d:/LiteOS_Lab/targets/STM32L431VCT6_Bossay/Hardware/IoTBox/rsrvd_interface\E53_SC2.c ****     MPU6050_WriteReg(MPU6050_RA_ZRMOT_DUR,0x20);          //é™æ­¢æ£€æµ‹æ—¶é—´20ms å•ä½1ms å¯„å­˜
 770              		.loc 1 170 5
 771 000c 2021     		movs	r1, #32
 772 000e 2220     		movs	r0, #34
 773 0010 FFF7FEFF 		bl	MPU6050_WriteReg
 171:d:/LiteOS_Lab/targets/STM32L431VCT6_Bossay/Hardware/IoTBox/rsrvd_interface\E53_SC2.c **** }
 774              		.loc 1 171 1
 775 0014 00BF     		nop
 776 0016 80BD     		pop	{r7, pc}
 777              		.cfi_endproc
 778              	.LFE297:
 780              		.section	.rodata
 781 002e 0000     		.align	2
 782              	.LC2:
 783 0030 4D505536 		.ascii	"MPU6050 I2C Delay\357\274\201\357\274\201\357\274\201"
 783      30353020 
 783      49324320 
 783      44656C61 
 783      79EFBC81 
 784 004a 20526573 		.ascii	" Reset I2C...\000"
 784      65742049 
 784      32432E2E 
 784      2E00
 785              		.section	.text.I2C_MPU6050_Error,"ax",%progbits
 786              		.align	1
 787              		.syntax unified
 788              		.thumb
 789              		.thumb_func
 790              		.fpu fpv4-sp-d16
 792              	I2C_MPU6050_Error:
 793              	.LFB298:
 172:d:/LiteOS_Lab/targets/STM32L431VCT6_Bossay/Hardware/IoTBox/rsrvd_interface\E53_SC2.c **** 
 173:d:/LiteOS_Lab/targets/STM32L431VCT6_Bossay/Hardware/IoTBox/rsrvd_interface\E53_SC2.c **** /***************************************************************
 174:d:/LiteOS_Lab/targets/STM32L431VCT6_Bossay/Hardware/IoTBox/rsrvd_interface\E53_SC2.c ****   * å‡½æ•°åŠŸèƒ½: I2Cé€šä¿¡é”™è¯¯å¤„ç†å‡½æ•°
 175:d:/LiteOS_Lab/targets/STM32L431VCT6_Bossay/Hardware/IoTBox/rsrvd_interface\E53_SC2.c ****   * è¾“å…¥å‚æ•°: æ— 
 176:d:/LiteOS_Lab/targets/STM32L431VCT6_Bossay/Hardware/IoTBox/rsrvd_interface\E53_SC2.c ****   * è¿” å› å€¼: æ— 
 177:d:/LiteOS_Lab/targets/STM32L431VCT6_Bossay/Hardware/IoTBox/rsrvd_interface\E53_SC2.c ****   * è¯´    æ˜: ä¸€èˆ¬åœ¨I2Cé€šä¿¡è¶…æ—¶æ—¶è°ƒç”¨è¯¥å‡½æ•°
 178:d:/LiteOS_Lab/targets/STM32L431VCT6_Bossay/Hardware/IoTBox/rsrvd_interface\E53_SC2.c ****   **************************************************************/
 179:d:/LiteOS_Lab/targets/STM32L431VCT6_Bossay/Hardware/IoTBox/rsrvd_interface\E53_SC2.c **** static void I2C_MPU6050_Error (void)
 180:d:/LiteOS_Lab/targets/STM32L431VCT6_Bossay/Hardware/IoTBox/rsrvd_interface\E53_SC2.c **** {
 794              		.loc 1 180 1
 795              		.cfi_startproc
 796              		@ args = 0, pretend = 0, frame = 0
 797              		@ frame_needed = 1, uses_anonymous_args = 0
ARM GAS  C:\Users\ADMINI~1\AppData\Local\Temp\cc8zcKRS.s 			page 18


 798 0000 80B5     		push	{r7, lr}
 799              	.LCFI46:
 800              		.cfi_def_cfa_offset 8
 801              		.cfi_offset 7, -8
 802              		.cfi_offset 14, -4
 803 0002 00AF     		add	r7, sp, #0
 804              	.LCFI47:
 805              		.cfi_def_cfa_register 7
 181:d:/LiteOS_Lab/targets/STM32L431VCT6_Bossay/Hardware/IoTBox/rsrvd_interface\E53_SC2.c ****   /* ååˆå§‹åŒ–I2Cé€šä¿¡æ€»çº¿ */
 182:d:/LiteOS_Lab/targets/STM32L431VCT6_Bossay/Hardware/IoTBox/rsrvd_interface\E53_SC2.c ****   HAL_I2C_DeInit(&hi2c3);
 806              		.loc 1 182 3
 807 0004 0348     		ldr	r0, .L24
 808 0006 FFF7FEFF 		bl	HAL_I2C_DeInit
 183:d:/LiteOS_Lab/targets/STM32L431VCT6_Bossay/Hardware/IoTBox/rsrvd_interface\E53_SC2.c ****   /* é‡æ–°åˆå§‹åŒ–I2Cé€šä¿¡æ€»çº¿*/
 184:d:/LiteOS_Lab/targets/STM32L431VCT6_Bossay/Hardware/IoTBox/rsrvd_interface\E53_SC2.c ****   printf("MPU6050 I2C Delayï¼ï¼ï¼ Reset I2C...\n");
 809              		.loc 1 184 3
 810 000a 0348     		ldr	r0, .L24+4
 811 000c FFF7FEFF 		bl	puts
 185:d:/LiteOS_Lab/targets/STM32L431VCT6_Bossay/Hardware/IoTBox/rsrvd_interface\E53_SC2.c **** }
 812              		.loc 1 185 1
 813 0010 00BF     		nop
 814 0012 80BD     		pop	{r7, pc}
 815              	.L25:
 816              		.align	2
 817              	.L24:
 818 0014 00000000 		.word	hi2c3
 819 0018 30000000 		.word	.LC2
 820              		.cfi_endproc
 821              	.LFE298:
 823              		.section	.text.I2C_MPU6050_WriteData,"ax",%progbits
 824              		.align	1
 825              		.global	I2C_MPU6050_WriteData
 826              		.syntax unified
 827              		.thumb
 828              		.thumb_func
 829              		.fpu fpv4-sp-d16
 831              	I2C_MPU6050_WriteData:
 832              	.LFB299:
 186:d:/LiteOS_Lab/targets/STM32L431VCT6_Bossay/Hardware/IoTBox/rsrvd_interface\E53_SC2.c **** 
 187:d:/LiteOS_Lab/targets/STM32L431VCT6_Bossay/Hardware/IoTBox/rsrvd_interface\E53_SC2.c **** /***************************************************************
 188:d:/LiteOS_Lab/targets/STM32L431VCT6_Bossay/Hardware/IoTBox/rsrvd_interface\E53_SC2.c ****   * å‡½æ•°åŠŸèƒ½: é€šè¿‡I2Cå†™å…¥ä¸€ä¸ªå€¼åˆ°æŒ‡å®šå¯„å­˜å™¨å†…
 189:d:/LiteOS_Lab/targets/STM32L431VCT6_Bossay/Hardware/IoTBox/rsrvd_interface\E53_SC2.c ****   * è¾“å…¥å‚æ•°: Addrï¼šI2Cè®¾å¤‡åœ°å€
 190:d:/LiteOS_Lab/targets/STM32L431VCT6_Bossay/Hardware/IoTBox/rsrvd_interface\E53_SC2.c ****   *           Regï¼šç›®æ ‡å¯„å­˜å™¨
 191:d:/LiteOS_Lab/targets/STM32L431VCT6_Bossay/Hardware/IoTBox/rsrvd_interface\E53_SC2.c ****   *           Valueï¼šå€¼
 192:d:/LiteOS_Lab/targets/STM32L431VCT6_Bossay/Hardware/IoTBox/rsrvd_interface\E53_SC2.c ****   * è¿” å› å€¼: æ— 
 193:d:/LiteOS_Lab/targets/STM32L431VCT6_Bossay/Hardware/IoTBox/rsrvd_interface\E53_SC2.c ****   * è¯´    æ˜: æ— 
 194:d:/LiteOS_Lab/targets/STM32L431VCT6_Bossay/Hardware/IoTBox/rsrvd_interface\E53_SC2.c ****   **************************************************************/
 195:d:/LiteOS_Lab/targets/STM32L431VCT6_Bossay/Hardware/IoTBox/rsrvd_interface\E53_SC2.c **** void I2C_MPU6050_WriteData(uint16_t Addr, uint8_t Reg, uint8_t Value)
 196:d:/LiteOS_Lab/targets/STM32L431VCT6_Bossay/Hardware/IoTBox/rsrvd_interface\E53_SC2.c **** {
 833              		.loc 1 196 1
 834              		.cfi_startproc
 835              		@ args = 0, pretend = 0, frame = 16
 836              		@ frame_needed = 1, uses_anonymous_args = 0
 837 0000 80B5     		push	{r7, lr}
 838              	.LCFI48:
 839              		.cfi_def_cfa_offset 8
 840              		.cfi_offset 7, -8
ARM GAS  C:\Users\ADMINI~1\AppData\Local\Temp\cc8zcKRS.s 			page 19


 841              		.cfi_offset 14, -4
 842 0002 88B0     		sub	sp, sp, #32
 843              	.LCFI49:
 844              		.cfi_def_cfa_offset 40
 845 0004 04AF     		add	r7, sp, #16
 846              	.LCFI50:
 847              		.cfi_def_cfa 7, 24
 848 0006 0346     		mov	r3, r0
 849 0008 FB80     		strh	r3, [r7, #6]	@ movhi
 850 000a 0B46     		mov	r3, r1
 851 000c 7B71     		strb	r3, [r7, #5]
 852 000e 1346     		mov	r3, r2
 853 0010 3B71     		strb	r3, [r7, #4]
 197:d:/LiteOS_Lab/targets/STM32L431VCT6_Bossay/Hardware/IoTBox/rsrvd_interface\E53_SC2.c ****   HAL_StatusTypeDef status = HAL_OK;
 854              		.loc 1 197 21
 855 0012 0023     		movs	r3, #0
 856 0014 FB73     		strb	r3, [r7, #15]
 198:d:/LiteOS_Lab/targets/STM32L431VCT6_Bossay/Hardware/IoTBox/rsrvd_interface\E53_SC2.c ****   
 199:d:/LiteOS_Lab/targets/STM32L431VCT6_Bossay/Hardware/IoTBox/rsrvd_interface\E53_SC2.c ****   status = HAL_I2C_Mem_Write(&hi2c3, Addr, (uint16_t)Reg, I2C_MEMADD_SIZE_8BIT, &Value, 1, I2cxTime
 857              		.loc 1 199 12
 858 0016 7B79     		ldrb	r3, [r7, #5]	@ zero_extendqisi2
 859 0018 9AB2     		uxth	r2, r3
 860 001a 0B4B     		ldr	r3, .L29
 861 001c 1B68     		ldr	r3, [r3]
 862 001e F988     		ldrh	r1, [r7, #6]
 863 0020 0293     		str	r3, [sp, #8]
 864 0022 0123     		movs	r3, #1
 865 0024 0193     		str	r3, [sp, #4]
 866 0026 3B1D     		adds	r3, r7, #4
 867 0028 0093     		str	r3, [sp]
 868 002a 0123     		movs	r3, #1
 869 002c 0748     		ldr	r0, .L29+4
 870 002e FFF7FEFF 		bl	HAL_I2C_Mem_Write
 871 0032 0346     		mov	r3, r0
 872 0034 FB73     		strb	r3, [r7, #15]
 200:d:/LiteOS_Lab/targets/STM32L431VCT6_Bossay/Hardware/IoTBox/rsrvd_interface\E53_SC2.c ****   
 201:d:/LiteOS_Lab/targets/STM32L431VCT6_Bossay/Hardware/IoTBox/rsrvd_interface\E53_SC2.c ****   /* æ£€æµ‹I2Cé€šä¿¡çŠ¶æ€ */
 202:d:/LiteOS_Lab/targets/STM32L431VCT6_Bossay/Hardware/IoTBox/rsrvd_interface\E53_SC2.c ****   if(status != HAL_OK)
 873              		.loc 1 202 5
 874 0036 FB7B     		ldrb	r3, [r7, #15]	@ zero_extendqisi2
 875 0038 002B     		cmp	r3, #0
 876 003a 01D0     		beq	.L28
 203:d:/LiteOS_Lab/targets/STM32L431VCT6_Bossay/Hardware/IoTBox/rsrvd_interface\E53_SC2.c ****   {
 204:d:/LiteOS_Lab/targets/STM32L431VCT6_Bossay/Hardware/IoTBox/rsrvd_interface\E53_SC2.c ****     /* è°ƒç”¨I2Cé€šä¿¡é”™è¯¯å¤„ç†å‡½æ•° */
 205:d:/LiteOS_Lab/targets/STM32L431VCT6_Bossay/Hardware/IoTBox/rsrvd_interface\E53_SC2.c ****     I2C_MPU6050_Error();
 877              		.loc 1 205 5
 878 003c FFF7FEFF 		bl	I2C_MPU6050_Error
 879              	.L28:
 206:d:/LiteOS_Lab/targets/STM32L431VCT6_Bossay/Hardware/IoTBox/rsrvd_interface\E53_SC2.c ****   }
 207:d:/LiteOS_Lab/targets/STM32L431VCT6_Bossay/Hardware/IoTBox/rsrvd_interface\E53_SC2.c **** }
 880              		.loc 1 207 1
 881 0040 00BF     		nop
 882 0042 1037     		adds	r7, r7, #16
 883              	.LCFI51:
 884              		.cfi_def_cfa_offset 8
 885 0044 BD46     		mov	sp, r7
 886              	.LCFI52:
ARM GAS  C:\Users\ADMINI~1\AppData\Local\Temp\cc8zcKRS.s 			page 20


 887              		.cfi_def_cfa_register 13
 888              		@ sp needed
 889 0046 80BD     		pop	{r7, pc}
 890              	.L30:
 891              		.align	2
 892              	.L29:
 893 0048 00000000 		.word	I2cxTimeout
 894 004c 00000000 		.word	hi2c3
 895              		.cfi_endproc
 896              	.LFE299:
 898              		.section	.text.I2C_MPU6050_WriteBuffer,"ax",%progbits
 899              		.align	1
 900              		.global	I2C_MPU6050_WriteBuffer
 901              		.syntax unified
 902              		.thumb
 903              		.thumb_func
 904              		.fpu fpv4-sp-d16
 906              	I2C_MPU6050_WriteBuffer:
 907              	.LFB300:
 208:d:/LiteOS_Lab/targets/STM32L431VCT6_Bossay/Hardware/IoTBox/rsrvd_interface\E53_SC2.c **** 
 209:d:/LiteOS_Lab/targets/STM32L431VCT6_Bossay/Hardware/IoTBox/rsrvd_interface\E53_SC2.c **** /***************************************************************
 210:d:/LiteOS_Lab/targets/STM32L431VCT6_Bossay/Hardware/IoTBox/rsrvd_interface\E53_SC2.c ****   * å‡½æ•°åŠŸèƒ½: é€šè¿‡I2Cå†™å…¥ä¸€æ®µæ•°æ®åˆ°æŒ‡å®šå¯„å­˜å™¨å†…
 211:d:/LiteOS_Lab/targets/STM32L431VCT6_Bossay/Hardware/IoTBox/rsrvd_interface\E53_SC2.c ****   * è¾“å…¥å‚æ•°: Addrï¼šI2Cè®¾å¤‡åœ°å€
 212:d:/LiteOS_Lab/targets/STM32L431VCT6_Bossay/Hardware/IoTBox/rsrvd_interface\E53_SC2.c ****   *           Regï¼šç›®æ ‡å¯„å­˜å™¨
 213:d:/LiteOS_Lab/targets/STM32L431VCT6_Bossay/Hardware/IoTBox/rsrvd_interface\E53_SC2.c ****   *           RegSizeï¼šå¯„å­˜å™¨å°ºå¯¸(8ä½æˆ–è€…16ä½)
 214:d:/LiteOS_Lab/targets/STM32L431VCT6_Bossay/Hardware/IoTBox/rsrvd_interface\E53_SC2.c ****   *           pBufferï¼šç¼“å†²åŒºæŒ‡é’ˆ
 215:d:/LiteOS_Lab/targets/STM32L431VCT6_Bossay/Hardware/IoTBox/rsrvd_interface\E53_SC2.c ****   *           Lengthï¼šç¼“å†²åŒºé•¿åº¦
 216:d:/LiteOS_Lab/targets/STM32L431VCT6_Bossay/Hardware/IoTBox/rsrvd_interface\E53_SC2.c ****   * è¿” å› å€¼: HAL_StatusTypeDefï¼šæ“ä½œç»“æœ
 217:d:/LiteOS_Lab/targets/STM32L431VCT6_Bossay/Hardware/IoTBox/rsrvd_interface\E53_SC2.c ****   * è¯´    æ˜: åœ¨å¾ªç¯è°ƒç”¨æ˜¯éœ€åŠ ä¸€å®šå»¶æ—¶æ—¶é—´
 218:d:/LiteOS_Lab/targets/STM32L431VCT6_Bossay/Hardware/IoTBox/rsrvd_interface\E53_SC2.c ****   **************************************************************/
 219:d:/LiteOS_Lab/targets/STM32L431VCT6_Bossay/Hardware/IoTBox/rsrvd_interface\E53_SC2.c **** HAL_StatusTypeDef I2C_MPU6050_WriteBuffer(uint16_t Addr, uint8_t Reg, uint16_t RegSize, uint8_t *pB
 220:d:/LiteOS_Lab/targets/STM32L431VCT6_Bossay/Hardware/IoTBox/rsrvd_interface\E53_SC2.c **** {
 908              		.loc 1 220 1
 909              		.cfi_startproc
 910              		@ args = 4, pretend = 0, frame = 24
 911              		@ frame_needed = 1, uses_anonymous_args = 0
 912 0000 80B5     		push	{r7, lr}
 913              	.LCFI53:
 914              		.cfi_def_cfa_offset 8
 915              		.cfi_offset 7, -8
 916              		.cfi_offset 14, -4
 917 0002 8AB0     		sub	sp, sp, #40
 918              	.LCFI54:
 919              		.cfi_def_cfa_offset 48
 920 0004 04AF     		add	r7, sp, #16
 921              	.LCFI55:
 922              		.cfi_def_cfa 7, 32
 923 0006 7B60     		str	r3, [r7, #4]
 924 0008 0346     		mov	r3, r0	@ movhi
 925 000a FB81     		strh	r3, [r7, #14]	@ movhi
 926 000c 0B46     		mov	r3, r1
 927 000e 7B73     		strb	r3, [r7, #13]
 928 0010 1346     		mov	r3, r2	@ movhi
 929 0012 7B81     		strh	r3, [r7, #10]	@ movhi
 221:d:/LiteOS_Lab/targets/STM32L431VCT6_Bossay/Hardware/IoTBox/rsrvd_interface\E53_SC2.c ****   HAL_StatusTypeDef status = HAL_OK;
 930              		.loc 1 221 21
 931 0014 0023     		movs	r3, #0
ARM GAS  C:\Users\ADMINI~1\AppData\Local\Temp\cc8zcKRS.s 			page 21


 932 0016 FB75     		strb	r3, [r7, #23]
 222:d:/LiteOS_Lab/targets/STM32L431VCT6_Bossay/Hardware/IoTBox/rsrvd_interface\E53_SC2.c ****   
 223:d:/LiteOS_Lab/targets/STM32L431VCT6_Bossay/Hardware/IoTBox/rsrvd_interface\E53_SC2.c ****   status = HAL_I2C_Mem_Write(&hi2c3, Addr, (uint16_t)Reg, RegSize, pBuffer, Length, I2cxTimeout); 
 933              		.loc 1 223 12
 934 0018 7B7B     		ldrb	r3, [r7, #13]	@ zero_extendqisi2
 935 001a 9AB2     		uxth	r2, r3
 936 001c 0C4B     		ldr	r3, .L34
 937 001e 1B68     		ldr	r3, [r3]
 938 0020 7889     		ldrh	r0, [r7, #10]
 939 0022 F989     		ldrh	r1, [r7, #14]
 940 0024 0293     		str	r3, [sp, #8]
 941 0026 3B8C     		ldrh	r3, [r7, #32]
 942 0028 0193     		str	r3, [sp, #4]
 943 002a 7B68     		ldr	r3, [r7, #4]
 944 002c 0093     		str	r3, [sp]
 945 002e 0346     		mov	r3, r0
 946 0030 0848     		ldr	r0, .L34+4
 947 0032 FFF7FEFF 		bl	HAL_I2C_Mem_Write
 948 0036 0346     		mov	r3, r0
 949 0038 FB75     		strb	r3, [r7, #23]
 224:d:/LiteOS_Lab/targets/STM32L431VCT6_Bossay/Hardware/IoTBox/rsrvd_interface\E53_SC2.c **** 
 225:d:/LiteOS_Lab/targets/STM32L431VCT6_Bossay/Hardware/IoTBox/rsrvd_interface\E53_SC2.c ****   /* æ£€æµ‹I2Cé€šä¿¡çŠ¶æ€ */
 226:d:/LiteOS_Lab/targets/STM32L431VCT6_Bossay/Hardware/IoTBox/rsrvd_interface\E53_SC2.c ****   if(status != HAL_OK)
 950              		.loc 1 226 5
 951 003a FB7D     		ldrb	r3, [r7, #23]	@ zero_extendqisi2
 952 003c 002B     		cmp	r3, #0
 953 003e 01D0     		beq	.L32
 227:d:/LiteOS_Lab/targets/STM32L431VCT6_Bossay/Hardware/IoTBox/rsrvd_interface\E53_SC2.c ****   {
 228:d:/LiteOS_Lab/targets/STM32L431VCT6_Bossay/Hardware/IoTBox/rsrvd_interface\E53_SC2.c ****     /* è°ƒç”¨I2Cé€šä¿¡é”™è¯¯å¤„ç†å‡½æ•° */
 229:d:/LiteOS_Lab/targets/STM32L431VCT6_Bossay/Hardware/IoTBox/rsrvd_interface\E53_SC2.c ****     I2C_MPU6050_Error();
 954              		.loc 1 229 5
 955 0040 FFF7FEFF 		bl	I2C_MPU6050_Error
 956              	.L32:
 230:d:/LiteOS_Lab/targets/STM32L431VCT6_Bossay/Hardware/IoTBox/rsrvd_interface\E53_SC2.c ****   }        
 231:d:/LiteOS_Lab/targets/STM32L431VCT6_Bossay/Hardware/IoTBox/rsrvd_interface\E53_SC2.c ****   return status;
 957              		.loc 1 231 10
 958 0044 FB7D     		ldrb	r3, [r7, #23]	@ zero_extendqisi2
 232:d:/LiteOS_Lab/targets/STM32L431VCT6_Bossay/Hardware/IoTBox/rsrvd_interface\E53_SC2.c **** }
 959              		.loc 1 232 1
 960 0046 1846     		mov	r0, r3
 961 0048 1837     		adds	r7, r7, #24
 962              	.LCFI56:
 963              		.cfi_def_cfa_offset 8
 964 004a BD46     		mov	sp, r7
 965              	.LCFI57:
 966              		.cfi_def_cfa_register 13
 967              		@ sp needed
 968 004c 80BD     		pop	{r7, pc}
 969              	.L35:
 970 004e 00BF     		.align	2
 971              	.L34:
 972 0050 00000000 		.word	I2cxTimeout
 973 0054 00000000 		.word	hi2c3
 974              		.cfi_endproc
 975              	.LFE300:
 977              		.section	.text.I2C_MPU6050_ReadData,"ax",%progbits
 978              		.align	1
ARM GAS  C:\Users\ADMINI~1\AppData\Local\Temp\cc8zcKRS.s 			page 22


 979              		.global	I2C_MPU6050_ReadData
 980              		.syntax unified
 981              		.thumb
 982              		.thumb_func
 983              		.fpu fpv4-sp-d16
 985              	I2C_MPU6050_ReadData:
 986              	.LFB301:
 233:d:/LiteOS_Lab/targets/STM32L431VCT6_Bossay/Hardware/IoTBox/rsrvd_interface\E53_SC2.c **** 
 234:d:/LiteOS_Lab/targets/STM32L431VCT6_Bossay/Hardware/IoTBox/rsrvd_interface\E53_SC2.c **** 
 235:d:/LiteOS_Lab/targets/STM32L431VCT6_Bossay/Hardware/IoTBox/rsrvd_interface\E53_SC2.c **** /***************************************************************
 236:d:/LiteOS_Lab/targets/STM32L431VCT6_Bossay/Hardware/IoTBox/rsrvd_interface\E53_SC2.c ****   * å‡½æ•°åŠŸèƒ½: é€šè¿‡I2Cè¯»å–ä¸€ä¸ªæŒ‡å®šå¯„å­˜å™¨å†…å®¹
 237:d:/LiteOS_Lab/targets/STM32L431VCT6_Bossay/Hardware/IoTBox/rsrvd_interface\E53_SC2.c ****   * è¾“å…¥å‚æ•°: Addrï¼šI2Cè®¾å¤‡åœ°å€
 238:d:/LiteOS_Lab/targets/STM32L431VCT6_Bossay/Hardware/IoTBox/rsrvd_interface\E53_SC2.c ****   *           Regï¼šç›®æ ‡å¯„å­˜å™¨
 239:d:/LiteOS_Lab/targets/STM32L431VCT6_Bossay/Hardware/IoTBox/rsrvd_interface\E53_SC2.c ****   * è¿” å› å€¼: uint8_tï¼šå¯„å­˜å™¨å†…å®¹
 240:d:/LiteOS_Lab/targets/STM32L431VCT6_Bossay/Hardware/IoTBox/rsrvd_interface\E53_SC2.c ****   * è¯´    æ˜: æ— 
 241:d:/LiteOS_Lab/targets/STM32L431VCT6_Bossay/Hardware/IoTBox/rsrvd_interface\E53_SC2.c ****   **************************************************************/
 242:d:/LiteOS_Lab/targets/STM32L431VCT6_Bossay/Hardware/IoTBox/rsrvd_interface\E53_SC2.c **** uint8_t I2C_MPU6050_ReadData(uint16_t Addr, uint8_t Reg)
 243:d:/LiteOS_Lab/targets/STM32L431VCT6_Bossay/Hardware/IoTBox/rsrvd_interface\E53_SC2.c **** {
 987              		.loc 1 243 1
 988              		.cfi_startproc
 989              		@ args = 0, pretend = 0, frame = 16
 990              		@ frame_needed = 1, uses_anonymous_args = 0
 991 0000 80B5     		push	{r7, lr}
 992              	.LCFI58:
 993              		.cfi_def_cfa_offset 8
 994              		.cfi_offset 7, -8
 995              		.cfi_offset 14, -4
 996 0002 88B0     		sub	sp, sp, #32
 997              	.LCFI59:
 998              		.cfi_def_cfa_offset 40
 999 0004 04AF     		add	r7, sp, #16
 1000              	.LCFI60:
 1001              		.cfi_def_cfa 7, 24
 1002 0006 0346     		mov	r3, r0
 1003 0008 0A46     		mov	r2, r1
 1004 000a FB80     		strh	r3, [r7, #6]	@ movhi
 1005 000c 1346     		mov	r3, r2
 1006 000e 7B71     		strb	r3, [r7, #5]
 244:d:/LiteOS_Lab/targets/STM32L431VCT6_Bossay/Hardware/IoTBox/rsrvd_interface\E53_SC2.c ****   HAL_StatusTypeDef status = HAL_OK;
 1007              		.loc 1 244 21
 1008 0010 0023     		movs	r3, #0
 1009 0012 FB73     		strb	r3, [r7, #15]
 245:d:/LiteOS_Lab/targets/STM32L431VCT6_Bossay/Hardware/IoTBox/rsrvd_interface\E53_SC2.c ****   uint8_t value = 0;
 1010              		.loc 1 245 11
 1011 0014 0023     		movs	r3, #0
 1012 0016 BB73     		strb	r3, [r7, #14]
 246:d:/LiteOS_Lab/targets/STM32L431VCT6_Bossay/Hardware/IoTBox/rsrvd_interface\E53_SC2.c ****   
 247:d:/LiteOS_Lab/targets/STM32L431VCT6_Bossay/Hardware/IoTBox/rsrvd_interface\E53_SC2.c ****   status = HAL_I2C_Mem_Read(&hi2c3, Addr, Reg, I2C_MEMADD_SIZE_8BIT, &value, 1, I2cxTimeout);
 1013              		.loc 1 247 12
 1014 0018 7B79     		ldrb	r3, [r7, #5]	@ zero_extendqisi2
 1015 001a 9AB2     		uxth	r2, r3
 1016 001c 0C4B     		ldr	r3, .L39
 1017 001e 1B68     		ldr	r3, [r3]
 1018 0020 F988     		ldrh	r1, [r7, #6]
 1019 0022 0293     		str	r3, [sp, #8]
 1020 0024 0123     		movs	r3, #1
 1021 0026 0193     		str	r3, [sp, #4]
ARM GAS  C:\Users\ADMINI~1\AppData\Local\Temp\cc8zcKRS.s 			page 23


 1022 0028 07F10E03 		add	r3, r7, #14
 1023 002c 0093     		str	r3, [sp]
 1024 002e 0123     		movs	r3, #1
 1025 0030 0848     		ldr	r0, .L39+4
 1026 0032 FFF7FEFF 		bl	HAL_I2C_Mem_Read
 1027 0036 0346     		mov	r3, r0
 1028 0038 FB73     		strb	r3, [r7, #15]
 248:d:/LiteOS_Lab/targets/STM32L431VCT6_Bossay/Hardware/IoTBox/rsrvd_interface\E53_SC2.c ****  
 249:d:/LiteOS_Lab/targets/STM32L431VCT6_Bossay/Hardware/IoTBox/rsrvd_interface\E53_SC2.c ****   /* æ£€æµ‹I2Cé€šä¿¡çŠ¶æ€ */
 250:d:/LiteOS_Lab/targets/STM32L431VCT6_Bossay/Hardware/IoTBox/rsrvd_interface\E53_SC2.c ****   if(status != HAL_OK)
 1029              		.loc 1 250 5
 1030 003a FB7B     		ldrb	r3, [r7, #15]	@ zero_extendqisi2
 1031 003c 002B     		cmp	r3, #0
 1032 003e 01D0     		beq	.L37
 251:d:/LiteOS_Lab/targets/STM32L431VCT6_Bossay/Hardware/IoTBox/rsrvd_interface\E53_SC2.c ****   {
 252:d:/LiteOS_Lab/targets/STM32L431VCT6_Bossay/Hardware/IoTBox/rsrvd_interface\E53_SC2.c ****     /* è°ƒç”¨I2Cé€šä¿¡é”™è¯¯å¤„ç†å‡½æ•° */
 253:d:/LiteOS_Lab/targets/STM32L431VCT6_Bossay/Hardware/IoTBox/rsrvd_interface\E53_SC2.c ****     I2C_MPU6050_Error();
 1033              		.loc 1 253 5
 1034 0040 FFF7FEFF 		bl	I2C_MPU6050_Error
 1035              	.L37:
 254:d:/LiteOS_Lab/targets/STM32L431VCT6_Bossay/Hardware/IoTBox/rsrvd_interface\E53_SC2.c ****   }
 255:d:/LiteOS_Lab/targets/STM32L431VCT6_Bossay/Hardware/IoTBox/rsrvd_interface\E53_SC2.c ****   return value;
 1036              		.loc 1 255 10
 1037 0044 BB7B     		ldrb	r3, [r7, #14]	@ zero_extendqisi2
 256:d:/LiteOS_Lab/targets/STM32L431VCT6_Bossay/Hardware/IoTBox/rsrvd_interface\E53_SC2.c **** }
 1038              		.loc 1 256 1
 1039 0046 1846     		mov	r0, r3
 1040 0048 1037     		adds	r7, r7, #16
 1041              	.LCFI61:
 1042              		.cfi_def_cfa_offset 8
 1043 004a BD46     		mov	sp, r7
 1044              	.LCFI62:
 1045              		.cfi_def_cfa_register 13
 1046              		@ sp needed
 1047 004c 80BD     		pop	{r7, pc}
 1048              	.L40:
 1049 004e 00BF     		.align	2
 1050              	.L39:
 1051 0050 00000000 		.word	I2cxTimeout
 1052 0054 00000000 		.word	hi2c3
 1053              		.cfi_endproc
 1054              	.LFE301:
 1056              		.section	.text.I2C_MPU6050_ReadBuffer,"ax",%progbits
 1057              		.align	1
 1058              		.global	I2C_MPU6050_ReadBuffer
 1059              		.syntax unified
 1060              		.thumb
 1061              		.thumb_func
 1062              		.fpu fpv4-sp-d16
 1064              	I2C_MPU6050_ReadBuffer:
 1065              	.LFB302:
 257:d:/LiteOS_Lab/targets/STM32L431VCT6_Bossay/Hardware/IoTBox/rsrvd_interface\E53_SC2.c **** 
 258:d:/LiteOS_Lab/targets/STM32L431VCT6_Bossay/Hardware/IoTBox/rsrvd_interface\E53_SC2.c **** /***************************************************************
 259:d:/LiteOS_Lab/targets/STM32L431VCT6_Bossay/Hardware/IoTBox/rsrvd_interface\E53_SC2.c ****   * å‡½æ•°åŠŸèƒ½: é€šè¿‡I2Cè¯»å–ä¸€æ®µå¯„å­˜å™¨å†…å®¹å­˜æ”¾åˆ°æŒ‡å®šçš„ç¼“å†²åŒºå†…
 260:d:/LiteOS_Lab/targets/STM32L431VCT6_Bossay/Hardware/IoTBox/rsrvd_interface\E53_SC2.c ****   * è¾“å…¥å‚æ•°: Addrï¼šI2Cè®¾å¤‡åœ°å€
 261:d:/LiteOS_Lab/targets/STM32L431VCT6_Bossay/Hardware/IoTBox/rsrvd_interface\E53_SC2.c ****   *           Regï¼šç›®æ ‡å¯„å­˜å™¨
 262:d:/LiteOS_Lab/targets/STM32L431VCT6_Bossay/Hardware/IoTBox/rsrvd_interface\E53_SC2.c ****   *           RegSizeï¼šå¯„å­˜å™¨å°ºå¯¸(8ä½æˆ–è€…16ä½)
ARM GAS  C:\Users\ADMINI~1\AppData\Local\Temp\cc8zcKRS.s 			page 24


 263:d:/LiteOS_Lab/targets/STM32L431VCT6_Bossay/Hardware/IoTBox/rsrvd_interface\E53_SC2.c ****   *           pBufferï¼šç¼“å†²åŒºæŒ‡é’ˆ
 264:d:/LiteOS_Lab/targets/STM32L431VCT6_Bossay/Hardware/IoTBox/rsrvd_interface\E53_SC2.c ****   *           Lengthï¼šç¼“å†²åŒºé•¿åº¦
 265:d:/LiteOS_Lab/targets/STM32L431VCT6_Bossay/Hardware/IoTBox/rsrvd_interface\E53_SC2.c ****   * è¿” å› å€¼: HAL_StatusTypeDefï¼šæ“ä½œç»“æœ
 266:d:/LiteOS_Lab/targets/STM32L431VCT6_Bossay/Hardware/IoTBox/rsrvd_interface\E53_SC2.c ****   * è¯´    æ˜: æ— 
 267:d:/LiteOS_Lab/targets/STM32L431VCT6_Bossay/Hardware/IoTBox/rsrvd_interface\E53_SC2.c ****   **************************************************************/
 268:d:/LiteOS_Lab/targets/STM32L431VCT6_Bossay/Hardware/IoTBox/rsrvd_interface\E53_SC2.c **** HAL_StatusTypeDef I2C_MPU6050_ReadBuffer(uint16_t Addr, uint8_t Reg, uint16_t RegSize, uint8_t *pBu
 269:d:/LiteOS_Lab/targets/STM32L431VCT6_Bossay/Hardware/IoTBox/rsrvd_interface\E53_SC2.c **** {
 1066              		.loc 1 269 1
 1067              		.cfi_startproc
 1068              		@ args = 4, pretend = 0, frame = 24
 1069              		@ frame_needed = 1, uses_anonymous_args = 0
 1070 0000 80B5     		push	{r7, lr}
 1071              	.LCFI63:
 1072              		.cfi_def_cfa_offset 8
 1073              		.cfi_offset 7, -8
 1074              		.cfi_offset 14, -4
 1075 0002 8AB0     		sub	sp, sp, #40
 1076              	.LCFI64:
 1077              		.cfi_def_cfa_offset 48
 1078 0004 04AF     		add	r7, sp, #16
 1079              	.LCFI65:
 1080              		.cfi_def_cfa 7, 32
 1081 0006 7B60     		str	r3, [r7, #4]
 1082 0008 0346     		mov	r3, r0	@ movhi
 1083 000a FB81     		strh	r3, [r7, #14]	@ movhi
 1084 000c 0B46     		mov	r3, r1
 1085 000e 7B73     		strb	r3, [r7, #13]
 1086 0010 1346     		mov	r3, r2	@ movhi
 1087 0012 7B81     		strh	r3, [r7, #10]	@ movhi
 270:d:/LiteOS_Lab/targets/STM32L431VCT6_Bossay/Hardware/IoTBox/rsrvd_interface\E53_SC2.c ****   HAL_StatusTypeDef status = HAL_OK;
 1088              		.loc 1 270 21
 1089 0014 0023     		movs	r3, #0
 1090 0016 FB75     		strb	r3, [r7, #23]
 271:d:/LiteOS_Lab/targets/STM32L431VCT6_Bossay/Hardware/IoTBox/rsrvd_interface\E53_SC2.c **** 
 272:d:/LiteOS_Lab/targets/STM32L431VCT6_Bossay/Hardware/IoTBox/rsrvd_interface\E53_SC2.c ****   status = HAL_I2C_Mem_Read(&hi2c3, Addr, (uint16_t)Reg, RegSize, pBuffer, Length, I2cxTimeout);
 1091              		.loc 1 272 12
 1092 0018 7B7B     		ldrb	r3, [r7, #13]	@ zero_extendqisi2
 1093 001a 9AB2     		uxth	r2, r3
 1094 001c 0C4B     		ldr	r3, .L44
 1095 001e 1B68     		ldr	r3, [r3]
 1096 0020 7889     		ldrh	r0, [r7, #10]
 1097 0022 F989     		ldrh	r1, [r7, #14]
 1098 0024 0293     		str	r3, [sp, #8]
 1099 0026 3B8C     		ldrh	r3, [r7, #32]
 1100 0028 0193     		str	r3, [sp, #4]
 1101 002a 7B68     		ldr	r3, [r7, #4]
 1102 002c 0093     		str	r3, [sp]
 1103 002e 0346     		mov	r3, r0
 1104 0030 0848     		ldr	r0, .L44+4
 1105 0032 FFF7FEFF 		bl	HAL_I2C_Mem_Read
 1106 0036 0346     		mov	r3, r0
 1107 0038 FB75     		strb	r3, [r7, #23]
 273:d:/LiteOS_Lab/targets/STM32L431VCT6_Bossay/Hardware/IoTBox/rsrvd_interface\E53_SC2.c ****   /* æ£€æµ‹I2Cé€šä¿¡çŠ¶æ€ */
 274:d:/LiteOS_Lab/targets/STM32L431VCT6_Bossay/Hardware/IoTBox/rsrvd_interface\E53_SC2.c ****   if(status != HAL_OK)
 1108              		.loc 1 274 5
 1109 003a FB7D     		ldrb	r3, [r7, #23]	@ zero_extendqisi2
 1110 003c 002B     		cmp	r3, #0
ARM GAS  C:\Users\ADMINI~1\AppData\Local\Temp\cc8zcKRS.s 			page 25


 1111 003e 01D0     		beq	.L42
 275:d:/LiteOS_Lab/targets/STM32L431VCT6_Bossay/Hardware/IoTBox/rsrvd_interface\E53_SC2.c ****   {
 276:d:/LiteOS_Lab/targets/STM32L431VCT6_Bossay/Hardware/IoTBox/rsrvd_interface\E53_SC2.c ****     /* è°ƒç”¨I2Cé€šä¿¡é”™è¯¯å¤„ç†å‡½æ•° */
 277:d:/LiteOS_Lab/targets/STM32L431VCT6_Bossay/Hardware/IoTBox/rsrvd_interface\E53_SC2.c ****     I2C_MPU6050_Error();
 1112              		.loc 1 277 5
 1113 0040 FFF7FEFF 		bl	I2C_MPU6050_Error
 1114              	.L42:
 278:d:/LiteOS_Lab/targets/STM32L431VCT6_Bossay/Hardware/IoTBox/rsrvd_interface\E53_SC2.c ****   }        
 279:d:/LiteOS_Lab/targets/STM32L431VCT6_Bossay/Hardware/IoTBox/rsrvd_interface\E53_SC2.c ****   return status;
 1115              		.loc 1 279 10
 1116 0044 FB7D     		ldrb	r3, [r7, #23]	@ zero_extendqisi2
 280:d:/LiteOS_Lab/targets/STM32L431VCT6_Bossay/Hardware/IoTBox/rsrvd_interface\E53_SC2.c **** }
 1117              		.loc 1 280 1
 1118 0046 1846     		mov	r0, r3
 1119 0048 1837     		adds	r7, r7, #24
 1120              	.LCFI66:
 1121              		.cfi_def_cfa_offset 8
 1122 004a BD46     		mov	sp, r7
 1123              	.LCFI67:
 1124              		.cfi_def_cfa_register 13
 1125              		@ sp needed
 1126 004c 80BD     		pop	{r7, pc}
 1127              	.L45:
 1128 004e 00BF     		.align	2
 1129              	.L44:
 1130 0050 00000000 		.word	I2cxTimeout
 1131 0054 00000000 		.word	hi2c3
 1132              		.cfi_endproc
 1133              	.LFE302:
 1135              		.section	.text.I2C_MPU6050_IsDeviceReady,"ax",%progbits
 1136              		.align	1
 1137              		.global	I2C_MPU6050_IsDeviceReady
 1138              		.syntax unified
 1139              		.thumb
 1140              		.thumb_func
 1141              		.fpu fpv4-sp-d16
 1143              	I2C_MPU6050_IsDeviceReady:
 1144              	.LFB303:
 281:d:/LiteOS_Lab/targets/STM32L431VCT6_Bossay/Hardware/IoTBox/rsrvd_interface\E53_SC2.c **** 
 282:d:/LiteOS_Lab/targets/STM32L431VCT6_Bossay/Hardware/IoTBox/rsrvd_interface\E53_SC2.c **** /***************************************************************
 283:d:/LiteOS_Lab/targets/STM32L431VCT6_Bossay/Hardware/IoTBox/rsrvd_interface\E53_SC2.c ****   * å‡½æ•°åŠŸèƒ½: æ£€æµ‹I2Cè®¾å¤‡æ˜¯å¦å¤„äºå‡†å¤‡å¥½å¯ä»¥é€šä¿¡çŠ¶æ€
 284:d:/LiteOS_Lab/targets/STM32L431VCT6_Bossay/Hardware/IoTBox/rsrvd_interface\E53_SC2.c ****   * è¾“å…¥å‚æ•°: DevAddressï¼šI2Cè®¾å¤‡åœ°å€
 285:d:/LiteOS_Lab/targets/STM32L431VCT6_Bossay/Hardware/IoTBox/rsrvd_interface\E53_SC2.c ****   *           Trialsï¼šå°è¯•æµ‹è¯•æ¬¡æ•°
 286:d:/LiteOS_Lab/targets/STM32L431VCT6_Bossay/Hardware/IoTBox/rsrvd_interface\E53_SC2.c ****   * è¿” å› å€¼: HAL_StatusTypeDefï¼šæ“ä½œç»“æœ
 287:d:/LiteOS_Lab/targets/STM32L431VCT6_Bossay/Hardware/IoTBox/rsrvd_interface\E53_SC2.c ****   * è¯´    æ˜: æ— 
 288:d:/LiteOS_Lab/targets/STM32L431VCT6_Bossay/Hardware/IoTBox/rsrvd_interface\E53_SC2.c ****   **************************************************************/
 289:d:/LiteOS_Lab/targets/STM32L431VCT6_Bossay/Hardware/IoTBox/rsrvd_interface\E53_SC2.c **** HAL_StatusTypeDef I2C_MPU6050_IsDeviceReady(uint16_t DevAddress, uint32_t Trials)
 290:d:/LiteOS_Lab/targets/STM32L431VCT6_Bossay/Hardware/IoTBox/rsrvd_interface\E53_SC2.c **** { 
 1145              		.loc 1 290 1
 1146              		.cfi_startproc
 1147              		@ args = 0, pretend = 0, frame = 8
 1148              		@ frame_needed = 1, uses_anonymous_args = 0
 1149 0000 80B5     		push	{r7, lr}
 1150              	.LCFI68:
 1151              		.cfi_def_cfa_offset 8
 1152              		.cfi_offset 7, -8
 1153              		.cfi_offset 14, -4
ARM GAS  C:\Users\ADMINI~1\AppData\Local\Temp\cc8zcKRS.s 			page 26


 1154 0002 82B0     		sub	sp, sp, #8
 1155              	.LCFI69:
 1156              		.cfi_def_cfa_offset 16
 1157 0004 00AF     		add	r7, sp, #0
 1158              	.LCFI70:
 1159              		.cfi_def_cfa_register 7
 1160 0006 0346     		mov	r3, r0
 1161 0008 3960     		str	r1, [r7]
 1162 000a FB80     		strh	r3, [r7, #6]	@ movhi
 291:d:/LiteOS_Lab/targets/STM32L431VCT6_Bossay/Hardware/IoTBox/rsrvd_interface\E53_SC2.c ****   return (HAL_I2C_IsDeviceReady(&hi2c3, DevAddress, Trials, I2cxTimeout));
 1163              		.loc 1 291 11
 1164 000c 054B     		ldr	r3, .L48
 1165 000e 1B68     		ldr	r3, [r3]
 1166 0010 F988     		ldrh	r1, [r7, #6]
 1167 0012 3A68     		ldr	r2, [r7]
 1168 0014 0448     		ldr	r0, .L48+4
 1169 0016 FFF7FEFF 		bl	HAL_I2C_IsDeviceReady
 1170 001a 0346     		mov	r3, r0
 292:d:/LiteOS_Lab/targets/STM32L431VCT6_Bossay/Hardware/IoTBox/rsrvd_interface\E53_SC2.c **** }
 1171              		.loc 1 292 1
 1172 001c 1846     		mov	r0, r3
 1173 001e 0837     		adds	r7, r7, #8
 1174              	.LCFI71:
 1175              		.cfi_def_cfa_offset 8
 1176 0020 BD46     		mov	sp, r7
 1177              	.LCFI72:
 1178              		.cfi_def_cfa_register 13
 1179              		@ sp needed
 1180 0022 80BD     		pop	{r7, pc}
 1181              	.L49:
 1182              		.align	2
 1183              	.L48:
 1184 0024 00000000 		.word	I2cxTimeout
 1185 0028 00000000 		.word	hi2c3
 1186              		.cfi_endproc
 1187              	.LFE303:
 1189              		.section	.text.Init_E53_SC2,"ax",%progbits
 1190              		.align	1
 1191              		.global	Init_E53_SC2
 1192              		.syntax unified
 1193              		.thumb
 1194              		.thumb_func
 1195              		.fpu fpv4-sp-d16
 1197              	Init_E53_SC2:
 1198              	.LFB304:
 293:d:/LiteOS_Lab/targets/STM32L431VCT6_Bossay/Hardware/IoTBox/rsrvd_interface\E53_SC2.c **** 
 294:d:/LiteOS_Lab/targets/STM32L431VCT6_Bossay/Hardware/IoTBox/rsrvd_interface\E53_SC2.c **** /***************************************************************
 295:d:/LiteOS_Lab/targets/STM32L431VCT6_Bossay/Hardware/IoTBox/rsrvd_interface\E53_SC2.c **** * å‡½æ•°åç§°: Init_E53_SC2
 296:d:/LiteOS_Lab/targets/STM32L431VCT6_Bossay/Hardware/IoTBox/rsrvd_interface\E53_SC2.c **** * è¯´    æ˜: åˆå§‹åŒ–Init_E53_SC2
 297:d:/LiteOS_Lab/targets/STM32L431VCT6_Bossay/Hardware/IoTBox/rsrvd_interface\E53_SC2.c **** * å‚    æ•°: æ— 
 298:d:/LiteOS_Lab/targets/STM32L431VCT6_Bossay/Hardware/IoTBox/rsrvd_interface\E53_SC2.c **** * è¿” å› å€¼: æ— 
 299:d:/LiteOS_Lab/targets/STM32L431VCT6_Bossay/Hardware/IoTBox/rsrvd_interface\E53_SC2.c **** ***************************************************************/
 300:d:/LiteOS_Lab/targets/STM32L431VCT6_Bossay/Hardware/IoTBox/rsrvd_interface\E53_SC2.c **** void Init_E53_SC2(void)
 301:d:/LiteOS_Lab/targets/STM32L431VCT6_Bossay/Hardware/IoTBox/rsrvd_interface\E53_SC2.c **** {
 1199              		.loc 1 301 1
 1200              		.cfi_startproc
 1201              		@ args = 0, pretend = 0, frame = 0
ARM GAS  C:\Users\ADMINI~1\AppData\Local\Temp\cc8zcKRS.s 			page 27


 1202              		@ frame_needed = 1, uses_anonymous_args = 0
 1203 0000 80B5     		push	{r7, lr}
 1204              	.LCFI73:
 1205              		.cfi_def_cfa_offset 8
 1206              		.cfi_offset 7, -8
 1207              		.cfi_offset 14, -4
 1208 0002 00AF     		add	r7, sp, #0
 1209              	.LCFI74:
 1210              		.cfi_def_cfa_register 7
 302:d:/LiteOS_Lab/targets/STM32L431VCT6_Bossay/Hardware/IoTBox/rsrvd_interface\E53_SC2.c ****     MX_I2C3_Init();
 1211              		.loc 1 302 5
 1212 0004 FFF7FEFF 		bl	MX_I2C3_Init
 303:d:/LiteOS_Lab/targets/STM32L431VCT6_Bossay/Hardware/IoTBox/rsrvd_interface\E53_SC2.c ****     MPU6050_Init();
 1213              		.loc 1 303 5
 1214 0008 FFF7FEFF 		bl	MPU6050_Init
 304:d:/LiteOS_Lab/targets/STM32L431VCT6_Bossay/Hardware/IoTBox/rsrvd_interface\E53_SC2.c ****      RSRV_Init_Light();
 1215              		.loc 1 304 6
 1216 000c FFF7FEFF 		bl	RSRV_Init_Light
 305:d:/LiteOS_Lab/targets/STM32L431VCT6_Bossay/Hardware/IoTBox/rsrvd_interface\E53_SC2.c **** }
 1217              		.loc 1 305 1
 1218 0010 00BF     		nop
 1219 0012 80BD     		pop	{r7, pc}
 1220              		.cfi_endproc
 1221              	.LFE304:
 1223              		.section	.text.E53_SC2_Read_Data,"ax",%progbits
 1224              		.align	1
 1225              		.global	E53_SC2_Read_Data
 1226              		.syntax unified
 1227              		.thumb
 1228              		.thumb_func
 1229              		.fpu fpv4-sp-d16
 1231              	E53_SC2_Read_Data:
 1232              	.LFB305:
 306:d:/LiteOS_Lab/targets/STM32L431VCT6_Bossay/Hardware/IoTBox/rsrvd_interface\E53_SC2.c **** /***************************************************************
 307:d:/LiteOS_Lab/targets/STM32L431VCT6_Bossay/Hardware/IoTBox/rsrvd_interface\E53_SC2.c **** * å‡½æ•°åç§°: E53_SC2_Read_Data
 308:d:/LiteOS_Lab/targets/STM32L431VCT6_Bossay/Hardware/IoTBox/rsrvd_interface\E53_SC2.c **** * è¯´    æ˜: è¯»å–æ•°æ®
 309:d:/LiteOS_Lab/targets/STM32L431VCT6_Bossay/Hardware/IoTBox/rsrvd_interface\E53_SC2.c **** * å‚    æ•°: æ— 
 310:d:/LiteOS_Lab/targets/STM32L431VCT6_Bossay/Hardware/IoTBox/rsrvd_interface\E53_SC2.c **** * è¿” å› å€¼: æ— 
 311:d:/LiteOS_Lab/targets/STM32L431VCT6_Bossay/Hardware/IoTBox/rsrvd_interface\E53_SC2.c **** ***************************************************************/
 312:d:/LiteOS_Lab/targets/STM32L431VCT6_Bossay/Hardware/IoTBox/rsrvd_interface\E53_SC2.c **** void E53_SC2_Read_Data(void)
 313:d:/LiteOS_Lab/targets/STM32L431VCT6_Bossay/Hardware/IoTBox/rsrvd_interface\E53_SC2.c **** {
 1233              		.loc 1 313 1
 1234              		.cfi_startproc
 1235              		@ args = 0, pretend = 0, frame = 16
 1236              		@ frame_needed = 1, uses_anonymous_args = 0
 1237 0000 80B5     		push	{r7, lr}
 1238              	.LCFI75:
 1239              		.cfi_def_cfa_offset 8
 1240              		.cfi_offset 7, -8
 1241              		.cfi_offset 14, -4
 1242 0002 84B0     		sub	sp, sp, #16
 1243              	.LCFI76:
 1244              		.cfi_def_cfa_offset 24
 1245 0004 00AF     		add	r7, sp, #0
 1246              	.LCFI77:
 1247              		.cfi_def_cfa_register 7
 314:d:/LiteOS_Lab/targets/STM32L431VCT6_Bossay/Hardware/IoTBox/rsrvd_interface\E53_SC2.c **** 	short  Accel[3];
ARM GAS  C:\Users\ADMINI~1\AppData\Local\Temp\cc8zcKRS.s 			page 28


 315:d:/LiteOS_Lab/targets/STM32L431VCT6_Bossay/Hardware/IoTBox/rsrvd_interface\E53_SC2.c **** 	short  Temp;
 316:d:/LiteOS_Lab/targets/STM32L431VCT6_Bossay/Hardware/IoTBox/rsrvd_interface\E53_SC2.c **** 	if (MPU6050ReadID() == 0)
 1248              		.loc 1 316 6
 1249 0006 FFF7FEFF 		bl	MPU6050ReadID
 1250 000a 0346     		mov	r3, r0
 1251              		.loc 1 316 5
 1252 000c 002B     		cmp	r3, #0
 1253 000e 00D1     		bne	.L52
 1254              	.L53:
 317:d:/LiteOS_Lab/targets/STM32L431VCT6_Bossay/Hardware/IoTBox/rsrvd_interface\E53_SC2.c **** 	{	
 318:d:/LiteOS_Lab/targets/STM32L431VCT6_Bossay/Hardware/IoTBox/rsrvd_interface\E53_SC2.c **** 	  while(1);
 1255              		.loc 1 318 9 discriminator 1
 1256 0010 FEE7     		b	.L53
 1257              	.L52:
 319:d:/LiteOS_Lab/targets/STM32L431VCT6_Bossay/Hardware/IoTBox/rsrvd_interface\E53_SC2.c ****   }
 320:d:/LiteOS_Lab/targets/STM32L431VCT6_Bossay/Hardware/IoTBox/rsrvd_interface\E53_SC2.c ****       MPU6050ReadAcc(Accel);			
 1258              		.loc 1 320 7
 1259 0012 07F10803 		add	r3, r7, #8
 1260 0016 1846     		mov	r0, r3
 1261 0018 FFF7FEFF 		bl	MPU6050ReadAcc
 321:d:/LiteOS_Lab/targets/STM32L431VCT6_Bossay/Hardware/IoTBox/rsrvd_interface\E53_SC2.c ****       MPU6050_ReturnTemp(&Temp);
 1262              		.loc 1 321 7
 1263 001c BB1D     		adds	r3, r7, #6
 1264 001e 1846     		mov	r0, r3
 1265 0020 FFF7FEFF 		bl	MPU6050_ReturnTemp
 322:d:/LiteOS_Lab/targets/STM32L431VCT6_Bossay/Hardware/IoTBox/rsrvd_interface\E53_SC2.c ****       E53_SC2_Data.Temperature = Temp;
 1266              		.loc 1 322 32
 1267 0024 B7F90620 		ldrsh	r2, [r7, #6]
 1268 0028 0A4B     		ldr	r3, .L54
 1269 002a 1A80     		strh	r2, [r3]	@ movhi
 323:d:/LiteOS_Lab/targets/STM32L431VCT6_Bossay/Hardware/IoTBox/rsrvd_interface\E53_SC2.c ****       E53_SC2_Data.Accel[0] = Accel[0];
 1270              		.loc 1 323 36
 1271 002c B7F90820 		ldrsh	r2, [r7, #8]
 1272              		.loc 1 323 29
 1273 0030 084B     		ldr	r3, .L54
 1274 0032 5A80     		strh	r2, [r3, #2]	@ movhi
 324:d:/LiteOS_Lab/targets/STM32L431VCT6_Bossay/Hardware/IoTBox/rsrvd_interface\E53_SC2.c ****       E53_SC2_Data.Accel[1] = Accel[1];
 1275              		.loc 1 324 36
 1276 0034 B7F90A20 		ldrsh	r2, [r7, #10]
 1277              		.loc 1 324 29
 1278 0038 064B     		ldr	r3, .L54
 1279 003a 9A80     		strh	r2, [r3, #4]	@ movhi
 325:d:/LiteOS_Lab/targets/STM32L431VCT6_Bossay/Hardware/IoTBox/rsrvd_interface\E53_SC2.c ****       E53_SC2_Data.Accel[2] = Accel[2];
 1280              		.loc 1 325 36
 1281 003c B7F90C20 		ldrsh	r2, [r7, #12]
 1282              		.loc 1 325 29
 1283 0040 044B     		ldr	r3, .L54
 1284 0042 DA80     		strh	r2, [r3, #6]	@ movhi
 326:d:/LiteOS_Lab/targets/STM32L431VCT6_Bossay/Hardware/IoTBox/rsrvd_interface\E53_SC2.c **** 			HAL_Delay(500);
 1285              		.loc 1 326 4
 1286 0044 4FF4FA70 		mov	r0, #500
 1287 0048 FFF7FEFF 		bl	HAL_Delay
 327:d:/LiteOS_Lab/targets/STM32L431VCT6_Bossay/Hardware/IoTBox/rsrvd_interface\E53_SC2.c **** }
 1288              		.loc 1 327 1
 1289 004c 00BF     		nop
 1290 004e 1037     		adds	r7, r7, #16
 1291              	.LCFI78:
ARM GAS  C:\Users\ADMINI~1\AppData\Local\Temp\cc8zcKRS.s 			page 29


 1292              		.cfi_def_cfa_offset 8
 1293 0050 BD46     		mov	sp, r7
 1294              	.LCFI79:
 1295              		.cfi_def_cfa_register 13
 1296              		@ sp needed
 1297 0052 80BD     		pop	{r7, pc}
 1298              	.L55:
 1299              		.align	2
 1300              	.L54:
 1301 0054 00000000 		.word	E53_SC2_Data
 1302              		.cfi_endproc
 1303              	.LFE305:
 1305              		.section	.text.RSRV_Init_Light,"ax",%progbits
 1306              		.align	1
 1307              		.global	RSRV_Init_Light
 1308              		.syntax unified
 1309              		.thumb
 1310              		.thumb_func
 1311              		.fpu fpv4-sp-d16
 1313              	RSRV_Init_Light:
 1314              	.LFB306:
 328:d:/LiteOS_Lab/targets/STM32L431VCT6_Bossay/Hardware/IoTBox/rsrvd_interface\E53_SC2.c **** 
 329:d:/LiteOS_Lab/targets/STM32L431VCT6_Bossay/Hardware/IoTBox/rsrvd_interface\E53_SC2.c **** /***************************************************************
 330:d:/LiteOS_Lab/targets/STM32L431VCT6_Bossay/Hardware/IoTBox/rsrvd_interface\E53_SC2.c **** * å‡½æ•°åç§°: Init_Light
 331:d:/LiteOS_Lab/targets/STM32L431VCT6_Bossay/Hardware/IoTBox/rsrvd_interface\E53_SC2.c **** * è¯´    æ˜: åˆå§‹åŒ–Init_E53_SC2çš„æç¤ºç¯
 332:d:/LiteOS_Lab/targets/STM32L431VCT6_Bossay/Hardware/IoTBox/rsrvd_interface\E53_SC2.c **** * å‚    æ•°: æ— 
 333:d:/LiteOS_Lab/targets/STM32L431VCT6_Bossay/Hardware/IoTBox/rsrvd_interface\E53_SC2.c **** * è¿” å› å€¼: æ— 
 334:d:/LiteOS_Lab/targets/STM32L431VCT6_Bossay/Hardware/IoTBox/rsrvd_interface\E53_SC2.c **** ***************************************************************/
 335:d:/LiteOS_Lab/targets/STM32L431VCT6_Bossay/Hardware/IoTBox/rsrvd_interface\E53_SC2.c **** void RSRV_Init_Light(void)
 336:d:/LiteOS_Lab/targets/STM32L431VCT6_Bossay/Hardware/IoTBox/rsrvd_interface\E53_SC2.c **** {
 1315              		.loc 1 336 1
 1316              		.cfi_startproc
 1317              		@ args = 0, pretend = 0, frame = 32
 1318              		@ frame_needed = 1, uses_anonymous_args = 0
 1319 0000 80B5     		push	{r7, lr}
 1320              	.LCFI80:
 1321              		.cfi_def_cfa_offset 8
 1322              		.cfi_offset 7, -8
 1323              		.cfi_offset 14, -4
 1324 0002 88B0     		sub	sp, sp, #32
 1325              	.LCFI81:
 1326              		.cfi_def_cfa_offset 40
 1327 0004 00AF     		add	r7, sp, #0
 1328              	.LCFI82:
 1329              		.cfi_def_cfa_register 7
 1330              	.LBB2:
 337:d:/LiteOS_Lab/targets/STM32L431VCT6_Bossay/Hardware/IoTBox/rsrvd_interface\E53_SC2.c ****     GPIO_InitTypeDef GPIO_InitStruct;
 338:d:/LiteOS_Lab/targets/STM32L431VCT6_Bossay/Hardware/IoTBox/rsrvd_interface\E53_SC2.c ****     __HAL_RCC_GPIOB_CLK_ENABLE();
 1331              		.loc 1 338 5
 1332 0006 1D4B     		ldr	r3, .L57
 1333 0008 DB6C     		ldr	r3, [r3, #76]
 1334 000a 1C4A     		ldr	r2, .L57
 1335 000c 43F00203 		orr	r3, r3, #2
 1336 0010 D364     		str	r3, [r2, #76]
 1337 0012 1A4B     		ldr	r3, .L57
 1338 0014 DB6C     		ldr	r3, [r3, #76]
 1339 0016 03F00203 		and	r3, r3, #2
ARM GAS  C:\Users\ADMINI~1\AppData\Local\Temp\cc8zcKRS.s 			page 30


 1340 001a BB60     		str	r3, [r7, #8]
 1341 001c BB68     		ldr	r3, [r7, #8]
 1342              	.LBE2:
 1343              	.LBB3:
 339:d:/LiteOS_Lab/targets/STM32L431VCT6_Bossay/Hardware/IoTBox/rsrvd_interface\E53_SC2.c ****     __HAL_RCC_GPIOD_CLK_ENABLE();
 1344              		.loc 1 339 5
 1345 001e 174B     		ldr	r3, .L57
 1346 0020 DB6C     		ldr	r3, [r3, #76]
 1347 0022 164A     		ldr	r2, .L57
 1348 0024 43F00803 		orr	r3, r3, #8
 1349 0028 D364     		str	r3, [r2, #76]
 1350 002a 144B     		ldr	r3, .L57
 1351 002c DB6C     		ldr	r3, [r3, #76]
 1352 002e 03F00803 		and	r3, r3, #8
 1353 0032 7B60     		str	r3, [r7, #4]
 1354 0034 7B68     		ldr	r3, [r7, #4]
 1355              	.LBE3:
 340:d:/LiteOS_Lab/targets/STM32L431VCT6_Bossay/Hardware/IoTBox/rsrvd_interface\E53_SC2.c ****     GPIO_InitStruct.Pin = GPIO_PIN_8;
 1356              		.loc 1 340 25
 1357 0036 4FF48073 		mov	r3, #256
 1358 003a FB60     		str	r3, [r7, #12]
 341:d:/LiteOS_Lab/targets/STM32L431VCT6_Bossay/Hardware/IoTBox/rsrvd_interface\E53_SC2.c ****     GPIO_InitStruct.Mode = GPIO_MODE_OUTPUT_PP;
 1359              		.loc 1 341 26
 1360 003c 0123     		movs	r3, #1
 1361 003e 3B61     		str	r3, [r7, #16]
 342:d:/LiteOS_Lab/targets/STM32L431VCT6_Bossay/Hardware/IoTBox/rsrvd_interface\E53_SC2.c ****     GPIO_InitStruct.Pull = GPIO_NOPULL;
 1362              		.loc 1 342 26
 1363 0040 0023     		movs	r3, #0
 1364 0042 7B61     		str	r3, [r7, #20]
 343:d:/LiteOS_Lab/targets/STM32L431VCT6_Bossay/Hardware/IoTBox/rsrvd_interface\E53_SC2.c ****     GPIO_InitStruct.Speed = GPIO_SPEED_FREQ_LOW;
 1365              		.loc 1 343 27
 1366 0044 0023     		movs	r3, #0
 1367 0046 BB61     		str	r3, [r7, #24]
 344:d:/LiteOS_Lab/targets/STM32L431VCT6_Bossay/Hardware/IoTBox/rsrvd_interface\E53_SC2.c ****     HAL_GPIO_Init(GPIOB, &GPIO_InitStruct);
 1368              		.loc 1 344 5
 1369 0048 07F10C03 		add	r3, r7, #12
 1370 004c 1946     		mov	r1, r3
 1371 004e 0C48     		ldr	r0, .L57+4
 1372 0050 FFF7FEFF 		bl	HAL_GPIO_Init
 345:d:/LiteOS_Lab/targets/STM32L431VCT6_Bossay/Hardware/IoTBox/rsrvd_interface\E53_SC2.c ****     GPIO_InitStruct.Pin = GPIO_PIN_12;
 1373              		.loc 1 345 25
 1374 0054 4FF48053 		mov	r3, #4096
 1375 0058 FB60     		str	r3, [r7, #12]
 346:d:/LiteOS_Lab/targets/STM32L431VCT6_Bossay/Hardware/IoTBox/rsrvd_interface\E53_SC2.c ****     GPIO_InitStruct.Mode = GPIO_MODE_OUTPUT_PP;
 1376              		.loc 1 346 26
 1377 005a 0123     		movs	r3, #1
 1378 005c 3B61     		str	r3, [r7, #16]
 347:d:/LiteOS_Lab/targets/STM32L431VCT6_Bossay/Hardware/IoTBox/rsrvd_interface\E53_SC2.c ****     GPIO_InitStruct.Pull = GPIO_NOPULL;
 1379              		.loc 1 347 26
 1380 005e 0023     		movs	r3, #0
 1381 0060 7B61     		str	r3, [r7, #20]
 348:d:/LiteOS_Lab/targets/STM32L431VCT6_Bossay/Hardware/IoTBox/rsrvd_interface\E53_SC2.c ****     GPIO_InitStruct.Speed = GPIO_SPEED_FREQ_LOW;
 1382              		.loc 1 348 27
 1383 0062 0023     		movs	r3, #0
 1384 0064 BB61     		str	r3, [r7, #24]
 349:d:/LiteOS_Lab/targets/STM32L431VCT6_Bossay/Hardware/IoTBox/rsrvd_interface\E53_SC2.c ****     HAL_GPIO_Init(GPIOD, &GPIO_InitStruct);
 1385              		.loc 1 349 5
ARM GAS  C:\Users\ADMINI~1\AppData\Local\Temp\cc8zcKRS.s 			page 31


 1386 0066 07F10C03 		add	r3, r7, #12
 1387 006a 1946     		mov	r1, r3
 1388 006c 0548     		ldr	r0, .L57+8
 1389 006e FFF7FEFF 		bl	HAL_GPIO_Init
 350:d:/LiteOS_Lab/targets/STM32L431VCT6_Bossay/Hardware/IoTBox/rsrvd_interface\E53_SC2.c **** }
 1390              		.loc 1 350 1
 1391 0072 00BF     		nop
 1392 0074 2037     		adds	r7, r7, #32
 1393              	.LCFI83:
 1394              		.cfi_def_cfa_offset 8
 1395 0076 BD46     		mov	sp, r7
 1396              	.LCFI84:
 1397              		.cfi_def_cfa_register 13
 1398              		@ sp needed
 1399 0078 80BD     		pop	{r7, pc}
 1400              	.L58:
 1401 007a 00BF     		.align	2
 1402              	.L57:
 1403 007c 00100240 		.word	1073876992
 1404 0080 00040048 		.word	1207960576
 1405 0084 000C0048 		.word	1207962624
 1406              		.cfi_endproc
 1407              	.LFE306:
 1409              		.text
 1410              	.Letext0:
 1411              		.file 2 "c:\\users\\administrator\\.huawei-liteos-studio\\tools\\arm-none-eabi\\arm-none-eabi\\inc
 1412              		.file 3 "c:\\users\\administrator\\.huawei-liteos-studio\\tools\\arm-none-eabi\\arm-none-eabi\\inc
 1413              		.file 4 "c:\\users\\administrator\\.huawei-liteos-studio\\tools\\arm-none-eabi\\arm-none-eabi\\inc
 1414              		.file 5 "c:\\users\\administrator\\.huawei-liteos-studio\\tools\\arm-none-eabi\\lib\\gcc\\arm-none
 1415              		.file 6 "c:\\users\\administrator\\.huawei-liteos-studio\\tools\\arm-none-eabi\\arm-none-eabi\\inc
 1416              		.file 7 "d:/LiteOS_Lab/iot_link/os/liteos/include/los_typedef.h"
 1417              		.file 8 "c:\\users\\administrator\\.huawei-liteos-studio\\tools\\arm-none-eabi\\arm-none-eabi\\inc
 1418              		.file 9 "d:/LiteOS_Lab/iot_link/os/liteos/arch/arm/common/cmsis/core_cm4.h"
 1419              		.file 10 "d:/LiteOS_Lab/targets/STM32L431VCT6_Bossay/Inc/system_stm32l4xx.h"
 1420              		.file 11 "d:/LiteOS_Lab/targets/STM32L431VCT6_Bossay/Inc/stm32l431xx.h"
 1421              		.file 12 "d:/LiteOS_Lab/iot_link/os/liteos/include/los_config.h"
 1422              		.file 13 "d:/LiteOS_Lab/iot_link/os/liteos/include/los_err.h"
 1423              		.file 14 "d:/LiteOS_Lab/iot_link/os/liteos/arch/arm/arm-m/include/los_hwi.h"
 1424              		.file 15 "d:/LiteOS_Lab/drivers/third_party/ST/STM32L4xx_HAL_Driver/Inc/stm32l4xx_hal_def.h"
 1425              		.file 16 "d:/LiteOS_Lab/drivers/third_party/ST/STM32L4xx_HAL_Driver/Inc/stm32l4xx_hal_gpio.h"
 1426              		.file 17 "d:/LiteOS_Lab/drivers/third_party/ST/STM32L4xx_HAL_Driver/Inc/stm32l4xx_hal_dma.h"
 1427              		.file 18 "d:/LiteOS_Lab/drivers/third_party/ST/STM32L4xx_HAL_Driver/Inc/stm32l4xx_hal_i2c.h"
 1428              		.file 19 "d:/LiteOS_Lab/targets/STM32L431VCT6_Bossay/Inc/i2c.h"
 1429              		.file 20 "d:/LiteOS_Lab/targets/STM32L431VCT6_Bossay/Hardware/IoTBox/rsrvd_interface/E53_SC2.h"
ARM GAS  C:\Users\ADMINI~1\AppData\Local\Temp\cc8zcKRS.s 			page 32

