GAS LISTING /tmp/ccHEyQkD.s 			page 1


   1              		.file	"main.c"
   2              		.text
   3              	.Ltext0:
   4              		.section	.bss.g_app_cb,"aw",@nobits
   5              		.align 16
   8              	g_app_cb:
   9 0000 00000000 		.zero	24
   9      00000000 
   9      00000000 
   9      00000000 
   9      00000000 
  10              		.section	.rodata
  11              	.LC0:
  12 0000 41677269 		.string	"Agriculture"
  12      63756C74 
  12      75726500 
  13              	.LC1:
  14 000c 54656D70 		.string	"Temperature"
  14      65726174 
  14      75726500 
  15              	.LC2:
  16 0018 48756D69 		.string	"Humidity"
  16      64697479 
  16      00
  17              	.LC3:
  18 0021 4C756D69 		.string	"Luminance"
  18      6E616E63 
  18      6500
  19              	.LC4:
  20 002b 4C696768 		.string	"LightStatus"
  20      74537461 
  20      74757300 
  21              	.LC5:
  22 0037 4F4E00   		.string	"ON"
  23              	.LC6:
  24 003a 4F464600 		.string	"OFF"
  25              	.LC7:
  26 003e 4D6F746F 		.string	"MotorStatus"
  26      72537461 
  26      74757300 
  27              		.section	.text.deal_report_msg,"ax",@progbits
  29              	deal_report_msg:
  30              	.LFB6:
  31              		.file 1 "/home/xingli/share/LiteOS_Lab/build/linux_mqtt_demo/src/main.c"
   1:/home/xingli/share/LiteOS_Lab/build/linux_mqtt_demo/src/main.c **** /*----------------------------------------------------------------------------
   2:/home/xingli/share/LiteOS_Lab/build/linux_mqtt_demo/src/main.c ****  * Copyright (c) <2016-2018>, <Huawei Technologies Co., Ltd>
   3:/home/xingli/share/LiteOS_Lab/build/linux_mqtt_demo/src/main.c ****  * All rights reserved.
   4:/home/xingli/share/LiteOS_Lab/build/linux_mqtt_demo/src/main.c ****  * Redistribution and use in source and binary forms, with or without modification,
   5:/home/xingli/share/LiteOS_Lab/build/linux_mqtt_demo/src/main.c ****  * are permitted provided that the following conditions are met:
   6:/home/xingli/share/LiteOS_Lab/build/linux_mqtt_demo/src/main.c ****  * 1. Redistributions of source code must retain the above copyright notice, this list of
   7:/home/xingli/share/LiteOS_Lab/build/linux_mqtt_demo/src/main.c ****  * conditions and the following disclaimer.
   8:/home/xingli/share/LiteOS_Lab/build/linux_mqtt_demo/src/main.c ****  * 2. Redistributions in binary form must reproduce the above copyright notice, this list
   9:/home/xingli/share/LiteOS_Lab/build/linux_mqtt_demo/src/main.c ****  * of conditions and the following disclaimer in the documentation and/or other materials
  10:/home/xingli/share/LiteOS_Lab/build/linux_mqtt_demo/src/main.c ****  * provided with the distribution.
  11:/home/xingli/share/LiteOS_Lab/build/linux_mqtt_demo/src/main.c ****  * 3. Neither the name of the copyright holder nor the names of its contributors may be used
  12:/home/xingli/share/LiteOS_Lab/build/linux_mqtt_demo/src/main.c ****  * to endorse or promote products derived from this software without specific prior written
  13:/home/xingli/share/LiteOS_Lab/build/linux_mqtt_demo/src/main.c ****  * permission.
GAS LISTING /tmp/ccHEyQkD.s 			page 2


  14:/home/xingli/share/LiteOS_Lab/build/linux_mqtt_demo/src/main.c ****  * THIS SOFTWARE IS PROVIDED BY THE COPYRIGHT HOLDERS AND CONTRIBUTORS
  15:/home/xingli/share/LiteOS_Lab/build/linux_mqtt_demo/src/main.c ****  * "AS IS" AND ANY EXPRESS OR IMPLIED WARRANTIES, INCLUDING, BUT NOT LIMITED TO,
  16:/home/xingli/share/LiteOS_Lab/build/linux_mqtt_demo/src/main.c ****  * THE IMPLIED WARRANTIES OF MERCHANTABILITY AND FITNESS FOR A PARTICULAR
  17:/home/xingli/share/LiteOS_Lab/build/linux_mqtt_demo/src/main.c ****  * PURPOSE ARE DISCLAIMED. IN NO EVENT SHALL THE COPYRIGHT HOLDER OR
  18:/home/xingli/share/LiteOS_Lab/build/linux_mqtt_demo/src/main.c ****  * CONTRIBUTORS BE LIABLE FOR ANY DIRECT, INDIRECT, INCIDENTAL, SPECIAL,
  19:/home/xingli/share/LiteOS_Lab/build/linux_mqtt_demo/src/main.c ****  * EXEMPLARY, OR CONSEQUENTIAL DAMAGES (INCLUDING, BUT NOT LIMITED TO,
  20:/home/xingli/share/LiteOS_Lab/build/linux_mqtt_demo/src/main.c ****  * PROCUREMENT OF SUBSTITUTE GOODS OR SERVICES; LOSS OF USE, DATA, OR PROFITS;
  21:/home/xingli/share/LiteOS_Lab/build/linux_mqtt_demo/src/main.c ****  * OR BUSINESS INTERRUPTION) HOWEVER CAUSED AND ON ANY THEORY OF LIABILITY,
  22:/home/xingli/share/LiteOS_Lab/build/linux_mqtt_demo/src/main.c ****  * WHETHER IN CONTRACT, STRICT LIABILITY, OR TORT (INCLUDING NEGLIGENCE OR
  23:/home/xingli/share/LiteOS_Lab/build/linux_mqtt_demo/src/main.c ****  * OTHERWISE) ARISING IN ANY WAY OUT OF THE USE OF THIS SOFTWARE, EVEN IF
  24:/home/xingli/share/LiteOS_Lab/build/linux_mqtt_demo/src/main.c ****  * ADVISED OF THE POSSIBILITY OF SUCH DAMAGE.
  25:/home/xingli/share/LiteOS_Lab/build/linux_mqtt_demo/src/main.c ****  *---------------------------------------------------------------------------*/
  26:/home/xingli/share/LiteOS_Lab/build/linux_mqtt_demo/src/main.c **** /*----------------------------------------------------------------------------
  27:/home/xingli/share/LiteOS_Lab/build/linux_mqtt_demo/src/main.c ****  * Notice of Export Control Law
  28:/home/xingli/share/LiteOS_Lab/build/linux_mqtt_demo/src/main.c ****  * ===============================================
  29:/home/xingli/share/LiteOS_Lab/build/linux_mqtt_demo/src/main.c ****  * Huawei LiteOS may be subject to applicable export control laws and regulations, which might
  30:/home/xingli/share/LiteOS_Lab/build/linux_mqtt_demo/src/main.c ****  * include those applicable to Huawei LiteOS of U.S. and the country in which you are located.
  31:/home/xingli/share/LiteOS_Lab/build/linux_mqtt_demo/src/main.c ****  * Import, export and usage of Huawei LiteOS in any manner by you shall be in compliance with such
  32:/home/xingli/share/LiteOS_Lab/build/linux_mqtt_demo/src/main.c ****  * applicable export control laws and regulations.
  33:/home/xingli/share/LiteOS_Lab/build/linux_mqtt_demo/src/main.c ****  *---------------------------------------------------------------------------*/
  34:/home/xingli/share/LiteOS_Lab/build/linux_mqtt_demo/src/main.c **** 
  35:/home/xingli/share/LiteOS_Lab/build/linux_mqtt_demo/src/main.c **** #include <stdio.h>
  36:/home/xingli/share/LiteOS_Lab/build/linux_mqtt_demo/src/main.c **** #include <stdlib.h>
  37:/home/xingli/share/LiteOS_Lab/build/linux_mqtt_demo/src/main.c **** #include <string.h>
  38:/home/xingli/share/LiteOS_Lab/build/linux_mqtt_demo/src/main.c **** #include <unistd.h>
  39:/home/xingli/share/LiteOS_Lab/build/linux_mqtt_demo/src/main.c **** 
  40:/home/xingli/share/LiteOS_Lab/build/linux_mqtt_demo/src/main.c **** #include "cJSON.h"
  41:/home/xingli/share/LiteOS_Lab/build/linux_mqtt_demo/src/main.c **** #include "dtls_al.h"
  42:/home/xingli/share/LiteOS_Lab/build/linux_mqtt_demo/src/main.c **** #include "mqtt_al.h"
  43:/home/xingli/share/LiteOS_Lab/build/linux_mqtt_demo/src/main.c **** #include "oc_mqtt_al.h"
  44:/home/xingli/share/LiteOS_Lab/build/linux_mqtt_demo/src/main.c **** #include "oc_mqtt_profile.h"
  45:/home/xingli/share/LiteOS_Lab/build/linux_mqtt_demo/src/main.c **** #include "queue.h"
  46:/home/xingli/share/LiteOS_Lab/build/linux_mqtt_demo/src/main.c **** #include "iot_config.h"
  47:/home/xingli/share/LiteOS_Lab/build/linux_mqtt_demo/src/main.c **** #include "securec.h"
  48:/home/xingli/share/LiteOS_Lab/build/linux_mqtt_demo/src/main.c **** 
  49:/home/xingli/share/LiteOS_Lab/build/linux_mqtt_demo/src/main.c **** //#define CONFIG_OC_MQTTV5_DEMO_TLS 1
  50:/home/xingli/share/LiteOS_Lab/build/linux_mqtt_demo/src/main.c **** 
  51:/home/xingli/share/LiteOS_Lab/build/linux_mqtt_demo/src/main.c **** #ifdef CONFIG_OC_MQTTV5_BS
  52:/home/xingli/share/LiteOS_Lab/build/linux_mqtt_demo/src/main.c **** #define CN_SERVER_IPV4         "iot-bs.cn-north-4.myhuaweicloud.com"
  53:/home/xingli/share/LiteOS_Lab/build/linux_mqtt_demo/src/main.c **** //#define CN_SERVER_IPV4         "119.3.251.30"
  54:/home/xingli/share/LiteOS_Lab/build/linux_mqtt_demo/src/main.c **** #define CN_BOOT_MODE            1
  55:/home/xingli/share/LiteOS_Lab/build/linux_mqtt_demo/src/main.c **** #else
  56:/home/xingli/share/LiteOS_Lab/build/linux_mqtt_demo/src/main.c **** #define CN_SERVER_IPV4       "iot-mqtts.cn-north-4.myhuaweicloud.com"
  57:/home/xingli/share/LiteOS_Lab/build/linux_mqtt_demo/src/main.c **** //#define CN_SERVER_IPV4         "121.36.42.100"
  58:/home/xingli/share/LiteOS_Lab/build/linux_mqtt_demo/src/main.c **** #define CN_BOOT_MODE            0
  59:/home/xingli/share/LiteOS_Lab/build/linux_mqtt_demo/src/main.c **** #endif
  60:/home/xingli/share/LiteOS_Lab/build/linux_mqtt_demo/src/main.c **** 
  61:/home/xingli/share/LiteOS_Lab/build/linux_mqtt_demo/src/main.c **** #ifdef CONFIG_OC_MQTTV5_DEMO_TLS
  62:/home/xingli/share/LiteOS_Lab/build/linux_mqtt_demo/src/main.c **** #define CN_SERVER_PORT "8883"
  63:/home/xingli/share/LiteOS_Lab/build/linux_mqtt_demo/src/main.c **** #define CN_SECURITY_TYPE EN_DTLS_AL_SECURITY_TYPE_CERT
  64:/home/xingli/share/LiteOS_Lab/build/linux_mqtt_demo/src/main.c **** 
  65:/home/xingli/share/LiteOS_Lab/build/linux_mqtt_demo/src/main.c **** ///< server key
  66:/home/xingli/share/LiteOS_Lab/build/linux_mqtt_demo/src/main.c **** static const char s_server_ca[] =
  67:/home/xingli/share/LiteOS_Lab/build/linux_mqtt_demo/src/main.c **** " -----BEGIN CERTIFICATE-----\r\n"
  68:/home/xingli/share/LiteOS_Lab/build/linux_mqtt_demo/src/main.c **** "MIIDrzCCApegAwIBAgIQCDvgVpBCRrGhdWrJWZHHSjANBgkqhkiG9w0BAQUFADBh\r\n"
  69:/home/xingli/share/LiteOS_Lab/build/linux_mqtt_demo/src/main.c **** "MQswCQYDVQQGEwJVUzEVMBMGA1UEChMMRGlnaUNlcnQgSW5jMRkwFwYDVQQLExB3\r\n"
  70:/home/xingli/share/LiteOS_Lab/build/linux_mqtt_demo/src/main.c **** "d3cuZGlnaWNlcnQuY29tMSAwHgYDVQQDExdEaWdpQ2VydCBHbG9iYWwgUm9vdCBD\r\n"
GAS LISTING /tmp/ccHEyQkD.s 			page 3


  71:/home/xingli/share/LiteOS_Lab/build/linux_mqtt_demo/src/main.c **** "QTAeFw0wNjExMTAwMDAwMDBaFw0zMTExMTAwMDAwMDBaMGExCzAJBgNVBAYTAlVT\r\n"
  72:/home/xingli/share/LiteOS_Lab/build/linux_mqtt_demo/src/main.c **** "MRUwEwYDVQQKEwxEaWdpQ2VydCBJbmMxGTAXBgNVBAsTEHd3dy5kaWdpY2VydC5j\r\n"
  73:/home/xingli/share/LiteOS_Lab/build/linux_mqtt_demo/src/main.c **** "b20xIDAeBgNVBAMTF0RpZ2lDZXJ0IEdsb2JhbCBSb290IENBMIIBIjANBgkqhkiG\r\n"
  74:/home/xingli/share/LiteOS_Lab/build/linux_mqtt_demo/src/main.c **** "9w0BAQEFAAOCAQ8AMIIBCgKCAQEA4jvhEXLeqKTTo1eqUKKPC3eQyaKl7hLOllsB\r\n"
  75:/home/xingli/share/LiteOS_Lab/build/linux_mqtt_demo/src/main.c **** "CSDMAZOnTjC3U/dDxGkAV53ijSLdhwZAAIEJzs4bg7/fzTtxRuLWZscFs3YnFo97\r\n"
  76:/home/xingli/share/LiteOS_Lab/build/linux_mqtt_demo/src/main.c **** "nh6Vfe63SKMI2tavegw5BmV/Sl0fvBf4q77uKNd0f3p4mVmFaG5cIzJLv07A6Fpt\r\n"
  77:/home/xingli/share/LiteOS_Lab/build/linux_mqtt_demo/src/main.c **** "43C/dxC//AH2hdmoRBBYMql1GNXRor5H4idq9Joz+EkIYIvUX7Q6hL+hqkpMfT7P\r\n"
  78:/home/xingli/share/LiteOS_Lab/build/linux_mqtt_demo/src/main.c **** "T19sdl6gSzeRntwi5m3OFBqOasv+zbMUZBfHWymeMr/y7vrTC0LUq7dBMtoM1O/4\r\n"
  79:/home/xingli/share/LiteOS_Lab/build/linux_mqtt_demo/src/main.c **** "gdW7jVg/tRvoSSiicNoxBN33shbyTApOB6jtSj1etX+jkMOvJwIDAQABo2MwYTAO\r\n"
  80:/home/xingli/share/LiteOS_Lab/build/linux_mqtt_demo/src/main.c **** "BgNVHQ8BAf8EBAMCAYYwDwYDVR0TAQH/BAUwAwEB/zAdBgNVHQ4EFgQUA95QNVbR\r\n"
  81:/home/xingli/share/LiteOS_Lab/build/linux_mqtt_demo/src/main.c **** "TLtm8KPiGxvDl7I90VUwHwYDVR0jBBgwFoAUA95QNVbRTLtm8KPiGxvDl7I90VUw\r\n"
  82:/home/xingli/share/LiteOS_Lab/build/linux_mqtt_demo/src/main.c **** "DQYJKoZIhvcNAQEFBQADggEBAMucN6pIExIK+t1EnE9SsPTfrgT1eXkIoyQY/Esr\r\n"
  83:/home/xingli/share/LiteOS_Lab/build/linux_mqtt_demo/src/main.c **** "hMAtudXH/vTBH1jLuG2cenTnmCmrEbXjcKChzUyImZOMkXDiqw8cvpOp/2PV5Adg\r\n"
  84:/home/xingli/share/LiteOS_Lab/build/linux_mqtt_demo/src/main.c **** "06O/nVsJ8dWO41P0jmP6P6fbtGbfYmbW0W5BjfIttep3Sp+dWOIrWcBAI+0tKIJF\r\n"
  85:/home/xingli/share/LiteOS_Lab/build/linux_mqtt_demo/src/main.c **** "PnlUkiaY4IBIqDfv8NZ5YBberOgOzW6sRBc4L0na4UU+Krk2U886UAb3LujEV0ls\r\n"
  86:/home/xingli/share/LiteOS_Lab/build/linux_mqtt_demo/src/main.c **** "YSEY1QSteDwsOoBrp+uvFRTp2InBuThs4pFsiv9kuXclVzDAGySj4dzp30d8tbQk\r\n"
  87:/home/xingli/share/LiteOS_Lab/build/linux_mqtt_demo/src/main.c **** "CAUw7C29C79Fv1C5qfPrmAESrciIxpg0X40KPMbp1ZWVbd4=\r\n"
  88:/home/xingli/share/LiteOS_Lab/build/linux_mqtt_demo/src/main.c **** "-----END CERTIFICATE-----\r\n";
  89:/home/xingli/share/LiteOS_Lab/build/linux_mqtt_demo/src/main.c **** 
  90:/home/xingli/share/LiteOS_Lab/build/linux_mqtt_demo/src/main.c **** #ifdef CONFIG_OC_MQTTV5_TLS_BIDIRECTION
  91:/home/xingli/share/LiteOS_Lab/build/linux_mqtt_demo/src/main.c **** 
  92:/home/xingli/share/LiteOS_Lab/build/linux_mqtt_demo/src/main.c **** ///< the client use the cert mode  SHA-256
  93:/home/xingli/share/LiteOS_Lab/build/linux_mqtt_demo/src/main.c **** //72DC0E75D88CEC38A025E9C48C79D222F608B039D080BCEFC0007DAD1AFFAD00
  94:/home/xingli/share/LiteOS_Lab/build/linux_mqtt_demo/src/main.c **** //72dc0e7
  95:/home/xingli/share/LiteOS_Lab/build/linux_mqtt_demo/src/main.c **** ///< bidirection  mqtt mode
  96:/home/xingli/share/LiteOS_Lab/build/linux_mqtt_demo/src/main.c **** static const char s_client_ca[] = \
  97:/home/xingli/share/LiteOS_Lab/build/linux_mqtt_demo/src/main.c **** "-----BEGIN CERTIFICATE-----\r\n"
  98:/home/xingli/share/LiteOS_Lab/build/linux_mqtt_demo/src/main.c **** "MIICuDCCAaACCQDAnCoP3W+otTANBgkqhkiG9w0BAQsFADAdMQswCQYDVQQGEwJD\r\n"
  99:/home/xingli/share/LiteOS_Lab/build/linux_mqtt_demo/src/main.c **** "QTEOMAwGA1UEAwwFTVkgQ0EwHhcNMjAwMjE3MTEyNTA2WhcNMjEwMjExMTEyNTA2\r\n"
 100:/home/xingli/share/LiteOS_Lab/build/linux_mqtt_demo/src/main.c **** "WjAfMQswCQYDVQQGEwJDTjEQMA4GA1UEAwwHQ0xJRU5UMjCCASIwDQYJKoZIhvcN\r\n"
 101:/home/xingli/share/LiteOS_Lab/build/linux_mqtt_demo/src/main.c **** "AQEBBQADggEPADCCAQoCggEBALKOOfeq1QQnwLNsMboqr47ClO24sTd6oLiSjGYe\r\n"
 102:/home/xingli/share/LiteOS_Lab/build/linux_mqtt_demo/src/main.c **** "zb7IECnjiEg+sILEH5avi6uKdCR8QZHskIWdQbNqi2h0E01MTxuneTCnFaAdYh2z\r\n"
 103:/home/xingli/share/LiteOS_Lab/build/linux_mqtt_demo/src/main.c **** "B8n4IUsGr1gyCayfKCQG8ElDElBkB2JMce/IEuxJvnFdhXy6c9zhj8iU+fusD9hm\r\n"
 104:/home/xingli/share/LiteOS_Lab/build/linux_mqtt_demo/src/main.c **** "jvx34zd6Sn2uRl8wdI89pVwkESKyx6J5za/dBWCS0hxvOtDEY2gJA9av8BNYjTxQ\r\n"
 105:/home/xingli/share/LiteOS_Lab/build/linux_mqtt_demo/src/main.c **** "tRlwnxGzgaza8aA9LMbnRmv1bML98w4NgNHkVGUtw1eQso0unHnyEF1WhqEu0pLk\r\n"
 106:/home/xingli/share/LiteOS_Lab/build/linux_mqtt_demo/src/main.c **** "BJQbdO4s4ajQ1rOr7niVnCT99KtzJuWm3oymNdDT6BHsnn0CAwEAATANBgkqhkiG\r\n"
 107:/home/xingli/share/LiteOS_Lab/build/linux_mqtt_demo/src/main.c **** "9w0BAQsFAAOCAQEAPayFtS8du8D+mPdRU96vFqVpDx6oksGhrUIO+3GZ4ruuHjtf\r\n"
 108:/home/xingli/share/LiteOS_Lab/build/linux_mqtt_demo/src/main.c **** "A764y6zD1/LxQVw15xN44G+AqUwEi/BZszQ+5rSitwqoZFciKMblaqd0ZJSG6G2d\r\n"
 109:/home/xingli/share/LiteOS_Lab/build/linux_mqtt_demo/src/main.c **** "Cqyl87cTL6Tlgpa5cBka4ksaMs2OVU9x1aaNnejrTbX2PvZO7o/pVVimQE8Yh+1J\r\n"
 110:/home/xingli/share/LiteOS_Lab/build/linux_mqtt_demo/src/main.c **** "k2D26hg9UoWN4Z3/9LdGC3y4dsmtuQS+Cye61ZfHtT3/XjTRjl9/c+xKtVsQpE6g\r\n"
 111:/home/xingli/share/LiteOS_Lab/build/linux_mqtt_demo/src/main.c **** "dpaGVxWpFUCpGe4POrNHjOOAXaFiCHP7o9Kab1UnxuFVKHCtNT9wdJ7v8puCliwB\r\n"
 112:/home/xingli/share/LiteOS_Lab/build/linux_mqtt_demo/src/main.c **** "t40h9oegMyUYL/VG+14wOYgEPuCeGqqilht+4w==\r\n"
 113:/home/xingli/share/LiteOS_Lab/build/linux_mqtt_demo/src/main.c **** "-----END CERTIFICATE-----\r\n";
 114:/home/xingli/share/LiteOS_Lab/build/linux_mqtt_demo/src/main.c **** static const char s_client_pk[]= \
 115:/home/xingli/share/LiteOS_Lab/build/linux_mqtt_demo/src/main.c **** "-----BEGIN PRIVATE KEY-----\r\n"
 116:/home/xingli/share/LiteOS_Lab/build/linux_mqtt_demo/src/main.c **** "MIIEvAIBADANBgkqhkiG9w0BAQEFAASCBKYwggSiAgEAAoIBAQCyjjn3qtUEJ8Cz\r\n"
 117:/home/xingli/share/LiteOS_Lab/build/linux_mqtt_demo/src/main.c **** "bDG6Kq+OwpTtuLE3eqC4koxmHs2+yBAp44hIPrCCxB+Wr4urinQkfEGR7JCFnUGz\r\n"
 118:/home/xingli/share/LiteOS_Lab/build/linux_mqtt_demo/src/main.c **** "aotodBNNTE8bp3kwpxWgHWIdswfJ+CFLBq9YMgmsnygkBvBJQxJQZAdiTHHvyBLs\r\n"
 119:/home/xingli/share/LiteOS_Lab/build/linux_mqtt_demo/src/main.c **** "Sb5xXYV8unPc4Y/IlPn7rA/YZo78d+M3ekp9rkZfMHSPPaVcJBEisseiec2v3QVg\r\n"
 120:/home/xingli/share/LiteOS_Lab/build/linux_mqtt_demo/src/main.c **** "ktIcbzrQxGNoCQPWr/ATWI08ULUZcJ8Rs4Gs2vGgPSzG50Zr9WzC/fMODYDR5FRl\r\n"
 121:/home/xingli/share/LiteOS_Lab/build/linux_mqtt_demo/src/main.c **** "LcNXkLKNLpx58hBdVoahLtKS5ASUG3TuLOGo0Nazq+54lZwk/fSrcyblpt6MpjXQ\r\n"
 122:/home/xingli/share/LiteOS_Lab/build/linux_mqtt_demo/src/main.c **** "0+gR7J59AgMBAAECggEAFbjx2myhD6laazmdbx2kUATiI22Vub8kcG/7vqy+sRgb\r\n"
 123:/home/xingli/share/LiteOS_Lab/build/linux_mqtt_demo/src/main.c **** "x0zUFp3x0WbUxPtETbFBYfLv8zXJe0ffZ1lt7l44vu2qrh2Yw89/9QO+HQjbyLl0\r\n"
 124:/home/xingli/share/LiteOS_Lab/build/linux_mqtt_demo/src/main.c **** "K3F7wYoM3UBbnM5vSypqvvb8YvwT3G0FyFNMZPRQuhTg5Z1XZbqiEvki0Fvhx1sG\r\n"
 125:/home/xingli/share/LiteOS_Lab/build/linux_mqtt_demo/src/main.c **** "bksCKK85dPaH/7kXxMTPZ67/2Z3TlwUERo1YSPRnrQXGnDowudLqQjn8ptiPfO39\r\n"
 126:/home/xingli/share/LiteOS_Lab/build/linux_mqtt_demo/src/main.c **** "bIMQhM/HI1bTw4F5EevL7sS4rcnhpmQNU6ZeINPvYuel+hP36uPwTHMm1hkZbMgP\r\n"
 127:/home/xingli/share/LiteOS_Lab/build/linux_mqtt_demo/src/main.c **** "a69Yk8/meENffl9fQ+T8woYMGgKq0DM+O5ip7QzrLQKBgQDdvwI/9npuwpYkdjWT\r\n"
GAS LISTING /tmp/ccHEyQkD.s 			page 4


 128:/home/xingli/share/LiteOS_Lab/build/linux_mqtt_demo/src/main.c **** "tLj5BKFNINjn+TjyvN1QQmOhXqzTy1y9HVm7EYh1l0H5PY/WgYadBWNYabgNSIe0\r\n"
 129:/home/xingli/share/LiteOS_Lab/build/linux_mqtt_demo/src/main.c **** "vxl7tdDxDX4DBQqDIIEY45sPa3glq6flCgtPzkZxcYTvZpqmdX8/iMYGXHpdOMdm\r\n"
 130:/home/xingli/share/LiteOS_Lab/build/linux_mqtt_demo/src/main.c **** "S8jngobFDEgLxFS1lLLs+LtTTwKBgQDOIz08d2zMRX5AW0SkQ+VbdwcO7G5qlTJV\r\n"
 131:/home/xingli/share/LiteOS_Lab/build/linux_mqtt_demo/src/main.c **** "42Rf51Dmr0as/bX5eIWAAfcsEi/kG2e5Ozupe4BVZXarw7AL1bzE4mLvfcwZEUiJ\r\n"
 132:/home/xingli/share/LiteOS_Lab/build/linux_mqtt_demo/src/main.c **** "Qj56H6QTOiVm/DTZdBz415z60zjCui+59luev6txZBL51ZhoifzfdAfxd8ztucV+\r\n"
 133:/home/xingli/share/LiteOS_Lab/build/linux_mqtt_demo/src/main.c **** "mj3kytIucwKBgBSdporl0norsyPOrap+2dek+44dKK1geU/wCS9mDLc7AxxpwsR+\r\n"
 134:/home/xingli/share/LiteOS_Lab/build/linux_mqtt_demo/src/main.c **** "TxJaTfKIzoRqmc3amvZMQvE8WvU5Mgy225qpy7QtifKj7FdGlVoIBymG11PBQsnD\r\n"
 135:/home/xingli/share/LiteOS_Lab/build/linux_mqtt_demo/src/main.c **** "hku0JM51PGO5iVVChUMV5zs+K84w8jDriNElTHxTaPtXFH0RRxVLBrd3AoGAIYX1\r\n"
 136:/home/xingli/share/LiteOS_Lab/build/linux_mqtt_demo/src/main.c **** "lXnOhcHfcFPna9dm22MWEMU+h7LPxsv+LOKPc5SZp9Ry3alN/K1VJyOmCjCyw5rw\r\n"
 137:/home/xingli/share/LiteOS_Lab/build/linux_mqtt_demo/src/main.c **** "bvWYv0qK7BAc9y/BTTuL32rT4FfBNiFBy9aNdlsEbiUh6yNI+ucFrnzfRDvHOzTn\r\n"
 138:/home/xingli/share/LiteOS_Lab/build/linux_mqtt_demo/src/main.c **** "XX/KP9yIgXzNFmMqbqSODiTvfNGzXo1y91xMpiUCgYAfO+Xb5msOMABiBNGD85qr\r\n"
 139:/home/xingli/share/LiteOS_Lab/build/linux_mqtt_demo/src/main.c **** "C+0xpuWoPe4pB5ccgniv1zhPlUJ+8l1vWz/ZWnH/6oVxGGrq5xLtoBgFWM4uSseI\r\n"
 140:/home/xingli/share/LiteOS_Lab/build/linux_mqtt_demo/src/main.c **** "Je0fSqZp0XAbaFI7wkEV/uP6VMjjFT5TfJz4idgI+EaE72va2jbFBgg1MyfR3gx4\r\n"
 141:/home/xingli/share/LiteOS_Lab/build/linux_mqtt_demo/src/main.c **** "deaXc4ZpE64iV+eAtZ8VVQ==\r\n"
 142:/home/xingli/share/LiteOS_Lab/build/linux_mqtt_demo/src/main.c **** "-----END PRIVATE KEY-----\r\n";
 143:/home/xingli/share/LiteOS_Lab/build/linux_mqtt_demo/src/main.c **** static const char *s_client_pk_pwd = "123456";
 144:/home/xingli/share/LiteOS_Lab/build/linux_mqtt_demo/src/main.c **** #endif
 145:/home/xingli/share/LiteOS_Lab/build/linux_mqtt_demo/src/main.c **** 
 146:/home/xingli/share/LiteOS_Lab/build/linux_mqtt_demo/src/main.c **** #else
 147:/home/xingli/share/LiteOS_Lab/build/linux_mqtt_demo/src/main.c **** #define CN_SERVER_PORT "1883"
 148:/home/xingli/share/LiteOS_Lab/build/linux_mqtt_demo/src/main.c **** #define CN_SECURITY_TYPE EN_DTLS_AL_SECURITY_TYPE_NONE
 149:/home/xingli/share/LiteOS_Lab/build/linux_mqtt_demo/src/main.c **** #endif
 150:/home/xingli/share/LiteOS_Lab/build/linux_mqtt_demo/src/main.c **** 
 151:/home/xingli/share/LiteOS_Lab/build/linux_mqtt_demo/src/main.c **** #define CN_APP_DEVICEID  "60bf519cb86d7b02bc518aa9_202106081919" // "6364ba6d21819d54ca312b_mqtt_ti
 152:/home/xingli/share/LiteOS_Lab/build/linux_mqtt_demo/src/main.c **** 
 153:/home/xingli/share/LiteOS_Lab/build/linux_mqtt_demo/src/main.c **** #define CN_APP_DEVICEPWD "13101518025" // 替换为注册设备后生成的密钥
 154:/home/xingli/share/LiteOS_Lab/build/linux_mqtt_demo/src/main.c **** 
 155:/home/xingli/share/LiteOS_Lab/build/linux_mqtt_demo/src/main.c **** #define CN_APP_LIFETIME 60 // seconds
 156:/home/xingli/share/LiteOS_Lab/build/linux_mqtt_demo/src/main.c **** typedef enum {
 157:/home/xingli/share/LiteOS_Lab/build/linux_mqtt_demo/src/main.c ****     en_msg_cmd = 0,
 158:/home/xingli/share/LiteOS_Lab/build/linux_mqtt_demo/src/main.c ****     en_msg_report,
 159:/home/xingli/share/LiteOS_Lab/build/linux_mqtt_demo/src/main.c ****     en_msg_conn,
 160:/home/xingli/share/LiteOS_Lab/build/linux_mqtt_demo/src/main.c ****     en_msg_disconn,
 161:/home/xingli/share/LiteOS_Lab/build/linux_mqtt_demo/src/main.c **** } en_msg_type_t;
 162:/home/xingli/share/LiteOS_Lab/build/linux_mqtt_demo/src/main.c **** 
 163:/home/xingli/share/LiteOS_Lab/build/linux_mqtt_demo/src/main.c **** typedef struct {
 164:/home/xingli/share/LiteOS_Lab/build/linux_mqtt_demo/src/main.c ****     char* request_id;
 165:/home/xingli/share/LiteOS_Lab/build/linux_mqtt_demo/src/main.c ****     char* payload;
 166:/home/xingli/share/LiteOS_Lab/build/linux_mqtt_demo/src/main.c **** } cmd_t;
 167:/home/xingli/share/LiteOS_Lab/build/linux_mqtt_demo/src/main.c **** 
 168:/home/xingli/share/LiteOS_Lab/build/linux_mqtt_demo/src/main.c **** typedef struct {
 169:/home/xingli/share/LiteOS_Lab/build/linux_mqtt_demo/src/main.c ****     int lum;
 170:/home/xingli/share/LiteOS_Lab/build/linux_mqtt_demo/src/main.c ****     int temp;
 171:/home/xingli/share/LiteOS_Lab/build/linux_mqtt_demo/src/main.c ****     int hum;
 172:/home/xingli/share/LiteOS_Lab/build/linux_mqtt_demo/src/main.c **** } report_t;
 173:/home/xingli/share/LiteOS_Lab/build/linux_mqtt_demo/src/main.c **** 
 174:/home/xingli/share/LiteOS_Lab/build/linux_mqtt_demo/src/main.c **** typedef struct {
 175:/home/xingli/share/LiteOS_Lab/build/linux_mqtt_demo/src/main.c ****     en_msg_type_t msg_type;
 176:/home/xingli/share/LiteOS_Lab/build/linux_mqtt_demo/src/main.c ****     union {
 177:/home/xingli/share/LiteOS_Lab/build/linux_mqtt_demo/src/main.c ****         cmd_t cmd;
 178:/home/xingli/share/LiteOS_Lab/build/linux_mqtt_demo/src/main.c ****         report_t report;
 179:/home/xingli/share/LiteOS_Lab/build/linux_mqtt_demo/src/main.c ****     } msg;
 180:/home/xingli/share/LiteOS_Lab/build/linux_mqtt_demo/src/main.c **** } app_msg_t;
 181:/home/xingli/share/LiteOS_Lab/build/linux_mqtt_demo/src/main.c **** 
 182:/home/xingli/share/LiteOS_Lab/build/linux_mqtt_demo/src/main.c **** typedef struct {
 183:/home/xingli/share/LiteOS_Lab/build/linux_mqtt_demo/src/main.c ****     queue_t *app_msg;
 184:/home/xingli/share/LiteOS_Lab/build/linux_mqtt_demo/src/main.c ****     int connected;
GAS LISTING /tmp/ccHEyQkD.s 			page 5


 185:/home/xingli/share/LiteOS_Lab/build/linux_mqtt_demo/src/main.c ****     int led;
 186:/home/xingli/share/LiteOS_Lab/build/linux_mqtt_demo/src/main.c ****     int motor;
 187:/home/xingli/share/LiteOS_Lab/build/linux_mqtt_demo/src/main.c **** } app_cb_t;
 188:/home/xingli/share/LiteOS_Lab/build/linux_mqtt_demo/src/main.c **** static app_cb_t g_app_cb;
 189:/home/xingli/share/LiteOS_Lab/build/linux_mqtt_demo/src/main.c **** 
 190:/home/xingli/share/LiteOS_Lab/build/linux_mqtt_demo/src/main.c **** extern int link_main(void *args);
 191:/home/xingli/share/LiteOS_Lab/build/linux_mqtt_demo/src/main.c **** 
 192:/home/xingli/share/LiteOS_Lab/build/linux_mqtt_demo/src/main.c **** static void deal_report_msg(report_t* report)
 193:/home/xingli/share/LiteOS_Lab/build/linux_mqtt_demo/src/main.c **** {
  32              		.loc 1 193 1
  33              		.cfi_startproc
  34 0000 F30F1EFA 		endbr64
  35 0004 55       		pushq	%rbp
  36              	.LCFI0:
  37              		.cfi_def_cfa_offset 16
  38              		.cfi_offset 6, -16
  39 0005 4889E5   		movq	%rsp, %rbp
  40              	.LCFI1:
  41              		.cfi_def_cfa_register 6
  42 0008 4881EC20 		subq	$288, %rsp
  42      010000
  43 000f 4889BDE8 		movq	%rdi, -280(%rbp)
  43      FEFFFF
  44              		.loc 1 193 1
  45 0016 64488B04 		movq	%fs:40, %rax
  45      25280000 
  45      00
  46 001f 488945F8 		movq	%rax, -8(%rbp)
  47 0023 31C0     		xorl	%eax, %eax
 194:/home/xingli/share/LiteOS_Lab/build/linux_mqtt_demo/src/main.c ****     oc_mqtt_profile_service_t service;
 195:/home/xingli/share/LiteOS_Lab/build/linux_mqtt_demo/src/main.c ****     oc_mqtt_profile_kv_t temperature;
 196:/home/xingli/share/LiteOS_Lab/build/linux_mqtt_demo/src/main.c ****     oc_mqtt_profile_kv_t humidity;
 197:/home/xingli/share/LiteOS_Lab/build/linux_mqtt_demo/src/main.c ****     oc_mqtt_profile_kv_t luminance;
 198:/home/xingli/share/LiteOS_Lab/build/linux_mqtt_demo/src/main.c ****     oc_mqtt_profile_kv_t led;
 199:/home/xingli/share/LiteOS_Lab/build/linux_mqtt_demo/src/main.c ****     oc_mqtt_profile_kv_t motor;
 200:/home/xingli/share/LiteOS_Lab/build/linux_mqtt_demo/src/main.c **** 
 201:/home/xingli/share/LiteOS_Lab/build/linux_mqtt_demo/src/main.c ****     if (g_app_cb.connected != 1) {
  48              		.loc 1 201 17
  49 0025 8B050000 		movl	8+g_app_cb(%rip), %eax
  49      0000
  50              		.loc 1 201 8
  51 002b 83F801   		cmpl	$1, %eax
  52 002e 0F855301 		jne	.L10
  52      0000
 202:/home/xingli/share/LiteOS_Lab/build/linux_mqtt_demo/src/main.c ****         return;
 203:/home/xingli/share/LiteOS_Lab/build/linux_mqtt_demo/src/main.c ****     }
 204:/home/xingli/share/LiteOS_Lab/build/linux_mqtt_demo/src/main.c **** 
 205:/home/xingli/share/LiteOS_Lab/build/linux_mqtt_demo/src/main.c ****     service.event_time = NULL;
  53              		.loc 1 205 24
  54 0034 48C78500 		movq	$0, -256(%rbp)
  54      FFFFFF00 
  54      000000
 206:/home/xingli/share/LiteOS_Lab/build/linux_mqtt_demo/src/main.c ****     service.service_id = "Agriculture";
  55              		.loc 1 206 24
  56 003f 488D0500 		leaq	.LC0(%rip), %rax
  56      000000
  57 0046 488985F8 		movq	%rax, -264(%rbp)
GAS LISTING /tmp/ccHEyQkD.s 			page 6


  57      FEFFFF
 207:/home/xingli/share/LiteOS_Lab/build/linux_mqtt_demo/src/main.c ****     service.service_property = &temperature;
  58              		.loc 1 207 30
  59 004d 488D8510 		leaq	-240(%rbp), %rax
  59      FFFFFF
  60 0054 48898508 		movq	%rax, -248(%rbp)
  60      FFFFFF
 208:/home/xingli/share/LiteOS_Lab/build/linux_mqtt_demo/src/main.c ****     service.nxt = NULL;
  61              		.loc 1 208 17
  62 005b 48C785F0 		movq	$0, -272(%rbp)
  62      FEFFFF00 
  62      000000
 209:/home/xingli/share/LiteOS_Lab/build/linux_mqtt_demo/src/main.c **** 
 210:/home/xingli/share/LiteOS_Lab/build/linux_mqtt_demo/src/main.c ****     temperature.key = "Temperature";
  63              		.loc 1 210 21
  64 0066 488D0500 		leaq	.LC1(%rip), %rax
  64      000000
  65 006d 48898518 		movq	%rax, -232(%rbp)
  65      FFFFFF
 211:/home/xingli/share/LiteOS_Lab/build/linux_mqtt_demo/src/main.c ****     temperature.value = &report->temp;
  66              		.loc 1 211 25
  67 0074 488B85E8 		movq	-280(%rbp), %rax
  67      FEFFFF
  68 007b 4883C004 		addq	$4, %rax
  69              		.loc 1 211 23
  70 007f 48898528 		movq	%rax, -216(%rbp)
  70      FFFFFF
 212:/home/xingli/share/LiteOS_Lab/build/linux_mqtt_demo/src/main.c ****     temperature.type = EN_OC_MQTT_PROFILE_VALUE_INT;
  71              		.loc 1 212 22
  72 0086 C78520FF 		movl	$0, -224(%rbp)
  72      FFFF0000 
  72      0000
 213:/home/xingli/share/LiteOS_Lab/build/linux_mqtt_demo/src/main.c ****     temperature.nxt = &humidity;
  73              		.loc 1 213 21
  74 0090 488D8540 		leaq	-192(%rbp), %rax
  74      FFFFFF
  75 0097 48898510 		movq	%rax, -240(%rbp)
  75      FFFFFF
 214:/home/xingli/share/LiteOS_Lab/build/linux_mqtt_demo/src/main.c **** 
 215:/home/xingli/share/LiteOS_Lab/build/linux_mqtt_demo/src/main.c ****     humidity.key = "Humidity";
  76              		.loc 1 215 18
  77 009e 488D0500 		leaq	.LC2(%rip), %rax
  77      000000
  78 00a5 48898548 		movq	%rax, -184(%rbp)
  78      FFFFFF
 216:/home/xingli/share/LiteOS_Lab/build/linux_mqtt_demo/src/main.c ****     humidity.value = &report->hum;
  79              		.loc 1 216 22
  80 00ac 488B85E8 		movq	-280(%rbp), %rax
  80      FEFFFF
  81 00b3 4883C008 		addq	$8, %rax
  82              		.loc 1 216 20
  83 00b7 48898558 		movq	%rax, -168(%rbp)
  83      FFFFFF
 217:/home/xingli/share/LiteOS_Lab/build/linux_mqtt_demo/src/main.c ****     humidity.type = EN_OC_MQTT_PROFILE_VALUE_INT;
  84              		.loc 1 217 19
  85 00be C78550FF 		movl	$0, -176(%rbp)
  85      FFFF0000 
GAS LISTING /tmp/ccHEyQkD.s 			page 7


  85      0000
 218:/home/xingli/share/LiteOS_Lab/build/linux_mqtt_demo/src/main.c ****     humidity.nxt = &luminance;
  86              		.loc 1 218 18
  87 00c8 488D8570 		leaq	-144(%rbp), %rax
  87      FFFFFF
  88 00cf 48898540 		movq	%rax, -192(%rbp)
  88      FFFFFF
 219:/home/xingli/share/LiteOS_Lab/build/linux_mqtt_demo/src/main.c **** 
 220:/home/xingli/share/LiteOS_Lab/build/linux_mqtt_demo/src/main.c ****     luminance.key = "Luminance";
  89              		.loc 1 220 19
  90 00d6 488D0500 		leaq	.LC3(%rip), %rax
  90      000000
  91 00dd 48898578 		movq	%rax, -136(%rbp)
  91      FFFFFF
 221:/home/xingli/share/LiteOS_Lab/build/linux_mqtt_demo/src/main.c ****     luminance.value = &report->lum;
  92              		.loc 1 221 23
  93 00e4 488B85E8 		movq	-280(%rbp), %rax
  93      FEFFFF
  94              		.loc 1 221 21
  95 00eb 48894588 		movq	%rax, -120(%rbp)
 222:/home/xingli/share/LiteOS_Lab/build/linux_mqtt_demo/src/main.c ****     luminance.type = EN_OC_MQTT_PROFILE_VALUE_INT;
  96              		.loc 1 222 20
  97 00ef C7458000 		movl	$0, -128(%rbp)
  97      000000
 223:/home/xingli/share/LiteOS_Lab/build/linux_mqtt_demo/src/main.c ****     luminance.nxt = &led;
  98              		.loc 1 223 19
  99 00f6 488D45A0 		leaq	-96(%rbp), %rax
 100 00fa 48898570 		movq	%rax, -144(%rbp)
 100      FFFFFF
 224:/home/xingli/share/LiteOS_Lab/build/linux_mqtt_demo/src/main.c **** 
 225:/home/xingli/share/LiteOS_Lab/build/linux_mqtt_demo/src/main.c ****     led.key = "LightStatus";
 101              		.loc 1 225 13
 102 0101 488D0500 		leaq	.LC4(%rip), %rax
 102      000000
 103 0108 488945A8 		movq	%rax, -88(%rbp)
 226:/home/xingli/share/LiteOS_Lab/build/linux_mqtt_demo/src/main.c ****     led.value = g_app_cb.led ? "ON" : "OFF";
 104              		.loc 1 226 25
 105 010c 8B050000 		movl	12+g_app_cb(%rip), %eax
 105      0000
 106              		.loc 1 226 37
 107 0112 85C0     		testl	%eax, %eax
 108 0114 7409     		je	.L4
 109              		.loc 1 226 37 is_stmt 0 discriminator 1
 110 0116 488D0500 		leaq	.LC5(%rip), %rax
 110      000000
 111 011d EB07     		jmp	.L5
 112              	.L4:
 113              		.loc 1 226 37 discriminator 2
 114 011f 488D0500 		leaq	.LC6(%rip), %rax
 114      000000
 115              	.L5:
 116              		.loc 1 226 15 is_stmt 1 discriminator 4
 117 0126 488945B8 		movq	%rax, -72(%rbp)
 227:/home/xingli/share/LiteOS_Lab/build/linux_mqtt_demo/src/main.c ****     led.type = EN_OC_MQTT_PROFILE_VALUE_STRING;
 118              		.loc 1 227 14 discriminator 4
 119 012a C745B004 		movl	$4, -80(%rbp)
 119      000000
GAS LISTING /tmp/ccHEyQkD.s 			page 8


 228:/home/xingli/share/LiteOS_Lab/build/linux_mqtt_demo/src/main.c ****     led.nxt = &motor;
 120              		.loc 1 228 13 discriminator 4
 121 0131 488D45D0 		leaq	-48(%rbp), %rax
 122 0135 488945A0 		movq	%rax, -96(%rbp)
 229:/home/xingli/share/LiteOS_Lab/build/linux_mqtt_demo/src/main.c **** 
 230:/home/xingli/share/LiteOS_Lab/build/linux_mqtt_demo/src/main.c ****     motor.key = "MotorStatus";
 123              		.loc 1 230 15 discriminator 4
 124 0139 488D0500 		leaq	.LC7(%rip), %rax
 124      000000
 125 0140 488945D8 		movq	%rax, -40(%rbp)
 231:/home/xingli/share/LiteOS_Lab/build/linux_mqtt_demo/src/main.c ****     motor.value = g_app_cb.motor ? "ON" : "OFF";
 126              		.loc 1 231 27 discriminator 4
 127 0144 8B050000 		movl	16+g_app_cb(%rip), %eax
 127      0000
 128              		.loc 1 231 41 discriminator 4
 129 014a 85C0     		testl	%eax, %eax
 130 014c 7409     		je	.L6
 131              		.loc 1 231 41 is_stmt 0 discriminator 1
 132 014e 488D0500 		leaq	.LC5(%rip), %rax
 132      000000
 133 0155 EB07     		jmp	.L7
 134              	.L6:
 135              		.loc 1 231 41 discriminator 2
 136 0157 488D0500 		leaq	.LC6(%rip), %rax
 136      000000
 137              	.L7:
 138              		.loc 1 231 17 is_stmt 1 discriminator 4
 139 015e 488945E8 		movq	%rax, -24(%rbp)
 232:/home/xingli/share/LiteOS_Lab/build/linux_mqtt_demo/src/main.c ****     motor.type = EN_OC_MQTT_PROFILE_VALUE_STRING;
 140              		.loc 1 232 16 discriminator 4
 141 0162 C745E004 		movl	$4, -32(%rbp)
 141      000000
 233:/home/xingli/share/LiteOS_Lab/build/linux_mqtt_demo/src/main.c ****     motor.nxt = NULL;
 142              		.loc 1 233 15 discriminator 4
 143 0169 48C745D0 		movq	$0, -48(%rbp)
 143      00000000 
 234:/home/xingli/share/LiteOS_Lab/build/linux_mqtt_demo/src/main.c **** 
 235:/home/xingli/share/LiteOS_Lab/build/linux_mqtt_demo/src/main.c ****     oc_mqtt_profile_propertyreport(NULL, &service);
 144              		.loc 1 235 5 discriminator 4
 145 0171 488D85F0 		leaq	-272(%rbp), %rax
 145      FEFFFF
 146 0178 4889C6   		movq	%rax, %rsi
 147 017b BF000000 		movl	$0, %edi
 147      00
 148 0180 E8000000 		call	oc_mqtt_profile_propertyreport@PLT
 148      00
 236:/home/xingli/share/LiteOS_Lab/build/linux_mqtt_demo/src/main.c ****     return;
 149              		.loc 1 236 5 discriminator 4
 150 0185 EB01     		jmp	.L1
 151              	.L10:
 202:/home/xingli/share/LiteOS_Lab/build/linux_mqtt_demo/src/main.c ****     }
 152              		.loc 1 202 9
 153 0187 90       		nop
 154              	.L1:
 237:/home/xingli/share/LiteOS_Lab/build/linux_mqtt_demo/src/main.c **** }
 155              		.loc 1 237 1
 156 0188 488B45F8 		movq	-8(%rbp), %rax
GAS LISTING /tmp/ccHEyQkD.s 			page 9


 157 018c 64483304 		xorq	%fs:40, %rax
 157      25280000 
 157      00
 158 0195 7405     		je	.L9
 159 0197 E8000000 		call	__stack_chk_fail@PLT
 159      00
 160              	.L9:
 161 019c C9       		leave
 162              	.LCFI2:
 163              		.cfi_def_cfa 7, 8
 164 019d C3       		ret
 165              		.cfi_endproc
 166              	.LFE6:
 168              		.section	.text.msg_rcv_callback,"ax",@progbits
 170              	msg_rcv_callback:
 171              	.LFB7:
 238:/home/xingli/share/LiteOS_Lab/build/linux_mqtt_demo/src/main.c **** 
 239:/home/xingli/share/LiteOS_Lab/build/linux_mqtt_demo/src/main.c **** // use this function to push all the message to the buffer
 240:/home/xingli/share/LiteOS_Lab/build/linux_mqtt_demo/src/main.c **** static int msg_rcv_callback(oc_mqtt_profile_msgrcv_t* msg)
 241:/home/xingli/share/LiteOS_Lab/build/linux_mqtt_demo/src/main.c **** {
 172              		.loc 1 241 1
 173              		.cfi_startproc
 174 0000 F30F1EFA 		endbr64
 175 0004 55       		pushq	%rbp
 176              	.LCFI3:
 177              		.cfi_def_cfa_offset 16
 178              		.cfi_offset 6, -16
 179 0005 4889E5   		movq	%rsp, %rbp
 180              	.LCFI4:
 181              		.cfi_def_cfa_register 6
 182 0008 4883EC30 		subq	$48, %rsp
 183 000c 48897DD8 		movq	%rdi, -40(%rbp)
 184              		.loc 1 241 1
 185 0010 64488B04 		movq	%fs:40, %rax
 185      25280000 
 185      00
 186 0019 488945F8 		movq	%rax, -8(%rbp)
 187 001d 31C0     		xorl	%eax, %eax
 242:/home/xingli/share/LiteOS_Lab/build/linux_mqtt_demo/src/main.c ****     int ret = 0;
 188              		.loc 1 242 9
 189 001f C745E000 		movl	$0, -32(%rbp)
 189      000000
 243:/home/xingli/share/LiteOS_Lab/build/linux_mqtt_demo/src/main.c ****     char* buf;
 244:/home/xingli/share/LiteOS_Lab/build/linux_mqtt_demo/src/main.c ****     int buf_len;
 245:/home/xingli/share/LiteOS_Lab/build/linux_mqtt_demo/src/main.c ****     app_msg_t* app_msg;
 246:/home/xingli/share/LiteOS_Lab/build/linux_mqtt_demo/src/main.c **** 
 247:/home/xingli/share/LiteOS_Lab/build/linux_mqtt_demo/src/main.c ****     if ((msg == NULL) || (msg->request_id == NULL) || (msg->type != EN_OC_MQTT_PROFILE_MSG_TYPE_DOW
 190              		.loc 1 247 8
 191 0026 48837DD8 		cmpq	$0, -40(%rbp)
 191      00
 192 002b 7418     		je	.L12
 193              		.loc 1 247 30 discriminator 1
 194 002d 488B45D8 		movq	-40(%rbp), %rax
 195 0031 488B4008 		movq	8(%rax), %rax
 196              		.loc 1 247 23 discriminator 1
 197 0035 4885C0   		testq	%rax, %rax
 198 0038 740B     		je	.L12
GAS LISTING /tmp/ccHEyQkD.s 			page 10


 199              		.loc 1 247 59 discriminator 2
 200 003a 488B45D8 		movq	-40(%rbp), %rax
 201 003e 8B00     		movl	(%rax), %eax
 202              		.loc 1 247 52 discriminator 2
 203 0040 83F801   		cmpl	$1, %eax
 204 0043 7408     		je	.L13
 205              	.L12:
 248:/home/xingli/share/LiteOS_Lab/build/linux_mqtt_demo/src/main.c ****         return ret;
 206              		.loc 1 248 16
 207 0045 8B45E0   		movl	-32(%rbp), %eax
 208 0048 E93B0100 		jmp	.L14
 208      00
 209              	.L13:
 249:/home/xingli/share/LiteOS_Lab/build/linux_mqtt_demo/src/main.c ****     }
 250:/home/xingli/share/LiteOS_Lab/build/linux_mqtt_demo/src/main.c **** 
 251:/home/xingli/share/LiteOS_Lab/build/linux_mqtt_demo/src/main.c ****     buf_len = sizeof(app_msg_t) + strlen(msg->request_id) + 1 + msg->msg_len + 1;
 210              		.loc 1 251 45
 211 004d 488B45D8 		movq	-40(%rbp), %rax
 212 0051 488B4008 		movq	8(%rax), %rax
 213              		.loc 1 251 35
 214 0055 4889C7   		movq	%rax, %rdi
 215 0058 E8000000 		call	strlen@PLT
 215      00
 216              		.loc 1 251 63
 217 005d 89C2     		movl	%eax, %edx
 218              		.loc 1 251 68
 219 005f 488B45D8 		movq	-40(%rbp), %rax
 220 0063 8B4018   		movl	24(%rax), %eax
 221              		.loc 1 251 63
 222 0066 01D0     		addl	%edx, %eax
 223              		.loc 1 251 78
 224 0068 83C01A   		addl	$26, %eax
 225              		.loc 1 251 13
 226 006b 8945E4   		movl	%eax, -28(%rbp)
 252:/home/xingli/share/LiteOS_Lab/build/linux_mqtt_demo/src/main.c ****     buf = malloc(buf_len);
 227              		.loc 1 252 11
 228 006e 8B45E4   		movl	-28(%rbp), %eax
 229 0071 4898     		cltq
 230 0073 4889C7   		movq	%rax, %rdi
 231 0076 E8000000 		call	malloc@PLT
 231      00
 232 007b 488945E8 		movq	%rax, -24(%rbp)
 253:/home/xingli/share/LiteOS_Lab/build/linux_mqtt_demo/src/main.c ****     if (buf == NULL) {
 233              		.loc 1 253 8
 234 007f 48837DE8 		cmpq	$0, -24(%rbp)
 234      00
 235 0084 7508     		jne	.L15
 254:/home/xingli/share/LiteOS_Lab/build/linux_mqtt_demo/src/main.c ****         return ret;
 236              		.loc 1 254 16
 237 0086 8B45E0   		movl	-32(%rbp), %eax
 238 0089 E9FA0000 		jmp	.L14
 238      00
 239              	.L15:
 255:/home/xingli/share/LiteOS_Lab/build/linux_mqtt_demo/src/main.c ****     }
 256:/home/xingli/share/LiteOS_Lab/build/linux_mqtt_demo/src/main.c ****     app_msg = (app_msg_t*)buf;
 240              		.loc 1 256 13
 241 008e 488B45E8 		movq	-24(%rbp), %rax
GAS LISTING /tmp/ccHEyQkD.s 			page 11


 242 0092 488945F0 		movq	%rax, -16(%rbp)
 257:/home/xingli/share/LiteOS_Lab/build/linux_mqtt_demo/src/main.c ****     buf += sizeof(app_msg_t);
 243              		.loc 1 257 9
 244 0096 488345E8 		addq	$24, -24(%rbp)
 244      18
 258:/home/xingli/share/LiteOS_Lab/build/linux_mqtt_demo/src/main.c **** 
 259:/home/xingli/share/LiteOS_Lab/build/linux_mqtt_demo/src/main.c ****     app_msg->msg_type = en_msg_cmd;
 245              		.loc 1 259 23
 246 009b 488B45F0 		movq	-16(%rbp), %rax
 247 009f C7000000 		movl	$0, (%rax)
 247      0000
 260:/home/xingli/share/LiteOS_Lab/build/linux_mqtt_demo/src/main.c ****     app_msg->msg.cmd.request_id = buf;
 248              		.loc 1 260 33
 249 00a5 488B45F0 		movq	-16(%rbp), %rax
 250 00a9 488B55E8 		movq	-24(%rbp), %rdx
 251 00ad 48895008 		movq	%rdx, 8(%rax)
 261:/home/xingli/share/LiteOS_Lab/build/linux_mqtt_demo/src/main.c ****     buf_len = strlen(msg->request_id);
 252              		.loc 1 261 25
 253 00b1 488B45D8 		movq	-40(%rbp), %rax
 254 00b5 488B4008 		movq	8(%rax), %rax
 255              		.loc 1 261 15
 256 00b9 4889C7   		movq	%rax, %rdi
 257 00bc E8000000 		call	strlen@PLT
 257      00
 258              		.loc 1 261 13
 259 00c1 8945E4   		movl	%eax, -28(%rbp)
 262:/home/xingli/share/LiteOS_Lab/build/linux_mqtt_demo/src/main.c ****     buf += (buf_len + 1);
 260              		.loc 1 262 9
 261 00c4 8B45E4   		movl	-28(%rbp), %eax
 262 00c7 4898     		cltq
 263 00c9 4883C001 		addq	$1, %rax
 264 00cd 480145E8 		addq	%rax, -24(%rbp)
 263:/home/xingli/share/LiteOS_Lab/build/linux_mqtt_demo/src/main.c ****     memcpy_s(app_msg->msg.cmd.request_id, buf_len, msg->request_id, buf_len);
 265              		.loc 1 263 5
 266 00d1 8B45E4   		movl	-28(%rbp), %eax
 267 00d4 4863C8   		movslq	%eax, %rcx
 268              		.loc 1 263 55
 269 00d7 488B45D8 		movq	-40(%rbp), %rax
 270 00db 488B5008 		movq	8(%rax), %rdx
 271              		.loc 1 263 5
 272 00df 8B45E4   		movl	-28(%rbp), %eax
 273 00e2 4863F0   		movslq	%eax, %rsi
 274              		.loc 1 263 30
 275 00e5 488B45F0 		movq	-16(%rbp), %rax
 276 00e9 488B4008 		movq	8(%rax), %rax
 277              		.loc 1 263 5
 278 00ed 4889C7   		movq	%rax, %rdi
 279 00f0 E8000000 		call	memcpy_s@PLT
 279      00
 264:/home/xingli/share/LiteOS_Lab/build/linux_mqtt_demo/src/main.c ****     app_msg->msg.cmd.request_id[buf_len] = '\0';
 280              		.loc 1 264 21
 281 00f5 488B45F0 		movq	-16(%rbp), %rax
 282 00f9 488B5008 		movq	8(%rax), %rdx
 283              		.loc 1 264 32
 284 00fd 8B45E4   		movl	-28(%rbp), %eax
 285 0100 4898     		cltq
 286 0102 4801D0   		addq	%rdx, %rax
GAS LISTING /tmp/ccHEyQkD.s 			page 12


 287              		.loc 1 264 42
 288 0105 C60000   		movb	$0, (%rax)
 265:/home/xingli/share/LiteOS_Lab/build/linux_mqtt_demo/src/main.c **** 
 266:/home/xingli/share/LiteOS_Lab/build/linux_mqtt_demo/src/main.c ****     buf_len = msg->msg_len;
 289              		.loc 1 266 13
 290 0108 488B45D8 		movq	-40(%rbp), %rax
 291 010c 8B4018   		movl	24(%rax), %eax
 292 010f 8945E4   		movl	%eax, -28(%rbp)
 267:/home/xingli/share/LiteOS_Lab/build/linux_mqtt_demo/src/main.c ****     app_msg->msg.cmd.payload = buf;
 293              		.loc 1 267 30
 294 0112 488B45F0 		movq	-16(%rbp), %rax
 295 0116 488B55E8 		movq	-24(%rbp), %rdx
 296 011a 48895010 		movq	%rdx, 16(%rax)
 268:/home/xingli/share/LiteOS_Lab/build/linux_mqtt_demo/src/main.c ****     memcpy_s(app_msg->msg.cmd.payload, buf_len, msg->msg, buf_len);
 297              		.loc 1 268 5
 298 011e 8B45E4   		movl	-28(%rbp), %eax
 299 0121 4863C8   		movslq	%eax, %rcx
 300              		.loc 1 268 52
 301 0124 488B45D8 		movq	-40(%rbp), %rax
 302 0128 488B5010 		movq	16(%rax), %rdx
 303              		.loc 1 268 5
 304 012c 8B45E4   		movl	-28(%rbp), %eax
 305 012f 4863F0   		movslq	%eax, %rsi
 306              		.loc 1 268 30
 307 0132 488B45F0 		movq	-16(%rbp), %rax
 308 0136 488B4010 		movq	16(%rax), %rax
 309              		.loc 1 268 5
 310 013a 4889C7   		movq	%rax, %rdi
 311 013d E8000000 		call	memcpy_s@PLT
 311      00
 269:/home/xingli/share/LiteOS_Lab/build/linux_mqtt_demo/src/main.c ****     app_msg->msg.cmd.payload[buf_len] = '\0';
 312              		.loc 1 269 21
 313 0142 488B45F0 		movq	-16(%rbp), %rax
 314 0146 488B5010 		movq	16(%rax), %rdx
 315              		.loc 1 269 29
 316 014a 8B45E4   		movl	-28(%rbp), %eax
 317 014d 4898     		cltq
 318 014f 4801D0   		addq	%rdx, %rax
 319              		.loc 1 269 39
 320 0152 C60000   		movb	$0, (%rax)
 270:/home/xingli/share/LiteOS_Lab/build/linux_mqtt_demo/src/main.c **** 
 271:/home/xingli/share/LiteOS_Lab/build/linux_mqtt_demo/src/main.c ****     ret = queue_push(g_app_cb.app_msg, app_msg, CONFIG_QUEUE_TIMEOUT);
 321              		.loc 1 271 11
 322 0155 488B0500 		movq	g_app_cb(%rip), %rax
 322      000000
 323 015c 488B4DF0 		movq	-16(%rbp), %rcx
 324 0160 BA881300 		movl	$5000, %edx
 324      00
 325 0165 4889CE   		movq	%rcx, %rsi
 326 0168 4889C7   		movq	%rax, %rdi
 327 016b E8000000 		call	queue_push@PLT
 327      00
 328 0170 8945E0   		movl	%eax, -32(%rbp)
 272:/home/xingli/share/LiteOS_Lab/build/linux_mqtt_demo/src/main.c ****     if (ret != 0) {
 329              		.loc 1 272 8
 330 0173 837DE000 		cmpl	$0, -32(%rbp)
 331 0177 740C     		je	.L16
GAS LISTING /tmp/ccHEyQkD.s 			page 13


 273:/home/xingli/share/LiteOS_Lab/build/linux_mqtt_demo/src/main.c ****         free(app_msg);
 332              		.loc 1 273 9
 333 0179 488B45F0 		movq	-16(%rbp), %rax
 334 017d 4889C7   		movq	%rax, %rdi
 335 0180 E8000000 		call	free@PLT
 335      00
 336              	.L16:
 274:/home/xingli/share/LiteOS_Lab/build/linux_mqtt_demo/src/main.c ****     }
 275:/home/xingli/share/LiteOS_Lab/build/linux_mqtt_demo/src/main.c **** 
 276:/home/xingli/share/LiteOS_Lab/build/linux_mqtt_demo/src/main.c ****     return ret;
 337              		.loc 1 276 12
 338 0185 8B45E0   		movl	-32(%rbp), %eax
 339              	.L14:
 277:/home/xingli/share/LiteOS_Lab/build/linux_mqtt_demo/src/main.c **** }
 340              		.loc 1 277 1
 341 0188 488B75F8 		movq	-8(%rbp), %rsi
 342 018c 64483334 		xorq	%fs:40, %rsi
 342      25280000 
 342      00
 343 0195 7405     		je	.L17
 344 0197 E8000000 		call	__stack_chk_fail@PLT
 344      00
 345              	.L17:
 346 019c C9       		leave
 347              	.LCFI5:
 348              		.cfi_def_cfa 7, 8
 349 019d C3       		ret
 350              		.cfi_endproc
 351              	.LFE7:
 353              		.section	.text.oc_cmdresp,"ax",@progbits
 355              	oc_cmdresp:
 356              	.LFB8:
 278:/home/xingli/share/LiteOS_Lab/build/linux_mqtt_demo/src/main.c **** 
 279:/home/xingli/share/LiteOS_Lab/build/linux_mqtt_demo/src/main.c **** static void oc_cmdresp(cmd_t* cmd, int cmdret)
 280:/home/xingli/share/LiteOS_Lab/build/linux_mqtt_demo/src/main.c **** {
 357              		.loc 1 280 1
 358              		.cfi_startproc
 359 0000 F30F1EFA 		endbr64
 360 0004 55       		pushq	%rbp
 361              	.LCFI6:
 362              		.cfi_def_cfa_offset 16
 363              		.cfi_offset 6, -16
 364 0005 4889E5   		movq	%rsp, %rbp
 365              	.LCFI7:
 366              		.cfi_def_cfa_register 6
 367 0008 4883EC40 		subq	$64, %rsp
 368 000c 48897DC8 		movq	%rdi, -56(%rbp)
 369 0010 8975C4   		movl	%esi, -60(%rbp)
 370              		.loc 1 280 1
 371 0013 64488B04 		movq	%fs:40, %rax
 371      25280000 
 371      00
 372 001c 488945F8 		movq	%rax, -8(%rbp)
 373 0020 31C0     		xorl	%eax, %eax
 281:/home/xingli/share/LiteOS_Lab/build/linux_mqtt_demo/src/main.c ****     oc_mqtt_profile_cmdresp_t cmdresp;
 282:/home/xingli/share/LiteOS_Lab/build/linux_mqtt_demo/src/main.c ****     ///< do the response
 283:/home/xingli/share/LiteOS_Lab/build/linux_mqtt_demo/src/main.c ****     cmdresp.paras = NULL;
GAS LISTING /tmp/ccHEyQkD.s 			page 14


 374              		.loc 1 283 19
 375 0022 48C745E8 		movq	$0, -24(%rbp)
 375      00000000 
 284:/home/xingli/share/LiteOS_Lab/build/linux_mqtt_demo/src/main.c ****     cmdresp.request_id = cmd->request_id;
 376              		.loc 1 284 29
 377 002a 488B45C8 		movq	-56(%rbp), %rax
 378 002e 488B00   		movq	(%rax), %rax
 379              		.loc 1 284 24
 380 0031 488945E0 		movq	%rax, -32(%rbp)
 285:/home/xingli/share/LiteOS_Lab/build/linux_mqtt_demo/src/main.c ****     cmdresp.ret_code = cmdret;
 381              		.loc 1 285 22
 382 0035 8B45C4   		movl	-60(%rbp), %eax
 383 0038 8945D0   		movl	%eax, -48(%rbp)
 286:/home/xingli/share/LiteOS_Lab/build/linux_mqtt_demo/src/main.c ****     cmdresp.ret_name = NULL;
 384              		.loc 1 286 22
 385 003b 48C745D8 		movq	$0, -40(%rbp)
 385      00000000 
 287:/home/xingli/share/LiteOS_Lab/build/linux_mqtt_demo/src/main.c ****     (void)oc_mqtt_profile_cmdresp(NULL, &cmdresp);
 386              		.loc 1 287 11
 387 0043 488D45D0 		leaq	-48(%rbp), %rax
 388 0047 4889C6   		movq	%rax, %rsi
 389 004a BF000000 		movl	$0, %edi
 389      00
 390 004f E8000000 		call	oc_mqtt_profile_cmdresp@PLT
 390      00
 288:/home/xingli/share/LiteOS_Lab/build/linux_mqtt_demo/src/main.c **** }
 391              		.loc 1 288 1
 392 0054 90       		nop
 393 0055 488B45F8 		movq	-8(%rbp), %rax
 394 0059 64483304 		xorq	%fs:40, %rax
 394      25280000 
 394      00
 395 0062 7405     		je	.L19
 396 0064 E8000000 		call	__stack_chk_fail@PLT
 396      00
 397              	.L19:
 398 0069 C9       		leave
 399              	.LCFI8:
 400              		.cfi_def_cfa 7, 8
 401 006a C3       		ret
 402              		.cfi_endproc
 403              	.LFE8:
 405              		.section	.rodata
 406              	.LC8:
 407 004a 636F6D6D 		.string	"command_name"
 407      616E645F 
 407      6E616D65 
 407      00
 408              	.LC9:
 409 0057 41677269 		.string	"Agriculture_Control_light"
 409      63756C74 
 409      7572655F 
 409      436F6E74 
 409      726F6C5F 
 410              	.LC10:
 411 0071 41677269 		.string	"Agriculture_Control_Motor"
 411      63756C74 
GAS LISTING /tmp/ccHEyQkD.s 			page 15


 411      7572655F 
 411      436F6E74 
 411      726F6C5F 
 412              		.section	.text.deal_cmd_msg,"ax",@progbits
 414              	deal_cmd_msg:
 415              	.LFB9:
 289:/home/xingli/share/LiteOS_Lab/build/linux_mqtt_demo/src/main.c **** 
 290:/home/xingli/share/LiteOS_Lab/build/linux_mqtt_demo/src/main.c **** static void deal_cmd_msg(cmd_t* cmd)
 291:/home/xingli/share/LiteOS_Lab/build/linux_mqtt_demo/src/main.c **** {
 416              		.loc 1 291 1
 417              		.cfi_startproc
 418 0000 F30F1EFA 		endbr64
 419 0004 55       		pushq	%rbp
 420              	.LCFI9:
 421              		.cfi_def_cfa_offset 16
 422              		.cfi_offset 6, -16
 423 0005 4889E5   		movq	%rsp, %rbp
 424              	.LCFI10:
 425              		.cfi_def_cfa_register 6
 426 0008 4883EC30 		subq	$48, %rsp
 427 000c 48897DD8 		movq	%rdi, -40(%rbp)
 428              		.loc 1 291 1
 429 0010 64488B04 		movq	%fs:40, %rax
 429      25280000 
 429      00
 430 0019 488945F8 		movq	%rax, -8(%rbp)
 431 001d 31C0     		xorl	%eax, %eax
 292:/home/xingli/share/LiteOS_Lab/build/linux_mqtt_demo/src/main.c ****     cJSON* obj_root;
 293:/home/xingli/share/LiteOS_Lab/build/linux_mqtt_demo/src/main.c ****     cJSON* obj_cmdname;
 294:/home/xingli/share/LiteOS_Lab/build/linux_mqtt_demo/src/main.c **** 
 295:/home/xingli/share/LiteOS_Lab/build/linux_mqtt_demo/src/main.c ****     int cmdret = 1;
 432              		.loc 1 295 9
 433 001f C745E401 		movl	$1, -28(%rbp)
 433      000000
 296:/home/xingli/share/LiteOS_Lab/build/linux_mqtt_demo/src/main.c ****     obj_root = cJSON_Parse(cmd->payload);
 434              		.loc 1 296 31
 435 0026 488B45D8 		movq	-40(%rbp), %rax
 436 002a 488B4008 		movq	8(%rax), %rax
 437              		.loc 1 296 16
 438 002e 4889C7   		movq	%rax, %rdi
 439 0031 E8000000 		call	cJSON_Parse@PLT
 439      00
 440 0036 488945E8 		movq	%rax, -24(%rbp)
 297:/home/xingli/share/LiteOS_Lab/build/linux_mqtt_demo/src/main.c **** 
 298:/home/xingli/share/LiteOS_Lab/build/linux_mqtt_demo/src/main.c ****     if (obj_root == NULL) {
 441              		.loc 1 298 8
 442 003a 48837DE8 		cmpq	$0, -24(%rbp)
 442      00
 443 003f 7469     		je	.L27
 299:/home/xingli/share/LiteOS_Lab/build/linux_mqtt_demo/src/main.c ****         goto EXIT_JSONPRASE;
 300:/home/xingli/share/LiteOS_Lab/build/linux_mqtt_demo/src/main.c ****     }
 301:/home/xingli/share/LiteOS_Lab/build/linux_mqtt_demo/src/main.c **** 
 302:/home/xingli/share/LiteOS_Lab/build/linux_mqtt_demo/src/main.c ****     obj_cmdname = cJSON_GetObjectItem(obj_root, "command_name");
 444              		.loc 1 302 19
 445 0041 488B45E8 		movq	-24(%rbp), %rax
 446 0045 488D3500 		leaq	.LC8(%rip), %rsi
 446      000000
GAS LISTING /tmp/ccHEyQkD.s 			page 16


 447 004c 4889C7   		movq	%rax, %rdi
 448 004f E8000000 		call	cJSON_GetObjectItem@PLT
 448      00
 449 0054 488945F0 		movq	%rax, -16(%rbp)
 303:/home/xingli/share/LiteOS_Lab/build/linux_mqtt_demo/src/main.c ****     if (obj_cmdname == NULL) {
 450              		.loc 1 303 8
 451 0058 48837DF0 		cmpq	$0, -16(%rbp)
 451      00
 452 005d 743C     		je	.L28
 304:/home/xingli/share/LiteOS_Lab/build/linux_mqtt_demo/src/main.c ****         goto EXIT_CMDOBJ;
 305:/home/xingli/share/LiteOS_Lab/build/linux_mqtt_demo/src/main.c ****     }
 306:/home/xingli/share/LiteOS_Lab/build/linux_mqtt_demo/src/main.c ****     
 307:/home/xingli/share/LiteOS_Lab/build/linux_mqtt_demo/src/main.c ****     if (strcmp(cJSON_GetStringValue(obj_cmdname), "Agriculture_Control_light") == 0) {
 453              		.loc 1 307 16
 454 005f 488B45F0 		movq	-16(%rbp), %rax
 455 0063 4889C7   		movq	%rax, %rdi
 456 0066 E8000000 		call	cJSON_GetStringValue@PLT
 456      00
 457              		.loc 1 307 9
 458 006b 488D3500 		leaq	.LC9(%rip), %rsi
 458      000000
 459 0072 4889C7   		movq	%rax, %rdi
 460 0075 E8000000 		call	strcmp@PLT
 460      00
 461              		.loc 1 307 8
 462 007a 85C0     		testl	%eax, %eax
 463 007c 741E     		je	.L24
 308:/home/xingli/share/LiteOS_Lab/build/linux_mqtt_demo/src/main.c ****         //cmdret = deal_light_cmd(cmd, obj_root);
 309:/home/xingli/share/LiteOS_Lab/build/linux_mqtt_demo/src/main.c ****     } else if (strcmp(cJSON_GetStringValue(obj_cmdname), "Agriculture_Control_Motor") == 0) {
 464              		.loc 1 309 23
 465 007e 488B45F0 		movq	-16(%rbp), %rax
 466 0082 4889C7   		movq	%rax, %rdi
 467 0085 E8000000 		call	cJSON_GetStringValue@PLT
 467      00
 468              		.loc 1 309 16
 469 008a 488D3500 		leaq	.LC10(%rip), %rsi
 469      000000
 470 0091 4889C7   		movq	%rax, %rdi
 471 0094 E8000000 		call	strcmp@PLT
 471      00
 310:/home/xingli/share/LiteOS_Lab/build/linux_mqtt_demo/src/main.c ****         //cmdret = deal_motor_cmd(cmd, obj_root);
 311:/home/xingli/share/LiteOS_Lab/build/linux_mqtt_demo/src/main.c ****     }
 312:/home/xingli/share/LiteOS_Lab/build/linux_mqtt_demo/src/main.c ****     
 313:/home/xingli/share/LiteOS_Lab/build/linux_mqtt_demo/src/main.c **** EXIT_CMDOBJ:
 472              		.loc 1 313 1
 473 0099 EB01     		jmp	.L24
 474              	.L28:
 304:/home/xingli/share/LiteOS_Lab/build/linux_mqtt_demo/src/main.c ****     }
 475              		.loc 1 304 9
 476 009b 90       		nop
 477              	.L24:
 314:/home/xingli/share/LiteOS_Lab/build/linux_mqtt_demo/src/main.c ****     cJSON_Delete(obj_root);
 478              		.loc 1 314 5
 479 009c 488B45E8 		movq	-24(%rbp), %rax
 480 00a0 4889C7   		movq	%rax, %rdi
 481 00a3 E8000000 		call	cJSON_Delete@PLT
 481      00
GAS LISTING /tmp/ccHEyQkD.s 			page 17


 482 00a8 EB01     		jmp	.L22
 483              	.L27:
 299:/home/xingli/share/LiteOS_Lab/build/linux_mqtt_demo/src/main.c ****     }
 484              		.loc 1 299 9
 485 00aa 90       		nop
 486              	.L22:
 315:/home/xingli/share/LiteOS_Lab/build/linux_mqtt_demo/src/main.c **** EXIT_JSONPRASE:
 316:/home/xingli/share/LiteOS_Lab/build/linux_mqtt_demo/src/main.c ****     oc_cmdresp(cmd, cmdret);
 487              		.loc 1 316 5
 488 00ab 8B55E4   		movl	-28(%rbp), %edx
 489 00ae 488B45D8 		movq	-40(%rbp), %rax
 490 00b2 89D6     		movl	%edx, %esi
 491 00b4 4889C7   		movq	%rax, %rdi
 492 00b7 E8000000 		call	oc_cmdresp
 492      00
 317:/home/xingli/share/LiteOS_Lab/build/linux_mqtt_demo/src/main.c ****     return;
 493              		.loc 1 317 5
 494 00bc 90       		nop
 318:/home/xingli/share/LiteOS_Lab/build/linux_mqtt_demo/src/main.c **** }
 495              		.loc 1 318 1
 496 00bd 488B45F8 		movq	-8(%rbp), %rax
 497 00c1 64483304 		xorq	%fs:40, %rax
 497      25280000 
 497      00
 498 00ca 7405     		je	.L26
 499 00cc E8000000 		call	__stack_chk_fail@PLT
 499      00
 500              	.L26:
 501 00d1 C9       		leave
 502              	.LCFI11:
 503              		.cfi_def_cfa 7, 8
 504 00d2 C3       		ret
 505              		.cfi_endproc
 506              	.LFE9:
 508              		.section	.rodata
 509              	.LC11:
 510 008b 71756575 		.string	"queue_rcvmsg"
 510      655F7263 
 510      766D7367 
 510      00
 511              		.align 8
 512              	.LC12:
 513 0098 43726561 		.string	"Create receive msg queue failed"
 513      74652072 
 513      65636569 
 513      7665206D 
 513      73672071 
 514              		.align 8
 515              	.LC13:
 516 00b8 36306266 		.string	"60bf519cb86d7b02bc518aa9_202106081919"
 516      35313963 
 516      62383664 
 516      37623032 
 516      62633531 
 517              	.LC14:
 518 00de 31333130 		.string	"13101518025"
 518      31353138 
GAS LISTING /tmp/ccHEyQkD.s 			page 18


 518      30323500 
 519 00ea 00000000 		.align 8
 519      0000
 520              	.LC15:
 521 00f0 696F742D 		.string	"iot-mqtts.cn-north-4.myhuaweicloud.com"
 521      6D717474 
 521      732E636E 
 521      2D6E6F72 
 521      74682D34 
 522              	.LC16:
 523 0117 31383833 		.string	"1883"
 523      00
 524              	.LC17:
 525 011c 72657420 		.string	"ret = %u\n"
 525      3D202575 
 525      0A00
 526 0126 0000     		.align 8
 527              	.LC18:
 528 0128 6F635F6D 		.string	"oc_mqtt_profile_connect succed!\r"
 528      7174745F 
 528      70726F66 
 528      696C655F 
 528      636F6E6E 
 529 0149 00000000 		.align 8
 529      000000
 530              	.LC19:
 531 0150 6F635F6D 		.string	"oc_mqtt_profile_connect faild!\r"
 531      7174745F 
 531      70726F66 
 531      696C655F 
 531      636F6E6E 
 532              		.section	.text.CloudMainTaskEntry,"ax",@progbits
 534              	CloudMainTaskEntry:
 535              	.LFB10:
 319:/home/xingli/share/LiteOS_Lab/build/linux_mqtt_demo/src/main.c **** 
 320:/home/xingli/share/LiteOS_Lab/build/linux_mqtt_demo/src/main.c **** static int CloudMainTaskEntry(void *args)
 321:/home/xingli/share/LiteOS_Lab/build/linux_mqtt_demo/src/main.c **** {
 536              		.loc 1 321 1
 537              		.cfi_startproc
 538 0000 F30F1EFA 		endbr64
 539 0004 55       		pushq	%rbp
 540              	.LCFI12:
 541              		.cfi_def_cfa_offset 16
 542              		.cfi_offset 6, -16
 543 0005 4889E5   		movq	%rsp, %rbp
 544              	.LCFI13:
 545              		.cfi_def_cfa_register 6
 546 0008 4881ECB0 		subq	$176, %rsp
 546      000000
 547 000f 4889BD58 		movq	%rdi, -168(%rbp)
 547      FFFFFF
 548              		.loc 1 321 1
 549 0016 64488B04 		movq	%fs:40, %rax
 549      25280000 
 549      00
 550 001f 488945F8 		movq	%rax, -8(%rbp)
 551 0023 31C0     		xorl	%eax, %eax
GAS LISTING /tmp/ccHEyQkD.s 			page 19


 322:/home/xingli/share/LiteOS_Lab/build/linux_mqtt_demo/src/main.c ****     app_msg_t* app_msg;
 323:/home/xingli/share/LiteOS_Lab/build/linux_mqtt_demo/src/main.c ****     uint32_t ret;
 324:/home/xingli/share/LiteOS_Lab/build/linux_mqtt_demo/src/main.c ****     g_app_cb.app_msg = queue_create("queue_rcvmsg", 10, 1);
 552              		.loc 1 324 24
 553 0025 BA010000 		movl	$1, %edx
 553      00
 554 002a BE0A0000 		movl	$10, %esi
 554      00
 555 002f 488D3D00 		leaq	.LC11(%rip), %rdi
 555      000000
 556 0036 E8000000 		call	queue_create@PLT
 556      00
 557              		.loc 1 324 22
 558 003b 48890500 		movq	%rax, g_app_cb(%rip)
 558      000000
 325:/home/xingli/share/LiteOS_Lab/build/linux_mqtt_demo/src/main.c ****     if (g_app_cb.app_msg == NULL) {
 559              		.loc 1 325 17
 560 0042 488B0500 		movq	g_app_cb(%rip), %rax
 560      000000
 561              		.loc 1 325 8
 562 0049 4885C0   		testq	%rax, %rax
 563 004c 7511     		jne	.L30
 326:/home/xingli/share/LiteOS_Lab/build/linux_mqtt_demo/src/main.c ****         printf("Create receive msg queue failed");
 564              		.loc 1 326 9
 565 004e 488D3D00 		leaq	.LC12(%rip), %rdi
 565      000000
 566 0055 B8000000 		movl	$0, %eax
 566      00
 567 005a E8000000 		call	printf@PLT
 567      00
 568              	.L30:
 327:/home/xingli/share/LiteOS_Lab/build/linux_mqtt_demo/src/main.c ****     }
 328:/home/xingli/share/LiteOS_Lab/build/linux_mqtt_demo/src/main.c ****     oc_mqtt_profile_connect_t connect_para;
 329:/home/xingli/share/LiteOS_Lab/build/linux_mqtt_demo/src/main.c ****     (void)memset(&connect_para, 0, sizeof(connect_para));
 569              		.loc 1 329 11
 570 005f 488D8570 		leaq	-144(%rbp), %rax
 570      FFFFFF
 571 0066 BA800000 		movl	$128, %edx
 571      00
 572 006b BE000000 		movl	$0, %esi
 572      00
 573 0070 4889C7   		movq	%rax, %rdi
 574 0073 E8000000 		call	memset@PLT
 574      00
 330:/home/xingli/share/LiteOS_Lab/build/linux_mqtt_demo/src/main.c **** 
 331:/home/xingli/share/LiteOS_Lab/build/linux_mqtt_demo/src/main.c ****     connect_para.boostrap = CN_BOOT_MODE;
 575              		.loc 1 331 27
 576 0078 C78570FF 		movl	$0, -144(%rbp)
 576      FFFF0000 
 576      0000
 332:/home/xingli/share/LiteOS_Lab/build/linux_mqtt_demo/src/main.c ****     connect_para.device_id = CN_APP_DEVICEID;
 577              		.loc 1 332 28
 578 0082 488D0500 		leaq	.LC13(%rip), %rax
 578      000000
 579 0089 48894588 		movq	%rax, -120(%rbp)
 333:/home/xingli/share/LiteOS_Lab/build/linux_mqtt_demo/src/main.c ****     connect_para.device_passwd = CN_APP_DEVICEPWD;
 580              		.loc 1 333 32
GAS LISTING /tmp/ccHEyQkD.s 			page 20


 581 008d 488D0500 		leaq	.LC14(%rip), %rax
 581      000000
 582 0094 48894590 		movq	%rax, -112(%rbp)
 334:/home/xingli/share/LiteOS_Lab/build/linux_mqtt_demo/src/main.c ****     connect_para.server_addr = CN_SERVER_IPV4;
 583              		.loc 1 334 30
 584 0098 488D0500 		leaq	.LC15(%rip), %rax
 584      000000
 585 009f 48898578 		movq	%rax, -136(%rbp)
 585      FFFFFF
 335:/home/xingli/share/LiteOS_Lab/build/linux_mqtt_demo/src/main.c ****     connect_para.server_port = CN_SERVER_PORT;
 586              		.loc 1 335 30
 587 00a6 488D0500 		leaq	.LC16(%rip), %rax
 587      000000
 588 00ad 48894580 		movq	%rax, -128(%rbp)
 336:/home/xingli/share/LiteOS_Lab/build/linux_mqtt_demo/src/main.c ****     connect_para.life_time = CN_APP_LIFETIME;
 589              		.loc 1 336 28
 590 00b1 C78574FF 		movl	$60, -140(%rbp)
 590      FFFF3C00 
 590      0000
 337:/home/xingli/share/LiteOS_Lab/build/linux_mqtt_demo/src/main.c ****     connect_para.rcvfunc = msg_rcv_callback;
 591              		.loc 1 337 26
 592 00bb 488D0500 		leaq	msg_rcv_callback(%rip), %rax
 592      000000
 593 00c2 488945E0 		movq	%rax, -32(%rbp)
 338:/home/xingli/share/LiteOS_Lab/build/linux_mqtt_demo/src/main.c **** 
 339:/home/xingli/share/LiteOS_Lab/build/linux_mqtt_demo/src/main.c ****     connect_para.security.type = CN_SECURITY_TYPE;
 594              		.loc 1 339 32
 595 00c6 C745A000 		movl	$0, -96(%rbp)
 595      000000
 340:/home/xingli/share/LiteOS_Lab/build/linux_mqtt_demo/src/main.c **** 
 341:/home/xingli/share/LiteOS_Lab/build/linux_mqtt_demo/src/main.c **** #ifdef CONFIG_OC_MQTTV5_DEMO_TLS
 342:/home/xingli/share/LiteOS_Lab/build/linux_mqtt_demo/src/main.c ****     connect_para.security.u.cert.server_ca = (uint8_t *)s_server_ca;
 343:/home/xingli/share/LiteOS_Lab/build/linux_mqtt_demo/src/main.c ****     connect_para.security.u.cert.server_ca_len = sizeof(s_server_ca);
 344:/home/xingli/share/LiteOS_Lab/build/linux_mqtt_demo/src/main.c **** #ifdef CONFIG_OC_MQTTV5_TLS_BIDIRECTION
 345:/home/xingli/share/LiteOS_Lab/build/linux_mqtt_demo/src/main.c ****     connect_para.device_passwd = NULL;
 346:/home/xingli/share/LiteOS_Lab/build/linux_mqtt_demo/src/main.c ****     connect_para.security.u.cert.client_ca = (uint8_t *)s_client_ca;
 347:/home/xingli/share/LiteOS_Lab/build/linux_mqtt_demo/src/main.c ****     connect_para.security.u.cert.client_ca_len = sizeof(s_client_ca);
 348:/home/xingli/share/LiteOS_Lab/build/linux_mqtt_demo/src/main.c ****     connect_para.security.u.cert.client_pk = (uint8_t *)s_client_pk;
 349:/home/xingli/share/LiteOS_Lab/build/linux_mqtt_demo/src/main.c ****     connect_para.security.u.cert.client_pk_len = sizeof(s_client_pk);
 350:/home/xingli/share/LiteOS_Lab/build/linux_mqtt_demo/src/main.c ****     connect_para.security.u.cert.client_pk_pwd = (uint8_t *)s_client_pk_pwd;
 351:/home/xingli/share/LiteOS_Lab/build/linux_mqtt_demo/src/main.c ****     connect_para.security.u.cert.client_pk_pwd_len = strlen(s_client_pk_pwd);
 352:/home/xingli/share/LiteOS_Lab/build/linux_mqtt_demo/src/main.c **** #endif   ///<endfor bidirection
 353:/home/xingli/share/LiteOS_Lab/build/linux_mqtt_demo/src/main.c **** #endif   ///<endfor tls
 354:/home/xingli/share/LiteOS_Lab/build/linux_mqtt_demo/src/main.c **** 
 355:/home/xingli/share/LiteOS_Lab/build/linux_mqtt_demo/src/main.c ****     ret = oc_mqtt_profile_connect(&connect_para);
 596              		.loc 1 355 11
 597 00cd 488D8570 		leaq	-144(%rbp), %rax
 597      FFFFFF
 598 00d4 4889C7   		movq	%rax, %rdi
 599 00d7 E8000000 		call	oc_mqtt_profile_connect@PLT
 599      00
 600              		.loc 1 355 9
 601 00dc 898564FF 		movl	%eax, -156(%rbp)
 601      FFFF
 356:/home/xingli/share/LiteOS_Lab/build/linux_mqtt_demo/src/main.c ****     printf("ret = %u\n", ret);
 602              		.loc 1 356 5
 603 00e2 8B8564FF 		movl	-156(%rbp), %eax
GAS LISTING /tmp/ccHEyQkD.s 			page 21


 603      FFFF
 604 00e8 89C6     		movl	%eax, %esi
 605 00ea 488D3D00 		leaq	.LC17(%rip), %rdi
 605      000000
 606 00f1 B8000000 		movl	$0, %eax
 606      00
 607 00f6 E8000000 		call	printf@PLT
 607      00
 357:/home/xingli/share/LiteOS_Lab/build/linux_mqtt_demo/src/main.c ****     if ((int)en_oc_mqtt_err_ok == ret) {
 608              		.loc 1 357 8
 609 00fb 83BD64FF 		cmpl	$0, -156(%rbp)
 609      FFFF00
 610 0102 7518     		jne	.L31
 358:/home/xingli/share/LiteOS_Lab/build/linux_mqtt_demo/src/main.c ****         g_app_cb.connected = 1;
 611              		.loc 1 358 28
 612 0104 C7050000 		movl	$1, 8+g_app_cb(%rip)
 612      00000100 
 612      0000
 359:/home/xingli/share/LiteOS_Lab/build/linux_mqtt_demo/src/main.c ****         printf("oc_mqtt_profile_connect succed!\r\n");
 613              		.loc 1 359 9
 614 010e 488D3D00 		leaq	.LC18(%rip), %rdi
 614      000000
 615 0115 E8000000 		call	puts@PLT
 615      00
 616 011a EB0C     		jmp	.L38
 617              	.L31:
 360:/home/xingli/share/LiteOS_Lab/build/linux_mqtt_demo/src/main.c ****     } else {
 361:/home/xingli/share/LiteOS_Lab/build/linux_mqtt_demo/src/main.c ****         printf("oc_mqtt_profile_connect faild!\r\n");
 618              		.loc 1 361 9
 619 011c 488D3D00 		leaq	.LC19(%rip), %rdi
 619      000000
 620 0123 E8000000 		call	puts@PLT
 620      00
 621              	.L38:
 362:/home/xingli/share/LiteOS_Lab/build/linux_mqtt_demo/src/main.c ****     }
 363:/home/xingli/share/LiteOS_Lab/build/linux_mqtt_demo/src/main.c **** 
 364:/home/xingli/share/LiteOS_Lab/build/linux_mqtt_demo/src/main.c ****     while (1) {
 365:/home/xingli/share/LiteOS_Lab/build/linux_mqtt_demo/src/main.c ****         app_msg = NULL;
 622              		.loc 1 365 17
 623 0128 48C78568 		movq	$0, -152(%rbp)
 623      FFFFFF00 
 623      000000
 366:/home/xingli/share/LiteOS_Lab/build/linux_mqtt_demo/src/main.c ****         (void)queue_pop(g_app_cb.app_msg, (void**)&app_msg, (int)cn_osal_timeout_forever);
 624              		.loc 1 366 15
 625 0133 488B0500 		movq	g_app_cb(%rip), %rax
 625      000000
 626 013a 488D8D68 		leaq	-152(%rbp), %rcx
 626      FFFFFF
 627 0141 BAFFFFFF 		movl	$-1, %edx
 627      FF
 628 0146 4889CE   		movq	%rcx, %rsi
 629 0149 4889C7   		movq	%rax, %rdi
 630 014c E8000000 		call	queue_pop@PLT
 630      00
 367:/home/xingli/share/LiteOS_Lab/build/linux_mqtt_demo/src/main.c ****         if (app_msg != NULL) {
 631              		.loc 1 367 21
 632 0151 488B8568 		movq	-152(%rbp), %rax
GAS LISTING /tmp/ccHEyQkD.s 			page 22


 632      FFFFFF
 633              		.loc 1 367 12
 634 0158 4885C0   		testq	%rax, %rax
 635 015b 74CB     		je	.L38
 368:/home/xingli/share/LiteOS_Lab/build/linux_mqtt_demo/src/main.c ****             switch (app_msg->msg_type) {
 636              		.loc 1 368 28
 637 015d 488B8568 		movq	-152(%rbp), %rax
 637      FFFFFF
 638 0164 8B00     		movl	(%rax), %eax
 639              		.loc 1 368 13
 640 0166 85C0     		testl	%eax, %eax
 641 0168 7407     		je	.L34
 642 016a 83F801   		cmpl	$1, %eax
 643 016d 7417     		je	.L35
 369:/home/xingli/share/LiteOS_Lab/build/linux_mqtt_demo/src/main.c ****                 case en_msg_cmd:
 370:/home/xingli/share/LiteOS_Lab/build/linux_mqtt_demo/src/main.c ****                     deal_cmd_msg(&app_msg->msg.cmd);
 371:/home/xingli/share/LiteOS_Lab/build/linux_mqtt_demo/src/main.c ****                     break;
 372:/home/xingli/share/LiteOS_Lab/build/linux_mqtt_demo/src/main.c ****                 case en_msg_report:
 373:/home/xingli/share/LiteOS_Lab/build/linux_mqtt_demo/src/main.c ****                     deal_report_msg(&app_msg->msg.report);
 374:/home/xingli/share/LiteOS_Lab/build/linux_mqtt_demo/src/main.c ****                     break;
 375:/home/xingli/share/LiteOS_Lab/build/linux_mqtt_demo/src/main.c ****                 default:
 376:/home/xingli/share/LiteOS_Lab/build/linux_mqtt_demo/src/main.c ****                     break;
 644              		.loc 1 376 21
 645 016f EB29     		jmp	.L37
 646              	.L34:
 370:/home/xingli/share/LiteOS_Lab/build/linux_mqtt_demo/src/main.c ****                     break;
 647              		.loc 1 370 42
 648 0171 488B8568 		movq	-152(%rbp), %rax
 648      FFFFFF
 370:/home/xingli/share/LiteOS_Lab/build/linux_mqtt_demo/src/main.c ****                     break;
 649              		.loc 1 370 21
 650 0178 4883C008 		addq	$8, %rax
 651 017c 4889C7   		movq	%rax, %rdi
 652 017f E8000000 		call	deal_cmd_msg
 652      00
 371:/home/xingli/share/LiteOS_Lab/build/linux_mqtt_demo/src/main.c ****                 case en_msg_report:
 653              		.loc 1 371 21
 654 0184 EB14     		jmp	.L37
 655              	.L35:
 373:/home/xingli/share/LiteOS_Lab/build/linux_mqtt_demo/src/main.c ****                     break;
 656              		.loc 1 373 45
 657 0186 488B8568 		movq	-152(%rbp), %rax
 657      FFFFFF
 373:/home/xingli/share/LiteOS_Lab/build/linux_mqtt_demo/src/main.c ****                     break;
 658              		.loc 1 373 21
 659 018d 4883C008 		addq	$8, %rax
 660 0191 4889C7   		movq	%rax, %rdi
 661 0194 E8000000 		call	deal_report_msg
 661      00
 374:/home/xingli/share/LiteOS_Lab/build/linux_mqtt_demo/src/main.c ****                 default:
 662              		.loc 1 374 21
 663 0199 90       		nop
 664              	.L37:
 377:/home/xingli/share/LiteOS_Lab/build/linux_mqtt_demo/src/main.c ****             }
 378:/home/xingli/share/LiteOS_Lab/build/linux_mqtt_demo/src/main.c ****             free(app_msg);
 665              		.loc 1 378 13
 666 019a 488B8568 		movq	-152(%rbp), %rax
GAS LISTING /tmp/ccHEyQkD.s 			page 23


 666      FFFFFF
 667 01a1 4889C7   		movq	%rax, %rdi
 668 01a4 E8000000 		call	free@PLT
 668      00
 365:/home/xingli/share/LiteOS_Lab/build/linux_mqtt_demo/src/main.c ****         (void)queue_pop(g_app_cb.app_msg, (void**)&app_msg, (int)cn_osal_timeout_forever);
 669              		.loc 1 365 17
 670 01a9 E97AFFFF 		jmp	.L38
 670      FF
 671              		.cfi_endproc
 672              	.LFE10:
 674              		.section	.rodata
 675              	.LC20:
 676 0170 53656E73 		.string	"SensorTaskEntry start!\r"
 676      6F725461 
 676      736B456E 
 676      74727920 
 676      73746172 
 677              	.LC21:
 678 0188 53656E73 		.string	"SensorTaskEntry loop start!\r"
 678      6F725461 
 678      736B456E 
 678      74727920 
 678      6C6F6F70 
 679              		.section	.text.SensorTaskEntry,"ax",@progbits
 681              	SensorTaskEntry:
 682              	.LFB11:
 379:/home/xingli/share/LiteOS_Lab/build/linux_mqtt_demo/src/main.c ****         }
 380:/home/xingli/share/LiteOS_Lab/build/linux_mqtt_demo/src/main.c ****     }
 381:/home/xingli/share/LiteOS_Lab/build/linux_mqtt_demo/src/main.c ****     return 0;
 382:/home/xingli/share/LiteOS_Lab/build/linux_mqtt_demo/src/main.c **** }
 383:/home/xingli/share/LiteOS_Lab/build/linux_mqtt_demo/src/main.c **** 
 384:/home/xingli/share/LiteOS_Lab/build/linux_mqtt_demo/src/main.c **** static int SensorTaskEntry(void *args)
 385:/home/xingli/share/LiteOS_Lab/build/linux_mqtt_demo/src/main.c **** {
 683              		.loc 1 385 1
 684              		.cfi_startproc
 685 0000 F30F1EFA 		endbr64
 686 0004 55       		pushq	%rbp
 687              	.LCFI14:
 688              		.cfi_def_cfa_offset 16
 689              		.cfi_offset 6, -16
 690 0005 4889E5   		movq	%rsp, %rbp
 691              	.LCFI15:
 692              		.cfi_def_cfa_register 6
 693 0008 4883EC20 		subq	$32, %rsp
 694 000c 48897DE8 		movq	%rdi, -24(%rbp)
 695              		.loc 1 385 1
 696 0010 64488B04 		movq	%fs:40, %rax
 696      25280000 
 696      00
 697 0019 488945F8 		movq	%rax, -8(%rbp)
 698 001d 31C0     		xorl	%eax, %eax
 386:/home/xingli/share/LiteOS_Lab/build/linux_mqtt_demo/src/main.c ****     app_msg_t* app_msg;
 387:/home/xingli/share/LiteOS_Lab/build/linux_mqtt_demo/src/main.c **** 
 388:/home/xingli/share/LiteOS_Lab/build/linux_mqtt_demo/src/main.c ****     printf("SensorTaskEntry start!\r\n");
 699              		.loc 1 388 5
 700 001f 488D3D00 		leaq	.LC20(%rip), %rdi
 700      000000
GAS LISTING /tmp/ccHEyQkD.s 			page 24


 701 0026 E8000000 		call	puts@PLT
 701      00
 702              	.L42:
 389:/home/xingli/share/LiteOS_Lab/build/linux_mqtt_demo/src/main.c ****         
 390:/home/xingli/share/LiteOS_Lab/build/linux_mqtt_demo/src/main.c ****     while (1) {
 391:/home/xingli/share/LiteOS_Lab/build/linux_mqtt_demo/src/main.c ****         printf("SensorTaskEntry loop start!\r\n");
 703              		.loc 1 391 9
 704 002b 488D3D00 		leaq	.LC21(%rip), %rdi
 704      000000
 705 0032 E8000000 		call	puts@PLT
 705      00
 392:/home/xingli/share/LiteOS_Lab/build/linux_mqtt_demo/src/main.c ****             
 393:/home/xingli/share/LiteOS_Lab/build/linux_mqtt_demo/src/main.c ****         app_msg = malloc(sizeof(app_msg_t));
 706              		.loc 1 393 19
 707 0037 BF180000 		movl	$24, %edi
 707      00
 708 003c E8000000 		call	malloc@PLT
 708      00
 709 0041 488945F0 		movq	%rax, -16(%rbp)
 394:/home/xingli/share/LiteOS_Lab/build/linux_mqtt_demo/src/main.c ****         if (app_msg != NULL) {
 710              		.loc 1 394 12
 711 0045 48837DF0 		cmpq	$0, -16(%rbp)
 711      00
 712 004a 7456     		je	.L41
 395:/home/xingli/share/LiteOS_Lab/build/linux_mqtt_demo/src/main.c ****             app_msg->msg_type = en_msg_report;
 713              		.loc 1 395 31
 714 004c 488B45F0 		movq	-16(%rbp), %rax
 715 0050 C7000100 		movl	$1, (%rax)
 715      0000
 396:/home/xingli/share/LiteOS_Lab/build/linux_mqtt_demo/src/main.c ****             app_msg->msg.report.hum = 52;
 716              		.loc 1 396 37
 717 0056 488B45F0 		movq	-16(%rbp), %rax
 718 005a C7401034 		movl	$52, 16(%rax)
 718      000000
 397:/home/xingli/share/LiteOS_Lab/build/linux_mqtt_demo/src/main.c ****             app_msg->msg.report.lum = 227;
 719              		.loc 1 397 37
 720 0061 488B45F0 		movq	-16(%rbp), %rax
 721 0065 C74008E3 		movl	$227, 8(%rax)
 721      000000
 398:/home/xingli/share/LiteOS_Lab/build/linux_mqtt_demo/src/main.c ****             app_msg->msg.report.temp = 27;
 722              		.loc 1 398 38
 723 006c 488B45F0 		movq	-16(%rbp), %rax
 724 0070 C7400C1B 		movl	$27, 12(%rax)
 724      000000
 399:/home/xingli/share/LiteOS_Lab/build/linux_mqtt_demo/src/main.c ****             if (queue_push(g_app_cb.app_msg, app_msg, CONFIG_QUEUE_TIMEOUT) != 0) {
 725              		.loc 1 399 17
 726 0077 488B0500 		movq	g_app_cb(%rip), %rax
 726      000000
 727 007e 488B4DF0 		movq	-16(%rbp), %rcx
 728 0082 BA881300 		movl	$5000, %edx
 728      00
 729 0087 4889CE   		movq	%rcx, %rsi
 730 008a 4889C7   		movq	%rax, %rdi
 731 008d E8000000 		call	queue_push@PLT
 731      00
 732              		.loc 1 399 16
 733 0092 85C0     		testl	%eax, %eax
GAS LISTING /tmp/ccHEyQkD.s 			page 25


 734 0094 740C     		je	.L41
 400:/home/xingli/share/LiteOS_Lab/build/linux_mqtt_demo/src/main.c ****                 free(app_msg);
 735              		.loc 1 400 17
 736 0096 488B45F0 		movq	-16(%rbp), %rax
 737 009a 4889C7   		movq	%rax, %rdi
 738 009d E8000000 		call	free@PLT
 738      00
 739              	.L41:
 401:/home/xingli/share/LiteOS_Lab/build/linux_mqtt_demo/src/main.c ****             }
 402:/home/xingli/share/LiteOS_Lab/build/linux_mqtt_demo/src/main.c ****         }
 403:/home/xingli/share/LiteOS_Lab/build/linux_mqtt_demo/src/main.c ****         osal_task_sleep(2000);
 740              		.loc 1 403 9
 741 00a2 BFD00700 		movl	$2000, %edi
 741      00
 742 00a7 E8000000 		call	osal_task_sleep@PLT
 742      00
 391:/home/xingli/share/LiteOS_Lab/build/linux_mqtt_demo/src/main.c ****             
 743              		.loc 1 391 9
 744 00ac E97AFFFF 		jmp	.L42
 744      FF
 745              		.cfi_endproc
 746              	.LFE11:
 748              		.section	.rodata
 749              	.LC22:
 750 01a5 436C6F75 		.string	"CloudMainTaskEntry"
 750      644D6169 
 750      6E546173 
 750      6B456E74 
 750      727900
 751              	.LC23:
 752 01b8 53656E73 		.string	"SensorTaskEntry"
 752      6F725461 
 752      736B456E 
 752      74727900 
 753              		.section	.text.main,"ax",@progbits
 754              		.globl	main
 756              	main:
 757              	.LFB12:
 404:/home/xingli/share/LiteOS_Lab/build/linux_mqtt_demo/src/main.c ****     }
 405:/home/xingli/share/LiteOS_Lab/build/linux_mqtt_demo/src/main.c ****     return 0;
 406:/home/xingli/share/LiteOS_Lab/build/linux_mqtt_demo/src/main.c **** }
 407:/home/xingli/share/LiteOS_Lab/build/linux_mqtt_demo/src/main.c **** 
 408:/home/xingli/share/LiteOS_Lab/build/linux_mqtt_demo/src/main.c **** int main(void)
 409:/home/xingli/share/LiteOS_Lab/build/linux_mqtt_demo/src/main.c **** {
 758              		.loc 1 409 1
 759              		.cfi_startproc
 760 0000 F30F1EFA 		endbr64
 761 0004 55       		pushq	%rbp
 762              	.LCFI16:
 763              		.cfi_def_cfa_offset 16
 764              		.cfi_offset 6, -16
 765 0005 4889E5   		movq	%rsp, %rbp
 766              	.LCFI17:
 767              		.cfi_def_cfa_register 6
 768 0008 4883EC10 		subq	$16, %rsp
 769              		.loc 1 409 1
 770 000c 64488B04 		movq	%fs:40, %rax
GAS LISTING /tmp/ccHEyQkD.s 			page 26


 770      25280000 
 770      00
 771 0015 488945F8 		movq	%rax, -8(%rbp)
 772 0019 31C0     		xorl	%eax, %eax
 410:/home/xingli/share/LiteOS_Lab/build/linux_mqtt_demo/src/main.c ****     link_main(NULL);
 773              		.loc 1 410 5
 774 001b BF000000 		movl	$0, %edi
 774      00
 775 0020 E8000000 		call	link_main@PLT
 775      00
 411:/home/xingli/share/LiteOS_Lab/build/linux_mqtt_demo/src/main.c ****     (void) osal_task_create("CloudMainTaskEntry", CloudMainTaskEntry, NULL, 0x2000, NULL, 24);
 776              		.loc 1 411 12
 777 0025 41B91800 		movl	$24, %r9d
 777      0000
 778 002b 41B80000 		movl	$0, %r8d
 778      0000
 779 0031 B9002000 		movl	$8192, %ecx
 779      00
 780 0036 BA000000 		movl	$0, %edx
 780      00
 781 003b 488D3500 		leaq	CloudMainTaskEntry(%rip), %rsi
 781      000000
 782 0042 488D3D00 		leaq	.LC22(%rip), %rdi
 782      000000
 783 0049 E8000000 		call	osal_task_create@PLT
 783      00
 412:/home/xingli/share/LiteOS_Lab/build/linux_mqtt_demo/src/main.c ****     (void) osal_task_create("SensorTaskEntry", SensorTaskEntry, NULL, 0x1000, NULL, 23);
 784              		.loc 1 412 12
 785 004e 41B91700 		movl	$23, %r9d
 785      0000
 786 0054 41B80000 		movl	$0, %r8d
 786      0000
 787 005a B9001000 		movl	$4096, %ecx
 787      00
 788 005f BA000000 		movl	$0, %edx
 788      00
 789 0064 488D3500 		leaq	SensorTaskEntry(%rip), %rsi
 789      000000
 790 006b 488D3D00 		leaq	.LC23(%rip), %rdi
 790      000000
 791 0072 E8000000 		call	osal_task_create@PLT
 791      00
 792              	.L45:
 413:/home/xingli/share/LiteOS_Lab/build/linux_mqtt_demo/src/main.c ****     while (1)
 414:/home/xingli/share/LiteOS_Lab/build/linux_mqtt_demo/src/main.c ****     {
 415:/home/xingli/share/LiteOS_Lab/build/linux_mqtt_demo/src/main.c ****         osal_task_sleep(2000);
 793              		.loc 1 415 9 discriminator 1
 794 0077 BFD00700 		movl	$2000, %edi
 794      00
 795 007c E8000000 		call	osal_task_sleep@PLT
 795      00
 796 0081 EBF4     		jmp	.L45
 797              		.cfi_endproc
 798              	.LFE12:
 800              		.text
 801              	.Letext0:
 802              		.file 2 "/usr/lib/gcc/x86_64-linux-gnu/9/include/stddef.h"
GAS LISTING /tmp/ccHEyQkD.s 			page 27


 803              		.file 3 "/usr/include/x86_64-linux-gnu/bits/types.h"
 804              		.file 4 "/usr/include/x86_64-linux-gnu/bits/types/struct_FILE.h"
 805              		.file 5 "/usr/include/x86_64-linux-gnu/bits/types/FILE.h"
 806              		.file 6 "/usr/include/stdio.h"
 807              		.file 7 "/usr/include/x86_64-linux-gnu/bits/sys_errlist.h"
 808              		.file 8 "/usr/include/unistd.h"
 809              		.file 9 "/usr/include/x86_64-linux-gnu/bits/getopt_core.h"
 810              		.file 10 "/home/xingli/share/LiteOS_Lab/cJSON/cJSON.h"
 811              		.file 11 "/usr/include/x86_64-linux-gnu/bits/stdint-uintn.h"
 812              		.file 12 "/home/xingli/share/LiteOS_Lab/inc/dtls_al.h"
 813              		.file 13 "/home/xingli/share/LiteOS_Lab/oc/oc_mqtt/oc_mqtt_al/oc_mqtt_al.h"
 814              		.file 14 "/home/xingli/share/LiteOS_Lab/oc/oc_mqtt/oc_mqtt_profile_v5/oc_mqtt_profile.h"
 815              		.file 15 "/home/xingli/share/LiteOS_Lab/os/osal/osal_types.h"
 816              		.file 16 "/home/xingli/share/LiteOS_Lab/queue/queue.h"
 4080              		.section	.note.gnu.property,"a"
 4081              		.align 8
 4082 0000 04000000 		.long	 1f - 0f
 4083 0004 10000000 		.long	 4f - 1f
 4084 0008 05000000 		.long	 5
 4085              	0:
 4086 000c 474E5500 		.string	 "GNU"
 4087              	1:
 4088              		.align 8
 4089 0010 020000C0 		.long	 0xc0000002
 4090 0014 04000000 		.long	 3f - 2f
 4091              	2:
 4092 0018 03000000 		.long	 0x3
 4093              	3:
 4094 001c 00000000 		.align 8
 4095              	4:
GAS LISTING /tmp/ccHEyQkD.s 			page 28


DEFINED SYMBOLS
                            *ABS*:0000000000000000 main.c
     /tmp/ccHEyQkD.s:8      .bss.g_app_cb:0000000000000000 g_app_cb
     /tmp/ccHEyQkD.s:29     .text.deal_report_msg:0000000000000000 deal_report_msg
     /tmp/ccHEyQkD.s:170    .text.msg_rcv_callback:0000000000000000 msg_rcv_callback
     /tmp/ccHEyQkD.s:355    .text.oc_cmdresp:0000000000000000 oc_cmdresp
     /tmp/ccHEyQkD.s:414    .text.deal_cmd_msg:0000000000000000 deal_cmd_msg
     /tmp/ccHEyQkD.s:534    .text.CloudMainTaskEntry:0000000000000000 CloudMainTaskEntry
     /tmp/ccHEyQkD.s:681    .text.SensorTaskEntry:0000000000000000 SensorTaskEntry
     /tmp/ccHEyQkD.s:756    .text.main:0000000000000000 main

UNDEFINED SYMBOLS
_GLOBAL_OFFSET_TABLE_
oc_mqtt_profile_propertyreport
__stack_chk_fail
strlen
malloc
memcpy_s
queue_push
free
oc_mqtt_profile_cmdresp
cJSON_Parse
cJSON_GetObjectItem
cJSON_GetStringValue
strcmp
cJSON_Delete
queue_create
printf
memset
oc_mqtt_profile_connect
puts
queue_pop
osal_task_sleep
link_main
osal_task_create
