GAS LISTING /tmp/ccE3coaW.s 			page 1


   1              		.file	"main.c"
   2              		.text
   3              	.Ltext0:
   4              		.section	.rodata.s_server_ca,"a"
   5              		.align 32
   8              	s_server_ca:
   9 0000 202D2D2D 		.ascii	" -----BEGIN CERTIFICATE-----\r\nMIIDrzCCApegAwIBAgIQCDvgVpBC"
   9      2D2D4245 
   9      47494E20 
   9      43455254 
   9      49464943 
  10 003a 52724768 		.ascii	"RrGhdWrJWZHHSjANBgkqhkiG9w0BAQUFADBh\r\nMQswCQYDVQQGEwJVUzEV"
  10      6457724A 
  10      575A4848 
  10      536A414E 
  10      42676B71 
  11 0074 4D424D47 		.ascii	"MBMGA1UEChMMRGlnaUNlcnQgSW5jMRkwFwYDVQQLExB3\r\nd3cuZGlnaWNl"
  11      41315545 
  11      43684D4D 
  11      52476C6E 
  11      61554E6C 
  12 00ae 636E5175 		.ascii	"cnQuY29tMSAwHgYDVQQDExdEaWdpQ2VydCBHbG9iYWwgUm9vdCBD\r\nQTAe"
  12      59323974 
  12      4D534177 
  12      48675944 
  12      56515144 
  13 00e8 46773077 		.ascii	"Fw0wNjExMTAwMDAwMDBaFw0zMTExMTAwMDAwMDBaMGExCzAJBgNVBAYTAlVT"
  13      4E6A4578 
  13      4D544177 
  13      4D444177 
  13      4D444261 
  14 0124 0D0A4D52 		.ascii	"\r\nMRUwEwYDVQQKEwxEaWdpQ2VydCBJbmMxGTAXBgNVBAsTEHd3dy5kaWdp"
  14      55774577 
  14      59445651 
  14      514B4577 
  14      78456157 
  15 015e 59325679 		.ascii	"Y2VydC5j\r\nb20xIDAeBgNVBAMTF0RpZ2lDZXJ0IEdsb2JhbCBSb290IENB"
  15      6443356A 
  15      0D0A6232 
  15      30784944 
  15      41654267 
  16 0198 4D494942 		.ascii	"MIIBIjANBgkqhkiG\r\n9w0BAQEFAAOCAQ8AMIIBCgKCAQEA4jvhEXLeqKTT"
  16      496A414E 
  16      42676B71 
  16      686B6947 
  16      0D0A3977 
  17 01d2 6F316571 		.ascii	"o1eqUKKPC3eQyaKl7hLOllsB\r\nCSDMAZOnTjC3U/dDxGkAV53ijSLdhwZA"
  17      554B4B50 
  17      43336551 
  17      79614B6C 
  17      37684C4F 
  18 020c 4149454A 		.ascii	"AIEJzs4bg7/fzTtxRuLWZscFs3YnFo97\r\nnh6Vfe63SKMI2tavegw5BmV/"
  18      7A733462 
  18      67372F66 
  18      7A547478 
  18      52754C57 
  19 0246 536C3066 		.ascii	"Sl0fvBf4q77uKNd0f3p4mVmFaG5cIzJLv07A6Fpt\r\n43C/dxC//AH2hdmo"
GAS LISTING /tmp/ccE3coaW.s 			page 2


  19      76426634 
  19      71373775 
  19      4B4E6430 
  19      66337034 
  20 0280 52424259 		.ascii	"RBBYMql1GNXRor5H4idq9Joz+EkIYIvUX7Q6hL+hqkpMfT7P\r\nT19sdl6g"
  20      4D716C31 
  20      474E5852 
  20      6F723548 
  20      34696471 
  21 02ba 537A6552 		.ascii	"SzeRntwi5m3OFBqOasv+zbMUZBfHWymeMr/y7vrTC0LUq7dBMtoM1O/4\r\n"
  21      6E747769 
  21      356D334F 
  21      4642714F 
  21      6173762B 
  22 02f4 67645737 		.ascii	"gdW7jVg/tRvoSSiicNoxBN33shbyTApOB6jtSj1etX+jkMOvJwIDAQABo2Mw"
  22      6A56672F 
  22      7452766F 
  22      53536969 
  22      634E6F78 
  23 0330 5954414F 		.ascii	"YTAO\r\nBgNVHQ8BAf8EBAMCAYYwDwYDVR0TAQH/BAUwAwEB/zAdBgNVHQ4E"
  23      0D0A4267 
  23      4E564851 
  23      38424166 
  23      38454241 
  24 036a 46675155 		.ascii	"FgQUA95QNVbR\r\nTLtm8KPiGxvDl7I90VUwHwYDVR0jBBgwFoAUA95QNVbR"
  24      41393551 
  24      4E566252 
  24      0D0A544C 
  24      746D384B 
  25 03a4 544C746D 		.ascii	"TLtm8KPiGxvDl7I90VUw\r\nDQYJKoZIhvcNAQEFBQADggEBAMucN6pIExIK"
  25      384B5069 
  25      47787644 
  25      6C374939 
  25      30565577 
  26 03de 2B743145 		.ascii	"+t1EnE9SsPTfrgT1eXkIoyQY/Esr\r\nhMAtudXH/vTBH1jLuG2cenTnmCmr"
  26      6E453953 
  26      73505466 
  26      72675431 
  26      65586B49 
  27 0418 4562586A 		.ascii	"EbXjcKChzUyImZOMkXDiqw8cvpOp/2PV5Adg\r\n06O/nVsJ8dWO41P0jmP6"
  27      634B4368 
  27      7A557949 
  27      6D5A4F4D 
  27      6B584469 
  28 0452 50366662 		.ascii	"P6fbtGbfYmbW0W5BjfIttep3Sp+dWOIrWcBAI+0tKIJF\r\nPnlUkiaY4IBI"
  28      74476266 
  28      596D6257 
  28      30573542 
  28      6A664974 
  29 048c 71446676 		.ascii	"qDfv8NZ5YBberOgOzW6sRBc4L0na4UU+Krk2U886UAb3LujEV0ls\r\nYSEY"
  29      384E5A35 
  29      59426265 
  29      724F674F 
  29      7A573673 
  30 04c6 31515374 		.ascii	"1QSteDwsOoBrp+uvFRTp2InBuThs4pFsiv9kuXclVzDAGySj4dzp30d8tbQk"
  30      65447773 
  30      4F6F4272 
GAS LISTING /tmp/ccE3coaW.s 			page 3


  30      702B7576 
  30      46525470 
  31 0502 0D0A4341 		.ascii	"\r\nCAUw7C29C79Fv1C5qfPrmAESrciIxpg0X40KPMbp1ZWVbd4=\r\n----"
  31      55773743 
  31      32394337 
  31      39467631 
  31      43357166 
  32 053a 2D454E44 		.ascii	"-END CERTIFICATE-----\r\n-----BEGIN CERTIFICATE-----\r\nMIID"
  32      20434552 
  32      54494649 
  32      43415445 
  32      2D2D2D2D 
  33 0572 587A4343 		.ascii	"XzCCAkegAwIBAgILBAAAAAABIVhTCKIwDQYJKoZIhvcNAQELBQAwTDEgMB4G"
  33      416B6567 
  33      41774942 
  33      4167494C 
  33      42414141 
  34 05ae 0D0A4131 		.ascii	"\r\nA1UECxMXR2xvYmFsU2lnbiBSb290IENBIC0gUjMxEzARBgNVBAoTCkds"
  34      55454378 
  34      4D585232 
  34      7876596D 
  34      46735532 
  35 05e8 62324A68 		.ascii	"b2JhbFNp\r\nZ24xEzARBgNVBAMTCkdsb2JhbFNpZ24wHhcNMDkwMzE4MTAw"
  35      62464E70 
  35      0D0A5A32 
  35      3478457A 
  35      41524267 
  36 0622 4D444177 		.ascii	"MDAwWhcNMjkwMzE4\r\nMTAwMDAwWjBMMSAwHgYDVQQLExdHbG9iYWxTaWdu"
  36      5768634E 
  36      4D6A6B77 
  36      4D7A4534 
  36      0D0A4D54 
  37 065c 49464A76 		.ascii	"IFJvb3QgQ0EgLSBSMzETMBEG\r\nA1UEChMKR2xvYmFsU2lnbjETMBEGA1UE"
  37      62335167 
  37      51304567 
  37      4C534253 
  37      4D7A4554 
  38 0696 41784D4B 		.ascii	"AxMKR2xvYmFsU2lnbjCCASIwDQYJKoZI\r\nhvcNAQEBBQADggEPADCCAQoC"
  38      52327876 
  38      596D4673 
  38      55326C6E 
  38      626A4343 
  39 06d0 67674542 		.ascii	"ggEBAMwldpB5BngiFvXAg7aEyiie/QV2EcWtiHL8\r\nRgJDx7KKnQRfJMsu"
  39      414D776C 
  39      64704235 
  39      426E6769 
  39      46765841 
  40 070a 532B4667 		.ascii	"S+FggkbhUqsMgUdwbN1k0ev1LKMPgj0MK66X17YUhhB5uzsT\r\ngHeMCOFJ"
  40      676B6268 
  40      5571734D 
  40      67556477 
  40      624E316B 
  41 0744 306D7069 		.ascii	"0mpiLx9e+pZo34knlTifBtc+ycsmWQ1z3rDI6SYOgxXG71uL0gRgykmm\r\n"
  41      4C783965 
  41      2B705A6F 
  41      33346B6E 
  41      6C546966 
GAS LISTING /tmp/ccE3coaW.s 			page 4


  42 077e 4B505A70 		.ascii	"KPZpO/bLyCiR5Z2KYVc3rHQU3HTgOu5yLy6c+9C7v/U9AOEGM+iCK65TpjoW"
  42      4F2F624C 
  42      79436952 
  42      355A324B 
  42      59566333 
  43 07ba 63347A64 		.ascii	"c4zd\r\nQQ4gOsC0p6Hpsk+Q"
  43      0D0A5151 
  43      34674F73 
  43      43307036 
  43      4870736B 
  44 07d0 4C6A4A67 		.ascii	"LjJg6VfLuQSSaGjlOCZgdbKfd/+RFO+uIEn8rUAVSNECMWEZ\r\nXriX7613"
  44      3656664C 
  44      75515353 
  44      61476A6C 
  44      4F435A67 
  45 080a 74325361 		.ascii	"t2Saer9fwRPvm2L7DWzgVGkWqQPabumDk3F2xmmFghcCAwEAAaNCMEAw\r\n"
  45      65723966 
  45      77525076 
  45      6D324C37 
  45      44577A67 
  46 0844 44675944 		.ascii	"DgYDVR0PAQH/BAQDAgEGMA8GA1UdEwEB/wQFMAMBAf8wHQYDVR0OBBYEFI/w"
  46      56523050 
  46      4151482F 
  46      42415144 
  46      41674547 
  47 0880 53332B6F 		.ascii	"S3+o\r\nLkUkrk1Q+mOai97i3Ru8MA0GCSqGSIb3DQEBCwUAA4IBAQBLQNvA"
  47      0D0A4C6B 
  47      556B726B 
  47      31512B6D 
  47      4F616939 
  48 08ba 554B722B 		.ascii	"UKr+yAzv95ZU\r\nRUm7lgAJQayzE4aGKAczymvmdLm6AC2upArT9fHxD4q/"
  48      79417A76 
  48      39355A55 
  48      0D0A5255 
  48      6D376C67 
  49 08f4 6332644B 		.ascii	"c2dKg8dEe3jgr25sbwMp\r\njjM5RcOO5LlXbKr8EpbsU8Yt5CRsuZRj+9xT"
  49      67386445 
  49      65336A67 
  49      72323573 
  49      62774D70 
  50 092e 61476457 		.ascii	"aGdWP"
  50      50
  51 0933 6F4F347A 		.string	"oO4zzUhw8lo/s7awlOqzJCK\r\n6fBdRoyV3XpYKBovHd7NADdBj+1EbddTKJd+82cEHhXXipa0095MJ6RMG3Nzdv
  51      7A556877 
  51      386C6F2F 
  51      73376177 
  51      6C4F717A 
  52              		.section	.bss.g_app_cb,"aw",@nobits
  53              		.align 16
  56              	g_app_cb:
  57 0000 00000000 		.zero	24
  57      00000000 
  57      00000000 
  57      00000000 
  57      00000000 
  58              		.section	.rodata
  59              	.LC0:
GAS LISTING /tmp/ccE3coaW.s 			page 5


  60 0000 41677269 		.string	"Agriculture"
  60      63756C74 
  60      75726500 
  61              	.LC1:
  62 000c 54656D70 		.string	"Temperature"
  62      65726174 
  62      75726500 
  63              	.LC2:
  64 0018 48756D69 		.string	"Humidity"
  64      64697479 
  64      00
  65              	.LC3:
  66 0021 4C756D69 		.string	"Luminance"
  66      6E616E63 
  66      6500
  67              	.LC4:
  68 002b 4C696768 		.string	"LightStatus"
  68      74537461 
  68      74757300 
  69              	.LC5:
  70 0037 4F4E00   		.string	"ON"
  71              	.LC6:
  72 003a 4F464600 		.string	"OFF"
  73              	.LC7:
  74 003e 4D6F746F 		.string	"MotorStatus"
  74      72537461 
  74      74757300 
  75              		.section	.text.deal_report_msg,"ax",@progbits
  77              	deal_report_msg:
  78              	.LFB6:
  79              		.file 1 "/home/xingli/share/1205tiny/build/linux_mqtt_demo/src/main.c"
   1:/home/xingli/share/1205tiny/build/linux_mqtt_demo/src/main.c **** /*----------------------------------------------------------------------------
   2:/home/xingli/share/1205tiny/build/linux_mqtt_demo/src/main.c ****  * Copyright (c) <2016-2018>, <Huawei Technologies Co., Ltd>
   3:/home/xingli/share/1205tiny/build/linux_mqtt_demo/src/main.c ****  * All rights reserved.
   4:/home/xingli/share/1205tiny/build/linux_mqtt_demo/src/main.c ****  * Redistribution and use in source and binary forms, with or without modification,
   5:/home/xingli/share/1205tiny/build/linux_mqtt_demo/src/main.c ****  * are permitted provided that the following conditions are met:
   6:/home/xingli/share/1205tiny/build/linux_mqtt_demo/src/main.c ****  * 1. Redistributions of source code must retain the above copyright notice, this list of
   7:/home/xingli/share/1205tiny/build/linux_mqtt_demo/src/main.c ****  * conditions and the following disclaimer.
   8:/home/xingli/share/1205tiny/build/linux_mqtt_demo/src/main.c ****  * 2. Redistributions in binary form must reproduce the above copyright notice, this list
   9:/home/xingli/share/1205tiny/build/linux_mqtt_demo/src/main.c ****  * of conditions and the following disclaimer in the documentation and/or other materials
  10:/home/xingli/share/1205tiny/build/linux_mqtt_demo/src/main.c ****  * provided with the distribution.
  11:/home/xingli/share/1205tiny/build/linux_mqtt_demo/src/main.c ****  * 3. Neither the name of the copyright holder nor the names of its contributors may be used
  12:/home/xingli/share/1205tiny/build/linux_mqtt_demo/src/main.c ****  * to endorse or promote products derived from this software without specific prior written
  13:/home/xingli/share/1205tiny/build/linux_mqtt_demo/src/main.c ****  * permission.
  14:/home/xingli/share/1205tiny/build/linux_mqtt_demo/src/main.c ****  * THIS SOFTWARE IS PROVIDED BY THE COPYRIGHT HOLDERS AND CONTRIBUTORS
  15:/home/xingli/share/1205tiny/build/linux_mqtt_demo/src/main.c ****  * "AS IS" AND ANY EXPRESS OR IMPLIED WARRANTIES, INCLUDING, BUT NOT LIMITED TO,
  16:/home/xingli/share/1205tiny/build/linux_mqtt_demo/src/main.c ****  * THE IMPLIED WARRANTIES OF MERCHANTABILITY AND FITNESS FOR A PARTICULAR
  17:/home/xingli/share/1205tiny/build/linux_mqtt_demo/src/main.c ****  * PURPOSE ARE DISCLAIMED. IN NO EVENT SHALL THE COPYRIGHT HOLDER OR
  18:/home/xingli/share/1205tiny/build/linux_mqtt_demo/src/main.c ****  * CONTRIBUTORS BE LIABLE FOR ANY DIRECT, INDIRECT, INCIDENTAL, SPECIAL,
  19:/home/xingli/share/1205tiny/build/linux_mqtt_demo/src/main.c ****  * EXEMPLARY, OR CONSEQUENTIAL DAMAGES (INCLUDING, BUT NOT LIMITED TO,
  20:/home/xingli/share/1205tiny/build/linux_mqtt_demo/src/main.c ****  * PROCUREMENT OF SUBSTITUTE GOODS OR SERVICES; LOSS OF USE, DATA, OR PROFITS;
  21:/home/xingli/share/1205tiny/build/linux_mqtt_demo/src/main.c ****  * OR BUSINESS INTERRUPTION) HOWEVER CAUSED AND ON ANY THEORY OF LIABILITY,
  22:/home/xingli/share/1205tiny/build/linux_mqtt_demo/src/main.c ****  * WHETHER IN CONTRACT, STRICT LIABILITY, OR TORT (INCLUDING NEGLIGENCE OR
  23:/home/xingli/share/1205tiny/build/linux_mqtt_demo/src/main.c ****  * OTHERWISE) ARISING IN ANY WAY OUT OF THE USE OF THIS SOFTWARE, EVEN IF
  24:/home/xingli/share/1205tiny/build/linux_mqtt_demo/src/main.c ****  * ADVISED OF THE POSSIBILITY OF SUCH DAMAGE.
  25:/home/xingli/share/1205tiny/build/linux_mqtt_demo/src/main.c ****  *---------------------------------------------------------------------------*/
  26:/home/xingli/share/1205tiny/build/linux_mqtt_demo/src/main.c **** /*----------------------------------------------------------------------------
GAS LISTING /tmp/ccE3coaW.s 			page 6


  27:/home/xingli/share/1205tiny/build/linux_mqtt_demo/src/main.c ****  * Notice of Export Control Law
  28:/home/xingli/share/1205tiny/build/linux_mqtt_demo/src/main.c ****  * ===============================================
  29:/home/xingli/share/1205tiny/build/linux_mqtt_demo/src/main.c ****  * Huawei LiteOS may be subject to applicable export control laws and regulations, which might
  30:/home/xingli/share/1205tiny/build/linux_mqtt_demo/src/main.c ****  * include those applicable to Huawei LiteOS of U.S. and the country in which you are located.
  31:/home/xingli/share/1205tiny/build/linux_mqtt_demo/src/main.c ****  * Import, export and usage of Huawei LiteOS in any manner by you shall be in compliance with such
  32:/home/xingli/share/1205tiny/build/linux_mqtt_demo/src/main.c ****  * applicable export control laws and regulations.
  33:/home/xingli/share/1205tiny/build/linux_mqtt_demo/src/main.c ****  *---------------------------------------------------------------------------*/
  34:/home/xingli/share/1205tiny/build/linux_mqtt_demo/src/main.c **** 
  35:/home/xingli/share/1205tiny/build/linux_mqtt_demo/src/main.c **** #include <stdio.h>
  36:/home/xingli/share/1205tiny/build/linux_mqtt_demo/src/main.c **** #include <stdlib.h>
  37:/home/xingli/share/1205tiny/build/linux_mqtt_demo/src/main.c **** #include <string.h>
  38:/home/xingli/share/1205tiny/build/linux_mqtt_demo/src/main.c **** #include <unistd.h>
  39:/home/xingli/share/1205tiny/build/linux_mqtt_demo/src/main.c **** 
  40:/home/xingli/share/1205tiny/build/linux_mqtt_demo/src/main.c **** #include "cJSON.h"
  41:/home/xingli/share/1205tiny/build/linux_mqtt_demo/src/main.c **** #include "dtls_al.h"
  42:/home/xingli/share/1205tiny/build/linux_mqtt_demo/src/main.c **** #include "mqtt_al.h"
  43:/home/xingli/share/1205tiny/build/linux_mqtt_demo/src/main.c **** #include "oc_mqtt_al.h"
  44:/home/xingli/share/1205tiny/build/linux_mqtt_demo/src/main.c **** #include "oc_mqtt_event.h"
  45:/home/xingli/share/1205tiny/build/linux_mqtt_demo/src/main.c **** #include "oc_mqtt_profile.h"
  46:/home/xingli/share/1205tiny/build/linux_mqtt_demo/src/main.c **** #include "queue.h"
  47:/home/xingli/share/1205tiny/build/linux_mqtt_demo/src/main.c **** #include "iot_config.h"
  48:/home/xingli/share/1205tiny/build/linux_mqtt_demo/src/main.c **** #include "securec.h"
  49:/home/xingli/share/1205tiny/build/linux_mqtt_demo/src/main.c **** 
  50:/home/xingli/share/1205tiny/build/linux_mqtt_demo/src/main.c ****  #define CONFIG_OC_MQTTV5_DEMO_TLS 1
  51:/home/xingli/share/1205tiny/build/linux_mqtt_demo/src/main.c **** 
  52:/home/xingli/share/1205tiny/build/linux_mqtt_demo/src/main.c **** #ifdef CONFIG_OC_MQTTV5_BS
  53:/home/xingli/share/1205tiny/build/linux_mqtt_demo/src/main.c **** #define CN_SERVER_IPV4         "iot-bs.cn-north-4.myhuaweicloud.com"
  54:/home/xingli/share/1205tiny/build/linux_mqtt_demo/src/main.c **** //#define CN_SERVER_IPV4         "119.3.251.30"
  55:/home/xingli/share/1205tiny/build/linux_mqtt_demo/src/main.c **** #define CN_BOOT_MODE            1
  56:/home/xingli/share/1205tiny/build/linux_mqtt_demo/src/main.c **** #else
  57:/home/xingli/share/1205tiny/build/linux_mqtt_demo/src/main.c **** //#define CN_SERVER_IPV4     "2407:c080:17ef:ffff::7b3c:d5b1"//"123.60.213.177"// "iot-mqtts.cn-nor
  58:/home/xingli/share/1205tiny/build/linux_mqtt_demo/src/main.c **** #define CN_SERVER_IPV4         "121.36.42.100"
  59:/home/xingli/share/1205tiny/build/linux_mqtt_demo/src/main.c **** #define CN_BOOT_MODE            0
  60:/home/xingli/share/1205tiny/build/linux_mqtt_demo/src/main.c **** #endif
  61:/home/xingli/share/1205tiny/build/linux_mqtt_demo/src/main.c **** 
  62:/home/xingli/share/1205tiny/build/linux_mqtt_demo/src/main.c **** #ifdef CONFIG_OC_MQTTV5_DEMO_TLS
  63:/home/xingli/share/1205tiny/build/linux_mqtt_demo/src/main.c **** #define CN_SERVER_PORT "8883"
  64:/home/xingli/share/1205tiny/build/linux_mqtt_demo/src/main.c **** #define CN_SECURITY_TYPE EN_DTLS_AL_SECURITY_TYPE_CERT
  65:/home/xingli/share/1205tiny/build/linux_mqtt_demo/src/main.c **** 
  66:/home/xingli/share/1205tiny/build/linux_mqtt_demo/src/main.c **** ///< server key
  67:/home/xingli/share/1205tiny/build/linux_mqtt_demo/src/main.c **** static const char s_server_ca[] =
  68:/home/xingli/share/1205tiny/build/linux_mqtt_demo/src/main.c **** " -----BEGIN CERTIFICATE-----\r\n"
  69:/home/xingli/share/1205tiny/build/linux_mqtt_demo/src/main.c **** "MIIDrzCCApegAwIBAgIQCDvgVpBCRrGhdWrJWZHHSjANBgkqhkiG9w0BAQUFADBh\r\n"
  70:/home/xingli/share/1205tiny/build/linux_mqtt_demo/src/main.c **** "MQswCQYDVQQGEwJVUzEVMBMGA1UEChMMRGlnaUNlcnQgSW5jMRkwFwYDVQQLExB3\r\n"
  71:/home/xingli/share/1205tiny/build/linux_mqtt_demo/src/main.c **** "d3cuZGlnaWNlcnQuY29tMSAwHgYDVQQDExdEaWdpQ2VydCBHbG9iYWwgUm9vdCBD\r\n"
  72:/home/xingli/share/1205tiny/build/linux_mqtt_demo/src/main.c **** "QTAeFw0wNjExMTAwMDAwMDBaFw0zMTExMTAwMDAwMDBaMGExCzAJBgNVBAYTAlVT\r\n"
  73:/home/xingli/share/1205tiny/build/linux_mqtt_demo/src/main.c **** "MRUwEwYDVQQKEwxEaWdpQ2VydCBJbmMxGTAXBgNVBAsTEHd3dy5kaWdpY2VydC5j\r\n"
  74:/home/xingli/share/1205tiny/build/linux_mqtt_demo/src/main.c **** "b20xIDAeBgNVBAMTF0RpZ2lDZXJ0IEdsb2JhbCBSb290IENBMIIBIjANBgkqhkiG\r\n"
  75:/home/xingli/share/1205tiny/build/linux_mqtt_demo/src/main.c **** "9w0BAQEFAAOCAQ8AMIIBCgKCAQEA4jvhEXLeqKTTo1eqUKKPC3eQyaKl7hLOllsB\r\n"
  76:/home/xingli/share/1205tiny/build/linux_mqtt_demo/src/main.c **** "CSDMAZOnTjC3U/dDxGkAV53ijSLdhwZAAIEJzs4bg7/fzTtxRuLWZscFs3YnFo97\r\n"
  77:/home/xingli/share/1205tiny/build/linux_mqtt_demo/src/main.c **** "nh6Vfe63SKMI2tavegw5BmV/Sl0fvBf4q77uKNd0f3p4mVmFaG5cIzJLv07A6Fpt\r\n"
  78:/home/xingli/share/1205tiny/build/linux_mqtt_demo/src/main.c **** "43C/dxC//AH2hdmoRBBYMql1GNXRor5H4idq9Joz+EkIYIvUX7Q6hL+hqkpMfT7P\r\n"
  79:/home/xingli/share/1205tiny/build/linux_mqtt_demo/src/main.c **** "T19sdl6gSzeRntwi5m3OFBqOasv+zbMUZBfHWymeMr/y7vrTC0LUq7dBMtoM1O/4\r\n"
  80:/home/xingli/share/1205tiny/build/linux_mqtt_demo/src/main.c **** "gdW7jVg/tRvoSSiicNoxBN33shbyTApOB6jtSj1etX+jkMOvJwIDAQABo2MwYTAO\r\n"
  81:/home/xingli/share/1205tiny/build/linux_mqtt_demo/src/main.c **** "BgNVHQ8BAf8EBAMCAYYwDwYDVR0TAQH/BAUwAwEB/zAdBgNVHQ4EFgQUA95QNVbR\r\n"
  82:/home/xingli/share/1205tiny/build/linux_mqtt_demo/src/main.c **** "TLtm8KPiGxvDl7I90VUwHwYDVR0jBBgwFoAUA95QNVbRTLtm8KPiGxvDl7I90VUw\r\n"
  83:/home/xingli/share/1205tiny/build/linux_mqtt_demo/src/main.c **** "DQYJKoZIhvcNAQEFBQADggEBAMucN6pIExIK+t1EnE9SsPTfrgT1eXkIoyQY/Esr\r\n"
GAS LISTING /tmp/ccE3coaW.s 			page 7


  84:/home/xingli/share/1205tiny/build/linux_mqtt_demo/src/main.c **** "hMAtudXH/vTBH1jLuG2cenTnmCmrEbXjcKChzUyImZOMkXDiqw8cvpOp/2PV5Adg\r\n"
  85:/home/xingli/share/1205tiny/build/linux_mqtt_demo/src/main.c **** "06O/nVsJ8dWO41P0jmP6P6fbtGbfYmbW0W5BjfIttep3Sp+dWOIrWcBAI+0tKIJF\r\n"
  86:/home/xingli/share/1205tiny/build/linux_mqtt_demo/src/main.c **** "PnlUkiaY4IBIqDfv8NZ5YBberOgOzW6sRBc4L0na4UU+Krk2U886UAb3LujEV0ls\r\n"
  87:/home/xingli/share/1205tiny/build/linux_mqtt_demo/src/main.c **** "YSEY1QSteDwsOoBrp+uvFRTp2InBuThs4pFsiv9kuXclVzDAGySj4dzp30d8tbQk\r\n"
  88:/home/xingli/share/1205tiny/build/linux_mqtt_demo/src/main.c **** "CAUw7C29C79Fv1C5qfPrmAESrciIxpg0X40KPMbp1ZWVbd4=\r\n"
  89:/home/xingli/share/1205tiny/build/linux_mqtt_demo/src/main.c **** "-----END CERTIFICATE-----\r\n"
  90:/home/xingli/share/1205tiny/build/linux_mqtt_demo/src/main.c **** "-----BEGIN CERTIFICATE-----\r\n"
  91:/home/xingli/share/1205tiny/build/linux_mqtt_demo/src/main.c **** "MIIDXzCCAkegAwIBAgILBAAAAAABIVhTCKIwDQYJKoZIhvcNAQELBQAwTDEgMB4G\r\n"
  92:/home/xingli/share/1205tiny/build/linux_mqtt_demo/src/main.c **** "A1UECxMXR2xvYmFsU2lnbiBSb290IENBIC0gUjMxEzARBgNVBAoTCkdsb2JhbFNp\r\n"
  93:/home/xingli/share/1205tiny/build/linux_mqtt_demo/src/main.c **** "Z24xEzARBgNVBAMTCkdsb2JhbFNpZ24wHhcNMDkwMzE4MTAwMDAwWhcNMjkwMzE4\r\n"
  94:/home/xingli/share/1205tiny/build/linux_mqtt_demo/src/main.c **** "MTAwMDAwWjBMMSAwHgYDVQQLExdHbG9iYWxTaWduIFJvb3QgQ0EgLSBSMzETMBEG\r\n"
  95:/home/xingli/share/1205tiny/build/linux_mqtt_demo/src/main.c **** "A1UEChMKR2xvYmFsU2lnbjETMBEGA1UEAxMKR2xvYmFsU2lnbjCCASIwDQYJKoZI\r\n"
  96:/home/xingli/share/1205tiny/build/linux_mqtt_demo/src/main.c **** "hvcNAQEBBQADggEPADCCAQoCggEBAMwldpB5BngiFvXAg7aEyiie/QV2EcWtiHL8\r\n"
  97:/home/xingli/share/1205tiny/build/linux_mqtt_demo/src/main.c **** "RgJDx7KKnQRfJMsuS+FggkbhUqsMgUdwbN1k0ev1LKMPgj0MK66X17YUhhB5uzsT\r\n"
  98:/home/xingli/share/1205tiny/build/linux_mqtt_demo/src/main.c **** "gHeMCOFJ0mpiLx9e+pZo34knlTifBtc+ycsmWQ1z3rDI6SYOgxXG71uL0gRgykmm\r\n"
  99:/home/xingli/share/1205tiny/build/linux_mqtt_demo/src/main.c **** "KPZpO/bLyCiR5Z2KYVc3rHQU3HTgOu5yLy6c+9C7v/U9AOEGM+iCK65TpjoWc4zd\r\n"
 100:/home/xingli/share/1205tiny/build/linux_mqtt_demo/src/main.c **** "QQ4gOsC0p6Hpsk+QLjJg6VfLuQSSaGjlOCZgdbKfd/+RFO+uIEn8rUAVSNECMWEZ\r\n"
 101:/home/xingli/share/1205tiny/build/linux_mqtt_demo/src/main.c **** "XriX7613t2Saer9fwRPvm2L7DWzgVGkWqQPabumDk3F2xmmFghcCAwEAAaNCMEAw\r\n"
 102:/home/xingli/share/1205tiny/build/linux_mqtt_demo/src/main.c **** "DgYDVR0PAQH/BAQDAgEGMA8GA1UdEwEB/wQFMAMBAf8wHQYDVR0OBBYEFI/wS3+o\r\n"
 103:/home/xingli/share/1205tiny/build/linux_mqtt_demo/src/main.c **** "LkUkrk1Q+mOai97i3Ru8MA0GCSqGSIb3DQEBCwUAA4IBAQBLQNvAUKr+yAzv95ZU\r\n"
 104:/home/xingli/share/1205tiny/build/linux_mqtt_demo/src/main.c **** "RUm7lgAJQayzE4aGKAczymvmdLm6AC2upArT9fHxD4q/c2dKg8dEe3jgr25sbwMp\r\n"
 105:/home/xingli/share/1205tiny/build/linux_mqtt_demo/src/main.c **** "jjM5RcOO5LlXbKr8EpbsU8Yt5CRsuZRj+9xTaGdWPoO4zzUhw8lo/s7awlOqzJCK\r\n"
 106:/home/xingli/share/1205tiny/build/linux_mqtt_demo/src/main.c **** "6fBdRoyV3XpYKBovHd7NADdBj+1EbddTKJd+82cEHhXXipa0095MJ6RMG3NzdvQX\r\n"
 107:/home/xingli/share/1205tiny/build/linux_mqtt_demo/src/main.c **** "mcIfeg7jLQitChws/zyrVQ4PkX4268NXSb7hLi18YIvDQVETI53O9zJrlAGomecs\r\n"
 108:/home/xingli/share/1205tiny/build/linux_mqtt_demo/src/main.c **** "Mx86OyXShkDOOyyGeMlhLxS67ttVb9+E7gUJTb0o2HLO02JQZR7rkpeDMdmztcpH\r\n"
 109:/home/xingli/share/1205tiny/build/linux_mqtt_demo/src/main.c **** "WD9f\r\n"
 110:/home/xingli/share/1205tiny/build/linux_mqtt_demo/src/main.c **** "-----END CERTIFICATE-----\r\n";
 111:/home/xingli/share/1205tiny/build/linux_mqtt_demo/src/main.c **** 
 112:/home/xingli/share/1205tiny/build/linux_mqtt_demo/src/main.c **** #ifdef CONFIG_OC_MQTTV5_TLS_BIDIRECTION
 113:/home/xingli/share/1205tiny/build/linux_mqtt_demo/src/main.c **** 
 114:/home/xingli/share/1205tiny/build/linux_mqtt_demo/src/main.c **** ///< the client use the cert mode  SHA-256
 115:/home/xingli/share/1205tiny/build/linux_mqtt_demo/src/main.c **** //72DC0E75D88CEC38A025E9C48C79D222F608B039D080BCEFC0007DAD1AFFAD00
 116:/home/xingli/share/1205tiny/build/linux_mqtt_demo/src/main.c **** //72dc0e7
 117:/home/xingli/share/1205tiny/build/linux_mqtt_demo/src/main.c **** ///< bidirection  mqtt mode
 118:/home/xingli/share/1205tiny/build/linux_mqtt_demo/src/main.c **** static const char s_client_ca[] = \
 119:/home/xingli/share/1205tiny/build/linux_mqtt_demo/src/main.c **** "-----BEGIN CERTIFICATE-----\r\n"
 120:/home/xingli/share/1205tiny/build/linux_mqtt_demo/src/main.c **** "MIICuDCCAaACCQDAnCoP3W+otTANBgkqhkiG9w0BAQsFADAdMQswCQYDVQQGEwJD\r\n"
 121:/home/xingli/share/1205tiny/build/linux_mqtt_demo/src/main.c **** "QTEOMAwGA1UEAwwFTVkgQ0EwHhcNMjAwMjE3MTEyNTA2WhcNMjEwMjExMTEyNTA2\r\n"
 122:/home/xingli/share/1205tiny/build/linux_mqtt_demo/src/main.c **** "WjAfMQswCQYDVQQGEwJDTjEQMA4GA1UEAwwHQ0xJRU5UMjCCASIwDQYJKoZIhvcN\r\n"
 123:/home/xingli/share/1205tiny/build/linux_mqtt_demo/src/main.c **** "AQEBBQADggEPADCCAQoCggEBALKOOfeq1QQnwLNsMboqr47ClO24sTd6oLiSjGYe\r\n"
 124:/home/xingli/share/1205tiny/build/linux_mqtt_demo/src/main.c **** "zb7IECnjiEg+sILEH5avi6uKdCR8QZHskIWdQbNqi2h0E01MTxuneTCnFaAdYh2z\r\n"
 125:/home/xingli/share/1205tiny/build/linux_mqtt_demo/src/main.c **** "B8n4IUsGr1gyCayfKCQG8ElDElBkB2JMce/IEuxJvnFdhXy6c9zhj8iU+fusD9hm\r\n"
 126:/home/xingli/share/1205tiny/build/linux_mqtt_demo/src/main.c **** "jvx34zd6Sn2uRl8wdI89pVwkESKyx6J5za/dBWCS0hxvOtDEY2gJA9av8BNYjTxQ\r\n"
 127:/home/xingli/share/1205tiny/build/linux_mqtt_demo/src/main.c **** "tRlwnxGzgaza8aA9LMbnRmv1bML98w4NgNHkVGUtw1eQso0unHnyEF1WhqEu0pLk\r\n"
 128:/home/xingli/share/1205tiny/build/linux_mqtt_demo/src/main.c **** "BJQbdO4s4ajQ1rOr7niVnCT99KtzJuWm3oymNdDT6BHsnn0CAwEAATANBgkqhkiG\r\n"
 129:/home/xingli/share/1205tiny/build/linux_mqtt_demo/src/main.c **** "9w0BAQsFAAOCAQEAPayFtS8du8D+mPdRU96vFqVpDx6oksGhrUIO+3GZ4ruuHjtf\r\n"
 130:/home/xingli/share/1205tiny/build/linux_mqtt_demo/src/main.c **** "A764y6zD1/LxQVw15xN44G+AqUwEi/BZszQ+5rSitwqoZFciKMblaqd0ZJSG6G2d\r\n"
 131:/home/xingli/share/1205tiny/build/linux_mqtt_demo/src/main.c **** "Cqyl87cTL6Tlgpa5cBka4ksaMs2OVU9x1aaNnejrTbX2PvZO7o/pVVimQE8Yh+1J\r\n"
 132:/home/xingli/share/1205tiny/build/linux_mqtt_demo/src/main.c **** "k2D26hg9UoWN4Z3/9LdGC3y4dsmtuQS+Cye61ZfHtT3/XjTRjl9/c+xKtVsQpE6g\r\n"
 133:/home/xingli/share/1205tiny/build/linux_mqtt_demo/src/main.c **** "dpaGVxWpFUCpGe4POrNHjOOAXaFiCHP7o9Kab1UnxuFVKHCtNT9wdJ7v8puCliwB\r\n"
 134:/home/xingli/share/1205tiny/build/linux_mqtt_demo/src/main.c **** "t40h9oegMyUYL/VG+14wOYgEPuCeGqqilht+4w==\r\n"
 135:/home/xingli/share/1205tiny/build/linux_mqtt_demo/src/main.c **** "-----END CERTIFICATE-----\r\n";
 136:/home/xingli/share/1205tiny/build/linux_mqtt_demo/src/main.c **** static const char s_client_pk[]= \
 137:/home/xingli/share/1205tiny/build/linux_mqtt_demo/src/main.c **** "-----BEGIN PRIVATE KEY-----\r\n"
 138:/home/xingli/share/1205tiny/build/linux_mqtt_demo/src/main.c **** "MIIEvAIBADANBgkqhkiG9w0BAQEFAASCBKYwggSiAgEAAoIBAQCyjjn3qtUEJ8Cz\r\n"
 139:/home/xingli/share/1205tiny/build/linux_mqtt_demo/src/main.c **** "bDG6Kq+OwpTtuLE3eqC4koxmHs2+yBAp44hIPrCCxB+Wr4urinQkfEGR7JCFnUGz\r\n"
 140:/home/xingli/share/1205tiny/build/linux_mqtt_demo/src/main.c **** "aotodBNNTE8bp3kwpxWgHWIdswfJ+CFLBq9YMgmsnygkBvBJQxJQZAdiTHHvyBLs\r\n"
GAS LISTING /tmp/ccE3coaW.s 			page 8


 141:/home/xingli/share/1205tiny/build/linux_mqtt_demo/src/main.c **** "Sb5xXYV8unPc4Y/IlPn7rA/YZo78d+M3ekp9rkZfMHSPPaVcJBEisseiec2v3QVg\r\n"
 142:/home/xingli/share/1205tiny/build/linux_mqtt_demo/src/main.c **** "ktIcbzrQxGNoCQPWr/ATWI08ULUZcJ8Rs4Gs2vGgPSzG50Zr9WzC/fMODYDR5FRl\r\n"
 143:/home/xingli/share/1205tiny/build/linux_mqtt_demo/src/main.c **** "LcNXkLKNLpx58hBdVoahLtKS5ASUG3TuLOGo0Nazq+54lZwk/fSrcyblpt6MpjXQ\r\n"
 144:/home/xingli/share/1205tiny/build/linux_mqtt_demo/src/main.c **** "0+gR7J59AgMBAAECggEAFbjx2myhD6laazmdbx2kUATiI22Vub8kcG/7vqy+sRgb\r\n"
 145:/home/xingli/share/1205tiny/build/linux_mqtt_demo/src/main.c **** "x0zUFp3x0WbUxPtETbFBYfLv8zXJe0ffZ1lt7l44vu2qrh2Yw89/9QO+HQjbyLl0\r\n"
 146:/home/xingli/share/1205tiny/build/linux_mqtt_demo/src/main.c **** "K3F7wYoM3UBbnM5vSypqvvb8YvwT3G0FyFNMZPRQuhTg5Z1XZbqiEvki0Fvhx1sG\r\n"
 147:/home/xingli/share/1205tiny/build/linux_mqtt_demo/src/main.c **** "bksCKK85dPaH/7kXxMTPZ67/2Z3TlwUERo1YSPRnrQXGnDowudLqQjn8ptiPfO39\r\n"
 148:/home/xingli/share/1205tiny/build/linux_mqtt_demo/src/main.c **** "bIMQhM/HI1bTw4F5EevL7sS4rcnhpmQNU6ZeINPvYuel+hP36uPwTHMm1hkZbMgP\r\n"
 149:/home/xingli/share/1205tiny/build/linux_mqtt_demo/src/main.c **** "a69Yk8/meENffl9fQ+T8woYMGgKq0DM+O5ip7QzrLQKBgQDdvwI/9npuwpYkdjWT\r\n"
 150:/home/xingli/share/1205tiny/build/linux_mqtt_demo/src/main.c **** "tLj5BKFNINjn+TjyvN1QQmOhXqzTy1y9HVm7EYh1l0H5PY/WgYadBWNYabgNSIe0\r\n"
 151:/home/xingli/share/1205tiny/build/linux_mqtt_demo/src/main.c **** "vxl7tdDxDX4DBQqDIIEY45sPa3glq6flCgtPzkZxcYTvZpqmdX8/iMYGXHpdOMdm\r\n"
 152:/home/xingli/share/1205tiny/build/linux_mqtt_demo/src/main.c **** "S8jngobFDEgLxFS1lLLs+LtTTwKBgQDOIz08d2zMRX5AW0SkQ+VbdwcO7G5qlTJV\r\n"
 153:/home/xingli/share/1205tiny/build/linux_mqtt_demo/src/main.c **** "42Rf51Dmr0as/bX5eIWAAfcsEi/kG2e5Ozupe4BVZXarw7AL1bzE4mLvfcwZEUiJ\r\n"
 154:/home/xingli/share/1205tiny/build/linux_mqtt_demo/src/main.c **** "Qj56H6QTOiVm/DTZdBz415z60zjCui+59luev6txZBL51ZhoifzfdAfxd8ztucV+\r\n"
 155:/home/xingli/share/1205tiny/build/linux_mqtt_demo/src/main.c **** "mj3kytIucwKBgBSdporl0norsyPOrap+2dek+44dKK1geU/wCS9mDLc7AxxpwsR+\r\n"
 156:/home/xingli/share/1205tiny/build/linux_mqtt_demo/src/main.c **** "TxJaTfKIzoRqmc3amvZMQvE8WvU5Mgy225qpy7QtifKj7FdGlVoIBymG11PBQsnD\r\n"
 157:/home/xingli/share/1205tiny/build/linux_mqtt_demo/src/main.c **** "hku0JM51PGO5iVVChUMV5zs+K84w8jDriNElTHxTaPtXFH0RRxVLBrd3AoGAIYX1\r\n"
 158:/home/xingli/share/1205tiny/build/linux_mqtt_demo/src/main.c **** "lXnOhcHfcFPna9dm22MWEMU+h7LPxsv+LOKPc5SZp9Ry3alN/K1VJyOmCjCyw5rw\r\n"
 159:/home/xingli/share/1205tiny/build/linux_mqtt_demo/src/main.c **** "bvWYv0qK7BAc9y/BTTuL32rT4FfBNiFBy9aNdlsEbiUh6yNI+ucFrnzfRDvHOzTn\r\n"
 160:/home/xingli/share/1205tiny/build/linux_mqtt_demo/src/main.c **** "XX/KP9yIgXzNFmMqbqSODiTvfNGzXo1y91xMpiUCgYAfO+Xb5msOMABiBNGD85qr\r\n"
 161:/home/xingli/share/1205tiny/build/linux_mqtt_demo/src/main.c **** "C+0xpuWoPe4pB5ccgniv1zhPlUJ+8l1vWz/ZWnH/6oVxGGrq5xLtoBgFWM4uSseI\r\n"
 162:/home/xingli/share/1205tiny/build/linux_mqtt_demo/src/main.c **** "Je0fSqZp0XAbaFI7wkEV/uP6VMjjFT5TfJz4idgI+EaE72va2jbFBgg1MyfR3gx4\r\n"
 163:/home/xingli/share/1205tiny/build/linux_mqtt_demo/src/main.c **** "deaXc4ZpE64iV+eAtZ8VVQ==\r\n"
 164:/home/xingli/share/1205tiny/build/linux_mqtt_demo/src/main.c **** "-----END PRIVATE KEY-----\r\n";
 165:/home/xingli/share/1205tiny/build/linux_mqtt_demo/src/main.c **** static const char *s_client_pk_pwd = "123456";
 166:/home/xingli/share/1205tiny/build/linux_mqtt_demo/src/main.c **** #endif
 167:/home/xingli/share/1205tiny/build/linux_mqtt_demo/src/main.c **** 
 168:/home/xingli/share/1205tiny/build/linux_mqtt_demo/src/main.c **** #else
 169:/home/xingli/share/1205tiny/build/linux_mqtt_demo/src/main.c **** #define CN_SERVER_PORT "1883"
 170:/home/xingli/share/1205tiny/build/linux_mqtt_demo/src/main.c **** #define CN_SECURITY_TYPE EN_DTLS_AL_SECURITY_TYPE_NONE
 171:/home/xingli/share/1205tiny/build/linux_mqtt_demo/src/main.c **** #endif
 172:/home/xingli/share/1205tiny/build/linux_mqtt_demo/src/main.c **** 
 173:/home/xingli/share/1205tiny/build/linux_mqtt_demo/src/main.c **** #define CN_APP_DEVICEID  "60bf519cb86d7b02bc518aa9_softbusTiny26" // 替换为注册设备后生成
 174:/home/xingli/share/1205tiny/build/linux_mqtt_demo/src/main.c **** 
 175:/home/xingli/share/1205tiny/build/linux_mqtt_demo/src/main.c **** #define CN_APP_DEVICEPWD "13101518025" // 替换为注册设备后生成的密钥
 176:/home/xingli/share/1205tiny/build/linux_mqtt_demo/src/main.c **** 
 177:/home/xingli/share/1205tiny/build/linux_mqtt_demo/src/main.c **** #define CN_APP_LIFETIME 60 // seconds
 178:/home/xingli/share/1205tiny/build/linux_mqtt_demo/src/main.c **** typedef enum {
 179:/home/xingli/share/1205tiny/build/linux_mqtt_demo/src/main.c ****     en_msg_report = 8,
 180:/home/xingli/share/1205tiny/build/linux_mqtt_demo/src/main.c ****     en_msg_conn,
 181:/home/xingli/share/1205tiny/build/linux_mqtt_demo/src/main.c ****     en_msg_disconn,
 182:/home/xingli/share/1205tiny/build/linux_mqtt_demo/src/main.c **** } en_msg_type_t; 
 183:/home/xingli/share/1205tiny/build/linux_mqtt_demo/src/main.c **** 
 184:/home/xingli/share/1205tiny/build/linux_mqtt_demo/src/main.c **** typedef struct {
 185:/home/xingli/share/1205tiny/build/linux_mqtt_demo/src/main.c ****     char* request_id;
 186:/home/xingli/share/1205tiny/build/linux_mqtt_demo/src/main.c ****     char* payload;
 187:/home/xingli/share/1205tiny/build/linux_mqtt_demo/src/main.c **** } cmd_t;
 188:/home/xingli/share/1205tiny/build/linux_mqtt_demo/src/main.c **** 
 189:/home/xingli/share/1205tiny/build/linux_mqtt_demo/src/main.c **** typedef struct {
 190:/home/xingli/share/1205tiny/build/linux_mqtt_demo/src/main.c ****     int lum;
 191:/home/xingli/share/1205tiny/build/linux_mqtt_demo/src/main.c ****     int temp;
 192:/home/xingli/share/1205tiny/build/linux_mqtt_demo/src/main.c ****     int hum;
 193:/home/xingli/share/1205tiny/build/linux_mqtt_demo/src/main.c **** } report_t;
 194:/home/xingli/share/1205tiny/build/linux_mqtt_demo/src/main.c **** 
 195:/home/xingli/share/1205tiny/build/linux_mqtt_demo/src/main.c **** typedef struct {
 196:/home/xingli/share/1205tiny/build/linux_mqtt_demo/src/main.c ****     en_msg_type_t msg_type;
 197:/home/xingli/share/1205tiny/build/linux_mqtt_demo/src/main.c ****     union {
GAS LISTING /tmp/ccE3coaW.s 			page 9


 198:/home/xingli/share/1205tiny/build/linux_mqtt_demo/src/main.c ****         cmd_t cmd;
 199:/home/xingli/share/1205tiny/build/linux_mqtt_demo/src/main.c ****         report_t report;
 200:/home/xingli/share/1205tiny/build/linux_mqtt_demo/src/main.c ****     } msg;
 201:/home/xingli/share/1205tiny/build/linux_mqtt_demo/src/main.c **** } app_msg_t;
 202:/home/xingli/share/1205tiny/build/linux_mqtt_demo/src/main.c **** 
 203:/home/xingli/share/1205tiny/build/linux_mqtt_demo/src/main.c **** typedef struct {
 204:/home/xingli/share/1205tiny/build/linux_mqtt_demo/src/main.c ****     queue_t *app_msg;
 205:/home/xingli/share/1205tiny/build/linux_mqtt_demo/src/main.c ****     int connected;
 206:/home/xingli/share/1205tiny/build/linux_mqtt_demo/src/main.c ****     int led;
 207:/home/xingli/share/1205tiny/build/linux_mqtt_demo/src/main.c ****     int motor;
 208:/home/xingli/share/1205tiny/build/linux_mqtt_demo/src/main.c **** } app_cb_t;
 209:/home/xingli/share/1205tiny/build/linux_mqtt_demo/src/main.c **** static app_cb_t g_app_cb;
 210:/home/xingli/share/1205tiny/build/linux_mqtt_demo/src/main.c **** 
 211:/home/xingli/share/1205tiny/build/linux_mqtt_demo/src/main.c **** extern int link_main(void *args);
 212:/home/xingli/share/1205tiny/build/linux_mqtt_demo/src/main.c **** 
 213:/home/xingli/share/1205tiny/build/linux_mqtt_demo/src/main.c **** static void deal_report_msg(report_t* report)
 214:/home/xingli/share/1205tiny/build/linux_mqtt_demo/src/main.c **** {
  80              		.loc 1 214 1
  81              		.cfi_startproc
  82 0000 F30F1EFA 		endbr64
  83 0004 55       		pushq	%rbp
  84              	.LCFI0:
  85              		.cfi_def_cfa_offset 16
  86              		.cfi_offset 6, -16
  87 0005 4889E5   		movq	%rsp, %rbp
  88              	.LCFI1:
  89              		.cfi_def_cfa_register 6
  90 0008 4881EC20 		subq	$288, %rsp
  90      010000
  91 000f 4889BDE8 		movq	%rdi, -280(%rbp)
  91      FEFFFF
  92              		.loc 1 214 1
  93 0016 64488B04 		movq	%fs:40, %rax
  93      25280000 
  93      00
  94 001f 488945F8 		movq	%rax, -8(%rbp)
  95 0023 31C0     		xorl	%eax, %eax
 215:/home/xingli/share/1205tiny/build/linux_mqtt_demo/src/main.c ****     oc_mqtt_profile_service_t service;
 216:/home/xingli/share/1205tiny/build/linux_mqtt_demo/src/main.c ****     oc_mqtt_profile_kv_t temperature;
 217:/home/xingli/share/1205tiny/build/linux_mqtt_demo/src/main.c ****     oc_mqtt_profile_kv_t humidity;
 218:/home/xingli/share/1205tiny/build/linux_mqtt_demo/src/main.c ****     oc_mqtt_profile_kv_t luminance;
 219:/home/xingli/share/1205tiny/build/linux_mqtt_demo/src/main.c ****     oc_mqtt_profile_kv_t led;
 220:/home/xingli/share/1205tiny/build/linux_mqtt_demo/src/main.c ****     oc_mqtt_profile_kv_t motor;
 221:/home/xingli/share/1205tiny/build/linux_mqtt_demo/src/main.c **** 
 222:/home/xingli/share/1205tiny/build/linux_mqtt_demo/src/main.c ****     if (g_app_cb.connected != 1) {
  96              		.loc 1 222 17
  97 0025 8B050000 		movl	8+g_app_cb(%rip), %eax
  97      0000
  98              		.loc 1 222 8
  99 002b 83F801   		cmpl	$1, %eax
 100 002e 0F855301 		jne	.L10
 100      0000
 223:/home/xingli/share/1205tiny/build/linux_mqtt_demo/src/main.c ****         return;
 224:/home/xingli/share/1205tiny/build/linux_mqtt_demo/src/main.c ****     }
 225:/home/xingli/share/1205tiny/build/linux_mqtt_demo/src/main.c **** 
 226:/home/xingli/share/1205tiny/build/linux_mqtt_demo/src/main.c ****     service.event_time = NULL;
 101              		.loc 1 226 24
GAS LISTING /tmp/ccE3coaW.s 			page 10


 102 0034 48C78500 		movq	$0, -256(%rbp)
 102      FFFFFF00 
 102      000000
 227:/home/xingli/share/1205tiny/build/linux_mqtt_demo/src/main.c ****     service.service_id = "Agriculture";
 103              		.loc 1 227 24
 104 003f 488D0500 		leaq	.LC0(%rip), %rax
 104      000000
 105 0046 488985F8 		movq	%rax, -264(%rbp)
 105      FEFFFF
 228:/home/xingli/share/1205tiny/build/linux_mqtt_demo/src/main.c ****     service.service_property = &temperature;
 106              		.loc 1 228 30
 107 004d 488D8510 		leaq	-240(%rbp), %rax
 107      FFFFFF
 108 0054 48898508 		movq	%rax, -248(%rbp)
 108      FFFFFF
 229:/home/xingli/share/1205tiny/build/linux_mqtt_demo/src/main.c ****     service.nxt = NULL;
 109              		.loc 1 229 17
 110 005b 48C785F0 		movq	$0, -272(%rbp)
 110      FEFFFF00 
 110      000000
 230:/home/xingli/share/1205tiny/build/linux_mqtt_demo/src/main.c **** 
 231:/home/xingli/share/1205tiny/build/linux_mqtt_demo/src/main.c ****     temperature.key = "Temperature";
 111              		.loc 1 231 21
 112 0066 488D0500 		leaq	.LC1(%rip), %rax
 112      000000
 113 006d 48898518 		movq	%rax, -232(%rbp)
 113      FFFFFF
 232:/home/xingli/share/1205tiny/build/linux_mqtt_demo/src/main.c ****     temperature.value = &report->temp;
 114              		.loc 1 232 25
 115 0074 488B85E8 		movq	-280(%rbp), %rax
 115      FEFFFF
 116 007b 4883C004 		addq	$4, %rax
 117              		.loc 1 232 23
 118 007f 48898528 		movq	%rax, -216(%rbp)
 118      FFFFFF
 233:/home/xingli/share/1205tiny/build/linux_mqtt_demo/src/main.c ****     temperature.type = EN_OC_MQTT_PROFILE_VALUE_INT;
 119              		.loc 1 233 22
 120 0086 C78520FF 		movl	$0, -224(%rbp)
 120      FFFF0000 
 120      0000
 234:/home/xingli/share/1205tiny/build/linux_mqtt_demo/src/main.c ****     temperature.nxt = &humidity;
 121              		.loc 1 234 21
 122 0090 488D8540 		leaq	-192(%rbp), %rax
 122      FFFFFF
 123 0097 48898510 		movq	%rax, -240(%rbp)
 123      FFFFFF
 235:/home/xingli/share/1205tiny/build/linux_mqtt_demo/src/main.c **** 
 236:/home/xingli/share/1205tiny/build/linux_mqtt_demo/src/main.c ****     humidity.key = "Humidity";
 124              		.loc 1 236 18
 125 009e 488D0500 		leaq	.LC2(%rip), %rax
 125      000000
 126 00a5 48898548 		movq	%rax, -184(%rbp)
 126      FFFFFF
 237:/home/xingli/share/1205tiny/build/linux_mqtt_demo/src/main.c ****     humidity.value = &report->hum;
 127              		.loc 1 237 22
 128 00ac 488B85E8 		movq	-280(%rbp), %rax
 128      FEFFFF
GAS LISTING /tmp/ccE3coaW.s 			page 11


 129 00b3 4883C008 		addq	$8, %rax
 130              		.loc 1 237 20
 131 00b7 48898558 		movq	%rax, -168(%rbp)
 131      FFFFFF
 238:/home/xingli/share/1205tiny/build/linux_mqtt_demo/src/main.c ****     humidity.type = EN_OC_MQTT_PROFILE_VALUE_INT;
 132              		.loc 1 238 19
 133 00be C78550FF 		movl	$0, -176(%rbp)
 133      FFFF0000 
 133      0000
 239:/home/xingli/share/1205tiny/build/linux_mqtt_demo/src/main.c ****     humidity.nxt = &luminance;
 134              		.loc 1 239 18
 135 00c8 488D8570 		leaq	-144(%rbp), %rax
 135      FFFFFF
 136 00cf 48898540 		movq	%rax, -192(%rbp)
 136      FFFFFF
 240:/home/xingli/share/1205tiny/build/linux_mqtt_demo/src/main.c **** 
 241:/home/xingli/share/1205tiny/build/linux_mqtt_demo/src/main.c ****     luminance.key = "Luminance";
 137              		.loc 1 241 19
 138 00d6 488D0500 		leaq	.LC3(%rip), %rax
 138      000000
 139 00dd 48898578 		movq	%rax, -136(%rbp)
 139      FFFFFF
 242:/home/xingli/share/1205tiny/build/linux_mqtt_demo/src/main.c ****     luminance.value = &report->lum;
 140              		.loc 1 242 23
 141 00e4 488B85E8 		movq	-280(%rbp), %rax
 141      FEFFFF
 142              		.loc 1 242 21
 143 00eb 48894588 		movq	%rax, -120(%rbp)
 243:/home/xingli/share/1205tiny/build/linux_mqtt_demo/src/main.c ****     luminance.type = EN_OC_MQTT_PROFILE_VALUE_INT;
 144              		.loc 1 243 20
 145 00ef C7458000 		movl	$0, -128(%rbp)
 145      000000
 244:/home/xingli/share/1205tiny/build/linux_mqtt_demo/src/main.c ****     luminance.nxt = &led;
 146              		.loc 1 244 19
 147 00f6 488D45A0 		leaq	-96(%rbp), %rax
 148 00fa 48898570 		movq	%rax, -144(%rbp)
 148      FFFFFF
 245:/home/xingli/share/1205tiny/build/linux_mqtt_demo/src/main.c **** 
 246:/home/xingli/share/1205tiny/build/linux_mqtt_demo/src/main.c ****     led.key = "LightStatus";
 149              		.loc 1 246 13
 150 0101 488D0500 		leaq	.LC4(%rip), %rax
 150      000000
 151 0108 488945A8 		movq	%rax, -88(%rbp)
 247:/home/xingli/share/1205tiny/build/linux_mqtt_demo/src/main.c ****     led.value = g_app_cb.led ? "ON" : "OFF";
 152              		.loc 1 247 25
 153 010c 8B050000 		movl	12+g_app_cb(%rip), %eax
 153      0000
 154              		.loc 1 247 37
 155 0112 85C0     		testl	%eax, %eax
 156 0114 7409     		je	.L4
 157              		.loc 1 247 37 is_stmt 0 discriminator 1
 158 0116 488D0500 		leaq	.LC5(%rip), %rax
 158      000000
 159 011d EB07     		jmp	.L5
 160              	.L4:
 161              		.loc 1 247 37 discriminator 2
 162 011f 488D0500 		leaq	.LC6(%rip), %rax
GAS LISTING /tmp/ccE3coaW.s 			page 12


 162      000000
 163              	.L5:
 164              		.loc 1 247 15 is_stmt 1 discriminator 4
 165 0126 488945B8 		movq	%rax, -72(%rbp)
 248:/home/xingli/share/1205tiny/build/linux_mqtt_demo/src/main.c ****     led.type = EN_OC_MQTT_PROFILE_VALUE_STRING;
 166              		.loc 1 248 14 discriminator 4
 167 012a C745B004 		movl	$4, -80(%rbp)
 167      000000
 249:/home/xingli/share/1205tiny/build/linux_mqtt_demo/src/main.c ****     led.nxt = &motor;
 168              		.loc 1 249 13 discriminator 4
 169 0131 488D45D0 		leaq	-48(%rbp), %rax
 170 0135 488945A0 		movq	%rax, -96(%rbp)
 250:/home/xingli/share/1205tiny/build/linux_mqtt_demo/src/main.c **** 
 251:/home/xingli/share/1205tiny/build/linux_mqtt_demo/src/main.c ****     motor.key = "MotorStatus";
 171              		.loc 1 251 15 discriminator 4
 172 0139 488D0500 		leaq	.LC7(%rip), %rax
 172      000000
 173 0140 488945D8 		movq	%rax, -40(%rbp)
 252:/home/xingli/share/1205tiny/build/linux_mqtt_demo/src/main.c ****     motor.value = g_app_cb.motor ? "ON" : "OFF";
 174              		.loc 1 252 27 discriminator 4
 175 0144 8B050000 		movl	16+g_app_cb(%rip), %eax
 175      0000
 176              		.loc 1 252 41 discriminator 4
 177 014a 85C0     		testl	%eax, %eax
 178 014c 7409     		je	.L6
 179              		.loc 1 252 41 is_stmt 0 discriminator 1
 180 014e 488D0500 		leaq	.LC5(%rip), %rax
 180      000000
 181 0155 EB07     		jmp	.L7
 182              	.L6:
 183              		.loc 1 252 41 discriminator 2
 184 0157 488D0500 		leaq	.LC6(%rip), %rax
 184      000000
 185              	.L7:
 186              		.loc 1 252 17 is_stmt 1 discriminator 4
 187 015e 488945E8 		movq	%rax, -24(%rbp)
 253:/home/xingli/share/1205tiny/build/linux_mqtt_demo/src/main.c ****     motor.type = EN_OC_MQTT_PROFILE_VALUE_STRING;
 188              		.loc 1 253 16 discriminator 4
 189 0162 C745E004 		movl	$4, -32(%rbp)
 189      000000
 254:/home/xingli/share/1205tiny/build/linux_mqtt_demo/src/main.c ****     motor.nxt = NULL;
 190              		.loc 1 254 15 discriminator 4
 191 0169 48C745D0 		movq	$0, -48(%rbp)
 191      00000000 
 255:/home/xingli/share/1205tiny/build/linux_mqtt_demo/src/main.c **** 
 256:/home/xingli/share/1205tiny/build/linux_mqtt_demo/src/main.c ****     oc_mqtt_profile_propertyreport(NULL, &service);
 192              		.loc 1 256 5 discriminator 4
 193 0171 488D85F0 		leaq	-272(%rbp), %rax
 193      FEFFFF
 194 0178 4889C6   		movq	%rax, %rsi
 195 017b BF000000 		movl	$0, %edi
 195      00
 196 0180 E8000000 		call	oc_mqtt_profile_propertyreport@PLT
 196      00
 257:/home/xingli/share/1205tiny/build/linux_mqtt_demo/src/main.c ****     return;
 197              		.loc 1 257 5 discriminator 4
 198 0185 EB01     		jmp	.L1
GAS LISTING /tmp/ccE3coaW.s 			page 13


 199              	.L10:
 223:/home/xingli/share/1205tiny/build/linux_mqtt_demo/src/main.c ****     }
 200              		.loc 1 223 9
 201 0187 90       		nop
 202              	.L1:
 258:/home/xingli/share/1205tiny/build/linux_mqtt_demo/src/main.c **** }
 203              		.loc 1 258 1
 204 0188 488B45F8 		movq	-8(%rbp), %rax
 205 018c 64483304 		xorq	%fs:40, %rax
 205      25280000 
 205      00
 206 0195 7405     		je	.L9
 207 0197 E8000000 		call	__stack_chk_fail@PLT
 207      00
 208              	.L9:
 209 019c C9       		leave
 210              	.LCFI2:
 211              		.cfi_def_cfa 7, 8
 212 019d C3       		ret
 213              		.cfi_endproc
 214              	.LFE6:
 216              		.section	.rodata
 217              	.LC8:
 218 004a 24676574 		.string	"$get_device_shadow"
 218      5F646576 
 218      6963655F 
 218      73686164 
 218      6F7700
 219              		.section	.text.GetShadowByServiceId,"ax",@progbits
 220              		.globl	GetShadowByServiceId
 222              	GetShadowByServiceId:
 223              	.LFB7:
 259:/home/xingli/share/1205tiny/build/linux_mqtt_demo/src/main.c **** 
 260:/home/xingli/share/1205tiny/build/linux_mqtt_demo/src/main.c **** int GetShadowByServiceId(char *serviceId)
 261:/home/xingli/share/1205tiny/build/linux_mqtt_demo/src/main.c **** {
 224              		.loc 1 261 1
 225              		.cfi_startproc
 226 0000 F30F1EFA 		endbr64
 227 0004 55       		pushq	%rbp
 228              	.LCFI3:
 229              		.cfi_def_cfa_offset 16
 230              		.cfi_offset 6, -16
 231 0005 4889E5   		movq	%rsp, %rbp
 232              	.LCFI4:
 233              		.cfi_def_cfa_register 6
 234 0008 4883EC40 		subq	$64, %rsp
 235 000c 48897DC8 		movq	%rdi, -56(%rbp)
 236              		.loc 1 261 1
 237 0010 64488B04 		movq	%fs:40, %rax
 237      25280000 
 237      00
 238 0019 488945F8 		movq	%rax, -8(%rbp)
 239 001d 31C0     		xorl	%eax, %eax
 262:/home/xingli/share/1205tiny/build/linux_mqtt_demo/src/main.c ****     int ret;
 263:/home/xingli/share/1205tiny/build/linux_mqtt_demo/src/main.c ****     oc_mqtt_profile_shadowget_t payload;
 264:/home/xingli/share/1205tiny/build/linux_mqtt_demo/src/main.c ****     payload.object_device_id = NULL;
 240              		.loc 1 264 30
GAS LISTING /tmp/ccE3coaW.s 			page 14


 241 001f 48C745E0 		movq	$0, -32(%rbp)
 241      00000000 
 265:/home/xingli/share/1205tiny/build/linux_mqtt_demo/src/main.c ****     payload.request_id = "$get_device_shadow";
 242              		.loc 1 265 24
 243 0027 488D0500 		leaq	.LC8(%rip), %rax
 243      000000
 244 002e 488945F0 		movq	%rax, -16(%rbp)
 266:/home/xingli/share/1205tiny/build/linux_mqtt_demo/src/main.c **** 
 267:/home/xingli/share/1205tiny/build/linux_mqtt_demo/src/main.c ****     // if service_id is NULL can get all service shadow
 268:/home/xingli/share/1205tiny/build/linux_mqtt_demo/src/main.c ****     payload.service_id = serviceId;
 245              		.loc 1 268 24
 246 0032 488B45C8 		movq	-56(%rbp), %rax
 247 0036 488945E8 		movq	%rax, -24(%rbp)
 269:/home/xingli/share/1205tiny/build/linux_mqtt_demo/src/main.c ****     ret = oc_mqtt_profile_getshadow(NULL, &payload);
 248              		.loc 1 269 11
 249 003a 488D45E0 		leaq	-32(%rbp), %rax
 250 003e 4889C6   		movq	%rax, %rsi
 251 0041 BF000000 		movl	$0, %edi
 251      00
 252 0046 E8000000 		call	oc_mqtt_profile_getshadow@PLT
 252      00
 253 004b 8945DC   		movl	%eax, -36(%rbp)
 270:/home/xingli/share/1205tiny/build/linux_mqtt_demo/src/main.c ****     return ret;
 254              		.loc 1 270 12
 255 004e 8B45DC   		movl	-36(%rbp), %eax
 271:/home/xingli/share/1205tiny/build/linux_mqtt_demo/src/main.c **** }
 256              		.loc 1 271 1
 257 0051 488B55F8 		movq	-8(%rbp), %rdx
 258 0055 64483314 		xorq	%fs:40, %rdx
 258      25280000 
 258      00
 259 005e 7405     		je	.L13
 260 0060 E8000000 		call	__stack_chk_fail@PLT
 260      00
 261              	.L13:
 262 0065 C9       		leave
 263              	.LCFI5:
 264              		.cfi_def_cfa 7, 8
 265 0066 C3       		ret
 266              		.cfi_endproc
 267              	.LFE7:
 269              		.section	.rodata
 270              	.LC9:
 271 005d 68656C6C 		.string	"hello xingli"
 271      6F207869 
 271      6E676C69 
 271      00
 272              	.LC10:
 273 006a 2473646B 		.string	"$sdk_info"
 273      5F696E66 
 273      6F00
 274              	.LC11:
 275 0074 73646B5F 		.string	"sdk_info_report"
 275      696E666F 
 275      5F726570 
 275      6F727400 
 276              	.LC12:
GAS LISTING /tmp/ccE3coaW.s 			page 15


 277 0084 64657669 		.string	"device_sdk_version"
 277      63655F73 
 277      646B5F76 
 277      65727369 
 277      6F6E00
 278              	.LC13:
 279 0097 435F7632 		.string	"C_v2.2.2"
 279      2E322E32 
 279      00
 280              	.LC14:
 281 00a0 73775F76 		.string	"sw_version"
 281      65727369 
 281      6F6E00
 282              	.LC15:
 283 00ab 76312E30 		.string	"v1.0"
 283      00
 284              	.LC16:
 285 00b0 66775F76 		.string	"fw_version"
 285      65727369 
 285      6F6E00
 286              	.LC17:
 287 00bb 64657669 		.string	"device_ip"
 287      63655F69 
 287      7000
 288              	.LC18:
 289 00c5 3132372E 		.string	"127.0.0.1"
 289      302E302E 
 289      3100
 290 00cf 00       		.align 8
 291              	.LC19:
 292 00d0 3D3D3D3D 		.string	"=======hello this is aimin====="
 292      3D3D3D68 
 292      656C6C6F 
 292      20746869 
 292      73206973 
 293              		.section	.text.ReportSDKInfo,"ax",@progbits
 294              		.globl	ReportSDKInfo
 296              	ReportSDKInfo:
 297              	.LFB8:
 272:/home/xingli/share/1205tiny/build/linux_mqtt_demo/src/main.c **** 
 273:/home/xingli/share/1205tiny/build/linux_mqtt_demo/src/main.c **** void ReportSDKInfo()
 274:/home/xingli/share/1205tiny/build/linux_mqtt_demo/src/main.c **** {
 298              		.loc 1 274 1
 299              		.cfi_startproc
 300 0000 F30F1EFA 		endbr64
 301 0004 55       		pushq	%rbp
 302              	.LCFI6:
 303              		.cfi_def_cfa_offset 16
 304              		.cfi_offset 6, -16
 305 0005 4889E5   		movq	%rsp, %rbp
 306              	.LCFI7:
 307              		.cfi_def_cfa_register 6
 308 0008 4881ECF0 		subq	$240, %rsp
 308      000000
 309              		.loc 1 274 1
 310 000f 64488B04 		movq	%fs:40, %rax
 310      25280000 
GAS LISTING /tmp/ccE3coaW.s 			page 16


 310      00
 311 0018 488945F8 		movq	%rax, -8(%rbp)
 312 001c 31C0     		xorl	%eax, %eax
 275:/home/xingli/share/1205tiny/build/linux_mqtt_demo/src/main.c ****     printf("hello xingli\n");
 313              		.loc 1 275 5
 314 001e 488D3D00 		leaq	.LC9(%rip), %rdi
 314      000000
 315 0025 E8000000 		call	puts@PLT
 315      00
 276:/home/xingli/share/1205tiny/build/linux_mqtt_demo/src/main.c ****     oc_mqtt_profile_event_t service;
 277:/home/xingli/share/1205tiny/build/linux_mqtt_demo/src/main.c ****     oc_mqtt_profile_kv_t sdk;
 278:/home/xingli/share/1205tiny/build/linux_mqtt_demo/src/main.c ****     oc_mqtt_profile_kv_t sw;
 279:/home/xingli/share/1205tiny/build/linux_mqtt_demo/src/main.c ****     oc_mqtt_profile_kv_t fw;
 280:/home/xingli/share/1205tiny/build/linux_mqtt_demo/src/main.c ****     oc_mqtt_profile_kv_t device_ip;
 281:/home/xingli/share/1205tiny/build/linux_mqtt_demo/src/main.c **** 
 282:/home/xingli/share/1205tiny/build/linux_mqtt_demo/src/main.c ****     service.event_time = NULL;
 316              		.loc 1 282 24
 317 002a 48C78528 		movq	$0, -216(%rbp)
 317      FFFFFF00 
 317      000000
 283:/home/xingli/share/1205tiny/build/linux_mqtt_demo/src/main.c ****     service.service_id = "$sdk_info";
 318              		.loc 1 283 24
 319 0035 488D0500 		leaq	.LC10(%rip), %rax
 319      000000
 320 003c 48898518 		movq	%rax, -232(%rbp)
 320      FFFFFF
 284:/home/xingli/share/1205tiny/build/linux_mqtt_demo/src/main.c ****     service.event_type = "sdk_info_report";
 321              		.loc 1 284 24
 322 0043 488D0500 		leaq	.LC11(%rip), %rax
 322      000000
 323 004a 48898520 		movq	%rax, -224(%rbp)
 323      FFFFFF
 285:/home/xingli/share/1205tiny/build/linux_mqtt_demo/src/main.c ****     service.paras = &sdk;
 324              		.loc 1 285 19
 325 0051 488D8540 		leaq	-192(%rbp), %rax
 325      FFFFFF
 326 0058 48898530 		movq	%rax, -208(%rbp)
 326      FFFFFF
 286:/home/xingli/share/1205tiny/build/linux_mqtt_demo/src/main.c **** 
 287:/home/xingli/share/1205tiny/build/linux_mqtt_demo/src/main.c ****     sdk.key = "device_sdk_version";
 327              		.loc 1 287 13
 328 005f 488D0500 		leaq	.LC12(%rip), %rax
 328      000000
 329 0066 48898548 		movq	%rax, -184(%rbp)
 329      FFFFFF
 288:/home/xingli/share/1205tiny/build/linux_mqtt_demo/src/main.c ****     sdk.value = "C_v2.2.2";
 330              		.loc 1 288 15
 331 006d 488D0500 		leaq	.LC13(%rip), %rax
 331      000000
 332 0074 48898558 		movq	%rax, -168(%rbp)
 332      FFFFFF
 289:/home/xingli/share/1205tiny/build/linux_mqtt_demo/src/main.c ****     sdk.type = EN_OC_MQTT_PROFILE_VALUE_STRING;
 333              		.loc 1 289 14
 334 007b C78550FF 		movl	$4, -176(%rbp)
 334      FFFF0400 
 334      0000
 290:/home/xingli/share/1205tiny/build/linux_mqtt_demo/src/main.c ****     sdk.nxt = &sw;
GAS LISTING /tmp/ccE3coaW.s 			page 17


 335              		.loc 1 290 13
 336 0085 488D8570 		leaq	-144(%rbp), %rax
 336      FFFFFF
 337 008c 48898540 		movq	%rax, -192(%rbp)
 337      FFFFFF
 291:/home/xingli/share/1205tiny/build/linux_mqtt_demo/src/main.c **** 
 292:/home/xingli/share/1205tiny/build/linux_mqtt_demo/src/main.c ****     sw.key = "sw_version";
 338              		.loc 1 292 12
 339 0093 488D0500 		leaq	.LC14(%rip), %rax
 339      000000
 340 009a 48898578 		movq	%rax, -136(%rbp)
 340      FFFFFF
 293:/home/xingli/share/1205tiny/build/linux_mqtt_demo/src/main.c ****     sw.value = "v1.0";
 341              		.loc 1 293 14
 342 00a1 488D0500 		leaq	.LC15(%rip), %rax
 342      000000
 343 00a8 48894588 		movq	%rax, -120(%rbp)
 294:/home/xingli/share/1205tiny/build/linux_mqtt_demo/src/main.c ****     sw.type = EN_OC_MQTT_PROFILE_VALUE_STRING;
 344              		.loc 1 294 13
 345 00ac C7458004 		movl	$4, -128(%rbp)
 345      000000
 295:/home/xingli/share/1205tiny/build/linux_mqtt_demo/src/main.c ****     sw.nxt = &fw;
 346              		.loc 1 295 12
 347 00b3 488D45A0 		leaq	-96(%rbp), %rax
 348 00b7 48898570 		movq	%rax, -144(%rbp)
 348      FFFFFF
 296:/home/xingli/share/1205tiny/build/linux_mqtt_demo/src/main.c **** 
 297:/home/xingli/share/1205tiny/build/linux_mqtt_demo/src/main.c ****     fw.key = "fw_version";
 349              		.loc 1 297 12
 350 00be 488D0500 		leaq	.LC16(%rip), %rax
 350      000000
 351 00c5 488945A8 		movq	%rax, -88(%rbp)
 298:/home/xingli/share/1205tiny/build/linux_mqtt_demo/src/main.c ****     fw.value = "v1.0";
 352              		.loc 1 298 14
 353 00c9 488D0500 		leaq	.LC15(%rip), %rax
 353      000000
 354 00d0 488945B8 		movq	%rax, -72(%rbp)
 299:/home/xingli/share/1205tiny/build/linux_mqtt_demo/src/main.c ****     fw.type = EN_OC_MQTT_PROFILE_VALUE_STRING;
 355              		.loc 1 299 13
 356 00d4 C745B004 		movl	$4, -80(%rbp)
 356      000000
 300:/home/xingli/share/1205tiny/build/linux_mqtt_demo/src/main.c ****     fw.nxt = &device_ip;
 357              		.loc 1 300 12
 358 00db 488D45D0 		leaq	-48(%rbp), %rax
 359 00df 488945A0 		movq	%rax, -96(%rbp)
 301:/home/xingli/share/1205tiny/build/linux_mqtt_demo/src/main.c **** 
 302:/home/xingli/share/1205tiny/build/linux_mqtt_demo/src/main.c ****     device_ip.key = "device_ip";
 360              		.loc 1 302 19
 361 00e3 488D0500 		leaq	.LC17(%rip), %rax
 361      000000
 362 00ea 488945D8 		movq	%rax, -40(%rbp)
 303:/home/xingli/share/1205tiny/build/linux_mqtt_demo/src/main.c ****     device_ip.value = "127.0.0.1";
 363              		.loc 1 303 21
 364 00ee 488D0500 		leaq	.LC18(%rip), %rax
 364      000000
 365 00f5 488945E8 		movq	%rax, -24(%rbp)
 304:/home/xingli/share/1205tiny/build/linux_mqtt_demo/src/main.c ****     device_ip.type = EN_OC_MQTT_PROFILE_VALUE_STRING;
GAS LISTING /tmp/ccE3coaW.s 			page 18


 366              		.loc 1 304 20
 367 00f9 C745E004 		movl	$4, -32(%rbp)
 367      000000
 305:/home/xingli/share/1205tiny/build/linux_mqtt_demo/src/main.c ****     device_ip.nxt = NULL;
 368              		.loc 1 305 19
 369 0100 48C745D0 		movq	$0, -48(%rbp)
 369      00000000 
 306:/home/xingli/share/1205tiny/build/linux_mqtt_demo/src/main.c **** 
 307:/home/xingli/share/1205tiny/build/linux_mqtt_demo/src/main.c ****     oc_mqtt_profile_reportevent(NULL, &service);
 370              		.loc 1 307 5
 371 0108 488D8510 		leaq	-240(%rbp), %rax
 371      FFFFFF
 372 010f 4889C6   		movq	%rax, %rsi
 373 0112 BF000000 		movl	$0, %edi
 373      00
 374 0117 E8000000 		call	oc_mqtt_profile_reportevent@PLT
 374      00
 308:/home/xingli/share/1205tiny/build/linux_mqtt_demo/src/main.c ****     printf("=======hello this is aimin=====");
 375              		.loc 1 308 5
 376 011c 488D3D00 		leaq	.LC19(%rip), %rdi
 376      000000
 377 0123 B8000000 		movl	$0, %eax
 377      00
 378 0128 E8000000 		call	printf@PLT
 378      00
 309:/home/xingli/share/1205tiny/build/linux_mqtt_demo/src/main.c ****     return;
 379              		.loc 1 309 5
 380 012d 90       		nop
 310:/home/xingli/share/1205tiny/build/linux_mqtt_demo/src/main.c **** }
 381              		.loc 1 310 1
 382 012e 488B45F8 		movq	-8(%rbp), %rax
 383 0132 64483304 		xorq	%fs:40, %rax
 383      25280000 
 383      00
 384 013b 7405     		je	.L16
 385 013d E8000000 		call	__stack_chk_fail@PLT
 385      00
 386              	.L16:
 387 0142 C9       		leave
 388              	.LCFI8:
 389              		.cfi_def_cfa 7, 8
 390 0143 C3       		ret
 391              		.cfi_endproc
 392              	.LFE8:
 394              		.section	.text.msg_rcv_callback,"ax",@progbits
 396              	msg_rcv_callback:
 397              	.LFB9:
 311:/home/xingli/share/1205tiny/build/linux_mqtt_demo/src/main.c **** 
 312:/home/xingli/share/1205tiny/build/linux_mqtt_demo/src/main.c **** 
 313:/home/xingli/share/1205tiny/build/linux_mqtt_demo/src/main.c **** 
 314:/home/xingli/share/1205tiny/build/linux_mqtt_demo/src/main.c **** // use this function to push all the message to the buffer
 315:/home/xingli/share/1205tiny/build/linux_mqtt_demo/src/main.c **** static int msg_rcv_callback(oc_mqtt_profile_msgrcv_t* msg)
 316:/home/xingli/share/1205tiny/build/linux_mqtt_demo/src/main.c **** {
 398              		.loc 1 316 1
 399              		.cfi_startproc
 400 0000 F30F1EFA 		endbr64
 401 0004 55       		pushq	%rbp
GAS LISTING /tmp/ccE3coaW.s 			page 19


 402              	.LCFI9:
 403              		.cfi_def_cfa_offset 16
 404              		.cfi_offset 6, -16
 405 0005 4889E5   		movq	%rsp, %rbp
 406              	.LCFI10:
 407              		.cfi_def_cfa_register 6
 408 0008 4883EC30 		subq	$48, %rsp
 409 000c 48897DD8 		movq	%rdi, -40(%rbp)
 410              		.loc 1 316 1
 411 0010 64488B04 		movq	%fs:40, %rax
 411      25280000 
 411      00
 412 0019 488945F8 		movq	%rax, -8(%rbp)
 413 001d 31C0     		xorl	%eax, %eax
 317:/home/xingli/share/1205tiny/build/linux_mqtt_demo/src/main.c ****     int ret = 0;
 414              		.loc 1 317 9
 415 001f C745E400 		movl	$0, -28(%rbp)
 415      000000
 318:/home/xingli/share/1205tiny/build/linux_mqtt_demo/src/main.c ****     char* buf;
 319:/home/xingli/share/1205tiny/build/linux_mqtt_demo/src/main.c ****     int buf_len;
 320:/home/xingli/share/1205tiny/build/linux_mqtt_demo/src/main.c ****     app_msg_t* app_msg;
 321:/home/xingli/share/1205tiny/build/linux_mqtt_demo/src/main.c **** 
 322:/home/xingli/share/1205tiny/build/linux_mqtt_demo/src/main.c ****     if (msg == NULL) {
 416              		.loc 1 322 8
 417 0026 48837DD8 		cmpq	$0, -40(%rbp)
 417      00
 418 002b 7508     		jne	.L18
 323:/home/xingli/share/1205tiny/build/linux_mqtt_demo/src/main.c ****         return ret;
 419              		.loc 1 323 16
 420 002d 8B45E4   		movl	-28(%rbp), %eax
 421 0030 E9660100 		jmp	.L19
 421      00
 422              	.L18:
 324:/home/xingli/share/1205tiny/build/linux_mqtt_demo/src/main.c ****     }
 325:/home/xingli/share/1205tiny/build/linux_mqtt_demo/src/main.c **** 
 326:/home/xingli/share/1205tiny/build/linux_mqtt_demo/src/main.c ****     if (msg->request_id == NULL) {
 423              		.loc 1 326 12
 424 0035 488B45D8 		movq	-40(%rbp), %rax
 425 0039 488B4008 		movq	8(%rax), %rax
 426              		.loc 1 326 8
 427 003d 4885C0   		testq	%rax, %rax
 428 0040 750F     		jne	.L20
 327:/home/xingli/share/1205tiny/build/linux_mqtt_demo/src/main.c ****         buf_len = sizeof(app_msg_t) + msg->msg_len + 1;
 429              		.loc 1 327 42
 430 0042 488B45D8 		movq	-40(%rbp), %rax
 431 0046 8B4018   		movl	24(%rax), %eax
 432              		.loc 1 327 52
 433 0049 83C019   		addl	$25, %eax
 434              		.loc 1 327 17
 435 004c 8945E0   		movl	%eax, -32(%rbp)
 436 004f EB21     		jmp	.L21
 437              	.L20:
 328:/home/xingli/share/1205tiny/build/linux_mqtt_demo/src/main.c ****     } else {
 329:/home/xingli/share/1205tiny/build/linux_mqtt_demo/src/main.c ****         buf_len = sizeof(app_msg_t) + strlen(msg->request_id) + 1 + msg->msg_len + 1;
 438              		.loc 1 329 49
 439 0051 488B45D8 		movq	-40(%rbp), %rax
 440 0055 488B4008 		movq	8(%rax), %rax
GAS LISTING /tmp/ccE3coaW.s 			page 20


 441              		.loc 1 329 39
 442 0059 4889C7   		movq	%rax, %rdi
 443 005c E8000000 		call	strlen@PLT
 443      00
 444              		.loc 1 329 67
 445 0061 89C2     		movl	%eax, %edx
 446              		.loc 1 329 72
 447 0063 488B45D8 		movq	-40(%rbp), %rax
 448 0067 8B4018   		movl	24(%rax), %eax
 449              		.loc 1 329 67
 450 006a 01D0     		addl	%edx, %eax
 451              		.loc 1 329 82
 452 006c 83C01A   		addl	$26, %eax
 453              		.loc 1 329 17
 454 006f 8945E0   		movl	%eax, -32(%rbp)
 455              	.L21:
 330:/home/xingli/share/1205tiny/build/linux_mqtt_demo/src/main.c ****     }
 331:/home/xingli/share/1205tiny/build/linux_mqtt_demo/src/main.c ****     
 332:/home/xingli/share/1205tiny/build/linux_mqtt_demo/src/main.c ****     buf = malloc(buf_len);
 456              		.loc 1 332 11
 457 0072 8B45E0   		movl	-32(%rbp), %eax
 458 0075 4898     		cltq
 459 0077 4889C7   		movq	%rax, %rdi
 460 007a E8000000 		call	malloc@PLT
 460      00
 461 007f 488945E8 		movq	%rax, -24(%rbp)
 333:/home/xingli/share/1205tiny/build/linux_mqtt_demo/src/main.c ****     if (buf == NULL) {
 462              		.loc 1 333 8
 463 0083 48837DE8 		cmpq	$0, -24(%rbp)
 463      00
 464 0088 7508     		jne	.L22
 334:/home/xingli/share/1205tiny/build/linux_mqtt_demo/src/main.c ****         return ret;
 465              		.loc 1 334 16
 466 008a 8B45E4   		movl	-28(%rbp), %eax
 467 008d E9090100 		jmp	.L19
 467      00
 468              	.L22:
 335:/home/xingli/share/1205tiny/build/linux_mqtt_demo/src/main.c ****     }
 336:/home/xingli/share/1205tiny/build/linux_mqtt_demo/src/main.c ****     app_msg = (app_msg_t*)buf;
 469              		.loc 1 336 13
 470 0092 488B45E8 		movq	-24(%rbp), %rax
 471 0096 488945F0 		movq	%rax, -16(%rbp)
 337:/home/xingli/share/1205tiny/build/linux_mqtt_demo/src/main.c ****     buf += sizeof(app_msg_t);
 472              		.loc 1 337 9
 473 009a 488345E8 		addq	$24, -24(%rbp)
 473      18
 338:/home/xingli/share/1205tiny/build/linux_mqtt_demo/src/main.c **** 
 339:/home/xingli/share/1205tiny/build/linux_mqtt_demo/src/main.c ****     app_msg->msg_type = msg->type;
 474              		.loc 1 339 28
 475 009f 488B45D8 		movq	-40(%rbp), %rax
 476 00a3 8B10     		movl	(%rax), %edx
 477              		.loc 1 339 23
 478 00a5 488B45F0 		movq	-16(%rbp), %rax
 479 00a9 8910     		movl	%edx, (%rax)
 340:/home/xingli/share/1205tiny/build/linux_mqtt_demo/src/main.c ****     app_msg->msg.cmd.request_id = buf;
 480              		.loc 1 340 33
 481 00ab 488B45F0 		movq	-16(%rbp), %rax
GAS LISTING /tmp/ccE3coaW.s 			page 21


 482 00af 488B55E8 		movq	-24(%rbp), %rdx
 483 00b3 48895008 		movq	%rdx, 8(%rax)
 341:/home/xingli/share/1205tiny/build/linux_mqtt_demo/src/main.c ****     if (msg->request_id != NULL) {
 484              		.loc 1 341 12
 485 00b7 488B45D8 		movq	-40(%rbp), %rax
 486 00bb 488B4008 		movq	8(%rax), %rax
 487              		.loc 1 341 8
 488 00bf 4885C0   		testq	%rax, %rax
 489 00c2 7457     		je	.L23
 342:/home/xingli/share/1205tiny/build/linux_mqtt_demo/src/main.c ****         buf_len = strlen(msg->request_id);
 490              		.loc 1 342 29
 491 00c4 488B45D8 		movq	-40(%rbp), %rax
 492 00c8 488B4008 		movq	8(%rax), %rax
 493              		.loc 1 342 19
 494 00cc 4889C7   		movq	%rax, %rdi
 495 00cf E8000000 		call	strlen@PLT
 495      00
 496              		.loc 1 342 17
 497 00d4 8945E0   		movl	%eax, -32(%rbp)
 343:/home/xingli/share/1205tiny/build/linux_mqtt_demo/src/main.c ****         buf += (buf_len + 1);
 498              		.loc 1 343 13
 499 00d7 8B45E0   		movl	-32(%rbp), %eax
 500 00da 4898     		cltq
 501 00dc 4883C001 		addq	$1, %rax
 502 00e0 480145E8 		addq	%rax, -24(%rbp)
 344:/home/xingli/share/1205tiny/build/linux_mqtt_demo/src/main.c ****         memcpy_s(app_msg->msg.cmd.request_id, buf_len, msg->request_id, buf_len);
 503              		.loc 1 344 9
 504 00e4 8B45E0   		movl	-32(%rbp), %eax
 505 00e7 4863C8   		movslq	%eax, %rcx
 506              		.loc 1 344 59
 507 00ea 488B45D8 		movq	-40(%rbp), %rax
 508 00ee 488B5008 		movq	8(%rax), %rdx
 509              		.loc 1 344 9
 510 00f2 8B45E0   		movl	-32(%rbp), %eax
 511 00f5 4863F0   		movslq	%eax, %rsi
 512              		.loc 1 344 34
 513 00f8 488B45F0 		movq	-16(%rbp), %rax
 514 00fc 488B4008 		movq	8(%rax), %rax
 515              		.loc 1 344 9
 516 0100 4889C7   		movq	%rax, %rdi
 517 0103 E8000000 		call	memcpy_s@PLT
 517      00
 345:/home/xingli/share/1205tiny/build/linux_mqtt_demo/src/main.c ****         app_msg->msg.cmd.request_id[buf_len] = '\0';
 518              		.loc 1 345 25
 519 0108 488B45F0 		movq	-16(%rbp), %rax
 520 010c 488B5008 		movq	8(%rax), %rdx
 521              		.loc 1 345 36
 522 0110 8B45E0   		movl	-32(%rbp), %eax
 523 0113 4898     		cltq
 524 0115 4801D0   		addq	%rdx, %rax
 525              		.loc 1 345 46
 526 0118 C60000   		movb	$0, (%rax)
 527              	.L23:
 346:/home/xingli/share/1205tiny/build/linux_mqtt_demo/src/main.c ****     }
 347:/home/xingli/share/1205tiny/build/linux_mqtt_demo/src/main.c **** 
 348:/home/xingli/share/1205tiny/build/linux_mqtt_demo/src/main.c ****     buf_len = msg->msg_len;
 528              		.loc 1 348 13
GAS LISTING /tmp/ccE3coaW.s 			page 22


 529 011b 488B45D8 		movq	-40(%rbp), %rax
 530 011f 8B4018   		movl	24(%rax), %eax
 531 0122 8945E0   		movl	%eax, -32(%rbp)
 349:/home/xingli/share/1205tiny/build/linux_mqtt_demo/src/main.c ****     app_msg->msg.cmd.payload = buf;
 532              		.loc 1 349 30
 533 0125 488B45F0 		movq	-16(%rbp), %rax
 534 0129 488B55E8 		movq	-24(%rbp), %rdx
 535 012d 48895010 		movq	%rdx, 16(%rax)
 350:/home/xingli/share/1205tiny/build/linux_mqtt_demo/src/main.c ****     memcpy_s(app_msg->msg.cmd.payload, buf_len, msg->msg, buf_len);
 536              		.loc 1 350 5
 537 0131 8B45E0   		movl	-32(%rbp), %eax
 538 0134 4863C8   		movslq	%eax, %rcx
 539              		.loc 1 350 52
 540 0137 488B45D8 		movq	-40(%rbp), %rax
 541 013b 488B5010 		movq	16(%rax), %rdx
 542              		.loc 1 350 5
 543 013f 8B45E0   		movl	-32(%rbp), %eax
 544 0142 4863F0   		movslq	%eax, %rsi
 545              		.loc 1 350 30
 546 0145 488B45F0 		movq	-16(%rbp), %rax
 547 0149 488B4010 		movq	16(%rax), %rax
 548              		.loc 1 350 5
 549 014d 4889C7   		movq	%rax, %rdi
 550 0150 E8000000 		call	memcpy_s@PLT
 550      00
 351:/home/xingli/share/1205tiny/build/linux_mqtt_demo/src/main.c ****     app_msg->msg.cmd.payload[buf_len] = '\0';
 551              		.loc 1 351 21
 552 0155 488B45F0 		movq	-16(%rbp), %rax
 553 0159 488B5010 		movq	16(%rax), %rdx
 554              		.loc 1 351 29
 555 015d 8B45E0   		movl	-32(%rbp), %eax
 556 0160 4898     		cltq
 557 0162 4801D0   		addq	%rdx, %rax
 558              		.loc 1 351 39
 559 0165 C60000   		movb	$0, (%rax)
 352:/home/xingli/share/1205tiny/build/linux_mqtt_demo/src/main.c **** 
 353:/home/xingli/share/1205tiny/build/linux_mqtt_demo/src/main.c ****     ret = queue_push(g_app_cb.app_msg, app_msg, CONFIG_QUEUE_TIMEOUT);
 560              		.loc 1 353 11
 561 0168 488B0500 		movq	g_app_cb(%rip), %rax
 561      000000
 562 016f 488B4DF0 		movq	-16(%rbp), %rcx
 563 0173 BA881300 		movl	$5000, %edx
 563      00
 564 0178 4889CE   		movq	%rcx, %rsi
 565 017b 4889C7   		movq	%rax, %rdi
 566 017e E8000000 		call	queue_push@PLT
 566      00
 567 0183 8945E4   		movl	%eax, -28(%rbp)
 354:/home/xingli/share/1205tiny/build/linux_mqtt_demo/src/main.c ****     if (ret != 0) {
 568              		.loc 1 354 8
 569 0186 837DE400 		cmpl	$0, -28(%rbp)
 570 018a 740C     		je	.L24
 355:/home/xingli/share/1205tiny/build/linux_mqtt_demo/src/main.c ****         free(app_msg);
 571              		.loc 1 355 9
 572 018c 488B45F0 		movq	-16(%rbp), %rax
 573 0190 4889C7   		movq	%rax, %rdi
 574 0193 E8000000 		call	free@PLT
GAS LISTING /tmp/ccE3coaW.s 			page 23


 574      00
 575              	.L24:
 356:/home/xingli/share/1205tiny/build/linux_mqtt_demo/src/main.c ****     }
 357:/home/xingli/share/1205tiny/build/linux_mqtt_demo/src/main.c **** 
 358:/home/xingli/share/1205tiny/build/linux_mqtt_demo/src/main.c ****     return ret;
 576              		.loc 1 358 12
 577 0198 8B45E4   		movl	-28(%rbp), %eax
 578              	.L19:
 359:/home/xingli/share/1205tiny/build/linux_mqtt_demo/src/main.c **** }
 579              		.loc 1 359 1
 580 019b 488B75F8 		movq	-8(%rbp), %rsi
 581 019f 64483334 		xorq	%fs:40, %rsi
 581      25280000 
 581      00
 582 01a8 7405     		je	.L25
 583 01aa E8000000 		call	__stack_chk_fail@PLT
 583      00
 584              	.L25:
 585 01af C9       		leave
 586              	.LCFI11:
 587              		.cfi_def_cfa 7, 8
 588 01b0 C3       		ret
 589              		.cfi_endproc
 590              	.LFE9:
 592              		.section	.text.oc_cmdresp,"ax",@progbits
 594              	oc_cmdresp:
 595              	.LFB10:
 360:/home/xingli/share/1205tiny/build/linux_mqtt_demo/src/main.c **** 
 361:/home/xingli/share/1205tiny/build/linux_mqtt_demo/src/main.c **** static void oc_cmdresp(cmd_t* cmd, int cmdret)
 362:/home/xingli/share/1205tiny/build/linux_mqtt_demo/src/main.c **** {
 596              		.loc 1 362 1
 597              		.cfi_startproc
 598 0000 F30F1EFA 		endbr64
 599 0004 55       		pushq	%rbp
 600              	.LCFI12:
 601              		.cfi_def_cfa_offset 16
 602              		.cfi_offset 6, -16
 603 0005 4889E5   		movq	%rsp, %rbp
 604              	.LCFI13:
 605              		.cfi_def_cfa_register 6
 606 0008 4883EC40 		subq	$64, %rsp
 607 000c 48897DC8 		movq	%rdi, -56(%rbp)
 608 0010 8975C4   		movl	%esi, -60(%rbp)
 609              		.loc 1 362 1
 610 0013 64488B04 		movq	%fs:40, %rax
 610      25280000 
 610      00
 611 001c 488945F8 		movq	%rax, -8(%rbp)
 612 0020 31C0     		xorl	%eax, %eax
 363:/home/xingli/share/1205tiny/build/linux_mqtt_demo/src/main.c ****     oc_mqtt_profile_cmdresp_t cmdresp;
 364:/home/xingli/share/1205tiny/build/linux_mqtt_demo/src/main.c ****     ///< do the response
 365:/home/xingli/share/1205tiny/build/linux_mqtt_demo/src/main.c ****     cmdresp.paras = NULL;
 613              		.loc 1 365 19
 614 0022 48C745E8 		movq	$0, -24(%rbp)
 614      00000000 
 366:/home/xingli/share/1205tiny/build/linux_mqtt_demo/src/main.c ****     cmdresp.request_id = cmd->request_id;
 615              		.loc 1 366 29
GAS LISTING /tmp/ccE3coaW.s 			page 24


 616 002a 488B45C8 		movq	-56(%rbp), %rax
 617 002e 488B00   		movq	(%rax), %rax
 618              		.loc 1 366 24
 619 0031 488945E0 		movq	%rax, -32(%rbp)
 367:/home/xingli/share/1205tiny/build/linux_mqtt_demo/src/main.c ****     cmdresp.ret_code = cmdret;
 620              		.loc 1 367 22
 621 0035 8B45C4   		movl	-60(%rbp), %eax
 622 0038 8945D0   		movl	%eax, -48(%rbp)
 368:/home/xingli/share/1205tiny/build/linux_mqtt_demo/src/main.c ****     cmdresp.ret_name = NULL;
 623              		.loc 1 368 22
 624 003b 48C745D8 		movq	$0, -40(%rbp)
 624      00000000 
 369:/home/xingli/share/1205tiny/build/linux_mqtt_demo/src/main.c ****     (void)oc_mqtt_profile_cmdresp(NULL, &cmdresp);
 625              		.loc 1 369 11
 626 0043 488D45D0 		leaq	-48(%rbp), %rax
 627 0047 4889C6   		movq	%rax, %rsi
 628 004a BF000000 		movl	$0, %edi
 628      00
 629 004f E8000000 		call	oc_mqtt_profile_cmdresp@PLT
 629      00
 370:/home/xingli/share/1205tiny/build/linux_mqtt_demo/src/main.c **** }
 630              		.loc 1 370 1
 631 0054 90       		nop
 632 0055 488B45F8 		movq	-8(%rbp), %rax
 633 0059 64483304 		xorq	%fs:40, %rax
 633      25280000 
 633      00
 634 0062 7405     		je	.L27
 635 0064 E8000000 		call	__stack_chk_fail@PLT
 635      00
 636              	.L27:
 637 0069 C9       		leave
 638              	.LCFI14:
 639              		.cfi_def_cfa 7, 8
 640 006a C3       		ret
 641              		.cfi_endproc
 642              	.LFE10:
 644              		.section	.text.oc_setresp,"ax",@progbits
 646              	oc_setresp:
 647              	.LFB11:
 371:/home/xingli/share/1205tiny/build/linux_mqtt_demo/src/main.c **** 
 372:/home/xingli/share/1205tiny/build/linux_mqtt_demo/src/main.c **** static void oc_setresp(char *request_id, int ret_code)
 373:/home/xingli/share/1205tiny/build/linux_mqtt_demo/src/main.c **** {
 648              		.loc 1 373 1
 649              		.cfi_startproc
 650 0000 F30F1EFA 		endbr64
 651 0004 55       		pushq	%rbp
 652              	.LCFI15:
 653              		.cfi_def_cfa_offset 16
 654              		.cfi_offset 6, -16
 655 0005 4889E5   		movq	%rsp, %rbp
 656              	.LCFI16:
 657              		.cfi_def_cfa_register 6
 658 0008 4883EC30 		subq	$48, %rsp
 659 000c 48897DD8 		movq	%rdi, -40(%rbp)
 660 0010 8975D4   		movl	%esi, -44(%rbp)
 661              		.loc 1 373 1
GAS LISTING /tmp/ccE3coaW.s 			page 25


 662 0013 64488B04 		movq	%fs:40, %rax
 662      25280000 
 662      00
 663 001c 488945F8 		movq	%rax, -8(%rbp)
 664 0020 31C0     		xorl	%eax, %eax
 374:/home/xingli/share/1205tiny/build/linux_mqtt_demo/src/main.c ****     oc_mqtt_profile_propertysetresp_t setresp;
 375:/home/xingli/share/1205tiny/build/linux_mqtt_demo/src/main.c ****     setresp.request_id = request_id;
 665              		.loc 1 375 24
 666 0022 488B45D8 		movq	-40(%rbp), %rax
 667 0026 488945F0 		movq	%rax, -16(%rbp)
 376:/home/xingli/share/1205tiny/build/linux_mqtt_demo/src/main.c ****     setresp.ret_code = ret_code;
 668              		.loc 1 376 22
 669 002a 8B45D4   		movl	-44(%rbp), %eax
 670 002d 8945E0   		movl	%eax, -32(%rbp)
 377:/home/xingli/share/1205tiny/build/linux_mqtt_demo/src/main.c ****     setresp.ret_description = NULL;
 671              		.loc 1 377 29
 672 0030 48C745E8 		movq	$0, -24(%rbp)
 672      00000000 
 378:/home/xingli/share/1205tiny/build/linux_mqtt_demo/src/main.c ****     (void)oc_mqtt_profile_propertysetresp(NULL, &setresp);
 673              		.loc 1 378 11
 674 0038 488D45E0 		leaq	-32(%rbp), %rax
 675 003c 4889C6   		movq	%rax, %rsi
 676 003f BF000000 		movl	$0, %edi
 676      00
 677 0044 E8000000 		call	oc_mqtt_profile_propertysetresp@PLT
 677      00
 379:/home/xingli/share/1205tiny/build/linux_mqtt_demo/src/main.c **** }
 678              		.loc 1 379 1
 679 0049 90       		nop
 680 004a 488B45F8 		movq	-8(%rbp), %rax
 681 004e 64483304 		xorq	%fs:40, %rax
 681      25280000 
 681      00
 682 0057 7405     		je	.L29
 683 0059 E8000000 		call	__stack_chk_fail@PLT
 683      00
 684              	.L29:
 685 005e C9       		leave
 686              	.LCFI17:
 687              		.cfi_def_cfa 7, 8
 688 005f C3       		ret
 689              		.cfi_endproc
 690              	.LFE11:
 692              		.section	.rodata
 693              	.LC20:
 694 00f0 636F6D6D 		.string	"command_name"
 694      616E645F 
 694      6E616D65 
 694      00
 695              	.LC21:
 696 00fd 41677269 		.string	"Agriculture_Control_light"
 696      63756C74 
 696      7572655F 
 696      436F6E74 
 696      726F6C5F 
 697              	.LC22:
 698 0117 41677269 		.string	"Agriculture_Control_Motor"
GAS LISTING /tmp/ccE3coaW.s 			page 26


 698      63756C74 
 698      7572655F 
 698      436F6E74 
 698      726F6C5F 
 699              		.section	.text.deal_cmd_msg,"ax",@progbits
 701              	deal_cmd_msg:
 702              	.LFB12:
 380:/home/xingli/share/1205tiny/build/linux_mqtt_demo/src/main.c **** 
 381:/home/xingli/share/1205tiny/build/linux_mqtt_demo/src/main.c **** static void deal_cmd_msg(cmd_t* cmd)
 382:/home/xingli/share/1205tiny/build/linux_mqtt_demo/src/main.c **** {
 703              		.loc 1 382 1
 704              		.cfi_startproc
 705 0000 F30F1EFA 		endbr64
 706 0004 55       		pushq	%rbp
 707              	.LCFI18:
 708              		.cfi_def_cfa_offset 16
 709              		.cfi_offset 6, -16
 710 0005 4889E5   		movq	%rsp, %rbp
 711              	.LCFI19:
 712              		.cfi_def_cfa_register 6
 713 0008 4883EC30 		subq	$48, %rsp
 714 000c 48897DD8 		movq	%rdi, -40(%rbp)
 715              		.loc 1 382 1
 716 0010 64488B04 		movq	%fs:40, %rax
 716      25280000 
 716      00
 717 0019 488945F8 		movq	%rax, -8(%rbp)
 718 001d 31C0     		xorl	%eax, %eax
 383:/home/xingli/share/1205tiny/build/linux_mqtt_demo/src/main.c ****     cJSON* obj_root;
 384:/home/xingli/share/1205tiny/build/linux_mqtt_demo/src/main.c ****     cJSON* obj_cmdname;
 385:/home/xingli/share/1205tiny/build/linux_mqtt_demo/src/main.c **** 
 386:/home/xingli/share/1205tiny/build/linux_mqtt_demo/src/main.c ****     int cmdret = 1;
 719              		.loc 1 386 9
 720 001f C745E401 		movl	$1, -28(%rbp)
 720      000000
 387:/home/xingli/share/1205tiny/build/linux_mqtt_demo/src/main.c ****     obj_root = cJSON_Parse(cmd->payload);
 721              		.loc 1 387 31
 722 0026 488B45D8 		movq	-40(%rbp), %rax
 723 002a 488B4008 		movq	8(%rax), %rax
 724              		.loc 1 387 16
 725 002e 4889C7   		movq	%rax, %rdi
 726 0031 E8000000 		call	cJSON_Parse@PLT
 726      00
 727 0036 488945E8 		movq	%rax, -24(%rbp)
 388:/home/xingli/share/1205tiny/build/linux_mqtt_demo/src/main.c **** 
 389:/home/xingli/share/1205tiny/build/linux_mqtt_demo/src/main.c ****     if (obj_root == NULL) {
 728              		.loc 1 389 8
 729 003a 48837DE8 		cmpq	$0, -24(%rbp)
 729      00
 730 003f 7469     		je	.L37
 390:/home/xingli/share/1205tiny/build/linux_mqtt_demo/src/main.c ****         goto EXIT_JSONPRASE;
 391:/home/xingli/share/1205tiny/build/linux_mqtt_demo/src/main.c ****     }
 392:/home/xingli/share/1205tiny/build/linux_mqtt_demo/src/main.c **** 
 393:/home/xingli/share/1205tiny/build/linux_mqtt_demo/src/main.c ****     obj_cmdname = cJSON_GetObjectItem(obj_root, "command_name");
 731              		.loc 1 393 19
 732 0041 488B45E8 		movq	-24(%rbp), %rax
 733 0045 488D3500 		leaq	.LC20(%rip), %rsi
GAS LISTING /tmp/ccE3coaW.s 			page 27


 733      000000
 734 004c 4889C7   		movq	%rax, %rdi
 735 004f E8000000 		call	cJSON_GetObjectItem@PLT
 735      00
 736 0054 488945F0 		movq	%rax, -16(%rbp)
 394:/home/xingli/share/1205tiny/build/linux_mqtt_demo/src/main.c ****     if (obj_cmdname == NULL) {
 737              		.loc 1 394 8
 738 0058 48837DF0 		cmpq	$0, -16(%rbp)
 738      00
 739 005d 743C     		je	.L38
 395:/home/xingli/share/1205tiny/build/linux_mqtt_demo/src/main.c ****         goto EXIT_CMDOBJ;
 396:/home/xingli/share/1205tiny/build/linux_mqtt_demo/src/main.c ****     }
 397:/home/xingli/share/1205tiny/build/linux_mqtt_demo/src/main.c ****     
 398:/home/xingli/share/1205tiny/build/linux_mqtt_demo/src/main.c ****     if (strcmp(cJSON_GetStringValue(obj_cmdname), "Agriculture_Control_light") == 0) {
 740              		.loc 1 398 16
 741 005f 488B45F0 		movq	-16(%rbp), %rax
 742 0063 4889C7   		movq	%rax, %rdi
 743 0066 E8000000 		call	cJSON_GetStringValue@PLT
 743      00
 744              		.loc 1 398 9
 745 006b 488D3500 		leaq	.LC21(%rip), %rsi
 745      000000
 746 0072 4889C7   		movq	%rax, %rdi
 747 0075 E8000000 		call	strcmp@PLT
 747      00
 748              		.loc 1 398 8
 749 007a 85C0     		testl	%eax, %eax
 750 007c 741E     		je	.L34
 399:/home/xingli/share/1205tiny/build/linux_mqtt_demo/src/main.c ****         //cmdret = deal_light_cmd(cmd, obj_root);
 400:/home/xingli/share/1205tiny/build/linux_mqtt_demo/src/main.c ****     } else if (strcmp(cJSON_GetStringValue(obj_cmdname), "Agriculture_Control_Motor") == 0) {
 751              		.loc 1 400 23
 752 007e 488B45F0 		movq	-16(%rbp), %rax
 753 0082 4889C7   		movq	%rax, %rdi
 754 0085 E8000000 		call	cJSON_GetStringValue@PLT
 754      00
 755              		.loc 1 400 16
 756 008a 488D3500 		leaq	.LC22(%rip), %rsi
 756      000000
 757 0091 4889C7   		movq	%rax, %rdi
 758 0094 E8000000 		call	strcmp@PLT
 758      00
 401:/home/xingli/share/1205tiny/build/linux_mqtt_demo/src/main.c ****         //cmdret = deal_motor_cmd(cmd, obj_root);
 402:/home/xingli/share/1205tiny/build/linux_mqtt_demo/src/main.c ****     }
 403:/home/xingli/share/1205tiny/build/linux_mqtt_demo/src/main.c ****     
 404:/home/xingli/share/1205tiny/build/linux_mqtt_demo/src/main.c **** EXIT_CMDOBJ:
 759              		.loc 1 404 1
 760 0099 EB01     		jmp	.L34
 761              	.L38:
 395:/home/xingli/share/1205tiny/build/linux_mqtt_demo/src/main.c ****     }
 762              		.loc 1 395 9
 763 009b 90       		nop
 764              	.L34:
 405:/home/xingli/share/1205tiny/build/linux_mqtt_demo/src/main.c ****     cJSON_Delete(obj_root);
 765              		.loc 1 405 5
 766 009c 488B45E8 		movq	-24(%rbp), %rax
 767 00a0 4889C7   		movq	%rax, %rdi
 768 00a3 E8000000 		call	cJSON_Delete@PLT
GAS LISTING /tmp/ccE3coaW.s 			page 28


 768      00
 769 00a8 EB01     		jmp	.L32
 770              	.L37:
 390:/home/xingli/share/1205tiny/build/linux_mqtt_demo/src/main.c ****     }
 771              		.loc 1 390 9
 772 00aa 90       		nop
 773              	.L32:
 406:/home/xingli/share/1205tiny/build/linux_mqtt_demo/src/main.c **** EXIT_JSONPRASE:
 407:/home/xingli/share/1205tiny/build/linux_mqtt_demo/src/main.c ****     oc_cmdresp(cmd, cmdret);
 774              		.loc 1 407 5
 775 00ab 8B55E4   		movl	-28(%rbp), %edx
 776 00ae 488B45D8 		movq	-40(%rbp), %rax
 777 00b2 89D6     		movl	%edx, %esi
 778 00b4 4889C7   		movq	%rax, %rdi
 779 00b7 E8000000 		call	oc_cmdresp
 779      00
 408:/home/xingli/share/1205tiny/build/linux_mqtt_demo/src/main.c ****     return;
 780              		.loc 1 408 5
 781 00bc 90       		nop
 409:/home/xingli/share/1205tiny/build/linux_mqtt_demo/src/main.c **** }
 782              		.loc 1 409 1
 783 00bd 488B45F8 		movq	-8(%rbp), %rax
 784 00c1 64483304 		xorq	%fs:40, %rax
 784      25280000 
 784      00
 785 00ca 7405     		je	.L36
 786 00cc E8000000 		call	__stack_chk_fail@PLT
 786      00
 787              	.L36:
 788 00d1 C9       		leave
 789              	.LCFI20:
 790              		.cfi_def_cfa 7, 8
 791 00d2 C3       		ret
 792              		.cfi_endproc
 793              	.LFE12:
 795              		.section	.rodata
 796              	.LC23:
 797 0131 71756575 		.string	"queue_rcvmsg"
 797      655F7263 
 797      766D7367 
 797      00
 798 013e 0000     		.align 8
 799              	.LC24:
 800 0140 43726561 		.string	"Create receive msg queue failed"
 800      74652072 
 800      65636569 
 800      7665206D 
 800      73672071 
 801              		.align 8
 802              	.LC25:
 803 0160 36306266 		.string	"60bf519cb86d7b02bc518aa9_softbusTiny26"
 803      35313963 
 803      62383664 
 803      37623032 
 803      62633531 
 804              	.LC26:
 805 0187 31333130 		.string	"13101518025"
GAS LISTING /tmp/ccE3coaW.s 			page 29


 805      31353138 
 805      30323500 
 806              	.LC27:
 807 0193 3132312E 		.string	"121.36.42.100"
 807      33362E34 
 807      322E3130 
 807      3000
 808              	.LC28:
 809 01a1 38383833 		.string	"8883"
 809      00
 810              	.LC29:
 811 01a6 72657420 		.string	"ret = %u\n"
 811      3D202575 
 811      0A00
 812              		.align 8
 813              	.LC30:
 814 01b0 6F635F6D 		.string	"oc_mqtt_profile_connect succed!\r"
 814      7174745F 
 814      70726F66 
 814      696C655F 
 814      636F6E6E 
 815 01d1 00000000 		.align 8
 815      000000
 816              	.LC31:
 817 01d8 6F635F6D 		.string	"oc_mqtt_profile_connect faild!\r"
 817      7174745F 
 817      70726F66 
 817      696C655F 
 817      636F6E6E 
 818              		.section	.text.CloudMainTaskEntry,"ax",@progbits
 820              	CloudMainTaskEntry:
 821              	.LFB13:
 410:/home/xingli/share/1205tiny/build/linux_mqtt_demo/src/main.c **** 
 411:/home/xingli/share/1205tiny/build/linux_mqtt_demo/src/main.c **** static int CloudMainTaskEntry(void *args)
 412:/home/xingli/share/1205tiny/build/linux_mqtt_demo/src/main.c **** {
 822              		.loc 1 412 1
 823              		.cfi_startproc
 824 0000 F30F1EFA 		endbr64
 825 0004 55       		pushq	%rbp
 826              	.LCFI21:
 827              		.cfi_def_cfa_offset 16
 828              		.cfi_offset 6, -16
 829 0005 4889E5   		movq	%rsp, %rbp
 830              	.LCFI22:
 831              		.cfi_def_cfa_register 6
 832 0008 4881ECB0 		subq	$176, %rsp
 832      000000
 833 000f 4889BD58 		movq	%rdi, -168(%rbp)
 833      FFFFFF
 834              		.loc 1 412 1
 835 0016 64488B04 		movq	%fs:40, %rax
 835      25280000 
 835      00
 836 001f 488945F8 		movq	%rax, -8(%rbp)
 837 0023 31C0     		xorl	%eax, %eax
 413:/home/xingli/share/1205tiny/build/linux_mqtt_demo/src/main.c ****     app_msg_t* app_msg;
 414:/home/xingli/share/1205tiny/build/linux_mqtt_demo/src/main.c ****     uint32_t ret;
GAS LISTING /tmp/ccE3coaW.s 			page 30


 415:/home/xingli/share/1205tiny/build/linux_mqtt_demo/src/main.c ****     g_app_cb.app_msg = queue_create("queue_rcvmsg", 10, 1);
 838              		.loc 1 415 24
 839 0025 BA010000 		movl	$1, %edx
 839      00
 840 002a BE0A0000 		movl	$10, %esi
 840      00
 841 002f 488D3D00 		leaq	.LC23(%rip), %rdi
 841      000000
 842 0036 E8000000 		call	queue_create@PLT
 842      00
 843              		.loc 1 415 22
 844 003b 48890500 		movq	%rax, g_app_cb(%rip)
 844      000000
 416:/home/xingli/share/1205tiny/build/linux_mqtt_demo/src/main.c ****     if (g_app_cb.app_msg == NULL) {
 845              		.loc 1 416 17
 846 0042 488B0500 		movq	g_app_cb(%rip), %rax
 846      000000
 847              		.loc 1 416 8
 848 0049 4885C0   		testq	%rax, %rax
 849 004c 7511     		jne	.L40
 417:/home/xingli/share/1205tiny/build/linux_mqtt_demo/src/main.c ****         printf("Create receive msg queue failed");
 850              		.loc 1 417 9
 851 004e 488D3D00 		leaq	.LC24(%rip), %rdi
 851      000000
 852 0055 B8000000 		movl	$0, %eax
 852      00
 853 005a E8000000 		call	printf@PLT
 853      00
 854              	.L40:
 418:/home/xingli/share/1205tiny/build/linux_mqtt_demo/src/main.c ****     }
 419:/home/xingli/share/1205tiny/build/linux_mqtt_demo/src/main.c ****     oc_mqtt_profile_connect_t connect_para;
 420:/home/xingli/share/1205tiny/build/linux_mqtt_demo/src/main.c ****     (void)memset(&connect_para, 0, sizeof(connect_para));
 855              		.loc 1 420 11
 856 005f 488D8570 		leaq	-144(%rbp), %rax
 856      FFFFFF
 857 0066 BA800000 		movl	$128, %edx
 857      00
 858 006b BE000000 		movl	$0, %esi
 858      00
 859 0070 4889C7   		movq	%rax, %rdi
 860 0073 E8000000 		call	memset@PLT
 860      00
 421:/home/xingli/share/1205tiny/build/linux_mqtt_demo/src/main.c **** 
 422:/home/xingli/share/1205tiny/build/linux_mqtt_demo/src/main.c ****     connect_para.boostrap = CN_BOOT_MODE;
 861              		.loc 1 422 27
 862 0078 C78570FF 		movl	$0, -144(%rbp)
 862      FFFF0000 
 862      0000
 423:/home/xingli/share/1205tiny/build/linux_mqtt_demo/src/main.c ****     connect_para.device_id = CN_APP_DEVICEID;
 863              		.loc 1 423 28
 864 0082 488D0500 		leaq	.LC25(%rip), %rax
 864      000000
 865 0089 48894588 		movq	%rax, -120(%rbp)
 424:/home/xingli/share/1205tiny/build/linux_mqtt_demo/src/main.c ****     connect_para.device_passwd = CN_APP_DEVICEPWD;
 866              		.loc 1 424 32
 867 008d 488D0500 		leaq	.LC26(%rip), %rax
 867      000000
GAS LISTING /tmp/ccE3coaW.s 			page 31


 868 0094 48894590 		movq	%rax, -112(%rbp)
 425:/home/xingli/share/1205tiny/build/linux_mqtt_demo/src/main.c ****     connect_para.server_addr = CN_SERVER_IPV4;
 869              		.loc 1 425 30
 870 0098 488D0500 		leaq	.LC27(%rip), %rax
 870      000000
 871 009f 48898578 		movq	%rax, -136(%rbp)
 871      FFFFFF
 426:/home/xingli/share/1205tiny/build/linux_mqtt_demo/src/main.c ****     connect_para.server_port = CN_SERVER_PORT;
 872              		.loc 1 426 30
 873 00a6 488D0500 		leaq	.LC28(%rip), %rax
 873      000000
 874 00ad 48894580 		movq	%rax, -128(%rbp)
 427:/home/xingli/share/1205tiny/build/linux_mqtt_demo/src/main.c ****     connect_para.life_time = CN_APP_LIFETIME;
 875              		.loc 1 427 28
 876 00b1 C78574FF 		movl	$60, -140(%rbp)
 876      FFFF3C00 
 876      0000
 428:/home/xingli/share/1205tiny/build/linux_mqtt_demo/src/main.c ****     connect_para.rcvfunc = msg_rcv_callback;
 877              		.loc 1 428 26
 878 00bb 488D0500 		leaq	msg_rcv_callback(%rip), %rax
 878      000000
 879 00c2 488945E0 		movq	%rax, -32(%rbp)
 429:/home/xingli/share/1205tiny/build/linux_mqtt_demo/src/main.c **** 
 430:/home/xingli/share/1205tiny/build/linux_mqtt_demo/src/main.c ****     connect_para.security.type = CN_SECURITY_TYPE;
 880              		.loc 1 430 32
 881 00c6 C745A002 		movl	$2, -96(%rbp)
 881      000000
 431:/home/xingli/share/1205tiny/build/linux_mqtt_demo/src/main.c **** 
 432:/home/xingli/share/1205tiny/build/linux_mqtt_demo/src/main.c **** #ifdef CONFIG_OC_MQTTV5_DEMO_TLS
 433:/home/xingli/share/1205tiny/build/linux_mqtt_demo/src/main.c ****     connect_para.security.u.cert.server_ca = (uint8_t *)s_server_ca;
 882              		.loc 1 433 44
 883 00cd 488D0500 		leaq	s_server_ca(%rip), %rax
 883      000000
 884 00d4 488945A8 		movq	%rax, -88(%rbp)
 434:/home/xingli/share/1205tiny/build/linux_mqtt_demo/src/main.c ****     connect_para.security.u.cert.server_ca_len = sizeof(s_server_ca);
 885              		.loc 1 434 48
 886 00d8 C745C834 		movl	$2612, -56(%rbp)
 886      0A0000
 435:/home/xingli/share/1205tiny/build/linux_mqtt_demo/src/main.c **** #ifdef CONFIG_OC_MQTTV5_TLS_BIDIRECTION
 436:/home/xingli/share/1205tiny/build/linux_mqtt_demo/src/main.c ****     connect_para.device_passwd = NULL;
 437:/home/xingli/share/1205tiny/build/linux_mqtt_demo/src/main.c ****     connect_para.security.u.cert.client_ca = (uint8_t *)s_client_ca;
 438:/home/xingli/share/1205tiny/build/linux_mqtt_demo/src/main.c ****     connect_para.security.u.cert.client_ca_len = sizeof(s_client_ca);
 439:/home/xingli/share/1205tiny/build/linux_mqtt_demo/src/main.c ****     connect_para.security.u.cert.client_pk = (uint8_t *)s_client_pk;
 440:/home/xingli/share/1205tiny/build/linux_mqtt_demo/src/main.c ****     connect_para.security.u.cert.client_pk_len = sizeof(s_client_pk);
 441:/home/xingli/share/1205tiny/build/linux_mqtt_demo/src/main.c ****     connect_para.security.u.cert.client_pk_pwd = (uint8_t *)s_client_pk_pwd;
 442:/home/xingli/share/1205tiny/build/linux_mqtt_demo/src/main.c ****     connect_para.security.u.cert.client_pk_pwd_len = strlen(s_client_pk_pwd);
 443:/home/xingli/share/1205tiny/build/linux_mqtt_demo/src/main.c **** #endif   ///<endfor bidirection
 444:/home/xingli/share/1205tiny/build/linux_mqtt_demo/src/main.c **** #endif   ///<endfor tls
 445:/home/xingli/share/1205tiny/build/linux_mqtt_demo/src/main.c **** 
 446:/home/xingli/share/1205tiny/build/linux_mqtt_demo/src/main.c ****     ret = oc_mqtt_profile_connect(&connect_para);
 887              		.loc 1 446 11
 888 00df 488D8570 		leaq	-144(%rbp), %rax
 888      FFFFFF
 889 00e6 4889C7   		movq	%rax, %rdi
 890 00e9 E8000000 		call	oc_mqtt_profile_connect@PLT
 890      00
 891              		.loc 1 446 9
GAS LISTING /tmp/ccE3coaW.s 			page 32


 892 00ee 898564FF 		movl	%eax, -156(%rbp)
 892      FFFF
 447:/home/xingli/share/1205tiny/build/linux_mqtt_demo/src/main.c ****     printf("ret = %u\n", ret);
 893              		.loc 1 447 5
 894 00f4 8B8564FF 		movl	-156(%rbp), %eax
 894      FFFF
 895 00fa 89C6     		movl	%eax, %esi
 896 00fc 488D3D00 		leaq	.LC29(%rip), %rdi
 896      000000
 897 0103 B8000000 		movl	$0, %eax
 897      00
 898 0108 E8000000 		call	printf@PLT
 898      00
 448:/home/xingli/share/1205tiny/build/linux_mqtt_demo/src/main.c ****     if ((int)en_oc_mqtt_err_ok == ret) {
 899              		.loc 1 448 8
 900 010d 83BD64FF 		cmpl	$0, -156(%rbp)
 900      FFFF00
 901 0114 7518     		jne	.L41
 449:/home/xingli/share/1205tiny/build/linux_mqtt_demo/src/main.c ****         g_app_cb.connected = 1;
 902              		.loc 1 449 28
 903 0116 C7050000 		movl	$1, 8+g_app_cb(%rip)
 903      00000100 
 903      0000
 450:/home/xingli/share/1205tiny/build/linux_mqtt_demo/src/main.c ****         printf("oc_mqtt_profile_connect succed!\r\n");
 904              		.loc 1 450 9
 905 0120 488D3D00 		leaq	.LC30(%rip), %rdi
 905      000000
 906 0127 E8000000 		call	puts@PLT
 906      00
 907 012c EB0C     		jmp	.L42
 908              	.L41:
 451:/home/xingli/share/1205tiny/build/linux_mqtt_demo/src/main.c ****     } else {
 452:/home/xingli/share/1205tiny/build/linux_mqtt_demo/src/main.c ****         printf("oc_mqtt_profile_connect faild!\r\n");
 909              		.loc 1 452 9
 910 012e 488D3D00 		leaq	.LC31(%rip), %rdi
 910      000000
 911 0135 E8000000 		call	puts@PLT
 911      00
 912              	.L42:
 453:/home/xingli/share/1205tiny/build/linux_mqtt_demo/src/main.c ****     }
 454:/home/xingli/share/1205tiny/build/linux_mqtt_demo/src/main.c **** 
 455:/home/xingli/share/1205tiny/build/linux_mqtt_demo/src/main.c ****     GetShadowByServiceId(NULL);
 913              		.loc 1 455 5
 914 013a BF000000 		movl	$0, %edi
 914      00
 915 013f E8000000 		call	GetShadowByServiceId
 915      00
 916              	.L48:
 456:/home/xingli/share/1205tiny/build/linux_mqtt_demo/src/main.c **** 
 457:/home/xingli/share/1205tiny/build/linux_mqtt_demo/src/main.c ****     while (1) {
 458:/home/xingli/share/1205tiny/build/linux_mqtt_demo/src/main.c ****         app_msg = NULL;
 917              		.loc 1 458 17
 918 0144 48C78568 		movq	$0, -152(%rbp)
 918      FFFFFF00 
 918      000000
 459:/home/xingli/share/1205tiny/build/linux_mqtt_demo/src/main.c ****         (void)queue_pop(g_app_cb.app_msg, (void**)&app_msg, (int)cn_osal_timeout_forever);
 919              		.loc 1 459 15
GAS LISTING /tmp/ccE3coaW.s 			page 33


 920 014f 488B0500 		movq	g_app_cb(%rip), %rax
 920      000000
 921 0156 488D8D68 		leaq	-152(%rbp), %rcx
 921      FFFFFF
 922 015d BAFFFFFF 		movl	$-1, %edx
 922      FF
 923 0162 4889CE   		movq	%rcx, %rsi
 924 0165 4889C7   		movq	%rax, %rdi
 925 0168 E8000000 		call	queue_pop@PLT
 925      00
 460:/home/xingli/share/1205tiny/build/linux_mqtt_demo/src/main.c ****         if (app_msg != NULL) {
 926              		.loc 1 460 21
 927 016d 488B8568 		movq	-152(%rbp), %rax
 927      FFFFFF
 928              		.loc 1 460 12
 929 0174 4885C0   		testq	%rax, %rax
 930 0177 74CB     		je	.L48
 461:/home/xingli/share/1205tiny/build/linux_mqtt_demo/src/main.c ****             switch (app_msg->msg_type) {
 931              		.loc 1 461 28
 932 0179 488B8568 		movq	-152(%rbp), %rax
 932      FFFFFF
 933 0180 8B00     		movl	(%rax), %eax
 934              		.loc 1 461 13
 935 0182 85C0     		testl	%eax, %eax
 936 0184 7407     		je	.L44
 937 0186 83F808   		cmpl	$8, %eax
 938 0189 7417     		je	.L45
 462:/home/xingli/share/1205tiny/build/linux_mqtt_demo/src/main.c ****                 case (en_msg_type_t)EN_OC_MQTT_PROFILE_MSG_TYPE_DOWN_MSGDOWN:
 463:/home/xingli/share/1205tiny/build/linux_mqtt_demo/src/main.c ****                     deal_cmd_msg(&app_msg->msg.cmd);
 464:/home/xingli/share/1205tiny/build/linux_mqtt_demo/src/main.c ****                     break;
 465:/home/xingli/share/1205tiny/build/linux_mqtt_demo/src/main.c ****                 case en_msg_report:
 466:/home/xingli/share/1205tiny/build/linux_mqtt_demo/src/main.c ****                     deal_report_msg(&app_msg->msg.report);
 467:/home/xingli/share/1205tiny/build/linux_mqtt_demo/src/main.c ****                     break;
 468:/home/xingli/share/1205tiny/build/linux_mqtt_demo/src/main.c ****                 default:
 469:/home/xingli/share/1205tiny/build/linux_mqtt_demo/src/main.c ****                     break;
 939              		.loc 1 469 21
 940 018b EB29     		jmp	.L47
 941              	.L44:
 463:/home/xingli/share/1205tiny/build/linux_mqtt_demo/src/main.c ****                     break;
 942              		.loc 1 463 42
 943 018d 488B8568 		movq	-152(%rbp), %rax
 943      FFFFFF
 463:/home/xingli/share/1205tiny/build/linux_mqtt_demo/src/main.c ****                     break;
 944              		.loc 1 463 21
 945 0194 4883C008 		addq	$8, %rax
 946 0198 4889C7   		movq	%rax, %rdi
 947 019b E8000000 		call	deal_cmd_msg
 947      00
 464:/home/xingli/share/1205tiny/build/linux_mqtt_demo/src/main.c ****                 case en_msg_report:
 948              		.loc 1 464 21
 949 01a0 EB14     		jmp	.L47
 950              	.L45:
 466:/home/xingli/share/1205tiny/build/linux_mqtt_demo/src/main.c ****                     break;
 951              		.loc 1 466 45
 952 01a2 488B8568 		movq	-152(%rbp), %rax
 952      FFFFFF
 466:/home/xingli/share/1205tiny/build/linux_mqtt_demo/src/main.c ****                     break;
GAS LISTING /tmp/ccE3coaW.s 			page 34


 953              		.loc 1 466 21
 954 01a9 4883C008 		addq	$8, %rax
 955 01ad 4889C7   		movq	%rax, %rdi
 956 01b0 E8000000 		call	deal_report_msg
 956      00
 467:/home/xingli/share/1205tiny/build/linux_mqtt_demo/src/main.c ****                 default:
 957              		.loc 1 467 21
 958 01b5 90       		nop
 959              	.L47:
 470:/home/xingli/share/1205tiny/build/linux_mqtt_demo/src/main.c ****             }
 471:/home/xingli/share/1205tiny/build/linux_mqtt_demo/src/main.c ****             free(app_msg);
 960              		.loc 1 471 13
 961 01b6 488B8568 		movq	-152(%rbp), %rax
 961      FFFFFF
 962 01bd 4889C7   		movq	%rax, %rdi
 963 01c0 E8000000 		call	free@PLT
 963      00
 458:/home/xingli/share/1205tiny/build/linux_mqtt_demo/src/main.c ****         (void)queue_pop(g_app_cb.app_msg, (void**)&app_msg, (int)cn_osal_timeout_forever);
 964              		.loc 1 458 17
 965 01c5 E97AFFFF 		jmp	.L48
 965      FF
 966              		.cfi_endproc
 967              	.LFE13:
 969              		.section	.rodata
 970              	.LC32:
 971 01f8 53656E73 		.string	"SensorTaskEntry start!\r"
 971      6F725461 
 971      736B456E 
 971      74727920 
 971      73746172 
 972              	.LC33:
 973 0210 53656E73 		.string	"SensorTaskEntry loop start!\r"
 973      6F725461 
 973      736B456E 
 973      74727920 
 973      6C6F6F70 
 974              		.section	.text.SensorTaskEntry,"ax",@progbits
 976              	SensorTaskEntry:
 977              	.LFB14:
 472:/home/xingli/share/1205tiny/build/linux_mqtt_demo/src/main.c ****         }
 473:/home/xingli/share/1205tiny/build/linux_mqtt_demo/src/main.c ****     }
 474:/home/xingli/share/1205tiny/build/linux_mqtt_demo/src/main.c ****     return 0;
 475:/home/xingli/share/1205tiny/build/linux_mqtt_demo/src/main.c **** }
 476:/home/xingli/share/1205tiny/build/linux_mqtt_demo/src/main.c **** 
 477:/home/xingli/share/1205tiny/build/linux_mqtt_demo/src/main.c **** static int SensorTaskEntry(void *args)
 478:/home/xingli/share/1205tiny/build/linux_mqtt_demo/src/main.c **** {
 978              		.loc 1 478 1
 979              		.cfi_startproc
 980 0000 F30F1EFA 		endbr64
 981 0004 55       		pushq	%rbp
 982              	.LCFI23:
 983              		.cfi_def_cfa_offset 16
 984              		.cfi_offset 6, -16
 985 0005 4889E5   		movq	%rsp, %rbp
 986              	.LCFI24:
 987              		.cfi_def_cfa_register 6
 988 0008 4883EC20 		subq	$32, %rsp
GAS LISTING /tmp/ccE3coaW.s 			page 35


 989 000c 48897DE8 		movq	%rdi, -24(%rbp)
 990              		.loc 1 478 1
 991 0010 64488B04 		movq	%fs:40, %rax
 991      25280000 
 991      00
 992 0019 488945F8 		movq	%rax, -8(%rbp)
 993 001d 31C0     		xorl	%eax, %eax
 479:/home/xingli/share/1205tiny/build/linux_mqtt_demo/src/main.c ****     app_msg_t* app_msg;
 480:/home/xingli/share/1205tiny/build/linux_mqtt_demo/src/main.c **** 
 481:/home/xingli/share/1205tiny/build/linux_mqtt_demo/src/main.c ****     printf("SensorTaskEntry start!\r\n");
 994              		.loc 1 481 5
 995 001f 488D3D00 		leaq	.LC32(%rip), %rdi
 995      000000
 996 0026 E8000000 		call	puts@PLT
 996      00
 997              	.L52:
 482:/home/xingli/share/1205tiny/build/linux_mqtt_demo/src/main.c ****         
 483:/home/xingli/share/1205tiny/build/linux_mqtt_demo/src/main.c ****     while (1) {
 484:/home/xingli/share/1205tiny/build/linux_mqtt_demo/src/main.c ****         printf("SensorTaskEntry loop start!\r\n");
 998              		.loc 1 484 9
 999 002b 488D3D00 		leaq	.LC33(%rip), %rdi
 999      000000
 1000 0032 E8000000 		call	puts@PLT
 1000      00
 485:/home/xingli/share/1205tiny/build/linux_mqtt_demo/src/main.c ****             
 486:/home/xingli/share/1205tiny/build/linux_mqtt_demo/src/main.c ****         app_msg = malloc(sizeof(app_msg_t));
 1001              		.loc 1 486 19
 1002 0037 BF180000 		movl	$24, %edi
 1002      00
 1003 003c E8000000 		call	malloc@PLT
 1003      00
 1004 0041 488945F0 		movq	%rax, -16(%rbp)
 487:/home/xingli/share/1205tiny/build/linux_mqtt_demo/src/main.c ****         if (app_msg != NULL) {
 1005              		.loc 1 487 12
 1006 0045 48837DF0 		cmpq	$0, -16(%rbp)
 1006      00
 1007 004a 7456     		je	.L51
 488:/home/xingli/share/1205tiny/build/linux_mqtt_demo/src/main.c ****             app_msg->msg_type = en_msg_report;
 1008              		.loc 1 488 31
 1009 004c 488B45F0 		movq	-16(%rbp), %rax
 1010 0050 C7000800 		movl	$8, (%rax)
 1010      0000
 489:/home/xingli/share/1205tiny/build/linux_mqtt_demo/src/main.c ****             app_msg->msg.report.hum = 52;
 1011              		.loc 1 489 37
 1012 0056 488B45F0 		movq	-16(%rbp), %rax
 1013 005a C7401034 		movl	$52, 16(%rax)
 1013      000000
 490:/home/xingli/share/1205tiny/build/linux_mqtt_demo/src/main.c ****             app_msg->msg.report.lum = 227;
 1014              		.loc 1 490 37
 1015 0061 488B45F0 		movq	-16(%rbp), %rax
 1016 0065 C74008E3 		movl	$227, 8(%rax)
 1016      000000
 491:/home/xingli/share/1205tiny/build/linux_mqtt_demo/src/main.c ****             app_msg->msg.report.temp = 27;
 1017              		.loc 1 491 38
 1018 006c 488B45F0 		movq	-16(%rbp), %rax
 1019 0070 C7400C1B 		movl	$27, 12(%rax)
 1019      000000
GAS LISTING /tmp/ccE3coaW.s 			page 36


 492:/home/xingli/share/1205tiny/build/linux_mqtt_demo/src/main.c ****             if (queue_push(g_app_cb.app_msg, app_msg, CONFIG_QUEUE_TIMEOUT) != 0) {
 1020              		.loc 1 492 17
 1021 0077 488B0500 		movq	g_app_cb(%rip), %rax
 1021      000000
 1022 007e 488B4DF0 		movq	-16(%rbp), %rcx
 1023 0082 BA881300 		movl	$5000, %edx
 1023      00
 1024 0087 4889CE   		movq	%rcx, %rsi
 1025 008a 4889C7   		movq	%rax, %rdi
 1026 008d E8000000 		call	queue_push@PLT
 1026      00
 1027              		.loc 1 492 16
 1028 0092 85C0     		testl	%eax, %eax
 1029 0094 740C     		je	.L51
 493:/home/xingli/share/1205tiny/build/linux_mqtt_demo/src/main.c ****                 free(app_msg);
 1030              		.loc 1 493 17
 1031 0096 488B45F0 		movq	-16(%rbp), %rax
 1032 009a 4889C7   		movq	%rax, %rdi
 1033 009d E8000000 		call	free@PLT
 1033      00
 1034              	.L51:
 494:/home/xingli/share/1205tiny/build/linux_mqtt_demo/src/main.c ****             }
 495:/home/xingli/share/1205tiny/build/linux_mqtt_demo/src/main.c ****         }
 496:/home/xingli/share/1205tiny/build/linux_mqtt_demo/src/main.c ****         osal_task_sleep(5000);
 1035              		.loc 1 496 9
 1036 00a2 BF881300 		movl	$5000, %edi
 1036      00
 1037 00a7 E8000000 		call	osal_task_sleep@PLT
 1037      00
 484:/home/xingli/share/1205tiny/build/linux_mqtt_demo/src/main.c ****             
 1038              		.loc 1 484 9
 1039 00ac E97AFFFF 		jmp	.L52
 1039      FF
 1040              		.cfi_endproc
 1041              	.LFE14:
 1043              		.section	.rodata
 1044              	.LC34:
 1045 022d 436C6F75 		.string	"CloudMainTaskEntry"
 1045      644D6169 
 1045      6E546173 
 1045      6B456E74 
 1045      727900
 1046              	.LC35:
 1047 0240 53656E73 		.string	"SensorTaskEntry"
 1047      6F725461 
 1047      736B456E 
 1047      74727900 
 1048              		.section	.text.main,"ax",@progbits
 1049              		.globl	main
 1051              	main:
 1052              	.LFB15:
 497:/home/xingli/share/1205tiny/build/linux_mqtt_demo/src/main.c ****     }
 498:/home/xingli/share/1205tiny/build/linux_mqtt_demo/src/main.c ****     return 0;
 499:/home/xingli/share/1205tiny/build/linux_mqtt_demo/src/main.c **** }
 500:/home/xingli/share/1205tiny/build/linux_mqtt_demo/src/main.c **** 
 501:/home/xingli/share/1205tiny/build/linux_mqtt_demo/src/main.c **** int main(void)
 502:/home/xingli/share/1205tiny/build/linux_mqtt_demo/src/main.c **** {
GAS LISTING /tmp/ccE3coaW.s 			page 37


 1053              		.loc 1 502 1
 1054              		.cfi_startproc
 1055 0000 F30F1EFA 		endbr64
 1056 0004 55       		pushq	%rbp
 1057              	.LCFI25:
 1058              		.cfi_def_cfa_offset 16
 1059              		.cfi_offset 6, -16
 1060 0005 4889E5   		movq	%rsp, %rbp
 1061              	.LCFI26:
 1062              		.cfi_def_cfa_register 6
 1063 0008 4883EC10 		subq	$16, %rsp
 1064              		.loc 1 502 1
 1065 000c 64488B04 		movq	%fs:40, %rax
 1065      25280000 
 1065      00
 1066 0015 488945F8 		movq	%rax, -8(%rbp)
 1067 0019 31C0     		xorl	%eax, %eax
 503:/home/xingli/share/1205tiny/build/linux_mqtt_demo/src/main.c ****     link_main(NULL);
 1068              		.loc 1 503 5
 1069 001b BF000000 		movl	$0, %edi
 1069      00
 1070 0020 E8000000 		call	link_main@PLT
 1070      00
 504:/home/xingli/share/1205tiny/build/linux_mqtt_demo/src/main.c ****     (void) osal_task_create("CloudMainTaskEntry", CloudMainTaskEntry, NULL, 0x2000, NULL, 24);
 1071              		.loc 1 504 12
 1072 0025 41B91800 		movl	$24, %r9d
 1072      0000
 1073 002b 41B80000 		movl	$0, %r8d
 1073      0000
 1074 0031 B9002000 		movl	$8192, %ecx
 1074      00
 1075 0036 BA000000 		movl	$0, %edx
 1075      00
 1076 003b 488D3500 		leaq	CloudMainTaskEntry(%rip), %rsi
 1076      000000
 1077 0042 488D3D00 		leaq	.LC34(%rip), %rdi
 1077      000000
 1078 0049 E8000000 		call	osal_task_create@PLT
 1078      00
 505:/home/xingli/share/1205tiny/build/linux_mqtt_demo/src/main.c ****     (void) osal_task_create("SensorTaskEntry", SensorTaskEntry, NULL, 0x1000, NULL, 23);
 1079              		.loc 1 505 12
 1080 004e 41B91700 		movl	$23, %r9d
 1080      0000
 1081 0054 41B80000 		movl	$0, %r8d
 1081      0000
 1082 005a B9001000 		movl	$4096, %ecx
 1082      00
 1083 005f BA000000 		movl	$0, %edx
 1083      00
 1084 0064 488D3500 		leaq	SensorTaskEntry(%rip), %rsi
 1084      000000
 1085 006b 488D3D00 		leaq	.LC35(%rip), %rdi
 1085      000000
 1086 0072 E8000000 		call	osal_task_create@PLT
 1086      00
 1087              	.L55:
 506:/home/xingli/share/1205tiny/build/linux_mqtt_demo/src/main.c ****     while (1)
GAS LISTING /tmp/ccE3coaW.s 			page 38


 507:/home/xingli/share/1205tiny/build/linux_mqtt_demo/src/main.c ****     {
 508:/home/xingli/share/1205tiny/build/linux_mqtt_demo/src/main.c ****         osal_task_sleep(2000);
 1088              		.loc 1 508 9 discriminator 1
 1089 0077 BFD00700 		movl	$2000, %edi
 1089      00
 1090 007c E8000000 		call	osal_task_sleep@PLT
 1090      00
 1091 0081 EBF4     		jmp	.L55
 1092              		.cfi_endproc
 1093              	.LFE15:
 1095              		.text
 1096              	.Letext0:
 1097              		.file 2 "/usr/lib/gcc/x86_64-linux-gnu/9/include/stddef.h"
 1098              		.file 3 "/usr/include/x86_64-linux-gnu/bits/types.h"
 1099              		.file 4 "/usr/include/x86_64-linux-gnu/bits/types/struct_FILE.h"
 1100              		.file 5 "/usr/include/x86_64-linux-gnu/bits/types/FILE.h"
 1101              		.file 6 "/usr/include/stdio.h"
 1102              		.file 7 "/usr/include/x86_64-linux-gnu/bits/sys_errlist.h"
 1103              		.file 8 "/usr/include/unistd.h"
 1104              		.file 9 "/usr/include/x86_64-linux-gnu/bits/getopt_core.h"
 1105              		.file 10 "/home/xingli/share/1205tiny/cJSON/cJSON.h"
 1106              		.file 11 "/usr/include/x86_64-linux-gnu/bits/stdint-uintn.h"
 1107              		.file 12 "/home/xingli/share/1205tiny/inc/dtls_al.h"
 1108              		.file 13 "/home/xingli/share/1205tiny/oc/oc_mqtt/oc_mqtt_al/oc_mqtt_al.h"
 1109              		.file 14 "/home/xingli/share/1205tiny/oc/oc_mqtt/oc_mqtt_profile_v5/oc_mqtt_profile.h"
 1110              		.file 15 "/home/xingli/share/1205tiny/os/osal/osal_types.h"
 1111              		.file 16 "/home/xingli/share/1205tiny/queue/queue.h"
 4836              		.section	.note.gnu.property,"a"
 4837              		.align 8
 4838 0000 04000000 		.long	 1f - 0f
 4839 0004 10000000 		.long	 4f - 1f
 4840 0008 05000000 		.long	 5
 4841              	0:
 4842 000c 474E5500 		.string	 "GNU"
 4843              	1:
 4844              		.align 8
 4845 0010 020000C0 		.long	 0xc0000002
 4846 0014 04000000 		.long	 3f - 2f
 4847              	2:
 4848 0018 03000000 		.long	 0x3
 4849              	3:
 4850 001c 00000000 		.align 8
 4851              	4:
GAS LISTING /tmp/ccE3coaW.s 			page 39

