ARM GAS  C:\Users\ADMINI~1\AppData\Local\Temp\ccfgKEzb.s 			page 1


   1              		.cpu cortex-m4
   2              		.eabi_attribute 27, 1
   3              		.eabi_attribute 28, 1
   4              		.eabi_attribute 20, 1
   5              		.eabi_attribute 21, 1
   6              		.eabi_attribute 23, 3
   7              		.eabi_attribute 24, 1
   8              		.eabi_attribute 25, 1
   9              		.eabi_attribute 26, 1
  10              		.eabi_attribute 30, 6
  11              		.eabi_attribute 34, 1
  12              		.eabi_attribute 18, 4
  13              		.file	"shell_test.c"
  14              		.text
  15              	.Ltext0:
  16              		.cfi_sections	.debug_frame
  17              		.section	.text.shell_taskinfo,"ax",%progbits
  18              		.align	1
  19              		.arch armv7e-m
  20              		.syntax unified
  21              		.thumb
  22              		.thumb_func
  23              		.fpu fpv4-sp-d16
  25              	shell_taskinfo:
  26              	.LFB287:
  27              		.file 1 "d:/LiteOS_Lab/iot_link/shell/shell_test.c"
   1:d:/LiteOS_Lab/iot_link/shell\shell_test.c **** /*----------------------------------------------------------------------------
   2:d:/LiteOS_Lab/iot_link/shell\shell_test.c ****  * Copyright (c) <2018>, <Huawei Technologies Co., Ltd>
   3:d:/LiteOS_Lab/iot_link/shell\shell_test.c ****  * All rights reserved.
   4:d:/LiteOS_Lab/iot_link/shell\shell_test.c ****  * Redistribution and use in source and binary forms, with or without modification,
   5:d:/LiteOS_Lab/iot_link/shell\shell_test.c ****  * are permitted provided that the following conditions are met:
   6:d:/LiteOS_Lab/iot_link/shell\shell_test.c ****  * 1. Redistributions of source code must retain the above copyright notice, this list of
   7:d:/LiteOS_Lab/iot_link/shell\shell_test.c ****  * conditions and the following disclaimer.
   8:d:/LiteOS_Lab/iot_link/shell\shell_test.c ****  * 2. Redistributions in binary form must reproduce the above copyright notice, this list
   9:d:/LiteOS_Lab/iot_link/shell\shell_test.c ****  * of conditions and the following disclaimer in the documentation and/or other materials
  10:d:/LiteOS_Lab/iot_link/shell\shell_test.c ****  * provided with the distribution.
  11:d:/LiteOS_Lab/iot_link/shell\shell_test.c ****  * 3. Neither the name of the copyright holder nor the names of its contributors may be used
  12:d:/LiteOS_Lab/iot_link/shell\shell_test.c ****  * to endorse or promote products derived from this software without specific prior written
  13:d:/LiteOS_Lab/iot_link/shell\shell_test.c ****  * permission.
  14:d:/LiteOS_Lab/iot_link/shell\shell_test.c ****  * THIS SOFTWARE IS PROVIDED BY THE COPYRIGHT HOLDERS AND CONTRIBUTORS
  15:d:/LiteOS_Lab/iot_link/shell\shell_test.c ****  * "AS IS" AND ANY EXPRESS OR IMPLIED WARRANTIES, INCLUDING, BUT NOT LIMITED TO,
  16:d:/LiteOS_Lab/iot_link/shell\shell_test.c ****  * THE IMPLIED WARRANTIES OF MERCHANTABILITY AND FITNESS FOR A PARTICULAR
  17:d:/LiteOS_Lab/iot_link/shell\shell_test.c ****  * PURPOSE ARE DISCLAIMED. IN NO EVENT SHALL THE COPYRIGHT HOLDER OR
  18:d:/LiteOS_Lab/iot_link/shell\shell_test.c ****  * CONTRIBUTORS BE LIABLE FOR ANY DIRECT, INDIRECT, INCIDENTAL, SPECIAL,
  19:d:/LiteOS_Lab/iot_link/shell\shell_test.c ****  * EXEMPLARY, OR CONSEQUENTIAL DAMAGES (INCLUDING, BUT NOT LIMITED TO,
  20:d:/LiteOS_Lab/iot_link/shell\shell_test.c ****  * PROCUREMENT OF SUBSTITUTE GOODS OR SERVICES; LOSS OF USE, DATA, OR PROFITS;
  21:d:/LiteOS_Lab/iot_link/shell\shell_test.c ****  * OR BUSINESS INTERRUPTION) HOWEVER CAUSED AND ON ANY THEORY OF LIABILITY,
  22:d:/LiteOS_Lab/iot_link/shell\shell_test.c ****  * WHETHER IN CONTRACT, STRICT LIABILITY, OR TORT (INCLUDING NEGLIGENCE OR
  23:d:/LiteOS_Lab/iot_link/shell\shell_test.c ****  * OTHERWISE) ARISING IN ANY WAY OUT OF THE USE OF THIS SOFTWARE, EVEN IF
  24:d:/LiteOS_Lab/iot_link/shell\shell_test.c ****  * ADVISED OF THE POSSIBILITY OF SUCH DAMAGE.
  25:d:/LiteOS_Lab/iot_link/shell\shell_test.c ****  *---------------------------------------------------------------------------*/
  26:d:/LiteOS_Lab/iot_link/shell\shell_test.c **** /*----------------------------------------------------------------------------
  27:d:/LiteOS_Lab/iot_link/shell\shell_test.c ****  * Notice of Export Control Law
  28:d:/LiteOS_Lab/iot_link/shell\shell_test.c ****  * ===============================================
  29:d:/LiteOS_Lab/iot_link/shell\shell_test.c ****  * Huawei LiteOS may be subject to applicable export control laws and regulations, which might
  30:d:/LiteOS_Lab/iot_link/shell\shell_test.c ****  * include those applicable to Huawei LiteOS of U.S. and the country in which you are located.
  31:d:/LiteOS_Lab/iot_link/shell\shell_test.c ****  * Import, export and usage of Huawei LiteOS in any manner by you shall be in compliance with such
ARM GAS  C:\Users\ADMINI~1\AppData\Local\Temp\ccfgKEzb.s 			page 2


  32:d:/LiteOS_Lab/iot_link/shell\shell_test.c ****  * applicable export control laws and regulations.
  33:d:/LiteOS_Lab/iot_link/shell\shell_test.c ****  *---------------------------------------------------------------------------*/
  34:d:/LiteOS_Lab/iot_link/shell\shell_test.c **** /**
  35:d:/LiteOS_Lab/iot_link/shell\shell_test.c ****  *  DATE                AUTHOR      INSTRUCTION
  36:d:/LiteOS_Lab/iot_link/shell\shell_test.c ****  *  2019-05-14 17:22  zhangqianfu  The first version
  37:d:/LiteOS_Lab/iot_link/shell\shell_test.c ****  *
  38:d:/LiteOS_Lab/iot_link/shell\shell_test.c ****  */
  39:d:/LiteOS_Lab/iot_link/shell\shell_test.c **** #if CONFIG_SHELL_ENABLE
  40:d:/LiteOS_Lab/iot_link/shell\shell_test.c **** 
  41:d:/LiteOS_Lab/iot_link/shell\shell_test.c **** #include <shell.h>
  42:d:/LiteOS_Lab/iot_link/shell\shell_test.c **** #include <los_memory.h>
  43:d:/LiteOS_Lab/iot_link/shell\shell_test.c **** #include <osal.h>
  44:d:/LiteOS_Lab/iot_link/shell\shell_test.c **** /*
  45:d:/LiteOS_Lab/iot_link/shell\shell_test.c **** //here we export to shell command,you could add your own shell like this
  46:d:/LiteOS_Lab/iot_link/shell\shell_test.c **** //test fucntion:print the params passed in
  47:d:/LiteOS_Lab/iot_link/shell\shell_test.c **** static int shell_test_func(int argc, const char *argv[]){
  48:d:/LiteOS_Lab/iot_link/shell\shell_test.c ****     int i = 0;
  49:d:/LiteOS_Lab/iot_link/shell\shell_test.c ****     LINK_LOG_DEBUG("argc:%d \n\r",argc);
  50:d:/LiteOS_Lab/iot_link/shell\shell_test.c ****     for(i=0;i<argc;i++){
  51:d:/LiteOS_Lab/iot_link/shell\shell_test.c ****         LINK_LOG_DEBUG("args:%d %s\n\r",i,argv[i]);
  52:d:/LiteOS_Lab/iot_link/shell\shell_test.c ****     }
  53:d:/LiteOS_Lab/iot_link/shell\shell_test.c ****     return 0;
  54:d:/LiteOS_Lab/iot_link/shell\shell_test.c **** }
  55:d:/LiteOS_Lab/iot_link/shell\shell_test.c **** OSSHELL_EXPORT_CMD(shell_test_func,"shell_test_func","shell test func"); //export a functuon demo
  56:d:/LiteOS_Lab/iot_link/shell\shell_test.c **** 
  57:d:/LiteOS_Lab/iot_link/shell\shell_test.c **** static u32_t gs_shell_test_var =123;
  58:d:/LiteOS_Lab/iot_link/shell\shell_test.c **** OSSHELL_EXPORT_VAR(gs_shell_test_var,"shell_test_var","shell test var");  //export a var demo here
  59:d:/LiteOS_Lab/iot_link/shell\shell_test.c **** */
  60:d:/LiteOS_Lab/iot_link/shell\shell_test.c **** //show all the task status here
  61:d:/LiteOS_Lab/iot_link/shell\shell_test.c **** extern UINT32 osGetAllTskInfo(VOID);
  62:d:/LiteOS_Lab/iot_link/shell\shell_test.c **** static int shell_taskinfo(int argc,const char *argv[]){
  28              		.loc 1 62 55
  29              		.cfi_startproc
  30              		@ args = 0, pretend = 0, frame = 8
  31              		@ frame_needed = 1, uses_anonymous_args = 0
  32 0000 80B5     		push	{r7, lr}
  33              	.LCFI0:
  34              		.cfi_def_cfa_offset 8
  35              		.cfi_offset 7, -8
  36              		.cfi_offset 14, -4
  37 0002 82B0     		sub	sp, sp, #8
  38              	.LCFI1:
  39              		.cfi_def_cfa_offset 16
  40 0004 00AF     		add	r7, sp, #0
  41              	.LCFI2:
  42              		.cfi_def_cfa_register 7
  43 0006 7860     		str	r0, [r7, #4]
  44 0008 3960     		str	r1, [r7]
  63:d:/LiteOS_Lab/iot_link/shell\shell_test.c ****     osGetAllTskInfo();
  45              		.loc 1 63 5
  46 000a FFF7FEFF 		bl	osGetAllTskInfo
  64:d:/LiteOS_Lab/iot_link/shell\shell_test.c ****     return 0;
  47              		.loc 1 64 12
  48 000e 0023     		movs	r3, #0
  65:d:/LiteOS_Lab/iot_link/shell\shell_test.c **** }
  49              		.loc 1 65 1
  50 0010 1846     		mov	r0, r3
ARM GAS  C:\Users\ADMINI~1\AppData\Local\Temp\ccfgKEzb.s 			page 3


  51 0012 0837     		adds	r7, r7, #8
  52              	.LCFI3:
  53              		.cfi_def_cfa_offset 8
  54 0014 BD46     		mov	sp, r7
  55              	.LCFI4:
  56              		.cfi_def_cfa_register 13
  57              		@ sp needed
  58 0016 80BD     		pop	{r7, pc}
  59              		.cfi_endproc
  60              	.LFE287:
  62              		.section	.rodata
  63              		.align	2
  64              	.LC0:
  65 0000 7461736B 		.ascii	"taskinfo\000"
  65      696E666F 
  65      00
  66              		.section	oshell,"a"
  67              		.align	2
  70              	__oshell_shell_taskinfo:
  71 0000 00000000 		.word	.LC0
  72 0004 00000000 		.word	.LC0
  73 0008 00000000 		.word	shell_taskinfo
  74 000c 0000     		.short	0
  75 000e 0400     		.short	4
  76              		.section	.text.shell_heapinfo,"ax",%progbits
  77              		.align	1
  78              		.syntax unified
  79              		.thumb
  80              		.thumb_func
  81              		.fpu fpv4-sp-d16
  83              	shell_heapinfo:
  84              	.LFB288:
  66:d:/LiteOS_Lab/iot_link/shell\shell_test.c **** OSSHELL_EXPORT_CMD(shell_taskinfo,"taskinfo","taskinfo");
  67:d:/LiteOS_Lab/iot_link/shell\shell_test.c **** 
  68:d:/LiteOS_Lab/iot_link/shell\shell_test.c **** //show the memstatus here
  69:d:/LiteOS_Lab/iot_link/shell\shell_test.c **** static int shell_heapinfo(int argc,const char *argv[])
  70:d:/LiteOS_Lab/iot_link/shell\shell_test.c **** {
  85              		.loc 1 70 1
  86              		.cfi_startproc
  87              		@ args = 0, pretend = 0, frame = 8
  88              		@ frame_needed = 1, uses_anonymous_args = 0
  89 0000 80B5     		push	{r7, lr}
  90              	.LCFI5:
  91              		.cfi_def_cfa_offset 8
  92              		.cfi_offset 7, -8
  93              		.cfi_offset 14, -4
  94 0002 82B0     		sub	sp, sp, #8
  95              	.LCFI6:
  96              		.cfi_def_cfa_offset 16
  97 0004 00AF     		add	r7, sp, #0
  98              	.LCFI7:
  99              		.cfi_def_cfa_register 7
 100 0006 7860     		str	r0, [r7, #4]
 101 0008 3960     		str	r1, [r7]
  71:d:/LiteOS_Lab/iot_link/shell\shell_test.c **** #if (LOSCFG_HEAP_IMPROVED == YES)
  72:d:/LiteOS_Lab/iot_link/shell\shell_test.c ****     LOS_MemInfo(NULL, 1);
 102              		.loc 1 72 5
ARM GAS  C:\Users\ADMINI~1\AppData\Local\Temp\ccfgKEzb.s 			page 4


 103 000a 0121     		movs	r1, #1
 104 000c 0020     		movs	r0, #0
 105 000e FFF7FEFF 		bl	LOS_MemInfo
  73:d:/LiteOS_Lab/iot_link/shell\shell_test.c **** #else
  74:d:/LiteOS_Lab/iot_link/shell\shell_test.c ****     LOS_MemPoolList();
  75:d:/LiteOS_Lab/iot_link/shell\shell_test.c **** #endif
  76:d:/LiteOS_Lab/iot_link/shell\shell_test.c ****     return 0;
 106              		.loc 1 76 12
 107 0012 0023     		movs	r3, #0
  77:d:/LiteOS_Lab/iot_link/shell\shell_test.c **** }
 108              		.loc 1 77 1
 109 0014 1846     		mov	r0, r3
 110 0016 0837     		adds	r7, r7, #8
 111              	.LCFI8:
 112              		.cfi_def_cfa_offset 8
 113 0018 BD46     		mov	sp, r7
 114              	.LCFI9:
 115              		.cfi_def_cfa_register 13
 116              		@ sp needed
 117 001a 80BD     		pop	{r7, pc}
 118              		.cfi_endproc
 119              	.LFE288:
 121              		.section	.rodata
 122 0009 000000   		.align	2
 123              	.LC1:
 124 000c 68656170 		.ascii	"heapinfo\000"
 124      696E666F 
 124      00
 125              		.section	oshell
 126              		.align	2
 129              	__oshell_shell_heapinfo:
 130 0010 0C000000 		.word	.LC1
 131 0014 0C000000 		.word	.LC1
 132 0018 00000000 		.word	shell_heapinfo
 133 001c 0000     		.short	0
 134 001e 0400     		.short	4
 135              		.section	.rodata
 136 0015 000000   		.align	2
 137              	.LC2:
 138 0018 5B25735D 		.ascii	"[%s][%u][%s] reboot failed\012\015\015\012\000"
 138      5B25755D 
 138      5B25735D 
 138      20726562 
 138      6F6F7420 
 139              		.section	.text.shell_reboot,"ax",%progbits
 140              		.align	1
 141              		.syntax unified
 142              		.thumb
 143              		.thumb_func
 144              		.fpu fpv4-sp-d16
 146              	shell_reboot:
 147              	.LFB289:
  78:d:/LiteOS_Lab/iot_link/shell\shell_test.c **** OSSHELL_EXPORT_CMD(shell_heapinfo,"heapinfo","heapinfo");
  79:d:/LiteOS_Lab/iot_link/shell\shell_test.c **** 
  80:d:/LiteOS_Lab/iot_link/shell\shell_test.c **** 
  81:d:/LiteOS_Lab/iot_link/shell\shell_test.c **** static int shell_reboot(int argc,const char *argv[])
  82:d:/LiteOS_Lab/iot_link/shell\shell_test.c **** {
ARM GAS  C:\Users\ADMINI~1\AppData\Local\Temp\ccfgKEzb.s 			page 5


 148              		.loc 1 82 1
 149              		.cfi_startproc
 150              		@ args = 0, pretend = 0, frame = 8
 151              		@ frame_needed = 1, uses_anonymous_args = 0
 152 0000 90B5     		push	{r4, r7, lr}
 153              	.LCFI10:
 154              		.cfi_def_cfa_offset 12
 155              		.cfi_offset 4, -12
 156              		.cfi_offset 7, -8
 157              		.cfi_offset 14, -4
 158 0002 83B0     		sub	sp, sp, #12
 159              	.LCFI11:
 160              		.cfi_def_cfa_offset 24
 161 0004 00AF     		add	r7, sp, #0
 162              	.LCFI12:
 163              		.cfi_def_cfa_register 7
 164 0006 7860     		str	r0, [r7, #4]
 165 0008 3960     		str	r1, [r7]
  83:d:/LiteOS_Lab/iot_link/shell\shell_test.c ****     osal_reboot();
 166              		.loc 1 83 5
 167 000a FFF7FEFF 		bl	osal_reboot
  84:d:/LiteOS_Lab/iot_link/shell\shell_test.c **** 
  85:d:/LiteOS_Lab/iot_link/shell\shell_test.c ****     LINK_LOG_DEBUG("reboot failed\n\r");
 168              		.loc 1 85 5
 169 000e FFF7FEFF 		bl	link_log_level_get
 170 0012 0346     		mov	r3, r0
 171 0014 012B     		cmp	r3, #1
 172 0016 12D8     		bhi	.L6
 173              		.loc 1 85 5 is_stmt 0 discriminator 1
 174 0018 0120     		movs	r0, #1
 175 001a FFF7FEFF 		bl	link_log_level_name
 176 001e 0446     		mov	r4, r0
 177 0020 FFF7FEFF 		bl	osal_sys_time
 178 0024 0246     		mov	r2, r0
 179 0026 0B46     		mov	r3, r1
 180 0028 084B     		ldr	r3, .L8
 181 002a 2146     		mov	r1, r4
 182 002c 0848     		ldr	r0, .L8+4
 183 002e FFF7FEFF 		bl	printf
 184 0032 084B     		ldr	r3, .L8+8
 185 0034 1B68     		ldr	r3, [r3]
 186 0036 9B68     		ldr	r3, [r3, #8]
 187 0038 1846     		mov	r0, r3
 188 003a FFF7FEFF 		bl	fflush
 189              	.L6:
  86:d:/LiteOS_Lab/iot_link/shell\shell_test.c **** 
  87:d:/LiteOS_Lab/iot_link/shell\shell_test.c ****     return -1;
 190              		.loc 1 87 12 is_stmt 1
 191 003e 4FF0FF33 		mov	r3, #-1
  88:d:/LiteOS_Lab/iot_link/shell\shell_test.c **** }
 192              		.loc 1 88 1
 193 0042 1846     		mov	r0, r3
 194 0044 0C37     		adds	r7, r7, #12
 195              	.LCFI13:
 196              		.cfi_def_cfa_offset 12
 197 0046 BD46     		mov	sp, r7
 198              	.LCFI14:
ARM GAS  C:\Users\ADMINI~1\AppData\Local\Temp\ccfgKEzb.s 			page 6


 199              		.cfi_def_cfa_register 13
 200              		@ sp needed
 201 0048 90BD     		pop	{r4, r7, pc}
 202              	.L9:
 203 004a 00BF     		.align	2
 204              	.L8:
 205 004c 00000000 		.word	__FUNCTION__.11360
 206 0050 18000000 		.word	.LC2
 207 0054 00000000 		.word	_impure_ptr
 208              		.cfi_endproc
 209              	.LFE289:
 211              		.section	.rodata
 212 0037 00       		.align	2
 213              	.LC3:
 214 0038 7265626F 		.ascii	"reboot\000"
 214      6F7400
 215              		.section	oshell
 216              		.align	2
 219              	__oshell_shell_reboot:
 220 0020 38000000 		.word	.LC3
 221 0024 38000000 		.word	.LC3
 222 0028 00000000 		.word	shell_reboot
 223 002c 0000     		.short	0
 224 002e 0400     		.short	4
 225              		.section	.rodata.__FUNCTION__.11360,"a"
 226              		.align	2
 229              	__FUNCTION__.11360:
 230 0000 7368656C 		.ascii	"shell_reboot\000"
 230      6C5F7265 
 230      626F6F74 
 230      00
 231              		.text
 232              	.Letext0:
 233              		.file 2 "c:\\users\\administrator\\.huawei-liteos-studio\\tools\\arm-none-eabi\\arm-none-eabi\\inc
 234              		.file 3 "c:\\users\\administrator\\.huawei-liteos-studio\\tools\\arm-none-eabi\\arm-none-eabi\\inc
 235              		.file 4 "c:\\users\\administrator\\.huawei-liteos-studio\\tools\\arm-none-eabi\\arm-none-eabi\\inc
 236              		.file 5 "c:\\users\\administrator\\.huawei-liteos-studio\\tools\\arm-none-eabi\\arm-none-eabi\\inc
 237              		.file 6 "c:\\users\\administrator\\.huawei-liteos-studio\\tools\\arm-none-eabi\\lib\\gcc\\arm-none
 238              		.file 7 "c:\\users\\administrator\\.huawei-liteos-studio\\tools\\arm-none-eabi\\arm-none-eabi\\inc
 239              		.file 8 "d:/LiteOS_Lab/iot_link/inc/shell.h"
 240              		.file 9 "d:/LiteOS_Lab/iot_link/os/liteos/include/los_typedef.h"
 241              		.file 10 "d:/LiteOS_Lab/iot_link/os/liteos/arch/arm/common/cmsis/core_cm4.h"
 242              		.file 11 "d:/LiteOS_Lab/targets/STM32L431VCT6_Bossay/Inc/system_stm32l4xx.h"
 243              		.file 12 "d:/LiteOS_Lab/iot_link/os/liteos/arch/arm/arm-m/include/los_hwi.h"
 244              		.file 13 "d:/LiteOS_Lab/iot_link/os/liteos/include/los_config.h"
 245              		.file 14 "d:/LiteOS_Lab/iot_link/os/liteos/include/los_err.h"
 246              		.file 15 "d:/LiteOS_Lab/iot_link/os/liteos/include/los_memory.h"
 247              		.file 16 "d:/LiteOS_Lab/iot_link/inc/link_log.h"
ARM GAS  C:\Users\ADMINI~1\AppData\Local\Temp\ccfgKEzb.s 			page 7

