ARM GAS  C:\Users\ADMINI~1\AppData\Local\Temp\ccNv7SXj.s 			page 1


   1              		.cpu cortex-m4
   2              		.eabi_attribute 27, 1
   3              		.eabi_attribute 28, 1
   4              		.eabi_attribute 20, 1
   5              		.eabi_attribute 21, 1
   6              		.eabi_attribute 23, 3
   7              		.eabi_attribute 24, 1
   8              		.eabi_attribute 25, 1
   9              		.eabi_attribute 26, 1
  10              		.eabi_attribute 30, 6
  11              		.eabi_attribute 34, 1
  12              		.eabi_attribute 18, 4
  13              		.file	"liteos_imp.c"
  14              		.text
  15              	.Ltext0:
  16              		.cfi_sections	.debug_frame
  17              		.section	.text.__task_sleep,"ax",%progbits
  18              		.align	1
  19              		.arch armv7e-m
  20              		.syntax unified
  21              		.thumb
  22              		.thumb_func
  23              		.fpu fpv4-sp-d16
  25              	__task_sleep:
  26              	.LFB287:
  27              		.file 1 "d:/LiteOS_Lab/iot_link/os/liteos/liteos_imp.c"
   1:d:/LiteOS_Lab/iot_link/os/liteos\liteos_imp.c **** /*----------------------------------------------------------------------------
   2:d:/LiteOS_Lab/iot_link/os/liteos\liteos_imp.c ****  * Copyright (c) <2018>, <Huawei Technologies Co., Ltd>
   3:d:/LiteOS_Lab/iot_link/os/liteos\liteos_imp.c ****  * All rights reserved.
   4:d:/LiteOS_Lab/iot_link/os/liteos\liteos_imp.c ****  * Redistribution and use in source and binary forms, with or without modification,
   5:d:/LiteOS_Lab/iot_link/os/liteos\liteos_imp.c ****  * are permitted provided that the following conditions are met:
   6:d:/LiteOS_Lab/iot_link/os/liteos\liteos_imp.c ****  * 1. Redistributions of source code must retain the above copyright notice, this list of
   7:d:/LiteOS_Lab/iot_link/os/liteos\liteos_imp.c ****  * conditions and the following disclaimer.
   8:d:/LiteOS_Lab/iot_link/os/liteos\liteos_imp.c ****  * 2. Redistributions in binary form must reproduce the above copyright notice, this list
   9:d:/LiteOS_Lab/iot_link/os/liteos\liteos_imp.c ****  * of conditions and the following disclaimer in the documentation and/or other materials
  10:d:/LiteOS_Lab/iot_link/os/liteos\liteos_imp.c ****  * provided with the distribution.
  11:d:/LiteOS_Lab/iot_link/os/liteos\liteos_imp.c ****  * 3. Neither the name of the copyright holder nor the names of its contributors may be used
  12:d:/LiteOS_Lab/iot_link/os/liteos\liteos_imp.c ****  * to endorse or promote products derived from this software without specific prior written
  13:d:/LiteOS_Lab/iot_link/os/liteos\liteos_imp.c ****  * permission.
  14:d:/LiteOS_Lab/iot_link/os/liteos\liteos_imp.c ****  * THIS SOFTWARE IS PROVIDED BY THE COPYRIGHT HOLDERS AND CONTRIBUTORS
  15:d:/LiteOS_Lab/iot_link/os/liteos\liteos_imp.c ****  * "AS IS" AND ANY EXPRESS OR IMPLIED WARRANTIES, INCLUDING, BUT NOT LIMITED TO,
  16:d:/LiteOS_Lab/iot_link/os/liteos\liteos_imp.c ****  * THE IMPLIED WARRANTIES OF MERCHANTABILITY AND FITNESS FOR A PARTICULAR
  17:d:/LiteOS_Lab/iot_link/os/liteos\liteos_imp.c ****  * PURPOSE ARE DISCLAIMED. IN NO EVENT SHALL THE COPYRIGHT HOLDER OR
  18:d:/LiteOS_Lab/iot_link/os/liteos\liteos_imp.c ****  * CONTRIBUTORS BE LIABLE FOR ANY DIRECT, INDIRECT, INCIDENTAL, SPECIAL,
  19:d:/LiteOS_Lab/iot_link/os/liteos\liteos_imp.c ****  * EXEMPLARY, OR CONSEQUENTIAL DAMAGES (INCLUDING, BUT NOT LIMITED TO,
  20:d:/LiteOS_Lab/iot_link/os/liteos\liteos_imp.c ****  * PROCUREMENT OF SUBSTITUTE GOODS OR SERVICES; LOSS OF USE, DATA, OR PROFITS;
  21:d:/LiteOS_Lab/iot_link/os/liteos\liteos_imp.c ****  * OR BUSINESS INTERRUPTION) HOWEVER CAUSED AND ON ANY THEORY OF LIABILITY,
  22:d:/LiteOS_Lab/iot_link/os/liteos\liteos_imp.c ****  * WHETHER IN CONTRACT, STRICT LIABILITY, OR TORT (INCLUDING NEGLIGENCE OR
  23:d:/LiteOS_Lab/iot_link/os/liteos\liteos_imp.c ****  * OTHERWISE) ARISING IN ANY WAY OUT OF THE USE OF THIS SOFTWARE, EVEN IF
  24:d:/LiteOS_Lab/iot_link/os/liteos\liteos_imp.c ****  * ADVISED OF THE POSSIBILITY OF SUCH DAMAGE.
  25:d:/LiteOS_Lab/iot_link/os/liteos\liteos_imp.c ****  *---------------------------------------------------------------------------*/
  26:d:/LiteOS_Lab/iot_link/os/liteos\liteos_imp.c **** /*----------------------------------------------------------------------------
  27:d:/LiteOS_Lab/iot_link/os/liteos\liteos_imp.c ****  * Notice of Export Control Law
  28:d:/LiteOS_Lab/iot_link/os/liteos\liteos_imp.c ****  * ===============================================
  29:d:/LiteOS_Lab/iot_link/os/liteos\liteos_imp.c ****  * Huawei LiteOS may be subject to applicable export control laws and regulations, which might
  30:d:/LiteOS_Lab/iot_link/os/liteos\liteos_imp.c ****  * include those applicable to Huawei LiteOS of U.S. and the country in which you are located.
  31:d:/LiteOS_Lab/iot_link/os/liteos\liteos_imp.c ****  * Import, export and usage of Huawei LiteOS in any manner by you shall be in compliance with such
ARM GAS  C:\Users\ADMINI~1\AppData\Local\Temp\ccNv7SXj.s 			page 2


  32:d:/LiteOS_Lab/iot_link/os/liteos\liteos_imp.c ****  * applicable export control laws and regulations.
  33:d:/LiteOS_Lab/iot_link/os/liteos\liteos_imp.c ****  *---------------------------------------------------------------------------*/
  34:d:/LiteOS_Lab/iot_link/os/liteos\liteos_imp.c **** /**
  35:d:/LiteOS_Lab/iot_link/os/liteos\liteos_imp.c ****  *  DATE                AUTHOR      INSTRUCTION
  36:d:/LiteOS_Lab/iot_link/os/liteos\liteos_imp.c ****  *  2019-05-14 17:22  zhangqianfu  The first version
  37:d:/LiteOS_Lab/iot_link/os/liteos\liteos_imp.c ****  *
  38:d:/LiteOS_Lab/iot_link/os/liteos\liteos_imp.c ****  */
  39:d:/LiteOS_Lab/iot_link/os/liteos\liteos_imp.c **** 
  40:d:/LiteOS_Lab/iot_link/os/liteos\liteos_imp.c **** //include the file which implement the function
  41:d:/LiteOS_Lab/iot_link/os/liteos\liteos_imp.c **** #include  <string.h>
  42:d:/LiteOS_Lab/iot_link/os/liteos\liteos_imp.c **** #include  <osal_imp.h>
  43:d:/LiteOS_Lab/iot_link/os/liteos\liteos_imp.c **** 
  44:d:/LiteOS_Lab/iot_link/os/liteos\liteos_imp.c **** ///< this is implement for the task
  45:d:/LiteOS_Lab/iot_link/os/liteos\liteos_imp.c **** #include <los_task.ph>
  46:d:/LiteOS_Lab/iot_link/os/liteos\liteos_imp.c **** #include <los_queue.h>
  47:d:/LiteOS_Lab/iot_link/os/liteos\liteos_imp.c **** static void __task_sleep(int ms)
  48:d:/LiteOS_Lab/iot_link/os/liteos\liteos_imp.c **** {
  28              		.loc 1 48 1
  29              		.cfi_startproc
  30              		@ args = 0, pretend = 0, frame = 8
  31              		@ frame_needed = 1, uses_anonymous_args = 0
  32 0000 80B5     		push	{r7, lr}
  33              	.LCFI0:
  34              		.cfi_def_cfa_offset 8
  35              		.cfi_offset 7, -8
  36              		.cfi_offset 14, -4
  37 0002 82B0     		sub	sp, sp, #8
  38              	.LCFI1:
  39              		.cfi_def_cfa_offset 16
  40 0004 00AF     		add	r7, sp, #0
  41              	.LCFI2:
  42              		.cfi_def_cfa_register 7
  43 0006 7860     		str	r0, [r7, #4]
  49:d:/LiteOS_Lab/iot_link/os/liteos\liteos_imp.c ****     (void)LOS_TaskDelay(ms);//which tick is ms
  44              		.loc 1 49 11
  45 0008 7B68     		ldr	r3, [r7, #4]
  46 000a 1846     		mov	r0, r3
  47 000c FFF7FEFF 		bl	LOS_TaskDelay
  50:d:/LiteOS_Lab/iot_link/os/liteos\liteos_imp.c ****     return;
  48              		.loc 1 50 5
  49 0010 00BF     		nop
  51:d:/LiteOS_Lab/iot_link/os/liteos\liteos_imp.c **** }
  50              		.loc 1 51 1
  51 0012 0837     		adds	r7, r7, #8
  52              	.LCFI3:
  53              		.cfi_def_cfa_offset 8
  54 0014 BD46     		mov	sp, r7
  55              	.LCFI4:
  56              		.cfi_def_cfa_register 13
  57              		@ sp needed
  58 0016 80BD     		pop	{r7, pc}
  59              		.cfi_endproc
  60              	.LFE287:
  62              		.section	.text.__task_create,"ax",%progbits
  63              		.align	1
  64              		.syntax unified
  65              		.thumb
ARM GAS  C:\Users\ADMINI~1\AppData\Local\Temp\ccNv7SXj.s 			page 3


  66              		.thumb_func
  67              		.fpu fpv4-sp-d16
  69              	__task_create:
  70              	.LFB288:
  52:d:/LiteOS_Lab/iot_link/os/liteos\liteos_imp.c **** 
  53:d:/LiteOS_Lab/iot_link/os/liteos\liteos_imp.c **** static void *__task_create(const char *name,int (*task_entry)(void *args),\
  54:d:/LiteOS_Lab/iot_link/os/liteos\liteos_imp.c ****         void *args,int stack_size,void *stack,int prior)
  55:d:/LiteOS_Lab/iot_link/os/liteos\liteos_imp.c **** {
  71              		.loc 1 55 1
  72              		.cfi_startproc
  73              		@ args = 8, pretend = 0, frame = 56
  74              		@ frame_needed = 1, uses_anonymous_args = 0
  75 0000 80B5     		push	{r7, lr}
  76              	.LCFI5:
  77              		.cfi_def_cfa_offset 8
  78              		.cfi_offset 7, -8
  79              		.cfi_offset 14, -4
  80 0002 8EB0     		sub	sp, sp, #56
  81              	.LCFI6:
  82              		.cfi_def_cfa_offset 64
  83 0004 00AF     		add	r7, sp, #0
  84              	.LCFI7:
  85              		.cfi_def_cfa_register 7
  86 0006 F860     		str	r0, [r7, #12]
  87 0008 B960     		str	r1, [r7, #8]
  88 000a 7A60     		str	r2, [r7, #4]
  89 000c 3B60     		str	r3, [r7]
  56:d:/LiteOS_Lab/iot_link/os/liteos\liteos_imp.c ****     void *ret = NULL;
  90              		.loc 1 56 11
  91 000e 0023     		movs	r3, #0
  92 0010 7B63     		str	r3, [r7, #52]
  57:d:/LiteOS_Lab/iot_link/os/liteos\liteos_imp.c ****     UINT32 uwRet = LOS_OK;
  93              		.loc 1 57 12
  94 0012 0023     		movs	r3, #0
  95 0014 3B63     		str	r3, [r7, #48]
  58:d:/LiteOS_Lab/iot_link/os/liteos\liteos_imp.c ****     UINT32  handle;
  59:d:/LiteOS_Lab/iot_link/os/liteos\liteos_imp.c ****     TSK_INIT_PARAM_S task_init_param;
  60:d:/LiteOS_Lab/iot_link/os/liteos\liteos_imp.c **** 
  61:d:/LiteOS_Lab/iot_link/os/liteos\liteos_imp.c ****     memset (&task_init_param, 0, sizeof (TSK_INIT_PARAM_S));
  96              		.loc 1 61 5
  97 0016 07F11403 		add	r3, r7, #20
  98 001a 1822     		movs	r2, #24
  99 001c 0021     		movs	r1, #0
 100 001e 1846     		mov	r0, r3
 101 0020 FFF7FEFF 		bl	memset
  62:d:/LiteOS_Lab/iot_link/os/liteos\liteos_imp.c **** 
  63:d:/LiteOS_Lab/iot_link/os/liteos\liteos_imp.c ****     task_init_param.uwArg = (unsigned int)(uintptr_t)args;
 102              		.loc 1 63 29
 103 0024 7B68     		ldr	r3, [r7, #4]
 104              		.loc 1 63 27
 105 0026 FB61     		str	r3, [r7, #28]
  64:d:/LiteOS_Lab/iot_link/os/liteos\liteos_imp.c ****     task_init_param.usTaskPrio = (unsigned short)prior;
 106              		.loc 1 64 34
 107 0028 7B6C     		ldr	r3, [r7, #68]
 108 002a 9BB2     		uxth	r3, r3
 109              		.loc 1 64 32
 110 002c 3B83     		strh	r3, [r7, #24]	@ movhi
ARM GAS  C:\Users\ADMINI~1\AppData\Local\Temp\ccNv7SXj.s 			page 4


  65:d:/LiteOS_Lab/iot_link/os/liteos\liteos_imp.c ****     task_init_param.pcName =(char *) name;
 111              		.loc 1 65 28
 112 002e FB68     		ldr	r3, [r7, #12]
 113 0030 7B62     		str	r3, [r7, #36]
  66:d:/LiteOS_Lab/iot_link/os/liteos\liteos_imp.c ****     task_init_param.pfnTaskEntry = (TSK_ENTRY_FUNC)task_entry;
 114              		.loc 1 66 34
 115 0032 BB68     		ldr	r3, [r7, #8]
 116 0034 7B61     		str	r3, [r7, #20]
  67:d:/LiteOS_Lab/iot_link/os/liteos\liteos_imp.c ****     task_init_param.uwStackSize = stack_size;
 117              		.loc 1 67 33
 118 0036 3B68     		ldr	r3, [r7]
 119 0038 3B62     		str	r3, [r7, #32]
  68:d:/LiteOS_Lab/iot_link/os/liteos\liteos_imp.c ****     uwRet = LOS_TaskCreate(&handle, &task_init_param);
 120              		.loc 1 68 13
 121 003a 07F11402 		add	r2, r7, #20
 122 003e 07F12C03 		add	r3, r7, #44
 123 0042 1146     		mov	r1, r2
 124 0044 1846     		mov	r0, r3
 125 0046 FFF7FEFF 		bl	LOS_TaskCreate
 126 004a 3863     		str	r0, [r7, #48]
  69:d:/LiteOS_Lab/iot_link/os/liteos\liteos_imp.c ****     if(LOS_OK != uwRet){
 127              		.loc 1 69 7
 128 004c 3B6B     		ldr	r3, [r7, #48]
 129 004e 002B     		cmp	r3, #0
 130 0050 01D0     		beq	.L4
  70:d:/LiteOS_Lab/iot_link/os/liteos\liteos_imp.c ****         return ret;
 131              		.loc 1 70 16
 132 0052 7B6B     		ldr	r3, [r7, #52]
 133 0054 02E0     		b	.L6
 134              	.L4:
  71:d:/LiteOS_Lab/iot_link/os/liteos\liteos_imp.c ****     }
  72:d:/LiteOS_Lab/iot_link/os/liteos\liteos_imp.c ****     ret = (void *)(uintptr_t)handle;
 135              		.loc 1 72 11
 136 0056 FB6A     		ldr	r3, [r7, #44]
 137              		.loc 1 72 9
 138 0058 7B63     		str	r3, [r7, #52]
  73:d:/LiteOS_Lab/iot_link/os/liteos\liteos_imp.c ****     return ret;
 139              		.loc 1 73 12
 140 005a 7B6B     		ldr	r3, [r7, #52]
 141              	.L6:
  74:d:/LiteOS_Lab/iot_link/os/liteos\liteos_imp.c **** }
 142              		.loc 1 74 1 discriminator 1
 143 005c 1846     		mov	r0, r3
 144 005e 3837     		adds	r7, r7, #56
 145              	.LCFI8:
 146              		.cfi_def_cfa_offset 8
 147 0060 BD46     		mov	sp, r7
 148              	.LCFI9:
 149              		.cfi_def_cfa_register 13
 150              		@ sp needed
 151 0062 80BD     		pop	{r7, pc}
 152              		.cfi_endproc
 153              	.LFE288:
 155              		.section	.text.__task_kill,"ax",%progbits
 156              		.align	1
 157              		.syntax unified
 158              		.thumb
ARM GAS  C:\Users\ADMINI~1\AppData\Local\Temp\ccNv7SXj.s 			page 5


 159              		.thumb_func
 160              		.fpu fpv4-sp-d16
 162              	__task_kill:
 163              	.LFB289:
  75:d:/LiteOS_Lab/iot_link/os/liteos\liteos_imp.c **** 
  76:d:/LiteOS_Lab/iot_link/os/liteos\liteos_imp.c **** static int __task_kill(void *task)
  77:d:/LiteOS_Lab/iot_link/os/liteos\liteos_imp.c **** {
 164              		.loc 1 77 1
 165              		.cfi_startproc
 166              		@ args = 0, pretend = 0, frame = 16
 167              		@ frame_needed = 1, uses_anonymous_args = 0
 168 0000 80B5     		push	{r7, lr}
 169              	.LCFI10:
 170              		.cfi_def_cfa_offset 8
 171              		.cfi_offset 7, -8
 172              		.cfi_offset 14, -4
 173 0002 84B0     		sub	sp, sp, #16
 174              	.LCFI11:
 175              		.cfi_def_cfa_offset 24
 176 0004 00AF     		add	r7, sp, #0
 177              	.LCFI12:
 178              		.cfi_def_cfa_register 7
 179 0006 7860     		str	r0, [r7, #4]
  78:d:/LiteOS_Lab/iot_link/os/liteos\liteos_imp.c ****     int ret = -1;
 180              		.loc 1 78 9
 181 0008 4FF0FF33 		mov	r3, #-1
 182 000c FB60     		str	r3, [r7, #12]
  79:d:/LiteOS_Lab/iot_link/os/liteos\liteos_imp.c ****     UINT32 handle;
  80:d:/LiteOS_Lab/iot_link/os/liteos\liteos_imp.c ****     if(NULL != task)
 183              		.loc 1 80 7
 184 000e 7B68     		ldr	r3, [r7, #4]
 185 0010 002B     		cmp	r3, #0
 186 0012 09D0     		beq	.L8
  81:d:/LiteOS_Lab/iot_link/os/liteos\liteos_imp.c ****     {
  82:d:/LiteOS_Lab/iot_link/os/liteos\liteos_imp.c ****         handle = (UINT32) (uintptr_t)task;
 187              		.loc 1 82 16
 188 0014 7B68     		ldr	r3, [r7, #4]
 189 0016 BB60     		str	r3, [r7, #8]
  83:d:/LiteOS_Lab/iot_link/os/liteos\liteos_imp.c ****         if(LOS_OK == LOS_TaskDelete(handle))
 190              		.loc 1 83 22
 191 0018 B868     		ldr	r0, [r7, #8]
 192 001a FFF7FEFF 		bl	LOS_TaskDelete
 193 001e 0346     		mov	r3, r0
 194              		.loc 1 83 11
 195 0020 002B     		cmp	r3, #0
 196 0022 01D1     		bne	.L8
  84:d:/LiteOS_Lab/iot_link/os/liteos\liteos_imp.c ****         {
  85:d:/LiteOS_Lab/iot_link/os/liteos\liteos_imp.c ****             ret = 0;
 197              		.loc 1 85 17
 198 0024 0023     		movs	r3, #0
 199 0026 FB60     		str	r3, [r7, #12]
 200              	.L8:
  86:d:/LiteOS_Lab/iot_link/os/liteos\liteos_imp.c ****         }
  87:d:/LiteOS_Lab/iot_link/os/liteos\liteos_imp.c ****     }
  88:d:/LiteOS_Lab/iot_link/os/liteos\liteos_imp.c **** 
  89:d:/LiteOS_Lab/iot_link/os/liteos\liteos_imp.c ****     return ret;
 201              		.loc 1 89 12
ARM GAS  C:\Users\ADMINI~1\AppData\Local\Temp\ccNv7SXj.s 			page 6


 202 0028 FB68     		ldr	r3, [r7, #12]
  90:d:/LiteOS_Lab/iot_link/os/liteos\liteos_imp.c **** }
 203              		.loc 1 90 1
 204 002a 1846     		mov	r0, r3
 205 002c 1037     		adds	r7, r7, #16
 206              	.LCFI13:
 207              		.cfi_def_cfa_offset 8
 208 002e BD46     		mov	sp, r7
 209              	.LCFI14:
 210              		.cfi_def_cfa_register 13
 211              		@ sp needed
 212 0030 80BD     		pop	{r7, pc}
 213              		.cfi_endproc
 214              	.LFE289:
 216              		.section	.text.__task_exit,"ax",%progbits
 217              		.align	1
 218              		.syntax unified
 219              		.thumb
 220              		.thumb_func
 221              		.fpu fpv4-sp-d16
 223              	__task_exit:
 224              	.LFB290:
  91:d:/LiteOS_Lab/iot_link/os/liteos\liteos_imp.c **** 
  92:d:/LiteOS_Lab/iot_link/os/liteos\liteos_imp.c **** static void __task_exit()
  93:d:/LiteOS_Lab/iot_link/os/liteos\liteos_imp.c **** {
 225              		.loc 1 93 1
 226              		.cfi_startproc
 227              		@ args = 0, pretend = 0, frame = 8
 228              		@ frame_needed = 1, uses_anonymous_args = 0
 229 0000 80B5     		push	{r7, lr}
 230              	.LCFI15:
 231              		.cfi_def_cfa_offset 8
 232              		.cfi_offset 7, -8
 233              		.cfi_offset 14, -4
 234 0002 82B0     		sub	sp, sp, #8
 235              	.LCFI16:
 236              		.cfi_def_cfa_offset 16
 237 0004 00AF     		add	r7, sp, #0
 238              	.LCFI17:
 239              		.cfi_def_cfa_register 7
  94:d:/LiteOS_Lab/iot_link/os/liteos\liteos_imp.c ****     UINT32 handle;
  95:d:/LiteOS_Lab/iot_link/os/liteos\liteos_imp.c ****     handle = LOS_CurTaskIDGet();
 240              		.loc 1 95 14
 241 0006 FFF7FEFF 		bl	LOS_CurTaskIDGet
 242 000a 7860     		str	r0, [r7, #4]
  96:d:/LiteOS_Lab/iot_link/os/liteos\liteos_imp.c **** 
  97:d:/LiteOS_Lab/iot_link/os/liteos\liteos_imp.c ****     (void) LOS_TaskDelete(handle);
 243              		.loc 1 97 12
 244 000c 7868     		ldr	r0, [r7, #4]
 245 000e FFF7FEFF 		bl	LOS_TaskDelete
  98:d:/LiteOS_Lab/iot_link/os/liteos\liteos_imp.c **** 
  99:d:/LiteOS_Lab/iot_link/os/liteos\liteos_imp.c ****     return;
 246              		.loc 1 99 5
 247 0012 00BF     		nop
 100:d:/LiteOS_Lab/iot_link/os/liteos\liteos_imp.c **** }
 248              		.loc 1 100 1
 249 0014 0837     		adds	r7, r7, #8
ARM GAS  C:\Users\ADMINI~1\AppData\Local\Temp\ccNv7SXj.s 			page 7


 250              	.LCFI18:
 251              		.cfi_def_cfa_offset 8
 252 0016 BD46     		mov	sp, r7
 253              	.LCFI19:
 254              		.cfi_def_cfa_register 13
 255              		@ sp needed
 256 0018 80BD     		pop	{r7, pc}
 257              		.cfi_endproc
 258              	.LFE290:
 260              		.section	.text.__mutex_create,"ax",%progbits
 261              		.align	1
 262              		.syntax unified
 263              		.thumb
 264              		.thumb_func
 265              		.fpu fpv4-sp-d16
 267              	__mutex_create:
 268              	.LFB291:
 101:d:/LiteOS_Lab/iot_link/os/liteos\liteos_imp.c **** 
 102:d:/LiteOS_Lab/iot_link/os/liteos\liteos_imp.c **** ///< this is implement for the mutex
 103:d:/LiteOS_Lab/iot_link/os/liteos\liteos_imp.c **** #include <los_mux.h>
 104:d:/LiteOS_Lab/iot_link/os/liteos\liteos_imp.c **** //creat a mutex for the os
 105:d:/LiteOS_Lab/iot_link/os/liteos\liteos_imp.c **** static bool_t  __mutex_create(osal_mutex_t *mutex)
 106:d:/LiteOS_Lab/iot_link/os/liteos\liteos_imp.c **** {
 269              		.loc 1 106 1
 270              		.cfi_startproc
 271              		@ args = 0, pretend = 0, frame = 8
 272              		@ frame_needed = 1, uses_anonymous_args = 0
 273 0000 80B5     		push	{r7, lr}
 274              	.LCFI20:
 275              		.cfi_def_cfa_offset 8
 276              		.cfi_offset 7, -8
 277              		.cfi_offset 14, -4
 278 0002 82B0     		sub	sp, sp, #8
 279              	.LCFI21:
 280              		.cfi_def_cfa_offset 16
 281 0004 00AF     		add	r7, sp, #0
 282              	.LCFI22:
 283              		.cfi_def_cfa_register 7
 284 0006 7860     		str	r0, [r7, #4]
 107:d:/LiteOS_Lab/iot_link/os/liteos\liteos_imp.c ****     if(LOS_OK == LOS_MuxCreate((UINT32 *)mutex))
 285              		.loc 1 107 18
 286 0008 7868     		ldr	r0, [r7, #4]
 287 000a FFF7FEFF 		bl	LOS_MuxCreate
 288 000e 0346     		mov	r3, r0
 289              		.loc 1 107 7
 290 0010 002B     		cmp	r3, #0
 291 0012 01D1     		bne	.L13
 108:d:/LiteOS_Lab/iot_link/os/liteos\liteos_imp.c ****     {
 109:d:/LiteOS_Lab/iot_link/os/liteos\liteos_imp.c ****         return true;
 292              		.loc 1 109 16
 293 0014 0123     		movs	r3, #1
 294 0016 00E0     		b	.L14
 295              	.L13:
 110:d:/LiteOS_Lab/iot_link/os/liteos\liteos_imp.c ****     }
 111:d:/LiteOS_Lab/iot_link/os/liteos\liteos_imp.c ****     else
 112:d:/LiteOS_Lab/iot_link/os/liteos\liteos_imp.c ****     {
 113:d:/LiteOS_Lab/iot_link/os/liteos\liteos_imp.c ****         return false;
ARM GAS  C:\Users\ADMINI~1\AppData\Local\Temp\ccNv7SXj.s 			page 8


 296              		.loc 1 113 16
 297 0018 0023     		movs	r3, #0
 298              	.L14:
 114:d:/LiteOS_Lab/iot_link/os/liteos\liteos_imp.c ****     }
 115:d:/LiteOS_Lab/iot_link/os/liteos\liteos_imp.c **** }
 299              		.loc 1 115 1
 300 001a 1846     		mov	r0, r3
 301 001c 0837     		adds	r7, r7, #8
 302              	.LCFI23:
 303              		.cfi_def_cfa_offset 8
 304 001e BD46     		mov	sp, r7
 305              	.LCFI24:
 306              		.cfi_def_cfa_register 13
 307              		@ sp needed
 308 0020 80BD     		pop	{r7, pc}
 309              		.cfi_endproc
 310              	.LFE291:
 312              		.section	.text.__mutex_lock,"ax",%progbits
 313              		.align	1
 314              		.syntax unified
 315              		.thumb
 316              		.thumb_func
 317              		.fpu fpv4-sp-d16
 319              	__mutex_lock:
 320              	.LFB292:
 116:d:/LiteOS_Lab/iot_link/os/liteos\liteos_imp.c **** //lock the mutex
 117:d:/LiteOS_Lab/iot_link/os/liteos\liteos_imp.c **** static bool_t  __mutex_lock(osal_mutex_t mutex)
 118:d:/LiteOS_Lab/iot_link/os/liteos\liteos_imp.c **** {
 321              		.loc 1 118 1
 322              		.cfi_startproc
 323              		@ args = 0, pretend = 0, frame = 8
 324              		@ frame_needed = 1, uses_anonymous_args = 0
 325 0000 80B5     		push	{r7, lr}
 326              	.LCFI25:
 327              		.cfi_def_cfa_offset 8
 328              		.cfi_offset 7, -8
 329              		.cfi_offset 14, -4
 330 0002 82B0     		sub	sp, sp, #8
 331              	.LCFI26:
 332              		.cfi_def_cfa_offset 16
 333 0004 00AF     		add	r7, sp, #0
 334              	.LCFI27:
 335              		.cfi_def_cfa_register 7
 336 0006 7860     		str	r0, [r7, #4]
 119:d:/LiteOS_Lab/iot_link/os/liteos\liteos_imp.c ****     if(LOS_OK == LOS_MuxPend((UINT32)(uintptr_t)mutex,LOS_WAIT_FOREVER))
 337              		.loc 1 119 18
 338 0008 7B68     		ldr	r3, [r7, #4]
 339 000a 4FF0FF31 		mov	r1, #-1
 340 000e 1846     		mov	r0, r3
 341 0010 FFF7FEFF 		bl	LOS_MuxPend
 342 0014 0346     		mov	r3, r0
 343              		.loc 1 119 7
 344 0016 002B     		cmp	r3, #0
 345 0018 01D1     		bne	.L16
 120:d:/LiteOS_Lab/iot_link/os/liteos\liteos_imp.c ****     {
 121:d:/LiteOS_Lab/iot_link/os/liteos\liteos_imp.c ****         return true;
 346              		.loc 1 121 16
ARM GAS  C:\Users\ADMINI~1\AppData\Local\Temp\ccNv7SXj.s 			page 9


 347 001a 0123     		movs	r3, #1
 348 001c 00E0     		b	.L17
 349              	.L16:
 122:d:/LiteOS_Lab/iot_link/os/liteos\liteos_imp.c ****     }
 123:d:/LiteOS_Lab/iot_link/os/liteos\liteos_imp.c ****     else
 124:d:/LiteOS_Lab/iot_link/os/liteos\liteos_imp.c ****     {
 125:d:/LiteOS_Lab/iot_link/os/liteos\liteos_imp.c ****         return false;
 350              		.loc 1 125 16
 351 001e 0023     		movs	r3, #0
 352              	.L17:
 126:d:/LiteOS_Lab/iot_link/os/liteos\liteos_imp.c ****     }
 127:d:/LiteOS_Lab/iot_link/os/liteos\liteos_imp.c **** }
 353              		.loc 1 127 1
 354 0020 1846     		mov	r0, r3
 355 0022 0837     		adds	r7, r7, #8
 356              	.LCFI28:
 357              		.cfi_def_cfa_offset 8
 358 0024 BD46     		mov	sp, r7
 359              	.LCFI29:
 360              		.cfi_def_cfa_register 13
 361              		@ sp needed
 362 0026 80BD     		pop	{r7, pc}
 363              		.cfi_endproc
 364              	.LFE292:
 366              		.section	.text.__mutex_unlock,"ax",%progbits
 367              		.align	1
 368              		.syntax unified
 369              		.thumb
 370              		.thumb_func
 371              		.fpu fpv4-sp-d16
 373              	__mutex_unlock:
 374              	.LFB293:
 128:d:/LiteOS_Lab/iot_link/os/liteos\liteos_imp.c **** 
 129:d:/LiteOS_Lab/iot_link/os/liteos\liteos_imp.c **** //unlock the mutex
 130:d:/LiteOS_Lab/iot_link/os/liteos\liteos_imp.c **** static bool_t  __mutex_unlock(osal_mutex_t mutex)
 131:d:/LiteOS_Lab/iot_link/os/liteos\liteos_imp.c **** {
 375              		.loc 1 131 1
 376              		.cfi_startproc
 377              		@ args = 0, pretend = 0, frame = 8
 378              		@ frame_needed = 1, uses_anonymous_args = 0
 379 0000 80B5     		push	{r7, lr}
 380              	.LCFI30:
 381              		.cfi_def_cfa_offset 8
 382              		.cfi_offset 7, -8
 383              		.cfi_offset 14, -4
 384 0002 82B0     		sub	sp, sp, #8
 385              	.LCFI31:
 386              		.cfi_def_cfa_offset 16
 387 0004 00AF     		add	r7, sp, #0
 388              	.LCFI32:
 389              		.cfi_def_cfa_register 7
 390 0006 7860     		str	r0, [r7, #4]
 132:d:/LiteOS_Lab/iot_link/os/liteos\liteos_imp.c ****     if(LOS_OK == LOS_MuxPost((UINT32)(uintptr_t)mutex))
 391              		.loc 1 132 18
 392 0008 7B68     		ldr	r3, [r7, #4]
 393 000a 1846     		mov	r0, r3
 394 000c FFF7FEFF 		bl	LOS_MuxPost
ARM GAS  C:\Users\ADMINI~1\AppData\Local\Temp\ccNv7SXj.s 			page 10


 395 0010 0346     		mov	r3, r0
 396              		.loc 1 132 7
 397 0012 002B     		cmp	r3, #0
 398 0014 01D1     		bne	.L19
 133:d:/LiteOS_Lab/iot_link/os/liteos\liteos_imp.c ****     {
 134:d:/LiteOS_Lab/iot_link/os/liteos\liteos_imp.c ****         return true;
 399              		.loc 1 134 16
 400 0016 0123     		movs	r3, #1
 401 0018 00E0     		b	.L20
 402              	.L19:
 135:d:/LiteOS_Lab/iot_link/os/liteos\liteos_imp.c ****     }
 136:d:/LiteOS_Lab/iot_link/os/liteos\liteos_imp.c ****     else
 137:d:/LiteOS_Lab/iot_link/os/liteos\liteos_imp.c ****     {
 138:d:/LiteOS_Lab/iot_link/os/liteos\liteos_imp.c ****         return false;
 403              		.loc 1 138 16
 404 001a 0023     		movs	r3, #0
 405              	.L20:
 139:d:/LiteOS_Lab/iot_link/os/liteos\liteos_imp.c ****     }
 140:d:/LiteOS_Lab/iot_link/os/liteos\liteos_imp.c **** }
 406              		.loc 1 140 1
 407 001c 1846     		mov	r0, r3
 408 001e 0837     		adds	r7, r7, #8
 409              	.LCFI33:
 410              		.cfi_def_cfa_offset 8
 411 0020 BD46     		mov	sp, r7
 412              	.LCFI34:
 413              		.cfi_def_cfa_register 13
 414              		@ sp needed
 415 0022 80BD     		pop	{r7, pc}
 416              		.cfi_endproc
 417              	.LFE293:
 419              		.section	.text.__mutex_del,"ax",%progbits
 420              		.align	1
 421              		.syntax unified
 422              		.thumb
 423              		.thumb_func
 424              		.fpu fpv4-sp-d16
 426              	__mutex_del:
 427              	.LFB294:
 141:d:/LiteOS_Lab/iot_link/os/liteos\liteos_imp.c **** //delete the mutex
 142:d:/LiteOS_Lab/iot_link/os/liteos\liteos_imp.c **** static bool_t  __mutex_del(osal_mutex_t mutex)
 143:d:/LiteOS_Lab/iot_link/os/liteos\liteos_imp.c **** {
 428              		.loc 1 143 1
 429              		.cfi_startproc
 430              		@ args = 0, pretend = 0, frame = 8
 431              		@ frame_needed = 1, uses_anonymous_args = 0
 432 0000 80B5     		push	{r7, lr}
 433              	.LCFI35:
 434              		.cfi_def_cfa_offset 8
 435              		.cfi_offset 7, -8
 436              		.cfi_offset 14, -4
 437 0002 82B0     		sub	sp, sp, #8
 438              	.LCFI36:
 439              		.cfi_def_cfa_offset 16
 440 0004 00AF     		add	r7, sp, #0
 441              	.LCFI37:
 442              		.cfi_def_cfa_register 7
ARM GAS  C:\Users\ADMINI~1\AppData\Local\Temp\ccNv7SXj.s 			page 11


 443 0006 7860     		str	r0, [r7, #4]
 144:d:/LiteOS_Lab/iot_link/os/liteos\liteos_imp.c ****     if(LOS_OK == LOS_MuxDelete((UINT32)(uintptr_t)mutex))
 444              		.loc 1 144 18
 445 0008 7B68     		ldr	r3, [r7, #4]
 446 000a 1846     		mov	r0, r3
 447 000c FFF7FEFF 		bl	LOS_MuxDelete
 448 0010 0346     		mov	r3, r0
 449              		.loc 1 144 7
 450 0012 002B     		cmp	r3, #0
 451 0014 01D1     		bne	.L22
 145:d:/LiteOS_Lab/iot_link/os/liteos\liteos_imp.c ****     {
 146:d:/LiteOS_Lab/iot_link/os/liteos\liteos_imp.c ****         return true;
 452              		.loc 1 146 16
 453 0016 0123     		movs	r3, #1
 454 0018 00E0     		b	.L23
 455              	.L22:
 147:d:/LiteOS_Lab/iot_link/os/liteos\liteos_imp.c ****     }
 148:d:/LiteOS_Lab/iot_link/os/liteos\liteos_imp.c ****     else
 149:d:/LiteOS_Lab/iot_link/os/liteos\liteos_imp.c ****     {
 150:d:/LiteOS_Lab/iot_link/os/liteos\liteos_imp.c ****         return false;
 456              		.loc 1 150 16
 457 001a 0023     		movs	r3, #0
 458              	.L23:
 151:d:/LiteOS_Lab/iot_link/os/liteos\liteos_imp.c ****     }
 152:d:/LiteOS_Lab/iot_link/os/liteos\liteos_imp.c **** }
 459              		.loc 1 152 1
 460 001c 1846     		mov	r0, r3
 461 001e 0837     		adds	r7, r7, #8
 462              	.LCFI38:
 463              		.cfi_def_cfa_offset 8
 464 0020 BD46     		mov	sp, r7
 465              	.LCFI39:
 466              		.cfi_def_cfa_register 13
 467              		@ sp needed
 468 0022 80BD     		pop	{r7, pc}
 469              		.cfi_endproc
 470              	.LFE294:
 472              		.section	.text.__semp_create,"ax",%progbits
 473              		.align	1
 474              		.syntax unified
 475              		.thumb
 476              		.thumb_func
 477              		.fpu fpv4-sp-d16
 479              	__semp_create:
 480              	.LFB295:
 153:d:/LiteOS_Lab/iot_link/os/liteos\liteos_imp.c **** 
 154:d:/LiteOS_Lab/iot_link/os/liteos\liteos_imp.c **** 
 155:d:/LiteOS_Lab/iot_link/os/liteos\liteos_imp.c **** ///< this is implement for the semp
 156:d:/LiteOS_Lab/iot_link/os/liteos\liteos_imp.c **** #include <los_sem.h>
 157:d:/LiteOS_Lab/iot_link/os/liteos\liteos_imp.c **** 
 158:d:/LiteOS_Lab/iot_link/os/liteos\liteos_imp.c **** 
 159:d:/LiteOS_Lab/iot_link/os/liteos\liteos_imp.c **** //semp of the os
 160:d:/LiteOS_Lab/iot_link/os/liteos\liteos_imp.c **** static bool_t  __semp_create(osal_semp_t *semp,int limit,int initvalue)
 161:d:/LiteOS_Lab/iot_link/os/liteos\liteos_imp.c **** {
 481              		.loc 1 161 1
 482              		.cfi_startproc
 483              		@ args = 0, pretend = 0, frame = 16
ARM GAS  C:\Users\ADMINI~1\AppData\Local\Temp\ccNv7SXj.s 			page 12


 484              		@ frame_needed = 1, uses_anonymous_args = 0
 485 0000 80B5     		push	{r7, lr}
 486              	.LCFI40:
 487              		.cfi_def_cfa_offset 8
 488              		.cfi_offset 7, -8
 489              		.cfi_offset 14, -4
 490 0002 84B0     		sub	sp, sp, #16
 491              	.LCFI41:
 492              		.cfi_def_cfa_offset 24
 493 0004 00AF     		add	r7, sp, #0
 494              	.LCFI42:
 495              		.cfi_def_cfa_register 7
 496 0006 F860     		str	r0, [r7, #12]
 497 0008 B960     		str	r1, [r7, #8]
 498 000a 7A60     		str	r2, [r7, #4]
 162:d:/LiteOS_Lab/iot_link/os/liteos\liteos_imp.c ****     extern UINT32 osSemCreate (UINT16 usCount, UINT16 usMaxCount, UINT32 *puwSemHandle);
 163:d:/LiteOS_Lab/iot_link/os/liteos\liteos_imp.c ****     if(LOS_OK == osSemCreate(initvalue,limit,(UINT32 *)semp))
 499              		.loc 1 163 18
 500 000c 7B68     		ldr	r3, [r7, #4]
 501 000e 9BB2     		uxth	r3, r3
 502 0010 BA68     		ldr	r2, [r7, #8]
 503 0012 91B2     		uxth	r1, r2
 504 0014 FA68     		ldr	r2, [r7, #12]
 505 0016 1846     		mov	r0, r3
 506 0018 FFF7FEFF 		bl	osSemCreate
 507 001c 0346     		mov	r3, r0
 508              		.loc 1 163 7
 509 001e 002B     		cmp	r3, #0
 510 0020 01D1     		bne	.L25
 164:d:/LiteOS_Lab/iot_link/os/liteos\liteos_imp.c ****     {
 165:d:/LiteOS_Lab/iot_link/os/liteos\liteos_imp.c ****         return true;
 511              		.loc 1 165 16
 512 0022 0123     		movs	r3, #1
 513 0024 00E0     		b	.L26
 514              	.L25:
 166:d:/LiteOS_Lab/iot_link/os/liteos\liteos_imp.c ****     }
 167:d:/LiteOS_Lab/iot_link/os/liteos\liteos_imp.c ****     else
 168:d:/LiteOS_Lab/iot_link/os/liteos\liteos_imp.c ****     {
 169:d:/LiteOS_Lab/iot_link/os/liteos\liteos_imp.c ****         return false;
 515              		.loc 1 169 16
 516 0026 0023     		movs	r3, #0
 517              	.L26:
 170:d:/LiteOS_Lab/iot_link/os/liteos\liteos_imp.c ****     }
 171:d:/LiteOS_Lab/iot_link/os/liteos\liteos_imp.c **** }
 518              		.loc 1 171 1
 519 0028 1846     		mov	r0, r3
 520 002a 1037     		adds	r7, r7, #16
 521              	.LCFI43:
 522              		.cfi_def_cfa_offset 8
 523 002c BD46     		mov	sp, r7
 524              	.LCFI44:
 525              		.cfi_def_cfa_register 13
 526              		@ sp needed
 527 002e 80BD     		pop	{r7, pc}
 528              		.cfi_endproc
 529              	.LFE295:
 531              		.section	.text.__semp_pend,"ax",%progbits
ARM GAS  C:\Users\ADMINI~1\AppData\Local\Temp\ccNv7SXj.s 			page 13


 532              		.align	1
 533              		.syntax unified
 534              		.thumb
 535              		.thumb_func
 536              		.fpu fpv4-sp-d16
 538              	__semp_pend:
 539              	.LFB296:
 172:d:/LiteOS_Lab/iot_link/os/liteos\liteos_imp.c **** static bool_t  __semp_pend(osal_semp_t semp,unsigned int timeout)
 173:d:/LiteOS_Lab/iot_link/os/liteos\liteos_imp.c **** {
 540              		.loc 1 173 1
 541              		.cfi_startproc
 542              		@ args = 0, pretend = 0, frame = 8
 543              		@ frame_needed = 1, uses_anonymous_args = 0
 544 0000 80B5     		push	{r7, lr}
 545              	.LCFI45:
 546              		.cfi_def_cfa_offset 8
 547              		.cfi_offset 7, -8
 548              		.cfi_offset 14, -4
 549 0002 82B0     		sub	sp, sp, #8
 550              	.LCFI46:
 551              		.cfi_def_cfa_offset 16
 552 0004 00AF     		add	r7, sp, #0
 553              	.LCFI47:
 554              		.cfi_def_cfa_register 7
 555 0006 7860     		str	r0, [r7, #4]
 556 0008 3960     		str	r1, [r7]
 174:d:/LiteOS_Lab/iot_link/os/liteos\liteos_imp.c ****     if(timeout == cn_osal_timeout_forever)
 557              		.loc 1 174 7
 558 000a 3B68     		ldr	r3, [r7]
 559 000c B3F1FF3F 		cmp	r3, #-1
 560 0010 02D1     		bne	.L28
 175:d:/LiteOS_Lab/iot_link/os/liteos\liteos_imp.c ****     {
 176:d:/LiteOS_Lab/iot_link/os/liteos\liteos_imp.c ****         timeout = LOS_WAIT_FOREVER;
 561              		.loc 1 176 17
 562 0012 4FF0FF33 		mov	r3, #-1
 563 0016 3B60     		str	r3, [r7]
 564              	.L28:
 177:d:/LiteOS_Lab/iot_link/os/liteos\liteos_imp.c ****     }
 178:d:/LiteOS_Lab/iot_link/os/liteos\liteos_imp.c **** 
 179:d:/LiteOS_Lab/iot_link/os/liteos\liteos_imp.c ****     if(LOS_OK == LOS_SemPend((unsigned int)(UINT32)(uintptr_t)semp,(UINT32)timeout))
 565              		.loc 1 179 18
 566 0018 7B68     		ldr	r3, [r7, #4]
 567 001a 3968     		ldr	r1, [r7]
 568 001c 1846     		mov	r0, r3
 569 001e FFF7FEFF 		bl	LOS_SemPend
 570 0022 0346     		mov	r3, r0
 571              		.loc 1 179 7
 572 0024 002B     		cmp	r3, #0
 573 0026 01D1     		bne	.L29
 180:d:/LiteOS_Lab/iot_link/os/liteos\liteos_imp.c ****     {
 181:d:/LiteOS_Lab/iot_link/os/liteos\liteos_imp.c ****         return true;
 574              		.loc 1 181 16
 575 0028 0123     		movs	r3, #1
 576 002a 00E0     		b	.L30
 577              	.L29:
 182:d:/LiteOS_Lab/iot_link/os/liteos\liteos_imp.c ****     }
 183:d:/LiteOS_Lab/iot_link/os/liteos\liteos_imp.c ****     else
ARM GAS  C:\Users\ADMINI~1\AppData\Local\Temp\ccNv7SXj.s 			page 14


 184:d:/LiteOS_Lab/iot_link/os/liteos\liteos_imp.c ****     {
 185:d:/LiteOS_Lab/iot_link/os/liteos\liteos_imp.c ****         return false;
 578              		.loc 1 185 16
 579 002c 0023     		movs	r3, #0
 580              	.L30:
 186:d:/LiteOS_Lab/iot_link/os/liteos\liteos_imp.c ****     }
 187:d:/LiteOS_Lab/iot_link/os/liteos\liteos_imp.c **** }
 581              		.loc 1 187 1
 582 002e 1846     		mov	r0, r3
 583 0030 0837     		adds	r7, r7, #8
 584              	.LCFI48:
 585              		.cfi_def_cfa_offset 8
 586 0032 BD46     		mov	sp, r7
 587              	.LCFI49:
 588              		.cfi_def_cfa_register 13
 589              		@ sp needed
 590 0034 80BD     		pop	{r7, pc}
 591              		.cfi_endproc
 592              	.LFE296:
 594              		.section	.text.__semp_post,"ax",%progbits
 595              		.align	1
 596              		.syntax unified
 597              		.thumb
 598              		.thumb_func
 599              		.fpu fpv4-sp-d16
 601              	__semp_post:
 602              	.LFB297:
 188:d:/LiteOS_Lab/iot_link/os/liteos\liteos_imp.c **** static bool_t  __semp_post(osal_semp_t semp)
 189:d:/LiteOS_Lab/iot_link/os/liteos\liteos_imp.c **** {
 603              		.loc 1 189 1
 604              		.cfi_startproc
 605              		@ args = 0, pretend = 0, frame = 8
 606              		@ frame_needed = 1, uses_anonymous_args = 0
 607 0000 80B5     		push	{r7, lr}
 608              	.LCFI50:
 609              		.cfi_def_cfa_offset 8
 610              		.cfi_offset 7, -8
 611              		.cfi_offset 14, -4
 612 0002 82B0     		sub	sp, sp, #8
 613              	.LCFI51:
 614              		.cfi_def_cfa_offset 16
 615 0004 00AF     		add	r7, sp, #0
 616              	.LCFI52:
 617              		.cfi_def_cfa_register 7
 618 0006 7860     		str	r0, [r7, #4]
 190:d:/LiteOS_Lab/iot_link/os/liteos\liteos_imp.c ****     if(LOS_OK == LOS_SemPost((UINT32)(uintptr_t)semp))
 619              		.loc 1 190 18
 620 0008 7B68     		ldr	r3, [r7, #4]
 621 000a 1846     		mov	r0, r3
 622 000c FFF7FEFF 		bl	LOS_SemPost
 623 0010 0346     		mov	r3, r0
 624              		.loc 1 190 7
 625 0012 002B     		cmp	r3, #0
 626 0014 01D1     		bne	.L32
 191:d:/LiteOS_Lab/iot_link/os/liteos\liteos_imp.c ****     {
 192:d:/LiteOS_Lab/iot_link/os/liteos\liteos_imp.c ****         return true;
 627              		.loc 1 192 16
ARM GAS  C:\Users\ADMINI~1\AppData\Local\Temp\ccNv7SXj.s 			page 15


 628 0016 0123     		movs	r3, #1
 629 0018 00E0     		b	.L33
 630              	.L32:
 193:d:/LiteOS_Lab/iot_link/os/liteos\liteos_imp.c ****     }
 194:d:/LiteOS_Lab/iot_link/os/liteos\liteos_imp.c ****     else
 195:d:/LiteOS_Lab/iot_link/os/liteos\liteos_imp.c ****     {
 196:d:/LiteOS_Lab/iot_link/os/liteos\liteos_imp.c ****         return false;
 631              		.loc 1 196 16
 632 001a 0023     		movs	r3, #0
 633              	.L33:
 197:d:/LiteOS_Lab/iot_link/os/liteos\liteos_imp.c ****     }
 198:d:/LiteOS_Lab/iot_link/os/liteos\liteos_imp.c **** }
 634              		.loc 1 198 1
 635 001c 1846     		mov	r0, r3
 636 001e 0837     		adds	r7, r7, #8
 637              	.LCFI53:
 638              		.cfi_def_cfa_offset 8
 639 0020 BD46     		mov	sp, r7
 640              	.LCFI54:
 641              		.cfi_def_cfa_register 13
 642              		@ sp needed
 643 0022 80BD     		pop	{r7, pc}
 644              		.cfi_endproc
 645              	.LFE297:
 647              		.section	.text.__semp_del,"ax",%progbits
 648              		.align	1
 649              		.syntax unified
 650              		.thumb
 651              		.thumb_func
 652              		.fpu fpv4-sp-d16
 654              	__semp_del:
 655              	.LFB298:
 199:d:/LiteOS_Lab/iot_link/os/liteos\liteos_imp.c **** 
 200:d:/LiteOS_Lab/iot_link/os/liteos\liteos_imp.c **** static bool_t  __semp_del(osal_semp_t semp)
 201:d:/LiteOS_Lab/iot_link/os/liteos\liteos_imp.c **** {
 656              		.loc 1 201 1
 657              		.cfi_startproc
 658              		@ args = 0, pretend = 0, frame = 8
 659              		@ frame_needed = 1, uses_anonymous_args = 0
 660 0000 80B5     		push	{r7, lr}
 661              	.LCFI55:
 662              		.cfi_def_cfa_offset 8
 663              		.cfi_offset 7, -8
 664              		.cfi_offset 14, -4
 665 0002 82B0     		sub	sp, sp, #8
 666              	.LCFI56:
 667              		.cfi_def_cfa_offset 16
 668 0004 00AF     		add	r7, sp, #0
 669              	.LCFI57:
 670              		.cfi_def_cfa_register 7
 671 0006 7860     		str	r0, [r7, #4]
 202:d:/LiteOS_Lab/iot_link/os/liteos\liteos_imp.c ****     if(LOS_OK == LOS_SemDelete((UINT32)(uintptr_t)semp))
 672              		.loc 1 202 18
 673 0008 7B68     		ldr	r3, [r7, #4]
 674 000a 1846     		mov	r0, r3
 675 000c FFF7FEFF 		bl	LOS_SemDelete
 676 0010 0346     		mov	r3, r0
ARM GAS  C:\Users\ADMINI~1\AppData\Local\Temp\ccNv7SXj.s 			page 16


 677              		.loc 1 202 7
 678 0012 002B     		cmp	r3, #0
 679 0014 01D1     		bne	.L35
 203:d:/LiteOS_Lab/iot_link/os/liteos\liteos_imp.c ****     {
 204:d:/LiteOS_Lab/iot_link/os/liteos\liteos_imp.c ****         return true;
 680              		.loc 1 204 16
 681 0016 0123     		movs	r3, #1
 682 0018 00E0     		b	.L36
 683              	.L35:
 205:d:/LiteOS_Lab/iot_link/os/liteos\liteos_imp.c ****     }
 206:d:/LiteOS_Lab/iot_link/os/liteos\liteos_imp.c ****     else
 207:d:/LiteOS_Lab/iot_link/os/liteos\liteos_imp.c ****     {
 208:d:/LiteOS_Lab/iot_link/os/liteos\liteos_imp.c ****         return false;
 684              		.loc 1 208 16
 685 001a 0023     		movs	r3, #0
 686              	.L36:
 209:d:/LiteOS_Lab/iot_link/os/liteos\liteos_imp.c ****     }
 210:d:/LiteOS_Lab/iot_link/os/liteos\liteos_imp.c **** }
 687              		.loc 1 210 1
 688 001c 1846     		mov	r0, r3
 689 001e 0837     		adds	r7, r7, #8
 690              	.LCFI58:
 691              		.cfi_def_cfa_offset 8
 692 0020 BD46     		mov	sp, r7
 693              	.LCFI59:
 694              		.cfi_def_cfa_register 13
 695              		@ sp needed
 696 0022 80BD     		pop	{r7, pc}
 697              		.cfi_endproc
 698              	.LFE298:
 700              		.section	.rodata
 701              		.align	2
 702              	.LC0:
 703 0000 6F73616C 		.ascii	"osal_queue\000"
 703      5F717565 
 703      756500
 704              		.section	.text.__queue_create,"ax",%progbits
 705              		.align	1
 706              		.syntax unified
 707              		.thumb
 708              		.thumb_func
 709              		.fpu fpv4-sp-d16
 711              	__queue_create:
 712              	.LFB299:
 211:d:/LiteOS_Lab/iot_link/os/liteos\liteos_imp.c **** 
 212:d:/LiteOS_Lab/iot_link/os/liteos\liteos_imp.c **** 
 213:d:/LiteOS_Lab/iot_link/os/liteos\liteos_imp.c **** #include "los_queue.h"
 214:d:/LiteOS_Lab/iot_link/os/liteos\liteos_imp.c **** 
 215:d:/LiteOS_Lab/iot_link/os/liteos\liteos_imp.c **** static bool_t __queue_create(osal_queue_t *queue,int len,int msgsize)
 216:d:/LiteOS_Lab/iot_link/os/liteos\liteos_imp.c **** {
 713              		.loc 1 216 1
 714              		.cfi_startproc
 715              		@ args = 0, pretend = 0, frame = 16
 716              		@ frame_needed = 1, uses_anonymous_args = 0
 717 0000 80B5     		push	{r7, lr}
 718              	.LCFI60:
 719              		.cfi_def_cfa_offset 8
ARM GAS  C:\Users\ADMINI~1\AppData\Local\Temp\ccNv7SXj.s 			page 17


 720              		.cfi_offset 7, -8
 721              		.cfi_offset 14, -4
 722 0002 86B0     		sub	sp, sp, #24
 723              	.LCFI61:
 724              		.cfi_def_cfa_offset 32
 725 0004 02AF     		add	r7, sp, #8
 726              	.LCFI62:
 727              		.cfi_def_cfa 7, 24
 728 0006 F860     		str	r0, [r7, #12]
 729 0008 B960     		str	r1, [r7, #8]
 730 000a 7A60     		str	r2, [r7, #4]
 217:d:/LiteOS_Lab/iot_link/os/liteos\liteos_imp.c ****     if(LOS_QueueCreate("osal_queue",len,(UINT32 *)queue,0,msgsize)==LOS_OK)
 731              		.loc 1 217 8
 732 000c BB68     		ldr	r3, [r7, #8]
 733 000e 99B2     		uxth	r1, r3
 734 0010 7B68     		ldr	r3, [r7, #4]
 735 0012 9BB2     		uxth	r3, r3
 736 0014 0093     		str	r3, [sp]
 737 0016 0023     		movs	r3, #0
 738 0018 FA68     		ldr	r2, [r7, #12]
 739 001a 0648     		ldr	r0, .L40
 740 001c FFF7FEFF 		bl	LOS_QueueCreate
 741 0020 0346     		mov	r3, r0
 742              		.loc 1 217 7
 743 0022 002B     		cmp	r3, #0
 744 0024 01D1     		bne	.L38
 218:d:/LiteOS_Lab/iot_link/os/liteos\liteos_imp.c ****         return true;
 745              		.loc 1 218 16
 746 0026 0123     		movs	r3, #1
 747 0028 00E0     		b	.L39
 748              	.L38:
 219:d:/LiteOS_Lab/iot_link/os/liteos\liteos_imp.c ****     else
 220:d:/LiteOS_Lab/iot_link/os/liteos\liteos_imp.c ****         return false;
 749              		.loc 1 220 16
 750 002a 0023     		movs	r3, #0
 751              	.L39:
 221:d:/LiteOS_Lab/iot_link/os/liteos\liteos_imp.c **** }
 752              		.loc 1 221 1
 753 002c 1846     		mov	r0, r3
 754 002e 1037     		adds	r7, r7, #16
 755              	.LCFI63:
 756              		.cfi_def_cfa_offset 8
 757 0030 BD46     		mov	sp, r7
 758              	.LCFI64:
 759              		.cfi_def_cfa_register 13
 760              		@ sp needed
 761 0032 80BD     		pop	{r7, pc}
 762              	.L41:
 763              		.align	2
 764              	.L40:
 765 0034 00000000 		.word	.LC0
 766              		.cfi_endproc
 767              	.LFE299:
 769              		.section	.text.__queue_send,"ax",%progbits
 770              		.align	1
 771              		.syntax unified
 772              		.thumb
ARM GAS  C:\Users\ADMINI~1\AppData\Local\Temp\ccNv7SXj.s 			page 18


 773              		.thumb_func
 774              		.fpu fpv4-sp-d16
 776              	__queue_send:
 777              	.LFB300:
 222:d:/LiteOS_Lab/iot_link/os/liteos\liteos_imp.c **** 
 223:d:/LiteOS_Lab/iot_link/os/liteos\liteos_imp.c **** static bool_t __queue_send(osal_queue_t queue, void *pbuf, unsigned int bufsize, unsigned int timeo
 224:d:/LiteOS_Lab/iot_link/os/liteos\liteos_imp.c **** {
 778              		.loc 1 224 1
 779              		.cfi_startproc
 780              		@ args = 0, pretend = 0, frame = 24
 781              		@ frame_needed = 1, uses_anonymous_args = 0
 782 0000 80B5     		push	{r7, lr}
 783              	.LCFI65:
 784              		.cfi_def_cfa_offset 8
 785              		.cfi_offset 7, -8
 786              		.cfi_offset 14, -4
 787 0002 86B0     		sub	sp, sp, #24
 788              	.LCFI66:
 789              		.cfi_def_cfa_offset 32
 790 0004 00AF     		add	r7, sp, #0
 791              	.LCFI67:
 792              		.cfi_def_cfa_register 7
 793 0006 F860     		str	r0, [r7, #12]
 794 0008 B960     		str	r1, [r7, #8]
 795 000a 7A60     		str	r2, [r7, #4]
 796 000c 3B60     		str	r3, [r7]
 225:d:/LiteOS_Lab/iot_link/os/liteos\liteos_imp.c ****     UINT32 ret = LOS_OK;
 797              		.loc 1 225 12
 798 000e 0023     		movs	r3, #0
 799 0010 7B61     		str	r3, [r7, #20]
 226:d:/LiteOS_Lab/iot_link/os/liteos\liteos_imp.c **** 
 227:d:/LiteOS_Lab/iot_link/os/liteos\liteos_imp.c ****     if(timeout == cn_osal_timeout_forever)
 800              		.loc 1 227 7
 801 0012 3B68     		ldr	r3, [r7]
 802 0014 B3F1FF3F 		cmp	r3, #-1
 803 0018 02D1     		bne	.L43
 228:d:/LiteOS_Lab/iot_link/os/liteos\liteos_imp.c ****         timeout = LOS_WAIT_FOREVER;
 804              		.loc 1 228 17
 805 001a 4FF0FF33 		mov	r3, #-1
 806 001e 3B60     		str	r3, [r7]
 807              	.L43:
 229:d:/LiteOS_Lab/iot_link/os/liteos\liteos_imp.c **** 
 230:d:/LiteOS_Lab/iot_link/os/liteos\liteos_imp.c ****     ret=LOS_QueueWriteCopy((UINT32)queue, pbuf, bufsize, timeout);
 808              		.loc 1 230 9
 809 0020 F868     		ldr	r0, [r7, #12]
 810 0022 3B68     		ldr	r3, [r7]
 811 0024 7A68     		ldr	r2, [r7, #4]
 812 0026 B968     		ldr	r1, [r7, #8]
 813 0028 FFF7FEFF 		bl	LOS_QueueWriteCopy
 814 002c 7861     		str	r0, [r7, #20]
 231:d:/LiteOS_Lab/iot_link/os/liteos\liteos_imp.c **** 
 232:d:/LiteOS_Lab/iot_link/os/liteos\liteos_imp.c ****     if(ret==LOS_OK)
 815              		.loc 1 232 7
 816 002e 7B69     		ldr	r3, [r7, #20]
 817 0030 002B     		cmp	r3, #0
 818 0032 01D1     		bne	.L44
 233:d:/LiteOS_Lab/iot_link/os/liteos\liteos_imp.c ****         return  true;
ARM GAS  C:\Users\ADMINI~1\AppData\Local\Temp\ccNv7SXj.s 			page 19


 819              		.loc 1 233 17
 820 0034 0123     		movs	r3, #1
 821 0036 00E0     		b	.L45
 822              	.L44:
 234:d:/LiteOS_Lab/iot_link/os/liteos\liteos_imp.c ****     else
 235:d:/LiteOS_Lab/iot_link/os/liteos\liteos_imp.c ****         return false;
 823              		.loc 1 235 16
 824 0038 0023     		movs	r3, #0
 825              	.L45:
 236:d:/LiteOS_Lab/iot_link/os/liteos\liteos_imp.c **** }
 826              		.loc 1 236 1
 827 003a 1846     		mov	r0, r3
 828 003c 1837     		adds	r7, r7, #24
 829              	.LCFI68:
 830              		.cfi_def_cfa_offset 8
 831 003e BD46     		mov	sp, r7
 832              	.LCFI69:
 833              		.cfi_def_cfa_register 13
 834              		@ sp needed
 835 0040 80BD     		pop	{r7, pc}
 836              		.cfi_endproc
 837              	.LFE300:
 839              		.section	.text.__queue_recv,"ax",%progbits
 840              		.align	1
 841              		.syntax unified
 842              		.thumb
 843              		.thumb_func
 844              		.fpu fpv4-sp-d16
 846              	__queue_recv:
 847              	.LFB301:
 237:d:/LiteOS_Lab/iot_link/os/liteos\liteos_imp.c **** 
 238:d:/LiteOS_Lab/iot_link/os/liteos\liteos_imp.c **** 
 239:d:/LiteOS_Lab/iot_link/os/liteos\liteos_imp.c **** static bool_t __queue_recv(osal_queue_t queue, void *pbuf, unsigned int *bufsize, unsigned int time
 240:d:/LiteOS_Lab/iot_link/os/liteos\liteos_imp.c **** {
 848              		.loc 1 240 1
 849              		.cfi_startproc
 850              		@ args = 0, pretend = 0, frame = 24
 851              		@ frame_needed = 1, uses_anonymous_args = 0
 852 0000 80B5     		push	{r7, lr}
 853              	.LCFI70:
 854              		.cfi_def_cfa_offset 8
 855              		.cfi_offset 7, -8
 856              		.cfi_offset 14, -4
 857 0002 86B0     		sub	sp, sp, #24
 858              	.LCFI71:
 859              		.cfi_def_cfa_offset 32
 860 0004 00AF     		add	r7, sp, #0
 861              	.LCFI72:
 862              		.cfi_def_cfa_register 7
 863 0006 F860     		str	r0, [r7, #12]
 864 0008 B960     		str	r1, [r7, #8]
 865 000a 7A60     		str	r2, [r7, #4]
 866 000c 3B60     		str	r3, [r7]
 241:d:/LiteOS_Lab/iot_link/os/liteos\liteos_imp.c ****     UINT32 ret = LOS_OK;
 867              		.loc 1 241 12
 868 000e 0023     		movs	r3, #0
 869 0010 7B61     		str	r3, [r7, #20]
ARM GAS  C:\Users\ADMINI~1\AppData\Local\Temp\ccNv7SXj.s 			page 20


 242:d:/LiteOS_Lab/iot_link/os/liteos\liteos_imp.c **** 
 243:d:/LiteOS_Lab/iot_link/os/liteos\liteos_imp.c ****     ret = LOS_QueueReadCopy((UINT32)queue, pbuf, bufsize, timeout);
 870              		.loc 1 243 11
 871 0012 F868     		ldr	r0, [r7, #12]
 872 0014 3B68     		ldr	r3, [r7]
 873 0016 7A68     		ldr	r2, [r7, #4]
 874 0018 B968     		ldr	r1, [r7, #8]
 875 001a FFF7FEFF 		bl	LOS_QueueReadCopy
 876 001e 7861     		str	r0, [r7, #20]
 244:d:/LiteOS_Lab/iot_link/os/liteos\liteos_imp.c ****     if(ret==LOS_OK){
 877              		.loc 1 244 7
 878 0020 7B69     		ldr	r3, [r7, #20]
 879 0022 002B     		cmp	r3, #0
 880 0024 01D1     		bne	.L47
 245:d:/LiteOS_Lab/iot_link/os/liteos\liteos_imp.c ****         return true;
 881              		.loc 1 245 16
 882 0026 0123     		movs	r3, #1
 883 0028 00E0     		b	.L48
 884              	.L47:
 246:d:/LiteOS_Lab/iot_link/os/liteos\liteos_imp.c ****     }
 247:d:/LiteOS_Lab/iot_link/os/liteos\liteos_imp.c ****     else
 248:d:/LiteOS_Lab/iot_link/os/liteos\liteos_imp.c ****     {
 249:d:/LiteOS_Lab/iot_link/os/liteos\liteos_imp.c ****         return false;
 885              		.loc 1 249 16
 886 002a 0023     		movs	r3, #0
 887              	.L48:
 250:d:/LiteOS_Lab/iot_link/os/liteos\liteos_imp.c ****     }
 251:d:/LiteOS_Lab/iot_link/os/liteos\liteos_imp.c **** }
 888              		.loc 1 251 1
 889 002c 1846     		mov	r0, r3
 890 002e 1837     		adds	r7, r7, #24
 891              	.LCFI73:
 892              		.cfi_def_cfa_offset 8
 893 0030 BD46     		mov	sp, r7
 894              	.LCFI74:
 895              		.cfi_def_cfa_register 13
 896              		@ sp needed
 897 0032 80BD     		pop	{r7, pc}
 898              		.cfi_endproc
 899              	.LFE301:
 901              		.section	.text.__queue_del,"ax",%progbits
 902              		.align	1
 903              		.syntax unified
 904              		.thumb
 905              		.thumb_func
 906              		.fpu fpv4-sp-d16
 908              	__queue_del:
 909              	.LFB302:
 252:d:/LiteOS_Lab/iot_link/os/liteos\liteos_imp.c **** 
 253:d:/LiteOS_Lab/iot_link/os/liteos\liteos_imp.c **** static bool_t __queue_del(osal_queue_t queue)
 254:d:/LiteOS_Lab/iot_link/os/liteos\liteos_imp.c **** {
 910              		.loc 1 254 1
 911              		.cfi_startproc
 912              		@ args = 0, pretend = 0, frame = 8
 913              		@ frame_needed = 1, uses_anonymous_args = 0
 914 0000 80B5     		push	{r7, lr}
 915              	.LCFI75:
ARM GAS  C:\Users\ADMINI~1\AppData\Local\Temp\ccNv7SXj.s 			page 21


 916              		.cfi_def_cfa_offset 8
 917              		.cfi_offset 7, -8
 918              		.cfi_offset 14, -4
 919 0002 82B0     		sub	sp, sp, #8
 920              	.LCFI76:
 921              		.cfi_def_cfa_offset 16
 922 0004 00AF     		add	r7, sp, #0
 923              	.LCFI77:
 924              		.cfi_def_cfa_register 7
 925 0006 7860     		str	r0, [r7, #4]
 255:d:/LiteOS_Lab/iot_link/os/liteos\liteos_imp.c ****     if(LOS_QueueDelete((int)queue)==LOS_OK)
 926              		.loc 1 255 8
 927 0008 7B68     		ldr	r3, [r7, #4]
 928 000a 1846     		mov	r0, r3
 929 000c FFF7FEFF 		bl	LOS_QueueDelete
 930 0010 0346     		mov	r3, r0
 931              		.loc 1 255 7
 932 0012 002B     		cmp	r3, #0
 933 0014 01D1     		bne	.L50
 256:d:/LiteOS_Lab/iot_link/os/liteos\liteos_imp.c ****         return true;
 934              		.loc 1 256 16
 935 0016 0123     		movs	r3, #1
 936 0018 00E0     		b	.L51
 937              	.L50:
 257:d:/LiteOS_Lab/iot_link/os/liteos\liteos_imp.c ****     else
 258:d:/LiteOS_Lab/iot_link/os/liteos\liteos_imp.c ****         return false;
 938              		.loc 1 258 16
 939 001a 0023     		movs	r3, #0
 940              	.L51:
 259:d:/LiteOS_Lab/iot_link/os/liteos\liteos_imp.c **** }
 941              		.loc 1 259 1
 942 001c 1846     		mov	r0, r3
 943 001e 0837     		adds	r7, r7, #8
 944              	.LCFI78:
 945              		.cfi_def_cfa_offset 8
 946 0020 BD46     		mov	sp, r7
 947              	.LCFI79:
 948              		.cfi_def_cfa_register 13
 949              		@ sp needed
 950 0022 80BD     		pop	{r7, pc}
 951              		.cfi_endproc
 952              	.LFE302:
 954              		.section	.text.__mem_malloc,"ax",%progbits
 955              		.align	1
 956              		.syntax unified
 957              		.thumb
 958              		.thumb_func
 959              		.fpu fpv4-sp-d16
 961              	__mem_malloc:
 962              	.LFB303:
 260:d:/LiteOS_Lab/iot_link/os/liteos\liteos_imp.c **** 
 261:d:/LiteOS_Lab/iot_link/os/liteos\liteos_imp.c **** 
 262:d:/LiteOS_Lab/iot_link/os/liteos\liteos_imp.c **** ///< this implement for the memory management
 263:d:/LiteOS_Lab/iot_link/os/liteos\liteos_imp.c **** #include <los_memory.h>
 264:d:/LiteOS_Lab/iot_link/os/liteos\liteos_imp.c **** 
 265:d:/LiteOS_Lab/iot_link/os/liteos\liteos_imp.c **** 
 266:d:/LiteOS_Lab/iot_link/os/liteos\liteos_imp.c **** static void *__mem_malloc(int size)
ARM GAS  C:\Users\ADMINI~1\AppData\Local\Temp\ccNv7SXj.s 			page 22


 267:d:/LiteOS_Lab/iot_link/os/liteos\liteos_imp.c **** {
 963              		.loc 1 267 1
 964              		.cfi_startproc
 965              		@ args = 0, pretend = 0, frame = 16
 966              		@ frame_needed = 1, uses_anonymous_args = 0
 967 0000 80B5     		push	{r7, lr}
 968              	.LCFI80:
 969              		.cfi_def_cfa_offset 8
 970              		.cfi_offset 7, -8
 971              		.cfi_offset 14, -4
 972 0002 84B0     		sub	sp, sp, #16
 973              	.LCFI81:
 974              		.cfi_def_cfa_offset 24
 975 0004 00AF     		add	r7, sp, #0
 976              	.LCFI82:
 977              		.cfi_def_cfa_register 7
 978 0006 7860     		str	r0, [r7, #4]
 268:d:/LiteOS_Lab/iot_link/os/liteos\liteos_imp.c ****     void *ret = NULL;
 979              		.loc 1 268 11
 980 0008 0023     		movs	r3, #0
 981 000a FB60     		str	r3, [r7, #12]
 269:d:/LiteOS_Lab/iot_link/os/liteos\liteos_imp.c **** 
 270:d:/LiteOS_Lab/iot_link/os/liteos\liteos_imp.c ****     if(size > 0)
 982              		.loc 1 270 7
 983 000c 7B68     		ldr	r3, [r7, #4]
 984 000e 002B     		cmp	r3, #0
 985 0010 07DD     		ble	.L53
 271:d:/LiteOS_Lab/iot_link/os/liteos\liteos_imp.c ****     {
 272:d:/LiteOS_Lab/iot_link/os/liteos\liteos_imp.c ****         ret = LOS_MemAlloc(m_aucSysMem0,size);
 986              		.loc 1 272 15
 987 0012 064B     		ldr	r3, .L55
 988 0014 1B68     		ldr	r3, [r3]
 989 0016 7A68     		ldr	r2, [r7, #4]
 990 0018 1146     		mov	r1, r2
 991 001a 1846     		mov	r0, r3
 992 001c FFF7FEFF 		bl	LOS_MemAlloc
 993 0020 F860     		str	r0, [r7, #12]
 994              	.L53:
 273:d:/LiteOS_Lab/iot_link/os/liteos\liteos_imp.c ****     }
 274:d:/LiteOS_Lab/iot_link/os/liteos\liteos_imp.c **** 
 275:d:/LiteOS_Lab/iot_link/os/liteos\liteos_imp.c ****     return ret;
 995              		.loc 1 275 12
 996 0022 FB68     		ldr	r3, [r7, #12]
 276:d:/LiteOS_Lab/iot_link/os/liteos\liteos_imp.c **** }
 997              		.loc 1 276 1
 998 0024 1846     		mov	r0, r3
 999 0026 1037     		adds	r7, r7, #16
 1000              	.LCFI83:
 1001              		.cfi_def_cfa_offset 8
 1002 0028 BD46     		mov	sp, r7
 1003              	.LCFI84:
 1004              		.cfi_def_cfa_register 13
 1005              		@ sp needed
 1006 002a 80BD     		pop	{r7, pc}
 1007              	.L56:
 1008              		.align	2
 1009              	.L55:
ARM GAS  C:\Users\ADMINI~1\AppData\Local\Temp\ccNv7SXj.s 			page 23


 1010 002c 00000000 		.word	m_aucSysMem0
 1011              		.cfi_endproc
 1012              	.LFE303:
 1014              		.section	.text.__mem_free,"ax",%progbits
 1015              		.align	1
 1016              		.syntax unified
 1017              		.thumb
 1018              		.thumb_func
 1019              		.fpu fpv4-sp-d16
 1021              	__mem_free:
 1022              	.LFB304:
 277:d:/LiteOS_Lab/iot_link/os/liteos\liteos_imp.c **** 
 278:d:/LiteOS_Lab/iot_link/os/liteos\liteos_imp.c **** static void __mem_free(void *addr)
 279:d:/LiteOS_Lab/iot_link/os/liteos\liteos_imp.c **** {
 1023              		.loc 1 279 1
 1024              		.cfi_startproc
 1025              		@ args = 0, pretend = 0, frame = 8
 1026              		@ frame_needed = 1, uses_anonymous_args = 0
 1027 0000 80B5     		push	{r7, lr}
 1028              	.LCFI85:
 1029              		.cfi_def_cfa_offset 8
 1030              		.cfi_offset 7, -8
 1031              		.cfi_offset 14, -4
 1032 0002 82B0     		sub	sp, sp, #8
 1033              	.LCFI86:
 1034              		.cfi_def_cfa_offset 16
 1035 0004 00AF     		add	r7, sp, #0
 1036              	.LCFI87:
 1037              		.cfi_def_cfa_register 7
 1038 0006 7860     		str	r0, [r7, #4]
 280:d:/LiteOS_Lab/iot_link/os/liteos\liteos_imp.c ****     (void) LOS_MemFree(m_aucSysMem0,addr);
 1039              		.loc 1 280 12
 1040 0008 044B     		ldr	r3, .L58
 1041 000a 1B68     		ldr	r3, [r3]
 1042 000c 7968     		ldr	r1, [r7, #4]
 1043 000e 1846     		mov	r0, r3
 1044 0010 FFF7FEFF 		bl	LOS_MemFree
 281:d:/LiteOS_Lab/iot_link/os/liteos\liteos_imp.c **** }
 1045              		.loc 1 281 1
 1046 0014 00BF     		nop
 1047 0016 0837     		adds	r7, r7, #8
 1048              	.LCFI88:
 1049              		.cfi_def_cfa_offset 8
 1050 0018 BD46     		mov	sp, r7
 1051              	.LCFI89:
 1052              		.cfi_def_cfa_register 13
 1053              		@ sp needed
 1054 001a 80BD     		pop	{r7, pc}
 1055              	.L59:
 1056              		.align	2
 1057              	.L58:
 1058 001c 00000000 		.word	m_aucSysMem0
 1059              		.cfi_endproc
 1060              	.LFE304:
 1062              		.section	.text.los_mem_realloc,"ax",%progbits
 1063              		.align	1
 1064              		.global	los_mem_realloc
ARM GAS  C:\Users\ADMINI~1\AppData\Local\Temp\ccNv7SXj.s 			page 24


 1065              		.syntax unified
 1066              		.thumb
 1067              		.thumb_func
 1068              		.fpu fpv4-sp-d16
 1070              	los_mem_realloc:
 1071              	.LFB305:
 282:d:/LiteOS_Lab/iot_link/os/liteos\liteos_imp.c **** 
 283:d:/LiteOS_Lab/iot_link/os/liteos\liteos_imp.c **** void *los_mem_realloc(void *old, int newlen)
 284:d:/LiteOS_Lab/iot_link/os/liteos\liteos_imp.c **** {
 1072              		.loc 1 284 1
 1073              		.cfi_startproc
 1074              		@ args = 0, pretend = 0, frame = 8
 1075              		@ frame_needed = 1, uses_anonymous_args = 0
 1076 0000 80B5     		push	{r7, lr}
 1077              	.LCFI90:
 1078              		.cfi_def_cfa_offset 8
 1079              		.cfi_offset 7, -8
 1080              		.cfi_offset 14, -4
 1081 0002 82B0     		sub	sp, sp, #8
 1082              	.LCFI91:
 1083              		.cfi_def_cfa_offset 16
 1084 0004 00AF     		add	r7, sp, #0
 1085              	.LCFI92:
 1086              		.cfi_def_cfa_register 7
 1087 0006 7860     		str	r0, [r7, #4]
 1088 0008 3960     		str	r1, [r7]
 285:d:/LiteOS_Lab/iot_link/os/liteos\liteos_imp.c **** 
 286:d:/LiteOS_Lab/iot_link/os/liteos\liteos_imp.c ****     return LOS_MemRealloc(m_aucSysMem0, old, newlen);
 1089              		.loc 1 286 12
 1090 000a 064B     		ldr	r3, .L62
 1091 000c 1B68     		ldr	r3, [r3]
 1092 000e 3A68     		ldr	r2, [r7]
 1093 0010 7968     		ldr	r1, [r7, #4]
 1094 0012 1846     		mov	r0, r3
 1095 0014 FFF7FEFF 		bl	LOS_MemRealloc
 1096 0018 0346     		mov	r3, r0
 287:d:/LiteOS_Lab/iot_link/os/liteos\liteos_imp.c **** }
 1097              		.loc 1 287 1
 1098 001a 1846     		mov	r0, r3
 1099 001c 0837     		adds	r7, r7, #8
 1100              	.LCFI93:
 1101              		.cfi_def_cfa_offset 8
 1102 001e BD46     		mov	sp, r7
 1103              	.LCFI94:
 1104              		.cfi_def_cfa_register 13
 1105              		@ sp needed
 1106 0020 80BD     		pop	{r7, pc}
 1107              	.L63:
 1108 0022 00BF     		.align	2
 1109              	.L62:
 1110 0024 00000000 		.word	m_aucSysMem0
 1111              		.cfi_endproc
 1112              	.LFE305:
 1114              		.section	.text.__get_sys_time,"ax",%progbits
 1115              		.align	1
 1116              		.syntax unified
 1117              		.thumb
ARM GAS  C:\Users\ADMINI~1\AppData\Local\Temp\ccNv7SXj.s 			page 25


 1118              		.thumb_func
 1119              		.fpu fpv4-sp-d16
 1121              	__get_sys_time:
 1122              	.LFB308:
 288:d:/LiteOS_Lab/iot_link/os/liteos\liteos_imp.c **** 
 289:d:/LiteOS_Lab/iot_link/os/liteos\liteos_imp.c **** 
 290:d:/LiteOS_Lab/iot_link/os/liteos\liteos_imp.c **** ///< sys time
 291:d:/LiteOS_Lab/iot_link/os/liteos\liteos_imp.c **** #include <los_sys.ph>
 292:d:/LiteOS_Lab/iot_link/os/liteos\liteos_imp.c **** 
 293:d:/LiteOS_Lab/iot_link/os/liteos\liteos_imp.c **** extern UINT64 osKernelGetTickCount (void);
 294:d:/LiteOS_Lab/iot_link/os/liteos\liteos_imp.c **** static unsigned long long __get_sys_time()
 295:d:/LiteOS_Lab/iot_link/os/liteos\liteos_imp.c **** {
 1123              		.loc 1 295 1
 1124              		.cfi_startproc
 1125              		@ args = 0, pretend = 0, frame = 0
 1126              		@ frame_needed = 1, uses_anonymous_args = 0
 1127 0000 80B5     		push	{r7, lr}
 1128              	.LCFI95:
 1129              		.cfi_def_cfa_offset 8
 1130              		.cfi_offset 7, -8
 1131              		.cfi_offset 14, -4
 1132 0002 00AF     		add	r7, sp, #0
 1133              	.LCFI96:
 1134              		.cfi_def_cfa_register 7
 296:d:/LiteOS_Lab/iot_link/os/liteos\liteos_imp.c ****     return osKernelGetTickCount() * (OS_SYS_MS_PER_SECOND / LOSCFG_BASE_CORE_TICK_PER_SECOND);
 1135              		.loc 1 296 35
 1136 0004 FFF7FEFF 		bl	osKernelGetTickCount
 1137 0008 0246     		mov	r2, r0
 1138 000a 0B46     		mov	r3, r1
 297:d:/LiteOS_Lab/iot_link/os/liteos\liteos_imp.c **** }
 1139              		.loc 1 297 1
 1140 000c 1046     		mov	r0, r2
 1141 000e 1946     		mov	r1, r3
 1142 0010 80BD     		pop	{r7, pc}
 1143              		.cfi_endproc
 1144              	.LFE308:
 1146              		.section	.text.liteos_reboot,"ax",%progbits
 1147              		.align	1
 1148              		.weak	liteos_reboot
 1149              		.syntax unified
 1150              		.thumb
 1151              		.thumb_func
 1152              		.fpu fpv4-sp-d16
 1154              	liteos_reboot:
 1155              	.LFB309:
 298:d:/LiteOS_Lab/iot_link/os/liteos\liteos_imp.c **** 
 299:d:/LiteOS_Lab/iot_link/os/liteos\liteos_imp.c **** __attribute__((weak)) int liteos_reboot()
 300:d:/LiteOS_Lab/iot_link/os/liteos\liteos_imp.c **** {
 1156              		.loc 1 300 1
 1157              		.cfi_startproc
 1158              		@ args = 0, pretend = 0, frame = 0
 1159              		@ frame_needed = 1, uses_anonymous_args = 0
 1160              		@ link register save eliminated.
 1161 0000 80B4     		push	{r7}
 1162              	.LCFI97:
 1163              		.cfi_def_cfa_offset 4
 1164              		.cfi_offset 7, -4
ARM GAS  C:\Users\ADMINI~1\AppData\Local\Temp\ccNv7SXj.s 			page 26


 1165 0002 00AF     		add	r7, sp, #0
 1166              	.LCFI98:
 1167              		.cfi_def_cfa_register 7
 301:d:/LiteOS_Lab/iot_link/os/liteos\liteos_imp.c ****     ///< waiting for the dog if not impelment. you could implement it your self
 302:d:/LiteOS_Lab/iot_link/os/liteos\liteos_imp.c ****     return 0;
 1168              		.loc 1 302 12
 1169 0004 0023     		movs	r3, #0
 303:d:/LiteOS_Lab/iot_link/os/liteos\liteos_imp.c **** }
 1170              		.loc 1 303 1
 1171 0006 1846     		mov	r0, r3
 1172 0008 BD46     		mov	sp, r7
 1173              	.LCFI99:
 1174              		.cfi_def_cfa_register 13
 1175              		@ sp needed
 1176 000a 5DF8047B 		ldr	r7, [sp], #4
 1177              	.LCFI100:
 1178              		.cfi_restore 7
 1179              		.cfi_def_cfa_offset 0
 1180 000e 7047     		bx	lr
 1181              		.cfi_endproc
 1182              	.LFE309:
 1184              		.section	.text.__int_connect,"ax",%progbits
 1185              		.align	1
 1186              		.syntax unified
 1187              		.thumb
 1188              		.thumb_func
 1189              		.fpu fpv4-sp-d16
 1191              	__int_connect:
 1192              	.LFB310:
 304:d:/LiteOS_Lab/iot_link/os/liteos\liteos_imp.c **** 
 305:d:/LiteOS_Lab/iot_link/os/liteos\liteos_imp.c **** 
 306:d:/LiteOS_Lab/iot_link/os/liteos\liteos_imp.c **** //interrupt
 307:d:/LiteOS_Lab/iot_link/os/liteos\liteos_imp.c **** //#include <los_hwi.h>
 308:d:/LiteOS_Lab/iot_link/os/liteos\liteos_imp.c **** static int __int_connect(int intnum, int prio, int mode, fn_interrupt_handle callback, void* arg)
 309:d:/LiteOS_Lab/iot_link/os/liteos\liteos_imp.c **** {
 1193              		.loc 1 309 1
 1194              		.cfi_startproc
 1195              		@ args = 4, pretend = 0, frame = 16
 1196              		@ frame_needed = 1, uses_anonymous_args = 0
 1197 0000 80B5     		push	{r7, lr}
 1198              	.LCFI101:
 1199              		.cfi_def_cfa_offset 8
 1200              		.cfi_offset 7, -8
 1201              		.cfi_offset 14, -4
 1202 0002 86B0     		sub	sp, sp, #24
 1203              	.LCFI102:
 1204              		.cfi_def_cfa_offset 32
 1205 0004 02AF     		add	r7, sp, #8
 1206              	.LCFI103:
 1207              		.cfi_def_cfa 7, 24
 1208 0006 F860     		str	r0, [r7, #12]
 1209 0008 B960     		str	r1, [r7, #8]
 1210 000a 7A60     		str	r2, [r7, #4]
 1211 000c 3B60     		str	r3, [r7]
 310:d:/LiteOS_Lab/iot_link/os/liteos\liteos_imp.c **** 	extern UINT32 LOS_HwiCreate(HWI_HANDLE_T  uwHwiNum, \
 311:d:/LiteOS_Lab/iot_link/os/liteos\liteos_imp.c **** 	                            HWI_PRIOR_T   usHwiPrio, \
 312:d:/LiteOS_Lab/iot_link/os/liteos\liteos_imp.c **** 	                            HWI_MODE_T    usMode, \
ARM GAS  C:\Users\ADMINI~1\AppData\Local\Temp\ccNv7SXj.s 			page 27


 313:d:/LiteOS_Lab/iot_link/os/liteos\liteos_imp.c **** 	                            HWI_PROC_FUNC pfnHandler, \
 314:d:/LiteOS_Lab/iot_link/os/liteos\liteos_imp.c **** 	                            HWI_ARG_T     uwArg \
 315:d:/LiteOS_Lab/iot_link/os/liteos\liteos_imp.c **** 	                            );
 316:d:/LiteOS_Lab/iot_link/os/liteos\liteos_imp.c **** 	return LOS_HwiCreate((HWI_HANDLE_T)intnum, (HWI_PRIOR_T)prio,(HWI_MODE_T) mode, (HWI_PROC_FUNC)cal
 1212              		.loc 1 316 9
 1213 000e F868     		ldr	r0, [r7, #12]
 1214 0010 BB68     		ldr	r3, [r7, #8]
 1215 0012 99B2     		uxth	r1, r3
 1216 0014 7B68     		ldr	r3, [r7, #4]
 1217 0016 9AB2     		uxth	r2, r3
 1218 0018 BB69     		ldr	r3, [r7, #24]
 1219 001a 0093     		str	r3, [sp]
 1220 001c 3B68     		ldr	r3, [r7]
 1221 001e FFF7FEFF 		bl	LOS_HwiCreate
 1222 0022 0346     		mov	r3, r0
 317:d:/LiteOS_Lab/iot_link/os/liteos\liteos_imp.c **** }
 1223              		.loc 1 317 1
 1224 0024 1846     		mov	r0, r3
 1225 0026 1037     		adds	r7, r7, #16
 1226              	.LCFI104:
 1227              		.cfi_def_cfa_offset 8
 1228 0028 BD46     		mov	sp, r7
 1229              	.LCFI105:
 1230              		.cfi_def_cfa_register 13
 1231              		@ sp needed
 1232 002a 80BD     		pop	{r7, pc}
 1233              		.cfi_endproc
 1234              	.LFE310:
 1236              		.section	.rodata.s_liteos_ops,"a"
 1237              		.align	2
 1240              	s_liteos_ops:
 1241 0000 00000000 		.word	__task_create
 1242 0004 00000000 		.word	__task_kill
 1243 0008 00000000 		.word	__task_exit
 1244 000c 00000000 		.word	__task_sleep
 1245 0010 00000000 		.word	__mutex_create
 1246 0014 00000000 		.word	__mutex_lock
 1247 0018 00000000 		.word	__mutex_unlock
 1248 001c 00000000 		.word	__mutex_del
 1249 0020 00000000 		.word	__semp_create
 1250 0024 00000000 		.word	__semp_pend
 1251 0028 00000000 		.word	__semp_post
 1252 002c 00000000 		.word	__semp_del
 1253 0030 00000000 		.word	__queue_create
 1254 0034 00000000 		.word	__queue_send
 1255 0038 00000000 		.word	__queue_recv
 1256 003c 00000000 		.word	__queue_del
 1257 0040 00000000 		.word	__mem_malloc
 1258 0044 00000000 		.word	__mem_free
 1259 0048 00000000 		.space	4
 1260 004c 00000000 		.word	__get_sys_time
 1261 0050 00000000 		.word	liteos_reboot
 1262 0054 00000000 		.word	__int_connect
 1263              		.section	.rodata
 1264 000b 00       		.align	2
 1265              	.LC1:
 1266 000c 4C697465 		.ascii	"LiteOS\000"
ARM GAS  C:\Users\ADMINI~1\AppData\Local\Temp\ccNv7SXj.s 			page 28


 1266      4F5300
 1267              		.section	.rodata.s_link_liteos,"a"
 1268              		.align	2
 1271              	s_link_liteos:
 1272 0000 0C000000 		.word	.LC1
 1273 0004 00000000 		.word	s_liteos_ops
 1274              		.section	.text.os_imp_init,"ax",%progbits
 1275              		.align	1
 1276              		.global	os_imp_init
 1277              		.syntax unified
 1278              		.thumb
 1279              		.thumb_func
 1280              		.fpu fpv4-sp-d16
 1282              	os_imp_init:
 1283              	.LFB311:
 318:d:/LiteOS_Lab/iot_link/os/liteos\liteos_imp.c **** 
 319:d:/LiteOS_Lab/iot_link/os/liteos\liteos_imp.c **** static const tag_os_ops s_liteos_ops =
 320:d:/LiteOS_Lab/iot_link/os/liteos\liteos_imp.c **** {
 321:d:/LiteOS_Lab/iot_link/os/liteos\liteos_imp.c ****     .task_sleep = __task_sleep,
 322:d:/LiteOS_Lab/iot_link/os/liteos\liteos_imp.c ****     .task_create = __task_create,
 323:d:/LiteOS_Lab/iot_link/os/liteos\liteos_imp.c ****     .task_kill = __task_kill,
 324:d:/LiteOS_Lab/iot_link/os/liteos\liteos_imp.c ****     .task_exit = __task_exit,
 325:d:/LiteOS_Lab/iot_link/os/liteos\liteos_imp.c **** 
 326:d:/LiteOS_Lab/iot_link/os/liteos\liteos_imp.c ****     .mutex_create = __mutex_create,
 327:d:/LiteOS_Lab/iot_link/os/liteos\liteos_imp.c ****     .mutex_lock = __mutex_lock,
 328:d:/LiteOS_Lab/iot_link/os/liteos\liteos_imp.c ****     .mutex_unlock = __mutex_unlock,
 329:d:/LiteOS_Lab/iot_link/os/liteos\liteos_imp.c ****     .mutex_del = __mutex_del,
 330:d:/LiteOS_Lab/iot_link/os/liteos\liteos_imp.c **** 
 331:d:/LiteOS_Lab/iot_link/os/liteos\liteos_imp.c ****     .semp_create = __semp_create,
 332:d:/LiteOS_Lab/iot_link/os/liteos\liteos_imp.c ****     .semp_pend = __semp_pend,
 333:d:/LiteOS_Lab/iot_link/os/liteos\liteos_imp.c ****     .semp_post = __semp_post,
 334:d:/LiteOS_Lab/iot_link/os/liteos\liteos_imp.c ****     .semp_del = __semp_del,
 335:d:/LiteOS_Lab/iot_link/os/liteos\liteos_imp.c **** 
 336:d:/LiteOS_Lab/iot_link/os/liteos\liteos_imp.c ****     .queue_create = __queue_create,
 337:d:/LiteOS_Lab/iot_link/os/liteos\liteos_imp.c ****     .queue_send = __queue_send,
 338:d:/LiteOS_Lab/iot_link/os/liteos\liteos_imp.c ****     .queue_recv = __queue_recv,
 339:d:/LiteOS_Lab/iot_link/os/liteos\liteos_imp.c ****     .queue_del = __queue_del,
 340:d:/LiteOS_Lab/iot_link/os/liteos\liteos_imp.c **** 
 341:d:/LiteOS_Lab/iot_link/os/liteos\liteos_imp.c ****     .malloc = __mem_malloc,
 342:d:/LiteOS_Lab/iot_link/os/liteos\liteos_imp.c ****     .free = __mem_free,
 343:d:/LiteOS_Lab/iot_link/os/liteos\liteos_imp.c **** 
 344:d:/LiteOS_Lab/iot_link/os/liteos\liteos_imp.c ****     .get_sys_time = __get_sys_time,
 345:d:/LiteOS_Lab/iot_link/os/liteos\liteos_imp.c ****     .reboot = liteos_reboot,
 346:d:/LiteOS_Lab/iot_link/os/liteos\liteos_imp.c **** 
 347:d:/LiteOS_Lab/iot_link/os/liteos\liteos_imp.c **** 	.int_connect = __int_connect,
 348:d:/LiteOS_Lab/iot_link/os/liteos\liteos_imp.c **** };
 349:d:/LiteOS_Lab/iot_link/os/liteos\liteos_imp.c **** 
 350:d:/LiteOS_Lab/iot_link/os/liteos\liteos_imp.c **** 
 351:d:/LiteOS_Lab/iot_link/os/liteos\liteos_imp.c **** 
 352:d:/LiteOS_Lab/iot_link/os/liteos\liteos_imp.c **** static const tag_os s_link_liteos =
 353:d:/LiteOS_Lab/iot_link/os/liteos\liteos_imp.c **** {
 354:d:/LiteOS_Lab/iot_link/os/liteos\liteos_imp.c ****     .name = "LiteOS",
 355:d:/LiteOS_Lab/iot_link/os/liteos\liteos_imp.c ****     .ops = &s_liteos_ops,
 356:d:/LiteOS_Lab/iot_link/os/liteos\liteos_imp.c **** };
 357:d:/LiteOS_Lab/iot_link/os/liteos\liteos_imp.c **** 
 358:d:/LiteOS_Lab/iot_link/os/liteos\liteos_imp.c **** int os_imp_init(void)
 359:d:/LiteOS_Lab/iot_link/os/liteos\liteos_imp.c **** {
ARM GAS  C:\Users\ADMINI~1\AppData\Local\Temp\ccNv7SXj.s 			page 29


 1284              		.loc 1 359 1
 1285              		.cfi_startproc
 1286              		@ args = 0, pretend = 0, frame = 8
 1287              		@ frame_needed = 1, uses_anonymous_args = 0
 1288 0000 80B5     		push	{r7, lr}
 1289              	.LCFI106:
 1290              		.cfi_def_cfa_offset 8
 1291              		.cfi_offset 7, -8
 1292              		.cfi_offset 14, -4
 1293 0002 82B0     		sub	sp, sp, #8
 1294              	.LCFI107:
 1295              		.cfi_def_cfa_offset 16
 1296 0004 00AF     		add	r7, sp, #0
 1297              	.LCFI108:
 1298              		.cfi_def_cfa_register 7
 360:d:/LiteOS_Lab/iot_link/os/liteos\liteos_imp.c ****     int ret = -1;
 1299              		.loc 1 360 9
 1300 0006 4FF0FF33 		mov	r3, #-1
 1301 000a 7B60     		str	r3, [r7, #4]
 361:d:/LiteOS_Lab/iot_link/os/liteos\liteos_imp.c **** 
 362:d:/LiteOS_Lab/iot_link/os/liteos\liteos_imp.c ****     ret = osal_install(&s_link_liteos);
 1302              		.loc 1 362 11
 1303 000c 0448     		ldr	r0, .L72
 1304 000e FFF7FEFF 		bl	osal_install
 1305 0012 7860     		str	r0, [r7, #4]
 363:d:/LiteOS_Lab/iot_link/os/liteos\liteos_imp.c **** 
 364:d:/LiteOS_Lab/iot_link/os/liteos\liteos_imp.c ****     return ret;
 1306              		.loc 1 364 12
 1307 0014 7B68     		ldr	r3, [r7, #4]
 365:d:/LiteOS_Lab/iot_link/os/liteos\liteos_imp.c **** }
 1308              		.loc 1 365 1
 1309 0016 1846     		mov	r0, r3
 1310 0018 0837     		adds	r7, r7, #8
 1311              	.LCFI109:
 1312              		.cfi_def_cfa_offset 8
 1313 001a BD46     		mov	sp, r7
 1314              	.LCFI110:
 1315              		.cfi_def_cfa_register 13
 1316              		@ sp needed
 1317 001c 80BD     		pop	{r7, pc}
 1318              	.L73:
 1319 001e 00BF     		.align	2
 1320              	.L72:
 1321 0020 00000000 		.word	s_link_liteos
 1322              		.cfi_endproc
 1323              	.LFE311:
 1325              		.text
 1326              	.Letext0:
 1327              		.file 2 "c:\\users\\administrator\\.huawei-liteos-studio\\tools\\arm-none-eabi\\arm-none-eabi\\inc
 1328              		.file 3 "c:\\users\\administrator\\.huawei-liteos-studio\\tools\\arm-none-eabi\\arm-none-eabi\\inc
 1329              		.file 4 "c:\\users\\administrator\\.huawei-liteos-studio\\tools\\arm-none-eabi\\arm-none-eabi\\inc
 1330              		.file 5 "c:\\users\\administrator\\.huawei-liteos-studio\\tools\\arm-none-eabi\\lib\\gcc\\arm-none
 1331              		.file 6 "c:\\users\\administrator\\.huawei-liteos-studio\\tools\\arm-none-eabi\\arm-none-eabi\\inc
 1332              		.file 7 "c:\\users\\administrator\\.huawei-liteos-studio\\tools\\arm-none-eabi\\arm-none-eabi\\inc
 1333              		.file 8 "d:/LiteOS_Lab/iot_link/os/osal/osal_types.h"
 1334              		.file 9 "d:/LiteOS_Lab/iot_link/os/osal/osal_imp.h"
 1335              		.file 10 "d:/LiteOS_Lab/iot_link/os/liteos/include/los_typedef.h"
ARM GAS  C:\Users\ADMINI~1\AppData\Local\Temp\ccNv7SXj.s 			page 30


 1336              		.file 11 "d:/LiteOS_Lab/iot_link/os/liteos/arch/arm/common/cmsis/core_cm4.h"
 1337              		.file 12 "d:/LiteOS_Lab/targets/STM32L431VCT6_Bossay/Inc/system_stm32l4xx.h"
 1338              		.file 13 "d:/LiteOS_Lab/iot_link/os/liteos/arch/arm/arm-m/include/los_hwi.h"
 1339              		.file 14 "d:/LiteOS_Lab/iot_link/os/liteos/include/los_list.h"
 1340              		.file 15 "d:/LiteOS_Lab/iot_link/os/liteos/include/los_event.h"
 1341              		.file 16 "d:/LiteOS_Lab/iot_link/os/liteos/include/los_config.h"
 1342              		.file 17 "d:/LiteOS_Lab/iot_link/os/liteos/include/los_err.h"
 1343              		.file 18 "d:/LiteOS_Lab/iot_link/os/liteos/include/los_tick.h"
 1344              		.file 19 "d:/LiteOS_Lab/iot_link/os/liteos/include/los_task.h"
 1345              		.file 20 "d:/LiteOS_Lab/iot_link/os/liteos/base/include/los_task.ph"
 1346              		.file 21 "d:/LiteOS_Lab/iot_link/os/liteos/include/los_memory.h"
ARM GAS  C:\Users\ADMINI~1\AppData\Local\Temp\ccNv7SXj.s 			page 31

