ARM GAS  C:\Users\ADMINI~1\AppData\Local\Temp\ccfqsGA4.s 			page 1


   1              		.cpu cortex-m4
   2              		.eabi_attribute 27, 1
   3              		.eabi_attribute 28, 1
   4              		.eabi_attribute 20, 1
   5              		.eabi_attribute 21, 1
   6              		.eabi_attribute 23, 3
   7              		.eabi_attribute 24, 1
   8              		.eabi_attribute 25, 1
   9              		.eabi_attribute 26, 1
  10              		.eabi_attribute 30, 6
  11              		.eabi_attribute 34, 1
  12              		.eabi_attribute 18, 4
  13              		.file	"liteos_errno.c"
  14              		.text
  15              	.Ltext0:
  16              		.cfi_sections	.debug_frame
  17              		.section	.bss.g_task_reent,"aw",%nobits
  18              		.align	2
  21              	g_task_reent:
  22 0000 00000000 		.space	64
  22      00000000 
  22      00000000 
  22      00000000 
  22      00000000 
  23              		.section	.text.task_errno,"ax",%progbits
  24              		.align	1
  25              		.global	task_errno
  26              		.arch armv7e-m
  27              		.syntax unified
  28              		.thumb
  29              		.thumb_func
  30              		.fpu fpv4-sp-d16
  32              	task_errno:
  33              	.LFB287:
  34              		.file 1 "d:/LiteOS_Lab/iot_link/os/liteos/liteos_errno.c"
   1:d:/LiteOS_Lab/iot_link/os/liteos\liteos_errno.c **** /*----------------------------------------------------------------------------
   2:d:/LiteOS_Lab/iot_link/os/liteos\liteos_errno.c ****  * Copyright (c) <2013-2018>, <Huawei Technologies Co., Ltd>
   3:d:/LiteOS_Lab/iot_link/os/liteos\liteos_errno.c ****  * All rights reserved.
   4:d:/LiteOS_Lab/iot_link/os/liteos\liteos_errno.c ****  * Redistribution and use in source and binary forms, with or without modification,
   5:d:/LiteOS_Lab/iot_link/os/liteos\liteos_errno.c ****  * are permitted provided that the following conditions are met:
   6:d:/LiteOS_Lab/iot_link/os/liteos\liteos_errno.c ****  * 1. Redistributions of source code must retain the above copyright notice, this list of
   7:d:/LiteOS_Lab/iot_link/os/liteos\liteos_errno.c ****  * conditions and the following disclaimer.
   8:d:/LiteOS_Lab/iot_link/os/liteos\liteos_errno.c ****  * 2. Redistributions in binary form must reproduce the above copyright notice, this list
   9:d:/LiteOS_Lab/iot_link/os/liteos\liteos_errno.c ****  * of conditions and the following disclaimer in the documentation and/or other materials
  10:d:/LiteOS_Lab/iot_link/os/liteos\liteos_errno.c ****  * provided with the distribution.
  11:d:/LiteOS_Lab/iot_link/os/liteos\liteos_errno.c ****  * 3. Neither the name of the copyright holder nor the names of its contributors may be used
  12:d:/LiteOS_Lab/iot_link/os/liteos\liteos_errno.c ****  * to endorse or promote products derived from this software without specific prior written
  13:d:/LiteOS_Lab/iot_link/os/liteos\liteos_errno.c ****  * permission.
  14:d:/LiteOS_Lab/iot_link/os/liteos\liteos_errno.c ****  * THIS SOFTWARE IS PROVIDED BY THE COPYRIGHT HOLDERS AND CONTRIBUTORS
  15:d:/LiteOS_Lab/iot_link/os/liteos\liteos_errno.c ****  * "AS IS" AND ANY EXPRESS OR IMPLIED WARRANTIES, INCLUDING, BUT NOT LIMITED TO,
  16:d:/LiteOS_Lab/iot_link/os/liteos\liteos_errno.c ****  * THE IMPLIED WARRANTIES OF MERCHANTABILITY AND FITNESS FOR A PARTICULAR
  17:d:/LiteOS_Lab/iot_link/os/liteos\liteos_errno.c ****  * PURPOSE ARE DISCLAIMED. IN NO EVENT SHALL THE COPYRIGHT HOLDER OR
  18:d:/LiteOS_Lab/iot_link/os/liteos\liteos_errno.c ****  * CONTRIBUTORS BE LIABLE FOR ANY DIRECT, INDIRECT, INCIDENTAL, SPECIAL,
  19:d:/LiteOS_Lab/iot_link/os/liteos\liteos_errno.c ****  * EXEMPLARY, OR CONSEQUENTIAL DAMAGES (INCLUDING, BUT NOT LIMITED TO,
  20:d:/LiteOS_Lab/iot_link/os/liteos\liteos_errno.c ****  * PROCUREMENT OF SUBSTITUTE GOODS OR SERVICES; LOSS OF USE, DATA, OR PROFITS;
  21:d:/LiteOS_Lab/iot_link/os/liteos\liteos_errno.c ****  * OR BUSINESS INTERRUPTION) HOWEVER CAUSED AND ON ANY THEORY OF LIABILITY,
  22:d:/LiteOS_Lab/iot_link/os/liteos\liteos_errno.c ****  * WHETHER IN CONTRACT, STRICT LIABILITY, OR TORT (INCLUDING NEGLIGENCE OR
ARM GAS  C:\Users\ADMINI~1\AppData\Local\Temp\ccfqsGA4.s 			page 2


  23:d:/LiteOS_Lab/iot_link/os/liteos\liteos_errno.c ****  * OTHERWISE) ARISING IN ANY WAY OUT OF THE USE OF THIS SOFTWARE, EVEN IF
  24:d:/LiteOS_Lab/iot_link/os/liteos\liteos_errno.c ****  * ADVISED OF THE POSSIBILITY OF SUCH DAMAGE.
  25:d:/LiteOS_Lab/iot_link/os/liteos\liteos_errno.c ****  *---------------------------------------------------------------------------*/
  26:d:/LiteOS_Lab/iot_link/os/liteos\liteos_errno.c **** /*----------------------------------------------------------------------------
  27:d:/LiteOS_Lab/iot_link/os/liteos\liteos_errno.c ****  * Notice of Export Control Law
  28:d:/LiteOS_Lab/iot_link/os/liteos\liteos_errno.c ****  * ===============================================
  29:d:/LiteOS_Lab/iot_link/os/liteos\liteos_errno.c ****  * Huawei LiteOS may be subject to applicable export control laws and regulations, which might
  30:d:/LiteOS_Lab/iot_link/os/liteos\liteos_errno.c ****  * include those applicable to Huawei LiteOS of U.S. and the country in which you are located.
  31:d:/LiteOS_Lab/iot_link/os/liteos\liteos_errno.c ****  * Import, export and usage of Huawei LiteOS in any manner by you shall be in compliance with such
  32:d:/LiteOS_Lab/iot_link/os/liteos\liteos_errno.c ****  * applicable export control laws and regulations.
  33:d:/LiteOS_Lab/iot_link/os/liteos\liteos_errno.c ****  *---------------------------------------------------------------------------*/
  34:d:/LiteOS_Lab/iot_link/os/liteos\liteos_errno.c **** 
  35:d:/LiteOS_Lab/iot_link/os/liteos\liteos_errno.c **** /* Includes -----------------------------------------------------------------*/
  36:d:/LiteOS_Lab/iot_link/os/liteos\liteos_errno.c **** 
  37:d:/LiteOS_Lab/iot_link/os/liteos\liteos_errno.c **** #include "los_config.h"
  38:d:/LiteOS_Lab/iot_link/os/liteos\liteos_errno.c **** #include "los_task.h"
  39:d:/LiteOS_Lab/iot_link/os/liteos\liteos_errno.c **** #include "los_printf.h"
  40:d:/LiteOS_Lab/iot_link/os/liteos\liteos_errno.c **** 
  41:d:/LiteOS_Lab/iot_link/os/liteos\liteos_errno.c **** 
  42:d:/LiteOS_Lab/iot_link/os/liteos\liteos_errno.c **** /* Typedefs -----------------------------------------------------------------*/
  43:d:/LiteOS_Lab/iot_link/os/liteos\liteos_errno.c **** 
  44:d:/LiteOS_Lab/iot_link/os/liteos\liteos_errno.c **** typedef struct TaskReent
  45:d:/LiteOS_Lab/iot_link/os/liteos\liteos_errno.c **** {
  46:d:/LiteOS_Lab/iot_link/os/liteos\liteos_errno.c ****     int errno;
  47:d:/LiteOS_Lab/iot_link/os/liteos\liteos_errno.c **** } TaskReent;
  48:d:/LiteOS_Lab/iot_link/os/liteos\liteos_errno.c **** 
  49:d:/LiteOS_Lab/iot_link/os/liteos\liteos_errno.c **** 
  50:d:/LiteOS_Lab/iot_link/os/liteos\liteos_errno.c **** /* Local variables ----------------------------------------------------------*/
  51:d:/LiteOS_Lab/iot_link/os/liteos\liteos_errno.c **** 
  52:d:/LiteOS_Lab/iot_link/os/liteos\liteos_errno.c **** static TaskReent g_task_reent[LOSCFG_BASE_CORE_TSK_LIMIT + 1];
  53:d:/LiteOS_Lab/iot_link/os/liteos\liteos_errno.c **** 
  54:d:/LiteOS_Lab/iot_link/os/liteos\liteos_errno.c **** 
  55:d:/LiteOS_Lab/iot_link/os/liteos\liteos_errno.c **** /* Public functions ---------------------------------------------------------*/
  56:d:/LiteOS_Lab/iot_link/os/liteos\liteos_errno.c **** 
  57:d:/LiteOS_Lab/iot_link/os/liteos\liteos_errno.c **** int *task_errno(void)
  58:d:/LiteOS_Lab/iot_link/os/liteos\liteos_errno.c **** {
  35              		.loc 1 58 1
  36              		.cfi_startproc
  37              		@ args = 0, pretend = 0, frame = 8
  38              		@ frame_needed = 1, uses_anonymous_args = 0
  39 0000 80B5     		push	{r7, lr}
  40              	.LCFI0:
  41              		.cfi_def_cfa_offset 8
  42              		.cfi_offset 7, -8
  43              		.cfi_offset 14, -4
  44 0002 82B0     		sub	sp, sp, #8
  45              	.LCFI1:
  46              		.cfi_def_cfa_offset 16
  47 0004 00AF     		add	r7, sp, #0
  48              	.LCFI2:
  49              		.cfi_def_cfa_register 7
  59:d:/LiteOS_Lab/iot_link/os/liteos\liteos_errno.c ****     UINT32 taskid = LOS_CurTaskIDGet();
  50              		.loc 1 59 21
  51 0006 FFF7FEFF 		bl	LOS_CurTaskIDGet
  52 000a 7860     		str	r0, [r7, #4]
  60:d:/LiteOS_Lab/iot_link/os/liteos\liteos_errno.c **** 
  61:d:/LiteOS_Lab/iot_link/os/liteos\liteos_errno.c ****     if (taskid <= LOSCFG_BASE_CORE_TSK_LIMIT)
ARM GAS  C:\Users\ADMINI~1\AppData\Local\Temp\ccfqsGA4.s 			page 3


  53              		.loc 1 61 8
  54 000c 7B68     		ldr	r3, [r7, #4]
  55 000e 0F2B     		cmp	r3, #15
  56 0010 04D8     		bhi	.L2
  62:d:/LiteOS_Lab/iot_link/os/liteos\liteos_errno.c ****     {
  63:d:/LiteOS_Lab/iot_link/os/liteos\liteos_errno.c ****         return &g_task_reent[taskid].errno;
  57              		.loc 1 63 16
  58 0012 7B68     		ldr	r3, [r7, #4]
  59 0014 9B00     		lsls	r3, r3, #2
  60 0016 044A     		ldr	r2, .L4
  61 0018 1344     		add	r3, r3, r2
  62 001a 00E0     		b	.L3
  63              	.L2:
  64:d:/LiteOS_Lab/iot_link/os/liteos\liteos_errno.c ****     }
  65:d:/LiteOS_Lab/iot_link/os/liteos\liteos_errno.c ****     else
  66:d:/LiteOS_Lab/iot_link/os/liteos\liteos_errno.c ****     {
  67:d:/LiteOS_Lab/iot_link/os/liteos\liteos_errno.c ****         PRINT_WARN("TaskID[%d] is invalid\n", taskid);
  68:d:/LiteOS_Lab/iot_link/os/liteos\liteos_errno.c ****         return &g_task_reent[0].errno;
  64              		.loc 1 68 16
  65 001c 024B     		ldr	r3, .L4
  66              	.L3:
  69:d:/LiteOS_Lab/iot_link/os/liteos\liteos_errno.c ****     }
  70:d:/LiteOS_Lab/iot_link/os/liteos\liteos_errno.c **** }
  67              		.loc 1 70 1
  68 001e 1846     		mov	r0, r3
  69 0020 0837     		adds	r7, r7, #8
  70              	.LCFI3:
  71              		.cfi_def_cfa_offset 8
  72 0022 BD46     		mov	sp, r7
  73              	.LCFI4:
  74              		.cfi_def_cfa_register 13
  75              		@ sp needed
  76 0024 80BD     		pop	{r7, pc}
  77              	.L5:
  78 0026 00BF     		.align	2
  79              	.L4:
  80 0028 00000000 		.word	g_task_reent
  81              		.cfi_endproc
  82              	.LFE287:
  84              		.text
  85              	.Letext0:
  86              		.file 2 "c:\\users\\administrator\\.huawei-liteos-studio\\tools\\arm-none-eabi\\arm-none-eabi\\inc
  87              		.file 3 "c:\\users\\administrator\\.huawei-liteos-studio\\tools\\arm-none-eabi\\arm-none-eabi\\inc
  88              		.file 4 "c:\\users\\administrator\\.huawei-liteos-studio\\tools\\arm-none-eabi\\arm-none-eabi\\inc
  89              		.file 5 "c:\\users\\administrator\\.huawei-liteos-studio\\tools\\arm-none-eabi\\lib\\gcc\\arm-none
  90              		.file 6 "c:\\users\\administrator\\.huawei-liteos-studio\\tools\\arm-none-eabi\\arm-none-eabi\\inc
  91              		.file 7 "d:/LiteOS_Lab/iot_link/os/liteos/include/los_typedef.h"
  92              		.file 8 "c:\\users\\administrator\\.huawei-liteos-studio\\tools\\arm-none-eabi\\arm-none-eabi\\inc
  93              		.file 9 "d:/LiteOS_Lab/iot_link/os/liteos/arch/arm/common/cmsis/core_cm4.h"
  94              		.file 10 "d:/LiteOS_Lab/targets/STM32L431VCT6_Bossay/Inc/system_stm32l4xx.h"
  95              		.file 11 "d:/LiteOS_Lab/iot_link/os/liteos/include/los_err.h"
  96              		.file 12 "d:/LiteOS_Lab/iot_link/os/liteos/arch/arm/arm-m/include/los_hwi.h"
  97              		.file 13 "d:/LiteOS_Lab/iot_link/os/liteos/include/los_config.h"
  98              		.file 14 "d:/LiteOS_Lab/iot_link/os/liteos/include/los_tick.h"
  99              		.file 15 "d:/LiteOS_Lab/iot_link/os/liteos/include/los_task.h"
ARM GAS  C:\Users\ADMINI~1\AppData\Local\Temp\ccfqsGA4.s 			page 4

