ARM GAS  C:\Users\ADMINI~1\AppData\Local\Temp\ccMUQofd.s 			page 1


   1              		.cpu cortex-m4
   2              		.eabi_attribute 27, 1
   3              		.eabi_attribute 28, 1
   4              		.eabi_attribute 20, 1
   5              		.eabi_attribute 21, 1
   6              		.eabi_attribute 23, 3
   7              		.eabi_attribute 24, 1
   8              		.eabi_attribute 25, 1
   9              		.eabi_attribute 26, 1
  10              		.eabi_attribute 30, 6
  11              		.eabi_attribute 34, 1
  12              		.eabi_attribute 18, 4
  13              		.file	"malloc.c"
  14              		.text
  15              	.Ltext0:
  16              		.cfi_sections	.debug_frame
  17              		.section	.text.free,"ax",%progbits
  18              		.align	1
  19              		.weak	free
  20              		.arch armv7e-m
  21              		.syntax unified
  22              		.thumb
  23              		.thumb_func
  24              		.fpu fpv4-sp-d16
  26              	free:
  27              	.LFB3:
  28              		.file 1 "d:/LiteOS_Lab/iot_link/os/liteos/malloc.c"
   1:d:/LiteOS_Lab/iot_link/os/liteos\malloc.c **** /************************************************************************
   2:d:/LiteOS_Lab/iot_link/os/liteos\malloc.c ****  * Copyright (c) <2013-2015>, <Huawei Technologies Co., Ltd>
   3:d:/LiteOS_Lab/iot_link/os/liteos\malloc.c ****  * All rights reserved.
   4:d:/LiteOS_Lab/iot_link/os/liteos\malloc.c ****  *
   5:d:/LiteOS_Lab/iot_link/os/liteos\malloc.c ****  * Redistribution and use in source and binary forms, with or without
   6:d:/LiteOS_Lab/iot_link/os/liteos\malloc.c ****  * modification, are permitted provided that the following conditions
   7:d:/LiteOS_Lab/iot_link/os/liteos\malloc.c ****  * are met:
   8:d:/LiteOS_Lab/iot_link/os/liteos\malloc.c ****  * 1. Redistributions of source code must retain the above copyright
   9:d:/LiteOS_Lab/iot_link/os/liteos\malloc.c ****  *    notice,this list of conditions and the following disclaimer.
  10:d:/LiteOS_Lab/iot_link/os/liteos\malloc.c ****  * 2. Redistributions in binary form must reproduce the above copyright
  11:d:/LiteOS_Lab/iot_link/os/liteos\malloc.c ****  *    notice,this list of conditions and the following disclaimer in the
  12:d:/LiteOS_Lab/iot_link/os/liteos\malloc.c ****  *    documentation and/or other materials provided with the distribution.
  13:d:/LiteOS_Lab/iot_link/os/liteos\malloc.c ****  * 3. Neither the name of the copyright holder nor the names of its
  14:d:/LiteOS_Lab/iot_link/os/liteos\malloc.c ****  *    contributors may be used to endorse or promote products derived from
  15:d:/LiteOS_Lab/iot_link/os/liteos\malloc.c ****  *    this software without specific prior written permission.
  16:d:/LiteOS_Lab/iot_link/os/liteos\malloc.c ****  *
  17:d:/LiteOS_Lab/iot_link/os/liteos\malloc.c ****  * THIS SOFTWARE IS PROVIDED BY THE COPYRIGHT HOLDERS AND CONTRIBUTORS "AS IS"
  18:d:/LiteOS_Lab/iot_link/os/liteos\malloc.c ****  * AND ANY EXPRESS OR IMPLIED WARRANTIES, INCLUDING, BUT NOT LIMITED TO, THE
  19:d:/LiteOS_Lab/iot_link/os/liteos\malloc.c ****  * IMPLIED WARRANTIES OF MERCHANTABILITY AND FITNESS FOR A PARTICULAR PURPOSE
  20:d:/LiteOS_Lab/iot_link/os/liteos\malloc.c ****  * ARE DISCLAIMED. IN NO EVENT SHALL THE COPYRIGHT HOLDER OR CONTRIBUTORS BE
  21:d:/LiteOS_Lab/iot_link/os/liteos\malloc.c ****  * LIABLE FOR ANY DIRECT, INDIRECT, INCIDENTAL, SPECIAL, EXEMPLARY, OR
  22:d:/LiteOS_Lab/iot_link/os/liteos\malloc.c ****  * CONSEQUENTIAL DAMAGES (INCLUDING, BUT NOT LIMITED TO, PROCUREMENT OF
  23:d:/LiteOS_Lab/iot_link/os/liteos\malloc.c ****  * SUBSTITUTE GOODS OR SERVICES; LOSS OF USE, DATA, OR PROFITS; OR BUSINESS
  24:d:/LiteOS_Lab/iot_link/os/liteos\malloc.c ****  * INTERRUPTION) HOWEVER CAUSED AND ON ANY THEORY OF LIABILITY, WHETHER IN
  25:d:/LiteOS_Lab/iot_link/os/liteos\malloc.c ****  * CONTRACT, STRICT LIABILITY, OR TORT (INCLUDING NEGLIGENCE OR OTHERWISE)
  26:d:/LiteOS_Lab/iot_link/os/liteos\malloc.c ****  * ARISING IN ANY WAY OUT OF THE USE OF THIS SOFTWARE, EVEN IF ADVISED OF THE
  27:d:/LiteOS_Lab/iot_link/os/liteos\malloc.c ****  * POSSIBILITY OF SUCH DAMAGE.
  28:d:/LiteOS_Lab/iot_link/os/liteos\malloc.c ****  ************************************************************************/
  29:d:/LiteOS_Lab/iot_link/os/liteos\malloc.c **** 
  30:d:/LiteOS_Lab/iot_link/os/liteos\malloc.c **** /************************************************************************
ARM GAS  C:\Users\ADMINI~1\AppData\Local\Temp\ccMUQofd.s 			page 2


  31:d:/LiteOS_Lab/iot_link/os/liteos\malloc.c ****  * Notice of Export Control Law
  32:d:/LiteOS_Lab/iot_link/os/liteos\malloc.c ****  * ===============================================
  33:d:/LiteOS_Lab/iot_link/os/liteos\malloc.c ****  * Huawei LiteOS may be subject to applicable export control laws and regulations,
  34:d:/LiteOS_Lab/iot_link/os/liteos\malloc.c ****  * which might include those applicable to Huawei LiteOS of U.S. and the country
  35:d:/LiteOS_Lab/iot_link/os/liteos\malloc.c ****  * in which you are located.
  36:d:/LiteOS_Lab/iot_link/os/liteos\malloc.c ****  * Import, export and usage of Huawei LiteOS in any manner by you shall be in
  37:d:/LiteOS_Lab/iot_link/os/liteos\malloc.c ****  * compliance with such applicable export control laws and regulations.
  38:d:/LiteOS_Lab/iot_link/os/liteos\malloc.c ****  ************************************************************************/
  39:d:/LiteOS_Lab/iot_link/os/liteos\malloc.c **** #include <stdint.h>
  40:d:/LiteOS_Lab/iot_link/os/liteos\malloc.c **** #include <stddef.h>
  41:d:/LiteOS_Lab/iot_link/os/liteos\malloc.c **** #include <stdlib.h>
  42:d:/LiteOS_Lab/iot_link/os/liteos\malloc.c **** #include <osal.h>
  43:d:/LiteOS_Lab/iot_link/os/liteos\malloc.c **** 
  44:d:/LiteOS_Lab/iot_link/os/liteos\malloc.c **** #if defined(LOS_LIBC_MALLOC_ALIGN) && !defined(LOS_LIBC_MALLOC_ALIGN_SIZE)
  45:d:/LiteOS_Lab/iot_link/os/liteos\malloc.c **** #error "macro LOS_LIBC_MALLOC_ALIGN_SIZE undefined"
  46:d:/LiteOS_Lab/iot_link/os/liteos\malloc.c **** #endif
  47:d:/LiteOS_Lab/iot_link/os/liteos\malloc.c **** 
  48:d:/LiteOS_Lab/iot_link/os/liteos\malloc.c **** 
  49:d:/LiteOS_Lab/iot_link/os/liteos\malloc.c **** /*****************************************************************************
  50:d:/LiteOS_Lab/iot_link/os/liteos\malloc.c **** Function         :      free
  51:d:/LiteOS_Lab/iot_link/os/liteos\malloc.c **** Description      :      Deallocates the memory previously allocated by a call to calloc, malloc, or
  52:d:/LiteOS_Lab/iot_link/os/liteos\malloc.c ****                 realloc. The argument ptr points to the space that was previously allocated.
  53:d:/LiteOS_Lab/iot_link/os/liteos\malloc.c ****                 If ptr points to a memory block that was not allocated with calloc, malloc,
  54:d:/LiteOS_Lab/iot_link/os/liteos\malloc.c ****                 or realloc, or is a space that has been deallocated, then the result is
  55:d:/LiteOS_Lab/iot_link/os/liteos\malloc.c ****                 undefined.
  56:d:/LiteOS_Lab/iot_link/os/liteos\malloc.c **** Input            :      [1] void *ptr, pointed to the memory need to free.
  57:d:/LiteOS_Lab/iot_link/os/liteos\malloc.c **** Output           :      nothing.
  58:d:/LiteOS_Lab/iot_link/os/liteos\malloc.c **** Return           :      No value is returned.
  59:d:/LiteOS_Lab/iot_link/os/liteos\malloc.c **** *****************************************************************************/
  60:d:/LiteOS_Lab/iot_link/os/liteos\malloc.c **** __attribute__((weak)) void free(void *ptr)
  61:d:/LiteOS_Lab/iot_link/os/liteos\malloc.c **** {
  29              		.loc 1 61 1
  30              		.cfi_startproc
  31              		@ args = 0, pretend = 0, frame = 8
  32              		@ frame_needed = 1, uses_anonymous_args = 0
  33 0000 80B5     		push	{r7, lr}
  34              	.LCFI0:
  35              		.cfi_def_cfa_offset 8
  36              		.cfi_offset 7, -8
  37              		.cfi_offset 14, -4
  38 0002 82B0     		sub	sp, sp, #8
  39              	.LCFI1:
  40              		.cfi_def_cfa_offset 16
  41 0004 00AF     		add	r7, sp, #0
  42              	.LCFI2:
  43              		.cfi_def_cfa_register 7
  44 0006 7860     		str	r0, [r7, #4]
  62:d:/LiteOS_Lab/iot_link/os/liteos\malloc.c ****     osal_free(ptr);
  45              		.loc 1 62 5
  46 0008 7868     		ldr	r0, [r7, #4]
  47 000a FFF7FEFF 		bl	osal_free
  63:d:/LiteOS_Lab/iot_link/os/liteos\malloc.c ****     return;
  48              		.loc 1 63 5
  49 000e 00BF     		nop
  64:d:/LiteOS_Lab/iot_link/os/liteos\malloc.c **** }
  50              		.loc 1 64 1
  51 0010 0837     		adds	r7, r7, #8
ARM GAS  C:\Users\ADMINI~1\AppData\Local\Temp\ccMUQofd.s 			page 3


  52              	.LCFI3:
  53              		.cfi_def_cfa_offset 8
  54 0012 BD46     		mov	sp, r7
  55              	.LCFI4:
  56              		.cfi_def_cfa_register 13
  57              		@ sp needed
  58 0014 80BD     		pop	{r7, pc}
  59              		.cfi_endproc
  60              	.LFE3:
  62              		.section	.text.malloc,"ax",%progbits
  63              		.align	1
  64              		.weak	malloc
  65              		.syntax unified
  66              		.thumb
  67              		.thumb_func
  68              		.fpu fpv4-sp-d16
  70              	malloc:
  71              	.LFB4:
  65:d:/LiteOS_Lab/iot_link/os/liteos\malloc.c **** 
  66:d:/LiteOS_Lab/iot_link/os/liteos\malloc.c **** 
  67:d:/LiteOS_Lab/iot_link/os/liteos\malloc.c **** /*****************************************************************************
  68:d:/LiteOS_Lab/iot_link/os/liteos\malloc.c **** Function         :      malloc
  69:d:/LiteOS_Lab/iot_link/os/liteos\malloc.c **** Description      :      Allocates the requested memory and returns a pointer to it. The requested
  70:d:/LiteOS_Lab/iot_link/os/liteos\malloc.c ****                 size is size bytes. The value of the space is indeterminate.
  71:d:/LiteOS_Lab/iot_link/os/liteos\malloc.c **** Input            :      [1] size_t size, spcified the size need to allocate.
  72:d:/LiteOS_Lab/iot_link/os/liteos\malloc.c **** Output           :      nothing.
  73:d:/LiteOS_Lab/iot_link/os/liteos\malloc.c **** Return           :      On success a pointer to the requested space is returned.
  74:d:/LiteOS_Lab/iot_link/os/liteos\malloc.c ****                 On failure a null pointer is returned.
  75:d:/LiteOS_Lab/iot_link/os/liteos\malloc.c **** *****************************************************************************/
  76:d:/LiteOS_Lab/iot_link/os/liteos\malloc.c **** __attribute__((weak)) void *malloc(size_t size) /*lint !e31 !e10*/
  77:d:/LiteOS_Lab/iot_link/os/liteos\malloc.c **** {
  72              		.loc 1 77 1
  73              		.cfi_startproc
  74              		@ args = 0, pretend = 0, frame = 8
  75              		@ frame_needed = 1, uses_anonymous_args = 0
  76 0000 80B5     		push	{r7, lr}
  77              	.LCFI5:
  78              		.cfi_def_cfa_offset 8
  79              		.cfi_offset 7, -8
  80              		.cfi_offset 14, -4
  81 0002 82B0     		sub	sp, sp, #8
  82              	.LCFI6:
  83              		.cfi_def_cfa_offset 16
  84 0004 00AF     		add	r7, sp, #0
  85              	.LCFI7:
  86              		.cfi_def_cfa_register 7
  87 0006 7860     		str	r0, [r7, #4]
  78:d:/LiteOS_Lab/iot_link/os/liteos\malloc.c ****     return osal_malloc(size);
  88              		.loc 1 78 12
  89 0008 7868     		ldr	r0, [r7, #4]
  90 000a FFF7FEFF 		bl	osal_malloc
  91 000e 0346     		mov	r3, r0
  79:d:/LiteOS_Lab/iot_link/os/liteos\malloc.c **** 
  80:d:/LiteOS_Lab/iot_link/os/liteos\malloc.c **** }
  92              		.loc 1 80 1
  93 0010 1846     		mov	r0, r3
  94 0012 0837     		adds	r7, r7, #8
ARM GAS  C:\Users\ADMINI~1\AppData\Local\Temp\ccMUQofd.s 			page 4


  95              	.LCFI8:
  96              		.cfi_def_cfa_offset 8
  97 0014 BD46     		mov	sp, r7
  98              	.LCFI9:
  99              		.cfi_def_cfa_register 13
 100              		@ sp needed
 101 0016 80BD     		pop	{r7, pc}
 102              		.cfi_endproc
 103              	.LFE4:
 105              		.section	.text.zalloc,"ax",%progbits
 106              		.align	1
 107              		.weak	zalloc
 108              		.syntax unified
 109              		.thumb
 110              		.thumb_func
 111              		.fpu fpv4-sp-d16
 113              	zalloc:
 114              	.LFB5:
  81:d:/LiteOS_Lab/iot_link/os/liteos\malloc.c **** 
  82:d:/LiteOS_Lab/iot_link/os/liteos\malloc.c **** 
  83:d:/LiteOS_Lab/iot_link/os/liteos\malloc.c **** __attribute__((weak)) void *zalloc(size_t size) /*lint !e10*/
  84:d:/LiteOS_Lab/iot_link/os/liteos\malloc.c **** {
 115              		.loc 1 84 1
 116              		.cfi_startproc
 117              		@ args = 0, pretend = 0, frame = 8
 118              		@ frame_needed = 1, uses_anonymous_args = 0
 119 0000 80B5     		push	{r7, lr}
 120              	.LCFI10:
 121              		.cfi_def_cfa_offset 8
 122              		.cfi_offset 7, -8
 123              		.cfi_offset 14, -4
 124 0002 82B0     		sub	sp, sp, #8
 125              	.LCFI11:
 126              		.cfi_def_cfa_offset 16
 127 0004 00AF     		add	r7, sp, #0
 128              	.LCFI12:
 129              		.cfi_def_cfa_register 7
 130 0006 7860     		str	r0, [r7, #4]
  85:d:/LiteOS_Lab/iot_link/os/liteos\malloc.c ****     return osal_zalloc(size);
 131              		.loc 1 85 12
 132 0008 7868     		ldr	r0, [r7, #4]
 133 000a FFF7FEFF 		bl	osal_zalloc
 134 000e 0346     		mov	r3, r0
  86:d:/LiteOS_Lab/iot_link/os/liteos\malloc.c **** 
  87:d:/LiteOS_Lab/iot_link/os/liteos\malloc.c **** }
 135              		.loc 1 87 1
 136 0010 1846     		mov	r0, r3
 137 0012 0837     		adds	r7, r7, #8
 138              	.LCFI13:
 139              		.cfi_def_cfa_offset 8
 140 0014 BD46     		mov	sp, r7
 141              	.LCFI14:
 142              		.cfi_def_cfa_register 13
 143              		@ sp needed
 144 0016 80BD     		pop	{r7, pc}
 145              		.cfi_endproc
 146              	.LFE5:
ARM GAS  C:\Users\ADMINI~1\AppData\Local\Temp\ccMUQofd.s 			page 5


 148              		.section	.text.calloc,"ax",%progbits
 149              		.align	1
 150              		.weak	calloc
 151              		.syntax unified
 152              		.thumb
 153              		.thumb_func
 154              		.fpu fpv4-sp-d16
 156              	calloc:
 157              	.LFB6:
  88:d:/LiteOS_Lab/iot_link/os/liteos\malloc.c **** 
  89:d:/LiteOS_Lab/iot_link/os/liteos\malloc.c **** 
  90:d:/LiteOS_Lab/iot_link/os/liteos\malloc.c **** /*****************************************************************************
  91:d:/LiteOS_Lab/iot_link/os/liteos\malloc.c **** Function         :      calloc
  92:d:/LiteOS_Lab/iot_link/os/liteos\malloc.c **** Description      :    Allocates the requested memory and returns a pointer to it. The requested
  93:d:/LiteOS_Lab/iot_link/os/liteos\malloc.c ****                 size is nitems each size bytes long (total memory requested is nitems*size).
  94:d:/LiteOS_Lab/iot_link/os/liteos\malloc.c ****                 The space is initialized to all zero bits.
  95:d:/LiteOS_Lab/iot_link/os/liteos\malloc.c **** Input            :      [1] size_t nitems,
  96:d:/LiteOS_Lab/iot_link/os/liteos\malloc.c ****                 [2] size_t size,
  97:d:/LiteOS_Lab/iot_link/os/liteos\malloc.c **** Output           :      nothing.
  98:d:/LiteOS_Lab/iot_link/os/liteos\malloc.c **** Return           :      On success a pointer to the requested space is returned.
  99:d:/LiteOS_Lab/iot_link/os/liteos\malloc.c ****                 On failure a null pointer is returned.
 100:d:/LiteOS_Lab/iot_link/os/liteos\malloc.c **** *****************************************************************************/
 101:d:/LiteOS_Lab/iot_link/os/liteos\malloc.c **** __attribute__((weak)) void *calloc(size_t nitems, size_t size) /*lint !e578*/
 102:d:/LiteOS_Lab/iot_link/os/liteos\malloc.c **** {
 158              		.loc 1 102 1
 159              		.cfi_startproc
 160              		@ args = 0, pretend = 0, frame = 8
 161              		@ frame_needed = 1, uses_anonymous_args = 0
 162 0000 80B5     		push	{r7, lr}
 163              	.LCFI15:
 164              		.cfi_def_cfa_offset 8
 165              		.cfi_offset 7, -8
 166              		.cfi_offset 14, -4
 167 0002 82B0     		sub	sp, sp, #8
 168              	.LCFI16:
 169              		.cfi_def_cfa_offset 16
 170 0004 00AF     		add	r7, sp, #0
 171              	.LCFI17:
 172              		.cfi_def_cfa_register 7
 173 0006 7860     		str	r0, [r7, #4]
 174 0008 3960     		str	r1, [r7]
 103:d:/LiteOS_Lab/iot_link/os/liteos\malloc.c ****     return osal_calloc(nitems,size);
 175              		.loc 1 103 12
 176 000a 3968     		ldr	r1, [r7]
 177 000c 7868     		ldr	r0, [r7, #4]
 178 000e FFF7FEFF 		bl	osal_calloc
 179 0012 0346     		mov	r3, r0
 104:d:/LiteOS_Lab/iot_link/os/liteos\malloc.c **** }
 180              		.loc 1 104 1
 181 0014 1846     		mov	r0, r3
 182 0016 0837     		adds	r7, r7, #8
 183              	.LCFI18:
 184              		.cfi_def_cfa_offset 8
 185 0018 BD46     		mov	sp, r7
 186              	.LCFI19:
 187              		.cfi_def_cfa_register 13
 188              		@ sp needed
ARM GAS  C:\Users\ADMINI~1\AppData\Local\Temp\ccMUQofd.s 			page 6


 189 001a 80BD     		pop	{r7, pc}
 190              		.cfi_endproc
 191              	.LFE6:
 193              		.section	.text.memalign,"ax",%progbits
 194              		.align	1
 195              		.weak	memalign
 196              		.syntax unified
 197              		.thumb
 198              		.thumb_func
 199              		.fpu fpv4-sp-d16
 201              	memalign:
 202              	.LFB7:
 105:d:/LiteOS_Lab/iot_link/os/liteos\malloc.c **** 
 106:d:/LiteOS_Lab/iot_link/os/liteos\malloc.c **** 
 107:d:/LiteOS_Lab/iot_link/os/liteos\malloc.c **** /*****************************************************************************
 108:d:/LiteOS_Lab/iot_link/os/liteos\malloc.c **** Function         :      memalign
 109:d:/LiteOS_Lab/iot_link/os/liteos\malloc.c **** Description      :      allocates a block of size bytes whose address is a multiple of boundary.
 110:d:/LiteOS_Lab/iot_link/os/liteos\malloc.c ****                The boundary must be a power of two!
 111:d:/LiteOS_Lab/iot_link/os/liteos\malloc.c **** Input            :      [1] size_t size, spcified the size need to allocate.
 112:d:/LiteOS_Lab/iot_link/os/liteos\malloc.c ****                [2] size_t boundary, the returned memory address will be a multiple of boundary.
 113:d:/LiteOS_Lab/iot_link/os/liteos\malloc.c ****                This argument must be a power of two. This property is not checked by
 114:d:/LiteOS_Lab/iot_link/os/liteos\malloc.c ****                memalign, so misuse may result in random runtime errors.
 115:d:/LiteOS_Lab/iot_link/os/liteos\malloc.c **** Output           :      nothing.
 116:d:/LiteOS_Lab/iot_link/os/liteos\malloc.c **** Return           :      On success a pointer to the requested space is returned.
 117:d:/LiteOS_Lab/iot_link/os/liteos\malloc.c ****                On failure a null pointer is returned.
 118:d:/LiteOS_Lab/iot_link/os/liteos\malloc.c **** *****************************************************************************/
 119:d:/LiteOS_Lab/iot_link/os/liteos\malloc.c **** __attribute__((weak)) void *memalign (size_t boundary, size_t size)  /*lint !e18 !e578*/
 120:d:/LiteOS_Lab/iot_link/os/liteos\malloc.c **** {
 203              		.loc 1 120 1
 204              		.cfi_startproc
 205              		@ args = 0, pretend = 0, frame = 8
 206              		@ frame_needed = 1, uses_anonymous_args = 0
 207 0000 80B5     		push	{r7, lr}
 208              	.LCFI20:
 209              		.cfi_def_cfa_offset 8
 210              		.cfi_offset 7, -8
 211              		.cfi_offset 14, -4
 212 0002 82B0     		sub	sp, sp, #8
 213              	.LCFI21:
 214              		.cfi_def_cfa_offset 16
 215 0004 00AF     		add	r7, sp, #0
 216              	.LCFI22:
 217              		.cfi_def_cfa_register 7
 218 0006 7860     		str	r0, [r7, #4]
 219 0008 3960     		str	r1, [r7]
 121:d:/LiteOS_Lab/iot_link/os/liteos\malloc.c ****     return osal_malloc(size);
 220              		.loc 1 121 12
 221 000a 3868     		ldr	r0, [r7]
 222 000c FFF7FEFF 		bl	osal_malloc
 223 0010 0346     		mov	r3, r0
 122:d:/LiteOS_Lab/iot_link/os/liteos\malloc.c **** }
 224              		.loc 1 122 1
 225 0012 1846     		mov	r0, r3
 226 0014 0837     		adds	r7, r7, #8
 227              	.LCFI23:
 228              		.cfi_def_cfa_offset 8
 229 0016 BD46     		mov	sp, r7
ARM GAS  C:\Users\ADMINI~1\AppData\Local\Temp\ccMUQofd.s 			page 7


 230              	.LCFI24:
 231              		.cfi_def_cfa_register 13
 232              		@ sp needed
 233 0018 80BD     		pop	{r7, pc}
 234              		.cfi_endproc
 235              	.LFE7:
 237              		.section	.text.realloc,"ax",%progbits
 238              		.align	1
 239              		.global	realloc
 240              		.syntax unified
 241              		.thumb
 242              		.thumb_func
 243              		.fpu fpv4-sp-d16
 245              	realloc:
 246              	.LFB8:
 123:d:/LiteOS_Lab/iot_link/os/liteos\malloc.c **** 
 124:d:/LiteOS_Lab/iot_link/os/liteos\malloc.c **** 
 125:d:/LiteOS_Lab/iot_link/os/liteos\malloc.c **** /*****************************************************************************
 126:d:/LiteOS_Lab/iot_link/os/liteos\malloc.c **** Function         :      realloc
 127:d:/LiteOS_Lab/iot_link/os/liteos\malloc.c **** Description      :      Attempts to resize the memory block pointed to by ptr that was previously
 128:d:/LiteOS_Lab/iot_link/os/liteos\malloc.c ****                 allocated with a call to malloc or calloc. The contents pointed to by ptr are
 129:d:/LiteOS_Lab/iot_link/os/liteos\malloc.c ****                 unchanged. If the value of size is greater than the previous size of the
 130:d:/LiteOS_Lab/iot_link/os/liteos\malloc.c ****                 block, then the additional bytes have an undeterminate value. If the value
 131:d:/LiteOS_Lab/iot_link/os/liteos\malloc.c ****                 of size is less than the previous size of the block, then the difference of
 132:d:/LiteOS_Lab/iot_link/os/liteos\malloc.c ****                 bytes at the end of the block are freed. If ptr is null, then it behaves like
 133:d:/LiteOS_Lab/iot_link/os/liteos\malloc.c ****                 malloc. If ptr points to a memory block that was not allocated with calloc
 134:d:/LiteOS_Lab/iot_link/os/liteos\malloc.c ****                 or malloc, or is a space that has been deallocated, then the result is
 135:d:/LiteOS_Lab/iot_link/os/liteos\malloc.c ****                 undefined. If the new space cannot be allocated, then the contents pointed
 136:d:/LiteOS_Lab/iot_link/os/liteos\malloc.c ****                 to by ptr are unchanged. If size is zero, then the memory block is completely
 137:d:/LiteOS_Lab/iot_link/os/liteos\malloc.c ****                 freed.
 138:d:/LiteOS_Lab/iot_link/os/liteos\malloc.c **** Input            :      [1] void *ptr, pointed to the memory which need to remalloc.
 139:d:/LiteOS_Lab/iot_link/os/liteos\malloc.c ****                 [2] size_t size, specified the size to remalloc.
 140:d:/LiteOS_Lab/iot_link/os/liteos\malloc.c **** Output           :      nothing.
 141:d:/LiteOS_Lab/iot_link/os/liteos\malloc.c **** Return           :      On success a pointer to the memory block is returned (which may be in a
 142:d:/LiteOS_Lab/iot_link/os/liteos\malloc.c ****                 different location as before).
 143:d:/LiteOS_Lab/iot_link/os/liteos\malloc.c ****                On failure or if size is zero, a null pointer is returned.
 144:d:/LiteOS_Lab/iot_link/os/liteos\malloc.c **** *****************************************************************************/
 145:d:/LiteOS_Lab/iot_link/os/liteos\malloc.c **** void *realloc(void *ptr, size_t size)
 146:d:/LiteOS_Lab/iot_link/os/liteos\malloc.c **** {
 247              		.loc 1 146 1
 248              		.cfi_startproc
 249              		@ args = 0, pretend = 0, frame = 8
 250              		@ frame_needed = 1, uses_anonymous_args = 0
 251 0000 80B5     		push	{r7, lr}
 252              	.LCFI25:
 253              		.cfi_def_cfa_offset 8
 254              		.cfi_offset 7, -8
 255              		.cfi_offset 14, -4
 256 0002 82B0     		sub	sp, sp, #8
 257              	.LCFI26:
 258              		.cfi_def_cfa_offset 16
 259 0004 00AF     		add	r7, sp, #0
 260              	.LCFI27:
 261              		.cfi_def_cfa_register 7
 262 0006 7860     		str	r0, [r7, #4]
 263 0008 3960     		str	r1, [r7]
 147:d:/LiteOS_Lab/iot_link/os/liteos\malloc.c ****     return osal_realloc(ptr,size);
ARM GAS  C:\Users\ADMINI~1\AppData\Local\Temp\ccMUQofd.s 			page 8


 264              		.loc 1 147 12
 265 000a 3968     		ldr	r1, [r7]
 266 000c 7868     		ldr	r0, [r7, #4]
 267 000e FFF7FEFF 		bl	osal_realloc
 268 0012 0346     		mov	r3, r0
 148:d:/LiteOS_Lab/iot_link/os/liteos\malloc.c **** }
 269              		.loc 1 148 1
 270 0014 1846     		mov	r0, r3
 271 0016 0837     		adds	r7, r7, #8
 272              	.LCFI28:
 273              		.cfi_def_cfa_offset 8
 274 0018 BD46     		mov	sp, r7
 275              	.LCFI29:
 276              		.cfi_def_cfa_register 13
 277              		@ sp needed
 278 001a 80BD     		pop	{r7, pc}
 279              		.cfi_endproc
 280              	.LFE8:
 282              		.text
 283              	.Letext0:
 284              		.file 2 "c:\\users\\administrator\\.huawei-liteos-studio\\tools\\arm-none-eabi\\lib\\gcc\\arm-none
 285              		.file 3 "c:\\users\\administrator\\.huawei-liteos-studio\\tools\\arm-none-eabi\\arm-none-eabi\\inc
 286              		.file 4 "c:\\users\\administrator\\.huawei-liteos-studio\\tools\\arm-none-eabi\\arm-none-eabi\\inc
 287              		.file 5 "c:\\users\\administrator\\.huawei-liteos-studio\\tools\\arm-none-eabi\\arm-none-eabi\\inc
 288              		.file 6 "c:\\users\\administrator\\.huawei-liteos-studio\\tools\\arm-none-eabi\\arm-none-eabi\\inc
ARM GAS  C:\Users\ADMINI~1\AppData\Local\Temp\ccMUQofd.s 			page 9

