GAS LISTING /tmp/ccW4jRUd.s 			page 1


   1              		.file	"crc32.c"
   2              		.text
   3              	.Ltext0:
   4              		.section	.rodata.crc_table,"a"
   5              		.align 32
   8              	crc_table:
   9 0000 00000000 		.long	0
  10 0004 96300777 		.long	1996959894
  11 0008 2C610EEE 		.long	-301047508
  12 000c BA510999 		.long	-1727442502
  13 0010 19C46D07 		.long	124634137
  14 0014 8FF46A70 		.long	1886057615
  15 0018 35A563E9 		.long	-379345611
  16 001c A395649E 		.long	-1637575261
  17 0020 3288DB0E 		.long	249268274
  18 0024 A4B8DC79 		.long	2044508324
  19 0028 1EE9D5E0 		.long	-522852066
  20 002c 88D9D297 		.long	-1747789432
  21 0030 2B4CB609 		.long	162941995
  22 0034 BD7CB17E 		.long	2125561021
  23 0038 072DB8E7 		.long	-407360249
  24 003c 911DBF90 		.long	-1866523247
  25 0040 6410B71D 		.long	498536548
  26 0044 F220B06A 		.long	1789927666
  27 0048 4871B9F3 		.long	-205950648
  28 004c DE41BE84 		.long	-2067906082
  29 0050 7DD4DA1A 		.long	450548861
  30 0054 EBE4DD6D 		.long	1843258603
  31 0058 51B5D4F4 		.long	-187386543
  32 005c C785D383 		.long	-2083289657
  33 0060 56986C13 		.long	325883990
  34 0064 C0A86B64 		.long	1684777152
  35 0068 7AF962FD 		.long	-43845254
  36 006c ECC9658A 		.long	-1973040660
  37 0070 4F5C0114 		.long	335633487
  38 0074 D96C0663 		.long	1661365465
  39 0078 633D0FFA 		.long	-99664541
  40 007c F50D088D 		.long	-1928851979
  41 0080 C8206E3B 		.long	997073096
  42 0084 5E10694C 		.long	1281953886
  43 0088 E44160D5 		.long	-715111964
  44 008c 727167A2 		.long	-1570279054
  45 0090 D1E4033C 		.long	1006888145
  46 0094 47D4044B 		.long	1258607687
  47 0098 FD850DD2 		.long	-770865667
  48 009c 6BB50AA5 		.long	-1526024853
  49 00a0 FAA8B535 		.long	901097722
  50 00a4 6C98B242 		.long	1119000684
  51 00a8 D6C9BBDB 		.long	-608450090
  52 00ac 40F9BCAC 		.long	-1396901568
  53 00b0 E36CD832 		.long	853044451
  54 00b4 755CDF45 		.long	1172266101
  55 00b8 CF0DD6DC 		.long	-589951537
  56 00bc 593DD1AB 		.long	-1412350631
  57 00c0 AC30D926 		.long	651767980
  58 00c4 3A00DE51 		.long	1373503546
  59 00c8 8051D7C8 		.long	-925412992
GAS LISTING /tmp/ccW4jRUd.s 			page 2


  60 00cc 1661D0BF 		.long	-1076862698
  61 00d0 B5F4B421 		.long	565507253
  62 00d4 23C4B356 		.long	1454621731
  63 00d8 9995BACF 		.long	-809855591
  64 00dc 0FA5BDB8 		.long	-1195530993
  65 00e0 9EB80228 		.long	671266974
  66 00e4 0888055F 		.long	1594198024
  67 00e8 B2D90CC6 		.long	-972236366
  68 00ec 24E90BB1 		.long	-1324619484
  69 00f0 877C6F2F 		.long	795835527
  70 00f4 114C6858 		.long	1483230225
  71 00f8 AB1D61C1 		.long	-1050600021
  72 00fc 3D2D66B6 		.long	-1234817731
  73 0100 9041DC76 		.long	1994146192
  74 0104 0671DB01 		.long	31158534
  75 0108 BC20D298 		.long	-1731059524
  76 010c 2A10D5EF 		.long	-271249366
  77 0110 8985B171 		.long	1907459465
  78 0114 1FB5B606 		.long	112637215
  79 0118 A5E4BF9F 		.long	-1614814043
  80 011c 33D4B8E8 		.long	-390540237
  81 0120 A2C90778 		.long	2013776290
  82 0124 34F9000F 		.long	251722036
  83 0128 8EA80996 		.long	-1777751922
  84 012c 18980EE1 		.long	-519137256
  85 0130 BB0D6A7F 		.long	2137656763
  86 0134 2D3D6D08 		.long	141376813
  87 0138 976C6491 		.long	-1855689577
  88 013c 015C63E6 		.long	-429695999
  89 0140 F4516B6B 		.long	1802195444
  90 0144 62616C1C 		.long	476864866
  91 0148 D8306585 		.long	-2056965928
  92 014c 4E0062F2 		.long	-228458418
  93 0150 ED95066C 		.long	1812370925
  94 0154 7BA5011B 		.long	453092731
  95 0158 C1F40882 		.long	-2113342271
  96 015c 57C40FF5 		.long	-183516073
  97 0160 C6D9B065 		.long	1706088902
  98 0164 50E9B712 		.long	314042704
  99 0168 EAB8BE8B 		.long	-1950435094
 100 016c 7C88B9FC 		.long	-54949764
 101 0170 DF1DDD62 		.long	1658658271
 102 0174 492DDA15 		.long	366619977
 103 0178 F37CD38C 		.long	-1932296973
 104 017c 654CD4FB 		.long	-69972891
 105 0180 5861B24D 		.long	1303535960
 106 0184 CE51B53A 		.long	984961486
 107 0188 7400BCA3 		.long	-1547960204
 108 018c E230BBD4 		.long	-725929758
 109 0190 41A5DF4A 		.long	1256170817
 110 0194 D795D83D 		.long	1037604311
 111 0198 6DC4D1A4 		.long	-1529756563
 112 019c FBF4D6D3 		.long	-740887301
 113 01a0 6AE96943 		.long	1131014506
 114 01a4 FCD96E34 		.long	879679996
 115 01a8 468867AD 		.long	-1385723834
 116 01ac D0B860DA 		.long	-631195440
GAS LISTING /tmp/ccW4jRUd.s 			page 3


 117 01b0 732D0444 		.long	1141124467
 118 01b4 E51D0333 		.long	855842277
 119 01b8 5F4C0AAA 		.long	-1442165665
 120 01bc C97C0DDD 		.long	-586318647
 121 01c0 3C710550 		.long	1342533948
 122 01c4 AA410227 		.long	654459306
 123 01c8 10100BBE 		.long	-1106571248
 124 01cc 86200CC9 		.long	-921952122
 125 01d0 25B56857 		.long	1466479909
 126 01d4 B3856F20 		.long	544179635
 127 01d8 09D466B9 		.long	-1184443383
 128 01dc 9FE461CE 		.long	-832445281
 129 01e0 0EF9DE5E 		.long	1591671054
 130 01e4 98C9D929 		.long	702138776
 131 01e8 2298D0B0 		.long	-1328506846
 132 01ec B4A8D7C7 		.long	-942167884
 133 01f0 173DB359 		.long	1504918807
 134 01f4 810DB42E 		.long	783551873
 135 01f8 3B5CBDB7 		.long	-1212326853
 136 01fc AD6CBAC0 		.long	-1061524307
 137 0200 2083B8ED 		.long	-306674912
 138 0204 B6B3BF9A 		.long	-1698712650
 139 0208 0CE2B603 		.long	62317068
 140 020c 9AD2B174 		.long	1957810842
 141 0210 3947D5EA 		.long	-355121351
 142 0214 AF77D29D 		.long	-1647151185
 143 0218 1526DB04 		.long	81470997
 144 021c 8316DC73 		.long	1943803523
 145 0220 120B63E3 		.long	-480048366
 146 0224 843B6494 		.long	-1805370492
 147 0228 3E6A6D0D 		.long	225274430
 148 022c A85A6A7A 		.long	2053790376
 149 0230 0BCF0EE4 		.long	-468791541
 150 0234 9DFF0993 		.long	-1828061283
 151 0238 27AE000A 		.long	167816743
 152 023c B19E077D 		.long	2097651377
 153 0240 44930FF0 		.long	-267414716
 154 0244 D2A30887 		.long	-2029476910
 155 0248 68F2011E 		.long	503444072
 156 024c FEC20669 		.long	1762050814
 157 0250 5D5762F7 		.long	-144550051
 158 0254 CB676580 		.long	-2140837941
 159 0258 71366C19 		.long	426522225
 160 025c E7066B6E 		.long	1852507879
 161 0260 761BD4FE 		.long	-19653770
 162 0264 E02BD389 		.long	-1982649376
 163 0268 5A7ADA10 		.long	282753626
 164 026c CC4ADD67 		.long	1742555852
 165 0270 6FDFB9F9 		.long	-105259153
 166 0274 F9EFBE8E 		.long	-1900089351
 167 0278 43BEB717 		.long	397917763
 168 027c D58EB060 		.long	1622183637
 169 0280 E8A3D6D6 		.long	-690576408
 170 0284 7E93D1A1 		.long	-1580100738
 171 0288 C4C2D838 		.long	953729732
 172 028c 52F2DF4F 		.long	1340076626
 173 0290 F167BBD1 		.long	-776247311
GAS LISTING /tmp/ccW4jRUd.s 			page 4


 174 0294 6757BCA6 		.long	-1497606297
 175 0298 DD06B53F 		.long	1068828381
 176 029c 4B36B248 		.long	1219638859
 177 02a0 DA2B0DD8 		.long	-670225446
 178 02a4 4C1B0AAF 		.long	-1358292148
 179 02a8 F64A0336 		.long	906185462
 180 02ac 607A0441 		.long	1090812512
 181 02b0 C3EF60DF 		.long	-547295293
 182 02b4 55DF67A8 		.long	-1469587627
 183 02b8 EF8E6E31 		.long	829329135
 184 02bc 79BE6946 		.long	1181335161
 185 02c0 8CB361CB 		.long	-882789492
 186 02c4 1A8366BC 		.long	-1134132454
 187 02c8 A0D26F25 		.long	628085408
 188 02cc 36E26852 		.long	1382605366
 189 02d0 95770CCC 		.long	-871598187
 190 02d4 03470BBB 		.long	-1156888829
 191 02d8 B9160222 		.long	570562233
 192 02dc 2F260555 		.long	1426400815
 193 02e0 BE3BBAC5 		.long	-977650754
 194 02e4 280BBDB2 		.long	-1296233688
 195 02e8 925AB42B 		.long	733239954
 196 02ec 046AB35C 		.long	1555261956
 197 02f0 A7FFD7C2 		.long	-1026031705
 198 02f4 31CFD0B5 		.long	-1244606671
 199 02f8 8B9ED92C 		.long	752459403
 200 02fc 1DAEDE5B 		.long	1541320221
 201 0300 B0C2649B 		.long	-1687895376
 202 0304 26F263EC 		.long	-328994266
 203 0308 9CA36A75 		.long	1969922972
 204 030c 0A936D02 		.long	40735498
 205 0310 A906099C 		.long	-1677130071
 206 0314 3F360EEB 		.long	-351390145
 207 0318 85670772 		.long	1913087877
 208 031c 13570005 		.long	83908371
 209 0320 824ABF95 		.long	-1782625662
 210 0324 147AB8E2 		.long	-491226604
 211 0328 AE2BB17B 		.long	2075208622
 212 032c 381BB60C 		.long	213261112
 213 0330 9B8ED292 		.long	-1831694693
 214 0334 0DBED5E5 		.long	-438977011
 215 0338 B7EFDC7C 		.long	2094854071
 216 033c 21DFDB0B 		.long	198958881
 217 0340 D4D2D386 		.long	-2032938284
 218 0344 42E2D4F1 		.long	-237706686
 219 0348 F8B3DD68 		.long	1759359992
 220 034c 6E83DA1F 		.long	534414190
 221 0350 CD16BE81 		.long	-2118248755
 222 0354 5B26B9F6 		.long	-155638181
 223 0358 E177B06F 		.long	1873836001
 224 035c 7747B718 		.long	414664567
 225 0360 E65A0888 		.long	-2012718362
 226 0364 706A0FFF 		.long	-15766928
 227 0368 CA3B0666 		.long	1711684554
 228 036c 5C0B0111 		.long	285281116
 229 0370 FF9E658F 		.long	-1889165569
 230 0374 69AE62F8 		.long	-127750551
GAS LISTING /tmp/ccW4jRUd.s 			page 5


 231 0378 D3FF6B61 		.long	1634467795
 232 037c 45CF6C16 		.long	376229701
 233 0380 78E20AA0 		.long	-1609899400
 234 0384 EED20DD7 		.long	-686959890
 235 0388 5483044E 		.long	1308918612
 236 038c C2B30339 		.long	956543938
 237 0390 612667A7 		.long	-1486412191
 238 0394 F71660D0 		.long	-799009033
 239 0398 4D476949 		.long	1231636301
 240 039c DB776E3E 		.long	1047427035
 241 03a0 4A6AD1AE 		.long	-1362007478
 242 03a4 DC5AD6D9 		.long	-640263460
 243 03a8 660BDF40 		.long	1088359270
 244 03ac F03BD837 		.long	936918000
 245 03b0 53AEBCA9 		.long	-1447252397
 246 03b4 C59EBBDE 		.long	-558129467
 247 03b8 7FCFB247 		.long	1202900863
 248 03bc E9FFB530 		.long	817233897
 249 03c0 1CF2BDBD 		.long	-1111625188
 250 03c4 8AC2BACA 		.long	-893730166
 251 03c8 3093B353 		.long	1404277552
 252 03cc A6A3B424 		.long	615818150
 253 03d0 0536D0BA 		.long	-1160759803
 254 03d4 9306D7CD 		.long	-841546093
 255 03d8 2957DE54 		.long	1423857449
 256 03dc BF67D923 		.long	601450431
 257 03e0 2E7A66B3 		.long	-1285129682
 258 03e4 B84A61C4 		.long	-1000256840
 259 03e8 021B685D 		.long	1567103746
 260 03ec 942B6F2A 		.long	711928724
 261 03f0 37BE0BB4 		.long	-1274298825
 262 03f4 A18E0CC3 		.long	-1022587231
 263 03f8 1BDF055A 		.long	1510334235
 264 03fc 8DEF022D 		.long	755167117
 265              		.section	.text.calc_crc32,"ax",@progbits
 266              		.globl	calc_crc32
 268              	calc_crc32:
 269              	.LFB0:
 270              		.file 1 "/home/xingli/share/LiteOS_Lab/crc/crc32.c"
   1:/home/xingli/share/LiteOS_Lab/crc/crc32.c **** /* ----------------------------------------------------------------------------
   2:/home/xingli/share/LiteOS_Lab/crc/crc32.c ****  * Copyright (c) <2018>, <Huawei Technologies Co., Ltd>
   3:/home/xingli/share/LiteOS_Lab/crc/crc32.c ****  * All rights reserved.
   4:/home/xingli/share/LiteOS_Lab/crc/crc32.c ****  * Redistribution and use in source and binary forms, with or without modification,
   5:/home/xingli/share/LiteOS_Lab/crc/crc32.c ****  * are permitted provided that the following conditions are met:
   6:/home/xingli/share/LiteOS_Lab/crc/crc32.c ****  * 1. Redistributions of source code must retain the above copyright notice, this list of
   7:/home/xingli/share/LiteOS_Lab/crc/crc32.c ****  * conditions and the following disclaimer.
   8:/home/xingli/share/LiteOS_Lab/crc/crc32.c ****  * 2. Redistributions in binary form must reproduce the above copyright notice, this list
   9:/home/xingli/share/LiteOS_Lab/crc/crc32.c ****  * of conditions and the following disclaimer in the documentation and/or other materials
  10:/home/xingli/share/LiteOS_Lab/crc/crc32.c ****  * provided with the distribution.
  11:/home/xingli/share/LiteOS_Lab/crc/crc32.c ****  * 3. Neither the name of the copyright holder nor the names of its contributors may be used
  12:/home/xingli/share/LiteOS_Lab/crc/crc32.c ****  * to endorse or promote products derived from this software without specific prior written
  13:/home/xingli/share/LiteOS_Lab/crc/crc32.c ****  * permission.
  14:/home/xingli/share/LiteOS_Lab/crc/crc32.c ****  * THIS SOFTWARE IS PROVIDED BY THE COPYRIGHT HOLDERS AND CONTRIBUTORS
  15:/home/xingli/share/LiteOS_Lab/crc/crc32.c ****  * "AS IS" AND ANY EXPRESS OR IMPLIED WARRANTIES, INCLUDING, BUT NOT LIMITED TO,
  16:/home/xingli/share/LiteOS_Lab/crc/crc32.c ****  * THE IMPLIED WARRANTIES OF MERCHANTABILITY AND FITNESS FOR A PARTICULAR
  17:/home/xingli/share/LiteOS_Lab/crc/crc32.c ****  * PURPOSE ARE DISCLAIMED. IN NO EVENT SHALL THE COPYRIGHT HOLDER OR
  18:/home/xingli/share/LiteOS_Lab/crc/crc32.c ****  * CONTRIBUTORS BE LIABLE FOR ANY DIRECT, INDIRECT, INCIDENTAL, SPECIAL,
GAS LISTING /tmp/ccW4jRUd.s 			page 6


  19:/home/xingli/share/LiteOS_Lab/crc/crc32.c ****  * EXEMPLARY, OR CONSEQUENTIAL DAMAGES (INCLUDING, BUT NOT LIMITED TO,
  20:/home/xingli/share/LiteOS_Lab/crc/crc32.c ****  * PROCUREMENT OF SUBSTITUTE GOODS OR SERVICES; LOSS OF USE, DATA, OR PROFITS;
  21:/home/xingli/share/LiteOS_Lab/crc/crc32.c ****  * OR BUSINESS INTERRUPTION) HOWEVER CAUSED AND ON ANY THEORY OF LIABILITY,
  22:/home/xingli/share/LiteOS_Lab/crc/crc32.c ****  * WHETHER IN CONTRACT, STRICT LIABILITY, OR TORT (INCLUDING NEGLIGENCE OR
  23:/home/xingli/share/LiteOS_Lab/crc/crc32.c ****  * OTHERWISE) ARISING IN ANY WAY OUT OF THE USE OF THIS SOFTWARE, EVEN IF
  24:/home/xingli/share/LiteOS_Lab/crc/crc32.c ****  * ADVISED OF THE POSSIBILITY OF SUCH DAMAGE.
  25:/home/xingli/share/LiteOS_Lab/crc/crc32.c ****  * --------------------------------------------------------------------------- */
  26:/home/xingli/share/LiteOS_Lab/crc/crc32.c **** /* ----------------------------------------------------------------------------
  27:/home/xingli/share/LiteOS_Lab/crc/crc32.c ****  * Notice of Export Control Law
  28:/home/xingli/share/LiteOS_Lab/crc/crc32.c ****  * ===============================================
  29:/home/xingli/share/LiteOS_Lab/crc/crc32.c ****  * Huawei LiteOS may be subject to applicable export control laws and regulations, which might
  30:/home/xingli/share/LiteOS_Lab/crc/crc32.c ****  * include those applicable to Huawei LiteOS of U.S. and the country in which you are located.
  31:/home/xingli/share/LiteOS_Lab/crc/crc32.c ****  * Import, export and usage of Huawei LiteOS in any manner by you shall be in compliance with such
  32:/home/xingli/share/LiteOS_Lab/crc/crc32.c ****  * applicable export control laws and regulations.
  33:/home/xingli/share/LiteOS_Lab/crc/crc32.c ****  * --------------------------------------------------------------------------- */
  34:/home/xingli/share/LiteOS_Lab/crc/crc32.c **** 
  35:/home/xingli/share/LiteOS_Lab/crc/crc32.c **** #include <stdint.h>
  36:/home/xingli/share/LiteOS_Lab/crc/crc32.c **** #include <stddef.h>
  37:/home/xingli/share/LiteOS_Lab/crc/crc32.c **** 
  38:/home/xingli/share/LiteOS_Lab/crc/crc32.c **** static const uint32_t crc_table[256] =
  39:/home/xingli/share/LiteOS_Lab/crc/crc32.c **** {
  40:/home/xingli/share/LiteOS_Lab/crc/crc32.c ****     0x00000000, 0x77073096, 0xee0e612c, 0x990951ba, 0x076dc419,
  41:/home/xingli/share/LiteOS_Lab/crc/crc32.c ****     0x706af48f, 0xe963a535, 0x9e6495a3, 0x0edb8832, 0x79dcb8a4,
  42:/home/xingli/share/LiteOS_Lab/crc/crc32.c ****     0xe0d5e91e, 0x97d2d988, 0x09b64c2b, 0x7eb17cbd, 0xe7b82d07,
  43:/home/xingli/share/LiteOS_Lab/crc/crc32.c ****     0x90bf1d91, 0x1db71064, 0x6ab020f2, 0xf3b97148, 0x84be41de,
  44:/home/xingli/share/LiteOS_Lab/crc/crc32.c ****     0x1adad47d, 0x6ddde4eb, 0xf4d4b551, 0x83d385c7, 0x136c9856,
  45:/home/xingli/share/LiteOS_Lab/crc/crc32.c ****     0x646ba8c0, 0xfd62f97a, 0x8a65c9ec, 0x14015c4f, 0x63066cd9,
  46:/home/xingli/share/LiteOS_Lab/crc/crc32.c ****     0xfa0f3d63, 0x8d080df5, 0x3b6e20c8, 0x4c69105e, 0xd56041e4,
  47:/home/xingli/share/LiteOS_Lab/crc/crc32.c ****     0xa2677172, 0x3c03e4d1, 0x4b04d447, 0xd20d85fd, 0xa50ab56b,
  48:/home/xingli/share/LiteOS_Lab/crc/crc32.c ****     0x35b5a8fa, 0x42b2986c, 0xdbbbc9d6, 0xacbcf940, 0x32d86ce3,
  49:/home/xingli/share/LiteOS_Lab/crc/crc32.c ****     0x45df5c75, 0xdcd60dcf, 0xabd13d59, 0x26d930ac, 0x51de003a,
  50:/home/xingli/share/LiteOS_Lab/crc/crc32.c ****     0xc8d75180, 0xbfd06116, 0x21b4f4b5, 0x56b3c423, 0xcfba9599,
  51:/home/xingli/share/LiteOS_Lab/crc/crc32.c ****     0xb8bda50f, 0x2802b89e, 0x5f058808, 0xc60cd9b2, 0xb10be924,
  52:/home/xingli/share/LiteOS_Lab/crc/crc32.c ****     0x2f6f7c87, 0x58684c11, 0xc1611dab, 0xb6662d3d, 0x76dc4190,
  53:/home/xingli/share/LiteOS_Lab/crc/crc32.c ****     0x01db7106, 0x98d220bc, 0xefd5102a, 0x71b18589, 0x06b6b51f,
  54:/home/xingli/share/LiteOS_Lab/crc/crc32.c ****     0x9fbfe4a5, 0xe8b8d433, 0x7807c9a2, 0x0f00f934, 0x9609a88e,
  55:/home/xingli/share/LiteOS_Lab/crc/crc32.c ****     0xe10e9818, 0x7f6a0dbb, 0x086d3d2d, 0x91646c97, 0xe6635c01,
  56:/home/xingli/share/LiteOS_Lab/crc/crc32.c ****     0x6b6b51f4, 0x1c6c6162, 0x856530d8, 0xf262004e, 0x6c0695ed,
  57:/home/xingli/share/LiteOS_Lab/crc/crc32.c ****     0x1b01a57b, 0x8208f4c1, 0xf50fc457, 0x65b0d9c6, 0x12b7e950,
  58:/home/xingli/share/LiteOS_Lab/crc/crc32.c ****     0x8bbeb8ea, 0xfcb9887c, 0x62dd1ddf, 0x15da2d49, 0x8cd37cf3,
  59:/home/xingli/share/LiteOS_Lab/crc/crc32.c ****     0xfbd44c65, 0x4db26158, 0x3ab551ce, 0xa3bc0074, 0xd4bb30e2,
  60:/home/xingli/share/LiteOS_Lab/crc/crc32.c ****     0x4adfa541, 0x3dd895d7, 0xa4d1c46d, 0xd3d6f4fb, 0x4369e96a,
  61:/home/xingli/share/LiteOS_Lab/crc/crc32.c ****     0x346ed9fc, 0xad678846, 0xda60b8d0, 0x44042d73, 0x33031de5,
  62:/home/xingli/share/LiteOS_Lab/crc/crc32.c ****     0xaa0a4c5f, 0xdd0d7cc9, 0x5005713c, 0x270241aa, 0xbe0b1010,
  63:/home/xingli/share/LiteOS_Lab/crc/crc32.c ****     0xc90c2086, 0x5768b525, 0x206f85b3, 0xb966d409, 0xce61e49f,
  64:/home/xingli/share/LiteOS_Lab/crc/crc32.c ****     0x5edef90e, 0x29d9c998, 0xb0d09822, 0xc7d7a8b4, 0x59b33d17,
  65:/home/xingli/share/LiteOS_Lab/crc/crc32.c ****     0x2eb40d81, 0xb7bd5c3b, 0xc0ba6cad, 0xedb88320, 0x9abfb3b6,
  66:/home/xingli/share/LiteOS_Lab/crc/crc32.c ****     0x03b6e20c, 0x74b1d29a, 0xead54739, 0x9dd277af, 0x04db2615,
  67:/home/xingli/share/LiteOS_Lab/crc/crc32.c ****     0x73dc1683, 0xe3630b12, 0x94643b84, 0x0d6d6a3e, 0x7a6a5aa8,
  68:/home/xingli/share/LiteOS_Lab/crc/crc32.c ****     0xe40ecf0b, 0x9309ff9d, 0x0a00ae27, 0x7d079eb1, 0xf00f9344,
  69:/home/xingli/share/LiteOS_Lab/crc/crc32.c ****     0x8708a3d2, 0x1e01f268, 0x6906c2fe, 0xf762575d, 0x806567cb,
  70:/home/xingli/share/LiteOS_Lab/crc/crc32.c ****     0x196c3671, 0x6e6b06e7, 0xfed41b76, 0x89d32be0, 0x10da7a5a,
  71:/home/xingli/share/LiteOS_Lab/crc/crc32.c ****     0x67dd4acc, 0xf9b9df6f, 0x8ebeeff9, 0x17b7be43, 0x60b08ed5,
  72:/home/xingli/share/LiteOS_Lab/crc/crc32.c ****     0xd6d6a3e8, 0xa1d1937e, 0x38d8c2c4, 0x4fdff252, 0xd1bb67f1,
  73:/home/xingli/share/LiteOS_Lab/crc/crc32.c ****     0xa6bc5767, 0x3fb506dd, 0x48b2364b, 0xd80d2bda, 0xaf0a1b4c,
  74:/home/xingli/share/LiteOS_Lab/crc/crc32.c ****     0x36034af6, 0x41047a60, 0xdf60efc3, 0xa867df55, 0x316e8eef,
  75:/home/xingli/share/LiteOS_Lab/crc/crc32.c ****     0x4669be79, 0xcb61b38c, 0xbc66831a, 0x256fd2a0, 0x5268e236,
GAS LISTING /tmp/ccW4jRUd.s 			page 7


  76:/home/xingli/share/LiteOS_Lab/crc/crc32.c ****     0xcc0c7795, 0xbb0b4703, 0x220216b9, 0x5505262f, 0xc5ba3bbe,
  77:/home/xingli/share/LiteOS_Lab/crc/crc32.c ****     0xb2bd0b28, 0x2bb45a92, 0x5cb36a04, 0xc2d7ffa7, 0xb5d0cf31,
  78:/home/xingli/share/LiteOS_Lab/crc/crc32.c ****     0x2cd99e8b, 0x5bdeae1d, 0x9b64c2b0, 0xec63f226, 0x756aa39c,
  79:/home/xingli/share/LiteOS_Lab/crc/crc32.c ****     0x026d930a, 0x9c0906a9, 0xeb0e363f, 0x72076785, 0x05005713,
  80:/home/xingli/share/LiteOS_Lab/crc/crc32.c ****     0x95bf4a82, 0xe2b87a14, 0x7bb12bae, 0x0cb61b38, 0x92d28e9b,
  81:/home/xingli/share/LiteOS_Lab/crc/crc32.c ****     0xe5d5be0d, 0x7cdcefb7, 0x0bdbdf21, 0x86d3d2d4, 0xf1d4e242,
  82:/home/xingli/share/LiteOS_Lab/crc/crc32.c ****     0x68ddb3f8, 0x1fda836e, 0x81be16cd, 0xf6b9265b, 0x6fb077e1,
  83:/home/xingli/share/LiteOS_Lab/crc/crc32.c ****     0x18b74777, 0x88085ae6, 0xff0f6a70, 0x66063bca, 0x11010b5c,
  84:/home/xingli/share/LiteOS_Lab/crc/crc32.c ****     0x8f659eff, 0xf862ae69, 0x616bffd3, 0x166ccf45, 0xa00ae278,
  85:/home/xingli/share/LiteOS_Lab/crc/crc32.c ****     0xd70dd2ee, 0x4e048354, 0x3903b3c2, 0xa7672661, 0xd06016f7,
  86:/home/xingli/share/LiteOS_Lab/crc/crc32.c ****     0x4969474d, 0x3e6e77db, 0xaed16a4a, 0xd9d65adc, 0x40df0b66,
  87:/home/xingli/share/LiteOS_Lab/crc/crc32.c ****     0x37d83bf0, 0xa9bcae53, 0xdebb9ec5, 0x47b2cf7f, 0x30b5ffe9,
  88:/home/xingli/share/LiteOS_Lab/crc/crc32.c ****     0xbdbdf21c, 0xcabac28a, 0x53b39330, 0x24b4a3a6, 0xbad03605,
  89:/home/xingli/share/LiteOS_Lab/crc/crc32.c ****     0xcdd70693, 0x54de5729, 0x23d967bf, 0xb3667a2e, 0xc4614ab8,
  90:/home/xingli/share/LiteOS_Lab/crc/crc32.c ****     0x5d681b02, 0x2a6f2b94, 0xb40bbe37, 0xc30c8ea1, 0x5a05df1b,
  91:/home/xingli/share/LiteOS_Lab/crc/crc32.c ****     0x2d02ef8d
  92:/home/xingli/share/LiteOS_Lab/crc/crc32.c **** };
  93:/home/xingli/share/LiteOS_Lab/crc/crc32.c **** 
  94:/home/xingli/share/LiteOS_Lab/crc/crc32.c **** uint32_t calc_crc32(uint32_t origin, const void *buf, int32_t len)
  95:/home/xingli/share/LiteOS_Lab/crc/crc32.c **** {
 271              		.loc 1 95 1
 272              		.cfi_startproc
 273 0000 F30F1EFA 		endbr64
 274 0004 55       		pushq	%rbp
 275              	.LCFI0:
 276              		.cfi_def_cfa_offset 16
 277              		.cfi_offset 6, -16
 278 0005 4889E5   		movq	%rsp, %rbp
 279              	.LCFI1:
 280              		.cfi_def_cfa_register 6
 281 0008 4883EC30 		subq	$48, %rsp
 282 000c 897DDC   		movl	%edi, -36(%rbp)
 283 000f 488975D0 		movq	%rsi, -48(%rbp)
 284 0013 8955D8   		movl	%edx, -40(%rbp)
 285              		.loc 1 95 1
 286 0016 64488B04 		movq	%fs:40, %rax
 286      25280000 
 286      00
 287 001f 488945F8 		movq	%rax, -8(%rbp)
 288 0023 31C0     		xorl	%eax, %eax
  96:/home/xingli/share/LiteOS_Lab/crc/crc32.c ****     int i;
  97:/home/xingli/share/LiteOS_Lab/crc/crc32.c ****     uint32_t crc;
  98:/home/xingli/share/LiteOS_Lab/crc/crc32.c ****     const uint8_t *pbuf;
  99:/home/xingli/share/LiteOS_Lab/crc/crc32.c **** 
 100:/home/xingli/share/LiteOS_Lab/crc/crc32.c ****     if (NULL == buf || len < 0) {
 289              		.loc 1 100 8
 290 0025 48837DD0 		cmpq	$0, -48(%rbp)
 290      00
 291 002a 7406     		je	.L2
 292              		.loc 1 100 21 discriminator 1
 293 002c 837DD800 		cmpl	$0, -40(%rbp)
 294 0030 7907     		jns	.L3
 295              	.L2:
 101:/home/xingli/share/LiteOS_Lab/crc/crc32.c ****         return 0;
 296              		.loc 1 101 16
 297 0032 B8000000 		movl	$0, %eax
 297      00
GAS LISTING /tmp/ccW4jRUd.s 			page 8


 298 0037 EB69     		jmp	.L4
 299              	.L3:
 102:/home/xingli/share/LiteOS_Lab/crc/crc32.c ****     }
 103:/home/xingli/share/LiteOS_Lab/crc/crc32.c **** 
 104:/home/xingli/share/LiteOS_Lab/crc/crc32.c ****     pbuf = (const uint8_t *)buf;
 300              		.loc 1 104 10
 301 0039 488B45D0 		movq	-48(%rbp), %rax
 302 003d 488945F0 		movq	%rax, -16(%rbp)
 105:/home/xingli/share/LiteOS_Lab/crc/crc32.c ****     crc = ~origin;
 303              		.loc 1 105 9
 304 0041 8B45DC   		movl	-36(%rbp), %eax
 305 0044 F7D0     		notl	%eax
 306 0046 8945EC   		movl	%eax, -20(%rbp)
 106:/home/xingli/share/LiteOS_Lab/crc/crc32.c **** 
 107:/home/xingli/share/LiteOS_Lab/crc/crc32.c ****     for (i = 0; i < len; ++i) {
 307              		.loc 1 107 12
 308 0049 C745E800 		movl	$0, -24(%rbp)
 308      000000
 309              		.loc 1 107 5
 310 0050 EB43     		jmp	.L5
 311              	.L6:
 108:/home/xingli/share/LiteOS_Lab/crc/crc32.c ****         crc = (crc >> 8) ^ crc_table[((crc & 0xff) ^ pbuf[i]) & 0xff];
 312              		.loc 1 108 20 discriminator 3
 313 0052 8B45EC   		movl	-20(%rbp), %eax
 314 0055 C1E808   		shrl	$8, %eax
 315 0058 89C6     		movl	%eax, %esi
 316              		.loc 1 108 44 discriminator 3
 317 005a 8B45EC   		movl	-20(%rbp), %eax
 318 005d 0FB6D0   		movzbl	%al, %edx
 319              		.loc 1 108 58 discriminator 3
 320 0060 8B45E8   		movl	-24(%rbp), %eax
 321 0063 4863C8   		movslq	%eax, %rcx
 322 0066 488B45F0 		movq	-16(%rbp), %rax
 323 006a 4801C8   		addq	%rcx, %rax
 324 006d 0FB600   		movzbl	(%rax), %eax
 325 0070 0FB6C0   		movzbl	%al, %eax
 326              		.loc 1 108 52 discriminator 3
 327 0073 31D0     		xorl	%edx, %eax
 328              		.loc 1 108 63 discriminator 3
 329 0075 0FB6C0   		movzbl	%al, %eax
 330              		.loc 1 108 37 discriminator 3
 331 0078 89C0     		movl	%eax, %eax
 332 007a 488D1485 		leaq	0(,%rax,4), %rdx
 332      00000000 
 333 0082 488D0500 		leaq	crc_table(%rip), %rax
 333      000000
 334 0089 8B0402   		movl	(%rdx,%rax), %eax
 335              		.loc 1 108 13 discriminator 3
 336 008c 31F0     		xorl	%esi, %eax
 337 008e 8945EC   		movl	%eax, -20(%rbp)
 107:/home/xingli/share/LiteOS_Lab/crc/crc32.c ****         crc = (crc >> 8) ^ crc_table[((crc & 0xff) ^ pbuf[i]) & 0xff];
 338              		.loc 1 107 26 discriminator 3
 339 0091 8345E801 		addl	$1, -24(%rbp)
 340              	.L5:
 107:/home/xingli/share/LiteOS_Lab/crc/crc32.c ****         crc = (crc >> 8) ^ crc_table[((crc & 0xff) ^ pbuf[i]) & 0xff];
 341              		.loc 1 107 5 discriminator 1
 342 0095 8B45E8   		movl	-24(%rbp), %eax
GAS LISTING /tmp/ccW4jRUd.s 			page 9


 343 0098 3B45D8   		cmpl	-40(%rbp), %eax
 344 009b 7CB5     		jl	.L6
 109:/home/xingli/share/LiteOS_Lab/crc/crc32.c ****     }
 110:/home/xingli/share/LiteOS_Lab/crc/crc32.c **** 
 111:/home/xingli/share/LiteOS_Lab/crc/crc32.c ****     return ~crc;
 345              		.loc 1 111 12
 346 009d 8B45EC   		movl	-20(%rbp), %eax
 347 00a0 F7D0     		notl	%eax
 348              	.L4:
 112:/home/xingli/share/LiteOS_Lab/crc/crc32.c **** }
 349              		.loc 1 112 1
 350 00a2 488B7DF8 		movq	-8(%rbp), %rdi
 351 00a6 6448333C 		xorq	%fs:40, %rdi
 351      25280000 
 351      00
 352 00af 7405     		je	.L7
 353 00b1 E8000000 		call	__stack_chk_fail@PLT
 353      00
 354              	.L7:
 355 00b6 C9       		leave
 356              	.LCFI2:
 357              		.cfi_def_cfa 7, 8
 358 00b7 C3       		ret
 359              		.cfi_endproc
 360              	.LFE0:
 362              		.text
 363              	.Letext0:
 364              		.file 2 "/usr/include/x86_64-linux-gnu/bits/types.h"
 365              		.file 3 "/usr/include/x86_64-linux-gnu/bits/stdint-intn.h"
 366              		.file 4 "/usr/include/x86_64-linux-gnu/bits/stdint-uintn.h"
 851              		.section	.note.gnu.property,"a"
 852              		.align 8
 853 0000 04000000 		.long	 1f - 0f
 854 0004 10000000 		.long	 4f - 1f
 855 0008 05000000 		.long	 5
 856              	0:
 857 000c 474E5500 		.string	 "GNU"
 858              	1:
 859              		.align 8
 860 0010 020000C0 		.long	 0xc0000002
 861 0014 04000000 		.long	 3f - 2f
 862              	2:
 863 0018 03000000 		.long	 0x3
 864              	3:
 865 001c 00000000 		.align 8
 866              	4:
GAS LISTING /tmp/ccW4jRUd.s 			page 10


DEFINED SYMBOLS
                            *ABS*:0000000000000000 crc32.c
     /tmp/ccW4jRUd.s:8      .rodata.crc_table:0000000000000000 crc_table
     /tmp/ccW4jRUd.s:268    .text.calc_crc32:0000000000000000 calc_crc32

UNDEFINED SYMBOLS
_GLOBAL_OFFSET_TABLE_
__stack_chk_fail
