GAS LISTING /tmp/ccrtok3i.s 			page 1


   1              		.file	"link_main.c"
   2              		.text
   3              	.Ltext0:
   4              		.section	.bss.s_link_mainversion,"aw",@nobits
   5              		.align 32
   8              	s_link_mainversion:
   9 0000 00000000 		.zero	64
   9      00000000 
   9      00000000 
   9      00000000 
   9      00000000 
  10              		.section	.rodata
  11              	.LC0:
  12 0000 5625642E 		.string	"V%d.%d.%d AT %s ON %s"
  12      25642E25 
  12      64204154 
  12      20257320 
  12      4F4E2025 
  13              	.LC1:
  14 0016 4E6F7620 		.string	"Nov 27 2022"
  14      32372032 
  14      30323200 
  15              	.LC2:
  16 0022 30303A30 		.string	"00:02:38"
  16      323A3338 
  16      00
  17              		.section	.text.linkmain_version,"ax",@progbits
  18              		.globl	linkmain_version
  20              	linkmain_version:
  21              	.LFB0:
  22              		.file 1 "/home/xingli/share/LiteOS_Lab/link_main.c"
   1:/home/xingli/share/LiteOS_Lab/link_main.c **** /* ----------------------------------------------------------------------------
   2:/home/xingli/share/LiteOS_Lab/link_main.c ****  * Copyright (c) <2018>, <Huawei Technologies Co., Ltd>
   3:/home/xingli/share/LiteOS_Lab/link_main.c ****  * All rights reserved.
   4:/home/xingli/share/LiteOS_Lab/link_main.c ****  * Redistribution and use in source and binary forms, with or without modification,
   5:/home/xingli/share/LiteOS_Lab/link_main.c ****  * are permitted provided that the following conditions are met:
   6:/home/xingli/share/LiteOS_Lab/link_main.c ****  * 1. Redistributions of source code must retain the above copyright notice, this list of
   7:/home/xingli/share/LiteOS_Lab/link_main.c ****  * conditions and the following disclaimer.
   8:/home/xingli/share/LiteOS_Lab/link_main.c ****  * 2. Redistributions in binary form must reproduce the above copyright notice, this list
   9:/home/xingli/share/LiteOS_Lab/link_main.c ****  * of conditions and the following disclaimer in the documentation and/or other materials
  10:/home/xingli/share/LiteOS_Lab/link_main.c ****  * provided with the distribution.
  11:/home/xingli/share/LiteOS_Lab/link_main.c ****  * 3. Neither the name of the copyright holder nor the names of its contributors may be used
  12:/home/xingli/share/LiteOS_Lab/link_main.c ****  * to endorse or promote products derived from this software without specific prior written
  13:/home/xingli/share/LiteOS_Lab/link_main.c ****  * permission.
  14:/home/xingli/share/LiteOS_Lab/link_main.c ****  * THIS SOFTWARE IS PROVIDED BY THE COPYRIGHT HOLDERS AND CONTRIBUTORS
  15:/home/xingli/share/LiteOS_Lab/link_main.c ****  * "AS IS" AND ANY EXPRESS OR IMPLIED WARRANTIES, INCLUDING, BUT NOT LIMITED TO,
  16:/home/xingli/share/LiteOS_Lab/link_main.c ****  * THE IMPLIED WARRANTIES OF MERCHANTABILITY AND FITNESS FOR A PARTICULAR
  17:/home/xingli/share/LiteOS_Lab/link_main.c ****  * PURPOSE ARE DISCLAIMED. IN NO EVENT SHALL THE COPYRIGHT HOLDER OR
  18:/home/xingli/share/LiteOS_Lab/link_main.c ****  * CONTRIBUTORS BE LIABLE FOR ANY DIRECT, INDIRECT, INCIDENTAL, SPECIAL,
  19:/home/xingli/share/LiteOS_Lab/link_main.c ****  * EXEMPLARY, OR CONSEQUENTIAL DAMAGES (INCLUDING, BUT NOT LIMITED TO,
  20:/home/xingli/share/LiteOS_Lab/link_main.c ****  * PROCUREMENT OF SUBSTITUTE GOODS OR SERVICES; LOSS OF USE, DATA, OR PROFITS;
  21:/home/xingli/share/LiteOS_Lab/link_main.c ****  * OR BUSINESS INTERRUPTION) HOWEVER CAUSED AND ON ANY THEORY OF LIABILITY,
  22:/home/xingli/share/LiteOS_Lab/link_main.c ****  * WHETHER IN CONTRACT, STRICT LIABILITY, OR TORT (INCLUDING NEGLIGENCE OR
  23:/home/xingli/share/LiteOS_Lab/link_main.c ****  * OTHERWISE) ARISING IN ANY WAY OUT OF THE USE OF THIS SOFTWARE, EVEN IF
  24:/home/xingli/share/LiteOS_Lab/link_main.c ****  * ADVISED OF THE POSSIBILITY OF SUCH DAMAGE.
  25:/home/xingli/share/LiteOS_Lab/link_main.c ****  * --------------------------------------------------------------------------- */
  26:/home/xingli/share/LiteOS_Lab/link_main.c **** /* ----------------------------------------------------------------------------
GAS LISTING /tmp/ccrtok3i.s 			page 2


  27:/home/xingli/share/LiteOS_Lab/link_main.c ****  * Notice of Export Control Law
  28:/home/xingli/share/LiteOS_Lab/link_main.c ****  * ===============================================
  29:/home/xingli/share/LiteOS_Lab/link_main.c ****  * Huawei LiteOS may be subject to applicable export control laws and regulations, which might
  30:/home/xingli/share/LiteOS_Lab/link_main.c ****  * include those applicable to Huawei LiteOS of U.S. and the country in which you are located.
  31:/home/xingli/share/LiteOS_Lab/link_main.c ****  * Import, export and usage of Huawei LiteOS in any manner by you shall be in compliance with such
  32:/home/xingli/share/LiteOS_Lab/link_main.c ****  * applicable export control laws and regulations.
  33:/home/xingli/share/LiteOS_Lab/link_main.c ****  * --------------------------------------------------------------------------- */
  34:/home/xingli/share/LiteOS_Lab/link_main.c **** 
  35:/home/xingli/share/LiteOS_Lab/link_main.c **** #include <stdio.h>
  36:/home/xingli/share/LiteOS_Lab/link_main.c **** #include "iot_link_config.h"
  37:/home/xingli/share/LiteOS_Lab/link_main.c **** #include "link_version.h"
  38:/home/xingli/share/LiteOS_Lab/link_main.c **** // RTOS KERNEL
  39:/home/xingli/share/LiteOS_Lab/link_main.c **** #include "osal.h"
  40:/home/xingli/share/LiteOS_Lab/link_main.c **** 
  41:/home/xingli/share/LiteOS_Lab/link_main.c **** #ifdef CONFIG_MACOS_ENABLE
  42:/home/xingli/share/LiteOS_Lab/link_main.c **** #include <sys/select.h>
  43:/home/xingli/share/LiteOS_Lab/link_main.c **** #endif
  44:/home/xingli/share/LiteOS_Lab/link_main.c **** 
  45:/home/xingli/share/LiteOS_Lab/link_main.c **** #define CN_LINK_VERSION_MAJOR   2
  46:/home/xingli/share/LiteOS_Lab/link_main.c **** #define CN_LINK_VERSION_MINOR   2
  47:/home/xingli/share/LiteOS_Lab/link_main.c **** #define CN_LINK_VERSION_FEATURE 2
  48:/home/xingli/share/LiteOS_Lab/link_main.c **** 
  49:/home/xingli/share/LiteOS_Lab/link_main.c **** static char s_link_mainversion[64];
  50:/home/xingli/share/LiteOS_Lab/link_main.c **** const char *linkmain_version()
  51:/home/xingli/share/LiteOS_Lab/link_main.c **** {
  23              		.loc 1 51 1
  24              		.cfi_startproc
  25 0000 F30F1EFA 		endbr64
  26 0004 55       		pushq	%rbp
  27              	.LCFI0:
  28              		.cfi_def_cfa_offset 16
  29              		.cfi_offset 6, -16
  30 0005 4889E5   		movq	%rsp, %rbp
  31              	.LCFI1:
  32              		.cfi_def_cfa_register 6
  33 0008 4883EC10 		subq	$16, %rsp
  34              		.loc 1 51 1
  35 000c 64488B04 		movq	%fs:40, %rax
  35      25280000 
  35      00
  36 0015 488945F8 		movq	%rax, -8(%rbp)
  37 0019 31C0     		xorl	%eax, %eax
  52:/home/xingli/share/LiteOS_Lab/link_main.c ****     (void)snprintf(s_link_mainversion, 64, "V%d.%d.%d AT %s ON %s", CN_LINK_VERSION_MAJOR, CN_LINK_
  38              		.loc 1 52 11
  39 001b 488D0500 		leaq	.LC1(%rip), %rax
  39      000000
  40 0022 50       		pushq	%rax
  41 0023 488D0500 		leaq	.LC2(%rip), %rax
  41      000000
  42 002a 50       		pushq	%rax
  43 002b 41B90200 		movl	$2, %r9d
  43      0000
  44 0031 41B80200 		movl	$2, %r8d
  44      0000
  45 0037 B9020000 		movl	$2, %ecx
  45      00
  46 003c 488D1500 		leaq	.LC0(%rip), %rdx
GAS LISTING /tmp/ccrtok3i.s 			page 3


  46      000000
  47 0043 BE400000 		movl	$64, %esi
  47      00
  48 0048 488D3D00 		leaq	s_link_mainversion(%rip), %rdi
  48      000000
  49 004f B8000000 		movl	$0, %eax
  49      00
  50 0054 E8000000 		call	snprintf@PLT
  50      00
  51 0059 4883C410 		addq	$16, %rsp
  53:/home/xingli/share/LiteOS_Lab/link_main.c ****         CN_LINK_VERSION_FEATURE, __TIME__, __DATE__);
  54:/home/xingli/share/LiteOS_Lab/link_main.c ****     return s_link_mainversion;
  52              		.loc 1 54 12
  53 005d 488D0500 		leaq	s_link_mainversion(%rip), %rax
  53      000000
  55:/home/xingli/share/LiteOS_Lab/link_main.c **** }
  54              		.loc 1 55 1
  55 0064 488B55F8 		movq	-8(%rbp), %rdx
  56 0068 64483314 		xorq	%fs:40, %rdx
  56      25280000 
  56      00
  57 0071 7405     		je	.L3
  58 0073 E8000000 		call	__stack_chk_fail@PLT
  58      00
  59              	.L3:
  60 0078 C9       		leave
  61              	.LCFI2:
  62              		.cfi_def_cfa 7, 8
  63 0079 C3       		ret
  64              		.cfi_endproc
  65              	.LFE0:
  67              		.section	.bss.s_link_start,"aw",@nobits
  68              		.align 4
  71              	s_link_start:
  72 0000 00000000 		.zero	4
  73              		.section	.rodata
  74              	.LC3:
  75 002b 5B25735D 		.string	"[%s][%u][%s] linkmain:%s\r\n"
  75      5B25755D 
  75      5B25735D 
  75      206C696E 
  75      6B6D6169 
  76              		.section	.text.link_main,"ax",@progbits
  77              		.globl	link_main
  79              	link_main:
  80              	.LFB1:
  56:/home/xingli/share/LiteOS_Lab/link_main.c **** 
  57:/home/xingli/share/LiteOS_Lab/link_main.c **** static int s_link_start = 0;
  58:/home/xingli/share/LiteOS_Lab/link_main.c **** int link_main(void *args)
  59:/home/xingli/share/LiteOS_Lab/link_main.c **** {
  81              		.loc 1 59 1
  82              		.cfi_startproc
  83 0000 F30F1EFA 		endbr64
  84 0004 55       		pushq	%rbp
  85              	.LCFI3:
  86              		.cfi_def_cfa_offset 16
  87              		.cfi_offset 6, -16
GAS LISTING /tmp/ccrtok3i.s 			page 4


  88 0005 4889E5   		movq	%rsp, %rbp
  89              	.LCFI4:
  90              		.cfi_def_cfa_register 6
  91 0008 4154     		pushq	%r12
  92 000a 53       		pushq	%rbx
  93 000b 4883EC30 		subq	$48, %rsp
  94              		.cfi_offset 12, -24
  95              		.cfi_offset 3, -32
  96 000f 48897DC8 		movq	%rdi, -56(%rbp)
  97              		.loc 1 59 1
  98 0013 64488B04 		movq	%fs:40, %rax
  98      25280000 
  98      00
  99 001c 488945E8 		movq	%rax, -24(%rbp)
 100 0020 31C0     		xorl	%eax, %eax
  60:/home/xingli/share/LiteOS_Lab/link_main.c ****     // /< install the RTOS kernel for the link
  61:/home/xingli/share/LiteOS_Lab/link_main.c ****     if (s_link_start) {
 101              		.loc 1 61 9
 102 0022 8B050000 		movl	s_link_start(%rip), %eax
 102      0000
 103              		.loc 1 61 8
 104 0028 85C0     		testl	%eax, %eax
 105 002a 740A     		je	.L5
  62:/home/xingli/share/LiteOS_Lab/link_main.c ****         return -1;
 106              		.loc 1 62 16
 107 002c B8FFFFFF 		movl	$-1, %eax
 107      FF
 108 0031 E99E0000 		jmp	.L8
 108      00
 109              	.L5:
  63:/home/xingli/share/LiteOS_Lab/link_main.c ****     }
  64:/home/xingli/share/LiteOS_Lab/link_main.c ****     s_link_start = 1;
 110              		.loc 1 64 18
 111 0036 C7050000 		movl	$1, s_link_start(%rip)
 111      00000100 
 111      0000
  65:/home/xingli/share/LiteOS_Lab/link_main.c **** 
  66:/home/xingli/share/LiteOS_Lab/link_main.c ****     (void)osal_init();
 112              		.loc 1 66 11
 113 0040 E8000000 		call	osal_init@PLT
 113      00
  67:/home/xingli/share/LiteOS_Lab/link_main.c ****     LINK_LOG_DEBUG("linkmain:%s", linkmain_version());
 114              		.loc 1 67 5
 115 0045 E8000000 		call	link_log_level_get@PLT
 115      00
 116 004a 83F801   		cmpl	$1, %eax
 117 004d 774A     		ja	.L7
 118              		.loc 1 67 5 is_stmt 0 discriminator 1
 119 004f E8000000 		call	linkmain_version
 119      00
 120 0054 4889C3   		movq	%rax, %rbx
 121 0057 E8000000 		call	osal_sys_time@PLT
 121      00
 122 005c 4189C4   		movl	%eax, %r12d
 123 005f BF010000 		movl	$1, %edi
 123      00
 124 0064 E8000000 		call	link_log_level_name@PLT
GAS LISTING /tmp/ccrtok3i.s 			page 5


 124      00
 125 0069 4989D8   		movq	%rbx, %r8
 126 006c 488D0D00 		leaq	__FUNCTION__.2522(%rip), %rcx
 126      000000
 127 0073 4489E2   		movl	%r12d, %edx
 128 0076 4889C6   		movq	%rax, %rsi
 129 0079 488D3D00 		leaq	.LC3(%rip), %rdi
 129      000000
 130 0080 B8000000 		movl	$0, %eax
 130      00
 131 0085 E8000000 		call	printf@PLT
 131      00
 132 008a 488B0500 		movq	stdout(%rip), %rax
 132      000000
 133 0091 4889C7   		movq	%rax, %rdi
 134 0094 E8000000 		call	fflush@PLT
 134      00
 135              	.L7:
  68:/home/xingli/share/LiteOS_Lab/link_main.c **** 
  69:/home/xingli/share/LiteOS_Lab/link_main.c **** #ifdef CONFIG_STIMER_ENABLE
  70:/home/xingli/share/LiteOS_Lab/link_main.c **** #include "stimer.h"
  71:/home/xingli/share/LiteOS_Lab/link_main.c ****     stimer_init();
  72:/home/xingli/share/LiteOS_Lab/link_main.c **** #endif
  73:/home/xingli/share/LiteOS_Lab/link_main.c **** 
  74:/home/xingli/share/LiteOS_Lab/link_main.c **** #ifdef CONFIG_SHELL_ENABLE
  75:/home/xingli/share/LiteOS_Lab/link_main.c **** #include "shell.h"
  76:/home/xingli/share/LiteOS_Lab/link_main.c ****     shell_init();
  77:/home/xingli/share/LiteOS_Lab/link_main.c **** #endif
  78:/home/xingli/share/LiteOS_Lab/link_main.c **** 
  79:/home/xingli/share/LiteOS_Lab/link_main.c ****     /* add loader code here */
  80:/home/xingli/share/LiteOS_Lab/link_main.c **** #ifdef CONFIG_OTA_ENABLE
  81:/home/xingli/share/LiteOS_Lab/link_main.c **** #include "ota_init.h"
  82:/home/xingli/share/LiteOS_Lab/link_main.c ****     ota_init();
  83:/home/xingli/share/LiteOS_Lab/link_main.c **** #endif
  84:/home/xingli/share/LiteOS_Lab/link_main.c **** 
  85:/home/xingli/share/LiteOS_Lab/link_main.c **** // /< install the driver framework
  86:/home/xingli/share/LiteOS_Lab/link_main.c **** #ifdef CONFIG_DRIVER_ENABLE
  87:/home/xingli/share/LiteOS_Lab/link_main.c **** #include "driver.h"
  88:/home/xingli/share/LiteOS_Lab/link_main.c ****     // /< install the driver framework for the link
  89:/home/xingli/share/LiteOS_Lab/link_main.c ****     (void)los_driv_init();
  90:/home/xingli/share/LiteOS_Lab/link_main.c **** #endif
  91:/home/xingli/share/LiteOS_Lab/link_main.c **** 
  92:/home/xingli/share/LiteOS_Lab/link_main.c **** ///< install the at framework
  93:/home/xingli/share/LiteOS_Lab/link_main.c **** #ifdef CONFIG_AT_ENABLE
  94:/home/xingli/share/LiteOS_Lab/link_main.c **** #include "at.h"
  95:/home/xingli/share/LiteOS_Lab/link_main.c ****     (void)at_init();
  96:/home/xingli/share/LiteOS_Lab/link_main.c **** #endif
  97:/home/xingli/share/LiteOS_Lab/link_main.c **** 
  98:/home/xingli/share/LiteOS_Lab/link_main.c **** ///< install the cJSON, for the oc mqtt agent need the cJSON
  99:/home/xingli/share/LiteOS_Lab/link_main.c **** #ifdef CONFIG_CJSON_ENABLE
 100:/home/xingli/share/LiteOS_Lab/link_main.c **** #include "cJSON.h"
 101:/home/xingli/share/LiteOS_Lab/link_main.c **** 
 102:/home/xingli/share/LiteOS_Lab/link_main.c ****     cJSON_Hooks hook;
 103:/home/xingli/share/LiteOS_Lab/link_main.c ****     hook.free_fn = osal_free;
 136              		.loc 1 103 18 is_stmt 1
 137 0099 488B0500 		movq	osal_free@GOTPCREL(%rip), %rax
 137      000000
GAS LISTING /tmp/ccrtok3i.s 			page 6


 138 00a0 488945D8 		movq	%rax, -40(%rbp)
 104:/home/xingli/share/LiteOS_Lab/link_main.c ****     hook.malloc_fn = osal_malloc;
 139              		.loc 1 104 20
 140 00a4 488B0500 		movq	osal_malloc@GOTPCREL(%rip), %rax
 140      000000
 141 00ab 488945D0 		movq	%rax, -48(%rbp)
 105:/home/xingli/share/LiteOS_Lab/link_main.c ****     cJSON_InitHooks(&hook);
 142              		.loc 1 105 5
 143 00af 488D45D0 		leaq	-48(%rbp), %rax
 144 00b3 4889C7   		movq	%rax, %rdi
 145 00b6 E8000000 		call	cJSON_InitHooks@PLT
 145      00
 106:/home/xingli/share/LiteOS_Lab/link_main.c **** #endif
 107:/home/xingli/share/LiteOS_Lab/link_main.c **** 
 108:/home/xingli/share/LiteOS_Lab/link_main.c **** //////////////////////////  TCPIP PROTOCOL /////////////////////////////////////
 109:/home/xingli/share/LiteOS_Lab/link_main.c **** #ifdef CONFIG_TCPIP_AL_ENABLE
 110:/home/xingli/share/LiteOS_Lab/link_main.c **** #include "sal.h"
 111:/home/xingli/share/LiteOS_Lab/link_main.c ****     (void)link_tcpip_init();
 146              		.loc 1 111 11
 147 00bb E8000000 		call	link_tcpip_init@PLT
 147      00
 112:/home/xingli/share/LiteOS_Lab/link_main.c **** #endif
 113:/home/xingli/share/LiteOS_Lab/link_main.c **** 
 114:/home/xingli/share/LiteOS_Lab/link_main.c **** //////////////////////////  DTLS PROTOCOL  /////////////////////////////////////
 115:/home/xingli/share/LiteOS_Lab/link_main.c **** #ifdef CONFIG_DTLS_AL_ENABLE
 116:/home/xingli/share/LiteOS_Lab/link_main.c **** #include "dtls_al.h"
 117:/home/xingli/share/LiteOS_Lab/link_main.c ****     (void)dtls_al_init();
 148              		.loc 1 117 11
 149 00c0 E8000000 		call	dtls_al_init@PLT
 149      00
 118:/home/xingli/share/LiteOS_Lab/link_main.c **** #endif
 119:/home/xingli/share/LiteOS_Lab/link_main.c **** 
 120:/home/xingli/share/LiteOS_Lab/link_main.c **** //////////////////////////  MQTT PROTOCOL  /////////////////////////////////////
 121:/home/xingli/share/LiteOS_Lab/link_main.c **** #ifdef CONFIG_MQTT_AL_ENABLE
 122:/home/xingli/share/LiteOS_Lab/link_main.c **** #include "mqtt_al.h"
 123:/home/xingli/share/LiteOS_Lab/link_main.c ****     mqtt_al_init();
 150              		.loc 1 123 5
 151 00c5 E8000000 		call	mqtt_al_init@PLT
 151      00
 124:/home/xingli/share/LiteOS_Lab/link_main.c **** #endif
 125:/home/xingli/share/LiteOS_Lab/link_main.c **** 
 126:/home/xingli/share/LiteOS_Lab/link_main.c **** // ////////////////////////  COAP PROTOCOL  /////////////////////////////////
 127:/home/xingli/share/LiteOS_Lab/link_main.c **** #ifdef CONFIG_COAP_AL_ENABLE
 128:/home/xingli/share/LiteOS_Lab/link_main.c **** #include "coap_al.h"
 129:/home/xingli/share/LiteOS_Lab/link_main.c ****     (void)coap_al_init();
 130:/home/xingli/share/LiteOS_Lab/link_main.c **** #endif
 131:/home/xingli/share/LiteOS_Lab/link_main.c **** 
 132:/home/xingli/share/LiteOS_Lab/link_main.c **** // ////////////////////////  LWM2M PROTOCOL  /////////////////////////////////
 133:/home/xingli/share/LiteOS_Lab/link_main.c **** #ifdef CONFIG_LWM2M_AL_ENABLE
 134:/home/xingli/share/LiteOS_Lab/link_main.c **** #include "lwm2m_al.h"
 135:/home/xingli/share/LiteOS_Lab/link_main.c ****     (void)lwm2m_al_init();
 136:/home/xingli/share/LiteOS_Lab/link_main.c **** #endif
 137:/home/xingli/share/LiteOS_Lab/link_main.c **** 
 138:/home/xingli/share/LiteOS_Lab/link_main.c **** // ////////////////////////  OC MQTT  //////////////////////////////////
 139:/home/xingli/share/LiteOS_Lab/link_main.c **** #ifdef CONFIG_OCMQTT_ENABLE
 140:/home/xingli/share/LiteOS_Lab/link_main.c **** #include "oc_mqtt_al.h"
 141:/home/xingli/share/LiteOS_Lab/link_main.c ****     (void)oc_mqtt_init();
GAS LISTING /tmp/ccrtok3i.s 			page 7


 152              		.loc 1 141 11
 153 00ca E8000000 		call	oc_mqtt_init@PLT
 153      00
 142:/home/xingli/share/LiteOS_Lab/link_main.c **** #endif
 143:/home/xingli/share/LiteOS_Lab/link_main.c **** 
 144:/home/xingli/share/LiteOS_Lab/link_main.c **** // //////////////////////////  OC LWM2M /////////////////////////////////////////
 145:/home/xingli/share/LiteOS_Lab/link_main.c **** #ifdef CONFIG_OCLWM2M_ENABLE
 146:/home/xingli/share/LiteOS_Lab/link_main.c **** #include "oc_lwm2m_al.h"
 147:/home/xingli/share/LiteOS_Lab/link_main.c ****     oc_lwm2m_init();
 148:/home/xingli/share/LiteOS_Lab/link_main.c **** #endif
 149:/home/xingli/share/LiteOS_Lab/link_main.c **** 
 150:/home/xingli/share/LiteOS_Lab/link_main.c **** // //////////////////////////  OC COAP //////////////////////////////////////////
 151:/home/xingli/share/LiteOS_Lab/link_main.c **** #ifdef CONFIG_OCCOAP_ENABLE
 152:/home/xingli/share/LiteOS_Lab/link_main.c **** #include "oc_coap_al.h"
 153:/home/xingli/share/LiteOS_Lab/link_main.c ****     oc_coap_init();
 154:/home/xingli/share/LiteOS_Lab/link_main.c **** #endif
 155:/home/xingli/share/LiteOS_Lab/link_main.c **** 
 156:/home/xingli/share/LiteOS_Lab/link_main.c **** // //////////////////////////  AUTO TEST ////////////////////////////////////////
 157:/home/xingli/share/LiteOS_Lab/link_main.c **** #ifdef CONFIG_AUTO_TEST
 158:/home/xingli/share/LiteOS_Lab/link_main.c **** #include "test_case.h"
 159:/home/xingli/share/LiteOS_Lab/link_main.c ****     autotest_start();
 160:/home/xingli/share/LiteOS_Lab/link_main.c **** #endif
 161:/home/xingli/share/LiteOS_Lab/link_main.c **** 
 162:/home/xingli/share/LiteOS_Lab/link_main.c **** // //////////////////////////  LINK DEMO ////////////////////////////////////////
 163:/home/xingli/share/LiteOS_Lab/link_main.c **** #ifdef CONFIG_LINKDEMO_ENABLE
 164:/home/xingli/share/LiteOS_Lab/link_main.c ****     extern int standard_app_demo_main(void);
 165:/home/xingli/share/LiteOS_Lab/link_main.c ****     (void)standard_app_demo_main();
 166:/home/xingli/share/LiteOS_Lab/link_main.c **** #endif
 167:/home/xingli/share/LiteOS_Lab/link_main.c **** 
 168:/home/xingli/share/LiteOS_Lab/link_main.c ****     return 0;
 154              		.loc 1 168 12
 155 00cf B8000000 		movl	$0, %eax
 155      00
 156              	.L8:
 169:/home/xingli/share/LiteOS_Lab/link_main.c **** }
 157              		.loc 1 169 1 discriminator 1
 158 00d4 488B55E8 		movq	-24(%rbp), %rdx
 159 00d8 64483314 		xorq	%fs:40, %rdx
 159      25280000 
 159      00
 160 00e1 7405     		je	.L9
 161              		.loc 1 169 1 is_stmt 0
 162 00e3 E8000000 		call	__stack_chk_fail@PLT
 162      00
 163              	.L9:
 164 00e8 4883C430 		addq	$48, %rsp
 165 00ec 5B       		popq	%rbx
 166 00ed 415C     		popq	%r12
 167 00ef 5D       		popq	%rbp
 168              	.LCFI5:
 169              		.cfi_def_cfa 7, 8
 170 00f0 C3       		ret
 171              		.cfi_endproc
 172              	.LFE1:
 174              		.section	.rodata.__FUNCTION__.2522,"a"
 175              		.align 8
 178              	__FUNCTION__.2522:
GAS LISTING /tmp/ccrtok3i.s 			page 8


 179 0000 6C696E6B 		.string	"link_main"
 179      5F6D6169 
 179      6E00
 180              		.text
 181              	.Letext0:
 182              		.file 2 "/usr/lib/gcc/x86_64-linux-gnu/9/include/stddef.h"
 183              		.file 3 "/usr/include/x86_64-linux-gnu/bits/types.h"
 184              		.file 4 "/usr/include/x86_64-linux-gnu/bits/types/struct_FILE.h"
 185              		.file 5 "/usr/include/x86_64-linux-gnu/bits/types/FILE.h"
 186              		.file 6 "/usr/include/stdio.h"
 187              		.file 7 "/usr/include/x86_64-linux-gnu/bits/sys_errlist.h"
 188              		.file 8 "/usr/include/x86_64-linux-gnu/bits/stdint-uintn.h"
 189              		.file 9 "/home/xingli/share/LiteOS_Lab/cJSON/cJSON.h"
 190              		.file 10 "/usr/include/string.h"
 191              		.file 11 "/usr/include/x86_64-linux-gnu/bits/types/__locale_t.h"
 192              		.file 12 "/usr/include/x86_64-linux-gnu/bits/types/locale_t.h"
 193              		.file 13 "/usr/include/strings.h"
 194              		.file 14 "/usr/include/x86_64-linux-gnu/bits/types/__sigset_t.h"
 195              		.file 15 "/usr/include/x86_64-linux-gnu/bits/types/struct_timeval.h"
 196              		.file 16 "/usr/include/x86_64-linux-gnu/bits/types/struct_timespec.h"
 197              		.file 17 "/usr/include/x86_64-linux-gnu/sys/select.h"
 198              		.file 18 "/home/xingli/share/LiteOS_Lab/inc/sal_types.h"
 199              		.file 19 "/home/xingli/share/LiteOS_Lab/inc/sal.h"
 200              		.file 20 "/home/xingli/share/LiteOS_Lab/inc/link_log.h"
 201              		.file 21 "/home/xingli/share/LiteOS_Lab/inc/dtls_al.h"
 202              		.file 22 "/home/xingli/share/LiteOS_Lab/inc/mqtt_al.h"
 203              		.file 23 "/home/xingli/share/LiteOS_Lab/oc/oc_mqtt/oc_mqtt_al/oc_mqtt_al.h"
 7178              		.section	.note.gnu.property,"a"
 7179              		.align 8
 7180 0000 04000000 		.long	 1f - 0f
 7181 0004 10000000 		.long	 4f - 1f
 7182 0008 05000000 		.long	 5
 7183              	0:
 7184 000c 474E5500 		.string	 "GNU"
 7185              	1:
 7186              		.align 8
 7187 0010 020000C0 		.long	 0xc0000002
 7188 0014 04000000 		.long	 3f - 2f
 7189              	2:
 7190 0018 03000000 		.long	 0x3
 7191              	3:
 7192 001c 00000000 		.align 8
 7193              	4:
GAS LISTING /tmp/ccrtok3i.s 			page 9


DEFINED SYMBOLS
                            *ABS*:0000000000000000 link_main.c
     /tmp/ccrtok3i.s:8      .bss.s_link_mainversion:0000000000000000 s_link_mainversion
     /tmp/ccrtok3i.s:20     .text.linkmain_version:0000000000000000 linkmain_version
     /tmp/ccrtok3i.s:71     .bss.s_link_start:0000000000000000 s_link_start
     /tmp/ccrtok3i.s:79     .text.link_main:0000000000000000 link_main
     /tmp/ccrtok3i.s:178    .rodata.__FUNCTION__.2522:0000000000000000 __FUNCTION__.2522

UNDEFINED SYMBOLS
_GLOBAL_OFFSET_TABLE_
snprintf
__stack_chk_fail
osal_init
link_log_level_get
osal_sys_time
link_log_level_name
printf
stdout
fflush
osal_free
osal_malloc
cJSON_InitHooks
link_tcpip_init
dtls_al_init
mqtt_al_init
oc_mqtt_init
