ARM GAS  C:\Users\ADMINI~1\AppData\Local\Temp\ccJYNbqu.s 			page 1


   1              		.cpu cortex-m4
   2              		.eabi_attribute 27, 1
   3              		.eabi_attribute 28, 1
   4              		.eabi_attribute 20, 1
   5              		.eabi_attribute 21, 1
   6              		.eabi_attribute 23, 3
   7              		.eabi_attribute 24, 1
   8              		.eabi_attribute 25, 1
   9              		.eabi_attribute 26, 1
  10              		.eabi_attribute 30, 6
  11              		.eabi_attribute 34, 1
  12              		.eabi_attribute 18, 4
  13              		.file	"i2c.c"
  14              		.text
  15              	.Ltext0:
  16              		.cfi_sections	.debug_frame
  17              		.comm	hi2c1,76,4
  18              		.comm	hi2c2,76,4
  19              		.comm	hi2c3,76,4
  20              		.section	.rodata
  21              		.align	2
  22              	.LC0:
  23 0000 643A2F4C 		.ascii	"d:/LiteOS_Lab/targets/STM32L431VCT6_Bossay/Src/i2c."
  23      6974654F 
  23      535F4C61 
  23      622F7461 
  23      72676574 
  24 0033 6300     		.ascii	"c\000"
  25              		.section	.text.MX_I2C1_Init,"ax",%progbits
  26              		.align	1
  27              		.global	MX_I2C1_Init
  28              		.arch armv7e-m
  29              		.syntax unified
  30              		.thumb
  31              		.thumb_func
  32              		.fpu fpv4-sp-d16
  34              	MX_I2C1_Init:
  35              	.LFB287:
  36              		.file 1 "d:/LiteOS_Lab/targets/STM32L431VCT6_Bossay/Src/i2c.c"
   1:d:/LiteOS_Lab/targets/STM32L431VCT6_Bossay/Src\i2c.c **** /**
   2:d:/LiteOS_Lab/targets/STM32L431VCT6_Bossay/Src\i2c.c ****   ******************************************************************************
   3:d:/LiteOS_Lab/targets/STM32L431VCT6_Bossay/Src\i2c.c ****   * File Name          : I2C.c
   4:d:/LiteOS_Lab/targets/STM32L431VCT6_Bossay/Src\i2c.c ****   * Description        : This file provides code for the configuration
   5:d:/LiteOS_Lab/targets/STM32L431VCT6_Bossay/Src\i2c.c ****   *                      of the I2C instances.
   6:d:/LiteOS_Lab/targets/STM32L431VCT6_Bossay/Src\i2c.c ****   ******************************************************************************
   7:d:/LiteOS_Lab/targets/STM32L431VCT6_Bossay/Src\i2c.c ****   ** This notice applies to any and all portions of this file
   8:d:/LiteOS_Lab/targets/STM32L431VCT6_Bossay/Src\i2c.c ****   * that are not between comment pairs USER CODE BEGIN and
   9:d:/LiteOS_Lab/targets/STM32L431VCT6_Bossay/Src\i2c.c ****   * USER CODE END. Other portions of this file, whether 
  10:d:/LiteOS_Lab/targets/STM32L431VCT6_Bossay/Src\i2c.c ****   * inserted by the user or by software development tools
  11:d:/LiteOS_Lab/targets/STM32L431VCT6_Bossay/Src\i2c.c ****   * are owned by their respective copyright owners.
  12:d:/LiteOS_Lab/targets/STM32L431VCT6_Bossay/Src\i2c.c ****   *
  13:d:/LiteOS_Lab/targets/STM32L431VCT6_Bossay/Src\i2c.c ****   * COPYRIGHT(c) 2019 STMicroelectronics
  14:d:/LiteOS_Lab/targets/STM32L431VCT6_Bossay/Src\i2c.c ****   *
  15:d:/LiteOS_Lab/targets/STM32L431VCT6_Bossay/Src\i2c.c ****   * Redistribution and use in source and binary forms, with or without modification,
  16:d:/LiteOS_Lab/targets/STM32L431VCT6_Bossay/Src\i2c.c ****   * are permitted provided that the following conditions are met:
  17:d:/LiteOS_Lab/targets/STM32L431VCT6_Bossay/Src\i2c.c ****   *   1. Redistributions of source code must retain the above copyright notice,
  18:d:/LiteOS_Lab/targets/STM32L431VCT6_Bossay/Src\i2c.c ****   *      this list of conditions and the following disclaimer.
ARM GAS  C:\Users\ADMINI~1\AppData\Local\Temp\ccJYNbqu.s 			page 2


  19:d:/LiteOS_Lab/targets/STM32L431VCT6_Bossay/Src\i2c.c ****   *   2. Redistributions in binary form must reproduce the above copyright notice,
  20:d:/LiteOS_Lab/targets/STM32L431VCT6_Bossay/Src\i2c.c ****   *      this list of conditions and the following disclaimer in the documentation
  21:d:/LiteOS_Lab/targets/STM32L431VCT6_Bossay/Src\i2c.c ****   *      and/or other materials provided with the distribution.
  22:d:/LiteOS_Lab/targets/STM32L431VCT6_Bossay/Src\i2c.c ****   *   3. Neither the name of STMicroelectronics nor the names of its contributors
  23:d:/LiteOS_Lab/targets/STM32L431VCT6_Bossay/Src\i2c.c ****   *      may be used to endorse or promote products derived from this software
  24:d:/LiteOS_Lab/targets/STM32L431VCT6_Bossay/Src\i2c.c ****   *      without specific prior written permission.
  25:d:/LiteOS_Lab/targets/STM32L431VCT6_Bossay/Src\i2c.c ****   *
  26:d:/LiteOS_Lab/targets/STM32L431VCT6_Bossay/Src\i2c.c ****   * THIS SOFTWARE IS PROVIDED BY THE COPYRIGHT HOLDERS AND CONTRIBUTORS "AS IS"
  27:d:/LiteOS_Lab/targets/STM32L431VCT6_Bossay/Src\i2c.c ****   * AND ANY EXPRESS OR IMPLIED WARRANTIES, INCLUDING, BUT NOT LIMITED TO, THE
  28:d:/LiteOS_Lab/targets/STM32L431VCT6_Bossay/Src\i2c.c ****   * IMPLIED WARRANTIES OF MERCHANTABILITY AND FITNESS FOR A PARTICULAR PURPOSE ARE
  29:d:/LiteOS_Lab/targets/STM32L431VCT6_Bossay/Src\i2c.c ****   * DISCLAIMED. IN NO EVENT SHALL THE COPYRIGHT HOLDER OR CONTRIBUTORS BE LIABLE
  30:d:/LiteOS_Lab/targets/STM32L431VCT6_Bossay/Src\i2c.c ****   * FOR ANY DIRECT, INDIRECT, INCIDENTAL, SPECIAL, EXEMPLARY, OR CONSEQUENTIAL
  31:d:/LiteOS_Lab/targets/STM32L431VCT6_Bossay/Src\i2c.c ****   * DAMAGES (INCLUDING, BUT NOT LIMITED TO, PROCUREMENT OF SUBSTITUTE GOODS OR
  32:d:/LiteOS_Lab/targets/STM32L431VCT6_Bossay/Src\i2c.c ****   * SERVICES; LOSS OF USE, DATA, OR PROFITS; OR BUSINESS INTERRUPTION) HOWEVER
  33:d:/LiteOS_Lab/targets/STM32L431VCT6_Bossay/Src\i2c.c ****   * CAUSED AND ON ANY THEORY OF LIABILITY, WHETHER IN CONTRACT, STRICT LIABILITY,
  34:d:/LiteOS_Lab/targets/STM32L431VCT6_Bossay/Src\i2c.c ****   * OR TORT (INCLUDING NEGLIGENCE OR OTHERWISE) ARISING IN ANY WAY OUT OF THE USE
  35:d:/LiteOS_Lab/targets/STM32L431VCT6_Bossay/Src\i2c.c ****   * OF THIS SOFTWARE, EVEN IF ADVISED OF THE POSSIBILITY OF SUCH DAMAGE.
  36:d:/LiteOS_Lab/targets/STM32L431VCT6_Bossay/Src\i2c.c ****   *
  37:d:/LiteOS_Lab/targets/STM32L431VCT6_Bossay/Src\i2c.c ****   ******************************************************************************
  38:d:/LiteOS_Lab/targets/STM32L431VCT6_Bossay/Src\i2c.c ****   */
  39:d:/LiteOS_Lab/targets/STM32L431VCT6_Bossay/Src\i2c.c **** 
  40:d:/LiteOS_Lab/targets/STM32L431VCT6_Bossay/Src\i2c.c **** /* Includes ------------------------------------------------------------------*/
  41:d:/LiteOS_Lab/targets/STM32L431VCT6_Bossay/Src\i2c.c **** #include "i2c.h"
  42:d:/LiteOS_Lab/targets/STM32L431VCT6_Bossay/Src\i2c.c **** 
  43:d:/LiteOS_Lab/targets/STM32L431VCT6_Bossay/Src\i2c.c **** #include "gpio.h"
  44:d:/LiteOS_Lab/targets/STM32L431VCT6_Bossay/Src\i2c.c **** 
  45:d:/LiteOS_Lab/targets/STM32L431VCT6_Bossay/Src\i2c.c **** /* USER CODE BEGIN 0 */
  46:d:/LiteOS_Lab/targets/STM32L431VCT6_Bossay/Src\i2c.c **** 
  47:d:/LiteOS_Lab/targets/STM32L431VCT6_Bossay/Src\i2c.c **** /* USER CODE END 0 */
  48:d:/LiteOS_Lab/targets/STM32L431VCT6_Bossay/Src\i2c.c **** 
  49:d:/LiteOS_Lab/targets/STM32L431VCT6_Bossay/Src\i2c.c **** I2C_HandleTypeDef hi2c1;
  50:d:/LiteOS_Lab/targets/STM32L431VCT6_Bossay/Src\i2c.c **** I2C_HandleTypeDef hi2c2;
  51:d:/LiteOS_Lab/targets/STM32L431VCT6_Bossay/Src\i2c.c **** I2C_HandleTypeDef hi2c3;
  52:d:/LiteOS_Lab/targets/STM32L431VCT6_Bossay/Src\i2c.c **** 
  53:d:/LiteOS_Lab/targets/STM32L431VCT6_Bossay/Src\i2c.c **** /* I2C1 init function */
  54:d:/LiteOS_Lab/targets/STM32L431VCT6_Bossay/Src\i2c.c **** void MX_I2C1_Init(void)
  55:d:/LiteOS_Lab/targets/STM32L431VCT6_Bossay/Src\i2c.c **** {
  37              		.loc 1 55 1
  38              		.cfi_startproc
  39              		@ args = 0, pretend = 0, frame = 0
  40              		@ frame_needed = 1, uses_anonymous_args = 0
  41 0000 80B5     		push	{r7, lr}
  42              	.LCFI0:
  43              		.cfi_def_cfa_offset 8
  44              		.cfi_offset 7, -8
  45              		.cfi_offset 14, -4
  46 0002 00AF     		add	r7, sp, #0
  47              	.LCFI1:
  48              		.cfi_def_cfa_register 7
  56:d:/LiteOS_Lab/targets/STM32L431VCT6_Bossay/Src\i2c.c **** 
  57:d:/LiteOS_Lab/targets/STM32L431VCT6_Bossay/Src\i2c.c ****   hi2c1.Instance = I2C1;
  49              		.loc 1 57 18
  50 0004 1E4B     		ldr	r3, .L6
  51 0006 1F4A     		ldr	r2, .L6+4
  52 0008 1A60     		str	r2, [r3]
  58:d:/LiteOS_Lab/targets/STM32L431VCT6_Bossay/Src\i2c.c ****   hi2c1.Init.Timing = 0x10909CEC;
  53              		.loc 1 58 21
ARM GAS  C:\Users\ADMINI~1\AppData\Local\Temp\ccJYNbqu.s 			page 3


  54 000a 1D4B     		ldr	r3, .L6
  55 000c 1E4A     		ldr	r2, .L6+8
  56 000e 5A60     		str	r2, [r3, #4]
  59:d:/LiteOS_Lab/targets/STM32L431VCT6_Bossay/Src\i2c.c ****   hi2c1.Init.OwnAddress1 = 0;
  57              		.loc 1 59 26
  58 0010 1B4B     		ldr	r3, .L6
  59 0012 0022     		movs	r2, #0
  60 0014 9A60     		str	r2, [r3, #8]
  60:d:/LiteOS_Lab/targets/STM32L431VCT6_Bossay/Src\i2c.c ****   hi2c1.Init.AddressingMode = I2C_ADDRESSINGMODE_7BIT;
  61              		.loc 1 60 29
  62 0016 1A4B     		ldr	r3, .L6
  63 0018 0122     		movs	r2, #1
  64 001a DA60     		str	r2, [r3, #12]
  61:d:/LiteOS_Lab/targets/STM32L431VCT6_Bossay/Src\i2c.c ****   hi2c1.Init.DualAddressMode = I2C_DUALADDRESS_DISABLE;
  65              		.loc 1 61 30
  66 001c 184B     		ldr	r3, .L6
  67 001e 0022     		movs	r2, #0
  68 0020 1A61     		str	r2, [r3, #16]
  62:d:/LiteOS_Lab/targets/STM32L431VCT6_Bossay/Src\i2c.c ****   hi2c1.Init.OwnAddress2 = 0;
  69              		.loc 1 62 26
  70 0022 174B     		ldr	r3, .L6
  71 0024 0022     		movs	r2, #0
  72 0026 5A61     		str	r2, [r3, #20]
  63:d:/LiteOS_Lab/targets/STM32L431VCT6_Bossay/Src\i2c.c ****   hi2c1.Init.OwnAddress2Masks = I2C_OA2_NOMASK;
  73              		.loc 1 63 31
  74 0028 154B     		ldr	r3, .L6
  75 002a 0022     		movs	r2, #0
  76 002c 9A61     		str	r2, [r3, #24]
  64:d:/LiteOS_Lab/targets/STM32L431VCT6_Bossay/Src\i2c.c ****   hi2c1.Init.GeneralCallMode = I2C_GENERALCALL_DISABLE;
  77              		.loc 1 64 30
  78 002e 144B     		ldr	r3, .L6
  79 0030 0022     		movs	r2, #0
  80 0032 DA61     		str	r2, [r3, #28]
  65:d:/LiteOS_Lab/targets/STM32L431VCT6_Bossay/Src\i2c.c ****   hi2c1.Init.NoStretchMode = I2C_NOSTRETCH_DISABLE;
  81              		.loc 1 65 28
  82 0034 124B     		ldr	r3, .L6
  83 0036 0022     		movs	r2, #0
  84 0038 1A62     		str	r2, [r3, #32]
  66:d:/LiteOS_Lab/targets/STM32L431VCT6_Bossay/Src\i2c.c ****   if (HAL_I2C_Init(&hi2c1) != HAL_OK)
  85              		.loc 1 66 7
  86 003a 1148     		ldr	r0, .L6
  87 003c FFF7FEFF 		bl	HAL_I2C_Init
  88 0040 0346     		mov	r3, r0
  89              		.loc 1 66 6
  90 0042 002B     		cmp	r3, #0
  91 0044 03D0     		beq	.L2
  67:d:/LiteOS_Lab/targets/STM32L431VCT6_Bossay/Src\i2c.c ****   {
  68:d:/LiteOS_Lab/targets/STM32L431VCT6_Bossay/Src\i2c.c ****     _Error_Handler(__FILE__, __LINE__);
  92              		.loc 1 68 5
  93 0046 4421     		movs	r1, #68
  94 0048 1048     		ldr	r0, .L6+12
  95 004a FFF7FEFF 		bl	_Error_Handler
  96              	.L2:
  69:d:/LiteOS_Lab/targets/STM32L431VCT6_Bossay/Src\i2c.c ****   }
  70:d:/LiteOS_Lab/targets/STM32L431VCT6_Bossay/Src\i2c.c **** 
  71:d:/LiteOS_Lab/targets/STM32L431VCT6_Bossay/Src\i2c.c ****     /**Configure Analogue filter 
  72:d:/LiteOS_Lab/targets/STM32L431VCT6_Bossay/Src\i2c.c ****     */
ARM GAS  C:\Users\ADMINI~1\AppData\Local\Temp\ccJYNbqu.s 			page 4


  73:d:/LiteOS_Lab/targets/STM32L431VCT6_Bossay/Src\i2c.c ****   if (HAL_I2CEx_ConfigAnalogFilter(&hi2c1, I2C_ANALOGFILTER_ENABLE) != HAL_OK)
  97              		.loc 1 73 7
  98 004e 0021     		movs	r1, #0
  99 0050 0B48     		ldr	r0, .L6
 100 0052 FFF7FEFF 		bl	HAL_I2CEx_ConfigAnalogFilter
 101 0056 0346     		mov	r3, r0
 102              		.loc 1 73 6
 103 0058 002B     		cmp	r3, #0
 104 005a 03D0     		beq	.L3
  74:d:/LiteOS_Lab/targets/STM32L431VCT6_Bossay/Src\i2c.c ****   {
  75:d:/LiteOS_Lab/targets/STM32L431VCT6_Bossay/Src\i2c.c ****     _Error_Handler(__FILE__, __LINE__);
 105              		.loc 1 75 5
 106 005c 4B21     		movs	r1, #75
 107 005e 0B48     		ldr	r0, .L6+12
 108 0060 FFF7FEFF 		bl	_Error_Handler
 109              	.L3:
  76:d:/LiteOS_Lab/targets/STM32L431VCT6_Bossay/Src\i2c.c ****   }
  77:d:/LiteOS_Lab/targets/STM32L431VCT6_Bossay/Src\i2c.c **** 
  78:d:/LiteOS_Lab/targets/STM32L431VCT6_Bossay/Src\i2c.c ****     /**Configure Digital filter 
  79:d:/LiteOS_Lab/targets/STM32L431VCT6_Bossay/Src\i2c.c ****     */
  80:d:/LiteOS_Lab/targets/STM32L431VCT6_Bossay/Src\i2c.c ****   if (HAL_I2CEx_ConfigDigitalFilter(&hi2c1, 0) != HAL_OK)
 110              		.loc 1 80 7
 111 0064 0021     		movs	r1, #0
 112 0066 0648     		ldr	r0, .L6
 113 0068 FFF7FEFF 		bl	HAL_I2CEx_ConfigDigitalFilter
 114 006c 0346     		mov	r3, r0
 115              		.loc 1 80 6
 116 006e 002B     		cmp	r3, #0
 117 0070 03D0     		beq	.L5
  81:d:/LiteOS_Lab/targets/STM32L431VCT6_Bossay/Src\i2c.c ****   {
  82:d:/LiteOS_Lab/targets/STM32L431VCT6_Bossay/Src\i2c.c ****     _Error_Handler(__FILE__, __LINE__);
 118              		.loc 1 82 5
 119 0072 5221     		movs	r1, #82
 120 0074 0548     		ldr	r0, .L6+12
 121 0076 FFF7FEFF 		bl	_Error_Handler
 122              	.L5:
  83:d:/LiteOS_Lab/targets/STM32L431VCT6_Bossay/Src\i2c.c ****   }
  84:d:/LiteOS_Lab/targets/STM32L431VCT6_Bossay/Src\i2c.c **** 
  85:d:/LiteOS_Lab/targets/STM32L431VCT6_Bossay/Src\i2c.c **** }
 123              		.loc 1 85 1
 124 007a 00BF     		nop
 125 007c 80BD     		pop	{r7, pc}
 126              	.L7:
 127 007e 00BF     		.align	2
 128              	.L6:
 129 0080 00000000 		.word	hi2c1
 130 0084 00540040 		.word	1073763328
 131 0088 EC9C9010 		.word	277912812
 132 008c 00000000 		.word	.LC0
 133              		.cfi_endproc
 134              	.LFE287:
 136              		.section	.text.MX_I2C2_Init,"ax",%progbits
 137              		.align	1
 138              		.global	MX_I2C2_Init
 139              		.syntax unified
 140              		.thumb
 141              		.thumb_func
ARM GAS  C:\Users\ADMINI~1\AppData\Local\Temp\ccJYNbqu.s 			page 5


 142              		.fpu fpv4-sp-d16
 144              	MX_I2C2_Init:
 145              	.LFB288:
  86:d:/LiteOS_Lab/targets/STM32L431VCT6_Bossay/Src\i2c.c **** /* I2C2 init function */
  87:d:/LiteOS_Lab/targets/STM32L431VCT6_Bossay/Src\i2c.c **** void MX_I2C2_Init(void)
  88:d:/LiteOS_Lab/targets/STM32L431VCT6_Bossay/Src\i2c.c **** {
 146              		.loc 1 88 1
 147              		.cfi_startproc
 148              		@ args = 0, pretend = 0, frame = 0
 149              		@ frame_needed = 1, uses_anonymous_args = 0
 150 0000 80B5     		push	{r7, lr}
 151              	.LCFI2:
 152              		.cfi_def_cfa_offset 8
 153              		.cfi_offset 7, -8
 154              		.cfi_offset 14, -4
 155 0002 00AF     		add	r7, sp, #0
 156              	.LCFI3:
 157              		.cfi_def_cfa_register 7
  89:d:/LiteOS_Lab/targets/STM32L431VCT6_Bossay/Src\i2c.c **** 
  90:d:/LiteOS_Lab/targets/STM32L431VCT6_Bossay/Src\i2c.c ****   hi2c2.Instance = I2C2;
 158              		.loc 1 90 18
 159 0004 1E4B     		ldr	r3, .L13
 160 0006 1F4A     		ldr	r2, .L13+4
 161 0008 1A60     		str	r2, [r3]
  91:d:/LiteOS_Lab/targets/STM32L431VCT6_Bossay/Src\i2c.c ****   hi2c2.Init.Timing = 0x10909CEC;
 162              		.loc 1 91 21
 163 000a 1D4B     		ldr	r3, .L13
 164 000c 1E4A     		ldr	r2, .L13+8
 165 000e 5A60     		str	r2, [r3, #4]
  92:d:/LiteOS_Lab/targets/STM32L431VCT6_Bossay/Src\i2c.c ****   hi2c2.Init.OwnAddress1 = 0;
 166              		.loc 1 92 26
 167 0010 1B4B     		ldr	r3, .L13
 168 0012 0022     		movs	r2, #0
 169 0014 9A60     		str	r2, [r3, #8]
  93:d:/LiteOS_Lab/targets/STM32L431VCT6_Bossay/Src\i2c.c ****   hi2c2.Init.AddressingMode = I2C_ADDRESSINGMODE_7BIT;
 170              		.loc 1 93 29
 171 0016 1A4B     		ldr	r3, .L13
 172 0018 0122     		movs	r2, #1
 173 001a DA60     		str	r2, [r3, #12]
  94:d:/LiteOS_Lab/targets/STM32L431VCT6_Bossay/Src\i2c.c ****   hi2c2.Init.DualAddressMode = I2C_DUALADDRESS_DISABLE;
 174              		.loc 1 94 30
 175 001c 184B     		ldr	r3, .L13
 176 001e 0022     		movs	r2, #0
 177 0020 1A61     		str	r2, [r3, #16]
  95:d:/LiteOS_Lab/targets/STM32L431VCT6_Bossay/Src\i2c.c ****   hi2c2.Init.OwnAddress2 = 0;
 178              		.loc 1 95 26
 179 0022 174B     		ldr	r3, .L13
 180 0024 0022     		movs	r2, #0
 181 0026 5A61     		str	r2, [r3, #20]
  96:d:/LiteOS_Lab/targets/STM32L431VCT6_Bossay/Src\i2c.c ****   hi2c2.Init.OwnAddress2Masks = I2C_OA2_NOMASK;
 182              		.loc 1 96 31
 183 0028 154B     		ldr	r3, .L13
 184 002a 0022     		movs	r2, #0
 185 002c 9A61     		str	r2, [r3, #24]
  97:d:/LiteOS_Lab/targets/STM32L431VCT6_Bossay/Src\i2c.c ****   hi2c2.Init.GeneralCallMode = I2C_GENERALCALL_DISABLE;
 186              		.loc 1 97 30
 187 002e 144B     		ldr	r3, .L13
ARM GAS  C:\Users\ADMINI~1\AppData\Local\Temp\ccJYNbqu.s 			page 6


 188 0030 0022     		movs	r2, #0
 189 0032 DA61     		str	r2, [r3, #28]
  98:d:/LiteOS_Lab/targets/STM32L431VCT6_Bossay/Src\i2c.c ****   hi2c2.Init.NoStretchMode = I2C_NOSTRETCH_DISABLE;
 190              		.loc 1 98 28
 191 0034 124B     		ldr	r3, .L13
 192 0036 0022     		movs	r2, #0
 193 0038 1A62     		str	r2, [r3, #32]
  99:d:/LiteOS_Lab/targets/STM32L431VCT6_Bossay/Src\i2c.c ****   if (HAL_I2C_Init(&hi2c2) != HAL_OK)
 194              		.loc 1 99 7
 195 003a 1148     		ldr	r0, .L13
 196 003c FFF7FEFF 		bl	HAL_I2C_Init
 197 0040 0346     		mov	r3, r0
 198              		.loc 1 99 6
 199 0042 002B     		cmp	r3, #0
 200 0044 03D0     		beq	.L9
 100:d:/LiteOS_Lab/targets/STM32L431VCT6_Bossay/Src\i2c.c ****   {
 101:d:/LiteOS_Lab/targets/STM32L431VCT6_Bossay/Src\i2c.c ****     _Error_Handler(__FILE__, __LINE__);
 201              		.loc 1 101 5
 202 0046 6521     		movs	r1, #101
 203 0048 1048     		ldr	r0, .L13+12
 204 004a FFF7FEFF 		bl	_Error_Handler
 205              	.L9:
 102:d:/LiteOS_Lab/targets/STM32L431VCT6_Bossay/Src\i2c.c ****   }
 103:d:/LiteOS_Lab/targets/STM32L431VCT6_Bossay/Src\i2c.c **** 
 104:d:/LiteOS_Lab/targets/STM32L431VCT6_Bossay/Src\i2c.c ****     /**Configure Analogue filter 
 105:d:/LiteOS_Lab/targets/STM32L431VCT6_Bossay/Src\i2c.c ****     */
 106:d:/LiteOS_Lab/targets/STM32L431VCT6_Bossay/Src\i2c.c ****   if (HAL_I2CEx_ConfigAnalogFilter(&hi2c2, I2C_ANALOGFILTER_ENABLE) != HAL_OK)
 206              		.loc 1 106 7
 207 004e 0021     		movs	r1, #0
 208 0050 0B48     		ldr	r0, .L13
 209 0052 FFF7FEFF 		bl	HAL_I2CEx_ConfigAnalogFilter
 210 0056 0346     		mov	r3, r0
 211              		.loc 1 106 6
 212 0058 002B     		cmp	r3, #0
 213 005a 03D0     		beq	.L10
 107:d:/LiteOS_Lab/targets/STM32L431VCT6_Bossay/Src\i2c.c ****   {
 108:d:/LiteOS_Lab/targets/STM32L431VCT6_Bossay/Src\i2c.c ****     _Error_Handler(__FILE__, __LINE__);
 214              		.loc 1 108 5
 215 005c 6C21     		movs	r1, #108
 216 005e 0B48     		ldr	r0, .L13+12
 217 0060 FFF7FEFF 		bl	_Error_Handler
 218              	.L10:
 109:d:/LiteOS_Lab/targets/STM32L431VCT6_Bossay/Src\i2c.c ****   }
 110:d:/LiteOS_Lab/targets/STM32L431VCT6_Bossay/Src\i2c.c **** 
 111:d:/LiteOS_Lab/targets/STM32L431VCT6_Bossay/Src\i2c.c ****     /**Configure Digital filter 
 112:d:/LiteOS_Lab/targets/STM32L431VCT6_Bossay/Src\i2c.c ****     */
 113:d:/LiteOS_Lab/targets/STM32L431VCT6_Bossay/Src\i2c.c ****   if (HAL_I2CEx_ConfigDigitalFilter(&hi2c2, 0) != HAL_OK)
 219              		.loc 1 113 7
 220 0064 0021     		movs	r1, #0
 221 0066 0648     		ldr	r0, .L13
 222 0068 FFF7FEFF 		bl	HAL_I2CEx_ConfigDigitalFilter
 223 006c 0346     		mov	r3, r0
 224              		.loc 1 113 6
 225 006e 002B     		cmp	r3, #0
 226 0070 03D0     		beq	.L12
 114:d:/LiteOS_Lab/targets/STM32L431VCT6_Bossay/Src\i2c.c ****   {
 115:d:/LiteOS_Lab/targets/STM32L431VCT6_Bossay/Src\i2c.c ****     _Error_Handler(__FILE__, __LINE__);
ARM GAS  C:\Users\ADMINI~1\AppData\Local\Temp\ccJYNbqu.s 			page 7


 227              		.loc 1 115 5
 228 0072 7321     		movs	r1, #115
 229 0074 0548     		ldr	r0, .L13+12
 230 0076 FFF7FEFF 		bl	_Error_Handler
 231              	.L12:
 116:d:/LiteOS_Lab/targets/STM32L431VCT6_Bossay/Src\i2c.c ****   }
 117:d:/LiteOS_Lab/targets/STM32L431VCT6_Bossay/Src\i2c.c **** 
 118:d:/LiteOS_Lab/targets/STM32L431VCT6_Bossay/Src\i2c.c **** }
 232              		.loc 1 118 1
 233 007a 00BF     		nop
 234 007c 80BD     		pop	{r7, pc}
 235              	.L14:
 236 007e 00BF     		.align	2
 237              	.L13:
 238 0080 00000000 		.word	hi2c2
 239 0084 00580040 		.word	1073764352
 240 0088 EC9C9010 		.word	277912812
 241 008c 00000000 		.word	.LC0
 242              		.cfi_endproc
 243              	.LFE288:
 245              		.section	.text.MX_I2C3_Init,"ax",%progbits
 246              		.align	1
 247              		.global	MX_I2C3_Init
 248              		.syntax unified
 249              		.thumb
 250              		.thumb_func
 251              		.fpu fpv4-sp-d16
 253              	MX_I2C3_Init:
 254              	.LFB289:
 119:d:/LiteOS_Lab/targets/STM32L431VCT6_Bossay/Src\i2c.c **** /* I2C3 init function */
 120:d:/LiteOS_Lab/targets/STM32L431VCT6_Bossay/Src\i2c.c **** void MX_I2C3_Init(void)
 121:d:/LiteOS_Lab/targets/STM32L431VCT6_Bossay/Src\i2c.c **** {
 255              		.loc 1 121 1
 256              		.cfi_startproc
 257              		@ args = 0, pretend = 0, frame = 0
 258              		@ frame_needed = 1, uses_anonymous_args = 0
 259 0000 80B5     		push	{r7, lr}
 260              	.LCFI4:
 261              		.cfi_def_cfa_offset 8
 262              		.cfi_offset 7, -8
 263              		.cfi_offset 14, -4
 264 0002 00AF     		add	r7, sp, #0
 265              	.LCFI5:
 266              		.cfi_def_cfa_register 7
 122:d:/LiteOS_Lab/targets/STM32L431VCT6_Bossay/Src\i2c.c **** 
 123:d:/LiteOS_Lab/targets/STM32L431VCT6_Bossay/Src\i2c.c ****   hi2c3.Instance = I2C3;
 267              		.loc 1 123 18
 268 0004 1E4B     		ldr	r3, .L20
 269 0006 1F4A     		ldr	r2, .L20+4
 270 0008 1A60     		str	r2, [r3]
 124:d:/LiteOS_Lab/targets/STM32L431VCT6_Bossay/Src\i2c.c ****   hi2c3.Init.Timing = 0x10909CEC;
 271              		.loc 1 124 21
 272 000a 1D4B     		ldr	r3, .L20
 273 000c 1E4A     		ldr	r2, .L20+8
 274 000e 5A60     		str	r2, [r3, #4]
 125:d:/LiteOS_Lab/targets/STM32L431VCT6_Bossay/Src\i2c.c ****   hi2c3.Init.OwnAddress1 = 0;
 275              		.loc 1 125 26
ARM GAS  C:\Users\ADMINI~1\AppData\Local\Temp\ccJYNbqu.s 			page 8


 276 0010 1B4B     		ldr	r3, .L20
 277 0012 0022     		movs	r2, #0
 278 0014 9A60     		str	r2, [r3, #8]
 126:d:/LiteOS_Lab/targets/STM32L431VCT6_Bossay/Src\i2c.c ****   hi2c3.Init.AddressingMode = I2C_ADDRESSINGMODE_7BIT;
 279              		.loc 1 126 29
 280 0016 1A4B     		ldr	r3, .L20
 281 0018 0122     		movs	r2, #1
 282 001a DA60     		str	r2, [r3, #12]
 127:d:/LiteOS_Lab/targets/STM32L431VCT6_Bossay/Src\i2c.c ****   hi2c3.Init.DualAddressMode = I2C_DUALADDRESS_DISABLE;
 283              		.loc 1 127 30
 284 001c 184B     		ldr	r3, .L20
 285 001e 0022     		movs	r2, #0
 286 0020 1A61     		str	r2, [r3, #16]
 128:d:/LiteOS_Lab/targets/STM32L431VCT6_Bossay/Src\i2c.c ****   hi2c3.Init.OwnAddress2 = 0;
 287              		.loc 1 128 26
 288 0022 174B     		ldr	r3, .L20
 289 0024 0022     		movs	r2, #0
 290 0026 5A61     		str	r2, [r3, #20]
 129:d:/LiteOS_Lab/targets/STM32L431VCT6_Bossay/Src\i2c.c ****   hi2c3.Init.OwnAddress2Masks = I2C_OA2_NOMASK;
 291              		.loc 1 129 31
 292 0028 154B     		ldr	r3, .L20
 293 002a 0022     		movs	r2, #0
 294 002c 9A61     		str	r2, [r3, #24]
 130:d:/LiteOS_Lab/targets/STM32L431VCT6_Bossay/Src\i2c.c ****   hi2c3.Init.GeneralCallMode = I2C_GENERALCALL_DISABLE;
 295              		.loc 1 130 30
 296 002e 144B     		ldr	r3, .L20
 297 0030 0022     		movs	r2, #0
 298 0032 DA61     		str	r2, [r3, #28]
 131:d:/LiteOS_Lab/targets/STM32L431VCT6_Bossay/Src\i2c.c ****   hi2c3.Init.NoStretchMode = I2C_NOSTRETCH_DISABLE;
 299              		.loc 1 131 28
 300 0034 124B     		ldr	r3, .L20
 301 0036 0022     		movs	r2, #0
 302 0038 1A62     		str	r2, [r3, #32]
 132:d:/LiteOS_Lab/targets/STM32L431VCT6_Bossay/Src\i2c.c ****   if (HAL_I2C_Init(&hi2c3) != HAL_OK)
 303              		.loc 1 132 7
 304 003a 1148     		ldr	r0, .L20
 305 003c FFF7FEFF 		bl	HAL_I2C_Init
 306 0040 0346     		mov	r3, r0
 307              		.loc 1 132 6
 308 0042 002B     		cmp	r3, #0
 309 0044 03D0     		beq	.L16
 133:d:/LiteOS_Lab/targets/STM32L431VCT6_Bossay/Src\i2c.c ****   {
 134:d:/LiteOS_Lab/targets/STM32L431VCT6_Bossay/Src\i2c.c ****     _Error_Handler(__FILE__, __LINE__);
 310              		.loc 1 134 5
 311 0046 8621     		movs	r1, #134
 312 0048 1048     		ldr	r0, .L20+12
 313 004a FFF7FEFF 		bl	_Error_Handler
 314              	.L16:
 135:d:/LiteOS_Lab/targets/STM32L431VCT6_Bossay/Src\i2c.c ****   }
 136:d:/LiteOS_Lab/targets/STM32L431VCT6_Bossay/Src\i2c.c **** 
 137:d:/LiteOS_Lab/targets/STM32L431VCT6_Bossay/Src\i2c.c ****     /**Configure Analogue filter 
 138:d:/LiteOS_Lab/targets/STM32L431VCT6_Bossay/Src\i2c.c ****     */
 139:d:/LiteOS_Lab/targets/STM32L431VCT6_Bossay/Src\i2c.c ****   if (HAL_I2CEx_ConfigAnalogFilter(&hi2c3, I2C_ANALOGFILTER_ENABLE) != HAL_OK)
 315              		.loc 1 139 7
 316 004e 0021     		movs	r1, #0
 317 0050 0B48     		ldr	r0, .L20
 318 0052 FFF7FEFF 		bl	HAL_I2CEx_ConfigAnalogFilter
ARM GAS  C:\Users\ADMINI~1\AppData\Local\Temp\ccJYNbqu.s 			page 9


 319 0056 0346     		mov	r3, r0
 320              		.loc 1 139 6
 321 0058 002B     		cmp	r3, #0
 322 005a 03D0     		beq	.L17
 140:d:/LiteOS_Lab/targets/STM32L431VCT6_Bossay/Src\i2c.c ****   {
 141:d:/LiteOS_Lab/targets/STM32L431VCT6_Bossay/Src\i2c.c ****     _Error_Handler(__FILE__, __LINE__);
 323              		.loc 1 141 5
 324 005c 8D21     		movs	r1, #141
 325 005e 0B48     		ldr	r0, .L20+12
 326 0060 FFF7FEFF 		bl	_Error_Handler
 327              	.L17:
 142:d:/LiteOS_Lab/targets/STM32L431VCT6_Bossay/Src\i2c.c ****   }
 143:d:/LiteOS_Lab/targets/STM32L431VCT6_Bossay/Src\i2c.c **** 
 144:d:/LiteOS_Lab/targets/STM32L431VCT6_Bossay/Src\i2c.c ****     /**Configure Digital filter 
 145:d:/LiteOS_Lab/targets/STM32L431VCT6_Bossay/Src\i2c.c ****     */
 146:d:/LiteOS_Lab/targets/STM32L431VCT6_Bossay/Src\i2c.c ****   if (HAL_I2CEx_ConfigDigitalFilter(&hi2c3, 0) != HAL_OK)
 328              		.loc 1 146 7
 329 0064 0021     		movs	r1, #0
 330 0066 0648     		ldr	r0, .L20
 331 0068 FFF7FEFF 		bl	HAL_I2CEx_ConfigDigitalFilter
 332 006c 0346     		mov	r3, r0
 333              		.loc 1 146 6
 334 006e 002B     		cmp	r3, #0
 335 0070 03D0     		beq	.L19
 147:d:/LiteOS_Lab/targets/STM32L431VCT6_Bossay/Src\i2c.c ****   {
 148:d:/LiteOS_Lab/targets/STM32L431VCT6_Bossay/Src\i2c.c ****     _Error_Handler(__FILE__, __LINE__);
 336              		.loc 1 148 5
 337 0072 9421     		movs	r1, #148
 338 0074 0548     		ldr	r0, .L20+12
 339 0076 FFF7FEFF 		bl	_Error_Handler
 340              	.L19:
 149:d:/LiteOS_Lab/targets/STM32L431VCT6_Bossay/Src\i2c.c ****   }
 150:d:/LiteOS_Lab/targets/STM32L431VCT6_Bossay/Src\i2c.c **** 
 151:d:/LiteOS_Lab/targets/STM32L431VCT6_Bossay/Src\i2c.c **** }
 341              		.loc 1 151 1
 342 007a 00BF     		nop
 343 007c 80BD     		pop	{r7, pc}
 344              	.L21:
 345 007e 00BF     		.align	2
 346              	.L20:
 347 0080 00000000 		.word	hi2c3
 348 0084 005C0040 		.word	1073765376
 349 0088 EC9C9010 		.word	277912812
 350 008c 00000000 		.word	.LC0
 351              		.cfi_endproc
 352              	.LFE289:
 354              		.section	.text.HAL_I2C_MspInit,"ax",%progbits
 355              		.align	1
 356              		.global	HAL_I2C_MspInit
 357              		.syntax unified
 358              		.thumb
 359              		.thumb_func
 360              		.fpu fpv4-sp-d16
 362              	HAL_I2C_MspInit:
 363              	.LFB290:
 152:d:/LiteOS_Lab/targets/STM32L431VCT6_Bossay/Src\i2c.c **** 
 153:d:/LiteOS_Lab/targets/STM32L431VCT6_Bossay/Src\i2c.c **** void HAL_I2C_MspInit(I2C_HandleTypeDef* i2cHandle)
ARM GAS  C:\Users\ADMINI~1\AppData\Local\Temp\ccJYNbqu.s 			page 10


 154:d:/LiteOS_Lab/targets/STM32L431VCT6_Bossay/Src\i2c.c **** {
 364              		.loc 1 154 1
 365              		.cfi_startproc
 366              		@ args = 0, pretend = 0, frame = 40
 367              		@ frame_needed = 1, uses_anonymous_args = 0
 368 0000 80B5     		push	{r7, lr}
 369              	.LCFI6:
 370              		.cfi_def_cfa_offset 8
 371              		.cfi_offset 7, -8
 372              		.cfi_offset 14, -4
 373 0002 8AB0     		sub	sp, sp, #40
 374              	.LCFI7:
 375              		.cfi_def_cfa_offset 48
 376 0004 00AF     		add	r7, sp, #0
 377              	.LCFI8:
 378              		.cfi_def_cfa_register 7
 379 0006 7860     		str	r0, [r7, #4]
 155:d:/LiteOS_Lab/targets/STM32L431VCT6_Bossay/Src\i2c.c **** 
 156:d:/LiteOS_Lab/targets/STM32L431VCT6_Bossay/Src\i2c.c ****   GPIO_InitTypeDef GPIO_InitStruct;
 157:d:/LiteOS_Lab/targets/STM32L431VCT6_Bossay/Src\i2c.c ****   if(i2cHandle->Instance==I2C1)
 380              		.loc 1 157 15
 381 0008 7B68     		ldr	r3, [r7, #4]
 382 000a 1B68     		ldr	r3, [r3]
 383              		.loc 1 157 5
 384 000c 3C4A     		ldr	r2, .L27
 385 000e 9342     		cmp	r3, r2
 386 0010 1CD1     		bne	.L23
 158:d:/LiteOS_Lab/targets/STM32L431VCT6_Bossay/Src\i2c.c ****   {
 159:d:/LiteOS_Lab/targets/STM32L431VCT6_Bossay/Src\i2c.c ****   /* USER CODE BEGIN I2C1_MspInit 0 */
 160:d:/LiteOS_Lab/targets/STM32L431VCT6_Bossay/Src\i2c.c **** 
 161:d:/LiteOS_Lab/targets/STM32L431VCT6_Bossay/Src\i2c.c ****   /* USER CODE END I2C1_MspInit 0 */
 162:d:/LiteOS_Lab/targets/STM32L431VCT6_Bossay/Src\i2c.c ****   
 163:d:/LiteOS_Lab/targets/STM32L431VCT6_Bossay/Src\i2c.c ****     /**I2C1 GPIO Configuration    
 164:d:/LiteOS_Lab/targets/STM32L431VCT6_Bossay/Src\i2c.c ****     PB6     ------> I2C1_SCL
 165:d:/LiteOS_Lab/targets/STM32L431VCT6_Bossay/Src\i2c.c ****     PB7     ------> I2C1_SDA 
 166:d:/LiteOS_Lab/targets/STM32L431VCT6_Bossay/Src\i2c.c ****     */
 167:d:/LiteOS_Lab/targets/STM32L431VCT6_Bossay/Src\i2c.c ****     GPIO_InitStruct.Pin = GPIO_PIN_6|GPIO_PIN_7;
 387              		.loc 1 167 25
 388 0012 C023     		movs	r3, #192
 389 0014 7B61     		str	r3, [r7, #20]
 168:d:/LiteOS_Lab/targets/STM32L431VCT6_Bossay/Src\i2c.c ****     GPIO_InitStruct.Mode = GPIO_MODE_AF_OD;
 390              		.loc 1 168 26
 391 0016 1223     		movs	r3, #18
 392 0018 BB61     		str	r3, [r7, #24]
 169:d:/LiteOS_Lab/targets/STM32L431VCT6_Bossay/Src\i2c.c ****     GPIO_InitStruct.Pull = GPIO_PULLUP;
 393              		.loc 1 169 26
 394 001a 0123     		movs	r3, #1
 395 001c FB61     		str	r3, [r7, #28]
 170:d:/LiteOS_Lab/targets/STM32L431VCT6_Bossay/Src\i2c.c ****     GPIO_InitStruct.Speed = GPIO_SPEED_FREQ_VERY_HIGH;
 396              		.loc 1 170 27
 397 001e 0323     		movs	r3, #3
 398 0020 3B62     		str	r3, [r7, #32]
 171:d:/LiteOS_Lab/targets/STM32L431VCT6_Bossay/Src\i2c.c ****     GPIO_InitStruct.Alternate = GPIO_AF4_I2C1;
 399              		.loc 1 171 31
 400 0022 0423     		movs	r3, #4
 401 0024 7B62     		str	r3, [r7, #36]
 172:d:/LiteOS_Lab/targets/STM32L431VCT6_Bossay/Src\i2c.c ****     HAL_GPIO_Init(GPIOB, &GPIO_InitStruct);
ARM GAS  C:\Users\ADMINI~1\AppData\Local\Temp\ccJYNbqu.s 			page 11


 402              		.loc 1 172 5
 403 0026 07F11403 		add	r3, r7, #20
 404 002a 1946     		mov	r1, r3
 405 002c 3548     		ldr	r0, .L27+4
 406 002e FFF7FEFF 		bl	HAL_GPIO_Init
 407              	.LBB2:
 173:d:/LiteOS_Lab/targets/STM32L431VCT6_Bossay/Src\i2c.c **** 
 174:d:/LiteOS_Lab/targets/STM32L431VCT6_Bossay/Src\i2c.c ****     /* I2C1 clock enable */
 175:d:/LiteOS_Lab/targets/STM32L431VCT6_Bossay/Src\i2c.c ****     __HAL_RCC_I2C1_CLK_ENABLE();
 408              		.loc 1 175 5
 409 0032 354B     		ldr	r3, .L27+8
 410 0034 9B6D     		ldr	r3, [r3, #88]
 411 0036 344A     		ldr	r2, .L27+8
 412 0038 43F40013 		orr	r3, r3, #2097152
 413 003c 9365     		str	r3, [r2, #88]
 414 003e 324B     		ldr	r3, .L27+8
 415 0040 9B6D     		ldr	r3, [r3, #88]
 416 0042 03F40013 		and	r3, r3, #2097152
 417 0046 3B61     		str	r3, [r7, #16]
 418 0048 3B69     		ldr	r3, [r7, #16]
 419              	.LBE2:
 176:d:/LiteOS_Lab/targets/STM32L431VCT6_Bossay/Src\i2c.c ****   /* USER CODE BEGIN I2C1_MspInit 1 */
 177:d:/LiteOS_Lab/targets/STM32L431VCT6_Bossay/Src\i2c.c **** 
 178:d:/LiteOS_Lab/targets/STM32L431VCT6_Bossay/Src\i2c.c ****   /* USER CODE END I2C1_MspInit 1 */
 179:d:/LiteOS_Lab/targets/STM32L431VCT6_Bossay/Src\i2c.c ****   }
 180:d:/LiteOS_Lab/targets/STM32L431VCT6_Bossay/Src\i2c.c ****   else if(i2cHandle->Instance==I2C2)
 181:d:/LiteOS_Lab/targets/STM32L431VCT6_Bossay/Src\i2c.c ****   {
 182:d:/LiteOS_Lab/targets/STM32L431VCT6_Bossay/Src\i2c.c ****   /* USER CODE BEGIN I2C2_MspInit 0 */
 183:d:/LiteOS_Lab/targets/STM32L431VCT6_Bossay/Src\i2c.c **** 
 184:d:/LiteOS_Lab/targets/STM32L431VCT6_Bossay/Src\i2c.c ****   /* USER CODE END I2C2_MspInit 0 */
 185:d:/LiteOS_Lab/targets/STM32L431VCT6_Bossay/Src\i2c.c ****   
 186:d:/LiteOS_Lab/targets/STM32L431VCT6_Bossay/Src\i2c.c ****     /**I2C2 GPIO Configuration    
 187:d:/LiteOS_Lab/targets/STM32L431VCT6_Bossay/Src\i2c.c ****     PB10     ------> I2C2_SCL
 188:d:/LiteOS_Lab/targets/STM32L431VCT6_Bossay/Src\i2c.c ****     PB11     ------> I2C2_SDA 
 189:d:/LiteOS_Lab/targets/STM32L431VCT6_Bossay/Src\i2c.c ****     */
 190:d:/LiteOS_Lab/targets/STM32L431VCT6_Bossay/Src\i2c.c ****     GPIO_InitStruct.Pin = GPIO_PIN_10|GPIO_PIN_11;
 191:d:/LiteOS_Lab/targets/STM32L431VCT6_Bossay/Src\i2c.c ****     GPIO_InitStruct.Mode = GPIO_MODE_AF_OD;
 192:d:/LiteOS_Lab/targets/STM32L431VCT6_Bossay/Src\i2c.c ****     GPIO_InitStruct.Pull = GPIO_PULLUP;
 193:d:/LiteOS_Lab/targets/STM32L431VCT6_Bossay/Src\i2c.c ****     GPIO_InitStruct.Speed = GPIO_SPEED_FREQ_VERY_HIGH;
 194:d:/LiteOS_Lab/targets/STM32L431VCT6_Bossay/Src\i2c.c ****     GPIO_InitStruct.Alternate = GPIO_AF4_I2C2;
 195:d:/LiteOS_Lab/targets/STM32L431VCT6_Bossay/Src\i2c.c ****     HAL_GPIO_Init(GPIOB, &GPIO_InitStruct);
 196:d:/LiteOS_Lab/targets/STM32L431VCT6_Bossay/Src\i2c.c **** 
 197:d:/LiteOS_Lab/targets/STM32L431VCT6_Bossay/Src\i2c.c ****     /* I2C2 clock enable */
 198:d:/LiteOS_Lab/targets/STM32L431VCT6_Bossay/Src\i2c.c ****     __HAL_RCC_I2C2_CLK_ENABLE();
 199:d:/LiteOS_Lab/targets/STM32L431VCT6_Bossay/Src\i2c.c ****   /* USER CODE BEGIN I2C2_MspInit 1 */
 200:d:/LiteOS_Lab/targets/STM32L431VCT6_Bossay/Src\i2c.c **** 
 201:d:/LiteOS_Lab/targets/STM32L431VCT6_Bossay/Src\i2c.c ****   /* USER CODE END I2C2_MspInit 1 */
 202:d:/LiteOS_Lab/targets/STM32L431VCT6_Bossay/Src\i2c.c ****   }
 203:d:/LiteOS_Lab/targets/STM32L431VCT6_Bossay/Src\i2c.c ****   else if(i2cHandle->Instance==I2C3)
 204:d:/LiteOS_Lab/targets/STM32L431VCT6_Bossay/Src\i2c.c ****   {
 205:d:/LiteOS_Lab/targets/STM32L431VCT6_Bossay/Src\i2c.c ****   /* USER CODE BEGIN I2C3_MspInit 0 */
 206:d:/LiteOS_Lab/targets/STM32L431VCT6_Bossay/Src\i2c.c **** 
 207:d:/LiteOS_Lab/targets/STM32L431VCT6_Bossay/Src\i2c.c ****   /* USER CODE END I2C3_MspInit 0 */
 208:d:/LiteOS_Lab/targets/STM32L431VCT6_Bossay/Src\i2c.c ****   
 209:d:/LiteOS_Lab/targets/STM32L431VCT6_Bossay/Src\i2c.c ****     /**I2C3 GPIO Configuration    
 210:d:/LiteOS_Lab/targets/STM32L431VCT6_Bossay/Src\i2c.c ****     PA7     ------> I2C3_SCL
 211:d:/LiteOS_Lab/targets/STM32L431VCT6_Bossay/Src\i2c.c ****     PB4 (NJTRST)     ------> I2C3_SDA 
ARM GAS  C:\Users\ADMINI~1\AppData\Local\Temp\ccJYNbqu.s 			page 12


 212:d:/LiteOS_Lab/targets/STM32L431VCT6_Bossay/Src\i2c.c ****     */
 213:d:/LiteOS_Lab/targets/STM32L431VCT6_Bossay/Src\i2c.c ****     GPIO_InitStruct.Pin = GPIO_PIN_7;
 214:d:/LiteOS_Lab/targets/STM32L431VCT6_Bossay/Src\i2c.c ****     GPIO_InitStruct.Mode = GPIO_MODE_AF_OD;
 215:d:/LiteOS_Lab/targets/STM32L431VCT6_Bossay/Src\i2c.c ****     GPIO_InitStruct.Pull = GPIO_PULLUP;
 216:d:/LiteOS_Lab/targets/STM32L431VCT6_Bossay/Src\i2c.c ****     GPIO_InitStruct.Speed = GPIO_SPEED_FREQ_VERY_HIGH;
 217:d:/LiteOS_Lab/targets/STM32L431VCT6_Bossay/Src\i2c.c ****     GPIO_InitStruct.Alternate = GPIO_AF4_I2C3;
 218:d:/LiteOS_Lab/targets/STM32L431VCT6_Bossay/Src\i2c.c ****     HAL_GPIO_Init(GPIOA, &GPIO_InitStruct);
 219:d:/LiteOS_Lab/targets/STM32L431VCT6_Bossay/Src\i2c.c **** 
 220:d:/LiteOS_Lab/targets/STM32L431VCT6_Bossay/Src\i2c.c ****     GPIO_InitStruct.Pin = GPIO_PIN_4;
 221:d:/LiteOS_Lab/targets/STM32L431VCT6_Bossay/Src\i2c.c ****     GPIO_InitStruct.Mode = GPIO_MODE_AF_OD;
 222:d:/LiteOS_Lab/targets/STM32L431VCT6_Bossay/Src\i2c.c ****     GPIO_InitStruct.Pull = GPIO_PULLUP;
 223:d:/LiteOS_Lab/targets/STM32L431VCT6_Bossay/Src\i2c.c ****     GPIO_InitStruct.Speed = GPIO_SPEED_FREQ_VERY_HIGH;
 224:d:/LiteOS_Lab/targets/STM32L431VCT6_Bossay/Src\i2c.c ****     GPIO_InitStruct.Alternate = GPIO_AF4_I2C3;
 225:d:/LiteOS_Lab/targets/STM32L431VCT6_Bossay/Src\i2c.c ****     HAL_GPIO_Init(GPIOB, &GPIO_InitStruct);
 226:d:/LiteOS_Lab/targets/STM32L431VCT6_Bossay/Src\i2c.c **** 
 227:d:/LiteOS_Lab/targets/STM32L431VCT6_Bossay/Src\i2c.c ****     /* I2C3 clock enable */
 228:d:/LiteOS_Lab/targets/STM32L431VCT6_Bossay/Src\i2c.c ****     __HAL_RCC_I2C3_CLK_ENABLE();
 229:d:/LiteOS_Lab/targets/STM32L431VCT6_Bossay/Src\i2c.c ****   /* USER CODE BEGIN I2C3_MspInit 1 */
 230:d:/LiteOS_Lab/targets/STM32L431VCT6_Bossay/Src\i2c.c **** 
 231:d:/LiteOS_Lab/targets/STM32L431VCT6_Bossay/Src\i2c.c ****   /* USER CODE END I2C3_MspInit 1 */
 232:d:/LiteOS_Lab/targets/STM32L431VCT6_Bossay/Src\i2c.c ****   }
 233:d:/LiteOS_Lab/targets/STM32L431VCT6_Bossay/Src\i2c.c **** }
 420              		.loc 1 233 1
 421 004a 54E0     		b	.L26
 422              	.L23:
 180:d:/LiteOS_Lab/targets/STM32L431VCT6_Bossay/Src\i2c.c ****   {
 423              		.loc 1 180 20
 424 004c 7B68     		ldr	r3, [r7, #4]
 425 004e 1B68     		ldr	r3, [r3]
 180:d:/LiteOS_Lab/targets/STM32L431VCT6_Bossay/Src\i2c.c ****   {
 426              		.loc 1 180 10
 427 0050 2E4A     		ldr	r2, .L27+12
 428 0052 9342     		cmp	r3, r2
 429 0054 1DD1     		bne	.L25
 190:d:/LiteOS_Lab/targets/STM32L431VCT6_Bossay/Src\i2c.c ****     GPIO_InitStruct.Mode = GPIO_MODE_AF_OD;
 430              		.loc 1 190 25
 431 0056 4FF44063 		mov	r3, #3072
 432 005a 7B61     		str	r3, [r7, #20]
 191:d:/LiteOS_Lab/targets/STM32L431VCT6_Bossay/Src\i2c.c ****     GPIO_InitStruct.Pull = GPIO_PULLUP;
 433              		.loc 1 191 26
 434 005c 1223     		movs	r3, #18
 435 005e BB61     		str	r3, [r7, #24]
 192:d:/LiteOS_Lab/targets/STM32L431VCT6_Bossay/Src\i2c.c ****     GPIO_InitStruct.Speed = GPIO_SPEED_FREQ_VERY_HIGH;
 436              		.loc 1 192 26
 437 0060 0123     		movs	r3, #1
 438 0062 FB61     		str	r3, [r7, #28]
 193:d:/LiteOS_Lab/targets/STM32L431VCT6_Bossay/Src\i2c.c ****     GPIO_InitStruct.Alternate = GPIO_AF4_I2C2;
 439              		.loc 1 193 27
 440 0064 0323     		movs	r3, #3
 441 0066 3B62     		str	r3, [r7, #32]
 194:d:/LiteOS_Lab/targets/STM32L431VCT6_Bossay/Src\i2c.c ****     HAL_GPIO_Init(GPIOB, &GPIO_InitStruct);
 442              		.loc 1 194 31
 443 0068 0423     		movs	r3, #4
 444 006a 7B62     		str	r3, [r7, #36]
 195:d:/LiteOS_Lab/targets/STM32L431VCT6_Bossay/Src\i2c.c **** 
 445              		.loc 1 195 5
 446 006c 07F11403 		add	r3, r7, #20
ARM GAS  C:\Users\ADMINI~1\AppData\Local\Temp\ccJYNbqu.s 			page 13


 447 0070 1946     		mov	r1, r3
 448 0072 2448     		ldr	r0, .L27+4
 449 0074 FFF7FEFF 		bl	HAL_GPIO_Init
 450              	.LBB3:
 198:d:/LiteOS_Lab/targets/STM32L431VCT6_Bossay/Src\i2c.c ****   /* USER CODE BEGIN I2C2_MspInit 1 */
 451              		.loc 1 198 5
 452 0078 234B     		ldr	r3, .L27+8
 453 007a 9B6D     		ldr	r3, [r3, #88]
 454 007c 224A     		ldr	r2, .L27+8
 455 007e 43F48003 		orr	r3, r3, #4194304
 456 0082 9365     		str	r3, [r2, #88]
 457 0084 204B     		ldr	r3, .L27+8
 458 0086 9B6D     		ldr	r3, [r3, #88]
 459 0088 03F48003 		and	r3, r3, #4194304
 460 008c FB60     		str	r3, [r7, #12]
 461 008e FB68     		ldr	r3, [r7, #12]
 462              	.LBE3:
 463              		.loc 1 233 1
 464 0090 31E0     		b	.L26
 465              	.L25:
 203:d:/LiteOS_Lab/targets/STM32L431VCT6_Bossay/Src\i2c.c ****   {
 466              		.loc 1 203 20
 467 0092 7B68     		ldr	r3, [r7, #4]
 468 0094 1B68     		ldr	r3, [r3]
 203:d:/LiteOS_Lab/targets/STM32L431VCT6_Bossay/Src\i2c.c ****   {
 469              		.loc 1 203 10
 470 0096 1E4A     		ldr	r2, .L27+16
 471 0098 9342     		cmp	r3, r2
 472 009a 2CD1     		bne	.L26
 213:d:/LiteOS_Lab/targets/STM32L431VCT6_Bossay/Src\i2c.c ****     GPIO_InitStruct.Mode = GPIO_MODE_AF_OD;
 473              		.loc 1 213 25
 474 009c 8023     		movs	r3, #128
 475 009e 7B61     		str	r3, [r7, #20]
 214:d:/LiteOS_Lab/targets/STM32L431VCT6_Bossay/Src\i2c.c ****     GPIO_InitStruct.Pull = GPIO_PULLUP;
 476              		.loc 1 214 26
 477 00a0 1223     		movs	r3, #18
 478 00a2 BB61     		str	r3, [r7, #24]
 215:d:/LiteOS_Lab/targets/STM32L431VCT6_Bossay/Src\i2c.c ****     GPIO_InitStruct.Speed = GPIO_SPEED_FREQ_VERY_HIGH;
 479              		.loc 1 215 26
 480 00a4 0123     		movs	r3, #1
 481 00a6 FB61     		str	r3, [r7, #28]
 216:d:/LiteOS_Lab/targets/STM32L431VCT6_Bossay/Src\i2c.c ****     GPIO_InitStruct.Alternate = GPIO_AF4_I2C3;
 482              		.loc 1 216 27
 483 00a8 0323     		movs	r3, #3
 484 00aa 3B62     		str	r3, [r7, #32]
 217:d:/LiteOS_Lab/targets/STM32L431VCT6_Bossay/Src\i2c.c ****     HAL_GPIO_Init(GPIOA, &GPIO_InitStruct);
 485              		.loc 1 217 31
 486 00ac 0423     		movs	r3, #4
 487 00ae 7B62     		str	r3, [r7, #36]
 218:d:/LiteOS_Lab/targets/STM32L431VCT6_Bossay/Src\i2c.c **** 
 488              		.loc 1 218 5
 489 00b0 07F11403 		add	r3, r7, #20
 490 00b4 1946     		mov	r1, r3
 491 00b6 4FF09040 		mov	r0, #1207959552
 492 00ba FFF7FEFF 		bl	HAL_GPIO_Init
 220:d:/LiteOS_Lab/targets/STM32L431VCT6_Bossay/Src\i2c.c ****     GPIO_InitStruct.Mode = GPIO_MODE_AF_OD;
 493              		.loc 1 220 25
ARM GAS  C:\Users\ADMINI~1\AppData\Local\Temp\ccJYNbqu.s 			page 14


 494 00be 1023     		movs	r3, #16
 495 00c0 7B61     		str	r3, [r7, #20]
 221:d:/LiteOS_Lab/targets/STM32L431VCT6_Bossay/Src\i2c.c ****     GPIO_InitStruct.Pull = GPIO_PULLUP;
 496              		.loc 1 221 26
 497 00c2 1223     		movs	r3, #18
 498 00c4 BB61     		str	r3, [r7, #24]
 222:d:/LiteOS_Lab/targets/STM32L431VCT6_Bossay/Src\i2c.c ****     GPIO_InitStruct.Speed = GPIO_SPEED_FREQ_VERY_HIGH;
 499              		.loc 1 222 26
 500 00c6 0123     		movs	r3, #1
 501 00c8 FB61     		str	r3, [r7, #28]
 223:d:/LiteOS_Lab/targets/STM32L431VCT6_Bossay/Src\i2c.c ****     GPIO_InitStruct.Alternate = GPIO_AF4_I2C3;
 502              		.loc 1 223 27
 503 00ca 0323     		movs	r3, #3
 504 00cc 3B62     		str	r3, [r7, #32]
 224:d:/LiteOS_Lab/targets/STM32L431VCT6_Bossay/Src\i2c.c ****     HAL_GPIO_Init(GPIOB, &GPIO_InitStruct);
 505              		.loc 1 224 31
 506 00ce 0423     		movs	r3, #4
 507 00d0 7B62     		str	r3, [r7, #36]
 225:d:/LiteOS_Lab/targets/STM32L431VCT6_Bossay/Src\i2c.c **** 
 508              		.loc 1 225 5
 509 00d2 07F11403 		add	r3, r7, #20
 510 00d6 1946     		mov	r1, r3
 511 00d8 0A48     		ldr	r0, .L27+4
 512 00da FFF7FEFF 		bl	HAL_GPIO_Init
 513              	.LBB4:
 228:d:/LiteOS_Lab/targets/STM32L431VCT6_Bossay/Src\i2c.c ****   /* USER CODE BEGIN I2C3_MspInit 1 */
 514              		.loc 1 228 5
 515 00de 0A4B     		ldr	r3, .L27+8
 516 00e0 9B6D     		ldr	r3, [r3, #88]
 517 00e2 094A     		ldr	r2, .L27+8
 518 00e4 43F40003 		orr	r3, r3, #8388608
 519 00e8 9365     		str	r3, [r2, #88]
 520 00ea 074B     		ldr	r3, .L27+8
 521 00ec 9B6D     		ldr	r3, [r3, #88]
 522 00ee 03F40003 		and	r3, r3, #8388608
 523 00f2 BB60     		str	r3, [r7, #8]
 524 00f4 BB68     		ldr	r3, [r7, #8]
 525              	.L26:
 526              	.LBE4:
 527              		.loc 1 233 1
 528 00f6 00BF     		nop
 529 00f8 2837     		adds	r7, r7, #40
 530              	.LCFI9:
 531              		.cfi_def_cfa_offset 8
 532 00fa BD46     		mov	sp, r7
 533              	.LCFI10:
 534              		.cfi_def_cfa_register 13
 535              		@ sp needed
 536 00fc 80BD     		pop	{r7, pc}
 537              	.L28:
 538 00fe 00BF     		.align	2
 539              	.L27:
 540 0100 00540040 		.word	1073763328
 541 0104 00040048 		.word	1207960576
 542 0108 00100240 		.word	1073876992
 543 010c 00580040 		.word	1073764352
 544 0110 005C0040 		.word	1073765376
ARM GAS  C:\Users\ADMINI~1\AppData\Local\Temp\ccJYNbqu.s 			page 15


 545              		.cfi_endproc
 546              	.LFE290:
 548              		.section	.text.HAL_I2C_MspDeInit,"ax",%progbits
 549              		.align	1
 550              		.global	HAL_I2C_MspDeInit
 551              		.syntax unified
 552              		.thumb
 553              		.thumb_func
 554              		.fpu fpv4-sp-d16
 556              	HAL_I2C_MspDeInit:
 557              	.LFB291:
 234:d:/LiteOS_Lab/targets/STM32L431VCT6_Bossay/Src\i2c.c **** 
 235:d:/LiteOS_Lab/targets/STM32L431VCT6_Bossay/Src\i2c.c **** void HAL_I2C_MspDeInit(I2C_HandleTypeDef* i2cHandle)
 236:d:/LiteOS_Lab/targets/STM32L431VCT6_Bossay/Src\i2c.c **** {
 558              		.loc 1 236 1
 559              		.cfi_startproc
 560              		@ args = 0, pretend = 0, frame = 8
 561              		@ frame_needed = 1, uses_anonymous_args = 0
 562 0000 80B5     		push	{r7, lr}
 563              	.LCFI11:
 564              		.cfi_def_cfa_offset 8
 565              		.cfi_offset 7, -8
 566              		.cfi_offset 14, -4
 567 0002 82B0     		sub	sp, sp, #8
 568              	.LCFI12:
 569              		.cfi_def_cfa_offset 16
 570 0004 00AF     		add	r7, sp, #0
 571              	.LCFI13:
 572              		.cfi_def_cfa_register 7
 573 0006 7860     		str	r0, [r7, #4]
 237:d:/LiteOS_Lab/targets/STM32L431VCT6_Bossay/Src\i2c.c **** 
 238:d:/LiteOS_Lab/targets/STM32L431VCT6_Bossay/Src\i2c.c ****   if(i2cHandle->Instance==I2C1)
 574              		.loc 1 238 15
 575 0008 7B68     		ldr	r3, [r7, #4]
 576 000a 1B68     		ldr	r3, [r3]
 577              		.loc 1 238 5
 578 000c 1B4A     		ldr	r2, .L34
 579 000e 9342     		cmp	r3, r2
 580 0010 0AD1     		bne	.L30
 239:d:/LiteOS_Lab/targets/STM32L431VCT6_Bossay/Src\i2c.c ****   {
 240:d:/LiteOS_Lab/targets/STM32L431VCT6_Bossay/Src\i2c.c ****   /* USER CODE BEGIN I2C1_MspDeInit 0 */
 241:d:/LiteOS_Lab/targets/STM32L431VCT6_Bossay/Src\i2c.c **** 
 242:d:/LiteOS_Lab/targets/STM32L431VCT6_Bossay/Src\i2c.c ****   /* USER CODE END I2C1_MspDeInit 0 */
 243:d:/LiteOS_Lab/targets/STM32L431VCT6_Bossay/Src\i2c.c ****     /* Peripheral clock disable */
 244:d:/LiteOS_Lab/targets/STM32L431VCT6_Bossay/Src\i2c.c ****     __HAL_RCC_I2C1_CLK_DISABLE();
 581              		.loc 1 244 5
 582 0012 1B4B     		ldr	r3, .L34+4
 583 0014 9B6D     		ldr	r3, [r3, #88]
 584 0016 1A4A     		ldr	r2, .L34+4
 585 0018 23F40013 		bic	r3, r3, #2097152
 586 001c 9365     		str	r3, [r2, #88]
 245:d:/LiteOS_Lab/targets/STM32L431VCT6_Bossay/Src\i2c.c ****   
 246:d:/LiteOS_Lab/targets/STM32L431VCT6_Bossay/Src\i2c.c ****     /**I2C1 GPIO Configuration    
 247:d:/LiteOS_Lab/targets/STM32L431VCT6_Bossay/Src\i2c.c ****     PB6     ------> I2C1_SCL
 248:d:/LiteOS_Lab/targets/STM32L431VCT6_Bossay/Src\i2c.c ****     PB7     ------> I2C1_SDA 
 249:d:/LiteOS_Lab/targets/STM32L431VCT6_Bossay/Src\i2c.c ****     */
 250:d:/LiteOS_Lab/targets/STM32L431VCT6_Bossay/Src\i2c.c ****     HAL_GPIO_DeInit(GPIOB, GPIO_PIN_6|GPIO_PIN_7);
ARM GAS  C:\Users\ADMINI~1\AppData\Local\Temp\ccJYNbqu.s 			page 16


 587              		.loc 1 250 5
 588 001e C021     		movs	r1, #192
 589 0020 1848     		ldr	r0, .L34+8
 590 0022 FFF7FEFF 		bl	HAL_GPIO_DeInit
 251:d:/LiteOS_Lab/targets/STM32L431VCT6_Bossay/Src\i2c.c **** 
 252:d:/LiteOS_Lab/targets/STM32L431VCT6_Bossay/Src\i2c.c ****   /* USER CODE BEGIN I2C1_MspDeInit 1 */
 253:d:/LiteOS_Lab/targets/STM32L431VCT6_Bossay/Src\i2c.c **** 
 254:d:/LiteOS_Lab/targets/STM32L431VCT6_Bossay/Src\i2c.c ****   /* USER CODE END I2C1_MspDeInit 1 */
 255:d:/LiteOS_Lab/targets/STM32L431VCT6_Bossay/Src\i2c.c ****   }
 256:d:/LiteOS_Lab/targets/STM32L431VCT6_Bossay/Src\i2c.c ****   else if(i2cHandle->Instance==I2C2)
 257:d:/LiteOS_Lab/targets/STM32L431VCT6_Bossay/Src\i2c.c ****   {
 258:d:/LiteOS_Lab/targets/STM32L431VCT6_Bossay/Src\i2c.c ****   /* USER CODE BEGIN I2C2_MspDeInit 0 */
 259:d:/LiteOS_Lab/targets/STM32L431VCT6_Bossay/Src\i2c.c **** 
 260:d:/LiteOS_Lab/targets/STM32L431VCT6_Bossay/Src\i2c.c ****   /* USER CODE END I2C2_MspDeInit 0 */
 261:d:/LiteOS_Lab/targets/STM32L431VCT6_Bossay/Src\i2c.c ****     /* Peripheral clock disable */
 262:d:/LiteOS_Lab/targets/STM32L431VCT6_Bossay/Src\i2c.c ****     __HAL_RCC_I2C2_CLK_DISABLE();
 263:d:/LiteOS_Lab/targets/STM32L431VCT6_Bossay/Src\i2c.c ****   
 264:d:/LiteOS_Lab/targets/STM32L431VCT6_Bossay/Src\i2c.c ****     /**I2C2 GPIO Configuration    
 265:d:/LiteOS_Lab/targets/STM32L431VCT6_Bossay/Src\i2c.c ****     PB10     ------> I2C2_SCL
 266:d:/LiteOS_Lab/targets/STM32L431VCT6_Bossay/Src\i2c.c ****     PB14     ------> I2C2_SDA 
 267:d:/LiteOS_Lab/targets/STM32L431VCT6_Bossay/Src\i2c.c ****     */
 268:d:/LiteOS_Lab/targets/STM32L431VCT6_Bossay/Src\i2c.c ****     HAL_GPIO_DeInit(GPIOB, GPIO_PIN_10|GPIO_PIN_14);
 269:d:/LiteOS_Lab/targets/STM32L431VCT6_Bossay/Src\i2c.c **** 
 270:d:/LiteOS_Lab/targets/STM32L431VCT6_Bossay/Src\i2c.c ****   /* USER CODE BEGIN I2C2_MspDeInit 1 */
 271:d:/LiteOS_Lab/targets/STM32L431VCT6_Bossay/Src\i2c.c **** 
 272:d:/LiteOS_Lab/targets/STM32L431VCT6_Bossay/Src\i2c.c ****   /* USER CODE END I2C2_MspDeInit 1 */
 273:d:/LiteOS_Lab/targets/STM32L431VCT6_Bossay/Src\i2c.c ****   }
 274:d:/LiteOS_Lab/targets/STM32L431VCT6_Bossay/Src\i2c.c ****   else if(i2cHandle->Instance==I2C3)
 275:d:/LiteOS_Lab/targets/STM32L431VCT6_Bossay/Src\i2c.c ****   {
 276:d:/LiteOS_Lab/targets/STM32L431VCT6_Bossay/Src\i2c.c ****   /* USER CODE BEGIN I2C3_MspDeInit 0 */
 277:d:/LiteOS_Lab/targets/STM32L431VCT6_Bossay/Src\i2c.c **** 
 278:d:/LiteOS_Lab/targets/STM32L431VCT6_Bossay/Src\i2c.c ****   /* USER CODE END I2C3_MspDeInit 0 */
 279:d:/LiteOS_Lab/targets/STM32L431VCT6_Bossay/Src\i2c.c ****     /* Peripheral clock disable */
 280:d:/LiteOS_Lab/targets/STM32L431VCT6_Bossay/Src\i2c.c ****     __HAL_RCC_I2C3_CLK_DISABLE();
 281:d:/LiteOS_Lab/targets/STM32L431VCT6_Bossay/Src\i2c.c ****   
 282:d:/LiteOS_Lab/targets/STM32L431VCT6_Bossay/Src\i2c.c ****     /**I2C3 GPIO Configuration    
 283:d:/LiteOS_Lab/targets/STM32L431VCT6_Bossay/Src\i2c.c ****     PA7     ------> I2C3_SCL
 284:d:/LiteOS_Lab/targets/STM32L431VCT6_Bossay/Src\i2c.c ****     PB4 (NJTRST)     ------> I2C3_SDA 
 285:d:/LiteOS_Lab/targets/STM32L431VCT6_Bossay/Src\i2c.c ****     */
 286:d:/LiteOS_Lab/targets/STM32L431VCT6_Bossay/Src\i2c.c ****     HAL_GPIO_DeInit(GPIOA, GPIO_PIN_7);
 287:d:/LiteOS_Lab/targets/STM32L431VCT6_Bossay/Src\i2c.c **** 
 288:d:/LiteOS_Lab/targets/STM32L431VCT6_Bossay/Src\i2c.c ****     HAL_GPIO_DeInit(GPIOB, GPIO_PIN_4);
 289:d:/LiteOS_Lab/targets/STM32L431VCT6_Bossay/Src\i2c.c **** 
 290:d:/LiteOS_Lab/targets/STM32L431VCT6_Bossay/Src\i2c.c ****   /* USER CODE BEGIN I2C3_MspDeInit 1 */
 291:d:/LiteOS_Lab/targets/STM32L431VCT6_Bossay/Src\i2c.c **** 
 292:d:/LiteOS_Lab/targets/STM32L431VCT6_Bossay/Src\i2c.c ****   /* USER CODE END I2C3_MspDeInit 1 */
 293:d:/LiteOS_Lab/targets/STM32L431VCT6_Bossay/Src\i2c.c ****   }
 294:d:/LiteOS_Lab/targets/STM32L431VCT6_Bossay/Src\i2c.c **** } 
 591              		.loc 1 294 1
 592 0026 24E0     		b	.L33
 593              	.L30:
 256:d:/LiteOS_Lab/targets/STM32L431VCT6_Bossay/Src\i2c.c ****   {
 594              		.loc 1 256 20
 595 0028 7B68     		ldr	r3, [r7, #4]
 596 002a 1B68     		ldr	r3, [r3]
 256:d:/LiteOS_Lab/targets/STM32L431VCT6_Bossay/Src\i2c.c ****   {
 597              		.loc 1 256 10
ARM GAS  C:\Users\ADMINI~1\AppData\Local\Temp\ccJYNbqu.s 			page 17


 598 002c 164A     		ldr	r2, .L34+12
 599 002e 9342     		cmp	r3, r2
 600 0030 0BD1     		bne	.L32
 262:d:/LiteOS_Lab/targets/STM32L431VCT6_Bossay/Src\i2c.c ****   
 601              		.loc 1 262 5
 602 0032 134B     		ldr	r3, .L34+4
 603 0034 9B6D     		ldr	r3, [r3, #88]
 604 0036 124A     		ldr	r2, .L34+4
 605 0038 23F48003 		bic	r3, r3, #4194304
 606 003c 9365     		str	r3, [r2, #88]
 268:d:/LiteOS_Lab/targets/STM32L431VCT6_Bossay/Src\i2c.c **** 
 607              		.loc 1 268 5
 608 003e 4FF48841 		mov	r1, #17408
 609 0042 1048     		ldr	r0, .L34+8
 610 0044 FFF7FEFF 		bl	HAL_GPIO_DeInit
 611              		.loc 1 294 1
 612 0048 13E0     		b	.L33
 613              	.L32:
 274:d:/LiteOS_Lab/targets/STM32L431VCT6_Bossay/Src\i2c.c ****   {
 614              		.loc 1 274 20
 615 004a 7B68     		ldr	r3, [r7, #4]
 616 004c 1B68     		ldr	r3, [r3]
 274:d:/LiteOS_Lab/targets/STM32L431VCT6_Bossay/Src\i2c.c ****   {
 617              		.loc 1 274 10
 618 004e 0F4A     		ldr	r2, .L34+16
 619 0050 9342     		cmp	r3, r2
 620 0052 0ED1     		bne	.L33
 280:d:/LiteOS_Lab/targets/STM32L431VCT6_Bossay/Src\i2c.c ****   
 621              		.loc 1 280 5
 622 0054 0A4B     		ldr	r3, .L34+4
 623 0056 9B6D     		ldr	r3, [r3, #88]
 624 0058 094A     		ldr	r2, .L34+4
 625 005a 23F40003 		bic	r3, r3, #8388608
 626 005e 9365     		str	r3, [r2, #88]
 286:d:/LiteOS_Lab/targets/STM32L431VCT6_Bossay/Src\i2c.c **** 
 627              		.loc 1 286 5
 628 0060 8021     		movs	r1, #128
 629 0062 4FF09040 		mov	r0, #1207959552
 630 0066 FFF7FEFF 		bl	HAL_GPIO_DeInit
 288:d:/LiteOS_Lab/targets/STM32L431VCT6_Bossay/Src\i2c.c **** 
 631              		.loc 1 288 5
 632 006a 1021     		movs	r1, #16
 633 006c 0548     		ldr	r0, .L34+8
 634 006e FFF7FEFF 		bl	HAL_GPIO_DeInit
 635              	.L33:
 636              		.loc 1 294 1
 637 0072 00BF     		nop
 638 0074 0837     		adds	r7, r7, #8
 639              	.LCFI14:
 640              		.cfi_def_cfa_offset 8
 641 0076 BD46     		mov	sp, r7
 642              	.LCFI15:
 643              		.cfi_def_cfa_register 13
 644              		@ sp needed
 645 0078 80BD     		pop	{r7, pc}
 646              	.L35:
 647 007a 00BF     		.align	2
ARM GAS  C:\Users\ADMINI~1\AppData\Local\Temp\ccJYNbqu.s 			page 18


 648              	.L34:
 649 007c 00540040 		.word	1073763328
 650 0080 00100240 		.word	1073876992
 651 0084 00040048 		.word	1207960576
 652 0088 00580040 		.word	1073764352
 653 008c 005C0040 		.word	1073765376
 654              		.cfi_endproc
 655              	.LFE291:
 657              		.text
 658              	.Letext0:
 659              		.file 2 "c:\\users\\administrator\\.huawei-liteos-studio\\tools\\arm-none-eabi\\arm-none-eabi\\inc
 660              		.file 3 "c:\\users\\administrator\\.huawei-liteos-studio\\tools\\arm-none-eabi\\arm-none-eabi\\inc
 661              		.file 4 "c:\\users\\administrator\\.huawei-liteos-studio\\tools\\arm-none-eabi\\arm-none-eabi\\inc
 662              		.file 5 "c:\\users\\administrator\\.huawei-liteos-studio\\tools\\arm-none-eabi\\lib\\gcc\\arm-none
 663              		.file 6 "c:\\users\\administrator\\.huawei-liteos-studio\\tools\\arm-none-eabi\\arm-none-eabi\\inc
 664              		.file 7 "d:/LiteOS_Lab/iot_link/os/liteos/include/los_typedef.h"
 665              		.file 8 "c:\\users\\administrator\\.huawei-liteos-studio\\tools\\arm-none-eabi\\arm-none-eabi\\inc
 666              		.file 9 "d:/LiteOS_Lab/iot_link/os/liteos/arch/arm/common/cmsis/core_cm4.h"
 667              		.file 10 "d:/LiteOS_Lab/targets/STM32L431VCT6_Bossay/Inc/system_stm32l4xx.h"
 668              		.file 11 "d:/LiteOS_Lab/targets/STM32L431VCT6_Bossay/Inc/stm32l431xx.h"
 669              		.file 12 "d:/LiteOS_Lab/iot_link/os/liteos/include/los_config.h"
 670              		.file 13 "d:/LiteOS_Lab/iot_link/os/liteos/include/los_err.h"
 671              		.file 14 "d:/LiteOS_Lab/iot_link/os/liteos/arch/arm/arm-m/include/los_hwi.h"
 672              		.file 15 "d:/LiteOS_Lab/drivers/third_party/ST/STM32L4xx_HAL_Driver/Inc/stm32l4xx_hal_def.h"
 673              		.file 16 "d:/LiteOS_Lab/drivers/third_party/ST/STM32L4xx_HAL_Driver/Inc/stm32l4xx_hal_gpio.h"
 674              		.file 17 "d:/LiteOS_Lab/drivers/third_party/ST/STM32L4xx_HAL_Driver/Inc/stm32l4xx_hal_dma.h"
 675              		.file 18 "d:/LiteOS_Lab/drivers/third_party/ST/STM32L4xx_HAL_Driver/Inc/stm32l4xx_hal_i2c.h"
 676              		.file 19 "d:/LiteOS_Lab/targets/STM32L431VCT6_Bossay/Inc/i2c.h"
ARM GAS  C:\Users\ADMINI~1\AppData\Local\Temp\ccJYNbqu.s 			page 19

