ARM GAS  C:\Users\ADMINI~1\AppData\Local\Temp\ccG9glMx.s 			page 1


   1              		.cpu cortex-m4
   2              		.eabi_attribute 27, 1
   3              		.eabi_attribute 28, 1
   4              		.eabi_attribute 20, 1
   5              		.eabi_attribute 21, 1
   6              		.eabi_attribute 23, 3
   7              		.eabi_attribute 24, 1
   8              		.eabi_attribute 25, 1
   9              		.eabi_attribute 26, 1
  10              		.eabi_attribute 30, 6
  11              		.eabi_attribute 34, 1
  12              		.eabi_attribute 18, 4
  13              		.file	"main.c"
  14              		.text
  15              	.Ltext0:
  16              		.cfi_sections	.debug_frame
  17              		.global	system_phys_mem
  18              		.section	.rodata.system_phys_mem,"a"
  19              		.align	2
  22              	system_phys_mem:
  23 0000 00000000 		.word	__los_heap_addr_start__
  24 0004 00000000 		.word	__los_heap_addr_end__
  25 0008 00000000 		.word	0
  26 000c 00000000 		.word	0
  27              		.section	.rodata
  28              		.align	2
  29              	.LC0:
  30 0000 506F7765 		.ascii	"Powered by Fancheng Meng!\000"
  30      72656420 
  30      62792046 
  30      616E6368 
  30      656E6720 
  31 001a 0000     		.align	2
  32              	.LC1:
  33 001c 53797374 		.ascii	"System intializing......\000"
  33      656D2069 
  33      6E746961 
  33      6C697A69 
  33      6E672E2E 
  34              		.section	.text.HardWare_Init,"ax",%progbits
  35              		.align	1
  36              		.global	HardWare_Init
  37              		.arch armv7e-m
  38              		.syntax unified
  39              		.thumb
  40              		.thumb_func
  41              		.fpu fpv4-sp-d16
  43              	HardWare_Init:
  44              	.LFB314:
  45              		.file 1 "d:/LiteOS_Lab/targets/STM32L431VCT6_Bossay/Src/main.c"
   1:d:/LiteOS_Lab/targets/STM32L431VCT6_Bossay/Src\main.c **** /*----------------------------------------------------------------------------
   2:d:/LiteOS_Lab/targets/STM32L431VCT6_Bossay/Src\main.c ****  * Copyright (c) <2016-2018>, <Huawei Technologies Co., Ltd>
   3:d:/LiteOS_Lab/targets/STM32L431VCT6_Bossay/Src\main.c ****  * All rights reserved.
   4:d:/LiteOS_Lab/targets/STM32L431VCT6_Bossay/Src\main.c ****  * Redistribution and use in source and binary forms, with or without modification,
   5:d:/LiteOS_Lab/targets/STM32L431VCT6_Bossay/Src\main.c ****  * are permitted provided that the following conditions are met:
   6:d:/LiteOS_Lab/targets/STM32L431VCT6_Bossay/Src\main.c ****  * 1. Redistributions of source code must retain the above copyright notice, this list of
   7:d:/LiteOS_Lab/targets/STM32L431VCT6_Bossay/Src\main.c ****  * conditions and the following disclaimer.
ARM GAS  C:\Users\ADMINI~1\AppData\Local\Temp\ccG9glMx.s 			page 2


   8:d:/LiteOS_Lab/targets/STM32L431VCT6_Bossay/Src\main.c ****  * 2. Redistributions in binary form must reproduce the above copyright notice, this list
   9:d:/LiteOS_Lab/targets/STM32L431VCT6_Bossay/Src\main.c ****  * of conditions and the following disclaimer in the documentation and/or other materials
  10:d:/LiteOS_Lab/targets/STM32L431VCT6_Bossay/Src\main.c ****  * provided with the distribution.
  11:d:/LiteOS_Lab/targets/STM32L431VCT6_Bossay/Src\main.c ****  * 3. Neither the name of the copyright holder nor the names of its contributors may be used
  12:d:/LiteOS_Lab/targets/STM32L431VCT6_Bossay/Src\main.c ****  * to endorse or promote products derived from this software without specific prior written
  13:d:/LiteOS_Lab/targets/STM32L431VCT6_Bossay/Src\main.c ****  * permission.
  14:d:/LiteOS_Lab/targets/STM32L431VCT6_Bossay/Src\main.c ****  * THIS SOFTWARE IS PROVIDED BY THE COPYRIGHT HOLDERS AND CONTRIBUTORS
  15:d:/LiteOS_Lab/targets/STM32L431VCT6_Bossay/Src\main.c ****  * "AS IS" AND ANY EXPRESS OR IMPLIED WARRANTIES, INCLUDING, BUT NOT LIMITED TO,
  16:d:/LiteOS_Lab/targets/STM32L431VCT6_Bossay/Src\main.c ****  * THE IMPLIED WARRANTIES OF MERCHANTABILITY AND FITNESS FOR A PARTICULAR
  17:d:/LiteOS_Lab/targets/STM32L431VCT6_Bossay/Src\main.c ****  * PURPOSE ARE DISCLAIMED. IN NO EVENT SHALL THE COPYRIGHT HOLDER OR
  18:d:/LiteOS_Lab/targets/STM32L431VCT6_Bossay/Src\main.c ****  * CONTRIBUTORS BE LIABLE FOR ANY DIRECT, INDIRECT, INCIDENTAL, SPECIAL,
  19:d:/LiteOS_Lab/targets/STM32L431VCT6_Bossay/Src\main.c ****  * EXEMPLARY, OR CONSEQUENTIAL DAMAGES (INCLUDING, BUT NOT LIMITED TO,
  20:d:/LiteOS_Lab/targets/STM32L431VCT6_Bossay/Src\main.c ****  * PROCUREMENT OF SUBSTITUTE GOODS OR SERVICES; LOSS OF USE, DATA, OR PROFITS;
  21:d:/LiteOS_Lab/targets/STM32L431VCT6_Bossay/Src\main.c ****  * OR BUSINESS INTERRUPTION) HOWEVER CAUSED AND ON ANY THEORY OF LIABILITY,
  22:d:/LiteOS_Lab/targets/STM32L431VCT6_Bossay/Src\main.c ****  * WHETHER IN CONTRACT, STRICT LIABILITY, OR TORT (INCLUDING NEGLIGENCE OR
  23:d:/LiteOS_Lab/targets/STM32L431VCT6_Bossay/Src\main.c ****  * OTHERWISE) ARISING IN ANY WAY OUT OF THE USE OF THIS SOFTWARE, EVEN IF
  24:d:/LiteOS_Lab/targets/STM32L431VCT6_Bossay/Src\main.c ****  * ADVISED OF THE POSSIBILITY OF SUCH DAMAGE.
  25:d:/LiteOS_Lab/targets/STM32L431VCT6_Bossay/Src\main.c ****  *---------------------------------------------------------------------------*/
  26:d:/LiteOS_Lab/targets/STM32L431VCT6_Bossay/Src\main.c **** /*----------------------------------------------------------------------------
  27:d:/LiteOS_Lab/targets/STM32L431VCT6_Bossay/Src\main.c ****  * Notice of Export Control Law
  28:d:/LiteOS_Lab/targets/STM32L431VCT6_Bossay/Src\main.c ****  * ===============================================
  29:d:/LiteOS_Lab/targets/STM32L431VCT6_Bossay/Src\main.c ****  * Huawei LiteOS may be subject to applicable export control laws and regulations, which might
  30:d:/LiteOS_Lab/targets/STM32L431VCT6_Bossay/Src\main.c ****  * include those applicable to Huawei LiteOS of U.S. and the country in which you are located.
  31:d:/LiteOS_Lab/targets/STM32L431VCT6_Bossay/Src\main.c ****  * Import, export and usage of Huawei LiteOS in any manner by you shall be in compliance with such
  32:d:/LiteOS_Lab/targets/STM32L431VCT6_Bossay/Src\main.c ****  * applicable export control laws and regulations.
  33:d:/LiteOS_Lab/targets/STM32L431VCT6_Bossay/Src\main.c ****  *---------------------------------------------------------------------------*/
  34:d:/LiteOS_Lab/targets/STM32L431VCT6_Bossay/Src\main.c **** #include "main.h"
  35:d:/LiteOS_Lab/targets/STM32L431VCT6_Bossay/Src\main.c **** #include "sys_init.h"
  36:d:/LiteOS_Lab/targets/STM32L431VCT6_Bossay/Src\main.c **** #include "mem.h"
  37:d:/LiteOS_Lab/targets/STM32L431VCT6_Bossay/Src\main.c **** #include "Actuators.h"
  38:d:/LiteOS_Lab/targets/STM32L431VCT6_Bossay/Src\main.c **** #include "los_base.h"
  39:d:/LiteOS_Lab/targets/STM32L431VCT6_Bossay/Src\main.c **** #include "los_task.ph"
  40:d:/LiteOS_Lab/targets/STM32L431VCT6_Bossay/Src\main.c **** #include "los_typedef.h"
  41:d:/LiteOS_Lab/targets/STM32L431VCT6_Bossay/Src\main.c **** #include "los_sys.h"
  42:d:/LiteOS_Lab/targets/STM32L431VCT6_Bossay/Src\main.c **** #include "stm32l4xx_hal.h"
  43:d:/LiteOS_Lab/targets/STM32L431VCT6_Bossay/Src\main.c **** #include "osal.h"
  44:d:/LiteOS_Lab/targets/STM32L431VCT6_Bossay/Src\main.c **** 
  45:d:/LiteOS_Lab/targets/STM32L431VCT6_Bossay/Src\main.c **** 
  46:d:/LiteOS_Lab/targets/STM32L431VCT6_Bossay/Src\main.c **** #if defined (__CC_ARM)
  47:d:/LiteOS_Lab/targets/STM32L431VCT6_Bossay/Src\main.c **** extern char Image$$RW_IRAM1$$ZI$$Limit [];
  48:d:/LiteOS_Lab/targets/STM32L431VCT6_Bossay/Src\main.c **** extern char Image$$ARM_LIB_STACKHEAP$$Base [];
  49:d:/LiteOS_Lab/targets/STM32L431VCT6_Bossay/Src\main.c **** #elif defined (__GNUC__)
  50:d:/LiteOS_Lab/targets/STM32L431VCT6_Bossay/Src\main.c **** extern char __los_heap_addr_start__ [];
  51:d:/LiteOS_Lab/targets/STM32L431VCT6_Bossay/Src\main.c **** extern char __los_heap_addr_end__ [];
  52:d:/LiteOS_Lab/targets/STM32L431VCT6_Bossay/Src\main.c **** #else
  53:d:/LiteOS_Lab/targets/STM32L431VCT6_Bossay/Src\main.c **** #error "fix me"
  54:d:/LiteOS_Lab/targets/STM32L431VCT6_Bossay/Src\main.c **** #endif
  55:d:/LiteOS_Lab/targets/STM32L431VCT6_Bossay/Src\main.c **** 
  56:d:/LiteOS_Lab/targets/STM32L431VCT6_Bossay/Src\main.c **** const struct phys_mem system_phys_mem [] =
  57:d:/LiteOS_Lab/targets/STM32L431VCT6_Bossay/Src\main.c ****     {
  58:d:/LiteOS_Lab/targets/STM32L431VCT6_Bossay/Src\main.c **** #if defined (__CC_ARM)
  59:d:/LiteOS_Lab/targets/STM32L431VCT6_Bossay/Src\main.c ****         { Image$$RW_IRAM1$$ZI$$Limit, Image$$ARM_LIB_STACKHEAP$$Base },
  60:d:/LiteOS_Lab/targets/STM32L431VCT6_Bossay/Src\main.c **** #elif defined (__GNUC__)
  61:d:/LiteOS_Lab/targets/STM32L431VCT6_Bossay/Src\main.c ****         {(unsigned long) __los_heap_addr_start__,(unsigned long) __los_heap_addr_end__ },
  62:d:/LiteOS_Lab/targets/STM32L431VCT6_Bossay/Src\main.c **** #else
  63:d:/LiteOS_Lab/targets/STM32L431VCT6_Bossay/Src\main.c **** #error "fix me"
  64:d:/LiteOS_Lab/targets/STM32L431VCT6_Bossay/Src\main.c **** #endif
ARM GAS  C:\Users\ADMINI~1\AppData\Local\Temp\ccG9glMx.s 			page 3


  65:d:/LiteOS_Lab/targets/STM32L431VCT6_Bossay/Src\main.c ****         { 0, 0 }
  66:d:/LiteOS_Lab/targets/STM32L431VCT6_Bossay/Src\main.c ****     };
  67:d:/LiteOS_Lab/targets/STM32L431VCT6_Bossay/Src\main.c **** 
  68:d:/LiteOS_Lab/targets/STM32L431VCT6_Bossay/Src\main.c **** extern const unsigned char gImage_Bossaylogo[45128];
  69:d:/LiteOS_Lab/targets/STM32L431VCT6_Bossay/Src\main.c **** VOID HardWare_Init(VOID)
  70:d:/LiteOS_Lab/targets/STM32L431VCT6_Bossay/Src\main.c **** {
  46              		.loc 1 70 1
  47              		.cfi_startproc
  48              		@ args = 0, pretend = 0, frame = 0
  49              		@ frame_needed = 1, uses_anonymous_args = 0
  50 0000 80B5     		push	{r7, lr}
  51              	.LCFI0:
  52              		.cfi_def_cfa_offset 8
  53              		.cfi_offset 7, -8
  54              		.cfi_offset 14, -4
  55 0002 82B0     		sub	sp, sp, #8
  56              	.LCFI1:
  57              		.cfi_def_cfa_offset 16
  58 0004 02AF     		add	r7, sp, #8
  59              	.LCFI2:
  60              		.cfi_def_cfa 7, 8
  71:d:/LiteOS_Lab/targets/STM32L431VCT6_Bossay/Src\main.c **** 	HAL_Init();
  61              		.loc 1 71 2
  62 0006 FFF7FEFF 		bl	HAL_Init
  72:d:/LiteOS_Lab/targets/STM32L431VCT6_Bossay/Src\main.c **** 	/* Configure the system clock */
  73:d:/LiteOS_Lab/targets/STM32L431VCT6_Bossay/Src\main.c **** 	SystemClock_Config();
  63              		.loc 1 73 2
  64 000a FFF7FEFF 		bl	SystemClock_Config
  74:d:/LiteOS_Lab/targets/STM32L431VCT6_Bossay/Src\main.c **** 	MX_GPIO_Init();
  65              		.loc 1 74 2
  66 000e FFF7FEFF 		bl	MX_GPIO_Init
  75:d:/LiteOS_Lab/targets/STM32L431VCT6_Bossay/Src\main.c **** 	MX_I2C1_Init();
  67              		.loc 1 75 2
  68 0012 FFF7FEFF 		bl	MX_I2C1_Init
  76:d:/LiteOS_Lab/targets/STM32L431VCT6_Bossay/Src\main.c ****     MX_I2C2_Init();
  69              		.loc 1 76 5
  70 0016 FFF7FEFF 		bl	MX_I2C2_Init
  77:d:/LiteOS_Lab/targets/STM32L431VCT6_Bossay/Src\main.c **** 	dwt_delay_init(SystemCoreClock);
  71              		.loc 1 77 2
  72 001a 174B     		ldr	r3, .L2
  73 001c 1B68     		ldr	r3, [r3]
  74 001e 1846     		mov	r0, r3
  75 0020 FFF7FEFF 		bl	dwt_delay_init
  78:d:/LiteOS_Lab/targets/STM32L431VCT6_Bossay/Src\main.c **** 	LCD_Init();		
  76              		.loc 1 78 2
  77 0024 FFF7FEFF 		bl	LCD_Init
  79:d:/LiteOS_Lab/targets/STM32L431VCT6_Bossay/Src\main.c **** 	LCD_Clear(WHITE);		   	
  78              		.loc 1 79 2
  79 0028 4FF6FF70 		movw	r0, #65535
  80 002c FFF7FEFF 		bl	LCD_Clear
  80:d:/LiteOS_Lab/targets/STM32L431VCT6_Bossay/Src\main.c **** 	POINT_COLOR = RED;
  81              		.loc 1 80 14
  82 0030 124B     		ldr	r3, .L2+4
  83 0032 4FF47842 		mov	r2, #63488
  84 0036 1A80     		strh	r2, [r3]	@ movhi
  81:d:/LiteOS_Lab/targets/STM32L431VCT6_Bossay/Src\main.c ****     LCD_Show_Image(0,0,240,93,gImage_Bossaylogo);			
  85              		.loc 1 81 5
ARM GAS  C:\Users\ADMINI~1\AppData\Local\Temp\ccG9glMx.s 			page 4


  86 0038 114B     		ldr	r3, .L2+8
  87 003a 0093     		str	r3, [sp]
  88 003c 5D23     		movs	r3, #93
  89 003e F022     		movs	r2, #240
  90 0040 0021     		movs	r1, #0
  91 0042 0020     		movs	r0, #0
  92 0044 FFF7FEFF 		bl	LCD_Show_Image
  82:d:/LiteOS_Lab/targets/STM32L431VCT6_Bossay/Src\main.c **** 	//LCD_ShowString(10, 50, 240, 24, 24, "Welcome to Bossay!");
  83:d:/LiteOS_Lab/targets/STM32L431VCT6_Bossay/Src\main.c **** 	//LCD_ShowString(20, 90, 240, 16, 16, "IoT Deveoper Box");
  84:d:/LiteOS_Lab/targets/STM32L431VCT6_Bossay/Src\main.c **** 	LCD_ShowString(20, 130, 240, 16, 16, "Powered by Fancheng Meng!");
  93              		.loc 1 84 2
  94 0048 0E4B     		ldr	r3, .L2+12
  95 004a 0193     		str	r3, [sp, #4]
  96 004c 1023     		movs	r3, #16
  97 004e 0093     		str	r3, [sp]
  98 0050 1023     		movs	r3, #16
  99 0052 F022     		movs	r2, #240
 100 0054 8221     		movs	r1, #130
 101 0056 1420     		movs	r0, #20
 102 0058 FFF7FEFF 		bl	LCD_ShowString
  85:d:/LiteOS_Lab/targets/STM32L431VCT6_Bossay/Src\main.c **** 	LCD_ShowString(2, 170, 240, 16, 16, "System intializing......");;	
 103              		.loc 1 85 2
 104 005c 0A4B     		ldr	r3, .L2+16
 105 005e 0193     		str	r3, [sp, #4]
 106 0060 1023     		movs	r3, #16
 107 0062 0093     		str	r3, [sp]
 108 0064 1023     		movs	r3, #16
 109 0066 F022     		movs	r2, #240
 110 0068 AA21     		movs	r1, #170
 111 006a 0220     		movs	r0, #2
 112 006c FFF7FEFF 		bl	LCD_ShowString
  86:d:/LiteOS_Lab/targets/STM32L431VCT6_Bossay/Src\main.c **** }
 113              		.loc 1 86 1
 114 0070 00BF     		nop
 115 0072 BD46     		mov	sp, r7
 116              	.LCFI3:
 117              		.cfi_def_cfa_register 13
 118              		@ sp needed
 119 0074 80BD     		pop	{r7, pc}
 120              	.L3:
 121 0076 00BF     		.align	2
 122              	.L2:
 123 0078 00000000 		.word	SystemCoreClock
 124 007c 00000000 		.word	POINT_COLOR
 125 0080 00000000 		.word	gImage_Bossaylogo
 126 0084 00000000 		.word	.LC0
 127 0088 1C000000 		.word	.LC1
 128              		.cfi_endproc
 129              	.LFE314:
 131              		.section	.rodata
 132 0035 000000   		.align	2
 133              	.LC2:
 134 0038 6C696E6B 		.ascii	"link_main\000"
 134      5F6D6169 
 134      6E00
 135              		.section	.text.link_test,"ax",%progbits
 136              		.align	1
ARM GAS  C:\Users\ADMINI~1\AppData\Local\Temp\ccG9glMx.s 			page 5


 137              		.syntax unified
 138              		.thumb
 139              		.thumb_func
 140              		.fpu fpv4-sp-d16
 142              	link_test:
 143              	.LFB315:
  87:d:/LiteOS_Lab/targets/STM32L431VCT6_Bossay/Src\main.c **** 
  88:d:/LiteOS_Lab/targets/STM32L431VCT6_Bossay/Src\main.c **** 
  89:d:/LiteOS_Lab/targets/STM32L431VCT6_Bossay/Src\main.c **** 
  90:d:/LiteOS_Lab/targets/STM32L431VCT6_Bossay/Src\main.c **** extern int link_main(void *args);
  91:d:/LiteOS_Lab/targets/STM32L431VCT6_Bossay/Src\main.c **** static int link_test()
  92:d:/LiteOS_Lab/targets/STM32L431VCT6_Bossay/Src\main.c **** {
 144              		.loc 1 92 1
 145              		.cfi_startproc
 146              		@ args = 0, pretend = 0, frame = 40
 147              		@ frame_needed = 1, uses_anonymous_args = 0
 148 0000 80B5     		push	{r7, lr}
 149              	.LCFI4:
 150              		.cfi_def_cfa_offset 8
 151              		.cfi_offset 7, -8
 152              		.cfi_offset 14, -4
 153 0002 8AB0     		sub	sp, sp, #40
 154              	.LCFI5:
 155              		.cfi_def_cfa_offset 48
 156 0004 00AF     		add	r7, sp, #0
 157              	.LCFI6:
 158              		.cfi_def_cfa_register 7
  93:d:/LiteOS_Lab/targets/STM32L431VCT6_Bossay/Src\main.c ****     int ret = -1;
 159              		.loc 1 93 9
 160 0006 4FF0FF33 		mov	r3, #-1
 161 000a 7B62     		str	r3, [r7, #36]
  94:d:/LiteOS_Lab/targets/STM32L431VCT6_Bossay/Src\main.c ****     UINT32 uwRet = LOS_OK;
 162              		.loc 1 94 12
 163 000c 0023     		movs	r3, #0
 164 000e 3B62     		str	r3, [r7, #32]
  95:d:/LiteOS_Lab/targets/STM32L431VCT6_Bossay/Src\main.c ****     UINT32  handle;
  96:d:/LiteOS_Lab/targets/STM32L431VCT6_Bossay/Src\main.c ****     TSK_INIT_PARAM_S task_init_param;
  97:d:/LiteOS_Lab/targets/STM32L431VCT6_Bossay/Src\main.c **** 
  98:d:/LiteOS_Lab/targets/STM32L431VCT6_Bossay/Src\main.c ****     memset (&task_init_param, 0, sizeof (TSK_INIT_PARAM_S));
 165              		.loc 1 98 5
 166 0010 3B1D     		adds	r3, r7, #4
 167 0012 1822     		movs	r2, #24
 168 0014 0021     		movs	r1, #0
 169 0016 1846     		mov	r0, r3
 170 0018 FFF7FEFF 		bl	memset
  99:d:/LiteOS_Lab/targets/STM32L431VCT6_Bossay/Src\main.c ****     task_init_param.uwArg = (unsigned int)NULL;
 171              		.loc 1 99 27
 172 001c 0023     		movs	r3, #0
 173 001e FB60     		str	r3, [r7, #12]
 100:d:/LiteOS_Lab/targets/STM32L431VCT6_Bossay/Src\main.c ****     task_init_param.usTaskPrio = 2;
 174              		.loc 1 100 32
 175 0020 0223     		movs	r3, #2
 176 0022 3B81     		strh	r3, [r7, #8]	@ movhi
 101:d:/LiteOS_Lab/targets/STM32L431VCT6_Bossay/Src\main.c ****     task_init_param.pcName =(char *) "link_main";
 177              		.loc 1 101 28
 178 0024 0C4B     		ldr	r3, .L7
 179 0026 7B61     		str	r3, [r7, #20]
ARM GAS  C:\Users\ADMINI~1\AppData\Local\Temp\ccG9glMx.s 			page 6


 102:d:/LiteOS_Lab/targets/STM32L431VCT6_Bossay/Src\main.c ****     task_init_param.pfnTaskEntry = (TSK_ENTRY_FUNC)link_main;
 180              		.loc 1 102 34
 181 0028 0C4B     		ldr	r3, .L7+4
 182 002a 7B60     		str	r3, [r7, #4]
 103:d:/LiteOS_Lab/targets/STM32L431VCT6_Bossay/Src\main.c ****     task_init_param.uwStackSize = 0x1000;
 183              		.loc 1 103 33
 184 002c 4FF48053 		mov	r3, #4096
 185 0030 3B61     		str	r3, [r7, #16]
 104:d:/LiteOS_Lab/targets/STM32L431VCT6_Bossay/Src\main.c ****     uwRet = LOS_TaskCreate(&handle, &task_init_param);
 186              		.loc 1 104 13
 187 0032 3A1D     		adds	r2, r7, #4
 188 0034 07F11C03 		add	r3, r7, #28
 189 0038 1146     		mov	r1, r2
 190 003a 1846     		mov	r0, r3
 191 003c FFF7FEFF 		bl	LOS_TaskCreate
 192 0040 3862     		str	r0, [r7, #32]
 105:d:/LiteOS_Lab/targets/STM32L431VCT6_Bossay/Src\main.c ****     if(LOS_OK == uwRet){
 193              		.loc 1 105 7
 194 0042 3B6A     		ldr	r3, [r7, #32]
 195 0044 002B     		cmp	r3, #0
 196 0046 01D1     		bne	.L5
 106:d:/LiteOS_Lab/targets/STM32L431VCT6_Bossay/Src\main.c ****         ret = 0;
 197              		.loc 1 106 13
 198 0048 0023     		movs	r3, #0
 199 004a 7B62     		str	r3, [r7, #36]
 200              	.L5:
 107:d:/LiteOS_Lab/targets/STM32L431VCT6_Bossay/Src\main.c ****     }
 108:d:/LiteOS_Lab/targets/STM32L431VCT6_Bossay/Src\main.c ****     return ret;
 201              		.loc 1 108 12
 202 004c 7B6A     		ldr	r3, [r7, #36]
 109:d:/LiteOS_Lab/targets/STM32L431VCT6_Bossay/Src\main.c **** }
 203              		.loc 1 109 1
 204 004e 1846     		mov	r0, r3
 205 0050 2837     		adds	r7, r7, #40
 206              	.LCFI7:
 207              		.cfi_def_cfa_offset 8
 208 0052 BD46     		mov	sp, r7
 209              	.LCFI8:
 210              		.cfi_def_cfa_register 13
 211              		@ sp needed
 212 0054 80BD     		pop	{r7, pc}
 213              	.L8:
 214 0056 00BF     		.align	2
 215              	.L7:
 216 0058 38000000 		.word	.LC2
 217 005c 00000000 		.word	link_main
 218              		.cfi_endproc
 219              	.LFE315:
 221              		.section	.text.main,"ax",%progbits
 222              		.align	1
 223              		.global	main
 224              		.syntax unified
 225              		.thumb
 226              		.thumb_func
 227              		.fpu fpv4-sp-d16
 229              	main:
 230              	.LFB316:
ARM GAS  C:\Users\ADMINI~1\AppData\Local\Temp\ccG9glMx.s 			page 7


 110:d:/LiteOS_Lab/targets/STM32L431VCT6_Bossay/Src\main.c **** 
 111:d:/LiteOS_Lab/targets/STM32L431VCT6_Bossay/Src\main.c **** 
 112:d:/LiteOS_Lab/targets/STM32L431VCT6_Bossay/Src\main.c **** int main(void)
 113:d:/LiteOS_Lab/targets/STM32L431VCT6_Bossay/Src\main.c **** {
 231              		.loc 1 113 1
 232              		.cfi_startproc
 233              		@ args = 0, pretend = 0, frame = 8
 234              		@ frame_needed = 1, uses_anonymous_args = 0
 235 0000 80B5     		push	{r7, lr}
 236              	.LCFI9:
 237              		.cfi_def_cfa_offset 8
 238              		.cfi_offset 7, -8
 239              		.cfi_offset 14, -4
 240 0002 82B0     		sub	sp, sp, #8
 241              	.LCFI10:
 242              		.cfi_def_cfa_offset 16
 243 0004 00AF     		add	r7, sp, #0
 244              	.LCFI11:
 245              		.cfi_def_cfa_register 7
 114:d:/LiteOS_Lab/targets/STM32L431VCT6_Bossay/Src\main.c ****     UINT32 uwRet = LOS_OK;
 246              		.loc 1 114 12
 247 0006 0023     		movs	r3, #0
 248 0008 7B60     		str	r3, [r7, #4]
 115:d:/LiteOS_Lab/targets/STM32L431VCT6_Bossay/Src\main.c ****     HardWare_Init();
 249              		.loc 1 115 5
 250 000a FFF7FEFF 		bl	HardWare_Init
 116:d:/LiteOS_Lab/targets/STM32L431VCT6_Bossay/Src\main.c ****     uwRet = LOS_KernelInit();
 251              		.loc 1 116 13
 252 000e FFF7FEFF 		bl	LOS_KernelInit
 253 0012 7860     		str	r0, [r7, #4]
 117:d:/LiteOS_Lab/targets/STM32L431VCT6_Bossay/Src\main.c ****     if (uwRet != LOS_OK)
 254              		.loc 1 117 8
 255 0014 7B68     		ldr	r3, [r7, #4]
 256 0016 002B     		cmp	r3, #0
 257 0018 01D0     		beq	.L10
 118:d:/LiteOS_Lab/targets/STM32L431VCT6_Bossay/Src\main.c ****     {
 119:d:/LiteOS_Lab/targets/STM32L431VCT6_Bossay/Src\main.c ****         return LOS_NOK;
 258              		.loc 1 119 16
 259 001a 0123     		movs	r3, #1
 260 001c 08E0     		b	.L11
 261              	.L10:
 120:d:/LiteOS_Lab/targets/STM32L431VCT6_Bossay/Src\main.c ****     }
 121:d:/LiteOS_Lab/targets/STM32L431VCT6_Bossay/Src\main.c **** 
 122:d:/LiteOS_Lab/targets/STM32L431VCT6_Bossay/Src\main.c ****     extern void shell_uart_init(int baud);
 123:d:/LiteOS_Lab/targets/STM32L431VCT6_Bossay/Src\main.c ****     shell_uart_init(115200);
 262              		.loc 1 123 5
 263 001e 4FF4E130 		mov	r0, #115200
 264 0022 FFF7FEFF 		bl	shell_uart_init
 124:d:/LiteOS_Lab/targets/STM32L431VCT6_Bossay/Src\main.c **** 
 125:d:/LiteOS_Lab/targets/STM32L431VCT6_Bossay/Src\main.c ****     link_test();
 265              		.loc 1 125 5
 266 0026 FFF7FEFF 		bl	link_test
 126:d:/LiteOS_Lab/targets/STM32L431VCT6_Bossay/Src\main.c **** 
 127:d:/LiteOS_Lab/targets/STM32L431VCT6_Bossay/Src\main.c ****     (void)LOS_Start();
 267              		.loc 1 127 11
 268 002a FFF7FEFF 		bl	LOS_Start
 128:d:/LiteOS_Lab/targets/STM32L431VCT6_Bossay/Src\main.c ****     return 0;
ARM GAS  C:\Users\ADMINI~1\AppData\Local\Temp\ccG9glMx.s 			page 8


 269              		.loc 1 128 12
 270 002e 0023     		movs	r3, #0
 271              	.L11:
 129:d:/LiteOS_Lab/targets/STM32L431VCT6_Bossay/Src\main.c **** }
 272              		.loc 1 129 1
 273 0030 1846     		mov	r0, r3
 274 0032 0837     		adds	r7, r7, #8
 275              	.LCFI12:
 276              		.cfi_def_cfa_offset 8
 277 0034 BD46     		mov	sp, r7
 278              	.LCFI13:
 279              		.cfi_def_cfa_register 13
 280              		@ sp needed
 281 0036 80BD     		pop	{r7, pc}
 282              		.cfi_endproc
 283              	.LFE316:
 285              		.text
 286              	.Letext0:
 287              		.file 2 "c:\\users\\administrator\\.huawei-liteos-studio\\tools\\arm-none-eabi\\lib\\gcc\\arm-none
 288              		.file 3 "c:\\users\\administrator\\.huawei-liteos-studio\\tools\\arm-none-eabi\\arm-none-eabi\\inc
 289              		.file 4 "c:\\users\\administrator\\.huawei-liteos-studio\\tools\\arm-none-eabi\\arm-none-eabi\\inc
 290              		.file 5 "c:\\users\\administrator\\.huawei-liteos-studio\\tools\\arm-none-eabi\\arm-none-eabi\\inc
 291              		.file 6 "c:\\users\\administrator\\.huawei-liteos-studio\\tools\\arm-none-eabi\\arm-none-eabi\\inc
 292              		.file 7 "d:/LiteOS_Lab/iot_link/os/liteos/include/los_typedef.h"
 293              		.file 8 "c:\\users\\administrator\\.huawei-liteos-studio\\tools\\arm-none-eabi\\arm-none-eabi\\inc
 294              		.file 9 "d:/LiteOS_Lab/iot_link/os/liteos/arch/arm/common/cmsis/core_cm4.h"
 295              		.file 10 "d:/LiteOS_Lab/targets/STM32L431VCT6_Bossay/Inc/system_stm32l4xx.h"
 296              		.file 11 "d:/LiteOS_Lab/targets/STM32L431VCT6_Bossay/Inc/stm32l431xx.h"
 297              		.file 12 "d:/LiteOS_Lab/drivers/third_party/ST/STM32L4xx_HAL_Driver/Inc/stm32l4xx_hal_def.h"
 298              		.file 13 "d:/LiteOS_Lab/drivers/third_party/ST/STM32L4xx_HAL_Driver/Inc/stm32l4xx_hal_dma.h"
 299              		.file 14 "d:/LiteOS_Lab/drivers/third_party/ST/STM32L4xx_HAL_Driver/Inc/stm32l4xx_hal_i2c.h"
 300              		.file 15 "d:/LiteOS_Lab/drivers/third_party/ST/STM32L4xx_HAL_Driver/Inc/stm32l4xx_hal_spi.h"
 301              		.file 16 "d:/LiteOS_Lab/drivers/third_party/ST/STM32L4xx_HAL_Driver/Inc/stm32l4xx_hal_tim.h"
 302              		.file 17 "d:/LiteOS_Lab/drivers/third_party/ST/STM32L4xx_HAL_Driver/Inc/stm32l4xx_hal_uart.h"
 303              		.file 18 "d:/LiteOS_Lab/iot_link/os/liteos/include/los_config.h"
 304              		.file 19 "d:/LiteOS_Lab/iot_link/os/liteos/include/los_list.h"
 305              		.file 20 "d:/LiteOS_Lab/iot_link/os/liteos/include/los_err.h"
 306              		.file 21 "d:/LiteOS_Lab/iot_link/os/liteos/arch/arm/arm-m/include/los_hwi.h"
 307              		.file 22 "d:/LiteOS_Lab/iot_link/os/liteos/include/los_event.h"
 308              		.file 23 "d:/LiteOS_Lab/iot_link/os/liteos/include/los_tick.h"
 309              		.file 24 "d:/LiteOS_Lab/iot_link/os/liteos/include/los_task.h"
 310              		.file 25 "d:/LiteOS_Lab/iot_link/os/liteos/base/include/los_task.ph"
 311              		.file 26 "d:/LiteOS_Lab/iot_link/os/liteos/base/include/los_slab.ph"
 312              		.file 27 "d:/LiteOS_Lab/iot_link/os/liteos/include/los_memory.h"
 313              		.file 28 "d:/LiteOS_Lab/iot_link/os/liteos/base/include/los_queue.ph"
 314              		.file 29 "c:\\users\\administrator\\.huawei-liteos-studio\\tools\\arm-none-eabi\\arm-none-eabi\\in
 315              		.file 30 "d:/LiteOS_Lab/targets/STM32L431VCT6_Bossay/Inc/usart.h"
 316              		.file 31 "d:/LiteOS_Lab/targets/STM32L431VCT6_Bossay/Inc/i2c.h"
 317              		.file 32 "d:/LiteOS_Lab/targets/STM32L431VCT6_Bossay/Inc/spi.h"
 318              		.file 33 "d:/LiteOS_Lab/targets/STM32L431VCT6_Bossay/Hardware/LCD/lcd.h"
 319              		.file 34 "d:/LiteOS_Lab/iot_link/os/liteos/include/list.h"
 320              		.file 35 "d:/LiteOS_Lab/iot_link/os/liteos/base/include/chunk.h"
 321              		.file 36 "d:/LiteOS_Lab/iot_link/os/liteos/base/include/cm-tlsf.h"
 322              		.file 37 "d:/LiteOS_Lab/iot_link/os/liteos/base/include/heap.h"
 323              		.file 38 "d:/LiteOS_Lab/iot_link/os/liteos/base/include/mem.h"
 324              		.file 39 "d:/LiteOS_Lab/targets/STM32L431VCT6_Bossay/Hardware/IoTBox/Actuators.h"
ARM GAS  C:\Users\ADMINI~1\AppData\Local\Temp\ccG9glMx.s 			page 9

