ARM GAS  C:\Users\ADMINI~1\AppData\Local\Temp\cct2crrB.s 			page 1


   1              		.cpu cortex-m4
   2              		.eabi_attribute 27, 1
   3              		.eabi_attribute 28, 1
   4              		.eabi_attribute 20, 1
   5              		.eabi_attribute 21, 1
   6              		.eabi_attribute 23, 3
   7              		.eabi_attribute 24, 1
   8              		.eabi_attribute 25, 1
   9              		.eabi_attribute 26, 1
  10              		.eabi_attribute 30, 6
  11              		.eabi_attribute 34, 1
  12              		.eabi_attribute 18, 4
  13              		.file	"spi.c"
  14              		.text
  15              	.Ltext0:
  16              		.cfi_sections	.debug_frame
  17              		.comm	hspi1,100,4
  18              		.comm	hspi2,100,4
  19              		.comm	hspi3,100,4
  20              		.section	.rodata
  21              		.align	2
  22              	.LC0:
  23 0000 643A2F4C 		.ascii	"d:/LiteOS_Lab/targets/STM32L431VCT6_Bossay/Src/spi."
  23      6974654F 
  23      535F4C61 
  23      622F7461 
  23      72676574 
  24 0033 6300     		.ascii	"c\000"
  25              		.section	.text.MX_SPI1_Init,"ax",%progbits
  26              		.align	1
  27              		.global	MX_SPI1_Init
  28              		.arch armv7e-m
  29              		.syntax unified
  30              		.thumb
  31              		.thumb_func
  32              		.fpu fpv4-sp-d16
  34              	MX_SPI1_Init:
  35              	.LFB287:
  36              		.file 1 "d:/LiteOS_Lab/targets/STM32L431VCT6_Bossay/Src/spi.c"
   1:d:/LiteOS_Lab/targets/STM32L431VCT6_Bossay/Src\spi.c **** /**
   2:d:/LiteOS_Lab/targets/STM32L431VCT6_Bossay/Src\spi.c ****   ******************************************************************************
   3:d:/LiteOS_Lab/targets/STM32L431VCT6_Bossay/Src\spi.c ****   * File Name          : SPI.c
   4:d:/LiteOS_Lab/targets/STM32L431VCT6_Bossay/Src\spi.c ****   * Description        : This file provides code for the configuration
   5:d:/LiteOS_Lab/targets/STM32L431VCT6_Bossay/Src\spi.c ****   *                      of the SPI instances.
   6:d:/LiteOS_Lab/targets/STM32L431VCT6_Bossay/Src\spi.c ****   ******************************************************************************
   7:d:/LiteOS_Lab/targets/STM32L431VCT6_Bossay/Src\spi.c ****   ** This notice applies to any and all portions of this file
   8:d:/LiteOS_Lab/targets/STM32L431VCT6_Bossay/Src\spi.c ****   * that are not between comment pairs USER CODE BEGIN and
   9:d:/LiteOS_Lab/targets/STM32L431VCT6_Bossay/Src\spi.c ****   * USER CODE END. Other portions of this file, whether 
  10:d:/LiteOS_Lab/targets/STM32L431VCT6_Bossay/Src\spi.c ****   * inserted by the user or by software development tools
  11:d:/LiteOS_Lab/targets/STM32L431VCT6_Bossay/Src\spi.c ****   * are owned by their respective copyright owners.
  12:d:/LiteOS_Lab/targets/STM32L431VCT6_Bossay/Src\spi.c ****   *
  13:d:/LiteOS_Lab/targets/STM32L431VCT6_Bossay/Src\spi.c ****   * COPYRIGHT(c) 2019 STMicroelectronics
  14:d:/LiteOS_Lab/targets/STM32L431VCT6_Bossay/Src\spi.c ****   *
  15:d:/LiteOS_Lab/targets/STM32L431VCT6_Bossay/Src\spi.c ****   * Redistribution and use in source and binary forms, with or without modification,
  16:d:/LiteOS_Lab/targets/STM32L431VCT6_Bossay/Src\spi.c ****   * are permitted provided that the following conditions are met:
  17:d:/LiteOS_Lab/targets/STM32L431VCT6_Bossay/Src\spi.c ****   *   1. Redistributions of source code must retain the above copyright notice,
  18:d:/LiteOS_Lab/targets/STM32L431VCT6_Bossay/Src\spi.c ****   *      this list of conditions and the following disclaimer.
ARM GAS  C:\Users\ADMINI~1\AppData\Local\Temp\cct2crrB.s 			page 2


  19:d:/LiteOS_Lab/targets/STM32L431VCT6_Bossay/Src\spi.c ****   *   2. Redistributions in binary form must reproduce the above copyright notice,
  20:d:/LiteOS_Lab/targets/STM32L431VCT6_Bossay/Src\spi.c ****   *      this list of conditions and the following disclaimer in the documentation
  21:d:/LiteOS_Lab/targets/STM32L431VCT6_Bossay/Src\spi.c ****   *      and/or other materials provided with the distribution.
  22:d:/LiteOS_Lab/targets/STM32L431VCT6_Bossay/Src\spi.c ****   *   3. Neither the name of STMicroelectronics nor the names of its contributors
  23:d:/LiteOS_Lab/targets/STM32L431VCT6_Bossay/Src\spi.c ****   *      may be used to endorse or promote products derived from this software
  24:d:/LiteOS_Lab/targets/STM32L431VCT6_Bossay/Src\spi.c ****   *      without specific prior written permission.
  25:d:/LiteOS_Lab/targets/STM32L431VCT6_Bossay/Src\spi.c ****   *
  26:d:/LiteOS_Lab/targets/STM32L431VCT6_Bossay/Src\spi.c ****   * THIS SOFTWARE IS PROVIDED BY THE COPYRIGHT HOLDERS AND CONTRIBUTORS "AS IS"
  27:d:/LiteOS_Lab/targets/STM32L431VCT6_Bossay/Src\spi.c ****   * AND ANY EXPRESS OR IMPLIED WARRANTIES, INCLUDING, BUT NOT LIMITED TO, THE
  28:d:/LiteOS_Lab/targets/STM32L431VCT6_Bossay/Src\spi.c ****   * IMPLIED WARRANTIES OF MERCHANTABILITY AND FITNESS FOR A PARTICULAR PURPOSE ARE
  29:d:/LiteOS_Lab/targets/STM32L431VCT6_Bossay/Src\spi.c ****   * DISCLAIMED. IN NO EVENT SHALL THE COPYRIGHT HOLDER OR CONTRIBUTORS BE LIABLE
  30:d:/LiteOS_Lab/targets/STM32L431VCT6_Bossay/Src\spi.c ****   * FOR ANY DIRECT, INDIRECT, INCIDENTAL, SPECIAL, EXEMPLARY, OR CONSEQUENTIAL
  31:d:/LiteOS_Lab/targets/STM32L431VCT6_Bossay/Src\spi.c ****   * DAMAGES (INCLUDING, BUT NOT LIMITED TO, PROCUREMENT OF SUBSTITUTE GOODS OR
  32:d:/LiteOS_Lab/targets/STM32L431VCT6_Bossay/Src\spi.c ****   * SERVICES; LOSS OF USE, DATA, OR PROFITS; OR BUSINESS INTERRUPTION) HOWEVER
  33:d:/LiteOS_Lab/targets/STM32L431VCT6_Bossay/Src\spi.c ****   * CAUSED AND ON ANY THEORY OF LIABILITY, WHETHER IN CONTRACT, STRICT LIABILITY,
  34:d:/LiteOS_Lab/targets/STM32L431VCT6_Bossay/Src\spi.c ****   * OR TORT (INCLUDING NEGLIGENCE OR OTHERWISE) ARISING IN ANY WAY OUT OF THE USE
  35:d:/LiteOS_Lab/targets/STM32L431VCT6_Bossay/Src\spi.c ****   * OF THIS SOFTWARE, EVEN IF ADVISED OF THE POSSIBILITY OF SUCH DAMAGE.
  36:d:/LiteOS_Lab/targets/STM32L431VCT6_Bossay/Src\spi.c ****   *
  37:d:/LiteOS_Lab/targets/STM32L431VCT6_Bossay/Src\spi.c ****   ******************************************************************************
  38:d:/LiteOS_Lab/targets/STM32L431VCT6_Bossay/Src\spi.c ****   */
  39:d:/LiteOS_Lab/targets/STM32L431VCT6_Bossay/Src\spi.c **** 
  40:d:/LiteOS_Lab/targets/STM32L431VCT6_Bossay/Src\spi.c **** /* Includes ------------------------------------------------------------------*/
  41:d:/LiteOS_Lab/targets/STM32L431VCT6_Bossay/Src\spi.c **** #include "spi.h"
  42:d:/LiteOS_Lab/targets/STM32L431VCT6_Bossay/Src\spi.c **** 
  43:d:/LiteOS_Lab/targets/STM32L431VCT6_Bossay/Src\spi.c **** #include "gpio.h"
  44:d:/LiteOS_Lab/targets/STM32L431VCT6_Bossay/Src\spi.c **** 
  45:d:/LiteOS_Lab/targets/STM32L431VCT6_Bossay/Src\spi.c **** /* USER CODE BEGIN 0 */
  46:d:/LiteOS_Lab/targets/STM32L431VCT6_Bossay/Src\spi.c **** 
  47:d:/LiteOS_Lab/targets/STM32L431VCT6_Bossay/Src\spi.c **** /* USER CODE END 0 */
  48:d:/LiteOS_Lab/targets/STM32L431VCT6_Bossay/Src\spi.c **** 
  49:d:/LiteOS_Lab/targets/STM32L431VCT6_Bossay/Src\spi.c **** SPI_HandleTypeDef hspi1;
  50:d:/LiteOS_Lab/targets/STM32L431VCT6_Bossay/Src\spi.c **** SPI_HandleTypeDef hspi2;
  51:d:/LiteOS_Lab/targets/STM32L431VCT6_Bossay/Src\spi.c **** SPI_HandleTypeDef hspi3; 
  52:d:/LiteOS_Lab/targets/STM32L431VCT6_Bossay/Src\spi.c **** 
  53:d:/LiteOS_Lab/targets/STM32L431VCT6_Bossay/Src\spi.c **** /* SPI1 init function */
  54:d:/LiteOS_Lab/targets/STM32L431VCT6_Bossay/Src\spi.c **** void MX_SPI1_Init(void)
  55:d:/LiteOS_Lab/targets/STM32L431VCT6_Bossay/Src\spi.c **** {
  37              		.loc 1 55 1
  38              		.cfi_startproc
  39              		@ args = 0, pretend = 0, frame = 0
  40              		@ frame_needed = 1, uses_anonymous_args = 0
  41 0000 80B5     		push	{r7, lr}
  42              	.LCFI0:
  43              		.cfi_def_cfa_offset 8
  44              		.cfi_offset 7, -8
  45              		.cfi_offset 14, -4
  46 0002 00AF     		add	r7, sp, #0
  47              	.LCFI1:
  48              		.cfi_def_cfa_register 7
  56:d:/LiteOS_Lab/targets/STM32L431VCT6_Bossay/Src\spi.c **** 
  57:d:/LiteOS_Lab/targets/STM32L431VCT6_Bossay/Src\spi.c ****   hspi1.Instance = SPI1;
  49              		.loc 1 57 18
  50 0004 1C4B     		ldr	r3, .L4
  51 0006 1D4A     		ldr	r2, .L4+4
  52 0008 1A60     		str	r2, [r3]
  58:d:/LiteOS_Lab/targets/STM32L431VCT6_Bossay/Src\spi.c ****   hspi1.Init.Mode = SPI_MODE_MASTER;
  53              		.loc 1 58 19
ARM GAS  C:\Users\ADMINI~1\AppData\Local\Temp\cct2crrB.s 			page 3


  54 000a 1B4B     		ldr	r3, .L4
  55 000c 4FF48272 		mov	r2, #260
  56 0010 5A60     		str	r2, [r3, #4]
  59:d:/LiteOS_Lab/targets/STM32L431VCT6_Bossay/Src\spi.c ****   hspi1.Init.Direction = SPI_DIRECTION_1LINE;
  57              		.loc 1 59 24
  58 0012 194B     		ldr	r3, .L4
  59 0014 4FF40042 		mov	r2, #32768
  60 0018 9A60     		str	r2, [r3, #8]
  60:d:/LiteOS_Lab/targets/STM32L431VCT6_Bossay/Src\spi.c ****   hspi1.Init.DataSize = SPI_DATASIZE_8BIT;
  61              		.loc 1 60 23
  62 001a 174B     		ldr	r3, .L4
  63 001c 4FF4E062 		mov	r2, #1792
  64 0020 DA60     		str	r2, [r3, #12]
  61:d:/LiteOS_Lab/targets/STM32L431VCT6_Bossay/Src\spi.c ****   hspi1.Init.CLKPolarity = SPI_POLARITY_HIGH;
  65              		.loc 1 61 26
  66 0022 154B     		ldr	r3, .L4
  67 0024 0222     		movs	r2, #2
  68 0026 1A61     		str	r2, [r3, #16]
  62:d:/LiteOS_Lab/targets/STM32L431VCT6_Bossay/Src\spi.c ****   hspi1.Init.CLKPhase = SPI_PHASE_2EDGE;
  69              		.loc 1 62 23
  70 0028 134B     		ldr	r3, .L4
  71 002a 0122     		movs	r2, #1
  72 002c 5A61     		str	r2, [r3, #20]
  63:d:/LiteOS_Lab/targets/STM32L431VCT6_Bossay/Src\spi.c ****   hspi1.Init.NSS = SPI_NSS_SOFT;
  73              		.loc 1 63 18
  74 002e 124B     		ldr	r3, .L4
  75 0030 4FF40072 		mov	r2, #512
  76 0034 9A61     		str	r2, [r3, #24]
  64:d:/LiteOS_Lab/targets/STM32L431VCT6_Bossay/Src\spi.c ****   hspi1.Init.BaudRatePrescaler = SPI_BAUDRATEPRESCALER_2;
  77              		.loc 1 64 32
  78 0036 104B     		ldr	r3, .L4
  79 0038 0022     		movs	r2, #0
  80 003a DA61     		str	r2, [r3, #28]
  65:d:/LiteOS_Lab/targets/STM32L431VCT6_Bossay/Src\spi.c ****   hspi1.Init.FirstBit = SPI_FIRSTBIT_MSB;
  81              		.loc 1 65 23
  82 003c 0E4B     		ldr	r3, .L4
  83 003e 0022     		movs	r2, #0
  84 0040 1A62     		str	r2, [r3, #32]
  66:d:/LiteOS_Lab/targets/STM32L431VCT6_Bossay/Src\spi.c ****   hspi1.Init.TIMode = SPI_TIMODE_DISABLE;
  85              		.loc 1 66 21
  86 0042 0D4B     		ldr	r3, .L4
  87 0044 0022     		movs	r2, #0
  88 0046 5A62     		str	r2, [r3, #36]
  67:d:/LiteOS_Lab/targets/STM32L431VCT6_Bossay/Src\spi.c ****   hspi1.Init.CRCCalculation = SPI_CRCCALCULATION_DISABLE;
  89              		.loc 1 67 29
  90 0048 0B4B     		ldr	r3, .L4
  91 004a 0022     		movs	r2, #0
  92 004c 9A62     		str	r2, [r3, #40]
  68:d:/LiteOS_Lab/targets/STM32L431VCT6_Bossay/Src\spi.c ****   hspi1.Init.CRCPolynomial = 7;
  93              		.loc 1 68 28
  94 004e 0A4B     		ldr	r3, .L4
  95 0050 0722     		movs	r2, #7
  96 0052 DA62     		str	r2, [r3, #44]
  69:d:/LiteOS_Lab/targets/STM32L431VCT6_Bossay/Src\spi.c ****   hspi1.Init.CRCLength = SPI_CRC_LENGTH_DATASIZE;
  97              		.loc 1 69 24
  98 0054 084B     		ldr	r3, .L4
  99 0056 0022     		movs	r2, #0
ARM GAS  C:\Users\ADMINI~1\AppData\Local\Temp\cct2crrB.s 			page 4


 100 0058 1A63     		str	r2, [r3, #48]
  70:d:/LiteOS_Lab/targets/STM32L431VCT6_Bossay/Src\spi.c ****   hspi1.Init.NSSPMode = SPI_NSS_PULSE_ENABLE;
 101              		.loc 1 70 23
 102 005a 074B     		ldr	r3, .L4
 103 005c 0822     		movs	r2, #8
 104 005e 5A63     		str	r2, [r3, #52]
  71:d:/LiteOS_Lab/targets/STM32L431VCT6_Bossay/Src\spi.c ****   if (HAL_SPI_Init(&hspi1) != HAL_OK)
 105              		.loc 1 71 7
 106 0060 0548     		ldr	r0, .L4
 107 0062 FFF7FEFF 		bl	HAL_SPI_Init
 108 0066 0346     		mov	r3, r0
 109              		.loc 1 71 6
 110 0068 002B     		cmp	r3, #0
 111 006a 03D0     		beq	.L3
  72:d:/LiteOS_Lab/targets/STM32L431VCT6_Bossay/Src\spi.c ****   {
  73:d:/LiteOS_Lab/targets/STM32L431VCT6_Bossay/Src\spi.c ****     _Error_Handler(__FILE__, __LINE__);
 112              		.loc 1 73 5
 113 006c 4921     		movs	r1, #73
 114 006e 0448     		ldr	r0, .L4+8
 115 0070 FFF7FEFF 		bl	_Error_Handler
 116              	.L3:
  74:d:/LiteOS_Lab/targets/STM32L431VCT6_Bossay/Src\spi.c ****   }
  75:d:/LiteOS_Lab/targets/STM32L431VCT6_Bossay/Src\spi.c **** 
  76:d:/LiteOS_Lab/targets/STM32L431VCT6_Bossay/Src\spi.c **** }
 117              		.loc 1 76 1
 118 0074 00BF     		nop
 119 0076 80BD     		pop	{r7, pc}
 120              	.L5:
 121              		.align	2
 122              	.L4:
 123 0078 00000000 		.word	hspi1
 124 007c 00300140 		.word	1073819648
 125 0080 00000000 		.word	.LC0
 126              		.cfi_endproc
 127              	.LFE287:
 129              		.section	.text.MX_SPI2_Init,"ax",%progbits
 130              		.align	1
 131              		.global	MX_SPI2_Init
 132              		.syntax unified
 133              		.thumb
 134              		.thumb_func
 135              		.fpu fpv4-sp-d16
 137              	MX_SPI2_Init:
 138              	.LFB288:
  77:d:/LiteOS_Lab/targets/STM32L431VCT6_Bossay/Src\spi.c **** 
  78:d:/LiteOS_Lab/targets/STM32L431VCT6_Bossay/Src\spi.c **** /* SPI2 init function */
  79:d:/LiteOS_Lab/targets/STM32L431VCT6_Bossay/Src\spi.c **** void MX_SPI2_Init(void)
  80:d:/LiteOS_Lab/targets/STM32L431VCT6_Bossay/Src\spi.c **** {
 139              		.loc 1 80 1
 140              		.cfi_startproc
 141              		@ args = 0, pretend = 0, frame = 0
 142              		@ frame_needed = 1, uses_anonymous_args = 0
 143 0000 80B5     		push	{r7, lr}
 144              	.LCFI2:
 145              		.cfi_def_cfa_offset 8
 146              		.cfi_offset 7, -8
 147              		.cfi_offset 14, -4
ARM GAS  C:\Users\ADMINI~1\AppData\Local\Temp\cct2crrB.s 			page 5


 148 0002 00AF     		add	r7, sp, #0
 149              	.LCFI3:
 150              		.cfi_def_cfa_register 7
  81:d:/LiteOS_Lab/targets/STM32L431VCT6_Bossay/Src\spi.c **** 
  82:d:/LiteOS_Lab/targets/STM32L431VCT6_Bossay/Src\spi.c ****   hspi2.Instance = SPI2;
 151              		.loc 1 82 18
 152 0004 1C4B     		ldr	r3, .L9
 153 0006 1D4A     		ldr	r2, .L9+4
 154 0008 1A60     		str	r2, [r3]
  83:d:/LiteOS_Lab/targets/STM32L431VCT6_Bossay/Src\spi.c ****   hspi2.Init.Mode = SPI_MODE_MASTER;
 155              		.loc 1 83 19
 156 000a 1B4B     		ldr	r3, .L9
 157 000c 4FF48272 		mov	r2, #260
 158 0010 5A60     		str	r2, [r3, #4]
  84:d:/LiteOS_Lab/targets/STM32L431VCT6_Bossay/Src\spi.c ****   hspi2.Init.Direction = SPI_DIRECTION_2LINES;
 159              		.loc 1 84 24
 160 0012 194B     		ldr	r3, .L9
 161 0014 0022     		movs	r2, #0
 162 0016 9A60     		str	r2, [r3, #8]
  85:d:/LiteOS_Lab/targets/STM32L431VCT6_Bossay/Src\spi.c ****   hspi2.Init.DataSize = SPI_DATASIZE_4BIT;
 163              		.loc 1 85 23
 164 0018 174B     		ldr	r3, .L9
 165 001a 4FF44072 		mov	r2, #768
 166 001e DA60     		str	r2, [r3, #12]
  86:d:/LiteOS_Lab/targets/STM32L431VCT6_Bossay/Src\spi.c ****   hspi2.Init.CLKPolarity = SPI_POLARITY_LOW;
 167              		.loc 1 86 26
 168 0020 154B     		ldr	r3, .L9
 169 0022 0022     		movs	r2, #0
 170 0024 1A61     		str	r2, [r3, #16]
  87:d:/LiteOS_Lab/targets/STM32L431VCT6_Bossay/Src\spi.c ****   hspi2.Init.CLKPhase = SPI_PHASE_1EDGE;
 171              		.loc 1 87 23
 172 0026 144B     		ldr	r3, .L9
 173 0028 0022     		movs	r2, #0
 174 002a 5A61     		str	r2, [r3, #20]
  88:d:/LiteOS_Lab/targets/STM32L431VCT6_Bossay/Src\spi.c ****   hspi2.Init.NSS = SPI_NSS_HARD_OUTPUT;
 175              		.loc 1 88 18
 176 002c 124B     		ldr	r3, .L9
 177 002e 4FF48022 		mov	r2, #262144
 178 0032 9A61     		str	r2, [r3, #24]
  89:d:/LiteOS_Lab/targets/STM32L431VCT6_Bossay/Src\spi.c ****   hspi2.Init.BaudRatePrescaler = SPI_BAUDRATEPRESCALER_2;
 179              		.loc 1 89 32
 180 0034 104B     		ldr	r3, .L9
 181 0036 0022     		movs	r2, #0
 182 0038 DA61     		str	r2, [r3, #28]
  90:d:/LiteOS_Lab/targets/STM32L431VCT6_Bossay/Src\spi.c ****   hspi2.Init.FirstBit = SPI_FIRSTBIT_MSB;
 183              		.loc 1 90 23
 184 003a 0F4B     		ldr	r3, .L9
 185 003c 0022     		movs	r2, #0
 186 003e 1A62     		str	r2, [r3, #32]
  91:d:/LiteOS_Lab/targets/STM32L431VCT6_Bossay/Src\spi.c ****   hspi2.Init.TIMode = SPI_TIMODE_DISABLE;
 187              		.loc 1 91 21
 188 0040 0D4B     		ldr	r3, .L9
 189 0042 0022     		movs	r2, #0
 190 0044 5A62     		str	r2, [r3, #36]
  92:d:/LiteOS_Lab/targets/STM32L431VCT6_Bossay/Src\spi.c ****   hspi2.Init.CRCCalculation = SPI_CRCCALCULATION_DISABLE;
 191              		.loc 1 92 29
 192 0046 0C4B     		ldr	r3, .L9
ARM GAS  C:\Users\ADMINI~1\AppData\Local\Temp\cct2crrB.s 			page 6


 193 0048 0022     		movs	r2, #0
 194 004a 9A62     		str	r2, [r3, #40]
  93:d:/LiteOS_Lab/targets/STM32L431VCT6_Bossay/Src\spi.c ****   hspi2.Init.CRCPolynomial = 7;
 195              		.loc 1 93 28
 196 004c 0A4B     		ldr	r3, .L9
 197 004e 0722     		movs	r2, #7
 198 0050 DA62     		str	r2, [r3, #44]
  94:d:/LiteOS_Lab/targets/STM32L431VCT6_Bossay/Src\spi.c ****   hspi2.Init.CRCLength = SPI_CRC_LENGTH_DATASIZE;
 199              		.loc 1 94 24
 200 0052 094B     		ldr	r3, .L9
 201 0054 0022     		movs	r2, #0
 202 0056 1A63     		str	r2, [r3, #48]
  95:d:/LiteOS_Lab/targets/STM32L431VCT6_Bossay/Src\spi.c ****   hspi2.Init.NSSPMode = SPI_NSS_PULSE_ENABLE;
 203              		.loc 1 95 23
 204 0058 074B     		ldr	r3, .L9
 205 005a 0822     		movs	r2, #8
 206 005c 5A63     		str	r2, [r3, #52]
  96:d:/LiteOS_Lab/targets/STM32L431VCT6_Bossay/Src\spi.c ****   if (HAL_SPI_Init(&hspi2) != HAL_OK)
 207              		.loc 1 96 7
 208 005e 0648     		ldr	r0, .L9
 209 0060 FFF7FEFF 		bl	HAL_SPI_Init
 210 0064 0346     		mov	r3, r0
 211              		.loc 1 96 6
 212 0066 002B     		cmp	r3, #0
 213 0068 03D0     		beq	.L8
  97:d:/LiteOS_Lab/targets/STM32L431VCT6_Bossay/Src\spi.c ****   {
  98:d:/LiteOS_Lab/targets/STM32L431VCT6_Bossay/Src\spi.c ****     Error_Handler();
 214              		.loc 1 98 5
 215 006a 6221     		movs	r1, #98
 216 006c 0448     		ldr	r0, .L9+8
 217 006e FFF7FEFF 		bl	_Error_Handler
 218              	.L8:
  99:d:/LiteOS_Lab/targets/STM32L431VCT6_Bossay/Src\spi.c ****   }
 100:d:/LiteOS_Lab/targets/STM32L431VCT6_Bossay/Src\spi.c **** 
 101:d:/LiteOS_Lab/targets/STM32L431VCT6_Bossay/Src\spi.c **** }
 219              		.loc 1 101 1
 220 0072 00BF     		nop
 221 0074 80BD     		pop	{r7, pc}
 222              	.L10:
 223 0076 00BF     		.align	2
 224              	.L9:
 225 0078 00000000 		.word	hspi2
 226 007c 00380040 		.word	1073756160
 227 0080 00000000 		.word	.LC0
 228              		.cfi_endproc
 229              	.LFE288:
 231              		.section	.text.MX_SPI3_Init,"ax",%progbits
 232              		.align	1
 233              		.global	MX_SPI3_Init
 234              		.syntax unified
 235              		.thumb
 236              		.thumb_func
 237              		.fpu fpv4-sp-d16
 239              	MX_SPI3_Init:
 240              	.LFB289:
 102:d:/LiteOS_Lab/targets/STM32L431VCT6_Bossay/Src\spi.c **** /* SPI3 init function */
 103:d:/LiteOS_Lab/targets/STM32L431VCT6_Bossay/Src\spi.c **** void MX_SPI3_Init(void)
ARM GAS  C:\Users\ADMINI~1\AppData\Local\Temp\cct2crrB.s 			page 7


 104:d:/LiteOS_Lab/targets/STM32L431VCT6_Bossay/Src\spi.c **** {
 241              		.loc 1 104 1
 242              		.cfi_startproc
 243              		@ args = 0, pretend = 0, frame = 0
 244              		@ frame_needed = 1, uses_anonymous_args = 0
 245 0000 80B5     		push	{r7, lr}
 246              	.LCFI4:
 247              		.cfi_def_cfa_offset 8
 248              		.cfi_offset 7, -8
 249              		.cfi_offset 14, -4
 250 0002 00AF     		add	r7, sp, #0
 251              	.LCFI5:
 252              		.cfi_def_cfa_register 7
 105:d:/LiteOS_Lab/targets/STM32L431VCT6_Bossay/Src\spi.c **** 
 106:d:/LiteOS_Lab/targets/STM32L431VCT6_Bossay/Src\spi.c ****   hspi3.Instance = SPI3;
 253              		.loc 1 106 18
 254 0004 1C4B     		ldr	r3, .L14
 255 0006 1D4A     		ldr	r2, .L14+4
 256 0008 1A60     		str	r2, [r3]
 107:d:/LiteOS_Lab/targets/STM32L431VCT6_Bossay/Src\spi.c ****   hspi3.Init.Mode = SPI_MODE_MASTER;
 257              		.loc 1 107 19
 258 000a 1B4B     		ldr	r3, .L14
 259 000c 4FF48272 		mov	r2, #260
 260 0010 5A60     		str	r2, [r3, #4]
 108:d:/LiteOS_Lab/targets/STM32L431VCT6_Bossay/Src\spi.c ****   hspi3.Init.Direction = SPI_DIRECTION_2LINES;
 261              		.loc 1 108 24
 262 0012 194B     		ldr	r3, .L14
 263 0014 0022     		movs	r2, #0
 264 0016 9A60     		str	r2, [r3, #8]
 109:d:/LiteOS_Lab/targets/STM32L431VCT6_Bossay/Src\spi.c ****   hspi3.Init.DataSize = SPI_DATASIZE_4BIT;
 265              		.loc 1 109 23
 266 0018 174B     		ldr	r3, .L14
 267 001a 4FF44072 		mov	r2, #768
 268 001e DA60     		str	r2, [r3, #12]
 110:d:/LiteOS_Lab/targets/STM32L431VCT6_Bossay/Src\spi.c ****   hspi3.Init.CLKPolarity = SPI_POLARITY_LOW;
 269              		.loc 1 110 26
 270 0020 154B     		ldr	r3, .L14
 271 0022 0022     		movs	r2, #0
 272 0024 1A61     		str	r2, [r3, #16]
 111:d:/LiteOS_Lab/targets/STM32L431VCT6_Bossay/Src\spi.c ****   hspi3.Init.CLKPhase = SPI_PHASE_1EDGE;
 273              		.loc 1 111 23
 274 0026 144B     		ldr	r3, .L14
 275 0028 0022     		movs	r2, #0
 276 002a 5A61     		str	r2, [r3, #20]
 112:d:/LiteOS_Lab/targets/STM32L431VCT6_Bossay/Src\spi.c ****   hspi3.Init.NSS = SPI_NSS_HARD_OUTPUT;
 277              		.loc 1 112 18
 278 002c 124B     		ldr	r3, .L14
 279 002e 4FF48022 		mov	r2, #262144
 280 0032 9A61     		str	r2, [r3, #24]
 113:d:/LiteOS_Lab/targets/STM32L431VCT6_Bossay/Src\spi.c ****   hspi3.Init.BaudRatePrescaler = SPI_BAUDRATEPRESCALER_2;
 281              		.loc 1 113 32
 282 0034 104B     		ldr	r3, .L14
 283 0036 0022     		movs	r2, #0
 284 0038 DA61     		str	r2, [r3, #28]
 114:d:/LiteOS_Lab/targets/STM32L431VCT6_Bossay/Src\spi.c ****   hspi3.Init.FirstBit = SPI_FIRSTBIT_MSB;
 285              		.loc 1 114 23
 286 003a 0F4B     		ldr	r3, .L14
ARM GAS  C:\Users\ADMINI~1\AppData\Local\Temp\cct2crrB.s 			page 8


 287 003c 0022     		movs	r2, #0
 288 003e 1A62     		str	r2, [r3, #32]
 115:d:/LiteOS_Lab/targets/STM32L431VCT6_Bossay/Src\spi.c ****   hspi3.Init.TIMode = SPI_TIMODE_DISABLE;
 289              		.loc 1 115 21
 290 0040 0D4B     		ldr	r3, .L14
 291 0042 0022     		movs	r2, #0
 292 0044 5A62     		str	r2, [r3, #36]
 116:d:/LiteOS_Lab/targets/STM32L431VCT6_Bossay/Src\spi.c ****   hspi3.Init.CRCCalculation = SPI_CRCCALCULATION_DISABLE;
 293              		.loc 1 116 29
 294 0046 0C4B     		ldr	r3, .L14
 295 0048 0022     		movs	r2, #0
 296 004a 9A62     		str	r2, [r3, #40]
 117:d:/LiteOS_Lab/targets/STM32L431VCT6_Bossay/Src\spi.c ****   hspi3.Init.CRCPolynomial = 7;
 297              		.loc 1 117 28
 298 004c 0A4B     		ldr	r3, .L14
 299 004e 0722     		movs	r2, #7
 300 0050 DA62     		str	r2, [r3, #44]
 118:d:/LiteOS_Lab/targets/STM32L431VCT6_Bossay/Src\spi.c ****   hspi3.Init.CRCLength = SPI_CRC_LENGTH_DATASIZE;
 301              		.loc 1 118 24
 302 0052 094B     		ldr	r3, .L14
 303 0054 0022     		movs	r2, #0
 304 0056 1A63     		str	r2, [r3, #48]
 119:d:/LiteOS_Lab/targets/STM32L431VCT6_Bossay/Src\spi.c ****   hspi3.Init.NSSPMode = SPI_NSS_PULSE_ENABLE;
 305              		.loc 1 119 23
 306 0058 074B     		ldr	r3, .L14
 307 005a 0822     		movs	r2, #8
 308 005c 5A63     		str	r2, [r3, #52]
 120:d:/LiteOS_Lab/targets/STM32L431VCT6_Bossay/Src\spi.c ****   if (HAL_SPI_Init(&hspi3) != HAL_OK)
 309              		.loc 1 120 7
 310 005e 0648     		ldr	r0, .L14
 311 0060 FFF7FEFF 		bl	HAL_SPI_Init
 312 0064 0346     		mov	r3, r0
 313              		.loc 1 120 6
 314 0066 002B     		cmp	r3, #0
 315 0068 03D0     		beq	.L13
 121:d:/LiteOS_Lab/targets/STM32L431VCT6_Bossay/Src\spi.c ****   {
 122:d:/LiteOS_Lab/targets/STM32L431VCT6_Bossay/Src\spi.c ****     Error_Handler();
 316              		.loc 1 122 5
 317 006a 7A21     		movs	r1, #122
 318 006c 0448     		ldr	r0, .L14+8
 319 006e FFF7FEFF 		bl	_Error_Handler
 320              	.L13:
 123:d:/LiteOS_Lab/targets/STM32L431VCT6_Bossay/Src\spi.c ****   }
 124:d:/LiteOS_Lab/targets/STM32L431VCT6_Bossay/Src\spi.c **** 
 125:d:/LiteOS_Lab/targets/STM32L431VCT6_Bossay/Src\spi.c **** }
 321              		.loc 1 125 1
 322 0072 00BF     		nop
 323 0074 80BD     		pop	{r7, pc}
 324              	.L15:
 325 0076 00BF     		.align	2
 326              	.L14:
 327 0078 00000000 		.word	hspi3
 328 007c 003C0040 		.word	1073757184
 329 0080 00000000 		.word	.LC0
 330              		.cfi_endproc
 331              	.LFE289:
 333              		.section	.text.HAL_SPI_MspInit,"ax",%progbits
ARM GAS  C:\Users\ADMINI~1\AppData\Local\Temp\cct2crrB.s 			page 9


 334              		.align	1
 335              		.global	HAL_SPI_MspInit
 336              		.syntax unified
 337              		.thumb
 338              		.thumb_func
 339              		.fpu fpv4-sp-d16
 341              	HAL_SPI_MspInit:
 342              	.LFB290:
 126:d:/LiteOS_Lab/targets/STM32L431VCT6_Bossay/Src\spi.c **** 
 127:d:/LiteOS_Lab/targets/STM32L431VCT6_Bossay/Src\spi.c **** void HAL_SPI_MspInit(SPI_HandleTypeDef* spiHandle)
 128:d:/LiteOS_Lab/targets/STM32L431VCT6_Bossay/Src\spi.c **** {
 343              		.loc 1 128 1
 344              		.cfi_startproc
 345              		@ args = 0, pretend = 0, frame = 72
 346              		@ frame_needed = 1, uses_anonymous_args = 0
 347 0000 80B5     		push	{r7, lr}
 348              	.LCFI6:
 349              		.cfi_def_cfa_offset 8
 350              		.cfi_offset 7, -8
 351              		.cfi_offset 14, -4
 352 0002 92B0     		sub	sp, sp, #72
 353              	.LCFI7:
 354              		.cfi_def_cfa_offset 80
 355 0004 00AF     		add	r7, sp, #0
 356              	.LCFI8:
 357              		.cfi_def_cfa_register 7
 358 0006 7860     		str	r0, [r7, #4]
 129:d:/LiteOS_Lab/targets/STM32L431VCT6_Bossay/Src\spi.c **** 
 130:d:/LiteOS_Lab/targets/STM32L431VCT6_Bossay/Src\spi.c ****   GPIO_InitTypeDef GPIO_InitStruct = {0};
 359              		.loc 1 130 20
 360 0008 07F13403 		add	r3, r7, #52
 361 000c 0022     		movs	r2, #0
 362 000e 1A60     		str	r2, [r3]
 363 0010 5A60     		str	r2, [r3, #4]
 364 0012 9A60     		str	r2, [r3, #8]
 365 0014 DA60     		str	r2, [r3, #12]
 366 0016 1A61     		str	r2, [r3, #16]
 131:d:/LiteOS_Lab/targets/STM32L431VCT6_Bossay/Src\spi.c ****   if(spiHandle->Instance==SPI1)
 367              		.loc 1 131 15
 368 0018 7B68     		ldr	r3, [r7, #4]
 369 001a 1B68     		ldr	r3, [r3]
 370              		.loc 1 131 5
 371 001c 804A     		ldr	r2, .L21
 372 001e 9342     		cmp	r3, r2
 373 0020 46D1     		bne	.L17
 374              	.LBB2:
 132:d:/LiteOS_Lab/targets/STM32L431VCT6_Bossay/Src\spi.c ****   {
 133:d:/LiteOS_Lab/targets/STM32L431VCT6_Bossay/Src\spi.c ****   /* USER CODE BEGIN SPI1_MspInit 0 */
 134:d:/LiteOS_Lab/targets/STM32L431VCT6_Bossay/Src\spi.c **** 
 135:d:/LiteOS_Lab/targets/STM32L431VCT6_Bossay/Src\spi.c ****   /* USER CODE END SPI1_MspInit 0 */
 136:d:/LiteOS_Lab/targets/STM32L431VCT6_Bossay/Src\spi.c ****     /* SPI1 clock enable */
 137:d:/LiteOS_Lab/targets/STM32L431VCT6_Bossay/Src\spi.c ****     __HAL_RCC_SPI1_CLK_ENABLE();
 375              		.loc 1 137 5
 376 0022 804B     		ldr	r3, .L21+4
 377 0024 1B6E     		ldr	r3, [r3, #96]
 378 0026 7F4A     		ldr	r2, .L21+4
 379 0028 43F48053 		orr	r3, r3, #4096
ARM GAS  C:\Users\ADMINI~1\AppData\Local\Temp\cct2crrB.s 			page 10


 380 002c 1366     		str	r3, [r2, #96]
 381 002e 7D4B     		ldr	r3, .L21+4
 382 0030 1B6E     		ldr	r3, [r3, #96]
 383 0032 03F48053 		and	r3, r3, #4096
 384 0036 3B63     		str	r3, [r7, #48]
 385 0038 3B6B     		ldr	r3, [r7, #48]
 386              	.LBE2:
 387              	.LBB3:
 138:d:/LiteOS_Lab/targets/STM32L431VCT6_Bossay/Src\spi.c ****   
 139:d:/LiteOS_Lab/targets/STM32L431VCT6_Bossay/Src\spi.c ****     __HAL_RCC_GPIOA_CLK_ENABLE();
 388              		.loc 1 139 5
 389 003a 7A4B     		ldr	r3, .L21+4
 390 003c DB6C     		ldr	r3, [r3, #76]
 391 003e 794A     		ldr	r2, .L21+4
 392 0040 43F00103 		orr	r3, r3, #1
 393 0044 D364     		str	r3, [r2, #76]
 394 0046 774B     		ldr	r3, .L21+4
 395 0048 DB6C     		ldr	r3, [r3, #76]
 396 004a 03F00103 		and	r3, r3, #1
 397 004e FB62     		str	r3, [r7, #44]
 398 0050 FB6A     		ldr	r3, [r7, #44]
 399              	.LBE3:
 400              	.LBB4:
 140:d:/LiteOS_Lab/targets/STM32L431VCT6_Bossay/Src\spi.c ****     __HAL_RCC_GPIOE_CLK_ENABLE();
 401              		.loc 1 140 5
 402 0052 744B     		ldr	r3, .L21+4
 403 0054 DB6C     		ldr	r3, [r3, #76]
 404 0056 734A     		ldr	r2, .L21+4
 405 0058 43F01003 		orr	r3, r3, #16
 406 005c D364     		str	r3, [r2, #76]
 407 005e 714B     		ldr	r3, .L21+4
 408 0060 DB6C     		ldr	r3, [r3, #76]
 409 0062 03F01003 		and	r3, r3, #16
 410 0066 BB62     		str	r3, [r7, #40]
 411 0068 BB6A     		ldr	r3, [r7, #40]
 412              	.LBE4:
 141:d:/LiteOS_Lab/targets/STM32L431VCT6_Bossay/Src\spi.c ****     /**SPI1 GPIO Configuration    
 142:d:/LiteOS_Lab/targets/STM32L431VCT6_Bossay/Src\spi.c ****     PA1     ------> SPI1_SCK
 143:d:/LiteOS_Lab/targets/STM32L431VCT6_Bossay/Src\spi.c ****     PE15     ------> SPI1_MOSI 
 144:d:/LiteOS_Lab/targets/STM32L431VCT6_Bossay/Src\spi.c ****     */
 145:d:/LiteOS_Lab/targets/STM32L431VCT6_Bossay/Src\spi.c ****     GPIO_InitStruct.Pin = LCD_SPI_SCK_Pin;
 413              		.loc 1 145 25
 414 006a 0223     		movs	r3, #2
 415 006c 7B63     		str	r3, [r7, #52]
 146:d:/LiteOS_Lab/targets/STM32L431VCT6_Bossay/Src\spi.c ****     GPIO_InitStruct.Mode = GPIO_MODE_AF_PP;
 416              		.loc 1 146 26
 417 006e 0223     		movs	r3, #2
 418 0070 BB63     		str	r3, [r7, #56]
 147:d:/LiteOS_Lab/targets/STM32L431VCT6_Bossay/Src\spi.c ****     GPIO_InitStruct.Pull = GPIO_NOPULL;
 419              		.loc 1 147 26
 420 0072 0023     		movs	r3, #0
 421 0074 FB63     		str	r3, [r7, #60]
 148:d:/LiteOS_Lab/targets/STM32L431VCT6_Bossay/Src\spi.c ****     GPIO_InitStruct.Speed = GPIO_SPEED_FREQ_VERY_HIGH;
 422              		.loc 1 148 27
 423 0076 0323     		movs	r3, #3
 424 0078 3B64     		str	r3, [r7, #64]
 149:d:/LiteOS_Lab/targets/STM32L431VCT6_Bossay/Src\spi.c ****     GPIO_InitStruct.Alternate = GPIO_AF5_SPI1;
ARM GAS  C:\Users\ADMINI~1\AppData\Local\Temp\cct2crrB.s 			page 11


 425              		.loc 1 149 31
 426 007a 0523     		movs	r3, #5
 427 007c 7B64     		str	r3, [r7, #68]
 150:d:/LiteOS_Lab/targets/STM32L431VCT6_Bossay/Src\spi.c ****     HAL_GPIO_Init(LCD_SPI_SCK_GPIO_Port, &GPIO_InitStruct);
 428              		.loc 1 150 5
 429 007e 07F13403 		add	r3, r7, #52
 430 0082 1946     		mov	r1, r3
 431 0084 4FF09040 		mov	r0, #1207959552
 432 0088 FFF7FEFF 		bl	HAL_GPIO_Init
 151:d:/LiteOS_Lab/targets/STM32L431VCT6_Bossay/Src\spi.c **** 
 152:d:/LiteOS_Lab/targets/STM32L431VCT6_Bossay/Src\spi.c ****     GPIO_InitStruct.Pin = LCD_SPI_MOSI_Pin;
 433              		.loc 1 152 25
 434 008c 4FF40043 		mov	r3, #32768
 435 0090 7B63     		str	r3, [r7, #52]
 153:d:/LiteOS_Lab/targets/STM32L431VCT6_Bossay/Src\spi.c ****     GPIO_InitStruct.Mode = GPIO_MODE_AF_PP;
 436              		.loc 1 153 26
 437 0092 0223     		movs	r3, #2
 438 0094 BB63     		str	r3, [r7, #56]
 154:d:/LiteOS_Lab/targets/STM32L431VCT6_Bossay/Src\spi.c ****     GPIO_InitStruct.Pull = GPIO_NOPULL;
 439              		.loc 1 154 26
 440 0096 0023     		movs	r3, #0
 441 0098 FB63     		str	r3, [r7, #60]
 155:d:/LiteOS_Lab/targets/STM32L431VCT6_Bossay/Src\spi.c ****     GPIO_InitStruct.Speed = GPIO_SPEED_FREQ_VERY_HIGH;
 442              		.loc 1 155 27
 443 009a 0323     		movs	r3, #3
 444 009c 3B64     		str	r3, [r7, #64]
 156:d:/LiteOS_Lab/targets/STM32L431VCT6_Bossay/Src\spi.c ****     GPIO_InitStruct.Alternate = GPIO_AF5_SPI1;
 445              		.loc 1 156 31
 446 009e 0523     		movs	r3, #5
 447 00a0 7B64     		str	r3, [r7, #68]
 157:d:/LiteOS_Lab/targets/STM32L431VCT6_Bossay/Src\spi.c ****     HAL_GPIO_Init(LCD_SPI_MOSI_GPIO_Port, &GPIO_InitStruct);
 448              		.loc 1 157 5
 449 00a2 07F13403 		add	r3, r7, #52
 450 00a6 1946     		mov	r1, r3
 451 00a8 5F48     		ldr	r0, .L21+8
 452 00aa FFF7FEFF 		bl	HAL_GPIO_Init
 158:d:/LiteOS_Lab/targets/STM32L431VCT6_Bossay/Src\spi.c **** 
 159:d:/LiteOS_Lab/targets/STM32L431VCT6_Bossay/Src\spi.c ****   /* USER CODE BEGIN SPI1_MspInit 1 */
 160:d:/LiteOS_Lab/targets/STM32L431VCT6_Bossay/Src\spi.c **** 
 161:d:/LiteOS_Lab/targets/STM32L431VCT6_Bossay/Src\spi.c ****   /* USER CODE END SPI1_MspInit 1 */
 162:d:/LiteOS_Lab/targets/STM32L431VCT6_Bossay/Src\spi.c ****   }
 163:d:/LiteOS_Lab/targets/STM32L431VCT6_Bossay/Src\spi.c ****   else if(spiHandle->Instance==SPI2)
 164:d:/LiteOS_Lab/targets/STM32L431VCT6_Bossay/Src\spi.c ****   {
 165:d:/LiteOS_Lab/targets/STM32L431VCT6_Bossay/Src\spi.c ****   /* USER CODE BEGIN SPI2_MspInit 0 */
 166:d:/LiteOS_Lab/targets/STM32L431VCT6_Bossay/Src\spi.c **** 
 167:d:/LiteOS_Lab/targets/STM32L431VCT6_Bossay/Src\spi.c ****   /* USER CODE END SPI2_MspInit 0 */
 168:d:/LiteOS_Lab/targets/STM32L431VCT6_Bossay/Src\spi.c ****     /* SPI2 clock enable */
 169:d:/LiteOS_Lab/targets/STM32L431VCT6_Bossay/Src\spi.c ****     __HAL_RCC_SPI2_CLK_ENABLE();
 170:d:/LiteOS_Lab/targets/STM32L431VCT6_Bossay/Src\spi.c ****   
 171:d:/LiteOS_Lab/targets/STM32L431VCT6_Bossay/Src\spi.c ****     __HAL_RCC_GPIOC_CLK_ENABLE();
 172:d:/LiteOS_Lab/targets/STM32L431VCT6_Bossay/Src\spi.c ****     __HAL_RCC_GPIOB_CLK_ENABLE();
 173:d:/LiteOS_Lab/targets/STM32L431VCT6_Bossay/Src\spi.c ****     /**SPI2 GPIO Configuration    
 174:d:/LiteOS_Lab/targets/STM32L431VCT6_Bossay/Src\spi.c ****     PC2     ------> SPI2_MISO
 175:d:/LiteOS_Lab/targets/STM32L431VCT6_Bossay/Src\spi.c ****     PB12     ------> SPI2_NSS
 176:d:/LiteOS_Lab/targets/STM32L431VCT6_Bossay/Src\spi.c ****     PB13     ------> SPI2_SCK
 177:d:/LiteOS_Lab/targets/STM32L431VCT6_Bossay/Src\spi.c ****     PB15     ------> SPI2_MOSI 
 178:d:/LiteOS_Lab/targets/STM32L431VCT6_Bossay/Src\spi.c ****     */
ARM GAS  C:\Users\ADMINI~1\AppData\Local\Temp\cct2crrB.s 			page 12


 179:d:/LiteOS_Lab/targets/STM32L431VCT6_Bossay/Src\spi.c ****     GPIO_InitStruct.Pin = RSRV_SPI_MISO_Pin;
 180:d:/LiteOS_Lab/targets/STM32L431VCT6_Bossay/Src\spi.c ****     GPIO_InitStruct.Mode = GPIO_MODE_AF_PP;
 181:d:/LiteOS_Lab/targets/STM32L431VCT6_Bossay/Src\spi.c ****     GPIO_InitStruct.Pull = GPIO_NOPULL;
 182:d:/LiteOS_Lab/targets/STM32L431VCT6_Bossay/Src\spi.c ****     GPIO_InitStruct.Speed = GPIO_SPEED_FREQ_VERY_HIGH;
 183:d:/LiteOS_Lab/targets/STM32L431VCT6_Bossay/Src\spi.c ****     GPIO_InitStruct.Alternate = GPIO_AF5_SPI2;
 184:d:/LiteOS_Lab/targets/STM32L431VCT6_Bossay/Src\spi.c ****     HAL_GPIO_Init(RSRV_SPI_MISO_GPIO_Port, &GPIO_InitStruct);
 185:d:/LiteOS_Lab/targets/STM32L431VCT6_Bossay/Src\spi.c **** 
 186:d:/LiteOS_Lab/targets/STM32L431VCT6_Bossay/Src\spi.c ****     GPIO_InitStruct.Pin = RSRV_SPI_NSS_Pin|RSRV_SPI_SCK_Pin|RSRV_SPI_MOSI_Pin;
 187:d:/LiteOS_Lab/targets/STM32L431VCT6_Bossay/Src\spi.c ****     GPIO_InitStruct.Mode = GPIO_MODE_AF_PP;
 188:d:/LiteOS_Lab/targets/STM32L431VCT6_Bossay/Src\spi.c ****     GPIO_InitStruct.Pull = GPIO_NOPULL;
 189:d:/LiteOS_Lab/targets/STM32L431VCT6_Bossay/Src\spi.c ****     GPIO_InitStruct.Speed = GPIO_SPEED_FREQ_VERY_HIGH;
 190:d:/LiteOS_Lab/targets/STM32L431VCT6_Bossay/Src\spi.c ****     GPIO_InitStruct.Alternate = GPIO_AF5_SPI2;
 191:d:/LiteOS_Lab/targets/STM32L431VCT6_Bossay/Src\spi.c ****     HAL_GPIO_Init(GPIOB, &GPIO_InitStruct);
 192:d:/LiteOS_Lab/targets/STM32L431VCT6_Bossay/Src\spi.c **** 
 193:d:/LiteOS_Lab/targets/STM32L431VCT6_Bossay/Src\spi.c ****   /* USER CODE BEGIN SPI2_MspInit 1 */
 194:d:/LiteOS_Lab/targets/STM32L431VCT6_Bossay/Src\spi.c **** 
 195:d:/LiteOS_Lab/targets/STM32L431VCT6_Bossay/Src\spi.c ****   /* USER CODE END SPI2_MspInit 1 */
 196:d:/LiteOS_Lab/targets/STM32L431VCT6_Bossay/Src\spi.c ****   }
 197:d:/LiteOS_Lab/targets/STM32L431VCT6_Bossay/Src\spi.c ****   else if(spiHandle->Instance==SPI3)
 198:d:/LiteOS_Lab/targets/STM32L431VCT6_Bossay/Src\spi.c ****   {
 199:d:/LiteOS_Lab/targets/STM32L431VCT6_Bossay/Src\spi.c ****   /* USER CODE BEGIN SPI3_MspInit 0 */
 200:d:/LiteOS_Lab/targets/STM32L431VCT6_Bossay/Src\spi.c **** 
 201:d:/LiteOS_Lab/targets/STM32L431VCT6_Bossay/Src\spi.c ****   /* USER CODE END SPI3_MspInit 0 */
 202:d:/LiteOS_Lab/targets/STM32L431VCT6_Bossay/Src\spi.c ****     /* SPI3 clock enable */
 203:d:/LiteOS_Lab/targets/STM32L431VCT6_Bossay/Src\spi.c ****     __HAL_RCC_SPI3_CLK_ENABLE();
 204:d:/LiteOS_Lab/targets/STM32L431VCT6_Bossay/Src\spi.c ****   
 205:d:/LiteOS_Lab/targets/STM32L431VCT6_Bossay/Src\spi.c ****     __HAL_RCC_GPIOA_CLK_ENABLE();
 206:d:/LiteOS_Lab/targets/STM32L431VCT6_Bossay/Src\spi.c ****     __HAL_RCC_GPIOC_CLK_ENABLE();
 207:d:/LiteOS_Lab/targets/STM32L431VCT6_Bossay/Src\spi.c ****     __HAL_RCC_GPIOB_CLK_ENABLE();
 208:d:/LiteOS_Lab/targets/STM32L431VCT6_Bossay/Src\spi.c ****     /**SPI3 GPIO Configuration    
 209:d:/LiteOS_Lab/targets/STM32L431VCT6_Bossay/Src\spi.c ****     PA15 (JTDI)     ------> SPI3_NSS
 210:d:/LiteOS_Lab/targets/STM32L431VCT6_Bossay/Src\spi.c ****     PC10     ------> SPI3_SCK
 211:d:/LiteOS_Lab/targets/STM32L431VCT6_Bossay/Src\spi.c ****     PC11     ------> SPI3_MISO
 212:d:/LiteOS_Lab/targets/STM32L431VCT6_Bossay/Src\spi.c ****     PB5     ------> SPI3_MOSI 
 213:d:/LiteOS_Lab/targets/STM32L431VCT6_Bossay/Src\spi.c ****     */
 214:d:/LiteOS_Lab/targets/STM32L431VCT6_Bossay/Src\spi.c ****     GPIO_InitStruct.Pin = LOAR_SPI_NSS_Pin;
 215:d:/LiteOS_Lab/targets/STM32L431VCT6_Bossay/Src\spi.c ****     GPIO_InitStruct.Mode = GPIO_MODE_AF_PP;
 216:d:/LiteOS_Lab/targets/STM32L431VCT6_Bossay/Src\spi.c ****     GPIO_InitStruct.Pull = GPIO_NOPULL;
 217:d:/LiteOS_Lab/targets/STM32L431VCT6_Bossay/Src\spi.c ****     GPIO_InitStruct.Speed = GPIO_SPEED_FREQ_VERY_HIGH;
 218:d:/LiteOS_Lab/targets/STM32L431VCT6_Bossay/Src\spi.c ****     GPIO_InitStruct.Alternate = GPIO_AF6_SPI3;
 219:d:/LiteOS_Lab/targets/STM32L431VCT6_Bossay/Src\spi.c ****     HAL_GPIO_Init(LOAR_SPI_NSS_GPIO_Port, &GPIO_InitStruct);
 220:d:/LiteOS_Lab/targets/STM32L431VCT6_Bossay/Src\spi.c **** 
 221:d:/LiteOS_Lab/targets/STM32L431VCT6_Bossay/Src\spi.c ****     GPIO_InitStruct.Pin = LORA_SPI_SCK_Pin|LORA_SPI_MISO_Pin;
 222:d:/LiteOS_Lab/targets/STM32L431VCT6_Bossay/Src\spi.c ****     GPIO_InitStruct.Mode = GPIO_MODE_AF_PP;
 223:d:/LiteOS_Lab/targets/STM32L431VCT6_Bossay/Src\spi.c ****     GPIO_InitStruct.Pull = GPIO_NOPULL;
 224:d:/LiteOS_Lab/targets/STM32L431VCT6_Bossay/Src\spi.c ****     GPIO_InitStruct.Speed = GPIO_SPEED_FREQ_VERY_HIGH;
 225:d:/LiteOS_Lab/targets/STM32L431VCT6_Bossay/Src\spi.c ****     GPIO_InitStruct.Alternate = GPIO_AF6_SPI3;
 226:d:/LiteOS_Lab/targets/STM32L431VCT6_Bossay/Src\spi.c ****     HAL_GPIO_Init(GPIOC, &GPIO_InitStruct);
 227:d:/LiteOS_Lab/targets/STM32L431VCT6_Bossay/Src\spi.c **** 
 228:d:/LiteOS_Lab/targets/STM32L431VCT6_Bossay/Src\spi.c ****     GPIO_InitStruct.Pin = LORA_SPI_MOSI_Pin;
 229:d:/LiteOS_Lab/targets/STM32L431VCT6_Bossay/Src\spi.c ****     GPIO_InitStruct.Mode = GPIO_MODE_AF_PP;
 230:d:/LiteOS_Lab/targets/STM32L431VCT6_Bossay/Src\spi.c ****     GPIO_InitStruct.Pull = GPIO_NOPULL;
 231:d:/LiteOS_Lab/targets/STM32L431VCT6_Bossay/Src\spi.c ****     GPIO_InitStruct.Speed = GPIO_SPEED_FREQ_VERY_HIGH;
 232:d:/LiteOS_Lab/targets/STM32L431VCT6_Bossay/Src\spi.c ****     GPIO_InitStruct.Alternate = GPIO_AF6_SPI3;
 233:d:/LiteOS_Lab/targets/STM32L431VCT6_Bossay/Src\spi.c ****     HAL_GPIO_Init(LORA_SPI_MOSI_GPIO_Port, &GPIO_InitStruct);
 234:d:/LiteOS_Lab/targets/STM32L431VCT6_Bossay/Src\spi.c **** 
 235:d:/LiteOS_Lab/targets/STM32L431VCT6_Bossay/Src\spi.c ****   /* USER CODE BEGIN SPI3_MspInit 1 */
ARM GAS  C:\Users\ADMINI~1\AppData\Local\Temp\cct2crrB.s 			page 13


 236:d:/LiteOS_Lab/targets/STM32L431VCT6_Bossay/Src\spi.c **** 
 237:d:/LiteOS_Lab/targets/STM32L431VCT6_Bossay/Src\spi.c ****   /* USER CODE END SPI3_MspInit 1 */
 238:d:/LiteOS_Lab/targets/STM32L431VCT6_Bossay/Src\spi.c ****   }
 239:d:/LiteOS_Lab/targets/STM32L431VCT6_Bossay/Src\spi.c **** }
 453              		.loc 1 239 1
 454 00ae B2E0     		b	.L20
 455              	.L17:
 163:d:/LiteOS_Lab/targets/STM32L431VCT6_Bossay/Src\spi.c ****   {
 456              		.loc 1 163 20
 457 00b0 7B68     		ldr	r3, [r7, #4]
 458 00b2 1B68     		ldr	r3, [r3]
 163:d:/LiteOS_Lab/targets/STM32L431VCT6_Bossay/Src\spi.c ****   {
 459              		.loc 1 163 10
 460 00b4 5D4A     		ldr	r2, .L21+12
 461 00b6 9342     		cmp	r3, r2
 462 00b8 45D1     		bne	.L19
 463              	.LBB5:
 169:d:/LiteOS_Lab/targets/STM32L431VCT6_Bossay/Src\spi.c ****   
 464              		.loc 1 169 5
 465 00ba 5A4B     		ldr	r3, .L21+4
 466 00bc 9B6D     		ldr	r3, [r3, #88]
 467 00be 594A     		ldr	r2, .L21+4
 468 00c0 43F48043 		orr	r3, r3, #16384
 469 00c4 9365     		str	r3, [r2, #88]
 470 00c6 574B     		ldr	r3, .L21+4
 471 00c8 9B6D     		ldr	r3, [r3, #88]
 472 00ca 03F48043 		and	r3, r3, #16384
 473 00ce 7B62     		str	r3, [r7, #36]
 474 00d0 7B6A     		ldr	r3, [r7, #36]
 475              	.LBE5:
 476              	.LBB6:
 171:d:/LiteOS_Lab/targets/STM32L431VCT6_Bossay/Src\spi.c ****     __HAL_RCC_GPIOB_CLK_ENABLE();
 477              		.loc 1 171 5
 478 00d2 544B     		ldr	r3, .L21+4
 479 00d4 DB6C     		ldr	r3, [r3, #76]
 480 00d6 534A     		ldr	r2, .L21+4
 481 00d8 43F00403 		orr	r3, r3, #4
 482 00dc D364     		str	r3, [r2, #76]
 483 00de 514B     		ldr	r3, .L21+4
 484 00e0 DB6C     		ldr	r3, [r3, #76]
 485 00e2 03F00403 		and	r3, r3, #4
 486 00e6 3B62     		str	r3, [r7, #32]
 487 00e8 3B6A     		ldr	r3, [r7, #32]
 488              	.LBE6:
 489              	.LBB7:
 172:d:/LiteOS_Lab/targets/STM32L431VCT6_Bossay/Src\spi.c ****     /**SPI2 GPIO Configuration    
 490              		.loc 1 172 5
 491 00ea 4E4B     		ldr	r3, .L21+4
 492 00ec DB6C     		ldr	r3, [r3, #76]
 493 00ee 4D4A     		ldr	r2, .L21+4
 494 00f0 43F00203 		orr	r3, r3, #2
 495 00f4 D364     		str	r3, [r2, #76]
 496 00f6 4B4B     		ldr	r3, .L21+4
 497 00f8 DB6C     		ldr	r3, [r3, #76]
 498 00fa 03F00203 		and	r3, r3, #2
 499 00fe FB61     		str	r3, [r7, #28]
 500 0100 FB69     		ldr	r3, [r7, #28]
ARM GAS  C:\Users\ADMINI~1\AppData\Local\Temp\cct2crrB.s 			page 14


 501              	.LBE7:
 179:d:/LiteOS_Lab/targets/STM32L431VCT6_Bossay/Src\spi.c ****     GPIO_InitStruct.Mode = GPIO_MODE_AF_PP;
 502              		.loc 1 179 25
 503 0102 0423     		movs	r3, #4
 504 0104 7B63     		str	r3, [r7, #52]
 180:d:/LiteOS_Lab/targets/STM32L431VCT6_Bossay/Src\spi.c ****     GPIO_InitStruct.Pull = GPIO_NOPULL;
 505              		.loc 1 180 26
 506 0106 0223     		movs	r3, #2
 507 0108 BB63     		str	r3, [r7, #56]
 181:d:/LiteOS_Lab/targets/STM32L431VCT6_Bossay/Src\spi.c ****     GPIO_InitStruct.Speed = GPIO_SPEED_FREQ_VERY_HIGH;
 508              		.loc 1 181 26
 509 010a 0023     		movs	r3, #0
 510 010c FB63     		str	r3, [r7, #60]
 182:d:/LiteOS_Lab/targets/STM32L431VCT6_Bossay/Src\spi.c ****     GPIO_InitStruct.Alternate = GPIO_AF5_SPI2;
 511              		.loc 1 182 27
 512 010e 0323     		movs	r3, #3
 513 0110 3B64     		str	r3, [r7, #64]
 183:d:/LiteOS_Lab/targets/STM32L431VCT6_Bossay/Src\spi.c ****     HAL_GPIO_Init(RSRV_SPI_MISO_GPIO_Port, &GPIO_InitStruct);
 514              		.loc 1 183 31
 515 0112 0523     		movs	r3, #5
 516 0114 7B64     		str	r3, [r7, #68]
 184:d:/LiteOS_Lab/targets/STM32L431VCT6_Bossay/Src\spi.c **** 
 517              		.loc 1 184 5
 518 0116 07F13403 		add	r3, r7, #52
 519 011a 1946     		mov	r1, r3
 520 011c 4448     		ldr	r0, .L21+16
 521 011e FFF7FEFF 		bl	HAL_GPIO_Init
 186:d:/LiteOS_Lab/targets/STM32L431VCT6_Bossay/Src\spi.c ****     GPIO_InitStruct.Mode = GPIO_MODE_AF_PP;
 522              		.loc 1 186 25
 523 0122 4FF43043 		mov	r3, #45056
 524 0126 7B63     		str	r3, [r7, #52]
 187:d:/LiteOS_Lab/targets/STM32L431VCT6_Bossay/Src\spi.c ****     GPIO_InitStruct.Pull = GPIO_NOPULL;
 525              		.loc 1 187 26
 526 0128 0223     		movs	r3, #2
 527 012a BB63     		str	r3, [r7, #56]
 188:d:/LiteOS_Lab/targets/STM32L431VCT6_Bossay/Src\spi.c ****     GPIO_InitStruct.Speed = GPIO_SPEED_FREQ_VERY_HIGH;
 528              		.loc 1 188 26
 529 012c 0023     		movs	r3, #0
 530 012e FB63     		str	r3, [r7, #60]
 189:d:/LiteOS_Lab/targets/STM32L431VCT6_Bossay/Src\spi.c ****     GPIO_InitStruct.Alternate = GPIO_AF5_SPI2;
 531              		.loc 1 189 27
 532 0130 0323     		movs	r3, #3
 533 0132 3B64     		str	r3, [r7, #64]
 190:d:/LiteOS_Lab/targets/STM32L431VCT6_Bossay/Src\spi.c ****     HAL_GPIO_Init(GPIOB, &GPIO_InitStruct);
 534              		.loc 1 190 31
 535 0134 0523     		movs	r3, #5
 536 0136 7B64     		str	r3, [r7, #68]
 191:d:/LiteOS_Lab/targets/STM32L431VCT6_Bossay/Src\spi.c **** 
 537              		.loc 1 191 5
 538 0138 07F13403 		add	r3, r7, #52
 539 013c 1946     		mov	r1, r3
 540 013e 3D48     		ldr	r0, .L21+20
 541 0140 FFF7FEFF 		bl	HAL_GPIO_Init
 542              		.loc 1 239 1
 543 0144 67E0     		b	.L20
 544              	.L19:
 197:d:/LiteOS_Lab/targets/STM32L431VCT6_Bossay/Src\spi.c ****   {
ARM GAS  C:\Users\ADMINI~1\AppData\Local\Temp\cct2crrB.s 			page 15


 545              		.loc 1 197 20
 546 0146 7B68     		ldr	r3, [r7, #4]
 547 0148 1B68     		ldr	r3, [r3]
 197:d:/LiteOS_Lab/targets/STM32L431VCT6_Bossay/Src\spi.c ****   {
 548              		.loc 1 197 10
 549 014a 3B4A     		ldr	r2, .L21+24
 550 014c 9342     		cmp	r3, r2
 551 014e 62D1     		bne	.L20
 552              	.LBB8:
 203:d:/LiteOS_Lab/targets/STM32L431VCT6_Bossay/Src\spi.c ****   
 553              		.loc 1 203 5
 554 0150 344B     		ldr	r3, .L21+4
 555 0152 9B6D     		ldr	r3, [r3, #88]
 556 0154 334A     		ldr	r2, .L21+4
 557 0156 43F40043 		orr	r3, r3, #32768
 558 015a 9365     		str	r3, [r2, #88]
 559 015c 314B     		ldr	r3, .L21+4
 560 015e 9B6D     		ldr	r3, [r3, #88]
 561 0160 03F40043 		and	r3, r3, #32768
 562 0164 BB61     		str	r3, [r7, #24]
 563 0166 BB69     		ldr	r3, [r7, #24]
 564              	.LBE8:
 565              	.LBB9:
 205:d:/LiteOS_Lab/targets/STM32L431VCT6_Bossay/Src\spi.c ****     __HAL_RCC_GPIOC_CLK_ENABLE();
 566              		.loc 1 205 5
 567 0168 2E4B     		ldr	r3, .L21+4
 568 016a DB6C     		ldr	r3, [r3, #76]
 569 016c 2D4A     		ldr	r2, .L21+4
 570 016e 43F00103 		orr	r3, r3, #1
 571 0172 D364     		str	r3, [r2, #76]
 572 0174 2B4B     		ldr	r3, .L21+4
 573 0176 DB6C     		ldr	r3, [r3, #76]
 574 0178 03F00103 		and	r3, r3, #1
 575 017c 7B61     		str	r3, [r7, #20]
 576 017e 7B69     		ldr	r3, [r7, #20]
 577              	.LBE9:
 578              	.LBB10:
 206:d:/LiteOS_Lab/targets/STM32L431VCT6_Bossay/Src\spi.c ****     __HAL_RCC_GPIOB_CLK_ENABLE();
 579              		.loc 1 206 5
 580 0180 284B     		ldr	r3, .L21+4
 581 0182 DB6C     		ldr	r3, [r3, #76]
 582 0184 274A     		ldr	r2, .L21+4
 583 0186 43F00403 		orr	r3, r3, #4
 584 018a D364     		str	r3, [r2, #76]
 585 018c 254B     		ldr	r3, .L21+4
 586 018e DB6C     		ldr	r3, [r3, #76]
 587 0190 03F00403 		and	r3, r3, #4
 588 0194 3B61     		str	r3, [r7, #16]
 589 0196 3B69     		ldr	r3, [r7, #16]
 590              	.LBE10:
 591              	.LBB11:
 207:d:/LiteOS_Lab/targets/STM32L431VCT6_Bossay/Src\spi.c ****     /**SPI3 GPIO Configuration    
 592              		.loc 1 207 5
 593 0198 224B     		ldr	r3, .L21+4
 594 019a DB6C     		ldr	r3, [r3, #76]
 595 019c 214A     		ldr	r2, .L21+4
 596 019e 43F00203 		orr	r3, r3, #2
ARM GAS  C:\Users\ADMINI~1\AppData\Local\Temp\cct2crrB.s 			page 16


 597 01a2 D364     		str	r3, [r2, #76]
 598 01a4 1F4B     		ldr	r3, .L21+4
 599 01a6 DB6C     		ldr	r3, [r3, #76]
 600 01a8 03F00203 		and	r3, r3, #2
 601 01ac FB60     		str	r3, [r7, #12]
 602 01ae FB68     		ldr	r3, [r7, #12]
 603              	.LBE11:
 214:d:/LiteOS_Lab/targets/STM32L431VCT6_Bossay/Src\spi.c ****     GPIO_InitStruct.Mode = GPIO_MODE_AF_PP;
 604              		.loc 1 214 25
 605 01b0 4FF40043 		mov	r3, #32768
 606 01b4 7B63     		str	r3, [r7, #52]
 215:d:/LiteOS_Lab/targets/STM32L431VCT6_Bossay/Src\spi.c ****     GPIO_InitStruct.Pull = GPIO_NOPULL;
 607              		.loc 1 215 26
 608 01b6 0223     		movs	r3, #2
 609 01b8 BB63     		str	r3, [r7, #56]
 216:d:/LiteOS_Lab/targets/STM32L431VCT6_Bossay/Src\spi.c ****     GPIO_InitStruct.Speed = GPIO_SPEED_FREQ_VERY_HIGH;
 610              		.loc 1 216 26
 611 01ba 0023     		movs	r3, #0
 612 01bc FB63     		str	r3, [r7, #60]
 217:d:/LiteOS_Lab/targets/STM32L431VCT6_Bossay/Src\spi.c ****     GPIO_InitStruct.Alternate = GPIO_AF6_SPI3;
 613              		.loc 1 217 27
 614 01be 0323     		movs	r3, #3
 615 01c0 3B64     		str	r3, [r7, #64]
 218:d:/LiteOS_Lab/targets/STM32L431VCT6_Bossay/Src\spi.c ****     HAL_GPIO_Init(LOAR_SPI_NSS_GPIO_Port, &GPIO_InitStruct);
 616              		.loc 1 218 31
 617 01c2 0623     		movs	r3, #6
 618 01c4 7B64     		str	r3, [r7, #68]
 219:d:/LiteOS_Lab/targets/STM32L431VCT6_Bossay/Src\spi.c **** 
 619              		.loc 1 219 5
 620 01c6 07F13403 		add	r3, r7, #52
 621 01ca 1946     		mov	r1, r3
 622 01cc 4FF09040 		mov	r0, #1207959552
 623 01d0 FFF7FEFF 		bl	HAL_GPIO_Init
 221:d:/LiteOS_Lab/targets/STM32L431VCT6_Bossay/Src\spi.c ****     GPIO_InitStruct.Mode = GPIO_MODE_AF_PP;
 624              		.loc 1 221 25
 625 01d4 4FF44063 		mov	r3, #3072
 626 01d8 7B63     		str	r3, [r7, #52]
 222:d:/LiteOS_Lab/targets/STM32L431VCT6_Bossay/Src\spi.c ****     GPIO_InitStruct.Pull = GPIO_NOPULL;
 627              		.loc 1 222 26
 628 01da 0223     		movs	r3, #2
 629 01dc BB63     		str	r3, [r7, #56]
 223:d:/LiteOS_Lab/targets/STM32L431VCT6_Bossay/Src\spi.c ****     GPIO_InitStruct.Speed = GPIO_SPEED_FREQ_VERY_HIGH;
 630              		.loc 1 223 26
 631 01de 0023     		movs	r3, #0
 632 01e0 FB63     		str	r3, [r7, #60]
 224:d:/LiteOS_Lab/targets/STM32L431VCT6_Bossay/Src\spi.c ****     GPIO_InitStruct.Alternate = GPIO_AF6_SPI3;
 633              		.loc 1 224 27
 634 01e2 0323     		movs	r3, #3
 635 01e4 3B64     		str	r3, [r7, #64]
 225:d:/LiteOS_Lab/targets/STM32L431VCT6_Bossay/Src\spi.c ****     HAL_GPIO_Init(GPIOC, &GPIO_InitStruct);
 636              		.loc 1 225 31
 637 01e6 0623     		movs	r3, #6
 638 01e8 7B64     		str	r3, [r7, #68]
 226:d:/LiteOS_Lab/targets/STM32L431VCT6_Bossay/Src\spi.c **** 
 639              		.loc 1 226 5
 640 01ea 07F13403 		add	r3, r7, #52
 641 01ee 1946     		mov	r1, r3
ARM GAS  C:\Users\ADMINI~1\AppData\Local\Temp\cct2crrB.s 			page 17


 642 01f0 0F48     		ldr	r0, .L21+16
 643 01f2 FFF7FEFF 		bl	HAL_GPIO_Init
 228:d:/LiteOS_Lab/targets/STM32L431VCT6_Bossay/Src\spi.c ****     GPIO_InitStruct.Mode = GPIO_MODE_AF_PP;
 644              		.loc 1 228 25
 645 01f6 2023     		movs	r3, #32
 646 01f8 7B63     		str	r3, [r7, #52]
 229:d:/LiteOS_Lab/targets/STM32L431VCT6_Bossay/Src\spi.c ****     GPIO_InitStruct.Pull = GPIO_NOPULL;
 647              		.loc 1 229 26
 648 01fa 0223     		movs	r3, #2
 649 01fc BB63     		str	r3, [r7, #56]
 230:d:/LiteOS_Lab/targets/STM32L431VCT6_Bossay/Src\spi.c ****     GPIO_InitStruct.Speed = GPIO_SPEED_FREQ_VERY_HIGH;
 650              		.loc 1 230 26
 651 01fe 0023     		movs	r3, #0
 652 0200 FB63     		str	r3, [r7, #60]
 231:d:/LiteOS_Lab/targets/STM32L431VCT6_Bossay/Src\spi.c ****     GPIO_InitStruct.Alternate = GPIO_AF6_SPI3;
 653              		.loc 1 231 27
 654 0202 0323     		movs	r3, #3
 655 0204 3B64     		str	r3, [r7, #64]
 232:d:/LiteOS_Lab/targets/STM32L431VCT6_Bossay/Src\spi.c ****     HAL_GPIO_Init(LORA_SPI_MOSI_GPIO_Port, &GPIO_InitStruct);
 656              		.loc 1 232 31
 657 0206 0623     		movs	r3, #6
 658 0208 7B64     		str	r3, [r7, #68]
 233:d:/LiteOS_Lab/targets/STM32L431VCT6_Bossay/Src\spi.c **** 
 659              		.loc 1 233 5
 660 020a 07F13403 		add	r3, r7, #52
 661 020e 1946     		mov	r1, r3
 662 0210 0848     		ldr	r0, .L21+20
 663 0212 FFF7FEFF 		bl	HAL_GPIO_Init
 664              	.L20:
 665              		.loc 1 239 1
 666 0216 00BF     		nop
 667 0218 4837     		adds	r7, r7, #72
 668              	.LCFI9:
 669              		.cfi_def_cfa_offset 8
 670 021a BD46     		mov	sp, r7
 671              	.LCFI10:
 672              		.cfi_def_cfa_register 13
 673              		@ sp needed
 674 021c 80BD     		pop	{r7, pc}
 675              	.L22:
 676 021e 00BF     		.align	2
 677              	.L21:
 678 0220 00300140 		.word	1073819648
 679 0224 00100240 		.word	1073876992
 680 0228 00100048 		.word	1207963648
 681 022c 00380040 		.word	1073756160
 682 0230 00080048 		.word	1207961600
 683 0234 00040048 		.word	1207960576
 684 0238 003C0040 		.word	1073757184
 685              		.cfi_endproc
 686              	.LFE290:
 688              		.section	.text.HAL_SPI_MspDeInit,"ax",%progbits
 689              		.align	1
 690              		.global	HAL_SPI_MspDeInit
 691              		.syntax unified
 692              		.thumb
 693              		.thumb_func
ARM GAS  C:\Users\ADMINI~1\AppData\Local\Temp\cct2crrB.s 			page 18


 694              		.fpu fpv4-sp-d16
 696              	HAL_SPI_MspDeInit:
 697              	.LFB291:
 240:d:/LiteOS_Lab/targets/STM32L431VCT6_Bossay/Src\spi.c **** 
 241:d:/LiteOS_Lab/targets/STM32L431VCT6_Bossay/Src\spi.c **** void HAL_SPI_MspDeInit(SPI_HandleTypeDef* spiHandle)
 242:d:/LiteOS_Lab/targets/STM32L431VCT6_Bossay/Src\spi.c **** {
 698              		.loc 1 242 1
 699              		.cfi_startproc
 700              		@ args = 0, pretend = 0, frame = 8
 701              		@ frame_needed = 1, uses_anonymous_args = 0
 702 0000 80B5     		push	{r7, lr}
 703              	.LCFI11:
 704              		.cfi_def_cfa_offset 8
 705              		.cfi_offset 7, -8
 706              		.cfi_offset 14, -4
 707 0002 82B0     		sub	sp, sp, #8
 708              	.LCFI12:
 709              		.cfi_def_cfa_offset 16
 710 0004 00AF     		add	r7, sp, #0
 711              	.LCFI13:
 712              		.cfi_def_cfa_register 7
 713 0006 7860     		str	r0, [r7, #4]
 243:d:/LiteOS_Lab/targets/STM32L431VCT6_Bossay/Src\spi.c **** 
 244:d:/LiteOS_Lab/targets/STM32L431VCT6_Bossay/Src\spi.c ****   if(spiHandle->Instance==SPI1)
 714              		.loc 1 244 15
 715 0008 7B68     		ldr	r3, [r7, #4]
 716 000a 1B68     		ldr	r3, [r3]
 717              		.loc 1 244 5
 718 000c 234A     		ldr	r2, .L28
 719 000e 9342     		cmp	r3, r2
 720 0010 10D1     		bne	.L24
 245:d:/LiteOS_Lab/targets/STM32L431VCT6_Bossay/Src\spi.c ****   {
 246:d:/LiteOS_Lab/targets/STM32L431VCT6_Bossay/Src\spi.c ****   /* USER CODE BEGIN SPI1_MspDeInit 0 */
 247:d:/LiteOS_Lab/targets/STM32L431VCT6_Bossay/Src\spi.c **** 
 248:d:/LiteOS_Lab/targets/STM32L431VCT6_Bossay/Src\spi.c ****   /* USER CODE END SPI1_MspDeInit 0 */
 249:d:/LiteOS_Lab/targets/STM32L431VCT6_Bossay/Src\spi.c ****     /* Peripheral clock disable */
 250:d:/LiteOS_Lab/targets/STM32L431VCT6_Bossay/Src\spi.c ****     __HAL_RCC_SPI1_CLK_DISABLE();
 721              		.loc 1 250 5
 722 0012 234B     		ldr	r3, .L28+4
 723 0014 1B6E     		ldr	r3, [r3, #96]
 724 0016 224A     		ldr	r2, .L28+4
 725 0018 23F48053 		bic	r3, r3, #4096
 726 001c 1366     		str	r3, [r2, #96]
 251:d:/LiteOS_Lab/targets/STM32L431VCT6_Bossay/Src\spi.c ****   
 252:d:/LiteOS_Lab/targets/STM32L431VCT6_Bossay/Src\spi.c ****     /**SPI1 GPIO Configuration    
 253:d:/LiteOS_Lab/targets/STM32L431VCT6_Bossay/Src\spi.c ****     PA1     ------> SPI1_SCK
 254:d:/LiteOS_Lab/targets/STM32L431VCT6_Bossay/Src\spi.c ****     PE15     ------> SPI1_MOSI 
 255:d:/LiteOS_Lab/targets/STM32L431VCT6_Bossay/Src\spi.c ****     */
 256:d:/LiteOS_Lab/targets/STM32L431VCT6_Bossay/Src\spi.c ****     HAL_GPIO_DeInit(LCD_SPI_SCK_GPIO_Port, LCD_SPI_SCK_Pin);
 727              		.loc 1 256 5
 728 001e 0221     		movs	r1, #2
 729 0020 4FF09040 		mov	r0, #1207959552
 730 0024 FFF7FEFF 		bl	HAL_GPIO_DeInit
 257:d:/LiteOS_Lab/targets/STM32L431VCT6_Bossay/Src\spi.c **** 
 258:d:/LiteOS_Lab/targets/STM32L431VCT6_Bossay/Src\spi.c ****     HAL_GPIO_DeInit(LCD_SPI_MOSI_GPIO_Port, LCD_SPI_MOSI_Pin);
 731              		.loc 1 258 5
 732 0028 4FF40041 		mov	r1, #32768
ARM GAS  C:\Users\ADMINI~1\AppData\Local\Temp\cct2crrB.s 			page 19


 733 002c 1D48     		ldr	r0, .L28+8
 734 002e FFF7FEFF 		bl	HAL_GPIO_DeInit
 259:d:/LiteOS_Lab/targets/STM32L431VCT6_Bossay/Src\spi.c **** 
 260:d:/LiteOS_Lab/targets/STM32L431VCT6_Bossay/Src\spi.c ****   /* USER CODE BEGIN SPI1_MspDeInit 1 */
 261:d:/LiteOS_Lab/targets/STM32L431VCT6_Bossay/Src\spi.c **** 
 262:d:/LiteOS_Lab/targets/STM32L431VCT6_Bossay/Src\spi.c ****   /* USER CODE END SPI1_MspDeInit 1 */
 263:d:/LiteOS_Lab/targets/STM32L431VCT6_Bossay/Src\spi.c ****   }
 264:d:/LiteOS_Lab/targets/STM32L431VCT6_Bossay/Src\spi.c ****   else if(spiHandle->Instance==SPI2)
 265:d:/LiteOS_Lab/targets/STM32L431VCT6_Bossay/Src\spi.c ****   {
 266:d:/LiteOS_Lab/targets/STM32L431VCT6_Bossay/Src\spi.c ****   /* USER CODE BEGIN SPI2_MspDeInit 0 */
 267:d:/LiteOS_Lab/targets/STM32L431VCT6_Bossay/Src\spi.c **** 
 268:d:/LiteOS_Lab/targets/STM32L431VCT6_Bossay/Src\spi.c ****   /* USER CODE END SPI2_MspDeInit 0 */
 269:d:/LiteOS_Lab/targets/STM32L431VCT6_Bossay/Src\spi.c ****     /* Peripheral clock disable */
 270:d:/LiteOS_Lab/targets/STM32L431VCT6_Bossay/Src\spi.c ****     __HAL_RCC_SPI2_CLK_DISABLE();
 271:d:/LiteOS_Lab/targets/STM32L431VCT6_Bossay/Src\spi.c ****   
 272:d:/LiteOS_Lab/targets/STM32L431VCT6_Bossay/Src\spi.c ****     /**SPI2 GPIO Configuration    
 273:d:/LiteOS_Lab/targets/STM32L431VCT6_Bossay/Src\spi.c ****     PC2     ------> SPI2_MISO
 274:d:/LiteOS_Lab/targets/STM32L431VCT6_Bossay/Src\spi.c ****     PB12     ------> SPI2_NSS
 275:d:/LiteOS_Lab/targets/STM32L431VCT6_Bossay/Src\spi.c ****     PB13     ------> SPI2_SCK
 276:d:/LiteOS_Lab/targets/STM32L431VCT6_Bossay/Src\spi.c ****     PB15     ------> SPI2_MOSI 
 277:d:/LiteOS_Lab/targets/STM32L431VCT6_Bossay/Src\spi.c ****     */
 278:d:/LiteOS_Lab/targets/STM32L431VCT6_Bossay/Src\spi.c ****     HAL_GPIO_DeInit(RSRV_SPI_MISO_GPIO_Port, RSRV_SPI_MISO_Pin);
 279:d:/LiteOS_Lab/targets/STM32L431VCT6_Bossay/Src\spi.c **** 
 280:d:/LiteOS_Lab/targets/STM32L431VCT6_Bossay/Src\spi.c ****     HAL_GPIO_DeInit(GPIOB, RSRV_SPI_NSS_Pin|RSRV_SPI_SCK_Pin|RSRV_SPI_MOSI_Pin);
 281:d:/LiteOS_Lab/targets/STM32L431VCT6_Bossay/Src\spi.c **** 
 282:d:/LiteOS_Lab/targets/STM32L431VCT6_Bossay/Src\spi.c ****   /* USER CODE BEGIN SPI2_MspDeInit 1 */
 283:d:/LiteOS_Lab/targets/STM32L431VCT6_Bossay/Src\spi.c **** 
 284:d:/LiteOS_Lab/targets/STM32L431VCT6_Bossay/Src\spi.c ****   /* USER CODE END SPI2_MspDeInit 1 */
 285:d:/LiteOS_Lab/targets/STM32L431VCT6_Bossay/Src\spi.c ****   }
 286:d:/LiteOS_Lab/targets/STM32L431VCT6_Bossay/Src\spi.c ****   else if(spiHandle->Instance==SPI3)
 287:d:/LiteOS_Lab/targets/STM32L431VCT6_Bossay/Src\spi.c ****   {
 288:d:/LiteOS_Lab/targets/STM32L431VCT6_Bossay/Src\spi.c ****   /* USER CODE BEGIN SPI3_MspDeInit 0 */
 289:d:/LiteOS_Lab/targets/STM32L431VCT6_Bossay/Src\spi.c **** 
 290:d:/LiteOS_Lab/targets/STM32L431VCT6_Bossay/Src\spi.c ****   /* USER CODE END SPI3_MspDeInit 0 */
 291:d:/LiteOS_Lab/targets/STM32L431VCT6_Bossay/Src\spi.c ****     /* Peripheral clock disable */
 292:d:/LiteOS_Lab/targets/STM32L431VCT6_Bossay/Src\spi.c ****     __HAL_RCC_SPI3_CLK_DISABLE();
 293:d:/LiteOS_Lab/targets/STM32L431VCT6_Bossay/Src\spi.c ****   
 294:d:/LiteOS_Lab/targets/STM32L431VCT6_Bossay/Src\spi.c ****     /**SPI3 GPIO Configuration    
 295:d:/LiteOS_Lab/targets/STM32L431VCT6_Bossay/Src\spi.c ****     PA15 (JTDI)     ------> SPI3_NSS
 296:d:/LiteOS_Lab/targets/STM32L431VCT6_Bossay/Src\spi.c ****     PC10     ------> SPI3_SCK
 297:d:/LiteOS_Lab/targets/STM32L431VCT6_Bossay/Src\spi.c ****     PC11     ------> SPI3_MISO
 298:d:/LiteOS_Lab/targets/STM32L431VCT6_Bossay/Src\spi.c ****     PB5     ------> SPI3_MOSI 
 299:d:/LiteOS_Lab/targets/STM32L431VCT6_Bossay/Src\spi.c ****     */
 300:d:/LiteOS_Lab/targets/STM32L431VCT6_Bossay/Src\spi.c ****     HAL_GPIO_DeInit(LOAR_SPI_NSS_GPIO_Port, LOAR_SPI_NSS_Pin);
 301:d:/LiteOS_Lab/targets/STM32L431VCT6_Bossay/Src\spi.c **** 
 302:d:/LiteOS_Lab/targets/STM32L431VCT6_Bossay/Src\spi.c ****     HAL_GPIO_DeInit(GPIOC, LORA_SPI_SCK_Pin|LORA_SPI_MISO_Pin);
 303:d:/LiteOS_Lab/targets/STM32L431VCT6_Bossay/Src\spi.c **** 
 304:d:/LiteOS_Lab/targets/STM32L431VCT6_Bossay/Src\spi.c ****     HAL_GPIO_DeInit(LORA_SPI_MOSI_GPIO_Port, LORA_SPI_MOSI_Pin);
 305:d:/LiteOS_Lab/targets/STM32L431VCT6_Bossay/Src\spi.c **** 
 306:d:/LiteOS_Lab/targets/STM32L431VCT6_Bossay/Src\spi.c ****   /* USER CODE BEGIN SPI3_MspDeInit 1 */
 307:d:/LiteOS_Lab/targets/STM32L431VCT6_Bossay/Src\spi.c **** 
 308:d:/LiteOS_Lab/targets/STM32L431VCT6_Bossay/Src\spi.c ****   /* USER CODE END SPI3_MspDeInit 1 */
 309:d:/LiteOS_Lab/targets/STM32L431VCT6_Bossay/Src\spi.c ****   }
 310:d:/LiteOS_Lab/targets/STM32L431VCT6_Bossay/Src\spi.c **** } 
 735              		.loc 1 310 1
 736 0032 2EE0     		b	.L27
 737              	.L24:
ARM GAS  C:\Users\ADMINI~1\AppData\Local\Temp\cct2crrB.s 			page 20


 264:d:/LiteOS_Lab/targets/STM32L431VCT6_Bossay/Src\spi.c ****   {
 738              		.loc 1 264 20
 739 0034 7B68     		ldr	r3, [r7, #4]
 740 0036 1B68     		ldr	r3, [r3]
 264:d:/LiteOS_Lab/targets/STM32L431VCT6_Bossay/Src\spi.c ****   {
 741              		.loc 1 264 10
 742 0038 1B4A     		ldr	r2, .L28+12
 743 003a 9342     		cmp	r3, r2
 744 003c 0FD1     		bne	.L26
 270:d:/LiteOS_Lab/targets/STM32L431VCT6_Bossay/Src\spi.c ****   
 745              		.loc 1 270 5
 746 003e 184B     		ldr	r3, .L28+4
 747 0040 9B6D     		ldr	r3, [r3, #88]
 748 0042 174A     		ldr	r2, .L28+4
 749 0044 23F48043 		bic	r3, r3, #16384
 750 0048 9365     		str	r3, [r2, #88]
 278:d:/LiteOS_Lab/targets/STM32L431VCT6_Bossay/Src\spi.c **** 
 751              		.loc 1 278 5
 752 004a 0421     		movs	r1, #4
 753 004c 1748     		ldr	r0, .L28+16
 754 004e FFF7FEFF 		bl	HAL_GPIO_DeInit
 280:d:/LiteOS_Lab/targets/STM32L431VCT6_Bossay/Src\spi.c **** 
 755              		.loc 1 280 5
 756 0052 4FF43041 		mov	r1, #45056
 757 0056 1648     		ldr	r0, .L28+20
 758 0058 FFF7FEFF 		bl	HAL_GPIO_DeInit
 759              		.loc 1 310 1
 760 005c 19E0     		b	.L27
 761              	.L26:
 286:d:/LiteOS_Lab/targets/STM32L431VCT6_Bossay/Src\spi.c ****   {
 762              		.loc 1 286 20
 763 005e 7B68     		ldr	r3, [r7, #4]
 764 0060 1B68     		ldr	r3, [r3]
 286:d:/LiteOS_Lab/targets/STM32L431VCT6_Bossay/Src\spi.c ****   {
 765              		.loc 1 286 10
 766 0062 144A     		ldr	r2, .L28+24
 767 0064 9342     		cmp	r3, r2
 768 0066 14D1     		bne	.L27
 292:d:/LiteOS_Lab/targets/STM32L431VCT6_Bossay/Src\spi.c ****   
 769              		.loc 1 292 5
 770 0068 0D4B     		ldr	r3, .L28+4
 771 006a 9B6D     		ldr	r3, [r3, #88]
 772 006c 0C4A     		ldr	r2, .L28+4
 773 006e 23F40043 		bic	r3, r3, #32768
 774 0072 9365     		str	r3, [r2, #88]
 300:d:/LiteOS_Lab/targets/STM32L431VCT6_Bossay/Src\spi.c **** 
 775              		.loc 1 300 5
 776 0074 4FF40041 		mov	r1, #32768
 777 0078 4FF09040 		mov	r0, #1207959552
 778 007c FFF7FEFF 		bl	HAL_GPIO_DeInit
 302:d:/LiteOS_Lab/targets/STM32L431VCT6_Bossay/Src\spi.c **** 
 779              		.loc 1 302 5
 780 0080 4FF44061 		mov	r1, #3072
 781 0084 0948     		ldr	r0, .L28+16
 782 0086 FFF7FEFF 		bl	HAL_GPIO_DeInit
 304:d:/LiteOS_Lab/targets/STM32L431VCT6_Bossay/Src\spi.c **** 
 783              		.loc 1 304 5
ARM GAS  C:\Users\ADMINI~1\AppData\Local\Temp\cct2crrB.s 			page 21


 784 008a 2021     		movs	r1, #32
 785 008c 0848     		ldr	r0, .L28+20
 786 008e FFF7FEFF 		bl	HAL_GPIO_DeInit
 787              	.L27:
 788              		.loc 1 310 1
 789 0092 00BF     		nop
 790 0094 0837     		adds	r7, r7, #8
 791              	.LCFI14:
 792              		.cfi_def_cfa_offset 8
 793 0096 BD46     		mov	sp, r7
 794              	.LCFI15:
 795              		.cfi_def_cfa_register 13
 796              		@ sp needed
 797 0098 80BD     		pop	{r7, pc}
 798              	.L29:
 799 009a 00BF     		.align	2
 800              	.L28:
 801 009c 00300140 		.word	1073819648
 802 00a0 00100240 		.word	1073876992
 803 00a4 00100048 		.word	1207963648
 804 00a8 00380040 		.word	1073756160
 805 00ac 00080048 		.word	1207961600
 806 00b0 00040048 		.word	1207960576
 807 00b4 003C0040 		.word	1073757184
 808              		.cfi_endproc
 809              	.LFE291:
 811              		.section	.text.SPI1_ReadWriteByte,"ax",%progbits
 812              		.align	1
 813              		.global	SPI1_ReadWriteByte
 814              		.syntax unified
 815              		.thumb
 816              		.thumb_func
 817              		.fpu fpv4-sp-d16
 819              	SPI1_ReadWriteByte:
 820              	.LFB292:
 311:d:/LiteOS_Lab/targets/STM32L431VCT6_Bossay/Src\spi.c **** 
 312:d:/LiteOS_Lab/targets/STM32L431VCT6_Bossay/Src\spi.c **** 
 313:d:/LiteOS_Lab/targets/STM32L431VCT6_Bossay/Src\spi.c **** /* USER CODE BEGIN 1 */
 314:d:/LiteOS_Lab/targets/STM32L431VCT6_Bossay/Src\spi.c **** /**
 315:d:/LiteOS_Lab/targets/STM32L431VCT6_Bossay/Src\spi.c ****  * @brief	SPI2 
 316:d:/LiteOS_Lab/targets/STM32L431VCT6_Bossay/Src\spi.c ****  *
 317:d:/LiteOS_Lab/targets/STM32L431VCT6_Bossay/Src\spi.c ****  * @param   TxData	
 318:d:/LiteOS_Lab/targets/STM32L431VCT6_Bossay/Src\spi.c ****  *
 319:d:/LiteOS_Lab/targets/STM32L431VCT6_Bossay/Src\spi.c ****  * @return  uint8_t		
 320:d:/LiteOS_Lab/targets/STM32L431VCT6_Bossay/Src\spi.c ****  */
 321:d:/LiteOS_Lab/targets/STM32L431VCT6_Bossay/Src\spi.c **** uint8_t SPI1_ReadWriteByte(uint8_t TxData)
 322:d:/LiteOS_Lab/targets/STM32L431VCT6_Bossay/Src\spi.c **** {
 821              		.loc 1 322 1
 822              		.cfi_startproc
 823              		@ args = 0, pretend = 0, frame = 16
 824              		@ frame_needed = 1, uses_anonymous_args = 0
 825 0000 80B5     		push	{r7, lr}
 826              	.LCFI16:
 827              		.cfi_def_cfa_offset 8
 828              		.cfi_offset 7, -8
 829              		.cfi_offset 14, -4
 830 0002 86B0     		sub	sp, sp, #24
ARM GAS  C:\Users\ADMINI~1\AppData\Local\Temp\cct2crrB.s 			page 22


 831              	.LCFI17:
 832              		.cfi_def_cfa_offset 32
 833 0004 02AF     		add	r7, sp, #8
 834              	.LCFI18:
 835              		.cfi_def_cfa 7, 24
 836 0006 0346     		mov	r3, r0
 837 0008 FB71     		strb	r3, [r7, #7]
 323:d:/LiteOS_Lab/targets/STM32L431VCT6_Bossay/Src\spi.c ****     uint8_t Rxdata;
 324:d:/LiteOS_Lab/targets/STM32L431VCT6_Bossay/Src\spi.c ****     HAL_SPI_TransmitReceive(&hspi1,&TxData,&Rxdata,1, 1000);       
 838              		.loc 1 324 5
 839 000a 07F10F02 		add	r2, r7, #15
 840 000e F91D     		adds	r1, r7, #7
 841 0010 4FF47A73 		mov	r3, #1000
 842 0014 0093     		str	r3, [sp]
 843 0016 0123     		movs	r3, #1
 844 0018 0348     		ldr	r0, .L32
 845 001a FFF7FEFF 		bl	HAL_SPI_TransmitReceive
 325:d:/LiteOS_Lab/targets/STM32L431VCT6_Bossay/Src\spi.c ****  	return Rxdata;          		    //		
 846              		.loc 1 325 10
 847 001e FB7B     		ldrb	r3, [r7, #15]	@ zero_extendqisi2
 326:d:/LiteOS_Lab/targets/STM32L431VCT6_Bossay/Src\spi.c **** }
 848              		.loc 1 326 1
 849 0020 1846     		mov	r0, r3
 850 0022 1037     		adds	r7, r7, #16
 851              	.LCFI19:
 852              		.cfi_def_cfa_offset 8
 853 0024 BD46     		mov	sp, r7
 854              	.LCFI20:
 855              		.cfi_def_cfa_register 13
 856              		@ sp needed
 857 0026 80BD     		pop	{r7, pc}
 858              	.L33:
 859              		.align	2
 860              	.L32:
 861 0028 00000000 		.word	hspi1
 862              		.cfi_endproc
 863              	.LFE292:
 865              		.section	.text.SPI1_WriteByte,"ax",%progbits
 866              		.align	1
 867              		.global	SPI1_WriteByte
 868              		.syntax unified
 869              		.thumb
 870              		.thumb_func
 871              		.fpu fpv4-sp-d16
 873              	SPI1_WriteByte:
 874              	.LFB293:
 327:d:/LiteOS_Lab/targets/STM32L431VCT6_Bossay/Src\spi.c **** 
 328:d:/LiteOS_Lab/targets/STM32L431VCT6_Bossay/Src\spi.c **** /**
 329:d:/LiteOS_Lab/targets/STM32L431VCT6_Bossay/Src\spi.c ****  * @brief	SPI2 
 330:d:/LiteOS_Lab/targets/STM32L431VCT6_Bossay/Src\spi.c ****  *
 331:d:/LiteOS_Lab/targets/STM32L431VCT6_Bossay/Src\spi.c ****  * @param   TxData	
 332:d:/LiteOS_Lab/targets/STM32L431VCT6_Bossay/Src\spi.c ****  * @param   size	
 333:d:/LiteOS_Lab/targets/STM32L431VCT6_Bossay/Src\spi.c ****  *
 334:d:/LiteOS_Lab/targets/STM32L431VCT6_Bossay/Src\spi.c ****  * @return  uint8_t		0:,:
 335:d:/LiteOS_Lab/targets/STM32L431VCT6_Bossay/Src\spi.c ****  */
 336:d:/LiteOS_Lab/targets/STM32L431VCT6_Bossay/Src\spi.c **** uint8_t SPI1_WriteByte(uint8_t *TxData,uint16_t size)
 337:d:/LiteOS_Lab/targets/STM32L431VCT6_Bossay/Src\spi.c **** {
ARM GAS  C:\Users\ADMINI~1\AppData\Local\Temp\cct2crrB.s 			page 23


 875              		.loc 1 337 1
 876              		.cfi_startproc
 877              		@ args = 0, pretend = 0, frame = 8
 878              		@ frame_needed = 1, uses_anonymous_args = 0
 879 0000 80B5     		push	{r7, lr}
 880              	.LCFI21:
 881              		.cfi_def_cfa_offset 8
 882              		.cfi_offset 7, -8
 883              		.cfi_offset 14, -4
 884 0002 82B0     		sub	sp, sp, #8
 885              	.LCFI22:
 886              		.cfi_def_cfa_offset 16
 887 0004 00AF     		add	r7, sp, #0
 888              	.LCFI23:
 889              		.cfi_def_cfa_register 7
 890 0006 7860     		str	r0, [r7, #4]
 891 0008 0B46     		mov	r3, r1
 892 000a 7B80     		strh	r3, [r7, #2]	@ movhi
 338:d:/LiteOS_Lab/targets/STM32L431VCT6_Bossay/Src\spi.c **** 	return HAL_SPI_Transmit(&hspi1,TxData,size,1000);
 893              		.loc 1 338 9
 894 000c 7A88     		ldrh	r2, [r7, #2]
 895 000e 4FF47A73 		mov	r3, #1000
 896 0012 7968     		ldr	r1, [r7, #4]
 897 0014 0348     		ldr	r0, .L36
 898 0016 FFF7FEFF 		bl	HAL_SPI_Transmit
 899 001a 0346     		mov	r3, r0
 339:d:/LiteOS_Lab/targets/STM32L431VCT6_Bossay/Src\spi.c **** }
 900              		.loc 1 339 1
 901 001c 1846     		mov	r0, r3
 902 001e 0837     		adds	r7, r7, #8
 903              	.LCFI24:
 904              		.cfi_def_cfa_offset 8
 905 0020 BD46     		mov	sp, r7
 906              	.LCFI25:
 907              		.cfi_def_cfa_register 13
 908              		@ sp needed
 909 0022 80BD     		pop	{r7, pc}
 910              	.L37:
 911              		.align	2
 912              	.L36:
 913 0024 00000000 		.word	hspi1
 914              		.cfi_endproc
 915              	.LFE293:
 917              		.text
 918              	.Letext0:
 919              		.file 2 "c:\\users\\administrator\\.huawei-liteos-studio\\tools\\arm-none-eabi\\arm-none-eabi\\inc
 920              		.file 3 "c:\\users\\administrator\\.huawei-liteos-studio\\tools\\arm-none-eabi\\arm-none-eabi\\inc
 921              		.file 4 "c:\\users\\administrator\\.huawei-liteos-studio\\tools\\arm-none-eabi\\arm-none-eabi\\inc
 922              		.file 5 "c:\\users\\administrator\\.huawei-liteos-studio\\tools\\arm-none-eabi\\lib\\gcc\\arm-none
 923              		.file 6 "c:\\users\\administrator\\.huawei-liteos-studio\\tools\\arm-none-eabi\\arm-none-eabi\\inc
 924              		.file 7 "d:/LiteOS_Lab/iot_link/os/liteos/include/los_typedef.h"
 925              		.file 8 "c:\\users\\administrator\\.huawei-liteos-studio\\tools\\arm-none-eabi\\arm-none-eabi\\inc
 926              		.file 9 "d:/LiteOS_Lab/iot_link/os/liteos/arch/arm/common/cmsis/core_cm4.h"
 927              		.file 10 "d:/LiteOS_Lab/targets/STM32L431VCT6_Bossay/Inc/system_stm32l4xx.h"
 928              		.file 11 "d:/LiteOS_Lab/targets/STM32L431VCT6_Bossay/Inc/stm32l431xx.h"
 929              		.file 12 "d:/LiteOS_Lab/iot_link/os/liteos/include/los_config.h"
 930              		.file 13 "d:/LiteOS_Lab/iot_link/os/liteos/include/los_err.h"
ARM GAS  C:\Users\ADMINI~1\AppData\Local\Temp\cct2crrB.s 			page 24


 931              		.file 14 "d:/LiteOS_Lab/iot_link/os/liteos/arch/arm/arm-m/include/los_hwi.h"
 932              		.file 15 "d:/LiteOS_Lab/drivers/third_party/ST/STM32L4xx_HAL_Driver/Inc/stm32l4xx_hal_def.h"
 933              		.file 16 "d:/LiteOS_Lab/drivers/third_party/ST/STM32L4xx_HAL_Driver/Inc/stm32l4xx_hal_gpio.h"
 934              		.file 17 "d:/LiteOS_Lab/drivers/third_party/ST/STM32L4xx_HAL_Driver/Inc/stm32l4xx_hal_dma.h"
 935              		.file 18 "d:/LiteOS_Lab/drivers/third_party/ST/STM32L4xx_HAL_Driver/Inc/stm32l4xx_hal_spi.h"
 936              		.file 19 "d:/LiteOS_Lab/targets/STM32L431VCT6_Bossay/Inc/spi.h"
ARM GAS  C:\Users\ADMINI~1\AppData\Local\Temp\cct2crrB.s 			page 25

