ARM GAS  C:\Users\ADMINI~1\AppData\Local\Temp\ccWTZFe6.s 			page 1


   1              		.cpu cortex-m4
   2              		.eabi_attribute 27, 1
   3              		.eabi_attribute 28, 1
   4              		.eabi_attribute 20, 1
   5              		.eabi_attribute 21, 1
   6              		.eabi_attribute 23, 3
   7              		.eabi_attribute 24, 1
   8              		.eabi_attribute 25, 1
   9              		.eabi_attribute 26, 1
  10              		.eabi_attribute 30, 6
  11              		.eabi_attribute 34, 1
  12              		.eabi_attribute 18, 4
  13              		.file	"stm32l4xx_it.c"
  14              		.text
  15              	.Ltext0:
  16              		.cfi_sections	.debug_frame
  17              		.section	.text.NMI_Handler,"ax",%progbits
  18              		.align	1
  19              		.global	NMI_Handler
  20              		.arch armv7e-m
  21              		.syntax unified
  22              		.thumb
  23              		.thumb_func
  24              		.fpu fpv4-sp-d16
  26              	NMI_Handler:
  27              	.LFB287:
  28              		.file 1 "d:/LiteOS_Lab/targets/STM32L431VCT6_Bossay/Src/stm32l4xx_it.c"
   1:d:/LiteOS_Lab/targets/STM32L431VCT6_Bossay/Src\stm32l4xx_it.c **** /**
   2:d:/LiteOS_Lab/targets/STM32L431VCT6_Bossay/Src\stm32l4xx_it.c ****   ******************************************************************************
   3:d:/LiteOS_Lab/targets/STM32L431VCT6_Bossay/Src\stm32l4xx_it.c ****   * @file    stm32l4xx_it.c
   4:d:/LiteOS_Lab/targets/STM32L431VCT6_Bossay/Src\stm32l4xx_it.c ****   * @brief   Interrupt Service Routines.
   5:d:/LiteOS_Lab/targets/STM32L431VCT6_Bossay/Src\stm32l4xx_it.c ****   ******************************************************************************
   6:d:/LiteOS_Lab/targets/STM32L431VCT6_Bossay/Src\stm32l4xx_it.c ****   *
   7:d:/LiteOS_Lab/targets/STM32L431VCT6_Bossay/Src\stm32l4xx_it.c ****   * COPYRIGHT(c) 2018 STMicroelectronics
   8:d:/LiteOS_Lab/targets/STM32L431VCT6_Bossay/Src\stm32l4xx_it.c ****   *
   9:d:/LiteOS_Lab/targets/STM32L431VCT6_Bossay/Src\stm32l4xx_it.c ****   * Redistribution and use in source and binary forms, with or without modification,
  10:d:/LiteOS_Lab/targets/STM32L431VCT6_Bossay/Src\stm32l4xx_it.c ****   * are permitted provided that the following conditions are met:
  11:d:/LiteOS_Lab/targets/STM32L431VCT6_Bossay/Src\stm32l4xx_it.c ****   *   1. Redistributions of source code must retain the above copyright notice,
  12:d:/LiteOS_Lab/targets/STM32L431VCT6_Bossay/Src\stm32l4xx_it.c ****   *      this list of conditions and the following disclaimer.
  13:d:/LiteOS_Lab/targets/STM32L431VCT6_Bossay/Src\stm32l4xx_it.c ****   *   2. Redistributions in binary form must reproduce the above copyright notice,
  14:d:/LiteOS_Lab/targets/STM32L431VCT6_Bossay/Src\stm32l4xx_it.c ****   *      this list of conditions and the following disclaimer in the documentation
  15:d:/LiteOS_Lab/targets/STM32L431VCT6_Bossay/Src\stm32l4xx_it.c ****   *      and/or other materials provided with the distribution.
  16:d:/LiteOS_Lab/targets/STM32L431VCT6_Bossay/Src\stm32l4xx_it.c ****   *   3. Neither the name of STMicroelectronics nor the names of its contributors
  17:d:/LiteOS_Lab/targets/STM32L431VCT6_Bossay/Src\stm32l4xx_it.c ****   *      may be used to endorse or promote products derived from this software
  18:d:/LiteOS_Lab/targets/STM32L431VCT6_Bossay/Src\stm32l4xx_it.c ****   *      without specific prior written permission.
  19:d:/LiteOS_Lab/targets/STM32L431VCT6_Bossay/Src\stm32l4xx_it.c ****   *
  20:d:/LiteOS_Lab/targets/STM32L431VCT6_Bossay/Src\stm32l4xx_it.c ****   * THIS SOFTWARE IS PROVIDED BY THE COPYRIGHT HOLDERS AND CONTRIBUTORS "AS IS"
  21:d:/LiteOS_Lab/targets/STM32L431VCT6_Bossay/Src\stm32l4xx_it.c ****   * AND ANY EXPRESS OR IMPLIED WARRANTIES, INCLUDING, BUT NOT LIMITED TO, THE
  22:d:/LiteOS_Lab/targets/STM32L431VCT6_Bossay/Src\stm32l4xx_it.c ****   * IMPLIED WARRANTIES OF MERCHANTABILITY AND FITNESS FOR A PARTICULAR PURPOSE ARE
  23:d:/LiteOS_Lab/targets/STM32L431VCT6_Bossay/Src\stm32l4xx_it.c ****   * DISCLAIMED. IN NO EVENT SHALL THE COPYRIGHT HOLDER OR CONTRIBUTORS BE LIABLE
  24:d:/LiteOS_Lab/targets/STM32L431VCT6_Bossay/Src\stm32l4xx_it.c ****   * FOR ANY DIRECT, INDIRECT, INCIDENTAL, SPECIAL, EXEMPLARY, OR CONSEQUENTIAL
  25:d:/LiteOS_Lab/targets/STM32L431VCT6_Bossay/Src\stm32l4xx_it.c ****   * DAMAGES (INCLUDING, BUT NOT LIMITED TO, PROCUREMENT OF SUBSTITUTE GOODS OR
  26:d:/LiteOS_Lab/targets/STM32L431VCT6_Bossay/Src\stm32l4xx_it.c ****   * SERVICES; LOSS OF USE, DATA, OR PROFITS; OR BUSINESS INTERRUPTION) HOWEVER
  27:d:/LiteOS_Lab/targets/STM32L431VCT6_Bossay/Src\stm32l4xx_it.c ****   * CAUSED AND ON ANY THEORY OF LIABILITY, WHETHER IN CONTRACT, STRICT LIABILITY,
  28:d:/LiteOS_Lab/targets/STM32L431VCT6_Bossay/Src\stm32l4xx_it.c ****   * OR TORT (INCLUDING NEGLIGENCE OR OTHERWISE) ARISING IN ANY WAY OUT OF THE USE
  29:d:/LiteOS_Lab/targets/STM32L431VCT6_Bossay/Src\stm32l4xx_it.c ****   * OF THIS SOFTWARE, EVEN IF ADVISED OF THE POSSIBILITY OF SUCH DAMAGE.
  30:d:/LiteOS_Lab/targets/STM32L431VCT6_Bossay/Src\stm32l4xx_it.c ****   *
ARM GAS  C:\Users\ADMINI~1\AppData\Local\Temp\ccWTZFe6.s 			page 2


  31:d:/LiteOS_Lab/targets/STM32L431VCT6_Bossay/Src\stm32l4xx_it.c ****   ******************************************************************************
  32:d:/LiteOS_Lab/targets/STM32L431VCT6_Bossay/Src\stm32l4xx_it.c ****   */
  33:d:/LiteOS_Lab/targets/STM32L431VCT6_Bossay/Src\stm32l4xx_it.c **** /* Includes ------------------------------------------------------------------*/
  34:d:/LiteOS_Lab/targets/STM32L431VCT6_Bossay/Src\stm32l4xx_it.c **** #include "stm32l4xx_hal.h"
  35:d:/LiteOS_Lab/targets/STM32L431VCT6_Bossay/Src\stm32l4xx_it.c **** #include "stm32l4xx.h"
  36:d:/LiteOS_Lab/targets/STM32L431VCT6_Bossay/Src\stm32l4xx_it.c **** #include "stm32l4xx_it.h"
  37:d:/LiteOS_Lab/targets/STM32L431VCT6_Bossay/Src\stm32l4xx_it.c **** 
  38:d:/LiteOS_Lab/targets/STM32L431VCT6_Bossay/Src\stm32l4xx_it.c **** /* USER CODE BEGIN 0 */
  39:d:/LiteOS_Lab/targets/STM32L431VCT6_Bossay/Src\stm32l4xx_it.c **** 
  40:d:/LiteOS_Lab/targets/STM32L431VCT6_Bossay/Src\stm32l4xx_it.c **** /* USER CODE END 0 */
  41:d:/LiteOS_Lab/targets/STM32L431VCT6_Bossay/Src\stm32l4xx_it.c **** 
  42:d:/LiteOS_Lab/targets/STM32L431VCT6_Bossay/Src\stm32l4xx_it.c **** /* External variables --------------------------------------------------------*/
  43:d:/LiteOS_Lab/targets/STM32L431VCT6_Bossay/Src\stm32l4xx_it.c **** extern UART_HandleTypeDef huart1;
  44:d:/LiteOS_Lab/targets/STM32L431VCT6_Bossay/Src\stm32l4xx_it.c **** extern UART_HandleTypeDef huart2;
  45:d:/LiteOS_Lab/targets/STM32L431VCT6_Bossay/Src\stm32l4xx_it.c **** extern UART_HandleTypeDef huart3;
  46:d:/LiteOS_Lab/targets/STM32L431VCT6_Bossay/Src\stm32l4xx_it.c **** 
  47:d:/LiteOS_Lab/targets/STM32L431VCT6_Bossay/Src\stm32l4xx_it.c **** /******************************************************************************/
  48:d:/LiteOS_Lab/targets/STM32L431VCT6_Bossay/Src\stm32l4xx_it.c **** /*            Cortex-M4 Processor Interruption and Exception Handlers         */ 
  49:d:/LiteOS_Lab/targets/STM32L431VCT6_Bossay/Src\stm32l4xx_it.c **** /******************************************************************************/
  50:d:/LiteOS_Lab/targets/STM32L431VCT6_Bossay/Src\stm32l4xx_it.c **** 
  51:d:/LiteOS_Lab/targets/STM32L431VCT6_Bossay/Src\stm32l4xx_it.c **** /**
  52:d:/LiteOS_Lab/targets/STM32L431VCT6_Bossay/Src\stm32l4xx_it.c **** * @brief This function handles Non maskable interrupt.
  53:d:/LiteOS_Lab/targets/STM32L431VCT6_Bossay/Src\stm32l4xx_it.c **** */
  54:d:/LiteOS_Lab/targets/STM32L431VCT6_Bossay/Src\stm32l4xx_it.c **** void NMI_Handler(void)
  55:d:/LiteOS_Lab/targets/STM32L431VCT6_Bossay/Src\stm32l4xx_it.c **** {
  29              		.loc 1 55 1
  30              		.cfi_startproc
  31              		@ args = 0, pretend = 0, frame = 0
  32              		@ frame_needed = 1, uses_anonymous_args = 0
  33              		@ link register save eliminated.
  34 0000 80B4     		push	{r7}
  35              	.LCFI0:
  36              		.cfi_def_cfa_offset 4
  37              		.cfi_offset 7, -4
  38 0002 00AF     		add	r7, sp, #0
  39              	.LCFI1:
  40              		.cfi_def_cfa_register 7
  56:d:/LiteOS_Lab/targets/STM32L431VCT6_Bossay/Src\stm32l4xx_it.c ****   /* USER CODE BEGIN NonMaskableInt_IRQn 0 */
  57:d:/LiteOS_Lab/targets/STM32L431VCT6_Bossay/Src\stm32l4xx_it.c **** 
  58:d:/LiteOS_Lab/targets/STM32L431VCT6_Bossay/Src\stm32l4xx_it.c ****   /* USER CODE END NonMaskableInt_IRQn 0 */
  59:d:/LiteOS_Lab/targets/STM32L431VCT6_Bossay/Src\stm32l4xx_it.c ****   /* USER CODE BEGIN NonMaskableInt_IRQn 1 */
  60:d:/LiteOS_Lab/targets/STM32L431VCT6_Bossay/Src\stm32l4xx_it.c **** 
  61:d:/LiteOS_Lab/targets/STM32L431VCT6_Bossay/Src\stm32l4xx_it.c ****   /* USER CODE END NonMaskableInt_IRQn 1 */
  62:d:/LiteOS_Lab/targets/STM32L431VCT6_Bossay/Src\stm32l4xx_it.c **** }
  41              		.loc 1 62 1
  42 0004 00BF     		nop
  43 0006 BD46     		mov	sp, r7
  44              	.LCFI2:
  45              		.cfi_def_cfa_register 13
  46              		@ sp needed
  47 0008 5DF8047B 		ldr	r7, [sp], #4
  48              	.LCFI3:
  49              		.cfi_restore 7
  50              		.cfi_def_cfa_offset 0
  51 000c 7047     		bx	lr
  52              		.cfi_endproc
  53              	.LFE287:
ARM GAS  C:\Users\ADMINI~1\AppData\Local\Temp\ccWTZFe6.s 			page 3


  55              		.section	.text.HardFault_Handler,"ax",%progbits
  56              		.align	1
  57              		.global	HardFault_Handler
  58              		.syntax unified
  59              		.thumb
  60              		.thumb_func
  61              		.fpu fpv4-sp-d16
  63              	HardFault_Handler:
  64              	.LFB288:
  63:d:/LiteOS_Lab/targets/STM32L431VCT6_Bossay/Src\stm32l4xx_it.c **** 
  64:d:/LiteOS_Lab/targets/STM32L431VCT6_Bossay/Src\stm32l4xx_it.c **** /**
  65:d:/LiteOS_Lab/targets/STM32L431VCT6_Bossay/Src\stm32l4xx_it.c **** * @brief This function handles Hard fault interrupt.
  66:d:/LiteOS_Lab/targets/STM32L431VCT6_Bossay/Src\stm32l4xx_it.c **** */
  67:d:/LiteOS_Lab/targets/STM32L431VCT6_Bossay/Src\stm32l4xx_it.c **** void HardFault_Handler(void)
  68:d:/LiteOS_Lab/targets/STM32L431VCT6_Bossay/Src\stm32l4xx_it.c **** {
  65              		.loc 1 68 1
  66              		.cfi_startproc
  67              		@ args = 0, pretend = 0, frame = 0
  68              		@ frame_needed = 1, uses_anonymous_args = 0
  69              		@ link register save eliminated.
  70 0000 80B4     		push	{r7}
  71              	.LCFI4:
  72              		.cfi_def_cfa_offset 4
  73              		.cfi_offset 7, -4
  74 0002 00AF     		add	r7, sp, #0
  75              	.LCFI5:
  76              		.cfi_def_cfa_register 7
  77              	.L3:
  69:d:/LiteOS_Lab/targets/STM32L431VCT6_Bossay/Src\stm32l4xx_it.c ****   /* USER CODE BEGIN HardFault_IRQn 0 */
  70:d:/LiteOS_Lab/targets/STM32L431VCT6_Bossay/Src\stm32l4xx_it.c **** 
  71:d:/LiteOS_Lab/targets/STM32L431VCT6_Bossay/Src\stm32l4xx_it.c ****   /* USER CODE END HardFault_IRQn 0 */
  72:d:/LiteOS_Lab/targets/STM32L431VCT6_Bossay/Src\stm32l4xx_it.c ****   while (1)
  78              		.loc 1 72 9 discriminator 1
  79 0004 FEE7     		b	.L3
  80              		.cfi_endproc
  81              	.LFE288:
  83              		.section	.text.MemManage_Handler,"ax",%progbits
  84              		.align	1
  85              		.global	MemManage_Handler
  86              		.syntax unified
  87              		.thumb
  88              		.thumb_func
  89              		.fpu fpv4-sp-d16
  91              	MemManage_Handler:
  92              	.LFB289:
  73:d:/LiteOS_Lab/targets/STM32L431VCT6_Bossay/Src\stm32l4xx_it.c ****   {
  74:d:/LiteOS_Lab/targets/STM32L431VCT6_Bossay/Src\stm32l4xx_it.c ****     /* USER CODE BEGIN W1_HardFault_IRQn 0 */
  75:d:/LiteOS_Lab/targets/STM32L431VCT6_Bossay/Src\stm32l4xx_it.c ****     /* USER CODE END W1_HardFault_IRQn 0 */
  76:d:/LiteOS_Lab/targets/STM32L431VCT6_Bossay/Src\stm32l4xx_it.c ****   }
  77:d:/LiteOS_Lab/targets/STM32L431VCT6_Bossay/Src\stm32l4xx_it.c ****   /* USER CODE BEGIN HardFault_IRQn 1 */
  78:d:/LiteOS_Lab/targets/STM32L431VCT6_Bossay/Src\stm32l4xx_it.c **** 
  79:d:/LiteOS_Lab/targets/STM32L431VCT6_Bossay/Src\stm32l4xx_it.c ****   /* USER CODE END HardFault_IRQn 1 */
  80:d:/LiteOS_Lab/targets/STM32L431VCT6_Bossay/Src\stm32l4xx_it.c **** }
  81:d:/LiteOS_Lab/targets/STM32L431VCT6_Bossay/Src\stm32l4xx_it.c **** 
  82:d:/LiteOS_Lab/targets/STM32L431VCT6_Bossay/Src\stm32l4xx_it.c **** /**
  83:d:/LiteOS_Lab/targets/STM32L431VCT6_Bossay/Src\stm32l4xx_it.c **** * @brief This function handles Memory management fault.
  84:d:/LiteOS_Lab/targets/STM32L431VCT6_Bossay/Src\stm32l4xx_it.c **** */
ARM GAS  C:\Users\ADMINI~1\AppData\Local\Temp\ccWTZFe6.s 			page 4


  85:d:/LiteOS_Lab/targets/STM32L431VCT6_Bossay/Src\stm32l4xx_it.c **** void MemManage_Handler(void)
  86:d:/LiteOS_Lab/targets/STM32L431VCT6_Bossay/Src\stm32l4xx_it.c **** {
  93              		.loc 1 86 1
  94              		.cfi_startproc
  95              		@ args = 0, pretend = 0, frame = 0
  96              		@ frame_needed = 1, uses_anonymous_args = 0
  97              		@ link register save eliminated.
  98 0000 80B4     		push	{r7}
  99              	.LCFI6:
 100              		.cfi_def_cfa_offset 4
 101              		.cfi_offset 7, -4
 102 0002 00AF     		add	r7, sp, #0
 103              	.LCFI7:
 104              		.cfi_def_cfa_register 7
 105              	.L5:
  87:d:/LiteOS_Lab/targets/STM32L431VCT6_Bossay/Src\stm32l4xx_it.c ****   /* USER CODE BEGIN MemoryManagement_IRQn 0 */
  88:d:/LiteOS_Lab/targets/STM32L431VCT6_Bossay/Src\stm32l4xx_it.c **** 
  89:d:/LiteOS_Lab/targets/STM32L431VCT6_Bossay/Src\stm32l4xx_it.c ****   /* USER CODE END MemoryManagement_IRQn 0 */
  90:d:/LiteOS_Lab/targets/STM32L431VCT6_Bossay/Src\stm32l4xx_it.c ****   while (1)
 106              		.loc 1 90 9 discriminator 1
 107 0004 FEE7     		b	.L5
 108              		.cfi_endproc
 109              	.LFE289:
 111              		.section	.text.BusFault_Handler,"ax",%progbits
 112              		.align	1
 113              		.global	BusFault_Handler
 114              		.syntax unified
 115              		.thumb
 116              		.thumb_func
 117              		.fpu fpv4-sp-d16
 119              	BusFault_Handler:
 120              	.LFB290:
  91:d:/LiteOS_Lab/targets/STM32L431VCT6_Bossay/Src\stm32l4xx_it.c ****   {
  92:d:/LiteOS_Lab/targets/STM32L431VCT6_Bossay/Src\stm32l4xx_it.c ****     /* USER CODE BEGIN W1_MemoryManagement_IRQn 0 */
  93:d:/LiteOS_Lab/targets/STM32L431VCT6_Bossay/Src\stm32l4xx_it.c ****     /* USER CODE END W1_MemoryManagement_IRQn 0 */
  94:d:/LiteOS_Lab/targets/STM32L431VCT6_Bossay/Src\stm32l4xx_it.c ****   }
  95:d:/LiteOS_Lab/targets/STM32L431VCT6_Bossay/Src\stm32l4xx_it.c ****   /* USER CODE BEGIN MemoryManagement_IRQn 1 */
  96:d:/LiteOS_Lab/targets/STM32L431VCT6_Bossay/Src\stm32l4xx_it.c **** 
  97:d:/LiteOS_Lab/targets/STM32L431VCT6_Bossay/Src\stm32l4xx_it.c ****   /* USER CODE END MemoryManagement_IRQn 1 */
  98:d:/LiteOS_Lab/targets/STM32L431VCT6_Bossay/Src\stm32l4xx_it.c **** }
  99:d:/LiteOS_Lab/targets/STM32L431VCT6_Bossay/Src\stm32l4xx_it.c **** 
 100:d:/LiteOS_Lab/targets/STM32L431VCT6_Bossay/Src\stm32l4xx_it.c **** /**
 101:d:/LiteOS_Lab/targets/STM32L431VCT6_Bossay/Src\stm32l4xx_it.c **** * @brief This function handles Prefetch fault, memory access fault.
 102:d:/LiteOS_Lab/targets/STM32L431VCT6_Bossay/Src\stm32l4xx_it.c **** */
 103:d:/LiteOS_Lab/targets/STM32L431VCT6_Bossay/Src\stm32l4xx_it.c **** void BusFault_Handler(void)
 104:d:/LiteOS_Lab/targets/STM32L431VCT6_Bossay/Src\stm32l4xx_it.c **** {
 121              		.loc 1 104 1
 122              		.cfi_startproc
 123              		@ args = 0, pretend = 0, frame = 0
 124              		@ frame_needed = 1, uses_anonymous_args = 0
 125              		@ link register save eliminated.
 126 0000 80B4     		push	{r7}
 127              	.LCFI8:
 128              		.cfi_def_cfa_offset 4
 129              		.cfi_offset 7, -4
 130 0002 00AF     		add	r7, sp, #0
 131              	.LCFI9:
ARM GAS  C:\Users\ADMINI~1\AppData\Local\Temp\ccWTZFe6.s 			page 5


 132              		.cfi_def_cfa_register 7
 133              	.L7:
 105:d:/LiteOS_Lab/targets/STM32L431VCT6_Bossay/Src\stm32l4xx_it.c ****   /* USER CODE BEGIN BusFault_IRQn 0 */
 106:d:/LiteOS_Lab/targets/STM32L431VCT6_Bossay/Src\stm32l4xx_it.c **** 
 107:d:/LiteOS_Lab/targets/STM32L431VCT6_Bossay/Src\stm32l4xx_it.c ****   /* USER CODE END BusFault_IRQn 0 */
 108:d:/LiteOS_Lab/targets/STM32L431VCT6_Bossay/Src\stm32l4xx_it.c ****   while (1)
 134              		.loc 1 108 9 discriminator 1
 135 0004 FEE7     		b	.L7
 136              		.cfi_endproc
 137              	.LFE290:
 139              		.section	.text.UsageFault_Handler,"ax",%progbits
 140              		.align	1
 141              		.global	UsageFault_Handler
 142              		.syntax unified
 143              		.thumb
 144              		.thumb_func
 145              		.fpu fpv4-sp-d16
 147              	UsageFault_Handler:
 148              	.LFB291:
 109:d:/LiteOS_Lab/targets/STM32L431VCT6_Bossay/Src\stm32l4xx_it.c ****   {
 110:d:/LiteOS_Lab/targets/STM32L431VCT6_Bossay/Src\stm32l4xx_it.c ****     /* USER CODE BEGIN W1_BusFault_IRQn 0 */
 111:d:/LiteOS_Lab/targets/STM32L431VCT6_Bossay/Src\stm32l4xx_it.c ****     /* USER CODE END W1_BusFault_IRQn 0 */
 112:d:/LiteOS_Lab/targets/STM32L431VCT6_Bossay/Src\stm32l4xx_it.c ****   }
 113:d:/LiteOS_Lab/targets/STM32L431VCT6_Bossay/Src\stm32l4xx_it.c ****   /* USER CODE BEGIN BusFault_IRQn 1 */
 114:d:/LiteOS_Lab/targets/STM32L431VCT6_Bossay/Src\stm32l4xx_it.c **** 
 115:d:/LiteOS_Lab/targets/STM32L431VCT6_Bossay/Src\stm32l4xx_it.c ****   /* USER CODE END BusFault_IRQn 1 */
 116:d:/LiteOS_Lab/targets/STM32L431VCT6_Bossay/Src\stm32l4xx_it.c **** }
 117:d:/LiteOS_Lab/targets/STM32L431VCT6_Bossay/Src\stm32l4xx_it.c **** 
 118:d:/LiteOS_Lab/targets/STM32L431VCT6_Bossay/Src\stm32l4xx_it.c **** /**
 119:d:/LiteOS_Lab/targets/STM32L431VCT6_Bossay/Src\stm32l4xx_it.c **** * @brief This function handles Undefined instruction or illegal state.
 120:d:/LiteOS_Lab/targets/STM32L431VCT6_Bossay/Src\stm32l4xx_it.c **** */
 121:d:/LiteOS_Lab/targets/STM32L431VCT6_Bossay/Src\stm32l4xx_it.c **** void UsageFault_Handler(void)
 122:d:/LiteOS_Lab/targets/STM32L431VCT6_Bossay/Src\stm32l4xx_it.c **** {
 149              		.loc 1 122 1
 150              		.cfi_startproc
 151              		@ args = 0, pretend = 0, frame = 0
 152              		@ frame_needed = 1, uses_anonymous_args = 0
 153              		@ link register save eliminated.
 154 0000 80B4     		push	{r7}
 155              	.LCFI10:
 156              		.cfi_def_cfa_offset 4
 157              		.cfi_offset 7, -4
 158 0002 00AF     		add	r7, sp, #0
 159              	.LCFI11:
 160              		.cfi_def_cfa_register 7
 161              	.L9:
 123:d:/LiteOS_Lab/targets/STM32L431VCT6_Bossay/Src\stm32l4xx_it.c ****   /* USER CODE BEGIN UsageFault_IRQn 0 */
 124:d:/LiteOS_Lab/targets/STM32L431VCT6_Bossay/Src\stm32l4xx_it.c **** 
 125:d:/LiteOS_Lab/targets/STM32L431VCT6_Bossay/Src\stm32l4xx_it.c ****   /* USER CODE END UsageFault_IRQn 0 */
 126:d:/LiteOS_Lab/targets/STM32L431VCT6_Bossay/Src\stm32l4xx_it.c ****   while (1)
 162              		.loc 1 126 9 discriminator 1
 163 0004 FEE7     		b	.L9
 164              		.cfi_endproc
 165              	.LFE291:
 167              		.section	.text.SVC_Handler,"ax",%progbits
 168              		.align	1
 169              		.global	SVC_Handler
ARM GAS  C:\Users\ADMINI~1\AppData\Local\Temp\ccWTZFe6.s 			page 6


 170              		.syntax unified
 171              		.thumb
 172              		.thumb_func
 173              		.fpu fpv4-sp-d16
 175              	SVC_Handler:
 176              	.LFB292:
 127:d:/LiteOS_Lab/targets/STM32L431VCT6_Bossay/Src\stm32l4xx_it.c ****   {
 128:d:/LiteOS_Lab/targets/STM32L431VCT6_Bossay/Src\stm32l4xx_it.c ****     /* USER CODE BEGIN W1_UsageFault_IRQn 0 */
 129:d:/LiteOS_Lab/targets/STM32L431VCT6_Bossay/Src\stm32l4xx_it.c ****     /* USER CODE END W1_UsageFault_IRQn 0 */
 130:d:/LiteOS_Lab/targets/STM32L431VCT6_Bossay/Src\stm32l4xx_it.c ****   }
 131:d:/LiteOS_Lab/targets/STM32L431VCT6_Bossay/Src\stm32l4xx_it.c ****   /* USER CODE BEGIN UsageFault_IRQn 1 */
 132:d:/LiteOS_Lab/targets/STM32L431VCT6_Bossay/Src\stm32l4xx_it.c **** 
 133:d:/LiteOS_Lab/targets/STM32L431VCT6_Bossay/Src\stm32l4xx_it.c ****   /* USER CODE END UsageFault_IRQn 1 */
 134:d:/LiteOS_Lab/targets/STM32L431VCT6_Bossay/Src\stm32l4xx_it.c **** }
 135:d:/LiteOS_Lab/targets/STM32L431VCT6_Bossay/Src\stm32l4xx_it.c **** 
 136:d:/LiteOS_Lab/targets/STM32L431VCT6_Bossay/Src\stm32l4xx_it.c **** /**
 137:d:/LiteOS_Lab/targets/STM32L431VCT6_Bossay/Src\stm32l4xx_it.c **** * @brief This function handles System service call via SWI instruction.
 138:d:/LiteOS_Lab/targets/STM32L431VCT6_Bossay/Src\stm32l4xx_it.c **** */
 139:d:/LiteOS_Lab/targets/STM32L431VCT6_Bossay/Src\stm32l4xx_it.c **** void SVC_Handler(void)
 140:d:/LiteOS_Lab/targets/STM32L431VCT6_Bossay/Src\stm32l4xx_it.c **** {
 177              		.loc 1 140 1
 178              		.cfi_startproc
 179              		@ args = 0, pretend = 0, frame = 0
 180              		@ frame_needed = 1, uses_anonymous_args = 0
 181              		@ link register save eliminated.
 182 0000 80B4     		push	{r7}
 183              	.LCFI12:
 184              		.cfi_def_cfa_offset 4
 185              		.cfi_offset 7, -4
 186 0002 00AF     		add	r7, sp, #0
 187              	.LCFI13:
 188              		.cfi_def_cfa_register 7
 141:d:/LiteOS_Lab/targets/STM32L431VCT6_Bossay/Src\stm32l4xx_it.c ****   /* USER CODE BEGIN SVCall_IRQn 0 */
 142:d:/LiteOS_Lab/targets/STM32L431VCT6_Bossay/Src\stm32l4xx_it.c **** 
 143:d:/LiteOS_Lab/targets/STM32L431VCT6_Bossay/Src\stm32l4xx_it.c ****   /* USER CODE END SVCall_IRQn 0 */
 144:d:/LiteOS_Lab/targets/STM32L431VCT6_Bossay/Src\stm32l4xx_it.c ****   /* USER CODE BEGIN SVCall_IRQn 1 */
 145:d:/LiteOS_Lab/targets/STM32L431VCT6_Bossay/Src\stm32l4xx_it.c **** 
 146:d:/LiteOS_Lab/targets/STM32L431VCT6_Bossay/Src\stm32l4xx_it.c ****   /* USER CODE END SVCall_IRQn 1 */
 147:d:/LiteOS_Lab/targets/STM32L431VCT6_Bossay/Src\stm32l4xx_it.c **** }
 189              		.loc 1 147 1
 190 0004 00BF     		nop
 191 0006 BD46     		mov	sp, r7
 192              	.LCFI14:
 193              		.cfi_def_cfa_register 13
 194              		@ sp needed
 195 0008 5DF8047B 		ldr	r7, [sp], #4
 196              	.LCFI15:
 197              		.cfi_restore 7
 198              		.cfi_def_cfa_offset 0
 199 000c 7047     		bx	lr
 200              		.cfi_endproc
 201              	.LFE292:
 203              		.section	.text.DebugMon_Handler,"ax",%progbits
 204              		.align	1
 205              		.global	DebugMon_Handler
 206              		.syntax unified
 207              		.thumb
ARM GAS  C:\Users\ADMINI~1\AppData\Local\Temp\ccWTZFe6.s 			page 7


 208              		.thumb_func
 209              		.fpu fpv4-sp-d16
 211              	DebugMon_Handler:
 212              	.LFB293:
 148:d:/LiteOS_Lab/targets/STM32L431VCT6_Bossay/Src\stm32l4xx_it.c **** 
 149:d:/LiteOS_Lab/targets/STM32L431VCT6_Bossay/Src\stm32l4xx_it.c **** /**
 150:d:/LiteOS_Lab/targets/STM32L431VCT6_Bossay/Src\stm32l4xx_it.c **** * @brief This function handles Debug monitor.
 151:d:/LiteOS_Lab/targets/STM32L431VCT6_Bossay/Src\stm32l4xx_it.c **** */
 152:d:/LiteOS_Lab/targets/STM32L431VCT6_Bossay/Src\stm32l4xx_it.c **** void DebugMon_Handler(void)
 153:d:/LiteOS_Lab/targets/STM32L431VCT6_Bossay/Src\stm32l4xx_it.c **** {
 213              		.loc 1 153 1
 214              		.cfi_startproc
 215              		@ args = 0, pretend = 0, frame = 0
 216              		@ frame_needed = 1, uses_anonymous_args = 0
 217              		@ link register save eliminated.
 218 0000 80B4     		push	{r7}
 219              	.LCFI16:
 220              		.cfi_def_cfa_offset 4
 221              		.cfi_offset 7, -4
 222 0002 00AF     		add	r7, sp, #0
 223              	.LCFI17:
 224              		.cfi_def_cfa_register 7
 154:d:/LiteOS_Lab/targets/STM32L431VCT6_Bossay/Src\stm32l4xx_it.c ****   /* USER CODE BEGIN DebugMonitor_IRQn 0 */
 155:d:/LiteOS_Lab/targets/STM32L431VCT6_Bossay/Src\stm32l4xx_it.c **** 
 156:d:/LiteOS_Lab/targets/STM32L431VCT6_Bossay/Src\stm32l4xx_it.c ****   /* USER CODE END DebugMonitor_IRQn 0 */
 157:d:/LiteOS_Lab/targets/STM32L431VCT6_Bossay/Src\stm32l4xx_it.c ****   /* USER CODE BEGIN DebugMonitor_IRQn 1 */
 158:d:/LiteOS_Lab/targets/STM32L431VCT6_Bossay/Src\stm32l4xx_it.c **** 
 159:d:/LiteOS_Lab/targets/STM32L431VCT6_Bossay/Src\stm32l4xx_it.c ****   /* USER CODE END DebugMonitor_IRQn 1 */
 160:d:/LiteOS_Lab/targets/STM32L431VCT6_Bossay/Src\stm32l4xx_it.c **** }
 225              		.loc 1 160 1
 226 0004 00BF     		nop
 227 0006 BD46     		mov	sp, r7
 228              	.LCFI18:
 229              		.cfi_def_cfa_register 13
 230              		@ sp needed
 231 0008 5DF8047B 		ldr	r7, [sp], #4
 232              	.LCFI19:
 233              		.cfi_restore 7
 234              		.cfi_def_cfa_offset 0
 235 000c 7047     		bx	lr
 236              		.cfi_endproc
 237              	.LFE293:
 239              		.section	.text.PendSV_Handler,"ax",%progbits
 240              		.align	1
 241              		.weak	PendSV_Handler
 242              		.syntax unified
 243              		.thumb
 244              		.thumb_func
 245              		.fpu fpv4-sp-d16
 247              	PendSV_Handler:
 248              	.LFB294:
 161:d:/LiteOS_Lab/targets/STM32L431VCT6_Bossay/Src\stm32l4xx_it.c **** 
 162:d:/LiteOS_Lab/targets/STM32L431VCT6_Bossay/Src\stm32l4xx_it.c **** /**
 163:d:/LiteOS_Lab/targets/STM32L431VCT6_Bossay/Src\stm32l4xx_it.c **** * @brief This function handles Pendable request for system service.
 164:d:/LiteOS_Lab/targets/STM32L431VCT6_Bossay/Src\stm32l4xx_it.c **** */
 165:d:/LiteOS_Lab/targets/STM32L431VCT6_Bossay/Src\stm32l4xx_it.c **** __weak void PendSV_Handler(void)
 166:d:/LiteOS_Lab/targets/STM32L431VCT6_Bossay/Src\stm32l4xx_it.c **** {
ARM GAS  C:\Users\ADMINI~1\AppData\Local\Temp\ccWTZFe6.s 			page 8


 249              		.loc 1 166 1
 250              		.cfi_startproc
 251              		@ args = 0, pretend = 0, frame = 0
 252              		@ frame_needed = 1, uses_anonymous_args = 0
 253              		@ link register save eliminated.
 254 0000 80B4     		push	{r7}
 255              	.LCFI20:
 256              		.cfi_def_cfa_offset 4
 257              		.cfi_offset 7, -4
 258 0002 00AF     		add	r7, sp, #0
 259              	.LCFI21:
 260              		.cfi_def_cfa_register 7
 167:d:/LiteOS_Lab/targets/STM32L431VCT6_Bossay/Src\stm32l4xx_it.c ****   /* USER CODE BEGIN PendSV_IRQn 0 */
 168:d:/LiteOS_Lab/targets/STM32L431VCT6_Bossay/Src\stm32l4xx_it.c **** 
 169:d:/LiteOS_Lab/targets/STM32L431VCT6_Bossay/Src\stm32l4xx_it.c ****   /* USER CODE END PendSV_IRQn 0 */
 170:d:/LiteOS_Lab/targets/STM32L431VCT6_Bossay/Src\stm32l4xx_it.c ****   /* USER CODE BEGIN PendSV_IRQn 1 */
 171:d:/LiteOS_Lab/targets/STM32L431VCT6_Bossay/Src\stm32l4xx_it.c **** 
 172:d:/LiteOS_Lab/targets/STM32L431VCT6_Bossay/Src\stm32l4xx_it.c ****   /* USER CODE END PendSV_IRQn 1 */
 173:d:/LiteOS_Lab/targets/STM32L431VCT6_Bossay/Src\stm32l4xx_it.c **** }
 261              		.loc 1 173 1
 262 0004 00BF     		nop
 263 0006 BD46     		mov	sp, r7
 264              	.LCFI22:
 265              		.cfi_def_cfa_register 13
 266              		@ sp needed
 267 0008 5DF8047B 		ldr	r7, [sp], #4
 268              	.LCFI23:
 269              		.cfi_restore 7
 270              		.cfi_def_cfa_offset 0
 271 000c 7047     		bx	lr
 272              		.cfi_endproc
 273              	.LFE294:
 275              		.section	.text.SysTick_Handler,"ax",%progbits
 276              		.align	1
 277              		.weak	SysTick_Handler
 278              		.syntax unified
 279              		.thumb
 280              		.thumb_func
 281              		.fpu fpv4-sp-d16
 283              	SysTick_Handler:
 284              	.LFB295:
 174:d:/LiteOS_Lab/targets/STM32L431VCT6_Bossay/Src\stm32l4xx_it.c **** 
 175:d:/LiteOS_Lab/targets/STM32L431VCT6_Bossay/Src\stm32l4xx_it.c **** /**
 176:d:/LiteOS_Lab/targets/STM32L431VCT6_Bossay/Src\stm32l4xx_it.c **** * @brief This function handles System tick timer.
 177:d:/LiteOS_Lab/targets/STM32L431VCT6_Bossay/Src\stm32l4xx_it.c **** */
 178:d:/LiteOS_Lab/targets/STM32L431VCT6_Bossay/Src\stm32l4xx_it.c **** __weak void SysTick_Handler(void)
 179:d:/LiteOS_Lab/targets/STM32L431VCT6_Bossay/Src\stm32l4xx_it.c **** {
 285              		.loc 1 179 1
 286              		.cfi_startproc
 287              		@ args = 0, pretend = 0, frame = 0
 288              		@ frame_needed = 1, uses_anonymous_args = 0
 289 0000 80B5     		push	{r7, lr}
 290              	.LCFI24:
 291              		.cfi_def_cfa_offset 8
 292              		.cfi_offset 7, -8
 293              		.cfi_offset 14, -4
 294 0002 00AF     		add	r7, sp, #0
ARM GAS  C:\Users\ADMINI~1\AppData\Local\Temp\ccWTZFe6.s 			page 9


 295              	.LCFI25:
 296              		.cfi_def_cfa_register 7
 180:d:/LiteOS_Lab/targets/STM32L431VCT6_Bossay/Src\stm32l4xx_it.c ****   /* USER CODE BEGIN SysTick_IRQn 0 */
 181:d:/LiteOS_Lab/targets/STM32L431VCT6_Bossay/Src\stm32l4xx_it.c **** 
 182:d:/LiteOS_Lab/targets/STM32L431VCT6_Bossay/Src\stm32l4xx_it.c ****   /* USER CODE END SysTick_IRQn 0 */
 183:d:/LiteOS_Lab/targets/STM32L431VCT6_Bossay/Src\stm32l4xx_it.c ****   HAL_IncTick();
 297              		.loc 1 183 3
 298 0004 FFF7FEFF 		bl	HAL_IncTick
 184:d:/LiteOS_Lab/targets/STM32L431VCT6_Bossay/Src\stm32l4xx_it.c ****   HAL_SYSTICK_IRQHandler();
 299              		.loc 1 184 3
 300 0008 FFF7FEFF 		bl	HAL_SYSTICK_IRQHandler
 185:d:/LiteOS_Lab/targets/STM32L431VCT6_Bossay/Src\stm32l4xx_it.c ****   /* USER CODE BEGIN SysTick_IRQn 1 */
 186:d:/LiteOS_Lab/targets/STM32L431VCT6_Bossay/Src\stm32l4xx_it.c **** 
 187:d:/LiteOS_Lab/targets/STM32L431VCT6_Bossay/Src\stm32l4xx_it.c ****   /* USER CODE END SysTick_IRQn 1 */
 188:d:/LiteOS_Lab/targets/STM32L431VCT6_Bossay/Src\stm32l4xx_it.c **** }
 301              		.loc 1 188 1
 302 000c 00BF     		nop
 303 000e 80BD     		pop	{r7, pc}
 304              		.cfi_endproc
 305              	.LFE295:
 307              		.section	.text.Key1_IRQHandler,"ax",%progbits
 308              		.align	1
 309              		.global	Key1_IRQHandler
 310              		.syntax unified
 311              		.thumb
 312              		.thumb_func
 313              		.fpu fpv4-sp-d16
 315              	Key1_IRQHandler:
 316              	.LFB296:
 189:d:/LiteOS_Lab/targets/STM32L431VCT6_Bossay/Src\stm32l4xx_it.c **** 
 190:d:/LiteOS_Lab/targets/STM32L431VCT6_Bossay/Src\stm32l4xx_it.c **** /******************************************************************************/
 191:d:/LiteOS_Lab/targets/STM32L431VCT6_Bossay/Src\stm32l4xx_it.c **** /* STM32L4xx Peripheral Interrupt Handlers                                    */
 192:d:/LiteOS_Lab/targets/STM32L431VCT6_Bossay/Src\stm32l4xx_it.c **** /* Add here the Interrupt Handlers for the used peripherals.                  */
 193:d:/LiteOS_Lab/targets/STM32L431VCT6_Bossay/Src\stm32l4xx_it.c **** /* For the available peripheral interrupt handler names,                      */
 194:d:/LiteOS_Lab/targets/STM32L431VCT6_Bossay/Src\stm32l4xx_it.c **** /* please refer to the startup file (startup_stm32l4xx.s).                    */
 195:d:/LiteOS_Lab/targets/STM32L431VCT6_Bossay/Src\stm32l4xx_it.c **** /******************************************************************************/
 196:d:/LiteOS_Lab/targets/STM32L431VCT6_Bossay/Src\stm32l4xx_it.c **** 
 197:d:/LiteOS_Lab/targets/STM32L431VCT6_Bossay/Src\stm32l4xx_it.c **** /**
 198:d:/LiteOS_Lab/targets/STM32L431VCT6_Bossay/Src\stm32l4xx_it.c **** * @brief This function handles EXTI line2 interrupt.
 199:d:/LiteOS_Lab/targets/STM32L431VCT6_Bossay/Src\stm32l4xx_it.c **** */
 200:d:/LiteOS_Lab/targets/STM32L431VCT6_Bossay/Src\stm32l4xx_it.c **** void Key1_IRQHandler(void *args)
 201:d:/LiteOS_Lab/targets/STM32L431VCT6_Bossay/Src\stm32l4xx_it.c **** {
 317              		.loc 1 201 1
 318              		.cfi_startproc
 319              		@ args = 0, pretend = 0, frame = 8
 320              		@ frame_needed = 1, uses_anonymous_args = 0
 321 0000 80B5     		push	{r7, lr}
 322              	.LCFI26:
 323              		.cfi_def_cfa_offset 8
 324              		.cfi_offset 7, -8
 325              		.cfi_offset 14, -4
 326 0002 82B0     		sub	sp, sp, #8
 327              	.LCFI27:
 328              		.cfi_def_cfa_offset 16
 329 0004 00AF     		add	r7, sp, #0
 330              	.LCFI28:
 331              		.cfi_def_cfa_register 7
ARM GAS  C:\Users\ADMINI~1\AppData\Local\Temp\ccWTZFe6.s 			page 10


 332 0006 7860     		str	r0, [r7, #4]
 202:d:/LiteOS_Lab/targets/STM32L431VCT6_Bossay/Src\stm32l4xx_it.c ****   /* USER CODE BEGIN EXTI2_IRQn 0 */
 203:d:/LiteOS_Lab/targets/STM32L431VCT6_Bossay/Src\stm32l4xx_it.c **** 
 204:d:/LiteOS_Lab/targets/STM32L431VCT6_Bossay/Src\stm32l4xx_it.c ****   /* USER CODE END EXTI2_IRQn 0 */
 205:d:/LiteOS_Lab/targets/STM32L431VCT6_Bossay/Src\stm32l4xx_it.c ****   HAL_GPIO_EXTI_IRQHandler(GPIO_PIN_2);
 333              		.loc 1 205 3
 334 0008 0420     		movs	r0, #4
 335 000a FFF7FEFF 		bl	HAL_GPIO_EXTI_IRQHandler
 206:d:/LiteOS_Lab/targets/STM32L431VCT6_Bossay/Src\stm32l4xx_it.c ****   /* USER CODE BEGIN EXTI2_IRQn 1 */
 207:d:/LiteOS_Lab/targets/STM32L431VCT6_Bossay/Src\stm32l4xx_it.c **** 
 208:d:/LiteOS_Lab/targets/STM32L431VCT6_Bossay/Src\stm32l4xx_it.c ****   /* USER CODE END EXTI2_IRQn 1 */
 209:d:/LiteOS_Lab/targets/STM32L431VCT6_Bossay/Src\stm32l4xx_it.c **** }
 336              		.loc 1 209 1
 337 000e 00BF     		nop
 338 0010 0837     		adds	r7, r7, #8
 339              	.LCFI29:
 340              		.cfi_def_cfa_offset 8
 341 0012 BD46     		mov	sp, r7
 342              	.LCFI30:
 343              		.cfi_def_cfa_register 13
 344              		@ sp needed
 345 0014 80BD     		pop	{r7, pc}
 346              		.cfi_endproc
 347              	.LFE296:
 349              		.section	.text.Key2_IRQHandler,"ax",%progbits
 350              		.align	1
 351              		.global	Key2_IRQHandler
 352              		.syntax unified
 353              		.thumb
 354              		.thumb_func
 355              		.fpu fpv4-sp-d16
 357              	Key2_IRQHandler:
 358              	.LFB297:
 210:d:/LiteOS_Lab/targets/STM32L431VCT6_Bossay/Src\stm32l4xx_it.c **** 
 211:d:/LiteOS_Lab/targets/STM32L431VCT6_Bossay/Src\stm32l4xx_it.c **** /**
 212:d:/LiteOS_Lab/targets/STM32L431VCT6_Bossay/Src\stm32l4xx_it.c **** * @brief This function handles EXTI line3 interrupt.
 213:d:/LiteOS_Lab/targets/STM32L431VCT6_Bossay/Src\stm32l4xx_it.c **** */
 214:d:/LiteOS_Lab/targets/STM32L431VCT6_Bossay/Src\stm32l4xx_it.c **** void Key2_IRQHandler(void *args)
 215:d:/LiteOS_Lab/targets/STM32L431VCT6_Bossay/Src\stm32l4xx_it.c **** {
 359              		.loc 1 215 1
 360              		.cfi_startproc
 361              		@ args = 0, pretend = 0, frame = 8
 362              		@ frame_needed = 1, uses_anonymous_args = 0
 363 0000 80B5     		push	{r7, lr}
 364              	.LCFI31:
 365              		.cfi_def_cfa_offset 8
 366              		.cfi_offset 7, -8
 367              		.cfi_offset 14, -4
 368 0002 82B0     		sub	sp, sp, #8
 369              	.LCFI32:
 370              		.cfi_def_cfa_offset 16
 371 0004 00AF     		add	r7, sp, #0
 372              	.LCFI33:
 373              		.cfi_def_cfa_register 7
 374 0006 7860     		str	r0, [r7, #4]
 216:d:/LiteOS_Lab/targets/STM32L431VCT6_Bossay/Src\stm32l4xx_it.c ****   /* USER CODE BEGIN EXTI3_IRQn 0 */
 217:d:/LiteOS_Lab/targets/STM32L431VCT6_Bossay/Src\stm32l4xx_it.c **** 
ARM GAS  C:\Users\ADMINI~1\AppData\Local\Temp\ccWTZFe6.s 			page 11


 218:d:/LiteOS_Lab/targets/STM32L431VCT6_Bossay/Src\stm32l4xx_it.c ****   /* USER CODE END EXTI3_IRQn 0 */
 219:d:/LiteOS_Lab/targets/STM32L431VCT6_Bossay/Src\stm32l4xx_it.c ****   HAL_GPIO_EXTI_IRQHandler(GPIO_PIN_3);
 375              		.loc 1 219 3
 376 0008 0820     		movs	r0, #8
 377 000a FFF7FEFF 		bl	HAL_GPIO_EXTI_IRQHandler
 220:d:/LiteOS_Lab/targets/STM32L431VCT6_Bossay/Src\stm32l4xx_it.c ****   /* USER CODE BEGIN EXTI3_IRQn 1 */
 221:d:/LiteOS_Lab/targets/STM32L431VCT6_Bossay/Src\stm32l4xx_it.c **** 
 222:d:/LiteOS_Lab/targets/STM32L431VCT6_Bossay/Src\stm32l4xx_it.c ****   /* USER CODE END EXTI3_IRQn 1 */
 223:d:/LiteOS_Lab/targets/STM32L431VCT6_Bossay/Src\stm32l4xx_it.c **** }
 378              		.loc 1 223 1
 379 000e 00BF     		nop
 380 0010 0837     		adds	r7, r7, #8
 381              	.LCFI34:
 382              		.cfi_def_cfa_offset 8
 383 0012 BD46     		mov	sp, r7
 384              	.LCFI35:
 385              		.cfi_def_cfa_register 13
 386              		@ sp needed
 387 0014 80BD     		pop	{r7, pc}
 388              		.cfi_endproc
 389              	.LFE297:
 391              		.section	.text.USART1_IRQHandler,"ax",%progbits
 392              		.align	1
 393              		.global	USART1_IRQHandler
 394              		.syntax unified
 395              		.thumb
 396              		.thumb_func
 397              		.fpu fpv4-sp-d16
 399              	USART1_IRQHandler:
 400              	.LFB298:
 224:d:/LiteOS_Lab/targets/STM32L431VCT6_Bossay/Src\stm32l4xx_it.c **** 
 225:d:/LiteOS_Lab/targets/STM32L431VCT6_Bossay/Src\stm32l4xx_it.c **** /**
 226:d:/LiteOS_Lab/targets/STM32L431VCT6_Bossay/Src\stm32l4xx_it.c **** * @brief This function handles USART1 global interrupt.
 227:d:/LiteOS_Lab/targets/STM32L431VCT6_Bossay/Src\stm32l4xx_it.c **** */
 228:d:/LiteOS_Lab/targets/STM32L431VCT6_Bossay/Src\stm32l4xx_it.c **** void USART1_IRQHandler(void)
 229:d:/LiteOS_Lab/targets/STM32L431VCT6_Bossay/Src\stm32l4xx_it.c **** {
 401              		.loc 1 229 1
 402              		.cfi_startproc
 403              		@ args = 0, pretend = 0, frame = 0
 404              		@ frame_needed = 1, uses_anonymous_args = 0
 405 0000 80B5     		push	{r7, lr}
 406              	.LCFI36:
 407              		.cfi_def_cfa_offset 8
 408              		.cfi_offset 7, -8
 409              		.cfi_offset 14, -4
 410 0002 00AF     		add	r7, sp, #0
 411              	.LCFI37:
 412              		.cfi_def_cfa_register 7
 230:d:/LiteOS_Lab/targets/STM32L431VCT6_Bossay/Src\stm32l4xx_it.c ****   /* USER CODE BEGIN USART1_IRQn 0 */
 231:d:/LiteOS_Lab/targets/STM32L431VCT6_Bossay/Src\stm32l4xx_it.c **** 
 232:d:/LiteOS_Lab/targets/STM32L431VCT6_Bossay/Src\stm32l4xx_it.c ****   /* USER CODE END USART1_IRQn 0 */
 233:d:/LiteOS_Lab/targets/STM32L431VCT6_Bossay/Src\stm32l4xx_it.c ****   HAL_UART_IRQHandler(&huart1);
 413              		.loc 1 233 3
 414 0004 0248     		ldr	r0, .L17
 415 0006 FFF7FEFF 		bl	HAL_UART_IRQHandler
 234:d:/LiteOS_Lab/targets/STM32L431VCT6_Bossay/Src\stm32l4xx_it.c ****   /* USER CODE BEGIN USART1_IRQn 1 */
 235:d:/LiteOS_Lab/targets/STM32L431VCT6_Bossay/Src\stm32l4xx_it.c **** 
ARM GAS  C:\Users\ADMINI~1\AppData\Local\Temp\ccWTZFe6.s 			page 12


 236:d:/LiteOS_Lab/targets/STM32L431VCT6_Bossay/Src\stm32l4xx_it.c ****   /* USER CODE END USART1_IRQn 1 */
 237:d:/LiteOS_Lab/targets/STM32L431VCT6_Bossay/Src\stm32l4xx_it.c **** }
 416              		.loc 1 237 1
 417 000a 00BF     		nop
 418 000c 80BD     		pop	{r7, pc}
 419              	.L18:
 420 000e 00BF     		.align	2
 421              	.L17:
 422 0010 00000000 		.word	huart1
 423              		.cfi_endproc
 424              	.LFE298:
 426              		.section	.text.USART2_IRQHandler,"ax",%progbits
 427              		.align	1
 428              		.global	USART2_IRQHandler
 429              		.syntax unified
 430              		.thumb
 431              		.thumb_func
 432              		.fpu fpv4-sp-d16
 434              	USART2_IRQHandler:
 435              	.LFB299:
 238:d:/LiteOS_Lab/targets/STM32L431VCT6_Bossay/Src\stm32l4xx_it.c **** 
 239:d:/LiteOS_Lab/targets/STM32L431VCT6_Bossay/Src\stm32l4xx_it.c **** /**
 240:d:/LiteOS_Lab/targets/STM32L431VCT6_Bossay/Src\stm32l4xx_it.c **** * @brief This function handles USART2 global interrupt.
 241:d:/LiteOS_Lab/targets/STM32L431VCT6_Bossay/Src\stm32l4xx_it.c **** */
 242:d:/LiteOS_Lab/targets/STM32L431VCT6_Bossay/Src\stm32l4xx_it.c **** void USART2_IRQHandler(void)
 243:d:/LiteOS_Lab/targets/STM32L431VCT6_Bossay/Src\stm32l4xx_it.c **** {
 436              		.loc 1 243 1
 437              		.cfi_startproc
 438              		@ args = 0, pretend = 0, frame = 0
 439              		@ frame_needed = 1, uses_anonymous_args = 0
 440              		@ link register save eliminated.
 441 0000 80B4     		push	{r7}
 442              	.LCFI38:
 443              		.cfi_def_cfa_offset 4
 444              		.cfi_offset 7, -4
 445 0002 00AF     		add	r7, sp, #0
 446              	.LCFI39:
 447              		.cfi_def_cfa_register 7
 244:d:/LiteOS_Lab/targets/STM32L431VCT6_Bossay/Src\stm32l4xx_it.c ****   /* USER CODE BEGIN USART2_IRQn 0 */
 245:d:/LiteOS_Lab/targets/STM32L431VCT6_Bossay/Src\stm32l4xx_it.c **** 
 246:d:/LiteOS_Lab/targets/STM32L431VCT6_Bossay/Src\stm32l4xx_it.c ****   /* USER CODE END USART2_IRQn 0 */
 247:d:/LiteOS_Lab/targets/STM32L431VCT6_Bossay/Src\stm32l4xx_it.c **** //  HAL_UART_IRQHandler(&huart2);
 248:d:/LiteOS_Lab/targets/STM32L431VCT6_Bossay/Src\stm32l4xx_it.c ****   /* USER CODE BEGIN USART2_IRQn 1 */
 249:d:/LiteOS_Lab/targets/STM32L431VCT6_Bossay/Src\stm32l4xx_it.c **** 
 250:d:/LiteOS_Lab/targets/STM32L431VCT6_Bossay/Src\stm32l4xx_it.c ****   /* USER CODE END USART2_IRQn 1 */
 251:d:/LiteOS_Lab/targets/STM32L431VCT6_Bossay/Src\stm32l4xx_it.c **** }
 448              		.loc 1 251 1
 449 0004 00BF     		nop
 450 0006 BD46     		mov	sp, r7
 451              	.LCFI40:
 452              		.cfi_def_cfa_register 13
 453              		@ sp needed
 454 0008 5DF8047B 		ldr	r7, [sp], #4
 455              	.LCFI41:
 456              		.cfi_restore 7
 457              		.cfi_def_cfa_offset 0
 458 000c 7047     		bx	lr
ARM GAS  C:\Users\ADMINI~1\AppData\Local\Temp\ccWTZFe6.s 			page 13


 459              		.cfi_endproc
 460              	.LFE299:
 462              		.section	.text.USART3_IRQHandler,"ax",%progbits
 463              		.align	1
 464              		.global	USART3_IRQHandler
 465              		.syntax unified
 466              		.thumb
 467              		.thumb_func
 468              		.fpu fpv4-sp-d16
 470              	USART3_IRQHandler:
 471              	.LFB300:
 252:d:/LiteOS_Lab/targets/STM32L431VCT6_Bossay/Src\stm32l4xx_it.c **** 
 253:d:/LiteOS_Lab/targets/STM32L431VCT6_Bossay/Src\stm32l4xx_it.c **** /**
 254:d:/LiteOS_Lab/targets/STM32L431VCT6_Bossay/Src\stm32l4xx_it.c **** * @brief This function handles USART3 global interrupt.
 255:d:/LiteOS_Lab/targets/STM32L431VCT6_Bossay/Src\stm32l4xx_it.c **** */
 256:d:/LiteOS_Lab/targets/STM32L431VCT6_Bossay/Src\stm32l4xx_it.c **** void USART3_IRQHandler(void)
 257:d:/LiteOS_Lab/targets/STM32L431VCT6_Bossay/Src\stm32l4xx_it.c **** {
 472              		.loc 1 257 1
 473              		.cfi_startproc
 474              		@ args = 0, pretend = 0, frame = 0
 475              		@ frame_needed = 1, uses_anonymous_args = 0
 476 0000 80B5     		push	{r7, lr}
 477              	.LCFI42:
 478              		.cfi_def_cfa_offset 8
 479              		.cfi_offset 7, -8
 480              		.cfi_offset 14, -4
 481 0002 00AF     		add	r7, sp, #0
 482              	.LCFI43:
 483              		.cfi_def_cfa_register 7
 258:d:/LiteOS_Lab/targets/STM32L431VCT6_Bossay/Src\stm32l4xx_it.c ****   /* USER CODE BEGIN USART3_IRQn 0 */
 259:d:/LiteOS_Lab/targets/STM32L431VCT6_Bossay/Src\stm32l4xx_it.c **** 
 260:d:/LiteOS_Lab/targets/STM32L431VCT6_Bossay/Src\stm32l4xx_it.c ****   /* USER CODE END USART3_IRQn 0 */
 261:d:/LiteOS_Lab/targets/STM32L431VCT6_Bossay/Src\stm32l4xx_it.c ****   HAL_UART_IRQHandler(&huart3);
 484              		.loc 1 261 3
 485 0004 0248     		ldr	r0, .L21
 486 0006 FFF7FEFF 		bl	HAL_UART_IRQHandler
 262:d:/LiteOS_Lab/targets/STM32L431VCT6_Bossay/Src\stm32l4xx_it.c ****   /* USER CODE BEGIN USART3_IRQn 1 */
 263:d:/LiteOS_Lab/targets/STM32L431VCT6_Bossay/Src\stm32l4xx_it.c **** 
 264:d:/LiteOS_Lab/targets/STM32L431VCT6_Bossay/Src\stm32l4xx_it.c ****   /* USER CODE END USART3_IRQn 1 */
 265:d:/LiteOS_Lab/targets/STM32L431VCT6_Bossay/Src\stm32l4xx_it.c **** }
 487              		.loc 1 265 1
 488 000a 00BF     		nop
 489 000c 80BD     		pop	{r7, pc}
 490              	.L22:
 491 000e 00BF     		.align	2
 492              	.L21:
 493 0010 00000000 		.word	huart3
 494              		.cfi_endproc
 495              	.LFE300:
 497              		.text
 498              	.Letext0:
 499              		.file 2 "c:\\users\\administrator\\.huawei-liteos-studio\\tools\\arm-none-eabi\\arm-none-eabi\\inc
 500              		.file 3 "c:\\users\\administrator\\.huawei-liteos-studio\\tools\\arm-none-eabi\\arm-none-eabi\\inc
 501              		.file 4 "c:\\users\\administrator\\.huawei-liteos-studio\\tools\\arm-none-eabi\\arm-none-eabi\\inc
 502              		.file 5 "c:\\users\\administrator\\.huawei-liteos-studio\\tools\\arm-none-eabi\\lib\\gcc\\arm-none
 503              		.file 6 "c:\\users\\administrator\\.huawei-liteos-studio\\tools\\arm-none-eabi\\arm-none-eabi\\inc
 504              		.file 7 "d:/LiteOS_Lab/iot_link/os/liteos/include/los_typedef.h"
ARM GAS  C:\Users\ADMINI~1\AppData\Local\Temp\ccWTZFe6.s 			page 14


 505              		.file 8 "c:\\users\\administrator\\.huawei-liteos-studio\\tools\\arm-none-eabi\\arm-none-eabi\\inc
 506              		.file 9 "d:/LiteOS_Lab/iot_link/os/liteos/arch/arm/common/cmsis/core_cm4.h"
 507              		.file 10 "d:/LiteOS_Lab/targets/STM32L431VCT6_Bossay/Inc/system_stm32l4xx.h"
 508              		.file 11 "d:/LiteOS_Lab/targets/STM32L431VCT6_Bossay/Inc/stm32l431xx.h"
 509              		.file 12 "d:/LiteOS_Lab/iot_link/os/liteos/include/los_config.h"
 510              		.file 13 "d:/LiteOS_Lab/iot_link/os/liteos/include/los_err.h"
 511              		.file 14 "d:/LiteOS_Lab/iot_link/os/liteos/arch/arm/arm-m/include/los_hwi.h"
 512              		.file 15 "d:/LiteOS_Lab/drivers/third_party/ST/STM32L4xx_HAL_Driver/Inc/stm32l4xx_hal_def.h"
 513              		.file 16 "d:/LiteOS_Lab/drivers/third_party/ST/STM32L4xx_HAL_Driver/Inc/stm32l4xx_hal_dma.h"
 514              		.file 17 "d:/LiteOS_Lab/drivers/third_party/ST/STM32L4xx_HAL_Driver/Inc/stm32l4xx_hal_uart.h"
ARM GAS  C:\Users\ADMINI~1\AppData\Local\Temp\ccWTZFe6.s 			page 15

