ARM GAS  C:\Users\ADMINI~1\AppData\Local\Temp\cccesRVj.s 			page 1


   1              		.cpu cortex-m4
   2              		.eabi_attribute 27, 1
   3              		.eabi_attribute 28, 1
   4              		.eabi_attribute 20, 1
   5              		.eabi_attribute 21, 1
   6              		.eabi_attribute 23, 3
   7              		.eabi_attribute 24, 1
   8              		.eabi_attribute 25, 1
   9              		.eabi_attribute 26, 1
  10              		.eabi_attribute 30, 6
  11              		.eabi_attribute 34, 1
  12              		.eabi_attribute 18, 4
  13              		.file	"usart.c"
  14              		.text
  15              	.Ltext0:
  16              		.cfi_sections	.debug_frame
  17              		.comm	hlpuart1,120,4
  18              		.comm	huart1,120,4
  19              		.comm	huart2,120,4
  20              		.comm	huart3,120,4
  21              		.section	.rodata
  22              		.align	2
  23              	.LC0:
  24 0000 643A2F4C 		.ascii	"d:/LiteOS_Lab/targets/STM32L431VCT6_Bossay/Src/usar"
  24      6974654F 
  24      535F4C61 
  24      622F7461 
  24      72676574 
  25 0033 742E6300 		.ascii	"t.c\000"
  26              		.section	.text.MX_LPUART1_UART_Init,"ax",%progbits
  27              		.align	1
  28              		.global	MX_LPUART1_UART_Init
  29              		.arch armv7e-m
  30              		.syntax unified
  31              		.thumb
  32              		.thumb_func
  33              		.fpu fpv4-sp-d16
  35              	MX_LPUART1_UART_Init:
  36              	.LFB287:
  37              		.file 1 "d:/LiteOS_Lab/targets/STM32L431VCT6_Bossay/Src/usart.c"
   1:d:/LiteOS_Lab/targets/STM32L431VCT6_Bossay/Src\usart.c **** /**
   2:d:/LiteOS_Lab/targets/STM32L431VCT6_Bossay/Src\usart.c ****   ******************************************************************************
   3:d:/LiteOS_Lab/targets/STM32L431VCT6_Bossay/Src\usart.c ****   * File Name          : USART.c
   4:d:/LiteOS_Lab/targets/STM32L431VCT6_Bossay/Src\usart.c ****   * Description        : This file provides code for the configuration
   5:d:/LiteOS_Lab/targets/STM32L431VCT6_Bossay/Src\usart.c ****   *                      of the USART instances.
   6:d:/LiteOS_Lab/targets/STM32L431VCT6_Bossay/Src\usart.c ****   ******************************************************************************
   7:d:/LiteOS_Lab/targets/STM32L431VCT6_Bossay/Src\usart.c ****   ** This notice applies to any and all portions of this file
   8:d:/LiteOS_Lab/targets/STM32L431VCT6_Bossay/Src\usart.c ****   * that are not between comment pairs USER CODE BEGIN and
   9:d:/LiteOS_Lab/targets/STM32L431VCT6_Bossay/Src\usart.c ****   * USER CODE END. Other portions of this file, whether 
  10:d:/LiteOS_Lab/targets/STM32L431VCT6_Bossay/Src\usart.c ****   * inserted by the user or by software development tools
  11:d:/LiteOS_Lab/targets/STM32L431VCT6_Bossay/Src\usart.c ****   * are owned by their respective copyright owners.
  12:d:/LiteOS_Lab/targets/STM32L431VCT6_Bossay/Src\usart.c ****   *
  13:d:/LiteOS_Lab/targets/STM32L431VCT6_Bossay/Src\usart.c ****   * COPYRIGHT(c) 2018 STMicroelectronics
  14:d:/LiteOS_Lab/targets/STM32L431VCT6_Bossay/Src\usart.c ****   *
  15:d:/LiteOS_Lab/targets/STM32L431VCT6_Bossay/Src\usart.c ****   * Redistribution and use in source and binary forms, with or without modification,
  16:d:/LiteOS_Lab/targets/STM32L431VCT6_Bossay/Src\usart.c ****   * are permitted provided that the following conditions are met:
  17:d:/LiteOS_Lab/targets/STM32L431VCT6_Bossay/Src\usart.c ****   *   1. Redistributions of source code must retain the above copyright notice,
ARM GAS  C:\Users\ADMINI~1\AppData\Local\Temp\cccesRVj.s 			page 2


  18:d:/LiteOS_Lab/targets/STM32L431VCT6_Bossay/Src\usart.c ****   *      this list of conditions and the following disclaimer.
  19:d:/LiteOS_Lab/targets/STM32L431VCT6_Bossay/Src\usart.c ****   *   2. Redistributions in binary form must reproduce the above copyright notice,
  20:d:/LiteOS_Lab/targets/STM32L431VCT6_Bossay/Src\usart.c ****   *      this list of conditions and the following disclaimer in the documentation
  21:d:/LiteOS_Lab/targets/STM32L431VCT6_Bossay/Src\usart.c ****   *      and/or other materials provided with the distribution.
  22:d:/LiteOS_Lab/targets/STM32L431VCT6_Bossay/Src\usart.c ****   *   3. Neither the name of STMicroelectronics nor the names of its contributors
  23:d:/LiteOS_Lab/targets/STM32L431VCT6_Bossay/Src\usart.c ****   *      may be used to endorse or promote products derived from this software
  24:d:/LiteOS_Lab/targets/STM32L431VCT6_Bossay/Src\usart.c ****   *      without specific prior written permission.
  25:d:/LiteOS_Lab/targets/STM32L431VCT6_Bossay/Src\usart.c ****   *
  26:d:/LiteOS_Lab/targets/STM32L431VCT6_Bossay/Src\usart.c ****   * THIS SOFTWARE IS PROVIDED BY THE COPYRIGHT HOLDERS AND CONTRIBUTORS "AS IS"
  27:d:/LiteOS_Lab/targets/STM32L431VCT6_Bossay/Src\usart.c ****   * AND ANY EXPRESS OR IMPLIED WARRANTIES, INCLUDING, BUT NOT LIMITED TO, THE
  28:d:/LiteOS_Lab/targets/STM32L431VCT6_Bossay/Src\usart.c ****   * IMPLIED WARRANTIES OF MERCHANTABILITY AND FITNESS FOR A PARTICULAR PURPOSE ARE
  29:d:/LiteOS_Lab/targets/STM32L431VCT6_Bossay/Src\usart.c ****   * DISCLAIMED. IN NO EVENT SHALL THE COPYRIGHT HOLDER OR CONTRIBUTORS BE LIABLE
  30:d:/LiteOS_Lab/targets/STM32L431VCT6_Bossay/Src\usart.c ****   * FOR ANY DIRECT, INDIRECT, INCIDENTAL, SPECIAL, EXEMPLARY, OR CONSEQUENTIAL
  31:d:/LiteOS_Lab/targets/STM32L431VCT6_Bossay/Src\usart.c ****   * DAMAGES (INCLUDING, BUT NOT LIMITED TO, PROCUREMENT OF SUBSTITUTE GOODS OR
  32:d:/LiteOS_Lab/targets/STM32L431VCT6_Bossay/Src\usart.c ****   * SERVICES; LOSS OF USE, DATA, OR PROFITS; OR BUSINESS INTERRUPTION) HOWEVER
  33:d:/LiteOS_Lab/targets/STM32L431VCT6_Bossay/Src\usart.c ****   * CAUSED AND ON ANY THEORY OF LIABILITY, WHETHER IN CONTRACT, STRICT LIABILITY,
  34:d:/LiteOS_Lab/targets/STM32L431VCT6_Bossay/Src\usart.c ****   * OR TORT (INCLUDING NEGLIGENCE OR OTHERWISE) ARISING IN ANY WAY OUT OF THE USE
  35:d:/LiteOS_Lab/targets/STM32L431VCT6_Bossay/Src\usart.c ****   * OF THIS SOFTWARE, EVEN IF ADVISED OF THE POSSIBILITY OF SUCH DAMAGE.
  36:d:/LiteOS_Lab/targets/STM32L431VCT6_Bossay/Src\usart.c ****   *
  37:d:/LiteOS_Lab/targets/STM32L431VCT6_Bossay/Src\usart.c ****   ******************************************************************************
  38:d:/LiteOS_Lab/targets/STM32L431VCT6_Bossay/Src\usart.c ****   */
  39:d:/LiteOS_Lab/targets/STM32L431VCT6_Bossay/Src\usart.c **** 
  40:d:/LiteOS_Lab/targets/STM32L431VCT6_Bossay/Src\usart.c **** /* Includes ------------------------------------------------------------------*/
  41:d:/LiteOS_Lab/targets/STM32L431VCT6_Bossay/Src\usart.c **** #include "usart.h"
  42:d:/LiteOS_Lab/targets/STM32L431VCT6_Bossay/Src\usart.c **** 
  43:d:/LiteOS_Lab/targets/STM32L431VCT6_Bossay/Src\usart.c **** #include "gpio.h"
  44:d:/LiteOS_Lab/targets/STM32L431VCT6_Bossay/Src\usart.c **** 
  45:d:/LiteOS_Lab/targets/STM32L431VCT6_Bossay/Src\usart.c **** /* USER CODE BEGIN 0 */
  46:d:/LiteOS_Lab/targets/STM32L431VCT6_Bossay/Src\usart.c **** 
  47:d:/LiteOS_Lab/targets/STM32L431VCT6_Bossay/Src\usart.c **** /* USER CODE END 0 */
  48:d:/LiteOS_Lab/targets/STM32L431VCT6_Bossay/Src\usart.c **** 
  49:d:/LiteOS_Lab/targets/STM32L431VCT6_Bossay/Src\usart.c **** UART_HandleTypeDef hlpuart1;
  50:d:/LiteOS_Lab/targets/STM32L431VCT6_Bossay/Src\usart.c **** UART_HandleTypeDef huart1;
  51:d:/LiteOS_Lab/targets/STM32L431VCT6_Bossay/Src\usart.c **** UART_HandleTypeDef huart2;
  52:d:/LiteOS_Lab/targets/STM32L431VCT6_Bossay/Src\usart.c **** UART_HandleTypeDef huart3;
  53:d:/LiteOS_Lab/targets/STM32L431VCT6_Bossay/Src\usart.c **** /* LPUART1 init function */
  54:d:/LiteOS_Lab/targets/STM32L431VCT6_Bossay/Src\usart.c **** 
  55:d:/LiteOS_Lab/targets/STM32L431VCT6_Bossay/Src\usart.c **** void MX_LPUART1_UART_Init(void)
  56:d:/LiteOS_Lab/targets/STM32L431VCT6_Bossay/Src\usart.c **** {
  38              		.loc 1 56 1
  39              		.cfi_startproc
  40              		@ args = 0, pretend = 0, frame = 0
  41              		@ frame_needed = 1, uses_anonymous_args = 0
  42 0000 80B5     		push	{r7, lr}
  43              	.LCFI0:
  44              		.cfi_def_cfa_offset 8
  45              		.cfi_offset 7, -8
  46              		.cfi_offset 14, -4
  47 0002 00AF     		add	r7, sp, #0
  48              	.LCFI1:
  49              		.cfi_def_cfa_register 7
  57:d:/LiteOS_Lab/targets/STM32L431VCT6_Bossay/Src\usart.c **** 
  58:d:/LiteOS_Lab/targets/STM32L431VCT6_Bossay/Src\usart.c ****   hlpuart1.Instance = LPUART1;
  50              		.loc 1 58 21
  51 0004 134B     		ldr	r3, .L4
  52 0006 144A     		ldr	r2, .L4+4
  53 0008 1A60     		str	r2, [r3]
ARM GAS  C:\Users\ADMINI~1\AppData\Local\Temp\cccesRVj.s 			page 3


  59:d:/LiteOS_Lab/targets/STM32L431VCT6_Bossay/Src\usart.c ****   hlpuart1.Init.BaudRate = 9600;
  54              		.loc 1 59 26
  55 000a 124B     		ldr	r3, .L4
  56 000c 4FF41652 		mov	r2, #9600
  57 0010 5A60     		str	r2, [r3, #4]
  60:d:/LiteOS_Lab/targets/STM32L431VCT6_Bossay/Src\usart.c ****   hlpuart1.Init.WordLength = UART_WORDLENGTH_8B;
  58              		.loc 1 60 28
  59 0012 104B     		ldr	r3, .L4
  60 0014 0022     		movs	r2, #0
  61 0016 9A60     		str	r2, [r3, #8]
  61:d:/LiteOS_Lab/targets/STM32L431VCT6_Bossay/Src\usart.c ****   hlpuart1.Init.StopBits = UART_STOPBITS_1;
  62              		.loc 1 61 26
  63 0018 0E4B     		ldr	r3, .L4
  64 001a 0022     		movs	r2, #0
  65 001c DA60     		str	r2, [r3, #12]
  62:d:/LiteOS_Lab/targets/STM32L431VCT6_Bossay/Src\usart.c ****   hlpuart1.Init.Parity = UART_PARITY_NONE;
  66              		.loc 1 62 24
  67 001e 0D4B     		ldr	r3, .L4
  68 0020 0022     		movs	r2, #0
  69 0022 1A61     		str	r2, [r3, #16]
  63:d:/LiteOS_Lab/targets/STM32L431VCT6_Bossay/Src\usart.c ****   hlpuart1.Init.Mode = UART_MODE_TX_RX;
  70              		.loc 1 63 22
  71 0024 0B4B     		ldr	r3, .L4
  72 0026 0C22     		movs	r2, #12
  73 0028 5A61     		str	r2, [r3, #20]
  64:d:/LiteOS_Lab/targets/STM32L431VCT6_Bossay/Src\usart.c ****   hlpuart1.Init.HwFlowCtl = UART_HWCONTROL_NONE;
  74              		.loc 1 64 27
  75 002a 0A4B     		ldr	r3, .L4
  76 002c 0022     		movs	r2, #0
  77 002e 9A61     		str	r2, [r3, #24]
  65:d:/LiteOS_Lab/targets/STM32L431VCT6_Bossay/Src\usart.c ****   hlpuart1.Init.OneBitSampling = UART_ONE_BIT_SAMPLE_DISABLE;
  78              		.loc 1 65 32
  79 0030 084B     		ldr	r3, .L4
  80 0032 0022     		movs	r2, #0
  81 0034 1A62     		str	r2, [r3, #32]
  66:d:/LiteOS_Lab/targets/STM32L431VCT6_Bossay/Src\usart.c ****   hlpuart1.AdvancedInit.AdvFeatureInit = UART_ADVFEATURE_NO_INIT;
  82              		.loc 1 66 40
  83 0036 074B     		ldr	r3, .L4
  84 0038 0022     		movs	r2, #0
  85 003a 5A62     		str	r2, [r3, #36]
  67:d:/LiteOS_Lab/targets/STM32L431VCT6_Bossay/Src\usart.c ****   if (HAL_UART_Init(&hlpuart1) != HAL_OK)
  86              		.loc 1 67 7
  87 003c 0548     		ldr	r0, .L4
  88 003e FFF7FEFF 		bl	HAL_UART_Init
  89 0042 0346     		mov	r3, r0
  90              		.loc 1 67 6
  91 0044 002B     		cmp	r3, #0
  92 0046 03D0     		beq	.L3
  68:d:/LiteOS_Lab/targets/STM32L431VCT6_Bossay/Src\usart.c ****   {
  69:d:/LiteOS_Lab/targets/STM32L431VCT6_Bossay/Src\usart.c ****     _Error_Handler(__FILE__, __LINE__);
  93              		.loc 1 69 5
  94 0048 4521     		movs	r1, #69
  95 004a 0448     		ldr	r0, .L4+8
  96 004c FFF7FEFF 		bl	_Error_Handler
  97              	.L3:
  70:d:/LiteOS_Lab/targets/STM32L431VCT6_Bossay/Src\usart.c ****   }
  71:d:/LiteOS_Lab/targets/STM32L431VCT6_Bossay/Src\usart.c **** 
ARM GAS  C:\Users\ADMINI~1\AppData\Local\Temp\cccesRVj.s 			page 4


  72:d:/LiteOS_Lab/targets/STM32L431VCT6_Bossay/Src\usart.c **** }
  98              		.loc 1 72 1
  99 0050 00BF     		nop
 100 0052 80BD     		pop	{r7, pc}
 101              	.L5:
 102              		.align	2
 103              	.L4:
 104 0054 00000000 		.word	hlpuart1
 105 0058 00800040 		.word	1073774592
 106 005c 00000000 		.word	.LC0
 107              		.cfi_endproc
 108              	.LFE287:
 110              		.section	.text.MX_USART1_UART_Init,"ax",%progbits
 111              		.align	1
 112              		.global	MX_USART1_UART_Init
 113              		.syntax unified
 114              		.thumb
 115              		.thumb_func
 116              		.fpu fpv4-sp-d16
 118              	MX_USART1_UART_Init:
 119              	.LFB288:
  73:d:/LiteOS_Lab/targets/STM32L431VCT6_Bossay/Src\usart.c **** 
  74:d:/LiteOS_Lab/targets/STM32L431VCT6_Bossay/Src\usart.c **** /* USART1 init function */
  75:d:/LiteOS_Lab/targets/STM32L431VCT6_Bossay/Src\usart.c **** 
  76:d:/LiteOS_Lab/targets/STM32L431VCT6_Bossay/Src\usart.c **** void MX_USART1_UART_Init(void)
  77:d:/LiteOS_Lab/targets/STM32L431VCT6_Bossay/Src\usart.c **** {
 120              		.loc 1 77 1
 121              		.cfi_startproc
 122              		@ args = 0, pretend = 0, frame = 0
 123              		@ frame_needed = 1, uses_anonymous_args = 0
 124 0000 80B5     		push	{r7, lr}
 125              	.LCFI2:
 126              		.cfi_def_cfa_offset 8
 127              		.cfi_offset 7, -8
 128              		.cfi_offset 14, -4
 129 0002 00AF     		add	r7, sp, #0
 130              	.LCFI3:
 131              		.cfi_def_cfa_register 7
  78:d:/LiteOS_Lab/targets/STM32L431VCT6_Bossay/Src\usart.c **** 
  79:d:/LiteOS_Lab/targets/STM32L431VCT6_Bossay/Src\usart.c ****   huart1.Instance = USART1;
 132              		.loc 1 79 19
 133 0004 154B     		ldr	r3, .L9
 134 0006 164A     		ldr	r2, .L9+4
 135 0008 1A60     		str	r2, [r3]
  80:d:/LiteOS_Lab/targets/STM32L431VCT6_Bossay/Src\usart.c ****   huart1.Init.BaudRate = 115200;
 136              		.loc 1 80 24
 137 000a 144B     		ldr	r3, .L9
 138 000c 4FF4E132 		mov	r2, #115200
 139 0010 5A60     		str	r2, [r3, #4]
  81:d:/LiteOS_Lab/targets/STM32L431VCT6_Bossay/Src\usart.c ****   huart1.Init.WordLength = UART_WORDLENGTH_8B;
 140              		.loc 1 81 26
 141 0012 124B     		ldr	r3, .L9
 142 0014 0022     		movs	r2, #0
 143 0016 9A60     		str	r2, [r3, #8]
  82:d:/LiteOS_Lab/targets/STM32L431VCT6_Bossay/Src\usart.c ****   huart1.Init.StopBits = UART_STOPBITS_1;
 144              		.loc 1 82 24
 145 0018 104B     		ldr	r3, .L9
ARM GAS  C:\Users\ADMINI~1\AppData\Local\Temp\cccesRVj.s 			page 5


 146 001a 0022     		movs	r2, #0
 147 001c DA60     		str	r2, [r3, #12]
  83:d:/LiteOS_Lab/targets/STM32L431VCT6_Bossay/Src\usart.c ****   huart1.Init.Parity = UART_PARITY_NONE;
 148              		.loc 1 83 22
 149 001e 0F4B     		ldr	r3, .L9
 150 0020 0022     		movs	r2, #0
 151 0022 1A61     		str	r2, [r3, #16]
  84:d:/LiteOS_Lab/targets/STM32L431VCT6_Bossay/Src\usart.c ****   huart1.Init.Mode = UART_MODE_TX_RX;
 152              		.loc 1 84 20
 153 0024 0D4B     		ldr	r3, .L9
 154 0026 0C22     		movs	r2, #12
 155 0028 5A61     		str	r2, [r3, #20]
  85:d:/LiteOS_Lab/targets/STM32L431VCT6_Bossay/Src\usart.c ****   huart1.Init.HwFlowCtl = UART_HWCONTROL_NONE;
 156              		.loc 1 85 25
 157 002a 0C4B     		ldr	r3, .L9
 158 002c 0022     		movs	r2, #0
 159 002e 9A61     		str	r2, [r3, #24]
  86:d:/LiteOS_Lab/targets/STM32L431VCT6_Bossay/Src\usart.c ****   huart1.Init.OverSampling = UART_OVERSAMPLING_16;
 160              		.loc 1 86 28
 161 0030 0A4B     		ldr	r3, .L9
 162 0032 0022     		movs	r2, #0
 163 0034 DA61     		str	r2, [r3, #28]
  87:d:/LiteOS_Lab/targets/STM32L431VCT6_Bossay/Src\usart.c ****   huart1.Init.OneBitSampling = UART_ONE_BIT_SAMPLE_DISABLE;
 164              		.loc 1 87 30
 165 0036 094B     		ldr	r3, .L9
 166 0038 0022     		movs	r2, #0
 167 003a 1A62     		str	r2, [r3, #32]
  88:d:/LiteOS_Lab/targets/STM32L431VCT6_Bossay/Src\usart.c ****   huart1.AdvancedInit.AdvFeatureInit = UART_ADVFEATURE_NO_INIT;
 168              		.loc 1 88 38
 169 003c 074B     		ldr	r3, .L9
 170 003e 0022     		movs	r2, #0
 171 0040 5A62     		str	r2, [r3, #36]
  89:d:/LiteOS_Lab/targets/STM32L431VCT6_Bossay/Src\usart.c ****   if (HAL_UART_Init(&huart1) != HAL_OK)
 172              		.loc 1 89 7
 173 0042 0648     		ldr	r0, .L9
 174 0044 FFF7FEFF 		bl	HAL_UART_Init
 175 0048 0346     		mov	r3, r0
 176              		.loc 1 89 6
 177 004a 002B     		cmp	r3, #0
 178 004c 03D0     		beq	.L8
  90:d:/LiteOS_Lab/targets/STM32L431VCT6_Bossay/Src\usart.c ****   {
  91:d:/LiteOS_Lab/targets/STM32L431VCT6_Bossay/Src\usart.c ****     _Error_Handler(__FILE__, __LINE__);
 179              		.loc 1 91 5
 180 004e 5B21     		movs	r1, #91
 181 0050 0448     		ldr	r0, .L9+8
 182 0052 FFF7FEFF 		bl	_Error_Handler
 183              	.L8:
  92:d:/LiteOS_Lab/targets/STM32L431VCT6_Bossay/Src\usart.c ****   }
  93:d:/LiteOS_Lab/targets/STM32L431VCT6_Bossay/Src\usart.c **** 
  94:d:/LiteOS_Lab/targets/STM32L431VCT6_Bossay/Src\usart.c **** }
 184              		.loc 1 94 1
 185 0056 00BF     		nop
 186 0058 80BD     		pop	{r7, pc}
 187              	.L10:
 188 005a 00BF     		.align	2
 189              	.L9:
 190 005c 00000000 		.word	huart1
ARM GAS  C:\Users\ADMINI~1\AppData\Local\Temp\cccesRVj.s 			page 6


 191 0060 00380140 		.word	1073821696
 192 0064 00000000 		.word	.LC0
 193              		.cfi_endproc
 194              	.LFE288:
 196              		.section	.text.MX_USART2_UART_Init,"ax",%progbits
 197              		.align	1
 198              		.global	MX_USART2_UART_Init
 199              		.syntax unified
 200              		.thumb
 201              		.thumb_func
 202              		.fpu fpv4-sp-d16
 204              	MX_USART2_UART_Init:
 205              	.LFB289:
  95:d:/LiteOS_Lab/targets/STM32L431VCT6_Bossay/Src\usart.c **** /* USART2 init function */
  96:d:/LiteOS_Lab/targets/STM32L431VCT6_Bossay/Src\usart.c **** 
  97:d:/LiteOS_Lab/targets/STM32L431VCT6_Bossay/Src\usart.c **** void MX_USART2_UART_Init(void)
  98:d:/LiteOS_Lab/targets/STM32L431VCT6_Bossay/Src\usart.c **** {
 206              		.loc 1 98 1
 207              		.cfi_startproc
 208              		@ args = 0, pretend = 0, frame = 0
 209              		@ frame_needed = 1, uses_anonymous_args = 0
 210 0000 80B5     		push	{r7, lr}
 211              	.LCFI4:
 212              		.cfi_def_cfa_offset 8
 213              		.cfi_offset 7, -8
 214              		.cfi_offset 14, -4
 215 0002 00AF     		add	r7, sp, #0
 216              	.LCFI5:
 217              		.cfi_def_cfa_register 7
  99:d:/LiteOS_Lab/targets/STM32L431VCT6_Bossay/Src\usart.c **** 
 100:d:/LiteOS_Lab/targets/STM32L431VCT6_Bossay/Src\usart.c ****   huart2.Instance = USART2;
 218              		.loc 1 100 19
 219 0004 154B     		ldr	r3, .L14
 220 0006 164A     		ldr	r2, .L14+4
 221 0008 1A60     		str	r2, [r3]
 101:d:/LiteOS_Lab/targets/STM32L431VCT6_Bossay/Src\usart.c ****   huart2.Init.BaudRate = 9600;
 222              		.loc 1 101 24
 223 000a 144B     		ldr	r3, .L14
 224 000c 4FF41652 		mov	r2, #9600
 225 0010 5A60     		str	r2, [r3, #4]
 102:d:/LiteOS_Lab/targets/STM32L431VCT6_Bossay/Src\usart.c ****   huart2.Init.WordLength = UART_WORDLENGTH_8B;
 226              		.loc 1 102 26
 227 0012 124B     		ldr	r3, .L14
 228 0014 0022     		movs	r2, #0
 229 0016 9A60     		str	r2, [r3, #8]
 103:d:/LiteOS_Lab/targets/STM32L431VCT6_Bossay/Src\usart.c ****   huart2.Init.StopBits = UART_STOPBITS_1;
 230              		.loc 1 103 24
 231 0018 104B     		ldr	r3, .L14
 232 001a 0022     		movs	r2, #0
 233 001c DA60     		str	r2, [r3, #12]
 104:d:/LiteOS_Lab/targets/STM32L431VCT6_Bossay/Src\usart.c ****   huart2.Init.Parity = UART_PARITY_NONE;
 234              		.loc 1 104 22
 235 001e 0F4B     		ldr	r3, .L14
 236 0020 0022     		movs	r2, #0
 237 0022 1A61     		str	r2, [r3, #16]
 105:d:/LiteOS_Lab/targets/STM32L431VCT6_Bossay/Src\usart.c ****   huart2.Init.Mode = UART_MODE_TX_RX;
 238              		.loc 1 105 20
ARM GAS  C:\Users\ADMINI~1\AppData\Local\Temp\cccesRVj.s 			page 7


 239 0024 0D4B     		ldr	r3, .L14
 240 0026 0C22     		movs	r2, #12
 241 0028 5A61     		str	r2, [r3, #20]
 106:d:/LiteOS_Lab/targets/STM32L431VCT6_Bossay/Src\usart.c ****   huart2.Init.HwFlowCtl = UART_HWCONTROL_NONE;
 242              		.loc 1 106 25
 243 002a 0C4B     		ldr	r3, .L14
 244 002c 0022     		movs	r2, #0
 245 002e 9A61     		str	r2, [r3, #24]
 107:d:/LiteOS_Lab/targets/STM32L431VCT6_Bossay/Src\usart.c ****   huart2.Init.OverSampling = UART_OVERSAMPLING_16;
 246              		.loc 1 107 28
 247 0030 0A4B     		ldr	r3, .L14
 248 0032 0022     		movs	r2, #0
 249 0034 DA61     		str	r2, [r3, #28]
 108:d:/LiteOS_Lab/targets/STM32L431VCT6_Bossay/Src\usart.c ****   huart2.Init.OneBitSampling = UART_ONE_BIT_SAMPLE_DISABLE;
 250              		.loc 1 108 30
 251 0036 094B     		ldr	r3, .L14
 252 0038 0022     		movs	r2, #0
 253 003a 1A62     		str	r2, [r3, #32]
 109:d:/LiteOS_Lab/targets/STM32L431VCT6_Bossay/Src\usart.c ****   huart2.AdvancedInit.AdvFeatureInit = UART_ADVFEATURE_NO_INIT;
 254              		.loc 1 109 38
 255 003c 074B     		ldr	r3, .L14
 256 003e 0022     		movs	r2, #0
 257 0040 5A62     		str	r2, [r3, #36]
 110:d:/LiteOS_Lab/targets/STM32L431VCT6_Bossay/Src\usart.c ****   if (HAL_UART_Init(&huart2) != HAL_OK)
 258              		.loc 1 110 7
 259 0042 0648     		ldr	r0, .L14
 260 0044 FFF7FEFF 		bl	HAL_UART_Init
 261 0048 0346     		mov	r3, r0
 262              		.loc 1 110 6
 263 004a 002B     		cmp	r3, #0
 264 004c 03D0     		beq	.L13
 111:d:/LiteOS_Lab/targets/STM32L431VCT6_Bossay/Src\usart.c ****   {
 112:d:/LiteOS_Lab/targets/STM32L431VCT6_Bossay/Src\usart.c ****     _Error_Handler(__FILE__, __LINE__);
 265              		.loc 1 112 5
 266 004e 7021     		movs	r1, #112
 267 0050 0448     		ldr	r0, .L14+8
 268 0052 FFF7FEFF 		bl	_Error_Handler
 269              	.L13:
 113:d:/LiteOS_Lab/targets/STM32L431VCT6_Bossay/Src\usart.c ****   }
 114:d:/LiteOS_Lab/targets/STM32L431VCT6_Bossay/Src\usart.c **** 
 115:d:/LiteOS_Lab/targets/STM32L431VCT6_Bossay/Src\usart.c **** }
 270              		.loc 1 115 1
 271 0056 00BF     		nop
 272 0058 80BD     		pop	{r7, pc}
 273              	.L15:
 274 005a 00BF     		.align	2
 275              	.L14:
 276 005c 00000000 		.word	huart2
 277 0060 00440040 		.word	1073759232
 278 0064 00000000 		.word	.LC0
 279              		.cfi_endproc
 280              	.LFE289:
 282              		.section	.text.MX_USART3_UART_Init,"ax",%progbits
 283              		.align	1
 284              		.global	MX_USART3_UART_Init
 285              		.syntax unified
 286              		.thumb
ARM GAS  C:\Users\ADMINI~1\AppData\Local\Temp\cccesRVj.s 			page 8


 287              		.thumb_func
 288              		.fpu fpv4-sp-d16
 290              	MX_USART3_UART_Init:
 291              	.LFB290:
 116:d:/LiteOS_Lab/targets/STM32L431VCT6_Bossay/Src\usart.c **** 
 117:d:/LiteOS_Lab/targets/STM32L431VCT6_Bossay/Src\usart.c **** /* USART3 init function */
 118:d:/LiteOS_Lab/targets/STM32L431VCT6_Bossay/Src\usart.c **** 
 119:d:/LiteOS_Lab/targets/STM32L431VCT6_Bossay/Src\usart.c **** void MX_USART3_UART_Init(void)
 120:d:/LiteOS_Lab/targets/STM32L431VCT6_Bossay/Src\usart.c **** {
 292              		.loc 1 120 1
 293              		.cfi_startproc
 294              		@ args = 0, pretend = 0, frame = 0
 295              		@ frame_needed = 1, uses_anonymous_args = 0
 296 0000 80B5     		push	{r7, lr}
 297              	.LCFI6:
 298              		.cfi_def_cfa_offset 8
 299              		.cfi_offset 7, -8
 300              		.cfi_offset 14, -4
 301 0002 00AF     		add	r7, sp, #0
 302              	.LCFI7:
 303              		.cfi_def_cfa_register 7
 121:d:/LiteOS_Lab/targets/STM32L431VCT6_Bossay/Src\usart.c **** 
 122:d:/LiteOS_Lab/targets/STM32L431VCT6_Bossay/Src\usart.c ****   huart3.Instance = USART3;
 304              		.loc 1 122 19
 305 0004 154B     		ldr	r3, .L19
 306 0006 164A     		ldr	r2, .L19+4
 307 0008 1A60     		str	r2, [r3]
 123:d:/LiteOS_Lab/targets/STM32L431VCT6_Bossay/Src\usart.c ****   huart3.Init.BaudRate = 9600;
 308              		.loc 1 123 24
 309 000a 144B     		ldr	r3, .L19
 310 000c 4FF41652 		mov	r2, #9600
 311 0010 5A60     		str	r2, [r3, #4]
 124:d:/LiteOS_Lab/targets/STM32L431VCT6_Bossay/Src\usart.c ****   huart3.Init.WordLength = UART_WORDLENGTH_8B;
 312              		.loc 1 124 26
 313 0012 124B     		ldr	r3, .L19
 314 0014 0022     		movs	r2, #0
 315 0016 9A60     		str	r2, [r3, #8]
 125:d:/LiteOS_Lab/targets/STM32L431VCT6_Bossay/Src\usart.c ****   huart3.Init.StopBits = UART_STOPBITS_1;
 316              		.loc 1 125 24
 317 0018 104B     		ldr	r3, .L19
 318 001a 0022     		movs	r2, #0
 319 001c DA60     		str	r2, [r3, #12]
 126:d:/LiteOS_Lab/targets/STM32L431VCT6_Bossay/Src\usart.c ****   huart3.Init.Parity = UART_PARITY_NONE;
 320              		.loc 1 126 22
 321 001e 0F4B     		ldr	r3, .L19
 322 0020 0022     		movs	r2, #0
 323 0022 1A61     		str	r2, [r3, #16]
 127:d:/LiteOS_Lab/targets/STM32L431VCT6_Bossay/Src\usart.c ****   huart3.Init.Mode = UART_MODE_TX_RX;
 324              		.loc 1 127 20
 325 0024 0D4B     		ldr	r3, .L19
 326 0026 0C22     		movs	r2, #12
 327 0028 5A61     		str	r2, [r3, #20]
 128:d:/LiteOS_Lab/targets/STM32L431VCT6_Bossay/Src\usart.c ****   huart3.Init.HwFlowCtl = UART_HWCONTROL_NONE;
 328              		.loc 1 128 25
 329 002a 0C4B     		ldr	r3, .L19
 330 002c 0022     		movs	r2, #0
 331 002e 9A61     		str	r2, [r3, #24]
ARM GAS  C:\Users\ADMINI~1\AppData\Local\Temp\cccesRVj.s 			page 9


 129:d:/LiteOS_Lab/targets/STM32L431VCT6_Bossay/Src\usart.c ****   huart3.Init.OverSampling = UART_OVERSAMPLING_16;
 332              		.loc 1 129 28
 333 0030 0A4B     		ldr	r3, .L19
 334 0032 0022     		movs	r2, #0
 335 0034 DA61     		str	r2, [r3, #28]
 130:d:/LiteOS_Lab/targets/STM32L431VCT6_Bossay/Src\usart.c ****   huart3.Init.OneBitSampling = UART_ONE_BIT_SAMPLE_DISABLE;
 336              		.loc 1 130 30
 337 0036 094B     		ldr	r3, .L19
 338 0038 0022     		movs	r2, #0
 339 003a 1A62     		str	r2, [r3, #32]
 131:d:/LiteOS_Lab/targets/STM32L431VCT6_Bossay/Src\usart.c ****   huart3.AdvancedInit.AdvFeatureInit = UART_ADVFEATURE_NO_INIT;
 340              		.loc 1 131 38
 341 003c 074B     		ldr	r3, .L19
 342 003e 0022     		movs	r2, #0
 343 0040 5A62     		str	r2, [r3, #36]
 132:d:/LiteOS_Lab/targets/STM32L431VCT6_Bossay/Src\usart.c ****   if (HAL_UART_Init(&huart3) != HAL_OK)
 344              		.loc 1 132 7
 345 0042 0648     		ldr	r0, .L19
 346 0044 FFF7FEFF 		bl	HAL_UART_Init
 347 0048 0346     		mov	r3, r0
 348              		.loc 1 132 6
 349 004a 002B     		cmp	r3, #0
 350 004c 03D0     		beq	.L18
 133:d:/LiteOS_Lab/targets/STM32L431VCT6_Bossay/Src\usart.c ****   {
 134:d:/LiteOS_Lab/targets/STM32L431VCT6_Bossay/Src\usart.c ****     _Error_Handler(__FILE__, __LINE__);
 351              		.loc 1 134 5
 352 004e 8621     		movs	r1, #134
 353 0050 0448     		ldr	r0, .L19+8
 354 0052 FFF7FEFF 		bl	_Error_Handler
 355              	.L18:
 135:d:/LiteOS_Lab/targets/STM32L431VCT6_Bossay/Src\usart.c ****   }
 136:d:/LiteOS_Lab/targets/STM32L431VCT6_Bossay/Src\usart.c **** 
 137:d:/LiteOS_Lab/targets/STM32L431VCT6_Bossay/Src\usart.c **** }
 356              		.loc 1 137 1
 357 0056 00BF     		nop
 358 0058 80BD     		pop	{r7, pc}
 359              	.L20:
 360 005a 00BF     		.align	2
 361              	.L19:
 362 005c 00000000 		.word	huart3
 363 0060 00480040 		.word	1073760256
 364 0064 00000000 		.word	.LC0
 365              		.cfi_endproc
 366              	.LFE290:
 368              		.section	.text.HAL_UART_MspInit,"ax",%progbits
 369              		.align	1
 370              		.global	HAL_UART_MspInit
 371              		.syntax unified
 372              		.thumb
 373              		.thumb_func
 374              		.fpu fpv4-sp-d16
 376              	HAL_UART_MspInit:
 377              	.LFB291:
 138:d:/LiteOS_Lab/targets/STM32L431VCT6_Bossay/Src\usart.c **** void HAL_UART_MspInit(UART_HandleTypeDef* uartHandle)
 139:d:/LiteOS_Lab/targets/STM32L431VCT6_Bossay/Src\usart.c **** {
 378              		.loc 1 139 1
 379              		.cfi_startproc
ARM GAS  C:\Users\ADMINI~1\AppData\Local\Temp\cccesRVj.s 			page 10


 380              		@ args = 0, pretend = 0, frame = 48
 381              		@ frame_needed = 1, uses_anonymous_args = 0
 382 0000 80B5     		push	{r7, lr}
 383              	.LCFI8:
 384              		.cfi_def_cfa_offset 8
 385              		.cfi_offset 7, -8
 386              		.cfi_offset 14, -4
 387 0002 8CB0     		sub	sp, sp, #48
 388              	.LCFI9:
 389              		.cfi_def_cfa_offset 56
 390 0004 00AF     		add	r7, sp, #0
 391              	.LCFI10:
 392              		.cfi_def_cfa_register 7
 393 0006 7860     		str	r0, [r7, #4]
 140:d:/LiteOS_Lab/targets/STM32L431VCT6_Bossay/Src\usart.c **** 
 141:d:/LiteOS_Lab/targets/STM32L431VCT6_Bossay/Src\usart.c ****   GPIO_InitTypeDef GPIO_InitStruct;
 142:d:/LiteOS_Lab/targets/STM32L431VCT6_Bossay/Src\usart.c ****   if(uartHandle->Instance==LPUART1)
 394              		.loc 1 142 16
 395 0008 7B68     		ldr	r3, [r7, #4]
 396 000a 1B68     		ldr	r3, [r3]
 397              		.loc 1 142 5
 398 000c 554A     		ldr	r2, .L27
 399 000e 9342     		cmp	r3, r2
 400 0010 24D1     		bne	.L22
 401              	.LBB2:
 143:d:/LiteOS_Lab/targets/STM32L431VCT6_Bossay/Src\usart.c ****   {
 144:d:/LiteOS_Lab/targets/STM32L431VCT6_Bossay/Src\usart.c ****   /* USER CODE BEGIN LPUART1_MspInit 0 */
 145:d:/LiteOS_Lab/targets/STM32L431VCT6_Bossay/Src\usart.c **** 
 146:d:/LiteOS_Lab/targets/STM32L431VCT6_Bossay/Src\usart.c ****   /* USER CODE END LPUART1_MspInit 0 */
 147:d:/LiteOS_Lab/targets/STM32L431VCT6_Bossay/Src\usart.c ****     /* LPUART1 clock enable */
 148:d:/LiteOS_Lab/targets/STM32L431VCT6_Bossay/Src\usart.c ****     __HAL_RCC_LPUART1_CLK_ENABLE();
 402              		.loc 1 148 5
 403 0012 554B     		ldr	r3, .L27+4
 404 0014 DB6D     		ldr	r3, [r3, #92]
 405 0016 544A     		ldr	r2, .L27+4
 406 0018 43F00103 		orr	r3, r3, #1
 407 001c D365     		str	r3, [r2, #92]
 408 001e 524B     		ldr	r3, .L27+4
 409 0020 DB6D     		ldr	r3, [r3, #92]
 410 0022 03F00103 		and	r3, r3, #1
 411 0026 BB61     		str	r3, [r7, #24]
 412 0028 BB69     		ldr	r3, [r7, #24]
 413              	.LBE2:
 149:d:/LiteOS_Lab/targets/STM32L431VCT6_Bossay/Src\usart.c ****   
 150:d:/LiteOS_Lab/targets/STM32L431VCT6_Bossay/Src\usart.c ****     /**LPUART1 GPIO Configuration    
 151:d:/LiteOS_Lab/targets/STM32L431VCT6_Bossay/Src\usart.c ****     PC0     ------> WAN_AT_RX
 152:d:/LiteOS_Lab/targets/STM32L431VCT6_Bossay/Src\usart.c ****     PC1     ------> WAN_AT_TX 
 153:d:/LiteOS_Lab/targets/STM32L431VCT6_Bossay/Src\usart.c ****     */
 154:d:/LiteOS_Lab/targets/STM32L431VCT6_Bossay/Src\usart.c ****     GPIO_InitStruct.Pin = GPIO_PIN_0|GPIO_PIN_1;
 414              		.loc 1 154 25
 415 002a 0323     		movs	r3, #3
 416 002c FB61     		str	r3, [r7, #28]
 155:d:/LiteOS_Lab/targets/STM32L431VCT6_Bossay/Src\usart.c ****     GPIO_InitStruct.Mode = GPIO_MODE_AF_PP;
 417              		.loc 1 155 26
 418 002e 0223     		movs	r3, #2
 419 0030 3B62     		str	r3, [r7, #32]
 156:d:/LiteOS_Lab/targets/STM32L431VCT6_Bossay/Src\usart.c ****     GPIO_InitStruct.Pull = GPIO_NOPULL;
ARM GAS  C:\Users\ADMINI~1\AppData\Local\Temp\cccesRVj.s 			page 11


 420              		.loc 1 156 26
 421 0032 0023     		movs	r3, #0
 422 0034 7B62     		str	r3, [r7, #36]
 157:d:/LiteOS_Lab/targets/STM32L431VCT6_Bossay/Src\usart.c ****     GPIO_InitStruct.Speed = GPIO_SPEED_FREQ_VERY_HIGH;
 423              		.loc 1 157 27
 424 0036 0323     		movs	r3, #3
 425 0038 BB62     		str	r3, [r7, #40]
 158:d:/LiteOS_Lab/targets/STM32L431VCT6_Bossay/Src\usart.c ****     GPIO_InitStruct.Alternate = GPIO_AF8_LPUART1;
 426              		.loc 1 158 31
 427 003a 0823     		movs	r3, #8
 428 003c FB62     		str	r3, [r7, #44]
 159:d:/LiteOS_Lab/targets/STM32L431VCT6_Bossay/Src\usart.c ****     HAL_GPIO_Init(GPIOC, &GPIO_InitStruct);
 429              		.loc 1 159 5
 430 003e 07F11C03 		add	r3, r7, #28
 431 0042 1946     		mov	r1, r3
 432 0044 4948     		ldr	r0, .L27+8
 433 0046 FFF7FEFF 		bl	HAL_GPIO_Init
 160:d:/LiteOS_Lab/targets/STM32L431VCT6_Bossay/Src\usart.c **** 		
 161:d:/LiteOS_Lab/targets/STM32L431VCT6_Bossay/Src\usart.c ****   /* LPUART1 interrupt Init */
 162:d:/LiteOS_Lab/targets/STM32L431VCT6_Bossay/Src\usart.c ****     HAL_NVIC_SetPriority(LPUART1_IRQn, 0, 0);
 434              		.loc 1 162 5
 435 004a 0022     		movs	r2, #0
 436 004c 0021     		movs	r1, #0
 437 004e 4620     		movs	r0, #70
 438 0050 FFF7FEFF 		bl	HAL_NVIC_SetPriority
 163:d:/LiteOS_Lab/targets/STM32L431VCT6_Bossay/Src\usart.c ****     HAL_NVIC_EnableIRQ(LPUART1_IRQn);
 439              		.loc 1 163 5
 440 0054 4620     		movs	r0, #70
 441 0056 FFF7FEFF 		bl	HAL_NVIC_EnableIRQ
 164:d:/LiteOS_Lab/targets/STM32L431VCT6_Bossay/Src\usart.c ****   /* USER CODE BEGIN LPUART1_MspInit 1 */
 165:d:/LiteOS_Lab/targets/STM32L431VCT6_Bossay/Src\usart.c **** 
 166:d:/LiteOS_Lab/targets/STM32L431VCT6_Bossay/Src\usart.c ****   /* USER CODE END LPUART1_MspInit 1 */
 167:d:/LiteOS_Lab/targets/STM32L431VCT6_Bossay/Src\usart.c ****   }
 168:d:/LiteOS_Lab/targets/STM32L431VCT6_Bossay/Src\usart.c **** 	else if(uartHandle->Instance==USART1)
 169:d:/LiteOS_Lab/targets/STM32L431VCT6_Bossay/Src\usart.c ****   {
 170:d:/LiteOS_Lab/targets/STM32L431VCT6_Bossay/Src\usart.c ****   /* USER CODE BEGIN USART1_MspInit 0 */
 171:d:/LiteOS_Lab/targets/STM32L431VCT6_Bossay/Src\usart.c **** 
 172:d:/LiteOS_Lab/targets/STM32L431VCT6_Bossay/Src\usart.c ****   /* USER CODE END USART1_MspInit 0 */
 173:d:/LiteOS_Lab/targets/STM32L431VCT6_Bossay/Src\usart.c ****     /* USART1 clock enable */
 174:d:/LiteOS_Lab/targets/STM32L431VCT6_Bossay/Src\usart.c ****     __HAL_RCC_USART1_CLK_ENABLE();
 175:d:/LiteOS_Lab/targets/STM32L431VCT6_Bossay/Src\usart.c ****   
 176:d:/LiteOS_Lab/targets/STM32L431VCT6_Bossay/Src\usart.c ****     /**USART1 GPIO Configuration    
 177:d:/LiteOS_Lab/targets/STM32L431VCT6_Bossay/Src\usart.c ****     PA9     ------> USART1_TX
 178:d:/LiteOS_Lab/targets/STM32L431VCT6_Bossay/Src\usart.c ****     PA10     ------> USART1_RX 
 179:d:/LiteOS_Lab/targets/STM32L431VCT6_Bossay/Src\usart.c ****     */
 180:d:/LiteOS_Lab/targets/STM32L431VCT6_Bossay/Src\usart.c ****     GPIO_InitStruct.Pin = GPIO_PIN_9|GPIO_PIN_10;
 181:d:/LiteOS_Lab/targets/STM32L431VCT6_Bossay/Src\usart.c ****     GPIO_InitStruct.Mode = GPIO_MODE_AF_PP;
 182:d:/LiteOS_Lab/targets/STM32L431VCT6_Bossay/Src\usart.c ****     GPIO_InitStruct.Pull = GPIO_NOPULL;
 183:d:/LiteOS_Lab/targets/STM32L431VCT6_Bossay/Src\usart.c ****     GPIO_InitStruct.Speed = GPIO_SPEED_FREQ_VERY_HIGH;
 184:d:/LiteOS_Lab/targets/STM32L431VCT6_Bossay/Src\usart.c ****     GPIO_InitStruct.Alternate = GPIO_AF7_USART1;
 185:d:/LiteOS_Lab/targets/STM32L431VCT6_Bossay/Src\usart.c ****     HAL_GPIO_Init(GPIOA, &GPIO_InitStruct);
 186:d:/LiteOS_Lab/targets/STM32L431VCT6_Bossay/Src\usart.c **** 
 187:d:/LiteOS_Lab/targets/STM32L431VCT6_Bossay/Src\usart.c ****     /* USART1 interrupt Init */
 188:d:/LiteOS_Lab/targets/STM32L431VCT6_Bossay/Src\usart.c ****     HAL_NVIC_SetPriority(USART1_IRQn, 0, 0);
 189:d:/LiteOS_Lab/targets/STM32L431VCT6_Bossay/Src\usart.c ****     HAL_NVIC_EnableIRQ(USART1_IRQn);
 190:d:/LiteOS_Lab/targets/STM32L431VCT6_Bossay/Src\usart.c ****   /* USER CODE BEGIN USART1_MspInit 1 */
 191:d:/LiteOS_Lab/targets/STM32L431VCT6_Bossay/Src\usart.c **** 
ARM GAS  C:\Users\ADMINI~1\AppData\Local\Temp\cccesRVj.s 			page 12


 192:d:/LiteOS_Lab/targets/STM32L431VCT6_Bossay/Src\usart.c ****   /* USER CODE END USART1_MspInit 1 */
 193:d:/LiteOS_Lab/targets/STM32L431VCT6_Bossay/Src\usart.c ****   }
 194:d:/LiteOS_Lab/targets/STM32L431VCT6_Bossay/Src\usart.c ****   else if(uartHandle->Instance==USART2)
 195:d:/LiteOS_Lab/targets/STM32L431VCT6_Bossay/Src\usart.c ****   {
 196:d:/LiteOS_Lab/targets/STM32L431VCT6_Bossay/Src\usart.c ****   /* USER CODE BEGIN USART2_MspInit 0 */
 197:d:/LiteOS_Lab/targets/STM32L431VCT6_Bossay/Src\usart.c **** 
 198:d:/LiteOS_Lab/targets/STM32L431VCT6_Bossay/Src\usart.c ****   /* USER CODE END USART2_MspInit 0 */
 199:d:/LiteOS_Lab/targets/STM32L431VCT6_Bossay/Src\usart.c ****     /* USART2 clock enable */
 200:d:/LiteOS_Lab/targets/STM32L431VCT6_Bossay/Src\usart.c ****     __HAL_RCC_USART2_CLK_ENABLE();
 201:d:/LiteOS_Lab/targets/STM32L431VCT6_Bossay/Src\usart.c ****   
 202:d:/LiteOS_Lab/targets/STM32L431VCT6_Bossay/Src\usart.c ****     /**USART2 GPIO Configuration    
 203:d:/LiteOS_Lab/targets/STM32L431VCT6_Bossay/Src\usart.c ****     PA2     ------> USART2_TX
 204:d:/LiteOS_Lab/targets/STM32L431VCT6_Bossay/Src\usart.c ****     PA3     ------> USART2_RX 
 205:d:/LiteOS_Lab/targets/STM32L431VCT6_Bossay/Src\usart.c ****     */
 206:d:/LiteOS_Lab/targets/STM32L431VCT6_Bossay/Src\usart.c ****     GPIO_InitStruct.Pin = GPIO_PIN_2|GPIO_PIN_3;
 207:d:/LiteOS_Lab/targets/STM32L431VCT6_Bossay/Src\usart.c ****     GPIO_InitStruct.Mode = GPIO_MODE_AF_PP;
 208:d:/LiteOS_Lab/targets/STM32L431VCT6_Bossay/Src\usart.c ****     GPIO_InitStruct.Pull = GPIO_NOPULL;
 209:d:/LiteOS_Lab/targets/STM32L431VCT6_Bossay/Src\usart.c ****     GPIO_InitStruct.Speed = GPIO_SPEED_FREQ_VERY_HIGH;
 210:d:/LiteOS_Lab/targets/STM32L431VCT6_Bossay/Src\usart.c ****     GPIO_InitStruct.Alternate = GPIO_AF7_USART2;
 211:d:/LiteOS_Lab/targets/STM32L431VCT6_Bossay/Src\usart.c ****     HAL_GPIO_Init(GPIOA, &GPIO_InitStruct);
 212:d:/LiteOS_Lab/targets/STM32L431VCT6_Bossay/Src\usart.c **** 
 213:d:/LiteOS_Lab/targets/STM32L431VCT6_Bossay/Src\usart.c ****     /* USART2 interrupt Init */
 214:d:/LiteOS_Lab/targets/STM32L431VCT6_Bossay/Src\usart.c ****     HAL_NVIC_SetPriority(USART2_IRQn, 0, 0);
 215:d:/LiteOS_Lab/targets/STM32L431VCT6_Bossay/Src\usart.c ****     HAL_NVIC_EnableIRQ(USART2_IRQn);
 216:d:/LiteOS_Lab/targets/STM32L431VCT6_Bossay/Src\usart.c ****   /* USER CODE BEGIN USART2_MspInit 1 */
 217:d:/LiteOS_Lab/targets/STM32L431VCT6_Bossay/Src\usart.c **** 
 218:d:/LiteOS_Lab/targets/STM32L431VCT6_Bossay/Src\usart.c ****   /* USER CODE END USART2_MspInit 1 */
 219:d:/LiteOS_Lab/targets/STM32L431VCT6_Bossay/Src\usart.c ****   }
 220:d:/LiteOS_Lab/targets/STM32L431VCT6_Bossay/Src\usart.c ****   else if(uartHandle->Instance==USART3)
 221:d:/LiteOS_Lab/targets/STM32L431VCT6_Bossay/Src\usart.c ****   {
 222:d:/LiteOS_Lab/targets/STM32L431VCT6_Bossay/Src\usart.c ****   /* USER CODE BEGIN USART3_MspInit 0 */
 223:d:/LiteOS_Lab/targets/STM32L431VCT6_Bossay/Src\usart.c **** 
 224:d:/LiteOS_Lab/targets/STM32L431VCT6_Bossay/Src\usart.c ****   /* USER CODE END USART3_MspInit 0 */
 225:d:/LiteOS_Lab/targets/STM32L431VCT6_Bossay/Src\usart.c ****     /* USART3 clock enable */
 226:d:/LiteOS_Lab/targets/STM32L431VCT6_Bossay/Src\usart.c ****     __HAL_RCC_USART3_CLK_ENABLE();
 227:d:/LiteOS_Lab/targets/STM32L431VCT6_Bossay/Src\usart.c ****   
 228:d:/LiteOS_Lab/targets/STM32L431VCT6_Bossay/Src\usart.c ****     /**USART3 GPIO Configuration    
 229:d:/LiteOS_Lab/targets/STM32L431VCT6_Bossay/Src\usart.c ****     PC4     ------> USART3_TX
 230:d:/LiteOS_Lab/targets/STM32L431VCT6_Bossay/Src\usart.c ****     PC5     ------> USART3_RX 
 231:d:/LiteOS_Lab/targets/STM32L431VCT6_Bossay/Src\usart.c ****     */
 232:d:/LiteOS_Lab/targets/STM32L431VCT6_Bossay/Src\usart.c ****     GPIO_InitStruct.Pin = GPIO_PIN_4|GPIO_PIN_5;
 233:d:/LiteOS_Lab/targets/STM32L431VCT6_Bossay/Src\usart.c ****     GPIO_InitStruct.Mode = GPIO_MODE_AF_PP;
 234:d:/LiteOS_Lab/targets/STM32L431VCT6_Bossay/Src\usart.c ****     GPIO_InitStruct.Pull = GPIO_NOPULL;
 235:d:/LiteOS_Lab/targets/STM32L431VCT6_Bossay/Src\usart.c ****     GPIO_InitStruct.Speed = GPIO_SPEED_FREQ_VERY_HIGH;
 236:d:/LiteOS_Lab/targets/STM32L431VCT6_Bossay/Src\usart.c ****     GPIO_InitStruct.Alternate = GPIO_AF7_USART3;
 237:d:/LiteOS_Lab/targets/STM32L431VCT6_Bossay/Src\usart.c ****     HAL_GPIO_Init(GPIOC, &GPIO_InitStruct);
 238:d:/LiteOS_Lab/targets/STM32L431VCT6_Bossay/Src\usart.c **** 
 239:d:/LiteOS_Lab/targets/STM32L431VCT6_Bossay/Src\usart.c ****     /* USART3 interrupt Init */
 240:d:/LiteOS_Lab/targets/STM32L431VCT6_Bossay/Src\usart.c ****     HAL_NVIC_SetPriority(USART3_IRQn, 0, 0);
 241:d:/LiteOS_Lab/targets/STM32L431VCT6_Bossay/Src\usart.c ****     HAL_NVIC_EnableIRQ(USART3_IRQn);
 242:d:/LiteOS_Lab/targets/STM32L431VCT6_Bossay/Src\usart.c ****   /* USER CODE BEGIN USART3_MspInit 1 */
 243:d:/LiteOS_Lab/targets/STM32L431VCT6_Bossay/Src\usart.c **** 
 244:d:/LiteOS_Lab/targets/STM32L431VCT6_Bossay/Src\usart.c ****   /* USER CODE END USART3_MspInit 1 */
 245:d:/LiteOS_Lab/targets/STM32L431VCT6_Bossay/Src\usart.c ****   }
 246:d:/LiteOS_Lab/targets/STM32L431VCT6_Bossay/Src\usart.c **** }
 442              		.loc 1 246 1
 443 005a 7FE0     		b	.L26
ARM GAS  C:\Users\ADMINI~1\AppData\Local\Temp\cccesRVj.s 			page 13


 444              	.L22:
 168:d:/LiteOS_Lab/targets/STM32L431VCT6_Bossay/Src\usart.c ****   {
 445              		.loc 1 168 20
 446 005c 7B68     		ldr	r3, [r7, #4]
 447 005e 1B68     		ldr	r3, [r3]
 168:d:/LiteOS_Lab/targets/STM32L431VCT6_Bossay/Src\usart.c ****   {
 448              		.loc 1 168 9
 449 0060 434A     		ldr	r2, .L27+12
 450 0062 9342     		cmp	r3, r2
 451 0064 26D1     		bne	.L24
 452              	.LBB3:
 174:d:/LiteOS_Lab/targets/STM32L431VCT6_Bossay/Src\usart.c ****   
 453              		.loc 1 174 5
 454 0066 404B     		ldr	r3, .L27+4
 455 0068 1B6E     		ldr	r3, [r3, #96]
 456 006a 3F4A     		ldr	r2, .L27+4
 457 006c 43F48043 		orr	r3, r3, #16384
 458 0070 1366     		str	r3, [r2, #96]
 459 0072 3D4B     		ldr	r3, .L27+4
 460 0074 1B6E     		ldr	r3, [r3, #96]
 461 0076 03F48043 		and	r3, r3, #16384
 462 007a 7B61     		str	r3, [r7, #20]
 463 007c 7B69     		ldr	r3, [r7, #20]
 464              	.LBE3:
 180:d:/LiteOS_Lab/targets/STM32L431VCT6_Bossay/Src\usart.c ****     GPIO_InitStruct.Mode = GPIO_MODE_AF_PP;
 465              		.loc 1 180 25
 466 007e 4FF4C063 		mov	r3, #1536
 467 0082 FB61     		str	r3, [r7, #28]
 181:d:/LiteOS_Lab/targets/STM32L431VCT6_Bossay/Src\usart.c ****     GPIO_InitStruct.Pull = GPIO_NOPULL;
 468              		.loc 1 181 26
 469 0084 0223     		movs	r3, #2
 470 0086 3B62     		str	r3, [r7, #32]
 182:d:/LiteOS_Lab/targets/STM32L431VCT6_Bossay/Src\usart.c ****     GPIO_InitStruct.Speed = GPIO_SPEED_FREQ_VERY_HIGH;
 471              		.loc 1 182 26
 472 0088 0023     		movs	r3, #0
 473 008a 7B62     		str	r3, [r7, #36]
 183:d:/LiteOS_Lab/targets/STM32L431VCT6_Bossay/Src\usart.c ****     GPIO_InitStruct.Alternate = GPIO_AF7_USART1;
 474              		.loc 1 183 27
 475 008c 0323     		movs	r3, #3
 476 008e BB62     		str	r3, [r7, #40]
 184:d:/LiteOS_Lab/targets/STM32L431VCT6_Bossay/Src\usart.c ****     HAL_GPIO_Init(GPIOA, &GPIO_InitStruct);
 477              		.loc 1 184 31
 478 0090 0723     		movs	r3, #7
 479 0092 FB62     		str	r3, [r7, #44]
 185:d:/LiteOS_Lab/targets/STM32L431VCT6_Bossay/Src\usart.c **** 
 480              		.loc 1 185 5
 481 0094 07F11C03 		add	r3, r7, #28
 482 0098 1946     		mov	r1, r3
 483 009a 4FF09040 		mov	r0, #1207959552
 484 009e FFF7FEFF 		bl	HAL_GPIO_Init
 188:d:/LiteOS_Lab/targets/STM32L431VCT6_Bossay/Src\usart.c ****     HAL_NVIC_EnableIRQ(USART1_IRQn);
 485              		.loc 1 188 5
 486 00a2 0022     		movs	r2, #0
 487 00a4 0021     		movs	r1, #0
 488 00a6 2520     		movs	r0, #37
 489 00a8 FFF7FEFF 		bl	HAL_NVIC_SetPriority
 189:d:/LiteOS_Lab/targets/STM32L431VCT6_Bossay/Src\usart.c ****   /* USER CODE BEGIN USART1_MspInit 1 */
ARM GAS  C:\Users\ADMINI~1\AppData\Local\Temp\cccesRVj.s 			page 14


 490              		.loc 1 189 5
 491 00ac 2520     		movs	r0, #37
 492 00ae FFF7FEFF 		bl	HAL_NVIC_EnableIRQ
 493              		.loc 1 246 1
 494 00b2 53E0     		b	.L26
 495              	.L24:
 194:d:/LiteOS_Lab/targets/STM32L431VCT6_Bossay/Src\usart.c ****   {
 496              		.loc 1 194 21
 497 00b4 7B68     		ldr	r3, [r7, #4]
 498 00b6 1B68     		ldr	r3, [r3]
 194:d:/LiteOS_Lab/targets/STM32L431VCT6_Bossay/Src\usart.c ****   {
 499              		.loc 1 194 10
 500 00b8 2E4A     		ldr	r2, .L27+16
 501 00ba 9342     		cmp	r3, r2
 502 00bc 25D1     		bne	.L25
 503              	.LBB4:
 200:d:/LiteOS_Lab/targets/STM32L431VCT6_Bossay/Src\usart.c ****   
 504              		.loc 1 200 5
 505 00be 2A4B     		ldr	r3, .L27+4
 506 00c0 9B6D     		ldr	r3, [r3, #88]
 507 00c2 294A     		ldr	r2, .L27+4
 508 00c4 43F40033 		orr	r3, r3, #131072
 509 00c8 9365     		str	r3, [r2, #88]
 510 00ca 274B     		ldr	r3, .L27+4
 511 00cc 9B6D     		ldr	r3, [r3, #88]
 512 00ce 03F40033 		and	r3, r3, #131072
 513 00d2 3B61     		str	r3, [r7, #16]
 514 00d4 3B69     		ldr	r3, [r7, #16]
 515              	.LBE4:
 206:d:/LiteOS_Lab/targets/STM32L431VCT6_Bossay/Src\usart.c ****     GPIO_InitStruct.Mode = GPIO_MODE_AF_PP;
 516              		.loc 1 206 25
 517 00d6 0C23     		movs	r3, #12
 518 00d8 FB61     		str	r3, [r7, #28]
 207:d:/LiteOS_Lab/targets/STM32L431VCT6_Bossay/Src\usart.c ****     GPIO_InitStruct.Pull = GPIO_NOPULL;
 519              		.loc 1 207 26
 520 00da 0223     		movs	r3, #2
 521 00dc 3B62     		str	r3, [r7, #32]
 208:d:/LiteOS_Lab/targets/STM32L431VCT6_Bossay/Src\usart.c ****     GPIO_InitStruct.Speed = GPIO_SPEED_FREQ_VERY_HIGH;
 522              		.loc 1 208 26
 523 00de 0023     		movs	r3, #0
 524 00e0 7B62     		str	r3, [r7, #36]
 209:d:/LiteOS_Lab/targets/STM32L431VCT6_Bossay/Src\usart.c ****     GPIO_InitStruct.Alternate = GPIO_AF7_USART2;
 525              		.loc 1 209 27
 526 00e2 0323     		movs	r3, #3
 527 00e4 BB62     		str	r3, [r7, #40]
 210:d:/LiteOS_Lab/targets/STM32L431VCT6_Bossay/Src\usart.c ****     HAL_GPIO_Init(GPIOA, &GPIO_InitStruct);
 528              		.loc 1 210 31
 529 00e6 0723     		movs	r3, #7
 530 00e8 FB62     		str	r3, [r7, #44]
 211:d:/LiteOS_Lab/targets/STM32L431VCT6_Bossay/Src\usart.c **** 
 531              		.loc 1 211 5
 532 00ea 07F11C03 		add	r3, r7, #28
 533 00ee 1946     		mov	r1, r3
 534 00f0 4FF09040 		mov	r0, #1207959552
 535 00f4 FFF7FEFF 		bl	HAL_GPIO_Init
 214:d:/LiteOS_Lab/targets/STM32L431VCT6_Bossay/Src\usart.c ****     HAL_NVIC_EnableIRQ(USART2_IRQn);
 536              		.loc 1 214 5
ARM GAS  C:\Users\ADMINI~1\AppData\Local\Temp\cccesRVj.s 			page 15


 537 00f8 0022     		movs	r2, #0
 538 00fa 0021     		movs	r1, #0
 539 00fc 2620     		movs	r0, #38
 540 00fe FFF7FEFF 		bl	HAL_NVIC_SetPriority
 215:d:/LiteOS_Lab/targets/STM32L431VCT6_Bossay/Src\usart.c ****   /* USER CODE BEGIN USART2_MspInit 1 */
 541              		.loc 1 215 5
 542 0102 2620     		movs	r0, #38
 543 0104 FFF7FEFF 		bl	HAL_NVIC_EnableIRQ
 544              		.loc 1 246 1
 545 0108 28E0     		b	.L26
 546              	.L25:
 220:d:/LiteOS_Lab/targets/STM32L431VCT6_Bossay/Src\usart.c ****   {
 547              		.loc 1 220 21
 548 010a 7B68     		ldr	r3, [r7, #4]
 549 010c 1B68     		ldr	r3, [r3]
 220:d:/LiteOS_Lab/targets/STM32L431VCT6_Bossay/Src\usart.c ****   {
 550              		.loc 1 220 10
 551 010e 1A4A     		ldr	r2, .L27+20
 552 0110 9342     		cmp	r3, r2
 553 0112 23D1     		bne	.L26
 554              	.LBB5:
 226:d:/LiteOS_Lab/targets/STM32L431VCT6_Bossay/Src\usart.c ****   
 555              		.loc 1 226 5
 556 0114 144B     		ldr	r3, .L27+4
 557 0116 9B6D     		ldr	r3, [r3, #88]
 558 0118 134A     		ldr	r2, .L27+4
 559 011a 43F48023 		orr	r3, r3, #262144
 560 011e 9365     		str	r3, [r2, #88]
 561 0120 114B     		ldr	r3, .L27+4
 562 0122 9B6D     		ldr	r3, [r3, #88]
 563 0124 03F48023 		and	r3, r3, #262144
 564 0128 FB60     		str	r3, [r7, #12]
 565 012a FB68     		ldr	r3, [r7, #12]
 566              	.LBE5:
 232:d:/LiteOS_Lab/targets/STM32L431VCT6_Bossay/Src\usart.c ****     GPIO_InitStruct.Mode = GPIO_MODE_AF_PP;
 567              		.loc 1 232 25
 568 012c 3023     		movs	r3, #48
 569 012e FB61     		str	r3, [r7, #28]
 233:d:/LiteOS_Lab/targets/STM32L431VCT6_Bossay/Src\usart.c ****     GPIO_InitStruct.Pull = GPIO_NOPULL;
 570              		.loc 1 233 26
 571 0130 0223     		movs	r3, #2
 572 0132 3B62     		str	r3, [r7, #32]
 234:d:/LiteOS_Lab/targets/STM32L431VCT6_Bossay/Src\usart.c ****     GPIO_InitStruct.Speed = GPIO_SPEED_FREQ_VERY_HIGH;
 573              		.loc 1 234 26
 574 0134 0023     		movs	r3, #0
 575 0136 7B62     		str	r3, [r7, #36]
 235:d:/LiteOS_Lab/targets/STM32L431VCT6_Bossay/Src\usart.c ****     GPIO_InitStruct.Alternate = GPIO_AF7_USART3;
 576              		.loc 1 235 27
 577 0138 0323     		movs	r3, #3
 578 013a BB62     		str	r3, [r7, #40]
 236:d:/LiteOS_Lab/targets/STM32L431VCT6_Bossay/Src\usart.c ****     HAL_GPIO_Init(GPIOC, &GPIO_InitStruct);
 579              		.loc 1 236 31
 580 013c 0723     		movs	r3, #7
 581 013e FB62     		str	r3, [r7, #44]
 237:d:/LiteOS_Lab/targets/STM32L431VCT6_Bossay/Src\usart.c **** 
 582              		.loc 1 237 5
 583 0140 07F11C03 		add	r3, r7, #28
ARM GAS  C:\Users\ADMINI~1\AppData\Local\Temp\cccesRVj.s 			page 16


 584 0144 1946     		mov	r1, r3
 585 0146 0948     		ldr	r0, .L27+8
 586 0148 FFF7FEFF 		bl	HAL_GPIO_Init
 240:d:/LiteOS_Lab/targets/STM32L431VCT6_Bossay/Src\usart.c ****     HAL_NVIC_EnableIRQ(USART3_IRQn);
 587              		.loc 1 240 5
 588 014c 0022     		movs	r2, #0
 589 014e 0021     		movs	r1, #0
 590 0150 2720     		movs	r0, #39
 591 0152 FFF7FEFF 		bl	HAL_NVIC_SetPriority
 241:d:/LiteOS_Lab/targets/STM32L431VCT6_Bossay/Src\usart.c ****   /* USER CODE BEGIN USART3_MspInit 1 */
 592              		.loc 1 241 5
 593 0156 2720     		movs	r0, #39
 594 0158 FFF7FEFF 		bl	HAL_NVIC_EnableIRQ
 595              	.L26:
 596              		.loc 1 246 1
 597 015c 00BF     		nop
 598 015e 3037     		adds	r7, r7, #48
 599              	.LCFI11:
 600              		.cfi_def_cfa_offset 8
 601 0160 BD46     		mov	sp, r7
 602              	.LCFI12:
 603              		.cfi_def_cfa_register 13
 604              		@ sp needed
 605 0162 80BD     		pop	{r7, pc}
 606              	.L28:
 607              		.align	2
 608              	.L27:
 609 0164 00800040 		.word	1073774592
 610 0168 00100240 		.word	1073876992
 611 016c 00080048 		.word	1207961600
 612 0170 00380140 		.word	1073821696
 613 0174 00440040 		.word	1073759232
 614 0178 00480040 		.word	1073760256
 615              		.cfi_endproc
 616              	.LFE291:
 618              		.section	.text.HAL_UART_MspDeInit,"ax",%progbits
 619              		.align	1
 620              		.global	HAL_UART_MspDeInit
 621              		.syntax unified
 622              		.thumb
 623              		.thumb_func
 624              		.fpu fpv4-sp-d16
 626              	HAL_UART_MspDeInit:
 627              	.LFB292:
 247:d:/LiteOS_Lab/targets/STM32L431VCT6_Bossay/Src\usart.c **** 
 248:d:/LiteOS_Lab/targets/STM32L431VCT6_Bossay/Src\usart.c **** void HAL_UART_MspDeInit(UART_HandleTypeDef* uartHandle)
 249:d:/LiteOS_Lab/targets/STM32L431VCT6_Bossay/Src\usart.c **** {
 628              		.loc 1 249 1
 629              		.cfi_startproc
 630              		@ args = 0, pretend = 0, frame = 8
 631              		@ frame_needed = 1, uses_anonymous_args = 0
 632 0000 80B5     		push	{r7, lr}
 633              	.LCFI13:
 634              		.cfi_def_cfa_offset 8
 635              		.cfi_offset 7, -8
 636              		.cfi_offset 14, -4
 637 0002 82B0     		sub	sp, sp, #8
ARM GAS  C:\Users\ADMINI~1\AppData\Local\Temp\cccesRVj.s 			page 17


 638              	.LCFI14:
 639              		.cfi_def_cfa_offset 16
 640 0004 00AF     		add	r7, sp, #0
 641              	.LCFI15:
 642              		.cfi_def_cfa_register 7
 643 0006 7860     		str	r0, [r7, #4]
 250:d:/LiteOS_Lab/targets/STM32L431VCT6_Bossay/Src\usart.c **** 
 251:d:/LiteOS_Lab/targets/STM32L431VCT6_Bossay/Src\usart.c ****   if(uartHandle->Instance==LPUART1)
 644              		.loc 1 251 16
 645 0008 7B68     		ldr	r3, [r7, #4]
 646 000a 1B68     		ldr	r3, [r3]
 647              		.loc 1 251 5
 648 000c 274A     		ldr	r2, .L35
 649 000e 9342     		cmp	r3, r2
 650 0010 0DD1     		bne	.L30
 252:d:/LiteOS_Lab/targets/STM32L431VCT6_Bossay/Src\usart.c ****   {
 253:d:/LiteOS_Lab/targets/STM32L431VCT6_Bossay/Src\usart.c ****   /* USER CODE BEGIN LPUART1_MspDeInit 0 */
 254:d:/LiteOS_Lab/targets/STM32L431VCT6_Bossay/Src\usart.c **** 
 255:d:/LiteOS_Lab/targets/STM32L431VCT6_Bossay/Src\usart.c ****   /* USER CODE END LPUART1_MspDeInit 0 */
 256:d:/LiteOS_Lab/targets/STM32L431VCT6_Bossay/Src\usart.c ****     /* Peripheral clock disable */
 257:d:/LiteOS_Lab/targets/STM32L431VCT6_Bossay/Src\usart.c ****     __HAL_RCC_LPUART1_CLK_DISABLE();
 651              		.loc 1 257 5
 652 0012 274B     		ldr	r3, .L35+4
 653 0014 DB6D     		ldr	r3, [r3, #92]
 654 0016 264A     		ldr	r2, .L35+4
 655 0018 23F00103 		bic	r3, r3, #1
 656 001c D365     		str	r3, [r2, #92]
 258:d:/LiteOS_Lab/targets/STM32L431VCT6_Bossay/Src\usart.c ****   
 259:d:/LiteOS_Lab/targets/STM32L431VCT6_Bossay/Src\usart.c ****     /**LPUART1 GPIO Configuration    
 260:d:/LiteOS_Lab/targets/STM32L431VCT6_Bossay/Src\usart.c ****     PC0     ------> LPUART1_RX
 261:d:/LiteOS_Lab/targets/STM32L431VCT6_Bossay/Src\usart.c ****     PC1     ------> LPUART1_TX 
 262:d:/LiteOS_Lab/targets/STM32L431VCT6_Bossay/Src\usart.c ****     */
 263:d:/LiteOS_Lab/targets/STM32L431VCT6_Bossay/Src\usart.c ****     HAL_GPIO_DeInit(GPIOC, GPIO_PIN_0|GPIO_PIN_1);
 657              		.loc 1 263 5
 658 001e 0321     		movs	r1, #3
 659 0020 2448     		ldr	r0, .L35+8
 660 0022 FFF7FEFF 		bl	HAL_GPIO_DeInit
 264:d:/LiteOS_Lab/targets/STM32L431VCT6_Bossay/Src\usart.c **** 		
 265:d:/LiteOS_Lab/targets/STM32L431VCT6_Bossay/Src\usart.c **** 	/* LPUART1 interrupt Deinit */
 266:d:/LiteOS_Lab/targets/STM32L431VCT6_Bossay/Src\usart.c **** 		HAL_NVIC_DisableIRQ(LPUART1_IRQn);
 661              		.loc 1 266 3
 662 0026 4620     		movs	r0, #70
 663 0028 FFF7FEFF 		bl	HAL_NVIC_DisableIRQ
 267:d:/LiteOS_Lab/targets/STM32L431VCT6_Bossay/Src\usart.c ****   /* USER CODE BEGIN LPUART1_MspDeInit 1 */
 268:d:/LiteOS_Lab/targets/STM32L431VCT6_Bossay/Src\usart.c **** 
 269:d:/LiteOS_Lab/targets/STM32L431VCT6_Bossay/Src\usart.c ****   /* USER CODE END LPUART1_MspDeInit 1 */
 270:d:/LiteOS_Lab/targets/STM32L431VCT6_Bossay/Src\usart.c ****   }
 271:d:/LiteOS_Lab/targets/STM32L431VCT6_Bossay/Src\usart.c ****   else if(uartHandle->Instance==USART1)
 272:d:/LiteOS_Lab/targets/STM32L431VCT6_Bossay/Src\usart.c ****   {
 273:d:/LiteOS_Lab/targets/STM32L431VCT6_Bossay/Src\usart.c ****   /* USER CODE BEGIN USART1_MspDeInit 0 */
 274:d:/LiteOS_Lab/targets/STM32L431VCT6_Bossay/Src\usart.c **** 
 275:d:/LiteOS_Lab/targets/STM32L431VCT6_Bossay/Src\usart.c ****   /* USER CODE END USART1_MspDeInit 0 */
 276:d:/LiteOS_Lab/targets/STM32L431VCT6_Bossay/Src\usart.c ****     /* Peripheral clock disable */
 277:d:/LiteOS_Lab/targets/STM32L431VCT6_Bossay/Src\usart.c ****     __HAL_RCC_USART1_CLK_DISABLE();
 278:d:/LiteOS_Lab/targets/STM32L431VCT6_Bossay/Src\usart.c ****   
 279:d:/LiteOS_Lab/targets/STM32L431VCT6_Bossay/Src\usart.c ****     /**USART1 GPIO Configuration    
 280:d:/LiteOS_Lab/targets/STM32L431VCT6_Bossay/Src\usart.c ****     PA9     ------> USART1_TX
ARM GAS  C:\Users\ADMINI~1\AppData\Local\Temp\cccesRVj.s 			page 18


 281:d:/LiteOS_Lab/targets/STM32L431VCT6_Bossay/Src\usart.c ****     PA10     ------> USART1_RX 
 282:d:/LiteOS_Lab/targets/STM32L431VCT6_Bossay/Src\usart.c ****     */
 283:d:/LiteOS_Lab/targets/STM32L431VCT6_Bossay/Src\usart.c ****     HAL_GPIO_DeInit(GPIOA, GPIO_PIN_9|GPIO_PIN_10);
 284:d:/LiteOS_Lab/targets/STM32L431VCT6_Bossay/Src\usart.c **** 
 285:d:/LiteOS_Lab/targets/STM32L431VCT6_Bossay/Src\usart.c ****     /* USART1 interrupt Deinit */
 286:d:/LiteOS_Lab/targets/STM32L431VCT6_Bossay/Src\usart.c ****     HAL_NVIC_DisableIRQ(USART1_IRQn);
 287:d:/LiteOS_Lab/targets/STM32L431VCT6_Bossay/Src\usart.c ****   /* USER CODE BEGIN USART1_MspDeInit 1 */
 288:d:/LiteOS_Lab/targets/STM32L431VCT6_Bossay/Src\usart.c **** 
 289:d:/LiteOS_Lab/targets/STM32L431VCT6_Bossay/Src\usart.c ****   /* USER CODE END USART1_MspDeInit 1 */
 290:d:/LiteOS_Lab/targets/STM32L431VCT6_Bossay/Src\usart.c ****   }
 291:d:/LiteOS_Lab/targets/STM32L431VCT6_Bossay/Src\usart.c ****   else if(uartHandle->Instance==USART2)
 292:d:/LiteOS_Lab/targets/STM32L431VCT6_Bossay/Src\usart.c ****   {
 293:d:/LiteOS_Lab/targets/STM32L431VCT6_Bossay/Src\usart.c ****   /* USER CODE BEGIN USART2_MspDeInit 0 */
 294:d:/LiteOS_Lab/targets/STM32L431VCT6_Bossay/Src\usart.c **** 
 295:d:/LiteOS_Lab/targets/STM32L431VCT6_Bossay/Src\usart.c ****   /* USER CODE END USART2_MspDeInit 0 */
 296:d:/LiteOS_Lab/targets/STM32L431VCT6_Bossay/Src\usart.c ****     /* Peripheral clock disable */
 297:d:/LiteOS_Lab/targets/STM32L431VCT6_Bossay/Src\usart.c ****     __HAL_RCC_USART2_CLK_DISABLE();
 298:d:/LiteOS_Lab/targets/STM32L431VCT6_Bossay/Src\usart.c ****   
 299:d:/LiteOS_Lab/targets/STM32L431VCT6_Bossay/Src\usart.c ****     /**USART2 GPIO Configuration    
 300:d:/LiteOS_Lab/targets/STM32L431VCT6_Bossay/Src\usart.c ****     PA2     ------> USART2_TX
 301:d:/LiteOS_Lab/targets/STM32L431VCT6_Bossay/Src\usart.c ****     PA3     ------> USART2_RX 
 302:d:/LiteOS_Lab/targets/STM32L431VCT6_Bossay/Src\usart.c ****     */
 303:d:/LiteOS_Lab/targets/STM32L431VCT6_Bossay/Src\usart.c ****     HAL_GPIO_DeInit(GPIOA, GPIO_PIN_2|GPIO_PIN_3);
 304:d:/LiteOS_Lab/targets/STM32L431VCT6_Bossay/Src\usart.c **** 
 305:d:/LiteOS_Lab/targets/STM32L431VCT6_Bossay/Src\usart.c ****     /* USART2 interrupt Deinit */
 306:d:/LiteOS_Lab/targets/STM32L431VCT6_Bossay/Src\usart.c ****     HAL_NVIC_DisableIRQ(USART2_IRQn);
 307:d:/LiteOS_Lab/targets/STM32L431VCT6_Bossay/Src\usart.c ****   /* USER CODE BEGIN USART2_MspDeInit 1 */
 308:d:/LiteOS_Lab/targets/STM32L431VCT6_Bossay/Src\usart.c **** 
 309:d:/LiteOS_Lab/targets/STM32L431VCT6_Bossay/Src\usart.c ****   /* USER CODE END USART2_MspDeInit 1 */
 310:d:/LiteOS_Lab/targets/STM32L431VCT6_Bossay/Src\usart.c ****   }
 311:d:/LiteOS_Lab/targets/STM32L431VCT6_Bossay/Src\usart.c ****   else if(uartHandle->Instance==USART3)
 312:d:/LiteOS_Lab/targets/STM32L431VCT6_Bossay/Src\usart.c ****   {
 313:d:/LiteOS_Lab/targets/STM32L431VCT6_Bossay/Src\usart.c ****   /* USER CODE BEGIN USART3_MspDeInit 0 */
 314:d:/LiteOS_Lab/targets/STM32L431VCT6_Bossay/Src\usart.c **** 
 315:d:/LiteOS_Lab/targets/STM32L431VCT6_Bossay/Src\usart.c ****   /* USER CODE END USART3_MspDeInit 0 */
 316:d:/LiteOS_Lab/targets/STM32L431VCT6_Bossay/Src\usart.c ****     /* Peripheral clock disable */
 317:d:/LiteOS_Lab/targets/STM32L431VCT6_Bossay/Src\usart.c ****     __HAL_RCC_USART3_CLK_DISABLE();
 318:d:/LiteOS_Lab/targets/STM32L431VCT6_Bossay/Src\usart.c ****   
 319:d:/LiteOS_Lab/targets/STM32L431VCT6_Bossay/Src\usart.c ****     /**USART3 GPIO Configuration    
 320:d:/LiteOS_Lab/targets/STM32L431VCT6_Bossay/Src\usart.c ****     PC4     ------> USART3_TX
 321:d:/LiteOS_Lab/targets/STM32L431VCT6_Bossay/Src\usart.c ****     PC5     ------> USART3_RX 
 322:d:/LiteOS_Lab/targets/STM32L431VCT6_Bossay/Src\usart.c ****     */
 323:d:/LiteOS_Lab/targets/STM32L431VCT6_Bossay/Src\usart.c ****     HAL_GPIO_DeInit(GPIOC, GPIO_PIN_4|GPIO_PIN_5);
 324:d:/LiteOS_Lab/targets/STM32L431VCT6_Bossay/Src\usart.c **** 
 325:d:/LiteOS_Lab/targets/STM32L431VCT6_Bossay/Src\usart.c ****     /* USART3 interrupt Deinit */
 326:d:/LiteOS_Lab/targets/STM32L431VCT6_Bossay/Src\usart.c ****     HAL_NVIC_DisableIRQ(USART3_IRQn);
 327:d:/LiteOS_Lab/targets/STM32L431VCT6_Bossay/Src\usart.c ****   /* USER CODE BEGIN USART3_MspDeInit 1 */
 328:d:/LiteOS_Lab/targets/STM32L431VCT6_Bossay/Src\usart.c **** 
 329:d:/LiteOS_Lab/targets/STM32L431VCT6_Bossay/Src\usart.c ****   /* USER CODE END USART3_MspDeInit 1 */
 330:d:/LiteOS_Lab/targets/STM32L431VCT6_Bossay/Src\usart.c ****   }
 331:d:/LiteOS_Lab/targets/STM32L431VCT6_Bossay/Src\usart.c **** }
 664              		.loc 1 331 1
 665 002c 3AE0     		b	.L34
 666              	.L30:
 271:d:/LiteOS_Lab/targets/STM32L431VCT6_Bossay/Src\usart.c ****   {
 667              		.loc 1 271 21
 668 002e 7B68     		ldr	r3, [r7, #4]
ARM GAS  C:\Users\ADMINI~1\AppData\Local\Temp\cccesRVj.s 			page 19


 669 0030 1B68     		ldr	r3, [r3]
 271:d:/LiteOS_Lab/targets/STM32L431VCT6_Bossay/Src\usart.c ****   {
 670              		.loc 1 271 10
 671 0032 214A     		ldr	r2, .L35+12
 672 0034 9342     		cmp	r3, r2
 673 0036 0FD1     		bne	.L32
 277:d:/LiteOS_Lab/targets/STM32L431VCT6_Bossay/Src\usart.c ****   
 674              		.loc 1 277 5
 675 0038 1D4B     		ldr	r3, .L35+4
 676 003a 1B6E     		ldr	r3, [r3, #96]
 677 003c 1C4A     		ldr	r2, .L35+4
 678 003e 23F48043 		bic	r3, r3, #16384
 679 0042 1366     		str	r3, [r2, #96]
 283:d:/LiteOS_Lab/targets/STM32L431VCT6_Bossay/Src\usart.c **** 
 680              		.loc 1 283 5
 681 0044 4FF4C061 		mov	r1, #1536
 682 0048 4FF09040 		mov	r0, #1207959552
 683 004c FFF7FEFF 		bl	HAL_GPIO_DeInit
 286:d:/LiteOS_Lab/targets/STM32L431VCT6_Bossay/Src\usart.c ****   /* USER CODE BEGIN USART1_MspDeInit 1 */
 684              		.loc 1 286 5
 685 0050 2520     		movs	r0, #37
 686 0052 FFF7FEFF 		bl	HAL_NVIC_DisableIRQ
 687              		.loc 1 331 1
 688 0056 25E0     		b	.L34
 689              	.L32:
 291:d:/LiteOS_Lab/targets/STM32L431VCT6_Bossay/Src\usart.c ****   {
 690              		.loc 1 291 21
 691 0058 7B68     		ldr	r3, [r7, #4]
 692 005a 1B68     		ldr	r3, [r3]
 291:d:/LiteOS_Lab/targets/STM32L431VCT6_Bossay/Src\usart.c ****   {
 693              		.loc 1 291 10
 694 005c 174A     		ldr	r2, .L35+16
 695 005e 9342     		cmp	r3, r2
 696 0060 0ED1     		bne	.L33
 297:d:/LiteOS_Lab/targets/STM32L431VCT6_Bossay/Src\usart.c ****   
 697              		.loc 1 297 5
 698 0062 134B     		ldr	r3, .L35+4
 699 0064 9B6D     		ldr	r3, [r3, #88]
 700 0066 124A     		ldr	r2, .L35+4
 701 0068 23F40033 		bic	r3, r3, #131072
 702 006c 9365     		str	r3, [r2, #88]
 303:d:/LiteOS_Lab/targets/STM32L431VCT6_Bossay/Src\usart.c **** 
 703              		.loc 1 303 5
 704 006e 0C21     		movs	r1, #12
 705 0070 4FF09040 		mov	r0, #1207959552
 706 0074 FFF7FEFF 		bl	HAL_GPIO_DeInit
 306:d:/LiteOS_Lab/targets/STM32L431VCT6_Bossay/Src\usart.c ****   /* USER CODE BEGIN USART2_MspDeInit 1 */
 707              		.loc 1 306 5
 708 0078 2620     		movs	r0, #38
 709 007a FFF7FEFF 		bl	HAL_NVIC_DisableIRQ
 710              		.loc 1 331 1
 711 007e 11E0     		b	.L34
 712              	.L33:
 311:d:/LiteOS_Lab/targets/STM32L431VCT6_Bossay/Src\usart.c ****   {
 713              		.loc 1 311 21
 714 0080 7B68     		ldr	r3, [r7, #4]
 715 0082 1B68     		ldr	r3, [r3]
ARM GAS  C:\Users\ADMINI~1\AppData\Local\Temp\cccesRVj.s 			page 20


 311:d:/LiteOS_Lab/targets/STM32L431VCT6_Bossay/Src\usart.c ****   {
 716              		.loc 1 311 10
 717 0084 0E4A     		ldr	r2, .L35+20
 718 0086 9342     		cmp	r3, r2
 719 0088 0CD1     		bne	.L34
 317:d:/LiteOS_Lab/targets/STM32L431VCT6_Bossay/Src\usart.c ****   
 720              		.loc 1 317 5
 721 008a 094B     		ldr	r3, .L35+4
 722 008c 9B6D     		ldr	r3, [r3, #88]
 723 008e 084A     		ldr	r2, .L35+4
 724 0090 23F48023 		bic	r3, r3, #262144
 725 0094 9365     		str	r3, [r2, #88]
 323:d:/LiteOS_Lab/targets/STM32L431VCT6_Bossay/Src\usart.c **** 
 726              		.loc 1 323 5
 727 0096 3021     		movs	r1, #48
 728 0098 0648     		ldr	r0, .L35+8
 729 009a FFF7FEFF 		bl	HAL_GPIO_DeInit
 326:d:/LiteOS_Lab/targets/STM32L431VCT6_Bossay/Src\usart.c ****   /* USER CODE BEGIN USART3_MspDeInit 1 */
 730              		.loc 1 326 5
 731 009e 2720     		movs	r0, #39
 732 00a0 FFF7FEFF 		bl	HAL_NVIC_DisableIRQ
 733              	.L34:
 734              		.loc 1 331 1
 735 00a4 00BF     		nop
 736 00a6 0837     		adds	r7, r7, #8
 737              	.LCFI16:
 738              		.cfi_def_cfa_offset 8
 739 00a8 BD46     		mov	sp, r7
 740              	.LCFI17:
 741              		.cfi_def_cfa_register 13
 742              		@ sp needed
 743 00aa 80BD     		pop	{r7, pc}
 744              	.L36:
 745              		.align	2
 746              	.L35:
 747 00ac 00800040 		.word	1073774592
 748 00b0 00100240 		.word	1073876992
 749 00b4 00080048 		.word	1207961600
 750 00b8 00380140 		.word	1073821696
 751 00bc 00440040 		.word	1073759232
 752 00c0 00480040 		.word	1073760256
 753              		.cfi_endproc
 754              	.LFE292:
 756              		.text
 757              	.Letext0:
 758              		.file 2 "c:\\users\\administrator\\.huawei-liteos-studio\\tools\\arm-none-eabi\\arm-none-eabi\\inc
 759              		.file 3 "c:\\users\\administrator\\.huawei-liteos-studio\\tools\\arm-none-eabi\\arm-none-eabi\\inc
 760              		.file 4 "c:\\users\\administrator\\.huawei-liteos-studio\\tools\\arm-none-eabi\\arm-none-eabi\\inc
 761              		.file 5 "c:\\users\\administrator\\.huawei-liteos-studio\\tools\\arm-none-eabi\\lib\\gcc\\arm-none
 762              		.file 6 "c:\\users\\administrator\\.huawei-liteos-studio\\tools\\arm-none-eabi\\arm-none-eabi\\inc
 763              		.file 7 "d:/LiteOS_Lab/iot_link/os/liteos/include/los_typedef.h"
 764              		.file 8 "c:\\users\\administrator\\.huawei-liteos-studio\\tools\\arm-none-eabi\\arm-none-eabi\\inc
 765              		.file 9 "d:/LiteOS_Lab/iot_link/os/liteos/arch/arm/common/cmsis/core_cm4.h"
 766              		.file 10 "d:/LiteOS_Lab/targets/STM32L431VCT6_Bossay/Inc/system_stm32l4xx.h"
 767              		.file 11 "d:/LiteOS_Lab/targets/STM32L431VCT6_Bossay/Inc/stm32l431xx.h"
 768              		.file 12 "d:/LiteOS_Lab/iot_link/os/liteos/include/los_config.h"
 769              		.file 13 "d:/LiteOS_Lab/iot_link/os/liteos/include/los_err.h"
ARM GAS  C:\Users\ADMINI~1\AppData\Local\Temp\cccesRVj.s 			page 21


 770              		.file 14 "d:/LiteOS_Lab/iot_link/os/liteos/arch/arm/arm-m/include/los_hwi.h"
 771              		.file 15 "d:/LiteOS_Lab/drivers/third_party/ST/STM32L4xx_HAL_Driver/Inc/stm32l4xx_hal_def.h"
 772              		.file 16 "d:/LiteOS_Lab/drivers/third_party/ST/STM32L4xx_HAL_Driver/Inc/stm32l4xx_hal_gpio.h"
 773              		.file 17 "d:/LiteOS_Lab/drivers/third_party/ST/STM32L4xx_HAL_Driver/Inc/stm32l4xx_hal_dma.h"
 774              		.file 18 "d:/LiteOS_Lab/drivers/third_party/ST/STM32L4xx_HAL_Driver/Inc/stm32l4xx_hal_uart.h"
 775              		.file 19 "d:/LiteOS_Lab/targets/STM32L431VCT6_Bossay/Inc/usart.h"
ARM GAS  C:\Users\ADMINI~1\AppData\Local\Temp\cccesRVj.s 			page 22

