ARM GAS  /tmp/ccjyDFlJ.s 			page 1


   1              		.cpu cortex-m4
   2              		.eabi_attribute 27, 1
   3              		.eabi_attribute 28, 1
   4              		.eabi_attribute 20, 1
   5              		.eabi_attribute 21, 1
   6              		.eabi_attribute 23, 3
   7              		.eabi_attribute 24, 1
   8              		.eabi_attribute 25, 1
   9              		.eabi_attribute 26, 1
  10              		.eabi_attribute 30, 6
  11              		.eabi_attribute 34, 1
  12              		.eabi_attribute 18, 4
  13              		.file	"los_swtmr.c"
  14              		.text
  15              	.Ltext0:
  16              		.cfi_sections	.debug_frame
  17              		.comm	m_uwSwTmrHandlerQueue,4,4
  18              		.comm	m_pstSwtmrCBArray,4,4
  19              		.comm	m_pstSwtmrFreeList,4,4
  20              		.comm	m_pstSwtmrSortList,4,4
  21              		.global	m_uwSwTmrAlignID
  22              		.section	.bss.m_uwSwTmrAlignID,"aw",%nobits
  23              		.align	2
  26              	m_uwSwTmrAlignID:
  27 0000 00000000 		.space	64
  27      00000000 
  27      00000000 
  27      00000000 
  27      00000000 
  28              		.section	.bss.m_uwSwtimerRousesTime,"aw",%nobits
  29              		.align	2
  32              	m_uwSwtimerRousesTime:
  33 0000 00000000 		.space	4
  34              		.section	.bss.m_pstRouses,"aw",%nobits
  35              		.align	2
  38              	m_pstRouses:
  39 0000 00000000 		.space	4
  40              		.section	.bss.m_pstRousesPrev,"aw",%nobits
  41              		.align	2
  44              	m_pstRousesPrev:
  45 0000 00000000 		.space	4
  46              		.section	.text.osSwTmrTask,"ax",%progbits
  47              		.align	1
  48              		.global	osSwTmrTask
  49              		.arch armv7e-m
  50              		.syntax unified
  51              		.thumb
  52              		.thumb_func
  53              		.fpu fpv4-sp-d16
  55              	osSwTmrTask:
  56              	.LFB133:
  57              		.file 1 "/home/fanxinhao/Work/LiteOS_Lab_2/iot_link/os/liteos/base/core/los_swtmr.c"
   1:/home/fanxinhao/Work/LiteOS_Lab_2/iot_link/os/liteos/base/core/los_swtmr.c **** /*----------------------------------------------------------------------------
   2:/home/fanxinhao/Work/LiteOS_Lab_2/iot_link/os/liteos/base/core/los_swtmr.c ****  * Copyright (c) <2013-2015>, <Huawei Technologies Co., Ltd>
   3:/home/fanxinhao/Work/LiteOS_Lab_2/iot_link/os/liteos/base/core/los_swtmr.c ****  * All rights reserved.
   4:/home/fanxinhao/Work/LiteOS_Lab_2/iot_link/os/liteos/base/core/los_swtmr.c ****  * Redistribution and use in source and binary forms, with or without modification,
   5:/home/fanxinhao/Work/LiteOS_Lab_2/iot_link/os/liteos/base/core/los_swtmr.c ****  * are permitted provided that the following conditions are met:
ARM GAS  /tmp/ccjyDFlJ.s 			page 2


   6:/home/fanxinhao/Work/LiteOS_Lab_2/iot_link/os/liteos/base/core/los_swtmr.c ****  * 1. Redistributions of source code must retain the above copyright notice, this list of
   7:/home/fanxinhao/Work/LiteOS_Lab_2/iot_link/os/liteos/base/core/los_swtmr.c ****  * conditions and the following disclaimer.
   8:/home/fanxinhao/Work/LiteOS_Lab_2/iot_link/os/liteos/base/core/los_swtmr.c ****  * 2. Redistributions in binary form must reproduce the above copyright notice, this list
   9:/home/fanxinhao/Work/LiteOS_Lab_2/iot_link/os/liteos/base/core/los_swtmr.c ****  * of conditions and the following disclaimer in the documentation and/or other materials
  10:/home/fanxinhao/Work/LiteOS_Lab_2/iot_link/os/liteos/base/core/los_swtmr.c ****  * provided with the distribution.
  11:/home/fanxinhao/Work/LiteOS_Lab_2/iot_link/os/liteos/base/core/los_swtmr.c ****  * 3. Neither the name of the copyright holder nor the names of its contributors may be used
  12:/home/fanxinhao/Work/LiteOS_Lab_2/iot_link/os/liteos/base/core/los_swtmr.c ****  * to endorse or promote products derived from this software without specific prior written
  13:/home/fanxinhao/Work/LiteOS_Lab_2/iot_link/os/liteos/base/core/los_swtmr.c ****  * permission.
  14:/home/fanxinhao/Work/LiteOS_Lab_2/iot_link/os/liteos/base/core/los_swtmr.c ****  * THIS SOFTWARE IS PROVIDED BY THE COPYRIGHT HOLDERS AND CONTRIBUTORS
  15:/home/fanxinhao/Work/LiteOS_Lab_2/iot_link/os/liteos/base/core/los_swtmr.c ****  * "AS IS" AND ANY EXPRESS OR IMPLIED WARRANTIES, INCLUDING, BUT NOT LIMITED TO,
  16:/home/fanxinhao/Work/LiteOS_Lab_2/iot_link/os/liteos/base/core/los_swtmr.c ****  * THE IMPLIED WARRANTIES OF MERCHANTABILITY AND FITNESS FOR A PARTICULAR
  17:/home/fanxinhao/Work/LiteOS_Lab_2/iot_link/os/liteos/base/core/los_swtmr.c ****  * PURPOSE ARE DISCLAIMED. IN NO EVENT SHALL THE COPYRIGHT HOLDER OR
  18:/home/fanxinhao/Work/LiteOS_Lab_2/iot_link/os/liteos/base/core/los_swtmr.c ****  * CONTRIBUTORS BE LIABLE FOR ANY DIRECT, INDIRECT, INCIDENTAL, SPECIAL,
  19:/home/fanxinhao/Work/LiteOS_Lab_2/iot_link/os/liteos/base/core/los_swtmr.c ****  * EXEMPLARY, OR CONSEQUENTIAL DAMAGES (INCLUDING, BUT NOT LIMITED TO,
  20:/home/fanxinhao/Work/LiteOS_Lab_2/iot_link/os/liteos/base/core/los_swtmr.c ****  * PROCUREMENT OF SUBSTITUTE GOODS OR SERVICES; LOSS OF USE, DATA, OR PROFITS;
  21:/home/fanxinhao/Work/LiteOS_Lab_2/iot_link/os/liteos/base/core/los_swtmr.c ****  * OR BUSINESS INTERRUPTION) HOWEVER CAUSED AND ON ANY THEORY OF LIABILITY,
  22:/home/fanxinhao/Work/LiteOS_Lab_2/iot_link/os/liteos/base/core/los_swtmr.c ****  * WHETHER IN CONTRACT, STRICT LIABILITY, OR TORT (INCLUDING NEGLIGENCE OR
  23:/home/fanxinhao/Work/LiteOS_Lab_2/iot_link/os/liteos/base/core/los_swtmr.c ****  * OTHERWISE) ARISING IN ANY WAY OUT OF THE USE OF THIS SOFTWARE, EVEN IF
  24:/home/fanxinhao/Work/LiteOS_Lab_2/iot_link/os/liteos/base/core/los_swtmr.c ****  * ADVISED OF THE POSSIBILITY OF SUCH DAMAGE.
  25:/home/fanxinhao/Work/LiteOS_Lab_2/iot_link/os/liteos/base/core/los_swtmr.c ****  *---------------------------------------------------------------------------*/
  26:/home/fanxinhao/Work/LiteOS_Lab_2/iot_link/os/liteos/base/core/los_swtmr.c **** /*----------------------------------------------------------------------------
  27:/home/fanxinhao/Work/LiteOS_Lab_2/iot_link/os/liteos/base/core/los_swtmr.c ****  * Notice of Export Control Law
  28:/home/fanxinhao/Work/LiteOS_Lab_2/iot_link/os/liteos/base/core/los_swtmr.c ****  * ===============================================
  29:/home/fanxinhao/Work/LiteOS_Lab_2/iot_link/os/liteos/base/core/los_swtmr.c ****  * Huawei LiteOS may be subject to applicable export control laws and regulations, which might
  30:/home/fanxinhao/Work/LiteOS_Lab_2/iot_link/os/liteos/base/core/los_swtmr.c ****  * include those applicable to Huawei LiteOS of U.S. and the country in which you are located.
  31:/home/fanxinhao/Work/LiteOS_Lab_2/iot_link/os/liteos/base/core/los_swtmr.c ****  * Import, export and usage of Huawei LiteOS in any manner by you shall be in compliance with such
  32:/home/fanxinhao/Work/LiteOS_Lab_2/iot_link/os/liteos/base/core/los_swtmr.c ****  * applicable export control laws and regulations.
  33:/home/fanxinhao/Work/LiteOS_Lab_2/iot_link/os/liteos/base/core/los_swtmr.c ****  *---------------------------------------------------------------------------*/
  34:/home/fanxinhao/Work/LiteOS_Lab_2/iot_link/os/liteos/base/core/los_swtmr.c **** #include "string.h"
  35:/home/fanxinhao/Work/LiteOS_Lab_2/iot_link/os/liteos/base/core/los_swtmr.c **** #include "los_swtmr.inc"
  36:/home/fanxinhao/Work/LiteOS_Lab_2/iot_link/os/liteos/base/core/los_swtmr.c **** #include "los_base.ph"
  37:/home/fanxinhao/Work/LiteOS_Lab_2/iot_link/os/liteos/base/core/los_swtmr.c **** #include "los_membox.ph"
  38:/home/fanxinhao/Work/LiteOS_Lab_2/iot_link/os/liteos/base/core/los_swtmr.c **** #include "los_memory.ph"
  39:/home/fanxinhao/Work/LiteOS_Lab_2/iot_link/os/liteos/base/core/los_swtmr.c **** #include "los_queue.ph"
  40:/home/fanxinhao/Work/LiteOS_Lab_2/iot_link/os/liteos/base/core/los_swtmr.c **** #include "los_task.ph"
  41:/home/fanxinhao/Work/LiteOS_Lab_2/iot_link/os/liteos/base/core/los_swtmr.c **** #include "los_hwi.h"
  42:/home/fanxinhao/Work/LiteOS_Lab_2/iot_link/os/liteos/base/core/los_swtmr.c **** #if (LOSCFG_PLATFORM_EXC == YES)
  43:/home/fanxinhao/Work/LiteOS_Lab_2/iot_link/os/liteos/base/core/los_swtmr.c **** #include "los_exc.h"
  44:/home/fanxinhao/Work/LiteOS_Lab_2/iot_link/os/liteos/base/core/los_swtmr.c **** #endif
  45:/home/fanxinhao/Work/LiteOS_Lab_2/iot_link/os/liteos/base/core/los_swtmr.c **** #if (LOSCFG_STATIC_TASK == YES)
  46:/home/fanxinhao/Work/LiteOS_Lab_2/iot_link/os/liteos/base/core/los_swtmr.c **** #include "los_hw.h"
  47:/home/fanxinhao/Work/LiteOS_Lab_2/iot_link/os/liteos/base/core/los_swtmr.c **** #endif
  48:/home/fanxinhao/Work/LiteOS_Lab_2/iot_link/os/liteos/base/core/los_swtmr.c **** 
  49:/home/fanxinhao/Work/LiteOS_Lab_2/iot_link/os/liteos/base/core/los_swtmr.c **** #ifdef __cplusplus
  50:/home/fanxinhao/Work/LiteOS_Lab_2/iot_link/os/liteos/base/core/los_swtmr.c **** #if __cplusplus
  51:/home/fanxinhao/Work/LiteOS_Lab_2/iot_link/os/liteos/base/core/los_swtmr.c **** extern "C" {
  52:/home/fanxinhao/Work/LiteOS_Lab_2/iot_link/os/liteos/base/core/los_swtmr.c **** #endif /* __cplusplus */
  53:/home/fanxinhao/Work/LiteOS_Lab_2/iot_link/os/liteos/base/core/los_swtmr.c **** #endif /* __cplusplus */
  54:/home/fanxinhao/Work/LiteOS_Lab_2/iot_link/os/liteos/base/core/los_swtmr.c **** 
  55:/home/fanxinhao/Work/LiteOS_Lab_2/iot_link/os/liteos/base/core/los_swtmr.c **** #if (LOSCFG_BASE_CORE_SWTMR == YES)
  56:/home/fanxinhao/Work/LiteOS_Lab_2/iot_link/os/liteos/base/core/los_swtmr.c **** 
  57:/home/fanxinhao/Work/LiteOS_Lab_2/iot_link/os/liteos/base/core/los_swtmr.c **** LITE_OS_SEC_BSS UINT32            m_uwSwTmrHandlerQueue;       /*Software Timer timeout queue ID*/
  58:/home/fanxinhao/Work/LiteOS_Lab_2/iot_link/os/liteos/base/core/los_swtmr.c **** LITE_OS_SEC_BSS SWTMR_CTRL_S     *m_pstSwtmrCBArray;           /*first address in Timer memory spac
  59:/home/fanxinhao/Work/LiteOS_Lab_2/iot_link/os/liteos/base/core/los_swtmr.c **** LITE_OS_SEC_BSS SWTMR_CTRL_S     *m_pstSwtmrFreeList;          /*Free list of Softwaer Timer*/
  60:/home/fanxinhao/Work/LiteOS_Lab_2/iot_link/os/liteos/base/core/los_swtmr.c **** LITE_OS_SEC_BSS SWTMR_CTRL_S     *m_pstSwtmrSortList;          /*The software timer count list*/
  61:/home/fanxinhao/Work/LiteOS_Lab_2/iot_link/os/liteos/base/core/los_swtmr.c **** 
  62:/home/fanxinhao/Work/LiteOS_Lab_2/iot_link/os/liteos/base/core/los_swtmr.c **** #if (LOSCFG_BASE_CORE_SWTMR_ALIGN == YES)
ARM GAS  /tmp/ccjyDFlJ.s 			page 3


  63:/home/fanxinhao/Work/LiteOS_Lab_2/iot_link/os/liteos/base/core/los_swtmr.c **** LITE_OS_SEC_BSS UINT32            m_uwSwTmrAlignID[LOSCFG_BASE_CORE_SWTMR_LIMIT] = {0};    /* store
  64:/home/fanxinhao/Work/LiteOS_Lab_2/iot_link/os/liteos/base/core/los_swtmr.c **** LITE_OS_SEC_DATA_INIT static UINT32                     m_uwSwtimerRousesTime = 0;          // susp
  65:/home/fanxinhao/Work/LiteOS_Lab_2/iot_link/os/liteos/base/core/los_swtmr.c **** LITE_OS_SEC_DATA_INIT static SWTMR_CTRL_S               *m_pstRouses = NULL;              // first 
  66:/home/fanxinhao/Work/LiteOS_Lab_2/iot_link/os/liteos/base/core/los_swtmr.c **** LITE_OS_SEC_DATA_INIT static SWTMR_CTRL_S               *m_pstRousesPrev = NULL;
  67:/home/fanxinhao/Work/LiteOS_Lab_2/iot_link/os/liteos/base/core/los_swtmr.c **** #endif
  68:/home/fanxinhao/Work/LiteOS_Lab_2/iot_link/os/liteos/base/core/los_swtmr.c **** 
  69:/home/fanxinhao/Work/LiteOS_Lab_2/iot_link/os/liteos/base/core/los_swtmr.c **** #define CHECK_SWTMRID(usSwTmrID, uvIntSave, usSwTmrCBID, pstSwtmr)\
  70:/home/fanxinhao/Work/LiteOS_Lab_2/iot_link/os/liteos/base/core/los_swtmr.c **** {\
  71:/home/fanxinhao/Work/LiteOS_Lab_2/iot_link/os/liteos/base/core/los_swtmr.c ****     if (usSwTmrID >= OS_SWTMR_MAX_TIMERID)\
  72:/home/fanxinhao/Work/LiteOS_Lab_2/iot_link/os/liteos/base/core/los_swtmr.c ****    {\
  73:/home/fanxinhao/Work/LiteOS_Lab_2/iot_link/os/liteos/base/core/los_swtmr.c ****        return LOS_ERRNO_SWTMR_ID_INVALID;\
  74:/home/fanxinhao/Work/LiteOS_Lab_2/iot_link/os/liteos/base/core/los_swtmr.c ****    }\
  75:/home/fanxinhao/Work/LiteOS_Lab_2/iot_link/os/liteos/base/core/los_swtmr.c ****    uvIntSave = LOS_IntLock();\
  76:/home/fanxinhao/Work/LiteOS_Lab_2/iot_link/os/liteos/base/core/los_swtmr.c ****    usSwTmrCBID = usSwTmrID % LOSCFG_BASE_CORE_SWTMR_LIMIT;\
  77:/home/fanxinhao/Work/LiteOS_Lab_2/iot_link/os/liteos/base/core/los_swtmr.c ****    pstSwtmr = m_pstSwtmrCBArray + usSwTmrCBID;\
  78:/home/fanxinhao/Work/LiteOS_Lab_2/iot_link/os/liteos/base/core/los_swtmr.c ****    if (pstSwtmr->usTimerID != usSwTmrID)\
  79:/home/fanxinhao/Work/LiteOS_Lab_2/iot_link/os/liteos/base/core/los_swtmr.c ****    {\
  80:/home/fanxinhao/Work/LiteOS_Lab_2/iot_link/os/liteos/base/core/los_swtmr.c ****        LOS_IntRestore(uvIntSave);\
  81:/home/fanxinhao/Work/LiteOS_Lab_2/iot_link/os/liteos/base/core/los_swtmr.c ****        return LOS_ERRNO_SWTMR_ID_INVALID;\
  82:/home/fanxinhao/Work/LiteOS_Lab_2/iot_link/os/liteos/base/core/los_swtmr.c ****    }\
  83:/home/fanxinhao/Work/LiteOS_Lab_2/iot_link/os/liteos/base/core/los_swtmr.c **** }
  84:/home/fanxinhao/Work/LiteOS_Lab_2/iot_link/os/liteos/base/core/los_swtmr.c **** 
  85:/home/fanxinhao/Work/LiteOS_Lab_2/iot_link/os/liteos/base/core/los_swtmr.c **** 
  86:/home/fanxinhao/Work/LiteOS_Lab_2/iot_link/os/liteos/base/core/los_swtmr.c **** 
  87:/home/fanxinhao/Work/LiteOS_Lab_2/iot_link/os/liteos/base/core/los_swtmr.c **** /*****************************************************************************
  88:/home/fanxinhao/Work/LiteOS_Lab_2/iot_link/os/liteos/base/core/los_swtmr.c **** Function   : osSwTmrTask
  89:/home/fanxinhao/Work/LiteOS_Lab_2/iot_link/os/liteos/base/core/los_swtmr.c **** Description: Swtmr task main loop, handle time-out timer.
  90:/home/fanxinhao/Work/LiteOS_Lab_2/iot_link/os/liteos/base/core/los_swtmr.c **** Input      : None
  91:/home/fanxinhao/Work/LiteOS_Lab_2/iot_link/os/liteos/base/core/los_swtmr.c **** Output     : None
  92:/home/fanxinhao/Work/LiteOS_Lab_2/iot_link/os/liteos/base/core/los_swtmr.c **** Return     : None
  93:/home/fanxinhao/Work/LiteOS_Lab_2/iot_link/os/liteos/base/core/los_swtmr.c **** *****************************************************************************/
  94:/home/fanxinhao/Work/LiteOS_Lab_2/iot_link/os/liteos/base/core/los_swtmr.c **** LITE_OS_SEC_TEXT VOID osSwTmrTask(VOID)
  95:/home/fanxinhao/Work/LiteOS_Lab_2/iot_link/os/liteos/base/core/los_swtmr.c **** {
  58              		.loc 1 95 1
  59              		.cfi_startproc
  60              		@ args = 0, pretend = 0, frame = 32
  61              		@ frame_needed = 1, uses_anonymous_args = 0
  62 0000 B0B5     		push	{r4, r5, r7, lr}
  63              	.LCFI0:
  64              		.cfi_def_cfa_offset 16
  65              		.cfi_offset 4, -16
  66              		.cfi_offset 5, -12
  67              		.cfi_offset 7, -8
  68              		.cfi_offset 14, -4
  69 0002 88B0     		sub	sp, sp, #32
  70              	.LCFI1:
  71              		.cfi_def_cfa_offset 48
  72 0004 00AF     		add	r7, sp, #0
  73              	.LCFI2:
  74              		.cfi_def_cfa_register 7
  96:/home/fanxinhao/Work/LiteOS_Lab_2/iot_link/os/liteos/base/core/los_swtmr.c ****     SWTMR_HANDLER_ITEM_S stSwtmrHandle;
  97:/home/fanxinhao/Work/LiteOS_Lab_2/iot_link/os/liteos/base/core/los_swtmr.c ****     UINT32 uwReadSzie;
  98:/home/fanxinhao/Work/LiteOS_Lab_2/iot_link/os/liteos/base/core/los_swtmr.c ****     UINT32 uwRet;
  99:/home/fanxinhao/Work/LiteOS_Lab_2/iot_link/os/liteos/base/core/los_swtmr.c ****     UINT64 ullTick;
 100:/home/fanxinhao/Work/LiteOS_Lab_2/iot_link/os/liteos/base/core/los_swtmr.c ****     uwReadSzie = sizeof(SWTMR_HANDLER_ITEM_S);
  75              		.loc 1 100 16
  76 0006 0823     		movs	r3, #8
ARM GAS  /tmp/ccjyDFlJ.s 			page 4


  77 0008 7B60     		str	r3, [r7, #4]
  78              	.L3:
 101:/home/fanxinhao/Work/LiteOS_Lab_2/iot_link/os/liteos/base/core/los_swtmr.c ****     for ( ; ; )
 102:/home/fanxinhao/Work/LiteOS_Lab_2/iot_link/os/liteos/base/core/los_swtmr.c ****     {
 103:/home/fanxinhao/Work/LiteOS_Lab_2/iot_link/os/liteos/base/core/los_swtmr.c ****         uwRet = LOS_QueueReadCopy(m_uwSwTmrHandlerQueue, &stSwtmrHandle, &uwReadSzie, LOS_WAIT_FORE
  79              		.loc 1 103 17
  80 000a 124B     		ldr	r3, .L4
  81 000c 1868     		ldr	r0, [r3]
  82 000e 3A1D     		adds	r2, r7, #4
  83 0010 07F10801 		add	r1, r7, #8
  84 0014 4FF0FF33 		mov	r3, #-1
  85 0018 FFF7FEFF 		bl	LOS_QueueReadCopy
  86 001c F861     		str	r0, [r7, #28]
 104:/home/fanxinhao/Work/LiteOS_Lab_2/iot_link/os/liteos/base/core/los_swtmr.c ****         if (uwRet == LOS_OK && uwReadSzie == sizeof(SWTMR_HANDLER_ITEM_S))
  87              		.loc 1 104 12
  88 001e FB69     		ldr	r3, [r7, #28]
  89 0020 002B     		cmp	r3, #0
  90 0022 F2D1     		bne	.L3
  91              		.loc 1 104 43 discriminator 1
  92 0024 7B68     		ldr	r3, [r7, #4]
  93              		.loc 1 104 29 discriminator 1
  94 0026 082B     		cmp	r3, #8
  95 0028 EFD1     		bne	.L3
 105:/home/fanxinhao/Work/LiteOS_Lab_2/iot_link/os/liteos/base/core/los_swtmr.c ****         {
 106:/home/fanxinhao/Work/LiteOS_Lab_2/iot_link/os/liteos/base/core/los_swtmr.c ****             if (stSwtmrHandle.pfnHandler != NULL)
  96              		.loc 1 106 30
  97 002a BB68     		ldr	r3, [r7, #8]
  98              		.loc 1 106 16
  99 002c 002B     		cmp	r3, #0
 100 002e ECD0     		beq	.L3
 107:/home/fanxinhao/Work/LiteOS_Lab_2/iot_link/os/liteos/base/core/los_swtmr.c ****             {
 108:/home/fanxinhao/Work/LiteOS_Lab_2/iot_link/os/liteos/base/core/los_swtmr.c ****                 ullTick = LOS_TickCountGet();
 101              		.loc 1 108 27
 102 0030 FFF7FEFF 		bl	LOS_TickCountGet
 103 0034 C7E90401 		strd	r0, [r7, #16]
 109:/home/fanxinhao/Work/LiteOS_Lab_2/iot_link/os/liteos/base/core/los_swtmr.c ****                 stSwtmrHandle.pfnHandler(stSwtmrHandle.uwArg);
 104              		.loc 1 109 30
 105 0038 BB68     		ldr	r3, [r7, #8]
 106              		.loc 1 109 17
 107 003a FA68     		ldr	r2, [r7, #12]
 108 003c 1046     		mov	r0, r2
 109 003e 9847     		blx	r3
 110              	.LVL0:
 110:/home/fanxinhao/Work/LiteOS_Lab_2/iot_link/os/liteos/base/core/los_swtmr.c ****                 ullTick = LOS_TickCountGet()- ullTick;
 111              		.loc 1 110 27
 112 0040 FFF7FEFF 		bl	LOS_TickCountGet
 113              		.loc 1 110 25
 114 0044 D7E90423 		ldrd	r2, [r7, #16]
 115 0048 841A     		subs	r4, r0, r2
 116 004a 61EB0305 		sbc	r5, r1, r3
 117 004e C7E90445 		strd	r4, [r7, #16]
 103:/home/fanxinhao/Work/LiteOS_Lab_2/iot_link/os/liteos/base/core/los_swtmr.c ****         if (uwRet == LOS_OK && uwReadSzie == sizeof(SWTMR_HANDLER_ITEM_S))
 118              		.loc 1 103 15
 119 0052 DAE7     		b	.L3
 120              	.L5:
 121              		.align	2
 122              	.L4:
ARM GAS  /tmp/ccjyDFlJ.s 			page 5


 123 0054 00000000 		.word	m_uwSwTmrHandlerQueue
 124              		.cfi_endproc
 125              	.LFE133:
 127              		.section	.rodata
 128              		.align	2
 129              	.LC0:
 130 0000 5377745F 		.ascii	"Swt_Task\000"
 130      5461736B 
 130      00
 131              		.section	.text.osSwTmrTaskCreate,"ax",%progbits
 132              		.align	1
 133              		.global	osSwTmrTaskCreate
 134              		.syntax unified
 135              		.thumb
 136              		.thumb_func
 137              		.fpu fpv4-sp-d16
 139              	osSwTmrTaskCreate:
 140              	.LFB134:
 111:/home/fanxinhao/Work/LiteOS_Lab_2/iot_link/os/liteos/base/core/los_swtmr.c **** 
 112:/home/fanxinhao/Work/LiteOS_Lab_2/iot_link/os/liteos/base/core/los_swtmr.c ****                 if (ullTick >= 2)
 113:/home/fanxinhao/Work/LiteOS_Lab_2/iot_link/os/liteos/base/core/los_swtmr.c ****                 {
 114:/home/fanxinhao/Work/LiteOS_Lab_2/iot_link/os/liteos/base/core/los_swtmr.c ****                     PRINT_WARN("timer_handler(%p) cost too many ms(%d)\n", stSwtmrHandle.pfnHandler
 115:/home/fanxinhao/Work/LiteOS_Lab_2/iot_link/os/liteos/base/core/los_swtmr.c ****                 }
 116:/home/fanxinhao/Work/LiteOS_Lab_2/iot_link/os/liteos/base/core/los_swtmr.c **** 
 117:/home/fanxinhao/Work/LiteOS_Lab_2/iot_link/os/liteos/base/core/los_swtmr.c ****             }
 118:/home/fanxinhao/Work/LiteOS_Lab_2/iot_link/os/liteos/base/core/los_swtmr.c ****         }
 119:/home/fanxinhao/Work/LiteOS_Lab_2/iot_link/os/liteos/base/core/los_swtmr.c ****     }//end of for
 120:/home/fanxinhao/Work/LiteOS_Lab_2/iot_link/os/liteos/base/core/los_swtmr.c **** }
 121:/home/fanxinhao/Work/LiteOS_Lab_2/iot_link/os/liteos/base/core/los_swtmr.c **** 
 122:/home/fanxinhao/Work/LiteOS_Lab_2/iot_link/os/liteos/base/core/los_swtmr.c **** #if (LOSCFG_STATIC_TASK == YES)
 123:/home/fanxinhao/Work/LiteOS_Lab_2/iot_link/os/liteos/base/core/los_swtmr.c **** LOS_TASK_DEF (Swt_Task, "Swt_Task", osSwTmrTask, 0, 0,
 124:/home/fanxinhao/Work/LiteOS_Lab_2/iot_link/os/liteos/base/core/los_swtmr.c ****     LOSCFG_BASE_CORE_TSK_SWTMR_STACK_SIZE, 0, NULL);
 125:/home/fanxinhao/Work/LiteOS_Lab_2/iot_link/os/liteos/base/core/los_swtmr.c **** #endif
 126:/home/fanxinhao/Work/LiteOS_Lab_2/iot_link/os/liteos/base/core/los_swtmr.c **** 
 127:/home/fanxinhao/Work/LiteOS_Lab_2/iot_link/os/liteos/base/core/los_swtmr.c **** /*****************************************************************************
 128:/home/fanxinhao/Work/LiteOS_Lab_2/iot_link/os/liteos/base/core/los_swtmr.c **** Function   : osSwTmrTaskCreate
 129:/home/fanxinhao/Work/LiteOS_Lab_2/iot_link/os/liteos/base/core/los_swtmr.c **** Description: Create Software Timer
 130:/home/fanxinhao/Work/LiteOS_Lab_2/iot_link/os/liteos/base/core/los_swtmr.c **** Input      : None
 131:/home/fanxinhao/Work/LiteOS_Lab_2/iot_link/os/liteos/base/core/los_swtmr.c **** Output     : None
 132:/home/fanxinhao/Work/LiteOS_Lab_2/iot_link/os/liteos/base/core/los_swtmr.c **** Return     : LOS_OK on success or error code on failure
 133:/home/fanxinhao/Work/LiteOS_Lab_2/iot_link/os/liteos/base/core/los_swtmr.c **** *****************************************************************************/
 134:/home/fanxinhao/Work/LiteOS_Lab_2/iot_link/os/liteos/base/core/los_swtmr.c **** LITE_OS_SEC_TEXT_INIT UINT32 osSwTmrTaskCreate(VOID)
 135:/home/fanxinhao/Work/LiteOS_Lab_2/iot_link/os/liteos/base/core/los_swtmr.c **** {
 141              		.loc 1 135 1
 142              		.cfi_startproc
 143              		@ args = 0, pretend = 0, frame = 32
 144              		@ frame_needed = 1, uses_anonymous_args = 0
 145 0000 80B5     		push	{r7, lr}
 146              	.LCFI3:
 147              		.cfi_def_cfa_offset 8
 148              		.cfi_offset 7, -8
 149              		.cfi_offset 14, -4
 150 0002 88B0     		sub	sp, sp, #32
 151              	.LCFI4:
 152              		.cfi_def_cfa_offset 40
 153 0004 00AF     		add	r7, sp, #0
 154              	.LCFI5:
ARM GAS  /tmp/ccjyDFlJ.s 			page 6


 155              		.cfi_def_cfa_register 7
 136:/home/fanxinhao/Work/LiteOS_Lab_2/iot_link/os/liteos/base/core/los_swtmr.c **** #if (LOSCFG_STATIC_TASK == NO)
 137:/home/fanxinhao/Work/LiteOS_Lab_2/iot_link/os/liteos/base/core/los_swtmr.c ****     UINT32 uwRet;
 138:/home/fanxinhao/Work/LiteOS_Lab_2/iot_link/os/liteos/base/core/los_swtmr.c ****     TSK_INIT_PARAM_S stSwTmrTask;
 139:/home/fanxinhao/Work/LiteOS_Lab_2/iot_link/os/liteos/base/core/los_swtmr.c **** 
 140:/home/fanxinhao/Work/LiteOS_Lab_2/iot_link/os/liteos/base/core/los_swtmr.c ****     (VOID)memset(&stSwTmrTask, 0, sizeof(TSK_INIT_PARAM_S));
 156              		.loc 1 140 11
 157 0006 3B1D     		adds	r3, r7, #4
 158 0008 1822     		movs	r2, #24
 159 000a 0021     		movs	r1, #0
 160 000c 1846     		mov	r0, r3
 161 000e FFF7FEFF 		bl	memset
 141:/home/fanxinhao/Work/LiteOS_Lab_2/iot_link/os/liteos/base/core/los_swtmr.c ****     stSwTmrTask.pfnTaskEntry    = (TSK_ENTRY_FUNC)osSwTmrTask;
 162              		.loc 1 141 33
 163 0012 0A4B     		ldr	r3, .L8
 164 0014 7B60     		str	r3, [r7, #4]
 142:/home/fanxinhao/Work/LiteOS_Lab_2/iot_link/os/liteos/base/core/los_swtmr.c ****     stSwTmrTask.uwStackSize     = LOSCFG_BASE_CORE_TSK_SWTMR_STACK_SIZE;
 165              		.loc 1 142 33
 166 0016 4FF43473 		mov	r3, #720
 167 001a 3B61     		str	r3, [r7, #16]
 143:/home/fanxinhao/Work/LiteOS_Lab_2/iot_link/os/liteos/base/core/los_swtmr.c ****     stSwTmrTask.pcName          = "Swt_Task";
 168              		.loc 1 143 33
 169 001c 084B     		ldr	r3, .L8+4
 170 001e 7B61     		str	r3, [r7, #20]
 144:/home/fanxinhao/Work/LiteOS_Lab_2/iot_link/os/liteos/base/core/los_swtmr.c ****     stSwTmrTask.usTaskPrio      = 0;
 171              		.loc 1 144 33
 172 0020 0023     		movs	r3, #0
 173 0022 3B81     		strh	r3, [r7, #8]	@ movhi
 145:/home/fanxinhao/Work/LiteOS_Lab_2/iot_link/os/liteos/base/core/los_swtmr.c ****     uwRet = LOS_TaskCreate(&g_uwSwtmrTaskID, &stSwTmrTask);
 174              		.loc 1 145 13
 175 0024 3B1D     		adds	r3, r7, #4
 176 0026 1946     		mov	r1, r3
 177 0028 0648     		ldr	r0, .L8+8
 178 002a FFF7FEFF 		bl	LOS_TaskCreate
 179 002e F861     		str	r0, [r7, #28]
 146:/home/fanxinhao/Work/LiteOS_Lab_2/iot_link/os/liteos/base/core/los_swtmr.c ****     return uwRet;
 180              		.loc 1 146 12
 181 0030 FB69     		ldr	r3, [r7, #28]
 147:/home/fanxinhao/Work/LiteOS_Lab_2/iot_link/os/liteos/base/core/los_swtmr.c **** #else
 148:/home/fanxinhao/Work/LiteOS_Lab_2/iot_link/os/liteos/base/core/los_swtmr.c ****     return LOS_TASK_INIT(Swt_Task, &g_uwIdleTaskID);
 149:/home/fanxinhao/Work/LiteOS_Lab_2/iot_link/os/liteos/base/core/los_swtmr.c **** #endif
 150:/home/fanxinhao/Work/LiteOS_Lab_2/iot_link/os/liteos/base/core/los_swtmr.c **** }
 182              		.loc 1 150 1
 183 0032 1846     		mov	r0, r3
 184 0034 2037     		adds	r7, r7, #32
 185              	.LCFI6:
 186              		.cfi_def_cfa_offset 8
 187 0036 BD46     		mov	sp, r7
 188              	.LCFI7:
 189              		.cfi_def_cfa_register 13
 190              		@ sp needed
 191 0038 80BD     		pop	{r7, pc}
 192              	.L9:
 193 003a 00BF     		.align	2
 194              	.L8:
 195 003c 00000000 		.word	osSwTmrTask
 196 0040 00000000 		.word	.LC0
ARM GAS  /tmp/ccjyDFlJ.s 			page 7


 197 0044 00000000 		.word	g_uwSwtmrTaskID
 198              		.cfi_endproc
 199              	.LFE134:
 201              		.section	.text.osSwTmrInit,"ax",%progbits
 202              		.align	1
 203              		.global	osSwTmrInit
 204              		.syntax unified
 205              		.thumb
 206              		.thumb_func
 207              		.fpu fpv4-sp-d16
 209              	osSwTmrInit:
 210              	.LFB135:
 151:/home/fanxinhao/Work/LiteOS_Lab_2/iot_link/os/liteos/base/core/los_swtmr.c **** 
 152:/home/fanxinhao/Work/LiteOS_Lab_2/iot_link/os/liteos/base/core/los_swtmr.c **** /*****************************************************************************
 153:/home/fanxinhao/Work/LiteOS_Lab_2/iot_link/os/liteos/base/core/los_swtmr.c **** Function   : osSwTmrInit
 154:/home/fanxinhao/Work/LiteOS_Lab_2/iot_link/os/liteos/base/core/los_swtmr.c **** Description: Initializes Software Timer
 155:/home/fanxinhao/Work/LiteOS_Lab_2/iot_link/os/liteos/base/core/los_swtmr.c **** Input      : None
 156:/home/fanxinhao/Work/LiteOS_Lab_2/iot_link/os/liteos/base/core/los_swtmr.c **** Output     : None
 157:/home/fanxinhao/Work/LiteOS_Lab_2/iot_link/os/liteos/base/core/los_swtmr.c **** Return     : LOS_OK on success or error code on failure
 158:/home/fanxinhao/Work/LiteOS_Lab_2/iot_link/os/liteos/base/core/los_swtmr.c **** *****************************************************************************/
 159:/home/fanxinhao/Work/LiteOS_Lab_2/iot_link/os/liteos/base/core/los_swtmr.c **** LITE_OS_SEC_TEXT_INIT UINT32 osSwTmrInit(VOID)
 160:/home/fanxinhao/Work/LiteOS_Lab_2/iot_link/os/liteos/base/core/los_swtmr.c **** {
 211              		.loc 1 160 1
 212              		.cfi_startproc
 213              		@ args = 0, pretend = 0, frame = 24
 214              		@ frame_needed = 1, uses_anonymous_args = 0
 215 0000 80B5     		push	{r7, lr}
 216              	.LCFI8:
 217              		.cfi_def_cfa_offset 8
 218              		.cfi_offset 7, -8
 219              		.cfi_offset 14, -4
 220 0002 88B0     		sub	sp, sp, #32
 221              	.LCFI9:
 222              		.cfi_def_cfa_offset 40
 223 0004 02AF     		add	r7, sp, #8
 224              	.LCFI10:
 225              		.cfi_def_cfa 7, 32
 161:/home/fanxinhao/Work/LiteOS_Lab_2/iot_link/os/liteos/base/core/los_swtmr.c ****     UINT32 uwSize;
 162:/home/fanxinhao/Work/LiteOS_Lab_2/iot_link/os/liteos/base/core/los_swtmr.c ****     UINT16 usIndex;
 163:/home/fanxinhao/Work/LiteOS_Lab_2/iot_link/os/liteos/base/core/los_swtmr.c ****     UINT32 uwRet;
 164:/home/fanxinhao/Work/LiteOS_Lab_2/iot_link/os/liteos/base/core/los_swtmr.c ****     SWTMR_CTRL_S *pstSwtmr;
 165:/home/fanxinhao/Work/LiteOS_Lab_2/iot_link/os/liteos/base/core/los_swtmr.c ****     SWTMR_CTRL_S *pstTemp;
 166:/home/fanxinhao/Work/LiteOS_Lab_2/iot_link/os/liteos/base/core/los_swtmr.c **** 
 167:/home/fanxinhao/Work/LiteOS_Lab_2/iot_link/os/liteos/base/core/los_swtmr.c ****     if (0 == LOSCFG_BASE_CORE_SWTMR_LIMIT)  /*lint !e506*/
 168:/home/fanxinhao/Work/LiteOS_Lab_2/iot_link/os/liteos/base/core/los_swtmr.c ****     {
 169:/home/fanxinhao/Work/LiteOS_Lab_2/iot_link/os/liteos/base/core/los_swtmr.c ****         return LOS_ERRNO_SWTMR_MAXSIZE_INVALID;
 170:/home/fanxinhao/Work/LiteOS_Lab_2/iot_link/os/liteos/base/core/los_swtmr.c ****     }
 171:/home/fanxinhao/Work/LiteOS_Lab_2/iot_link/os/liteos/base/core/los_swtmr.c **** 
 172:/home/fanxinhao/Work/LiteOS_Lab_2/iot_link/os/liteos/base/core/los_swtmr.c **** #if (LOSCFG_BASE_CORE_SWTMR_ALIGN == YES)
 173:/home/fanxinhao/Work/LiteOS_Lab_2/iot_link/os/liteos/base/core/los_swtmr.c ****     (VOID)memset((VOID *)m_uwSwTmrAlignID, 0, LOSCFG_BASE_CORE_SWTMR_LIMIT * sizeof(UINT32));
 226              		.loc 1 173 11
 227 0006 4022     		movs	r2, #64
 228 0008 0021     		movs	r1, #0
 229 000a 2B48     		ldr	r0, .L17
 230 000c FFF7FEFF 		bl	memset
 174:/home/fanxinhao/Work/LiteOS_Lab_2/iot_link/os/liteos/base/core/los_swtmr.c ****  #endif
 175:/home/fanxinhao/Work/LiteOS_Lab_2/iot_link/os/liteos/base/core/los_swtmr.c **** 
ARM GAS  /tmp/ccjyDFlJ.s 			page 8


 176:/home/fanxinhao/Work/LiteOS_Lab_2/iot_link/os/liteos/base/core/los_swtmr.c ****     m_pstSwtmrSortList = (SWTMR_CTRL_S *)NULL;
 231              		.loc 1 176 24
 232 0010 2A4B     		ldr	r3, .L17+4
 233 0012 0022     		movs	r2, #0
 234 0014 1A60     		str	r2, [r3]
 177:/home/fanxinhao/Work/LiteOS_Lab_2/iot_link/os/liteos/base/core/los_swtmr.c ****     uwSize = sizeof(SWTMR_CTRL_S) * LOSCFG_BASE_CORE_SWTMR_LIMIT;
 235              		.loc 1 177 12
 236 0016 4FF4E073 		mov	r3, #448
 237 001a BB60     		str	r3, [r7, #8]
 178:/home/fanxinhao/Work/LiteOS_Lab_2/iot_link/os/liteos/base/core/los_swtmr.c ****     pstSwtmr = (SWTMR_CTRL_S *)LOS_MemAlloc(m_aucSysMem0, uwSize);
 238              		.loc 1 178 32
 239 001c 284B     		ldr	r3, .L17+8
 240 001e 1B68     		ldr	r3, [r3]
 241 0020 B968     		ldr	r1, [r7, #8]
 242 0022 1846     		mov	r0, r3
 243 0024 FFF7FEFF 		bl	LOS_MemAlloc
 244 0028 3861     		str	r0, [r7, #16]
 179:/home/fanxinhao/Work/LiteOS_Lab_2/iot_link/os/liteos/base/core/los_swtmr.c ****     if (NULL == pstSwtmr)
 245              		.loc 1 179 8
 246 002a 3B69     		ldr	r3, [r7, #16]
 247 002c 002B     		cmp	r3, #0
 248 002e 01D1     		bne	.L11
 180:/home/fanxinhao/Work/LiteOS_Lab_2/iot_link/os/liteos/base/core/los_swtmr.c ****     {
 181:/home/fanxinhao/Work/LiteOS_Lab_2/iot_link/os/liteos/base/core/los_swtmr.c ****         return LOS_ERRNO_SWTMR_NO_MEMORY;
 249              		.loc 1 181 16
 250 0030 244B     		ldr	r3, .L17+12
 251 0032 3DE0     		b	.L12
 252              	.L11:
 182:/home/fanxinhao/Work/LiteOS_Lab_2/iot_link/os/liteos/base/core/los_swtmr.c ****     }
 183:/home/fanxinhao/Work/LiteOS_Lab_2/iot_link/os/liteos/base/core/los_swtmr.c **** 
 184:/home/fanxinhao/Work/LiteOS_Lab_2/iot_link/os/liteos/base/core/los_swtmr.c ****     (VOID)memset((VOID *)pstSwtmr, 0, uwSize);
 253              		.loc 1 184 11
 254 0034 BA68     		ldr	r2, [r7, #8]
 255 0036 0021     		movs	r1, #0
 256 0038 3869     		ldr	r0, [r7, #16]
 257 003a FFF7FEFF 		bl	memset
 185:/home/fanxinhao/Work/LiteOS_Lab_2/iot_link/os/liteos/base/core/los_swtmr.c ****     m_pstSwtmrCBArray = pstSwtmr;
 258              		.loc 1 185 23
 259 003e 224A     		ldr	r2, .L17+16
 260 0040 3B69     		ldr	r3, [r7, #16]
 261 0042 1360     		str	r3, [r2]
 186:/home/fanxinhao/Work/LiteOS_Lab_2/iot_link/os/liteos/base/core/los_swtmr.c ****     m_pstSwtmrFreeList = pstSwtmr;
 262              		.loc 1 186 24
 263 0044 214A     		ldr	r2, .L17+20
 264 0046 3B69     		ldr	r3, [r7, #16]
 265 0048 1360     		str	r3, [r2]
 187:/home/fanxinhao/Work/LiteOS_Lab_2/iot_link/os/liteos/base/core/los_swtmr.c ****     pstSwtmr->usTimerID = 0;
 266              		.loc 1 187 25
 267 004a 3B69     		ldr	r3, [r7, #16]
 268 004c 0022     		movs	r2, #0
 269 004e 1A81     		strh	r2, [r3, #8]	@ movhi
 188:/home/fanxinhao/Work/LiteOS_Lab_2/iot_link/os/liteos/base/core/los_swtmr.c ****     pstTemp = pstSwtmr;
 270              		.loc 1 188 13
 271 0050 3B69     		ldr	r3, [r7, #16]
 272 0052 FB60     		str	r3, [r7, #12]
 189:/home/fanxinhao/Work/LiteOS_Lab_2/iot_link/os/liteos/base/core/los_swtmr.c ****     pstSwtmr++;
 273              		.loc 1 189 13
ARM GAS  /tmp/ccjyDFlJ.s 			page 9


 274 0054 3B69     		ldr	r3, [r7, #16]
 275 0056 1C33     		adds	r3, r3, #28
 276 0058 3B61     		str	r3, [r7, #16]
 190:/home/fanxinhao/Work/LiteOS_Lab_2/iot_link/os/liteos/base/core/los_swtmr.c ****     for (usIndex = 1; usIndex < LOSCFG_BASE_CORE_SWTMR_LIMIT; usIndex++, pstSwtmr++)
 277              		.loc 1 190 18
 278 005a 0123     		movs	r3, #1
 279 005c FB82     		strh	r3, [r7, #22]	@ movhi
 280              		.loc 1 190 5
 281 005e 0DE0     		b	.L13
 282              	.L14:
 191:/home/fanxinhao/Work/LiteOS_Lab_2/iot_link/os/liteos/base/core/los_swtmr.c ****     {
 192:/home/fanxinhao/Work/LiteOS_Lab_2/iot_link/os/liteos/base/core/los_swtmr.c ****         pstSwtmr->usTimerID = usIndex;
 283              		.loc 1 192 29 discriminator 3
 284 0060 3B69     		ldr	r3, [r7, #16]
 285 0062 FA8A     		ldrh	r2, [r7, #22]	@ movhi
 286 0064 1A81     		strh	r2, [r3, #8]	@ movhi
 193:/home/fanxinhao/Work/LiteOS_Lab_2/iot_link/os/liteos/base/core/los_swtmr.c ****         pstTemp->pstNext = pstSwtmr;
 287              		.loc 1 193 26 discriminator 3
 288 0066 FB68     		ldr	r3, [r7, #12]
 289 0068 3A69     		ldr	r2, [r7, #16]
 290 006a 1A60     		str	r2, [r3]
 194:/home/fanxinhao/Work/LiteOS_Lab_2/iot_link/os/liteos/base/core/los_swtmr.c ****         pstTemp = pstSwtmr;
 291              		.loc 1 194 17 discriminator 3
 292 006c 3B69     		ldr	r3, [r7, #16]
 293 006e FB60     		str	r3, [r7, #12]
 190:/home/fanxinhao/Work/LiteOS_Lab_2/iot_link/os/liteos/base/core/los_swtmr.c ****     {
 294              		.loc 1 190 70 discriminator 3
 295 0070 FB8A     		ldrh	r3, [r7, #22]
 296 0072 0133     		adds	r3, r3, #1
 297 0074 FB82     		strh	r3, [r7, #22]	@ movhi
 190:/home/fanxinhao/Work/LiteOS_Lab_2/iot_link/os/liteos/base/core/los_swtmr.c ****     {
 298              		.loc 1 190 82 discriminator 3
 299 0076 3B69     		ldr	r3, [r7, #16]
 300 0078 1C33     		adds	r3, r3, #28
 301 007a 3B61     		str	r3, [r7, #16]
 302              	.L13:
 190:/home/fanxinhao/Work/LiteOS_Lab_2/iot_link/os/liteos/base/core/los_swtmr.c ****     {
 303              		.loc 1 190 5 discriminator 1
 304 007c FB8A     		ldrh	r3, [r7, #22]
 305 007e 0F2B     		cmp	r3, #15
 306 0080 EED9     		bls	.L14
 195:/home/fanxinhao/Work/LiteOS_Lab_2/iot_link/os/liteos/base/core/los_swtmr.c ****     }
 196:/home/fanxinhao/Work/LiteOS_Lab_2/iot_link/os/liteos/base/core/los_swtmr.c **** 
 197:/home/fanxinhao/Work/LiteOS_Lab_2/iot_link/os/liteos/base/core/los_swtmr.c ****     uwRet = LOS_QueueCreate((CHAR *)NULL, OS_SWTMR_HANDLE_QUEUE_SIZE, &m_uwSwTmrHandlerQueue, 0, si
 307              		.loc 1 197 13
 308 0082 0823     		movs	r3, #8
 309 0084 0093     		str	r3, [sp]
 310 0086 0023     		movs	r3, #0
 311 0088 114A     		ldr	r2, .L17+24
 312 008a 1021     		movs	r1, #16
 313 008c 0020     		movs	r0, #0
 314 008e FFF7FEFF 		bl	LOS_QueueCreate
 315 0092 7860     		str	r0, [r7, #4]
 198:/home/fanxinhao/Work/LiteOS_Lab_2/iot_link/os/liteos/base/core/los_swtmr.c ****     if (uwRet != LOS_OK)
 316              		.loc 1 198 8
 317 0094 7B68     		ldr	r3, [r7, #4]
 318 0096 002B     		cmp	r3, #0
ARM GAS  /tmp/ccjyDFlJ.s 			page 10


 319 0098 01D0     		beq	.L15
 199:/home/fanxinhao/Work/LiteOS_Lab_2/iot_link/os/liteos/base/core/los_swtmr.c ****     {
 200:/home/fanxinhao/Work/LiteOS_Lab_2/iot_link/os/liteos/base/core/los_swtmr.c ****         return LOS_ERRNO_SWTMR_QUEUE_CREATE_FAILED;
 320              		.loc 1 200 16
 321 009a 0E4B     		ldr	r3, .L17+28
 322 009c 08E0     		b	.L12
 323              	.L15:
 201:/home/fanxinhao/Work/LiteOS_Lab_2/iot_link/os/liteos/base/core/los_swtmr.c ****     }
 202:/home/fanxinhao/Work/LiteOS_Lab_2/iot_link/os/liteos/base/core/los_swtmr.c **** 
 203:/home/fanxinhao/Work/LiteOS_Lab_2/iot_link/os/liteos/base/core/los_swtmr.c ****     uwRet = osSwTmrTaskCreate();
 324              		.loc 1 203 13
 325 009e FFF7FEFF 		bl	osSwTmrTaskCreate
 326 00a2 7860     		str	r0, [r7, #4]
 204:/home/fanxinhao/Work/LiteOS_Lab_2/iot_link/os/liteos/base/core/los_swtmr.c ****     if (LOS_OK != uwRet)
 327              		.loc 1 204 8
 328 00a4 7B68     		ldr	r3, [r7, #4]
 329 00a6 002B     		cmp	r3, #0
 330 00a8 01D0     		beq	.L16
 205:/home/fanxinhao/Work/LiteOS_Lab_2/iot_link/os/liteos/base/core/los_swtmr.c ****     {
 206:/home/fanxinhao/Work/LiteOS_Lab_2/iot_link/os/liteos/base/core/los_swtmr.c ****         return LOS_ERRNO_SWTMR_TASK_CREATE_FAILED;
 331              		.loc 1 206 16
 332 00aa 0B4B     		ldr	r3, .L17+32
 333 00ac 00E0     		b	.L12
 334              	.L16:
 207:/home/fanxinhao/Work/LiteOS_Lab_2/iot_link/os/liteos/base/core/los_swtmr.c ****     }
 208:/home/fanxinhao/Work/LiteOS_Lab_2/iot_link/os/liteos/base/core/los_swtmr.c **** 
 209:/home/fanxinhao/Work/LiteOS_Lab_2/iot_link/os/liteos/base/core/los_swtmr.c ****     return LOS_OK;
 335              		.loc 1 209 12
 336 00ae 0023     		movs	r3, #0
 337              	.L12:
 210:/home/fanxinhao/Work/LiteOS_Lab_2/iot_link/os/liteos/base/core/los_swtmr.c **** }
 338              		.loc 1 210 1
 339 00b0 1846     		mov	r0, r3
 340 00b2 1837     		adds	r7, r7, #24
 341              	.LCFI11:
 342              		.cfi_def_cfa_offset 8
 343 00b4 BD46     		mov	sp, r7
 344              	.LCFI12:
 345              		.cfi_def_cfa_register 13
 346              		@ sp needed
 347 00b6 80BD     		pop	{r7, pc}
 348              	.L18:
 349              		.align	2
 350              	.L17:
 351 00b8 00000000 		.word	m_uwSwTmrAlignID
 352 00bc 00000000 		.word	m_pstSwtmrSortList
 353 00c0 00000000 		.word	m_aucSysMem0
 354 00c4 07030002 		.word	33555207
 355 00c8 00000000 		.word	m_pstSwtmrCBArray
 356 00cc 00000000 		.word	m_pstSwtmrFreeList
 357 00d0 00000000 		.word	m_uwSwTmrHandlerQueue
 358 00d4 0B030002 		.word	33555211
 359 00d8 0C030002 		.word	33555212
 360              		.cfi_endproc
 361              	.LFE135:
 363              		.section	.text.osSwTmrStart,"ax",%progbits
 364              		.align	1
ARM GAS  /tmp/ccjyDFlJ.s 			page 11


 365              		.global	osSwTmrStart
 366              		.syntax unified
 367              		.thumb
 368              		.thumb_func
 369              		.fpu fpv4-sp-d16
 371              	osSwTmrStart:
 372              	.LFB136:
 211:/home/fanxinhao/Work/LiteOS_Lab_2/iot_link/os/liteos/base/core/los_swtmr.c **** 
 212:/home/fanxinhao/Work/LiteOS_Lab_2/iot_link/os/liteos/base/core/los_swtmr.c **** /*****************************************************************************
 213:/home/fanxinhao/Work/LiteOS_Lab_2/iot_link/os/liteos/base/core/los_swtmr.c **** Function   : osSwTmrStart
 214:/home/fanxinhao/Work/LiteOS_Lab_2/iot_link/os/liteos/base/core/los_swtmr.c **** Description: Start Software Timer
 215:/home/fanxinhao/Work/LiteOS_Lab_2/iot_link/os/liteos/base/core/los_swtmr.c **** Input      : pstSwtmr ---------- Need to start Software Timer
 216:/home/fanxinhao/Work/LiteOS_Lab_2/iot_link/os/liteos/base/core/los_swtmr.c **** Output     : None
 217:/home/fanxinhao/Work/LiteOS_Lab_2/iot_link/os/liteos/base/core/los_swtmr.c **** Return     : None
 218:/home/fanxinhao/Work/LiteOS_Lab_2/iot_link/os/liteos/base/core/los_swtmr.c **** *****************************************************************************/
 219:/home/fanxinhao/Work/LiteOS_Lab_2/iot_link/os/liteos/base/core/los_swtmr.c **** LITE_OS_SEC_TEXT VOID osSwTmrStart(SWTMR_CTRL_S *pstSwtmr)
 220:/home/fanxinhao/Work/LiteOS_Lab_2/iot_link/os/liteos/base/core/los_swtmr.c **** {
 373              		.loc 1 220 1
 374              		.cfi_startproc
 375              		@ args = 0, pretend = 0, frame = 56
 376              		@ frame_needed = 1, uses_anonymous_args = 0
 377              		@ link register save eliminated.
 378 0000 80B4     		push	{r7}
 379              	.LCFI13:
 380              		.cfi_def_cfa_offset 4
 381              		.cfi_offset 7, -4
 382 0002 8FB0     		sub	sp, sp, #60
 383              	.LCFI14:
 384              		.cfi_def_cfa_offset 64
 385 0004 00AF     		add	r7, sp, #0
 386              	.LCFI15:
 387              		.cfi_def_cfa_register 7
 388 0006 7860     		str	r0, [r7, #4]
 221:/home/fanxinhao/Work/LiteOS_Lab_2/iot_link/os/liteos/base/core/los_swtmr.c ****     SWTMR_CTRL_S *pstPrev = (SWTMR_CTRL_S *)NULL;
 389              		.loc 1 221 19
 390 0008 0023     		movs	r3, #0
 391 000a 7B63     		str	r3, [r7, #52]
 222:/home/fanxinhao/Work/LiteOS_Lab_2/iot_link/os/liteos/base/core/los_swtmr.c ****     SWTMR_CTRL_S *pstCur = (SWTMR_CTRL_S *)NULL;
 392              		.loc 1 222 19
 393 000c 0023     		movs	r3, #0
 394 000e 3B63     		str	r3, [r7, #48]
 223:/home/fanxinhao/Work/LiteOS_Lab_2/iot_link/os/liteos/base/core/los_swtmr.c **** 
 224:/home/fanxinhao/Work/LiteOS_Lab_2/iot_link/os/liteos/base/core/los_swtmr.c **** #if (LOSCFG_BASE_CORE_SWTMR_ALIGN == YES)
 225:/home/fanxinhao/Work/LiteOS_Lab_2/iot_link/os/liteos/base/core/los_swtmr.c ****     UINT32 uwCurrSwtmrTimes, uwSwtmrTimes;
 226:/home/fanxinhao/Work/LiteOS_Lab_2/iot_link/os/liteos/base/core/los_swtmr.c ****     UINT32 uwMinInLarge = 0xFFFFFFFF, uwMaxInLitte = 0xFFFFFFFF;
 395              		.loc 1 226 12
 396 0010 4FF0FF33 		mov	r3, #-1
 397 0014 FB62     		str	r3, [r7, #44]
 398              		.loc 1 226 39
 399 0016 4FF0FF33 		mov	r3, #-1
 400 001a BB62     		str	r3, [r7, #40]
 227:/home/fanxinhao/Work/LiteOS_Lab_2/iot_link/os/liteos/base/core/los_swtmr.c ****     UINT32 uwMinInLargeID = LOSCFG_BASE_CORE_SWTMR_LIMIT;
 401              		.loc 1 227 12
 402 001c 1023     		movs	r3, #16
 403 001e 7B62     		str	r3, [r7, #36]
 228:/home/fanxinhao/Work/LiteOS_Lab_2/iot_link/os/liteos/base/core/los_swtmr.c ****     UINT32 uwMaxInLitteID = LOSCFG_BASE_CORE_SWTMR_LIMIT;
 404              		.loc 1 228 12
ARM GAS  /tmp/ccjyDFlJ.s 			page 12


 405 0020 1023     		movs	r3, #16
 406 0022 3B62     		str	r3, [r7, #32]
 229:/home/fanxinhao/Work/LiteOS_Lab_2/iot_link/os/liteos/base/core/los_swtmr.c ****     UINT16 usSwTmrCBID;
 230:/home/fanxinhao/Work/LiteOS_Lab_2/iot_link/os/liteos/base/core/los_swtmr.c ****     UINT16 usSwtmrIdIndex;
 231:/home/fanxinhao/Work/LiteOS_Lab_2/iot_link/os/liteos/base/core/los_swtmr.c ****     UINT32 uwCount = 0;
 407              		.loc 1 231 12
 408 0024 0023     		movs	r3, #0
 409 0026 BB61     		str	r3, [r7, #24]
 232:/home/fanxinhao/Work/LiteOS_Lab_2/iot_link/os/liteos/base/core/los_swtmr.c **** #endif
 233:/home/fanxinhao/Work/LiteOS_Lab_2/iot_link/os/liteos/base/core/los_swtmr.c **** 
 234:/home/fanxinhao/Work/LiteOS_Lab_2/iot_link/os/liteos/base/core/los_swtmr.c ****     pstSwtmr->uwCount = pstSwtmr->uwInterval;
 410              		.loc 1 234 33
 411 0028 7B68     		ldr	r3, [r7, #4]
 412 002a 1A69     		ldr	r2, [r3, #16]
 413              		.loc 1 234 23
 414 002c 7B68     		ldr	r3, [r7, #4]
 415 002e DA60     		str	r2, [r3, #12]
 235:/home/fanxinhao/Work/LiteOS_Lab_2/iot_link/os/liteos/base/core/los_swtmr.c **** 
 236:/home/fanxinhao/Work/LiteOS_Lab_2/iot_link/os/liteos/base/core/los_swtmr.c **** #if (LOSCFG_BASE_CORE_SWTMR_ALIGN == YES)
 237:/home/fanxinhao/Work/LiteOS_Lab_2/iot_link/os/liteos/base/core/los_swtmr.c ****     usSwTmrCBID = pstSwtmr->usTimerID % LOSCFG_BASE_CORE_SWTMR_LIMIT;
 416              		.loc 1 237 27
 417 0030 7B68     		ldr	r3, [r7, #4]
 418 0032 1B89     		ldrh	r3, [r3, #8]
 419              		.loc 1 237 17
 420 0034 03F00F03 		and	r3, r3, #15
 421 0038 FB82     		strh	r3, [r7, #22]	@ movhi
 238:/home/fanxinhao/Work/LiteOS_Lab_2/iot_link/os/liteos/base/core/los_swtmr.c ****     if(CHECK_ALIGN_SWTMR_CAN_MULTI_ALIGN(m_uwSwTmrAlignID[usSwTmrCBID]))
 422              		.loc 1 238 8
 423 003a FB8A     		ldrh	r3, [r7, #22]
 424 003c 9A4A     		ldr	r2, .L50
 425 003e 52F82330 		ldr	r3, [r2, r3, lsl #2]
 426 0042 03F06043 		and	r3, r3, #-536870912
 427              		.loc 1 238 7
 428 0046 B3F1C04F 		cmp	r3, #1610612736
 429 004a 40F0B480 		bne	.L20
 239:/home/fanxinhao/Work/LiteOS_Lab_2/iot_link/os/liteos/base/core/los_swtmr.c ****     {
 240:/home/fanxinhao/Work/LiteOS_Lab_2/iot_link/os/liteos/base/core/los_swtmr.c ****         SET_ALIGN_SWTMR_ALREADY_ALIGNED(m_uwSwTmrAlignID[usSwTmrCBID]);
 430              		.loc 1 240 9
 431 004e FB8A     		ldrh	r3, [r7, #22]
 432 0050 954A     		ldr	r2, .L50
 433 0052 52F82320 		ldr	r2, [r2, r3, lsl #2]
 434 0056 FB8A     		ldrh	r3, [r7, #22]
 435 0058 42F00042 		orr	r2, r2, #-2147483648
 436 005c 9249     		ldr	r1, .L50
 437 005e 41F82320 		str	r2, [r1, r3, lsl #2]
 241:/home/fanxinhao/Work/LiteOS_Lab_2/iot_link/os/liteos/base/core/los_swtmr.c ****         uwCurrSwtmrTimes = GET_ALIGN_SWTMR_DIVISOR_TIMERS(m_uwSwTmrAlignID[usSwTmrCBID]);
 438              		.loc 1 241 28
 439 0062 FB8A     		ldrh	r3, [r7, #22]
 440 0064 904A     		ldr	r2, .L50
 441 0066 52F82330 		ldr	r3, [r2, r3, lsl #2]
 442              		.loc 1 241 26
 443 006a 23F07F43 		bic	r3, r3, #-16777216
 444 006e 3B61     		str	r3, [r7, #16]
 242:/home/fanxinhao/Work/LiteOS_Lab_2/iot_link/os/liteos/base/core/los_swtmr.c ****         for(usSwtmrIdIndex = 0; usSwtmrIdIndex < LOSCFG_BASE_CORE_SWTMR_LIMIT; usSwtmrIdIndex++)
 445              		.loc 1 242 28
 446 0070 0023     		movs	r3, #0
 447 0072 FB83     		strh	r3, [r7, #30]	@ movhi
ARM GAS  /tmp/ccjyDFlJ.s 			page 13


 448              		.loc 1 242 9
 449 0074 54E0     		b	.L21
 450              	.L27:
 243:/home/fanxinhao/Work/LiteOS_Lab_2/iot_link/os/liteos/base/core/los_swtmr.c ****         {
 244:/home/fanxinhao/Work/LiteOS_Lab_2/iot_link/os/liteos/base/core/los_swtmr.c ****             uwSwtmrTimes = GET_ALIGN_SWTMR_DIVISOR_TIMERS(m_uwSwTmrAlignID[usSwtmrIdIndex]);
 451              		.loc 1 244 28
 452 0076 FB8B     		ldrh	r3, [r7, #30]
 453 0078 8B4A     		ldr	r2, .L50
 454 007a 52F82330 		ldr	r3, [r2, r3, lsl #2]
 455              		.loc 1 244 26
 456 007e 23F07F43 		bic	r3, r3, #-16777216
 457 0082 FB60     		str	r3, [r7, #12]
 245:/home/fanxinhao/Work/LiteOS_Lab_2/iot_link/os/liteos/base/core/los_swtmr.c ****             if(uwSwtmrTimes == 0 //swtmr not creat
 458              		.loc 1 245 15
 459 0084 FB68     		ldr	r3, [r7, #12]
 460 0086 002B     		cmp	r3, #0
 461 0088 46D0     		beq	.L46
 246:/home/fanxinhao/Work/LiteOS_Lab_2/iot_link/os/liteos/base/core/los_swtmr.c ****                 || usSwtmrIdIndex == usSwTmrCBID //swtmr is pstSwtmr
 462              		.loc 1 246 17
 463 008a FA8B     		ldrh	r2, [r7, #30]
 464 008c FB8A     		ldrh	r3, [r7, #22]
 465 008e 9A42     		cmp	r2, r3
 466 0090 42D0     		beq	.L46
 247:/home/fanxinhao/Work/LiteOS_Lab_2/iot_link/os/liteos/base/core/los_swtmr.c ****                 || !CHECK_ALIGN_SWTMR_ALREADY_ALIGN(m_uwSwTmrAlignID[usSwtmrIdIndex])) //swtmr not 
 467              		.loc 1 247 21
 468 0092 FB8B     		ldrh	r3, [r7, #30]
 469 0094 844A     		ldr	r2, .L50
 470 0096 52F82330 		ldr	r3, [r2, r3, lsl #2]
 471 009a 03F04043 		and	r3, r3, #-1073741824
 472              		.loc 1 247 17
 473 009e B3F1404F 		cmp	r3, #-1073741824
 474 00a2 39D1     		bne	.L46
 248:/home/fanxinhao/Work/LiteOS_Lab_2/iot_link/os/liteos/base/core/los_swtmr.c ****             {
 249:/home/fanxinhao/Work/LiteOS_Lab_2/iot_link/os/liteos/base/core/los_swtmr.c ****                 continue;
 250:/home/fanxinhao/Work/LiteOS_Lab_2/iot_link/os/liteos/base/core/los_swtmr.c ****             }
 251:/home/fanxinhao/Work/LiteOS_Lab_2/iot_link/os/liteos/base/core/los_swtmr.c ****             if(uwSwtmrTimes >= uwCurrSwtmrTimes && uwSwtmrTimes % uwCurrSwtmrTimes == 0)
 475              		.loc 1 251 15
 476 00a4 FA68     		ldr	r2, [r7, #12]
 477 00a6 3B69     		ldr	r3, [r7, #16]
 478 00a8 9A42     		cmp	r2, r3
 479 00aa 18D3     		bcc	.L25
 480              		.loc 1 251 65 discriminator 1
 481 00ac FB68     		ldr	r3, [r7, #12]
 482 00ae 3A69     		ldr	r2, [r7, #16]
 483 00b0 B3FBF2F2 		udiv	r2, r3, r2
 484 00b4 3969     		ldr	r1, [r7, #16]
 485 00b6 01FB02F2 		mul	r2, r1, r2
 486 00ba 9B1A     		subs	r3, r3, r2
 487              		.loc 1 251 49 discriminator 1
 488 00bc 002B     		cmp	r3, #0
 489 00be 0ED1     		bne	.L25
 252:/home/fanxinhao/Work/LiteOS_Lab_2/iot_link/os/liteos/base/core/los_swtmr.c ****             {
 253:/home/fanxinhao/Work/LiteOS_Lab_2/iot_link/os/liteos/base/core/los_swtmr.c ****                 if(uwMinInLarge > uwSwtmrTimes / uwCurrSwtmrTimes)
 490              		.loc 1 253 48
 491 00c0 FA68     		ldr	r2, [r7, #12]
 492 00c2 3B69     		ldr	r3, [r7, #16]
 493 00c4 B2FBF3F3 		udiv	r3, r2, r3
ARM GAS  /tmp/ccjyDFlJ.s 			page 14


 494              		.loc 1 253 19
 495 00c8 FA6A     		ldr	r2, [r7, #44]
 496 00ca 9A42     		cmp	r2, r3
 497 00cc 25D9     		bls	.L24
 254:/home/fanxinhao/Work/LiteOS_Lab_2/iot_link/os/liteos/base/core/los_swtmr.c ****                 {
 255:/home/fanxinhao/Work/LiteOS_Lab_2/iot_link/os/liteos/base/core/los_swtmr.c ****                     uwMinInLarge = uwSwtmrTimes / uwCurrSwtmrTimes;
 498              		.loc 1 255 34
 499 00ce FA68     		ldr	r2, [r7, #12]
 500 00d0 3B69     		ldr	r3, [r7, #16]
 501 00d2 B2FBF3F3 		udiv	r3, r2, r3
 502 00d6 FB62     		str	r3, [r7, #44]
 256:/home/fanxinhao/Work/LiteOS_Lab_2/iot_link/os/liteos/base/core/los_swtmr.c ****                     uwMinInLargeID = usSwtmrIdIndex;
 503              		.loc 1 256 36
 504 00d8 FB8B     		ldrh	r3, [r7, #30]
 505 00da 7B62     		str	r3, [r7, #36]
 253:/home/fanxinhao/Work/LiteOS_Lab_2/iot_link/os/liteos/base/core/los_swtmr.c ****                 {
 506              		.loc 1 253 19
 507 00dc 1DE0     		b	.L24
 508              	.L25:
 257:/home/fanxinhao/Work/LiteOS_Lab_2/iot_link/os/liteos/base/core/los_swtmr.c ****                 }
 258:/home/fanxinhao/Work/LiteOS_Lab_2/iot_link/os/liteos/base/core/los_swtmr.c ****             }
 259:/home/fanxinhao/Work/LiteOS_Lab_2/iot_link/os/liteos/base/core/los_swtmr.c ****             else if(uwSwtmrTimes < uwCurrSwtmrTimes && uwCurrSwtmrTimes % uwSwtmrTimes == 0)
 509              		.loc 1 259 20
 510 00de FA68     		ldr	r2, [r7, #12]
 511 00e0 3B69     		ldr	r3, [r7, #16]
 512 00e2 9A42     		cmp	r2, r3
 513 00e4 19D2     		bcs	.L24
 514              		.loc 1 259 73 discriminator 1
 515 00e6 3B69     		ldr	r3, [r7, #16]
 516 00e8 FA68     		ldr	r2, [r7, #12]
 517 00ea B3FBF2F2 		udiv	r2, r3, r2
 518 00ee F968     		ldr	r1, [r7, #12]
 519 00f0 01FB02F2 		mul	r2, r1, r2
 520 00f4 9B1A     		subs	r3, r3, r2
 521              		.loc 1 259 53 discriminator 1
 522 00f6 002B     		cmp	r3, #0
 523 00f8 0FD1     		bne	.L24
 260:/home/fanxinhao/Work/LiteOS_Lab_2/iot_link/os/liteos/base/core/los_swtmr.c ****             {
 261:/home/fanxinhao/Work/LiteOS_Lab_2/iot_link/os/liteos/base/core/los_swtmr.c ****                 if(uwMaxInLitte > uwCurrSwtmrTimes / uwSwtmrTimes)
 524              		.loc 1 261 52
 525 00fa 3A69     		ldr	r2, [r7, #16]
 526 00fc FB68     		ldr	r3, [r7, #12]
 527 00fe B2FBF3F3 		udiv	r3, r2, r3
 528              		.loc 1 261 19
 529 0102 BA6A     		ldr	r2, [r7, #40]
 530 0104 9A42     		cmp	r2, r3
 531 0106 08D9     		bls	.L24
 262:/home/fanxinhao/Work/LiteOS_Lab_2/iot_link/os/liteos/base/core/los_swtmr.c ****                 {
 263:/home/fanxinhao/Work/LiteOS_Lab_2/iot_link/os/liteos/base/core/los_swtmr.c ****                     uwMaxInLitte = uwCurrSwtmrTimes / uwSwtmrTimes;
 532              		.loc 1 263 34
 533 0108 3A69     		ldr	r2, [r7, #16]
 534 010a FB68     		ldr	r3, [r7, #12]
 535 010c B2FBF3F3 		udiv	r3, r2, r3
 536 0110 BB62     		str	r3, [r7, #40]
 264:/home/fanxinhao/Work/LiteOS_Lab_2/iot_link/os/liteos/base/core/los_swtmr.c ****                     uwMaxInLitteID = usSwtmrIdIndex;
 537              		.loc 1 264 36
 538 0112 FB8B     		ldrh	r3, [r7, #30]
ARM GAS  /tmp/ccjyDFlJ.s 			page 15


 539 0114 3B62     		str	r3, [r7, #32]
 540 0116 00E0     		b	.L24
 541              	.L46:
 249:/home/fanxinhao/Work/LiteOS_Lab_2/iot_link/os/liteos/base/core/los_swtmr.c ****             }
 542              		.loc 1 249 17
 543 0118 00BF     		nop
 544              	.L24:
 242:/home/fanxinhao/Work/LiteOS_Lab_2/iot_link/os/liteos/base/core/los_swtmr.c ****         {
 545              		.loc 1 242 94 discriminator 2
 546 011a FB8B     		ldrh	r3, [r7, #30]
 547 011c 0133     		adds	r3, r3, #1
 548 011e FB83     		strh	r3, [r7, #30]	@ movhi
 549              	.L21:
 242:/home/fanxinhao/Work/LiteOS_Lab_2/iot_link/os/liteos/base/core/los_swtmr.c ****         {
 550              		.loc 1 242 9 discriminator 1
 551 0120 FB8B     		ldrh	r3, [r7, #30]
 552 0122 0F2B     		cmp	r3, #15
 553 0124 A7D9     		bls	.L27
 265:/home/fanxinhao/Work/LiteOS_Lab_2/iot_link/os/liteos/base/core/los_swtmr.c ****                 }
 266:/home/fanxinhao/Work/LiteOS_Lab_2/iot_link/os/liteos/base/core/los_swtmr.c ****             }
 267:/home/fanxinhao/Work/LiteOS_Lab_2/iot_link/os/liteos/base/core/los_swtmr.c ****         }
 268:/home/fanxinhao/Work/LiteOS_Lab_2/iot_link/os/liteos/base/core/los_swtmr.c ****         if(uwMinInLargeID != LOSCFG_BASE_CORE_SWTMR_LIMIT)
 554              		.loc 1 268 11
 555 0126 7B6A     		ldr	r3, [r7, #36]
 556 0128 102B     		cmp	r3, #16
 557 012a 31D0     		beq	.L28
 269:/home/fanxinhao/Work/LiteOS_Lab_2/iot_link/os/liteos/base/core/los_swtmr.c ****         {
 270:/home/fanxinhao/Work/LiteOS_Lab_2/iot_link/os/liteos/base/core/los_swtmr.c ****             pstCur = m_pstSwtmrSortList;
 558              		.loc 1 270 20
 559 012c 5F4B     		ldr	r3, .L50+4
 560 012e 1B68     		ldr	r3, [r3]
 561 0130 3B63     		str	r3, [r7, #48]
 271:/home/fanxinhao/Work/LiteOS_Lab_2/iot_link/os/liteos/base/core/los_swtmr.c ****             while (pstCur != NULL)
 562              		.loc 1 271 19
 563 0132 14E0     		b	.L29
 564              	.L32:
 272:/home/fanxinhao/Work/LiteOS_Lab_2/iot_link/os/liteos/base/core/los_swtmr.c ****             {
 273:/home/fanxinhao/Work/LiteOS_Lab_2/iot_link/os/liteos/base/core/los_swtmr.c ****                 uwCount += pstCur->uwCount;
 565              		.loc 1 273 34
 566 0134 3B6B     		ldr	r3, [r7, #48]
 567 0136 DB68     		ldr	r3, [r3, #12]
 568              		.loc 1 273 25
 569 0138 BA69     		ldr	r2, [r7, #24]
 570 013a 1344     		add	r3, r3, r2
 571 013c BB61     		str	r3, [r7, #24]
 274:/home/fanxinhao/Work/LiteOS_Lab_2/iot_link/os/liteos/base/core/los_swtmr.c ****                 if (pstCur->usTimerID == ((SWTMR_CTRL_S  *)(m_pstSwtmrCBArray + uwMinInLargeID))->u
 572              		.loc 1 274 27
 573 013e 3B6B     		ldr	r3, [r7, #48]
 574 0140 1989     		ldrh	r1, [r3, #8]
 575              		.loc 1 274 43
 576 0142 5B4B     		ldr	r3, .L50+8
 577 0144 1868     		ldr	r0, [r3]
 578              		.loc 1 274 79
 579 0146 7A6A     		ldr	r2, [r7, #36]
 580 0148 1346     		mov	r3, r2
 581 014a DB00     		lsls	r3, r3, #3
 582 014c 9B1A     		subs	r3, r3, r2
ARM GAS  /tmp/ccjyDFlJ.s 			page 16


 583 014e 9B00     		lsls	r3, r3, #2
 584              		.loc 1 274 43
 585 0150 0344     		add	r3, r3, r0
 586              		.loc 1 274 97
 587 0152 1B89     		ldrh	r3, [r3, #8]
 588              		.loc 1 274 20
 589 0154 9942     		cmp	r1, r3
 590 0156 06D0     		beq	.L47
 275:/home/fanxinhao/Work/LiteOS_Lab_2/iot_link/os/liteos/base/core/los_swtmr.c ****                 {
 276:/home/fanxinhao/Work/LiteOS_Lab_2/iot_link/os/liteos/base/core/los_swtmr.c ****                     break;
 277:/home/fanxinhao/Work/LiteOS_Lab_2/iot_link/os/liteos/base/core/los_swtmr.c ****                 }
 278:/home/fanxinhao/Work/LiteOS_Lab_2/iot_link/os/liteos/base/core/los_swtmr.c ****                 pstCur = pstCur->pstNext;
 591              		.loc 1 278 24
 592 0158 3B6B     		ldr	r3, [r7, #48]
 593 015a 1B68     		ldr	r3, [r3]
 594 015c 3B63     		str	r3, [r7, #48]
 595              	.L29:
 271:/home/fanxinhao/Work/LiteOS_Lab_2/iot_link/os/liteos/base/core/los_swtmr.c ****             {
 596              		.loc 1 271 19
 597 015e 3B6B     		ldr	r3, [r7, #48]
 598 0160 002B     		cmp	r3, #0
 599 0162 E7D1     		bne	.L32
 600 0164 00E0     		b	.L31
 601              	.L47:
 276:/home/fanxinhao/Work/LiteOS_Lab_2/iot_link/os/liteos/base/core/los_swtmr.c ****                 }
 602              		.loc 1 276 21
 603 0166 00BF     		nop
 604              	.L31:
 279:/home/fanxinhao/Work/LiteOS_Lab_2/iot_link/os/liteos/base/core/los_swtmr.c ****             }
 280:/home/fanxinhao/Work/LiteOS_Lab_2/iot_link/os/liteos/base/core/los_swtmr.c ****             if(pstCur != NULL)
 605              		.loc 1 280 15
 606 0168 3B6B     		ldr	r3, [r7, #48]
 607 016a 002B     		cmp	r3, #0
 608 016c 60D0     		beq	.L33
 281:/home/fanxinhao/Work/LiteOS_Lab_2/iot_link/os/liteos/base/core/los_swtmr.c ****             {
 282:/home/fanxinhao/Work/LiteOS_Lab_2/iot_link/os/liteos/base/core/los_swtmr.c ****                 pstSwtmr->uwCount = pstSwtmr->uwInterval - (pstCur->uwInterval - uwCount)% pstSwtmr
 609              		.loc 1 282 45
 610 016e 7B68     		ldr	r3, [r7, #4]
 611 0170 1969     		ldr	r1, [r3, #16]
 612              		.loc 1 282 67
 613 0172 3B6B     		ldr	r3, [r7, #48]
 614 0174 1A69     		ldr	r2, [r3, #16]
 615              		.loc 1 282 80
 616 0176 BB69     		ldr	r3, [r7, #24]
 617 0178 D31A     		subs	r3, r2, r3
 618              		.loc 1 282 100
 619 017a 7A68     		ldr	r2, [r7, #4]
 620 017c 1269     		ldr	r2, [r2, #16]
 621              		.loc 1 282 90
 622 017e B3FBF2F0 		udiv	r0, r3, r2
 623 0182 02FB00F2 		mul	r2, r2, r0
 624 0186 9B1A     		subs	r3, r3, r2
 625              		.loc 1 282 58
 626 0188 CA1A     		subs	r2, r1, r3
 627              		.loc 1 282 35
 628 018a 7B68     		ldr	r3, [r7, #4]
 629 018c DA60     		str	r2, [r3, #12]
ARM GAS  /tmp/ccjyDFlJ.s 			page 17


 630 018e 4FE0     		b	.L33
 631              	.L28:
 283:/home/fanxinhao/Work/LiteOS_Lab_2/iot_link/os/liteos/base/core/los_swtmr.c ****             }
 284:/home/fanxinhao/Work/LiteOS_Lab_2/iot_link/os/liteos/base/core/los_swtmr.c ****         }
 285:/home/fanxinhao/Work/LiteOS_Lab_2/iot_link/os/liteos/base/core/los_swtmr.c ****         else if(uwMaxInLitteID != LOSCFG_BASE_CORE_SWTMR_LIMIT)
 632              		.loc 1 285 16
 633 0190 3B6A     		ldr	r3, [r7, #32]
 634 0192 102B     		cmp	r3, #16
 635 0194 4CD0     		beq	.L33
 286:/home/fanxinhao/Work/LiteOS_Lab_2/iot_link/os/liteos/base/core/los_swtmr.c ****         {
 287:/home/fanxinhao/Work/LiteOS_Lab_2/iot_link/os/liteos/base/core/los_swtmr.c ****             pstSwtmr->uwCount = 0;
 636              		.loc 1 287 31
 637 0196 7B68     		ldr	r3, [r7, #4]
 638 0198 0022     		movs	r2, #0
 639 019a DA60     		str	r2, [r3, #12]
 288:/home/fanxinhao/Work/LiteOS_Lab_2/iot_link/os/liteos/base/core/los_swtmr.c ****             pstPrev = m_pstSwtmrCBArray + uwMaxInLitteID;
 640              		.loc 1 288 41
 641 019c 444B     		ldr	r3, .L50+8
 642 019e 1968     		ldr	r1, [r3]
 643 01a0 3A6A     		ldr	r2, [r7, #32]
 644 01a2 1346     		mov	r3, r2
 645 01a4 DB00     		lsls	r3, r3, #3
 646 01a6 9B1A     		subs	r3, r3, r2
 647 01a8 9B00     		lsls	r3, r3, #2
 648              		.loc 1 288 21
 649 01aa 0B44     		add	r3, r3, r1
 650 01ac 7B63     		str	r3, [r7, #52]
 289:/home/fanxinhao/Work/LiteOS_Lab_2/iot_link/os/liteos/base/core/los_swtmr.c ****             pstCur = pstPrev->pstNext;
 651              		.loc 1 289 20
 652 01ae 7B6B     		ldr	r3, [r7, #52]
 653 01b0 1B68     		ldr	r3, [r3]
 654 01b2 3B63     		str	r3, [r7, #48]
 290:/home/fanxinhao/Work/LiteOS_Lab_2/iot_link/os/liteos/base/core/los_swtmr.c ****             goto Inset_list;
 655              		.loc 1 290 13
 656 01b4 57E0     		b	.L34
 657              	.L20:
 291:/home/fanxinhao/Work/LiteOS_Lab_2/iot_link/os/liteos/base/core/los_swtmr.c ****         }
 292:/home/fanxinhao/Work/LiteOS_Lab_2/iot_link/os/liteos/base/core/los_swtmr.c ****     }
 293:/home/fanxinhao/Work/LiteOS_Lab_2/iot_link/os/liteos/base/core/los_swtmr.c ****     else if(CHECK_ALIGN_SWTMR_CAN_PERIODIC_ALIGN(m_uwSwTmrAlignID[usSwTmrCBID]))
 658              		.loc 1 293 13
 659 01b6 FB8A     		ldrh	r3, [r7, #22]
 660 01b8 3B4A     		ldr	r2, .L50
 661 01ba 52F82330 		ldr	r3, [r2, r3, lsl #2]
 662 01be 03F06043 		and	r3, r3, #-536870912
 663              		.loc 1 293 12
 664 01c2 B3F1804F 		cmp	r3, #1073741824
 665 01c6 33D1     		bne	.L33
 294:/home/fanxinhao/Work/LiteOS_Lab_2/iot_link/os/liteos/base/core/los_swtmr.c ****     {
 295:/home/fanxinhao/Work/LiteOS_Lab_2/iot_link/os/liteos/base/core/los_swtmr.c ****         SET_ALIGN_SWTMR_ALREADY_ALIGNED(m_uwSwTmrAlignID[usSwTmrCBID]);
 666              		.loc 1 295 9
 667 01c8 FB8A     		ldrh	r3, [r7, #22]
 668 01ca 374A     		ldr	r2, .L50
 669 01cc 52F82320 		ldr	r2, [r2, r3, lsl #2]
 670 01d0 FB8A     		ldrh	r3, [r7, #22]
 671 01d2 42F00042 		orr	r2, r2, #-2147483648
 672 01d6 3449     		ldr	r1, .L50
 673 01d8 41F82320 		str	r2, [r1, r3, lsl #2]
ARM GAS  /tmp/ccjyDFlJ.s 			page 18


 296:/home/fanxinhao/Work/LiteOS_Lab_2/iot_link/os/liteos/base/core/los_swtmr.c ****         pstCur = m_pstSwtmrSortList;
 674              		.loc 1 296 16
 675 01dc 334B     		ldr	r3, .L50+4
 676 01de 1B68     		ldr	r3, [r3]
 677 01e0 3B63     		str	r3, [r7, #48]
 297:/home/fanxinhao/Work/LiteOS_Lab_2/iot_link/os/liteos/base/core/los_swtmr.c ****         while (pstCur != NULL)
 678              		.loc 1 297 15
 679 01e2 14E0     		b	.L35
 680              	.L38:
 298:/home/fanxinhao/Work/LiteOS_Lab_2/iot_link/os/liteos/base/core/los_swtmr.c ****         {
 299:/home/fanxinhao/Work/LiteOS_Lab_2/iot_link/os/liteos/base/core/los_swtmr.c ****             if (pstCur->uwInterval ==  pstSwtmr->uwInterval
 681              		.loc 1 299 23
 682 01e4 3B6B     		ldr	r3, [r7, #48]
 683 01e6 1A69     		ldr	r2, [r3, #16]
 684              		.loc 1 299 48
 685 01e8 7B68     		ldr	r3, [r7, #4]
 686 01ea 1B69     		ldr	r3, [r3, #16]
 687              		.loc 1 299 16
 688 01ec 9A42     		cmp	r2, r3
 689 01ee 0BD1     		bne	.L36
 300:/home/fanxinhao/Work/LiteOS_Lab_2/iot_link/os/liteos/base/core/los_swtmr.c ****                 && CHECK_ALIGN_SWTMR_ALREADY_ALIGN(m_uwSwTmrAlignID[pstCur->usTimerID % LOSCFG_BASE
 690              		.loc 1 300 20
 691 01f0 3B6B     		ldr	r3, [r7, #48]
 692 01f2 1B89     		ldrh	r3, [r3, #8]
 693 01f4 03F00F03 		and	r3, r3, #15
 694 01f8 2B4A     		ldr	r2, .L50
 695 01fa 52F82330 		ldr	r3, [r2, r3, lsl #2]
 696 01fe 03F04043 		and	r3, r3, #-1073741824
 697              		.loc 1 300 17
 698 0202 B3F1404F 		cmp	r3, #-1073741824
 699 0206 06D0     		beq	.L48
 700              	.L36:
 301:/home/fanxinhao/Work/LiteOS_Lab_2/iot_link/os/liteos/base/core/los_swtmr.c ****             {
 302:/home/fanxinhao/Work/LiteOS_Lab_2/iot_link/os/liteos/base/core/los_swtmr.c ****                 break;
 303:/home/fanxinhao/Work/LiteOS_Lab_2/iot_link/os/liteos/base/core/los_swtmr.c ****             }
 304:/home/fanxinhao/Work/LiteOS_Lab_2/iot_link/os/liteos/base/core/los_swtmr.c ****             pstCur = pstCur->pstNext;
 701              		.loc 1 304 20
 702 0208 3B6B     		ldr	r3, [r7, #48]
 703 020a 1B68     		ldr	r3, [r3]
 704 020c 3B63     		str	r3, [r7, #48]
 705              	.L35:
 297:/home/fanxinhao/Work/LiteOS_Lab_2/iot_link/os/liteos/base/core/los_swtmr.c ****         {
 706              		.loc 1 297 15
 707 020e 3B6B     		ldr	r3, [r7, #48]
 708 0210 002B     		cmp	r3, #0
 709 0212 E7D1     		bne	.L38
 710 0214 00E0     		b	.L37
 711              	.L48:
 302:/home/fanxinhao/Work/LiteOS_Lab_2/iot_link/os/liteos/base/core/los_swtmr.c ****             }
 712              		.loc 1 302 17
 713 0216 00BF     		nop
 714              	.L37:
 305:/home/fanxinhao/Work/LiteOS_Lab_2/iot_link/os/liteos/base/core/los_swtmr.c ****         }
 306:/home/fanxinhao/Work/LiteOS_Lab_2/iot_link/os/liteos/base/core/los_swtmr.c ****         if(pstCur != NULL)
 715              		.loc 1 306 11
 716 0218 3B6B     		ldr	r3, [r7, #48]
 717 021a 002B     		cmp	r3, #0
ARM GAS  /tmp/ccjyDFlJ.s 			page 19


 718 021c 08D0     		beq	.L33
 307:/home/fanxinhao/Work/LiteOS_Lab_2/iot_link/os/liteos/base/core/los_swtmr.c ****         {
 308:/home/fanxinhao/Work/LiteOS_Lab_2/iot_link/os/liteos/base/core/los_swtmr.c ****             pstSwtmr->uwCount = 0;
 719              		.loc 1 308 31
 720 021e 7B68     		ldr	r3, [r7, #4]
 721 0220 0022     		movs	r2, #0
 722 0222 DA60     		str	r2, [r3, #12]
 309:/home/fanxinhao/Work/LiteOS_Lab_2/iot_link/os/liteos/base/core/los_swtmr.c ****             pstPrev = pstCur;
 723              		.loc 1 309 21
 724 0224 3B6B     		ldr	r3, [r7, #48]
 725 0226 7B63     		str	r3, [r7, #52]
 310:/home/fanxinhao/Work/LiteOS_Lab_2/iot_link/os/liteos/base/core/los_swtmr.c ****             pstCur = pstCur->pstNext;
 726              		.loc 1 310 20
 727 0228 3B6B     		ldr	r3, [r7, #48]
 728 022a 1B68     		ldr	r3, [r3]
 729 022c 3B63     		str	r3, [r7, #48]
 311:/home/fanxinhao/Work/LiteOS_Lab_2/iot_link/os/liteos/base/core/los_swtmr.c ****             goto Inset_list;
 730              		.loc 1 311 13
 731 022e 1AE0     		b	.L34
 732              	.L33:
 312:/home/fanxinhao/Work/LiteOS_Lab_2/iot_link/os/liteos/base/core/los_swtmr.c ****         }
 313:/home/fanxinhao/Work/LiteOS_Lab_2/iot_link/os/liteos/base/core/los_swtmr.c ****     }
 314:/home/fanxinhao/Work/LiteOS_Lab_2/iot_link/os/liteos/base/core/los_swtmr.c **** #endif
 315:/home/fanxinhao/Work/LiteOS_Lab_2/iot_link/os/liteos/base/core/los_swtmr.c **** 
 316:/home/fanxinhao/Work/LiteOS_Lab_2/iot_link/os/liteos/base/core/los_swtmr.c ****     pstCur = m_pstSwtmrSortList;
 733              		.loc 1 316 12
 734 0230 1E4B     		ldr	r3, .L50+4
 735 0232 1B68     		ldr	r3, [r3]
 736 0234 3B63     		str	r3, [r7, #48]
 317:/home/fanxinhao/Work/LiteOS_Lab_2/iot_link/os/liteos/base/core/los_swtmr.c ****     while (pstCur != NULL)
 737              		.loc 1 317 11
 738 0236 11E0     		b	.L39
 739              	.L41:
 318:/home/fanxinhao/Work/LiteOS_Lab_2/iot_link/os/liteos/base/core/los_swtmr.c ****     {
 319:/home/fanxinhao/Work/LiteOS_Lab_2/iot_link/os/liteos/base/core/los_swtmr.c ****         if (pstCur->uwCount > pstSwtmr->uwCount)
 740              		.loc 1 319 19
 741 0238 3B6B     		ldr	r3, [r7, #48]
 742 023a DA68     		ldr	r2, [r3, #12]
 743              		.loc 1 319 39
 744 023c 7B68     		ldr	r3, [r7, #4]
 745 023e DB68     		ldr	r3, [r3, #12]
 746              		.loc 1 319 12
 747 0240 9A42     		cmp	r2, r3
 748 0242 0FD8     		bhi	.L49
 320:/home/fanxinhao/Work/LiteOS_Lab_2/iot_link/os/liteos/base/core/los_swtmr.c ****         {
 321:/home/fanxinhao/Work/LiteOS_Lab_2/iot_link/os/liteos/base/core/los_swtmr.c ****             break;
 322:/home/fanxinhao/Work/LiteOS_Lab_2/iot_link/os/liteos/base/core/los_swtmr.c ****         }
 323:/home/fanxinhao/Work/LiteOS_Lab_2/iot_link/os/liteos/base/core/los_swtmr.c **** 
 324:/home/fanxinhao/Work/LiteOS_Lab_2/iot_link/os/liteos/base/core/los_swtmr.c ****         pstSwtmr->uwCount -= pstCur->uwCount;
 749              		.loc 1 324 27
 750 0244 7B68     		ldr	r3, [r7, #4]
 751 0246 DA68     		ldr	r2, [r3, #12]
 752              		.loc 1 324 36
 753 0248 3B6B     		ldr	r3, [r7, #48]
 754 024a DB68     		ldr	r3, [r3, #12]
 755              		.loc 1 324 27
 756 024c D21A     		subs	r2, r2, r3
ARM GAS  /tmp/ccjyDFlJ.s 			page 20


 757 024e 7B68     		ldr	r3, [r7, #4]
 758 0250 DA60     		str	r2, [r3, #12]
 325:/home/fanxinhao/Work/LiteOS_Lab_2/iot_link/os/liteos/base/core/los_swtmr.c ****         pstPrev = pstCur;
 759              		.loc 1 325 17
 760 0252 3B6B     		ldr	r3, [r7, #48]
 761 0254 7B63     		str	r3, [r7, #52]
 326:/home/fanxinhao/Work/LiteOS_Lab_2/iot_link/os/liteos/base/core/los_swtmr.c ****         pstCur = pstCur->pstNext;
 762              		.loc 1 326 16
 763 0256 3B6B     		ldr	r3, [r7, #48]
 764 0258 1B68     		ldr	r3, [r3]
 765 025a 3B63     		str	r3, [r7, #48]
 766              	.L39:
 317:/home/fanxinhao/Work/LiteOS_Lab_2/iot_link/os/liteos/base/core/los_swtmr.c ****     {
 767              		.loc 1 317 11
 768 025c 3B6B     		ldr	r3, [r7, #48]
 769 025e 002B     		cmp	r3, #0
 770 0260 EAD1     		bne	.L41
 327:/home/fanxinhao/Work/LiteOS_Lab_2/iot_link/os/liteos/base/core/los_swtmr.c ****     }
 328:/home/fanxinhao/Work/LiteOS_Lab_2/iot_link/os/liteos/base/core/los_swtmr.c **** 
 329:/home/fanxinhao/Work/LiteOS_Lab_2/iot_link/os/liteos/base/core/los_swtmr.c **** #if (LOSCFG_BASE_CORE_SWTMR_ALIGN == YES)
 330:/home/fanxinhao/Work/LiteOS_Lab_2/iot_link/os/liteos/base/core/los_swtmr.c **** Inset_list:
 771              		.loc 1 330 1
 772 0262 00E0     		b	.L34
 773              	.L49:
 321:/home/fanxinhao/Work/LiteOS_Lab_2/iot_link/os/liteos/base/core/los_swtmr.c ****         }
 774              		.loc 1 321 13
 775 0264 00BF     		nop
 776              	.L34:
 331:/home/fanxinhao/Work/LiteOS_Lab_2/iot_link/os/liteos/base/core/los_swtmr.c **** #endif
 332:/home/fanxinhao/Work/LiteOS_Lab_2/iot_link/os/liteos/base/core/los_swtmr.c **** 
 333:/home/fanxinhao/Work/LiteOS_Lab_2/iot_link/os/liteos/base/core/los_swtmr.c ****     pstSwtmr->pstNext = pstCur;
 777              		.loc 1 333 23
 778 0266 7B68     		ldr	r3, [r7, #4]
 779 0268 3A6B     		ldr	r2, [r7, #48]
 780 026a 1A60     		str	r2, [r3]
 334:/home/fanxinhao/Work/LiteOS_Lab_2/iot_link/os/liteos/base/core/los_swtmr.c **** 
 335:/home/fanxinhao/Work/LiteOS_Lab_2/iot_link/os/liteos/base/core/los_swtmr.c ****     if (pstCur != NULL)
 781              		.loc 1 335 8
 782 026c 3B6B     		ldr	r3, [r7, #48]
 783 026e 002B     		cmp	r3, #0
 784 0270 06D0     		beq	.L42
 336:/home/fanxinhao/Work/LiteOS_Lab_2/iot_link/os/liteos/base/core/los_swtmr.c ****     {
 337:/home/fanxinhao/Work/LiteOS_Lab_2/iot_link/os/liteos/base/core/los_swtmr.c ****         pstCur->uwCount -= pstSwtmr->uwCount;
 785              		.loc 1 337 25
 786 0272 3B6B     		ldr	r3, [r7, #48]
 787 0274 DA68     		ldr	r2, [r3, #12]
 788              		.loc 1 337 36
 789 0276 7B68     		ldr	r3, [r7, #4]
 790 0278 DB68     		ldr	r3, [r3, #12]
 791              		.loc 1 337 25
 792 027a D21A     		subs	r2, r2, r3
 793 027c 3B6B     		ldr	r3, [r7, #48]
 794 027e DA60     		str	r2, [r3, #12]
 795              	.L42:
 338:/home/fanxinhao/Work/LiteOS_Lab_2/iot_link/os/liteos/base/core/los_swtmr.c ****     }
 339:/home/fanxinhao/Work/LiteOS_Lab_2/iot_link/os/liteos/base/core/los_swtmr.c **** 
 340:/home/fanxinhao/Work/LiteOS_Lab_2/iot_link/os/liteos/base/core/los_swtmr.c ****     if (pstPrev == NULL)
ARM GAS  /tmp/ccjyDFlJ.s 			page 21


 796              		.loc 1 340 8
 797 0280 7B6B     		ldr	r3, [r7, #52]
 798 0282 002B     		cmp	r3, #0
 799 0284 03D1     		bne	.L43
 341:/home/fanxinhao/Work/LiteOS_Lab_2/iot_link/os/liteos/base/core/los_swtmr.c ****     {
 342:/home/fanxinhao/Work/LiteOS_Lab_2/iot_link/os/liteos/base/core/los_swtmr.c ****         m_pstSwtmrSortList = pstSwtmr;
 800              		.loc 1 342 28
 801 0286 094A     		ldr	r2, .L50+4
 802 0288 7B68     		ldr	r3, [r7, #4]
 803 028a 1360     		str	r3, [r2]
 804 028c 02E0     		b	.L44
 805              	.L43:
 343:/home/fanxinhao/Work/LiteOS_Lab_2/iot_link/os/liteos/base/core/los_swtmr.c ****     }
 344:/home/fanxinhao/Work/LiteOS_Lab_2/iot_link/os/liteos/base/core/los_swtmr.c ****     else
 345:/home/fanxinhao/Work/LiteOS_Lab_2/iot_link/os/liteos/base/core/los_swtmr.c ****     {
 346:/home/fanxinhao/Work/LiteOS_Lab_2/iot_link/os/liteos/base/core/los_swtmr.c ****         pstPrev->pstNext = pstSwtmr;
 806              		.loc 1 346 26
 807 028e 7B6B     		ldr	r3, [r7, #52]
 808 0290 7A68     		ldr	r2, [r7, #4]
 809 0292 1A60     		str	r2, [r3]
 810              	.L44:
 347:/home/fanxinhao/Work/LiteOS_Lab_2/iot_link/os/liteos/base/core/los_swtmr.c ****     }
 348:/home/fanxinhao/Work/LiteOS_Lab_2/iot_link/os/liteos/base/core/los_swtmr.c **** 
 349:/home/fanxinhao/Work/LiteOS_Lab_2/iot_link/os/liteos/base/core/los_swtmr.c ****     pstSwtmr->ucState = OS_SWTMR_STATUS_TICKING;
 811              		.loc 1 349 23
 812 0294 7B68     		ldr	r3, [r7, #4]
 813 0296 0222     		movs	r2, #2
 814 0298 1A71     		strb	r2, [r3, #4]
 350:/home/fanxinhao/Work/LiteOS_Lab_2/iot_link/os/liteos/base/core/los_swtmr.c **** 
 351:/home/fanxinhao/Work/LiteOS_Lab_2/iot_link/os/liteos/base/core/los_swtmr.c ****     return;
 815              		.loc 1 351 5
 816 029a 00BF     		nop
 352:/home/fanxinhao/Work/LiteOS_Lab_2/iot_link/os/liteos/base/core/los_swtmr.c **** }
 817              		.loc 1 352 1
 818 029c 3C37     		adds	r7, r7, #60
 819              	.LCFI16:
 820              		.cfi_def_cfa_offset 4
 821 029e BD46     		mov	sp, r7
 822              	.LCFI17:
 823              		.cfi_def_cfa_register 13
 824              		@ sp needed
 825 02a0 5DF8047B 		ldr	r7, [sp], #4
 826              	.LCFI18:
 827              		.cfi_restore 7
 828              		.cfi_def_cfa_offset 0
 829 02a4 7047     		bx	lr
 830              	.L51:
 831 02a6 00BF     		.align	2
 832              	.L50:
 833 02a8 00000000 		.word	m_uwSwTmrAlignID
 834 02ac 00000000 		.word	m_pstSwtmrSortList
 835 02b0 00000000 		.word	m_pstSwtmrCBArray
 836              		.cfi_endproc
 837              	.LFE136:
 839              		.section	.text.osSwtmrDelete,"ax",%progbits
 840              		.align	1
 841              		.syntax unified
ARM GAS  /tmp/ccjyDFlJ.s 			page 22


 842              		.thumb
 843              		.thumb_func
 844              		.fpu fpv4-sp-d16
 846              	osSwtmrDelete:
 847              	.LFB137:
 353:/home/fanxinhao/Work/LiteOS_Lab_2/iot_link/os/liteos/base/core/los_swtmr.c **** 
 354:/home/fanxinhao/Work/LiteOS_Lab_2/iot_link/os/liteos/base/core/los_swtmr.c **** /*****************************************************************************
 355:/home/fanxinhao/Work/LiteOS_Lab_2/iot_link/os/liteos/base/core/los_swtmr.c **** Function   : osSwTmrDelete
 356:/home/fanxinhao/Work/LiteOS_Lab_2/iot_link/os/liteos/base/core/los_swtmr.c **** Description: Delete Software Timer
 357:/home/fanxinhao/Work/LiteOS_Lab_2/iot_link/os/liteos/base/core/los_swtmr.c **** Input      : pstSwtmr --- Need to delete Software Timer, When using, Ensure that it can't be NULL.
 358:/home/fanxinhao/Work/LiteOS_Lab_2/iot_link/os/liteos/base/core/los_swtmr.c **** Output     : None
 359:/home/fanxinhao/Work/LiteOS_Lab_2/iot_link/os/liteos/base/core/los_swtmr.c **** Return     : None
 360:/home/fanxinhao/Work/LiteOS_Lab_2/iot_link/os/liteos/base/core/los_swtmr.c **** *****************************************************************************/
 361:/home/fanxinhao/Work/LiteOS_Lab_2/iot_link/os/liteos/base/core/los_swtmr.c **** LITE_OS_SEC_TEXT STATIC_INLINE VOID osSwtmrDelete(SWTMR_CTRL_S *pstSwtmr)
 362:/home/fanxinhao/Work/LiteOS_Lab_2/iot_link/os/liteos/base/core/los_swtmr.c **** {
 848              		.loc 1 362 1
 849              		.cfi_startproc
 850              		@ args = 0, pretend = 0, frame = 8
 851              		@ frame_needed = 1, uses_anonymous_args = 0
 852              		@ link register save eliminated.
 853 0000 80B4     		push	{r7}
 854              	.LCFI19:
 855              		.cfi_def_cfa_offset 4
 856              		.cfi_offset 7, -4
 857 0002 83B0     		sub	sp, sp, #12
 858              	.LCFI20:
 859              		.cfi_def_cfa_offset 16
 860 0004 00AF     		add	r7, sp, #0
 861              	.LCFI21:
 862              		.cfi_def_cfa_register 7
 863 0006 7860     		str	r0, [r7, #4]
 363:/home/fanxinhao/Work/LiteOS_Lab_2/iot_link/os/liteos/base/core/los_swtmr.c ****     /**insert to free list **/
 364:/home/fanxinhao/Work/LiteOS_Lab_2/iot_link/os/liteos/base/core/los_swtmr.c ****     pstSwtmr->pstNext = m_pstSwtmrFreeList;
 864              		.loc 1 364 23
 865 0008 0B4B     		ldr	r3, .L53
 866 000a 1A68     		ldr	r2, [r3]
 867 000c 7B68     		ldr	r3, [r7, #4]
 868 000e 1A60     		str	r2, [r3]
 365:/home/fanxinhao/Work/LiteOS_Lab_2/iot_link/os/liteos/base/core/los_swtmr.c ****     m_pstSwtmrFreeList = pstSwtmr;
 869              		.loc 1 365 24
 870 0010 094A     		ldr	r2, .L53
 871 0012 7B68     		ldr	r3, [r7, #4]
 872 0014 1360     		str	r3, [r2]
 366:/home/fanxinhao/Work/LiteOS_Lab_2/iot_link/os/liteos/base/core/los_swtmr.c ****     pstSwtmr->ucState = OS_SWTMR_STATUS_UNUSED;
 873              		.loc 1 366 23
 874 0016 7B68     		ldr	r3, [r7, #4]
 875 0018 0022     		movs	r2, #0
 876 001a 1A71     		strb	r2, [r3, #4]
 367:/home/fanxinhao/Work/LiteOS_Lab_2/iot_link/os/liteos/base/core/los_swtmr.c **** 
 368:/home/fanxinhao/Work/LiteOS_Lab_2/iot_link/os/liteos/base/core/los_swtmr.c **** #if (LOSCFG_BASE_CORE_SWTMR_ALIGN == YES)
 369:/home/fanxinhao/Work/LiteOS_Lab_2/iot_link/os/liteos/base/core/los_swtmr.c ****     m_uwSwTmrAlignID[pstSwtmr->usTimerID % LOSCFG_BASE_CORE_SWTMR_LIMIT] = 0;
 877              		.loc 1 369 30
 878 001c 7B68     		ldr	r3, [r7, #4]
 879 001e 1B89     		ldrh	r3, [r3, #8]
 880              		.loc 1 369 42
 881 0020 03F00F03 		and	r3, r3, #15
 882              		.loc 1 369 74
ARM GAS  /tmp/ccjyDFlJ.s 			page 23


 883 0024 054A     		ldr	r2, .L53+4
 884 0026 0021     		movs	r1, #0
 885 0028 42F82310 		str	r1, [r2, r3, lsl #2]
 370:/home/fanxinhao/Work/LiteOS_Lab_2/iot_link/os/liteos/base/core/los_swtmr.c **** #endif
 371:/home/fanxinhao/Work/LiteOS_Lab_2/iot_link/os/liteos/base/core/los_swtmr.c **** }
 886              		.loc 1 371 1
 887 002c 00BF     		nop
 888 002e 0C37     		adds	r7, r7, #12
 889              	.LCFI22:
 890              		.cfi_def_cfa_offset 4
 891 0030 BD46     		mov	sp, r7
 892              	.LCFI23:
 893              		.cfi_def_cfa_register 13
 894              		@ sp needed
 895 0032 5DF8047B 		ldr	r7, [sp], #4
 896              	.LCFI24:
 897              		.cfi_restore 7
 898              		.cfi_def_cfa_offset 0
 899 0036 7047     		bx	lr
 900              	.L54:
 901              		.align	2
 902              	.L53:
 903 0038 00000000 		.word	m_pstSwtmrFreeList
 904 003c 00000000 		.word	m_uwSwTmrAlignID
 905              		.cfi_endproc
 906              	.LFE137:
 908              		.section	.text.osSwtmrStop,"ax",%progbits
 909              		.align	1
 910              		.global	osSwtmrStop
 911              		.syntax unified
 912              		.thumb
 913              		.thumb_func
 914              		.fpu fpv4-sp-d16
 916              	osSwtmrStop:
 917              	.LFB138:
 372:/home/fanxinhao/Work/LiteOS_Lab_2/iot_link/os/liteos/base/core/los_swtmr.c **** 
 373:/home/fanxinhao/Work/LiteOS_Lab_2/iot_link/os/liteos/base/core/los_swtmr.c **** /*****************************************************************************
 374:/home/fanxinhao/Work/LiteOS_Lab_2/iot_link/os/liteos/base/core/los_swtmr.c **** Function   : osSwtmrStop
 375:/home/fanxinhao/Work/LiteOS_Lab_2/iot_link/os/liteos/base/core/los_swtmr.c **** Description: Stop of Software Timer interface
 376:/home/fanxinhao/Work/LiteOS_Lab_2/iot_link/os/liteos/base/core/los_swtmr.c **** Input      : pstSwtmr
 377:/home/fanxinhao/Work/LiteOS_Lab_2/iot_link/os/liteos/base/core/los_swtmr.c **** Output     : None
 378:/home/fanxinhao/Work/LiteOS_Lab_2/iot_link/os/liteos/base/core/los_swtmr.c **** Return     : None
 379:/home/fanxinhao/Work/LiteOS_Lab_2/iot_link/os/liteos/base/core/los_swtmr.c **** *****************************************************************************/
 380:/home/fanxinhao/Work/LiteOS_Lab_2/iot_link/os/liteos/base/core/los_swtmr.c **** LITE_OS_SEC_TEXT VOID osSwtmrStop(SWTMR_CTRL_S *pstSwtmr)
 381:/home/fanxinhao/Work/LiteOS_Lab_2/iot_link/os/liteos/base/core/los_swtmr.c **** {
 918              		.loc 1 381 1
 919              		.cfi_startproc
 920              		@ args = 0, pretend = 0, frame = 16
 921              		@ frame_needed = 1, uses_anonymous_args = 0
 922              		@ link register save eliminated.
 923 0000 80B4     		push	{r7}
 924              	.LCFI25:
 925              		.cfi_def_cfa_offset 4
 926              		.cfi_offset 7, -4
 927 0002 85B0     		sub	sp, sp, #20
 928              	.LCFI26:
 929              		.cfi_def_cfa_offset 24
ARM GAS  /tmp/ccjyDFlJ.s 			page 24


 930 0004 00AF     		add	r7, sp, #0
 931              	.LCFI27:
 932              		.cfi_def_cfa_register 7
 933 0006 7860     		str	r0, [r7, #4]
 382:/home/fanxinhao/Work/LiteOS_Lab_2/iot_link/os/liteos/base/core/los_swtmr.c ****     SWTMR_CTRL_S *pstPrev = (SWTMR_CTRL_S *)NULL;
 934              		.loc 1 382 19
 935 0008 0023     		movs	r3, #0
 936 000a FB60     		str	r3, [r7, #12]
 383:/home/fanxinhao/Work/LiteOS_Lab_2/iot_link/os/liteos/base/core/los_swtmr.c ****     SWTMR_CTRL_S *pstCur = (SWTMR_CTRL_S *)NULL;
 937              		.loc 1 383 19
 938 000c 0023     		movs	r3, #0
 939 000e BB60     		str	r3, [r7, #8]
 384:/home/fanxinhao/Work/LiteOS_Lab_2/iot_link/os/liteos/base/core/los_swtmr.c **** 
 385:/home/fanxinhao/Work/LiteOS_Lab_2/iot_link/os/liteos/base/core/los_swtmr.c ****     if(!m_pstSwtmrSortList)
 940              		.loc 1 385 8
 941 0010 234B     		ldr	r3, .L64
 942 0012 1B68     		ldr	r3, [r3]
 943              		.loc 1 385 7
 944 0014 002B     		cmp	r3, #0
 945 0016 3CD0     		beq	.L63
 386:/home/fanxinhao/Work/LiteOS_Lab_2/iot_link/os/liteos/base/core/los_swtmr.c ****         return;
 387:/home/fanxinhao/Work/LiteOS_Lab_2/iot_link/os/liteos/base/core/los_swtmr.c **** 
 388:/home/fanxinhao/Work/LiteOS_Lab_2/iot_link/os/liteos/base/core/los_swtmr.c ****     pstCur = m_pstSwtmrSortList;
 946              		.loc 1 388 12
 947 0018 214B     		ldr	r3, .L64
 948 001a 1B68     		ldr	r3, [r3]
 949 001c BB60     		str	r3, [r7, #8]
 389:/home/fanxinhao/Work/LiteOS_Lab_2/iot_link/os/liteos/base/core/los_swtmr.c **** 
 390:/home/fanxinhao/Work/LiteOS_Lab_2/iot_link/os/liteos/base/core/los_swtmr.c ****     while (pstCur != pstSwtmr)
 950              		.loc 1 390 11
 951 001e 04E0     		b	.L58
 952              	.L59:
 391:/home/fanxinhao/Work/LiteOS_Lab_2/iot_link/os/liteos/base/core/los_swtmr.c ****     {
 392:/home/fanxinhao/Work/LiteOS_Lab_2/iot_link/os/liteos/base/core/los_swtmr.c ****         pstPrev = pstCur;
 953              		.loc 1 392 17
 954 0020 BB68     		ldr	r3, [r7, #8]
 955 0022 FB60     		str	r3, [r7, #12]
 393:/home/fanxinhao/Work/LiteOS_Lab_2/iot_link/os/liteos/base/core/los_swtmr.c ****         pstCur = pstCur->pstNext;
 956              		.loc 1 393 16
 957 0024 BB68     		ldr	r3, [r7, #8]
 958 0026 1B68     		ldr	r3, [r3]
 959 0028 BB60     		str	r3, [r7, #8]
 960              	.L58:
 390:/home/fanxinhao/Work/LiteOS_Lab_2/iot_link/os/liteos/base/core/los_swtmr.c ****     {
 961              		.loc 1 390 11
 962 002a BA68     		ldr	r2, [r7, #8]
 963 002c 7B68     		ldr	r3, [r7, #4]
 964 002e 9A42     		cmp	r2, r3
 965 0030 F6D1     		bne	.L59
 394:/home/fanxinhao/Work/LiteOS_Lab_2/iot_link/os/liteos/base/core/los_swtmr.c ****     }
 395:/home/fanxinhao/Work/LiteOS_Lab_2/iot_link/os/liteos/base/core/los_swtmr.c **** 
 396:/home/fanxinhao/Work/LiteOS_Lab_2/iot_link/os/liteos/base/core/los_swtmr.c ****     if (pstCur->pstNext != NULL)
 966              		.loc 1 396 15
 967 0032 BB68     		ldr	r3, [r7, #8]
 968 0034 1B68     		ldr	r3, [r3]
 969              		.loc 1 396 8
 970 0036 002B     		cmp	r3, #0
ARM GAS  /tmp/ccjyDFlJ.s 			page 25


 971 0038 08D0     		beq	.L60
 397:/home/fanxinhao/Work/LiteOS_Lab_2/iot_link/os/liteos/base/core/los_swtmr.c ****     {
 398:/home/fanxinhao/Work/LiteOS_Lab_2/iot_link/os/liteos/base/core/los_swtmr.c ****         pstCur->pstNext->uwCount += pstCur->uwCount;
 972              		.loc 1 398 15
 973 003a BB68     		ldr	r3, [r7, #8]
 974 003c 1B68     		ldr	r3, [r3]
 975              		.loc 1 398 34
 976 003e D968     		ldr	r1, [r3, #12]
 977              		.loc 1 398 43
 978 0040 BB68     		ldr	r3, [r7, #8]
 979 0042 DA68     		ldr	r2, [r3, #12]
 980              		.loc 1 398 15
 981 0044 BB68     		ldr	r3, [r7, #8]
 982 0046 1B68     		ldr	r3, [r3]
 983              		.loc 1 398 34
 984 0048 0A44     		add	r2, r2, r1
 985 004a DA60     		str	r2, [r3, #12]
 986              	.L60:
 399:/home/fanxinhao/Work/LiteOS_Lab_2/iot_link/os/liteos/base/core/los_swtmr.c ****     }
 400:/home/fanxinhao/Work/LiteOS_Lab_2/iot_link/os/liteos/base/core/los_swtmr.c **** 
 401:/home/fanxinhao/Work/LiteOS_Lab_2/iot_link/os/liteos/base/core/los_swtmr.c ****     if (pstPrev == NULL)
 987              		.loc 1 401 8
 988 004c FB68     		ldr	r3, [r7, #12]
 989 004e 002B     		cmp	r3, #0
 990 0050 04D1     		bne	.L61
 402:/home/fanxinhao/Work/LiteOS_Lab_2/iot_link/os/liteos/base/core/los_swtmr.c ****     {
 403:/home/fanxinhao/Work/LiteOS_Lab_2/iot_link/os/liteos/base/core/los_swtmr.c ****         m_pstSwtmrSortList = pstCur->pstNext;
 991              		.loc 1 403 36
 992 0052 BB68     		ldr	r3, [r7, #8]
 993 0054 1B68     		ldr	r3, [r3]
 994              		.loc 1 403 28
 995 0056 124A     		ldr	r2, .L64
 996 0058 1360     		str	r3, [r2]
 997 005a 03E0     		b	.L62
 998              	.L61:
 404:/home/fanxinhao/Work/LiteOS_Lab_2/iot_link/os/liteos/base/core/los_swtmr.c ****     }
 405:/home/fanxinhao/Work/LiteOS_Lab_2/iot_link/os/liteos/base/core/los_swtmr.c ****     else
 406:/home/fanxinhao/Work/LiteOS_Lab_2/iot_link/os/liteos/base/core/los_swtmr.c ****     {
 407:/home/fanxinhao/Work/LiteOS_Lab_2/iot_link/os/liteos/base/core/los_swtmr.c ****         pstPrev->pstNext = pstCur->pstNext;
 999              		.loc 1 407 34
 1000 005c BB68     		ldr	r3, [r7, #8]
 1001 005e 1A68     		ldr	r2, [r3]
 1002              		.loc 1 407 26
 1003 0060 FB68     		ldr	r3, [r7, #12]
 1004 0062 1A60     		str	r2, [r3]
 1005              	.L62:
 408:/home/fanxinhao/Work/LiteOS_Lab_2/iot_link/os/liteos/base/core/los_swtmr.c ****     }
 409:/home/fanxinhao/Work/LiteOS_Lab_2/iot_link/os/liteos/base/core/los_swtmr.c **** 
 410:/home/fanxinhao/Work/LiteOS_Lab_2/iot_link/os/liteos/base/core/los_swtmr.c ****     pstCur->pstNext = (SWTMR_CTRL_S *)NULL;
 1006              		.loc 1 410 21
 1007 0064 BB68     		ldr	r3, [r7, #8]
 1008 0066 0022     		movs	r2, #0
 1009 0068 1A60     		str	r2, [r3]
 411:/home/fanxinhao/Work/LiteOS_Lab_2/iot_link/os/liteos/base/core/los_swtmr.c ****     pstCur->ucState = OS_SWTMR_STATUS_CREATED;
 1010              		.loc 1 411 21
 1011 006a BB68     		ldr	r3, [r7, #8]
 1012 006c 0122     		movs	r2, #1
ARM GAS  /tmp/ccjyDFlJ.s 			page 26


 1013 006e 1A71     		strb	r2, [r3, #4]
 412:/home/fanxinhao/Work/LiteOS_Lab_2/iot_link/os/liteos/base/core/los_swtmr.c **** 
 413:/home/fanxinhao/Work/LiteOS_Lab_2/iot_link/os/liteos/base/core/los_swtmr.c **** #if (LOSCFG_BASE_CORE_SWTMR_ALIGN == YES)
 414:/home/fanxinhao/Work/LiteOS_Lab_2/iot_link/os/liteos/base/core/los_swtmr.c ****     SET_ALIGN_SWTMR_ALREADY_NOT_ALIGNED(m_uwSwTmrAlignID[pstSwtmr->usTimerID % LOSCFG_BASE_CORE_SWT
 1014              		.loc 1 414 5
 1015 0070 7B68     		ldr	r3, [r7, #4]
 1016 0072 1B89     		ldrh	r3, [r3, #8]
 1017 0074 03F00F03 		and	r3, r3, #15
 1018 0078 0A4A     		ldr	r2, .L64+4
 1019 007a 52F82320 		ldr	r2, [r2, r3, lsl #2]
 1020 007e 7B68     		ldr	r3, [r7, #4]
 1021 0080 1B89     		ldrh	r3, [r3, #8]
 1022 0082 03F00F03 		and	r3, r3, #15
 1023 0086 22F00042 		bic	r2, r2, #-2147483648
 1024 008a 0649     		ldr	r1, .L64+4
 1025 008c 41F82320 		str	r2, [r1, r3, lsl #2]
 1026 0090 00E0     		b	.L55
 1027              	.L63:
 386:/home/fanxinhao/Work/LiteOS_Lab_2/iot_link/os/liteos/base/core/los_swtmr.c **** 
 1028              		.loc 1 386 9
 1029 0092 00BF     		nop
 1030              	.L55:
 415:/home/fanxinhao/Work/LiteOS_Lab_2/iot_link/os/liteos/base/core/los_swtmr.c **** #endif
 416:/home/fanxinhao/Work/LiteOS_Lab_2/iot_link/os/liteos/base/core/los_swtmr.c **** }
 1031              		.loc 1 416 1
 1032 0094 1437     		adds	r7, r7, #20
 1033              	.LCFI28:
 1034              		.cfi_def_cfa_offset 4
 1035 0096 BD46     		mov	sp, r7
 1036              	.LCFI29:
 1037              		.cfi_def_cfa_register 13
 1038              		@ sp needed
 1039 0098 5DF8047B 		ldr	r7, [sp], #4
 1040              	.LCFI30:
 1041              		.cfi_restore 7
 1042              		.cfi_def_cfa_offset 0
 1043 009c 7047     		bx	lr
 1044              	.L65:
 1045 009e 00BF     		.align	2
 1046              	.L64:
 1047 00a0 00000000 		.word	m_pstSwtmrSortList
 1048 00a4 00000000 		.word	m_uwSwTmrAlignID
 1049              		.cfi_endproc
 1050              	.LFE138:
 1052              		.section	.text.osSwTmrTimeoutHandle,"ax",%progbits
 1053              		.align	1
 1054              		.syntax unified
 1055              		.thumb
 1056              		.thumb_func
 1057              		.fpu fpv4-sp-d16
 1059              	osSwTmrTimeoutHandle:
 1060              	.LFB139:
 417:/home/fanxinhao/Work/LiteOS_Lab_2/iot_link/os/liteos/base/core/los_swtmr.c **** 
 418:/home/fanxinhao/Work/LiteOS_Lab_2/iot_link/os/liteos/base/core/los_swtmr.c **** /*****************************************************************************
 419:/home/fanxinhao/Work/LiteOS_Lab_2/iot_link/os/liteos/base/core/los_swtmr.c **** Function   : osSwTmrTimeoutHandle
 420:/home/fanxinhao/Work/LiteOS_Lab_2/iot_link/os/liteos/base/core/los_swtmr.c **** Description: Software Timer time out handler
 421:/home/fanxinhao/Work/LiteOS_Lab_2/iot_link/os/liteos/base/core/los_swtmr.c **** Input      : None
ARM GAS  /tmp/ccjyDFlJ.s 			page 27


 422:/home/fanxinhao/Work/LiteOS_Lab_2/iot_link/os/liteos/base/core/los_swtmr.c **** Output     : None
 423:/home/fanxinhao/Work/LiteOS_Lab_2/iot_link/os/liteos/base/core/los_swtmr.c **** Return     : None
 424:/home/fanxinhao/Work/LiteOS_Lab_2/iot_link/os/liteos/base/core/los_swtmr.c **** *****************************************************************************/
 425:/home/fanxinhao/Work/LiteOS_Lab_2/iot_link/os/liteos/base/core/los_swtmr.c **** LITE_OS_SEC_TEXT static VOID osSwTmrTimeoutHandle(VOID)
 426:/home/fanxinhao/Work/LiteOS_Lab_2/iot_link/os/liteos/base/core/los_swtmr.c **** {
 1061              		.loc 1 426 1
 1062              		.cfi_startproc
 1063              		@ args = 0, pretend = 0, frame = 16
 1064              		@ frame_needed = 1, uses_anonymous_args = 0
 1065 0000 80B5     		push	{r7, lr}
 1066              	.LCFI31:
 1067              		.cfi_def_cfa_offset 8
 1068              		.cfi_offset 7, -8
 1069              		.cfi_offset 14, -4
 1070 0002 84B0     		sub	sp, sp, #16
 1071              	.LCFI32:
 1072              		.cfi_def_cfa_offset 24
 1073 0004 00AF     		add	r7, sp, #0
 1074              	.LCFI33:
 1075              		.cfi_def_cfa_register 7
 427:/home/fanxinhao/Work/LiteOS_Lab_2/iot_link/os/liteos/base/core/los_swtmr.c ****     SWTMR_CTRL_S *pstSwtmr = m_pstSwtmrSortList;
 1076              		.loc 1 427 19
 1077 0006 274B     		ldr	r3, .L75
 1078 0008 1B68     		ldr	r3, [r3]
 1079 000a FB60     		str	r3, [r7, #12]
 428:/home/fanxinhao/Work/LiteOS_Lab_2/iot_link/os/liteos/base/core/los_swtmr.c ****     SWTMR_HANDLER_ITEM_S stSwtmrHandler;
 429:/home/fanxinhao/Work/LiteOS_Lab_2/iot_link/os/liteos/base/core/los_swtmr.c **** 
 430:/home/fanxinhao/Work/LiteOS_Lab_2/iot_link/os/liteos/base/core/los_swtmr.c ****     while (pstSwtmr != NULL && pstSwtmr->uwCount == 0)
 1080              		.loc 1 430 11
 1081 000c 3EE0     		b	.L67
 1082              	.L73:
 431:/home/fanxinhao/Work/LiteOS_Lab_2/iot_link/os/liteos/base/core/los_swtmr.c ****     {
 432:/home/fanxinhao/Work/LiteOS_Lab_2/iot_link/os/liteos/base/core/los_swtmr.c ****         m_pstSwtmrSortList = pstSwtmr->pstNext;
 1083              		.loc 1 432 38
 1084 000e FB68     		ldr	r3, [r7, #12]
 1085 0010 1B68     		ldr	r3, [r3]
 1086              		.loc 1 432 28
 1087 0012 244A     		ldr	r2, .L75
 1088 0014 1360     		str	r3, [r2]
 433:/home/fanxinhao/Work/LiteOS_Lab_2/iot_link/os/liteos/base/core/los_swtmr.c ****         stSwtmrHandler.pfnHandler = pstSwtmr->pfnHandler;
 1089              		.loc 1 433 45
 1090 0016 FB68     		ldr	r3, [r7, #12]
 1091 0018 9B69     		ldr	r3, [r3, #24]
 1092              		.loc 1 433 35
 1093 001a 7B60     		str	r3, [r7, #4]
 434:/home/fanxinhao/Work/LiteOS_Lab_2/iot_link/os/liteos/base/core/los_swtmr.c ****         stSwtmrHandler.uwArg = pstSwtmr->uwArg;
 1094              		.loc 1 434 40
 1095 001c FB68     		ldr	r3, [r7, #12]
 1096 001e 5B69     		ldr	r3, [r3, #20]
 1097              		.loc 1 434 30
 1098 0020 BB60     		str	r3, [r7, #8]
 435:/home/fanxinhao/Work/LiteOS_Lab_2/iot_link/os/liteos/base/core/los_swtmr.c ****         (VOID)LOS_QueueWriteCopy(m_uwSwTmrHandlerQueue, &stSwtmrHandler, sizeof(SWTMR_HANDLER_ITEM_
 1099              		.loc 1 435 9
 1100 0022 214B     		ldr	r3, .L75+4
 1101 0024 1868     		ldr	r0, [r3]
 1102              		.loc 1 435 15
 1103 0026 391D     		adds	r1, r7, #4
ARM GAS  /tmp/ccjyDFlJ.s 			page 28


 1104 0028 0023     		movs	r3, #0
 1105 002a 0822     		movs	r2, #8
 1106 002c FFF7FEFF 		bl	LOS_QueueWriteCopy
 436:/home/fanxinhao/Work/LiteOS_Lab_2/iot_link/os/liteos/base/core/los_swtmr.c ****         if (pstSwtmr->ucMode == LOS_SWTMR_MODE_ONCE)
 1107              		.loc 1 436 21
 1108 0030 FB68     		ldr	r3, [r7, #12]
 1109 0032 5B79     		ldrb	r3, [r3, #5]	@ zero_extendqisi2
 1110              		.loc 1 436 12
 1111 0034 002B     		cmp	r3, #0
 1112 0036 17D1     		bne	.L68
 437:/home/fanxinhao/Work/LiteOS_Lab_2/iot_link/os/liteos/base/core/los_swtmr.c ****         {
 438:/home/fanxinhao/Work/LiteOS_Lab_2/iot_link/os/liteos/base/core/los_swtmr.c ****             osSwtmrDelete(pstSwtmr);
 1113              		.loc 1 438 13
 1114 0038 F868     		ldr	r0, [r7, #12]
 1115 003a FFF7FEFF 		bl	osSwtmrDelete
 439:/home/fanxinhao/Work/LiteOS_Lab_2/iot_link/os/liteos/base/core/los_swtmr.c ****             if (pstSwtmr->usTimerID < OS_SWTMR_MAX_TIMERID - LOSCFG_BASE_CORE_SWTMR_LIMIT)
 1116              		.loc 1 439 25
 1117 003e FB68     		ldr	r3, [r7, #12]
 1118 0040 1B89     		ldrh	r3, [r3, #8]
 1119              		.loc 1 439 16
 1120 0042 4FF6DF72 		movw	r2, #65503
 1121 0046 9342     		cmp	r3, r2
 1122 0048 06D8     		bhi	.L69
 440:/home/fanxinhao/Work/LiteOS_Lab_2/iot_link/os/liteos/base/core/los_swtmr.c ****                 pstSwtmr->usTimerID += LOSCFG_BASE_CORE_SWTMR_LIMIT;
 1123              		.loc 1 440 37
 1124 004a FB68     		ldr	r3, [r7, #12]
 1125 004c 1B89     		ldrh	r3, [r3, #8]
 1126 004e 1033     		adds	r3, r3, #16
 1127 0050 9AB2     		uxth	r2, r3
 1128 0052 FB68     		ldr	r3, [r7, #12]
 1129 0054 1A81     		strh	r2, [r3, #8]	@ movhi
 1130 0056 16E0     		b	.L70
 1131              	.L69:
 441:/home/fanxinhao/Work/LiteOS_Lab_2/iot_link/os/liteos/base/core/los_swtmr.c ****             else
 442:/home/fanxinhao/Work/LiteOS_Lab_2/iot_link/os/liteos/base/core/los_swtmr.c ****                 pstSwtmr->usTimerID %= LOSCFG_BASE_CORE_SWTMR_LIMIT;
 1132              		.loc 1 442 37
 1133 0058 FB68     		ldr	r3, [r7, #12]
 1134 005a 1B89     		ldrh	r3, [r3, #8]
 1135 005c 03F00F03 		and	r3, r3, #15
 1136 0060 9AB2     		uxth	r2, r3
 1137 0062 FB68     		ldr	r3, [r7, #12]
 1138 0064 1A81     		strh	r2, [r3, #8]	@ movhi
 1139 0066 0EE0     		b	.L70
 1140              	.L68:
 443:/home/fanxinhao/Work/LiteOS_Lab_2/iot_link/os/liteos/base/core/los_swtmr.c ****         }
 444:/home/fanxinhao/Work/LiteOS_Lab_2/iot_link/os/liteos/base/core/los_swtmr.c ****         else if ( pstSwtmr->ucMode == LOS_SWTMR_MODE_PERIOD)
 1141              		.loc 1 444 27
 1142 0068 FB68     		ldr	r3, [r7, #12]
 1143 006a 5B79     		ldrb	r3, [r3, #5]	@ zero_extendqisi2
 1144              		.loc 1 444 17
 1145 006c 012B     		cmp	r3, #1
 1146 006e 03D1     		bne	.L71
 445:/home/fanxinhao/Work/LiteOS_Lab_2/iot_link/os/liteos/base/core/los_swtmr.c ****         {
 446:/home/fanxinhao/Work/LiteOS_Lab_2/iot_link/os/liteos/base/core/los_swtmr.c ****             osSwTmrStart(pstSwtmr);
 1147              		.loc 1 446 13
 1148 0070 F868     		ldr	r0, [r7, #12]
 1149 0072 FFF7FEFF 		bl	osSwTmrStart
ARM GAS  /tmp/ccjyDFlJ.s 			page 29


 1150 0076 06E0     		b	.L70
 1151              	.L71:
 447:/home/fanxinhao/Work/LiteOS_Lab_2/iot_link/os/liteos/base/core/los_swtmr.c ****         }
 448:/home/fanxinhao/Work/LiteOS_Lab_2/iot_link/os/liteos/base/core/los_swtmr.c ****         else if (pstSwtmr->ucMode == LOS_SWTMR_MODE_NO_SELFDELETE)
 1152              		.loc 1 448 26
 1153 0078 FB68     		ldr	r3, [r7, #12]
 1154 007a 5B79     		ldrb	r3, [r3, #5]	@ zero_extendqisi2
 1155              		.loc 1 448 17
 1156 007c 022B     		cmp	r3, #2
 1157 007e 02D1     		bne	.L70
 449:/home/fanxinhao/Work/LiteOS_Lab_2/iot_link/os/liteos/base/core/los_swtmr.c ****         {
 450:/home/fanxinhao/Work/LiteOS_Lab_2/iot_link/os/liteos/base/core/los_swtmr.c ****             pstSwtmr->ucState = OS_SWTMR_STATUS_CREATED;
 1158              		.loc 1 450 31
 1159 0080 FB68     		ldr	r3, [r7, #12]
 1160 0082 0122     		movs	r2, #1
 1161 0084 1A71     		strb	r2, [r3, #4]
 1162              	.L70:
 451:/home/fanxinhao/Work/LiteOS_Lab_2/iot_link/os/liteos/base/core/los_swtmr.c ****         }
 452:/home/fanxinhao/Work/LiteOS_Lab_2/iot_link/os/liteos/base/core/los_swtmr.c **** 
 453:/home/fanxinhao/Work/LiteOS_Lab_2/iot_link/os/liteos/base/core/los_swtmr.c ****         pstSwtmr = m_pstSwtmrSortList;
 1163              		.loc 1 453 18
 1164 0086 074B     		ldr	r3, .L75
 1165 0088 1B68     		ldr	r3, [r3]
 1166 008a FB60     		str	r3, [r7, #12]
 1167              	.L67:
 430:/home/fanxinhao/Work/LiteOS_Lab_2/iot_link/os/liteos/base/core/los_swtmr.c ****     {
 1168              		.loc 1 430 11
 1169 008c FB68     		ldr	r3, [r7, #12]
 1170 008e 002B     		cmp	r3, #0
 1171 0090 03D0     		beq	.L74
 430:/home/fanxinhao/Work/LiteOS_Lab_2/iot_link/os/liteos/base/core/los_swtmr.c ****     {
 1172              		.loc 1 430 40 discriminator 1
 1173 0092 FB68     		ldr	r3, [r7, #12]
 1174 0094 DB68     		ldr	r3, [r3, #12]
 430:/home/fanxinhao/Work/LiteOS_Lab_2/iot_link/os/liteos/base/core/los_swtmr.c ****     {
 1175              		.loc 1 430 29 discriminator 1
 1176 0096 002B     		cmp	r3, #0
 1177 0098 B9D0     		beq	.L73
 1178              	.L74:
 454:/home/fanxinhao/Work/LiteOS_Lab_2/iot_link/os/liteos/base/core/los_swtmr.c ****     }
 455:/home/fanxinhao/Work/LiteOS_Lab_2/iot_link/os/liteos/base/core/los_swtmr.c **** }
 1179              		.loc 1 455 1
 1180 009a 00BF     		nop
 1181 009c 1037     		adds	r7, r7, #16
 1182              	.LCFI34:
 1183              		.cfi_def_cfa_offset 8
 1184 009e BD46     		mov	sp, r7
 1185              	.LCFI35:
 1186              		.cfi_def_cfa_register 13
 1187              		@ sp needed
 1188 00a0 80BD     		pop	{r7, pc}
 1189              	.L76:
 1190 00a2 00BF     		.align	2
 1191              	.L75:
 1192 00a4 00000000 		.word	m_pstSwtmrSortList
 1193 00a8 00000000 		.word	m_uwSwTmrHandlerQueue
 1194              		.cfi_endproc
ARM GAS  /tmp/ccjyDFlJ.s 			page 30


 1195              	.LFE139:
 1197              		.section	.text.osSwtmrScan,"ax",%progbits
 1198              		.align	1
 1199              		.global	osSwtmrScan
 1200              		.syntax unified
 1201              		.thumb
 1202              		.thumb_func
 1203              		.fpu fpv4-sp-d16
 1205              	osSwtmrScan:
 1206              	.LFB140:
 456:/home/fanxinhao/Work/LiteOS_Lab_2/iot_link/os/liteos/base/core/los_swtmr.c **** 
 457:/home/fanxinhao/Work/LiteOS_Lab_2/iot_link/os/liteos/base/core/los_swtmr.c **** /*****************************************************************************
 458:/home/fanxinhao/Work/LiteOS_Lab_2/iot_link/os/liteos/base/core/los_swtmr.c **** Function   : osSwtmrScan
 459:/home/fanxinhao/Work/LiteOS_Lab_2/iot_link/os/liteos/base/core/los_swtmr.c **** Description: Tick interrupt interface module of Software Timer
 460:/home/fanxinhao/Work/LiteOS_Lab_2/iot_link/os/liteos/base/core/los_swtmr.c **** Input      : None
 461:/home/fanxinhao/Work/LiteOS_Lab_2/iot_link/os/liteos/base/core/los_swtmr.c **** Output     : None
 462:/home/fanxinhao/Work/LiteOS_Lab_2/iot_link/os/liteos/base/core/los_swtmr.c **** Return     : LOS_OK on success or error code on failure
 463:/home/fanxinhao/Work/LiteOS_Lab_2/iot_link/os/liteos/base/core/los_swtmr.c **** *****************************************************************************/
 464:/home/fanxinhao/Work/LiteOS_Lab_2/iot_link/os/liteos/base/core/los_swtmr.c **** LITE_OS_SEC_TEXT UINT32 osSwtmrScan(VOID)
 465:/home/fanxinhao/Work/LiteOS_Lab_2/iot_link/os/liteos/base/core/los_swtmr.c **** {
 1207              		.loc 1 465 1
 1208              		.cfi_startproc
 1209              		@ args = 0, pretend = 0, frame = 0
 1210              		@ frame_needed = 1, uses_anonymous_args = 0
 1211 0000 80B5     		push	{r7, lr}
 1212              	.LCFI36:
 1213              		.cfi_def_cfa_offset 8
 1214              		.cfi_offset 7, -8
 1215              		.cfi_offset 14, -4
 1216 0002 00AF     		add	r7, sp, #0
 1217              	.LCFI37:
 1218              		.cfi_def_cfa_register 7
 466:/home/fanxinhao/Work/LiteOS_Lab_2/iot_link/os/liteos/base/core/los_swtmr.c ****     if (m_pstSwtmrSortList != NULL)
 1219              		.loc 1 466 28
 1220 0004 084B     		ldr	r3, .L80
 1221 0006 1B68     		ldr	r3, [r3]
 1222              		.loc 1 466 8
 1223 0008 002B     		cmp	r3, #0
 1224 000a 09D0     		beq	.L78
 467:/home/fanxinhao/Work/LiteOS_Lab_2/iot_link/os/liteos/base/core/los_swtmr.c ****     {
 468:/home/fanxinhao/Work/LiteOS_Lab_2/iot_link/os/liteos/base/core/los_swtmr.c ****         if (--(m_pstSwtmrSortList->uwCount) == 0)
 1225              		.loc 1 468 34
 1226 000c 064B     		ldr	r3, .L80
 1227 000e 1B68     		ldr	r3, [r3]
 1228 0010 DA68     		ldr	r2, [r3, #12]
 1229              		.loc 1 468 13
 1230 0012 013A     		subs	r2, r2, #1
 1231              		.loc 1 468 12
 1232 0014 DA60     		str	r2, [r3, #12]
 1233              		.loc 1 468 34
 1234 0016 DB68     		ldr	r3, [r3, #12]
 1235              		.loc 1 468 12
 1236 0018 002B     		cmp	r3, #0
 1237 001a 01D1     		bne	.L78
 469:/home/fanxinhao/Work/LiteOS_Lab_2/iot_link/os/liteos/base/core/los_swtmr.c ****         {
 470:/home/fanxinhao/Work/LiteOS_Lab_2/iot_link/os/liteos/base/core/los_swtmr.c ****             osSwTmrTimeoutHandle();
 1238              		.loc 1 470 13
ARM GAS  /tmp/ccjyDFlJ.s 			page 31


 1239 001c FFF7FEFF 		bl	osSwTmrTimeoutHandle
 1240              	.L78:
 471:/home/fanxinhao/Work/LiteOS_Lab_2/iot_link/os/liteos/base/core/los_swtmr.c ****         }
 472:/home/fanxinhao/Work/LiteOS_Lab_2/iot_link/os/liteos/base/core/los_swtmr.c ****     }
 473:/home/fanxinhao/Work/LiteOS_Lab_2/iot_link/os/liteos/base/core/los_swtmr.c ****     return LOS_OK;
 1241              		.loc 1 473 12
 1242 0020 0023     		movs	r3, #0
 474:/home/fanxinhao/Work/LiteOS_Lab_2/iot_link/os/liteos/base/core/los_swtmr.c **** }
 1243              		.loc 1 474 1
 1244 0022 1846     		mov	r0, r3
 1245 0024 80BD     		pop	{r7, pc}
 1246              	.L81:
 1247 0026 00BF     		.align	2
 1248              	.L80:
 1249 0028 00000000 		.word	m_pstSwtmrSortList
 1250              		.cfi_endproc
 1251              	.LFE140:
 1253              		.section	.text.osSwtimerInsert,"ax",%progbits
 1254              		.align	1
 1255              		.global	osSwtimerInsert
 1256              		.syntax unified
 1257              		.thumb
 1258              		.thumb_func
 1259              		.fpu fpv4-sp-d16
 1261              	osSwtimerInsert:
 1262              	.LFB141:
 475:/home/fanxinhao/Work/LiteOS_Lab_2/iot_link/os/liteos/base/core/los_swtmr.c **** 
 476:/home/fanxinhao/Work/LiteOS_Lab_2/iot_link/os/liteos/base/core/los_swtmr.c **** /*****************************************************************************
 477:/home/fanxinhao/Work/LiteOS_Lab_2/iot_link/os/liteos/base/core/los_swtmr.c **** Function   : osSwTmrGetNextTimeout
 478:/home/fanxinhao/Work/LiteOS_Lab_2/iot_link/os/liteos/base/core/los_swtmr.c **** Description: Get next timeout
 479:/home/fanxinhao/Work/LiteOS_Lab_2/iot_link/os/liteos/base/core/los_swtmr.c **** Input      : None
 480:/home/fanxinhao/Work/LiteOS_Lab_2/iot_link/os/liteos/base/core/los_swtmr.c **** Output     : None
 481:/home/fanxinhao/Work/LiteOS_Lab_2/iot_link/os/liteos/base/core/los_swtmr.c **** Return     : Count of the Timer list
 482:/home/fanxinhao/Work/LiteOS_Lab_2/iot_link/os/liteos/base/core/los_swtmr.c **** *****************************************************************************/
 483:/home/fanxinhao/Work/LiteOS_Lab_2/iot_link/os/liteos/base/core/los_swtmr.c **** #if (LOSCFG_KERNEL_TICKLESS == YES)
 484:/home/fanxinhao/Work/LiteOS_Lab_2/iot_link/os/liteos/base/core/los_swtmr.c **** #if (LOSCFG_BASE_CORE_SWTMR_ALIGN == YES)
 485:/home/fanxinhao/Work/LiteOS_Lab_2/iot_link/os/liteos/base/core/los_swtmr.c **** LITE_OS_SEC_TEXT UINT32 osSwTmrGetNextTimeout(VOID)
 486:/home/fanxinhao/Work/LiteOS_Lab_2/iot_link/os/liteos/base/core/los_swtmr.c **** {
 487:/home/fanxinhao/Work/LiteOS_Lab_2/iot_link/os/liteos/base/core/los_swtmr.c ****     SWTMR_CTRL_S *pstCur = NULL;
 488:/home/fanxinhao/Work/LiteOS_Lab_2/iot_link/os/liteos/base/core/los_swtmr.c ****     UINT32 uwTmpTime = 0, uwSleepTime = 0;
 489:/home/fanxinhao/Work/LiteOS_Lab_2/iot_link/os/liteos/base/core/los_swtmr.c **** 
 490:/home/fanxinhao/Work/LiteOS_Lab_2/iot_link/os/liteos/base/core/los_swtmr.c ****     pstCur = m_pstSwtmrSortList;
 491:/home/fanxinhao/Work/LiteOS_Lab_2/iot_link/os/liteos/base/core/los_swtmr.c **** 
 492:/home/fanxinhao/Work/LiteOS_Lab_2/iot_link/os/liteos/base/core/los_swtmr.c ****     //find first timer can wakeup the system
 493:/home/fanxinhao/Work/LiteOS_Lab_2/iot_link/os/liteos/base/core/los_swtmr.c ****     while (pstCur != NULL)
 494:/home/fanxinhao/Work/LiteOS_Lab_2/iot_link/os/liteos/base/core/los_swtmr.c ****     {
 495:/home/fanxinhao/Work/LiteOS_Lab_2/iot_link/os/liteos/base/core/los_swtmr.c ****         if(OS_SWTMR_ROUSES_ALLOW == pstCur->ucRouses)
 496:/home/fanxinhao/Work/LiteOS_Lab_2/iot_link/os/liteos/base/core/los_swtmr.c ****         {
 497:/home/fanxinhao/Work/LiteOS_Lab_2/iot_link/os/liteos/base/core/los_swtmr.c ****             m_pstRouses = pstCur;
 498:/home/fanxinhao/Work/LiteOS_Lab_2/iot_link/os/liteos/base/core/los_swtmr.c ****             break;
 499:/home/fanxinhao/Work/LiteOS_Lab_2/iot_link/os/liteos/base/core/los_swtmr.c ****         }
 500:/home/fanxinhao/Work/LiteOS_Lab_2/iot_link/os/liteos/base/core/los_swtmr.c **** 
 501:/home/fanxinhao/Work/LiteOS_Lab_2/iot_link/os/liteos/base/core/los_swtmr.c ****         uwTmpTime += pstCur->uwCount;
 502:/home/fanxinhao/Work/LiteOS_Lab_2/iot_link/os/liteos/base/core/los_swtmr.c ****         m_pstRousesPrev = pstCur;
 503:/home/fanxinhao/Work/LiteOS_Lab_2/iot_link/os/liteos/base/core/los_swtmr.c ****         pstCur = pstCur->pstNext;
 504:/home/fanxinhao/Work/LiteOS_Lab_2/iot_link/os/liteos/base/core/los_swtmr.c ****     }
 505:/home/fanxinhao/Work/LiteOS_Lab_2/iot_link/os/liteos/base/core/los_swtmr.c **** 
ARM GAS  /tmp/ccjyDFlJ.s 			page 32


 506:/home/fanxinhao/Work/LiteOS_Lab_2/iot_link/os/liteos/base/core/los_swtmr.c ****     if(pstCur != NULL)
 507:/home/fanxinhao/Work/LiteOS_Lab_2/iot_link/os/liteos/base/core/los_swtmr.c ****     {
 508:/home/fanxinhao/Work/LiteOS_Lab_2/iot_link/os/liteos/base/core/los_swtmr.c ****         uwSleepTime = pstCur->uwCount + uwTmpTime;
 509:/home/fanxinhao/Work/LiteOS_Lab_2/iot_link/os/liteos/base/core/los_swtmr.c ****         m_uwSwtimerRousesTime  = uwSleepTime;
 510:/home/fanxinhao/Work/LiteOS_Lab_2/iot_link/os/liteos/base/core/los_swtmr.c ****     }
 511:/home/fanxinhao/Work/LiteOS_Lab_2/iot_link/os/liteos/base/core/los_swtmr.c ****     else
 512:/home/fanxinhao/Work/LiteOS_Lab_2/iot_link/os/liteos/base/core/los_swtmr.c ****     {
 513:/home/fanxinhao/Work/LiteOS_Lab_2/iot_link/os/liteos/base/core/los_swtmr.c ****         return    0xFFFFFFFF;
 514:/home/fanxinhao/Work/LiteOS_Lab_2/iot_link/os/liteos/base/core/los_swtmr.c ****     }
 515:/home/fanxinhao/Work/LiteOS_Lab_2/iot_link/os/liteos/base/core/los_swtmr.c **** 
 516:/home/fanxinhao/Work/LiteOS_Lab_2/iot_link/os/liteos/base/core/los_swtmr.c ****     return uwSleepTime;
 517:/home/fanxinhao/Work/LiteOS_Lab_2/iot_link/os/liteos/base/core/los_swtmr.c **** }
 518:/home/fanxinhao/Work/LiteOS_Lab_2/iot_link/os/liteos/base/core/los_swtmr.c **** #else
 519:/home/fanxinhao/Work/LiteOS_Lab_2/iot_link/os/liteos/base/core/los_swtmr.c **** LITE_OS_SEC_TEXT UINT32 osSwTmrGetNextTimeout(VOID)
 520:/home/fanxinhao/Work/LiteOS_Lab_2/iot_link/os/liteos/base/core/los_swtmr.c **** {
 521:/home/fanxinhao/Work/LiteOS_Lab_2/iot_link/os/liteos/base/core/los_swtmr.c ****     if (m_pstSwtmrSortList == NULL)
 522:/home/fanxinhao/Work/LiteOS_Lab_2/iot_link/os/liteos/base/core/los_swtmr.c ****     {
 523:/home/fanxinhao/Work/LiteOS_Lab_2/iot_link/os/liteos/base/core/los_swtmr.c ****         return 0xFFFFFFFF;
 524:/home/fanxinhao/Work/LiteOS_Lab_2/iot_link/os/liteos/base/core/los_swtmr.c ****     }
 525:/home/fanxinhao/Work/LiteOS_Lab_2/iot_link/os/liteos/base/core/los_swtmr.c ****     return m_pstSwtmrSortList->uwCount;
 526:/home/fanxinhao/Work/LiteOS_Lab_2/iot_link/os/liteos/base/core/los_swtmr.c **** }
 527:/home/fanxinhao/Work/LiteOS_Lab_2/iot_link/os/liteos/base/core/los_swtmr.c **** #endif
 528:/home/fanxinhao/Work/LiteOS_Lab_2/iot_link/os/liteos/base/core/los_swtmr.c **** #endif
 529:/home/fanxinhao/Work/LiteOS_Lab_2/iot_link/os/liteos/base/core/los_swtmr.c **** 
 530:/home/fanxinhao/Work/LiteOS_Lab_2/iot_link/os/liteos/base/core/los_swtmr.c **** /*****************************************************************************
 531:/home/fanxinhao/Work/LiteOS_Lab_2/iot_link/os/liteos/base/core/los_swtmr.c **** Function   : osSwtimerInsert
 532:/home/fanxinhao/Work/LiteOS_Lab_2/iot_link/os/liteos/base/core/los_swtmr.c **** Description: Insert a list of swtmr
 533:/home/fanxinhao/Work/LiteOS_Lab_2/iot_link/os/liteos/base/core/los_swtmr.c **** Input      : None
 534:/home/fanxinhao/Work/LiteOS_Lab_2/iot_link/os/liteos/base/core/los_swtmr.c **** Output     : None
 535:/home/fanxinhao/Work/LiteOS_Lab_2/iot_link/os/liteos/base/core/los_swtmr.c **** Return     : None
 536:/home/fanxinhao/Work/LiteOS_Lab_2/iot_link/os/liteos/base/core/los_swtmr.c **** *****************************************************************************/
 537:/home/fanxinhao/Work/LiteOS_Lab_2/iot_link/os/liteos/base/core/los_swtmr.c **** #if (LOSCFG_BASE_CORE_SWTMR_ALIGN == YES)
 538:/home/fanxinhao/Work/LiteOS_Lab_2/iot_link/os/liteos/base/core/los_swtmr.c **** LITE_OS_SEC_TEXT VOID osSwtimerInsert(SWTMR_CTRL_S **pstHead, SWTMR_CTRL_S *pstSwtmr)
 539:/home/fanxinhao/Work/LiteOS_Lab_2/iot_link/os/liteos/base/core/los_swtmr.c **** {
 1263              		.loc 1 539 1
 1264              		.cfi_startproc
 1265              		@ args = 0, pretend = 0, frame = 24
 1266              		@ frame_needed = 1, uses_anonymous_args = 0
 1267              		@ link register save eliminated.
 1268 0000 80B4     		push	{r7}
 1269              	.LCFI38:
 1270              		.cfi_def_cfa_offset 4
 1271              		.cfi_offset 7, -4
 1272 0002 87B0     		sub	sp, sp, #28
 1273              	.LCFI39:
 1274              		.cfi_def_cfa_offset 32
 1275 0004 00AF     		add	r7, sp, #0
 1276              	.LCFI40:
 1277              		.cfi_def_cfa_register 7
 1278 0006 7860     		str	r0, [r7, #4]
 1279 0008 3960     		str	r1, [r7]
 540:/home/fanxinhao/Work/LiteOS_Lab_2/iot_link/os/liteos/base/core/los_swtmr.c ****     SWTMR_CTRL_S *pstPrev = NULL;
 1280              		.loc 1 540 19
 1281 000a 0023     		movs	r3, #0
 1282 000c 7B61     		str	r3, [r7, #20]
 541:/home/fanxinhao/Work/LiteOS_Lab_2/iot_link/os/liteos/base/core/los_swtmr.c ****     SWTMR_CTRL_S *pstNextTmp = pstSwtmr->pstNext;
 1283              		.loc 1 541 19
ARM GAS  /tmp/ccjyDFlJ.s 			page 33


 1284 000e 3B68     		ldr	r3, [r7]
 1285 0010 1B68     		ldr	r3, [r3]
 1286 0012 3B61     		str	r3, [r7, #16]
 542:/home/fanxinhao/Work/LiteOS_Lab_2/iot_link/os/liteos/base/core/los_swtmr.c ****     SWTMR_CTRL_S *pstCur = *pstHead;
 1287              		.loc 1 542 19
 1288 0014 7B68     		ldr	r3, [r7, #4]
 1289 0016 1B68     		ldr	r3, [r3]
 1290 0018 FB60     		str	r3, [r7, #12]
 543:/home/fanxinhao/Work/LiteOS_Lab_2/iot_link/os/liteos/base/core/los_swtmr.c **** 
 544:/home/fanxinhao/Work/LiteOS_Lab_2/iot_link/os/liteos/base/core/los_swtmr.c ****     while(pstSwtmr!=NULL)
 1291              		.loc 1 544 10
 1292 001a 34E0     		b	.L83
 1293              	.L87:
 545:/home/fanxinhao/Work/LiteOS_Lab_2/iot_link/os/liteos/base/core/los_swtmr.c ****     {
 546:/home/fanxinhao/Work/LiteOS_Lab_2/iot_link/os/liteos/base/core/los_swtmr.c ****         while (pstCur != NULL)
 547:/home/fanxinhao/Work/LiteOS_Lab_2/iot_link/os/liteos/base/core/los_swtmr.c ****         {
 548:/home/fanxinhao/Work/LiteOS_Lab_2/iot_link/os/liteos/base/core/los_swtmr.c ****             if (pstCur->uwCount > pstSwtmr->uwCount)
 1294              		.loc 1 548 23
 1295 001c FB68     		ldr	r3, [r7, #12]
 1296 001e DA68     		ldr	r2, [r3, #12]
 1297              		.loc 1 548 43
 1298 0020 3B68     		ldr	r3, [r7]
 1299 0022 DB68     		ldr	r3, [r3, #12]
 1300              		.loc 1 548 16
 1301 0024 9A42     		cmp	r2, r3
 1302 0026 0FD8     		bhi	.L93
 549:/home/fanxinhao/Work/LiteOS_Lab_2/iot_link/os/liteos/base/core/los_swtmr.c ****             {
 550:/home/fanxinhao/Work/LiteOS_Lab_2/iot_link/os/liteos/base/core/los_swtmr.c ****                 break;
 551:/home/fanxinhao/Work/LiteOS_Lab_2/iot_link/os/liteos/base/core/los_swtmr.c ****             }
 552:/home/fanxinhao/Work/LiteOS_Lab_2/iot_link/os/liteos/base/core/los_swtmr.c **** 
 553:/home/fanxinhao/Work/LiteOS_Lab_2/iot_link/os/liteos/base/core/los_swtmr.c ****             pstSwtmr->uwCount -= pstCur->uwCount;
 1303              		.loc 1 553 31
 1304 0028 3B68     		ldr	r3, [r7]
 1305 002a DA68     		ldr	r2, [r3, #12]
 1306              		.loc 1 553 40
 1307 002c FB68     		ldr	r3, [r7, #12]
 1308 002e DB68     		ldr	r3, [r3, #12]
 1309              		.loc 1 553 31
 1310 0030 D21A     		subs	r2, r2, r3
 1311 0032 3B68     		ldr	r3, [r7]
 1312 0034 DA60     		str	r2, [r3, #12]
 554:/home/fanxinhao/Work/LiteOS_Lab_2/iot_link/os/liteos/base/core/los_swtmr.c ****             pstPrev = pstCur;
 1313              		.loc 1 554 21
 1314 0036 FB68     		ldr	r3, [r7, #12]
 1315 0038 7B61     		str	r3, [r7, #20]
 555:/home/fanxinhao/Work/LiteOS_Lab_2/iot_link/os/liteos/base/core/los_swtmr.c ****             pstCur = pstCur->pstNext;
 1316              		.loc 1 555 20
 1317 003a FB68     		ldr	r3, [r7, #12]
 1318 003c 1B68     		ldr	r3, [r3]
 1319 003e FB60     		str	r3, [r7, #12]
 1320              	.L84:
 546:/home/fanxinhao/Work/LiteOS_Lab_2/iot_link/os/liteos/base/core/los_swtmr.c ****         {
 1321              		.loc 1 546 15
 1322 0040 FB68     		ldr	r3, [r7, #12]
 1323 0042 002B     		cmp	r3, #0
 1324 0044 EAD1     		bne	.L87
 1325 0046 00E0     		b	.L86
ARM GAS  /tmp/ccjyDFlJ.s 			page 34


 1326              	.L93:
 550:/home/fanxinhao/Work/LiteOS_Lab_2/iot_link/os/liteos/base/core/los_swtmr.c ****             }
 1327              		.loc 1 550 17
 1328 0048 00BF     		nop
 1329              	.L86:
 556:/home/fanxinhao/Work/LiteOS_Lab_2/iot_link/os/liteos/base/core/los_swtmr.c ****         }
 557:/home/fanxinhao/Work/LiteOS_Lab_2/iot_link/os/liteos/base/core/los_swtmr.c ****         pstSwtmr->pstNext = pstCur;
 1330              		.loc 1 557 27
 1331 004a 3B68     		ldr	r3, [r7]
 1332 004c FA68     		ldr	r2, [r7, #12]
 1333 004e 1A60     		str	r2, [r3]
 558:/home/fanxinhao/Work/LiteOS_Lab_2/iot_link/os/liteos/base/core/los_swtmr.c **** 
 559:/home/fanxinhao/Work/LiteOS_Lab_2/iot_link/os/liteos/base/core/los_swtmr.c ****         if (pstCur != NULL)
 1334              		.loc 1 559 12
 1335 0050 FB68     		ldr	r3, [r7, #12]
 1336 0052 002B     		cmp	r3, #0
 1337 0054 06D0     		beq	.L88
 560:/home/fanxinhao/Work/LiteOS_Lab_2/iot_link/os/liteos/base/core/los_swtmr.c ****         {
 561:/home/fanxinhao/Work/LiteOS_Lab_2/iot_link/os/liteos/base/core/los_swtmr.c ****             pstCur->uwCount -= pstSwtmr->uwCount;
 1338              		.loc 1 561 29
 1339 0056 FB68     		ldr	r3, [r7, #12]
 1340 0058 DA68     		ldr	r2, [r3, #12]
 1341              		.loc 1 561 40
 1342 005a 3B68     		ldr	r3, [r7]
 1343 005c DB68     		ldr	r3, [r3, #12]
 1344              		.loc 1 561 29
 1345 005e D21A     		subs	r2, r2, r3
 1346 0060 FB68     		ldr	r3, [r7, #12]
 1347 0062 DA60     		str	r2, [r3, #12]
 1348              	.L88:
 562:/home/fanxinhao/Work/LiteOS_Lab_2/iot_link/os/liteos/base/core/los_swtmr.c ****         }
 563:/home/fanxinhao/Work/LiteOS_Lab_2/iot_link/os/liteos/base/core/los_swtmr.c ****         if (pstPrev == NULL)
 1349              		.loc 1 563 12
 1350 0064 7B69     		ldr	r3, [r7, #20]
 1351 0066 002B     		cmp	r3, #0
 1352 0068 03D1     		bne	.L89
 564:/home/fanxinhao/Work/LiteOS_Lab_2/iot_link/os/liteos/base/core/los_swtmr.c ****         {
 565:/home/fanxinhao/Work/LiteOS_Lab_2/iot_link/os/liteos/base/core/los_swtmr.c ****             *pstHead = pstSwtmr;
 1353              		.loc 1 565 22
 1354 006a 7B68     		ldr	r3, [r7, #4]
 1355 006c 3A68     		ldr	r2, [r7]
 1356 006e 1A60     		str	r2, [r3]
 1357 0070 02E0     		b	.L90
 1358              	.L89:
 566:/home/fanxinhao/Work/LiteOS_Lab_2/iot_link/os/liteos/base/core/los_swtmr.c ****         }
 567:/home/fanxinhao/Work/LiteOS_Lab_2/iot_link/os/liteos/base/core/los_swtmr.c ****         else
 568:/home/fanxinhao/Work/LiteOS_Lab_2/iot_link/os/liteos/base/core/los_swtmr.c ****         {
 569:/home/fanxinhao/Work/LiteOS_Lab_2/iot_link/os/liteos/base/core/los_swtmr.c ****             pstPrev->pstNext = pstSwtmr;
 1359              		.loc 1 569 30
 1360 0072 7B69     		ldr	r3, [r7, #20]
 1361 0074 3A68     		ldr	r2, [r7]
 1362 0076 1A60     		str	r2, [r3]
 1363              	.L90:
 570:/home/fanxinhao/Work/LiteOS_Lab_2/iot_link/os/liteos/base/core/los_swtmr.c ****         }
 571:/home/fanxinhao/Work/LiteOS_Lab_2/iot_link/os/liteos/base/core/los_swtmr.c **** 
 572:/home/fanxinhao/Work/LiteOS_Lab_2/iot_link/os/liteos/base/core/los_swtmr.c ****         pstPrev = pstSwtmr;
 1364              		.loc 1 572 17
ARM GAS  /tmp/ccjyDFlJ.s 			page 35


 1365 0078 3B68     		ldr	r3, [r7]
 1366 007a 7B61     		str	r3, [r7, #20]
 573:/home/fanxinhao/Work/LiteOS_Lab_2/iot_link/os/liteos/base/core/los_swtmr.c ****         pstSwtmr = pstNextTmp;
 1367              		.loc 1 573 18
 1368 007c 3B69     		ldr	r3, [r7, #16]
 1369 007e 3B60     		str	r3, [r7]
 574:/home/fanxinhao/Work/LiteOS_Lab_2/iot_link/os/liteos/base/core/los_swtmr.c ****         pstNextTmp = pstNextTmp->pstNext;
 1370              		.loc 1 574 20
 1371 0080 3B69     		ldr	r3, [r7, #16]
 1372 0082 1B68     		ldr	r3, [r3]
 1373 0084 3B61     		str	r3, [r7, #16]
 1374              	.L83:
 544:/home/fanxinhao/Work/LiteOS_Lab_2/iot_link/os/liteos/base/core/los_swtmr.c ****     {
 1375              		.loc 1 544 10
 1376 0086 3B68     		ldr	r3, [r7]
 1377 0088 002B     		cmp	r3, #0
 1378 008a D9D1     		bne	.L84
 575:/home/fanxinhao/Work/LiteOS_Lab_2/iot_link/os/liteos/base/core/los_swtmr.c ****     }
 576:/home/fanxinhao/Work/LiteOS_Lab_2/iot_link/os/liteos/base/core/los_swtmr.c **** 
 577:/home/fanxinhao/Work/LiteOS_Lab_2/iot_link/os/liteos/base/core/los_swtmr.c ****     return;
 1379              		.loc 1 577 5
 1380 008c 00BF     		nop
 578:/home/fanxinhao/Work/LiteOS_Lab_2/iot_link/os/liteos/base/core/los_swtmr.c **** }
 1381              		.loc 1 578 1
 1382 008e 1C37     		adds	r7, r7, #28
 1383              	.LCFI41:
 1384              		.cfi_def_cfa_offset 4
 1385 0090 BD46     		mov	sp, r7
 1386              	.LCFI42:
 1387              		.cfi_def_cfa_register 13
 1388              		@ sp needed
 1389 0092 5DF8047B 		ldr	r7, [sp], #4
 1390              	.LCFI43:
 1391              		.cfi_restore 7
 1392              		.cfi_def_cfa_offset 0
 1393 0096 7047     		bx	lr
 1394              		.cfi_endproc
 1395              	.LFE141:
 1397              		.section	.text.osSwTmrAdjust,"ax",%progbits
 1398              		.align	1
 1399              		.global	osSwTmrAdjust
 1400              		.syntax unified
 1401              		.thumb
 1402              		.thumb_func
 1403              		.fpu fpv4-sp-d16
 1405              	osSwTmrAdjust:
 1406              	.LFB142:
 579:/home/fanxinhao/Work/LiteOS_Lab_2/iot_link/os/liteos/base/core/los_swtmr.c **** #endif
 580:/home/fanxinhao/Work/LiteOS_Lab_2/iot_link/os/liteos/base/core/los_swtmr.c **** 
 581:/home/fanxinhao/Work/LiteOS_Lab_2/iot_link/os/liteos/base/core/los_swtmr.c **** /*****************************************************************************
 582:/home/fanxinhao/Work/LiteOS_Lab_2/iot_link/os/liteos/base/core/los_swtmr.c **** Function   : osSwTmrAdjust
 583:/home/fanxinhao/Work/LiteOS_Lab_2/iot_link/os/liteos/base/core/los_swtmr.c **** Description: Adjust Software Timer list
 584:/home/fanxinhao/Work/LiteOS_Lab_2/iot_link/os/liteos/base/core/los_swtmr.c **** Input      : sleep_time
 585:/home/fanxinhao/Work/LiteOS_Lab_2/iot_link/os/liteos/base/core/los_swtmr.c **** Output     : None
 586:/home/fanxinhao/Work/LiteOS_Lab_2/iot_link/os/liteos/base/core/los_swtmr.c **** Return     : None
 587:/home/fanxinhao/Work/LiteOS_Lab_2/iot_link/os/liteos/base/core/los_swtmr.c **** *****************************************************************************/
 588:/home/fanxinhao/Work/LiteOS_Lab_2/iot_link/os/liteos/base/core/los_swtmr.c **** #if (LOSCFG_BASE_CORE_SWTMR_ALIGN == YES)
ARM GAS  /tmp/ccjyDFlJ.s 			page 36


 589:/home/fanxinhao/Work/LiteOS_Lab_2/iot_link/os/liteos/base/core/los_swtmr.c **** LITE_OS_SEC_TEXT VOID osSwTmrAdjust(UINT32 uwSleepTime)
 590:/home/fanxinhao/Work/LiteOS_Lab_2/iot_link/os/liteos/base/core/los_swtmr.c **** {
 1407              		.loc 1 590 1
 1408              		.cfi_startproc
 1409              		@ args = 0, pretend = 0, frame = 16
 1410              		@ frame_needed = 1, uses_anonymous_args = 0
 1411 0000 80B5     		push	{r7, lr}
 1412              	.LCFI44:
 1413              		.cfi_def_cfa_offset 8
 1414              		.cfi_offset 7, -8
 1415              		.cfi_offset 14, -4
 1416 0002 84B0     		sub	sp, sp, #16
 1417              	.LCFI45:
 1418              		.cfi_def_cfa_offset 24
 1419 0004 00AF     		add	r7, sp, #0
 1420              	.LCFI46:
 1421              		.cfi_def_cfa_register 7
 1422 0006 7860     		str	r0, [r7, #4]
 591:/home/fanxinhao/Work/LiteOS_Lab_2/iot_link/os/liteos/base/core/los_swtmr.c ****     SWTMR_CTRL_S  *pstCur = NULL;
 1423              		.loc 1 591 20
 1424 0008 0023     		movs	r3, #0
 1425 000a FB60     		str	r3, [r7, #12]
 592:/home/fanxinhao/Work/LiteOS_Lab_2/iot_link/os/liteos/base/core/los_swtmr.c **** 
 593:/home/fanxinhao/Work/LiteOS_Lab_2/iot_link/os/liteos/base/core/los_swtmr.c ****     if(m_pstRouses == NULL)
 1426              		.loc 1 593 20
 1427 000c 234B     		ldr	r3, .L102
 1428 000e 1B68     		ldr	r3, [r3]
 1429              		.loc 1 593 7
 1430 0010 002B     		cmp	r3, #0
 1431 0012 3ED0     		beq	.L101
 594:/home/fanxinhao/Work/LiteOS_Lab_2/iot_link/os/liteos/base/core/los_swtmr.c ****         return;
 595:/home/fanxinhao/Work/LiteOS_Lab_2/iot_link/os/liteos/base/core/los_swtmr.c **** 
 596:/home/fanxinhao/Work/LiteOS_Lab_2/iot_link/os/liteos/base/core/los_swtmr.c ****     if (uwSleepTime > m_uwSwtimerRousesTime)
 1432              		.loc 1 596 21
 1433 0014 224B     		ldr	r3, .L102+4
 1434 0016 1B68     		ldr	r3, [r3]
 1435              		.loc 1 596 8
 1436 0018 7A68     		ldr	r2, [r7, #4]
 1437 001a 9A42     		cmp	r2, r3
 1438 001c 02D9     		bls	.L97
 597:/home/fanxinhao/Work/LiteOS_Lab_2/iot_link/os/liteos/base/core/los_swtmr.c ****     {
 598:/home/fanxinhao/Work/LiteOS_Lab_2/iot_link/os/liteos/base/core/los_swtmr.c ****         uwSleepTime = m_uwSwtimerRousesTime;
 1439              		.loc 1 598 21
 1440 001e 204B     		ldr	r3, .L102+4
 1441 0020 1B68     		ldr	r3, [r3]
 1442 0022 7B60     		str	r3, [r7, #4]
 1443              	.L97:
 599:/home/fanxinhao/Work/LiteOS_Lab_2/iot_link/os/liteos/base/core/los_swtmr.c ****     }
 600:/home/fanxinhao/Work/LiteOS_Lab_2/iot_link/os/liteos/base/core/los_swtmr.c **** 
 601:/home/fanxinhao/Work/LiteOS_Lab_2/iot_link/os/liteos/base/core/los_swtmr.c ****     if(uwSleepTime <= m_pstRouses->uwCount)
 1444              		.loc 1 601 34
 1445 0024 1D4B     		ldr	r3, .L102
 1446 0026 1B68     		ldr	r3, [r3]
 1447 0028 DB68     		ldr	r3, [r3, #12]
 1448              		.loc 1 601 7
 1449 002a 7A68     		ldr	r2, [r7, #4]
 1450 002c 9A42     		cmp	r2, r3
ARM GAS  /tmp/ccjyDFlJ.s 			page 37


 1451 002e 08D8     		bhi	.L98
 602:/home/fanxinhao/Work/LiteOS_Lab_2/iot_link/os/liteos/base/core/los_swtmr.c ****     {
 603:/home/fanxinhao/Work/LiteOS_Lab_2/iot_link/os/liteos/base/core/los_swtmr.c ****         m_pstRouses->uwCount -= uwSleepTime;
 1452              		.loc 1 603 30
 1453 0030 1A4B     		ldr	r3, .L102
 1454 0032 1B68     		ldr	r3, [r3]
 1455 0034 D968     		ldr	r1, [r3, #12]
 1456 0036 194B     		ldr	r3, .L102
 1457 0038 1B68     		ldr	r3, [r3]
 1458 003a 7A68     		ldr	r2, [r7, #4]
 1459 003c 8A1A     		subs	r2, r1, r2
 1460 003e DA60     		str	r2, [r3, #12]
 1461 0040 19E0     		b	.L99
 1462              	.L98:
 604:/home/fanxinhao/Work/LiteOS_Lab_2/iot_link/os/liteos/base/core/los_swtmr.c ****     }
 605:/home/fanxinhao/Work/LiteOS_Lab_2/iot_link/os/liteos/base/core/los_swtmr.c ****     else
 606:/home/fanxinhao/Work/LiteOS_Lab_2/iot_link/os/liteos/base/core/los_swtmr.c ****     {
 607:/home/fanxinhao/Work/LiteOS_Lab_2/iot_link/os/liteos/base/core/los_swtmr.c ****         m_pstRouses->uwCount = m_uwSwtimerRousesTime - uwSleepTime;
 1463              		.loc 1 607 54
 1464 0042 174B     		ldr	r3, .L102+4
 1465 0044 1968     		ldr	r1, [r3]
 1466              		.loc 1 607 20
 1467 0046 154B     		ldr	r3, .L102
 1468 0048 1B68     		ldr	r3, [r3]
 1469              		.loc 1 607 54
 1470 004a 7A68     		ldr	r2, [r7, #4]
 1471 004c 8A1A     		subs	r2, r1, r2
 1472              		.loc 1 607 30
 1473 004e DA60     		str	r2, [r3, #12]
 608:/home/fanxinhao/Work/LiteOS_Lab_2/iot_link/os/liteos/base/core/los_swtmr.c **** 
 609:/home/fanxinhao/Work/LiteOS_Lab_2/iot_link/os/liteos/base/core/los_swtmr.c ****         if(m_pstRousesPrev!=NULL)
 1474              		.loc 1 609 27
 1475 0050 144B     		ldr	r3, .L102+8
 1476 0052 1B68     		ldr	r3, [r3]
 1477              		.loc 1 609 11
 1478 0054 002B     		cmp	r3, #0
 1479 0056 0ED0     		beq	.L99
 610:/home/fanxinhao/Work/LiteOS_Lab_2/iot_link/os/liteos/base/core/los_swtmr.c ****         {
 611:/home/fanxinhao/Work/LiteOS_Lab_2/iot_link/os/liteos/base/core/los_swtmr.c ****             m_pstRousesPrev->pstNext = NULL;
 1480              		.loc 1 611 28
 1481 0058 124B     		ldr	r3, .L102+8
 1482 005a 1B68     		ldr	r3, [r3]
 1483              		.loc 1 611 38
 1484 005c 0022     		movs	r2, #0
 1485 005e 1A60     		str	r2, [r3]
 612:/home/fanxinhao/Work/LiteOS_Lab_2/iot_link/os/liteos/base/core/los_swtmr.c ****             pstCur = m_pstSwtmrSortList;
 1486              		.loc 1 612 20
 1487 0060 114B     		ldr	r3, .L102+12
 1488 0062 1B68     		ldr	r3, [r3]
 1489 0064 FB60     		str	r3, [r7, #12]
 613:/home/fanxinhao/Work/LiteOS_Lab_2/iot_link/os/liteos/base/core/los_swtmr.c ****             osSwtimerInsert(&m_pstRouses,pstCur);
 1490              		.loc 1 613 13
 1491 0066 F968     		ldr	r1, [r7, #12]
 1492 0068 0C48     		ldr	r0, .L102
 1493 006a FFF7FEFF 		bl	osSwtimerInsert
 614:/home/fanxinhao/Work/LiteOS_Lab_2/iot_link/os/liteos/base/core/los_swtmr.c ****             m_pstSwtmrSortList = m_pstRouses;
 1494              		.loc 1 614 32
ARM GAS  /tmp/ccjyDFlJ.s 			page 38


 1495 006e 0B4B     		ldr	r3, .L102
 1496 0070 1B68     		ldr	r3, [r3]
 1497 0072 0D4A     		ldr	r2, .L102+12
 1498 0074 1360     		str	r3, [r2]
 1499              	.L99:
 615:/home/fanxinhao/Work/LiteOS_Lab_2/iot_link/os/liteos/base/core/los_swtmr.c ****         }
 616:/home/fanxinhao/Work/LiteOS_Lab_2/iot_link/os/liteos/base/core/los_swtmr.c ****     }
 617:/home/fanxinhao/Work/LiteOS_Lab_2/iot_link/os/liteos/base/core/los_swtmr.c ****     if (m_pstSwtmrSortList->uwCount == 0)
 1500              		.loc 1 617 27
 1501 0076 0C4B     		ldr	r3, .L102+12
 1502 0078 1B68     		ldr	r3, [r3]
 1503 007a DB68     		ldr	r3, [r3, #12]
 1504              		.loc 1 617 8
 1505 007c 002B     		cmp	r3, #0
 1506 007e 01D1     		bne	.L100
 618:/home/fanxinhao/Work/LiteOS_Lab_2/iot_link/os/liteos/base/core/los_swtmr.c ****     {
 619:/home/fanxinhao/Work/LiteOS_Lab_2/iot_link/os/liteos/base/core/los_swtmr.c ****         osSwTmrTimeoutHandle();
 1507              		.loc 1 619 9
 1508 0080 FFF7FEFF 		bl	osSwTmrTimeoutHandle
 1509              	.L100:
 620:/home/fanxinhao/Work/LiteOS_Lab_2/iot_link/os/liteos/base/core/los_swtmr.c ****     }
 621:/home/fanxinhao/Work/LiteOS_Lab_2/iot_link/os/liteos/base/core/los_swtmr.c **** 
 622:/home/fanxinhao/Work/LiteOS_Lab_2/iot_link/os/liteos/base/core/los_swtmr.c ****     m_pstRouses = NULL;
 1510              		.loc 1 622 17
 1511 0084 054B     		ldr	r3, .L102
 1512 0086 0022     		movs	r2, #0
 1513 0088 1A60     		str	r2, [r3]
 623:/home/fanxinhao/Work/LiteOS_Lab_2/iot_link/os/liteos/base/core/los_swtmr.c ****     m_pstRousesPrev = NULL;
 1514              		.loc 1 623 21
 1515 008a 064B     		ldr	r3, .L102+8
 1516 008c 0022     		movs	r2, #0
 1517 008e 1A60     		str	r2, [r3]
 1518 0090 00E0     		b	.L94
 1519              	.L101:
 594:/home/fanxinhao/Work/LiteOS_Lab_2/iot_link/os/liteos/base/core/los_swtmr.c **** 
 1520              		.loc 1 594 9
 1521 0092 00BF     		nop
 1522              	.L94:
 624:/home/fanxinhao/Work/LiteOS_Lab_2/iot_link/os/liteos/base/core/los_swtmr.c **** }
 1523              		.loc 1 624 1
 1524 0094 1037     		adds	r7, r7, #16
 1525              	.LCFI47:
 1526              		.cfi_def_cfa_offset 8
 1527 0096 BD46     		mov	sp, r7
 1528              	.LCFI48:
 1529              		.cfi_def_cfa_register 13
 1530              		@ sp needed
 1531 0098 80BD     		pop	{r7, pc}
 1532              	.L103:
 1533 009a 00BF     		.align	2
 1534              	.L102:
 1535 009c 00000000 		.word	m_pstRouses
 1536 00a0 00000000 		.word	m_uwSwtimerRousesTime
 1537 00a4 00000000 		.word	m_pstRousesPrev
 1538 00a8 00000000 		.word	m_pstSwtmrSortList
 1539              		.cfi_endproc
 1540              	.LFE142:
ARM GAS  /tmp/ccjyDFlJ.s 			page 39


 1542              		.section	.text.osSwtmrTimeGet,"ax",%progbits
 1543              		.align	1
 1544              		.global	osSwtmrTimeGet
 1545              		.syntax unified
 1546              		.thumb
 1547              		.thumb_func
 1548              		.fpu fpv4-sp-d16
 1550              	osSwtmrTimeGet:
 1551              	.LFB143:
 625:/home/fanxinhao/Work/LiteOS_Lab_2/iot_link/os/liteos/base/core/los_swtmr.c **** #else
 626:/home/fanxinhao/Work/LiteOS_Lab_2/iot_link/os/liteos/base/core/los_swtmr.c **** LITE_OS_SEC_TEXT VOID osSwTmrAdjust(UINT32 uwSleepTime)
 627:/home/fanxinhao/Work/LiteOS_Lab_2/iot_link/os/liteos/base/core/los_swtmr.c **** {
 628:/home/fanxinhao/Work/LiteOS_Lab_2/iot_link/os/liteos/base/core/los_swtmr.c ****     if (m_pstSwtmrSortList == NULL)
 629:/home/fanxinhao/Work/LiteOS_Lab_2/iot_link/os/liteos/base/core/los_swtmr.c ****     {
 630:/home/fanxinhao/Work/LiteOS_Lab_2/iot_link/os/liteos/base/core/los_swtmr.c ****         return ;
 631:/home/fanxinhao/Work/LiteOS_Lab_2/iot_link/os/liteos/base/core/los_swtmr.c ****     }
 632:/home/fanxinhao/Work/LiteOS_Lab_2/iot_link/os/liteos/base/core/los_swtmr.c **** 
 633:/home/fanxinhao/Work/LiteOS_Lab_2/iot_link/os/liteos/base/core/los_swtmr.c ****     if (uwSleepTime > m_pstSwtmrSortList->uwCount)
 634:/home/fanxinhao/Work/LiteOS_Lab_2/iot_link/os/liteos/base/core/los_swtmr.c ****     {
 635:/home/fanxinhao/Work/LiteOS_Lab_2/iot_link/os/liteos/base/core/los_swtmr.c ****         uwSleepTime = m_pstSwtmrSortList->uwCount;
 636:/home/fanxinhao/Work/LiteOS_Lab_2/iot_link/os/liteos/base/core/los_swtmr.c ****     }
 637:/home/fanxinhao/Work/LiteOS_Lab_2/iot_link/os/liteos/base/core/los_swtmr.c **** 
 638:/home/fanxinhao/Work/LiteOS_Lab_2/iot_link/os/liteos/base/core/los_swtmr.c ****     m_pstSwtmrSortList->uwCount -= uwSleepTime;
 639:/home/fanxinhao/Work/LiteOS_Lab_2/iot_link/os/liteos/base/core/los_swtmr.c **** 
 640:/home/fanxinhao/Work/LiteOS_Lab_2/iot_link/os/liteos/base/core/los_swtmr.c ****     if (m_pstSwtmrSortList->uwCount == 0)
 641:/home/fanxinhao/Work/LiteOS_Lab_2/iot_link/os/liteos/base/core/los_swtmr.c ****     {
 642:/home/fanxinhao/Work/LiteOS_Lab_2/iot_link/os/liteos/base/core/los_swtmr.c ****         osSwTmrTimeoutHandle();
 643:/home/fanxinhao/Work/LiteOS_Lab_2/iot_link/os/liteos/base/core/los_swtmr.c ****     }
 644:/home/fanxinhao/Work/LiteOS_Lab_2/iot_link/os/liteos/base/core/los_swtmr.c **** }
 645:/home/fanxinhao/Work/LiteOS_Lab_2/iot_link/os/liteos/base/core/los_swtmr.c **** #endif
 646:/home/fanxinhao/Work/LiteOS_Lab_2/iot_link/os/liteos/base/core/los_swtmr.c **** 
 647:/home/fanxinhao/Work/LiteOS_Lab_2/iot_link/os/liteos/base/core/los_swtmr.c **** /*****************************************************************************
 648:/home/fanxinhao/Work/LiteOS_Lab_2/iot_link/os/liteos/base/core/los_swtmr.c **** Function   : osSwtmrTimeGet
 649:/home/fanxinhao/Work/LiteOS_Lab_2/iot_link/os/liteos/base/core/los_swtmr.c **** Description:Obtain a software timer ticks.
 650:/home/fanxinhao/Work/LiteOS_Lab_2/iot_link/os/liteos/base/core/los_swtmr.c **** Input       : pstSwtmr
 651:/home/fanxinhao/Work/LiteOS_Lab_2/iot_link/os/liteos/base/core/los_swtmr.c **** Output     : None
 652:/home/fanxinhao/Work/LiteOS_Lab_2/iot_link/os/liteos/base/core/los_swtmr.c **** Return     : None
 653:/home/fanxinhao/Work/LiteOS_Lab_2/iot_link/os/liteos/base/core/los_swtmr.c **** Other      : None
 654:/home/fanxinhao/Work/LiteOS_Lab_2/iot_link/os/liteos/base/core/los_swtmr.c **** *****************************************************************************/
 655:/home/fanxinhao/Work/LiteOS_Lab_2/iot_link/os/liteos/base/core/los_swtmr.c **** LITE_OS_SEC_TEXT UINT32 osSwtmrTimeGet(SWTMR_CTRL_S *pstSwtmr)
 656:/home/fanxinhao/Work/LiteOS_Lab_2/iot_link/os/liteos/base/core/los_swtmr.c **** {
 1552              		.loc 1 656 1
 1553              		.cfi_startproc
 1554              		@ args = 0, pretend = 0, frame = 16
 1555              		@ frame_needed = 1, uses_anonymous_args = 0
 1556              		@ link register save eliminated.
 1557 0000 80B4     		push	{r7}
 1558              	.LCFI49:
 1559              		.cfi_def_cfa_offset 4
 1560              		.cfi_offset 7, -4
 1561 0002 85B0     		sub	sp, sp, #20
 1562              	.LCFI50:
 1563              		.cfi_def_cfa_offset 24
 1564 0004 00AF     		add	r7, sp, #0
 1565              	.LCFI51:
 1566              		.cfi_def_cfa_register 7
 1567 0006 7860     		str	r0, [r7, #4]
ARM GAS  /tmp/ccjyDFlJ.s 			page 40


 657:/home/fanxinhao/Work/LiteOS_Lab_2/iot_link/os/liteos/base/core/los_swtmr.c ****     SWTMR_CTRL_S *pstCur = (SWTMR_CTRL_S *)NULL;
 1568              		.loc 1 657 19
 1569 0008 0023     		movs	r3, #0
 1570 000a FB60     		str	r3, [r7, #12]
 658:/home/fanxinhao/Work/LiteOS_Lab_2/iot_link/os/liteos/base/core/los_swtmr.c ****     UINT32 uwTick = 0;
 1571              		.loc 1 658 12
 1572 000c 0023     		movs	r3, #0
 1573 000e BB60     		str	r3, [r7, #8]
 659:/home/fanxinhao/Work/LiteOS_Lab_2/iot_link/os/liteos/base/core/los_swtmr.c **** 
 660:/home/fanxinhao/Work/LiteOS_Lab_2/iot_link/os/liteos/base/core/los_swtmr.c ****     pstCur = m_pstSwtmrSortList;
 1574              		.loc 1 660 12
 1575 0010 0B4B     		ldr	r3, .L111
 1576 0012 1B68     		ldr	r3, [r3]
 1577 0014 FB60     		str	r3, [r7, #12]
 1578              	.L107:
 661:/home/fanxinhao/Work/LiteOS_Lab_2/iot_link/os/liteos/base/core/los_swtmr.c ****     while (1)
 662:/home/fanxinhao/Work/LiteOS_Lab_2/iot_link/os/liteos/base/core/los_swtmr.c ****     {
 663:/home/fanxinhao/Work/LiteOS_Lab_2/iot_link/os/liteos/base/core/los_swtmr.c ****         uwTick += pstCur->uwCount;
 1579              		.loc 1 663 25
 1580 0016 FB68     		ldr	r3, [r7, #12]
 1581 0018 DB68     		ldr	r3, [r3, #12]
 1582              		.loc 1 663 16
 1583 001a BA68     		ldr	r2, [r7, #8]
 1584 001c 1344     		add	r3, r3, r2
 1585 001e BB60     		str	r3, [r7, #8]
 664:/home/fanxinhao/Work/LiteOS_Lab_2/iot_link/os/liteos/base/core/los_swtmr.c ****         if (pstCur == pstSwtmr)
 1586              		.loc 1 664 12
 1587 0020 FA68     		ldr	r2, [r7, #12]
 1588 0022 7B68     		ldr	r3, [r7, #4]
 1589 0024 9A42     		cmp	r2, r3
 1590 0026 03D0     		beq	.L110
 665:/home/fanxinhao/Work/LiteOS_Lab_2/iot_link/os/liteos/base/core/los_swtmr.c ****         {
 666:/home/fanxinhao/Work/LiteOS_Lab_2/iot_link/os/liteos/base/core/los_swtmr.c ****             break;
 667:/home/fanxinhao/Work/LiteOS_Lab_2/iot_link/os/liteos/base/core/los_swtmr.c ****         }
 668:/home/fanxinhao/Work/LiteOS_Lab_2/iot_link/os/liteos/base/core/los_swtmr.c **** 
 669:/home/fanxinhao/Work/LiteOS_Lab_2/iot_link/os/liteos/base/core/los_swtmr.c ****         pstCur = pstCur->pstNext;
 1591              		.loc 1 669 16
 1592 0028 FB68     		ldr	r3, [r7, #12]
 1593 002a 1B68     		ldr	r3, [r3]
 1594 002c FB60     		str	r3, [r7, #12]
 663:/home/fanxinhao/Work/LiteOS_Lab_2/iot_link/os/liteos/base/core/los_swtmr.c ****         if (pstCur == pstSwtmr)
 1595              		.loc 1 663 16
 1596 002e F2E7     		b	.L107
 1597              	.L110:
 666:/home/fanxinhao/Work/LiteOS_Lab_2/iot_link/os/liteos/base/core/los_swtmr.c ****         }
 1598              		.loc 1 666 13
 1599 0030 00BF     		nop
 670:/home/fanxinhao/Work/LiteOS_Lab_2/iot_link/os/liteos/base/core/los_swtmr.c ****     }
 671:/home/fanxinhao/Work/LiteOS_Lab_2/iot_link/os/liteos/base/core/los_swtmr.c **** 
 672:/home/fanxinhao/Work/LiteOS_Lab_2/iot_link/os/liteos/base/core/los_swtmr.c ****     return uwTick;
 1600              		.loc 1 672 12
 1601 0032 BB68     		ldr	r3, [r7, #8]
 673:/home/fanxinhao/Work/LiteOS_Lab_2/iot_link/os/liteos/base/core/los_swtmr.c **** }
 1602              		.loc 1 673 1
 1603 0034 1846     		mov	r0, r3
 1604 0036 1437     		adds	r7, r7, #20
 1605              	.LCFI52:
ARM GAS  /tmp/ccjyDFlJ.s 			page 41


 1606              		.cfi_def_cfa_offset 4
 1607 0038 BD46     		mov	sp, r7
 1608              	.LCFI53:
 1609              		.cfi_def_cfa_register 13
 1610              		@ sp needed
 1611 003a 5DF8047B 		ldr	r7, [sp], #4
 1612              	.LCFI54:
 1613              		.cfi_restore 7
 1614              		.cfi_def_cfa_offset 0
 1615 003e 7047     		bx	lr
 1616              	.L112:
 1617              		.align	2
 1618              	.L111:
 1619 0040 00000000 		.word	m_pstSwtmrSortList
 1620              		.cfi_endproc
 1621              	.LFE143:
 1623              		.section	.text.LOS_SwtmrCreate,"ax",%progbits
 1624              		.align	1
 1625              		.global	LOS_SwtmrCreate
 1626              		.syntax unified
 1627              		.thumb
 1628              		.thumb_func
 1629              		.fpu fpv4-sp-d16
 1631              	LOS_SwtmrCreate:
 1632              	.LFB144:
 674:/home/fanxinhao/Work/LiteOS_Lab_2/iot_link/os/liteos/base/core/los_swtmr.c **** 
 675:/home/fanxinhao/Work/LiteOS_Lab_2/iot_link/os/liteos/base/core/los_swtmr.c **** /*****************************************************************************
 676:/home/fanxinhao/Work/LiteOS_Lab_2/iot_link/os/liteos/base/core/los_swtmr.c **** Function   : LOS_SwtmrCreate
 677:/home/fanxinhao/Work/LiteOS_Lab_2/iot_link/os/liteos/base/core/los_swtmr.c **** Description: Create software timer
 678:/home/fanxinhao/Work/LiteOS_Lab_2/iot_link/os/liteos/base/core/los_swtmr.c **** Input      : uwInterval
 679:/home/fanxinhao/Work/LiteOS_Lab_2/iot_link/os/liteos/base/core/los_swtmr.c ****              usMode
 680:/home/fanxinhao/Work/LiteOS_Lab_2/iot_link/os/liteos/base/core/los_swtmr.c ****              pfnHandler
 681:/home/fanxinhao/Work/LiteOS_Lab_2/iot_link/os/liteos/base/core/los_swtmr.c ****              uwArg
 682:/home/fanxinhao/Work/LiteOS_Lab_2/iot_link/os/liteos/base/core/los_swtmr.c **** Output     : pusSwTmrID
 683:/home/fanxinhao/Work/LiteOS_Lab_2/iot_link/os/liteos/base/core/los_swtmr.c **** Return     : LOS_OK on success or error code on failure
 684:/home/fanxinhao/Work/LiteOS_Lab_2/iot_link/os/liteos/base/core/los_swtmr.c **** *****************************************************************************/
 685:/home/fanxinhao/Work/LiteOS_Lab_2/iot_link/os/liteos/base/core/los_swtmr.c **** LITE_OS_SEC_TEXT_INIT UINT32 LOS_SwtmrCreate(UINT32 uwInterval, UINT8 ucMode, SWTMR_PROC_FUNC pfnHa
 686:/home/fanxinhao/Work/LiteOS_Lab_2/iot_link/os/liteos/base/core/los_swtmr.c **** #if (LOSCFG_BASE_CORE_SWTMR_ALIGN == YES)
 687:/home/fanxinhao/Work/LiteOS_Lab_2/iot_link/os/liteos/base/core/los_swtmr.c ****                     , UINT8 ucRouses, UINT8 ucSensitive
 688:/home/fanxinhao/Work/LiteOS_Lab_2/iot_link/os/liteos/base/core/los_swtmr.c **** #endif
 689:/home/fanxinhao/Work/LiteOS_Lab_2/iot_link/os/liteos/base/core/los_swtmr.c ****                     )
 690:/home/fanxinhao/Work/LiteOS_Lab_2/iot_link/os/liteos/base/core/los_swtmr.c **** {
 1633              		.loc 1 690 1
 1634              		.cfi_startproc
 1635              		@ args = 12, pretend = 0, frame = 24
 1636              		@ frame_needed = 1, uses_anonymous_args = 0
 1637 0000 80B5     		push	{r7, lr}
 1638              	.LCFI55:
 1639              		.cfi_def_cfa_offset 8
 1640              		.cfi_offset 7, -8
 1641              		.cfi_offset 14, -4
 1642 0002 86B0     		sub	sp, sp, #24
 1643              	.LCFI56:
 1644              		.cfi_def_cfa_offset 32
 1645 0004 00AF     		add	r7, sp, #0
 1646              	.LCFI57:
 1647              		.cfi_def_cfa_register 7
ARM GAS  /tmp/ccjyDFlJ.s 			page 42


 1648 0006 F860     		str	r0, [r7, #12]
 1649 0008 7A60     		str	r2, [r7, #4]
 1650 000a 3B60     		str	r3, [r7]
 1651 000c 0B46     		mov	r3, r1
 1652 000e FB72     		strb	r3, [r7, #11]
 691:/home/fanxinhao/Work/LiteOS_Lab_2/iot_link/os/liteos/base/core/los_swtmr.c ****     SWTMR_CTRL_S  *pstSwtmr;
 692:/home/fanxinhao/Work/LiteOS_Lab_2/iot_link/os/liteos/base/core/los_swtmr.c ****     UINTPTR  uvIntSave;
 693:/home/fanxinhao/Work/LiteOS_Lab_2/iot_link/os/liteos/base/core/los_swtmr.c **** 
 694:/home/fanxinhao/Work/LiteOS_Lab_2/iot_link/os/liteos/base/core/los_swtmr.c ****     if (0 == uwInterval)
 1653              		.loc 1 694 8
 1654 0010 FB68     		ldr	r3, [r7, #12]
 1655 0012 002B     		cmp	r3, #0
 1656 0014 01D1     		bne	.L114
 695:/home/fanxinhao/Work/LiteOS_Lab_2/iot_link/os/liteos/base/core/los_swtmr.c ****     {
 696:/home/fanxinhao/Work/LiteOS_Lab_2/iot_link/os/liteos/base/core/los_swtmr.c ****         return LOS_ERRNO_SWTMR_INTERVAL_NOT_SUITED;
 1657              		.loc 1 696 16
 1658 0016 334B     		ldr	r3, .L122
 1659 0018 60E0     		b	.L115
 1660              	.L114:
 697:/home/fanxinhao/Work/LiteOS_Lab_2/iot_link/os/liteos/base/core/los_swtmr.c ****     }
 698:/home/fanxinhao/Work/LiteOS_Lab_2/iot_link/os/liteos/base/core/los_swtmr.c **** 
 699:/home/fanxinhao/Work/LiteOS_Lab_2/iot_link/os/liteos/base/core/los_swtmr.c ****     if ((LOS_SWTMR_MODE_ONCE != ucMode)
 1661              		.loc 1 699 8
 1662 001a FB7A     		ldrb	r3, [r7, #11]	@ zero_extendqisi2
 1663 001c 002B     		cmp	r3, #0
 1664 001e 07D0     		beq	.L116
 700:/home/fanxinhao/Work/LiteOS_Lab_2/iot_link/os/liteos/base/core/los_swtmr.c ****         && (LOS_SWTMR_MODE_PERIOD != ucMode)
 1665              		.loc 1 700 9
 1666 0020 FB7A     		ldrb	r3, [r7, #11]	@ zero_extendqisi2
 1667 0022 012B     		cmp	r3, #1
 1668 0024 04D0     		beq	.L116
 701:/home/fanxinhao/Work/LiteOS_Lab_2/iot_link/os/liteos/base/core/los_swtmr.c ****         && (LOS_SWTMR_MODE_NO_SELFDELETE != ucMode))
 1669              		.loc 1 701 9
 1670 0026 FB7A     		ldrb	r3, [r7, #11]	@ zero_extendqisi2
 1671 0028 022B     		cmp	r3, #2
 1672 002a 01D0     		beq	.L116
 702:/home/fanxinhao/Work/LiteOS_Lab_2/iot_link/os/liteos/base/core/los_swtmr.c ****     {
 703:/home/fanxinhao/Work/LiteOS_Lab_2/iot_link/os/liteos/base/core/los_swtmr.c ****         return LOS_ERRNO_SWTMR_MODE_INVALID;
 1673              		.loc 1 703 16
 1674 002c 2E4B     		ldr	r3, .L122+4
 1675 002e 55E0     		b	.L115
 1676              	.L116:
 704:/home/fanxinhao/Work/LiteOS_Lab_2/iot_link/os/liteos/base/core/los_swtmr.c ****     }
 705:/home/fanxinhao/Work/LiteOS_Lab_2/iot_link/os/liteos/base/core/los_swtmr.c **** 
 706:/home/fanxinhao/Work/LiteOS_Lab_2/iot_link/os/liteos/base/core/los_swtmr.c ****     if (NULL == pfnHandler)
 1677              		.loc 1 706 8
 1678 0030 7B68     		ldr	r3, [r7, #4]
 1679 0032 002B     		cmp	r3, #0
 1680 0034 01D1     		bne	.L117
 707:/home/fanxinhao/Work/LiteOS_Lab_2/iot_link/os/liteos/base/core/los_swtmr.c ****     {
 708:/home/fanxinhao/Work/LiteOS_Lab_2/iot_link/os/liteos/base/core/los_swtmr.c ****         return LOS_ERRNO_SWTMR_PTR_NULL;
 1681              		.loc 1 708 16
 1682 0036 2D4B     		ldr	r3, .L122+8
 1683 0038 50E0     		b	.L115
 1684              	.L117:
 709:/home/fanxinhao/Work/LiteOS_Lab_2/iot_link/os/liteos/base/core/los_swtmr.c ****     }
 710:/home/fanxinhao/Work/LiteOS_Lab_2/iot_link/os/liteos/base/core/los_swtmr.c **** 
ARM GAS  /tmp/ccjyDFlJ.s 			page 43


 711:/home/fanxinhao/Work/LiteOS_Lab_2/iot_link/os/liteos/base/core/los_swtmr.c ****     if (NULL == pusSwTmrID)
 1685              		.loc 1 711 8
 1686 003a 3B68     		ldr	r3, [r7]
 1687 003c 002B     		cmp	r3, #0
 1688 003e 01D1     		bne	.L118
 712:/home/fanxinhao/Work/LiteOS_Lab_2/iot_link/os/liteos/base/core/los_swtmr.c ****     {
 713:/home/fanxinhao/Work/LiteOS_Lab_2/iot_link/os/liteos/base/core/los_swtmr.c ****         return LOS_ERRNO_SWTMR_RET_PTR_NULL;
 1689              		.loc 1 713 16
 1690 0040 2B4B     		ldr	r3, .L122+12
 1691 0042 4BE0     		b	.L115
 1692              	.L118:
 714:/home/fanxinhao/Work/LiteOS_Lab_2/iot_link/os/liteos/base/core/los_swtmr.c ****     }
 715:/home/fanxinhao/Work/LiteOS_Lab_2/iot_link/os/liteos/base/core/los_swtmr.c **** 
 716:/home/fanxinhao/Work/LiteOS_Lab_2/iot_link/os/liteos/base/core/los_swtmr.c **** #if (LOSCFG_BASE_CORE_SWTMR_ALIGN == YES)
 717:/home/fanxinhao/Work/LiteOS_Lab_2/iot_link/os/liteos/base/core/los_swtmr.c ****     if((OS_SWTMR_ROUSES_IGNORE != ucRouses)&& (OS_SWTMR_ROUSES_ALLOW != ucRouses))
 1693              		.loc 1 717 7
 1694 0044 97F82430 		ldrb	r3, [r7, #36]	@ zero_extendqisi2
 1695 0048 002B     		cmp	r3, #0
 1696 004a 05D0     		beq	.L119
 1697              		.loc 1 717 44 discriminator 1
 1698 004c 97F82430 		ldrb	r3, [r7, #36]	@ zero_extendqisi2
 1699 0050 012B     		cmp	r3, #1
 1700 0052 01D0     		beq	.L119
 718:/home/fanxinhao/Work/LiteOS_Lab_2/iot_link/os/liteos/base/core/los_swtmr.c ****     {
 719:/home/fanxinhao/Work/LiteOS_Lab_2/iot_link/os/liteos/base/core/los_swtmr.c ****         return OS_ERRNO_SWTMR_ROUSES_INVALID;
 1701              		.loc 1 719 16
 1702 0054 274B     		ldr	r3, .L122+16
 1703 0056 41E0     		b	.L115
 1704              	.L119:
 720:/home/fanxinhao/Work/LiteOS_Lab_2/iot_link/os/liteos/base/core/los_swtmr.c ****     }
 721:/home/fanxinhao/Work/LiteOS_Lab_2/iot_link/os/liteos/base/core/los_swtmr.c **** 
 722:/home/fanxinhao/Work/LiteOS_Lab_2/iot_link/os/liteos/base/core/los_swtmr.c ****     if((OS_SWTMR_ALIGN_INSENSITIVE != ucSensitive)&& (OS_SWTMR_ALIGN_SENSITIVE != ucSensitive))
 1705              		.loc 1 722 7
 1706 0058 97F82830 		ldrb	r3, [r7, #40]	@ zero_extendqisi2
 1707 005c 012B     		cmp	r3, #1
 1708 005e 05D0     		beq	.L120
 1709              		.loc 1 722 51 discriminator 1
 1710 0060 97F82830 		ldrb	r3, [r7, #40]	@ zero_extendqisi2
 1711 0064 002B     		cmp	r3, #0
 1712 0066 01D0     		beq	.L120
 723:/home/fanxinhao/Work/LiteOS_Lab_2/iot_link/os/liteos/base/core/los_swtmr.c ****     {
 724:/home/fanxinhao/Work/LiteOS_Lab_2/iot_link/os/liteos/base/core/los_swtmr.c ****         return OS_ERRNO_SWTMR_ALIGN_INVALID;
 1713              		.loc 1 724 16
 1714 0068 234B     		ldr	r3, .L122+20
 1715 006a 37E0     		b	.L115
 1716              	.L120:
 725:/home/fanxinhao/Work/LiteOS_Lab_2/iot_link/os/liteos/base/core/los_swtmr.c ****     }
 726:/home/fanxinhao/Work/LiteOS_Lab_2/iot_link/os/liteos/base/core/los_swtmr.c **** #endif
 727:/home/fanxinhao/Work/LiteOS_Lab_2/iot_link/os/liteos/base/core/los_swtmr.c **** 
 728:/home/fanxinhao/Work/LiteOS_Lab_2/iot_link/os/liteos/base/core/los_swtmr.c ****     uvIntSave = LOS_IntLock();
 1717              		.loc 1 728 17
 1718 006c FFF7FEFF 		bl	LOS_IntLock
 1719 0070 7861     		str	r0, [r7, #20]
 729:/home/fanxinhao/Work/LiteOS_Lab_2/iot_link/os/liteos/base/core/los_swtmr.c ****     if (NULL == m_pstSwtmrFreeList)
 1720              		.loc 1 729 14
 1721 0072 224B     		ldr	r3, .L122+24
 1722 0074 1B68     		ldr	r3, [r3]
ARM GAS  /tmp/ccjyDFlJ.s 			page 44


 1723              		.loc 1 729 8
 1724 0076 002B     		cmp	r3, #0
 1725 0078 04D1     		bne	.L121
 730:/home/fanxinhao/Work/LiteOS_Lab_2/iot_link/os/liteos/base/core/los_swtmr.c ****     {
 731:/home/fanxinhao/Work/LiteOS_Lab_2/iot_link/os/liteos/base/core/los_swtmr.c ****         LOS_IntRestore(uvIntSave);
 1726              		.loc 1 731 9
 1727 007a 7869     		ldr	r0, [r7, #20]
 1728 007c FFF7FEFF 		bl	LOS_IntRestore
 732:/home/fanxinhao/Work/LiteOS_Lab_2/iot_link/os/liteos/base/core/los_swtmr.c ****         return LOS_ERRNO_SWTMR_MAXSIZE;
 1729              		.loc 1 732 16
 1730 0080 1F4B     		ldr	r3, .L122+28
 1731 0082 2BE0     		b	.L115
 1732              	.L121:
 733:/home/fanxinhao/Work/LiteOS_Lab_2/iot_link/os/liteos/base/core/los_swtmr.c ****     }
 734:/home/fanxinhao/Work/LiteOS_Lab_2/iot_link/os/liteos/base/core/los_swtmr.c **** 
 735:/home/fanxinhao/Work/LiteOS_Lab_2/iot_link/os/liteos/base/core/los_swtmr.c ****     pstSwtmr = m_pstSwtmrFreeList;
 1733              		.loc 1 735 14
 1734 0084 1D4B     		ldr	r3, .L122+24
 1735 0086 1B68     		ldr	r3, [r3]
 1736 0088 3B61     		str	r3, [r7, #16]
 736:/home/fanxinhao/Work/LiteOS_Lab_2/iot_link/os/liteos/base/core/los_swtmr.c ****     m_pstSwtmrFreeList = pstSwtmr->pstNext;
 1737              		.loc 1 736 34
 1738 008a 3B69     		ldr	r3, [r7, #16]
 1739 008c 1B68     		ldr	r3, [r3]
 1740              		.loc 1 736 24
 1741 008e 1B4A     		ldr	r2, .L122+24
 1742 0090 1360     		str	r3, [r2]
 737:/home/fanxinhao/Work/LiteOS_Lab_2/iot_link/os/liteos/base/core/los_swtmr.c ****     LOS_IntRestore(uvIntSave);
 1743              		.loc 1 737 5
 1744 0092 7869     		ldr	r0, [r7, #20]
 1745 0094 FFF7FEFF 		bl	LOS_IntRestore
 738:/home/fanxinhao/Work/LiteOS_Lab_2/iot_link/os/liteos/base/core/los_swtmr.c ****     pstSwtmr->pfnHandler    = pfnHandler;
 1746              		.loc 1 738 29
 1747 0098 3B69     		ldr	r3, [r7, #16]
 1748 009a 7A68     		ldr	r2, [r7, #4]
 1749 009c 9A61     		str	r2, [r3, #24]
 739:/home/fanxinhao/Work/LiteOS_Lab_2/iot_link/os/liteos/base/core/los_swtmr.c ****     pstSwtmr->ucMode        = ucMode;
 1750              		.loc 1 739 29
 1751 009e 3B69     		ldr	r3, [r7, #16]
 1752 00a0 FA7A     		ldrb	r2, [r7, #11]
 1753 00a2 5A71     		strb	r2, [r3, #5]
 740:/home/fanxinhao/Work/LiteOS_Lab_2/iot_link/os/liteos/base/core/los_swtmr.c ****     pstSwtmr->uwInterval    = uwInterval;
 1754              		.loc 1 740 29
 1755 00a4 3B69     		ldr	r3, [r7, #16]
 1756 00a6 FA68     		ldr	r2, [r7, #12]
 1757 00a8 1A61     		str	r2, [r3, #16]
 741:/home/fanxinhao/Work/LiteOS_Lab_2/iot_link/os/liteos/base/core/los_swtmr.c ****     pstSwtmr->pstNext       = (SWTMR_CTRL_S *)NULL;
 1758              		.loc 1 741 29
 1759 00aa 3B69     		ldr	r3, [r7, #16]
 1760 00ac 0022     		movs	r2, #0
 1761 00ae 1A60     		str	r2, [r3]
 742:/home/fanxinhao/Work/LiteOS_Lab_2/iot_link/os/liteos/base/core/los_swtmr.c ****     pstSwtmr->uwCount       = 0;
 1762              		.loc 1 742 29
 1763 00b0 3B69     		ldr	r3, [r7, #16]
 1764 00b2 0022     		movs	r2, #0
 1765 00b4 DA60     		str	r2, [r3, #12]
 743:/home/fanxinhao/Work/LiteOS_Lab_2/iot_link/os/liteos/base/core/los_swtmr.c ****     pstSwtmr->uwArg         = uwArg;
ARM GAS  /tmp/ccjyDFlJ.s 			page 45


 1766              		.loc 1 743 29
 1767 00b6 3B69     		ldr	r3, [r7, #16]
 1768 00b8 3A6A     		ldr	r2, [r7, #32]
 1769 00ba 5A61     		str	r2, [r3, #20]
 744:/home/fanxinhao/Work/LiteOS_Lab_2/iot_link/os/liteos/base/core/los_swtmr.c **** #if (LOSCFG_BASE_CORE_SWTMR_ALIGN == YES)
 745:/home/fanxinhao/Work/LiteOS_Lab_2/iot_link/os/liteos/base/core/los_swtmr.c ****     pstSwtmr->ucRouses      = ucRouses;
 1770              		.loc 1 745 29
 1771 00bc 3B69     		ldr	r3, [r7, #16]
 1772 00be 97F82420 		ldrb	r2, [r7, #36]
 1773 00c2 9A71     		strb	r2, [r3, #6]
 746:/home/fanxinhao/Work/LiteOS_Lab_2/iot_link/os/liteos/base/core/los_swtmr.c ****     pstSwtmr->ucSensitive   = ucSensitive;
 1774              		.loc 1 746 29
 1775 00c4 3B69     		ldr	r3, [r7, #16]
 1776 00c6 97F82820 		ldrb	r2, [r7, #40]
 1777 00ca DA71     		strb	r2, [r3, #7]
 747:/home/fanxinhao/Work/LiteOS_Lab_2/iot_link/os/liteos/base/core/los_swtmr.c **** #endif
 748:/home/fanxinhao/Work/LiteOS_Lab_2/iot_link/os/liteos/base/core/los_swtmr.c ****     pstSwtmr->ucState       = OS_SWTMR_STATUS_CREATED;
 1778              		.loc 1 748 29
 1779 00cc 3B69     		ldr	r3, [r7, #16]
 1780 00ce 0122     		movs	r2, #1
 1781 00d0 1A71     		strb	r2, [r3, #4]
 749:/home/fanxinhao/Work/LiteOS_Lab_2/iot_link/os/liteos/base/core/los_swtmr.c ****     *pusSwTmrID = pstSwtmr->usTimerID;
 1782              		.loc 1 749 27
 1783 00d2 3B69     		ldr	r3, [r7, #16]
 1784 00d4 1A89     		ldrh	r2, [r3, #8]
 1785              		.loc 1 749 17
 1786 00d6 3B68     		ldr	r3, [r7]
 1787 00d8 1A80     		strh	r2, [r3]	@ movhi
 750:/home/fanxinhao/Work/LiteOS_Lab_2/iot_link/os/liteos/base/core/los_swtmr.c **** 
 751:/home/fanxinhao/Work/LiteOS_Lab_2/iot_link/os/liteos/base/core/los_swtmr.c ****     return LOS_OK;
 1788              		.loc 1 751 12
 1789 00da 0023     		movs	r3, #0
 1790              	.L115:
 752:/home/fanxinhao/Work/LiteOS_Lab_2/iot_link/os/liteos/base/core/los_swtmr.c **** }
 1791              		.loc 1 752 1
 1792 00dc 1846     		mov	r0, r3
 1793 00de 1837     		adds	r7, r7, #24
 1794              	.LCFI58:
 1795              		.cfi_def_cfa_offset 8
 1796 00e0 BD46     		mov	sp, r7
 1797              	.LCFI59:
 1798              		.cfi_def_cfa_register 13
 1799              		@ sp needed
 1800 00e2 80BD     		pop	{r7, pc}
 1801              	.L123:
 1802              		.align	2
 1803              	.L122:
 1804 00e4 01030002 		.word	33555201
 1805 00e8 02030002 		.word	33555202
 1806 00ec 00030002 		.word	33555200
 1807 00f0 03030002 		.word	33555203
 1808 00f4 11030002 		.word	33555217
 1809 00f8 12030002 		.word	33555218
 1810 00fc 00000000 		.word	m_pstSwtmrFreeList
 1811 0100 04030002 		.word	33555204
 1812              		.cfi_endproc
 1813              	.LFE144:
ARM GAS  /tmp/ccjyDFlJ.s 			page 46


 1815              		.section	.text.LOS_SwtmrStart,"ax",%progbits
 1816              		.align	1
 1817              		.global	LOS_SwtmrStart
 1818              		.syntax unified
 1819              		.thumb
 1820              		.thumb_func
 1821              		.fpu fpv4-sp-d16
 1823              	LOS_SwtmrStart:
 1824              	.LFB145:
 753:/home/fanxinhao/Work/LiteOS_Lab_2/iot_link/os/liteos/base/core/los_swtmr.c **** 
 754:/home/fanxinhao/Work/LiteOS_Lab_2/iot_link/os/liteos/base/core/los_swtmr.c **** /*****************************************************************************
 755:/home/fanxinhao/Work/LiteOS_Lab_2/iot_link/os/liteos/base/core/los_swtmr.c **** Function   : LOS_SwtmrStart
 756:/home/fanxinhao/Work/LiteOS_Lab_2/iot_link/os/liteos/base/core/los_swtmr.c **** Description: Start software timer
 757:/home/fanxinhao/Work/LiteOS_Lab_2/iot_link/os/liteos/base/core/los_swtmr.c **** Input      : usSwTmrID ------- Software timer ID
 758:/home/fanxinhao/Work/LiteOS_Lab_2/iot_link/os/liteos/base/core/los_swtmr.c **** Output     : None
 759:/home/fanxinhao/Work/LiteOS_Lab_2/iot_link/os/liteos/base/core/los_swtmr.c **** Return     : LOS_OK on success or error code on failure
 760:/home/fanxinhao/Work/LiteOS_Lab_2/iot_link/os/liteos/base/core/los_swtmr.c **** *****************************************************************************/
 761:/home/fanxinhao/Work/LiteOS_Lab_2/iot_link/os/liteos/base/core/los_swtmr.c **** LITE_OS_SEC_TEXT UINT32 LOS_SwtmrStart(UINT16 usSwTmrID)
 762:/home/fanxinhao/Work/LiteOS_Lab_2/iot_link/os/liteos/base/core/los_swtmr.c **** {
 1825              		.loc 1 762 1
 1826              		.cfi_startproc
 1827              		@ args = 0, pretend = 0, frame = 32
 1828              		@ frame_needed = 1, uses_anonymous_args = 0
 1829 0000 80B5     		push	{r7, lr}
 1830              	.LCFI60:
 1831              		.cfi_def_cfa_offset 8
 1832              		.cfi_offset 7, -8
 1833              		.cfi_offset 14, -4
 1834 0002 88B0     		sub	sp, sp, #32
 1835              	.LCFI61:
 1836              		.cfi_def_cfa_offset 40
 1837 0004 00AF     		add	r7, sp, #0
 1838              	.LCFI62:
 1839              		.cfi_def_cfa_register 7
 1840 0006 0346     		mov	r3, r0
 1841 0008 FB80     		strh	r3, [r7, #6]	@ movhi
 763:/home/fanxinhao/Work/LiteOS_Lab_2/iot_link/os/liteos/base/core/los_swtmr.c ****     SWTMR_CTRL_S  *pstSwtmr;
 764:/home/fanxinhao/Work/LiteOS_Lab_2/iot_link/os/liteos/base/core/los_swtmr.c ****     UINTPTR  uvIntSave;
 765:/home/fanxinhao/Work/LiteOS_Lab_2/iot_link/os/liteos/base/core/los_swtmr.c **** #if (LOSCFG_BASE_CORE_SWTMR_ALIGN == YES)
 766:/home/fanxinhao/Work/LiteOS_Lab_2/iot_link/os/liteos/base/core/los_swtmr.c ****     UINT32 uwTimes;
 767:/home/fanxinhao/Work/LiteOS_Lab_2/iot_link/os/liteos/base/core/los_swtmr.c **** #endif
 768:/home/fanxinhao/Work/LiteOS_Lab_2/iot_link/os/liteos/base/core/los_swtmr.c ****     UINT32 uwRet = LOS_OK;
 1842              		.loc 1 768 12
 1843 000a 0023     		movs	r3, #0
 1844 000c FB61     		str	r3, [r7, #28]
 769:/home/fanxinhao/Work/LiteOS_Lab_2/iot_link/os/liteos/base/core/los_swtmr.c ****     UINT16 usSwTmrCBID;
 770:/home/fanxinhao/Work/LiteOS_Lab_2/iot_link/os/liteos/base/core/los_swtmr.c **** 
 771:/home/fanxinhao/Work/LiteOS_Lab_2/iot_link/os/liteos/base/core/los_swtmr.c ****     CHECK_SWTMRID(usSwTmrID, uvIntSave, usSwTmrCBID, pstSwtmr);
 1845              		.loc 1 771 5
 1846 000e FB88     		ldrh	r3, [r7, #6]
 1847 0010 4FF6EF72 		movw	r2, #65519
 1848 0014 9342     		cmp	r3, r2
 1849 0016 01D9     		bls	.L125
 1850              		.loc 1 771 5 is_stmt 0 discriminator 1
 1851 0018 454B     		ldr	r3, .L134
 1852 001a 85E0     		b	.L126
 1853              	.L125:
ARM GAS  /tmp/ccjyDFlJ.s 			page 47


 1854              		.loc 1 771 5 discriminator 2
 1855 001c FFF7FEFF 		bl	LOS_IntLock
 1856 0020 B861     		str	r0, [r7, #24]
 1857 0022 FB88     		ldrh	r3, [r7, #6]	@ movhi
 1858 0024 03F00F03 		and	r3, r3, #15
 1859 0028 FB82     		strh	r3, [r7, #22]	@ movhi
 1860 002a 424B     		ldr	r3, .L134+4
 1861 002c 1968     		ldr	r1, [r3]
 1862 002e FA8A     		ldrh	r2, [r7, #22]
 1863 0030 1346     		mov	r3, r2
 1864 0032 DB00     		lsls	r3, r3, #3
 1865 0034 9B1A     		subs	r3, r3, r2
 1866 0036 9B00     		lsls	r3, r3, #2
 1867 0038 0B44     		add	r3, r3, r1
 1868 003a 3B61     		str	r3, [r7, #16]
 1869 003c 3B69     		ldr	r3, [r7, #16]
 1870 003e 1B89     		ldrh	r3, [r3, #8]
 1871 0040 FA88     		ldrh	r2, [r7, #6]
 1872 0042 9A42     		cmp	r2, r3
 1873 0044 04D0     		beq	.L127
 1874              		.loc 1 771 5 discriminator 3
 1875 0046 B869     		ldr	r0, [r7, #24]
 1876 0048 FFF7FEFF 		bl	LOS_IntRestore
 1877 004c 384B     		ldr	r3, .L134
 1878 004e 6BE0     		b	.L126
 1879              	.L127:
 772:/home/fanxinhao/Work/LiteOS_Lab_2/iot_link/os/liteos/base/core/los_swtmr.c **** #if (LOSCFG_BASE_CORE_SWTMR_ALIGN == YES)
 773:/home/fanxinhao/Work/LiteOS_Lab_2/iot_link/os/liteos/base/core/los_swtmr.c ****     if( OS_SWTMR_ALIGN_INSENSITIVE == pstSwtmr->ucSensitive && LOS_SWTMR_MODE_PERIOD == pstSwtmr->u
 1880              		.loc 1 773 47 is_stmt 1
 1881 0050 3B69     		ldr	r3, [r7, #16]
 1882 0052 DB79     		ldrb	r3, [r3, #7]	@ zero_extendqisi2
 1883              		.loc 1 773 7
 1884 0054 012B     		cmp	r3, #1
 1885 0056 4BD1     		bne	.L128
 1886              		.loc 1 773 97 discriminator 1
 1887 0058 3B69     		ldr	r3, [r7, #16]
 1888 005a 5B79     		ldrb	r3, [r3, #5]	@ zero_extendqisi2
 1889              		.loc 1 773 61 discriminator 1
 1890 005c 012B     		cmp	r3, #1
 1891 005e 47D1     		bne	.L128
 774:/home/fanxinhao/Work/LiteOS_Lab_2/iot_link/os/liteos/base/core/los_swtmr.c ****     {
 775:/home/fanxinhao/Work/LiteOS_Lab_2/iot_link/os/liteos/base/core/los_swtmr.c ****         SET_ALIGN_SWTMR_CAN_ALIGNED(m_uwSwTmrAlignID[pstSwtmr->usTimerID % LOSCFG_BASE_CORE_SWTMR_L
 1892              		.loc 1 775 9
 1893 0060 3B69     		ldr	r3, [r7, #16]
 1894 0062 1B89     		ldrh	r3, [r3, #8]
 1895 0064 03F00F03 		and	r3, r3, #15
 1896 0068 334A     		ldr	r2, .L134+8
 1897 006a 52F82320 		ldr	r2, [r2, r3, lsl #2]
 1898 006e 3B69     		ldr	r3, [r7, #16]
 1899 0070 1B89     		ldrh	r3, [r3, #8]
 1900 0072 03F00F03 		and	r3, r3, #15
 1901 0076 42F08042 		orr	r2, r2, #1073741824
 1902 007a 2F49     		ldr	r1, .L134+8
 1903 007c 41F82320 		str	r2, [r1, r3, lsl #2]
 776:/home/fanxinhao/Work/LiteOS_Lab_2/iot_link/os/liteos/base/core/los_swtmr.c ****         if(pstSwtmr->uwInterval % LOS_COMMON_DIVISOR == 0)
 1904              		.loc 1 776 20
 1905 0080 3B69     		ldr	r3, [r7, #16]
ARM GAS  /tmp/ccjyDFlJ.s 			page 48


 1906 0082 1969     		ldr	r1, [r3, #16]
 1907              		.loc 1 776 33
 1908 0084 2D4B     		ldr	r3, .L134+12
 1909 0086 A3FB0123 		umull	r2, r3, r3, r1
 1910 008a DA08     		lsrs	r2, r3, #3
 1911 008c 1346     		mov	r3, r2
 1912 008e 9B00     		lsls	r3, r3, #2
 1913 0090 1344     		add	r3, r3, r2
 1914 0092 5B00     		lsls	r3, r3, #1
 1915 0094 CA1A     		subs	r2, r1, r3
 1916              		.loc 1 776 11
 1917 0096 002A     		cmp	r2, #0
 1918 0098 2AD1     		bne	.L128
 777:/home/fanxinhao/Work/LiteOS_Lab_2/iot_link/os/liteos/base/core/los_swtmr.c ****         {
 778:/home/fanxinhao/Work/LiteOS_Lab_2/iot_link/os/liteos/base/core/los_swtmr.c ****             SET_ALIGN_SWTMR_CAN_MULTIPLE(m_uwSwTmrAlignID[pstSwtmr->usTimerID % LOSCFG_BASE_CORE_SW
 1919              		.loc 1 778 13
 1920 009a 3B69     		ldr	r3, [r7, #16]
 1921 009c 1B89     		ldrh	r3, [r3, #8]
 1922 009e 03F00F03 		and	r3, r3, #15
 1923 00a2 254A     		ldr	r2, .L134+8
 1924 00a4 52F82320 		ldr	r2, [r2, r3, lsl #2]
 1925 00a8 3B69     		ldr	r3, [r7, #16]
 1926 00aa 1B89     		ldrh	r3, [r3, #8]
 1927 00ac 03F00F03 		and	r3, r3, #15
 1928 00b0 42F00052 		orr	r2, r2, #536870912
 1929 00b4 2049     		ldr	r1, .L134+8
 1930 00b6 41F82320 		str	r2, [r1, r3, lsl #2]
 779:/home/fanxinhao/Work/LiteOS_Lab_2/iot_link/os/liteos/base/core/los_swtmr.c ****             uwTimes = pstSwtmr->uwInterval / (LOS_COMMON_DIVISOR);
 1931              		.loc 1 779 31
 1932 00ba 3B69     		ldr	r3, [r7, #16]
 1933 00bc 1B69     		ldr	r3, [r3, #16]
 1934              		.loc 1 779 21
 1935 00be 1F4A     		ldr	r2, .L134+12
 1936 00c0 A2FB0323 		umull	r2, r3, r2, r3
 1937 00c4 DB08     		lsrs	r3, r3, #3
 1938 00c6 FB60     		str	r3, [r7, #12]
 780:/home/fanxinhao/Work/LiteOS_Lab_2/iot_link/os/liteos/base/core/los_swtmr.c ****             SET_ALIGN_SWTMR_DIVISOR_TIMERS(m_uwSwTmrAlignID[pstSwtmr->usTimerID % LOSCFG_BASE_CORE_
 1939              		.loc 1 780 13
 1940 00c8 FB68     		ldr	r3, [r7, #12]
 1941 00ca 23F07F41 		bic	r1, r3, #-16777216
 1942 00ce 3B69     		ldr	r3, [r7, #16]
 1943 00d0 1B89     		ldrh	r3, [r3, #8]
 1944 00d2 03F00F03 		and	r3, r3, #15
 1945 00d6 184A     		ldr	r2, .L134+8
 1946 00d8 52F82330 		ldr	r3, [r2, r3, lsl #2]
 1947 00dc 03F07F42 		and	r2, r3, #-16777216
 1948 00e0 3B69     		ldr	r3, [r7, #16]
 1949 00e2 1B89     		ldrh	r3, [r3, #8]
 1950 00e4 03F00F03 		and	r3, r3, #15
 1951 00e8 0A43     		orrs	r2, r2, r1
 1952 00ea 1349     		ldr	r1, .L134+8
 1953 00ec 41F82320 		str	r2, [r1, r3, lsl #2]
 1954              	.L128:
 781:/home/fanxinhao/Work/LiteOS_Lab_2/iot_link/os/liteos/base/core/los_swtmr.c ****         }
 782:/home/fanxinhao/Work/LiteOS_Lab_2/iot_link/os/liteos/base/core/los_swtmr.c ****     }
 783:/home/fanxinhao/Work/LiteOS_Lab_2/iot_link/os/liteos/base/core/los_swtmr.c ****  #endif
 784:/home/fanxinhao/Work/LiteOS_Lab_2/iot_link/os/liteos/base/core/los_swtmr.c **** 
ARM GAS  /tmp/ccjyDFlJ.s 			page 49


 785:/home/fanxinhao/Work/LiteOS_Lab_2/iot_link/os/liteos/base/core/los_swtmr.c ****     switch (pstSwtmr->ucState)
 1955              		.loc 1 785 21
 1956 00f0 3B69     		ldr	r3, [r7, #16]
 1957 00f2 1B79     		ldrb	r3, [r3, #4]	@ zero_extendqisi2
 1958              		.loc 1 785 5
 1959 00f4 022B     		cmp	r3, #2
 1960 00f6 09D0     		beq	.L129
 1961 00f8 022B     		cmp	r3, #2
 1962 00fa 0EDC     		bgt	.L130
 1963 00fc 002B     		cmp	r3, #0
 1964 00fe 02D0     		beq	.L131
 1965 0100 012B     		cmp	r3, #1
 1966 0102 06D0     		beq	.L132
 1967 0104 09E0     		b	.L130
 1968              	.L131:
 786:/home/fanxinhao/Work/LiteOS_Lab_2/iot_link/os/liteos/base/core/los_swtmr.c ****     {
 787:/home/fanxinhao/Work/LiteOS_Lab_2/iot_link/os/liteos/base/core/los_swtmr.c ****     case OS_SWTMR_STATUS_UNUSED:
 788:/home/fanxinhao/Work/LiteOS_Lab_2/iot_link/os/liteos/base/core/los_swtmr.c ****         uwRet = LOS_ERRNO_SWTMR_NOT_CREATED;
 1969              		.loc 1 788 15
 1970 0106 0E4B     		ldr	r3, .L134+16
 1971 0108 FB61     		str	r3, [r7, #28]
 789:/home/fanxinhao/Work/LiteOS_Lab_2/iot_link/os/liteos/base/core/los_swtmr.c ****         break;
 1972              		.loc 1 789 9
 1973 010a 09E0     		b	.L133
 1974              	.L129:
 790:/home/fanxinhao/Work/LiteOS_Lab_2/iot_link/os/liteos/base/core/los_swtmr.c ****     case OS_SWTMR_STATUS_TICKING:
 791:/home/fanxinhao/Work/LiteOS_Lab_2/iot_link/os/liteos/base/core/los_swtmr.c ****         osSwtmrStop(pstSwtmr);
 1975              		.loc 1 791 9
 1976 010c 3869     		ldr	r0, [r7, #16]
 1977 010e FFF7FEFF 		bl	osSwtmrStop
 1978              	.L132:
 792:/home/fanxinhao/Work/LiteOS_Lab_2/iot_link/os/liteos/base/core/los_swtmr.c ****     case OS_SWTMR_STATUS_CREATED: /*lint !e616*/
 793:/home/fanxinhao/Work/LiteOS_Lab_2/iot_link/os/liteos/base/core/los_swtmr.c ****         osSwTmrStart(pstSwtmr);
 1979              		.loc 1 793 9
 1980 0112 3869     		ldr	r0, [r7, #16]
 1981 0114 FFF7FEFF 		bl	osSwTmrStart
 794:/home/fanxinhao/Work/LiteOS_Lab_2/iot_link/os/liteos/base/core/los_swtmr.c ****         break;
 1982              		.loc 1 794 9
 1983 0118 02E0     		b	.L133
 1984              	.L130:
 795:/home/fanxinhao/Work/LiteOS_Lab_2/iot_link/os/liteos/base/core/los_swtmr.c ****     default:
 796:/home/fanxinhao/Work/LiteOS_Lab_2/iot_link/os/liteos/base/core/los_swtmr.c ****         uwRet = LOS_ERRNO_SWTMR_STATUS_INVALID;
 1985              		.loc 1 796 15
 1986 011a 0A4B     		ldr	r3, .L134+20
 1987 011c FB61     		str	r3, [r7, #28]
 797:/home/fanxinhao/Work/LiteOS_Lab_2/iot_link/os/liteos/base/core/los_swtmr.c ****         break;
 1988              		.loc 1 797 9
 1989 011e 00BF     		nop
 1990              	.L133:
 798:/home/fanxinhao/Work/LiteOS_Lab_2/iot_link/os/liteos/base/core/los_swtmr.c ****     }
 799:/home/fanxinhao/Work/LiteOS_Lab_2/iot_link/os/liteos/base/core/los_swtmr.c **** 
 800:/home/fanxinhao/Work/LiteOS_Lab_2/iot_link/os/liteos/base/core/los_swtmr.c ****     LOS_IntRestore(uvIntSave);
 1991              		.loc 1 800 5
 1992 0120 B869     		ldr	r0, [r7, #24]
 1993 0122 FFF7FEFF 		bl	LOS_IntRestore
 801:/home/fanxinhao/Work/LiteOS_Lab_2/iot_link/os/liteos/base/core/los_swtmr.c ****     return uwRet;
 1994              		.loc 1 801 12
ARM GAS  /tmp/ccjyDFlJ.s 			page 50


 1995 0126 FB69     		ldr	r3, [r7, #28]
 1996              	.L126:
 802:/home/fanxinhao/Work/LiteOS_Lab_2/iot_link/os/liteos/base/core/los_swtmr.c **** }
 1997              		.loc 1 802 1
 1998 0128 1846     		mov	r0, r3
 1999 012a 2037     		adds	r7, r7, #32
 2000              	.LCFI63:
 2001              		.cfi_def_cfa_offset 8
 2002 012c BD46     		mov	sp, r7
 2003              	.LCFI64:
 2004              		.cfi_def_cfa_register 13
 2005              		@ sp needed
 2006 012e 80BD     		pop	{r7, pc}
 2007              	.L135:
 2008              		.align	2
 2009              	.L134:
 2010 0130 05030002 		.word	33555205
 2011 0134 00000000 		.word	m_pstSwtmrCBArray
 2012 0138 00000000 		.word	m_uwSwTmrAlignID
 2013 013c CDCCCCCC 		.word	-858993459
 2014 0140 06030002 		.word	33555206
 2015 0144 0E030002 		.word	33555214
 2016              		.cfi_endproc
 2017              	.LFE145:
 2019              		.section	.text.LOS_SwtmrStop,"ax",%progbits
 2020              		.align	1
 2021              		.global	LOS_SwtmrStop
 2022              		.syntax unified
 2023              		.thumb
 2024              		.thumb_func
 2025              		.fpu fpv4-sp-d16
 2027              	LOS_SwtmrStop:
 2028              	.LFB146:
 803:/home/fanxinhao/Work/LiteOS_Lab_2/iot_link/os/liteos/base/core/los_swtmr.c **** 
 804:/home/fanxinhao/Work/LiteOS_Lab_2/iot_link/os/liteos/base/core/los_swtmr.c **** /*****************************************************************************
 805:/home/fanxinhao/Work/LiteOS_Lab_2/iot_link/os/liteos/base/core/los_swtmr.c **** Function   : LOS_SwtmrStop
 806:/home/fanxinhao/Work/LiteOS_Lab_2/iot_link/os/liteos/base/core/los_swtmr.c **** Description: Stop software timer
 807:/home/fanxinhao/Work/LiteOS_Lab_2/iot_link/os/liteos/base/core/los_swtmr.c **** Input      : usSwTmrID ------- Software timer ID
 808:/home/fanxinhao/Work/LiteOS_Lab_2/iot_link/os/liteos/base/core/los_swtmr.c **** Output     : None
 809:/home/fanxinhao/Work/LiteOS_Lab_2/iot_link/os/liteos/base/core/los_swtmr.c **** Return     : LOS_OK on success or error code on failure
 810:/home/fanxinhao/Work/LiteOS_Lab_2/iot_link/os/liteos/base/core/los_swtmr.c **** *****************************************************************************/
 811:/home/fanxinhao/Work/LiteOS_Lab_2/iot_link/os/liteos/base/core/los_swtmr.c **** LITE_OS_SEC_TEXT UINT32 LOS_SwtmrStop(UINT16 usSwTmrID)
 812:/home/fanxinhao/Work/LiteOS_Lab_2/iot_link/os/liteos/base/core/los_swtmr.c **** {
 2029              		.loc 1 812 1
 2030              		.cfi_startproc
 2031              		@ args = 0, pretend = 0, frame = 24
 2032              		@ frame_needed = 1, uses_anonymous_args = 0
 2033 0000 80B5     		push	{r7, lr}
 2034              	.LCFI65:
 2035              		.cfi_def_cfa_offset 8
 2036              		.cfi_offset 7, -8
 2037              		.cfi_offset 14, -4
 2038 0002 86B0     		sub	sp, sp, #24
 2039              	.LCFI66:
 2040              		.cfi_def_cfa_offset 32
 2041 0004 00AF     		add	r7, sp, #0
 2042              	.LCFI67:
ARM GAS  /tmp/ccjyDFlJ.s 			page 51


 2043              		.cfi_def_cfa_register 7
 2044 0006 0346     		mov	r3, r0
 2045 0008 FB80     		strh	r3, [r7, #6]	@ movhi
 813:/home/fanxinhao/Work/LiteOS_Lab_2/iot_link/os/liteos/base/core/los_swtmr.c ****     SWTMR_CTRL_S *pstSwtmr;
 814:/home/fanxinhao/Work/LiteOS_Lab_2/iot_link/os/liteos/base/core/los_swtmr.c ****     UINTPTR uvIntSave;
 815:/home/fanxinhao/Work/LiteOS_Lab_2/iot_link/os/liteos/base/core/los_swtmr.c ****     UINT16 usSwTmrCBID;
 816:/home/fanxinhao/Work/LiteOS_Lab_2/iot_link/os/liteos/base/core/los_swtmr.c ****     UINT32 uwRet = LOS_OK;
 2046              		.loc 1 816 12
 2047 000a 0023     		movs	r3, #0
 2048 000c 7B61     		str	r3, [r7, #20]
 817:/home/fanxinhao/Work/LiteOS_Lab_2/iot_link/os/liteos/base/core/los_swtmr.c **** 
 818:/home/fanxinhao/Work/LiteOS_Lab_2/iot_link/os/liteos/base/core/los_swtmr.c ****     CHECK_SWTMRID(usSwTmrID, uvIntSave, usSwTmrCBID, pstSwtmr);
 2049              		.loc 1 818 5
 2050 000e FB88     		ldrh	r3, [r7, #6]
 2051 0010 4FF6EF72 		movw	r2, #65519
 2052 0014 9342     		cmp	r3, r2
 2053 0016 01D9     		bls	.L137
 2054              		.loc 1 818 5 is_stmt 0 discriminator 1
 2055 0018 1D4B     		ldr	r3, .L145
 2056 001a 35E0     		b	.L138
 2057              	.L137:
 2058              		.loc 1 818 5 discriminator 2
 2059 001c FFF7FEFF 		bl	LOS_IntLock
 2060 0020 3861     		str	r0, [r7, #16]
 2061 0022 FB88     		ldrh	r3, [r7, #6]	@ movhi
 2062 0024 03F00F03 		and	r3, r3, #15
 2063 0028 FB81     		strh	r3, [r7, #14]	@ movhi
 2064 002a 1A4B     		ldr	r3, .L145+4
 2065 002c 1968     		ldr	r1, [r3]
 2066 002e FA89     		ldrh	r2, [r7, #14]
 2067 0030 1346     		mov	r3, r2
 2068 0032 DB00     		lsls	r3, r3, #3
 2069 0034 9B1A     		subs	r3, r3, r2
 2070 0036 9B00     		lsls	r3, r3, #2
 2071 0038 0B44     		add	r3, r3, r1
 2072 003a BB60     		str	r3, [r7, #8]
 2073 003c BB68     		ldr	r3, [r7, #8]
 2074 003e 1B89     		ldrh	r3, [r3, #8]
 2075 0040 FA88     		ldrh	r2, [r7, #6]
 2076 0042 9A42     		cmp	r2, r3
 2077 0044 04D0     		beq	.L139
 2078              		.loc 1 818 5 discriminator 3
 2079 0046 3869     		ldr	r0, [r7, #16]
 2080 0048 FFF7FEFF 		bl	LOS_IntRestore
 2081 004c 104B     		ldr	r3, .L145
 2082 004e 1BE0     		b	.L138
 2083              	.L139:
 819:/home/fanxinhao/Work/LiteOS_Lab_2/iot_link/os/liteos/base/core/los_swtmr.c ****     switch (pstSwtmr->ucState)
 2084              		.loc 1 819 21 is_stmt 1
 2085 0050 BB68     		ldr	r3, [r7, #8]
 2086 0052 1B79     		ldrb	r3, [r3, #4]	@ zero_extendqisi2
 2087              		.loc 1 819 5
 2088 0054 022B     		cmp	r3, #2
 2089 0056 0CD0     		beq	.L140
 2090 0058 022B     		cmp	r3, #2
 2091 005a 0EDC     		bgt	.L141
 2092 005c 002B     		cmp	r3, #0
ARM GAS  /tmp/ccjyDFlJ.s 			page 52


 2093 005e 02D0     		beq	.L142
 2094 0060 012B     		cmp	r3, #1
 2095 0062 03D0     		beq	.L143
 2096 0064 09E0     		b	.L141
 2097              	.L142:
 820:/home/fanxinhao/Work/LiteOS_Lab_2/iot_link/os/liteos/base/core/los_swtmr.c ****     {
 821:/home/fanxinhao/Work/LiteOS_Lab_2/iot_link/os/liteos/base/core/los_swtmr.c ****     case OS_SWTMR_STATUS_UNUSED:
 822:/home/fanxinhao/Work/LiteOS_Lab_2/iot_link/os/liteos/base/core/los_swtmr.c ****         uwRet = LOS_ERRNO_SWTMR_NOT_CREATED;
 2098              		.loc 1 822 15
 2099 0066 0C4B     		ldr	r3, .L145+8
 2100 0068 7B61     		str	r3, [r7, #20]
 823:/home/fanxinhao/Work/LiteOS_Lab_2/iot_link/os/liteos/base/core/los_swtmr.c ****         break;
 2101              		.loc 1 823 9
 2102 006a 09E0     		b	.L144
 2103              	.L143:
 824:/home/fanxinhao/Work/LiteOS_Lab_2/iot_link/os/liteos/base/core/los_swtmr.c ****     case OS_SWTMR_STATUS_CREATED:
 825:/home/fanxinhao/Work/LiteOS_Lab_2/iot_link/os/liteos/base/core/los_swtmr.c ****         uwRet = LOS_ERRNO_SWTMR_NOT_STARTED;
 2104              		.loc 1 825 15
 2105 006c 0B4B     		ldr	r3, .L145+12
 2106 006e 7B61     		str	r3, [r7, #20]
 826:/home/fanxinhao/Work/LiteOS_Lab_2/iot_link/os/liteos/base/core/los_swtmr.c ****         break;
 2107              		.loc 1 826 9
 2108 0070 06E0     		b	.L144
 2109              	.L140:
 827:/home/fanxinhao/Work/LiteOS_Lab_2/iot_link/os/liteos/base/core/los_swtmr.c ****     case OS_SWTMR_STATUS_TICKING:
 828:/home/fanxinhao/Work/LiteOS_Lab_2/iot_link/os/liteos/base/core/los_swtmr.c ****         osSwtmrStop(pstSwtmr);
 2110              		.loc 1 828 9
 2111 0072 B868     		ldr	r0, [r7, #8]
 2112 0074 FFF7FEFF 		bl	osSwtmrStop
 829:/home/fanxinhao/Work/LiteOS_Lab_2/iot_link/os/liteos/base/core/los_swtmr.c ****         break;
 2113              		.loc 1 829 9
 2114 0078 02E0     		b	.L144
 2115              	.L141:
 830:/home/fanxinhao/Work/LiteOS_Lab_2/iot_link/os/liteos/base/core/los_swtmr.c ****     default:
 831:/home/fanxinhao/Work/LiteOS_Lab_2/iot_link/os/liteos/base/core/los_swtmr.c ****         uwRet = LOS_ERRNO_SWTMR_STATUS_INVALID;
 2116              		.loc 1 831 15
 2117 007a 094B     		ldr	r3, .L145+16
 2118 007c 7B61     		str	r3, [r7, #20]
 832:/home/fanxinhao/Work/LiteOS_Lab_2/iot_link/os/liteos/base/core/los_swtmr.c ****         break;
 2119              		.loc 1 832 9
 2120 007e 00BF     		nop
 2121              	.L144:
 833:/home/fanxinhao/Work/LiteOS_Lab_2/iot_link/os/liteos/base/core/los_swtmr.c ****     }
 834:/home/fanxinhao/Work/LiteOS_Lab_2/iot_link/os/liteos/base/core/los_swtmr.c **** 
 835:/home/fanxinhao/Work/LiteOS_Lab_2/iot_link/os/liteos/base/core/los_swtmr.c ****     LOS_IntRestore(uvIntSave);
 2122              		.loc 1 835 5
 2123 0080 3869     		ldr	r0, [r7, #16]
 2124 0082 FFF7FEFF 		bl	LOS_IntRestore
 836:/home/fanxinhao/Work/LiteOS_Lab_2/iot_link/os/liteos/base/core/los_swtmr.c ****     return uwRet;
 2125              		.loc 1 836 12
 2126 0086 7B69     		ldr	r3, [r7, #20]
 2127              	.L138:
 837:/home/fanxinhao/Work/LiteOS_Lab_2/iot_link/os/liteos/base/core/los_swtmr.c **** }
 2128              		.loc 1 837 1
 2129 0088 1846     		mov	r0, r3
 2130 008a 1837     		adds	r7, r7, #24
 2131              	.LCFI68:
ARM GAS  /tmp/ccjyDFlJ.s 			page 53


 2132              		.cfi_def_cfa_offset 8
 2133 008c BD46     		mov	sp, r7
 2134              	.LCFI69:
 2135              		.cfi_def_cfa_register 13
 2136              		@ sp needed
 2137 008e 80BD     		pop	{r7, pc}
 2138              	.L146:
 2139              		.align	2
 2140              	.L145:
 2141 0090 05030002 		.word	33555205
 2142 0094 00000000 		.word	m_pstSwtmrCBArray
 2143 0098 06030002 		.word	33555206
 2144 009c 0D030002 		.word	33555213
 2145 00a0 0E030002 		.word	33555214
 2146              		.cfi_endproc
 2147              	.LFE146:
 2149              		.section	.text.LOS_SwtmrTimeGet,"ax",%progbits
 2150              		.align	1
 2151              		.global	LOS_SwtmrTimeGet
 2152              		.syntax unified
 2153              		.thumb
 2154              		.thumb_func
 2155              		.fpu fpv4-sp-d16
 2157              	LOS_SwtmrTimeGet:
 2158              	.LFB147:
 838:/home/fanxinhao/Work/LiteOS_Lab_2/iot_link/os/liteos/base/core/los_swtmr.c **** 
 839:/home/fanxinhao/Work/LiteOS_Lab_2/iot_link/os/liteos/base/core/los_swtmr.c **** LITE_OS_SEC_TEXT UINT32 LOS_SwtmrTimeGet(UINT16 usSwTmrID, UINT32 *uwTick)
 840:/home/fanxinhao/Work/LiteOS_Lab_2/iot_link/os/liteos/base/core/los_swtmr.c **** {
 2159              		.loc 1 840 1
 2160              		.cfi_startproc
 2161              		@ args = 0, pretend = 0, frame = 24
 2162              		@ frame_needed = 1, uses_anonymous_args = 0
 2163 0000 80B5     		push	{r7, lr}
 2164              	.LCFI70:
 2165              		.cfi_def_cfa_offset 8
 2166              		.cfi_offset 7, -8
 2167              		.cfi_offset 14, -4
 2168 0002 86B0     		sub	sp, sp, #24
 2169              	.LCFI71:
 2170              		.cfi_def_cfa_offset 32
 2171 0004 00AF     		add	r7, sp, #0
 2172              	.LCFI72:
 2173              		.cfi_def_cfa_register 7
 2174 0006 0346     		mov	r3, r0
 2175 0008 3960     		str	r1, [r7]
 2176 000a FB80     		strh	r3, [r7, #6]	@ movhi
 841:/home/fanxinhao/Work/LiteOS_Lab_2/iot_link/os/liteos/base/core/los_swtmr.c ****     SWTMR_CTRL_S  *pstSwtmr;
 842:/home/fanxinhao/Work/LiteOS_Lab_2/iot_link/os/liteos/base/core/los_swtmr.c ****     UINTPTR  uvIntSave;
 843:/home/fanxinhao/Work/LiteOS_Lab_2/iot_link/os/liteos/base/core/los_swtmr.c ****     UINT32 uwRet = LOS_OK;
 2177              		.loc 1 843 12
 2178 000c 0023     		movs	r3, #0
 2179 000e 7B61     		str	r3, [r7, #20]
 844:/home/fanxinhao/Work/LiteOS_Lab_2/iot_link/os/liteos/base/core/los_swtmr.c ****     UINT16 usSwTmrCBID;
 845:/home/fanxinhao/Work/LiteOS_Lab_2/iot_link/os/liteos/base/core/los_swtmr.c **** 
 846:/home/fanxinhao/Work/LiteOS_Lab_2/iot_link/os/liteos/base/core/los_swtmr.c ****     if (usSwTmrID >= OS_SWTMR_MAX_TIMERID)
 2180              		.loc 1 846 8
 2181 0010 FB88     		ldrh	r3, [r7, #6]
ARM GAS  /tmp/ccjyDFlJ.s 			page 54


 2182 0012 4FF6EF72 		movw	r2, #65519
 2183 0016 9342     		cmp	r3, r2
 2184 0018 01D9     		bls	.L148
 847:/home/fanxinhao/Work/LiteOS_Lab_2/iot_link/os/liteos/base/core/los_swtmr.c ****     {
 848:/home/fanxinhao/Work/LiteOS_Lab_2/iot_link/os/liteos/base/core/los_swtmr.c ****         return LOS_ERRNO_SWTMR_ID_INVALID;
 2185              		.loc 1 848 16
 2186 001a 224B     		ldr	r3, .L157
 2187 001c 3DE0     		b	.L149
 2188              	.L148:
 849:/home/fanxinhao/Work/LiteOS_Lab_2/iot_link/os/liteos/base/core/los_swtmr.c ****     }
 850:/home/fanxinhao/Work/LiteOS_Lab_2/iot_link/os/liteos/base/core/los_swtmr.c **** 
 851:/home/fanxinhao/Work/LiteOS_Lab_2/iot_link/os/liteos/base/core/los_swtmr.c ****     if (uwTick == NULL)
 2189              		.loc 1 851 8
 2190 001e 3B68     		ldr	r3, [r7]
 2191 0020 002B     		cmp	r3, #0
 2192 0022 01D1     		bne	.L150
 852:/home/fanxinhao/Work/LiteOS_Lab_2/iot_link/os/liteos/base/core/los_swtmr.c ****     {
 853:/home/fanxinhao/Work/LiteOS_Lab_2/iot_link/os/liteos/base/core/los_swtmr.c ****         return LOS_ERRNO_SWTMR_TICK_PTR_NULL;
 2193              		.loc 1 853 16
 2194 0024 204B     		ldr	r3, .L157+4
 2195 0026 38E0     		b	.L149
 2196              	.L150:
 854:/home/fanxinhao/Work/LiteOS_Lab_2/iot_link/os/liteos/base/core/los_swtmr.c ****     }
 855:/home/fanxinhao/Work/LiteOS_Lab_2/iot_link/os/liteos/base/core/los_swtmr.c **** 
 856:/home/fanxinhao/Work/LiteOS_Lab_2/iot_link/os/liteos/base/core/los_swtmr.c ****     uvIntSave = LOS_IntLock();
 2197              		.loc 1 856 17
 2198 0028 FFF7FEFF 		bl	LOS_IntLock
 2199 002c 3861     		str	r0, [r7, #16]
 857:/home/fanxinhao/Work/LiteOS_Lab_2/iot_link/os/liteos/base/core/los_swtmr.c ****     usSwTmrCBID = usSwTmrID % LOSCFG_BASE_CORE_SWTMR_LIMIT;
 2200              		.loc 1 857 17
 2201 002e FB88     		ldrh	r3, [r7, #6]	@ movhi
 2202 0030 03F00F03 		and	r3, r3, #15
 2203 0034 FB81     		strh	r3, [r7, #14]	@ movhi
 858:/home/fanxinhao/Work/LiteOS_Lab_2/iot_link/os/liteos/base/core/los_swtmr.c ****     pstSwtmr = m_pstSwtmrCBArray + usSwTmrCBID;
 2204              		.loc 1 858 34
 2205 0036 1D4B     		ldr	r3, .L157+8
 2206 0038 1968     		ldr	r1, [r3]
 2207 003a FA89     		ldrh	r2, [r7, #14]
 2208 003c 1346     		mov	r3, r2
 2209 003e DB00     		lsls	r3, r3, #3
 2210 0040 9B1A     		subs	r3, r3, r2
 2211 0042 9B00     		lsls	r3, r3, #2
 2212              		.loc 1 858 14
 2213 0044 0B44     		add	r3, r3, r1
 2214 0046 BB60     		str	r3, [r7, #8]
 859:/home/fanxinhao/Work/LiteOS_Lab_2/iot_link/os/liteos/base/core/los_swtmr.c **** 
 860:/home/fanxinhao/Work/LiteOS_Lab_2/iot_link/os/liteos/base/core/los_swtmr.c ****     if (pstSwtmr->usTimerID != usSwTmrID)
 2215              		.loc 1 860 17
 2216 0048 BB68     		ldr	r3, [r7, #8]
 2217 004a 1B89     		ldrh	r3, [r3, #8]
 2218              		.loc 1 860 8
 2219 004c FA88     		ldrh	r2, [r7, #6]
 2220 004e 9A42     		cmp	r2, r3
 2221 0050 04D0     		beq	.L151
 861:/home/fanxinhao/Work/LiteOS_Lab_2/iot_link/os/liteos/base/core/los_swtmr.c ****     {
 862:/home/fanxinhao/Work/LiteOS_Lab_2/iot_link/os/liteos/base/core/los_swtmr.c ****         LOS_IntRestore(uvIntSave);
 2222              		.loc 1 862 9
ARM GAS  /tmp/ccjyDFlJ.s 			page 55


 2223 0052 3869     		ldr	r0, [r7, #16]
 2224 0054 FFF7FEFF 		bl	LOS_IntRestore
 863:/home/fanxinhao/Work/LiteOS_Lab_2/iot_link/os/liteos/base/core/los_swtmr.c ****         return LOS_ERRNO_SWTMR_ID_INVALID;
 2225              		.loc 1 863 16
 2226 0058 124B     		ldr	r3, .L157
 2227 005a 1EE0     		b	.L149
 2228              	.L151:
 864:/home/fanxinhao/Work/LiteOS_Lab_2/iot_link/os/liteos/base/core/los_swtmr.c ****     }
 865:/home/fanxinhao/Work/LiteOS_Lab_2/iot_link/os/liteos/base/core/los_swtmr.c ****     switch (pstSwtmr->ucState)
 2229              		.loc 1 865 21
 2230 005c BB68     		ldr	r3, [r7, #8]
 2231 005e 1B79     		ldrb	r3, [r3, #4]	@ zero_extendqisi2
 2232              		.loc 1 865 5
 2233 0060 022B     		cmp	r3, #2
 2234 0062 0CD0     		beq	.L152
 2235 0064 022B     		cmp	r3, #2
 2236 0066 11DC     		bgt	.L153
 2237 0068 002B     		cmp	r3, #0
 2238 006a 02D0     		beq	.L154
 2239 006c 012B     		cmp	r3, #1
 2240 006e 03D0     		beq	.L155
 2241 0070 0CE0     		b	.L153
 2242              	.L154:
 866:/home/fanxinhao/Work/LiteOS_Lab_2/iot_link/os/liteos/base/core/los_swtmr.c ****     {
 867:/home/fanxinhao/Work/LiteOS_Lab_2/iot_link/os/liteos/base/core/los_swtmr.c ****     case OS_SWTMR_STATUS_UNUSED:
 868:/home/fanxinhao/Work/LiteOS_Lab_2/iot_link/os/liteos/base/core/los_swtmr.c ****         uwRet = LOS_ERRNO_SWTMR_NOT_CREATED;
 2243              		.loc 1 868 15
 2244 0072 0F4B     		ldr	r3, .L157+12
 2245 0074 7B61     		str	r3, [r7, #20]
 869:/home/fanxinhao/Work/LiteOS_Lab_2/iot_link/os/liteos/base/core/los_swtmr.c ****         break;
 2246              		.loc 1 869 9
 2247 0076 0CE0     		b	.L156
 2248              	.L155:
 870:/home/fanxinhao/Work/LiteOS_Lab_2/iot_link/os/liteos/base/core/los_swtmr.c ****     case OS_SWTMR_STATUS_CREATED:
 871:/home/fanxinhao/Work/LiteOS_Lab_2/iot_link/os/liteos/base/core/los_swtmr.c ****         uwRet = LOS_ERRNO_SWTMR_NOT_STARTED;
 2249              		.loc 1 871 15
 2250 0078 0E4B     		ldr	r3, .L157+16
 2251 007a 7B61     		str	r3, [r7, #20]
 872:/home/fanxinhao/Work/LiteOS_Lab_2/iot_link/os/liteos/base/core/los_swtmr.c ****         break;
 2252              		.loc 1 872 9
 2253 007c 09E0     		b	.L156
 2254              	.L152:
 873:/home/fanxinhao/Work/LiteOS_Lab_2/iot_link/os/liteos/base/core/los_swtmr.c ****     case OS_SWTMR_STATUS_TICKING:
 874:/home/fanxinhao/Work/LiteOS_Lab_2/iot_link/os/liteos/base/core/los_swtmr.c ****         *uwTick = osSwtmrTimeGet(pstSwtmr);
 2255              		.loc 1 874 19
 2256 007e B868     		ldr	r0, [r7, #8]
 2257 0080 FFF7FEFF 		bl	osSwtmrTimeGet
 2258 0084 0246     		mov	r2, r0
 2259              		.loc 1 874 17
 2260 0086 3B68     		ldr	r3, [r7]
 2261 0088 1A60     		str	r2, [r3]
 875:/home/fanxinhao/Work/LiteOS_Lab_2/iot_link/os/liteos/base/core/los_swtmr.c ****         break;
 2262              		.loc 1 875 9
 2263 008a 02E0     		b	.L156
 2264              	.L153:
 876:/home/fanxinhao/Work/LiteOS_Lab_2/iot_link/os/liteos/base/core/los_swtmr.c ****     default:
 877:/home/fanxinhao/Work/LiteOS_Lab_2/iot_link/os/liteos/base/core/los_swtmr.c ****         uwRet = LOS_ERRNO_SWTMR_STATUS_INVALID;
ARM GAS  /tmp/ccjyDFlJ.s 			page 56


 2265              		.loc 1 877 15
 2266 008c 0A4B     		ldr	r3, .L157+20
 2267 008e 7B61     		str	r3, [r7, #20]
 878:/home/fanxinhao/Work/LiteOS_Lab_2/iot_link/os/liteos/base/core/los_swtmr.c ****         break;
 2268              		.loc 1 878 9
 2269 0090 00BF     		nop
 2270              	.L156:
 879:/home/fanxinhao/Work/LiteOS_Lab_2/iot_link/os/liteos/base/core/los_swtmr.c ****     }
 880:/home/fanxinhao/Work/LiteOS_Lab_2/iot_link/os/liteos/base/core/los_swtmr.c ****     LOS_IntRestore(uvIntSave);
 2271              		.loc 1 880 5
 2272 0092 3869     		ldr	r0, [r7, #16]
 2273 0094 FFF7FEFF 		bl	LOS_IntRestore
 881:/home/fanxinhao/Work/LiteOS_Lab_2/iot_link/os/liteos/base/core/los_swtmr.c ****     return uwRet;
 2274              		.loc 1 881 12
 2275 0098 7B69     		ldr	r3, [r7, #20]
 2276              	.L149:
 882:/home/fanxinhao/Work/LiteOS_Lab_2/iot_link/os/liteos/base/core/los_swtmr.c **** }
 2277              		.loc 1 882 1
 2278 009a 1846     		mov	r0, r3
 2279 009c 1837     		adds	r7, r7, #24
 2280              	.LCFI73:
 2281              		.cfi_def_cfa_offset 8
 2282 009e BD46     		mov	sp, r7
 2283              	.LCFI74:
 2284              		.cfi_def_cfa_register 13
 2285              		@ sp needed
 2286 00a0 80BD     		pop	{r7, pc}
 2287              	.L158:
 2288 00a2 00BF     		.align	2
 2289              	.L157:
 2290 00a4 05030002 		.word	33555205
 2291 00a8 10030002 		.word	33555216
 2292 00ac 00000000 		.word	m_pstSwtmrCBArray
 2293 00b0 06030002 		.word	33555206
 2294 00b4 0D030002 		.word	33555213
 2295 00b8 0E030002 		.word	33555214
 2296              		.cfi_endproc
 2297              	.LFE147:
 2299              		.section	.text.LOS_SwtmrDelete,"ax",%progbits
 2300              		.align	1
 2301              		.global	LOS_SwtmrDelete
 2302              		.syntax unified
 2303              		.thumb
 2304              		.thumb_func
 2305              		.fpu fpv4-sp-d16
 2307              	LOS_SwtmrDelete:
 2308              	.LFB148:
 883:/home/fanxinhao/Work/LiteOS_Lab_2/iot_link/os/liteos/base/core/los_swtmr.c **** 
 884:/home/fanxinhao/Work/LiteOS_Lab_2/iot_link/os/liteos/base/core/los_swtmr.c **** /*****************************************************************************
 885:/home/fanxinhao/Work/LiteOS_Lab_2/iot_link/os/liteos/base/core/los_swtmr.c **** Function   : LOS_SwtmrDelete
 886:/home/fanxinhao/Work/LiteOS_Lab_2/iot_link/os/liteos/base/core/los_swtmr.c **** Description: Delete software timer
 887:/home/fanxinhao/Work/LiteOS_Lab_2/iot_link/os/liteos/base/core/los_swtmr.c **** Input      : usSwTmrID ------- Software timer ID
 888:/home/fanxinhao/Work/LiteOS_Lab_2/iot_link/os/liteos/base/core/los_swtmr.c **** Output     : None
 889:/home/fanxinhao/Work/LiteOS_Lab_2/iot_link/os/liteos/base/core/los_swtmr.c **** Return     : LOS_OK on success or error code on failure
 890:/home/fanxinhao/Work/LiteOS_Lab_2/iot_link/os/liteos/base/core/los_swtmr.c **** *****************************************************************************/
 891:/home/fanxinhao/Work/LiteOS_Lab_2/iot_link/os/liteos/base/core/los_swtmr.c **** LITE_OS_SEC_TEXT UINT32 LOS_SwtmrDelete(UINT16 usSwTmrID)
 892:/home/fanxinhao/Work/LiteOS_Lab_2/iot_link/os/liteos/base/core/los_swtmr.c **** {
ARM GAS  /tmp/ccjyDFlJ.s 			page 57


 2309              		.loc 1 892 1
 2310              		.cfi_startproc
 2311              		@ args = 0, pretend = 0, frame = 24
 2312              		@ frame_needed = 1, uses_anonymous_args = 0
 2313 0000 80B5     		push	{r7, lr}
 2314              	.LCFI75:
 2315              		.cfi_def_cfa_offset 8
 2316              		.cfi_offset 7, -8
 2317              		.cfi_offset 14, -4
 2318 0002 86B0     		sub	sp, sp, #24
 2319              	.LCFI76:
 2320              		.cfi_def_cfa_offset 32
 2321 0004 00AF     		add	r7, sp, #0
 2322              	.LCFI77:
 2323              		.cfi_def_cfa_register 7
 2324 0006 0346     		mov	r3, r0
 2325 0008 FB80     		strh	r3, [r7, #6]	@ movhi
 893:/home/fanxinhao/Work/LiteOS_Lab_2/iot_link/os/liteos/base/core/los_swtmr.c ****     SWTMR_CTRL_S  *pstSwtmr;
 894:/home/fanxinhao/Work/LiteOS_Lab_2/iot_link/os/liteos/base/core/los_swtmr.c ****     UINTPTR  uvIntSave;
 895:/home/fanxinhao/Work/LiteOS_Lab_2/iot_link/os/liteos/base/core/los_swtmr.c ****     UINT32 uwRet = LOS_OK;
 2326              		.loc 1 895 12
 2327 000a 0023     		movs	r3, #0
 2328 000c 7B61     		str	r3, [r7, #20]
 896:/home/fanxinhao/Work/LiteOS_Lab_2/iot_link/os/liteos/base/core/los_swtmr.c ****     UINT16 usSwTmrCBID;
 897:/home/fanxinhao/Work/LiteOS_Lab_2/iot_link/os/liteos/base/core/los_swtmr.c **** 
 898:/home/fanxinhao/Work/LiteOS_Lab_2/iot_link/os/liteos/base/core/los_swtmr.c ****     CHECK_SWTMRID(usSwTmrID, uvIntSave, usSwTmrCBID, pstSwtmr);
 2329              		.loc 1 898 5
 2330 000e FB88     		ldrh	r3, [r7, #6]
 2331 0010 4FF6EF72 		movw	r2, #65519
 2332 0014 9342     		cmp	r3, r2
 2333 0016 01D9     		bls	.L160
 2334              		.loc 1 898 5 is_stmt 0 discriminator 1
 2335 0018 1D4B     		ldr	r3, .L168
 2336 001a 35E0     		b	.L161
 2337              	.L160:
 2338              		.loc 1 898 5 discriminator 2
 2339 001c FFF7FEFF 		bl	LOS_IntLock
 2340 0020 3861     		str	r0, [r7, #16]
 2341 0022 FB88     		ldrh	r3, [r7, #6]	@ movhi
 2342 0024 03F00F03 		and	r3, r3, #15
 2343 0028 FB81     		strh	r3, [r7, #14]	@ movhi
 2344 002a 1A4B     		ldr	r3, .L168+4
 2345 002c 1968     		ldr	r1, [r3]
 2346 002e FA89     		ldrh	r2, [r7, #14]
 2347 0030 1346     		mov	r3, r2
 2348 0032 DB00     		lsls	r3, r3, #3
 2349 0034 9B1A     		subs	r3, r3, r2
 2350 0036 9B00     		lsls	r3, r3, #2
 2351 0038 0B44     		add	r3, r3, r1
 2352 003a BB60     		str	r3, [r7, #8]
 2353 003c BB68     		ldr	r3, [r7, #8]
 2354 003e 1B89     		ldrh	r3, [r3, #8]
 2355 0040 FA88     		ldrh	r2, [r7, #6]
 2356 0042 9A42     		cmp	r2, r3
 2357 0044 04D0     		beq	.L162
 2358              		.loc 1 898 5 discriminator 3
 2359 0046 3869     		ldr	r0, [r7, #16]
ARM GAS  /tmp/ccjyDFlJ.s 			page 58


 2360 0048 FFF7FEFF 		bl	LOS_IntRestore
 2361 004c 104B     		ldr	r3, .L168
 2362 004e 1BE0     		b	.L161
 2363              	.L162:
 899:/home/fanxinhao/Work/LiteOS_Lab_2/iot_link/os/liteos/base/core/los_swtmr.c ****     switch (pstSwtmr->ucState)
 2364              		.loc 1 899 21 is_stmt 1
 2365 0050 BB68     		ldr	r3, [r7, #8]
 2366 0052 1B79     		ldrb	r3, [r3, #4]	@ zero_extendqisi2
 2367              		.loc 1 899 5
 2368 0054 022B     		cmp	r3, #2
 2369 0056 09D0     		beq	.L163
 2370 0058 022B     		cmp	r3, #2
 2371 005a 0EDC     		bgt	.L164
 2372 005c 002B     		cmp	r3, #0
 2373 005e 02D0     		beq	.L165
 2374 0060 012B     		cmp	r3, #1
 2375 0062 06D0     		beq	.L166
 2376 0064 09E0     		b	.L164
 2377              	.L165:
 900:/home/fanxinhao/Work/LiteOS_Lab_2/iot_link/os/liteos/base/core/los_swtmr.c ****     {
 901:/home/fanxinhao/Work/LiteOS_Lab_2/iot_link/os/liteos/base/core/los_swtmr.c ****     case OS_SWTMR_STATUS_UNUSED:
 902:/home/fanxinhao/Work/LiteOS_Lab_2/iot_link/os/liteos/base/core/los_swtmr.c ****         uwRet = LOS_ERRNO_SWTMR_NOT_CREATED;
 2378              		.loc 1 902 15
 2379 0066 0C4B     		ldr	r3, .L168+8
 2380 0068 7B61     		str	r3, [r7, #20]
 903:/home/fanxinhao/Work/LiteOS_Lab_2/iot_link/os/liteos/base/core/los_swtmr.c ****         break;
 2381              		.loc 1 903 9
 2382 006a 09E0     		b	.L167
 2383              	.L163:
 904:/home/fanxinhao/Work/LiteOS_Lab_2/iot_link/os/liteos/base/core/los_swtmr.c ****     case OS_SWTMR_STATUS_TICKING:
 905:/home/fanxinhao/Work/LiteOS_Lab_2/iot_link/os/liteos/base/core/los_swtmr.c ****         osSwtmrStop(pstSwtmr);
 2384              		.loc 1 905 9
 2385 006c B868     		ldr	r0, [r7, #8]
 2386 006e FFF7FEFF 		bl	osSwtmrStop
 2387              	.L166:
 906:/home/fanxinhao/Work/LiteOS_Lab_2/iot_link/os/liteos/base/core/los_swtmr.c ****     case OS_SWTMR_STATUS_CREATED:  /*lint !e616*/
 907:/home/fanxinhao/Work/LiteOS_Lab_2/iot_link/os/liteos/base/core/los_swtmr.c ****         osSwtmrDelete(pstSwtmr);
 2388              		.loc 1 907 9
 2389 0072 B868     		ldr	r0, [r7, #8]
 2390 0074 FFF7FEFF 		bl	osSwtmrDelete
 908:/home/fanxinhao/Work/LiteOS_Lab_2/iot_link/os/liteos/base/core/los_swtmr.c ****         break;
 2391              		.loc 1 908 9
 2392 0078 02E0     		b	.L167
 2393              	.L164:
 909:/home/fanxinhao/Work/LiteOS_Lab_2/iot_link/os/liteos/base/core/los_swtmr.c ****     default:
 910:/home/fanxinhao/Work/LiteOS_Lab_2/iot_link/os/liteos/base/core/los_swtmr.c ****         uwRet = LOS_ERRNO_SWTMR_STATUS_INVALID;
 2394              		.loc 1 910 15
 2395 007a 084B     		ldr	r3, .L168+12
 2396 007c 7B61     		str	r3, [r7, #20]
 911:/home/fanxinhao/Work/LiteOS_Lab_2/iot_link/os/liteos/base/core/los_swtmr.c ****         break;
 2397              		.loc 1 911 9
 2398 007e 00BF     		nop
 2399              	.L167:
 912:/home/fanxinhao/Work/LiteOS_Lab_2/iot_link/os/liteos/base/core/los_swtmr.c ****     }
 913:/home/fanxinhao/Work/LiteOS_Lab_2/iot_link/os/liteos/base/core/los_swtmr.c **** 
 914:/home/fanxinhao/Work/LiteOS_Lab_2/iot_link/os/liteos/base/core/los_swtmr.c ****     LOS_IntRestore(uvIntSave);
 2400              		.loc 1 914 5
ARM GAS  /tmp/ccjyDFlJ.s 			page 59


 2401 0080 3869     		ldr	r0, [r7, #16]
 2402 0082 FFF7FEFF 		bl	LOS_IntRestore
 915:/home/fanxinhao/Work/LiteOS_Lab_2/iot_link/os/liteos/base/core/los_swtmr.c ****     return uwRet;
 2403              		.loc 1 915 12
 2404 0086 7B69     		ldr	r3, [r7, #20]
 2405              	.L161:
 916:/home/fanxinhao/Work/LiteOS_Lab_2/iot_link/os/liteos/base/core/los_swtmr.c **** }
 2406              		.loc 1 916 1
 2407 0088 1846     		mov	r0, r3
 2408 008a 1837     		adds	r7, r7, #24
 2409              	.LCFI78:
 2410              		.cfi_def_cfa_offset 8
 2411 008c BD46     		mov	sp, r7
 2412              	.LCFI79:
 2413              		.cfi_def_cfa_register 13
 2414              		@ sp needed
 2415 008e 80BD     		pop	{r7, pc}
 2416              	.L169:
 2417              		.align	2
 2418              	.L168:
 2419 0090 05030002 		.word	33555205
 2420 0094 00000000 		.word	m_pstSwtmrCBArray
 2421 0098 06030002 		.word	33555206
 2422 009c 0E030002 		.word	33555214
 2423              		.cfi_endproc
 2424              	.LFE148:
 2426              		.text
 2427              	.Letext0:
 2428              		.file 2 "/home/fanxinhao/toolchain/gcc-arm-none-eabi-9-2019-q4-major/arm-none-eabi/include/machine
 2429              		.file 3 "/home/fanxinhao/toolchain/gcc-arm-none-eabi-9-2019-q4-major/arm-none-eabi/include/sys/loc
 2430              		.file 4 "/home/fanxinhao/toolchain/gcc-arm-none-eabi-9-2019-q4-major/arm-none-eabi/include/sys/_ty
 2431              		.file 5 "/home/fanxinhao/toolchain/gcc-arm-none-eabi-9-2019-q4-major/lib/gcc/arm-none-eabi/9.2.1/i
 2432              		.file 6 "/home/fanxinhao/toolchain/gcc-arm-none-eabi-9-2019-q4-major/arm-none-eabi/include/sys/ree
 2433              		.file 7 "/home/fanxinhao/Work/LiteOS_Lab_2/iot_link/os/liteos/include/los_typedef.h"
 2434              		.file 8 "/home/fanxinhao/toolchain/gcc-arm-none-eabi-9-2019-q4-major/arm-none-eabi/include/sys/_st
 2435              		.file 9 "/home/fanxinhao/Work/LiteOS_Lab_2/iot_link/os/liteos/arch/arm/common/cmsis/core_cm4.h"
 2436              		.file 10 "/home/fanxinhao/Work/LiteOS_Lab_2/targets/STM32L476RG_NB476/Inc/system_stm32l4xx.h"
 2437              		.file 11 "/home/fanxinhao/Work/LiteOS_Lab_2/iot_link/os/liteos/include/los_config.h"
 2438              		.file 12 "/home/fanxinhao/Work/LiteOS_Lab_2/iot_link/os/liteos/include/los_list.h"
 2439              		.file 13 "/home/fanxinhao/Work/LiteOS_Lab_2/iot_link/os/liteos/include/los_err.h"
 2440              		.file 14 "/home/fanxinhao/Work/LiteOS_Lab_2/iot_link/os/liteos/arch/arm/arm-m/include/los_hwi.h"
 2441              		.file 15 "/home/fanxinhao/Work/LiteOS_Lab_2/iot_link/os/liteos/include/los_tick.h"
 2442              		.file 16 "/home/fanxinhao/Work/LiteOS_Lab_2/iot_link/os/liteos/include/los_event.h"
 2443              		.file 17 "/home/fanxinhao/Work/LiteOS_Lab_2/iot_link/os/liteos/include/los_task.h"
 2444              		.file 18 "/home/fanxinhao/Work/LiteOS_Lab_2/iot_link/os/liteos/include/los_swtmr.h"
 2445              		.file 19 "/home/fanxinhao/Work/LiteOS_Lab_2/iot_link/os/liteos/base/include/los_swtmr.ph"
 2446              		.file 20 "/home/fanxinhao/Work/LiteOS_Lab_2/iot_link/os/liteos/base/core/los_swtmr.inc"
 2447              		.file 21 "/home/fanxinhao/Work/LiteOS_Lab_2/iot_link/os/liteos/include/los_memory.h"
 2448              		.file 22 "/home/fanxinhao/Work/LiteOS_Lab_2/iot_link/os/liteos/base/include/los_queue.ph"
 2449              		.file 23 "/home/fanxinhao/Work/LiteOS_Lab_2/iot_link/os/liteos/base/include/los_task.ph"
ARM GAS  /tmp/ccjyDFlJ.s 			page 60

