ARM GAS  C:\Users\ADMINI~1\AppData\Local\Temp\cctBI08w.s 			page 1


   1              		.cpu cortex-m4
   2              		.eabi_attribute 27, 1
   3              		.eabi_attribute 28, 1
   4              		.eabi_attribute 20, 1
   5              		.eabi_attribute 21, 1
   6              		.eabi_attribute 23, 3
   7              		.eabi_attribute 24, 1
   8              		.eabi_attribute 25, 1
   9              		.eabi_attribute 26, 1
  10              		.eabi_attribute 30, 6
  11              		.eabi_attribute 34, 1
  12              		.eabi_attribute 18, 4
  13              		.file	"at.c"
  14              		.text
  15              	.Ltext0:
  16              		.cfi_sections	.debug_frame
  17              		.section	.bss.g_at_cb,"aw",%nobits
  18              		.align	2
  21              	g_at_cb:
  22 0000 00000000 		.space	1196
  22      00000000 
  22      00000000 
  22      00000000 
  22      00000000 
  23              		.section	.rodata
  24              		.align	2
  25              	.LC0:
  26 0000 25733A25 		.ascii	"%s:%d bytes:\000"
  26      64206279 
  26      7465733A 
  26      00
  27 000d 000000   		.align	2
  28              	.LC1:
  29 0010 0D00     		.ascii	"\015\000"
  30              		.section	.text.print_ascii,"ax",%progbits
  31              		.align	1
  32              		.arch armv7e-m
  33              		.syntax unified
  34              		.thumb
  35              		.thumb_func
  36              		.fpu fpv4-sp-d16
  38              	print_ascii:
  39              	.LFB3:
  40              		.file 1 "d:/LiteOS_Lab/iot_link/at/at.c"
   1:d:/LiteOS_Lab/iot_link/at\at.c **** /*----------------------------------------------------------------------------
   2:d:/LiteOS_Lab/iot_link/at\at.c ****  * Copyright (c) <2016-2018>, <Huawei Technologies Co., Ltd>
   3:d:/LiteOS_Lab/iot_link/at\at.c ****  * All rights reserved.
   4:d:/LiteOS_Lab/iot_link/at\at.c ****  * Redistribution and use in source and binary forms, with or without modification,
   5:d:/LiteOS_Lab/iot_link/at\at.c ****  * are permitted provided that the following conditions are met:
   6:d:/LiteOS_Lab/iot_link/at\at.c ****  * 1. Redistributions of source code must retain the above copyright notice, this list of
   7:d:/LiteOS_Lab/iot_link/at\at.c ****  * conditions and the following disclaimer.
   8:d:/LiteOS_Lab/iot_link/at\at.c ****  * 2. Redistributions in binary form must reproduce the above copyright notice, this list
   9:d:/LiteOS_Lab/iot_link/at\at.c ****  * of conditions and the following disclaimer in the documentation and/or other materials
  10:d:/LiteOS_Lab/iot_link/at\at.c ****  * provided with the distribution.
  11:d:/LiteOS_Lab/iot_link/at\at.c ****  * 3. Neither the name of the copyright holder nor the names of its contributors may be used
  12:d:/LiteOS_Lab/iot_link/at\at.c ****  * to endorse or promote products derived from this software without specific prior written
  13:d:/LiteOS_Lab/iot_link/at\at.c ****  * permission.
ARM GAS  C:\Users\ADMINI~1\AppData\Local\Temp\cctBI08w.s 			page 2


  14:d:/LiteOS_Lab/iot_link/at\at.c ****  * THIS SOFTWARE IS PROVIDED BY THE COPYRIGHT HOLDERS AND CONTRIBUTORS
  15:d:/LiteOS_Lab/iot_link/at\at.c ****  * "AS IS" AND ANY EXPRESS OR IMPLIED WARRANTIES, INCLUDING, BUT NOT LIMITED TO,
  16:d:/LiteOS_Lab/iot_link/at\at.c ****  * THE IMPLIED WARRANTIES OF MERCHANTABILITY AND FITNESS FOR A PARTICULAR
  17:d:/LiteOS_Lab/iot_link/at\at.c ****  * PURPOSE ARE DISCLAIMED. IN NO EVENT SHALL THE COPYRIGHT HOLDER OR
  18:d:/LiteOS_Lab/iot_link/at\at.c ****  * CONTRIBUTORS BE LIABLE FOR ANY DIRECT, INDIRECT, INCIDENTAL, SPECIAL,
  19:d:/LiteOS_Lab/iot_link/at\at.c ****  * EXEMPLARY, OR CONSEQUENTIAL DAMAGES (INCLUDING, BUT NOT LIMITED TO,
  20:d:/LiteOS_Lab/iot_link/at\at.c ****  * PROCUREMENT OF SUBSTITUTE GOODS OR SERVICES; LOSS OF USE, DATA, OR PROFITS;
  21:d:/LiteOS_Lab/iot_link/at\at.c ****  * OR BUSINESS INTERRUPTION) HOWEVER CAUSED AND ON ANY THEORY OF LIABILITY,
  22:d:/LiteOS_Lab/iot_link/at\at.c ****  * WHETHER IN CONTRACT, STRICT LIABILITY, OR TORT (INCLUDING NEGLIGENCE OR
  23:d:/LiteOS_Lab/iot_link/at\at.c ****  * OTHERWISE) ARISING IN ANY WAY OUT OF THE USE OF THIS SOFTWARE, EVEN IF
  24:d:/LiteOS_Lab/iot_link/at\at.c ****  * ADVISED OF THE POSSIBILITY OF SUCH DAMAGE.
  25:d:/LiteOS_Lab/iot_link/at\at.c ****  *---------------------------------------------------------------------------*/
  26:d:/LiteOS_Lab/iot_link/at\at.c **** /*----------------------------------------------------------------------------
  27:d:/LiteOS_Lab/iot_link/at\at.c ****  * Notice of Export Control Law
  28:d:/LiteOS_Lab/iot_link/at\at.c ****  * ===============================================
  29:d:/LiteOS_Lab/iot_link/at\at.c ****  * Huawei LiteOS may be subject to applicable export control laws and regulations, which might
  30:d:/LiteOS_Lab/iot_link/at\at.c ****  * include those applicable to Huawei LiteOS of U.S. and the country in which you are located.
  31:d:/LiteOS_Lab/iot_link/at\at.c ****  * Import, export and usage of Huawei LiteOS in any manner by you shall be in compliance with such
  32:d:/LiteOS_Lab/iot_link/at\at.c ****  * applicable export control laws and regulations.
  33:d:/LiteOS_Lab/iot_link/at\at.c ****  *---------------------------------------------------------------------------*/
  34:d:/LiteOS_Lab/iot_link/at\at.c **** 
  35:d:/LiteOS_Lab/iot_link/at\at.c **** #include <at.h>
  36:d:/LiteOS_Lab/iot_link/at\at.c **** #include <stdlib.h>
  37:d:/LiteOS_Lab/iot_link/at\at.c **** #include <string.h>
  38:d:/LiteOS_Lab/iot_link/at\at.c **** #include <driver.h>
  39:d:/LiteOS_Lab/iot_link/at\at.c **** #include <sys/fcntl.h>
  40:d:/LiteOS_Lab/iot_link/at\at.c **** #include <ctype.h>
  41:d:/LiteOS_Lab/iot_link/at\at.c **** #include <link_log.h>
  42:d:/LiteOS_Lab/iot_link/at\at.c **** 
  43:d:/LiteOS_Lab/iot_link/at\at.c **** //these defines could be reconfigured at the iot_link_config.h
  44:d:/LiteOS_Lab/iot_link/at\at.c **** 
  45:d:/LiteOS_Lab/iot_link/at\at.c **** #ifndef CONFIG_AT_DEVNAME
  46:d:/LiteOS_Lab/iot_link/at\at.c **** #define CONFIG_AT_DEVNAME              "atdev"
  47:d:/LiteOS_Lab/iot_link/at\at.c **** #endif
  48:d:/LiteOS_Lab/iot_link/at\at.c **** 
  49:d:/LiteOS_Lab/iot_link/at\at.c **** #ifndef CONFIG_AT_OOBTABLEN
  50:d:/LiteOS_Lab/iot_link/at\at.c **** #define CONFIG_AT_OOBTABLEN              6              //only allow 6 oob command monitor here,you
  51:d:/LiteOS_Lab/iot_link/at\at.c **** #endif
  52:d:/LiteOS_Lab/iot_link/at\at.c **** 
  53:d:/LiteOS_Lab/iot_link/at\at.c **** #ifndef CONFIG_AT_RECVMAXLEN
  54:d:/LiteOS_Lab/iot_link/at\at.c **** #define CONFIG_AT_RECVMAXLEN             2048           //PROSING THAT COULD GET THE MOST REPSLENGT
  55:d:/LiteOS_Lab/iot_link/at\at.c **** #endif
  56:d:/LiteOS_Lab/iot_link/at\at.c **** 
  57:d:/LiteOS_Lab/iot_link/at\at.c **** #ifndef CONFIG_AT_TASKPRIOR
  58:d:/LiteOS_Lab/iot_link/at\at.c **** #define CONFIG_AT_TASKPRIOR              3
  59:d:/LiteOS_Lab/iot_link/at\at.c **** #endif
  60:d:/LiteOS_Lab/iot_link/at\at.c **** 
  61:d:/LiteOS_Lab/iot_link/at\at.c **** //at control block here
  62:d:/LiteOS_Lab/iot_link/at\at.c **** typedef struct
  63:d:/LiteOS_Lab/iot_link/at\at.c **** {
  64:d:/LiteOS_Lab/iot_link/at\at.c ****     const void *cmd;               //pointed to the at command
  65:d:/LiteOS_Lab/iot_link/at\at.c ****     size_t      cmdlen;            //how many bytes of the command for the command may not be strin
  66:d:/LiteOS_Lab/iot_link/at\at.c ****     const char *index;             //used to check if the frame is the response of the command
  67:d:/LiteOS_Lab/iot_link/at\at.c ****     const void *respbuf;           //which used to storage the response,supplied by the at command
  68:d:/LiteOS_Lab/iot_link/at\at.c ****     size_t      respbuflen;        //index the response buffer length,supplied by the at command
  69:d:/LiteOS_Lab/iot_link/at\at.c ****     size_t      respdatalen;       //index how many data in the response buffer, filled by the at e
  70:d:/LiteOS_Lab/iot_link/at\at.c ****     osal_semp_t      respsync;     //binary semphore, activated by the at engine,if any response ma
ARM GAS  C:\Users\ADMINI~1\AppData\Local\Temp\cctBI08w.s 			page 3


  71:d:/LiteOS_Lab/iot_link/at\at.c ****     osal_semp_t      cmdsync;      //used to make the at command sync, binary sempore, only one at 
  72:d:/LiteOS_Lab/iot_link/at\at.c ****     osal_mutex_t     cmdlock;      //make the command list atomic
  73:d:/LiteOS_Lab/iot_link/at\at.c **** }at_cmd_item;//the member cmd and cmdlen not used yet,will be used for the debug
  74:d:/LiteOS_Lab/iot_link/at\at.c **** 
  75:d:/LiteOS_Lab/iot_link/at\at.c **** typedef struct
  76:d:/LiteOS_Lab/iot_link/at\at.c **** {
  77:d:/LiteOS_Lab/iot_link/at\at.c ****     const char *name;     ///< this function used for the oob item name
  78:d:/LiteOS_Lab/iot_link/at\at.c ****     fn_at_oob   func;     ///<  the function that will deal the out of band data
  79:d:/LiteOS_Lab/iot_link/at\at.c ****     void       *args;     ///<  the function param for the function
  80:d:/LiteOS_Lab/iot_link/at\at.c ****     const char *index;    ///<  used to match the out of band data,only compared from the header
  81:d:/LiteOS_Lab/iot_link/at\at.c ****     size_t      len;   ///<  used for the index length
  82:d:/LiteOS_Lab/iot_link/at\at.c **** }at_oob_item;
  83:d:/LiteOS_Lab/iot_link/at\at.c **** 
  84:d:/LiteOS_Lab/iot_link/at\at.c **** typedef enum
  85:d:/LiteOS_Lab/iot_link/at\at.c **** {
  86:d:/LiteOS_Lab/iot_link/at\at.c ****     en_at_debug_none = 0,
  87:d:/LiteOS_Lab/iot_link/at\at.c ****     en_at_debug_ascii,
  88:d:/LiteOS_Lab/iot_link/at\at.c ****     en_at_debug_hex,
  89:d:/LiteOS_Lab/iot_link/at\at.c **** }en_at_rxtx_debugmode;        //FUNCTION USED TO CONTROL THE DEBUG MODE
  90:d:/LiteOS_Lab/iot_link/at\at.c **** 
  91:d:/LiteOS_Lab/iot_link/at\at.c **** typedef struct
  92:d:/LiteOS_Lab/iot_link/at\at.c **** {
  93:d:/LiteOS_Lab/iot_link/at\at.c ****     const char             *devname;  //we use the device frame work to do this
  94:d:/LiteOS_Lab/iot_link/at\at.c ****     los_dev_t               devhandle;//the device handle used 
  95:d:/LiteOS_Lab/iot_link/at\at.c **** 
  96:d:/LiteOS_Lab/iot_link/at\at.c ****     at_cmd_item             cmd;      //the at command,only one command could be excuted
  97:d:/LiteOS_Lab/iot_link/at\at.c ****     at_oob_item             oob[CONFIG_AT_OOBTABLEN];        //storage the out of band dealer
  98:d:/LiteOS_Lab/iot_link/at\at.c ****     char                    rcvbuf[CONFIG_AT_RECVMAXLEN];     //used storage one frame,read from th
  99:d:/LiteOS_Lab/iot_link/at\at.c ****     unsigned int            rxdebugmode:2;                 //receive debug mode
 100:d:/LiteOS_Lab/iot_link/at\at.c ****     unsigned int            txdebugmode:2;                 //send debug mode
 101:d:/LiteOS_Lab/iot_link/at\at.c **** 
 102:d:/LiteOS_Lab/iot_link/at\at.c ****     int                     streammode;
 103:d:/LiteOS_Lab/iot_link/at\at.c **** }at_cb_t;
 104:d:/LiteOS_Lab/iot_link/at\at.c **** static at_cb_t g_at_cb;   //this is the at controller here
 105:d:/LiteOS_Lab/iot_link/at\at.c **** 
 106:d:/LiteOS_Lab/iot_link/at\at.c **** 
 107:d:/LiteOS_Lab/iot_link/at\at.c **** static void print_ascii(const char *index,const uint8_t *data, int len)
 108:d:/LiteOS_Lab/iot_link/at\at.c **** {
  41              		.loc 1 108 1
  42              		.cfi_startproc
  43              		@ args = 0, pretend = 0, frame = 24
  44              		@ frame_needed = 1, uses_anonymous_args = 0
  45 0000 80B5     		push	{r7, lr}
  46              	.LCFI0:
  47              		.cfi_def_cfa_offset 8
  48              		.cfi_offset 7, -8
  49              		.cfi_offset 14, -4
  50 0002 86B0     		sub	sp, sp, #24
  51              	.LCFI1:
  52              		.cfi_def_cfa_offset 32
  53 0004 00AF     		add	r7, sp, #0
  54              	.LCFI2:
  55              		.cfi_def_cfa_register 7
  56 0006 F860     		str	r0, [r7, #12]
  57 0008 B960     		str	r1, [r7, #8]
  58 000a 7A60     		str	r2, [r7, #4]
 109:d:/LiteOS_Lab/iot_link/at\at.c ****     int i = 0;
ARM GAS  C:\Users\ADMINI~1\AppData\Local\Temp\cctBI08w.s 			page 4


  59              		.loc 1 109 9
  60 000c 0023     		movs	r3, #0
  61 000e 7B61     		str	r3, [r7, #20]
 110:d:/LiteOS_Lab/iot_link/at\at.c **** 
 111:d:/LiteOS_Lab/iot_link/at\at.c ****     link_printf("%s:%d bytes:",index,len);
  62              		.loc 1 111 5
  63 0010 7A68     		ldr	r2, [r7, #4]
  64 0012 F968     		ldr	r1, [r7, #12]
  65 0014 1648     		ldr	r0, .L5
  66 0016 FFF7FEFF 		bl	printf
  67 001a 164B     		ldr	r3, .L5+4
  68 001c 1B68     		ldr	r3, [r3]
  69 001e 9B68     		ldr	r3, [r3, #8]
  70 0020 1846     		mov	r0, r3
  71 0022 FFF7FEFF 		bl	fflush
 112:d:/LiteOS_Lab/iot_link/at\at.c ****     for( i = 0;i< len;i++)
  72              		.loc 1 112 12
  73 0026 0023     		movs	r3, #0
  74 0028 7B61     		str	r3, [r7, #20]
  75              		.loc 1 112 5
  76 002a 0FE0     		b	.L2
  77              	.L3:
 113:d:/LiteOS_Lab/iot_link/at\at.c ****     {
 114:d:/LiteOS_Lab/iot_link/at\at.c ****         link_printf("%c",(char)data[i]);
  78              		.loc 1 114 9 discriminator 3
  79 002c 7B69     		ldr	r3, [r7, #20]
  80 002e BA68     		ldr	r2, [r7, #8]
  81 0030 1344     		add	r3, r3, r2
  82 0032 1B78     		ldrb	r3, [r3]	@ zero_extendqisi2
  83 0034 1846     		mov	r0, r3
  84 0036 FFF7FEFF 		bl	putchar
  85 003a 0E4B     		ldr	r3, .L5+4
  86 003c 1B68     		ldr	r3, [r3]
  87 003e 9B68     		ldr	r3, [r3, #8]
  88 0040 1846     		mov	r0, r3
  89 0042 FFF7FEFF 		bl	fflush
 112:d:/LiteOS_Lab/iot_link/at\at.c ****     for( i = 0;i< len;i++)
  90              		.loc 1 112 24 discriminator 3
  91 0046 7B69     		ldr	r3, [r7, #20]
  92 0048 0133     		adds	r3, r3, #1
  93 004a 7B61     		str	r3, [r7, #20]
  94              	.L2:
 112:d:/LiteOS_Lab/iot_link/at\at.c ****     for( i = 0;i< len;i++)
  95              		.loc 1 112 5 discriminator 1
  96 004c 7A69     		ldr	r2, [r7, #20]
  97 004e 7B68     		ldr	r3, [r7, #4]
  98 0050 9A42     		cmp	r2, r3
  99 0052 EBDB     		blt	.L3
 115:d:/LiteOS_Lab/iot_link/at\at.c ****     }
 116:d:/LiteOS_Lab/iot_link/at\at.c ****     link_printf("\r\n");
 100              		.loc 1 116 5
 101 0054 0848     		ldr	r0, .L5+8
 102 0056 FFF7FEFF 		bl	puts
 103 005a 064B     		ldr	r3, .L5+4
 104 005c 1B68     		ldr	r3, [r3]
 105 005e 9B68     		ldr	r3, [r3, #8]
 106 0060 1846     		mov	r0, r3
ARM GAS  C:\Users\ADMINI~1\AppData\Local\Temp\cctBI08w.s 			page 5


 107 0062 FFF7FEFF 		bl	fflush
 117:d:/LiteOS_Lab/iot_link/at\at.c ****     return;
 108              		.loc 1 117 5
 109 0066 00BF     		nop
 118:d:/LiteOS_Lab/iot_link/at\at.c **** }
 110              		.loc 1 118 1
 111 0068 1837     		adds	r7, r7, #24
 112              	.LCFI3:
 113              		.cfi_def_cfa_offset 8
 114 006a BD46     		mov	sp, r7
 115              	.LCFI4:
 116              		.cfi_def_cfa_register 13
 117              		@ sp needed
 118 006c 80BD     		pop	{r7, pc}
 119              	.L6:
 120 006e 00BF     		.align	2
 121              	.L5:
 122 0070 00000000 		.word	.LC0
 123 0074 00000000 		.word	_impure_ptr
 124 0078 10000000 		.word	.LC1
 125              		.cfi_endproc
 126              	.LFE3:
 128              		.section	.rodata
 129 0012 0000     		.align	2
 130              	.LC2:
 131 0014 25303278 		.ascii	"%02x \000"
 131      2000
 132              		.section	.text.print_hex,"ax",%progbits
 133              		.align	1
 134              		.syntax unified
 135              		.thumb
 136              		.thumb_func
 137              		.fpu fpv4-sp-d16
 139              	print_hex:
 140              	.LFB4:
 119:d:/LiteOS_Lab/iot_link/at\at.c **** 
 120:d:/LiteOS_Lab/iot_link/at\at.c **** static void print_hex(const char *index,const uint8_t *data, int len)
 121:d:/LiteOS_Lab/iot_link/at\at.c **** {
 141              		.loc 1 121 1
 142              		.cfi_startproc
 143              		@ args = 0, pretend = 0, frame = 24
 144              		@ frame_needed = 1, uses_anonymous_args = 0
 145 0000 80B5     		push	{r7, lr}
 146              	.LCFI5:
 147              		.cfi_def_cfa_offset 8
 148              		.cfi_offset 7, -8
 149              		.cfi_offset 14, -4
 150 0002 86B0     		sub	sp, sp, #24
 151              	.LCFI6:
 152              		.cfi_def_cfa_offset 32
 153 0004 00AF     		add	r7, sp, #0
 154              	.LCFI7:
 155              		.cfi_def_cfa_register 7
 156 0006 F860     		str	r0, [r7, #12]
 157 0008 B960     		str	r1, [r7, #8]
 158 000a 7A60     		str	r2, [r7, #4]
 122:d:/LiteOS_Lab/iot_link/at\at.c ****     int i = 0;
ARM GAS  C:\Users\ADMINI~1\AppData\Local\Temp\cctBI08w.s 			page 6


 159              		.loc 1 122 9
 160 000c 0023     		movs	r3, #0
 161 000e 7B61     		str	r3, [r7, #20]
 123:d:/LiteOS_Lab/iot_link/at\at.c ****     link_printf("%s:%d bytes:",index, len);
 162              		.loc 1 123 5
 163 0010 7A68     		ldr	r2, [r7, #4]
 164 0012 F968     		ldr	r1, [r7, #12]
 165 0014 1648     		ldr	r0, .L11
 166 0016 FFF7FEFF 		bl	printf
 167 001a 164B     		ldr	r3, .L11+4
 168 001c 1B68     		ldr	r3, [r3]
 169 001e 9B68     		ldr	r3, [r3, #8]
 170 0020 1846     		mov	r0, r3
 171 0022 FFF7FEFF 		bl	fflush
 124:d:/LiteOS_Lab/iot_link/at\at.c ****     for(i =0;i<len;i++)
 172              		.loc 1 124 11
 173 0026 0023     		movs	r3, #0
 174 0028 7B61     		str	r3, [r7, #20]
 175              		.loc 1 124 5
 176 002a 10E0     		b	.L8
 177              	.L9:
 125:d:/LiteOS_Lab/iot_link/at\at.c ****     {
 126:d:/LiteOS_Lab/iot_link/at\at.c ****         link_printf("%02x ",*((uint8_t *)(data) + i));
 178              		.loc 1 126 9 discriminator 3
 179 002c 7B69     		ldr	r3, [r7, #20]
 180 002e BA68     		ldr	r2, [r7, #8]
 181 0030 1344     		add	r3, r3, r2
 182 0032 1B78     		ldrb	r3, [r3]	@ zero_extendqisi2
 183 0034 1946     		mov	r1, r3
 184 0036 1048     		ldr	r0, .L11+8
 185 0038 FFF7FEFF 		bl	printf
 186 003c 0D4B     		ldr	r3, .L11+4
 187 003e 1B68     		ldr	r3, [r3]
 188 0040 9B68     		ldr	r3, [r3, #8]
 189 0042 1846     		mov	r0, r3
 190 0044 FFF7FEFF 		bl	fflush
 124:d:/LiteOS_Lab/iot_link/at\at.c ****     for(i =0;i<len;i++)
 191              		.loc 1 124 21 discriminator 3
 192 0048 7B69     		ldr	r3, [r7, #20]
 193 004a 0133     		adds	r3, r3, #1
 194 004c 7B61     		str	r3, [r7, #20]
 195              	.L8:
 124:d:/LiteOS_Lab/iot_link/at\at.c ****     for(i =0;i<len;i++)
 196              		.loc 1 124 5 discriminator 1
 197 004e 7A69     		ldr	r2, [r7, #20]
 198 0050 7B68     		ldr	r3, [r7, #4]
 199 0052 9A42     		cmp	r2, r3
 200 0054 EADB     		blt	.L9
 127:d:/LiteOS_Lab/iot_link/at\at.c ****     }
 128:d:/LiteOS_Lab/iot_link/at\at.c ****     link_printf("\r\n");
 201              		.loc 1 128 5
 202 0056 0948     		ldr	r0, .L11+12
 203 0058 FFF7FEFF 		bl	puts
 204 005c 054B     		ldr	r3, .L11+4
 205 005e 1B68     		ldr	r3, [r3]
 206 0060 9B68     		ldr	r3, [r3, #8]
 207 0062 1846     		mov	r0, r3
ARM GAS  C:\Users\ADMINI~1\AppData\Local\Temp\cctBI08w.s 			page 7


 208 0064 FFF7FEFF 		bl	fflush
 129:d:/LiteOS_Lab/iot_link/at\at.c ****     return;
 209              		.loc 1 129 5
 210 0068 00BF     		nop
 130:d:/LiteOS_Lab/iot_link/at\at.c **** }
 211              		.loc 1 130 1
 212 006a 1837     		adds	r7, r7, #24
 213              	.LCFI8:
 214              		.cfi_def_cfa_offset 8
 215 006c BD46     		mov	sp, r7
 216              	.LCFI9:
 217              		.cfi_def_cfa_register 13
 218              		@ sp needed
 219 006e 80BD     		pop	{r7, pc}
 220              	.L12:
 221              		.align	2
 222              	.L11:
 223 0070 00000000 		.word	.LC0
 224 0074 00000000 		.word	_impure_ptr
 225 0078 14000000 		.word	.LC2
 226 007c 10000000 		.word	.LC1
 227              		.cfi_endproc
 228              	.LFE4:
 230              		.section	.text.print_payload,"ax",%progbits
 231              		.align	1
 232              		.syntax unified
 233              		.thumb
 234              		.thumb_func
 235              		.fpu fpv4-sp-d16
 237              	print_payload:
 238              	.LFB5:
 131:d:/LiteOS_Lab/iot_link/at\at.c **** 
 132:d:/LiteOS_Lab/iot_link/at\at.c **** static void print_payload(const char *index,const uint8_t *data, int len,en_at_rxtx_debugmode mode)
 133:d:/LiteOS_Lab/iot_link/at\at.c **** {
 239              		.loc 1 133 1
 240              		.cfi_startproc
 241              		@ args = 0, pretend = 0, frame = 16
 242              		@ frame_needed = 1, uses_anonymous_args = 0
 243 0000 80B5     		push	{r7, lr}
 244              	.LCFI10:
 245              		.cfi_def_cfa_offset 8
 246              		.cfi_offset 7, -8
 247              		.cfi_offset 14, -4
 248 0002 84B0     		sub	sp, sp, #16
 249              	.LCFI11:
 250              		.cfi_def_cfa_offset 24
 251 0004 00AF     		add	r7, sp, #0
 252              	.LCFI12:
 253              		.cfi_def_cfa_register 7
 254 0006 F860     		str	r0, [r7, #12]
 255 0008 B960     		str	r1, [r7, #8]
 256 000a 7A60     		str	r2, [r7, #4]
 257 000c FB70     		strb	r3, [r7, #3]
 134:d:/LiteOS_Lab/iot_link/at\at.c ****     if(mode == en_at_debug_ascii)
 258              		.loc 1 134 7
 259 000e FB78     		ldrb	r3, [r7, #3]	@ zero_extendqisi2
 260 0010 012B     		cmp	r3, #1
ARM GAS  C:\Users\ADMINI~1\AppData\Local\Temp\cctBI08w.s 			page 8


 261 0012 05D1     		bne	.L14
 135:d:/LiteOS_Lab/iot_link/at\at.c ****     {
 136:d:/LiteOS_Lab/iot_link/at\at.c ****         print_ascii(index, data, len);
 262              		.loc 1 136 9
 263 0014 7A68     		ldr	r2, [r7, #4]
 264 0016 B968     		ldr	r1, [r7, #8]
 265 0018 F868     		ldr	r0, [r7, #12]
 266 001a FFF7FEFF 		bl	print_ascii
 137:d:/LiteOS_Lab/iot_link/at\at.c ****     }
 138:d:/LiteOS_Lab/iot_link/at\at.c ****     else if(mode == en_at_debug_hex)
 139:d:/LiteOS_Lab/iot_link/at\at.c ****     {
 140:d:/LiteOS_Lab/iot_link/at\at.c ****         print_hex(index,data, len);
 141:d:/LiteOS_Lab/iot_link/at\at.c ****     }
 142:d:/LiteOS_Lab/iot_link/at\at.c ****     else
 143:d:/LiteOS_Lab/iot_link/at\at.c ****     {
 144:d:/LiteOS_Lab/iot_link/at\at.c **** 
 145:d:/LiteOS_Lab/iot_link/at\at.c ****     }
 146:d:/LiteOS_Lab/iot_link/at\at.c **** }
 267              		.loc 1 146 1
 268 001e 07E0     		b	.L16
 269              	.L14:
 138:d:/LiteOS_Lab/iot_link/at\at.c ****     {
 270              		.loc 1 138 12
 271 0020 FB78     		ldrb	r3, [r7, #3]	@ zero_extendqisi2
 272 0022 022B     		cmp	r3, #2
 273 0024 04D1     		bne	.L16
 140:d:/LiteOS_Lab/iot_link/at\at.c ****     }
 274              		.loc 1 140 9
 275 0026 7A68     		ldr	r2, [r7, #4]
 276 0028 B968     		ldr	r1, [r7, #8]
 277 002a F868     		ldr	r0, [r7, #12]
 278 002c FFF7FEFF 		bl	print_hex
 279              	.L16:
 280              		.loc 1 146 1
 281 0030 00BF     		nop
 282 0032 1037     		adds	r7, r7, #16
 283              	.LCFI13:
 284              		.cfi_def_cfa_offset 8
 285 0034 BD46     		mov	sp, r7
 286              	.LCFI14:
 287              		.cfi_def_cfa_register 13
 288              		@ sp needed
 289 0036 80BD     		pop	{r7, pc}
 290              		.cfi_endproc
 291              	.LFE5:
 293              		.section	.rodata
 294 001a 0000     		.align	2
 295              	.LC3:
 296 001c 4154534E 		.ascii	"ATSND\000"
 296      4400
 297              		.section	.text.__cmd_send,"ax",%progbits
 298              		.align	1
 299              		.syntax unified
 300              		.thumb
 301              		.thumb_func
 302              		.fpu fpv4-sp-d16
 304              	__cmd_send:
ARM GAS  C:\Users\ADMINI~1\AppData\Local\Temp\cctBI08w.s 			page 9


 305              	.LFB6:
 147:d:/LiteOS_Lab/iot_link/at\at.c **** //this function used to send the data to the AT channel
 148:d:/LiteOS_Lab/iot_link/at\at.c **** static int __cmd_send(const void *buf,size_t buflen,uint32_t timeout)
 149:d:/LiteOS_Lab/iot_link/at\at.c **** {
 306              		.loc 1 149 1
 307              		.cfi_startproc
 308              		@ args = 0, pretend = 0, frame = 24
 309              		@ frame_needed = 1, uses_anonymous_args = 0
 310 0000 80B5     		push	{r7, lr}
 311              	.LCFI15:
 312              		.cfi_def_cfa_offset 8
 313              		.cfi_offset 7, -8
 314              		.cfi_offset 14, -4
 315 0002 88B0     		sub	sp, sp, #32
 316              	.LCFI16:
 317              		.cfi_def_cfa_offset 40
 318 0004 02AF     		add	r7, sp, #8
 319              	.LCFI17:
 320              		.cfi_def_cfa 7, 32
 321 0006 F860     		str	r0, [r7, #12]
 322 0008 B960     		str	r1, [r7, #8]
 323 000a 7A60     		str	r2, [r7, #4]
 150:d:/LiteOS_Lab/iot_link/at\at.c ****     ssize_t ret = 0;
 324              		.loc 1 150 13
 325 000c 0023     		movs	r3, #0
 326 000e 7B61     		str	r3, [r7, #20]
 151:d:/LiteOS_Lab/iot_link/at\at.c **** 
 152:d:/LiteOS_Lab/iot_link/at\at.c ****     ret = los_dev_write(g_at_cb.devhandle,0,buf,buflen,timeout);
 327              		.loc 1 152 11
 328 0010 114B     		ldr	r3, .L21
 329 0012 5868     		ldr	r0, [r3, #4]
 330 0014 7B68     		ldr	r3, [r7, #4]
 331 0016 0093     		str	r3, [sp]
 332 0018 BB68     		ldr	r3, [r7, #8]
 333 001a FA68     		ldr	r2, [r7, #12]
 334 001c 0021     		movs	r1, #0
 335 001e FFF7FEFF 		bl	los_dev_write
 336 0022 7861     		str	r0, [r7, #20]
 153:d:/LiteOS_Lab/iot_link/at\at.c ****     if(ret > 0)
 337              		.loc 1 153 7
 338 0024 7B69     		ldr	r3, [r7, #20]
 339 0026 002B     		cmp	r3, #0
 340 0028 0DDD     		ble	.L18
 154:d:/LiteOS_Lab/iot_link/at\at.c ****     {
 155:d:/LiteOS_Lab/iot_link/at\at.c ****         print_payload("ATSND",buf, buflen,g_at_cb.txdebugmode);
 341              		.loc 1 155 9
 342 002a BA68     		ldr	r2, [r7, #8]
 343              		.loc 1 155 50
 344 002c 0A4B     		ldr	r3, .L21
 345 002e 93F8A434 		ldrb	r3, [r3, #1188]
 346 0032 C3F38103 		ubfx	r3, r3, #2, #2
 347 0036 DBB2     		uxtb	r3, r3
 348              		.loc 1 155 9
 349 0038 F968     		ldr	r1, [r7, #12]
 350 003a 0848     		ldr	r0, .L21+4
 351 003c FFF7FEFF 		bl	print_payload
 156:d:/LiteOS_Lab/iot_link/at\at.c ****         ret = 0;
ARM GAS  C:\Users\ADMINI~1\AppData\Local\Temp\cctBI08w.s 			page 10


 352              		.loc 1 156 13
 353 0040 0023     		movs	r3, #0
 354 0042 7B61     		str	r3, [r7, #20]
 355 0044 02E0     		b	.L19
 356              	.L18:
 157:d:/LiteOS_Lab/iot_link/at\at.c ****     }
 158:d:/LiteOS_Lab/iot_link/at\at.c ****     else
 159:d:/LiteOS_Lab/iot_link/at\at.c ****     {
 160:d:/LiteOS_Lab/iot_link/at\at.c ****         ret = -1;
 357              		.loc 1 160 13
 358 0046 4FF0FF33 		mov	r3, #-1
 359 004a 7B61     		str	r3, [r7, #20]
 360              	.L19:
 161:d:/LiteOS_Lab/iot_link/at\at.c ****     }
 162:d:/LiteOS_Lab/iot_link/at\at.c ****     return ret;
 361              		.loc 1 162 12
 362 004c 7B69     		ldr	r3, [r7, #20]
 163:d:/LiteOS_Lab/iot_link/at\at.c **** }
 363              		.loc 1 163 1
 364 004e 1846     		mov	r0, r3
 365 0050 1837     		adds	r7, r7, #24
 366              	.LCFI18:
 367              		.cfi_def_cfa_offset 8
 368 0052 BD46     		mov	sp, r7
 369              	.LCFI19:
 370              		.cfi_def_cfa_register 13
 371              		@ sp needed
 372 0054 80BD     		pop	{r7, pc}
 373              	.L22:
 374 0056 00BF     		.align	2
 375              	.L21:
 376 0058 00000000 		.word	g_at_cb
 377 005c 1C000000 		.word	.LC3
 378              		.cfi_endproc
 379              	.LFE6:
 381              		.section	.rodata
 382 0022 0000     		.align	2
 383              	.LC4:
 384 0024 41545243 		.ascii	"ATRCV\000"
 384      5600
 385              		.section	.text.__resp_rcv,"ax",%progbits
 386              		.align	1
 387              		.syntax unified
 388              		.thumb
 389              		.thumb_func
 390              		.fpu fpv4-sp-d16
 392              	__resp_rcv:
 393              	.LFB7:
 164:d:/LiteOS_Lab/iot_link/at\at.c **** 
 165:d:/LiteOS_Lab/iot_link/at\at.c **** //this function used to receive data from the AT channel
 166:d:/LiteOS_Lab/iot_link/at\at.c **** static int __resp_rcv(void *buf,size_t buflen,uint32_t timeout)
 167:d:/LiteOS_Lab/iot_link/at\at.c **** {
 394              		.loc 1 167 1
 395              		.cfi_startproc
 396              		@ args = 0, pretend = 0, frame = 24
 397              		@ frame_needed = 1, uses_anonymous_args = 0
 398 0000 80B5     		push	{r7, lr}
ARM GAS  C:\Users\ADMINI~1\AppData\Local\Temp\cctBI08w.s 			page 11


 399              	.LCFI20:
 400              		.cfi_def_cfa_offset 8
 401              		.cfi_offset 7, -8
 402              		.cfi_offset 14, -4
 403 0002 88B0     		sub	sp, sp, #32
 404              	.LCFI21:
 405              		.cfi_def_cfa_offset 40
 406 0004 02AF     		add	r7, sp, #8
 407              	.LCFI22:
 408              		.cfi_def_cfa 7, 32
 409 0006 F860     		str	r0, [r7, #12]
 410 0008 B960     		str	r1, [r7, #8]
 411 000a 7A60     		str	r2, [r7, #4]
 168:d:/LiteOS_Lab/iot_link/at\at.c ****     ssize_t ret = 0;
 412              		.loc 1 168 13
 413 000c 0023     		movs	r3, #0
 414 000e 7B61     		str	r3, [r7, #20]
 169:d:/LiteOS_Lab/iot_link/at\at.c **** 
 170:d:/LiteOS_Lab/iot_link/at\at.c ****     ret = los_dev_read(g_at_cb.devhandle,0,buf,buflen,timeout);
 415              		.loc 1 170 11
 416 0010 0E4B     		ldr	r3, .L26
 417 0012 5868     		ldr	r0, [r3, #4]
 418 0014 7B68     		ldr	r3, [r7, #4]
 419 0016 0093     		str	r3, [sp]
 420 0018 BB68     		ldr	r3, [r7, #8]
 421 001a FA68     		ldr	r2, [r7, #12]
 422 001c 0021     		movs	r1, #0
 423 001e FFF7FEFF 		bl	los_dev_read
 424 0022 7861     		str	r0, [r7, #20]
 171:d:/LiteOS_Lab/iot_link/at\at.c ****     if(ret > 0)
 425              		.loc 1 171 7
 426 0024 7B69     		ldr	r3, [r7, #20]
 427 0026 002B     		cmp	r3, #0
 428 0028 0ADD     		ble	.L24
 172:d:/LiteOS_Lab/iot_link/at\at.c ****     {
 173:d:/LiteOS_Lab/iot_link/at\at.c ****         print_payload("ATRCV",buf, ret,g_at_cb.rxdebugmode);
 429              		.loc 1 173 47
 430 002a 084B     		ldr	r3, .L26
 431 002c 93F8A434 		ldrb	r3, [r3, #1188]
 432 0030 C3F30103 		ubfx	r3, r3, #0, #2
 433 0034 DBB2     		uxtb	r3, r3
 434              		.loc 1 173 9
 435 0036 7A69     		ldr	r2, [r7, #20]
 436 0038 F968     		ldr	r1, [r7, #12]
 437 003a 0548     		ldr	r0, .L26+4
 438 003c FFF7FEFF 		bl	print_payload
 439              	.L24:
 174:d:/LiteOS_Lab/iot_link/at\at.c ****     }  
 175:d:/LiteOS_Lab/iot_link/at\at.c ****  
 176:d:/LiteOS_Lab/iot_link/at\at.c ****     return ret;
 440              		.loc 1 176 12
 441 0040 7B69     		ldr	r3, [r7, #20]
 177:d:/LiteOS_Lab/iot_link/at\at.c **** }
 442              		.loc 1 177 1
 443 0042 1846     		mov	r0, r3
 444 0044 1837     		adds	r7, r7, #24
 445              	.LCFI23:
ARM GAS  C:\Users\ADMINI~1\AppData\Local\Temp\cctBI08w.s 			page 12


 446              		.cfi_def_cfa_offset 8
 447 0046 BD46     		mov	sp, r7
 448              	.LCFI24:
 449              		.cfi_def_cfa_register 13
 450              		@ sp needed
 451 0048 80BD     		pop	{r7, pc}
 452              	.L27:
 453 004a 00BF     		.align	2
 454              	.L26:
 455 004c 00000000 		.word	g_at_cb
 456 0050 24000000 		.word	.LC4
 457              		.cfi_endproc
 458              	.LFE7:
 460              		.section	.text.__cmd_create,"ax",%progbits
 461              		.align	1
 462              		.syntax unified
 463              		.thumb
 464              		.thumb_func
 465              		.fpu fpv4-sp-d16
 467              	__cmd_create:
 468              	.LFB8:
 178:d:/LiteOS_Lab/iot_link/at\at.c **** 
 179:d:/LiteOS_Lab/iot_link/at\at.c **** //create a command
 180:d:/LiteOS_Lab/iot_link/at\at.c **** static int  __cmd_create(const void *cmdbuf,size_t cmdlen,const char *index,void *respbuf,size_t re
 181:d:/LiteOS_Lab/iot_link/at\at.c **** {
 469              		.loc 1 181 1
 470              		.cfi_startproc
 471              		@ args = 8, pretend = 0, frame = 24
 472              		@ frame_needed = 1, uses_anonymous_args = 0
 473 0000 80B5     		push	{r7, lr}
 474              	.LCFI25:
 475              		.cfi_def_cfa_offset 8
 476              		.cfi_offset 7, -8
 477              		.cfi_offset 14, -4
 478 0002 86B0     		sub	sp, sp, #24
 479              	.LCFI26:
 480              		.cfi_def_cfa_offset 32
 481 0004 00AF     		add	r7, sp, #0
 482              	.LCFI27:
 483              		.cfi_def_cfa_register 7
 484 0006 F860     		str	r0, [r7, #12]
 485 0008 B960     		str	r1, [r7, #8]
 486 000a 7A60     		str	r2, [r7, #4]
 487 000c 3B60     		str	r3, [r7]
 182:d:/LiteOS_Lab/iot_link/at\at.c ****     int  ret = -1;
 488              		.loc 1 182 10
 489 000e 4FF0FF33 		mov	r3, #-1
 490 0012 7B61     		str	r3, [r7, #20]
 183:d:/LiteOS_Lab/iot_link/at\at.c ****     at_cmd_item *cmd;
 184:d:/LiteOS_Lab/iot_link/at\at.c **** 
 185:d:/LiteOS_Lab/iot_link/at\at.c ****     cmd = &g_at_cb.cmd;
 491              		.loc 1 185 9
 492 0014 194B     		ldr	r3, .L32
 493 0016 3B61     		str	r3, [r7, #16]
 186:d:/LiteOS_Lab/iot_link/at\at.c ****     if(osal_semp_pend(cmd->cmdsync,timeout))
 494              		.loc 1 186 8
 495 0018 3B69     		ldr	r3, [r7, #16]
ARM GAS  C:\Users\ADMINI~1\AppData\Local\Temp\cctBI08w.s 			page 13


 496 001a DB69     		ldr	r3, [r3, #28]
 497 001c 796A     		ldr	r1, [r7, #36]
 498 001e 1846     		mov	r0, r3
 499 0020 FFF7FEFF 		bl	osal_semp_pend
 500 0024 0346     		mov	r3, r0
 501              		.loc 1 186 7
 502 0026 002B     		cmp	r3, #0
 503 0028 23D0     		beq	.L29
 187:d:/LiteOS_Lab/iot_link/at\at.c ****     {
 188:d:/LiteOS_Lab/iot_link/at\at.c ****         if(osal_mutex_lock(cmd->cmdlock))
 504              		.loc 1 188 12
 505 002a 3B69     		ldr	r3, [r7, #16]
 506 002c 1B6A     		ldr	r3, [r3, #32]
 507 002e 1846     		mov	r0, r3
 508 0030 FFF7FEFF 		bl	osal_mutex_lock
 509 0034 0346     		mov	r3, r0
 510              		.loc 1 188 11
 511 0036 002B     		cmp	r3, #0
 512 0038 19D0     		beq	.L30
 189:d:/LiteOS_Lab/iot_link/at\at.c ****         {
 190:d:/LiteOS_Lab/iot_link/at\at.c ****             cmd->cmd = cmdbuf;
 513              		.loc 1 190 22
 514 003a 3B69     		ldr	r3, [r7, #16]
 515 003c FA68     		ldr	r2, [r7, #12]
 516 003e 1A60     		str	r2, [r3]
 191:d:/LiteOS_Lab/iot_link/at\at.c ****             cmd->cmdlen = cmdlen;
 517              		.loc 1 191 25
 518 0040 3B69     		ldr	r3, [r7, #16]
 519 0042 BA68     		ldr	r2, [r7, #8]
 520 0044 5A60     		str	r2, [r3, #4]
 192:d:/LiteOS_Lab/iot_link/at\at.c ****             cmd->index = index;
 521              		.loc 1 192 24
 522 0046 3B69     		ldr	r3, [r7, #16]
 523 0048 7A68     		ldr	r2, [r7, #4]
 524 004a 9A60     		str	r2, [r3, #8]
 193:d:/LiteOS_Lab/iot_link/at\at.c ****             cmd->respbuf = respbuf;
 525              		.loc 1 193 26
 526 004c 3B69     		ldr	r3, [r7, #16]
 527 004e 3A68     		ldr	r2, [r7]
 528 0050 DA60     		str	r2, [r3, #12]
 194:d:/LiteOS_Lab/iot_link/at\at.c ****             cmd->respbuflen = respbuflen;
 529              		.loc 1 194 29
 530 0052 3B69     		ldr	r3, [r7, #16]
 531 0054 3A6A     		ldr	r2, [r7, #32]
 532 0056 1A61     		str	r2, [r3, #16]
 195:d:/LiteOS_Lab/iot_link/at\at.c ****             (void) osal_semp_pend(cmd->respsync,0); //used to clear the sync
 533              		.loc 1 195 20
 534 0058 3B69     		ldr	r3, [r7, #16]
 535 005a 9B69     		ldr	r3, [r3, #24]
 536 005c 0021     		movs	r1, #0
 537 005e 1846     		mov	r0, r3
 538 0060 FFF7FEFF 		bl	osal_semp_pend
 196:d:/LiteOS_Lab/iot_link/at\at.c ****             (void) osal_mutex_unlock(cmd->cmdlock);
 539              		.loc 1 196 20
 540 0064 3B69     		ldr	r3, [r7, #16]
 541 0066 1B6A     		ldr	r3, [r3, #32]
 542 0068 1846     		mov	r0, r3
ARM GAS  C:\Users\ADMINI~1\AppData\Local\Temp\cctBI08w.s 			page 14


 543 006a FFF7FEFF 		bl	osal_mutex_unlock
 544              	.L30:
 197:d:/LiteOS_Lab/iot_link/at\at.c ****         }
 198:d:/LiteOS_Lab/iot_link/at\at.c ****         ret = 0;
 545              		.loc 1 198 13
 546 006e 0023     		movs	r3, #0
 547 0070 7B61     		str	r3, [r7, #20]
 548              	.L29:
 199:d:/LiteOS_Lab/iot_link/at\at.c ****     }
 200:d:/LiteOS_Lab/iot_link/at\at.c ****     return ret;
 549              		.loc 1 200 12
 550 0072 7B69     		ldr	r3, [r7, #20]
 201:d:/LiteOS_Lab/iot_link/at\at.c **** }
 551              		.loc 1 201 1
 552 0074 1846     		mov	r0, r3
 553 0076 1837     		adds	r7, r7, #24
 554              	.LCFI28:
 555              		.cfi_def_cfa_offset 8
 556 0078 BD46     		mov	sp, r7
 557              	.LCFI29:
 558              		.cfi_def_cfa_register 13
 559              		@ sp needed
 560 007a 80BD     		pop	{r7, pc}
 561              	.L33:
 562              		.align	2
 563              	.L32:
 564 007c 08000000 		.word	g_at_cb+8
 565              		.cfi_endproc
 566              	.LFE8:
 568              		.section	.text.__cmd_clear,"ax",%progbits
 569              		.align	1
 570              		.syntax unified
 571              		.thumb
 572              		.thumb_func
 573              		.fpu fpv4-sp-d16
 575              	__cmd_clear:
 576              	.LFB9:
 202:d:/LiteOS_Lab/iot_link/at\at.c **** 
 203:d:/LiteOS_Lab/iot_link/at\at.c **** //clear the at command here
 204:d:/LiteOS_Lab/iot_link/at\at.c **** static int __cmd_clear(void)
 205:d:/LiteOS_Lab/iot_link/at\at.c **** {
 577              		.loc 1 205 1
 578              		.cfi_startproc
 579              		@ args = 0, pretend = 0, frame = 8
 580              		@ frame_needed = 1, uses_anonymous_args = 0
 581 0000 80B5     		push	{r7, lr}
 582              	.LCFI30:
 583              		.cfi_def_cfa_offset 8
 584              		.cfi_offset 7, -8
 585              		.cfi_offset 14, -4
 586 0002 82B0     		sub	sp, sp, #8
 587              	.LCFI31:
 588              		.cfi_def_cfa_offset 16
 589 0004 00AF     		add	r7, sp, #0
 590              	.LCFI32:
 591              		.cfi_def_cfa_register 7
 206:d:/LiteOS_Lab/iot_link/at\at.c ****      at_cmd_item *cmd;
ARM GAS  C:\Users\ADMINI~1\AppData\Local\Temp\cctBI08w.s 			page 15


 207:d:/LiteOS_Lab/iot_link/at\at.c **** 
 208:d:/LiteOS_Lab/iot_link/at\at.c ****      cmd = &g_at_cb.cmd;
 592              		.loc 1 208 10
 593 0006 154B     		ldr	r3, .L37
 594 0008 7B60     		str	r3, [r7, #4]
 209:d:/LiteOS_Lab/iot_link/at\at.c ****      if(osal_mutex_lock(cmd->cmdlock))
 595              		.loc 1 209 9
 596 000a 7B68     		ldr	r3, [r7, #4]
 597 000c 1B6A     		ldr	r3, [r3, #32]
 598 000e 1846     		mov	r0, r3
 599 0010 FFF7FEFF 		bl	osal_mutex_lock
 600 0014 0346     		mov	r3, r0
 601              		.loc 1 209 8
 602 0016 002B     		cmp	r3, #0
 603 0018 16D0     		beq	.L35
 210:d:/LiteOS_Lab/iot_link/at\at.c ****      {
 211:d:/LiteOS_Lab/iot_link/at\at.c ****         cmd->cmd = NULL;
 604              		.loc 1 211 18
 605 001a 7B68     		ldr	r3, [r7, #4]
 606 001c 0022     		movs	r2, #0
 607 001e 1A60     		str	r2, [r3]
 212:d:/LiteOS_Lab/iot_link/at\at.c ****         cmd->cmdlen = 0;
 608              		.loc 1 212 21
 609 0020 7B68     		ldr	r3, [r7, #4]
 610 0022 0022     		movs	r2, #0
 611 0024 5A60     		str	r2, [r3, #4]
 213:d:/LiteOS_Lab/iot_link/at\at.c ****         cmd->index = NULL;
 612              		.loc 1 213 20
 613 0026 7B68     		ldr	r3, [r7, #4]
 614 0028 0022     		movs	r2, #0
 615 002a 9A60     		str	r2, [r3, #8]
 214:d:/LiteOS_Lab/iot_link/at\at.c ****         cmd->respbuf = NULL;
 616              		.loc 1 214 22
 617 002c 7B68     		ldr	r3, [r7, #4]
 618 002e 0022     		movs	r2, #0
 619 0030 DA60     		str	r2, [r3, #12]
 215:d:/LiteOS_Lab/iot_link/at\at.c ****         cmd->respbuflen = 0;
 620              		.loc 1 215 25
 621 0032 7B68     		ldr	r3, [r7, #4]
 622 0034 0022     		movs	r2, #0
 623 0036 1A61     		str	r2, [r3, #16]
 216:d:/LiteOS_Lab/iot_link/at\at.c ****         cmd->respdatalen = 0;
 624              		.loc 1 216 26
 625 0038 7B68     		ldr	r3, [r7, #4]
 626 003a 0022     		movs	r2, #0
 627 003c 5A61     		str	r2, [r3, #20]
 217:d:/LiteOS_Lab/iot_link/at\at.c ****         (void) osal_mutex_unlock(cmd->cmdlock);
 628              		.loc 1 217 16
 629 003e 7B68     		ldr	r3, [r7, #4]
 630 0040 1B6A     		ldr	r3, [r3, #32]
 631 0042 1846     		mov	r0, r3
 632 0044 FFF7FEFF 		bl	osal_mutex_unlock
 633              	.L35:
 218:d:/LiteOS_Lab/iot_link/at\at.c ****      }
 219:d:/LiteOS_Lab/iot_link/at\at.c ****      (void) osal_semp_post(cmd->cmdsync);
 634              		.loc 1 219 13
 635 0048 7B68     		ldr	r3, [r7, #4]
ARM GAS  C:\Users\ADMINI~1\AppData\Local\Temp\cctBI08w.s 			page 16


 636 004a DB69     		ldr	r3, [r3, #28]
 637 004c 1846     		mov	r0, r3
 638 004e FFF7FEFF 		bl	osal_semp_post
 220:d:/LiteOS_Lab/iot_link/at\at.c ****      return 0;
 639              		.loc 1 220 13
 640 0052 0023     		movs	r3, #0
 221:d:/LiteOS_Lab/iot_link/at\at.c **** }
 641              		.loc 1 221 1
 642 0054 1846     		mov	r0, r3
 643 0056 0837     		adds	r7, r7, #8
 644              	.LCFI33:
 645              		.cfi_def_cfa_offset 8
 646 0058 BD46     		mov	sp, r7
 647              	.LCFI34:
 648              		.cfi_def_cfa_register 13
 649              		@ sp needed
 650 005a 80BD     		pop	{r7, pc}
 651              	.L38:
 652              		.align	2
 653              	.L37:
 654 005c 08000000 		.word	g_at_cb+8
 655              		.cfi_endproc
 656              	.LFE9:
 658              		.section	.text.__cmd_match,"ax",%progbits
 659              		.align	1
 660              		.syntax unified
 661              		.thumb
 662              		.thumb_func
 663              		.fpu fpv4-sp-d16
 665              	__cmd_match:
 666              	.LFB10:
 222:d:/LiteOS_Lab/iot_link/at\at.c **** 
 223:d:/LiteOS_Lab/iot_link/at\at.c **** //check if the data received is the at command need
 224:d:/LiteOS_Lab/iot_link/at\at.c **** static int  __cmd_match(const void *data,size_t len)
 225:d:/LiteOS_Lab/iot_link/at\at.c **** {
 667              		.loc 1 225 1
 668              		.cfi_startproc
 669              		@ args = 0, pretend = 0, frame = 24
 670              		@ frame_needed = 1, uses_anonymous_args = 0
 671 0000 80B5     		push	{r7, lr}
 672              	.LCFI35:
 673              		.cfi_def_cfa_offset 8
 674              		.cfi_offset 7, -8
 675              		.cfi_offset 14, -4
 676 0002 86B0     		sub	sp, sp, #24
 677              	.LCFI36:
 678              		.cfi_def_cfa_offset 32
 679 0004 00AF     		add	r7, sp, #0
 680              	.LCFI37:
 681              		.cfi_def_cfa_register 7
 682 0006 7860     		str	r0, [r7, #4]
 683 0008 3960     		str	r1, [r7]
 226:d:/LiteOS_Lab/iot_link/at\at.c ****     int  ret = -1;
 684              		.loc 1 226 10
 685 000a 4FF0FF33 		mov	r3, #-1
 686 000e 7B61     		str	r3, [r7, #20]
 227:d:/LiteOS_Lab/iot_link/at\at.c ****     int  cpylen;
ARM GAS  C:\Users\ADMINI~1\AppData\Local\Temp\cctBI08w.s 			page 17


 228:d:/LiteOS_Lab/iot_link/at\at.c ****     at_cmd_item *cmd = NULL;
 687              		.loc 1 228 18
 688 0010 0023     		movs	r3, #0
 689 0012 3B61     		str	r3, [r7, #16]
 229:d:/LiteOS_Lab/iot_link/at\at.c **** 
 230:d:/LiteOS_Lab/iot_link/at\at.c ****     cmd = &g_at_cb.cmd;
 690              		.loc 1 230 9
 691 0014 204B     		ldr	r3, .L45
 692 0016 3B61     		str	r3, [r7, #16]
 231:d:/LiteOS_Lab/iot_link/at\at.c ****     if(osal_mutex_lock(cmd->cmdlock))
 693              		.loc 1 231 8
 694 0018 3B69     		ldr	r3, [r7, #16]
 695 001a 1B6A     		ldr	r3, [r3, #32]
 696 001c 1846     		mov	r0, r3
 697 001e FFF7FEFF 		bl	osal_mutex_lock
 698 0022 0346     		mov	r3, r0
 699              		.loc 1 231 7
 700 0024 002B     		cmp	r3, #0
 701 0026 31D0     		beq	.L40
 232:d:/LiteOS_Lab/iot_link/at\at.c ****     {
 233:d:/LiteOS_Lab/iot_link/at\at.c ****         if((NULL != cmd->index)&&(NULL != strstr((const char *)data,cmd->index)))
 702              		.loc 1 233 24
 703 0028 3B69     		ldr	r3, [r7, #16]
 704 002a 9B68     		ldr	r3, [r3, #8]
 705              		.loc 1 233 11
 706 002c 002B     		cmp	r3, #0
 707 002e 28D0     		beq	.L41
 708              		.loc 1 233 43 discriminator 1
 709 0030 3B69     		ldr	r3, [r7, #16]
 710 0032 9B68     		ldr	r3, [r3, #8]
 711 0034 1946     		mov	r1, r3
 712 0036 7868     		ldr	r0, [r7, #4]
 713 0038 FFF7FEFF 		bl	strstr
 714 003c 0346     		mov	r3, r0
 715              		.loc 1 233 32 discriminator 1
 716 003e 002B     		cmp	r3, #0
 717 0040 1FD0     		beq	.L41
 234:d:/LiteOS_Lab/iot_link/at\at.c ****         {
 235:d:/LiteOS_Lab/iot_link/at\at.c ****             if(NULL != cmd->respbuf)
 718              		.loc 1 235 27
 719 0042 3B69     		ldr	r3, [r7, #16]
 720 0044 DB68     		ldr	r3, [r3, #12]
 721              		.loc 1 235 15
 722 0046 002B     		cmp	r3, #0
 723 0048 11D0     		beq	.L42
 236:d:/LiteOS_Lab/iot_link/at\at.c ****             {
 237:d:/LiteOS_Lab/iot_link/at\at.c ****                 cpylen = len > cmd->respbuflen?cmd->respbuflen:len;
 724              		.loc 1 237 35
 725 004a 3B69     		ldr	r3, [r7, #16]
 726 004c 1A69     		ldr	r2, [r3, #16]
 727              		.loc 1 237 63
 728 004e 3B68     		ldr	r3, [r7]
 729 0050 9342     		cmp	r3, r2
 730 0052 28BF     		it	cs
 731 0054 1346     		movcs	r3, r2
 732              		.loc 1 237 24
 733 0056 FB60     		str	r3, [r7, #12]
ARM GAS  C:\Users\ADMINI~1\AppData\Local\Temp\cctBI08w.s 			page 18


 238:d:/LiteOS_Lab/iot_link/at\at.c ****                 (void) memcpy((char *)cmd->respbuf,data,cpylen);
 734              		.loc 1 238 42
 735 0058 3B69     		ldr	r3, [r7, #16]
 736 005a DB68     		ldr	r3, [r3, #12]
 737              		.loc 1 238 24
 738 005c FA68     		ldr	r2, [r7, #12]
 739 005e 7968     		ldr	r1, [r7, #4]
 740 0060 1846     		mov	r0, r3
 741 0062 FFF7FEFF 		bl	memcpy
 239:d:/LiteOS_Lab/iot_link/at\at.c ****                 cmd->respdatalen = cpylen;
 742              		.loc 1 239 34
 743 0066 FA68     		ldr	r2, [r7, #12]
 744 0068 3B69     		ldr	r3, [r7, #16]
 745 006a 5A61     		str	r2, [r3, #20]
 746 006c 02E0     		b	.L43
 747              	.L42:
 240:d:/LiteOS_Lab/iot_link/at\at.c ****             }
 241:d:/LiteOS_Lab/iot_link/at\at.c ****             else
 242:d:/LiteOS_Lab/iot_link/at\at.c ****             {
 243:d:/LiteOS_Lab/iot_link/at\at.c ****                 cmd->respdatalen = len; //tell the command that how many data has been get
 748              		.loc 1 243 34
 749 006e 3B69     		ldr	r3, [r7, #16]
 750 0070 3A68     		ldr	r2, [r7]
 751 0072 5A61     		str	r2, [r3, #20]
 752              	.L43:
 244:d:/LiteOS_Lab/iot_link/at\at.c ****             }
 245:d:/LiteOS_Lab/iot_link/at\at.c ****             (void) osal_semp_post(cmd->respsync);
 753              		.loc 1 245 20
 754 0074 3B69     		ldr	r3, [r7, #16]
 755 0076 9B69     		ldr	r3, [r3, #24]
 756 0078 1846     		mov	r0, r3
 757 007a FFF7FEFF 		bl	osal_semp_post
 246:d:/LiteOS_Lab/iot_link/at\at.c ****             ret = 0;
 758              		.loc 1 246 17
 759 007e 0023     		movs	r3, #0
 760 0080 7B61     		str	r3, [r7, #20]
 761              	.L41:
 247:d:/LiteOS_Lab/iot_link/at\at.c ****         }
 248:d:/LiteOS_Lab/iot_link/at\at.c ****         (void) osal_mutex_unlock(cmd->cmdlock);
 762              		.loc 1 248 16
 763 0082 3B69     		ldr	r3, [r7, #16]
 764 0084 1B6A     		ldr	r3, [r3, #32]
 765 0086 1846     		mov	r0, r3
 766 0088 FFF7FEFF 		bl	osal_mutex_unlock
 767              	.L40:
 249:d:/LiteOS_Lab/iot_link/at\at.c ****     }
 250:d:/LiteOS_Lab/iot_link/at\at.c ****     return ret;
 768              		.loc 1 250 12
 769 008c 7B69     		ldr	r3, [r7, #20]
 251:d:/LiteOS_Lab/iot_link/at\at.c **** }
 770              		.loc 1 251 1
 771 008e 1846     		mov	r0, r3
 772 0090 1837     		adds	r7, r7, #24
 773              	.LCFI38:
 774              		.cfi_def_cfa_offset 8
 775 0092 BD46     		mov	sp, r7
 776              	.LCFI39:
ARM GAS  C:\Users\ADMINI~1\AppData\Local\Temp\cctBI08w.s 			page 19


 777              		.cfi_def_cfa_register 13
 778              		@ sp needed
 779 0094 80BD     		pop	{r7, pc}
 780              	.L46:
 781 0096 00BF     		.align	2
 782              	.L45:
 783 0098 08000000 		.word	g_at_cb+8
 784              		.cfi_endproc
 785              	.LFE10:
 787              		.section	.text.__oob_match,"ax",%progbits
 788              		.align	1
 789              		.syntax unified
 790              		.thumb
 791              		.thumb_func
 792              		.fpu fpv4-sp-d16
 794              	__oob_match:
 795              	.LFB11:
 252:d:/LiteOS_Lab/iot_link/at\at.c **** 
 253:d:/LiteOS_Lab/iot_link/at\at.c **** //check if any out of band method could deal the data
 254:d:/LiteOS_Lab/iot_link/at\at.c **** static int  __oob_match(void *data,size_t len)
 255:d:/LiteOS_Lab/iot_link/at\at.c **** {
 796              		.loc 1 255 1
 797              		.cfi_startproc
 798              		@ args = 0, pretend = 0, frame = 24
 799              		@ frame_needed = 1, uses_anonymous_args = 0
 800 0000 80B5     		push	{r7, lr}
 801              	.LCFI40:
 802              		.cfi_def_cfa_offset 8
 803              		.cfi_offset 7, -8
 804              		.cfi_offset 14, -4
 805 0002 86B0     		sub	sp, sp, #24
 806              	.LCFI41:
 807              		.cfi_def_cfa_offset 32
 808 0004 00AF     		add	r7, sp, #0
 809              	.LCFI42:
 810              		.cfi_def_cfa_register 7
 811 0006 7860     		str	r0, [r7, #4]
 812 0008 3960     		str	r1, [r7]
 256:d:/LiteOS_Lab/iot_link/at\at.c ****     int ret = -1;
 813              		.loc 1 256 9
 814 000a 4FF0FF33 		mov	r3, #-1
 815 000e 7B61     		str	r3, [r7, #20]
 257:d:/LiteOS_Lab/iot_link/at\at.c ****     at_oob_item *oob;
 258:d:/LiteOS_Lab/iot_link/at\at.c ****     int i = 0;
 816              		.loc 1 258 9
 817 0010 0023     		movs	r3, #0
 818 0012 3B61     		str	r3, [r7, #16]
 259:d:/LiteOS_Lab/iot_link/at\at.c ****     for(i =0;i<CONFIG_AT_OOBTABLEN;i++)
 819              		.loc 1 259 11
 820 0014 0023     		movs	r3, #0
 821 0016 3B61     		str	r3, [r7, #16]
 822              		.loc 1 259 5
 823 0018 29E0     		b	.L48
 824              	.L51:
 260:d:/LiteOS_Lab/iot_link/at\at.c ****     {
 261:d:/LiteOS_Lab/iot_link/at\at.c ****         oob = &g_at_cb.oob[i];
 825              		.loc 1 261 13
ARM GAS  C:\Users\ADMINI~1\AppData\Local\Temp\cctBI08w.s 			page 20


 826 001a 3A69     		ldr	r2, [r7, #16]
 827 001c 1346     		mov	r3, r2
 828 001e 9B00     		lsls	r3, r3, #2
 829 0020 1344     		add	r3, r3, r2
 830 0022 9B00     		lsls	r3, r3, #2
 831 0024 2833     		adds	r3, r3, #40
 832 0026 164A     		ldr	r2, .L53
 833 0028 1344     		add	r3, r3, r2
 834 002a 0433     		adds	r3, r3, #4
 835 002c FB60     		str	r3, [r7, #12]
 262:d:/LiteOS_Lab/iot_link/at\at.c ****         if((oob->func != NULL)&&(oob->index != NULL)&&\
 836              		.loc 1 262 16
 837 002e FB68     		ldr	r3, [r7, #12]
 838 0030 5B68     		ldr	r3, [r3, #4]
 839              		.loc 1 262 11
 840 0032 002B     		cmp	r3, #0
 841 0034 18D0     		beq	.L49
 842              		.loc 1 262 37 discriminator 1
 843 0036 FB68     		ldr	r3, [r7, #12]
 844 0038 DB68     		ldr	r3, [r3, #12]
 845              		.loc 1 262 31 discriminator 1
 846 003a 002B     		cmp	r3, #0
 847 003c 14D0     		beq	.L49
 263:d:/LiteOS_Lab/iot_link/at\at.c ****             (0 == memcmp(oob->index,data,oob->len)))
 848              		.loc 1 263 29 discriminator 2
 849 003e FB68     		ldr	r3, [r7, #12]
 850 0040 D868     		ldr	r0, [r3, #12]
 851              		.loc 1 263 19 discriminator 2
 852 0042 FB68     		ldr	r3, [r7, #12]
 853 0044 1B69     		ldr	r3, [r3, #16]
 854 0046 1A46     		mov	r2, r3
 855 0048 7968     		ldr	r1, [r7, #4]
 856 004a FFF7FEFF 		bl	memcmp
 857 004e 0346     		mov	r3, r0
 262:d:/LiteOS_Lab/iot_link/at\at.c ****         if((oob->func != NULL)&&(oob->index != NULL)&&\
 858              		.loc 1 262 53 discriminator 2
 859 0050 002B     		cmp	r3, #0
 860 0052 09D1     		bne	.L49
 264:d:/LiteOS_Lab/iot_link/at\at.c ****         {
 265:d:/LiteOS_Lab/iot_link/at\at.c ****             oob->func(oob->args,data,len);
 861              		.loc 1 265 16
 862 0054 FB68     		ldr	r3, [r7, #12]
 863 0056 5B68     		ldr	r3, [r3, #4]
 864              		.loc 1 265 13
 865 0058 FA68     		ldr	r2, [r7, #12]
 866 005a 9068     		ldr	r0, [r2, #8]
 867 005c 3A68     		ldr	r2, [r7]
 868 005e 7968     		ldr	r1, [r7, #4]
 869 0060 9847     		blx	r3
 870              	.LVL0:
 266:d:/LiteOS_Lab/iot_link/at\at.c ****             ret = 0;
 871              		.loc 1 266 17
 872 0062 0023     		movs	r3, #0
 873 0064 7B61     		str	r3, [r7, #20]
 267:d:/LiteOS_Lab/iot_link/at\at.c ****             break;
 874              		.loc 1 267 13
 875 0066 05E0     		b	.L50
ARM GAS  C:\Users\ADMINI~1\AppData\Local\Temp\cctBI08w.s 			page 21


 876              	.L49:
 259:d:/LiteOS_Lab/iot_link/at\at.c ****     {
 877              		.loc 1 259 37 discriminator 2
 878 0068 3B69     		ldr	r3, [r7, #16]
 879 006a 0133     		adds	r3, r3, #1
 880 006c 3B61     		str	r3, [r7, #16]
 881              	.L48:
 259:d:/LiteOS_Lab/iot_link/at\at.c ****     {
 882              		.loc 1 259 5 discriminator 1
 883 006e 3B69     		ldr	r3, [r7, #16]
 884 0070 052B     		cmp	r3, #5
 885 0072 D2DD     		ble	.L51
 886              	.L50:
 268:d:/LiteOS_Lab/iot_link/at\at.c ****         }
 269:d:/LiteOS_Lab/iot_link/at\at.c ****     }
 270:d:/LiteOS_Lab/iot_link/at\at.c ****     return ret;
 887              		.loc 1 270 12
 888 0074 7B69     		ldr	r3, [r7, #20]
 271:d:/LiteOS_Lab/iot_link/at\at.c **** }
 889              		.loc 1 271 1
 890 0076 1846     		mov	r0, r3
 891 0078 1837     		adds	r7, r7, #24
 892              	.LCFI43:
 893              		.cfi_def_cfa_offset 8
 894 007a BD46     		mov	sp, r7
 895              	.LCFI44:
 896              		.cfi_def_cfa_register 13
 897              		@ sp needed
 898 007c 80BD     		pop	{r7, pc}
 899              	.L54:
 900 007e 00BF     		.align	2
 901              	.L53:
 902 0080 00000000 		.word	g_at_cb
 903              		.cfi_endproc
 904              	.LFE11:
 906              		.section	.rodata
 907 002a 0000     		.align	2
 908              	.LC5:
 909 002c 5B25735D 		.ascii	"[%s][%u][%s] %s:open %s err\012\015\015\012\000"
 909      5B25755D 
 909      5B25735D 
 909      2025733A 
 909      6F70656E 
 910              		.section	.text.__rcv_task_entry,"ax",%progbits
 911              		.align	1
 912              		.syntax unified
 913              		.thumb
 914              		.thumb_func
 915              		.fpu fpv4-sp-d16
 917              	__rcv_task_entry:
 918              	.LFB12:
 272:d:/LiteOS_Lab/iot_link/at\at.c **** 
 273:d:/LiteOS_Lab/iot_link/at\at.c **** /*******************************************************************************
 274:d:/LiteOS_Lab/iot_link/at\at.c **** function     :this is the  at receiver engine
 275:d:/LiteOS_Lab/iot_link/at\at.c **** parameters   :
 276:d:/LiteOS_Lab/iot_link/at\at.c **** instruction  :this task read the device continousely and blocked by the read function
 277:d:/LiteOS_Lab/iot_link/at\at.c ****               if pass by mode, then pass it to the pass function;else will match the 
ARM GAS  C:\Users\ADMINI~1\AppData\Local\Temp\cctBI08w.s 			page 22


 278:d:/LiteOS_Lab/iot_link/at\at.c ****               at command, if not then match the out of band
 279:d:/LiteOS_Lab/iot_link/at\at.c **** *******************************************************************************/
 280:d:/LiteOS_Lab/iot_link/at\at.c **** static int __rcv_task_entry(void *args)
 281:d:/LiteOS_Lab/iot_link/at\at.c **** {
 919              		.loc 1 281 1
 920              		.cfi_startproc
 921              		@ args = 0, pretend = 0, frame = 16
 922              		@ frame_needed = 1, uses_anonymous_args = 0
 923 0000 90B5     		push	{r4, r7, lr}
 924              	.LCFI45:
 925              		.cfi_def_cfa_offset 12
 926              		.cfi_offset 4, -12
 927              		.cfi_offset 7, -8
 928              		.cfi_offset 14, -4
 929 0002 87B0     		sub	sp, sp, #28
 930              	.LCFI46:
 931              		.cfi_def_cfa_offset 40
 932 0004 02AF     		add	r7, sp, #8
 933              	.LCFI47:
 934              		.cfi_def_cfa 7, 32
 935 0006 7860     		str	r0, [r7, #4]
 282:d:/LiteOS_Lab/iot_link/at\at.c ****     int  rcvlen = 0;
 936              		.loc 1 282 10
 937 0008 0023     		movs	r3, #0
 938 000a FB60     		str	r3, [r7, #12]
 283:d:/LiteOS_Lab/iot_link/at\at.c **** 
 284:d:/LiteOS_Lab/iot_link/at\at.c ****     g_at_cb.devhandle = los_dev_open(g_at_cb.devname,O_RDWR);
 939              		.loc 1 284 25
 940 000c 434B     		ldr	r3, .L64
 941 000e 1B68     		ldr	r3, [r3]
 942 0010 0221     		movs	r1, #2
 943 0012 1846     		mov	r0, r3
 944 0014 FFF7FEFF 		bl	los_dev_open
 945 0018 0346     		mov	r3, r0
 946              		.loc 1 284 23
 947 001a 404A     		ldr	r2, .L64
 948 001c 5360     		str	r3, [r2, #4]
 285:d:/LiteOS_Lab/iot_link/at\at.c ****     if(NULL == g_at_cb.devhandle)
 949              		.loc 1 285 23
 950 001e 3F4B     		ldr	r3, .L64
 951 0020 5B68     		ldr	r3, [r3, #4]
 952              		.loc 1 285 7
 953 0022 002B     		cmp	r3, #0
 954 0024 71D1     		bne	.L59
 286:d:/LiteOS_Lab/iot_link/at\at.c ****     {
 287:d:/LiteOS_Lab/iot_link/at\at.c ****         LINK_LOG_DEBUG("%s:open %s err\n\r",__FUNCTION__,g_at_cb.devname);
 955              		.loc 1 287 9
 956 0026 FFF7FEFF 		bl	link_log_level_get
 957 002a 0346     		mov	r3, r0
 958 002c 012B     		cmp	r3, #1
 959 002e 17D8     		bhi	.L57
 960              		.loc 1 287 9 is_stmt 0 discriminator 1
 961 0030 0120     		movs	r0, #1
 962 0032 FFF7FEFF 		bl	link_log_level_name
 963 0036 0446     		mov	r4, r0
 964 0038 FFF7FEFF 		bl	osal_sys_time
 965 003c 0246     		mov	r2, r0
ARM GAS  C:\Users\ADMINI~1\AppData\Local\Temp\cctBI08w.s 			page 23


 966 003e 0B46     		mov	r3, r1
 967 0040 364B     		ldr	r3, .L64
 968 0042 1B68     		ldr	r3, [r3]
 969 0044 0193     		str	r3, [sp, #4]
 970 0046 364B     		ldr	r3, .L64+4
 971 0048 0093     		str	r3, [sp]
 972 004a 354B     		ldr	r3, .L64+4
 973 004c 2146     		mov	r1, r4
 974 004e 3548     		ldr	r0, .L64+8
 975 0050 FFF7FEFF 		bl	printf
 976 0054 344B     		ldr	r3, .L64+12
 977 0056 1B68     		ldr	r3, [r3]
 978 0058 9B68     		ldr	r3, [r3, #8]
 979 005a 1846     		mov	r0, r3
 980 005c FFF7FEFF 		bl	fflush
 981              	.L57:
 288:d:/LiteOS_Lab/iot_link/at\at.c ****         return 0;
 982              		.loc 1 288 16 is_stmt 1
 983 0060 0023     		movs	r3, #0
 984 0062 57E0     		b	.L58
 985              	.L63:
 289:d:/LiteOS_Lab/iot_link/at\at.c ****     }
 290:d:/LiteOS_Lab/iot_link/at\at.c **** 
 291:d:/LiteOS_Lab/iot_link/at\at.c ****     while(NULL != g_at_cb.devhandle)
 292:d:/LiteOS_Lab/iot_link/at\at.c ****     {
 293:d:/LiteOS_Lab/iot_link/at\at.c ****     	if (1 == g_at_cb.streammode)  //in stream mode, we need to save previous frames in buffer
 986              		.loc 1 293 22
 987 0064 2D4B     		ldr	r3, .L64
 988 0066 D3F8A834 		ldr	r3, [r3, #1192]
 989              		.loc 1 293 9
 990 006a 012B     		cmp	r3, #1
 991 006c 2FD1     		bne	.L60
 294:d:/LiteOS_Lab/iot_link/at\at.c ****     	{
 295:d:/LiteOS_Lab/iot_link/at\at.c ****             if(rcvlen == 0)
 992              		.loc 1 295 15
 993 006e FB68     		ldr	r3, [r7, #12]
 994 0070 002B     		cmp	r3, #0
 995 0072 05D1     		bne	.L61
 296:d:/LiteOS_Lab/iot_link/at\at.c ****             {
 297:d:/LiteOS_Lab/iot_link/at\at.c ****                 (void)memset(g_at_cb.rcvbuf,0,CONFIG_AT_RECVMAXLEN);
 996              		.loc 1 297 23
 997 0074 4FF48062 		mov	r2, #1024
 998 0078 0021     		movs	r1, #0
 999 007a 2C48     		ldr	r0, .L64+16
 1000 007c FFF7FEFF 		bl	memset
 1001              	.L61:
 298:d:/LiteOS_Lab/iot_link/at\at.c ****             }
 299:d:/LiteOS_Lab/iot_link/at\at.c ****             rcvlen += __resp_rcv(g_at_cb.rcvbuf+ rcvlen,CONFIG_AT_RECVMAXLEN,cn_osal_timeout_foreve
 1002              		.loc 1 299 23
 1003 0080 FB68     		ldr	r3, [r7, #12]
 1004 0082 2A4A     		ldr	r2, .L64+16
 1005 0084 1344     		add	r3, r3, r2
 1006 0086 4FF0FF32 		mov	r2, #-1
 1007 008a 4FF48061 		mov	r1, #1024
 1008 008e 1846     		mov	r0, r3
 1009 0090 FFF7FEFF 		bl	__resp_rcv
 1010 0094 0246     		mov	r2, r0
ARM GAS  C:\Users\ADMINI~1\AppData\Local\Temp\cctBI08w.s 			page 24


 1011              		.loc 1 299 20
 1012 0096 FB68     		ldr	r3, [r7, #12]
 1013 0098 1344     		add	r3, r3, r2
 1014 009a FB60     		str	r3, [r7, #12]
 300:d:/LiteOS_Lab/iot_link/at\at.c ****             if( rcvlen > 0)
 1015              		.loc 1 300 15
 1016 009c FB68     		ldr	r3, [r7, #12]
 1017 009e 002B     		cmp	r3, #0
 1018 00a0 33DD     		ble	.L59
 301:d:/LiteOS_Lab/iot_link/at\at.c ****             {
 302:d:/LiteOS_Lab/iot_link/at\at.c ****                 if(0 != __oob_match(g_at_cb.rcvbuf,rcvlen))
 1019              		.loc 1 302 25
 1020 00a2 FB68     		ldr	r3, [r7, #12]
 1021 00a4 1946     		mov	r1, r3
 1022 00a6 2148     		ldr	r0, .L64+16
 1023 00a8 FFF7FEFF 		bl	__oob_match
 1024 00ac 0346     		mov	r3, r0
 1025              		.loc 1 302 19
 1026 00ae 002B     		cmp	r3, #0
 1027 00b0 0AD0     		beq	.L62
 303:d:/LiteOS_Lab/iot_link/at\at.c ****                 {
 304:d:/LiteOS_Lab/iot_link/at\at.c ****                     if(0 == __cmd_match(g_at_cb.rcvbuf,rcvlen))
 1028              		.loc 1 304 29
 1029 00b2 FB68     		ldr	r3, [r7, #12]
 1030 00b4 1946     		mov	r1, r3
 1031 00b6 1D48     		ldr	r0, .L64+16
 1032 00b8 FFF7FEFF 		bl	__cmd_match
 1033 00bc 0346     		mov	r3, r0
 1034              		.loc 1 304 23
 1035 00be 002B     		cmp	r3, #0
 1036 00c0 23D1     		bne	.L59
 305:d:/LiteOS_Lab/iot_link/at\at.c ****                     {
 306:d:/LiteOS_Lab/iot_link/at\at.c ****                         rcvlen = 0;
 1037              		.loc 1 306 32
 1038 00c2 0023     		movs	r3, #0
 1039 00c4 FB60     		str	r3, [r7, #12]
 1040 00c6 20E0     		b	.L59
 1041              	.L62:
 307:d:/LiteOS_Lab/iot_link/at\at.c ****                     }
 308:d:/LiteOS_Lab/iot_link/at\at.c ****                 }
 309:d:/LiteOS_Lab/iot_link/at\at.c ****                 else
 310:d:/LiteOS_Lab/iot_link/at\at.c ****                 {
 311:d:/LiteOS_Lab/iot_link/at\at.c ****                     rcvlen = 0;
 1042              		.loc 1 311 28
 1043 00c8 0023     		movs	r3, #0
 1044 00ca FB60     		str	r3, [r7, #12]
 1045 00cc 1DE0     		b	.L59
 1046              	.L60:
 312:d:/LiteOS_Lab/iot_link/at\at.c ****                 }
 313:d:/LiteOS_Lab/iot_link/at\at.c ****             }
 314:d:/LiteOS_Lab/iot_link/at\at.c ****     	}
 315:d:/LiteOS_Lab/iot_link/at\at.c ****     	else
 316:d:/LiteOS_Lab/iot_link/at\at.c ****     	{
 317:d:/LiteOS_Lab/iot_link/at\at.c ****     	    (void) memset(g_at_cb.rcvbuf,0,CONFIG_AT_RECVMAXLEN);
 1047              		.loc 1 317 17
 1048 00ce 4FF48062 		mov	r2, #1024
 1049 00d2 0021     		movs	r1, #0
ARM GAS  C:\Users\ADMINI~1\AppData\Local\Temp\cctBI08w.s 			page 25


 1050 00d4 1548     		ldr	r0, .L64+16
 1051 00d6 FFF7FEFF 		bl	memset
 318:d:/LiteOS_Lab/iot_link/at\at.c ****     	    rcvlen = __resp_rcv(g_at_cb.rcvbuf,CONFIG_AT_RECVMAXLEN,cn_osal_timeout_forever);
 1052              		.loc 1 318 19
 1053 00da 4FF0FF32 		mov	r2, #-1
 1054 00de 4FF48061 		mov	r1, #1024
 1055 00e2 1248     		ldr	r0, .L64+16
 1056 00e4 FFF7FEFF 		bl	__resp_rcv
 1057 00e8 F860     		str	r0, [r7, #12]
 319:d:/LiteOS_Lab/iot_link/at\at.c ****     	    if(rcvlen > 0)
 1058              		.loc 1 319 12
 1059 00ea FB68     		ldr	r3, [r7, #12]
 1060 00ec 002B     		cmp	r3, #0
 1061 00ee 0CDD     		ble	.L59
 320:d:/LiteOS_Lab/iot_link/at\at.c **** 	        {
 321:d:/LiteOS_Lab/iot_link/at\at.c ****     	        if(0 != __oob_match(g_at_cb.rcvbuf,rcvlen))
 1062              		.loc 1 321 22
 1063 00f0 FB68     		ldr	r3, [r7, #12]
 1064 00f2 1946     		mov	r1, r3
 1065 00f4 0D48     		ldr	r0, .L64+16
 1066 00f6 FFF7FEFF 		bl	__oob_match
 1067 00fa 0346     		mov	r3, r0
 1068              		.loc 1 321 16
 1069 00fc 002B     		cmp	r3, #0
 1070 00fe 04D0     		beq	.L59
 322:d:/LiteOS_Lab/iot_link/at\at.c ****     	        {
 323:d:/LiteOS_Lab/iot_link/at\at.c ****     	            (void)__cmd_match(g_at_cb.rcvbuf,rcvlen);
 1071              		.loc 1 323 24
 1072 0100 FB68     		ldr	r3, [r7, #12]
 1073 0102 1946     		mov	r1, r3
 1074 0104 0948     		ldr	r0, .L64+16
 1075 0106 FFF7FEFF 		bl	__cmd_match
 1076              	.L59:
 291:d:/LiteOS_Lab/iot_link/at\at.c ****     {
 1077              		.loc 1 291 26
 1078 010a 044B     		ldr	r3, .L64
 1079 010c 5B68     		ldr	r3, [r3, #4]
 291:d:/LiteOS_Lab/iot_link/at\at.c ****     {
 1080              		.loc 1 291 10
 1081 010e 002B     		cmp	r3, #0
 1082 0110 A8D1     		bne	.L63
 324:d:/LiteOS_Lab/iot_link/at\at.c ****     	        }
 325:d:/LiteOS_Lab/iot_link/at\at.c **** 	        }
 326:d:/LiteOS_Lab/iot_link/at\at.c ****         }
 327:d:/LiteOS_Lab/iot_link/at\at.c ****     }
 328:d:/LiteOS_Lab/iot_link/at\at.c **** 
 329:d:/LiteOS_Lab/iot_link/at\at.c ****     return 0;
 1083              		.loc 1 329 12
 1084 0112 0023     		movs	r3, #0
 1085              	.L58:
 330:d:/LiteOS_Lab/iot_link/at\at.c **** }
 1086              		.loc 1 330 1
 1087 0114 1846     		mov	r0, r3
 1088 0116 1437     		adds	r7, r7, #20
 1089              	.LCFI48:
 1090              		.cfi_def_cfa_offset 12
 1091 0118 BD46     		mov	sp, r7
ARM GAS  C:\Users\ADMINI~1\AppData\Local\Temp\cctBI08w.s 			page 26


 1092              	.LCFI49:
 1093              		.cfi_def_cfa_register 13
 1094              		@ sp needed
 1095 011a 90BD     		pop	{r4, r7, pc}
 1096              	.L65:
 1097              		.align	2
 1098              	.L64:
 1099 011c 00000000 		.word	g_at_cb
 1100 0120 00000000 		.word	__FUNCTION__.7821
 1101 0124 2C000000 		.word	.LC5
 1102 0128 00000000 		.word	_impure_ptr
 1103 012c A4000000 		.word	g_at_cb+164
 1104              		.cfi_endproc
 1105              	.LFE12:
 1107              		.section	.text.at_streammode_set,"ax",%progbits
 1108              		.align	1
 1109              		.global	at_streammode_set
 1110              		.syntax unified
 1111              		.thumb
 1112              		.thumb_func
 1113              		.fpu fpv4-sp-d16
 1115              	at_streammode_set:
 1116              	.LFB13:
 331:d:/LiteOS_Lab/iot_link/at\at.c **** 
 332:d:/LiteOS_Lab/iot_link/at\at.c **** /*******************************************************************************
 333:d:/LiteOS_Lab/iot_link/at\at.c **** function     :you could use this function to to enable or disable at stream mode.
 334:d:/LiteOS_Lab/iot_link/at\at.c **** parameters   :mode:1 for stream mode, 0 for dgram mode.
 335:d:/LiteOS_Lab/iot_link/at\at.c **** instruction  :If stream mode is enabled, we can process data from multiple frames.
 336:d:/LiteOS_Lab/iot_link/at\at.c **** 			  mode equals 0 by default.
 337:d:/LiteOS_Lab/iot_link/at\at.c **** *******************************************************************************/
 338:d:/LiteOS_Lab/iot_link/at\at.c **** int at_streammode_set(int mode)
 339:d:/LiteOS_Lab/iot_link/at\at.c **** {
 1117              		.loc 1 339 1
 1118              		.cfi_startproc
 1119              		@ args = 0, pretend = 0, frame = 8
 1120              		@ frame_needed = 1, uses_anonymous_args = 0
 1121              		@ link register save eliminated.
 1122 0000 80B4     		push	{r7}
 1123              	.LCFI50:
 1124              		.cfi_def_cfa_offset 4
 1125              		.cfi_offset 7, -4
 1126 0002 83B0     		sub	sp, sp, #12
 1127              	.LCFI51:
 1128              		.cfi_def_cfa_offset 16
 1129 0004 00AF     		add	r7, sp, #0
 1130              	.LCFI52:
 1131              		.cfi_def_cfa_register 7
 1132 0006 7860     		str	r0, [r7, #4]
 340:d:/LiteOS_Lab/iot_link/at\at.c **** 	g_at_cb.streammode = mode;
 1133              		.loc 1 340 21
 1134 0008 054A     		ldr	r2, .L68
 1135 000a 7B68     		ldr	r3, [r7, #4]
 1136 000c C2F8A834 		str	r3, [r2, #1192]
 341:d:/LiteOS_Lab/iot_link/at\at.c **** 	return 0;
 1137              		.loc 1 341 9
 1138 0010 0023     		movs	r3, #0
 342:d:/LiteOS_Lab/iot_link/at\at.c **** }
ARM GAS  C:\Users\ADMINI~1\AppData\Local\Temp\cctBI08w.s 			page 27


 1139              		.loc 1 342 1
 1140 0012 1846     		mov	r0, r3
 1141 0014 0C37     		adds	r7, r7, #12
 1142              	.LCFI53:
 1143              		.cfi_def_cfa_offset 4
 1144 0016 BD46     		mov	sp, r7
 1145              	.LCFI54:
 1146              		.cfi_def_cfa_register 13
 1147              		@ sp needed
 1148 0018 5DF8047B 		ldr	r7, [sp], #4
 1149              	.LCFI55:
 1150              		.cfi_restore 7
 1151              		.cfi_def_cfa_offset 0
 1152 001c 7047     		bx	lr
 1153              	.L69:
 1154 001e 00BF     		.align	2
 1155              	.L68:
 1156 0020 00000000 		.word	g_at_cb
 1157              		.cfi_endproc
 1158              	.LFE13:
 1160              		.section	.text.at_debugclose,"ax",%progbits
 1161              		.align	1
 1162              		.global	at_debugclose
 1163              		.syntax unified
 1164              		.thumb
 1165              		.thumb_func
 1166              		.fpu fpv4-sp-d16
 1168              	at_debugclose:
 1169              	.LFB14:
 343:d:/LiteOS_Lab/iot_link/at\at.c **** 
 344:d:/LiteOS_Lab/iot_link/at\at.c **** 
 345:d:/LiteOS_Lab/iot_link/at\at.c **** int at_debugclose(void)
 346:d:/LiteOS_Lab/iot_link/at\at.c **** {
 1170              		.loc 1 346 1
 1171              		.cfi_startproc
 1172              		@ args = 0, pretend = 0, frame = 0
 1173              		@ frame_needed = 1, uses_anonymous_args = 0
 1174              		@ link register save eliminated.
 1175 0000 80B4     		push	{r7}
 1176              	.LCFI56:
 1177              		.cfi_def_cfa_offset 4
 1178              		.cfi_offset 7, -4
 1179 0002 00AF     		add	r7, sp, #0
 1180              	.LCFI57:
 1181              		.cfi_def_cfa_register 7
 347:d:/LiteOS_Lab/iot_link/at\at.c ****     //for the debug
 348:d:/LiteOS_Lab/iot_link/at\at.c ****     g_at_cb.rxdebugmode = en_at_debug_none;
 1182              		.loc 1 348 25
 1183 0004 094A     		ldr	r2, .L72
 1184 0006 92F8A434 		ldrb	r3, [r2, #1188]
 1185 000a 6FF30103 		bfc	r3, #0, #2
 1186 000e 82F8A434 		strb	r3, [r2, #1188]
 349:d:/LiteOS_Lab/iot_link/at\at.c ****     g_at_cb.txdebugmode = en_at_debug_none;
 1187              		.loc 1 349 25
 1188 0012 064A     		ldr	r2, .L72
 1189 0014 92F8A434 		ldrb	r3, [r2, #1188]
 1190 0018 6FF38303 		bfc	r3, #2, #2
ARM GAS  C:\Users\ADMINI~1\AppData\Local\Temp\cctBI08w.s 			page 28


 1191 001c 82F8A434 		strb	r3, [r2, #1188]
 350:d:/LiteOS_Lab/iot_link/at\at.c **** 
 351:d:/LiteOS_Lab/iot_link/at\at.c ****     return 0;
 1192              		.loc 1 351 12
 1193 0020 0023     		movs	r3, #0
 352:d:/LiteOS_Lab/iot_link/at\at.c **** }
 1194              		.loc 1 352 1
 1195 0022 1846     		mov	r0, r3
 1196 0024 BD46     		mov	sp, r7
 1197              	.LCFI58:
 1198              		.cfi_def_cfa_register 13
 1199              		@ sp needed
 1200 0026 5DF8047B 		ldr	r7, [sp], #4
 1201              	.LCFI59:
 1202              		.cfi_restore 7
 1203              		.cfi_def_cfa_offset 0
 1204 002a 7047     		bx	lr
 1205              	.L73:
 1206              		.align	2
 1207              	.L72:
 1208 002c 00000000 		.word	g_at_cb
 1209              		.cfi_endproc
 1210              	.LFE14:
 1212              		.section	.text.at_command,"ax",%progbits
 1213              		.align	1
 1214              		.global	at_command
 1215              		.syntax unified
 1216              		.thumb
 1217              		.thumb_func
 1218              		.fpu fpv4-sp-d16
 1220              	at_command:
 1221              	.LFB15:
 353:d:/LiteOS_Lab/iot_link/at\at.c **** 
 354:d:/LiteOS_Lab/iot_link/at\at.c **** 
 355:d:/LiteOS_Lab/iot_link/at\at.c **** /*******************************************************************************
 356:d:/LiteOS_Lab/iot_link/at\at.c **** function     :this is our at command here,you could send any command as you wish
 357:d:/LiteOS_Lab/iot_link/at\at.c **** parameters   :
 358:d:/LiteOS_Lab/iot_link/at\at.c **** instruction  :only one command could be dealt at one time, for we use the semphore
 359:d:/LiteOS_Lab/iot_link/at\at.c ****               here do the sync;if the respbuf is not NULL,then we will cpoy the 
 360:d:/LiteOS_Lab/iot_link/at\at.c ****               response data to the respbuf as much as the respbuflen permit
 361:d:/LiteOS_Lab/iot_link/at\at.c **** *******************************************************************************/
 362:d:/LiteOS_Lab/iot_link/at\at.c **** int  at_command(const void *cmd,size_t cmdlen,const char *index,void *respbuf,\
 363:d:/LiteOS_Lab/iot_link/at\at.c **** 		        size_t respbuflen,uint32_t timeout)
 364:d:/LiteOS_Lab/iot_link/at\at.c **** {
 1222              		.loc 1 364 1
 1223              		.cfi_startproc
 1224              		@ args = 8, pretend = 0, frame = 24
 1225              		@ frame_needed = 1, uses_anonymous_args = 0
 1226 0000 80B5     		push	{r7, lr}
 1227              	.LCFI60:
 1228              		.cfi_def_cfa_offset 8
 1229              		.cfi_offset 7, -8
 1230              		.cfi_offset 14, -4
 1231 0002 88B0     		sub	sp, sp, #32
 1232              	.LCFI61:
 1233              		.cfi_def_cfa_offset 40
 1234 0004 02AF     		add	r7, sp, #8
ARM GAS  C:\Users\ADMINI~1\AppData\Local\Temp\cctBI08w.s 			page 29


 1235              	.LCFI62:
 1236              		.cfi_def_cfa 7, 32
 1237 0006 F860     		str	r0, [r7, #12]
 1238 0008 B960     		str	r1, [r7, #8]
 1239 000a 7A60     		str	r2, [r7, #4]
 1240 000c 3B60     		str	r3, [r7]
 365:d:/LiteOS_Lab/iot_link/at\at.c ****     int ret = -1;
 1241              		.loc 1 365 9
 1242 000e 4FF0FF33 		mov	r3, #-1
 1243 0012 7B61     		str	r3, [r7, #20]
 366:d:/LiteOS_Lab/iot_link/at\at.c ****     if(NULL == cmd)
 1244              		.loc 1 366 7
 1245 0014 FB68     		ldr	r3, [r7, #12]
 1246 0016 002B     		cmp	r3, #0
 1247 0018 01D1     		bne	.L75
 367:d:/LiteOS_Lab/iot_link/at\at.c ****     {
 368:d:/LiteOS_Lab/iot_link/at\at.c ****         return ret;
 1248              		.loc 1 368 16
 1249 001a 7B69     		ldr	r3, [r7, #20]
 1250 001c 37E0     		b	.L76
 1251              	.L75:
 369:d:/LiteOS_Lab/iot_link/at\at.c ****     }
 370:d:/LiteOS_Lab/iot_link/at\at.c ****     if(NULL != index)
 1252              		.loc 1 370 7
 1253 001e 7B68     		ldr	r3, [r7, #4]
 1254 0020 002B     		cmp	r3, #0
 1255 0022 2DD0     		beq	.L77
 371:d:/LiteOS_Lab/iot_link/at\at.c ****     {
 372:d:/LiteOS_Lab/iot_link/at\at.c ****         ret = __cmd_create(cmd,cmdlen,index,respbuf,respbuflen,timeout);
 1256              		.loc 1 372 15
 1257 0024 7B6A     		ldr	r3, [r7, #36]
 1258 0026 0193     		str	r3, [sp, #4]
 1259 0028 3B6A     		ldr	r3, [r7, #32]
 1260 002a 0093     		str	r3, [sp]
 1261 002c 3B68     		ldr	r3, [r7]
 1262 002e 7A68     		ldr	r2, [r7, #4]
 1263 0030 B968     		ldr	r1, [r7, #8]
 1264 0032 F868     		ldr	r0, [r7, #12]
 1265 0034 FFF7FEFF 		bl	__cmd_create
 1266 0038 7861     		str	r0, [r7, #20]
 373:d:/LiteOS_Lab/iot_link/at\at.c ****         if(0 == ret)
 1267              		.loc 1 373 11
 1268 003a 7B69     		ldr	r3, [r7, #20]
 1269 003c 002B     		cmp	r3, #0
 1270 003e 25D1     		bne	.L78
 374:d:/LiteOS_Lab/iot_link/at\at.c ****         {
 375:d:/LiteOS_Lab/iot_link/at\at.c ****             ret = __cmd_send(cmd,cmdlen,timeout);
 1271              		.loc 1 375 19
 1272 0040 7A6A     		ldr	r2, [r7, #36]
 1273 0042 B968     		ldr	r1, [r7, #8]
 1274 0044 F868     		ldr	r0, [r7, #12]
 1275 0046 FFF7FEFF 		bl	__cmd_send
 1276 004a 7861     		str	r0, [r7, #20]
 376:d:/LiteOS_Lab/iot_link/at\at.c ****             if(0 == ret)
 1277              		.loc 1 376 15
 1278 004c 7B69     		ldr	r3, [r7, #20]
 1279 004e 002B     		cmp	r3, #0
ARM GAS  C:\Users\ADMINI~1\AppData\Local\Temp\cctBI08w.s 			page 30


 1280 0050 10D1     		bne	.L79
 377:d:/LiteOS_Lab/iot_link/at\at.c ****             {
 378:d:/LiteOS_Lab/iot_link/at\at.c ****                 if(osal_semp_pend(g_at_cb.cmd.respsync,timeout))
 1281              		.loc 1 378 20
 1282 0052 114B     		ldr	r3, .L82
 1283 0054 1B6A     		ldr	r3, [r3, #32]
 1284 0056 796A     		ldr	r1, [r7, #36]
 1285 0058 1846     		mov	r0, r3
 1286 005a FFF7FEFF 		bl	osal_semp_pend
 1287 005e 0346     		mov	r3, r0
 1288              		.loc 1 378 19
 1289 0060 002B     		cmp	r3, #0
 1290 0062 03D0     		beq	.L80
 379:d:/LiteOS_Lab/iot_link/at\at.c ****                 {
 380:d:/LiteOS_Lab/iot_link/at\at.c ****                     ret = g_at_cb.cmd.respdatalen;
 1291              		.loc 1 380 38
 1292 0064 0C4B     		ldr	r3, .L82
 1293 0066 DB69     		ldr	r3, [r3, #28]
 1294              		.loc 1 380 25
 1295 0068 7B61     		str	r3, [r7, #20]
 1296 006a 06E0     		b	.L81
 1297              	.L80:
 381:d:/LiteOS_Lab/iot_link/at\at.c ****                 }
 382:d:/LiteOS_Lab/iot_link/at\at.c ****                 else
 383:d:/LiteOS_Lab/iot_link/at\at.c ****                 {
 384:d:/LiteOS_Lab/iot_link/at\at.c ****                     ret = -1;
 1298              		.loc 1 384 25
 1299 006c 4FF0FF33 		mov	r3, #-1
 1300 0070 7B61     		str	r3, [r7, #20]
 1301 0072 02E0     		b	.L81
 1302              	.L79:
 385:d:/LiteOS_Lab/iot_link/at\at.c ****                 }
 386:d:/LiteOS_Lab/iot_link/at\at.c ****             }
 387:d:/LiteOS_Lab/iot_link/at\at.c ****             else
 388:d:/LiteOS_Lab/iot_link/at\at.c ****             {
 389:d:/LiteOS_Lab/iot_link/at\at.c ****                 ret = -1;
 1303              		.loc 1 389 21
 1304 0074 4FF0FF33 		mov	r3, #-1
 1305 0078 7B61     		str	r3, [r7, #20]
 1306              	.L81:
 390:d:/LiteOS_Lab/iot_link/at\at.c ****             }
 391:d:/LiteOS_Lab/iot_link/at\at.c **** 
 392:d:/LiteOS_Lab/iot_link/at\at.c ****             (void) __cmd_clear();
 1307              		.loc 1 392 20
 1308 007a FFF7FEFF 		bl	__cmd_clear
 1309 007e 05E0     		b	.L78
 1310              	.L77:
 393:d:/LiteOS_Lab/iot_link/at\at.c ****         }
 394:d:/LiteOS_Lab/iot_link/at\at.c **** 
 395:d:/LiteOS_Lab/iot_link/at\at.c ****     }
 396:d:/LiteOS_Lab/iot_link/at\at.c ****     else
 397:d:/LiteOS_Lab/iot_link/at\at.c ****     {
 398:d:/LiteOS_Lab/iot_link/at\at.c ****         ret = __cmd_send(cmd,cmdlen,timeout);
 1311              		.loc 1 398 15
 1312 0080 7A6A     		ldr	r2, [r7, #36]
 1313 0082 B968     		ldr	r1, [r7, #8]
 1314 0084 F868     		ldr	r0, [r7, #12]
ARM GAS  C:\Users\ADMINI~1\AppData\Local\Temp\cctBI08w.s 			page 31


 1315 0086 FFF7FEFF 		bl	__cmd_send
 1316 008a 7861     		str	r0, [r7, #20]
 1317              	.L78:
 399:d:/LiteOS_Lab/iot_link/at\at.c ****     }
 400:d:/LiteOS_Lab/iot_link/at\at.c **** 
 401:d:/LiteOS_Lab/iot_link/at\at.c ****     return ret;
 1318              		.loc 1 401 12
 1319 008c 7B69     		ldr	r3, [r7, #20]
 1320              	.L76:
 402:d:/LiteOS_Lab/iot_link/at\at.c **** }
 1321              		.loc 1 402 1
 1322 008e 1846     		mov	r0, r3
 1323 0090 1837     		adds	r7, r7, #24
 1324              	.LCFI63:
 1325              		.cfi_def_cfa_offset 8
 1326 0092 BD46     		mov	sp, r7
 1327              	.LCFI64:
 1328              		.cfi_def_cfa_register 13
 1329              		@ sp needed
 1330 0094 80BD     		pop	{r7, pc}
 1331              	.L83:
 1332 0096 00BF     		.align	2
 1333              	.L82:
 1334 0098 00000000 		.word	g_at_cb
 1335              		.cfi_endproc
 1336              	.LFE15:
 1338              		.section	.text.at_oobregister,"ax",%progbits
 1339              		.align	1
 1340              		.global	at_oobregister
 1341              		.syntax unified
 1342              		.thumb
 1343              		.thumb_func
 1344              		.fpu fpv4-sp-d16
 1346              	at_oobregister:
 1347              	.LFB16:
 403:d:/LiteOS_Lab/iot_link/at\at.c **** 
 404:d:/LiteOS_Lab/iot_link/at\at.c **** /*******************************************************************************
 405:d:/LiteOS_Lab/iot_link/at\at.c **** function     :you could use this function to register a method to deal the out of band data
 406:d:/LiteOS_Lab/iot_link/at\at.c **** parameters   :
 407:d:/LiteOS_Lab/iot_link/at\at.c **** instruction  :as you know, we only check the frame begin,using memcmp, so you must
 408:d:/LiteOS_Lab/iot_link/at\at.c ****               write the header of the frame as the index
 409:d:/LiteOS_Lab/iot_link/at\at.c **** *******************************************************************************/
 410:d:/LiteOS_Lab/iot_link/at\at.c **** int at_oobregister(const char *name,const void *index,size_t len,fn_at_oob func,void *args)
 411:d:/LiteOS_Lab/iot_link/at\at.c **** {
 1348              		.loc 1 411 1
 1349              		.cfi_startproc
 1350              		@ args = 4, pretend = 0, frame = 32
 1351              		@ frame_needed = 1, uses_anonymous_args = 0
 1352              		@ link register save eliminated.
 1353 0000 80B4     		push	{r7}
 1354              	.LCFI65:
 1355              		.cfi_def_cfa_offset 4
 1356              		.cfi_offset 7, -4
 1357 0002 89B0     		sub	sp, sp, #36
 1358              	.LCFI66:
 1359              		.cfi_def_cfa_offset 40
 1360 0004 00AF     		add	r7, sp, #0
ARM GAS  C:\Users\ADMINI~1\AppData\Local\Temp\cctBI08w.s 			page 32


 1361              	.LCFI67:
 1362              		.cfi_def_cfa_register 7
 1363 0006 F860     		str	r0, [r7, #12]
 1364 0008 B960     		str	r1, [r7, #8]
 1365 000a 7A60     		str	r2, [r7, #4]
 1366 000c 3B60     		str	r3, [r7]
 412:d:/LiteOS_Lab/iot_link/at\at.c ****     int ret = -1;
 1367              		.loc 1 412 9
 1368 000e 4FF0FF33 		mov	r3, #-1
 1369 0012 FB61     		str	r3, [r7, #28]
 413:d:/LiteOS_Lab/iot_link/at\at.c ****     at_oob_item *oob;
 414:d:/LiteOS_Lab/iot_link/at\at.c ****     int i = 0;
 1370              		.loc 1 414 9
 1371 0014 0023     		movs	r3, #0
 1372 0016 BB61     		str	r3, [r7, #24]
 415:d:/LiteOS_Lab/iot_link/at\at.c **** 
 416:d:/LiteOS_Lab/iot_link/at\at.c ****     if((NULL == func)||(NULL == index))
 1373              		.loc 1 416 7
 1374 0018 3B68     		ldr	r3, [r7]
 1375 001a 002B     		cmp	r3, #0
 1376 001c 02D0     		beq	.L85
 1377              		.loc 1 416 22 discriminator 1
 1378 001e BB68     		ldr	r3, [r7, #8]
 1379 0020 002B     		cmp	r3, #0
 1380 0022 01D1     		bne	.L86
 1381              	.L85:
 417:d:/LiteOS_Lab/iot_link/at\at.c ****     {
 418:d:/LiteOS_Lab/iot_link/at\at.c ****         return ret;
 1382              		.loc 1 418 16
 1383 0024 FB69     		ldr	r3, [r7, #28]
 1384 0026 2DE0     		b	.L87
 1385              	.L86:
 419:d:/LiteOS_Lab/iot_link/at\at.c ****     }
 420:d:/LiteOS_Lab/iot_link/at\at.c **** 
 421:d:/LiteOS_Lab/iot_link/at\at.c ****     for(i =0;i<CONFIG_AT_OOBTABLEN;i++)
 1386              		.loc 1 421 11
 1387 0028 0023     		movs	r3, #0
 1388 002a BB61     		str	r3, [r7, #24]
 1389              		.loc 1 421 5
 1390 002c 26E0     		b	.L88
 1391              	.L91:
 422:d:/LiteOS_Lab/iot_link/at\at.c ****     {
 423:d:/LiteOS_Lab/iot_link/at\at.c ****         oob = &g_at_cb.oob[i];
 1392              		.loc 1 423 13
 1393 002e BA69     		ldr	r2, [r7, #24]
 1394 0030 1346     		mov	r3, r2
 1395 0032 9B00     		lsls	r3, r3, #2
 1396 0034 1344     		add	r3, r3, r2
 1397 0036 9B00     		lsls	r3, r3, #2
 1398 0038 2833     		adds	r3, r3, #40
 1399 003a 154A     		ldr	r2, .L92
 1400 003c 1344     		add	r3, r3, r2
 1401 003e 0433     		adds	r3, r3, #4
 1402 0040 7B61     		str	r3, [r7, #20]
 424:d:/LiteOS_Lab/iot_link/at\at.c ****         if((oob->func == NULL)&&(oob->index == NULL))
 1403              		.loc 1 424 16
 1404 0042 7B69     		ldr	r3, [r7, #20]
ARM GAS  C:\Users\ADMINI~1\AppData\Local\Temp\cctBI08w.s 			page 33


 1405 0044 5B68     		ldr	r3, [r3, #4]
 1406              		.loc 1 424 11
 1407 0046 002B     		cmp	r3, #0
 1408 0048 15D1     		bne	.L89
 1409              		.loc 1 424 37 discriminator 1
 1410 004a 7B69     		ldr	r3, [r7, #20]
 1411 004c DB68     		ldr	r3, [r3, #12]
 1412              		.loc 1 424 31 discriminator 1
 1413 004e 002B     		cmp	r3, #0
 1414 0050 11D1     		bne	.L89
 425:d:/LiteOS_Lab/iot_link/at\at.c ****         {
 426:d:/LiteOS_Lab/iot_link/at\at.c ****             oob->name = name;
 1415              		.loc 1 426 23
 1416 0052 7B69     		ldr	r3, [r7, #20]
 1417 0054 FA68     		ldr	r2, [r7, #12]
 1418 0056 1A60     		str	r2, [r3]
 427:d:/LiteOS_Lab/iot_link/at\at.c ****             oob->index = index;
 1419              		.loc 1 427 24
 1420 0058 7B69     		ldr	r3, [r7, #20]
 1421 005a BA68     		ldr	r2, [r7, #8]
 1422 005c DA60     		str	r2, [r3, #12]
 428:d:/LiteOS_Lab/iot_link/at\at.c ****             oob->len = len;
 1423              		.loc 1 428 22
 1424 005e 7B69     		ldr	r3, [r7, #20]
 1425 0060 7A68     		ldr	r2, [r7, #4]
 1426 0062 1A61     		str	r2, [r3, #16]
 429:d:/LiteOS_Lab/iot_link/at\at.c ****             oob->func = func;
 1427              		.loc 1 429 23
 1428 0064 7B69     		ldr	r3, [r7, #20]
 1429 0066 3A68     		ldr	r2, [r7]
 1430 0068 5A60     		str	r2, [r3, #4]
 430:d:/LiteOS_Lab/iot_link/at\at.c ****             oob->args = args;
 1431              		.loc 1 430 23
 1432 006a 7B69     		ldr	r3, [r7, #20]
 1433 006c BA6A     		ldr	r2, [r7, #40]
 1434 006e 9A60     		str	r2, [r3, #8]
 431:d:/LiteOS_Lab/iot_link/at\at.c ****             ret = 0;
 1435              		.loc 1 431 17
 1436 0070 0023     		movs	r3, #0
 1437 0072 FB61     		str	r3, [r7, #28]
 432:d:/LiteOS_Lab/iot_link/at\at.c ****             break;
 1438              		.loc 1 432 13
 1439 0074 05E0     		b	.L90
 1440              	.L89:
 421:d:/LiteOS_Lab/iot_link/at\at.c ****     {
 1441              		.loc 1 421 37 discriminator 2
 1442 0076 BB69     		ldr	r3, [r7, #24]
 1443 0078 0133     		adds	r3, r3, #1
 1444 007a BB61     		str	r3, [r7, #24]
 1445              	.L88:
 421:d:/LiteOS_Lab/iot_link/at\at.c ****     {
 1446              		.loc 1 421 5 discriminator 1
 1447 007c BB69     		ldr	r3, [r7, #24]
 1448 007e 052B     		cmp	r3, #5
 1449 0080 D5DD     		ble	.L91
 1450              	.L90:
 433:d:/LiteOS_Lab/iot_link/at\at.c ****         }
ARM GAS  C:\Users\ADMINI~1\AppData\Local\Temp\cctBI08w.s 			page 34


 434:d:/LiteOS_Lab/iot_link/at\at.c ****     }
 435:d:/LiteOS_Lab/iot_link/at\at.c **** 
 436:d:/LiteOS_Lab/iot_link/at\at.c ****     return ret;
 1451              		.loc 1 436 12
 1452 0082 FB69     		ldr	r3, [r7, #28]
 1453              	.L87:
 437:d:/LiteOS_Lab/iot_link/at\at.c **** }
 1454              		.loc 1 437 1
 1455 0084 1846     		mov	r0, r3
 1456 0086 2437     		adds	r7, r7, #36
 1457              	.LCFI68:
 1458              		.cfi_def_cfa_offset 4
 1459 0088 BD46     		mov	sp, r7
 1460              	.LCFI69:
 1461              		.cfi_def_cfa_register 13
 1462              		@ sp needed
 1463 008a 5DF8047B 		ldr	r7, [sp], #4
 1464              	.LCFI70:
 1465              		.cfi_restore 7
 1466              		.cfi_def_cfa_offset 0
 1467 008e 7047     		bx	lr
 1468              	.L93:
 1469              		.align	2
 1470              	.L92:
 1471 0090 00000000 		.word	g_at_cb
 1472              		.cfi_endproc
 1473              	.LFE16:
 1475              		.section	.rodata
 1476              		.align	2
 1477              	.LC6:
 1478 004c 61746465 		.ascii	"atdev\000"
 1478      7600
 1479 0052 0000     		.align	2
 1480              	.LC7:
 1481 0054 5B25735D 		.ascii	"[%s][%u][%s] %s:cmdsync error\012\015\015\012\000"
 1481      5B25755D 
 1481      5B25735D 
 1481      2025733A 
 1481      636D6473 
 1482 0076 0000     		.align	2
 1483              	.LC8:
 1484 0078 5B25735D 		.ascii	"[%s][%u][%s] %s:cmdlock error\012\015\015\012\000"
 1484      5B25755D 
 1484      5B25735D 
 1484      2025733A 
 1484      636D646C 
 1485 009a 0000     		.align	2
 1486              	.LC9:
 1487 009c 61745F72 		.ascii	"at_rcv\000"
 1487      637600
 1488 00a3 00       		.align	2
 1489              	.LC10:
 1490 00a4 5B25735D 		.ascii	"[%s][%u][%s] %s:rcvtask create error\012\015\015\012"
 1490      5B25755D 
 1490      5B25735D 
 1490      2025733A 
 1490      72637674 
ARM GAS  C:\Users\ADMINI~1\AppData\Local\Temp\cctBI08w.s 			page 35


 1491 00cc 00       		.ascii	"\000"
 1492              		.section	.text.at_init,"ax",%progbits
 1493              		.align	1
 1494              		.global	at_init
 1495              		.syntax unified
 1496              		.thumb
 1497              		.thumb_func
 1498              		.fpu fpv4-sp-d16
 1500              	at_init:
 1501              	.LFB17:
 438:d:/LiteOS_Lab/iot_link/at\at.c **** 
 439:d:/LiteOS_Lab/iot_link/at\at.c **** /*******************************************************************************
 440:d:/LiteOS_Lab/iot_link/at\at.c **** function     :this is the  at module initialize function
 441:d:/LiteOS_Lab/iot_link/at\at.c **** parameters   :func_read:which will read a frame from the device
 442:d:/LiteOS_Lab/iot_link/at\at.c ****               func_write:which will be used to write a frame to the device
 443:d:/LiteOS_Lab/iot_link/at\at.c **** instruction  :if you want to use the at frame work, please call this function 
 444:d:/LiteOS_Lab/iot_link/at\at.c ****               please supply the function read and write.the read function must be
 445:d:/LiteOS_Lab/iot_link/at\at.c ****               a block function controlled by timeout
 446:d:/LiteOS_Lab/iot_link/at\at.c **** *******************************************************************************/
 447:d:/LiteOS_Lab/iot_link/at\at.c **** int at_init()
 448:d:/LiteOS_Lab/iot_link/at\at.c **** {
 1502              		.loc 1 448 1
 1503              		.cfi_startproc
 1504              		@ args = 0, pretend = 0, frame = 8
 1505              		@ frame_needed = 1, uses_anonymous_args = 0
 1506 0000 90B5     		push	{r4, r7, lr}
 1507              	.LCFI71:
 1508              		.cfi_def_cfa_offset 12
 1509              		.cfi_offset 4, -12
 1510              		.cfi_offset 7, -8
 1511              		.cfi_offset 14, -4
 1512 0002 85B0     		sub	sp, sp, #20
 1513              	.LCFI72:
 1514              		.cfi_def_cfa_offset 32
 1515 0004 02AF     		add	r7, sp, #8
 1516              	.LCFI73:
 1517              		.cfi_def_cfa 7, 24
 449:d:/LiteOS_Lab/iot_link/at\at.c ****     int ret = -1;
 1518              		.loc 1 449 9
 1519 0006 4FF0FF33 		mov	r3, #-1
 1520 000a 7B60     		str	r3, [r7, #4]
 450:d:/LiteOS_Lab/iot_link/at\at.c **** 
 451:d:/LiteOS_Lab/iot_link/at\at.c ****     (void) memset(&g_at_cb,0,sizeof(g_at_cb));
 1521              		.loc 1 451 12
 1522 000c 40F2AC42 		movw	r2, #1196
 1523 0010 0021     		movs	r1, #0
 1524 0012 6648     		ldr	r0, .L112
 1525 0014 FFF7FEFF 		bl	memset
 452:d:/LiteOS_Lab/iot_link/at\at.c ****     g_at_cb.devname = CONFIG_AT_DEVNAME;
 1526              		.loc 1 452 21
 1527 0018 644B     		ldr	r3, .L112
 1528 001a 654A     		ldr	r2, .L112+4
 1529 001c 1A60     		str	r2, [r3]
 453:d:/LiteOS_Lab/iot_link/at\at.c **** 
 454:d:/LiteOS_Lab/iot_link/at\at.c **** 
 455:d:/LiteOS_Lab/iot_link/at\at.c ****     if(false == osal_semp_create(&g_at_cb.cmd.cmdsync,1,1))
 1530              		.loc 1 455 17
ARM GAS  C:\Users\ADMINI~1\AppData\Local\Temp\cctBI08w.s 			page 36


 1531 001e 0122     		movs	r2, #1
 1532 0020 0121     		movs	r1, #1
 1533 0022 6448     		ldr	r0, .L112+8
 1534 0024 FFF7FEFF 		bl	osal_semp_create
 1535 0028 0346     		mov	r3, r0
 1536              		.loc 1 455 7
 1537 002a 002B     		cmp	r3, #0
 1538 002c 1BD1     		bne	.L95
 456:d:/LiteOS_Lab/iot_link/at\at.c ****     {
 457:d:/LiteOS_Lab/iot_link/at\at.c ****         LINK_LOG_DEBUG("%s:cmdsync error\n\r",__FUNCTION__);
 1539              		.loc 1 457 9
 1540 002e FFF7FEFF 		bl	link_log_level_get
 1541 0032 0346     		mov	r3, r0
 1542 0034 012B     		cmp	r3, #1
 1543 0036 00F2B380 		bhi	.L108
 1544              		.loc 1 457 9 is_stmt 0 discriminator 1
 1545 003a 0120     		movs	r0, #1
 1546 003c FFF7FEFF 		bl	link_log_level_name
 1547 0040 0446     		mov	r4, r0
 1548 0042 FFF7FEFF 		bl	osal_sys_time
 1549 0046 0246     		mov	r2, r0
 1550 0048 0B46     		mov	r3, r1
 1551 004a 5B4B     		ldr	r3, .L112+12
 1552 004c 0093     		str	r3, [sp]
 1553 004e 5A4B     		ldr	r3, .L112+12
 1554 0050 2146     		mov	r1, r4
 1555 0052 5A48     		ldr	r0, .L112+16
 1556 0054 FFF7FEFF 		bl	printf
 1557 0058 594B     		ldr	r3, .L112+20
 1558 005a 1B68     		ldr	r3, [r3]
 1559 005c 9B68     		ldr	r3, [r3, #8]
 1560 005e 1846     		mov	r0, r3
 1561 0060 FFF7FEFF 		bl	fflush
 458:d:/LiteOS_Lab/iot_link/at\at.c ****         goto EXIT_CMDSYNC;
 1562              		.loc 1 458 9 is_stmt 1 discriminator 1
 1563 0064 9CE0     		b	.L108
 1564              	.L95:
 459:d:/LiteOS_Lab/iot_link/at\at.c ****     }
 460:d:/LiteOS_Lab/iot_link/at\at.c ****     if(false == osal_semp_create(&g_at_cb.cmd.respsync,1,0))
 1565              		.loc 1 460 17
 1566 0066 0022     		movs	r2, #0
 1567 0068 0121     		movs	r1, #1
 1568 006a 5648     		ldr	r0, .L112+24
 1569 006c FFF7FEFF 		bl	osal_semp_create
 1570 0070 0346     		mov	r3, r0
 1571              		.loc 1 460 7
 1572 0072 002B     		cmp	r3, #0
 1573 0074 1BD1     		bne	.L98
 461:d:/LiteOS_Lab/iot_link/at\at.c ****     {
 462:d:/LiteOS_Lab/iot_link/at\at.c ****         LINK_LOG_DEBUG("%s:cmdsync error\n\r",__FUNCTION__);
 1574              		.loc 1 462 9
 1575 0076 FFF7FEFF 		bl	link_log_level_get
 1576 007a 0346     		mov	r3, r0
 1577 007c 012B     		cmp	r3, #1
 1578 007e 00F28680 		bhi	.L109
 1579              		.loc 1 462 9 is_stmt 0 discriminator 1
 1580 0082 0120     		movs	r0, #1
ARM GAS  C:\Users\ADMINI~1\AppData\Local\Temp\cctBI08w.s 			page 37


 1581 0084 FFF7FEFF 		bl	link_log_level_name
 1582 0088 0446     		mov	r4, r0
 1583 008a FFF7FEFF 		bl	osal_sys_time
 1584 008e 0246     		mov	r2, r0
 1585 0090 0B46     		mov	r3, r1
 1586 0092 494B     		ldr	r3, .L112+12
 1587 0094 0093     		str	r3, [sp]
 1588 0096 484B     		ldr	r3, .L112+12
 1589 0098 2146     		mov	r1, r4
 1590 009a 4848     		ldr	r0, .L112+16
 1591 009c FFF7FEFF 		bl	printf
 1592 00a0 474B     		ldr	r3, .L112+20
 1593 00a2 1B68     		ldr	r3, [r3]
 1594 00a4 9B68     		ldr	r3, [r3, #8]
 1595 00a6 1846     		mov	r0, r3
 1596 00a8 FFF7FEFF 		bl	fflush
 463:d:/LiteOS_Lab/iot_link/at\at.c ****         goto EXIT_RESPSYNC;
 1597              		.loc 1 463 9 is_stmt 1 discriminator 1
 1598 00ac 6FE0     		b	.L109
 1599              	.L98:
 464:d:/LiteOS_Lab/iot_link/at\at.c ****     }
 465:d:/LiteOS_Lab/iot_link/at\at.c ****     if(false == osal_mutex_create(&g_at_cb.cmd.cmdlock))
 1600              		.loc 1 465 17
 1601 00ae 4648     		ldr	r0, .L112+28
 1602 00b0 FFF7FEFF 		bl	osal_mutex_create
 1603 00b4 0346     		mov	r3, r0
 1604              		.loc 1 465 7
 1605 00b6 002B     		cmp	r3, #0
 1606 00b8 1AD1     		bne	.L101
 466:d:/LiteOS_Lab/iot_link/at\at.c ****     {
 467:d:/LiteOS_Lab/iot_link/at\at.c ****         LINK_LOG_DEBUG("%s:cmdlock error\n\r",__FUNCTION__);
 1607              		.loc 1 467 9
 1608 00ba FFF7FEFF 		bl	link_log_level_get
 1609 00be 0346     		mov	r3, r0
 1610 00c0 012B     		cmp	r3, #1
 1611 00c2 5BD8     		bhi	.L110
 1612              		.loc 1 467 9 is_stmt 0 discriminator 1
 1613 00c4 0120     		movs	r0, #1
 1614 00c6 FFF7FEFF 		bl	link_log_level_name
 1615 00ca 0446     		mov	r4, r0
 1616 00cc FFF7FEFF 		bl	osal_sys_time
 1617 00d0 0246     		mov	r2, r0
 1618 00d2 0B46     		mov	r3, r1
 1619 00d4 384B     		ldr	r3, .L112+12
 1620 00d6 0093     		str	r3, [sp]
 1621 00d8 374B     		ldr	r3, .L112+12
 1622 00da 2146     		mov	r1, r4
 1623 00dc 3B48     		ldr	r0, .L112+32
 1624 00de FFF7FEFF 		bl	printf
 1625 00e2 374B     		ldr	r3, .L112+20
 1626 00e4 1B68     		ldr	r3, [r3]
 1627 00e6 9B68     		ldr	r3, [r3, #8]
 1628 00e8 1846     		mov	r0, r3
 1629 00ea FFF7FEFF 		bl	fflush
 468:d:/LiteOS_Lab/iot_link/at\at.c ****         goto EXIT_CMDLOCK;
 1630              		.loc 1 468 9 is_stmt 1 discriminator 1
 1631 00ee 45E0     		b	.L110
ARM GAS  C:\Users\ADMINI~1\AppData\Local\Temp\cctBI08w.s 			page 38


 1632              	.L101:
 469:d:/LiteOS_Lab/iot_link/at\at.c ****     }
 470:d:/LiteOS_Lab/iot_link/at\at.c **** 
 471:d:/LiteOS_Lab/iot_link/at\at.c ****     if(NULL == osal_task_create("at_rcv",__rcv_task_entry,NULL,0x800,NULL,CONFIG_AT_TASKPRIOR))
 1633              		.loc 1 471 16
 1634 00f0 0A23     		movs	r3, #10
 1635 00f2 0193     		str	r3, [sp, #4]
 1636 00f4 0023     		movs	r3, #0
 1637 00f6 0093     		str	r3, [sp]
 1638 00f8 4FF40063 		mov	r3, #2048
 1639 00fc 0022     		movs	r2, #0
 1640 00fe 3449     		ldr	r1, .L112+36
 1641 0100 3448     		ldr	r0, .L112+40
 1642 0102 FFF7FEFF 		bl	osal_task_create
 1643 0106 0346     		mov	r3, r0
 1644              		.loc 1 471 7
 1645 0108 002B     		cmp	r3, #0
 1646 010a 1AD1     		bne	.L104
 472:d:/LiteOS_Lab/iot_link/at\at.c ****     {
 473:d:/LiteOS_Lab/iot_link/at\at.c ****         LINK_LOG_DEBUG("%s:rcvtask create error\n\r",__FUNCTION__);
 1647              		.loc 1 473 9
 1648 010c FFF7FEFF 		bl	link_log_level_get
 1649 0110 0346     		mov	r3, r0
 1650 0112 012B     		cmp	r3, #1
 1651 0114 29D8     		bhi	.L111
 1652              		.loc 1 473 9 is_stmt 0 discriminator 1
 1653 0116 0120     		movs	r0, #1
 1654 0118 FFF7FEFF 		bl	link_log_level_name
 1655 011c 0446     		mov	r4, r0
 1656 011e FFF7FEFF 		bl	osal_sys_time
 1657 0122 0246     		mov	r2, r0
 1658 0124 0B46     		mov	r3, r1
 1659 0126 244B     		ldr	r3, .L112+12
 1660 0128 0093     		str	r3, [sp]
 1661 012a 234B     		ldr	r3, .L112+12
 1662 012c 2146     		mov	r1, r4
 1663 012e 2A48     		ldr	r0, .L112+44
 1664 0130 FFF7FEFF 		bl	printf
 1665 0134 224B     		ldr	r3, .L112+20
 1666 0136 1B68     		ldr	r3, [r3]
 1667 0138 9B68     		ldr	r3, [r3, #8]
 1668 013a 1846     		mov	r0, r3
 1669 013c FFF7FEFF 		bl	fflush
 474:d:/LiteOS_Lab/iot_link/at\at.c ****         goto EXIT_RCVTASK;
 1670              		.loc 1 474 9 is_stmt 1 discriminator 1
 1671 0140 13E0     		b	.L111
 1672              	.L104:
 475:d:/LiteOS_Lab/iot_link/at\at.c ****     }
 476:d:/LiteOS_Lab/iot_link/at\at.c **** 
 477:d:/LiteOS_Lab/iot_link/at\at.c ****     //for the debug
 478:d:/LiteOS_Lab/iot_link/at\at.c ****     g_at_cb.rxdebugmode = en_at_debug_ascii;
 1673              		.loc 1 478 25
 1674 0142 1A4A     		ldr	r2, .L112
 1675 0144 92F8A434 		ldrb	r3, [r2, #1188]
 1676 0148 0121     		movs	r1, #1
 1677 014a 61F30103 		bfi	r3, r1, #0, #2
 1678 014e 82F8A434 		strb	r3, [r2, #1188]
ARM GAS  C:\Users\ADMINI~1\AppData\Local\Temp\cctBI08w.s 			page 39


 479:d:/LiteOS_Lab/iot_link/at\at.c ****     g_at_cb.txdebugmode = en_at_debug_ascii;
 1679              		.loc 1 479 25
 1680 0152 164A     		ldr	r2, .L112
 1681 0154 92F8A434 		ldrb	r3, [r2, #1188]
 1682 0158 0121     		movs	r1, #1
 1683 015a 61F38303 		bfi	r3, r1, #2, #2
 1684 015e 82F8A434 		strb	r3, [r2, #1188]
 480:d:/LiteOS_Lab/iot_link/at\at.c **** 
 481:d:/LiteOS_Lab/iot_link/at\at.c ****     ret = 0;
 1685              		.loc 1 481 9
 1686 0162 0023     		movs	r3, #0
 1687 0164 7B60     		str	r3, [r7, #4]
 482:d:/LiteOS_Lab/iot_link/at\at.c ****     return ret;
 1688              		.loc 1 482 12
 1689 0166 7B68     		ldr	r3, [r7, #4]
 1690 0168 1CE0     		b	.L107
 1691              	.L111:
 474:d:/LiteOS_Lab/iot_link/at\at.c ****     }
 1692              		.loc 1 474 9
 1693 016a 00BF     		nop
 1694              	.L106:
 483:d:/LiteOS_Lab/iot_link/at\at.c **** 
 484:d:/LiteOS_Lab/iot_link/at\at.c **** 
 485:d:/LiteOS_Lab/iot_link/at\at.c **** EXIT_RCVTASK:
 486:d:/LiteOS_Lab/iot_link/at\at.c ****     (void) osal_mutex_del(&g_at_cb.cmd.cmdlock);
 1695              		.loc 1 486 12
 1696 016c 1648     		ldr	r0, .L112+28
 1697 016e FFF7FEFF 		bl	osal_mutex_del
 487:d:/LiteOS_Lab/iot_link/at\at.c ****     g_at_cb.cmd.cmdlock = cn_mutex_invalid;
 1698              		.loc 1 487 25
 1699 0172 0E4B     		ldr	r3, .L112
 1700 0174 4FF0FF32 		mov	r2, #-1
 1701 0178 9A62     		str	r2, [r3, #40]
 1702 017a 00E0     		b	.L103
 1703              	.L110:
 468:d:/LiteOS_Lab/iot_link/at\at.c ****     }
 1704              		.loc 1 468 9
 1705 017c 00BF     		nop
 1706              	.L103:
 488:d:/LiteOS_Lab/iot_link/at\at.c **** EXIT_CMDLOCK:
 489:d:/LiteOS_Lab/iot_link/at\at.c ****     (void) osal_semp_del(&g_at_cb.cmd.respsync);
 1707              		.loc 1 489 12
 1708 017e 1148     		ldr	r0, .L112+24
 1709 0180 FFF7FEFF 		bl	osal_semp_del
 490:d:/LiteOS_Lab/iot_link/at\at.c ****     g_at_cb.cmd.respsync = cn_semp_invalid;
 1710              		.loc 1 490 26
 1711 0184 094B     		ldr	r3, .L112
 1712 0186 4FF0FF32 		mov	r2, #-1
 1713 018a 1A62     		str	r2, [r3, #32]
 1714 018c 00E0     		b	.L100
 1715              	.L109:
 463:d:/LiteOS_Lab/iot_link/at\at.c ****     }
 1716              		.loc 1 463 9
 1717 018e 00BF     		nop
 1718              	.L100:
 491:d:/LiteOS_Lab/iot_link/at\at.c **** EXIT_RESPSYNC:
 492:d:/LiteOS_Lab/iot_link/at\at.c ****     (void) osal_semp_del(&g_at_cb.cmd.cmdsync);
ARM GAS  C:\Users\ADMINI~1\AppData\Local\Temp\cctBI08w.s 			page 40


 1719              		.loc 1 492 12
 1720 0190 0848     		ldr	r0, .L112+8
 1721 0192 FFF7FEFF 		bl	osal_semp_del
 493:d:/LiteOS_Lab/iot_link/at\at.c ****     g_at_cb.cmd.cmdsync = cn_semp_invalid;
 1722              		.loc 1 493 25
 1723 0196 054B     		ldr	r3, .L112
 1724 0198 4FF0FF32 		mov	r2, #-1
 1725 019c 5A62     		str	r2, [r3, #36]
 1726 019e 00E0     		b	.L97
 1727              	.L108:
 458:d:/LiteOS_Lab/iot_link/at\at.c ****     }
 1728              		.loc 1 458 9
 1729 01a0 00BF     		nop
 1730              	.L97:
 494:d:/LiteOS_Lab/iot_link/at\at.c **** EXIT_CMDSYNC:
 495:d:/LiteOS_Lab/iot_link/at\at.c ****     return ret;
 1731              		.loc 1 495 12
 1732 01a2 7B68     		ldr	r3, [r7, #4]
 1733              	.L107:
 496:d:/LiteOS_Lab/iot_link/at\at.c **** }
 1734              		.loc 1 496 1
 1735 01a4 1846     		mov	r0, r3
 1736 01a6 0C37     		adds	r7, r7, #12
 1737              	.LCFI74:
 1738              		.cfi_def_cfa_offset 12
 1739 01a8 BD46     		mov	sp, r7
 1740              	.LCFI75:
 1741              		.cfi_def_cfa_register 13
 1742              		@ sp needed
 1743 01aa 90BD     		pop	{r4, r7, pc}
 1744              	.L113:
 1745              		.align	2
 1746              	.L112:
 1747 01ac 00000000 		.word	g_at_cb
 1748 01b0 4C000000 		.word	.LC6
 1749 01b4 24000000 		.word	g_at_cb+36
 1750 01b8 00000000 		.word	__FUNCTION__.7856
 1751 01bc 54000000 		.word	.LC7
 1752 01c0 00000000 		.word	_impure_ptr
 1753 01c4 20000000 		.word	g_at_cb+32
 1754 01c8 28000000 		.word	g_at_cb+40
 1755 01cc 78000000 		.word	.LC8
 1756 01d0 00000000 		.word	__rcv_task_entry
 1757 01d4 9C000000 		.word	.LC9
 1758 01d8 A4000000 		.word	.LC10
 1759              		.cfi_endproc
 1760              	.LFE17:
 1762              		.section	.rodata
 1763 00cd 000000   		.align	2
 1764              	.LC11:
 1765 00d0 5B25735D 		.ascii	"[%s][%u][%s] paras error\012\015\015\012\000"
 1765      5B25755D 
 1765      5B25735D 
 1765      20706172 
 1765      61732065 
 1766 00ed 000000   		.align	2
 1767              	.LC12:
ARM GAS  C:\Users\ADMINI~1\AppData\Local\Temp\cctBI08w.s 			page 41


 1768 00f0 25730D0A 		.ascii	"%s\015\012\000"
 1768      00
 1769 00f5 000000   		.align	2
 1770              	.LC13:
 1771 00f8 5B25735D 		.ascii	"[%s][%u][%s] atresponse:%d Bytes:%s\012\015\015\012"
 1771      5B25755D 
 1771      5B25735D 
 1771      20617472 
 1771      6573706F 
 1772 011f 00       		.ascii	"\000"
 1773              		.align	2
 1774              	.LC14:
 1775 0120 5B25735D 		.ascii	"[%s][%u][%s] atresponse:timeout or error\012\015\015"
 1775      5B25755D 
 1775      5B25735D 
 1775      20617472 
 1775      6573706F 
 1776 014b 0A00     		.ascii	"\012\000"
 1777              		.section	.text.shell_at,"ax",%progbits
 1778              		.align	1
 1779              		.syntax unified
 1780              		.thumb
 1781              		.thumb_func
 1782              		.fpu fpv4-sp-d16
 1784              	shell_at:
 1785              	.LFB18:
 497:d:/LiteOS_Lab/iot_link/at\at.c **** 
 498:d:/LiteOS_Lab/iot_link/at\at.c **** //////////////////////////////////DEBUG COMMAND FOLLOWING/////////////////////////////////////////
 499:d:/LiteOS_Lab/iot_link/at\at.c **** #ifdef CONFIG_SHELL_ENABLE
 500:d:/LiteOS_Lab/iot_link/at\at.c **** 
 501:d:/LiteOS_Lab/iot_link/at\at.c **** #include <shell.h>
 502:d:/LiteOS_Lab/iot_link/at\at.c **** //use this shell command,you could input at command through the terminal
 503:d:/LiteOS_Lab/iot_link/at\at.c **** static int shell_at(int argc, const char *argv[])
 504:d:/LiteOS_Lab/iot_link/at\at.c **** {
 1786              		.loc 1 504 1
 1787              		.cfi_startproc
 1788              		@ args = 0, pretend = 0, frame = 144
 1789              		@ frame_needed = 1, uses_anonymous_args = 0
 1790 0000 90B5     		push	{r4, r7, lr}
 1791              	.LCFI76:
 1792              		.cfi_def_cfa_offset 12
 1793              		.cfi_offset 4, -12
 1794              		.cfi_offset 7, -8
 1795              		.cfi_offset 14, -4
 1796 0002 A7B0     		sub	sp, sp, #156
 1797              	.LCFI77:
 1798              		.cfi_def_cfa_offset 168
 1799 0004 02AF     		add	r7, sp, #8
 1800              	.LCFI78:
 1801              		.cfi_def_cfa 7, 160
 1802 0006 7860     		str	r0, [r7, #4]
 1803 0008 3960     		str	r1, [r7]
 505:d:/LiteOS_Lab/iot_link/at\at.c ****     #define CN_AT_SHELL_LEN 64
 506:d:/LiteOS_Lab/iot_link/at\at.c ****      
 507:d:/LiteOS_Lab/iot_link/at\at.c ****     char respbuf[CN_AT_SHELL_LEN];
 508:d:/LiteOS_Lab/iot_link/at\at.c ****     unsigned char cmdbuf[CN_AT_SHELL_LEN];
 509:d:/LiteOS_Lab/iot_link/at\at.c ****     
ARM GAS  C:\Users\ADMINI~1\AppData\Local\Temp\cctBI08w.s 			page 42


 510:d:/LiteOS_Lab/iot_link/at\at.c ****     const char *index =NULL ;
 1804              		.loc 1 510 17
 1805 000a 0023     		movs	r3, #0
 1806 000c C7F88C30 		str	r3, [r7, #140]
 511:d:/LiteOS_Lab/iot_link/at\at.c ****     int ret = -1;
 1807              		.loc 1 511 9
 1808 0010 4FF0FF33 		mov	r3, #-1
 1809 0014 C7F88830 		str	r3, [r7, #136]
 512:d:/LiteOS_Lab/iot_link/at\at.c **** 
 513:d:/LiteOS_Lab/iot_link/at\at.c ****     if((argc !=2)&&(argc != 3))
 1810              		.loc 1 513 7
 1811 0018 7B68     		ldr	r3, [r7, #4]
 1812 001a 022B     		cmp	r3, #2
 1813 001c 1DD0     		beq	.L115
 1814              		.loc 1 513 18 discriminator 1
 1815 001e 7B68     		ldr	r3, [r7, #4]
 1816 0020 032B     		cmp	r3, #3
 1817 0022 1AD0     		beq	.L115
 514:d:/LiteOS_Lab/iot_link/at\at.c ****     {
 515:d:/LiteOS_Lab/iot_link/at\at.c ****         LINK_LOG_DEBUG("paras error\n\r");
 1818              		.loc 1 515 9
 1819 0024 FFF7FEFF 		bl	link_log_level_get
 1820 0028 0346     		mov	r3, r0
 1821 002a 012B     		cmp	r3, #1
 1822 002c 12D8     		bhi	.L116
 1823              		.loc 1 515 9 is_stmt 0 discriminator 1
 1824 002e 0120     		movs	r0, #1
 1825 0030 FFF7FEFF 		bl	link_log_level_name
 1826 0034 0446     		mov	r4, r0
 1827 0036 FFF7FEFF 		bl	osal_sys_time
 1828 003a 0246     		mov	r2, r0
 1829 003c 0B46     		mov	r3, r1
 1830 003e 3D4B     		ldr	r3, .L122
 1831 0040 2146     		mov	r1, r4
 1832 0042 3D48     		ldr	r0, .L122+4
 1833 0044 FFF7FEFF 		bl	printf
 1834 0048 3C4B     		ldr	r3, .L122+8
 1835 004a 1B68     		ldr	r3, [r3]
 1836 004c 9B68     		ldr	r3, [r3, #8]
 1837 004e 1846     		mov	r0, r3
 1838 0050 FFF7FEFF 		bl	fflush
 1839              	.L116:
 516:d:/LiteOS_Lab/iot_link/at\at.c ****         return ret;
 1840              		.loc 1 516 16 is_stmt 1
 1841 0054 D7F88830 		ldr	r3, [r7, #136]
 1842 0058 68E0     		b	.L121
 1843              	.L115:
 517:d:/LiteOS_Lab/iot_link/at\at.c ****     }
 518:d:/LiteOS_Lab/iot_link/at\at.c ****     if(argc == 3)
 1844              		.loc 1 518 7
 1845 005a 7B68     		ldr	r3, [r7, #4]
 1846 005c 032B     		cmp	r3, #3
 1847 005e 03D1     		bne	.L118
 519:d:/LiteOS_Lab/iot_link/at\at.c ****     {
 520:d:/LiteOS_Lab/iot_link/at\at.c ****         index = argv[2];
 1848              		.loc 1 520 15
 1849 0060 3B68     		ldr	r3, [r7]
ARM GAS  C:\Users\ADMINI~1\AppData\Local\Temp\cctBI08w.s 			page 43


 1850 0062 9B68     		ldr	r3, [r3, #8]
 1851 0064 C7F88C30 		str	r3, [r7, #140]
 1852              	.L118:
 521:d:/LiteOS_Lab/iot_link/at\at.c ****     }
 522:d:/LiteOS_Lab/iot_link/at\at.c ****     
 523:d:/LiteOS_Lab/iot_link/at\at.c **** 
 524:d:/LiteOS_Lab/iot_link/at\at.c ****     (void) (void) memset(respbuf,0,CN_AT_SHELL_LEN);
 1853              		.loc 1 524 19
 1854 0068 07F14803 		add	r3, r7, #72
 1855 006c 4022     		movs	r2, #64
 1856 006e 0021     		movs	r1, #0
 1857 0070 1846     		mov	r0, r3
 1858 0072 FFF7FEFF 		bl	memset
 525:d:/LiteOS_Lab/iot_link/at\at.c ****     (void) snprintf((char *)cmdbuf,CN_AT_SHELL_LEN,"%s\r\n",argv[1]);
 1859              		.loc 1 525 65
 1860 0076 3B68     		ldr	r3, [r7]
 1861 0078 0433     		adds	r3, r3, #4
 1862              		.loc 1 525 12
 1863 007a 1B68     		ldr	r3, [r3]
 1864 007c 07F10800 		add	r0, r7, #8
 1865 0080 2F4A     		ldr	r2, .L122+12
 1866 0082 4021     		movs	r1, #64
 1867 0084 FFF7FEFF 		bl	snprintf
 526:d:/LiteOS_Lab/iot_link/at\at.c **** 
 527:d:/LiteOS_Lab/iot_link/at\at.c ****     ret = at_command(cmdbuf,strlen((const char *)cmdbuf),index,respbuf,CN_AT_SHELL_LEN,1000); //one
 1868              		.loc 1 527 11
 1869 0088 07F10803 		add	r3, r7, #8
 1870 008c 1846     		mov	r0, r3
 1871 008e FFF7FEFF 		bl	strlen
 1872 0092 0146     		mov	r1, r0
 1873 0094 07F14803 		add	r3, r7, #72
 1874 0098 07F10800 		add	r0, r7, #8
 1875 009c 4FF47A72 		mov	r2, #1000
 1876 00a0 0192     		str	r2, [sp, #4]
 1877 00a2 4022     		movs	r2, #64
 1878 00a4 0092     		str	r2, [sp]
 1879 00a6 D7F88C20 		ldr	r2, [r7, #140]
 1880 00aa FFF7FEFF 		bl	at_command
 1881 00ae C7F88800 		str	r0, [r7, #136]
 528:d:/LiteOS_Lab/iot_link/at\at.c ****     if(ret == 0)
 1882              		.loc 1 528 7
 1883 00b2 D7F88830 		ldr	r3, [r7, #136]
 1884 00b6 002B     		cmp	r3, #0
 1885 00b8 1ED1     		bne	.L119
 529:d:/LiteOS_Lab/iot_link/at\at.c ****     {
 530:d:/LiteOS_Lab/iot_link/at\at.c ****         LINK_LOG_DEBUG("atresponse:%d Bytes:%s\n\r",ret,respbuf);
 1886              		.loc 1 530 9
 1887 00ba FFF7FEFF 		bl	link_log_level_get
 1888 00be 0346     		mov	r3, r0
 1889 00c0 012B     		cmp	r3, #1
 1890 00c2 31D8     		bhi	.L120
 1891              		.loc 1 530 9 is_stmt 0 discriminator 1
 1892 00c4 0120     		movs	r0, #1
 1893 00c6 FFF7FEFF 		bl	link_log_level_name
 1894 00ca 0446     		mov	r4, r0
 1895 00cc FFF7FEFF 		bl	osal_sys_time
 1896 00d0 0246     		mov	r2, r0
ARM GAS  C:\Users\ADMINI~1\AppData\Local\Temp\cctBI08w.s 			page 44


 1897 00d2 0B46     		mov	r3, r1
 1898 00d4 07F14803 		add	r3, r7, #72
 1899 00d8 0193     		str	r3, [sp, #4]
 1900 00da D7F88830 		ldr	r3, [r7, #136]
 1901 00de 0093     		str	r3, [sp]
 1902 00e0 144B     		ldr	r3, .L122
 1903 00e2 2146     		mov	r1, r4
 1904 00e4 1748     		ldr	r0, .L122+16
 1905 00e6 FFF7FEFF 		bl	printf
 1906 00ea 144B     		ldr	r3, .L122+8
 1907 00ec 1B68     		ldr	r3, [r3]
 1908 00ee 9B68     		ldr	r3, [r3, #8]
 1909 00f0 1846     		mov	r0, r3
 1910 00f2 FFF7FEFF 		bl	fflush
 1911 00f6 17E0     		b	.L120
 1912              	.L119:
 531:d:/LiteOS_Lab/iot_link/at\at.c ****     }
 532:d:/LiteOS_Lab/iot_link/at\at.c ****     else
 533:d:/LiteOS_Lab/iot_link/at\at.c ****     {
 534:d:/LiteOS_Lab/iot_link/at\at.c ****         LINK_LOG_DEBUG("atresponse:timeout or error\n\r");
 1913              		.loc 1 534 9 is_stmt 1
 1914 00f8 FFF7FEFF 		bl	link_log_level_get
 1915 00fc 0346     		mov	r3, r0
 1916 00fe 012B     		cmp	r3, #1
 1917 0100 12D8     		bhi	.L120
 1918              		.loc 1 534 9 is_stmt 0 discriminator 1
 1919 0102 0120     		movs	r0, #1
 1920 0104 FFF7FEFF 		bl	link_log_level_name
 1921 0108 0446     		mov	r4, r0
 1922 010a FFF7FEFF 		bl	osal_sys_time
 1923 010e 0246     		mov	r2, r0
 1924 0110 0B46     		mov	r3, r1
 1925 0112 084B     		ldr	r3, .L122
 1926 0114 2146     		mov	r1, r4
 1927 0116 0C48     		ldr	r0, .L122+20
 1928 0118 FFF7FEFF 		bl	printf
 1929 011c 074B     		ldr	r3, .L122+8
 1930 011e 1B68     		ldr	r3, [r3]
 1931 0120 9B68     		ldr	r3, [r3, #8]
 1932 0122 1846     		mov	r0, r3
 1933 0124 FFF7FEFF 		bl	fflush
 1934              	.L120:
 535:d:/LiteOS_Lab/iot_link/at\at.c ****     }
 536:d:/LiteOS_Lab/iot_link/at\at.c ****     return ret;
 1935              		.loc 1 536 12 is_stmt 1
 1936 0128 D7F88830 		ldr	r3, [r7, #136]
 1937              	.L121:
 537:d:/LiteOS_Lab/iot_link/at\at.c **** }
 1938              		.loc 1 537 1 discriminator 1
 1939 012c 1846     		mov	r0, r3
 1940 012e 9437     		adds	r7, r7, #148
 1941              	.LCFI79:
 1942              		.cfi_def_cfa_offset 12
 1943 0130 BD46     		mov	sp, r7
 1944              	.LCFI80:
 1945              		.cfi_def_cfa_register 13
 1946              		@ sp needed
ARM GAS  C:\Users\ADMINI~1\AppData\Local\Temp\cctBI08w.s 			page 45


 1947 0132 90BD     		pop	{r4, r7, pc}
 1948              	.L123:
 1949              		.align	2
 1950              	.L122:
 1951 0134 00000000 		.word	__FUNCTION__.7884
 1952 0138 D0000000 		.word	.LC11
 1953 013c 00000000 		.word	_impure_ptr
 1954 0140 F0000000 		.word	.LC12
 1955 0144 F8000000 		.word	.LC13
 1956 0148 20010000 		.word	.LC14
 1957              		.cfi_endproc
 1958              	.LFE18:
 1960              		.section	.rodata
 1961 014d 000000   		.align	2
 1962              	.LC15:
 1963 0150 6174636D 		.ascii	"atcmd\000"
 1963      6400
 1964 0156 0000     		.align	2
 1965              	.LC16:
 1966 0158 6174636D 		.ascii	"atcmd atcommand atrespindex\000"
 1966      64206174 
 1966      636F6D6D 
 1966      616E6420 
 1966      61747265 
 1967              		.section	oshell,"a"
 1968              		.align	2
 1971              	__oshell_shell_at:
 1972 0000 50010000 		.word	.LC15
 1973 0004 58010000 		.word	.LC16
 1974 0008 00000000 		.word	shell_at
 1975 000c 0000     		.short	0
 1976 000e 0400     		.short	4
 1977              		.section	.rodata
 1978              		.align	2
 1979              	.LC17:
 1980 0174 6E6F6E65 		.ascii	"none\000"
 1980      00
 1981 0179 000000   		.align	2
 1982              	.LC18:
 1983 017c 61736369 		.ascii	"ascii\000"
 1983      6900
 1984 0182 0000     		.align	2
 1985              	.LC19:
 1986 0184 68657800 		.ascii	"hex\000"
 1987              		.align	2
 1988              	.LC20:
 1989 0188 5B25735D 		.ascii	"[%s][%u][%s] mode set error\012\015\015\012\000"
 1989      5B25755D 
 1989      5B25735D 
 1989      206D6F64 
 1989      65207365 
 1990              		.align	2
 1991              	.LC21:
 1992 01a8 727800   		.ascii	"rx\000"
 1993 01ab 00       		.align	2
 1994              	.LC22:
 1995 01ac 747800   		.ascii	"tx\000"
ARM GAS  C:\Users\ADMINI~1\AppData\Local\Temp\cctBI08w.s 			page 46


 1996 01af 00       		.align	2
 1997              	.LC23:
 1998 01b0 5B25735D 		.ascii	"[%s][%u][%s] type set error\012\015\015\012\000"
 1998      5B25755D 
 1998      5B25735D 
 1998      20747970 
 1998      65207365 
 1999              		.section	.text.shell_atdebug,"ax",%progbits
 2000              		.align	1
 2001              		.syntax unified
 2002              		.thumb
 2003              		.thumb_func
 2004              		.fpu fpv4-sp-d16
 2006              	shell_atdebug:
 2007              	.LFB19:
 538:d:/LiteOS_Lab/iot_link/at\at.c **** OSSHELL_EXPORT_CMD(shell_at,"atcmd","atcmd atcommand atrespindex");
 539:d:/LiteOS_Lab/iot_link/at\at.c **** 
 540:d:/LiteOS_Lab/iot_link/at\at.c **** //use this function to set the at command display mode:none/ascii/hex
 541:d:/LiteOS_Lab/iot_link/at\at.c **** static int shell_atdebug(int argc,const char *argv[])
 542:d:/LiteOS_Lab/iot_link/at\at.c **** {
 2008              		.loc 1 542 1
 2009              		.cfi_startproc
 2010              		@ args = 0, pretend = 0, frame = 16
 2011              		@ frame_needed = 1, uses_anonymous_args = 0
 2012 0000 90B5     		push	{r4, r7, lr}
 2013              	.LCFI81:
 2014              		.cfi_def_cfa_offset 12
 2015              		.cfi_offset 4, -12
 2016              		.cfi_offset 7, -8
 2017              		.cfi_offset 14, -4
 2018 0002 85B0     		sub	sp, sp, #20
 2019              	.LCFI82:
 2020              		.cfi_def_cfa_offset 32
 2021 0004 00AF     		add	r7, sp, #0
 2022              	.LCFI83:
 2023              		.cfi_def_cfa_register 7
 2024 0006 7860     		str	r0, [r7, #4]
 2025 0008 3960     		str	r1, [r7]
 543:d:/LiteOS_Lab/iot_link/at\at.c ****     en_at_rxtx_debugmode mode = en_at_debug_none;
 2026              		.loc 1 543 26
 2027 000a 0023     		movs	r3, #0
 2028 000c FB73     		strb	r3, [r7, #15]
 544:d:/LiteOS_Lab/iot_link/at\at.c ****     if(argc != 3)
 2029              		.loc 1 544 7
 2030 000e 7B68     		ldr	r3, [r7, #4]
 2031 0010 032B     		cmp	r3, #3
 2032 0012 1AD0     		beq	.L125
 545:d:/LiteOS_Lab/iot_link/at\at.c ****     {
 546:d:/LiteOS_Lab/iot_link/at\at.c ****         LINK_LOG_DEBUG("paras error\n\r");
 2033              		.loc 1 546 9
 2034 0014 FFF7FEFF 		bl	link_log_level_get
 2035 0018 0346     		mov	r3, r0
 2036 001a 012B     		cmp	r3, #1
 2037 001c 12D8     		bhi	.L126
 2038              		.loc 1 546 9 is_stmt 0 discriminator 1
 2039 001e 0120     		movs	r0, #1
 2040 0020 FFF7FEFF 		bl	link_log_level_name
ARM GAS  C:\Users\ADMINI~1\AppData\Local\Temp\cctBI08w.s 			page 47


 2041 0024 0446     		mov	r4, r0
 2042 0026 FFF7FEFF 		bl	osal_sys_time
 2043 002a 0246     		mov	r2, r0
 2044 002c 0B46     		mov	r3, r1
 2045 002e 4E4B     		ldr	r3, .L137
 2046 0030 2146     		mov	r1, r4
 2047 0032 4E48     		ldr	r0, .L137+4
 2048 0034 FFF7FEFF 		bl	printf
 2049 0038 4D4B     		ldr	r3, .L137+8
 2050 003a 1B68     		ldr	r3, [r3]
 2051 003c 9B68     		ldr	r3, [r3, #8]
 2052 003e 1846     		mov	r0, r3
 2053 0040 FFF7FEFF 		bl	fflush
 2054              	.L126:
 547:d:/LiteOS_Lab/iot_link/at\at.c ****         return -1;
 2055              		.loc 1 547 16 is_stmt 1
 2056 0044 4FF0FF33 		mov	r3, #-1
 2057 0048 89E0     		b	.L127
 2058              	.L125:
 548:d:/LiteOS_Lab/iot_link/at\at.c ****     }
 549:d:/LiteOS_Lab/iot_link/at\at.c **** 
 550:d:/LiteOS_Lab/iot_link/at\at.c ****     if(0 == strcmp(argv[2],"none"))
 2059              		.loc 1 550 24
 2060 004a 3B68     		ldr	r3, [r7]
 2061 004c 0833     		adds	r3, r3, #8
 2062              		.loc 1 550 13
 2063 004e 1B68     		ldr	r3, [r3]
 2064 0050 4849     		ldr	r1, .L137+12
 2065 0052 1846     		mov	r0, r3
 2066 0054 FFF7FEFF 		bl	strcmp
 2067 0058 0346     		mov	r3, r0
 2068              		.loc 1 550 7
 2069 005a 002B     		cmp	r3, #0
 2070 005c 02D1     		bne	.L128
 551:d:/LiteOS_Lab/iot_link/at\at.c ****     {
 552:d:/LiteOS_Lab/iot_link/at\at.c ****         mode = en_at_debug_none;
 2071              		.loc 1 552 14
 2072 005e 0023     		movs	r3, #0
 2073 0060 FB73     		strb	r3, [r7, #15]
 2074 0062 34E0     		b	.L129
 2075              	.L128:
 553:d:/LiteOS_Lab/iot_link/at\at.c ****     }
 554:d:/LiteOS_Lab/iot_link/at\at.c ****     else if(0 == strcmp(argv[2],"ascii"))
 2076              		.loc 1 554 29
 2077 0064 3B68     		ldr	r3, [r7]
 2078 0066 0833     		adds	r3, r3, #8
 2079              		.loc 1 554 18
 2080 0068 1B68     		ldr	r3, [r3]
 2081 006a 4349     		ldr	r1, .L137+16
 2082 006c 1846     		mov	r0, r3
 2083 006e FFF7FEFF 		bl	strcmp
 2084 0072 0346     		mov	r3, r0
 2085              		.loc 1 554 12
 2086 0074 002B     		cmp	r3, #0
 2087 0076 02D1     		bne	.L130
 555:d:/LiteOS_Lab/iot_link/at\at.c ****     {
 556:d:/LiteOS_Lab/iot_link/at\at.c ****         mode = en_at_debug_ascii;
ARM GAS  C:\Users\ADMINI~1\AppData\Local\Temp\cctBI08w.s 			page 48


 2088              		.loc 1 556 14
 2089 0078 0123     		movs	r3, #1
 2090 007a FB73     		strb	r3, [r7, #15]
 2091 007c 27E0     		b	.L129
 2092              	.L130:
 557:d:/LiteOS_Lab/iot_link/at\at.c ****     }
 558:d:/LiteOS_Lab/iot_link/at\at.c ****     else if(0 == strcmp(argv[2],"hex"))
 2093              		.loc 1 558 29
 2094 007e 3B68     		ldr	r3, [r7]
 2095 0080 0833     		adds	r3, r3, #8
 2096              		.loc 1 558 18
 2097 0082 1B68     		ldr	r3, [r3]
 2098 0084 3D49     		ldr	r1, .L137+20
 2099 0086 1846     		mov	r0, r3
 2100 0088 FFF7FEFF 		bl	strcmp
 2101 008c 0346     		mov	r3, r0
 2102              		.loc 1 558 12
 2103 008e 002B     		cmp	r3, #0
 2104 0090 02D1     		bne	.L131
 559:d:/LiteOS_Lab/iot_link/at\at.c ****     {
 560:d:/LiteOS_Lab/iot_link/at\at.c ****         mode = en_at_debug_hex;
 2105              		.loc 1 560 14
 2106 0092 0223     		movs	r3, #2
 2107 0094 FB73     		strb	r3, [r7, #15]
 2108 0096 1AE0     		b	.L129
 2109              	.L131:
 561:d:/LiteOS_Lab/iot_link/at\at.c ****     }
 562:d:/LiteOS_Lab/iot_link/at\at.c ****     else
 563:d:/LiteOS_Lab/iot_link/at\at.c ****     {
 564:d:/LiteOS_Lab/iot_link/at\at.c ****         LINK_LOG_DEBUG("mode set error\n\r");
 2110              		.loc 1 564 9
 2111 0098 FFF7FEFF 		bl	link_log_level_get
 2112 009c 0346     		mov	r3, r0
 2113 009e 012B     		cmp	r3, #1
 2114 00a0 12D8     		bhi	.L132
 2115              		.loc 1 564 9 is_stmt 0 discriminator 1
 2116 00a2 0120     		movs	r0, #1
 2117 00a4 FFF7FEFF 		bl	link_log_level_name
 2118 00a8 0446     		mov	r4, r0
 2119 00aa FFF7FEFF 		bl	osal_sys_time
 2120 00ae 0246     		mov	r2, r0
 2121 00b0 0B46     		mov	r3, r1
 2122 00b2 2D4B     		ldr	r3, .L137
 2123 00b4 2146     		mov	r1, r4
 2124 00b6 3248     		ldr	r0, .L137+24
 2125 00b8 FFF7FEFF 		bl	printf
 2126 00bc 2C4B     		ldr	r3, .L137+8
 2127 00be 1B68     		ldr	r3, [r3]
 2128 00c0 9B68     		ldr	r3, [r3, #8]
 2129 00c2 1846     		mov	r0, r3
 2130 00c4 FFF7FEFF 		bl	fflush
 2131              	.L132:
 565:d:/LiteOS_Lab/iot_link/at\at.c ****         return -2;
 2132              		.loc 1 565 16 is_stmt 1
 2133 00c8 6FF00103 		mvn	r3, #1
 2134 00cc 47E0     		b	.L127
 2135              	.L129:
ARM GAS  C:\Users\ADMINI~1\AppData\Local\Temp\cctBI08w.s 			page 49


 566:d:/LiteOS_Lab/iot_link/at\at.c ****     }
 567:d:/LiteOS_Lab/iot_link/at\at.c **** 
 568:d:/LiteOS_Lab/iot_link/at\at.c ****     if(0 == strcmp(argv[1],"rx"))
 2136              		.loc 1 568 24
 2137 00ce 3B68     		ldr	r3, [r7]
 2138 00d0 0433     		adds	r3, r3, #4
 2139              		.loc 1 568 13
 2140 00d2 1B68     		ldr	r3, [r3]
 2141 00d4 2B49     		ldr	r1, .L137+28
 2142 00d6 1846     		mov	r0, r3
 2143 00d8 FFF7FEFF 		bl	strcmp
 2144 00dc 0346     		mov	r3, r0
 2145              		.loc 1 568 7
 2146 00de 002B     		cmp	r3, #0
 2147 00e0 0BD1     		bne	.L133
 569:d:/LiteOS_Lab/iot_link/at\at.c ****     {
 570:d:/LiteOS_Lab/iot_link/at\at.c ****         g_at_cb.rxdebugmode = (unsigned int) mode;
 2148              		.loc 1 570 31
 2149 00e2 FB7B     		ldrb	r3, [r7, #15]
 2150 00e4 03F00303 		and	r3, r3, #3
 2151 00e8 D9B2     		uxtb	r1, r3
 2152              		.loc 1 570 29
 2153 00ea 274A     		ldr	r2, .L137+32
 2154 00ec 92F8A434 		ldrb	r3, [r2, #1188]
 2155 00f0 61F30103 		bfi	r3, r1, #0, #2
 2156 00f4 82F8A434 		strb	r3, [r2, #1188]
 2157 00f8 30E0     		b	.L134
 2158              	.L133:
 571:d:/LiteOS_Lab/iot_link/at\at.c ****     }
 572:d:/LiteOS_Lab/iot_link/at\at.c ****     else if(0 == strcmp(argv[1],"tx"))
 2159              		.loc 1 572 29
 2160 00fa 3B68     		ldr	r3, [r7]
 2161 00fc 0433     		adds	r3, r3, #4
 2162              		.loc 1 572 18
 2163 00fe 1B68     		ldr	r3, [r3]
 2164 0100 2249     		ldr	r1, .L137+36
 2165 0102 1846     		mov	r0, r3
 2166 0104 FFF7FEFF 		bl	strcmp
 2167 0108 0346     		mov	r3, r0
 2168              		.loc 1 572 12
 2169 010a 002B     		cmp	r3, #0
 2170 010c 0BD1     		bne	.L135
 573:d:/LiteOS_Lab/iot_link/at\at.c ****     {
 574:d:/LiteOS_Lab/iot_link/at\at.c ****         g_at_cb.txdebugmode = (unsigned int ) mode;
 2171              		.loc 1 574 31
 2172 010e FB7B     		ldrb	r3, [r7, #15]
 2173 0110 03F00303 		and	r3, r3, #3
 2174 0114 D9B2     		uxtb	r1, r3
 2175              		.loc 1 574 29
 2176 0116 1C4A     		ldr	r2, .L137+32
 2177 0118 92F8A434 		ldrb	r3, [r2, #1188]
 2178 011c 61F38303 		bfi	r3, r1, #2, #2
 2179 0120 82F8A434 		strb	r3, [r2, #1188]
 2180 0124 1AE0     		b	.L134
 2181              	.L135:
 575:d:/LiteOS_Lab/iot_link/at\at.c ****     }
 576:d:/LiteOS_Lab/iot_link/at\at.c ****     else
ARM GAS  C:\Users\ADMINI~1\AppData\Local\Temp\cctBI08w.s 			page 50


 577:d:/LiteOS_Lab/iot_link/at\at.c ****     {
 578:d:/LiteOS_Lab/iot_link/at\at.c ****         LINK_LOG_DEBUG("type set error\n\r");
 2182              		.loc 1 578 9
 2183 0126 FFF7FEFF 		bl	link_log_level_get
 2184 012a 0346     		mov	r3, r0
 2185 012c 012B     		cmp	r3, #1
 2186 012e 12D8     		bhi	.L136
 2187              		.loc 1 578 9 is_stmt 0 discriminator 1
 2188 0130 0120     		movs	r0, #1
 2189 0132 FFF7FEFF 		bl	link_log_level_name
 2190 0136 0446     		mov	r4, r0
 2191 0138 FFF7FEFF 		bl	osal_sys_time
 2192 013c 0246     		mov	r2, r0
 2193 013e 0B46     		mov	r3, r1
 2194 0140 094B     		ldr	r3, .L137
 2195 0142 2146     		mov	r1, r4
 2196 0144 1248     		ldr	r0, .L137+40
 2197 0146 FFF7FEFF 		bl	printf
 2198 014a 094B     		ldr	r3, .L137+8
 2199 014c 1B68     		ldr	r3, [r3]
 2200 014e 9B68     		ldr	r3, [r3, #8]
 2201 0150 1846     		mov	r0, r3
 2202 0152 FFF7FEFF 		bl	fflush
 2203              	.L136:
 579:d:/LiteOS_Lab/iot_link/at\at.c ****         return -3;
 2204              		.loc 1 579 16 is_stmt 1
 2205 0156 6FF00203 		mvn	r3, #2
 2206 015a 00E0     		b	.L127
 2207              	.L134:
 580:d:/LiteOS_Lab/iot_link/at\at.c ****     }
 581:d:/LiteOS_Lab/iot_link/at\at.c **** 
 582:d:/LiteOS_Lab/iot_link/at\at.c ****     return 0;
 2208              		.loc 1 582 12
 2209 015c 0023     		movs	r3, #0
 2210              	.L127:
 583:d:/LiteOS_Lab/iot_link/at\at.c **** }
 2211              		.loc 1 583 1
 2212 015e 1846     		mov	r0, r3
 2213 0160 1437     		adds	r7, r7, #20
 2214              	.LCFI84:
 2215              		.cfi_def_cfa_offset 12
 2216 0162 BD46     		mov	sp, r7
 2217              	.LCFI85:
 2218              		.cfi_def_cfa_register 13
 2219              		@ sp needed
 2220 0164 90BD     		pop	{r4, r7, pc}
 2221              	.L138:
 2222 0166 00BF     		.align	2
 2223              	.L137:
 2224 0168 00000000 		.word	__FUNCTION__.7891
 2225 016c D0000000 		.word	.LC11
 2226 0170 00000000 		.word	_impure_ptr
 2227 0174 74010000 		.word	.LC17
 2228 0178 7C010000 		.word	.LC18
 2229 017c 84010000 		.word	.LC19
 2230 0180 88010000 		.word	.LC20
 2231 0184 A8010000 		.word	.LC21
ARM GAS  C:\Users\ADMINI~1\AppData\Local\Temp\cctBI08w.s 			page 51


 2232 0188 00000000 		.word	g_at_cb
 2233 018c AC010000 		.word	.LC22
 2234 0190 B0010000 		.word	.LC23
 2235              		.cfi_endproc
 2236              	.LFE19:
 2238              		.section	.rodata
 2239              		.align	2
 2240              	.LC24:
 2241 01d0 61746465 		.ascii	"atdebug\000"
 2241      62756700 
 2242              		.align	2
 2243              	.LC25:
 2244 01d8 61746465 		.ascii	"atdebug rx/tx none/ascii/hex\000"
 2244      62756720 
 2244      72782F74 
 2244      78206E6F 
 2244      6E652F61 
 2245              		.section	oshell
 2246              		.align	2
 2249              	__oshell_shell_atdebug:
 2250 0010 D0010000 		.word	.LC24
 2251 0014 D8010000 		.word	.LC25
 2252 0018 00000000 		.word	shell_atdebug
 2253 001c 0000     		.short	0
 2254 001e 0400     		.short	4
 2255              		.section	.rodata.__FUNCTION__.7821,"a"
 2256              		.align	2
 2259              	__FUNCTION__.7821:
 2260 0000 5F5F7263 		.ascii	"__rcv_task_entry\000"
 2260      765F7461 
 2260      736B5F65 
 2260      6E747279 
 2260      00
 2261              		.section	.rodata.__FUNCTION__.7856,"a"
 2262              		.align	2
 2265              	__FUNCTION__.7856:
 2266 0000 61745F69 		.ascii	"at_init\000"
 2266      6E697400 
 2267              		.section	.rodata.__FUNCTION__.7884,"a"
 2268              		.align	2
 2271              	__FUNCTION__.7884:
 2272 0000 7368656C 		.ascii	"shell_at\000"
 2272      6C5F6174 
 2272      00
 2273              		.section	.rodata.__FUNCTION__.7891,"a"
 2274              		.align	2
 2277              	__FUNCTION__.7891:
 2278 0000 7368656C 		.ascii	"shell_atdebug\000"
 2278      6C5F6174 
 2278      64656275 
 2278      6700
 2279              		.text
 2280              	.Letext0:
 2281              		.file 2 "c:\\users\\administrator\\.huawei-liteos-studio\\tools\\arm-none-eabi\\arm-none-eabi\\inc
 2282              		.file 3 "c:\\users\\administrator\\.huawei-liteos-studio\\tools\\arm-none-eabi\\arm-none-eabi\\inc
 2283              		.file 4 "c:\\users\\administrator\\.huawei-liteos-studio\\tools\\arm-none-eabi\\lib\\gcc\\arm-none
 2284              		.file 5 "c:\\users\\administrator\\.huawei-liteos-studio\\tools\\arm-none-eabi\\arm-none-eabi\\inc
ARM GAS  C:\Users\ADMINI~1\AppData\Local\Temp\cctBI08w.s 			page 52


 2285              		.file 6 "c:\\users\\administrator\\.huawei-liteos-studio\\tools\\arm-none-eabi\\arm-none-eabi\\inc
 2286              		.file 7 "c:\\users\\administrator\\.huawei-liteos-studio\\tools\\arm-none-eabi\\arm-none-eabi\\inc
 2287              		.file 8 "c:\\users\\administrator\\.huawei-liteos-studio\\tools\\arm-none-eabi\\arm-none-eabi\\inc
 2288              		.file 9 "d:/LiteOS_Lab/iot_link/os/osal/osal_types.h"
 2289              		.file 10 "d:/LiteOS_Lab/iot_link/at/at.h"
 2290              		.file 11 "c:\\users\\administrator\\.huawei-liteos-studio\\tools\\arm-none-eabi\\arm-none-eabi\\in
 2291              		.file 12 "d:/LiteOS_Lab/iot_link/driver/driver.h"
 2292              		.file 13 "c:\\users\\administrator\\.huawei-liteos-studio\\tools\\arm-none-eabi\\arm-none-eabi\\in
 2293              		.file 14 "c:\\users\\administrator\\.huawei-liteos-studio\\tools\\arm-none-eabi\\arm-none-eabi\\in
 2294              		.file 15 "d:/LiteOS_Lab/iot_link/inc/link_log.h"
 2295              		.file 16 "d:/LiteOS_Lab/iot_link/inc/shell.h"
ARM GAS  C:\Users\ADMINI~1\AppData\Local\Temp\cctBI08w.s 			page 53

