ARM GAS  C:\Users\ADMINI~1\AppData\Local\Temp\ccWbmWws.s 			page 1


   1              		.cpu cortex-m4
   2              		.eabi_attribute 27, 1
   3              		.eabi_attribute 28, 1
   4              		.eabi_attribute 20, 1
   5              		.eabi_attribute 21, 1
   6              		.eabi_attribute 23, 3
   7              		.eabi_attribute 24, 1
   8              		.eabi_attribute 25, 1
   9              		.eabi_attribute 26, 1
  10              		.eabi_attribute 30, 6
  11              		.eabi_attribute 34, 1
  12              		.eabi_attribute 18, 4
  13              		.file	"boudica150_oc.c"
  14              		.text
  15              	.Ltext0:
  16              		.cfi_sections	.debug_frame
  17              		.section	.bss.s_boudica150_oc_cb,"aw",%nobits
  18              		.align	2
  21              	s_boudica150_oc_cb:
  22 0000 00000000 		.space	344
  22      00000000 
  22      00000000 
  22      00000000 
  22      00000000 
  23              		.section	.bss.s_report_mutex,"aw",%nobits
  24              		.align	2
  27              	s_report_mutex:
  28 0000 00000000 		.space	4
  29              		.section	.bss.s_oc_handle,"aw",%nobits
  30              		.align	2
  33              	s_oc_handle:
  34 0000 00000000 		.space	4
  35              		.global	wireless_stats
  36              		.section	.bss.wireless_stats,"aw",%nobits
  37              		.align	2
  40              	wireless_stats:
  41 0000 00000000 		.space	16
  41      00000000 
  41      00000000 
  41      00000000 
  42              		.section	.text.boudica150_atcmd,"ax",%progbits
  43              		.align	1
  44              		.arch armv7e-m
  45              		.syntax unified
  46              		.thumb
  47              		.thumb_func
  48              		.fpu fpv4-sp-d16
  50              	boudica150_atcmd:
  51              	.LFB3:
  52              		.file 1 "d:/LiteOS_Lab/iot_link/oc/oc_lwm2m/boudica150_oc/boudica150_oc.c"
   1:d:/LiteOS_Lab/iot_link/oc/oc_lwm2m/boudica150_oc\boudica150_oc.c **** /*----------------------------------------------------------------------------
   2:d:/LiteOS_Lab/iot_link/oc/oc_lwm2m/boudica150_oc\boudica150_oc.c ****  * Copyright (c) <2016-2018>, <Huawei Technologies Co., Ltd>
   3:d:/LiteOS_Lab/iot_link/oc/oc_lwm2m/boudica150_oc\boudica150_oc.c ****  * All rights reserved.
   4:d:/LiteOS_Lab/iot_link/oc/oc_lwm2m/boudica150_oc\boudica150_oc.c ****  * Redistribution and use in source and binary forms, with or without modification,
   5:d:/LiteOS_Lab/iot_link/oc/oc_lwm2m/boudica150_oc\boudica150_oc.c ****  * are permitted provided that the following conditions are met:
   6:d:/LiteOS_Lab/iot_link/oc/oc_lwm2m/boudica150_oc\boudica150_oc.c ****  * 1. Redistributions of source code must retain the above copyright notice, this list of
   7:d:/LiteOS_Lab/iot_link/oc/oc_lwm2m/boudica150_oc\boudica150_oc.c ****  * conditions and the following disclaimer.
ARM GAS  C:\Users\ADMINI~1\AppData\Local\Temp\ccWbmWws.s 			page 2


   8:d:/LiteOS_Lab/iot_link/oc/oc_lwm2m/boudica150_oc\boudica150_oc.c ****  * 2. Redistributions in binary form must reproduce the above copyright notice, this list
   9:d:/LiteOS_Lab/iot_link/oc/oc_lwm2m/boudica150_oc\boudica150_oc.c ****  * of conditions and the following disclaimer in the documentation and/or other materials
  10:d:/LiteOS_Lab/iot_link/oc/oc_lwm2m/boudica150_oc\boudica150_oc.c ****  * provided with the distribution.
  11:d:/LiteOS_Lab/iot_link/oc/oc_lwm2m/boudica150_oc\boudica150_oc.c ****  * 3. Neither the name of the copyright holder nor the names of its contributors may be used
  12:d:/LiteOS_Lab/iot_link/oc/oc_lwm2m/boudica150_oc\boudica150_oc.c ****  * to endorse or promote products derived from this software without specific prior written
  13:d:/LiteOS_Lab/iot_link/oc/oc_lwm2m/boudica150_oc\boudica150_oc.c ****  * permission.
  14:d:/LiteOS_Lab/iot_link/oc/oc_lwm2m/boudica150_oc\boudica150_oc.c ****  * THIS SOFTWARE IS PROVIDED BY THE COPYRIGHT HOLDERS AND CONTRIBUTORS
  15:d:/LiteOS_Lab/iot_link/oc/oc_lwm2m/boudica150_oc\boudica150_oc.c ****  * "AS IS" AND ANY EXPRESS OR IMPLIED WARRANTIES, INCLUDING, BUT NOT LIMITED TO,
  16:d:/LiteOS_Lab/iot_link/oc/oc_lwm2m/boudica150_oc\boudica150_oc.c ****  * THE IMPLIED WARRANTIES OF MERCHANTABILITY AND FITNESS FOR A PARTICULAR
  17:d:/LiteOS_Lab/iot_link/oc/oc_lwm2m/boudica150_oc\boudica150_oc.c ****  * PURPOSE ARE DISCLAIMED. IN NO EVENT SHALL THE COPYRIGHT HOLDER OR
  18:d:/LiteOS_Lab/iot_link/oc/oc_lwm2m/boudica150_oc\boudica150_oc.c ****  * CONTRIBUTORS BE LIABLE FOR ANY DIRECT, INDIRECT, INCIDENTAL, SPECIAL,
  19:d:/LiteOS_Lab/iot_link/oc/oc_lwm2m/boudica150_oc\boudica150_oc.c ****  * EXEMPLARY, OR CONSEQUENTIAL DAMAGES (INCLUDING, BUT NOT LIMITED TO,
  20:d:/LiteOS_Lab/iot_link/oc/oc_lwm2m/boudica150_oc\boudica150_oc.c ****  * PROCUREMENT OF SUBSTITUTE GOODS OR SERVICES; LOSS OF USE, DATA, OR PROFITS;
  21:d:/LiteOS_Lab/iot_link/oc/oc_lwm2m/boudica150_oc\boudica150_oc.c ****  * OR BUSINESS INTERRUPTION) HOWEVER CAUSED AND ON ANY THEORY OF LIABILITY,
  22:d:/LiteOS_Lab/iot_link/oc/oc_lwm2m/boudica150_oc\boudica150_oc.c ****  * WHETHER IN CONTRACT, STRICT LIABILITY, OR TORT (INCLUDING NEGLIGENCE OR
  23:d:/LiteOS_Lab/iot_link/oc/oc_lwm2m/boudica150_oc\boudica150_oc.c ****  * OTHERWISE) ARISING IN ANY WAY OUT OF THE USE OF THIS SOFTWARE, EVEN IF
  24:d:/LiteOS_Lab/iot_link/oc/oc_lwm2m/boudica150_oc\boudica150_oc.c ****  * ADVISED OF THE POSSIBILITY OF SUCH DAMAGE.
  25:d:/LiteOS_Lab/iot_link/oc/oc_lwm2m/boudica150_oc\boudica150_oc.c ****  *---------------------------------------------------------------------------*/
  26:d:/LiteOS_Lab/iot_link/oc/oc_lwm2m/boudica150_oc\boudica150_oc.c **** /*----------------------------------------------------------------------------
  27:d:/LiteOS_Lab/iot_link/oc/oc_lwm2m/boudica150_oc\boudica150_oc.c ****  * Notice of Export Control Law
  28:d:/LiteOS_Lab/iot_link/oc/oc_lwm2m/boudica150_oc\boudica150_oc.c ****  * ===============================================
  29:d:/LiteOS_Lab/iot_link/oc/oc_lwm2m/boudica150_oc\boudica150_oc.c ****  * Huawei LiteOS may be subject to applicable export control laws and regulations, which might
  30:d:/LiteOS_Lab/iot_link/oc/oc_lwm2m/boudica150_oc\boudica150_oc.c ****  * include those applicable to Huawei LiteOS of U.S. and the country in which you are located.
  31:d:/LiteOS_Lab/iot_link/oc/oc_lwm2m/boudica150_oc\boudica150_oc.c ****  * Import, export and usage of Huawei LiteOS in any manner by you shall be in compliance with such
  32:d:/LiteOS_Lab/iot_link/oc/oc_lwm2m/boudica150_oc\boudica150_oc.c ****  * applicable export control laws and regulations.
  33:d:/LiteOS_Lab/iot_link/oc/oc_lwm2m/boudica150_oc\boudica150_oc.c ****  *---------------------------------------------------------------------------*/
  34:d:/LiteOS_Lab/iot_link/oc/oc_lwm2m/boudica150_oc\boudica150_oc.c **** 
  35:d:/LiteOS_Lab/iot_link/oc/oc_lwm2m/boudica150_oc\boudica150_oc.c **** ///< you must config the at module ,for the NB modules need the at
  36:d:/LiteOS_Lab/iot_link/oc/oc_lwm2m/boudica150_oc\boudica150_oc.c **** 
  37:d:/LiteOS_Lab/iot_link/oc/oc_lwm2m/boudica150_oc\boudica150_oc.c **** 
  38:d:/LiteOS_Lab/iot_link/oc/oc_lwm2m/boudica150_oc\boudica150_oc.c **** #include <string.h>
  39:d:/LiteOS_Lab/iot_link/oc/oc_lwm2m/boudica150_oc\boudica150_oc.c **** #include <at.h>
  40:d:/LiteOS_Lab/iot_link/oc/oc_lwm2m/boudica150_oc\boudica150_oc.c **** #include <boudica150_oc.h>
  41:d:/LiteOS_Lab/iot_link/oc/oc_lwm2m/boudica150_oc\boudica150_oc.c **** #include <oc_lwm2m_al.h>
  42:d:/LiteOS_Lab/iot_link/oc/oc_lwm2m/boudica150_oc\boudica150_oc.c **** #include <osal.h>
  43:d:/LiteOS_Lab/iot_link/oc/oc_lwm2m/boudica150_oc\boudica150_oc.c **** 
  44:d:/LiteOS_Lab/iot_link/oc/oc_lwm2m/boudica150_oc\boudica150_oc.c **** ///<  only support the bootstrap mode
  45:d:/LiteOS_Lab/iot_link/oc/oc_lwm2m/boudica150_oc\boudica150_oc.c **** 
  46:d:/LiteOS_Lab/iot_link/oc/oc_lwm2m/boudica150_oc\boudica150_oc.c **** #define cn_boudica150_cmd_timeout  (2*1000)
  47:d:/LiteOS_Lab/iot_link/oc/oc_lwm2m/boudica150_oc\boudica150_oc.c **** #define cn_boudica150_try_times    (32)
  48:d:/LiteOS_Lab/iot_link/oc/oc_lwm2m/boudica150_oc\boudica150_oc.c **** #define cn_boudica150_rcvindex     "\r\n+NNMI:"
  49:d:/LiteOS_Lab/iot_link/oc/oc_lwm2m/boudica150_oc\boudica150_oc.c **** #define cn_urc_qlwevtind           "\r\n+QLWEVTIND:"
  50:d:/LiteOS_Lab/iot_link/oc/oc_lwm2m/boudica150_oc\boudica150_oc.c **** #define cn_boudica150_cachelen     128
  51:d:/LiteOS_Lab/iot_link/oc/oc_lwm2m/boudica150_oc\boudica150_oc.c **** 
  52:d:/LiteOS_Lab/iot_link/oc/oc_lwm2m/boudica150_oc\boudica150_oc.c **** typedef struct
  53:d:/LiteOS_Lab/iot_link/oc/oc_lwm2m/boudica150_oc\boudica150_oc.c **** {
  54:d:/LiteOS_Lab/iot_link/oc/oc_lwm2m/boudica150_oc\boudica150_oc.c ****     //initialize by the NB module init
  55:d:/LiteOS_Lab/iot_link/oc/oc_lwm2m/boudica150_oc\boudica150_oc.c ****     const char *plmn;
  56:d:/LiteOS_Lab/iot_link/oc/oc_lwm2m/boudica150_oc\boudica150_oc.c ****     const char *apn;
  57:d:/LiteOS_Lab/iot_link/oc/oc_lwm2m/boudica150_oc\boudica150_oc.c ****     const char *bands;
  58:d:/LiteOS_Lab/iot_link/oc/oc_lwm2m/boudica150_oc\boudica150_oc.c **** 
  59:d:/LiteOS_Lab/iot_link/oc/oc_lwm2m/boudica150_oc\boudica150_oc.c ****     //initialized by the applicaiton
  60:d:/LiteOS_Lab/iot_link/oc/oc_lwm2m/boudica150_oc\boudica150_oc.c ****     oc_config_param_t  oc_param;
  61:d:/LiteOS_Lab/iot_link/oc/oc_lwm2m/boudica150_oc\boudica150_oc.c **** 
  62:d:/LiteOS_Lab/iot_link/oc/oc_lwm2m/boudica150_oc\boudica150_oc.c ****     //this is the control block
  63:d:/LiteOS_Lab/iot_link/oc/oc_lwm2m/boudica150_oc\boudica150_oc.c ****     bool_t            sndenable;
  64:d:/LiteOS_Lab/iot_link/oc/oc_lwm2m/boudica150_oc\boudica150_oc.c ****     unsigned char     sndbuf[cn_boudica150_cachelen];  //used for the receive
ARM GAS  C:\Users\ADMINI~1\AppData\Local\Temp\ccWbmWws.s 			page 3


  65:d:/LiteOS_Lab/iot_link/oc/oc_lwm2m/boudica150_oc\boudica150_oc.c ****     unsigned char     rcvbuf[cn_boudica150_cachelen];
  66:d:/LiteOS_Lab/iot_link/oc/oc_lwm2m/boudica150_oc\boudica150_oc.c ****     //for the debug
  67:d:/LiteOS_Lab/iot_link/oc/oc_lwm2m/boudica150_oc\boudica150_oc.c ****     unsigned int   rcvlen;
  68:d:/LiteOS_Lab/iot_link/oc/oc_lwm2m/boudica150_oc\boudica150_oc.c ****     unsigned int   sndlen;
  69:d:/LiteOS_Lab/iot_link/oc/oc_lwm2m/boudica150_oc\boudica150_oc.c ****     //states for the lwm2m
  70:d:/LiteOS_Lab/iot_link/oc/oc_lwm2m/boudica150_oc\boudica150_oc.c ****     bool_t         lwm2m_observe;
  71:d:/LiteOS_Lab/iot_link/oc/oc_lwm2m/boudica150_oc\boudica150_oc.c **** 
  72:d:/LiteOS_Lab/iot_link/oc/oc_lwm2m/boudica150_oc\boudica150_oc.c **** }boudica150_cb_t;
  73:d:/LiteOS_Lab/iot_link/oc/oc_lwm2m/boudica150_oc\boudica150_oc.c **** static boudica150_cb_t   s_boudica150_oc_cb;
  74:d:/LiteOS_Lab/iot_link/oc/oc_lwm2m/boudica150_oc\boudica150_oc.c **** static osal_mutex_t s_report_mutex;
  75:d:/LiteOS_Lab/iot_link/oc/oc_lwm2m/boudica150_oc\boudica150_oc.c **** static void  *s_oc_handle = NULL;
  76:d:/LiteOS_Lab/iot_link/oc/oc_lwm2m/boudica150_oc\boudica150_oc.c **** 
  77:d:/LiteOS_Lab/iot_link/oc/oc_lwm2m/boudica150_oc\boudica150_oc.c **** int wireless_stats[4] = {0};
  78:d:/LiteOS_Lab/iot_link/oc/oc_lwm2m/boudica150_oc\boudica150_oc.c **** 
  79:d:/LiteOS_Lab/iot_link/oc/oc_lwm2m/boudica150_oc\boudica150_oc.c **** //bc95 common at command
  80:d:/LiteOS_Lab/iot_link/oc/oc_lwm2m/boudica150_oc\boudica150_oc.c **** static bool_t boudica150_atcmd(const char *cmd,const char *index)
  81:d:/LiteOS_Lab/iot_link/oc/oc_lwm2m/boudica150_oc\boudica150_oc.c **** {
  53              		.loc 1 81 1
  54              		.cfi_startproc
  55              		@ args = 0, pretend = 0, frame = 16
  56              		@ frame_needed = 1, uses_anonymous_args = 0
  57 0000 80B5     		push	{r7, lr}
  58              	.LCFI0:
  59              		.cfi_def_cfa_offset 8
  60              		.cfi_offset 7, -8
  61              		.cfi_offset 14, -4
  62 0002 86B0     		sub	sp, sp, #24
  63              	.LCFI1:
  64              		.cfi_def_cfa_offset 32
  65 0004 02AF     		add	r7, sp, #8
  66              	.LCFI2:
  67              		.cfi_def_cfa 7, 24
  68 0006 7860     		str	r0, [r7, #4]
  69 0008 3960     		str	r1, [r7]
  82:d:/LiteOS_Lab/iot_link/oc/oc_lwm2m/boudica150_oc\boudica150_oc.c ****     int ret = 0;
  70              		.loc 1 82 9
  71 000a 0023     		movs	r3, #0
  72 000c FB60     		str	r3, [r7, #12]
  83:d:/LiteOS_Lab/iot_link/oc/oc_lwm2m/boudica150_oc\boudica150_oc.c ****     ret = at_command((unsigned char *)cmd,strlen(cmd),index,NULL,0,cn_boudica150_cmd_timeout);
  73              		.loc 1 83 11
  74 000e 7868     		ldr	r0, [r7, #4]
  75 0010 FFF7FEFF 		bl	strlen
  76 0014 0146     		mov	r1, r0
  77 0016 4FF4FA63 		mov	r3, #2000
  78 001a 0193     		str	r3, [sp, #4]
  79 001c 0023     		movs	r3, #0
  80 001e 0093     		str	r3, [sp]
  81 0020 0023     		movs	r3, #0
  82 0022 3A68     		ldr	r2, [r7]
  83 0024 7868     		ldr	r0, [r7, #4]
  84 0026 FFF7FEFF 		bl	at_command
  85 002a F860     		str	r0, [r7, #12]
  84:d:/LiteOS_Lab/iot_link/oc/oc_lwm2m/boudica150_oc\boudica150_oc.c ****     if(ret >= 0)
  86              		.loc 1 84 7
  87 002c FB68     		ldr	r3, [r7, #12]
  88 002e 002B     		cmp	r3, #0
  89 0030 01DB     		blt	.L2
ARM GAS  C:\Users\ADMINI~1\AppData\Local\Temp\ccWbmWws.s 			page 4


  85:d:/LiteOS_Lab/iot_link/oc/oc_lwm2m/boudica150_oc\boudica150_oc.c ****     {
  86:d:/LiteOS_Lab/iot_link/oc/oc_lwm2m/boudica150_oc\boudica150_oc.c ****         return true;
  90              		.loc 1 86 16
  91 0032 0123     		movs	r3, #1
  92 0034 00E0     		b	.L3
  93              	.L2:
  87:d:/LiteOS_Lab/iot_link/oc/oc_lwm2m/boudica150_oc\boudica150_oc.c ****     }
  88:d:/LiteOS_Lab/iot_link/oc/oc_lwm2m/boudica150_oc\boudica150_oc.c ****     else
  89:d:/LiteOS_Lab/iot_link/oc/oc_lwm2m/boudica150_oc\boudica150_oc.c ****     {
  90:d:/LiteOS_Lab/iot_link/oc/oc_lwm2m/boudica150_oc\boudica150_oc.c ****         return false;
  94              		.loc 1 90 16
  95 0036 0023     		movs	r3, #0
  96              	.L3:
  91:d:/LiteOS_Lab/iot_link/oc/oc_lwm2m/boudica150_oc\boudica150_oc.c ****     }
  92:d:/LiteOS_Lab/iot_link/oc/oc_lwm2m/boudica150_oc\boudica150_oc.c **** }
  97              		.loc 1 92 1
  98 0038 1846     		mov	r0, r3
  99 003a 1037     		adds	r7, r7, #16
 100              	.LCFI3:
 101              		.cfi_def_cfa_offset 8
 102 003c BD46     		mov	sp, r7
 103              	.LCFI4:
 104              		.cfi_def_cfa_register 13
 105              		@ sp needed
 106 003e 80BD     		pop	{r7, pc}
 107              		.cfi_endproc
 108              	.LFE3:
 110              		.section	.text.boudica150_atcmd_response,"ax",%progbits
 111              		.align	1
 112              		.syntax unified
 113              		.thumb
 114              		.thumb_func
 115              		.fpu fpv4-sp-d16
 117              	boudica150_atcmd_response:
 118              	.LFB4:
  93:d:/LiteOS_Lab/iot_link/oc/oc_lwm2m/boudica150_oc\boudica150_oc.c **** 
  94:d:/LiteOS_Lab/iot_link/oc/oc_lwm2m/boudica150_oc\boudica150_oc.c **** //nb command  with response
  95:d:/LiteOS_Lab/iot_link/oc/oc_lwm2m/boudica150_oc\boudica150_oc.c **** //bc95 common at command
  96:d:/LiteOS_Lab/iot_link/oc/oc_lwm2m/boudica150_oc\boudica150_oc.c **** static bool_t boudica150_atcmd_response(const char *cmd,const char *index,char *buf, int len)
  97:d:/LiteOS_Lab/iot_link/oc/oc_lwm2m/boudica150_oc\boudica150_oc.c **** {
 119              		.loc 1 97 1
 120              		.cfi_startproc
 121              		@ args = 0, pretend = 0, frame = 24
 122              		@ frame_needed = 1, uses_anonymous_args = 0
 123 0000 80B5     		push	{r7, lr}
 124              	.LCFI5:
 125              		.cfi_def_cfa_offset 8
 126              		.cfi_offset 7, -8
 127              		.cfi_offset 14, -4
 128 0002 88B0     		sub	sp, sp, #32
 129              	.LCFI6:
 130              		.cfi_def_cfa_offset 40
 131 0004 02AF     		add	r7, sp, #8
 132              	.LCFI7:
 133              		.cfi_def_cfa 7, 32
 134 0006 F860     		str	r0, [r7, #12]
 135 0008 B960     		str	r1, [r7, #8]
ARM GAS  C:\Users\ADMINI~1\AppData\Local\Temp\ccWbmWws.s 			page 5


 136 000a 7A60     		str	r2, [r7, #4]
 137 000c 3B60     		str	r3, [r7]
  98:d:/LiteOS_Lab/iot_link/oc/oc_lwm2m/boudica150_oc\boudica150_oc.c ****     int ret = 0;
 138              		.loc 1 98 9
 139 000e 0023     		movs	r3, #0
 140 0010 7B61     		str	r3, [r7, #20]
  99:d:/LiteOS_Lab/iot_link/oc/oc_lwm2m/boudica150_oc\boudica150_oc.c ****     ret = at_command((unsigned char *)cmd,strlen(cmd),index,(char *)buf,len,cn_boudica150_cmd_timeo
 141              		.loc 1 99 11
 142 0012 F868     		ldr	r0, [r7, #12]
 143 0014 FFF7FEFF 		bl	strlen
 144 0018 0146     		mov	r1, r0
 145 001a 3B68     		ldr	r3, [r7]
 146 001c 4FF4FA62 		mov	r2, #2000
 147 0020 0192     		str	r2, [sp, #4]
 148 0022 0093     		str	r3, [sp]
 149 0024 7B68     		ldr	r3, [r7, #4]
 150 0026 BA68     		ldr	r2, [r7, #8]
 151 0028 F868     		ldr	r0, [r7, #12]
 152 002a FFF7FEFF 		bl	at_command
 153 002e 7861     		str	r0, [r7, #20]
 100:d:/LiteOS_Lab/iot_link/oc/oc_lwm2m/boudica150_oc\boudica150_oc.c ****     if(ret >= 0)
 154              		.loc 1 100 7
 155 0030 7B69     		ldr	r3, [r7, #20]
 156 0032 002B     		cmp	r3, #0
 157 0034 01DB     		blt	.L5
 101:d:/LiteOS_Lab/iot_link/oc/oc_lwm2m/boudica150_oc\boudica150_oc.c ****     {
 102:d:/LiteOS_Lab/iot_link/oc/oc_lwm2m/boudica150_oc\boudica150_oc.c ****         return true;
 158              		.loc 1 102 16
 159 0036 0123     		movs	r3, #1
 160 0038 00E0     		b	.L6
 161              	.L5:
 103:d:/LiteOS_Lab/iot_link/oc/oc_lwm2m/boudica150_oc\boudica150_oc.c ****     }
 104:d:/LiteOS_Lab/iot_link/oc/oc_lwm2m/boudica150_oc\boudica150_oc.c ****     else
 105:d:/LiteOS_Lab/iot_link/oc/oc_lwm2m/boudica150_oc\boudica150_oc.c ****     {
 106:d:/LiteOS_Lab/iot_link/oc/oc_lwm2m/boudica150_oc\boudica150_oc.c ****         return false;
 162              		.loc 1 106 16
 163 003a 0023     		movs	r3, #0
 164              	.L6:
 107:d:/LiteOS_Lab/iot_link/oc/oc_lwm2m/boudica150_oc\boudica150_oc.c ****     }
 108:d:/LiteOS_Lab/iot_link/oc/oc_lwm2m/boudica150_oc\boudica150_oc.c **** }
 165              		.loc 1 108 1
 166 003c 1846     		mov	r0, r3
 167 003e 1837     		adds	r7, r7, #24
 168              	.LCFI8:
 169              		.cfi_def_cfa_offset 8
 170 0040 BD46     		mov	sp, r7
 171              	.LCFI9:
 172              		.cfi_def_cfa_register 13
 173              		@ sp needed
 174 0042 80BD     		pop	{r7, pc}
 175              		.cfi_endproc
 176              	.LFE4:
 178              		.section	.rodata
 179              		.align	2
 180              	.LC0:
 181 0000 25303258 		.ascii	"%02X\000"
 181      00
ARM GAS  C:\Users\ADMINI~1\AppData\Local\Temp\ccWbmWws.s 			page 6


 182              		.section	.text.byte_to_hexstr,"ax",%progbits
 183              		.align	1
 184              		.syntax unified
 185              		.thumb
 186              		.thumb_func
 187              		.fpu fpv4-sp-d16
 189              	byte_to_hexstr:
 190              	.LFB5:
 109:d:/LiteOS_Lab/iot_link/oc/oc_lwm2m/boudica150_oc\boudica150_oc.c **** 
 110:d:/LiteOS_Lab/iot_link/oc/oc_lwm2m/boudica150_oc\boudica150_oc.c **** 
 111:d:/LiteOS_Lab/iot_link/oc/oc_lwm2m/boudica150_oc\boudica150_oc.c **** 
 112:d:/LiteOS_Lab/iot_link/oc/oc_lwm2m/boudica150_oc\boudica150_oc.c **** //make a byte to 2 ascii hex
 113:d:/LiteOS_Lab/iot_link/oc/oc_lwm2m/boudica150_oc\boudica150_oc.c **** static int byte_to_hexstr(const unsigned char *bufin, int len, char *bufout)
 114:d:/LiteOS_Lab/iot_link/oc/oc_lwm2m/boudica150_oc\boudica150_oc.c **** {
 191              		.loc 1 114 1
 192              		.cfi_startproc
 193              		@ args = 0, pretend = 0, frame = 24
 194              		@ frame_needed = 1, uses_anonymous_args = 0
 195 0000 80B5     		push	{r7, lr}
 196              	.LCFI10:
 197              		.cfi_def_cfa_offset 8
 198              		.cfi_offset 7, -8
 199              		.cfi_offset 14, -4
 200 0002 86B0     		sub	sp, sp, #24
 201              	.LCFI11:
 202              		.cfi_def_cfa_offset 32
 203 0004 00AF     		add	r7, sp, #0
 204              	.LCFI12:
 205              		.cfi_def_cfa_register 7
 206 0006 F860     		str	r0, [r7, #12]
 207 0008 B960     		str	r1, [r7, #8]
 208 000a 7A60     		str	r2, [r7, #4]
 115:d:/LiteOS_Lab/iot_link/oc/oc_lwm2m/boudica150_oc\boudica150_oc.c ****     int i = 0;
 209              		.loc 1 115 9
 210 000c 0023     		movs	r3, #0
 211 000e 7B61     		str	r3, [r7, #20]
 116:d:/LiteOS_Lab/iot_link/oc/oc_lwm2m/boudica150_oc\boudica150_oc.c ****     if (NULL == bufin || len <= 0 || NULL == bufout)
 212              		.loc 1 116 8
 213 0010 FB68     		ldr	r3, [r7, #12]
 214 0012 002B     		cmp	r3, #0
 215 0014 05D0     		beq	.L8
 216              		.loc 1 116 23 discriminator 1
 217 0016 BB68     		ldr	r3, [r7, #8]
 218 0018 002B     		cmp	r3, #0
 219 001a 02DD     		ble	.L8
 220              		.loc 1 116 35 discriminator 2
 221 001c 7B68     		ldr	r3, [r7, #4]
 222 001e 002B     		cmp	r3, #0
 223 0020 02D1     		bne	.L9
 224              	.L8:
 117:d:/LiteOS_Lab/iot_link/oc/oc_lwm2m/boudica150_oc\boudica150_oc.c ****     {
 118:d:/LiteOS_Lab/iot_link/oc/oc_lwm2m/boudica150_oc\boudica150_oc.c ****         return -1;
 225              		.loc 1 118 16
 226 0022 4FF0FF33 		mov	r3, #-1
 227 0026 17E0     		b	.L10
 228              	.L9:
 119:d:/LiteOS_Lab/iot_link/oc/oc_lwm2m/boudica150_oc\boudica150_oc.c ****     }
ARM GAS  C:\Users\ADMINI~1\AppData\Local\Temp\ccWbmWws.s 			page 7


 120:d:/LiteOS_Lab/iot_link/oc/oc_lwm2m/boudica150_oc\boudica150_oc.c ****     for(i = 0; i < len; i++)
 229              		.loc 1 120 11
 230 0028 0023     		movs	r3, #0
 231 002a 7B61     		str	r3, [r7, #20]
 232              		.loc 1 120 5
 233 002c 0FE0     		b	.L11
 234              	.L12:
 121:d:/LiteOS_Lab/iot_link/oc/oc_lwm2m/boudica150_oc\boudica150_oc.c ****     {
 122:d:/LiteOS_Lab/iot_link/oc/oc_lwm2m/boudica150_oc\boudica150_oc.c ****         (void) sprintf(bufout+i*2, "%02X", bufin[i]);
 235              		.loc 1 122 32 discriminator 3
 236 002e 7B69     		ldr	r3, [r7, #20]
 237 0030 5B00     		lsls	r3, r3, #1
 238 0032 1A46     		mov	r2, r3
 239              		.loc 1 122 16 discriminator 3
 240 0034 7B68     		ldr	r3, [r7, #4]
 241 0036 9818     		adds	r0, r3, r2
 242              		.loc 1 122 49 discriminator 3
 243 0038 7B69     		ldr	r3, [r7, #20]
 244 003a FA68     		ldr	r2, [r7, #12]
 245 003c 1344     		add	r3, r3, r2
 246 003e 1B78     		ldrb	r3, [r3]	@ zero_extendqisi2
 247              		.loc 1 122 16 discriminator 3
 248 0040 1A46     		mov	r2, r3
 249 0042 0749     		ldr	r1, .L13
 250 0044 FFF7FEFF 		bl	sprintf
 120:d:/LiteOS_Lab/iot_link/oc/oc_lwm2m/boudica150_oc\boudica150_oc.c ****     {
 251              		.loc 1 120 26 discriminator 3
 252 0048 7B69     		ldr	r3, [r7, #20]
 253 004a 0133     		adds	r3, r3, #1
 254 004c 7B61     		str	r3, [r7, #20]
 255              	.L11:
 120:d:/LiteOS_Lab/iot_link/oc/oc_lwm2m/boudica150_oc\boudica150_oc.c ****     {
 256              		.loc 1 120 5 discriminator 1
 257 004e 7A69     		ldr	r2, [r7, #20]
 258 0050 BB68     		ldr	r3, [r7, #8]
 259 0052 9A42     		cmp	r2, r3
 260 0054 EBDB     		blt	.L12
 123:d:/LiteOS_Lab/iot_link/oc/oc_lwm2m/boudica150_oc\boudica150_oc.c ****     }
 124:d:/LiteOS_Lab/iot_link/oc/oc_lwm2m/boudica150_oc\boudica150_oc.c ****     return 0;
 261              		.loc 1 124 12
 262 0056 0023     		movs	r3, #0
 263              	.L10:
 125:d:/LiteOS_Lab/iot_link/oc/oc_lwm2m/boudica150_oc\boudica150_oc.c **** }
 264              		.loc 1 125 1
 265 0058 1846     		mov	r0, r3
 266 005a 1837     		adds	r7, r7, #24
 267              	.LCFI13:
 268              		.cfi_def_cfa_offset 8
 269 005c BD46     		mov	sp, r7
 270              	.LCFI14:
 271              		.cfi_def_cfa_register 13
 272              		@ sp needed
 273 005e 80BD     		pop	{r7, pc}
 274              	.L14:
 275              		.align	2
 276              	.L13:
 277 0060 00000000 		.word	.LC0
ARM GAS  C:\Users\ADMINI~1\AppData\Local\Temp\ccWbmWws.s 			page 8


 278              		.cfi_endproc
 279              	.LFE5:
 281              		.section	.rodata
 282 0005 000000   		.align	2
 283              	.LC1:
 284 0008 41542B4E 		.ascii	"AT+NMGS=\000"
 284      4D47533D 
 284      00
 285 0011 000000   		.align	2
 286              	.LC2:
 287 0014 4F4B00   		.ascii	"OK\000"
 288 0017 00       		.align	2
 289              	.LC3:
 290 0018 25732564 		.ascii	"%s%d,\000"
 290      2C00
 291              		.section	.text.boudica150_oc_report,"ax",%progbits
 292              		.align	1
 293              		.syntax unified
 294              		.thumb
 295              		.thumb_func
 296              		.fpu fpv4-sp-d16
 298              	boudica150_oc_report:
 299              	.LFB6:
 126:d:/LiteOS_Lab/iot_link/oc/oc_lwm2m/boudica150_oc\boudica150_oc.c **** 
 127:d:/LiteOS_Lab/iot_link/oc/oc_lwm2m/boudica150_oc\boudica150_oc.c **** 
 128:d:/LiteOS_Lab/iot_link/oc/oc_lwm2m/boudica150_oc\boudica150_oc.c **** static int boudica150_oc_report(unsigned char *buf,int len, int timeout)
 129:d:/LiteOS_Lab/iot_link/oc/oc_lwm2m/boudica150_oc\boudica150_oc.c **** {
 300              		.loc 1 129 1
 301              		.cfi_startproc
 302              		@ args = 0, pretend = 0, frame = 32
 303              		@ frame_needed = 1, uses_anonymous_args = 0
 304 0000 80B5     		push	{r7, lr}
 305              	.LCFI15:
 306              		.cfi_def_cfa_offset 8
 307              		.cfi_offset 7, -8
 308              		.cfi_offset 14, -4
 309 0002 8AB0     		sub	sp, sp, #40
 310              	.LCFI16:
 311              		.cfi_def_cfa_offset 48
 312 0004 02AF     		add	r7, sp, #8
 313              	.LCFI17:
 314              		.cfi_def_cfa 7, 40
 315 0006 F860     		str	r0, [r7, #12]
 316 0008 B960     		str	r1, [r7, #8]
 317 000a 7A60     		str	r2, [r7, #4]
 130:d:/LiteOS_Lab/iot_link/oc/oc_lwm2m/boudica150_oc\boudica150_oc.c ****     int ret = en_oc_lwm2m_err_noconfigured;
 318              		.loc 1 130 9
 319 000c 0423     		movs	r3, #4
 320 000e FB61     		str	r3, [r7, #28]
 131:d:/LiteOS_Lab/iot_link/oc/oc_lwm2m/boudica150_oc\boudica150_oc.c ****     const char *cmd = "AT+NMGS=";
 321              		.loc 1 131 17
 322 0010 304B     		ldr	r3, .L22
 323 0012 BB61     		str	r3, [r7, #24]
 132:d:/LiteOS_Lab/iot_link/oc/oc_lwm2m/boudica150_oc\boudica150_oc.c ****     const char *index = "OK";
 324              		.loc 1 132 17
 325 0014 304B     		ldr	r3, .L22+4
 326 0016 7B61     		str	r3, [r7, #20]
ARM GAS  C:\Users\ADMINI~1\AppData\Local\Temp\ccWbmWws.s 			page 9


 133:d:/LiteOS_Lab/iot_link/oc/oc_lwm2m/boudica150_oc\boudica150_oc.c **** 
 134:d:/LiteOS_Lab/iot_link/oc/oc_lwm2m/boudica150_oc\boudica150_oc.c ****     if(NULL == s_oc_handle)
 327              		.loc 1 134 13
 328 0018 304B     		ldr	r3, .L22+8
 329 001a 1B68     		ldr	r3, [r3]
 330              		.loc 1 134 7
 331 001c 002B     		cmp	r3, #0
 332 001e 01D1     		bne	.L16
 135:d:/LiteOS_Lab/iot_link/oc/oc_lwm2m/boudica150_oc\boudica150_oc.c ****     {
 136:d:/LiteOS_Lab/iot_link/oc/oc_lwm2m/boudica150_oc\boudica150_oc.c ****         return ret;
 333              		.loc 1 136 16
 334 0020 FB69     		ldr	r3, [r7, #28]
 335 0022 52E0     		b	.L17
 336              	.L16:
 137:d:/LiteOS_Lab/iot_link/oc/oc_lwm2m/boudica150_oc\boudica150_oc.c ****     }
 138:d:/LiteOS_Lab/iot_link/oc/oc_lwm2m/boudica150_oc\boudica150_oc.c **** 
 139:d:/LiteOS_Lab/iot_link/oc/oc_lwm2m/boudica150_oc\boudica150_oc.c ****     if ((NULL == buf) || (len >= cn_boudica150_cachelen/2 )||(false == s_boudica150_oc_cb.sndenable
 337              		.loc 1 139 8
 338 0024 FB68     		ldr	r3, [r7, #12]
 339 0026 002B     		cmp	r3, #0
 340 0028 06D0     		beq	.L18
 341              		.loc 1 139 23 discriminator 1
 342 002a BB68     		ldr	r3, [r7, #8]
 343 002c 3F2B     		cmp	r3, #63
 344 002e 03DC     		bgt	.L18
 345              		.loc 1 139 90 discriminator 2
 346 0030 2B4B     		ldr	r3, .L22+12
 347 0032 9B6C     		ldr	r3, [r3, #72]
 348              		.loc 1 139 60 discriminator 2
 349 0034 002B     		cmp	r3, #0
 350 0036 03D1     		bne	.L19
 351              	.L18:
 140:d:/LiteOS_Lab/iot_link/oc/oc_lwm2m/boudica150_oc\boudica150_oc.c ****     {
 141:d:/LiteOS_Lab/iot_link/oc/oc_lwm2m/boudica150_oc\boudica150_oc.c ****         ret = en_oc_lwm2m_err_parafmt;
 352              		.loc 1 141 13
 353 0038 0123     		movs	r3, #1
 354 003a FB61     		str	r3, [r7, #28]
 142:d:/LiteOS_Lab/iot_link/oc/oc_lwm2m/boudica150_oc\boudica150_oc.c ****         return ret;
 355              		.loc 1 142 16
 356 003c FB69     		ldr	r3, [r7, #28]
 357 003e 44E0     		b	.L17
 358              	.L19:
 143:d:/LiteOS_Lab/iot_link/oc/oc_lwm2m/boudica150_oc\boudica150_oc.c ****     }
 144:d:/LiteOS_Lab/iot_link/oc/oc_lwm2m/boudica150_oc\boudica150_oc.c ****     osal_mutex_lock(s_report_mutex);
 359              		.loc 1 144 5
 360 0040 284B     		ldr	r3, .L22+16
 361 0042 1B68     		ldr	r3, [r3]
 362 0044 1846     		mov	r0, r3
 363 0046 FFF7FEFF 		bl	osal_mutex_lock
 145:d:/LiteOS_Lab/iot_link/oc/oc_lwm2m/boudica150_oc\boudica150_oc.c ****     (void) memset(s_boudica150_oc_cb.sndbuf, 0, cn_boudica150_cachelen);
 364              		.loc 1 145 12
 365 004a 8022     		movs	r2, #128
 366 004c 0021     		movs	r1, #0
 367 004e 2648     		ldr	r0, .L22+20
 368 0050 FFF7FEFF 		bl	memset
 146:d:/LiteOS_Lab/iot_link/oc/oc_lwm2m/boudica150_oc\boudica150_oc.c ****     (void) snprintf((char *)s_boudica150_oc_cb.sndbuf,cn_boudica150_cachelen,"%s%d,",cmd,len);
 369              		.loc 1 146 12
ARM GAS  C:\Users\ADMINI~1\AppData\Local\Temp\ccWbmWws.s 			page 10


 370 0054 BB68     		ldr	r3, [r7, #8]
 371 0056 0093     		str	r3, [sp]
 372 0058 BB69     		ldr	r3, [r7, #24]
 373 005a 244A     		ldr	r2, .L22+24
 374 005c 8021     		movs	r1, #128
 375 005e 2248     		ldr	r0, .L22+20
 376 0060 FFF7FEFF 		bl	snprintf
 147:d:/LiteOS_Lab/iot_link/oc/oc_lwm2m/boudica150_oc\boudica150_oc.c ****     ret = byte_to_hexstr((unsigned char *)buf, len, (char *)&s_boudica150_oc_cb.sndbuf[strlen((char
 377              		.loc 1 147 88
 378 0064 2048     		ldr	r0, .L22+20
 379 0066 FFF7FEFF 		bl	strlen
 380 006a 0346     		mov	r3, r0
 381              		.loc 1 147 61
 382 006c 4833     		adds	r3, r3, #72
 383 006e 1C4A     		ldr	r2, .L22+12
 384 0070 1344     		add	r3, r3, r2
 385 0072 0433     		adds	r3, r3, #4
 386              		.loc 1 147 11
 387 0074 1A46     		mov	r2, r3
 388 0076 B968     		ldr	r1, [r7, #8]
 389 0078 F868     		ldr	r0, [r7, #12]
 390 007a FFF7FEFF 		bl	byte_to_hexstr
 391 007e F861     		str	r0, [r7, #28]
 148:d:/LiteOS_Lab/iot_link/oc/oc_lwm2m/boudica150_oc\boudica150_oc.c ****     s_boudica150_oc_cb.sndbuf[strlen((char *)s_boudica150_oc_cb.sndbuf)]='\r';
 392              		.loc 1 148 31
 393 0080 1948     		ldr	r0, .L22+20
 394 0082 FFF7FEFF 		bl	strlen
 395 0086 0346     		mov	r3, r0
 396              		.loc 1 148 73
 397 0088 154A     		ldr	r2, .L22+12
 398 008a 1344     		add	r3, r3, r2
 399 008c 0D22     		movs	r2, #13
 400 008e 83F84C20 		strb	r2, [r3, #76]
 149:d:/LiteOS_Lab/iot_link/oc/oc_lwm2m/boudica150_oc\boudica150_oc.c **** 
 150:d:/LiteOS_Lab/iot_link/oc/oc_lwm2m/boudica150_oc\boudica150_oc.c ****     ret = at_command((unsigned char *)s_boudica150_oc_cb.sndbuf,strlen((char *)s_boudica150_oc_cb.s
 401              		.loc 1 150 11
 402 0092 1548     		ldr	r0, .L22+20
 403 0094 FFF7FEFF 		bl	strlen
 404 0098 0146     		mov	r1, r0
 405 009a 7B68     		ldr	r3, [r7, #4]
 406 009c 0193     		str	r3, [sp, #4]
 407 009e 0023     		movs	r3, #0
 408 00a0 0093     		str	r3, [sp]
 409 00a2 0023     		movs	r3, #0
 410 00a4 7A69     		ldr	r2, [r7, #20]
 411 00a6 1048     		ldr	r0, .L22+20
 412 00a8 FFF7FEFF 		bl	at_command
 413 00ac F861     		str	r0, [r7, #28]
 151:d:/LiteOS_Lab/iot_link/oc/oc_lwm2m/boudica150_oc\boudica150_oc.c ****     (void) osal_mutex_unlock(s_report_mutex);
 414              		.loc 1 151 5
 415 00ae 0D4B     		ldr	r3, .L22+16
 416 00b0 1B68     		ldr	r3, [r3]
 417              		.loc 1 151 12
 418 00b2 1846     		mov	r0, r3
 419 00b4 FFF7FEFF 		bl	osal_mutex_unlock
 152:d:/LiteOS_Lab/iot_link/oc/oc_lwm2m/boudica150_oc\boudica150_oc.c ****     if(ret >= 0)
 420              		.loc 1 152 7
ARM GAS  C:\Users\ADMINI~1\AppData\Local\Temp\ccWbmWws.s 			page 11


 421 00b8 FB69     		ldr	r3, [r7, #28]
 422 00ba 002B     		cmp	r3, #0
 423 00bc 02DB     		blt	.L20
 153:d:/LiteOS_Lab/iot_link/oc/oc_lwm2m/boudica150_oc\boudica150_oc.c ****     {
 154:d:/LiteOS_Lab/iot_link/oc/oc_lwm2m/boudica150_oc\boudica150_oc.c ****         ret = en_oc_lwm2m_err_ok;
 424              		.loc 1 154 13
 425 00be 0023     		movs	r3, #0
 426 00c0 FB61     		str	r3, [r7, #28]
 427 00c2 01E0     		b	.L21
 428              	.L20:
 155:d:/LiteOS_Lab/iot_link/oc/oc_lwm2m/boudica150_oc\boudica150_oc.c ****     }
 156:d:/LiteOS_Lab/iot_link/oc/oc_lwm2m/boudica150_oc\boudica150_oc.c ****     else
 157:d:/LiteOS_Lab/iot_link/oc/oc_lwm2m/boudica150_oc\boudica150_oc.c ****     {
 158:d:/LiteOS_Lab/iot_link/oc/oc_lwm2m/boudica150_oc\boudica150_oc.c ****         ret = en_oc_lwm2m_err_network;
 429              		.loc 1 158 13
 430 00c4 0223     		movs	r3, #2
 431 00c6 FB61     		str	r3, [r7, #28]
 432              	.L21:
 159:d:/LiteOS_Lab/iot_link/oc/oc_lwm2m/boudica150_oc\boudica150_oc.c ****     }
 160:d:/LiteOS_Lab/iot_link/oc/oc_lwm2m/boudica150_oc\boudica150_oc.c **** 
 161:d:/LiteOS_Lab/iot_link/oc/oc_lwm2m/boudica150_oc\boudica150_oc.c ****     return ret;
 433              		.loc 1 161 12
 434 00c8 FB69     		ldr	r3, [r7, #28]
 435              	.L17:
 162:d:/LiteOS_Lab/iot_link/oc/oc_lwm2m/boudica150_oc\boudica150_oc.c **** }
 436              		.loc 1 162 1
 437 00ca 1846     		mov	r0, r3
 438 00cc 2037     		adds	r7, r7, #32
 439              	.LCFI18:
 440              		.cfi_def_cfa_offset 8
 441 00ce BD46     		mov	sp, r7
 442              	.LCFI19:
 443              		.cfi_def_cfa_register 13
 444              		@ sp needed
 445 00d0 80BD     		pop	{r7, pc}
 446              	.L23:
 447 00d2 00BF     		.align	2
 448              	.L22:
 449 00d4 08000000 		.word	.LC1
 450 00d8 14000000 		.word	.LC2
 451 00dc 00000000 		.word	s_oc_handle
 452 00e0 00000000 		.word	s_boudica150_oc_cb
 453 00e4 00000000 		.word	s_report_mutex
 454 00e8 4C000000 		.word	s_boudica150_oc_cb+76
 455 00ec 18000000 		.word	.LC3
 456              		.cfi_endproc
 457              	.LFE6:
 459              		.section	.text.hexstr_to_byte,"ax",%progbits
 460              		.align	1
 461              		.syntax unified
 462              		.thumb
 463              		.thumb_func
 464              		.fpu fpv4-sp-d16
 466              	hexstr_to_byte:
 467              	.LFB7:
 163:d:/LiteOS_Lab/iot_link/oc/oc_lwm2m/boudica150_oc\boudica150_oc.c **** 
 164:d:/LiteOS_Lab/iot_link/oc/oc_lwm2m/boudica150_oc\boudica150_oc.c **** 
ARM GAS  C:\Users\ADMINI~1\AppData\Local\Temp\ccWbmWws.s 			page 12


 165:d:/LiteOS_Lab/iot_link/oc/oc_lwm2m/boudica150_oc\boudica150_oc.c **** static int hexstr_to_byte(const char *bufin, int len, char *bufout)
 166:d:/LiteOS_Lab/iot_link/oc/oc_lwm2m/boudica150_oc\boudica150_oc.c **** {
 468              		.loc 1 166 1
 469              		.cfi_startproc
 470              		@ args = 0, pretend = 0, frame = 32
 471              		@ frame_needed = 1, uses_anonymous_args = 0
 472              		@ link register save eliminated.
 473 0000 80B4     		push	{r7}
 474              	.LCFI20:
 475              		.cfi_def_cfa_offset 4
 476              		.cfi_offset 7, -4
 477 0002 89B0     		sub	sp, sp, #36
 478              	.LCFI21:
 479              		.cfi_def_cfa_offset 40
 480 0004 00AF     		add	r7, sp, #0
 481              	.LCFI22:
 482              		.cfi_def_cfa_register 7
 483 0006 F860     		str	r0, [r7, #12]
 484 0008 B960     		str	r1, [r7, #8]
 485 000a 7A60     		str	r2, [r7, #4]
 167:d:/LiteOS_Lab/iot_link/oc/oc_lwm2m/boudica150_oc\boudica150_oc.c ****     int i = 0;
 486              		.loc 1 167 9
 487 000c 0023     		movs	r3, #0
 488 000e FB61     		str	r3, [r7, #28]
 168:d:/LiteOS_Lab/iot_link/oc/oc_lwm2m/boudica150_oc\boudica150_oc.c ****     unsigned char tmp2 = 0x0;
 489              		.loc 1 168 19
 490 0010 0023     		movs	r3, #0
 491 0012 FB76     		strb	r3, [r7, #27]
 169:d:/LiteOS_Lab/iot_link/oc/oc_lwm2m/boudica150_oc\boudica150_oc.c ****     unsigned int tmp = 0;
 492              		.loc 1 169 18
 493 0014 0023     		movs	r3, #0
 494 0016 7B61     		str	r3, [r7, #20]
 170:d:/LiteOS_Lab/iot_link/oc/oc_lwm2m/boudica150_oc\boudica150_oc.c ****     if (NULL == bufin || len <= 0 || NULL == bufout)
 495              		.loc 1 170 8
 496 0018 FB68     		ldr	r3, [r7, #12]
 497 001a 002B     		cmp	r3, #0
 498 001c 05D0     		beq	.L25
 499              		.loc 1 170 23 discriminator 1
 500 001e BB68     		ldr	r3, [r7, #8]
 501 0020 002B     		cmp	r3, #0
 502 0022 02DD     		ble	.L25
 503              		.loc 1 170 35 discriminator 2
 504 0024 7B68     		ldr	r3, [r7, #4]
 505 0026 002B     		cmp	r3, #0
 506 0028 02D1     		bne	.L26
 507              	.L25:
 171:d:/LiteOS_Lab/iot_link/oc/oc_lwm2m/boudica150_oc\boudica150_oc.c ****     {
 172:d:/LiteOS_Lab/iot_link/oc/oc_lwm2m/boudica150_oc\boudica150_oc.c ****         return -1;
 508              		.loc 1 172 16
 509 002a 4FF0FF33 		mov	r3, #-1
 510 002e 3BE0     		b	.L27
 511              	.L26:
 173:d:/LiteOS_Lab/iot_link/oc/oc_lwm2m/boudica150_oc\boudica150_oc.c ****     }
 174:d:/LiteOS_Lab/iot_link/oc/oc_lwm2m/boudica150_oc\boudica150_oc.c ****     for(i = 0; i < len; i = i+2)
 512              		.loc 1 174 11
 513 0030 0023     		movs	r3, #0
 514 0032 FB61     		str	r3, [r7, #28]
ARM GAS  C:\Users\ADMINI~1\AppData\Local\Temp\ccWbmWws.s 			page 13


 515              		.loc 1 174 5
 516 0034 33E0     		b	.L28
 517              	.L33:
 175:d:/LiteOS_Lab/iot_link/oc/oc_lwm2m/boudica150_oc\boudica150_oc.c ****     {
 176:d:/LiteOS_Lab/iot_link/oc/oc_lwm2m/boudica150_oc\boudica150_oc.c ****         tmp2 =  bufin[i];
 518              		.loc 1 176 22
 519 0036 FB69     		ldr	r3, [r7, #28]
 520 0038 FA68     		ldr	r2, [r7, #12]
 521 003a 1344     		add	r3, r3, r2
 522              		.loc 1 176 14
 523 003c 1B78     		ldrb	r3, [r3]
 524 003e FB76     		strb	r3, [r7, #27]
 177:d:/LiteOS_Lab/iot_link/oc/oc_lwm2m/boudica150_oc\boudica150_oc.c ****         tmp2 =  tmp2 <= '9'?tmp2-0x30:tmp2-0x37;
 525              		.loc 1 177 14
 526 0040 FB7E     		ldrb	r3, [r7, #27]	@ zero_extendqisi2
 527 0042 392B     		cmp	r3, #57
 528 0044 03D8     		bhi	.L29
 529              		.loc 1 177 14 is_stmt 0 discriminator 1
 530 0046 FB7E     		ldrb	r3, [r7, #27]
 531 0048 303B     		subs	r3, r3, #48
 532 004a DBB2     		uxtb	r3, r3
 533 004c 02E0     		b	.L30
 534              	.L29:
 535              		.loc 1 177 14 discriminator 2
 536 004e FB7E     		ldrb	r3, [r7, #27]
 537 0050 373B     		subs	r3, r3, #55
 538 0052 DBB2     		uxtb	r3, r3
 539              	.L30:
 540              		.loc 1 177 14 discriminator 4
 541 0054 FB76     		strb	r3, [r7, #27]
 178:d:/LiteOS_Lab/iot_link/oc/oc_lwm2m/boudica150_oc\boudica150_oc.c ****         tmp =  bufin[i+1];
 542              		.loc 1 178 21 is_stmt 1 discriminator 4
 543 0056 FB69     		ldr	r3, [r7, #28]
 544 0058 0133     		adds	r3, r3, #1
 545 005a FA68     		ldr	r2, [r7, #12]
 546 005c 1344     		add	r3, r3, r2
 547 005e 1B78     		ldrb	r3, [r3]	@ zero_extendqisi2
 548              		.loc 1 178 13 discriminator 4
 549 0060 7B61     		str	r3, [r7, #20]
 179:d:/LiteOS_Lab/iot_link/oc/oc_lwm2m/boudica150_oc\boudica150_oc.c ****         tmp =  tmp <= '9'?tmp-0x30:tmp-0x37;
 550              		.loc 1 179 35 discriminator 4
 551 0062 7B69     		ldr	r3, [r7, #20]
 552 0064 392B     		cmp	r3, #57
 553 0066 02D8     		bhi	.L31
 554              		.loc 1 179 35 is_stmt 0 discriminator 1
 555 0068 7B69     		ldr	r3, [r7, #20]
 556 006a 303B     		subs	r3, r3, #48
 557 006c 01E0     		b	.L32
 558              	.L31:
 559              		.loc 1 179 35 discriminator 2
 560 006e 7B69     		ldr	r3, [r7, #20]
 561 0070 373B     		subs	r3, r3, #55
 562              	.L32:
 563              		.loc 1 179 13 is_stmt 1 discriminator 4
 564 0072 7B61     		str	r3, [r7, #20]
 180:d:/LiteOS_Lab/iot_link/oc/oc_lwm2m/boudica150_oc\boudica150_oc.c ****         bufout[i/2] =(tmp2<<4)|(tmp&0x0F);
 565              		.loc 1 180 27 discriminator 4
ARM GAS  C:\Users\ADMINI~1\AppData\Local\Temp\ccWbmWws.s 			page 14


 566 0074 FB7E     		ldrb	r3, [r7, #27]
 567 0076 1B01     		lsls	r3, r3, #4
 568 0078 D9B2     		uxtb	r1, r3
 569              		.loc 1 180 36 discriminator 4
 570 007a 7B69     		ldr	r3, [r7, #20]
 571 007c DBB2     		uxtb	r3, r3
 572 007e 03F00F03 		and	r3, r3, #15
 573 0082 DAB2     		uxtb	r2, r3
 574              		.loc 1 180 17 discriminator 4
 575 0084 FB69     		ldr	r3, [r7, #28]
 576 0086 D80F     		lsrs	r0, r3, #31
 577 0088 0344     		add	r3, r3, r0
 578 008a 5B10     		asrs	r3, r3, #1
 579 008c 1846     		mov	r0, r3
 580              		.loc 1 180 15 discriminator 4
 581 008e 7B68     		ldr	r3, [r7, #4]
 582 0090 0344     		add	r3, r3, r0
 583              		.loc 1 180 31 discriminator 4
 584 0092 0A43     		orrs	r2, r2, r1
 585 0094 D2B2     		uxtb	r2, r2
 586              		.loc 1 180 21 discriminator 4
 587 0096 1A70     		strb	r2, [r3]
 174:d:/LiteOS_Lab/iot_link/oc/oc_lwm2m/boudica150_oc\boudica150_oc.c ****     {
 588              		.loc 1 174 27 discriminator 4
 589 0098 FB69     		ldr	r3, [r7, #28]
 590 009a 0233     		adds	r3, r3, #2
 591 009c FB61     		str	r3, [r7, #28]
 592              	.L28:
 174:d:/LiteOS_Lab/iot_link/oc/oc_lwm2m/boudica150_oc\boudica150_oc.c ****     {
 593              		.loc 1 174 5 discriminator 2
 594 009e FA69     		ldr	r2, [r7, #28]
 595 00a0 BB68     		ldr	r3, [r7, #8]
 596 00a2 9A42     		cmp	r2, r3
 597 00a4 C7DB     		blt	.L33
 181:d:/LiteOS_Lab/iot_link/oc/oc_lwm2m/boudica150_oc\boudica150_oc.c ****     }
 182:d:/LiteOS_Lab/iot_link/oc/oc_lwm2m/boudica150_oc\boudica150_oc.c ****     return 0;
 598              		.loc 1 182 12
 599 00a6 0023     		movs	r3, #0
 600              	.L27:
 183:d:/LiteOS_Lab/iot_link/oc/oc_lwm2m/boudica150_oc\boudica150_oc.c **** }
 601              		.loc 1 183 1
 602 00a8 1846     		mov	r0, r3
 603 00aa 2437     		adds	r7, r7, #36
 604              	.LCFI23:
 605              		.cfi_def_cfa_offset 4
 606 00ac BD46     		mov	sp, r7
 607              	.LCFI24:
 608              		.cfi_def_cfa_register 13
 609              		@ sp needed
 610 00ae 5DF8047B 		ldr	r7, [sp], #4
 611              	.LCFI25:
 612              		.cfi_restore 7
 613              		.cfi_def_cfa_offset 0
 614 00b2 7047     		bx	lr
 615              		.cfi_endproc
 616              	.LFE7:
 618              		.section	.rodata
ARM GAS  C:\Users\ADMINI~1\AppData\Local\Temp\ccWbmWws.s 			page 15


 619 001e 0000     		.align	2
 620              	.LC4:
 621 0020 5B25735D 		.ascii	"[%s][%u][%s] %s:invalid frame:%d byte:%s\012\015\015"
 621      5B25755D 
 621      5B25735D 
 621      2025733A 
 621      696E7661 
 622 004b 0A00     		.ascii	"\012\000"
 623 004d 000000   		.align	2
 624              	.LC5:
 625 0050 5B25735D 		.ascii	"[%s][%u][%s] %s:format error\012\015\015\012\000"
 625      5B25755D 
 625      5B25735D 
 625      2025733A 
 625      666F726D 
 626 0071 000000   		.align	2
 627              	.LC6:
 628 0074 5B25735D 		.ascii	"[%s][%u][%s] %s:implement error\012\015\015\012\000"
 628      5B25755D 
 628      5B25735D 
 628      2025733A 
 628      696D706C 
 629              		.align	2
 630              	.LC7:
 631 0098 5B25735D 		.ascii	"[%s][%u][%s] %s:frame over: frame:%d  cachelen:%d \012"
 631      5B25755D 
 631      5B25735D 
 631      2025733A 
 631      6672616D 
 632 00cb 0D0D0A00 		.ascii	"\015\015\012\000"
 633              		.section	.text.boudica150_rcvdeal,"ax",%progbits
 634              		.align	1
 635              		.syntax unified
 636              		.thumb
 637              		.thumb_func
 638              		.fpu fpv4-sp-d16
 640              	boudica150_rcvdeal:
 641              	.LFB8:
 184:d:/LiteOS_Lab/iot_link/oc/oc_lwm2m/boudica150_oc\boudica150_oc.c **** 
 185:d:/LiteOS_Lab/iot_link/oc/oc_lwm2m/boudica150_oc\boudica150_oc.c **** static int boudica150_rcvdeal(void *args,void *msg,size_t len)
 186:d:/LiteOS_Lab/iot_link/oc/oc_lwm2m/boudica150_oc\boudica150_oc.c **** {
 642              		.loc 1 186 1
 643              		.cfi_startproc
 644              		@ args = 0, pretend = 0, frame = 32
 645              		@ frame_needed = 1, uses_anonymous_args = 0
 646 0000 90B5     		push	{r4, r7, lr}
 647              	.LCFI26:
 648              		.cfi_def_cfa_offset 12
 649              		.cfi_offset 4, -12
 650              		.cfi_offset 7, -8
 651              		.cfi_offset 14, -4
 652 0002 8DB0     		sub	sp, sp, #52
 653              	.LCFI27:
 654              		.cfi_def_cfa_offset 64
 655 0004 04AF     		add	r7, sp, #16
 656              	.LCFI28:
 657              		.cfi_def_cfa 7, 48
ARM GAS  C:\Users\ADMINI~1\AppData\Local\Temp\ccWbmWws.s 			page 16


 658 0006 F860     		str	r0, [r7, #12]
 659 0008 B960     		str	r1, [r7, #8]
 660 000a 7A60     		str	r2, [r7, #4]
 187:d:/LiteOS_Lab/iot_link/oc/oc_lwm2m/boudica150_oc\boudica150_oc.c ****     int ret = 0;
 661              		.loc 1 187 9
 662 000c 0023     		movs	r3, #0
 663 000e 7B61     		str	r3, [r7, #20]
 188:d:/LiteOS_Lab/iot_link/oc/oc_lwm2m/boudica150_oc\boudica150_oc.c ****     int datalen;
 189:d:/LiteOS_Lab/iot_link/oc/oc_lwm2m/boudica150_oc\boudica150_oc.c ****     char *data;
 190:d:/LiteOS_Lab/iot_link/oc/oc_lwm2m/boudica150_oc\boudica150_oc.c ****     char  *str;
 191:d:/LiteOS_Lab/iot_link/oc/oc_lwm2m/boudica150_oc\boudica150_oc.c **** 
 192:d:/LiteOS_Lab/iot_link/oc/oc_lwm2m/boudica150_oc\boudica150_oc.c ****     data = msg;
 664              		.loc 1 192 10
 665 0010 BB68     		ldr	r3, [r7, #8]
 666 0012 3B61     		str	r3, [r7, #16]
 193:d:/LiteOS_Lab/iot_link/oc/oc_lwm2m/boudica150_oc\boudica150_oc.c ****     if(len <strlen(cn_boudica150_rcvindex))
 667              		.loc 1 193 7
 668 0014 7B68     		ldr	r3, [r7, #4]
 669 0016 072B     		cmp	r3, #7
 670 0018 1FD8     		bhi	.L35
 194:d:/LiteOS_Lab/iot_link/oc/oc_lwm2m/boudica150_oc\boudica150_oc.c ****     {
 195:d:/LiteOS_Lab/iot_link/oc/oc_lwm2m/boudica150_oc\boudica150_oc.c ****         LINK_LOG_DEBUG("%s:invalid frame:%d byte:%s\n\r",__FUNCTION__,len,(char *)data);
 671              		.loc 1 195 9
 672 001a FFF7FEFF 		bl	link_log_level_get
 673 001e 0346     		mov	r3, r0
 674 0020 012B     		cmp	r3, #1
 675 0022 18D8     		bhi	.L36
 676              		.loc 1 195 9 is_stmt 0 discriminator 1
 677 0024 0120     		movs	r0, #1
 678 0026 FFF7FEFF 		bl	link_log_level_name
 679 002a 0446     		mov	r4, r0
 680 002c FFF7FEFF 		bl	osal_sys_time
 681 0030 0246     		mov	r2, r0
 682 0032 0B46     		mov	r3, r1
 683 0034 3B69     		ldr	r3, [r7, #16]
 684 0036 0293     		str	r3, [sp, #8]
 685 0038 7B68     		ldr	r3, [r7, #4]
 686 003a 0193     		str	r3, [sp, #4]
 687 003c 5C4B     		ldr	r3, .L48
 688 003e 0093     		str	r3, [sp]
 689 0040 5B4B     		ldr	r3, .L48
 690 0042 2146     		mov	r1, r4
 691 0044 5B48     		ldr	r0, .L48+4
 692 0046 FFF7FEFF 		bl	printf
 693 004a 5B4B     		ldr	r3, .L48+8
 694 004c 1B68     		ldr	r3, [r3]
 695 004e 9B68     		ldr	r3, [r3, #8]
 696 0050 1846     		mov	r0, r3
 697 0052 FFF7FEFF 		bl	fflush
 698              	.L36:
 196:d:/LiteOS_Lab/iot_link/oc/oc_lwm2m/boudica150_oc\boudica150_oc.c ****         return ret;
 699              		.loc 1 196 16 is_stmt 1
 700 0056 7B69     		ldr	r3, [r7, #20]
 701 0058 A5E0     		b	.L37
 702              	.L35:
 197:d:/LiteOS_Lab/iot_link/oc/oc_lwm2m/boudica150_oc\boudica150_oc.c ****     }
 198:d:/LiteOS_Lab/iot_link/oc/oc_lwm2m/boudica150_oc\boudica150_oc.c ****     //now deal the data
ARM GAS  C:\Users\ADMINI~1\AppData\Local\Temp\ccWbmWws.s 			page 17


 199:d:/LiteOS_Lab/iot_link/oc/oc_lwm2m/boudica150_oc\boudica150_oc.c ****     str = strstr((char *)data,":");
 703              		.loc 1 199 11
 704 005a 3A21     		movs	r1, #58
 705 005c 3869     		ldr	r0, [r7, #16]
 706 005e FFF7FEFF 		bl	strchr
 707 0062 B861     		str	r0, [r7, #24]
 200:d:/LiteOS_Lab/iot_link/oc/oc_lwm2m/boudica150_oc\boudica150_oc.c ****     if(NULL == str)
 708              		.loc 1 200 7
 709 0064 BB69     		ldr	r3, [r7, #24]
 710 0066 002B     		cmp	r3, #0
 711 0068 1BD1     		bne	.L38
 201:d:/LiteOS_Lab/iot_link/oc/oc_lwm2m/boudica150_oc\boudica150_oc.c ****     {
 202:d:/LiteOS_Lab/iot_link/oc/oc_lwm2m/boudica150_oc\boudica150_oc.c ****         LINK_LOG_DEBUG("%s:format error\n\r",__FUNCTION__);
 712              		.loc 1 202 9
 713 006a FFF7FEFF 		bl	link_log_level_get
 714 006e 0346     		mov	r3, r0
 715 0070 012B     		cmp	r3, #1
 716 0072 14D8     		bhi	.L39
 717              		.loc 1 202 9 is_stmt 0 discriminator 1
 718 0074 0120     		movs	r0, #1
 719 0076 FFF7FEFF 		bl	link_log_level_name
 720 007a 0446     		mov	r4, r0
 721 007c FFF7FEFF 		bl	osal_sys_time
 722 0080 0246     		mov	r2, r0
 723 0082 0B46     		mov	r3, r1
 724 0084 4A4B     		ldr	r3, .L48
 725 0086 0093     		str	r3, [sp]
 726 0088 494B     		ldr	r3, .L48
 727 008a 2146     		mov	r1, r4
 728 008c 4B48     		ldr	r0, .L48+12
 729 008e FFF7FEFF 		bl	printf
 730 0092 494B     		ldr	r3, .L48+8
 731 0094 1B68     		ldr	r3, [r3]
 732 0096 9B68     		ldr	r3, [r3, #8]
 733 0098 1846     		mov	r0, r3
 734 009a FFF7FEFF 		bl	fflush
 735              	.L39:
 203:d:/LiteOS_Lab/iot_link/oc/oc_lwm2m/boudica150_oc\boudica150_oc.c ****         return ret; //format error
 736              		.loc 1 203 16 is_stmt 1
 737 009e 7B69     		ldr	r3, [r7, #20]
 738 00a0 81E0     		b	.L37
 739              	.L38:
 204:d:/LiteOS_Lab/iot_link/oc/oc_lwm2m/boudica150_oc\boudica150_oc.c ****     }
 205:d:/LiteOS_Lab/iot_link/oc/oc_lwm2m/boudica150_oc\boudica150_oc.c ****     str++;
 740              		.loc 1 205 8
 741 00a2 BB69     		ldr	r3, [r7, #24]
 742 00a4 0133     		adds	r3, r3, #1
 743 00a6 BB61     		str	r3, [r7, #24]
 206:d:/LiteOS_Lab/iot_link/oc/oc_lwm2m/boudica150_oc\boudica150_oc.c ****     datalen = 0;
 744              		.loc 1 206 13
 745 00a8 0023     		movs	r3, #0
 746 00aa FB61     		str	r3, [r7, #28]
 207:d:/LiteOS_Lab/iot_link/oc/oc_lwm2m/boudica150_oc\boudica150_oc.c ****     for (; *str <= '9' && *str >= '0' ;str++)
 747              		.loc 1 207 5
 748 00ac 0DE0     		b	.L40
 749              	.L42:
 208:d:/LiteOS_Lab/iot_link/oc/oc_lwm2m/boudica150_oc\boudica150_oc.c ****     {
ARM GAS  C:\Users\ADMINI~1\AppData\Local\Temp\ccWbmWws.s 			page 18


 209:d:/LiteOS_Lab/iot_link/oc/oc_lwm2m/boudica150_oc\boudica150_oc.c ****         datalen = (datalen * 10 + (*str - '0'));
 750              		.loc 1 209 28 discriminator 3
 751 00ae FA69     		ldr	r2, [r7, #28]
 752 00b0 1346     		mov	r3, r2
 753 00b2 9B00     		lsls	r3, r3, #2
 754 00b4 1344     		add	r3, r3, r2
 755 00b6 5B00     		lsls	r3, r3, #1
 756 00b8 1A46     		mov	r2, r3
 757              		.loc 1 209 36 discriminator 3
 758 00ba BB69     		ldr	r3, [r7, #24]
 759 00bc 1B78     		ldrb	r3, [r3]	@ zero_extendqisi2
 760              		.loc 1 209 41 discriminator 3
 761 00be 303B     		subs	r3, r3, #48
 762              		.loc 1 209 17 discriminator 3
 763 00c0 1344     		add	r3, r3, r2
 764 00c2 FB61     		str	r3, [r7, #28]
 207:d:/LiteOS_Lab/iot_link/oc/oc_lwm2m/boudica150_oc\boudica150_oc.c ****     for (; *str <= '9' && *str >= '0' ;str++)
 765              		.loc 1 207 43 discriminator 3
 766 00c4 BB69     		ldr	r3, [r7, #24]
 767 00c6 0133     		adds	r3, r3, #1
 768 00c8 BB61     		str	r3, [r7, #24]
 769              	.L40:
 207:d:/LiteOS_Lab/iot_link/oc/oc_lwm2m/boudica150_oc\boudica150_oc.c ****     for (; *str <= '9' && *str >= '0' ;str++)
 770              		.loc 1 207 12 discriminator 1
 771 00ca BB69     		ldr	r3, [r7, #24]
 772 00cc 1B78     		ldrb	r3, [r3]	@ zero_extendqisi2
 207:d:/LiteOS_Lab/iot_link/oc/oc_lwm2m/boudica150_oc\boudica150_oc.c ****     for (; *str <= '9' && *str >= '0' ;str++)
 773              		.loc 1 207 5 discriminator 1
 774 00ce 392B     		cmp	r3, #57
 775 00d0 03D8     		bhi	.L41
 207:d:/LiteOS_Lab/iot_link/oc/oc_lwm2m/boudica150_oc\boudica150_oc.c ****     for (; *str <= '9' && *str >= '0' ;str++)
 776              		.loc 1 207 27 discriminator 2
 777 00d2 BB69     		ldr	r3, [r7, #24]
 778 00d4 1B78     		ldrb	r3, [r3]	@ zero_extendqisi2
 207:d:/LiteOS_Lab/iot_link/oc/oc_lwm2m/boudica150_oc\boudica150_oc.c ****     for (; *str <= '9' && *str >= '0' ;str++)
 779              		.loc 1 207 24 discriminator 2
 780 00d6 2F2B     		cmp	r3, #47
 781 00d8 E9D8     		bhi	.L42
 782              	.L41:
 210:d:/LiteOS_Lab/iot_link/oc/oc_lwm2m/boudica150_oc\boudica150_oc.c ****     }
 211:d:/LiteOS_Lab/iot_link/oc/oc_lwm2m/boudica150_oc\boudica150_oc.c ****     str++;
 783              		.loc 1 211 8
 784 00da BB69     		ldr	r3, [r7, #24]
 785 00dc 0133     		adds	r3, r3, #1
 786 00de BB61     		str	r3, [r7, #24]
 212:d:/LiteOS_Lab/iot_link/oc/oc_lwm2m/boudica150_oc\boudica150_oc.c ****     //now this is data of hex string
 213:d:/LiteOS_Lab/iot_link/oc/oc_lwm2m/boudica150_oc\boudica150_oc.c ****     if((unsigned int)(str + datalen*2 +2) > (unsigned int)(data + len))
 787              		.loc 1 213 36
 788 00e0 FB69     		ldr	r3, [r7, #28]
 789 00e2 5B00     		lsls	r3, r3, #1
 790              		.loc 1 213 39
 791 00e4 0233     		adds	r3, r3, #2
 792 00e6 BA69     		ldr	r2, [r7, #24]
 793 00e8 1344     		add	r3, r3, r2
 794              		.loc 1 213 8
 795 00ea 1946     		mov	r1, r3
 796              		.loc 1 213 65
ARM GAS  C:\Users\ADMINI~1\AppData\Local\Temp\ccWbmWws.s 			page 19


 797 00ec 3A69     		ldr	r2, [r7, #16]
 798 00ee 7B68     		ldr	r3, [r7, #4]
 799 00f0 1344     		add	r3, r3, r2
 800              		.loc 1 213 7
 801 00f2 9942     		cmp	r1, r3
 802 00f4 1BD9     		bls	.L43
 214:d:/LiteOS_Lab/iot_link/oc/oc_lwm2m/boudica150_oc\boudica150_oc.c ****     {
 215:d:/LiteOS_Lab/iot_link/oc/oc_lwm2m/boudica150_oc\boudica150_oc.c ****         LINK_LOG_DEBUG("%s:implement error\n\r",__FUNCTION__);
 803              		.loc 1 215 9
 804 00f6 FFF7FEFF 		bl	link_log_level_get
 805 00fa 0346     		mov	r3, r0
 806 00fc 012B     		cmp	r3, #1
 807 00fe 14D8     		bhi	.L44
 808              		.loc 1 215 9 is_stmt 0 discriminator 1
 809 0100 0120     		movs	r0, #1
 810 0102 FFF7FEFF 		bl	link_log_level_name
 811 0106 0446     		mov	r4, r0
 812 0108 FFF7FEFF 		bl	osal_sys_time
 813 010c 0246     		mov	r2, r0
 814 010e 0B46     		mov	r3, r1
 815 0110 274B     		ldr	r3, .L48
 816 0112 0093     		str	r3, [sp]
 817 0114 264B     		ldr	r3, .L48
 818 0116 2146     		mov	r1, r4
 819 0118 2948     		ldr	r0, .L48+16
 820 011a FFF7FEFF 		bl	printf
 821 011e 264B     		ldr	r3, .L48+8
 822 0120 1B68     		ldr	r3, [r3]
 823 0122 9B68     		ldr	r3, [r3, #8]
 824 0124 1846     		mov	r0, r3
 825 0126 FFF7FEFF 		bl	fflush
 826              	.L44:
 216:d:/LiteOS_Lab/iot_link/oc/oc_lwm2m/boudica150_oc\boudica150_oc.c ****         return ret; //
 827              		.loc 1 216 16 is_stmt 1
 828 012a 7B69     		ldr	r3, [r7, #20]
 829 012c 3BE0     		b	.L37
 830              	.L43:
 217:d:/LiteOS_Lab/iot_link/oc/oc_lwm2m/boudica150_oc\boudica150_oc.c ****     }
 218:d:/LiteOS_Lab/iot_link/oc/oc_lwm2m/boudica150_oc\boudica150_oc.c ****     if(datalen > cn_boudica150_cachelen)
 831              		.loc 1 218 7
 832 012e FB69     		ldr	r3, [r7, #28]
 833 0130 802B     		cmp	r3, #128
 834 0132 1FDD     		ble	.L45
 219:d:/LiteOS_Lab/iot_link/oc/oc_lwm2m/boudica150_oc\boudica150_oc.c ****     {
 220:d:/LiteOS_Lab/iot_link/oc/oc_lwm2m/boudica150_oc\boudica150_oc.c ****         LINK_LOG_DEBUG("%s:frame over: frame:%d  cachelen:%d \n\r",__FUNCTION__,datalen,cn_boudica1
 835              		.loc 1 220 9
 836 0134 FFF7FEFF 		bl	link_log_level_get
 837 0138 0346     		mov	r3, r0
 838 013a 012B     		cmp	r3, #1
 839 013c 18D8     		bhi	.L46
 840              		.loc 1 220 9 is_stmt 0 discriminator 1
 841 013e 0120     		movs	r0, #1
 842 0140 FFF7FEFF 		bl	link_log_level_name
 843 0144 0446     		mov	r4, r0
 844 0146 FFF7FEFF 		bl	osal_sys_time
 845 014a 0246     		mov	r2, r0
 846 014c 0B46     		mov	r3, r1
ARM GAS  C:\Users\ADMINI~1\AppData\Local\Temp\ccWbmWws.s 			page 20


 847 014e 8023     		movs	r3, #128
 848 0150 0293     		str	r3, [sp, #8]
 849 0152 FB69     		ldr	r3, [r7, #28]
 850 0154 0193     		str	r3, [sp, #4]
 851 0156 164B     		ldr	r3, .L48
 852 0158 0093     		str	r3, [sp]
 853 015a 154B     		ldr	r3, .L48
 854 015c 2146     		mov	r1, r4
 855 015e 1948     		ldr	r0, .L48+20
 856 0160 FFF7FEFF 		bl	printf
 857 0164 144B     		ldr	r3, .L48+8
 858 0166 1B68     		ldr	r3, [r3]
 859 0168 9B68     		ldr	r3, [r3, #8]
 860 016a 1846     		mov	r0, r3
 861 016c FFF7FEFF 		bl	fflush
 862              	.L46:
 221:d:/LiteOS_Lab/iot_link/oc/oc_lwm2m/boudica150_oc\boudica150_oc.c ****         return ret; //
 863              		.loc 1 221 16 is_stmt 1
 864 0170 7B69     		ldr	r3, [r7, #20]
 865 0172 18E0     		b	.L37
 866              	.L45:
 222:d:/LiteOS_Lab/iot_link/oc/oc_lwm2m/boudica150_oc\boudica150_oc.c ****     }
 223:d:/LiteOS_Lab/iot_link/oc/oc_lwm2m/boudica150_oc\boudica150_oc.c ****     (void) memset(s_boudica150_oc_cb.rcvbuf,0,cn_boudica150_cachelen);
 867              		.loc 1 223 12
 868 0174 8022     		movs	r2, #128
 869 0176 0021     		movs	r1, #0
 870 0178 1348     		ldr	r0, .L48+24
 871 017a FFF7FEFF 		bl	memset
 224:d:/LiteOS_Lab/iot_link/oc/oc_lwm2m/boudica150_oc\boudica150_oc.c ****     hexstr_to_byte(str,datalen*2,(char *)s_boudica150_oc_cb.rcvbuf);
 872              		.loc 1 224 5
 873 017e FB69     		ldr	r3, [r7, #28]
 874 0180 5B00     		lsls	r3, r3, #1
 875 0182 114A     		ldr	r2, .L48+24
 876 0184 1946     		mov	r1, r3
 877 0186 B869     		ldr	r0, [r7, #24]
 878 0188 FFF7FEFF 		bl	hexstr_to_byte
 225:d:/LiteOS_Lab/iot_link/oc/oc_lwm2m/boudica150_oc\boudica150_oc.c **** 
 226:d:/LiteOS_Lab/iot_link/oc/oc_lwm2m/boudica150_oc\boudica150_oc.c ****     if(NULL != s_boudica150_oc_cb.oc_param.rcv_func)
 879              		.loc 1 226 43
 880 018c 0F4B     		ldr	r3, .L48+28
 881 018e 1B6C     		ldr	r3, [r3, #64]
 882              		.loc 1 226 7
 883 0190 002B     		cmp	r3, #0
 884 0192 07D0     		beq	.L47
 227:d:/LiteOS_Lab/iot_link/oc/oc_lwm2m/boudica150_oc\boudica150_oc.c ****     {
 228:d:/LiteOS_Lab/iot_link/oc/oc_lwm2m/boudica150_oc\boudica150_oc.c ****         s_boudica150_oc_cb.oc_param.rcv_func(s_boudica150_oc_cb.oc_param.usr_data,EN_OC_LWM2M_MSG_A
 885              		.loc 1 228 36
 886 0194 0D4B     		ldr	r3, .L48+28
 887 0196 1C6C     		ldr	r4, [r3, #64]
 888              		.loc 1 228 9
 889 0198 0C4B     		ldr	r3, .L48+28
 890 019a 586C     		ldr	r0, [r3, #68]
 891 019c FB69     		ldr	r3, [r7, #28]
 892 019e 0A4A     		ldr	r2, .L48+24
 893 01a0 0021     		movs	r1, #0
 894 01a2 A047     		blx	r4
 895              	.LVL0:
ARM GAS  C:\Users\ADMINI~1\AppData\Local\Temp\ccWbmWws.s 			page 21


 896              	.L47:
 229:d:/LiteOS_Lab/iot_link/oc/oc_lwm2m/boudica150_oc\boudica150_oc.c ****                                              (char *)s_boudica150_oc_cb.rcvbuf,datalen);
 230:d:/LiteOS_Lab/iot_link/oc/oc_lwm2m/boudica150_oc\boudica150_oc.c ****     }
 231:d:/LiteOS_Lab/iot_link/oc/oc_lwm2m/boudica150_oc\boudica150_oc.c **** 
 232:d:/LiteOS_Lab/iot_link/oc/oc_lwm2m/boudica150_oc\boudica150_oc.c ****     return len;
 897              		.loc 1 232 12
 898 01a4 7B68     		ldr	r3, [r7, #4]
 899              	.L37:
 233:d:/LiteOS_Lab/iot_link/oc/oc_lwm2m/boudica150_oc\boudica150_oc.c **** }
 900              		.loc 1 233 1
 901 01a6 1846     		mov	r0, r3
 902 01a8 2437     		adds	r7, r7, #36
 903              	.LCFI29:
 904              		.cfi_def_cfa_offset 12
 905 01aa BD46     		mov	sp, r7
 906              	.LCFI30:
 907              		.cfi_def_cfa_register 13
 908              		@ sp needed
 909 01ac 90BD     		pop	{r4, r7, pc}
 910              	.L49:
 911 01ae 00BF     		.align	2
 912              	.L48:
 913 01b0 00000000 		.word	__FUNCTION__.7106
 914 01b4 20000000 		.word	.LC4
 915 01b8 00000000 		.word	_impure_ptr
 916 01bc 50000000 		.word	.LC5
 917 01c0 74000000 		.word	.LC6
 918 01c4 98000000 		.word	.LC7
 919 01c8 CC000000 		.word	s_boudica150_oc_cb+204
 920 01cc 00000000 		.word	s_boudica150_oc_cb
 921              		.cfi_endproc
 922              	.LFE8:
 924              		.section	.rodata
 925 00cf 00       		.align	2
 926              	.LC8:
 927 00d0 41544525 		.ascii	"ATE%d\015\000"
 927      640D00
 928              		.section	.text.boudica150_set_echo,"ax",%progbits
 929              		.align	1
 930              		.syntax unified
 931              		.thumb
 932              		.thumb_func
 933              		.fpu fpv4-sp-d16
 935              	boudica150_set_echo:
 936              	.LFB9:
 234:d:/LiteOS_Lab/iot_link/oc/oc_lwm2m/boudica150_oc\boudica150_oc.c **** 
 235:d:/LiteOS_Lab/iot_link/oc/oc_lwm2m/boudica150_oc\boudica150_oc.c **** //enable the echooff
 236:d:/LiteOS_Lab/iot_link/oc/oc_lwm2m/boudica150_oc\boudica150_oc.c **** static bool_t boudica150_set_echo(int enable)
 237:d:/LiteOS_Lab/iot_link/oc/oc_lwm2m/boudica150_oc\boudica150_oc.c **** {
 937              		.loc 1 237 1
 938              		.cfi_startproc
 939              		@ args = 0, pretend = 0, frame = 80
 940              		@ frame_needed = 1, uses_anonymous_args = 0
 941 0000 80B5     		push	{r7, lr}
 942              	.LCFI31:
 943              		.cfi_def_cfa_offset 8
 944              		.cfi_offset 7, -8
ARM GAS  C:\Users\ADMINI~1\AppData\Local\Temp\ccWbmWws.s 			page 22


 945              		.cfi_offset 14, -4
 946 0002 94B0     		sub	sp, sp, #80
 947              	.LCFI32:
 948              		.cfi_def_cfa_offset 88
 949 0004 00AF     		add	r7, sp, #0
 950              	.LCFI33:
 951              		.cfi_def_cfa_register 7
 952 0006 7860     		str	r0, [r7, #4]
 238:d:/LiteOS_Lab/iot_link/oc/oc_lwm2m/boudica150_oc\boudica150_oc.c ****     bool_t ret ;
 239:d:/LiteOS_Lab/iot_link/oc/oc_lwm2m/boudica150_oc\boudica150_oc.c ****     char cmd[64];
 240:d:/LiteOS_Lab/iot_link/oc/oc_lwm2m/boudica150_oc\boudica150_oc.c ****     (void) memset(cmd,0,64);
 953              		.loc 1 240 12
 954 0008 07F10C03 		add	r3, r7, #12
 955 000c 4022     		movs	r2, #64
 956 000e 0021     		movs	r1, #0
 957 0010 1846     		mov	r0, r3
 958 0012 FFF7FEFF 		bl	memset
 241:d:/LiteOS_Lab/iot_link/oc/oc_lwm2m/boudica150_oc\boudica150_oc.c ****     (void) snprintf(cmd,64,"ATE%d\r",enable);
 959              		.loc 1 241 12
 960 0016 07F10C00 		add	r0, r7, #12
 961 001a 7B68     		ldr	r3, [r7, #4]
 962 001c 074A     		ldr	r2, .L52
 963 001e 4021     		movs	r1, #64
 964 0020 FFF7FEFF 		bl	snprintf
 242:d:/LiteOS_Lab/iot_link/oc/oc_lwm2m/boudica150_oc\boudica150_oc.c **** 
 243:d:/LiteOS_Lab/iot_link/oc/oc_lwm2m/boudica150_oc\boudica150_oc.c ****     ret = boudica150_atcmd(cmd,"OK");
 965              		.loc 1 243 11
 966 0024 07F10C03 		add	r3, r7, #12
 967 0028 0549     		ldr	r1, .L52+4
 968 002a 1846     		mov	r0, r3
 969 002c FFF7FEFF 		bl	boudica150_atcmd
 970 0030 F864     		str	r0, [r7, #76]
 244:d:/LiteOS_Lab/iot_link/oc/oc_lwm2m/boudica150_oc\boudica150_oc.c **** 
 245:d:/LiteOS_Lab/iot_link/oc/oc_lwm2m/boudica150_oc\boudica150_oc.c ****     return ret;
 971              		.loc 1 245 12
 972 0032 FB6C     		ldr	r3, [r7, #76]
 246:d:/LiteOS_Lab/iot_link/oc/oc_lwm2m/boudica150_oc\boudica150_oc.c **** }
 973              		.loc 1 246 1
 974 0034 1846     		mov	r0, r3
 975 0036 5037     		adds	r7, r7, #80
 976              	.LCFI34:
 977              		.cfi_def_cfa_offset 8
 978 0038 BD46     		mov	sp, r7
 979              	.LCFI35:
 980              		.cfi_def_cfa_register 13
 981              		@ sp needed
 982 003a 80BD     		pop	{r7, pc}
 983              	.L53:
 984              		.align	2
 985              	.L52:
 986 003c D0000000 		.word	.LC8
 987 0040 14000000 		.word	.LC2
 988              		.cfi_endproc
 989              	.LFE9:
 991              		.section	.rodata
 992 00d7 00       		.align	2
 993              	.LC9:
ARM GAS  C:\Users\ADMINI~1\AppData\Local\Temp\ccWbmWws.s 			page 23


 994 00d8 41542B51 		.ascii	"AT+QREGSWT=%d\015\000"
 994      52454753 
 994      57543D25 
 994      640D00
 995              		.section	.text.boudica150_set_regmode,"ax",%progbits
 996              		.align	1
 997              		.syntax unified
 998              		.thumb
 999              		.thumb_func
 1000              		.fpu fpv4-sp-d16
 1002              	boudica150_set_regmode:
 1003              	.LFB10:
 247:d:/LiteOS_Lab/iot_link/oc/oc_lwm2m/boudica150_oc\boudica150_oc.c **** 
 248:d:/LiteOS_Lab/iot_link/oc/oc_lwm2m/boudica150_oc\boudica150_oc.c **** static bool_t boudica150_set_regmode(int mode)
 249:d:/LiteOS_Lab/iot_link/oc/oc_lwm2m/boudica150_oc\boudica150_oc.c **** {
 1004              		.loc 1 249 1
 1005              		.cfi_startproc
 1006              		@ args = 0, pretend = 0, frame = 80
 1007              		@ frame_needed = 1, uses_anonymous_args = 0
 1008 0000 80B5     		push	{r7, lr}
 1009              	.LCFI36:
 1010              		.cfi_def_cfa_offset 8
 1011              		.cfi_offset 7, -8
 1012              		.cfi_offset 14, -4
 1013 0002 94B0     		sub	sp, sp, #80
 1014              	.LCFI37:
 1015              		.cfi_def_cfa_offset 88
 1016 0004 00AF     		add	r7, sp, #0
 1017              	.LCFI38:
 1018              		.cfi_def_cfa_register 7
 1019 0006 7860     		str	r0, [r7, #4]
 250:d:/LiteOS_Lab/iot_link/oc/oc_lwm2m/boudica150_oc\boudica150_oc.c ****     bool_t ret ;
 251:d:/LiteOS_Lab/iot_link/oc/oc_lwm2m/boudica150_oc\boudica150_oc.c ****     char cmd[64];
 252:d:/LiteOS_Lab/iot_link/oc/oc_lwm2m/boudica150_oc\boudica150_oc.c ****     (void) memset(cmd,0,64);
 1020              		.loc 1 252 12
 1021 0008 07F10C03 		add	r3, r7, #12
 1022 000c 4022     		movs	r2, #64
 1023 000e 0021     		movs	r1, #0
 1024 0010 1846     		mov	r0, r3
 1025 0012 FFF7FEFF 		bl	memset
 253:d:/LiteOS_Lab/iot_link/oc/oc_lwm2m/boudica150_oc\boudica150_oc.c ****     (void) snprintf(cmd,64,"AT+QREGSWT=%d\r",mode);
 1026              		.loc 1 253 12
 1027 0016 07F10C00 		add	r0, r7, #12
 1028 001a 7B68     		ldr	r3, [r7, #4]
 1029 001c 074A     		ldr	r2, .L56
 1030 001e 4021     		movs	r1, #64
 1031 0020 FFF7FEFF 		bl	snprintf
 254:d:/LiteOS_Lab/iot_link/oc/oc_lwm2m/boudica150_oc\boudica150_oc.c **** 
 255:d:/LiteOS_Lab/iot_link/oc/oc_lwm2m/boudica150_oc\boudica150_oc.c ****     ret = boudica150_atcmd(cmd,"OK");
 1032              		.loc 1 255 11
 1033 0024 07F10C03 		add	r3, r7, #12
 1034 0028 0549     		ldr	r1, .L56+4
 1035 002a 1846     		mov	r0, r3
 1036 002c FFF7FEFF 		bl	boudica150_atcmd
 1037 0030 F864     		str	r0, [r7, #76]
 256:d:/LiteOS_Lab/iot_link/oc/oc_lwm2m/boudica150_oc\boudica150_oc.c **** 
 257:d:/LiteOS_Lab/iot_link/oc/oc_lwm2m/boudica150_oc\boudica150_oc.c ****     return ret;
ARM GAS  C:\Users\ADMINI~1\AppData\Local\Temp\ccWbmWws.s 			page 24


 1038              		.loc 1 257 12
 1039 0032 FB6C     		ldr	r3, [r7, #76]
 258:d:/LiteOS_Lab/iot_link/oc/oc_lwm2m/boudica150_oc\boudica150_oc.c **** }
 1040              		.loc 1 258 1
 1041 0034 1846     		mov	r0, r3
 1042 0036 5037     		adds	r7, r7, #80
 1043              	.LCFI39:
 1044              		.cfi_def_cfa_offset 8
 1045 0038 BD46     		mov	sp, r7
 1046              	.LCFI40:
 1047              		.cfi_def_cfa_register 13
 1048              		@ sp needed
 1049 003a 80BD     		pop	{r7, pc}
 1050              	.L57:
 1051              		.align	2
 1052              	.L56:
 1053 003c D8000000 		.word	.LC9
 1054 0040 14000000 		.word	.LC2
 1055              		.cfi_endproc
 1056              	.LFE10:
 1058              		.section	.rodata
 1059 00e7 00       		.align	2
 1060              	.LC10:
 1061 00e8 5245424F 		.ascii	"REBOOTING\000"
 1061      4F54494E 
 1061      4700
 1062 00f2 0000     		.align	2
 1063              	.LC11:
 1064 00f4 41542B4E 		.ascii	"AT+NRB\015\000"
 1064      52420D00 
 1065              		.section	.text.boudica150_reboot,"ax",%progbits
 1066              		.align	1
 1067              		.syntax unified
 1068              		.thumb
 1069              		.thumb_func
 1070              		.fpu fpv4-sp-d16
 1072              	boudica150_reboot:
 1073              	.LFB11:
 259:d:/LiteOS_Lab/iot_link/oc/oc_lwm2m/boudica150_oc\boudica150_oc.c **** 
 260:d:/LiteOS_Lab/iot_link/oc/oc_lwm2m/boudica150_oc\boudica150_oc.c **** //use this function to do the module reboot
 261:d:/LiteOS_Lab/iot_link/oc/oc_lwm2m/boudica150_oc\boudica150_oc.c **** static bool_t boudica150_reboot(void)
 262:d:/LiteOS_Lab/iot_link/oc/oc_lwm2m/boudica150_oc\boudica150_oc.c **** {
 1074              		.loc 1 262 1
 1075              		.cfi_startproc
 1076              		@ args = 0, pretend = 0, frame = 0
 1077              		@ frame_needed = 1, uses_anonymous_args = 0
 1078 0000 80B5     		push	{r7, lr}
 1079              	.LCFI41:
 1080              		.cfi_def_cfa_offset 8
 1081              		.cfi_offset 7, -8
 1082              		.cfi_offset 14, -4
 1083 0002 00AF     		add	r7, sp, #0
 1084              	.LCFI42:
 1085              		.cfi_def_cfa_register 7
 263:d:/LiteOS_Lab/iot_link/oc/oc_lwm2m/boudica150_oc\boudica150_oc.c ****     //do the module reset
 264:d:/LiteOS_Lab/iot_link/oc/oc_lwm2m/boudica150_oc\boudica150_oc.c ****     boudica150_set_echo (0);
 1086              		.loc 1 264 5
ARM GAS  C:\Users\ADMINI~1\AppData\Local\Temp\ccWbmWws.s 			page 25


 1087 0004 0020     		movs	r0, #0
 1088 0006 FFF7FEFF 		bl	boudica150_set_echo
 265:d:/LiteOS_Lab/iot_link/oc/oc_lwm2m/boudica150_oc\boudica150_oc.c ****     boudica150_set_echo (0);
 1089              		.loc 1 265 5
 1090 000a 0020     		movs	r0, #0
 1091 000c FFF7FEFF 		bl	boudica150_set_echo
 266:d:/LiteOS_Lab/iot_link/oc/oc_lwm2m/boudica150_oc\boudica150_oc.c **** 
 267:d:/LiteOS_Lab/iot_link/oc/oc_lwm2m/boudica150_oc\boudica150_oc.c ****     boudica150_atcmd("AT+NRB\r","REBOOTING");
 1092              		.loc 1 267 5
 1093 0010 0849     		ldr	r1, .L60
 1094 0012 0948     		ldr	r0, .L60+4
 1095 0014 FFF7FEFF 		bl	boudica150_atcmd
 268:d:/LiteOS_Lab/iot_link/oc/oc_lwm2m/boudica150_oc\boudica150_oc.c ****     osal_task_sleep(10000); //wait for the module boot
 1096              		.loc 1 268 5
 1097 0018 42F21070 		movw	r0, #10000
 1098 001c FFF7FEFF 		bl	osal_task_sleep
 269:d:/LiteOS_Lab/iot_link/oc/oc_lwm2m/boudica150_oc\boudica150_oc.c ****     //do the module reset
 270:d:/LiteOS_Lab/iot_link/oc/oc_lwm2m/boudica150_oc\boudica150_oc.c ****     boudica150_set_echo (0);
 1099              		.loc 1 270 5
 1100 0020 0020     		movs	r0, #0
 1101 0022 FFF7FEFF 		bl	boudica150_set_echo
 271:d:/LiteOS_Lab/iot_link/oc/oc_lwm2m/boudica150_oc\boudica150_oc.c ****     boudica150_set_echo (0);
 1102              		.loc 1 271 5
 1103 0026 0020     		movs	r0, #0
 1104 0028 FFF7FEFF 		bl	boudica150_set_echo
 272:d:/LiteOS_Lab/iot_link/oc/oc_lwm2m/boudica150_oc\boudica150_oc.c **** 
 273:d:/LiteOS_Lab/iot_link/oc/oc_lwm2m/boudica150_oc\boudica150_oc.c ****     return true;
 1105              		.loc 1 273 12
 1106 002c 0123     		movs	r3, #1
 274:d:/LiteOS_Lab/iot_link/oc/oc_lwm2m/boudica150_oc\boudica150_oc.c **** }
 1107              		.loc 1 274 1
 1108 002e 1846     		mov	r0, r3
 1109 0030 80BD     		pop	{r7, pc}
 1110              	.L61:
 1111 0032 00BF     		.align	2
 1112              	.L60:
 1113 0034 E8000000 		.word	.LC10
 1114 0038 F4000000 		.word	.LC11
 1115              		.cfi_endproc
 1116              	.LFE11:
 1118              		.section	.rodata
 1119              		.align	2
 1120              	.LC12:
 1121 00fc 41542B43 		.ascii	"AT+CFUN=%d\015\000"
 1121      46554E3D 
 1121      25640D00 
 1122              		.section	.text.boudica150_set_fun,"ax",%progbits
 1123              		.align	1
 1124              		.syntax unified
 1125              		.thumb
 1126              		.thumb_func
 1127              		.fpu fpv4-sp-d16
 1129              	boudica150_set_fun:
 1130              	.LFB12:
 275:d:/LiteOS_Lab/iot_link/oc/oc_lwm2m/boudica150_oc\boudica150_oc.c **** 
 276:d:/LiteOS_Lab/iot_link/oc/oc_lwm2m/boudica150_oc\boudica150_oc.c **** //enable the cfun
 277:d:/LiteOS_Lab/iot_link/oc/oc_lwm2m/boudica150_oc\boudica150_oc.c **** static bool_t boudica150_set_fun(int enable)  //unit second
ARM GAS  C:\Users\ADMINI~1\AppData\Local\Temp\ccWbmWws.s 			page 26


 278:d:/LiteOS_Lab/iot_link/oc/oc_lwm2m/boudica150_oc\boudica150_oc.c **** {
 1131              		.loc 1 278 1
 1132              		.cfi_startproc
 1133              		@ args = 0, pretend = 0, frame = 80
 1134              		@ frame_needed = 1, uses_anonymous_args = 0
 1135 0000 80B5     		push	{r7, lr}
 1136              	.LCFI43:
 1137              		.cfi_def_cfa_offset 8
 1138              		.cfi_offset 7, -8
 1139              		.cfi_offset 14, -4
 1140 0002 94B0     		sub	sp, sp, #80
 1141              	.LCFI44:
 1142              		.cfi_def_cfa_offset 88
 1143 0004 00AF     		add	r7, sp, #0
 1144              	.LCFI45:
 1145              		.cfi_def_cfa_register 7
 1146 0006 7860     		str	r0, [r7, #4]
 279:d:/LiteOS_Lab/iot_link/oc/oc_lwm2m/boudica150_oc\boudica150_oc.c ****     bool_t ret ;
 280:d:/LiteOS_Lab/iot_link/oc/oc_lwm2m/boudica150_oc\boudica150_oc.c ****     char cmd[64];
 281:d:/LiteOS_Lab/iot_link/oc/oc_lwm2m/boudica150_oc\boudica150_oc.c **** 
 282:d:/LiteOS_Lab/iot_link/oc/oc_lwm2m/boudica150_oc\boudica150_oc.c ****     (void) memset(cmd,0,64);
 1147              		.loc 1 282 12
 1148 0008 07F10C03 		add	r3, r7, #12
 1149 000c 4022     		movs	r2, #64
 1150 000e 0021     		movs	r1, #0
 1151 0010 1846     		mov	r0, r3
 1152 0012 FFF7FEFF 		bl	memset
 283:d:/LiteOS_Lab/iot_link/oc/oc_lwm2m/boudica150_oc\boudica150_oc.c ****     (void) snprintf(cmd,64,"AT+CFUN=%d\r",enable);
 1153              		.loc 1 283 12
 1154 0016 07F10C00 		add	r0, r7, #12
 1155 001a 7B68     		ldr	r3, [r7, #4]
 1156 001c 094A     		ldr	r2, .L64
 1157 001e 4021     		movs	r1, #64
 1158 0020 FFF7FEFF 		bl	snprintf
 284:d:/LiteOS_Lab/iot_link/oc/oc_lwm2m/boudica150_oc\boudica150_oc.c **** 
 285:d:/LiteOS_Lab/iot_link/oc/oc_lwm2m/boudica150_oc\boudica150_oc.c ****     ret = boudica150_atcmd(cmd,"OK");
 1159              		.loc 1 285 11
 1160 0024 07F10C03 		add	r3, r7, #12
 1161 0028 0749     		ldr	r1, .L64+4
 1162 002a 1846     		mov	r0, r3
 1163 002c FFF7FEFF 		bl	boudica150_atcmd
 1164 0030 F864     		str	r0, [r7, #76]
 286:d:/LiteOS_Lab/iot_link/oc/oc_lwm2m/boudica150_oc\boudica150_oc.c ****     //i think we should do some wait here
 287:d:/LiteOS_Lab/iot_link/oc/oc_lwm2m/boudica150_oc\boudica150_oc.c ****     osal_task_sleep(2000);
 1165              		.loc 1 287 5
 1166 0032 4FF4FA60 		mov	r0, #2000
 1167 0036 FFF7FEFF 		bl	osal_task_sleep
 288:d:/LiteOS_Lab/iot_link/oc/oc_lwm2m/boudica150_oc\boudica150_oc.c **** 
 289:d:/LiteOS_Lab/iot_link/oc/oc_lwm2m/boudica150_oc\boudica150_oc.c ****     return ret;
 1168              		.loc 1 289 12
 1169 003a FB6C     		ldr	r3, [r7, #76]
 290:d:/LiteOS_Lab/iot_link/oc/oc_lwm2m/boudica150_oc\boudica150_oc.c **** }
 1170              		.loc 1 290 1
 1171 003c 1846     		mov	r0, r3
 1172 003e 5037     		adds	r7, r7, #80
 1173              	.LCFI46:
 1174              		.cfi_def_cfa_offset 8
ARM GAS  C:\Users\ADMINI~1\AppData\Local\Temp\ccWbmWws.s 			page 27


 1175 0040 BD46     		mov	sp, r7
 1176              	.LCFI47:
 1177              		.cfi_def_cfa_register 13
 1178              		@ sp needed
 1179 0042 80BD     		pop	{r7, pc}
 1180              	.L65:
 1181              		.align	2
 1182              	.L64:
 1183 0044 FC000000 		.word	.LC12
 1184 0048 14000000 		.word	.LC2
 1185              		.cfi_endproc
 1186              	.LFE12:
 1188              		.section	.rodata
 1189              		.align	2
 1190              	.LC13:
 1191 0108 41542B4E 		.ascii	"AT+NBAND?\015\000"
 1191      42414E44 
 1191      3F0D00
 1192 0113 00       		.align	2
 1193              	.LC14:
 1194 0114 2B4E4241 		.ascii	"+NBAND:%s\015\000"
 1194      4E443A25 
 1194      730D00
 1195 011f 00       		.align	2
 1196              	.LC15:
 1197 0120 41542B4E 		.ascii	"AT+NBAND=%s\015\000"
 1197      42414E44 
 1197      3D25730D 
 1197      00
 1198              		.section	.text.boudica150_set_bands,"ax",%progbits
 1199              		.align	1
 1200              		.syntax unified
 1201              		.thumb
 1202              		.thumb_func
 1203              		.fpu fpv4-sp-d16
 1205              	boudica150_set_bands:
 1206              	.LFB13:
 291:d:/LiteOS_Lab/iot_link/oc/oc_lwm2m/boudica150_oc\boudica150_oc.c **** 
 292:d:/LiteOS_Lab/iot_link/oc/oc_lwm2m/boudica150_oc\boudica150_oc.c **** //use this function to set the band
 293:d:/LiteOS_Lab/iot_link/oc/oc_lwm2m/boudica150_oc\boudica150_oc.c **** static bool_t boudica150_set_bands(const char *bands)
 294:d:/LiteOS_Lab/iot_link/oc/oc_lwm2m/boudica150_oc\boudica150_oc.c **** {
 1207              		.loc 1 294 1
 1208              		.cfi_startproc
 1209              		@ args = 0, pretend = 0, frame = 144
 1210              		@ frame_needed = 1, uses_anonymous_args = 0
 1211 0000 80B5     		push	{r7, lr}
 1212              	.LCFI48:
 1213              		.cfi_def_cfa_offset 8
 1214              		.cfi_offset 7, -8
 1215              		.cfi_offset 14, -4
 1216 0002 A4B0     		sub	sp, sp, #144
 1217              	.LCFI49:
 1218              		.cfi_def_cfa_offset 152
 1219 0004 00AF     		add	r7, sp, #0
 1220              	.LCFI50:
 1221              		.cfi_def_cfa_register 7
 1222 0006 7860     		str	r0, [r7, #4]
ARM GAS  C:\Users\ADMINI~1\AppData\Local\Temp\ccWbmWws.s 			page 28


 295:d:/LiteOS_Lab/iot_link/oc/oc_lwm2m/boudica150_oc\boudica150_oc.c ****     char cmd[64];
 296:d:/LiteOS_Lab/iot_link/oc/oc_lwm2m/boudica150_oc\boudica150_oc.c ****     char resp[64];
 297:d:/LiteOS_Lab/iot_link/oc/oc_lwm2m/boudica150_oc\boudica150_oc.c ****     bool_t ret = true;
 1223              		.loc 1 297 12
 1224 0008 0123     		movs	r3, #1
 1225 000a C7F88C30 		str	r3, [r7, #140]
 298:d:/LiteOS_Lab/iot_link/oc/oc_lwm2m/boudica150_oc\boudica150_oc.c **** 
 299:d:/LiteOS_Lab/iot_link/oc/oc_lwm2m/boudica150_oc\boudica150_oc.c ****     if(NULL != bands)  //which means we need to set if the default is not the same
 1226              		.loc 1 299 7
 1227 000e 7B68     		ldr	r3, [r7, #4]
 1228 0010 002B     		cmp	r3, #0
 1229 0012 4CD0     		beq	.L67
 300:d:/LiteOS_Lab/iot_link/oc/oc_lwm2m/boudica150_oc\boudica150_oc.c ****     {
 301:d:/LiteOS_Lab/iot_link/oc/oc_lwm2m/boudica150_oc\boudica150_oc.c ****         (void) memset(resp,0,64);
 1230              		.loc 1 301 16
 1231 0014 07F10C03 		add	r3, r7, #12
 1232 0018 4022     		movs	r2, #64
 1233 001a 0021     		movs	r1, #0
 1234 001c 1846     		mov	r0, r3
 1235 001e FFF7FEFF 		bl	memset
 302:d:/LiteOS_Lab/iot_link/oc/oc_lwm2m/boudica150_oc\boudica150_oc.c ****         ret = boudica150_atcmd_response("AT+NBAND?\r","OK",resp,64);
 1236              		.loc 1 302 15
 1237 0022 07F10C02 		add	r2, r7, #12
 1238 0026 4023     		movs	r3, #64
 1239 0028 2449     		ldr	r1, .L71
 1240 002a 2548     		ldr	r0, .L71+4
 1241 002c FFF7FEFF 		bl	boudica150_atcmd_response
 1242 0030 C7F88C00 		str	r0, [r7, #140]
 303:d:/LiteOS_Lab/iot_link/oc/oc_lwm2m/boudica150_oc\boudica150_oc.c **** 
 304:d:/LiteOS_Lab/iot_link/oc/oc_lwm2m/boudica150_oc\boudica150_oc.c ****         (void) memset(cmd,0,64);
 1243              		.loc 1 304 16
 1244 0034 07F14C03 		add	r3, r7, #76
 1245 0038 4022     		movs	r2, #64
 1246 003a 0021     		movs	r1, #0
 1247 003c 1846     		mov	r0, r3
 1248 003e FFF7FEFF 		bl	memset
 305:d:/LiteOS_Lab/iot_link/oc/oc_lwm2m/boudica150_oc\boudica150_oc.c ****         (void) snprintf(cmd,63,"+NBAND:%s\r",bands);
 1249              		.loc 1 305 16
 1250 0042 07F14C00 		add	r0, r7, #76
 1251 0046 7B68     		ldr	r3, [r7, #4]
 1252 0048 1E4A     		ldr	r2, .L71+8
 1253 004a 3F21     		movs	r1, #63
 1254 004c FFF7FEFF 		bl	snprintf
 306:d:/LiteOS_Lab/iot_link/oc/oc_lwm2m/boudica150_oc\boudica150_oc.c **** 
 307:d:/LiteOS_Lab/iot_link/oc/oc_lwm2m/boudica150_oc\boudica150_oc.c ****         if((false == ret)||(NULL == strstr(resp,cmd)))//which means we need to set it
 1255              		.loc 1 307 11
 1256 0050 D7F88C30 		ldr	r3, [r7, #140]
 1257 0054 002B     		cmp	r3, #0
 1258 0056 0AD0     		beq	.L68
 1259              		.loc 1 307 37 discriminator 1
 1260 0058 07F14C02 		add	r2, r7, #76
 1261 005c 07F10C03 		add	r3, r7, #12
 1262 0060 1146     		mov	r1, r2
 1263 0062 1846     		mov	r0, r3
 1264 0064 FFF7FEFF 		bl	strstr
 1265 0068 0346     		mov	r3, r0
 1266              		.loc 1 307 26 discriminator 1
ARM GAS  C:\Users\ADMINI~1\AppData\Local\Temp\ccWbmWws.s 			page 29


 1267 006a 002B     		cmp	r3, #0
 1268 006c 1CD1     		bne	.L69
 1269              	.L68:
 308:d:/LiteOS_Lab/iot_link/oc/oc_lwm2m/boudica150_oc\boudica150_oc.c ****         {
 309:d:/LiteOS_Lab/iot_link/oc/oc_lwm2m/boudica150_oc\boudica150_oc.c ****             boudica150_set_fun(0);
 1270              		.loc 1 309 13
 1271 006e 0020     		movs	r0, #0
 1272 0070 FFF7FEFF 		bl	boudica150_set_fun
 310:d:/LiteOS_Lab/iot_link/oc/oc_lwm2m/boudica150_oc\boudica150_oc.c **** 
 311:d:/LiteOS_Lab/iot_link/oc/oc_lwm2m/boudica150_oc\boudica150_oc.c ****             (void) memset(cmd,0,64);
 1273              		.loc 1 311 20
 1274 0074 07F14C03 		add	r3, r7, #76
 1275 0078 4022     		movs	r2, #64
 1276 007a 0021     		movs	r1, #0
 1277 007c 1846     		mov	r0, r3
 1278 007e FFF7FEFF 		bl	memset
 312:d:/LiteOS_Lab/iot_link/oc/oc_lwm2m/boudica150_oc\boudica150_oc.c ****             (void) snprintf(cmd,63,"AT+NBAND=%s\r",bands);
 1279              		.loc 1 312 20
 1280 0082 07F14C00 		add	r0, r7, #76
 1281 0086 7B68     		ldr	r3, [r7, #4]
 1282 0088 0F4A     		ldr	r2, .L71+12
 1283 008a 3F21     		movs	r1, #63
 1284 008c FFF7FEFF 		bl	snprintf
 313:d:/LiteOS_Lab/iot_link/oc/oc_lwm2m/boudica150_oc\boudica150_oc.c ****             ret = boudica150_atcmd(cmd,"OK");
 1285              		.loc 1 313 19
 1286 0090 07F14C03 		add	r3, r7, #76
 1287 0094 0949     		ldr	r1, .L71
 1288 0096 1846     		mov	r0, r3
 1289 0098 FFF7FEFF 		bl	boudica150_atcmd
 1290 009c C7F88C00 		str	r0, [r7, #140]
 314:d:/LiteOS_Lab/iot_link/oc/oc_lwm2m/boudica150_oc\boudica150_oc.c **** 
 315:d:/LiteOS_Lab/iot_link/oc/oc_lwm2m/boudica150_oc\boudica150_oc.c ****             boudica150_set_fun(1);
 1291              		.loc 1 315 13
 1292 00a0 0120     		movs	r0, #1
 1293 00a2 FFF7FEFF 		bl	boudica150_set_fun
 1294 00a6 02E0     		b	.L67
 1295              	.L69:
 316:d:/LiteOS_Lab/iot_link/oc/oc_lwm2m/boudica150_oc\boudica150_oc.c ****         }
 317:d:/LiteOS_Lab/iot_link/oc/oc_lwm2m/boudica150_oc\boudica150_oc.c ****         else
 318:d:/LiteOS_Lab/iot_link/oc/oc_lwm2m/boudica150_oc\boudica150_oc.c ****         {
 319:d:/LiteOS_Lab/iot_link/oc/oc_lwm2m/boudica150_oc\boudica150_oc.c ****             ret = true;  //we need not to set
 1296              		.loc 1 319 17
 1297 00a8 0123     		movs	r3, #1
 1298 00aa C7F88C30 		str	r3, [r7, #140]
 1299              	.L67:
 320:d:/LiteOS_Lab/iot_link/oc/oc_lwm2m/boudica150_oc\boudica150_oc.c ****         }
 321:d:/LiteOS_Lab/iot_link/oc/oc_lwm2m/boudica150_oc\boudica150_oc.c ****     }
 322:d:/LiteOS_Lab/iot_link/oc/oc_lwm2m/boudica150_oc\boudica150_oc.c ****     return ret;
 1300              		.loc 1 322 12
 1301 00ae D7F88C30 		ldr	r3, [r7, #140]
 323:d:/LiteOS_Lab/iot_link/oc/oc_lwm2m/boudica150_oc\boudica150_oc.c **** }
 1302              		.loc 1 323 1
 1303 00b2 1846     		mov	r0, r3
 1304 00b4 9037     		adds	r7, r7, #144
 1305              	.LCFI51:
 1306              		.cfi_def_cfa_offset 8
 1307 00b6 BD46     		mov	sp, r7
ARM GAS  C:\Users\ADMINI~1\AppData\Local\Temp\ccWbmWws.s 			page 30


 1308              	.LCFI52:
 1309              		.cfi_def_cfa_register 13
 1310              		@ sp needed
 1311 00b8 80BD     		pop	{r7, pc}
 1312              	.L72:
 1313 00ba 00BF     		.align	2
 1314              	.L71:
 1315 00bc 14000000 		.word	.LC2
 1316 00c0 08010000 		.word	.LC13
 1317 00c4 14010000 		.word	.LC14
 1318 00c8 20010000 		.word	.LC15
 1319              		.cfi_endproc
 1320              	.LFE13:
 1322              		.section	.rodata
 1323 012d 000000   		.align	2
 1324              	.LC16:
 1325 0130 2B434F50 		.ascii	"+COPS\000"
 1325      5300
 1326 0136 0000     		.align	2
 1327              	.LC17:
 1328 0138 41542B43 		.ascii	"AT+COPS?\015\000"
 1328      4F50533F 
 1328      0D00
 1329 0142 0000     		.align	2
 1330              	.LC18:
 1331 0144 2B434F50 		.ascii	"+COPS:1,2,\"%s\"\015\000"
 1331      533A312C 
 1331      322C2225 
 1331      73220D00 
 1332              		.align	2
 1333              	.LC19:
 1334 0154 41542B43 		.ascii	"AT+COPS=1,2,\"%s\"\015\000"
 1334      4F50533D 
 1334      312C322C 
 1334      22257322 
 1334      0D00
 1335 0166 0000     		.align	2
 1336              	.LC20:
 1337 0168 41542B43 		.ascii	"AT+COPS=0\015\000"
 1337      4F50533D 
 1337      300D00
 1338              		.section	.text.boudica150_set_plmn,"ax",%progbits
 1339              		.align	1
 1340              		.syntax unified
 1341              		.thumb
 1342              		.thumb_func
 1343              		.fpu fpv4-sp-d16
 1345              	boudica150_set_plmn:
 1346              	.LFB14:
 324:d:/LiteOS_Lab/iot_link/oc/oc_lwm2m/boudica150_oc\boudica150_oc.c **** 
 325:d:/LiteOS_Lab/iot_link/oc/oc_lwm2m/boudica150_oc\boudica150_oc.c **** //set the plmn
 326:d:/LiteOS_Lab/iot_link/oc/oc_lwm2m/boudica150_oc\boudica150_oc.c **** static bool_t boudica150_set_plmn(const char *plmn)
 327:d:/LiteOS_Lab/iot_link/oc/oc_lwm2m/boudica150_oc\boudica150_oc.c **** {
 1347              		.loc 1 327 1
 1348              		.cfi_startproc
 1349              		@ args = 0, pretend = 0, frame = 144
 1350              		@ frame_needed = 1, uses_anonymous_args = 0
ARM GAS  C:\Users\ADMINI~1\AppData\Local\Temp\ccWbmWws.s 			page 31


 1351 0000 80B5     		push	{r7, lr}
 1352              	.LCFI53:
 1353              		.cfi_def_cfa_offset 8
 1354              		.cfi_offset 7, -8
 1355              		.cfi_offset 14, -4
 1356 0002 A4B0     		sub	sp, sp, #144
 1357              	.LCFI54:
 1358              		.cfi_def_cfa_offset 152
 1359 0004 00AF     		add	r7, sp, #0
 1360              	.LCFI55:
 1361              		.cfi_def_cfa_register 7
 1362 0006 7860     		str	r0, [r7, #4]
 328:d:/LiteOS_Lab/iot_link/oc/oc_lwm2m/boudica150_oc\boudica150_oc.c ****     char cmd[64];
 329:d:/LiteOS_Lab/iot_link/oc/oc_lwm2m/boudica150_oc\boudica150_oc.c ****     char resp[64];
 330:d:/LiteOS_Lab/iot_link/oc/oc_lwm2m/boudica150_oc\boudica150_oc.c ****     bool_t ret;
 331:d:/LiteOS_Lab/iot_link/oc/oc_lwm2m/boudica150_oc\boudica150_oc.c **** 
 332:d:/LiteOS_Lab/iot_link/oc/oc_lwm2m/boudica150_oc\boudica150_oc.c ****     if(NULL != plmn)  //which measn we need to set if the default is not the same
 1363              		.loc 1 332 7
 1364 0008 7B68     		ldr	r3, [r7, #4]
 1365 000a 002B     		cmp	r3, #0
 1366 000c 47D0     		beq	.L74
 333:d:/LiteOS_Lab/iot_link/oc/oc_lwm2m/boudica150_oc\boudica150_oc.c ****     {
 334:d:/LiteOS_Lab/iot_link/oc/oc_lwm2m/boudica150_oc\boudica150_oc.c ****         (void) memset(resp,0,64);
 1367              		.loc 1 334 16
 1368 000e 07F10C03 		add	r3, r7, #12
 1369 0012 4022     		movs	r2, #64
 1370 0014 0021     		movs	r1, #0
 1371 0016 1846     		mov	r0, r3
 1372 0018 FFF7FEFF 		bl	memset
 335:d:/LiteOS_Lab/iot_link/oc/oc_lwm2m/boudica150_oc\boudica150_oc.c ****         ret = boudica150_atcmd_response("AT+COPS?\r","+COPS",resp,64);
 1373              		.loc 1 335 15
 1374 001c 07F10C02 		add	r2, r7, #12
 1375 0020 4023     		movs	r3, #64
 1376 0022 2D49     		ldr	r1, .L80
 1377 0024 2D48     		ldr	r0, .L80+4
 1378 0026 FFF7FEFF 		bl	boudica150_atcmd_response
 1379 002a C7F88C00 		str	r0, [r7, #140]
 336:d:/LiteOS_Lab/iot_link/oc/oc_lwm2m/boudica150_oc\boudica150_oc.c **** 
 337:d:/LiteOS_Lab/iot_link/oc/oc_lwm2m/boudica150_oc\boudica150_oc.c ****         (void) memset(cmd,0,64);
 1380              		.loc 1 337 16
 1381 002e 07F14C03 		add	r3, r7, #76
 1382 0032 4022     		movs	r2, #64
 1383 0034 0021     		movs	r1, #0
 1384 0036 1846     		mov	r0, r3
 1385 0038 FFF7FEFF 		bl	memset
 338:d:/LiteOS_Lab/iot_link/oc/oc_lwm2m/boudica150_oc\boudica150_oc.c ****         (void) snprintf(cmd,63,"+COPS:1,2,\"%s\"\r",plmn);
 1386              		.loc 1 338 16
 1387 003c 07F14C00 		add	r0, r7, #76
 1388 0040 7B68     		ldr	r3, [r7, #4]
 1389 0042 274A     		ldr	r2, .L80+8
 1390 0044 3F21     		movs	r1, #63
 1391 0046 FFF7FEFF 		bl	snprintf
 339:d:/LiteOS_Lab/iot_link/oc/oc_lwm2m/boudica150_oc\boudica150_oc.c **** 
 340:d:/LiteOS_Lab/iot_link/oc/oc_lwm2m/boudica150_oc\boudica150_oc.c ****         if((false == ret)||(NULL == strstr(resp,cmd)))//which means we need to set it
 1392              		.loc 1 340 11
 1393 004a D7F88C30 		ldr	r3, [r7, #140]
 1394 004e 002B     		cmp	r3, #0
ARM GAS  C:\Users\ADMINI~1\AppData\Local\Temp\ccWbmWws.s 			page 32


 1395 0050 0AD0     		beq	.L75
 1396              		.loc 1 340 37 discriminator 1
 1397 0052 07F14C02 		add	r2, r7, #76
 1398 0056 07F10C03 		add	r3, r7, #12
 1399 005a 1146     		mov	r1, r2
 1400 005c 1846     		mov	r0, r3
 1401 005e FFF7FEFF 		bl	strstr
 1402 0062 0346     		mov	r3, r0
 1403              		.loc 1 340 26 discriminator 1
 1404 0064 002B     		cmp	r3, #0
 1405 0066 16D1     		bne	.L76
 1406              	.L75:
 341:d:/LiteOS_Lab/iot_link/oc/oc_lwm2m/boudica150_oc\boudica150_oc.c ****         {
 342:d:/LiteOS_Lab/iot_link/oc/oc_lwm2m/boudica150_oc\boudica150_oc.c ****             (void) memset(cmd,0,64);
 1407              		.loc 1 342 20
 1408 0068 07F14C03 		add	r3, r7, #76
 1409 006c 4022     		movs	r2, #64
 1410 006e 0021     		movs	r1, #0
 1411 0070 1846     		mov	r0, r3
 1412 0072 FFF7FEFF 		bl	memset
 343:d:/LiteOS_Lab/iot_link/oc/oc_lwm2m/boudica150_oc\boudica150_oc.c ****             (void) snprintf(cmd,63,"AT+COPS=1,2,\"%s\"\r",plmn);
 1413              		.loc 1 343 20
 1414 0076 07F14C00 		add	r0, r7, #76
 1415 007a 7B68     		ldr	r3, [r7, #4]
 1416 007c 194A     		ldr	r2, .L80+12
 1417 007e 3F21     		movs	r1, #63
 1418 0080 FFF7FEFF 		bl	snprintf
 344:d:/LiteOS_Lab/iot_link/oc/oc_lwm2m/boudica150_oc\boudica150_oc.c **** 
 345:d:/LiteOS_Lab/iot_link/oc/oc_lwm2m/boudica150_oc\boudica150_oc.c ****             ret = boudica150_atcmd(cmd,"OK");
 1419              		.loc 1 345 19
 1420 0084 07F14C03 		add	r3, r7, #76
 1421 0088 1749     		ldr	r1, .L80+16
 1422 008a 1846     		mov	r0, r3
 1423 008c FFF7FEFF 		bl	boudica150_atcmd
 1424 0090 C7F88C00 		str	r0, [r7, #140]
 1425              		.loc 1 345 17
 1426 0094 19E0     		b	.L78
 1427              	.L76:
 346:d:/LiteOS_Lab/iot_link/oc/oc_lwm2m/boudica150_oc\boudica150_oc.c ****         }
 347:d:/LiteOS_Lab/iot_link/oc/oc_lwm2m/boudica150_oc\boudica150_oc.c ****         else
 348:d:/LiteOS_Lab/iot_link/oc/oc_lwm2m/boudica150_oc\boudica150_oc.c ****         {
 349:d:/LiteOS_Lab/iot_link/oc/oc_lwm2m/boudica150_oc\boudica150_oc.c ****             ret = true;  //we need not to set
 1428              		.loc 1 349 17
 1429 0096 0123     		movs	r3, #1
 1430 0098 C7F88C30 		str	r3, [r7, #140]
 1431 009c 15E0     		b	.L78
 1432              	.L74:
 350:d:/LiteOS_Lab/iot_link/oc/oc_lwm2m/boudica150_oc\boudica150_oc.c ****         }
 351:d:/LiteOS_Lab/iot_link/oc/oc_lwm2m/boudica150_oc\boudica150_oc.c ****     }
 352:d:/LiteOS_Lab/iot_link/oc/oc_lwm2m/boudica150_oc\boudica150_oc.c ****     else  //set it to auto
 353:d:/LiteOS_Lab/iot_link/oc/oc_lwm2m/boudica150_oc\boudica150_oc.c ****     {
 354:d:/LiteOS_Lab/iot_link/oc/oc_lwm2m/boudica150_oc\boudica150_oc.c ****         (void) memset(cmd,0,64);
 1433              		.loc 1 354 16
 1434 009e 07F14C03 		add	r3, r7, #76
 1435 00a2 4022     		movs	r2, #64
 1436 00a4 0021     		movs	r1, #0
 1437 00a6 1846     		mov	r0, r3
ARM GAS  C:\Users\ADMINI~1\AppData\Local\Temp\ccWbmWws.s 			page 33


 1438 00a8 FFF7FEFF 		bl	memset
 355:d:/LiteOS_Lab/iot_link/oc/oc_lwm2m/boudica150_oc\boudica150_oc.c ****         (void) snprintf(cmd,64,"AT+COPS=0\r");
 1439              		.loc 1 355 16
 1440 00ac 07F14C03 		add	r3, r7, #76
 1441 00b0 0E4A     		ldr	r2, .L80+20
 1442 00b2 4021     		movs	r1, #64
 1443 00b4 1846     		mov	r0, r3
 1444 00b6 FFF7FEFF 		bl	snprintf
 356:d:/LiteOS_Lab/iot_link/oc/oc_lwm2m/boudica150_oc\boudica150_oc.c ****         ret = boudica150_atcmd(cmd,"OK");
 1445              		.loc 1 356 15
 1446 00ba 07F14C03 		add	r3, r7, #76
 1447 00be 0A49     		ldr	r1, .L80+16
 1448 00c0 1846     		mov	r0, r3
 1449 00c2 FFF7FEFF 		bl	boudica150_atcmd
 1450 00c6 C7F88C00 		str	r0, [r7, #140]
 1451              	.L78:
 357:d:/LiteOS_Lab/iot_link/oc/oc_lwm2m/boudica150_oc\boudica150_oc.c ****     }
 358:d:/LiteOS_Lab/iot_link/oc/oc_lwm2m/boudica150_oc\boudica150_oc.c **** 
 359:d:/LiteOS_Lab/iot_link/oc/oc_lwm2m/boudica150_oc\boudica150_oc.c ****     return ret;
 1452              		.loc 1 359 12
 1453 00ca D7F88C30 		ldr	r3, [r7, #140]
 360:d:/LiteOS_Lab/iot_link/oc/oc_lwm2m/boudica150_oc\boudica150_oc.c **** }
 1454              		.loc 1 360 1
 1455 00ce 1846     		mov	r0, r3
 1456 00d0 9037     		adds	r7, r7, #144
 1457              	.LCFI56:
 1458              		.cfi_def_cfa_offset 8
 1459 00d2 BD46     		mov	sp, r7
 1460              	.LCFI57:
 1461              		.cfi_def_cfa_register 13
 1462              		@ sp needed
 1463 00d4 80BD     		pop	{r7, pc}
 1464              	.L81:
 1465 00d6 00BF     		.align	2
 1466              	.L80:
 1467 00d8 30010000 		.word	.LC16
 1468 00dc 38010000 		.word	.LC17
 1469 00e0 44010000 		.word	.LC18
 1470 00e4 54010000 		.word	.LC19
 1471 00e8 14000000 		.word	.LC2
 1472 00ec 68010000 		.word	.LC20
 1473              		.cfi_endproc
 1474              	.LFE14:
 1476              		.section	.rodata
 1477 0173 00       		.align	2
 1478              	.LC21:
 1479 0174 41542B43 		.ascii	"AT+CGDCONT?\015\000"
 1479      4744434F 
 1479      4E543F0D 
 1479      00
 1480 0181 000000   		.align	2
 1481              	.LC22:
 1482 0184 2B434744 		.ascii	"+CGDCONT:\"%s\"\015\000"
 1482      434F4E54 
 1482      3A222573 
 1482      220D00
 1483 0193 00       		.align	2
ARM GAS  C:\Users\ADMINI~1\AppData\Local\Temp\ccWbmWws.s 			page 34


 1484              	.LC23:
 1485 0194 41542B43 		.ascii	"AT+CGDCONT=%s\015\000"
 1485      4744434F 
 1485      4E543D25 
 1485      730D00
 1486              		.section	.text.boudica150_set_apn,"ax",%progbits
 1487              		.align	1
 1488              		.syntax unified
 1489              		.thumb
 1490              		.thumb_func
 1491              		.fpu fpv4-sp-d16
 1493              	boudica150_set_apn:
 1494              	.LFB15:
 361:d:/LiteOS_Lab/iot_link/oc/oc_lwm2m/boudica150_oc\boudica150_oc.c **** 
 362:d:/LiteOS_Lab/iot_link/oc/oc_lwm2m/boudica150_oc\boudica150_oc.c **** //set the apn
 363:d:/LiteOS_Lab/iot_link/oc/oc_lwm2m/boudica150_oc\boudica150_oc.c **** static bool_t boudica150_set_apn(const char *apn)
 364:d:/LiteOS_Lab/iot_link/oc/oc_lwm2m/boudica150_oc\boudica150_oc.c **** {
 1495              		.loc 1 364 1
 1496              		.cfi_startproc
 1497              		@ args = 0, pretend = 0, frame = 144
 1498              		@ frame_needed = 1, uses_anonymous_args = 0
 1499 0000 80B5     		push	{r7, lr}
 1500              	.LCFI58:
 1501              		.cfi_def_cfa_offset 8
 1502              		.cfi_offset 7, -8
 1503              		.cfi_offset 14, -4
 1504 0002 A4B0     		sub	sp, sp, #144
 1505              	.LCFI59:
 1506              		.cfi_def_cfa_offset 152
 1507 0004 00AF     		add	r7, sp, #0
 1508              	.LCFI60:
 1509              		.cfi_def_cfa_register 7
 1510 0006 7860     		str	r0, [r7, #4]
 365:d:/LiteOS_Lab/iot_link/oc/oc_lwm2m/boudica150_oc\boudica150_oc.c ****     char cmd[64];
 366:d:/LiteOS_Lab/iot_link/oc/oc_lwm2m/boudica150_oc\boudica150_oc.c ****     char resp[64];
 367:d:/LiteOS_Lab/iot_link/oc/oc_lwm2m/boudica150_oc\boudica150_oc.c **** 
 368:d:/LiteOS_Lab/iot_link/oc/oc_lwm2m/boudica150_oc\boudica150_oc.c ****     bool_t ret = true;
 1511              		.loc 1 368 12
 1512 0008 0123     		movs	r3, #1
 1513 000a C7F88C30 		str	r3, [r7, #140]
 369:d:/LiteOS_Lab/iot_link/oc/oc_lwm2m/boudica150_oc\boudica150_oc.c **** 
 370:d:/LiteOS_Lab/iot_link/oc/oc_lwm2m/boudica150_oc\boudica150_oc.c ****     if(NULL != apn)  //which measn we need to set if the default is not the same
 1514              		.loc 1 370 7
 1515 000e 7B68     		ldr	r3, [r7, #4]
 1516 0010 002B     		cmp	r3, #0
 1517 0012 46D0     		beq	.L83
 371:d:/LiteOS_Lab/iot_link/oc/oc_lwm2m/boudica150_oc\boudica150_oc.c ****     {
 372:d:/LiteOS_Lab/iot_link/oc/oc_lwm2m/boudica150_oc\boudica150_oc.c ****         (void) memset(resp,0,64);
 1518              		.loc 1 372 16
 1519 0014 07F10C03 		add	r3, r7, #12
 1520 0018 4022     		movs	r2, #64
 1521 001a 0021     		movs	r1, #0
 1522 001c 1846     		mov	r0, r3
 1523 001e FFF7FEFF 		bl	memset
 373:d:/LiteOS_Lab/iot_link/oc/oc_lwm2m/boudica150_oc\boudica150_oc.c ****         ret = boudica150_atcmd_response("AT+CGDCONT?\r","OK",resp,64);
 1524              		.loc 1 373 15
 1525 0022 07F10C02 		add	r2, r7, #12
ARM GAS  C:\Users\ADMINI~1\AppData\Local\Temp\ccWbmWws.s 			page 35


 1526 0026 4023     		movs	r3, #64
 1527 0028 2149     		ldr	r1, .L87
 1528 002a 2248     		ldr	r0, .L87+4
 1529 002c FFF7FEFF 		bl	boudica150_atcmd_response
 1530 0030 C7F88C00 		str	r0, [r7, #140]
 374:d:/LiteOS_Lab/iot_link/oc/oc_lwm2m/boudica150_oc\boudica150_oc.c **** 
 375:d:/LiteOS_Lab/iot_link/oc/oc_lwm2m/boudica150_oc\boudica150_oc.c ****         (void) memset(cmd,0,64);
 1531              		.loc 1 375 16
 1532 0034 07F14C03 		add	r3, r7, #76
 1533 0038 4022     		movs	r2, #64
 1534 003a 0021     		movs	r1, #0
 1535 003c 1846     		mov	r0, r3
 1536 003e FFF7FEFF 		bl	memset
 376:d:/LiteOS_Lab/iot_link/oc/oc_lwm2m/boudica150_oc\boudica150_oc.c ****         (void) snprintf(cmd,63,"+CGDCONT:\"%s\"\r",apn); //TODO, check if it is right
 1537              		.loc 1 376 16
 1538 0042 07F14C00 		add	r0, r7, #76
 1539 0046 7B68     		ldr	r3, [r7, #4]
 1540 0048 1B4A     		ldr	r2, .L87+8
 1541 004a 3F21     		movs	r1, #63
 1542 004c FFF7FEFF 		bl	snprintf
 377:d:/LiteOS_Lab/iot_link/oc/oc_lwm2m/boudica150_oc\boudica150_oc.c ****         if((false == ret)||(NULL == strstr(resp,cmd)))//which means we need to set it
 1543              		.loc 1 377 11
 1544 0050 D7F88C30 		ldr	r3, [r7, #140]
 1545 0054 002B     		cmp	r3, #0
 1546 0056 0AD0     		beq	.L84
 1547              		.loc 1 377 37 discriminator 1
 1548 0058 07F14C02 		add	r2, r7, #76
 1549 005c 07F10C03 		add	r3, r7, #12
 1550 0060 1146     		mov	r1, r2
 1551 0062 1846     		mov	r0, r3
 1552 0064 FFF7FEFF 		bl	strstr
 1553 0068 0346     		mov	r3, r0
 1554              		.loc 1 377 26 discriminator 1
 1555 006a 002B     		cmp	r3, #0
 1556 006c 16D1     		bne	.L85
 1557              	.L84:
 378:d:/LiteOS_Lab/iot_link/oc/oc_lwm2m/boudica150_oc\boudica150_oc.c ****         {
 379:d:/LiteOS_Lab/iot_link/oc/oc_lwm2m/boudica150_oc\boudica150_oc.c ****             (void) memset(cmd,0,64);
 1558              		.loc 1 379 20
 1559 006e 07F14C03 		add	r3, r7, #76
 1560 0072 4022     		movs	r2, #64
 1561 0074 0021     		movs	r1, #0
 1562 0076 1846     		mov	r0, r3
 1563 0078 FFF7FEFF 		bl	memset
 380:d:/LiteOS_Lab/iot_link/oc/oc_lwm2m/boudica150_oc\boudica150_oc.c ****             (void) snprintf(cmd,63,"AT+CGDCONT=%s\r",apn);
 1564              		.loc 1 380 20
 1565 007c 07F14C00 		add	r0, r7, #76
 1566 0080 7B68     		ldr	r3, [r7, #4]
 1567 0082 0E4A     		ldr	r2, .L87+12
 1568 0084 3F21     		movs	r1, #63
 1569 0086 FFF7FEFF 		bl	snprintf
 381:d:/LiteOS_Lab/iot_link/oc/oc_lwm2m/boudica150_oc\boudica150_oc.c ****             ret = boudica150_atcmd(cmd,"OK");
 1570              		.loc 1 381 19
 1571 008a 07F14C03 		add	r3, r7, #76
 1572 008e 0849     		ldr	r1, .L87
 1573 0090 1846     		mov	r0, r3
 1574 0092 FFF7FEFF 		bl	boudica150_atcmd
ARM GAS  C:\Users\ADMINI~1\AppData\Local\Temp\ccWbmWws.s 			page 36


 1575 0096 C7F88C00 		str	r0, [r7, #140]
 1576              		.loc 1 381 17
 1577 009a 02E0     		b	.L83
 1578              	.L85:
 382:d:/LiteOS_Lab/iot_link/oc/oc_lwm2m/boudica150_oc\boudica150_oc.c ****         }
 383:d:/LiteOS_Lab/iot_link/oc/oc_lwm2m/boudica150_oc\boudica150_oc.c ****         else
 384:d:/LiteOS_Lab/iot_link/oc/oc_lwm2m/boudica150_oc\boudica150_oc.c ****         {
 385:d:/LiteOS_Lab/iot_link/oc/oc_lwm2m/boudica150_oc\boudica150_oc.c ****             ret = true;  //we need not to set
 1579              		.loc 1 385 17
 1580 009c 0123     		movs	r3, #1
 1581 009e C7F88C30 		str	r3, [r7, #140]
 1582              	.L83:
 386:d:/LiteOS_Lab/iot_link/oc/oc_lwm2m/boudica150_oc\boudica150_oc.c ****         }
 387:d:/LiteOS_Lab/iot_link/oc/oc_lwm2m/boudica150_oc\boudica150_oc.c ****     }
 388:d:/LiteOS_Lab/iot_link/oc/oc_lwm2m/boudica150_oc\boudica150_oc.c ****     return ret;
 1583              		.loc 1 388 12
 1584 00a2 D7F88C30 		ldr	r3, [r7, #140]
 389:d:/LiteOS_Lab/iot_link/oc/oc_lwm2m/boudica150_oc\boudica150_oc.c **** }
 1585              		.loc 1 389 1
 1586 00a6 1846     		mov	r0, r3
 1587 00a8 9037     		adds	r7, r7, #144
 1588              	.LCFI61:
 1589              		.cfi_def_cfa_offset 8
 1590 00aa BD46     		mov	sp, r7
 1591              	.LCFI62:
 1592              		.cfi_def_cfa_register 13
 1593              		@ sp needed
 1594 00ac 80BD     		pop	{r7, pc}
 1595              	.L88:
 1596 00ae 00BF     		.align	2
 1597              	.L87:
 1598 00b0 14000000 		.word	.LC2
 1599 00b4 74010000 		.word	.LC21
 1600 00b8 84010000 		.word	.LC22
 1601 00bc 94010000 		.word	.LC23
 1602              		.cfi_endproc
 1603              	.LFE15:
 1605              		.section	.rodata
 1606 01a3 00       		.align	2
 1607              	.LC24:
 1608 01a4 41542B4E 		.ascii	"AT+NCDP?\015\000"
 1608      4344503F 
 1608      0D00
 1609 01ae 0000     		.align	2
 1610              	.LC25:
 1611 01b0 2B4E4344 		.ascii	"+NCDP:%s,%s\015\000"
 1611      503A2573 
 1611      2C25730D 
 1611      00
 1612 01bd 000000   		.align	2
 1613              	.LC26:
 1614 01c0 41542B4E 		.ascii	"AT+NCDP=%s,%s\015\000"
 1614      4344503D 
 1614      25732C25 
 1614      730D00
 1615              		.section	.text.boudica150_set_cdp,"ax",%progbits
 1616              		.align	1
ARM GAS  C:\Users\ADMINI~1\AppData\Local\Temp\ccWbmWws.s 			page 37


 1617              		.syntax unified
 1618              		.thumb
 1619              		.thumb_func
 1620              		.fpu fpv4-sp-d16
 1622              	boudica150_set_cdp:
 1623              	.LFB16:
 390:d:/LiteOS_Lab/iot_link/oc/oc_lwm2m/boudica150_oc\boudica150_oc.c **** 
 391:d:/LiteOS_Lab/iot_link/oc/oc_lwm2m/boudica150_oc\boudica150_oc.c **** //set the cdp
 392:d:/LiteOS_Lab/iot_link/oc/oc_lwm2m/boudica150_oc\boudica150_oc.c **** static bool_t boudica150_set_cdp(const char *server,const char *port)
 393:d:/LiteOS_Lab/iot_link/oc/oc_lwm2m/boudica150_oc\boudica150_oc.c **** {
 1624              		.loc 1 393 1
 1625              		.cfi_startproc
 1626              		@ args = 0, pretend = 0, frame = 208
 1627              		@ frame_needed = 1, uses_anonymous_args = 0
 1628 0000 80B5     		push	{r7, lr}
 1629              	.LCFI63:
 1630              		.cfi_def_cfa_offset 8
 1631              		.cfi_offset 7, -8
 1632              		.cfi_offset 14, -4
 1633 0002 B6B0     		sub	sp, sp, #216
 1634              	.LCFI64:
 1635              		.cfi_def_cfa_offset 224
 1636 0004 02AF     		add	r7, sp, #8
 1637              	.LCFI65:
 1638              		.cfi_def_cfa 7, 216
 1639 0006 7860     		str	r0, [r7, #4]
 1640 0008 3960     		str	r1, [r7]
 394:d:/LiteOS_Lab/iot_link/oc/oc_lwm2m/boudica150_oc\boudica150_oc.c ****     char cmd[64];
 395:d:/LiteOS_Lab/iot_link/oc/oc_lwm2m/boudica150_oc\boudica150_oc.c ****     char resp[64];
 396:d:/LiteOS_Lab/iot_link/oc/oc_lwm2m/boudica150_oc\boudica150_oc.c ****     char cmp[64];
 397:d:/LiteOS_Lab/iot_link/oc/oc_lwm2m/boudica150_oc\boudica150_oc.c ****     bool_t ret = true;
 1641              		.loc 1 397 12
 1642 000a 0123     		movs	r3, #1
 1643 000c C7F8CC30 		str	r3, [r7, #204]
 398:d:/LiteOS_Lab/iot_link/oc/oc_lwm2m/boudica150_oc\boudica150_oc.c **** 
 399:d:/LiteOS_Lab/iot_link/oc/oc_lwm2m/boudica150_oc\boudica150_oc.c ****     if(NULL != server)  //which measn we need to set if the default is not the same
 1644              		.loc 1 399 7
 1645 0010 7B68     		ldr	r3, [r7, #4]
 1646 0012 002B     		cmp	r3, #0
 1647 0014 51D0     		beq	.L90
 400:d:/LiteOS_Lab/iot_link/oc/oc_lwm2m/boudica150_oc\boudica150_oc.c ****     {
 401:d:/LiteOS_Lab/iot_link/oc/oc_lwm2m/boudica150_oc\boudica150_oc.c ****         (void) memset(resp,0,64);
 1648              		.loc 1 401 16
 1649 0016 07F14C03 		add	r3, r7, #76
 1650 001a 4022     		movs	r2, #64
 1651 001c 0021     		movs	r1, #0
 1652 001e 1846     		mov	r0, r3
 1653 0020 FFF7FEFF 		bl	memset
 402:d:/LiteOS_Lab/iot_link/oc/oc_lwm2m/boudica150_oc\boudica150_oc.c ****         (void) memset(cmp,0,64);
 1654              		.loc 1 402 16
 1655 0024 07F10C03 		add	r3, r7, #12
 1656 0028 4022     		movs	r2, #64
 1657 002a 0021     		movs	r1, #0
 1658 002c 1846     		mov	r0, r3
 1659 002e FFF7FEFF 		bl	memset
 403:d:/LiteOS_Lab/iot_link/oc/oc_lwm2m/boudica150_oc\boudica150_oc.c ****         (void) memset(cmd,0,64);
 1660              		.loc 1 403 16
ARM GAS  C:\Users\ADMINI~1\AppData\Local\Temp\ccWbmWws.s 			page 38


 1661 0032 07F18C03 		add	r3, r7, #140
 1662 0036 4022     		movs	r2, #64
 1663 0038 0021     		movs	r1, #0
 1664 003a 1846     		mov	r0, r3
 1665 003c FFF7FEFF 		bl	memset
 404:d:/LiteOS_Lab/iot_link/oc/oc_lwm2m/boudica150_oc\boudica150_oc.c ****         ret = boudica150_atcmd_response("AT+NCDP?\r","OK",resp,64);
 1666              		.loc 1 404 15
 1667 0040 07F14C02 		add	r2, r7, #76
 1668 0044 4023     		movs	r3, #64
 1669 0046 2049     		ldr	r1, .L94
 1670 0048 2048     		ldr	r0, .L94+4
 1671 004a FFF7FEFF 		bl	boudica150_atcmd_response
 1672 004e C7F8CC00 		str	r0, [r7, #204]
 405:d:/LiteOS_Lab/iot_link/oc/oc_lwm2m/boudica150_oc\boudica150_oc.c ****         (void) snprintf(cmp,64,"+NCDP:%s,%s\r",server,port);
 1673              		.loc 1 405 16
 1674 0052 07F10C00 		add	r0, r7, #12
 1675 0056 3B68     		ldr	r3, [r7]
 1676 0058 0093     		str	r3, [sp]
 1677 005a 7B68     		ldr	r3, [r7, #4]
 1678 005c 1C4A     		ldr	r2, .L94+8
 1679 005e 4021     		movs	r1, #64
 1680 0060 FFF7FEFF 		bl	snprintf
 406:d:/LiteOS_Lab/iot_link/oc/oc_lwm2m/boudica150_oc\boudica150_oc.c ****         if((false == ret)||(NULL == strstr(resp,cmp)))//which means we need to set it
 1681              		.loc 1 406 11
 1682 0064 D7F8CC30 		ldr	r3, [r7, #204]
 1683 0068 002B     		cmp	r3, #0
 1684 006a 0AD0     		beq	.L91
 1685              		.loc 1 406 37 discriminator 1
 1686 006c 07F10C02 		add	r2, r7, #12
 1687 0070 07F14C03 		add	r3, r7, #76
 1688 0074 1146     		mov	r1, r2
 1689 0076 1846     		mov	r0, r3
 1690 0078 FFF7FEFF 		bl	strstr
 1691 007c 0346     		mov	r3, r0
 1692              		.loc 1 406 26 discriminator 1
 1693 007e 002B     		cmp	r3, #0
 1694 0080 18D1     		bne	.L92
 1695              	.L91:
 407:d:/LiteOS_Lab/iot_link/oc/oc_lwm2m/boudica150_oc\boudica150_oc.c ****         {
 408:d:/LiteOS_Lab/iot_link/oc/oc_lwm2m/boudica150_oc\boudica150_oc.c ****             (void) memset(cmd,0,64);
 1696              		.loc 1 408 20
 1697 0082 07F18C03 		add	r3, r7, #140
 1698 0086 4022     		movs	r2, #64
 1699 0088 0021     		movs	r1, #0
 1700 008a 1846     		mov	r0, r3
 1701 008c FFF7FEFF 		bl	memset
 409:d:/LiteOS_Lab/iot_link/oc/oc_lwm2m/boudica150_oc\boudica150_oc.c ****             (void) snprintf(cmd,64,"AT+NCDP=%s,%s\r",server,port);
 1702              		.loc 1 409 20
 1703 0090 07F18C00 		add	r0, r7, #140
 1704 0094 3B68     		ldr	r3, [r7]
 1705 0096 0093     		str	r3, [sp]
 1706 0098 7B68     		ldr	r3, [r7, #4]
 1707 009a 0E4A     		ldr	r2, .L94+12
 1708 009c 4021     		movs	r1, #64
 1709 009e FFF7FEFF 		bl	snprintf
 410:d:/LiteOS_Lab/iot_link/oc/oc_lwm2m/boudica150_oc\boudica150_oc.c ****             ret = boudica150_atcmd(cmd,"OK");
 1710              		.loc 1 410 19
ARM GAS  C:\Users\ADMINI~1\AppData\Local\Temp\ccWbmWws.s 			page 39


 1711 00a2 07F18C03 		add	r3, r7, #140
 1712 00a6 0849     		ldr	r1, .L94
 1713 00a8 1846     		mov	r0, r3
 1714 00aa FFF7FEFF 		bl	boudica150_atcmd
 1715 00ae C7F8CC00 		str	r0, [r7, #204]
 1716              		.loc 1 410 17
 1717 00b2 02E0     		b	.L90
 1718              	.L92:
 411:d:/LiteOS_Lab/iot_link/oc/oc_lwm2m/boudica150_oc\boudica150_oc.c ****         }
 412:d:/LiteOS_Lab/iot_link/oc/oc_lwm2m/boudica150_oc\boudica150_oc.c ****         else
 413:d:/LiteOS_Lab/iot_link/oc/oc_lwm2m/boudica150_oc\boudica150_oc.c ****         {
 414:d:/LiteOS_Lab/iot_link/oc/oc_lwm2m/boudica150_oc\boudica150_oc.c ****             ret = true;  //we need not to set
 1719              		.loc 1 414 17
 1720 00b4 0123     		movs	r3, #1
 1721 00b6 C7F8CC30 		str	r3, [r7, #204]
 1722              	.L90:
 415:d:/LiteOS_Lab/iot_link/oc/oc_lwm2m/boudica150_oc\boudica150_oc.c ****         }
 416:d:/LiteOS_Lab/iot_link/oc/oc_lwm2m/boudica150_oc\boudica150_oc.c ****     }
 417:d:/LiteOS_Lab/iot_link/oc/oc_lwm2m/boudica150_oc\boudica150_oc.c ****     return ret;
 1723              		.loc 1 417 12
 1724 00ba D7F8CC30 		ldr	r3, [r7, #204]
 418:d:/LiteOS_Lab/iot_link/oc/oc_lwm2m/boudica150_oc\boudica150_oc.c **** }
 1725              		.loc 1 418 1
 1726 00be 1846     		mov	r0, r3
 1727 00c0 D037     		adds	r7, r7, #208
 1728              	.LCFI66:
 1729              		.cfi_def_cfa_offset 8
 1730 00c2 BD46     		mov	sp, r7
 1731              	.LCFI67:
 1732              		.cfi_def_cfa_register 13
 1733              		@ sp needed
 1734 00c4 80BD     		pop	{r7, pc}
 1735              	.L95:
 1736 00c6 00BF     		.align	2
 1737              	.L94:
 1738 00c8 14000000 		.word	.LC2
 1739 00cc A4010000 		.word	.LC24
 1740 00d0 B0010000 		.word	.LC25
 1741 00d4 C0010000 		.word	.LC26
 1742              		.cfi_endproc
 1743              	.LFE16:
 1745              		.section	.rodata
 1746 01cf 00       		.align	2
 1747              	.LC27:
 1748 01d0 41542B43 		.ascii	"AT+CMEE=%d\015\000"
 1748      4D45453D 
 1748      25640D00 
 1749              		.section	.text.boudica150_set_cmee,"ax",%progbits
 1750              		.align	1
 1751              		.syntax unified
 1752              		.thumb
 1753              		.thumb_func
 1754              		.fpu fpv4-sp-d16
 1756              	boudica150_set_cmee:
 1757              	.LFB17:
 419:d:/LiteOS_Lab/iot_link/oc/oc_lwm2m/boudica150_oc\boudica150_oc.c **** 
 420:d:/LiteOS_Lab/iot_link/oc/oc_lwm2m/boudica150_oc\boudica150_oc.c **** //enable the cmee
ARM GAS  C:\Users\ADMINI~1\AppData\Local\Temp\ccWbmWws.s 			page 40


 421:d:/LiteOS_Lab/iot_link/oc/oc_lwm2m/boudica150_oc\boudica150_oc.c **** 
 422:d:/LiteOS_Lab/iot_link/oc/oc_lwm2m/boudica150_oc\boudica150_oc.c **** static bool_t boudica150_set_cmee(int enable)
 423:d:/LiteOS_Lab/iot_link/oc/oc_lwm2m/boudica150_oc\boudica150_oc.c **** {
 1758              		.loc 1 423 1
 1759              		.cfi_startproc
 1760              		@ args = 0, pretend = 0, frame = 80
 1761              		@ frame_needed = 1, uses_anonymous_args = 0
 1762 0000 80B5     		push	{r7, lr}
 1763              	.LCFI68:
 1764              		.cfi_def_cfa_offset 8
 1765              		.cfi_offset 7, -8
 1766              		.cfi_offset 14, -4
 1767 0002 94B0     		sub	sp, sp, #80
 1768              	.LCFI69:
 1769              		.cfi_def_cfa_offset 88
 1770 0004 00AF     		add	r7, sp, #0
 1771              	.LCFI70:
 1772              		.cfi_def_cfa_register 7
 1773 0006 7860     		str	r0, [r7, #4]
 424:d:/LiteOS_Lab/iot_link/oc/oc_lwm2m/boudica150_oc\boudica150_oc.c ****     bool_t ret;
 425:d:/LiteOS_Lab/iot_link/oc/oc_lwm2m/boudica150_oc\boudica150_oc.c ****     char cmd[64];
 426:d:/LiteOS_Lab/iot_link/oc/oc_lwm2m/boudica150_oc\boudica150_oc.c **** 
 427:d:/LiteOS_Lab/iot_link/oc/oc_lwm2m/boudica150_oc\boudica150_oc.c ****     (void) memset(cmd,0,64);
 1774              		.loc 1 427 12
 1775 0008 07F10C03 		add	r3, r7, #12
 1776 000c 4022     		movs	r2, #64
 1777 000e 0021     		movs	r1, #0
 1778 0010 1846     		mov	r0, r3
 1779 0012 FFF7FEFF 		bl	memset
 428:d:/LiteOS_Lab/iot_link/oc/oc_lwm2m/boudica150_oc\boudica150_oc.c ****     (void) snprintf(cmd,64,"AT+CMEE=%d\r",enable);
 1780              		.loc 1 428 12
 1781 0016 07F10C00 		add	r0, r7, #12
 1782 001a 7B68     		ldr	r3, [r7, #4]
 1783 001c 074A     		ldr	r2, .L98
 1784 001e 4021     		movs	r1, #64
 1785 0020 FFF7FEFF 		bl	snprintf
 429:d:/LiteOS_Lab/iot_link/oc/oc_lwm2m/boudica150_oc\boudica150_oc.c **** 
 430:d:/LiteOS_Lab/iot_link/oc/oc_lwm2m/boudica150_oc\boudica150_oc.c ****     ret = boudica150_atcmd(cmd,"OK");
 1786              		.loc 1 430 11
 1787 0024 07F10C03 		add	r3, r7, #12
 1788 0028 0549     		ldr	r1, .L98+4
 1789 002a 1846     		mov	r0, r3
 1790 002c FFF7FEFF 		bl	boudica150_atcmd
 1791 0030 F864     		str	r0, [r7, #76]
 431:d:/LiteOS_Lab/iot_link/oc/oc_lwm2m/boudica150_oc\boudica150_oc.c **** 
 432:d:/LiteOS_Lab/iot_link/oc/oc_lwm2m/boudica150_oc\boudica150_oc.c ****     return ret;
 1792              		.loc 1 432 12
 1793 0032 FB6C     		ldr	r3, [r7, #76]
 433:d:/LiteOS_Lab/iot_link/oc/oc_lwm2m/boudica150_oc\boudica150_oc.c **** }
 1794              		.loc 1 433 1
 1795 0034 1846     		mov	r0, r3
 1796 0036 5037     		adds	r7, r7, #80
 1797              	.LCFI71:
 1798              		.cfi_def_cfa_offset 8
 1799 0038 BD46     		mov	sp, r7
 1800              	.LCFI72:
 1801              		.cfi_def_cfa_register 13
ARM GAS  C:\Users\ADMINI~1\AppData\Local\Temp\ccWbmWws.s 			page 41


 1802              		@ sp needed
 1803 003a 80BD     		pop	{r7, pc}
 1804              	.L99:
 1805              		.align	2
 1806              	.L98:
 1807 003c D0010000 		.word	.LC27
 1808 0040 14000000 		.word	.LC2
 1809              		.cfi_endproc
 1810              	.LFE17:
 1812              		.section	.rodata
 1813              		.align	2
 1814              	.LC28:
 1815 01dc 41542B43 		.ascii	"AT+CGATT=%d\015\000"
 1815      47415454 
 1815      3D25640D 
 1815      00
 1816              		.section	.text.boudica150_set_cgatt,"ax",%progbits
 1817              		.align	1
 1818              		.syntax unified
 1819              		.thumb
 1820              		.thumb_func
 1821              		.fpu fpv4-sp-d16
 1823              	boudica150_set_cgatt:
 1824              	.LFB18:
 434:d:/LiteOS_Lab/iot_link/oc/oc_lwm2m/boudica150_oc\boudica150_oc.c **** 
 435:d:/LiteOS_Lab/iot_link/oc/oc_lwm2m/boudica150_oc\boudica150_oc.c **** //enable the network
 436:d:/LiteOS_Lab/iot_link/oc/oc_lwm2m/boudica150_oc\boudica150_oc.c **** static bool_t boudica150_set_cgatt(int enable)  //unit second
 437:d:/LiteOS_Lab/iot_link/oc/oc_lwm2m/boudica150_oc\boudica150_oc.c **** {
 1825              		.loc 1 437 1
 1826              		.cfi_startproc
 1827              		@ args = 0, pretend = 0, frame = 80
 1828              		@ frame_needed = 1, uses_anonymous_args = 0
 1829 0000 80B5     		push	{r7, lr}
 1830              	.LCFI73:
 1831              		.cfi_def_cfa_offset 8
 1832              		.cfi_offset 7, -8
 1833              		.cfi_offset 14, -4
 1834 0002 94B0     		sub	sp, sp, #80
 1835              	.LCFI74:
 1836              		.cfi_def_cfa_offset 88
 1837 0004 00AF     		add	r7, sp, #0
 1838              	.LCFI75:
 1839              		.cfi_def_cfa_register 7
 1840 0006 7860     		str	r0, [r7, #4]
 438:d:/LiteOS_Lab/iot_link/oc/oc_lwm2m/boudica150_oc\boudica150_oc.c ****     bool_t ret ;
 439:d:/LiteOS_Lab/iot_link/oc/oc_lwm2m/boudica150_oc\boudica150_oc.c ****     char cmd[64];
 440:d:/LiteOS_Lab/iot_link/oc/oc_lwm2m/boudica150_oc\boudica150_oc.c **** 
 441:d:/LiteOS_Lab/iot_link/oc/oc_lwm2m/boudica150_oc\boudica150_oc.c ****     (void) memset(cmd,0,64);
 1841              		.loc 1 441 12
 1842 0008 07F10C03 		add	r3, r7, #12
 1843 000c 4022     		movs	r2, #64
 1844 000e 0021     		movs	r1, #0
 1845 0010 1846     		mov	r0, r3
 1846 0012 FFF7FEFF 		bl	memset
 442:d:/LiteOS_Lab/iot_link/oc/oc_lwm2m/boudica150_oc\boudica150_oc.c ****     (void) snprintf(cmd,64,"AT+CGATT=%d\r",enable);
 1847              		.loc 1 442 12
 1848 0016 07F10C00 		add	r0, r7, #12
ARM GAS  C:\Users\ADMINI~1\AppData\Local\Temp\ccWbmWws.s 			page 42


 1849 001a 7B68     		ldr	r3, [r7, #4]
 1850 001c 074A     		ldr	r2, .L102
 1851 001e 4021     		movs	r1, #64
 1852 0020 FFF7FEFF 		bl	snprintf
 443:d:/LiteOS_Lab/iot_link/oc/oc_lwm2m/boudica150_oc\boudica150_oc.c **** 
 444:d:/LiteOS_Lab/iot_link/oc/oc_lwm2m/boudica150_oc\boudica150_oc.c ****     ret = boudica150_atcmd(cmd,"OK");
 1853              		.loc 1 444 11
 1854 0024 07F10C03 		add	r3, r7, #12
 1855 0028 0549     		ldr	r1, .L102+4
 1856 002a 1846     		mov	r0, r3
 1857 002c FFF7FEFF 		bl	boudica150_atcmd
 1858 0030 F864     		str	r0, [r7, #76]
 445:d:/LiteOS_Lab/iot_link/oc/oc_lwm2m/boudica150_oc\boudica150_oc.c **** 
 446:d:/LiteOS_Lab/iot_link/oc/oc_lwm2m/boudica150_oc\boudica150_oc.c ****     return ret;
 1859              		.loc 1 446 12
 1860 0032 FB6C     		ldr	r3, [r7, #76]
 447:d:/LiteOS_Lab/iot_link/oc/oc_lwm2m/boudica150_oc\boudica150_oc.c **** }
 1861              		.loc 1 447 1
 1862 0034 1846     		mov	r0, r3
 1863 0036 5037     		adds	r7, r7, #80
 1864              	.LCFI76:
 1865              		.cfi_def_cfa_offset 8
 1866 0038 BD46     		mov	sp, r7
 1867              	.LCFI77:
 1868              		.cfi_def_cfa_register 13
 1869              		@ sp needed
 1870 003a 80BD     		pop	{r7, pc}
 1871              	.L103:
 1872              		.align	2
 1873              	.L102:
 1874 003c DC010000 		.word	.LC28
 1875 0040 14000000 		.word	.LC2
 1876              		.cfi_endproc
 1877              	.LFE18:
 1879              		.section	.rodata
 1880 01e9 000000   		.align	2
 1881              	.LC29:
 1882 01ec 41542B4E 		.ascii	"AT+NNMI=%d\015\000"
 1882      4E4D493D 
 1882      25640D00 
 1883              		.section	.text.boudica150_set_nnmi,"ax",%progbits
 1884              		.align	1
 1885              		.syntax unified
 1886              		.thumb
 1887              		.thumb_func
 1888              		.fpu fpv4-sp-d16
 1890              	boudica150_set_nnmi:
 1891              	.LFB19:
 448:d:/LiteOS_Lab/iot_link/oc/oc_lwm2m/boudica150_oc\boudica150_oc.c **** 
 449:d:/LiteOS_Lab/iot_link/oc/oc_lwm2m/boudica150_oc\boudica150_oc.c **** //enable the NNMI
 450:d:/LiteOS_Lab/iot_link/oc/oc_lwm2m/boudica150_oc\boudica150_oc.c **** static bool_t boudica150_set_nnmi(int enable)  //unit second
 451:d:/LiteOS_Lab/iot_link/oc/oc_lwm2m/boudica150_oc\boudica150_oc.c **** {
 1892              		.loc 1 451 1
 1893              		.cfi_startproc
 1894              		@ args = 0, pretend = 0, frame = 80
 1895              		@ frame_needed = 1, uses_anonymous_args = 0
 1896 0000 80B5     		push	{r7, lr}
ARM GAS  C:\Users\ADMINI~1\AppData\Local\Temp\ccWbmWws.s 			page 43


 1897              	.LCFI78:
 1898              		.cfi_def_cfa_offset 8
 1899              		.cfi_offset 7, -8
 1900              		.cfi_offset 14, -4
 1901 0002 94B0     		sub	sp, sp, #80
 1902              	.LCFI79:
 1903              		.cfi_def_cfa_offset 88
 1904 0004 00AF     		add	r7, sp, #0
 1905              	.LCFI80:
 1906              		.cfi_def_cfa_register 7
 1907 0006 7860     		str	r0, [r7, #4]
 452:d:/LiteOS_Lab/iot_link/oc/oc_lwm2m/boudica150_oc\boudica150_oc.c ****     bool_t ret ;
 453:d:/LiteOS_Lab/iot_link/oc/oc_lwm2m/boudica150_oc\boudica150_oc.c ****     char cmd[64];
 454:d:/LiteOS_Lab/iot_link/oc/oc_lwm2m/boudica150_oc\boudica150_oc.c **** 
 455:d:/LiteOS_Lab/iot_link/oc/oc_lwm2m/boudica150_oc\boudica150_oc.c ****     (void) memset(cmd,0,64);
 1908              		.loc 1 455 12
 1909 0008 07F10C03 		add	r3, r7, #12
 1910 000c 4022     		movs	r2, #64
 1911 000e 0021     		movs	r1, #0
 1912 0010 1846     		mov	r0, r3
 1913 0012 FFF7FEFF 		bl	memset
 456:d:/LiteOS_Lab/iot_link/oc/oc_lwm2m/boudica150_oc\boudica150_oc.c ****     (void) snprintf(cmd,64,"AT+NNMI=%d\r",enable);
 1914              		.loc 1 456 12
 1915 0016 07F10C00 		add	r0, r7, #12
 1916 001a 7B68     		ldr	r3, [r7, #4]
 1917 001c 074A     		ldr	r2, .L106
 1918 001e 4021     		movs	r1, #64
 1919 0020 FFF7FEFF 		bl	snprintf
 457:d:/LiteOS_Lab/iot_link/oc/oc_lwm2m/boudica150_oc\boudica150_oc.c **** 
 458:d:/LiteOS_Lab/iot_link/oc/oc_lwm2m/boudica150_oc\boudica150_oc.c ****     ret = boudica150_atcmd(cmd,"OK");
 1920              		.loc 1 458 11
 1921 0024 07F10C03 		add	r3, r7, #12
 1922 0028 0549     		ldr	r1, .L106+4
 1923 002a 1846     		mov	r0, r3
 1924 002c FFF7FEFF 		bl	boudica150_atcmd
 1925 0030 F864     		str	r0, [r7, #76]
 459:d:/LiteOS_Lab/iot_link/oc/oc_lwm2m/boudica150_oc\boudica150_oc.c **** 
 460:d:/LiteOS_Lab/iot_link/oc/oc_lwm2m/boudica150_oc\boudica150_oc.c ****     return ret;
 1926              		.loc 1 460 12
 1927 0032 FB6C     		ldr	r3, [r7, #76]
 461:d:/LiteOS_Lab/iot_link/oc/oc_lwm2m/boudica150_oc\boudica150_oc.c **** }
 1928              		.loc 1 461 1
 1929 0034 1846     		mov	r0, r3
 1930 0036 5037     		adds	r7, r7, #80
 1931              	.LCFI81:
 1932              		.cfi_def_cfa_offset 8
 1933 0038 BD46     		mov	sp, r7
 1934              	.LCFI82:
 1935              		.cfi_def_cfa_register 13
 1936              		@ sp needed
 1937 003a 80BD     		pop	{r7, pc}
 1938              	.L107:
 1939              		.align	2
 1940              	.L106:
 1941 003c EC010000 		.word	.LC29
 1942 0040 14000000 		.word	.LC2
 1943              		.cfi_endproc
ARM GAS  C:\Users\ADMINI~1\AppData\Local\Temp\ccWbmWws.s 			page 44


 1944              	.LFE19:
 1946              		.section	.rodata
 1947              		.align	2
 1948              	.LC30:
 1949 01f8 5B25735D 		.ascii	"[%s][%u][%s] GET THE LWM2M:ind:%d\012\015\015\012\000"
 1949      5B25755D 
 1949      5B25735D 
 1949      20474554 
 1949      20544845 
 1950              		.section	.text.urc_qlwevtind,"ax",%progbits
 1951              		.align	1
 1952              		.syntax unified
 1953              		.thumb
 1954              		.thumb_func
 1955              		.fpu fpv4-sp-d16
 1957              	urc_qlwevtind:
 1958              	.LFB20:
 462:d:/LiteOS_Lab/iot_link/oc/oc_lwm2m/boudica150_oc\boudica150_oc.c **** 
 463:d:/LiteOS_Lab/iot_link/oc/oc_lwm2m/boudica150_oc\boudica150_oc.c **** 
 464:d:/LiteOS_Lab/iot_link/oc/oc_lwm2m/boudica150_oc\boudica150_oc.c **** //wait for the lwm2m observe
 465:d:/LiteOS_Lab/iot_link/oc/oc_lwm2m/boudica150_oc\boudica150_oc.c **** static int urc_qlwevtind(void *args,void *msg,size_t len)
 466:d:/LiteOS_Lab/iot_link/oc/oc_lwm2m/boudica150_oc\boudica150_oc.c **** {
 1959              		.loc 1 466 1
 1960              		.cfi_startproc
 1961              		@ args = 0, pretend = 0, frame = 32
 1962              		@ frame_needed = 1, uses_anonymous_args = 0
 1963 0000 90B5     		push	{r4, r7, lr}
 1964              	.LCFI83:
 1965              		.cfi_def_cfa_offset 12
 1966              		.cfi_offset 4, -12
 1967              		.cfi_offset 7, -8
 1968              		.cfi_offset 14, -4
 1969 0002 8BB0     		sub	sp, sp, #44
 1970              	.LCFI84:
 1971              		.cfi_def_cfa_offset 56
 1972 0004 02AF     		add	r7, sp, #8
 1973              	.LCFI85:
 1974              		.cfi_def_cfa 7, 48
 1975 0006 F860     		str	r0, [r7, #12]
 1976 0008 B960     		str	r1, [r7, #8]
 1977 000a 7A60     		str	r2, [r7, #4]
 467:d:/LiteOS_Lab/iot_link/oc/oc_lwm2m/boudica150_oc\boudica150_oc.c **** 
 468:d:/LiteOS_Lab/iot_link/oc/oc_lwm2m/boudica150_oc\boudica150_oc.c ****     char *data;
 469:d:/LiteOS_Lab/iot_link/oc/oc_lwm2m/boudica150_oc\boudica150_oc.c ****     int index_str;
 470:d:/LiteOS_Lab/iot_link/oc/oc_lwm2m/boudica150_oc\boudica150_oc.c ****     int ind;
 471:d:/LiteOS_Lab/iot_link/oc/oc_lwm2m/boudica150_oc\boudica150_oc.c **** 
 472:d:/LiteOS_Lab/iot_link/oc/oc_lwm2m/boudica150_oc\boudica150_oc.c ****     data = msg;
 1978              		.loc 1 472 10
 1979 000c BB68     		ldr	r3, [r7, #8]
 1980 000e FB61     		str	r3, [r7, #28]
 473:d:/LiteOS_Lab/iot_link/oc/oc_lwm2m/boudica150_oc\boudica150_oc.c ****     index_str = strlen(cn_urc_qlwevtind);
 1981              		.loc 1 473 15
 1982 0010 0D23     		movs	r3, #13
 1983 0012 BB61     		str	r3, [r7, #24]
 474:d:/LiteOS_Lab/iot_link/oc/oc_lwm2m/boudica150_oc\boudica150_oc.c **** 
 475:d:/LiteOS_Lab/iot_link/oc/oc_lwm2m/boudica150_oc\boudica150_oc.c ****     if(len > index_str)
 1984              		.loc 1 475 12
ARM GAS  C:\Users\ADMINI~1\AppData\Local\Temp\ccWbmWws.s 			page 45


 1985 0014 BB69     		ldr	r3, [r7, #24]
 1986              		.loc 1 475 7
 1987 0016 7A68     		ldr	r2, [r7, #4]
 1988 0018 9A42     		cmp	r2, r3
 1989 001a 26D9     		bls	.L109
 476:d:/LiteOS_Lab/iot_link/oc/oc_lwm2m/boudica150_oc\boudica150_oc.c ****     {
 477:d:/LiteOS_Lab/iot_link/oc/oc_lwm2m/boudica150_oc\boudica150_oc.c ****         ind = data[index_str]-'0';
 1990              		.loc 1 477 19
 1991 001c BB69     		ldr	r3, [r7, #24]
 1992 001e FA69     		ldr	r2, [r7, #28]
 1993 0020 1344     		add	r3, r3, r2
 1994 0022 1B78     		ldrb	r3, [r3]	@ zero_extendqisi2
 1995              		.loc 1 477 13
 1996 0024 303B     		subs	r3, r3, #48
 1997 0026 7B61     		str	r3, [r7, #20]
 478:d:/LiteOS_Lab/iot_link/oc/oc_lwm2m/boudica150_oc\boudica150_oc.c ****         LINK_LOG_DEBUG("GET THE LWM2M:ind:%d\n\r",ind);
 1998              		.loc 1 478 9
 1999 0028 FFF7FEFF 		bl	link_log_level_get
 2000 002c 0346     		mov	r3, r0
 2001 002e 012B     		cmp	r3, #1
 2002 0030 14D8     		bhi	.L110
 2003              		.loc 1 478 9 is_stmt 0 discriminator 1
 2004 0032 0120     		movs	r0, #1
 2005 0034 FFF7FEFF 		bl	link_log_level_name
 2006 0038 0446     		mov	r4, r0
 2007 003a FFF7FEFF 		bl	osal_sys_time
 2008 003e 0246     		mov	r2, r0
 2009 0040 0B46     		mov	r3, r1
 2010 0042 7B69     		ldr	r3, [r7, #20]
 2011 0044 0093     		str	r3, [sp]
 2012 0046 0B4B     		ldr	r3, .L112
 2013 0048 2146     		mov	r1, r4
 2014 004a 0B48     		ldr	r0, .L112+4
 2015 004c FFF7FEFF 		bl	printf
 2016 0050 0A4B     		ldr	r3, .L112+8
 2017 0052 1B68     		ldr	r3, [r3]
 2018 0054 9B68     		ldr	r3, [r3, #8]
 2019 0056 1846     		mov	r0, r3
 2020 0058 FFF7FEFF 		bl	fflush
 2021              	.L110:
 479:d:/LiteOS_Lab/iot_link/oc/oc_lwm2m/boudica150_oc\boudica150_oc.c ****         if(ind == 3)
 2022              		.loc 1 479 11 is_stmt 1
 2023 005c 7B69     		ldr	r3, [r7, #20]
 2024 005e 032B     		cmp	r3, #3
 2025 0060 03D1     		bne	.L109
 480:d:/LiteOS_Lab/iot_link/oc/oc_lwm2m/boudica150_oc\boudica150_oc.c ****         {
 481:d:/LiteOS_Lab/iot_link/oc/oc_lwm2m/boudica150_oc\boudica150_oc.c ****             s_boudica150_oc_cb.lwm2m_observe = true;
 2026              		.loc 1 481 46
 2027 0062 074B     		ldr	r3, .L112+12
 2028 0064 0122     		movs	r2, #1
 2029 0066 C3F85421 		str	r2, [r3, #340]
 2030              	.L109:
 482:d:/LiteOS_Lab/iot_link/oc/oc_lwm2m/boudica150_oc\boudica150_oc.c ****         }
 483:d:/LiteOS_Lab/iot_link/oc/oc_lwm2m/boudica150_oc\boudica150_oc.c ****     }
 484:d:/LiteOS_Lab/iot_link/oc/oc_lwm2m/boudica150_oc\boudica150_oc.c ****     return len;
 2031              		.loc 1 484 12
 2032 006a 7B68     		ldr	r3, [r7, #4]
ARM GAS  C:\Users\ADMINI~1\AppData\Local\Temp\ccWbmWws.s 			page 46


 485:d:/LiteOS_Lab/iot_link/oc/oc_lwm2m/boudica150_oc\boudica150_oc.c **** }
 2033              		.loc 1 485 1
 2034 006c 1846     		mov	r0, r3
 2035 006e 2437     		adds	r7, r7, #36
 2036              	.LCFI86:
 2037              		.cfi_def_cfa_offset 12
 2038 0070 BD46     		mov	sp, r7
 2039              	.LCFI87:
 2040              		.cfi_def_cfa_register 13
 2041              		@ sp needed
 2042 0072 90BD     		pop	{r4, r7, pc}
 2043              	.L113:
 2044              		.align	2
 2045              	.L112:
 2046 0074 00000000 		.word	__FUNCTION__.7177
 2047 0078 F8010000 		.word	.LC30
 2048 007c 00000000 		.word	_impure_ptr
 2049 0080 00000000 		.word	s_boudica150_oc_cb
 2050              		.cfi_endproc
 2051              	.LFE20:
 2053              		.section	.text.boudica150_check_observe,"ax",%progbits
 2054              		.align	1
 2055              		.syntax unified
 2056              		.thumb
 2057              		.thumb_func
 2058              		.fpu fpv4-sp-d16
 2060              	boudica150_check_observe:
 2061              	.LFB21:
 486:d:/LiteOS_Lab/iot_link/oc/oc_lwm2m/boudica150_oc\boudica150_oc.c **** 
 487:d:/LiteOS_Lab/iot_link/oc/oc_lwm2m/boudica150_oc\boudica150_oc.c **** 
 488:d:/LiteOS_Lab/iot_link/oc/oc_lwm2m/boudica150_oc\boudica150_oc.c **** //check the lwm2m server observed
 489:d:/LiteOS_Lab/iot_link/oc/oc_lwm2m/boudica150_oc\boudica150_oc.c **** static bool_t boudica150_check_observe(int time)  //unit second
 490:d:/LiteOS_Lab/iot_link/oc/oc_lwm2m/boudica150_oc\boudica150_oc.c **** {
 2062              		.loc 1 490 1
 2063              		.cfi_startproc
 2064              		@ args = 0, pretend = 0, frame = 16
 2065              		@ frame_needed = 1, uses_anonymous_args = 0
 2066 0000 80B5     		push	{r7, lr}
 2067              	.LCFI88:
 2068              		.cfi_def_cfa_offset 8
 2069              		.cfi_offset 7, -8
 2070              		.cfi_offset 14, -4
 2071 0002 84B0     		sub	sp, sp, #16
 2072              	.LCFI89:
 2073              		.cfi_def_cfa_offset 24
 2074 0004 00AF     		add	r7, sp, #0
 2075              	.LCFI90:
 2076              		.cfi_def_cfa_register 7
 2077 0006 7860     		str	r0, [r7, #4]
 491:d:/LiteOS_Lab/iot_link/oc/oc_lwm2m/boudica150_oc\boudica150_oc.c ****     //wait for the server observed
 492:d:/LiteOS_Lab/iot_link/oc/oc_lwm2m/boudica150_oc\boudica150_oc.c ****     bool_t ret = false;
 2078              		.loc 1 492 12
 2079 0008 0023     		movs	r3, #0
 2080 000a FB60     		str	r3, [r7, #12]
 493:d:/LiteOS_Lab/iot_link/oc/oc_lwm2m/boudica150_oc\boudica150_oc.c ****     int times;
 494:d:/LiteOS_Lab/iot_link/oc/oc_lwm2m/boudica150_oc\boudica150_oc.c **** 
 495:d:/LiteOS_Lab/iot_link/oc/oc_lwm2m/boudica150_oc\boudica150_oc.c ****     for(times =0;times <time;times++ )
ARM GAS  C:\Users\ADMINI~1\AppData\Local\Temp\ccWbmWws.s 			page 47


 2081              		.loc 1 495 15
 2082 000c 0023     		movs	r3, #0
 2083 000e BB60     		str	r3, [r7, #8]
 2084              		.loc 1 495 5
 2085 0010 0EE0     		b	.L115
 2086              	.L118:
 496:d:/LiteOS_Lab/iot_link/oc/oc_lwm2m/boudica150_oc\boudica150_oc.c ****     {
 497:d:/LiteOS_Lab/iot_link/oc/oc_lwm2m/boudica150_oc\boudica150_oc.c ****         if(s_boudica150_oc_cb.lwm2m_observe )
 2087              		.loc 1 497 30
 2088 0012 0C4B     		ldr	r3, .L120
 2089 0014 D3F85431 		ldr	r3, [r3, #340]
 2090              		.loc 1 497 11
 2091 0018 002B     		cmp	r3, #0
 2092 001a 02D0     		beq	.L116
 498:d:/LiteOS_Lab/iot_link/oc/oc_lwm2m/boudica150_oc\boudica150_oc.c ****         {
 499:d:/LiteOS_Lab/iot_link/oc/oc_lwm2m/boudica150_oc\boudica150_oc.c ****             ret = true;
 2093              		.loc 1 499 17
 2094 001c 0123     		movs	r3, #1
 2095 001e FB60     		str	r3, [r7, #12]
 500:d:/LiteOS_Lab/iot_link/oc/oc_lwm2m/boudica150_oc\boudica150_oc.c ****             break;
 2096              		.loc 1 500 13
 2097 0020 0AE0     		b	.L117
 2098              	.L116:
 501:d:/LiteOS_Lab/iot_link/oc/oc_lwm2m/boudica150_oc\boudica150_oc.c ****         }
 502:d:/LiteOS_Lab/iot_link/oc/oc_lwm2m/boudica150_oc\boudica150_oc.c ****         osal_task_sleep(1000);
 2099              		.loc 1 502 9 discriminator 2
 2100 0022 4FF47A70 		mov	r0, #1000
 2101 0026 FFF7FEFF 		bl	osal_task_sleep
 495:d:/LiteOS_Lab/iot_link/oc/oc_lwm2m/boudica150_oc\boudica150_oc.c ****     {
 2102              		.loc 1 495 35 discriminator 2
 2103 002a BB68     		ldr	r3, [r7, #8]
 2104 002c 0133     		adds	r3, r3, #1
 2105 002e BB60     		str	r3, [r7, #8]
 2106              	.L115:
 495:d:/LiteOS_Lab/iot_link/oc/oc_lwm2m/boudica150_oc\boudica150_oc.c ****     {
 2107              		.loc 1 495 5 discriminator 1
 2108 0030 BA68     		ldr	r2, [r7, #8]
 2109 0032 7B68     		ldr	r3, [r7, #4]
 2110 0034 9A42     		cmp	r2, r3
 2111 0036 ECDB     		blt	.L118
 2112              	.L117:
 503:d:/LiteOS_Lab/iot_link/oc/oc_lwm2m/boudica150_oc\boudica150_oc.c ****     }
 504:d:/LiteOS_Lab/iot_link/oc/oc_lwm2m/boudica150_oc\boudica150_oc.c **** 
 505:d:/LiteOS_Lab/iot_link/oc/oc_lwm2m/boudica150_oc\boudica150_oc.c ****     return ret;
 2113              		.loc 1 505 12
 2114 0038 FB68     		ldr	r3, [r7, #12]
 506:d:/LiteOS_Lab/iot_link/oc/oc_lwm2m/boudica150_oc\boudica150_oc.c **** }
 2115              		.loc 1 506 1
 2116 003a 1846     		mov	r0, r3
 2117 003c 1037     		adds	r7, r7, #16
 2118              	.LCFI91:
 2119              		.cfi_def_cfa_offset 8
 2120 003e BD46     		mov	sp, r7
 2121              	.LCFI92:
 2122              		.cfi_def_cfa_register 13
 2123              		@ sp needed
 2124 0040 80BD     		pop	{r7, pc}
ARM GAS  C:\Users\ADMINI~1\AppData\Local\Temp\ccWbmWws.s 			page 48


 2125              	.L121:
 2126 0042 00BF     		.align	2
 2127              	.L120:
 2128 0044 00000000 		.word	s_boudica150_oc_cb
 2129              		.cfi_endproc
 2130              	.LFE21:
 2132              		.section	.rodata
 2133 021e 0000     		.align	2
 2134              	.LC31:
 2135 0220 43474154 		.ascii	"CGATT:1\000"
 2135      543A3100 
 2136              		.align	2
 2137              	.LC32:
 2138 0228 41542B43 		.ascii	"AT+CGATT?\015\000"
 2138      47415454 
 2138      3F0D00
 2139              		.section	.text.boudica150_check_netattach,"ax",%progbits
 2140              		.align	1
 2141              		.syntax unified
 2142              		.thumb
 2143              		.thumb_func
 2144              		.fpu fpv4-sp-d16
 2146              	boudica150_check_netattach:
 2147              	.LFB22:
 507:d:/LiteOS_Lab/iot_link/oc/oc_lwm2m/boudica150_oc\boudica150_oc.c **** 
 508:d:/LiteOS_Lab/iot_link/oc/oc_lwm2m/boudica150_oc\boudica150_oc.c **** //check if attached to the network
 509:d:/LiteOS_Lab/iot_link/oc/oc_lwm2m/boudica150_oc\boudica150_oc.c **** static bool_t boudica150_check_netattach(int time)  //unit second
 510:d:/LiteOS_Lab/iot_link/oc/oc_lwm2m/boudica150_oc\boudica150_oc.c **** {
 2148              		.loc 1 510 1
 2149              		.cfi_startproc
 2150              		@ args = 0, pretend = 0, frame = 16
 2151              		@ frame_needed = 1, uses_anonymous_args = 0
 2152 0000 80B5     		push	{r7, lr}
 2153              	.LCFI93:
 2154              		.cfi_def_cfa_offset 8
 2155              		.cfi_offset 7, -8
 2156              		.cfi_offset 14, -4
 2157 0002 84B0     		sub	sp, sp, #16
 2158              	.LCFI94:
 2159              		.cfi_def_cfa_offset 24
 2160 0004 00AF     		add	r7, sp, #0
 2161              	.LCFI95:
 2162              		.cfi_def_cfa_register 7
 2163 0006 7860     		str	r0, [r7, #4]
 511:d:/LiteOS_Lab/iot_link/oc/oc_lwm2m/boudica150_oc\boudica150_oc.c ****     //wait for the server observed
 512:d:/LiteOS_Lab/iot_link/oc/oc_lwm2m/boudica150_oc\boudica150_oc.c ****     bool_t ret = false;
 2164              		.loc 1 512 12
 2165 0008 0023     		movs	r3, #0
 2166 000a FB60     		str	r3, [r7, #12]
 513:d:/LiteOS_Lab/iot_link/oc/oc_lwm2m/boudica150_oc\boudica150_oc.c ****     int times;
 514:d:/LiteOS_Lab/iot_link/oc/oc_lwm2m/boudica150_oc\boudica150_oc.c **** 
 515:d:/LiteOS_Lab/iot_link/oc/oc_lwm2m/boudica150_oc\boudica150_oc.c ****     for(times =0;times <time;times++ )
 2167              		.loc 1 515 15
 2168 000c 0023     		movs	r3, #0
 2169 000e BB60     		str	r3, [r7, #8]
 2170              		.loc 1 515 5
 2171 0010 10E0     		b	.L123
ARM GAS  C:\Users\ADMINI~1\AppData\Local\Temp\ccWbmWws.s 			page 49


 2172              	.L126:
 516:d:/LiteOS_Lab/iot_link/oc/oc_lwm2m/boudica150_oc\boudica150_oc.c ****     {
 517:d:/LiteOS_Lab/iot_link/oc/oc_lwm2m/boudica150_oc\boudica150_oc.c ****         if(boudica150_atcmd("AT+CGATT?\r", "CGATT:1"))
 2173              		.loc 1 517 12
 2174 0012 0D49     		ldr	r1, .L128
 2175 0014 0D48     		ldr	r0, .L128+4
 2176 0016 FFF7FEFF 		bl	boudica150_atcmd
 2177 001a 0346     		mov	r3, r0
 2178              		.loc 1 517 11
 2179 001c 002B     		cmp	r3, #0
 2180 001e 02D0     		beq	.L124
 518:d:/LiteOS_Lab/iot_link/oc/oc_lwm2m/boudica150_oc\boudica150_oc.c ****         {
 519:d:/LiteOS_Lab/iot_link/oc/oc_lwm2m/boudica150_oc\boudica150_oc.c ****             ret = true;
 2181              		.loc 1 519 17
 2182 0020 0123     		movs	r3, #1
 2183 0022 FB60     		str	r3, [r7, #12]
 520:d:/LiteOS_Lab/iot_link/oc/oc_lwm2m/boudica150_oc\boudica150_oc.c ****             break;
 2184              		.loc 1 520 13
 2185 0024 0AE0     		b	.L125
 2186              	.L124:
 521:d:/LiteOS_Lab/iot_link/oc/oc_lwm2m/boudica150_oc\boudica150_oc.c ****         }
 522:d:/LiteOS_Lab/iot_link/oc/oc_lwm2m/boudica150_oc\boudica150_oc.c ****         osal_task_sleep(1000);
 2187              		.loc 1 522 9 discriminator 2
 2188 0026 4FF47A70 		mov	r0, #1000
 2189 002a FFF7FEFF 		bl	osal_task_sleep
 515:d:/LiteOS_Lab/iot_link/oc/oc_lwm2m/boudica150_oc\boudica150_oc.c ****     {
 2190              		.loc 1 515 35 discriminator 2
 2191 002e BB68     		ldr	r3, [r7, #8]
 2192 0030 0133     		adds	r3, r3, #1
 2193 0032 BB60     		str	r3, [r7, #8]
 2194              	.L123:
 515:d:/LiteOS_Lab/iot_link/oc/oc_lwm2m/boudica150_oc\boudica150_oc.c ****     {
 2195              		.loc 1 515 5 discriminator 1
 2196 0034 BA68     		ldr	r2, [r7, #8]
 2197 0036 7B68     		ldr	r3, [r7, #4]
 2198 0038 9A42     		cmp	r2, r3
 2199 003a EADB     		blt	.L126
 2200              	.L125:
 523:d:/LiteOS_Lab/iot_link/oc/oc_lwm2m/boudica150_oc\boudica150_oc.c ****     }
 524:d:/LiteOS_Lab/iot_link/oc/oc_lwm2m/boudica150_oc\boudica150_oc.c **** 
 525:d:/LiteOS_Lab/iot_link/oc/oc_lwm2m/boudica150_oc\boudica150_oc.c ****     return ret;
 2201              		.loc 1 525 12
 2202 003c FB68     		ldr	r3, [r7, #12]
 526:d:/LiteOS_Lab/iot_link/oc/oc_lwm2m/boudica150_oc\boudica150_oc.c **** }
 2203              		.loc 1 526 1
 2204 003e 1846     		mov	r0, r3
 2205 0040 1037     		adds	r7, r7, #16
 2206              	.LCFI96:
 2207              		.cfi_def_cfa_offset 8
 2208 0042 BD46     		mov	sp, r7
 2209              	.LCFI97:
 2210              		.cfi_def_cfa_register 13
 2211              		@ sp needed
 2212 0044 80BD     		pop	{r7, pc}
 2213              	.L129:
 2214 0046 00BF     		.align	2
 2215              	.L128:
ARM GAS  C:\Users\ADMINI~1\AppData\Local\Temp\ccWbmWws.s 			page 50


 2216 0048 20020000 		.word	.LC31
 2217 004c 28020000 		.word	.LC32
 2218              		.cfi_endproc
 2219              	.LFE22:
 2221              		.section	.rodata
 2222 0233 00       		.align	2
 2223              	.LC33:
 2224 0234 4155544F 		.ascii	"AUTOCONNECT,TRUE\000"
 2224      434F4E4E 
 2224      4543542C 
 2224      54525545 
 2224      00
 2225 0245 000000   		.align	2
 2226              	.LC34:
 2227 0248 4155544F 		.ascii	"AUTOCONNECT,FALSE\000"
 2227      434F4E4E 
 2227      4543542C 
 2227      46414C53 
 2227      4500
 2228 025a 0000     		.align	2
 2229              	.LC35:
 2230 025c 2B4E434F 		.ascii	"+NCONFIG\000"
 2230      4E464947 
 2230      00
 2231 0265 000000   		.align	2
 2232              	.LC36:
 2233 0268 41542B4E 		.ascii	"AT+NCONFIG?\015\000"
 2233      434F4E46 
 2233      49473F0D 
 2233      00
 2234 0275 000000   		.align	2
 2235              	.LC37:
 2236 0278 41542B4E 		.ascii	"AT+NCONFIG=%s\015\000"
 2236      434F4E46 
 2236      49473D25 
 2236      730D00
 2237              		.section	.text.boudica150_set_autoconnect,"ax",%progbits
 2238              		.align	1
 2239              		.syntax unified
 2240              		.thumb
 2241              		.thumb_func
 2242              		.fpu fpv4-sp-d16
 2244              	boudica150_set_autoconnect:
 2245              	.LFB23:
 527:d:/LiteOS_Lab/iot_link/oc/oc_lwm2m/boudica150_oc\boudica150_oc.c **** 
 528:d:/LiteOS_Lab/iot_link/oc/oc_lwm2m/boudica150_oc\boudica150_oc.c **** //set the autoconfig mode
 529:d:/LiteOS_Lab/iot_link/oc/oc_lwm2m/boudica150_oc\boudica150_oc.c **** static bool_t boudica150_set_autoconnect(int enable)
 530:d:/LiteOS_Lab/iot_link/oc/oc_lwm2m/boudica150_oc\boudica150_oc.c **** {
 2246              		.loc 1 530 1
 2247              		.cfi_startproc
 2248              		@ args = 0, pretend = 0, frame = 144
 2249              		@ frame_needed = 1, uses_anonymous_args = 0
 2250 0000 80B5     		push	{r7, lr}
 2251              	.LCFI98:
 2252              		.cfi_def_cfa_offset 8
 2253              		.cfi_offset 7, -8
 2254              		.cfi_offset 14, -4
ARM GAS  C:\Users\ADMINI~1\AppData\Local\Temp\ccWbmWws.s 			page 51


 2255 0002 A4B0     		sub	sp, sp, #144
 2256              	.LCFI99:
 2257              		.cfi_def_cfa_offset 152
 2258 0004 00AF     		add	r7, sp, #0
 2259              	.LCFI100:
 2260              		.cfi_def_cfa_register 7
 2261 0006 7860     		str	r0, [r7, #4]
 531:d:/LiteOS_Lab/iot_link/oc/oc_lwm2m/boudica150_oc\boudica150_oc.c ****     char cmd[64];
 532:d:/LiteOS_Lab/iot_link/oc/oc_lwm2m/boudica150_oc\boudica150_oc.c ****     char resp[64];
 533:d:/LiteOS_Lab/iot_link/oc/oc_lwm2m/boudica150_oc\boudica150_oc.c ****     bool_t ret = true;
 2262              		.loc 1 533 12
 2263 0008 0123     		movs	r3, #1
 2264 000a C7F88C30 		str	r3, [r7, #140]
 534:d:/LiteOS_Lab/iot_link/oc/oc_lwm2m/boudica150_oc\boudica150_oc.c ****     const char *mode;
 535:d:/LiteOS_Lab/iot_link/oc/oc_lwm2m/boudica150_oc\boudica150_oc.c **** 
 536:d:/LiteOS_Lab/iot_link/oc/oc_lwm2m/boudica150_oc\boudica150_oc.c ****     if(enable)
 2265              		.loc 1 536 7
 2266 000e 7B68     		ldr	r3, [r7, #4]
 2267 0010 002B     		cmp	r3, #0
 2268 0012 03D0     		beq	.L131
 537:d:/LiteOS_Lab/iot_link/oc/oc_lwm2m/boudica150_oc\boudica150_oc.c ****     {
 538:d:/LiteOS_Lab/iot_link/oc/oc_lwm2m/boudica150_oc\boudica150_oc.c ****         mode = "AUTOCONNECT,TRUE";
 2269              		.loc 1 538 14
 2270 0014 234B     		ldr	r3, .L137
 2271 0016 C7F88830 		str	r3, [r7, #136]
 2272 001a 02E0     		b	.L132
 2273              	.L131:
 539:d:/LiteOS_Lab/iot_link/oc/oc_lwm2m/boudica150_oc\boudica150_oc.c ****     }
 540:d:/LiteOS_Lab/iot_link/oc/oc_lwm2m/boudica150_oc\boudica150_oc.c ****     else
 541:d:/LiteOS_Lab/iot_link/oc/oc_lwm2m/boudica150_oc\boudica150_oc.c ****     {
 542:d:/LiteOS_Lab/iot_link/oc/oc_lwm2m/boudica150_oc\boudica150_oc.c ****         mode = "AUTOCONNECT,FALSE";
 2274              		.loc 1 542 14
 2275 001c 224B     		ldr	r3, .L137+4
 2276 001e C7F88830 		str	r3, [r7, #136]
 2277              	.L132:
 543:d:/LiteOS_Lab/iot_link/oc/oc_lwm2m/boudica150_oc\boudica150_oc.c ****     }
 544:d:/LiteOS_Lab/iot_link/oc/oc_lwm2m/boudica150_oc\boudica150_oc.c **** 
 545:d:/LiteOS_Lab/iot_link/oc/oc_lwm2m/boudica150_oc\boudica150_oc.c ****     (void) memset(resp,0,64);
 2278              		.loc 1 545 12
 2279 0022 07F10803 		add	r3, r7, #8
 2280 0026 4022     		movs	r2, #64
 2281 0028 0021     		movs	r1, #0
 2282 002a 1846     		mov	r0, r3
 2283 002c FFF7FEFF 		bl	memset
 546:d:/LiteOS_Lab/iot_link/oc/oc_lwm2m/boudica150_oc\boudica150_oc.c ****     ret = boudica150_atcmd_response("AT+NCONFIG?\r","+NCONFIG",resp,64);
 2284              		.loc 1 546 11
 2285 0030 07F10802 		add	r2, r7, #8
 2286 0034 4023     		movs	r3, #64
 2287 0036 1D49     		ldr	r1, .L137+8
 2288 0038 1D48     		ldr	r0, .L137+12
 2289 003a FFF7FEFF 		bl	boudica150_atcmd_response
 2290 003e C7F88C00 		str	r0, [r7, #140]
 547:d:/LiteOS_Lab/iot_link/oc/oc_lwm2m/boudica150_oc\boudica150_oc.c ****     if((false == ret)||(NULL == strstr(resp,mode)))//which means we need to set it
 2291              		.loc 1 547 7
 2292 0042 D7F88C30 		ldr	r3, [r7, #140]
 2293 0046 002B     		cmp	r3, #0
 2294 0048 09D0     		beq	.L133
ARM GAS  C:\Users\ADMINI~1\AppData\Local\Temp\ccWbmWws.s 			page 52


 2295              		.loc 1 547 33 discriminator 1
 2296 004a 07F10803 		add	r3, r7, #8
 2297 004e D7F88810 		ldr	r1, [r7, #136]
 2298 0052 1846     		mov	r0, r3
 2299 0054 FFF7FEFF 		bl	strstr
 2300 0058 0346     		mov	r3, r0
 2301              		.loc 1 547 22 discriminator 1
 2302 005a 002B     		cmp	r3, #0
 2303 005c 19D1     		bne	.L134
 2304              	.L133:
 548:d:/LiteOS_Lab/iot_link/oc/oc_lwm2m/boudica150_oc\boudica150_oc.c ****     {
 549:d:/LiteOS_Lab/iot_link/oc/oc_lwm2m/boudica150_oc\boudica150_oc.c ****         (void) memset(cmd,0,64);
 2305              		.loc 1 549 16
 2306 005e 07F14803 		add	r3, r7, #72
 2307 0062 4022     		movs	r2, #64
 2308 0064 0021     		movs	r1, #0
 2309 0066 1846     		mov	r0, r3
 2310 0068 FFF7FEFF 		bl	memset
 550:d:/LiteOS_Lab/iot_link/oc/oc_lwm2m/boudica150_oc\boudica150_oc.c ****         (void) snprintf(cmd,64,"AT+NCONFIG=%s\r",mode);
 2311              		.loc 1 550 16
 2312 006c 07F14800 		add	r0, r7, #72
 2313 0070 D7F88830 		ldr	r3, [r7, #136]
 2314 0074 0F4A     		ldr	r2, .L137+16
 2315 0076 4021     		movs	r1, #64
 2316 0078 FFF7FEFF 		bl	snprintf
 551:d:/LiteOS_Lab/iot_link/oc/oc_lwm2m/boudica150_oc\boudica150_oc.c ****         ret = boudica150_atcmd(cmd,"OK");
 2317              		.loc 1 551 15
 2318 007c 07F14803 		add	r3, r7, #72
 2319 0080 0D49     		ldr	r1, .L137+20
 2320 0082 1846     		mov	r0, r3
 2321 0084 FFF7FEFF 		bl	boudica150_atcmd
 2322 0088 C7F88C00 		str	r0, [r7, #140]
 552:d:/LiteOS_Lab/iot_link/oc/oc_lwm2m/boudica150_oc\boudica150_oc.c **** 
 553:d:/LiteOS_Lab/iot_link/oc/oc_lwm2m/boudica150_oc\boudica150_oc.c ****         boudica150_reboot();
 2323              		.loc 1 553 9
 2324 008c FFF7FEFF 		bl	boudica150_reboot
 2325 0090 02E0     		b	.L135
 2326              	.L134:
 554:d:/LiteOS_Lab/iot_link/oc/oc_lwm2m/boudica150_oc\boudica150_oc.c ****     }
 555:d:/LiteOS_Lab/iot_link/oc/oc_lwm2m/boudica150_oc\boudica150_oc.c ****     else
 556:d:/LiteOS_Lab/iot_link/oc/oc_lwm2m/boudica150_oc\boudica150_oc.c ****     {
 557:d:/LiteOS_Lab/iot_link/oc/oc_lwm2m/boudica150_oc\boudica150_oc.c ****         ret = true;  //we need not to set
 2327              		.loc 1 557 13
 2328 0092 0123     		movs	r3, #1
 2329 0094 C7F88C30 		str	r3, [r7, #140]
 2330              	.L135:
 558:d:/LiteOS_Lab/iot_link/oc/oc_lwm2m/boudica150_oc\boudica150_oc.c ****     }
 559:d:/LiteOS_Lab/iot_link/oc/oc_lwm2m/boudica150_oc\boudica150_oc.c **** 
 560:d:/LiteOS_Lab/iot_link/oc/oc_lwm2m/boudica150_oc\boudica150_oc.c ****     return ret;
 2331              		.loc 1 560 12
 2332 0098 D7F88C30 		ldr	r3, [r7, #140]
 561:d:/LiteOS_Lab/iot_link/oc/oc_lwm2m/boudica150_oc\boudica150_oc.c **** }
 2333              		.loc 1 561 1
 2334 009c 1846     		mov	r0, r3
 2335 009e 9037     		adds	r7, r7, #144
 2336              	.LCFI101:
 2337              		.cfi_def_cfa_offset 8
ARM GAS  C:\Users\ADMINI~1\AppData\Local\Temp\ccWbmWws.s 			page 53


 2338 00a0 BD46     		mov	sp, r7
 2339              	.LCFI102:
 2340              		.cfi_def_cfa_register 13
 2341              		@ sp needed
 2342 00a2 80BD     		pop	{r7, pc}
 2343              	.L138:
 2344              		.align	2
 2345              	.L137:
 2346 00a4 34020000 		.word	.LC33
 2347 00a8 48020000 		.word	.LC34
 2348 00ac 5C020000 		.word	.LC35
 2349 00b0 68020000 		.word	.LC36
 2350 00b4 78020000 		.word	.LC37
 2351 00b8 14000000 		.word	.LC2
 2352              		.cfi_endproc
 2353              	.LFE23:
 2355              		.section	.rodata
 2356 0287 00       		.align	2
 2357              	.LC38:
 2358 0288 0D0A2B51 		.ascii	"\015\012+QLWEVTIND:\000"
 2358      4C574556 
 2358      54494E44 
 2358      3A00
 2359 0296 0000     		.align	2
 2360              	.LC39:
 2361 0298 716C7765 		.ascii	"qlwevind\000"
 2361      76696E64 
 2361      00
 2362 02a1 000000   		.align	2
 2363              	.LC40:
 2364 02a4 0D0A2B4E 		.ascii	"\015\012+NNMI:\000"
 2364      4E4D493A 
 2364      00
 2365 02ad 000000   		.align	2
 2366              	.LC41:
 2367 02b0 626F7564 		.ascii	"boudica150rcv\000"
 2367      69636131 
 2367      35307263 
 2367      7600
 2368 02be 0000     		.align	2
 2369              	.LC42:
 2370 02c0 5B25735D 		.ascii	"[%s][%u][%s] NB MODULE RXTX READY NOW\012\015\015\012"
 2370      5B25755D 
 2370      5B25735D 
 2370      204E4220 
 2370      4D4F4455 
 2371 02e9 00       		.ascii	"\000"
 2372              		.section	.text.boudica150_boot,"ax",%progbits
 2373              		.align	1
 2374              		.syntax unified
 2375              		.thumb
 2376              		.thumb_func
 2377              		.fpu fpv4-sp-d16
 2379              	boudica150_boot:
 2380              	.LFB24:
 562:d:/LiteOS_Lab/iot_link/oc/oc_lwm2m/boudica150_oc\boudica150_oc.c **** 
 563:d:/LiteOS_Lab/iot_link/oc/oc_lwm2m/boudica150_oc\boudica150_oc.c **** //use this function to set the band,which corresponding with YUNYINGSHANG AND MOZU
ARM GAS  C:\Users\ADMINI~1\AppData\Local\Temp\ccWbmWws.s 			page 54


 564:d:/LiteOS_Lab/iot_link/oc/oc_lwm2m/boudica150_oc\boudica150_oc.c **** static bool_t boudica150_boot(const char *plmn, const char *apn, const char *bands,const char *serv
 565:d:/LiteOS_Lab/iot_link/oc/oc_lwm2m/boudica150_oc\boudica150_oc.c **** {
 2381              		.loc 1 565 1
 2382              		.cfi_startproc
 2383              		@ args = 4, pretend = 0, frame = 16
 2384              		@ frame_needed = 1, uses_anonymous_args = 0
 2385 0000 90B5     		push	{r4, r7, lr}
 2386              	.LCFI103:
 2387              		.cfi_def_cfa_offset 12
 2388              		.cfi_offset 4, -12
 2389              		.cfi_offset 7, -8
 2390              		.cfi_offset 14, -4
 2391 0002 87B0     		sub	sp, sp, #28
 2392              	.LCFI104:
 2393              		.cfi_def_cfa_offset 40
 2394 0004 02AF     		add	r7, sp, #8
 2395              	.LCFI105:
 2396              		.cfi_def_cfa 7, 32
 2397 0006 F860     		str	r0, [r7, #12]
 2398 0008 B960     		str	r1, [r7, #8]
 2399 000a 7A60     		str	r2, [r7, #4]
 2400 000c 3B60     		str	r3, [r7]
 566:d:/LiteOS_Lab/iot_link/oc/oc_lwm2m/boudica150_oc\boudica150_oc.c ****     //(void) memset(&s_boudica150_oc_cb,0,sizeof(s_boudica150_oc_cb));
 567:d:/LiteOS_Lab/iot_link/oc/oc_lwm2m/boudica150_oc\boudica150_oc.c ****     at_oobregister("qlwevind",cn_urc_qlwevtind,strlen(cn_urc_qlwevtind),urc_qlwevtind,NULL);
 2401              		.loc 1 567 5
 2402 000e 0023     		movs	r3, #0
 2403 0010 0093     		str	r3, [sp]
 2404 0012 334B     		ldr	r3, .L149
 2405 0014 0D22     		movs	r2, #13
 2406 0016 3349     		ldr	r1, .L149+4
 2407 0018 3348     		ldr	r0, .L149+8
 2408 001a FFF7FEFF 		bl	at_oobregister
 568:d:/LiteOS_Lab/iot_link/oc/oc_lwm2m/boudica150_oc\boudica150_oc.c ****     at_oobregister("boudica150rcv",cn_boudica150_rcvindex,strlen(cn_boudica150_rcvindex),boudica150
 2409              		.loc 1 568 5
 2410 001e 0023     		movs	r3, #0
 2411 0020 0093     		str	r3, [sp]
 2412 0022 324B     		ldr	r3, .L149+12
 2413 0024 0822     		movs	r2, #8
 2414 0026 3249     		ldr	r1, .L149+16
 2415 0028 3248     		ldr	r0, .L149+20
 2416 002a FFF7FEFF 		bl	at_oobregister
 2417              	.L144:
 569:d:/LiteOS_Lab/iot_link/oc/oc_lwm2m/boudica150_oc\boudica150_oc.c **** 
 570:d:/LiteOS_Lab/iot_link/oc/oc_lwm2m/boudica150_oc\boudica150_oc.c ****     while(1)
 571:d:/LiteOS_Lab/iot_link/oc/oc_lwm2m/boudica150_oc\boudica150_oc.c ****     {
 572:d:/LiteOS_Lab/iot_link/oc/oc_lwm2m/boudica150_oc\boudica150_oc.c **** 
 573:d:/LiteOS_Lab/iot_link/oc/oc_lwm2m/boudica150_oc\boudica150_oc.c ****         s_boudica150_oc_cb.lwm2m_observe = false;
 2418              		.loc 1 573 42
 2419 002e 324B     		ldr	r3, .L149+24
 2420 0030 0022     		movs	r2, #0
 2421 0032 C3F85421 		str	r2, [r3, #340]
 574:d:/LiteOS_Lab/iot_link/oc/oc_lwm2m/boudica150_oc\boudica150_oc.c **** 
 575:d:/LiteOS_Lab/iot_link/oc/oc_lwm2m/boudica150_oc\boudica150_oc.c ****         boudica150_reboot();
 2422              		.loc 1 575 9
 2423 0036 FFF7FEFF 		bl	boudica150_reboot
 576:d:/LiteOS_Lab/iot_link/oc/oc_lwm2m/boudica150_oc\boudica150_oc.c **** 
 577:d:/LiteOS_Lab/iot_link/oc/oc_lwm2m/boudica150_oc\boudica150_oc.c ****         boudica150_set_echo (0);
ARM GAS  C:\Users\ADMINI~1\AppData\Local\Temp\ccWbmWws.s 			page 55


 2424              		.loc 1 577 9
 2425 003a 0020     		movs	r0, #0
 2426 003c FFF7FEFF 		bl	boudica150_set_echo
 578:d:/LiteOS_Lab/iot_link/oc/oc_lwm2m/boudica150_oc\boudica150_oc.c **** 
 579:d:/LiteOS_Lab/iot_link/oc/oc_lwm2m/boudica150_oc\boudica150_oc.c ****         boudica150_set_regmode(1);
 2427              		.loc 1 579 9
 2428 0040 0120     		movs	r0, #1
 2429 0042 FFF7FEFF 		bl	boudica150_set_regmode
 580:d:/LiteOS_Lab/iot_link/oc/oc_lwm2m/boudica150_oc\boudica150_oc.c **** 
 581:d:/LiteOS_Lab/iot_link/oc/oc_lwm2m/boudica150_oc\boudica150_oc.c ****         boudica150_set_cmee(1);
 2430              		.loc 1 581 9
 2431 0046 0120     		movs	r0, #1
 2432 0048 FFF7FEFF 		bl	boudica150_set_cmee
 582:d:/LiteOS_Lab/iot_link/oc/oc_lwm2m/boudica150_oc\boudica150_oc.c **** 
 583:d:/LiteOS_Lab/iot_link/oc/oc_lwm2m/boudica150_oc\boudica150_oc.c ****         boudica150_set_autoconnect(0);     //cgatt and cfun must be called if autoconnect is false
 2433              		.loc 1 583 9
 2434 004c 0020     		movs	r0, #0
 2435 004e FFF7FEFF 		bl	boudica150_set_autoconnect
 584:d:/LiteOS_Lab/iot_link/oc/oc_lwm2m/boudica150_oc\boudica150_oc.c **** 
 585:d:/LiteOS_Lab/iot_link/oc/oc_lwm2m/boudica150_oc\boudica150_oc.c ****         boudica150_set_bands(bands);
 2436              		.loc 1 585 9
 2437 0052 7868     		ldr	r0, [r7, #4]
 2438 0054 FFF7FEFF 		bl	boudica150_set_bands
 586:d:/LiteOS_Lab/iot_link/oc/oc_lwm2m/boudica150_oc\boudica150_oc.c **** 
 587:d:/LiteOS_Lab/iot_link/oc/oc_lwm2m/boudica150_oc\boudica150_oc.c ****         boudica150_set_fun(1);
 2439              		.loc 1 587 9
 2440 0058 0120     		movs	r0, #1
 2441 005a FFF7FEFF 		bl	boudica150_set_fun
 588:d:/LiteOS_Lab/iot_link/oc/oc_lwm2m/boudica150_oc\boudica150_oc.c **** 
 589:d:/LiteOS_Lab/iot_link/oc/oc_lwm2m/boudica150_oc\boudica150_oc.c ****         boudica150_set_plmn(plmn);
 2442              		.loc 1 589 9
 2443 005e F868     		ldr	r0, [r7, #12]
 2444 0060 FFF7FEFF 		bl	boudica150_set_plmn
 590:d:/LiteOS_Lab/iot_link/oc/oc_lwm2m/boudica150_oc\boudica150_oc.c **** 
 591:d:/LiteOS_Lab/iot_link/oc/oc_lwm2m/boudica150_oc\boudica150_oc.c ****         boudica150_set_apn(apn);
 2445              		.loc 1 591 9
 2446 0064 B868     		ldr	r0, [r7, #8]
 2447 0066 FFF7FEFF 		bl	boudica150_set_apn
 592:d:/LiteOS_Lab/iot_link/oc/oc_lwm2m/boudica150_oc\boudica150_oc.c **** 
 593:d:/LiteOS_Lab/iot_link/oc/oc_lwm2m/boudica150_oc\boudica150_oc.c ****         boudica150_set_cdp(server,port);
 2448              		.loc 1 593 9
 2449 006a 396A     		ldr	r1, [r7, #32]
 2450 006c 3868     		ldr	r0, [r7]
 2451 006e FFF7FEFF 		bl	boudica150_set_cdp
 594:d:/LiteOS_Lab/iot_link/oc/oc_lwm2m/boudica150_oc\boudica150_oc.c **** 
 595:d:/LiteOS_Lab/iot_link/oc/oc_lwm2m/boudica150_oc\boudica150_oc.c ****         boudica150_set_cgatt(1);
 2452              		.loc 1 595 9
 2453 0072 0120     		movs	r0, #1
 2454 0074 FFF7FEFF 		bl	boudica150_set_cgatt
 596:d:/LiteOS_Lab/iot_link/oc/oc_lwm2m/boudica150_oc\boudica150_oc.c **** 
 597:d:/LiteOS_Lab/iot_link/oc/oc_lwm2m/boudica150_oc\boudica150_oc.c ****         boudica150_set_nnmi(1);
 2455              		.loc 1 597 9
 2456 0078 0120     		movs	r0, #1
 2457 007a FFF7FEFF 		bl	boudica150_set_nnmi
 598:d:/LiteOS_Lab/iot_link/oc/oc_lwm2m/boudica150_oc\boudica150_oc.c **** 
 599:d:/LiteOS_Lab/iot_link/oc/oc_lwm2m/boudica150_oc\boudica150_oc.c ****         if(false == boudica150_check_netattach(16))
 2458              		.loc 1 599 21
ARM GAS  C:\Users\ADMINI~1\AppData\Local\Temp\ccWbmWws.s 			page 56


 2459 007e 1020     		movs	r0, #16
 2460 0080 FFF7FEFF 		bl	boudica150_check_netattach
 2461 0084 0346     		mov	r3, r0
 2462              		.loc 1 599 11
 2463 0086 002B     		cmp	r3, #0
 2464 0088 06D0     		beq	.L147
 600:d:/LiteOS_Lab/iot_link/oc/oc_lwm2m/boudica150_oc\boudica150_oc.c ****         {
 601:d:/LiteOS_Lab/iot_link/oc/oc_lwm2m/boudica150_oc\boudica150_oc.c ****             continue;
 602:d:/LiteOS_Lab/iot_link/oc/oc_lwm2m/boudica150_oc\boudica150_oc.c ****         }
 603:d:/LiteOS_Lab/iot_link/oc/oc_lwm2m/boudica150_oc\boudica150_oc.c **** 
 604:d:/LiteOS_Lab/iot_link/oc/oc_lwm2m/boudica150_oc\boudica150_oc.c ****         if(false == boudica150_check_observe(16)) //TODO--maybe this only compatible with QUETEL MO
 2465              		.loc 1 604 21
 2466 008a 1020     		movs	r0, #16
 2467 008c FFF7FEFF 		bl	boudica150_check_observe
 2468 0090 0346     		mov	r3, r0
 2469              		.loc 1 604 11
 2470 0092 002B     		cmp	r3, #0
 2471 0094 02D1     		bne	.L148
 605:d:/LiteOS_Lab/iot_link/oc/oc_lwm2m/boudica150_oc\boudica150_oc.c ****         {
 606:d:/LiteOS_Lab/iot_link/oc/oc_lwm2m/boudica150_oc\boudica150_oc.c ****             continue; //we should do the reboot for the nB
 2472              		.loc 1 606 13
 2473 0096 00E0     		b	.L141
 2474              	.L147:
 601:d:/LiteOS_Lab/iot_link/oc/oc_lwm2m/boudica150_oc\boudica150_oc.c ****         }
 2475              		.loc 1 601 13
 2476 0098 00BF     		nop
 2477              	.L141:
 573:d:/LiteOS_Lab/iot_link/oc/oc_lwm2m/boudica150_oc\boudica150_oc.c **** 
 2478              		.loc 1 573 42
 2479 009a C8E7     		b	.L144
 2480              	.L148:
 607:d:/LiteOS_Lab/iot_link/oc/oc_lwm2m/boudica150_oc\boudica150_oc.c ****         }
 608:d:/LiteOS_Lab/iot_link/oc/oc_lwm2m/boudica150_oc\boudica150_oc.c **** 
 609:d:/LiteOS_Lab/iot_link/oc/oc_lwm2m/boudica150_oc\boudica150_oc.c ****         break;
 2481              		.loc 1 609 9
 2482 009c 00BF     		nop
 610:d:/LiteOS_Lab/iot_link/oc/oc_lwm2m/boudica150_oc\boudica150_oc.c ****     }
 611:d:/LiteOS_Lab/iot_link/oc/oc_lwm2m/boudica150_oc\boudica150_oc.c ****    //reach here means everything is ok, we can go now
 612:d:/LiteOS_Lab/iot_link/oc/oc_lwm2m/boudica150_oc\boudica150_oc.c ****     s_boudica150_oc_cb.sndenable = true;
 2483              		.loc 1 612 34
 2484 009e 164B     		ldr	r3, .L149+24
 2485 00a0 0122     		movs	r2, #1
 2486 00a2 9A64     		str	r2, [r3, #72]
 613:d:/LiteOS_Lab/iot_link/oc/oc_lwm2m/boudica150_oc\boudica150_oc.c ****     LINK_LOG_DEBUG("NB MODULE RXTX READY NOW\n\r");
 2487              		.loc 1 613 5
 2488 00a4 FFF7FEFF 		bl	link_log_level_get
 2489 00a8 0346     		mov	r3, r0
 2490 00aa 012B     		cmp	r3, #1
 2491 00ac 12D8     		bhi	.L145
 2492              		.loc 1 613 5 is_stmt 0 discriminator 1
 2493 00ae 0120     		movs	r0, #1
 2494 00b0 FFF7FEFF 		bl	link_log_level_name
 2495 00b4 0446     		mov	r4, r0
 2496 00b6 FFF7FEFF 		bl	osal_sys_time
 2497 00ba 0246     		mov	r2, r0
 2498 00bc 0B46     		mov	r3, r1
 2499 00be 0F4B     		ldr	r3, .L149+28
ARM GAS  C:\Users\ADMINI~1\AppData\Local\Temp\ccWbmWws.s 			page 57


 2500 00c0 2146     		mov	r1, r4
 2501 00c2 0F48     		ldr	r0, .L149+32
 2502 00c4 FFF7FEFF 		bl	printf
 2503 00c8 0E4B     		ldr	r3, .L149+36
 2504 00ca 1B68     		ldr	r3, [r3]
 2505 00cc 9B68     		ldr	r3, [r3, #8]
 2506 00ce 1846     		mov	r0, r3
 2507 00d0 FFF7FEFF 		bl	fflush
 2508              	.L145:
 614:d:/LiteOS_Lab/iot_link/oc/oc_lwm2m/boudica150_oc\boudica150_oc.c ****     return true;
 2509              		.loc 1 614 12 is_stmt 1
 2510 00d4 0123     		movs	r3, #1
 615:d:/LiteOS_Lab/iot_link/oc/oc_lwm2m/boudica150_oc\boudica150_oc.c **** }
 2511              		.loc 1 615 1
 2512 00d6 1846     		mov	r0, r3
 2513 00d8 1437     		adds	r7, r7, #20
 2514              	.LCFI106:
 2515              		.cfi_def_cfa_offset 12
 2516 00da BD46     		mov	sp, r7
 2517              	.LCFI107:
 2518              		.cfi_def_cfa_register 13
 2519              		@ sp needed
 2520 00dc 90BD     		pop	{r4, r7, pc}
 2521              	.L150:
 2522 00de 00BF     		.align	2
 2523              	.L149:
 2524 00e0 00000000 		.word	urc_qlwevtind
 2525 00e4 88020000 		.word	.LC38
 2526 00e8 98020000 		.word	.LC39
 2527 00ec 00000000 		.word	boudica150_rcvdeal
 2528 00f0 A4020000 		.word	.LC40
 2529 00f4 B0020000 		.word	.LC41
 2530 00f8 00000000 		.word	s_boudica150_oc_cb
 2531 00fc 00000000 		.word	__FUNCTION__.7211
 2532 0100 C0020000 		.word	.LC42
 2533 0104 00000000 		.word	_impure_ptr
 2534              		.cfi_endproc
 2535              	.LFE24:
 2537              		.section	.text.boudica150_oc_config,"ax",%progbits
 2538              		.align	1
 2539              		.syntax unified
 2540              		.thumb
 2541              		.thumb_func
 2542              		.fpu fpv4-sp-d16
 2544              	boudica150_oc_config:
 2545              	.LFB25:
 616:d:/LiteOS_Lab/iot_link/oc/oc_lwm2m/boudica150_oc\boudica150_oc.c **** 
 617:d:/LiteOS_Lab/iot_link/oc/oc_lwm2m/boudica150_oc\boudica150_oc.c **** 
 618:d:/LiteOS_Lab/iot_link/oc/oc_lwm2m/boudica150_oc\boudica150_oc.c **** static int boudica150_oc_config(oc_config_param_t *param)
 619:d:/LiteOS_Lab/iot_link/oc/oc_lwm2m/boudica150_oc\boudica150_oc.c **** {
 2546              		.loc 1 619 1
 2547              		.cfi_startproc
 2548              		@ args = 0, pretend = 0, frame = 16
 2549              		@ frame_needed = 1, uses_anonymous_args = 0
 2550 0000 B0B5     		push	{r4, r5, r7, lr}
 2551              	.LCFI108:
 2552              		.cfi_def_cfa_offset 16
ARM GAS  C:\Users\ADMINI~1\AppData\Local\Temp\ccWbmWws.s 			page 58


 2553              		.cfi_offset 4, -16
 2554              		.cfi_offset 5, -12
 2555              		.cfi_offset 7, -8
 2556              		.cfi_offset 14, -4
 2557 0002 86B0     		sub	sp, sp, #24
 2558              	.LCFI109:
 2559              		.cfi_def_cfa_offset 40
 2560 0004 02AF     		add	r7, sp, #8
 2561              	.LCFI110:
 2562              		.cfi_def_cfa 7, 32
 2563 0006 7860     		str	r0, [r7, #4]
 620:d:/LiteOS_Lab/iot_link/oc/oc_lwm2m/boudica150_oc\boudica150_oc.c ****     int ret = en_oc_lwm2m_err_configured;
 2564              		.loc 1 620 9
 2565 0008 0523     		movs	r3, #5
 2566 000a FB60     		str	r3, [r7, #12]
 621:d:/LiteOS_Lab/iot_link/oc/oc_lwm2m/boudica150_oc\boudica150_oc.c **** 
 622:d:/LiteOS_Lab/iot_link/oc/oc_lwm2m/boudica150_oc\boudica150_oc.c ****     if(NULL == param)
 2567              		.loc 1 622 7
 2568 000c 7B68     		ldr	r3, [r7, #4]
 2569 000e 002B     		cmp	r3, #0
 2570 0010 03D1     		bne	.L152
 623:d:/LiteOS_Lab/iot_link/oc/oc_lwm2m/boudica150_oc\boudica150_oc.c ****     {
 624:d:/LiteOS_Lab/iot_link/oc/oc_lwm2m/boudica150_oc\boudica150_oc.c ****         ret = en_oc_lwm2m_err_parafmt;
 2571              		.loc 1 624 13
 2572 0012 0123     		movs	r3, #1
 2573 0014 FB60     		str	r3, [r7, #12]
 625:d:/LiteOS_Lab/iot_link/oc/oc_lwm2m/boudica150_oc\boudica150_oc.c ****         return ret;
 2574              		.loc 1 625 16
 2575 0016 FB68     		ldr	r3, [r7, #12]
 2576 0018 2CE0     		b	.L153
 2577              	.L152:
 626:d:/LiteOS_Lab/iot_link/oc/oc_lwm2m/boudica150_oc\boudica150_oc.c ****     }
 627:d:/LiteOS_Lab/iot_link/oc/oc_lwm2m/boudica150_oc\boudica150_oc.c **** 
 628:d:/LiteOS_Lab/iot_link/oc/oc_lwm2m/boudica150_oc\boudica150_oc.c ****     if(NULL == s_oc_handle)
 2578              		.loc 1 628 13
 2579 001a 184B     		ldr	r3, .L156
 2580 001c 1B68     		ldr	r3, [r3]
 2581              		.loc 1 628 7
 2582 001e 002B     		cmp	r3, #0
 2583 0020 27D1     		bne	.L154
 629:d:/LiteOS_Lab/iot_link/oc/oc_lwm2m/boudica150_oc\boudica150_oc.c ****     {
 630:d:/LiteOS_Lab/iot_link/oc/oc_lwm2m/boudica150_oc\boudica150_oc.c ****         s_boudica150_oc_cb.oc_param = *param;
 2584              		.loc 1 630 37
 2585 0022 174B     		ldr	r3, .L156+4
 2586 0024 7A68     		ldr	r2, [r7, #4]
 2587 0026 03F10C04 		add	r4, r3, #12
 2588 002a 1546     		mov	r5, r2
 2589 002c 0FCD     		ldmia	r5!, {r0, r1, r2, r3}
 2590 002e 0FC4     		stmia	r4!, {r0, r1, r2, r3}
 2591 0030 0FCD     		ldmia	r5!, {r0, r1, r2, r3}
 2592 0032 0FC4     		stmia	r4!, {r0, r1, r2, r3}
 2593 0034 0FCD     		ldmia	r5!, {r0, r1, r2, r3}
 2594 0036 0FC4     		stmia	r4!, {r0, r1, r2, r3}
 2595 0038 95E80700 		ldm	r5, {r0, r1, r2}
 2596 003c 84E80700 		stm	r4, {r0, r1, r2}
 631:d:/LiteOS_Lab/iot_link/oc/oc_lwm2m/boudica150_oc\boudica150_oc.c **** 
 632:d:/LiteOS_Lab/iot_link/oc/oc_lwm2m/boudica150_oc\boudica150_oc.c ****         if(boudica150_boot(s_boudica150_oc_cb.plmn,s_boudica150_oc_cb.apn,s_boudica150_oc_cb.bands,
ARM GAS  C:\Users\ADMINI~1\AppData\Local\Temp\ccWbmWws.s 			page 59


 2597              		.loc 1 632 12
 2598 0040 0F4B     		ldr	r3, .L156+4
 2599 0042 1868     		ldr	r0, [r3]
 2600 0044 0E4B     		ldr	r3, .L156+4
 2601 0046 5968     		ldr	r1, [r3, #4]
 2602 0048 0D4B     		ldr	r3, .L156+4
 2603 004a 9A68     		ldr	r2, [r3, #8]
 633:d:/LiteOS_Lab/iot_link/oc/oc_lwm2m/boudica150_oc\boudica150_oc.c ****                 s_boudica150_oc_cb.oc_param.app_server.address,s_boudica150_oc_cb.oc_param.app_serv
 2604              		.loc 1 633 55
 2605 004c 0C4B     		ldr	r3, .L156+4
 2606 004e DC6A     		ldr	r4, [r3, #44]
 2607              		.loc 1 633 102
 2608 0050 0B4B     		ldr	r3, .L156+4
 2609 0052 1B6B     		ldr	r3, [r3, #48]
 632:d:/LiteOS_Lab/iot_link/oc/oc_lwm2m/boudica150_oc\boudica150_oc.c ****                 s_boudica150_oc_cb.oc_param.app_server.address,s_boudica150_oc_cb.oc_param.app_serv
 2610              		.loc 1 632 12
 2611 0054 0093     		str	r3, [sp]
 2612 0056 2346     		mov	r3, r4
 2613 0058 FFF7FEFF 		bl	boudica150_boot
 2614 005c 0346     		mov	r3, r0
 632:d:/LiteOS_Lab/iot_link/oc/oc_lwm2m/boudica150_oc\boudica150_oc.c ****                 s_boudica150_oc_cb.oc_param.app_server.address,s_boudica150_oc_cb.oc_param.app_serv
 2615              		.loc 1 632 11
 2616 005e 002B     		cmp	r3, #0
 2617 0060 05D0     		beq	.L155
 634:d:/LiteOS_Lab/iot_link/oc/oc_lwm2m/boudica150_oc\boudica150_oc.c ****         {
 635:d:/LiteOS_Lab/iot_link/oc/oc_lwm2m/boudica150_oc\boudica150_oc.c ****             s_oc_handle = &s_boudica150_oc_cb;
 2618              		.loc 1 635 25
 2619 0062 064B     		ldr	r3, .L156
 2620 0064 064A     		ldr	r2, .L156+4
 2621 0066 1A60     		str	r2, [r3]
 636:d:/LiteOS_Lab/iot_link/oc/oc_lwm2m/boudica150_oc\boudica150_oc.c ****             ret = en_oc_lwm2m_err_ok;
 2622              		.loc 1 636 17
 2623 0068 0023     		movs	r3, #0
 2624 006a FB60     		str	r3, [r7, #12]
 2625 006c 01E0     		b	.L154
 2626              	.L155:
 637:d:/LiteOS_Lab/iot_link/oc/oc_lwm2m/boudica150_oc\boudica150_oc.c ****         }
 638:d:/LiteOS_Lab/iot_link/oc/oc_lwm2m/boudica150_oc\boudica150_oc.c ****         else
 639:d:/LiteOS_Lab/iot_link/oc/oc_lwm2m/boudica150_oc\boudica150_oc.c ****         {
 640:d:/LiteOS_Lab/iot_link/oc/oc_lwm2m/boudica150_oc\boudica150_oc.c ****             ret = en_oc_lwm2m_err_network;
 2627              		.loc 1 640 17
 2628 006e 0223     		movs	r3, #2
 2629 0070 FB60     		str	r3, [r7, #12]
 2630              	.L154:
 641:d:/LiteOS_Lab/iot_link/oc/oc_lwm2m/boudica150_oc\boudica150_oc.c ****         }
 642:d:/LiteOS_Lab/iot_link/oc/oc_lwm2m/boudica150_oc\boudica150_oc.c ****     }
 643:d:/LiteOS_Lab/iot_link/oc/oc_lwm2m/boudica150_oc\boudica150_oc.c **** 
 644:d:/LiteOS_Lab/iot_link/oc/oc_lwm2m/boudica150_oc\boudica150_oc.c ****     return ret;
 2631              		.loc 1 644 12
 2632 0072 FB68     		ldr	r3, [r7, #12]
 2633              	.L153:
 645:d:/LiteOS_Lab/iot_link/oc/oc_lwm2m/boudica150_oc\boudica150_oc.c **** }
 2634              		.loc 1 645 1
 2635 0074 1846     		mov	r0, r3
 2636 0076 1037     		adds	r7, r7, #16
 2637              	.LCFI111:
 2638              		.cfi_def_cfa_offset 16
ARM GAS  C:\Users\ADMINI~1\AppData\Local\Temp\ccWbmWws.s 			page 60


 2639 0078 BD46     		mov	sp, r7
 2640              	.LCFI112:
 2641              		.cfi_def_cfa_register 13
 2642              		@ sp needed
 2643 007a B0BD     		pop	{r4, r5, r7, pc}
 2644              	.L157:
 2645              		.align	2
 2646              	.L156:
 2647 007c 00000000 		.word	s_oc_handle
 2648 0080 00000000 		.word	s_boudica150_oc_cb
 2649              		.cfi_endproc
 2650              	.LFE25:
 2652              		.section	.text.boudica150_oc_deconfig,"ax",%progbits
 2653              		.align	1
 2654              		.syntax unified
 2655              		.thumb
 2656              		.thumb_func
 2657              		.fpu fpv4-sp-d16
 2659              	boudica150_oc_deconfig:
 2660              	.LFB26:
 646:d:/LiteOS_Lab/iot_link/oc/oc_lwm2m/boudica150_oc\boudica150_oc.c **** 
 647:d:/LiteOS_Lab/iot_link/oc/oc_lwm2m/boudica150_oc\boudica150_oc.c **** static int boudica150_oc_deconfig(void)
 648:d:/LiteOS_Lab/iot_link/oc/oc_lwm2m/boudica150_oc\boudica150_oc.c **** {
 2661              		.loc 1 648 1
 2662              		.cfi_startproc
 2663              		@ args = 0, pretend = 0, frame = 8
 2664              		@ frame_needed = 1, uses_anonymous_args = 0
 2665              		@ link register save eliminated.
 2666 0000 80B4     		push	{r7}
 2667              	.LCFI113:
 2668              		.cfi_def_cfa_offset 4
 2669              		.cfi_offset 7, -4
 2670 0002 83B0     		sub	sp, sp, #12
 2671              	.LCFI114:
 2672              		.cfi_def_cfa_offset 16
 2673 0004 00AF     		add	r7, sp, #0
 2674              	.LCFI115:
 2675              		.cfi_def_cfa_register 7
 649:d:/LiteOS_Lab/iot_link/oc/oc_lwm2m/boudica150_oc\boudica150_oc.c ****     int ret = en_oc_lwm2m_err_noconfigured;
 2676              		.loc 1 649 9
 2677 0006 0423     		movs	r3, #4
 2678 0008 7B60     		str	r3, [r7, #4]
 650:d:/LiteOS_Lab/iot_link/oc/oc_lwm2m/boudica150_oc\boudica150_oc.c **** 
 651:d:/LiteOS_Lab/iot_link/oc/oc_lwm2m/boudica150_oc\boudica150_oc.c ****     if(NULL != s_oc_handle)
 2679              		.loc 1 651 13
 2680 000a 084B     		ldr	r3, .L161
 2681 000c 1B68     		ldr	r3, [r3]
 2682              		.loc 1 651 7
 2683 000e 002B     		cmp	r3, #0
 2684 0010 04D0     		beq	.L159
 652:d:/LiteOS_Lab/iot_link/oc/oc_lwm2m/boudica150_oc\boudica150_oc.c ****     {
 653:d:/LiteOS_Lab/iot_link/oc/oc_lwm2m/boudica150_oc\boudica150_oc.c ****         s_oc_handle = NULL;
 2685              		.loc 1 653 21
 2686 0012 064B     		ldr	r3, .L161
 2687 0014 0022     		movs	r2, #0
 2688 0016 1A60     		str	r2, [r3]
 654:d:/LiteOS_Lab/iot_link/oc/oc_lwm2m/boudica150_oc\boudica150_oc.c ****         ret = en_oc_lwm2m_err_ok;
ARM GAS  C:\Users\ADMINI~1\AppData\Local\Temp\ccWbmWws.s 			page 61


 2689              		.loc 1 654 13
 2690 0018 0023     		movs	r3, #0
 2691 001a 7B60     		str	r3, [r7, #4]
 2692              	.L159:
 655:d:/LiteOS_Lab/iot_link/oc/oc_lwm2m/boudica150_oc\boudica150_oc.c ****     }
 656:d:/LiteOS_Lab/iot_link/oc/oc_lwm2m/boudica150_oc\boudica150_oc.c ****     return ret;
 2693              		.loc 1 656 12
 2694 001c 7B68     		ldr	r3, [r7, #4]
 657:d:/LiteOS_Lab/iot_link/oc/oc_lwm2m/boudica150_oc\boudica150_oc.c **** }
 2695              		.loc 1 657 1
 2696 001e 1846     		mov	r0, r3
 2697 0020 0C37     		adds	r7, r7, #12
 2698              	.LCFI116:
 2699              		.cfi_def_cfa_offset 4
 2700 0022 BD46     		mov	sp, r7
 2701              	.LCFI117:
 2702              		.cfi_def_cfa_register 13
 2703              		@ sp needed
 2704 0024 5DF8047B 		ldr	r7, [sp], #4
 2705              	.LCFI118:
 2706              		.cfi_restore 7
 2707              		.cfi_def_cfa_offset 0
 2708 0028 7047     		bx	lr
 2709              	.L162:
 2710 002a 00BF     		.align	2
 2711              	.L161:
 2712 002c 00000000 		.word	s_oc_handle
 2713              		.cfi_endproc
 2714              	.LFE26:
 2716              		.section	.rodata
 2717 02ea 0000     		.align	2
 2718              	.LC43:
 2719 02ec 41542B43 		.ascii	"AT+CSQ\015\000"
 2719      53510D00 
 2720              		.align	2
 2721              	.LC44:
 2722 02f4 2B435351 		.ascii	"+CSQ:\000"
 2722      3A00
 2723              		.section	.text.boudica150_get_csq,"ax",%progbits
 2724              		.align	1
 2725              		.global	boudica150_get_csq
 2726              		.syntax unified
 2727              		.thumb
 2728              		.thumb_func
 2729              		.fpu fpv4-sp-d16
 2731              	boudica150_get_csq:
 2732              	.LFB27:
 658:d:/LiteOS_Lab/iot_link/oc/oc_lwm2m/boudica150_oc\boudica150_oc.c **** 
 659:d:/LiteOS_Lab/iot_link/oc/oc_lwm2m/boudica150_oc\boudica150_oc.c **** 
 660:d:/LiteOS_Lab/iot_link/oc/oc_lwm2m/boudica150_oc\boudica150_oc.c **** //this function to get the csq
 661:d:/LiteOS_Lab/iot_link/oc/oc_lwm2m/boudica150_oc\boudica150_oc.c **** int boudica150_get_csq(int *value)
 662:d:/LiteOS_Lab/iot_link/oc/oc_lwm2m/boudica150_oc\boudica150_oc.c **** {
 2733              		.loc 1 662 1
 2734              		.cfi_startproc
 2735              		@ args = 0, pretend = 0, frame = 152
 2736              		@ frame_needed = 1, uses_anonymous_args = 0
 2737 0000 80B5     		push	{r7, lr}
ARM GAS  C:\Users\ADMINI~1\AppData\Local\Temp\ccWbmWws.s 			page 62


 2738              	.LCFI119:
 2739              		.cfi_def_cfa_offset 8
 2740              		.cfi_offset 7, -8
 2741              		.cfi_offset 14, -4
 2742 0002 A6B0     		sub	sp, sp, #152
 2743              	.LCFI120:
 2744              		.cfi_def_cfa_offset 160
 2745 0004 00AF     		add	r7, sp, #0
 2746              	.LCFI121:
 2747              		.cfi_def_cfa_register 7
 2748 0006 7860     		str	r0, [r7, #4]
 663:d:/LiteOS_Lab/iot_link/oc/oc_lwm2m/boudica150_oc\boudica150_oc.c ****     char cmd[64];
 664:d:/LiteOS_Lab/iot_link/oc/oc_lwm2m/boudica150_oc\boudica150_oc.c ****     char resp[64];
 665:d:/LiteOS_Lab/iot_link/oc/oc_lwm2m/boudica150_oc\boudica150_oc.c ****     const char *index = "OK";
 2749              		.loc 1 665 17
 2750 0008 384B     		ldr	r3, .L171
 2751 000a C7F88830 		str	r3, [r7, #136]
 666:d:/LiteOS_Lab/iot_link/oc/oc_lwm2m/boudica150_oc\boudica150_oc.c ****     const char *str;
 667:d:/LiteOS_Lab/iot_link/oc/oc_lwm2m/boudica150_oc\boudica150_oc.c ****     int csq = 0;
 2752              		.loc 1 667 9
 2753 000e 0023     		movs	r3, #0
 2754 0010 C7F89030 		str	r3, [r7, #144]
 668:d:/LiteOS_Lab/iot_link/oc/oc_lwm2m/boudica150_oc\boudica150_oc.c ****     int ret = -1;
 2755              		.loc 1 668 9
 2756 0014 4FF0FF33 		mov	r3, #-1
 2757 0018 C7F88C30 		str	r3, [r7, #140]
 669:d:/LiteOS_Lab/iot_link/oc/oc_lwm2m/boudica150_oc\boudica150_oc.c **** 
 670:d:/LiteOS_Lab/iot_link/oc/oc_lwm2m/boudica150_oc\boudica150_oc.c ****     if(NULL == value)
 2758              		.loc 1 670 7
 2759 001c 7B68     		ldr	r3, [r7, #4]
 2760 001e 002B     		cmp	r3, #0
 2761 0020 02D1     		bne	.L164
 671:d:/LiteOS_Lab/iot_link/oc/oc_lwm2m/boudica150_oc\boudica150_oc.c ****     {
 672:d:/LiteOS_Lab/iot_link/oc/oc_lwm2m/boudica150_oc\boudica150_oc.c ****         return ret;
 2762              		.loc 1 672 16
 2763 0022 D7F88C30 		ldr	r3, [r7, #140]
 2764 0026 5CE0     		b	.L170
 2765              	.L164:
 673:d:/LiteOS_Lab/iot_link/oc/oc_lwm2m/boudica150_oc\boudica150_oc.c ****     }
 674:d:/LiteOS_Lab/iot_link/oc/oc_lwm2m/boudica150_oc\boudica150_oc.c **** 
 675:d:/LiteOS_Lab/iot_link/oc/oc_lwm2m/boudica150_oc\boudica150_oc.c ****     (void) memset(cmd,0,64);
 2766              		.loc 1 675 12
 2767 0028 07F14803 		add	r3, r7, #72
 2768 002c 4022     		movs	r2, #64
 2769 002e 0021     		movs	r1, #0
 2770 0030 1846     		mov	r0, r3
 2771 0032 FFF7FEFF 		bl	memset
 676:d:/LiteOS_Lab/iot_link/oc/oc_lwm2m/boudica150_oc\boudica150_oc.c ****     (void) memset(resp,0,64);
 2772              		.loc 1 676 12
 2773 0036 07F10803 		add	r3, r7, #8
 2774 003a 4022     		movs	r2, #64
 2775 003c 0021     		movs	r1, #0
 2776 003e 1846     		mov	r0, r3
 2777 0040 FFF7FEFF 		bl	memset
 677:d:/LiteOS_Lab/iot_link/oc/oc_lwm2m/boudica150_oc\boudica150_oc.c ****     (void) snprintf(cmd,64,"AT+CSQ\r");
 2778              		.loc 1 677 12
 2779 0044 07F14803 		add	r3, r7, #72
ARM GAS  C:\Users\ADMINI~1\AppData\Local\Temp\ccWbmWws.s 			page 63


 2780 0048 294A     		ldr	r2, .L171+4
 2781 004a 4021     		movs	r1, #64
 2782 004c 1846     		mov	r0, r3
 2783 004e FFF7FEFF 		bl	snprintf
 678:d:/LiteOS_Lab/iot_link/oc/oc_lwm2m/boudica150_oc\boudica150_oc.c ****     if(boudica150_atcmd_response(cmd,index,resp,64))
 2784              		.loc 1 678 8
 2785 0052 07F10802 		add	r2, r7, #8
 2786 0056 07F14800 		add	r0, r7, #72
 2787 005a 4023     		movs	r3, #64
 2788 005c D7F88810 		ldr	r1, [r7, #136]
 2789 0060 FFF7FEFF 		bl	boudica150_atcmd_response
 2790 0064 0346     		mov	r3, r0
 2791              		.loc 1 678 7
 2792 0066 002B     		cmp	r3, #0
 2793 0068 39D0     		beq	.L166
 679:d:/LiteOS_Lab/iot_link/oc/oc_lwm2m/boudica150_oc\boudica150_oc.c ****     {
 680:d:/LiteOS_Lab/iot_link/oc/oc_lwm2m/boudica150_oc\boudica150_oc.c ****         str = strstr((char *)resp,"+CSQ:");
 2794              		.loc 1 680 15
 2795 006a 07F10803 		add	r3, r7, #8
 2796 006e 2149     		ldr	r1, .L171+8
 2797 0070 1846     		mov	r0, r3
 2798 0072 FFF7FEFF 		bl	strstr
 2799 0076 C7F89400 		str	r0, [r7, #148]
 681:d:/LiteOS_Lab/iot_link/oc/oc_lwm2m/boudica150_oc\boudica150_oc.c ****         if(NULL != str)
 2800              		.loc 1 681 11
 2801 007a D7F89430 		ldr	r3, [r7, #148]
 2802 007e 002B     		cmp	r3, #0
 2803 0080 2DD0     		beq	.L166
 682:d:/LiteOS_Lab/iot_link/oc/oc_lwm2m/boudica150_oc\boudica150_oc.c ****         {
 683:d:/LiteOS_Lab/iot_link/oc/oc_lwm2m/boudica150_oc\boudica150_oc.c ****             str += strlen("+CSQ:");
 2804              		.loc 1 683 17
 2805 0082 D7F89430 		ldr	r3, [r7, #148]
 2806 0086 0533     		adds	r3, r3, #5
 2807 0088 C7F89430 		str	r3, [r7, #148]
 684:d:/LiteOS_Lab/iot_link/oc/oc_lwm2m/boudica150_oc\boudica150_oc.c ****             for (; *str <= '9' && *str >= '0' ;str++)
 2808              		.loc 1 684 13
 2809 008c 12E0     		b	.L167
 2810              	.L169:
 685:d:/LiteOS_Lab/iot_link/oc/oc_lwm2m/boudica150_oc\boudica150_oc.c ****             {
 686:d:/LiteOS_Lab/iot_link/oc/oc_lwm2m/boudica150_oc\boudica150_oc.c ****                 csq = (csq * 10 + (*str - '0'));
 2811              		.loc 1 686 28 discriminator 3
 2812 008e D7F89020 		ldr	r2, [r7, #144]
 2813 0092 1346     		mov	r3, r2
 2814 0094 9B00     		lsls	r3, r3, #2
 2815 0096 1344     		add	r3, r3, r2
 2816 0098 5B00     		lsls	r3, r3, #1
 2817 009a 1A46     		mov	r2, r3
 2818              		.loc 1 686 36 discriminator 3
 2819 009c D7F89430 		ldr	r3, [r7, #148]
 2820 00a0 1B78     		ldrb	r3, [r3]	@ zero_extendqisi2
 2821              		.loc 1 686 41 discriminator 3
 2822 00a2 303B     		subs	r3, r3, #48
 2823              		.loc 1 686 21 discriminator 3
 2824 00a4 1344     		add	r3, r3, r2
 2825 00a6 C7F89030 		str	r3, [r7, #144]
 684:d:/LiteOS_Lab/iot_link/oc/oc_lwm2m/boudica150_oc\boudica150_oc.c ****             for (; *str <= '9' && *str >= '0' ;str++)
 2826              		.loc 1 684 51 discriminator 3
ARM GAS  C:\Users\ADMINI~1\AppData\Local\Temp\ccWbmWws.s 			page 64


 2827 00aa D7F89430 		ldr	r3, [r7, #148]
 2828 00ae 0133     		adds	r3, r3, #1
 2829 00b0 C7F89430 		str	r3, [r7, #148]
 2830              	.L167:
 684:d:/LiteOS_Lab/iot_link/oc/oc_lwm2m/boudica150_oc\boudica150_oc.c ****             for (; *str <= '9' && *str >= '0' ;str++)
 2831              		.loc 1 684 20 discriminator 1
 2832 00b4 D7F89430 		ldr	r3, [r7, #148]
 2833 00b8 1B78     		ldrb	r3, [r3]	@ zero_extendqisi2
 684:d:/LiteOS_Lab/iot_link/oc/oc_lwm2m/boudica150_oc\boudica150_oc.c ****             for (; *str <= '9' && *str >= '0' ;str++)
 2834              		.loc 1 684 13 discriminator 1
 2835 00ba 392B     		cmp	r3, #57
 2836 00bc 04D8     		bhi	.L168
 684:d:/LiteOS_Lab/iot_link/oc/oc_lwm2m/boudica150_oc\boudica150_oc.c ****             for (; *str <= '9' && *str >= '0' ;str++)
 2837              		.loc 1 684 35 discriminator 2
 2838 00be D7F89430 		ldr	r3, [r7, #148]
 2839 00c2 1B78     		ldrb	r3, [r3]	@ zero_extendqisi2
 684:d:/LiteOS_Lab/iot_link/oc/oc_lwm2m/boudica150_oc\boudica150_oc.c ****             for (; *str <= '9' && *str >= '0' ;str++)
 2840              		.loc 1 684 32 discriminator 2
 2841 00c4 2F2B     		cmp	r3, #47
 2842 00c6 E2D8     		bhi	.L169
 2843              	.L168:
 687:d:/LiteOS_Lab/iot_link/oc/oc_lwm2m/boudica150_oc\boudica150_oc.c ****             }
 688:d:/LiteOS_Lab/iot_link/oc/oc_lwm2m/boudica150_oc\boudica150_oc.c ****             if(csq != 99) //99 is invalid
 2844              		.loc 1 688 15
 2845 00c8 D7F89030 		ldr	r3, [r7, #144]
 2846 00cc 632B     		cmp	r3, #99
 2847 00ce 06D0     		beq	.L166
 689:d:/LiteOS_Lab/iot_link/oc/oc_lwm2m/boudica150_oc\boudica150_oc.c ****             {
 690:d:/LiteOS_Lab/iot_link/oc/oc_lwm2m/boudica150_oc\boudica150_oc.c ****                 *value = csq;
 2848              		.loc 1 690 24
 2849 00d0 7B68     		ldr	r3, [r7, #4]
 2850 00d2 D7F89020 		ldr	r2, [r7, #144]
 2851 00d6 1A60     		str	r2, [r3]
 691:d:/LiteOS_Lab/iot_link/oc/oc_lwm2m/boudica150_oc\boudica150_oc.c ****                 ret = 0;
 2852              		.loc 1 691 21
 2853 00d8 0023     		movs	r3, #0
 2854 00da C7F88C30 		str	r3, [r7, #140]
 2855              	.L166:
 692:d:/LiteOS_Lab/iot_link/oc/oc_lwm2m/boudica150_oc\boudica150_oc.c ****             }
 693:d:/LiteOS_Lab/iot_link/oc/oc_lwm2m/boudica150_oc\boudica150_oc.c ****         }
 694:d:/LiteOS_Lab/iot_link/oc/oc_lwm2m/boudica150_oc\boudica150_oc.c ****     }
 695:d:/LiteOS_Lab/iot_link/oc/oc_lwm2m/boudica150_oc\boudica150_oc.c ****     return ret;
 2856              		.loc 1 695 12
 2857 00de D7F88C30 		ldr	r3, [r7, #140]
 2858              	.L170:
 696:d:/LiteOS_Lab/iot_link/oc/oc_lwm2m/boudica150_oc\boudica150_oc.c **** }
 2859              		.loc 1 696 1 discriminator 1
 2860 00e2 1846     		mov	r0, r3
 2861 00e4 9837     		adds	r7, r7, #152
 2862              	.LCFI122:
 2863              		.cfi_def_cfa_offset 8
 2864 00e6 BD46     		mov	sp, r7
 2865              	.LCFI123:
 2866              		.cfi_def_cfa_register 13
 2867              		@ sp needed
 2868 00e8 80BD     		pop	{r7, pc}
 2869              	.L172:
ARM GAS  C:\Users\ADMINI~1\AppData\Local\Temp\ccWbmWws.s 			page 65


 2870 00ea 00BF     		.align	2
 2871              	.L171:
 2872 00ec 14000000 		.word	.LC2
 2873 00f0 EC020000 		.word	.LC43
 2874 00f4 F4020000 		.word	.LC44
 2875              		.cfi_endproc
 2876              	.LFE27:
 2878              		.section	.rodata
 2879 02fa 0000     		.align	2
 2880              	.LC45:
 2881 02fc 41542B4E 		.ascii	"AT+NUESTATS=CELL\015\000"
 2881      55455354 
 2881      4154533D 
 2881      43454C4C 
 2881      0D00
 2882 030e 0000     		.align	2
 2883              	.LC46:
 2884 0310 4E554553 		.ascii	"NUESTATS:\000"
 2884      54415453 
 2884      3A00
 2885 031a 0000     		.align	2
 2886              	.LC47:
 2887 031c 4E554553 		.ascii	"NUESTATS:CELL,%d,%d,%d,%d,%d,%d,%d\000"
 2887      54415453 
 2887      3A43454C 
 2887      4C2C2564 
 2887      2C25642C 
 2888 033f 00       		.align	2
 2889              	.LC48:
 2890 0340 41542B4E 		.ascii	"AT+NUESTATS\015\000"
 2890      55455354 
 2890      4154530D 
 2890      00
 2891 034d 000000   		.align	2
 2892              	.LC49:
 2893 0350 45434C3A 		.ascii	"ECL:\000"
 2893      00
 2894 0355 000000   		.align	2
 2895              	.LC50:
 2896 0358 45434C3A 		.ascii	"ECL:%d\000"
 2896      256400
 2897 035f 00       		.align	2
 2898              	.LC51:
 2899 0360 534E523A 		.ascii	"SNR:\000"
 2899      00
 2900 0365 000000   		.align	2
 2901              	.LC52:
 2902 0368 534E523A 		.ascii	"SNR:%d\000"
 2902      256400
 2903 036f 00       		.align	2
 2904              	.LC53:
 2905 0370 43656C6C 		.ascii	"Cell ID:\000"
 2905      2049443A 
 2905      00
 2906 0379 000000   		.align	2
 2907              	.LC54:
 2908 037c 43656C6C 		.ascii	"Cell ID:%d\000"
ARM GAS  C:\Users\ADMINI~1\AppData\Local\Temp\ccWbmWws.s 			page 66


 2908      2049443A 
 2908      256400
 2909              		.section	.text.boudica150_check_nuestats,"ax",%progbits
 2910              		.align	1
 2911              		.global	boudica150_check_nuestats
 2912              		.syntax unified
 2913              		.thumb
 2914              		.thumb_func
 2915              		.fpu fpv4-sp-d16
 2917              	boudica150_check_nuestats:
 2918              	.LFB28:
 697:d:/LiteOS_Lab/iot_link/oc/oc_lwm2m/boudica150_oc\boudica150_oc.c **** 
 698:d:/LiteOS_Lab/iot_link/oc/oc_lwm2m/boudica150_oc\boudica150_oc.c **** int* boudica150_check_nuestats(void)
 699:d:/LiteOS_Lab/iot_link/oc/oc_lwm2m/boudica150_oc\boudica150_oc.c **** {
 2919              		.loc 1 699 1
 2920              		.cfi_startproc
 2921              		@ args = 0, pretend = 0, frame = 352
 2922              		@ frame_needed = 1, uses_anonymous_args = 0
 2923 0000 80B5     		push	{r7, lr}
 2924              	.LCFI124:
 2925              		.cfi_def_cfa_offset 8
 2926              		.cfi_offset 7, -8
 2927              		.cfi_offset 14, -4
 2928 0002 DEB0     		sub	sp, sp, #376
 2929              	.LCFI125:
 2930              		.cfi_def_cfa_offset 384
 2931 0004 06AF     		add	r7, sp, #24
 2932              	.LCFI126:
 2933              		.cfi_def_cfa 7, 360
 700:d:/LiteOS_Lab/iot_link/oc/oc_lwm2m/boudica150_oc\boudica150_oc.c ****     char cmd[64];
 701:d:/LiteOS_Lab/iot_link/oc/oc_lwm2m/boudica150_oc\boudica150_oc.c ****     char resp[256];
 702:d:/LiteOS_Lab/iot_link/oc/oc_lwm2m/boudica150_oc\boudica150_oc.c ****     char *str;
 703:d:/LiteOS_Lab/iot_link/oc/oc_lwm2m/boudica150_oc\boudica150_oc.c **** 
 704:d:/LiteOS_Lab/iot_link/oc/oc_lwm2m/boudica150_oc\boudica150_oc.c ****     (void) memset(cmd,0,64);
 2934              		.loc 1 704 12
 2935 0006 07F58E73 		add	r3, r7, #284
 2936 000a 4022     		movs	r2, #64
 2937 000c 0021     		movs	r1, #0
 2938 000e 1846     		mov	r0, r3
 2939 0010 FFF7FEFF 		bl	memset
 705:d:/LiteOS_Lab/iot_link/oc/oc_lwm2m/boudica150_oc\boudica150_oc.c ****     (void) memset(resp,0,64);
 2940              		.loc 1 705 12
 2941 0014 07F11C03 		add	r3, r7, #28
 2942 0018 4022     		movs	r2, #64
 2943 001a 0021     		movs	r1, #0
 2944 001c 1846     		mov	r0, r3
 2945 001e FFF7FEFF 		bl	memset
 706:d:/LiteOS_Lab/iot_link/oc/oc_lwm2m/boudica150_oc\boudica150_oc.c ****     (void) snprintf(cmd,64,"AT+NUESTATS=CELL\r");
 2946              		.loc 1 706 12
 2947 0022 07F58E73 		add	r3, r7, #284
 2948 0026 4D4A     		ldr	r2, .L182
 2949 0028 4021     		movs	r1, #64
 2950 002a 1846     		mov	r0, r3
 2951 002c FFF7FEFF 		bl	snprintf
 707:d:/LiteOS_Lab/iot_link/oc/oc_lwm2m/boudica150_oc\boudica150_oc.c **** 
 708:d:/LiteOS_Lab/iot_link/oc/oc_lwm2m/boudica150_oc\boudica150_oc.c ****     if (boudica150_atcmd_response(cmd,"NUESTATS:",resp,256) < 0)
 2952              		.loc 1 708 9
ARM GAS  C:\Users\ADMINI~1\AppData\Local\Temp\ccWbmWws.s 			page 67


 2953 0030 07F11C02 		add	r2, r7, #28
 2954 0034 07F58E70 		add	r0, r7, #284
 2955 0038 4FF48073 		mov	r3, #256
 2956 003c 4849     		ldr	r1, .L182+4
 2957 003e FFF7FEFF 		bl	boudica150_atcmd_response
 2958 0042 0346     		mov	r3, r0
 2959              		.loc 1 708 8
 2960 0044 002B     		cmp	r3, #0
 2961 0046 01DA     		bge	.L174
 709:d:/LiteOS_Lab/iot_link/oc/oc_lwm2m/boudica150_oc\boudica150_oc.c ****     {
 710:d:/LiteOS_Lab/iot_link/oc/oc_lwm2m/boudica150_oc\boudica150_oc.c ****     	return NULL;
 2962              		.loc 1 710 13
 2963 0048 0023     		movs	r3, #0
 2964 004a 82E0     		b	.L181
 2965              	.L174:
 711:d:/LiteOS_Lab/iot_link/oc/oc_lwm2m/boudica150_oc\boudica150_oc.c ****     }
 712:d:/LiteOS_Lab/iot_link/oc/oc_lwm2m/boudica150_oc\boudica150_oc.c ****     str = strstr(resp,"NUESTATS:");
 2966              		.loc 1 712 11
 2967 004c 07F11C03 		add	r3, r7, #28
 2968 0050 4349     		ldr	r1, .L182+4
 2969 0052 1846     		mov	r0, r3
 2970 0054 FFF7FEFF 		bl	strstr
 2971 0058 C7F85C01 		str	r0, [r7, #348]
 713:d:/LiteOS_Lab/iot_link/oc/oc_lwm2m/boudica150_oc\boudica150_oc.c ****     if (str == NULL)
 2972              		.loc 1 713 8
 2973 005c D7F85C31 		ldr	r3, [r7, #348]
 2974 0060 002B     		cmp	r3, #0
 2975 0062 01D1     		bne	.L176
 714:d:/LiteOS_Lab/iot_link/oc/oc_lwm2m/boudica150_oc\boudica150_oc.c ****     {
 715:d:/LiteOS_Lab/iot_link/oc/oc_lwm2m/boudica150_oc\boudica150_oc.c ****     	return NULL;
 2976              		.loc 1 715 13
 2977 0064 0023     		movs	r3, #0
 2978 0066 74E0     		b	.L181
 2979              	.L176:
 716:d:/LiteOS_Lab/iot_link/oc/oc_lwm2m/boudica150_oc\boudica150_oc.c ****     }
 717:d:/LiteOS_Lab/iot_link/oc/oc_lwm2m/boudica150_oc\boudica150_oc.c ****     int earfcn, physical_cellid, primary_cell, rsrp, rsrq, rssi, snr;  //for now only rsrp is neede
 718:d:/LiteOS_Lab/iot_link/oc/oc_lwm2m/boudica150_oc\boudica150_oc.c ****     sscanf(str,"NUESTATS:CELL,%d,%d,%d,%d,%d,%d,%d",&earfcn, &physical_cellid, &primary_cell, &rsrp
 2980              		.loc 1 718 5
 2981 0068 07F11401 		add	r1, r7, #20
 2982 006c 07F11802 		add	r2, r7, #24
 2983 0070 3B46     		mov	r3, r7
 2984 0072 0493     		str	r3, [sp, #16]
 2985 0074 3B1D     		adds	r3, r7, #4
 2986 0076 0393     		str	r3, [sp, #12]
 2987 0078 07F10803 		add	r3, r7, #8
 2988 007c 0293     		str	r3, [sp, #8]
 2989 007e 07F10C03 		add	r3, r7, #12
 2990 0082 0193     		str	r3, [sp, #4]
 2991 0084 07F11003 		add	r3, r7, #16
 2992 0088 0093     		str	r3, [sp]
 2993 008a 0B46     		mov	r3, r1
 2994 008c 3549     		ldr	r1, .L182+8
 2995 008e D7F85C01 		ldr	r0, [r7, #348]
 2996 0092 FFF7FEFF 		bl	sscanf
 719:d:/LiteOS_Lab/iot_link/oc/oc_lwm2m/boudica150_oc\boudica150_oc.c ****     wireless_stats[0] = rsrp;
 2997              		.loc 1 719 23
 2998 0096 07F10C03 		add	r3, r7, #12
ARM GAS  C:\Users\ADMINI~1\AppData\Local\Temp\ccWbmWws.s 			page 68


 2999 009a 1B68     		ldr	r3, [r3]
 3000 009c 324A     		ldr	r2, .L182+12
 3001 009e 1360     		str	r3, [r2]
 720:d:/LiteOS_Lab/iot_link/oc/oc_lwm2m/boudica150_oc\boudica150_oc.c **** 
 721:d:/LiteOS_Lab/iot_link/oc/oc_lwm2m/boudica150_oc\boudica150_oc.c ****     (void) memset(cmd,0,64);
 3002              		.loc 1 721 12
 3003 00a0 07F58E73 		add	r3, r7, #284
 3004 00a4 4022     		movs	r2, #64
 3005 00a6 0021     		movs	r1, #0
 3006 00a8 1846     		mov	r0, r3
 3007 00aa FFF7FEFF 		bl	memset
 722:d:/LiteOS_Lab/iot_link/oc/oc_lwm2m/boudica150_oc\boudica150_oc.c ****     (void) snprintf(cmd,64,"AT+NUESTATS\r");
 3008              		.loc 1 722 12
 3009 00ae 07F58E73 		add	r3, r7, #284
 3010 00b2 2E4A     		ldr	r2, .L182+16
 3011 00b4 4021     		movs	r1, #64
 3012 00b6 1846     		mov	r0, r3
 3013 00b8 FFF7FEFF 		bl	snprintf
 723:d:/LiteOS_Lab/iot_link/oc/oc_lwm2m/boudica150_oc\boudica150_oc.c ****     if (boudica150_atcmd_response(cmd,"OK",resp,256) < 0)
 3014              		.loc 1 723 9
 3015 00bc 07F11C02 		add	r2, r7, #28
 3016 00c0 07F58E70 		add	r0, r7, #284
 3017 00c4 4FF48073 		mov	r3, #256
 3018 00c8 2949     		ldr	r1, .L182+20
 3019 00ca FFF7FEFF 		bl	boudica150_atcmd_response
 3020 00ce 0346     		mov	r3, r0
 3021              		.loc 1 723 8
 3022 00d0 002B     		cmp	r3, #0
 3023 00d2 01DA     		bge	.L177
 724:d:/LiteOS_Lab/iot_link/oc/oc_lwm2m/boudica150_oc\boudica150_oc.c ****     {
 725:d:/LiteOS_Lab/iot_link/oc/oc_lwm2m/boudica150_oc\boudica150_oc.c ****         return NULL;
 3024              		.loc 1 725 16
 3025 00d4 0023     		movs	r3, #0
 3026 00d6 3CE0     		b	.L181
 3027              	.L177:
 726:d:/LiteOS_Lab/iot_link/oc/oc_lwm2m/boudica150_oc\boudica150_oc.c ****     }
 727:d:/LiteOS_Lab/iot_link/oc/oc_lwm2m/boudica150_oc\boudica150_oc.c ****     str = strstr(resp,"ECL:");
 3028              		.loc 1 727 11
 3029 00d8 07F11C03 		add	r3, r7, #28
 3030 00dc 2549     		ldr	r1, .L182+24
 3031 00de 1846     		mov	r0, r3
 3032 00e0 FFF7FEFF 		bl	strstr
 3033 00e4 C7F85C01 		str	r0, [r7, #348]
 728:d:/LiteOS_Lab/iot_link/oc/oc_lwm2m/boudica150_oc\boudica150_oc.c ****     if (str == NULL)
 3034              		.loc 1 728 8
 3035 00e8 D7F85C31 		ldr	r3, [r7, #348]
 3036 00ec 002B     		cmp	r3, #0
 3037 00ee 01D1     		bne	.L178
 729:d:/LiteOS_Lab/iot_link/oc/oc_lwm2m/boudica150_oc\boudica150_oc.c ****     {
 730:d:/LiteOS_Lab/iot_link/oc/oc_lwm2m/boudica150_oc\boudica150_oc.c ****     	return NULL;
 3038              		.loc 1 730 13
 3039 00f0 0023     		movs	r3, #0
 3040 00f2 2EE0     		b	.L181
 3041              	.L178:
 731:d:/LiteOS_Lab/iot_link/oc/oc_lwm2m/boudica150_oc\boudica150_oc.c ****     }
 732:d:/LiteOS_Lab/iot_link/oc/oc_lwm2m/boudica150_oc\boudica150_oc.c ****     sscanf(str,"ECL:%d",&wireless_stats[1]);
 3042              		.loc 1 732 5
ARM GAS  C:\Users\ADMINI~1\AppData\Local\Temp\ccWbmWws.s 			page 69


 3043 00f4 204A     		ldr	r2, .L182+28
 3044 00f6 2149     		ldr	r1, .L182+32
 3045 00f8 D7F85C01 		ldr	r0, [r7, #348]
 3046 00fc FFF7FEFF 		bl	sscanf
 733:d:/LiteOS_Lab/iot_link/oc/oc_lwm2m/boudica150_oc\boudica150_oc.c **** 
 734:d:/LiteOS_Lab/iot_link/oc/oc_lwm2m/boudica150_oc\boudica150_oc.c ****     str = strstr(resp,"SNR:");
 3047              		.loc 1 734 11
 3048 0100 07F11C03 		add	r3, r7, #28
 3049 0104 1E49     		ldr	r1, .L182+36
 3050 0106 1846     		mov	r0, r3
 3051 0108 FFF7FEFF 		bl	strstr
 3052 010c C7F85C01 		str	r0, [r7, #348]
 735:d:/LiteOS_Lab/iot_link/oc/oc_lwm2m/boudica150_oc\boudica150_oc.c ****     if (str == NULL)
 3053              		.loc 1 735 8
 3054 0110 D7F85C31 		ldr	r3, [r7, #348]
 3055 0114 002B     		cmp	r3, #0
 3056 0116 01D1     		bne	.L179
 736:d:/LiteOS_Lab/iot_link/oc/oc_lwm2m/boudica150_oc\boudica150_oc.c ****     {
 737:d:/LiteOS_Lab/iot_link/oc/oc_lwm2m/boudica150_oc\boudica150_oc.c ****         return NULL;
 3057              		.loc 1 737 16
 3058 0118 0023     		movs	r3, #0
 3059 011a 1AE0     		b	.L181
 3060              	.L179:
 738:d:/LiteOS_Lab/iot_link/oc/oc_lwm2m/boudica150_oc\boudica150_oc.c ****     }
 739:d:/LiteOS_Lab/iot_link/oc/oc_lwm2m/boudica150_oc\boudica150_oc.c ****     sscanf(str,"SNR:%d",&wireless_stats[2]);
 3061              		.loc 1 739 5
 3062 011c 194A     		ldr	r2, .L182+40
 3063 011e 1A49     		ldr	r1, .L182+44
 3064 0120 D7F85C01 		ldr	r0, [r7, #348]
 3065 0124 FFF7FEFF 		bl	sscanf
 740:d:/LiteOS_Lab/iot_link/oc/oc_lwm2m/boudica150_oc\boudica150_oc.c **** 
 741:d:/LiteOS_Lab/iot_link/oc/oc_lwm2m/boudica150_oc\boudica150_oc.c ****     str = strstr(resp,"Cell ID:");
 3066              		.loc 1 741 11
 3067 0128 07F11C03 		add	r3, r7, #28
 3068 012c 1749     		ldr	r1, .L182+48
 3069 012e 1846     		mov	r0, r3
 3070 0130 FFF7FEFF 		bl	strstr
 3071 0134 C7F85C01 		str	r0, [r7, #348]
 742:d:/LiteOS_Lab/iot_link/oc/oc_lwm2m/boudica150_oc\boudica150_oc.c ****     if (str == NULL)
 3072              		.loc 1 742 8
 3073 0138 D7F85C31 		ldr	r3, [r7, #348]
 3074 013c 002B     		cmp	r3, #0
 3075 013e 01D1     		bne	.L180
 743:d:/LiteOS_Lab/iot_link/oc/oc_lwm2m/boudica150_oc\boudica150_oc.c ****     {
 744:d:/LiteOS_Lab/iot_link/oc/oc_lwm2m/boudica150_oc\boudica150_oc.c ****         return NULL;
 3076              		.loc 1 744 16
 3077 0140 0023     		movs	r3, #0
 3078 0142 06E0     		b	.L181
 3079              	.L180:
 745:d:/LiteOS_Lab/iot_link/oc/oc_lwm2m/boudica150_oc\boudica150_oc.c ****     }
 746:d:/LiteOS_Lab/iot_link/oc/oc_lwm2m/boudica150_oc\boudica150_oc.c ****     sscanf(str,"Cell ID:%d",&wireless_stats[3]);
 3080              		.loc 1 746 5
 3081 0144 124A     		ldr	r2, .L182+52
 3082 0146 1349     		ldr	r1, .L182+56
 3083 0148 D7F85C01 		ldr	r0, [r7, #348]
 3084 014c FFF7FEFF 		bl	sscanf
 747:d:/LiteOS_Lab/iot_link/oc/oc_lwm2m/boudica150_oc\boudica150_oc.c **** 
ARM GAS  C:\Users\ADMINI~1\AppData\Local\Temp\ccWbmWws.s 			page 70


 748:d:/LiteOS_Lab/iot_link/oc/oc_lwm2m/boudica150_oc\boudica150_oc.c ****     return wireless_stats;
 3085              		.loc 1 748 12
 3086 0150 054B     		ldr	r3, .L182+12
 3087              	.L181:
 749:d:/LiteOS_Lab/iot_link/oc/oc_lwm2m/boudica150_oc\boudica150_oc.c **** }
 3088              		.loc 1 749 1 discriminator 1
 3089 0152 1846     		mov	r0, r3
 3090 0154 07F5B077 		add	r7, r7, #352
 3091              	.LCFI127:
 3092              		.cfi_def_cfa_offset 8
 3093 0158 BD46     		mov	sp, r7
 3094              	.LCFI128:
 3095              		.cfi_def_cfa_register 13
 3096              		@ sp needed
 3097 015a 80BD     		pop	{r7, pc}
 3098              	.L183:
 3099              		.align	2
 3100              	.L182:
 3101 015c FC020000 		.word	.LC45
 3102 0160 10030000 		.word	.LC46
 3103 0164 1C030000 		.word	.LC47
 3104 0168 00000000 		.word	wireless_stats
 3105 016c 40030000 		.word	.LC48
 3106 0170 14000000 		.word	.LC2
 3107 0174 50030000 		.word	.LC49
 3108 0178 04000000 		.word	wireless_stats+4
 3109 017c 58030000 		.word	.LC50
 3110 0180 60030000 		.word	.LC51
 3111 0184 08000000 		.word	wireless_stats+8
 3112 0188 68030000 		.word	.LC52
 3113 018c 70030000 		.word	.LC53
 3114 0190 0C000000 		.word	wireless_stats+12
 3115 0194 7C030000 		.word	.LC54
 3116              		.cfi_endproc
 3117              	.LFE28:
 3119              		.global	g_boudica150_oc_opt
 3120              		.section	.rodata.g_boudica150_oc_opt,"a"
 3121              		.align	2
 3124              	g_boudica150_oc_opt:
 3125 0000 00000000 		.word	boudica150_oc_config
 3126 0004 00000000 		.word	boudica150_oc_report
 3127 0008 00000000 		.word	boudica150_oc_deconfig
 3128              		.section	.rodata
 3129 0387 00       		.align	2
 3130              	.LC55:
 3131 0388 352C382C 		.ascii	"5,8,20\000"
 3131      323000
 3132 038f 00       		.align	2
 3133              	.LC56:
 3134 0390 626F7564 		.ascii	"boudica150\000"
 3134      69636131 
 3134      353000
 3135              		.section	.text.oc_lwm2m_imp_init,"ax",%progbits
 3136              		.align	1
 3137              		.global	oc_lwm2m_imp_init
 3138              		.syntax unified
 3139              		.thumb
ARM GAS  C:\Users\ADMINI~1\AppData\Local\Temp\ccWbmWws.s 			page 71


 3140              		.thumb_func
 3141              		.fpu fpv4-sp-d16
 3143              	oc_lwm2m_imp_init:
 3144              	.LFB29:
 750:d:/LiteOS_Lab/iot_link/oc/oc_lwm2m/boudica150_oc\boudica150_oc.c **** 
 751:d:/LiteOS_Lab/iot_link/oc/oc_lwm2m/boudica150_oc\boudica150_oc.c **** const oc_lwm2m_opt_t  g_boudica150_oc_opt = \
 752:d:/LiteOS_Lab/iot_link/oc/oc_lwm2m/boudica150_oc\boudica150_oc.c **** {
 753:d:/LiteOS_Lab/iot_link/oc/oc_lwm2m/boudica150_oc\boudica150_oc.c ****     .config = boudica150_oc_config,
 754:d:/LiteOS_Lab/iot_link/oc/oc_lwm2m/boudica150_oc\boudica150_oc.c ****     .deconfig = boudica150_oc_deconfig,
 755:d:/LiteOS_Lab/iot_link/oc/oc_lwm2m/boudica150_oc\boudica150_oc.c ****     .report = (fn_oc_lwm2m_report)boudica150_oc_report,
 756:d:/LiteOS_Lab/iot_link/oc/oc_lwm2m/boudica150_oc\boudica150_oc.c **** };
 757:d:/LiteOS_Lab/iot_link/oc/oc_lwm2m/boudica150_oc\boudica150_oc.c **** 
 758:d:/LiteOS_Lab/iot_link/oc/oc_lwm2m/boudica150_oc\boudica150_oc.c **** 
 759:d:/LiteOS_Lab/iot_link/oc/oc_lwm2m/boudica150_oc\boudica150_oc.c **** #ifndef CONFIG_BOUDICA150_PLMN
 760:d:/LiteOS_Lab/iot_link/oc/oc_lwm2m/boudica150_oc\boudica150_oc.c **** #define CONFIG_BOUDICA150_PLMN  "460001"
 761:d:/LiteOS_Lab/iot_link/oc/oc_lwm2m/boudica150_oc\boudica150_oc.c **** #endif
 762:d:/LiteOS_Lab/iot_link/oc/oc_lwm2m/boudica150_oc\boudica150_oc.c **** 
 763:d:/LiteOS_Lab/iot_link/oc/oc_lwm2m/boudica150_oc\boudica150_oc.c **** 
 764:d:/LiteOS_Lab/iot_link/oc/oc_lwm2m/boudica150_oc\boudica150_oc.c **** #ifndef CONFIG_BOUDICA150_APN
 765:d:/LiteOS_Lab/iot_link/oc/oc_lwm2m/boudica150_oc\boudica150_oc.c **** #define CONFIG_BOUDICA150_APN   "cmnet"
 766:d:/LiteOS_Lab/iot_link/oc/oc_lwm2m/boudica150_oc\boudica150_oc.c **** #endif
 767:d:/LiteOS_Lab/iot_link/oc/oc_lwm2m/boudica150_oc\boudica150_oc.c **** 
 768:d:/LiteOS_Lab/iot_link/oc/oc_lwm2m/boudica150_oc\boudica150_oc.c **** 
 769:d:/LiteOS_Lab/iot_link/oc/oc_lwm2m/boudica150_oc\boudica150_oc.c **** #ifndef CONFIG_BOUDICA150_BANDS
 770:d:/LiteOS_Lab/iot_link/oc/oc_lwm2m/boudica150_oc\boudica150_oc.c **** #define CONFIG_BOUDICA150_BANDS  "5,8,20"
 771:d:/LiteOS_Lab/iot_link/oc/oc_lwm2m/boudica150_oc\boudica150_oc.c **** #endif
 772:d:/LiteOS_Lab/iot_link/oc/oc_lwm2m/boudica150_oc\boudica150_oc.c **** 
 773:d:/LiteOS_Lab/iot_link/oc/oc_lwm2m/boudica150_oc\boudica150_oc.c **** int oc_lwm2m_imp_init(void)
 774:d:/LiteOS_Lab/iot_link/oc/oc_lwm2m/boudica150_oc\boudica150_oc.c **** {
 3145              		.loc 1 774 1
 3146              		.cfi_startproc
 3147              		@ args = 0, pretend = 0, frame = 8
 3148              		@ frame_needed = 1, uses_anonymous_args = 0
 3149 0000 80B5     		push	{r7, lr}
 3150              	.LCFI129:
 3151              		.cfi_def_cfa_offset 8
 3152              		.cfi_offset 7, -8
 3153              		.cfi_offset 14, -4
 3154 0002 82B0     		sub	sp, sp, #8
 3155              	.LCFI130:
 3156              		.cfi_def_cfa_offset 16
 3157 0004 00AF     		add	r7, sp, #0
 3158              	.LCFI131:
 3159              		.cfi_def_cfa_register 7
 775:d:/LiteOS_Lab/iot_link/oc/oc_lwm2m/boudica150_oc\boudica150_oc.c ****     int ret = -1;
 3160              		.loc 1 775 9
 3161 0006 4FF0FF33 		mov	r3, #-1
 3162 000a 7B60     		str	r3, [r7, #4]
 776:d:/LiteOS_Lab/iot_link/oc/oc_lwm2m/boudica150_oc\boudica150_oc.c **** 
 777:d:/LiteOS_Lab/iot_link/oc/oc_lwm2m/boudica150_oc\boudica150_oc.c ****     s_boudica150_oc_cb.plmn = NULL;
 3163              		.loc 1 777 29
 3164 000c 0A4B     		ldr	r3, .L186
 3165 000e 0022     		movs	r2, #0
 3166 0010 1A60     		str	r2, [r3]
 778:d:/LiteOS_Lab/iot_link/oc/oc_lwm2m/boudica150_oc\boudica150_oc.c ****     s_boudica150_oc_cb.apn = NULL;
 3167              		.loc 1 778 28
 3168 0012 094B     		ldr	r3, .L186
ARM GAS  C:\Users\ADMINI~1\AppData\Local\Temp\ccWbmWws.s 			page 72


 3169 0014 0022     		movs	r2, #0
 3170 0016 5A60     		str	r2, [r3, #4]
 779:d:/LiteOS_Lab/iot_link/oc/oc_lwm2m/boudica150_oc\boudica150_oc.c ****     s_boudica150_oc_cb.bands = CONFIG_BOUDICA150_BANDS;
 3171              		.loc 1 779 30
 3172 0018 074B     		ldr	r3, .L186
 3173 001a 084A     		ldr	r2, .L186+4
 3174 001c 9A60     		str	r2, [r3, #8]
 780:d:/LiteOS_Lab/iot_link/oc/oc_lwm2m/boudica150_oc\boudica150_oc.c **** 
 781:d:/LiteOS_Lab/iot_link/oc/oc_lwm2m/boudica150_oc\boudica150_oc.c ****     osal_mutex_create(&s_report_mutex);
 3175              		.loc 1 781 5
 3176 001e 0848     		ldr	r0, .L186+8
 3177 0020 FFF7FEFF 		bl	osal_mutex_create
 782:d:/LiteOS_Lab/iot_link/oc/oc_lwm2m/boudica150_oc\boudica150_oc.c **** 
 783:d:/LiteOS_Lab/iot_link/oc/oc_lwm2m/boudica150_oc\boudica150_oc.c ****     ret = oc_lwm2m_register("boudica150",&g_boudica150_oc_opt);
 3178              		.loc 1 783 11
 3179 0024 0749     		ldr	r1, .L186+12
 3180 0026 0848     		ldr	r0, .L186+16
 3181 0028 FFF7FEFF 		bl	oc_lwm2m_register
 3182 002c 7860     		str	r0, [r7, #4]
 784:d:/LiteOS_Lab/iot_link/oc/oc_lwm2m/boudica150_oc\boudica150_oc.c **** 
 785:d:/LiteOS_Lab/iot_link/oc/oc_lwm2m/boudica150_oc\boudica150_oc.c ****     return ret;
 3183              		.loc 1 785 12
 3184 002e 7B68     		ldr	r3, [r7, #4]
 786:d:/LiteOS_Lab/iot_link/oc/oc_lwm2m/boudica150_oc\boudica150_oc.c **** }
 3185              		.loc 1 786 1
 3186 0030 1846     		mov	r0, r3
 3187 0032 0837     		adds	r7, r7, #8
 3188              	.LCFI132:
 3189              		.cfi_def_cfa_offset 8
 3190 0034 BD46     		mov	sp, r7
 3191              	.LCFI133:
 3192              		.cfi_def_cfa_register 13
 3193              		@ sp needed
 3194 0036 80BD     		pop	{r7, pc}
 3195              	.L187:
 3196              		.align	2
 3197              	.L186:
 3198 0038 00000000 		.word	s_boudica150_oc_cb
 3199 003c 88030000 		.word	.LC55
 3200 0040 00000000 		.word	s_report_mutex
 3201 0044 00000000 		.word	g_boudica150_oc_opt
 3202 0048 90030000 		.word	.LC56
 3203              		.cfi_endproc
 3204              	.LFE29:
 3206              		.section	.rodata.__FUNCTION__.7106,"a"
 3207              		.align	2
 3210              	__FUNCTION__.7106:
 3211 0000 626F7564 		.ascii	"boudica150_rcvdeal\000"
 3211      69636131 
 3211      35305F72 
 3211      63766465 
 3211      616C00
 3212              		.section	.rodata.__FUNCTION__.7177,"a"
 3213              		.align	2
 3216              	__FUNCTION__.7177:
 3217 0000 7572635F 		.ascii	"urc_qlwevtind\000"
 3217      716C7765 
ARM GAS  C:\Users\ADMINI~1\AppData\Local\Temp\ccWbmWws.s 			page 73


 3217      7674696E 
 3217      6400
 3218              		.section	.rodata.__FUNCTION__.7211,"a"
 3219              		.align	2
 3222              	__FUNCTION__.7211:
 3223 0000 626F7564 		.ascii	"boudica150_boot\000"
 3223      69636131 
 3223      35305F62 
 3223      6F6F7400 
 3224              		.text
 3225              	.Letext0:
 3226              		.file 2 "c:\\users\\administrator\\.huawei-liteos-studio\\tools\\arm-none-eabi\\lib\\gcc\\arm-none
 3227              		.file 3 "c:\\users\\administrator\\.huawei-liteos-studio\\tools\\arm-none-eabi\\arm-none-eabi\\inc
 3228              		.file 4 "c:\\users\\administrator\\.huawei-liteos-studio\\tools\\arm-none-eabi\\arm-none-eabi\\inc
 3229              		.file 5 "c:\\users\\administrator\\.huawei-liteos-studio\\tools\\arm-none-eabi\\arm-none-eabi\\inc
 3230              		.file 6 "d:/LiteOS_Lab/iot_link/os/osal/osal_types.h"
 3231              		.file 7 "d:/LiteOS_Lab/iot_link/oc/oc_lwm2m/oc_lwm2m_al/oc_lwm2m_al.h"
 3232              		.file 8 "d:/LiteOS_Lab/iot_link/inc/link_log.h"
ARM GAS  C:\Users\ADMINI~1\AppData\Local\Temp\ccWbmWws.s 			page 74

