GAS LISTING /tmp/cc1ytava.s 			page 1


   1              		.file	"secureinput_w.c"
   2              		.text
   3              	.Ltext0:
   4              		.section	.text.SecIs64BitPtr,"ax",@progbits
   6              	SecIs64BitPtr:
   7              	.LFB6:
   8              		.file 1 "/home/xingli/share/LiteOS_Lab/secure_c/src/input.inl"
   1:/home/xingli/share/LiteOS_Lab/secure_c/src/input.inl **** /*
   2:/home/xingli/share/LiteOS_Lab/secure_c/src/input.inl ****  * Copyright (c) [2019] Huawei Technologies Co.,Ltd.All rights reserved.
   3:/home/xingli/share/LiteOS_Lab/secure_c/src/input.inl ****  *
   4:/home/xingli/share/LiteOS_Lab/secure_c/src/input.inl ****  * OpenArkCompiler is licensed under the Mulan PSL v1. 
   5:/home/xingli/share/LiteOS_Lab/secure_c/src/input.inl ****  * You can use this software according to the terms and conditions of the Mulan PSL v1.
   6:/home/xingli/share/LiteOS_Lab/secure_c/src/input.inl ****  * You may obtain a copy of Mulan PSL v1 at:
   7:/home/xingli/share/LiteOS_Lab/secure_c/src/input.inl ****  *
   8:/home/xingli/share/LiteOS_Lab/secure_c/src/input.inl ****  * 	http://license.coscl.org.cn/MulanPSL 
   9:/home/xingli/share/LiteOS_Lab/secure_c/src/input.inl ****  *
  10:/home/xingli/share/LiteOS_Lab/secure_c/src/input.inl ****  * THIS SOFTWARE IS PROVIDED ON AN "AS IS" BASIS, WITHOUT WARRANTIES OF ANY KIND, EITHER 
  11:/home/xingli/share/LiteOS_Lab/secure_c/src/input.inl ****  * EXPRESS OR IMPLIED, INCLUDING BUT NOT LIMITED TO NON-INFRINGEMENT, MERCHANTABILITY OR
  12:/home/xingli/share/LiteOS_Lab/secure_c/src/input.inl ****  * FIT FOR A PARTICULAR PURPOSE.  
  13:/home/xingli/share/LiteOS_Lab/secure_c/src/input.inl ****  * See the Mulan PSL v1 for more details.  
  14:/home/xingli/share/LiteOS_Lab/secure_c/src/input.inl ****  */
  15:/home/xingli/share/LiteOS_Lab/secure_c/src/input.inl **** /* [Standardize-exceptions] Use unsafe function: Performance-sensitive
  16:/home/xingli/share/LiteOS_Lab/secure_c/src/input.inl ****  * [reason] Always used in the performance critical path,
  17:/home/xingli/share/LiteOS_Lab/secure_c/src/input.inl ****  *          and sufficient input validation is performed before calling
  18:/home/xingli/share/LiteOS_Lab/secure_c/src/input.inl ****  */
  19:/home/xingli/share/LiteOS_Lab/secure_c/src/input.inl **** 
  20:/home/xingli/share/LiteOS_Lab/secure_c/src/input.inl **** #ifndef INPUT_INL_5D13A042_DC3F_4ED9_A8D1_882811274C27
  21:/home/xingli/share/LiteOS_Lab/secure_c/src/input.inl **** #define INPUT_INL_5D13A042_DC3F_4ED9_A8D1_882811274C27
  22:/home/xingli/share/LiteOS_Lab/secure_c/src/input.inl **** 
  23:/home/xingli/share/LiteOS_Lab/secure_c/src/input.inl **** #if SECUREC_IN_KERNEL
  24:/home/xingli/share/LiteOS_Lab/secure_c/src/input.inl **** #include <linux/ctype.h>
  25:/home/xingli/share/LiteOS_Lab/secure_c/src/input.inl **** #ifndef EOF
  26:/home/xingli/share/LiteOS_Lab/secure_c/src/input.inl **** #define EOF  (-1)
  27:/home/xingli/share/LiteOS_Lab/secure_c/src/input.inl **** #endif
  28:/home/xingli/share/LiteOS_Lab/secure_c/src/input.inl **** #else
  29:/home/xingli/share/LiteOS_Lab/secure_c/src/input.inl **** #if !defined(SECUREC_SYSAPI4VXWORKS) && !defined(SECUREC_CTYPE_MACRO_ADAPT)
  30:/home/xingli/share/LiteOS_Lab/secure_c/src/input.inl **** #include <ctype.h>
  31:/home/xingli/share/LiteOS_Lab/secure_c/src/input.inl **** #ifdef SECUREC_FOR_WCHAR
  32:/home/xingli/share/LiteOS_Lab/secure_c/src/input.inl **** #include <wctype.h>             /* for iswspace */
  33:/home/xingli/share/LiteOS_Lab/secure_c/src/input.inl **** #endif
  34:/home/xingli/share/LiteOS_Lab/secure_c/src/input.inl **** #endif
  35:/home/xingli/share/LiteOS_Lab/secure_c/src/input.inl **** #endif
  36:/home/xingli/share/LiteOS_Lab/secure_c/src/input.inl **** 
  37:/home/xingli/share/LiteOS_Lab/secure_c/src/input.inl **** #define SECUREC_NUM_WIDTH_SHORT                 0
  38:/home/xingli/share/LiteOS_Lab/secure_c/src/input.inl **** #define SECUREC_NUM_WIDTH_INT                   1
  39:/home/xingli/share/LiteOS_Lab/secure_c/src/input.inl **** #define SECUREC_NUM_WIDTH_LONG                  2
  40:/home/xingli/share/LiteOS_Lab/secure_c/src/input.inl **** #define SECUREC_NUM_WIDTH_LONG_LONG             3 /* also long double */
  41:/home/xingli/share/LiteOS_Lab/secure_c/src/input.inl **** 
  42:/home/xingli/share/LiteOS_Lab/secure_c/src/input.inl **** #define SECUREC_BUF_EXT_MUL                     2
  43:/home/xingli/share/LiteOS_Lab/secure_c/src/input.inl **** #define SECUREC_BUFFERED_BLOK_SIZE              1024
  44:/home/xingli/share/LiteOS_Lab/secure_c/src/input.inl **** 
  45:/home/xingli/share/LiteOS_Lab/secure_c/src/input.inl **** #if defined(SECUREC_VXWORKS_PLATFORM) && !defined(va_copy) && !defined(__va_copy)
  46:/home/xingli/share/LiteOS_Lab/secure_c/src/input.inl **** /* the name is the same as system macro. */
  47:/home/xingli/share/LiteOS_Lab/secure_c/src/input.inl **** #define __va_copy(d, s) do { \
  48:/home/xingli/share/LiteOS_Lab/secure_c/src/input.inl ****     size_t size_of_d = (size_t)sizeof(d); \
  49:/home/xingli/share/LiteOS_Lab/secure_c/src/input.inl ****     size_t size_of_s = (size_t)sizeof(s); \
  50:/home/xingli/share/LiteOS_Lab/secure_c/src/input.inl ****     if (size_of_d != size_of_s) { \
GAS LISTING /tmp/cc1ytava.s 			page 2


  51:/home/xingli/share/LiteOS_Lab/secure_c/src/input.inl ****         (void)memcpy((d), (s), sizeof(va_list)); \
  52:/home/xingli/share/LiteOS_Lab/secure_c/src/input.inl ****     } else { \
  53:/home/xingli/share/LiteOS_Lab/secure_c/src/input.inl ****         (void)memcpy(&(d), &(s), sizeof(va_list)); \
  54:/home/xingli/share/LiteOS_Lab/secure_c/src/input.inl ****     } \
  55:/home/xingli/share/LiteOS_Lab/secure_c/src/input.inl **** } SECUREC_WHILE_ZERO
  56:/home/xingli/share/LiteOS_Lab/secure_c/src/input.inl **** #endif
  57:/home/xingli/share/LiteOS_Lab/secure_c/src/input.inl **** 
  58:/home/xingli/share/LiteOS_Lab/secure_c/src/input.inl **** 
  59:/home/xingli/share/LiteOS_Lab/secure_c/src/input.inl **** #define SECUREC_MULTI_BYTE_MAX_LEN              6
  60:/home/xingli/share/LiteOS_Lab/secure_c/src/input.inl **** /* Record a flag for each bit */
  61:/home/xingli/share/LiteOS_Lab/secure_c/src/input.inl **** #define SECUREC_BRACKET_INDEX(x)                ((unsigned int)(x) >> 3)
  62:/home/xingli/share/LiteOS_Lab/secure_c/src/input.inl **** #define SECUREC_BRACKET_VALUE(x)                ((unsigned char)(1 << ((unsigned int)(x) & 7)))
  63:/home/xingli/share/LiteOS_Lab/secure_c/src/input.inl **** 
  64:/home/xingli/share/LiteOS_Lab/secure_c/src/input.inl **** 
  65:/home/xingli/share/LiteOS_Lab/secure_c/src/input.inl **** /* Compatibility macro name cannot be modifie */
  66:/home/xingli/share/LiteOS_Lab/secure_c/src/input.inl **** #ifndef UNALIGNED
  67:/home/xingli/share/LiteOS_Lab/secure_c/src/input.inl **** #if !(defined(_M_IA64)) && !(defined(_M_AMD64))
  68:/home/xingli/share/LiteOS_Lab/secure_c/src/input.inl **** #define UNALIGNED
  69:/home/xingli/share/LiteOS_Lab/secure_c/src/input.inl **** #else
  70:/home/xingli/share/LiteOS_Lab/secure_c/src/input.inl **** #define UNALIGNED __unaligned
  71:/home/xingli/share/LiteOS_Lab/secure_c/src/input.inl **** #endif
  72:/home/xingli/share/LiteOS_Lab/secure_c/src/input.inl **** #endif
  73:/home/xingli/share/LiteOS_Lab/secure_c/src/input.inl **** 
  74:/home/xingli/share/LiteOS_Lab/secure_c/src/input.inl **** #if (defined(SECUREC_COMPATIBLE_LINUX_FORMAT) && !(defined(SECUREC_ON_UNIX)))
  75:/home/xingli/share/LiteOS_Lab/secure_c/src/input.inl **** /* Max 64bit value is 0xffffffffffffffff */
  76:/home/xingli/share/LiteOS_Lab/secure_c/src/input.inl **** #define SECUREC_MAX_64BITS_VALUE                18446744073709551615ULL
  77:/home/xingli/share/LiteOS_Lab/secure_c/src/input.inl **** #define SECUREC_MAX_64BITS_VALUE_DIV_TEN        1844674407370955161ULL
  78:/home/xingli/share/LiteOS_Lab/secure_c/src/input.inl **** #define SECUREC_MAX_64BITS_VALUE_CUT_LAST_DIGIT 18446744073709551610ULL
  79:/home/xingli/share/LiteOS_Lab/secure_c/src/input.inl **** #define SECUREC_MIN_64BITS_NEG_VALUE            9223372036854775808ULL
  80:/home/xingli/share/LiteOS_Lab/secure_c/src/input.inl **** #define SECUREC_MAX_64BITS_POS_VALUE            9223372036854775807ULL
  81:/home/xingli/share/LiteOS_Lab/secure_c/src/input.inl **** #define SECUREC_MIN_32BITS_NEG_VALUE            2147483648ULL
  82:/home/xingli/share/LiteOS_Lab/secure_c/src/input.inl **** #define SECUREC_MAX_32BITS_POS_VALUE            2147483647ULL
  83:/home/xingli/share/LiteOS_Lab/secure_c/src/input.inl **** #define SECUREC_MAX_32BITS_VALUE                4294967295ULL
  84:/home/xingli/share/LiteOS_Lab/secure_c/src/input.inl **** #define SECUREC_MAX_32BITS_VALUE_INC            4294967296ULL
  85:/home/xingli/share/LiteOS_Lab/secure_c/src/input.inl **** #define SECUREC_MAX_32BITS_VALUE_DIV_TEN        429496729ULL
  86:/home/xingli/share/LiteOS_Lab/secure_c/src/input.inl **** #define SECUREC_LONG_BIT_NUM                    ((unsigned int)(sizeof(long) << 3U))
  87:/home/xingli/share/LiteOS_Lab/secure_c/src/input.inl **** 
  88:/home/xingli/share/LiteOS_Lab/secure_c/src/input.inl **** #define SECUREC_LONG_HEX_BEYOND_MAX(number)     (((number) >> (SECUREC_LONG_BIT_NUM - 4U)) > 0)
  89:/home/xingli/share/LiteOS_Lab/secure_c/src/input.inl **** #define SECUREC_LONG_OCTAL_BEYOND_MAX(number)   (((number) >> (SECUREC_LONG_BIT_NUM - 3U)) > 0)
  90:/home/xingli/share/LiteOS_Lab/secure_c/src/input.inl **** 
  91:/home/xingli/share/LiteOS_Lab/secure_c/src/input.inl **** #define SECUREC_QWORD_HEX_BEYOND_MAX(number)    (((number) >> (64U - 4U)) > 0)
  92:/home/xingli/share/LiteOS_Lab/secure_c/src/input.inl **** #define SECUREC_QWORD_OCTAL_BEYOND_MAX(number)  (((number) >> (64U - 3U)) > 0)
  93:/home/xingli/share/LiteOS_Lab/secure_c/src/input.inl **** 
  94:/home/xingli/share/LiteOS_Lab/secure_c/src/input.inl **** #define SECUREC_LP64_BIT_WIDTH                  64
  95:/home/xingli/share/LiteOS_Lab/secure_c/src/input.inl **** #define SECUREC_LP32_BIT_WIDTH                  32
  96:/home/xingli/share/LiteOS_Lab/secure_c/src/input.inl **** 
  97:/home/xingli/share/LiteOS_Lab/secure_c/src/input.inl **** #endif
  98:/home/xingli/share/LiteOS_Lab/secure_c/src/input.inl **** 
  99:/home/xingli/share/LiteOS_Lab/secure_c/src/input.inl **** #define SECUREC_CHAR(x)                         (x)
 100:/home/xingli/share/LiteOS_Lab/secure_c/src/input.inl **** #define SECUREC_BRACE                           '{'     /* [ to { */
 101:/home/xingli/share/LiteOS_Lab/secure_c/src/input.inl **** 
 102:/home/xingli/share/LiteOS_Lab/secure_c/src/input.inl **** #ifdef SECUREC_FOR_WCHAR
 103:/home/xingli/share/LiteOS_Lab/secure_c/src/input.inl **** #define SECUREC_SCANF_BRACKET_CONDITION(comChr, ch, table, mask) ((comChr) == SECUREC_BRACE && \
 104:/home/xingli/share/LiteOS_Lab/secure_c/src/input.inl ****     (table) != NULL && \
 105:/home/xingli/share/LiteOS_Lab/secure_c/src/input.inl ****     (((table)[((unsigned int)(int)(ch) & SECUREC_CHAR_MASK) >> 3] ^ (mask)) & \
 106:/home/xingli/share/LiteOS_Lab/secure_c/src/input.inl ****     (1 << ((unsigned int)(int)(ch) & 7))))
 107:/home/xingli/share/LiteOS_Lab/secure_c/src/input.inl **** #else
GAS LISTING /tmp/cc1ytava.s 			page 3


 108:/home/xingli/share/LiteOS_Lab/secure_c/src/input.inl **** #define SECUREC_SCANF_BRACKET_CONDITION(comChr, ch, table, mask) ((comChr) == SECUREC_BRACE && \
 109:/home/xingli/share/LiteOS_Lab/secure_c/src/input.inl ****     (((table)[((unsigned char)(ch) & 0xff) >> 3] ^ (mask)) & (1 << ((unsigned char)(ch) & 7))))
 110:/home/xingli/share/LiteOS_Lab/secure_c/src/input.inl **** #endif
 111:/home/xingli/share/LiteOS_Lab/secure_c/src/input.inl **** #define SECUREC_SCANF_STRING_CONDITION(comChr, ch) ((comChr) == SECUREC_CHAR('s') && \
 112:/home/xingli/share/LiteOS_Lab/secure_c/src/input.inl ****     (!((ch) >= SECUREC_CHAR('\t') && (ch) <= SECUREC_CHAR('\r')) && (ch) != SECUREC_CHAR(' ')))
 113:/home/xingli/share/LiteOS_Lab/secure_c/src/input.inl **** 
 114:/home/xingli/share/LiteOS_Lab/secure_c/src/input.inl **** /* Do not use   |=   optimize this code, it will cause compiling warning */
 115:/home/xingli/share/LiteOS_Lab/secure_c/src/input.inl **** /* only supports  wide characters with a maximum length of two bytes */
 116:/home/xingli/share/LiteOS_Lab/secure_c/src/input.inl **** #define SECUREC_BRACKET_SET_BIT(table, ch) do { \
 117:/home/xingli/share/LiteOS_Lab/secure_c/src/input.inl ****     unsigned int tableIndex = SECUREC_BRACKET_INDEX(((unsigned int)(int)(ch) & SECUREC_CHAR_MASK));
 118:/home/xingli/share/LiteOS_Lab/secure_c/src/input.inl ****     unsigned int tableValue = SECUREC_BRACKET_VALUE(((unsigned int)(int)(ch) & SECUREC_CHAR_MASK));
 119:/home/xingli/share/LiteOS_Lab/secure_c/src/input.inl ****     (table)[tableIndex] = (unsigned char)((table)[tableIndex] | tableValue); \
 120:/home/xingli/share/LiteOS_Lab/secure_c/src/input.inl **** } SECUREC_WHILE_ZERO
 121:/home/xingli/share/LiteOS_Lab/secure_c/src/input.inl **** 
 122:/home/xingli/share/LiteOS_Lab/secure_c/src/input.inl **** #ifdef SECUREC_FOR_WCHAR
 123:/home/xingli/share/LiteOS_Lab/secure_c/src/input.inl **** /* table size is 32 x 256 */
 124:/home/xingli/share/LiteOS_Lab/secure_c/src/input.inl **** #define SECUREC_BRACKET_TABLE_SIZE    8192
 125:/home/xingli/share/LiteOS_Lab/secure_c/src/input.inl **** #define SECUREC_EOF WEOF
 126:/home/xingli/share/LiteOS_Lab/secure_c/src/input.inl **** #define SECUREC_MB_LEN 16       /* max. # bytes in multibyte char  ,see MB_LEN_MAX */
 127:/home/xingli/share/LiteOS_Lab/secure_c/src/input.inl **** /* int to unsigned int clear  e571 */
 128:/home/xingli/share/LiteOS_Lab/secure_c/src/input.inl **** #define SECUREC_IS_DIGIT(chr)  (!((unsigned int)(int)(chr) & 0xff00) && isdigit(((unsigned int)(int
 129:/home/xingli/share/LiteOS_Lab/secure_c/src/input.inl **** #define SECUREC_IS_XDIGIT(chr) (!((unsigned int)(int)(chr) & 0xff00) && isxdigit(((unsigned int)(in
 130:/home/xingli/share/LiteOS_Lab/secure_c/src/input.inl **** #define SECUREC_IS_SPACE(chr)    iswspace((wint_t)(int)(chr))
 131:/home/xingli/share/LiteOS_Lab/secure_c/src/input.inl **** #else
 132:/home/xingli/share/LiteOS_Lab/secure_c/src/input.inl **** #define SECUREC_BRACKET_TABLE_SIZE    32
 133:/home/xingli/share/LiteOS_Lab/secure_c/src/input.inl **** #define SECUREC_EOF EOF
 134:/home/xingli/share/LiteOS_Lab/secure_c/src/input.inl **** #define SECUREC_IS_DIGIT(chr)    isdigit((unsigned char)(chr) & 0x00ff)
 135:/home/xingli/share/LiteOS_Lab/secure_c/src/input.inl **** #define SECUREC_IS_XDIGIT(chr)   isxdigit((unsigned char)(chr) & 0x00ff)
 136:/home/xingli/share/LiteOS_Lab/secure_c/src/input.inl **** #define SECUREC_IS_SPACE(chr)    isspace((unsigned char)(chr) & 0x00ff)
 137:/home/xingli/share/LiteOS_Lab/secure_c/src/input.inl **** #endif
 138:/home/xingli/share/LiteOS_Lab/secure_c/src/input.inl **** 
 139:/home/xingli/share/LiteOS_Lab/secure_c/src/input.inl **** 
 140:/home/xingli/share/LiteOS_Lab/secure_c/src/input.inl **** static SecInt SecSkipSpaceChar(SecFileStream *stream, int *counter);
 141:/home/xingli/share/LiteOS_Lab/secure_c/src/input.inl **** static SecInt SecGetChar(SecFileStream *stream, int *counter);
 142:/home/xingli/share/LiteOS_Lab/secure_c/src/input.inl **** static void SecUnGetChar(SecInt ch, SecFileStream *stream, int *counter);
 143:/home/xingli/share/LiteOS_Lab/secure_c/src/input.inl **** 
 144:/home/xingli/share/LiteOS_Lab/secure_c/src/input.inl **** typedef struct {
 145:/home/xingli/share/LiteOS_Lab/secure_c/src/input.inl **** #ifdef SECUREC_FOR_WCHAR
 146:/home/xingli/share/LiteOS_Lab/secure_c/src/input.inl ****     unsigned char *table; /* default NULL */
 147:/home/xingli/share/LiteOS_Lab/secure_c/src/input.inl **** #else
 148:/home/xingli/share/LiteOS_Lab/secure_c/src/input.inl ****     unsigned char table[SECUREC_BRACKET_TABLE_SIZE]; /* Array length is large enough in application
 149:/home/xingli/share/LiteOS_Lab/secure_c/src/input.inl **** #endif
 150:/home/xingli/share/LiteOS_Lab/secure_c/src/input.inl ****     unsigned char mask; /* default 0 */
 151:/home/xingli/share/LiteOS_Lab/secure_c/src/input.inl **** } SecBracketTable;
 152:/home/xingli/share/LiteOS_Lab/secure_c/src/input.inl **** 
 153:/home/xingli/share/LiteOS_Lab/secure_c/src/input.inl **** #ifdef SECUREC_FOR_WCHAR
 154:/home/xingli/share/LiteOS_Lab/secure_c/src/input.inl **** #define SECUREC_INIT_BRACKET_TABLE { NULL, 0 }
 155:/home/xingli/share/LiteOS_Lab/secure_c/src/input.inl **** #else
 156:/home/xingli/share/LiteOS_Lab/secure_c/src/input.inl **** #define SECUREC_INIT_BRACKET_TABLE { { 0 }, 0 }
 157:/home/xingli/share/LiteOS_Lab/secure_c/src/input.inl **** #endif
 158:/home/xingli/share/LiteOS_Lab/secure_c/src/input.inl **** 
 159:/home/xingli/share/LiteOS_Lab/secure_c/src/input.inl **** #if SECUREC_ENABLE_SCANF_FLOAT
 160:/home/xingli/share/LiteOS_Lab/secure_c/src/input.inl **** typedef struct {
 161:/home/xingli/share/LiteOS_Lab/secure_c/src/input.inl ****     size_t floatStrSize;           /* tialization must be length of buffer in charater */
 162:/home/xingli/share/LiteOS_Lab/secure_c/src/input.inl ****     size_t floatStrUsedLen;        /* store float string len */
 163:/home/xingli/share/LiteOS_Lab/secure_c/src/input.inl ****     SecChar buffer[SECUREC_FLOAT_BUFSIZE + 1];
 164:/home/xingli/share/LiteOS_Lab/secure_c/src/input.inl ****     SecChar *floatStr;            /* Initialization must point to buffer */
GAS LISTING /tmp/cc1ytava.s 			page 4


 165:/home/xingli/share/LiteOS_Lab/secure_c/src/input.inl ****     SecChar *allocatedFloatStr;   /* Initialization must be NULL  to store alloced point */
 166:/home/xingli/share/LiteOS_Lab/secure_c/src/input.inl **** } SecFloatSpec;
 167:/home/xingli/share/LiteOS_Lab/secure_c/src/input.inl **** #endif
 168:/home/xingli/share/LiteOS_Lab/secure_c/src/input.inl **** 
 169:/home/xingli/share/LiteOS_Lab/secure_c/src/input.inl **** typedef struct {
 170:/home/xingli/share/LiteOS_Lab/secure_c/src/input.inl ****     SecUnsignedInt64 number64;
 171:/home/xingli/share/LiteOS_Lab/secure_c/src/input.inl ****     unsigned long number;
 172:/home/xingli/share/LiteOS_Lab/secure_c/src/input.inl ****     int numberWidth;     /* 0 = SHORT, 1 = int, > 1  long or L_DOUBLE */
 173:/home/xingli/share/LiteOS_Lab/secure_c/src/input.inl ****     int isInt64Arg;      /* 1 for 64-bit integer, 0 otherwise */
 174:/home/xingli/share/LiteOS_Lab/secure_c/src/input.inl ****     int negative;        /* 0 is positive */
 175:/home/xingli/share/LiteOS_Lab/secure_c/src/input.inl **** #if (defined(SECUREC_COMPATIBLE_LINUX_FORMAT) && !(defined(SECUREC_ON_UNIX)))
 176:/home/xingli/share/LiteOS_Lab/secure_c/src/input.inl ****     int beyondMax;       /* Non-zero means beyond */
 177:/home/xingli/share/LiteOS_Lab/secure_c/src/input.inl **** #endif
 178:/home/xingli/share/LiteOS_Lab/secure_c/src/input.inl ****     void *argPtr;        /* Variable parameter pointer */
 179:/home/xingli/share/LiteOS_Lab/secure_c/src/input.inl ****     size_t arrayWidth;   /* length of pointer Variable parameter, in charaters */
 180:/home/xingli/share/LiteOS_Lab/secure_c/src/input.inl ****     int width;           /* width number in format */
 181:/home/xingli/share/LiteOS_Lab/secure_c/src/input.inl ****     int widthSet;        /* 0 is not set width in format */
 182:/home/xingli/share/LiteOS_Lab/secure_c/src/input.inl ****     int comChr;          /* Lowercase format conversion characters */
 183:/home/xingli/share/LiteOS_Lab/secure_c/src/input.inl ****     int oriComChr;       /* store number conversion */
 184:/home/xingli/share/LiteOS_Lab/secure_c/src/input.inl ****     signed char isWChar; /* -1/0 not wchar, 1 for wchar */
 185:/home/xingli/share/LiteOS_Lab/secure_c/src/input.inl ****     char suppress;       /* 0 is not have %* in format */
 186:/home/xingli/share/LiteOS_Lab/secure_c/src/input.inl **** } SecScanSpec;
 187:/home/xingli/share/LiteOS_Lab/secure_c/src/input.inl **** 
 188:/home/xingli/share/LiteOS_Lab/secure_c/src/input.inl **** #if (defined(SECUREC_COMPATIBLE_LINUX_FORMAT) && !(defined(SECUREC_ON_UNIX)))
 189:/home/xingli/share/LiteOS_Lab/secure_c/src/input.inl **** #define SECUREC_INIT_NUMBER_SPEC { 0, 0, 0, 0, 0, 0, NULL, 0, 0, 0, 0, 0, 0 }
 190:/home/xingli/share/LiteOS_Lab/secure_c/src/input.inl **** #else
 191:/home/xingli/share/LiteOS_Lab/secure_c/src/input.inl **** #define SECUREC_INIT_NUMBER_SPEC { 0, 0, 0, 0, 0, 0, NULL, 0, 0, 0, 0, 0 }
 192:/home/xingli/share/LiteOS_Lab/secure_c/src/input.inl **** #endif
 193:/home/xingli/share/LiteOS_Lab/secure_c/src/input.inl **** 
 194:/home/xingli/share/LiteOS_Lab/secure_c/src/input.inl **** #ifdef SECUREC_FOR_WCHAR
 195:/home/xingli/share/LiteOS_Lab/secure_c/src/input.inl **** #define SECUREC_GETC fgetwc
 196:/home/xingli/share/LiteOS_Lab/secure_c/src/input.inl **** #define SECUREC_UN_GETC ungetwc
 197:/home/xingli/share/LiteOS_Lab/secure_c/src/input.inl **** #define SECUREC_CHAR_MASK 0xffff
 198:/home/xingli/share/LiteOS_Lab/secure_c/src/input.inl **** #else
 199:/home/xingli/share/LiteOS_Lab/secure_c/src/input.inl **** #define SECUREC_GETC fgetc
 200:/home/xingli/share/LiteOS_Lab/secure_c/src/input.inl **** #define SECUREC_UN_GETC ungetc
 201:/home/xingli/share/LiteOS_Lab/secure_c/src/input.inl **** #define SECUREC_CHAR_MASK 0xff
 202:/home/xingli/share/LiteOS_Lab/secure_c/src/input.inl **** #endif
 203:/home/xingli/share/LiteOS_Lab/secure_c/src/input.inl **** 
 204:/home/xingli/share/LiteOS_Lab/secure_c/src/input.inl **** /*
 205:/home/xingli/share/LiteOS_Lab/secure_c/src/input.inl ****  * Determine if it is a 64-bit pointer  function
 206:/home/xingli/share/LiteOS_Lab/secure_c/src/input.inl ****  * return 0 is not ,1 is 64bit pointer
 207:/home/xingli/share/LiteOS_Lab/secure_c/src/input.inl ****  */
 208:/home/xingli/share/LiteOS_Lab/secure_c/src/input.inl **** static int SecIs64BitPtr(size_t sizeOfVoidStar)
 209:/home/xingli/share/LiteOS_Lab/secure_c/src/input.inl **** {
   9              		.loc 1 209 1
  10              		.cfi_startproc
  11 0000 F30F1EFA 		endbr64
  12 0004 55       		pushq	%rbp
  13              	.LCFI0:
  14              		.cfi_def_cfa_offset 16
  15              		.cfi_offset 6, -16
  16 0005 4889E5   		movq	%rsp, %rbp
  17              	.LCFI1:
  18              		.cfi_def_cfa_register 6
  19 0008 4883EC20 		subq	$32, %rsp
  20 000c 48897DE8 		movq	%rdi, -24(%rbp)
GAS LISTING /tmp/cc1ytava.s 			page 5


  21              		.loc 1 209 1
  22 0010 64488B04 		movq	%fs:40, %rax
  22      25280000 
  22      00
  23 0019 488945F8 		movq	%rax, -8(%rbp)
  24 001d 31C0     		xorl	%eax, %eax
 210:/home/xingli/share/LiteOS_Lab/secure_c/src/input.inl ****     /* point size is 4 or 8 , Under the 64 bit system, the value not 0 */
 211:/home/xingli/share/LiteOS_Lab/secure_c/src/input.inl ****     /* to clear e778 */
 212:/home/xingli/share/LiteOS_Lab/secure_c/src/input.inl ****     if ((sizeOfVoidStar & sizeof(SecInt64)) != 0) {
  25              		.loc 1 212 25
  26 001f 488B45E8 		movq	-24(%rbp), %rax
  27 0023 83E008   		andl	$8, %eax
  28              		.loc 1 212 8
  29 0026 4885C0   		testq	%rax, %rax
  30 0029 7407     		je	.L2
 213:/home/xingli/share/LiteOS_Lab/secure_c/src/input.inl ****         return 1;
  31              		.loc 1 213 16
  32 002b B8010000 		movl	$1, %eax
  32      00
  33 0030 EB05     		jmp	.L3
  34              	.L2:
 214:/home/xingli/share/LiteOS_Lab/secure_c/src/input.inl ****     }
 215:/home/xingli/share/LiteOS_Lab/secure_c/src/input.inl ****     return 0;
  35              		.loc 1 215 12
  36 0032 B8000000 		movl	$0, %eax
  36      00
  37              	.L3:
 216:/home/xingli/share/LiteOS_Lab/secure_c/src/input.inl **** }
  38              		.loc 1 216 1
  39 0037 488B55F8 		movq	-8(%rbp), %rdx
  40 003b 64483314 		xorq	%fs:40, %rdx
  40      25280000 
  40      00
  41 0044 7405     		je	.L4
  42 0046 E8000000 		call	__stack_chk_fail@PLT
  42      00
  43              	.L4:
  44 004b C9       		leave
  45              	.LCFI2:
  46              		.cfi_def_cfa 7, 8
  47 004c C3       		ret
  48              		.cfi_endproc
  49              	.LFE6:
  51              		.section	.text.SecAssignFloat,"ax",@progbits
  53              	SecAssignFloat:
  54              	.LFB7:
 217:/home/xingli/share/LiteOS_Lab/secure_c/src/input.inl **** 
 218:/home/xingli/share/LiteOS_Lab/secure_c/src/input.inl **** #if SECUREC_ENABLE_SCANF_FLOAT
 219:/home/xingli/share/LiteOS_Lab/secure_c/src/input.inl **** 
 220:/home/xingli/share/LiteOS_Lab/secure_c/src/input.inl **** /*
 221:/home/xingli/share/LiteOS_Lab/secure_c/src/input.inl ****  * Convert a floating point string to a floating point number
 222:/home/xingli/share/LiteOS_Lab/secure_c/src/input.inl ****  */
 223:/home/xingli/share/LiteOS_Lab/secure_c/src/input.inl **** static void SecAssignFloat(const char *floatStr, int numberWidth, void *argPtr)
 224:/home/xingli/share/LiteOS_Lab/secure_c/src/input.inl **** {
  55              		.loc 1 224 1
  56              		.cfi_startproc
  57 0000 F30F1EFA 		endbr64
GAS LISTING /tmp/cc1ytava.s 			page 6


  58 0004 55       		pushq	%rbp
  59              	.LCFI3:
  60              		.cfi_def_cfa_offset 16
  61              		.cfi_offset 6, -16
  62 0005 4889E5   		movq	%rsp, %rbp
  63              	.LCFI4:
  64              		.cfi_def_cfa_register 6
  65 0008 4883EC50 		subq	$80, %rsp
  66 000c 48897DC8 		movq	%rdi, -56(%rbp)
  67 0010 8975C4   		movl	%esi, -60(%rbp)
  68 0013 488955B8 		movq	%rdx, -72(%rbp)
  69              		.loc 1 224 1
  70 0017 64488B04 		movq	%fs:40, %rax
  70      25280000 
  70      00
  71 0020 488945F8 		movq	%rax, -8(%rbp)
  72 0024 31C0     		xorl	%eax, %eax
 225:/home/xingli/share/LiteOS_Lab/secure_c/src/input.inl ****     char *endPtr = NULL;
  73              		.loc 1 225 11
  74 0026 48C745D0 		movq	$0, -48(%rbp)
  74      00000000 
 226:/home/xingli/share/LiteOS_Lab/secure_c/src/input.inl ****     double d;
 227:/home/xingli/share/LiteOS_Lab/secure_c/src/input.inl **** #if SECUREC_SUPPORT_STRTOLD
 228:/home/xingli/share/LiteOS_Lab/secure_c/src/input.inl ****     if (numberWidth == SECUREC_NUM_WIDTH_LONG_LONG) {
  75              		.loc 1 228 8
  76 002e 837DC403 		cmpl	$3, -60(%rbp)
  77 0032 7521     		jne	.L6
  78              	.LBB2:
 229:/home/xingli/share/LiteOS_Lab/secure_c/src/input.inl ****         long double d2 = strtold(floatStr, &endPtr);
  79              		.loc 1 229 26
  80 0034 488D55D0 		leaq	-48(%rbp), %rdx
  81 0038 488B45C8 		movq	-56(%rbp), %rax
  82 003c 4889D6   		movq	%rdx, %rsi
  83 003f 4889C7   		movq	%rax, %rdi
  84 0042 E8000000 		call	strtold@PLT
  84      00
  85 0047 DB7DE0   		fstpt	-32(%rbp)
 230:/home/xingli/share/LiteOS_Lab/secure_c/src/input.inl ****         *(long double UNALIGNED *)(argPtr) = d2;
  86              		.loc 1 230 44
  87 004a 488B45B8 		movq	-72(%rbp), %rax
  88 004e DB6DE0   		fldt	-32(%rbp)
  89 0051 DB38     		fstpt	(%rax)
  90 0053 EB3E     		jmp	.L5
  91              	.L6:
  92              	.LBE2:
 231:/home/xingli/share/LiteOS_Lab/secure_c/src/input.inl ****         return;
 232:/home/xingli/share/LiteOS_Lab/secure_c/src/input.inl ****     }
 233:/home/xingli/share/LiteOS_Lab/secure_c/src/input.inl **** #endif
 234:/home/xingli/share/LiteOS_Lab/secure_c/src/input.inl ****     d = strtod(floatStr, &endPtr);
  93              		.loc 1 234 9
  94 0055 488D55D0 		leaq	-48(%rbp), %rdx
  95 0059 488B45C8 		movq	-56(%rbp), %rax
  96 005d 4889D6   		movq	%rdx, %rsi
  97 0060 4889C7   		movq	%rax, %rdi
  98 0063 E8000000 		call	strtod@PLT
  98      00
  99 0068 66480F7E 		movq	%xmm0, %rax
GAS LISTING /tmp/cc1ytava.s 			page 7


  99      C0
 100 006d 488945D8 		movq	%rax, -40(%rbp)
 235:/home/xingli/share/LiteOS_Lab/secure_c/src/input.inl ****     if (numberWidth > SECUREC_NUM_WIDTH_INT) {
 101              		.loc 1 235 8
 102 0071 837DC401 		cmpl	$1, -60(%rbp)
 103 0075 7E0F     		jle	.L8
 236:/home/xingli/share/LiteOS_Lab/secure_c/src/input.inl ****         *(double UNALIGNED *)(argPtr) = (double)d;
 104              		.loc 1 236 39
 105 0077 488B45B8 		movq	-72(%rbp), %rax
 106 007b F20F1045 		movsd	-40(%rbp), %xmm0
 106      D8
 107 0080 F20F1100 		movsd	%xmm0, (%rax)
 108 0084 EB0D     		jmp	.L5
 109              	.L8:
 237:/home/xingli/share/LiteOS_Lab/secure_c/src/input.inl ****     } else {
 238:/home/xingli/share/LiteOS_Lab/secure_c/src/input.inl ****         *(float UNALIGNED *)(argPtr) = (float)d;
 110              		.loc 1 238 40
 111 0086 F20F5A45 		cvtsd2ss	-40(%rbp), %xmm0
 111      D8
 112              		.loc 1 238 38
 113 008b 488B45B8 		movq	-72(%rbp), %rax
 114 008f F30F1100 		movss	%xmm0, (%rax)
 115              	.L5:
 239:/home/xingli/share/LiteOS_Lab/secure_c/src/input.inl ****     }
 240:/home/xingli/share/LiteOS_Lab/secure_c/src/input.inl **** }
 116              		.loc 1 240 1
 117 0093 488B45F8 		movq	-8(%rbp), %rax
 118 0097 64483304 		xorq	%fs:40, %rax
 118      25280000 
 118      00
 119 00a0 7405     		je	.L10
 120 00a2 E8000000 		call	__stack_chk_fail@PLT
 120      00
 121              	.L10:
 122 00a7 C9       		leave
 123              	.LCFI5:
 124              		.cfi_def_cfa 7, 8
 125 00a8 C3       		ret
 126              		.cfi_endproc
 127              	.LFE7:
 129              		.section	.text.SecAssignFloatW,"ax",@progbits
 131              	SecAssignFloatW:
 132              	.LFB8:
 241:/home/xingli/share/LiteOS_Lab/secure_c/src/input.inl **** 
 242:/home/xingli/share/LiteOS_Lab/secure_c/src/input.inl **** #ifdef SECUREC_FOR_WCHAR
 243:/home/xingli/share/LiteOS_Lab/secure_c/src/input.inl **** /*
 244:/home/xingli/share/LiteOS_Lab/secure_c/src/input.inl ****  * Convert a floating point wchar string to a floating point number
 245:/home/xingli/share/LiteOS_Lab/secure_c/src/input.inl ****  * Success  ret 0
 246:/home/xingli/share/LiteOS_Lab/secure_c/src/input.inl ****  */
 247:/home/xingli/share/LiteOS_Lab/secure_c/src/input.inl **** static int SecAssignFloatW(const SecFloatSpec *floatSpec, const  SecScanSpec *spec)
 248:/home/xingli/share/LiteOS_Lab/secure_c/src/input.inl **** {
 133              		.loc 1 248 1
 134              		.cfi_startproc
 135 0000 F30F1EFA 		endbr64
 136 0004 55       		pushq	%rbp
 137              	.LCFI6:
 138              		.cfi_def_cfa_offset 16
GAS LISTING /tmp/cc1ytava.s 			page 8


 139              		.cfi_offset 6, -16
 140 0005 4889E5   		movq	%rsp, %rbp
 141              	.LCFI7:
 142              		.cfi_def_cfa_register 6
 143 0008 4883EC30 		subq	$48, %rsp
 144 000c 48897DD8 		movq	%rdi, -40(%rbp)
 145 0010 488975D0 		movq	%rsi, -48(%rbp)
 146              		.loc 1 248 1
 147 0014 64488B04 		movq	%fs:40, %rax
 147      25280000 
 147      00
 148 001d 488945F8 		movq	%rax, -8(%rbp)
 149 0021 31C0     		xorl	%eax, %eax
 249:/home/xingli/share/LiteOS_Lab/secure_c/src/input.inl ****     /* convert float string */
 250:/home/xingli/share/LiteOS_Lab/secure_c/src/input.inl ****     size_t mbsLen;
 251:/home/xingli/share/LiteOS_Lab/secure_c/src/input.inl ****     size_t tempFloatStrLen = (size_t)(floatSpec->floatStrSize + 1) * sizeof(wchar_t);
 150              		.loc 1 251 48
 151 0023 488B45D8 		movq	-40(%rbp), %rax
 152 0027 488B00   		movq	(%rax), %rax
 153              		.loc 1 251 30
 154 002a 4883C001 		addq	$1, %rax
 155              		.loc 1 251 12
 156 002e 48C1E002 		salq	$2, %rax
 157 0032 488945E0 		movq	%rax, -32(%rbp)
 252:/home/xingli/share/LiteOS_Lab/secure_c/src/input.inl ****     char *tempFloatStr = (char *)SECUREC_MALLOC(tempFloatStrLen);
 158              		.loc 1 252 34
 159 0036 488B45E0 		movq	-32(%rbp), %rax
 160 003a 4889C7   		movq	%rax, %rdi
 161 003d E8000000 		call	malloc@PLT
 161      00
 162 0042 488945E8 		movq	%rax, -24(%rbp)
 253:/home/xingli/share/LiteOS_Lab/secure_c/src/input.inl **** 
 254:/home/xingli/share/LiteOS_Lab/secure_c/src/input.inl ****     if (tempFloatStr == NULL) {
 163              		.loc 1 254 8
 164 0046 48837DE8 		cmpq	$0, -24(%rbp)
 164      00
 165 004b 750A     		jne	.L12
 255:/home/xingli/share/LiteOS_Lab/secure_c/src/input.inl ****         return -1;
 166              		.loc 1 255 16
 167 004d B8FFFFFF 		movl	$-1, %eax
 167      FF
 168 0052 E9830000 		jmp	.L13
 168      00
 169              	.L12:
 256:/home/xingli/share/LiteOS_Lab/secure_c/src/input.inl ****     }
 257:/home/xingli/share/LiteOS_Lab/secure_c/src/input.inl ****     tempFloatStr[0] = '\0';
 170              		.loc 1 257 21
 171 0057 488B45E8 		movq	-24(%rbp), %rax
 172 005b C60000   		movb	$0, (%rax)
 258:/home/xingli/share/LiteOS_Lab/secure_c/src/input.inl ****     SECUREC_MASK_MSVC_CRT_WARNING
 259:/home/xingli/share/LiteOS_Lab/secure_c/src/input.inl ****     mbsLen = wcstombs(tempFloatStr, floatSpec->floatStr, tempFloatStrLen - 1);
 173              		.loc 1 259 14
 174 005e 488B45E0 		movq	-32(%rbp), %rax
 175 0062 488D50FF 		leaq	-1(%rax), %rdx
 176              		.loc 1 259 46
 177 0066 488B45D8 		movq	-40(%rbp), %rax
 178 006a 488B8888 		movq	1416(%rax), %rcx
GAS LISTING /tmp/cc1ytava.s 			page 9


 178      050000
 179              		.loc 1 259 14
 180 0071 488B45E8 		movq	-24(%rbp), %rax
 181 0075 4889CE   		movq	%rcx, %rsi
 182 0078 4889C7   		movq	%rax, %rdi
 183 007b E8000000 		call	wcstombs@PLT
 183      00
 184 0080 488945F0 		movq	%rax, -16(%rbp)
 260:/home/xingli/share/LiteOS_Lab/secure_c/src/input.inl ****     SECUREC_END_MASK_MSVC_CRT_WARNING
 261:/home/xingli/share/LiteOS_Lab/secure_c/src/input.inl ****     if (mbsLen != (size_t)-1) {
 185              		.loc 1 261 8
 186 0084 48837DF0 		cmpq	$-1, -16(%rbp)
 186      FF
 187 0089 743E     		je	.L14
 262:/home/xingli/share/LiteOS_Lab/secure_c/src/input.inl ****         tempFloatStr[mbsLen] = '\0';
 188              		.loc 1 262 21
 189 008b 488B55E8 		movq	-24(%rbp), %rdx
 190 008f 488B45F0 		movq	-16(%rbp), %rax
 191 0093 4801D0   		addq	%rdx, %rax
 192              		.loc 1 262 30
 193 0096 C60000   		movb	$0, (%rax)
 263:/home/xingli/share/LiteOS_Lab/secure_c/src/input.inl ****         SecAssignFloat(tempFloatStr, spec->numberWidth, spec->argPtr);
 194              		.loc 1 263 9
 195 0099 488B45D0 		movq	-48(%rbp), %rax
 196 009d 488B5020 		movq	32(%rax), %rdx
 197 00a1 488B45D0 		movq	-48(%rbp), %rax
 198 00a5 8B4810   		movl	16(%rax), %ecx
 199 00a8 488B45E8 		movq	-24(%rbp), %rax
 200 00ac 89CE     		movl	%ecx, %esi
 201 00ae 4889C7   		movq	%rax, %rdi
 202 00b1 E8000000 		call	SecAssignFloat
 202      00
 264:/home/xingli/share/LiteOS_Lab/secure_c/src/input.inl ****     } else {
 265:/home/xingli/share/LiteOS_Lab/secure_c/src/input.inl ****         SECUREC_FREE(tempFloatStr);
 266:/home/xingli/share/LiteOS_Lab/secure_c/src/input.inl ****         return -1;
 267:/home/xingli/share/LiteOS_Lab/secure_c/src/input.inl ****     }
 268:/home/xingli/share/LiteOS_Lab/secure_c/src/input.inl ****     SECUREC_FREE(tempFloatStr);
 203              		.loc 1 268 5
 204 00b6 488B45E8 		movq	-24(%rbp), %rax
 205 00ba 4889C7   		movq	%rax, %rdi
 206 00bd E8000000 		call	free@PLT
 206      00
 269:/home/xingli/share/LiteOS_Lab/secure_c/src/input.inl ****     return 0;
 207              		.loc 1 269 12
 208 00c2 B8000000 		movl	$0, %eax
 208      00
 209 00c7 EB11     		jmp	.L13
 210              	.L14:
 265:/home/xingli/share/LiteOS_Lab/secure_c/src/input.inl ****         return -1;
 211              		.loc 1 265 9
 212 00c9 488B45E8 		movq	-24(%rbp), %rax
 213 00cd 4889C7   		movq	%rax, %rdi
 214 00d0 E8000000 		call	free@PLT
 214      00
 266:/home/xingli/share/LiteOS_Lab/secure_c/src/input.inl ****     }
 215              		.loc 1 266 16
 216 00d5 B8FFFFFF 		movl	$-1, %eax
GAS LISTING /tmp/cc1ytava.s 			page 10


 216      FF
 217              	.L13:
 270:/home/xingli/share/LiteOS_Lab/secure_c/src/input.inl **** }
 218              		.loc 1 270 1
 219 00da 488B75F8 		movq	-8(%rbp), %rsi
 220 00de 64483334 		xorq	%fs:40, %rsi
 220      25280000 
 220      00
 221 00e7 7405     		je	.L16
 222 00e9 E8000000 		call	__stack_chk_fail@PLT
 222      00
 223              	.L16:
 224 00ee C9       		leave
 225              	.LCFI8:
 226              		.cfi_def_cfa 7, 8
 227 00ef C3       		ret
 228              		.cfi_endproc
 229              	.LFE8:
 231              		.section	.text.SecUpdateFloatString,"ax",@progbits
 233              	SecUpdateFloatString:
 234              	.LFB9:
 271:/home/xingli/share/LiteOS_Lab/secure_c/src/input.inl **** #endif
 272:/home/xingli/share/LiteOS_Lab/secure_c/src/input.inl **** /*
 273:/home/xingli/share/LiteOS_Lab/secure_c/src/input.inl ****  * Splice floating point string
 274:/home/xingli/share/LiteOS_Lab/secure_c/src/input.inl ****  * return 0 OK
 275:/home/xingli/share/LiteOS_Lab/secure_c/src/input.inl ****  */
 276:/home/xingli/share/LiteOS_Lab/secure_c/src/input.inl **** static int SecUpdateFloatString(SecChar ch, SecFloatSpec *floatSpec)
 277:/home/xingli/share/LiteOS_Lab/secure_c/src/input.inl **** {
 235              		.loc 1 277 1
 236              		.cfi_startproc
 237 0000 F30F1EFA 		endbr64
 238 0004 55       		pushq	%rbp
 239              	.LCFI9:
 240              		.cfi_def_cfa_offset 16
 241              		.cfi_offset 6, -16
 242 0005 4889E5   		movq	%rsp, %rbp
 243              	.LCFI10:
 244              		.cfi_def_cfa_register 6
 245 0008 4883EC40 		subq	$64, %rsp
 246 000c 897DCC   		movl	%edi, -52(%rbp)
 247 000f 488975C0 		movq	%rsi, -64(%rbp)
 248              		.loc 1 277 1
 249 0013 64488B04 		movq	%fs:40, %rax
 249      25280000 
 249      00
 250 001c 488945F8 		movq	%rax, -8(%rbp)
 251 0020 31C0     		xorl	%eax, %eax
 278:/home/xingli/share/LiteOS_Lab/secure_c/src/input.inl ****     floatSpec->floatStr[floatSpec->floatStrUsedLen++] = ch;    /* ch must be '0' - '9' */
 252              		.loc 1 278 14
 253 0022 488B45C0 		movq	-64(%rbp), %rax
 254 0026 488BB088 		movq	1416(%rax), %rsi
 254      050000
 255              		.loc 1 278 34
 256 002d 488B45C0 		movq	-64(%rbp), %rax
 257 0031 488B4008 		movq	8(%rax), %rax
 258              		.loc 1 278 51
 259 0035 488D4801 		leaq	1(%rax), %rcx
GAS LISTING /tmp/cc1ytava.s 			page 11


 260 0039 488B55C0 		movq	-64(%rbp), %rdx
 261 003d 48894A08 		movq	%rcx, 8(%rdx)
 262              		.loc 1 278 24
 263 0041 48C1E002 		salq	$2, %rax
 264 0045 488D1406 		leaq	(%rsi,%rax), %rdx
 265              		.loc 1 278 55
 266 0049 8B45CC   		movl	-52(%rbp), %eax
 267 004c 8902     		movl	%eax, (%rdx)
 279:/home/xingli/share/LiteOS_Lab/secure_c/src/input.inl ****     if (floatSpec->floatStrUsedLen < floatSpec->floatStrSize) {
 268              		.loc 1 279 18
 269 004e 488B45C0 		movq	-64(%rbp), %rax
 270 0052 488B5008 		movq	8(%rax), %rdx
 271              		.loc 1 279 47
 272 0056 488B45C0 		movq	-64(%rbp), %rax
 273 005a 488B00   		movq	(%rax), %rax
 274              		.loc 1 279 8
 275 005d 4839C2   		cmpq	%rax, %rdx
 276 0060 730A     		jnb	.L18
 280:/home/xingli/share/LiteOS_Lab/secure_c/src/input.inl ****         return 0;
 277              		.loc 1 280 16
 278 0062 B8000000 		movl	$0, %eax
 278      00
 279 0067 E9D50100 		jmp	.L19
 279      00
 280              	.L18:
 281:/home/xingli/share/LiteOS_Lab/secure_c/src/input.inl ****     }
 282:/home/xingli/share/LiteOS_Lab/secure_c/src/input.inl ****     if (floatSpec->allocatedFloatStr == NULL) {
 281              		.loc 1 282 18
 282 006c 488B45C0 		movq	-64(%rbp), %rax
 283 0070 488B8090 		movq	1424(%rax), %rax
 283      050000
 284              		.loc 1 282 8
 285 0077 4885C0   		testq	%rax, %rax
 286 007a 0F85B200 		jne	.L20
 286      0000
 287              	.LBB3:
 283:/home/xingli/share/LiteOS_Lab/secure_c/src/input.inl ****         /* add 1 to clear ZERO LENGTH ALLOCATIONS warning */
 284:/home/xingli/share/LiteOS_Lab/secure_c/src/input.inl ****         size_t oriBufSize = floatSpec->floatStrSize* (SECUREC_BUF_EXT_MUL * sizeof(SecChar)) + 1;
 288              		.loc 1 284 38
 289 0080 488B45C0 		movq	-64(%rbp), %rax
 290 0084 488B00   		movq	(%rax), %rax
 291              		.loc 1 284 52
 292 0087 48C1E003 		salq	$3, %rax
 293              		.loc 1 284 16
 294 008b 4883C001 		addq	$1, %rax
 295 008f 488945E8 		movq	%rax, -24(%rbp)
 285:/home/xingli/share/LiteOS_Lab/secure_c/src/input.inl ****         void *tmpPointer = (void *)SECUREC_MALLOC(oriBufSize);
 296              		.loc 1 285 28
 297 0093 488B45E8 		movq	-24(%rbp), %rax
 298 0097 4889C7   		movq	%rax, %rdi
 299 009a E8000000 		call	malloc@PLT
 299      00
 300 009f 488945F0 		movq	%rax, -16(%rbp)
 286:/home/xingli/share/LiteOS_Lab/secure_c/src/input.inl ****         if (tmpPointer == NULL) {
 301              		.loc 1 286 12
 302 00a3 48837DF0 		cmpq	$0, -16(%rbp)
 302      00
GAS LISTING /tmp/cc1ytava.s 			page 12


 303 00a8 750A     		jne	.L21
 287:/home/xingli/share/LiteOS_Lab/secure_c/src/input.inl ****             return -1;
 304              		.loc 1 287 20
 305 00aa B8FFFFFF 		movl	$-1, %eax
 305      FF
 306 00af E98D0100 		jmp	.L19
 306      00
 307              	.L21:
 288:/home/xingli/share/LiteOS_Lab/secure_c/src/input.inl ****         }
 289:/home/xingli/share/LiteOS_Lab/secure_c/src/input.inl ****         if (memcpy_s(tmpPointer, oriBufSize, floatSpec->floatStr, floatSpec->floatStrSize * sizeof(
 308              		.loc 1 289 76
 309 00b4 488B45C0 		movq	-64(%rbp), %rax
 310 00b8 488B00   		movq	(%rax), %rax
 311              		.loc 1 289 13
 312 00bb 488D0C85 		leaq	0(,%rax,4), %rcx
 312      00000000 
 313              		.loc 1 289 55
 314 00c3 488B45C0 		movq	-64(%rbp), %rax
 315 00c7 488B9088 		movq	1416(%rax), %rdx
 315      050000
 316              		.loc 1 289 13
 317 00ce 488B75E8 		movq	-24(%rbp), %rsi
 318 00d2 488B45F0 		movq	-16(%rbp), %rax
 319 00d6 4889C7   		movq	%rax, %rdi
 320 00d9 E8000000 		call	memcpy_s@PLT
 320      00
 321              		.loc 1 289 12
 322 00de 85C0     		testl	%eax, %eax
 323 00e0 7416     		je	.L22
 290:/home/xingli/share/LiteOS_Lab/secure_c/src/input.inl ****             SECUREC_FREE(tmpPointer);   /* This is a dead code, just to meet the coding requirement
 324              		.loc 1 290 13
 325 00e2 488B45F0 		movq	-16(%rbp), %rax
 326 00e6 4889C7   		movq	%rax, %rdi
 327 00e9 E8000000 		call	free@PLT
 327      00
 291:/home/xingli/share/LiteOS_Lab/secure_c/src/input.inl ****             return -1;
 328              		.loc 1 291 20
 329 00ee B8FFFFFF 		movl	$-1, %eax
 329      FF
 330 00f3 E9490100 		jmp	.L19
 330      00
 331              	.L22:
 292:/home/xingli/share/LiteOS_Lab/secure_c/src/input.inl ****         }
 293:/home/xingli/share/LiteOS_Lab/secure_c/src/input.inl ****         floatSpec->floatStr = (SecChar *) (tmpPointer);
 332              		.loc 1 293 29
 333 00f8 488B45C0 		movq	-64(%rbp), %rax
 334 00fc 488B55F0 		movq	-16(%rbp), %rdx
 335 0100 48899088 		movq	%rdx, 1416(%rax)
 335      050000
 294:/home/xingli/share/LiteOS_Lab/secure_c/src/input.inl ****         floatSpec->allocatedFloatStr = (SecChar *) (tmpPointer); /* use to clear free on stack warn
 336              		.loc 1 294 38
 337 0107 488B45C0 		movq	-64(%rbp), %rax
 338 010b 488B55F0 		movq	-16(%rbp), %rdx
 339 010f 48899090 		movq	%rdx, 1424(%rax)
 339      050000
 295:/home/xingli/share/LiteOS_Lab/secure_c/src/input.inl ****         floatSpec->floatStrSize *= SECUREC_BUF_EXT_MUL; /* this is OK, oriBufSize plus 1 just clear
 340              		.loc 1 295 33
GAS LISTING /tmp/cc1ytava.s 			page 13


 341 0116 488B45C0 		movq	-64(%rbp), %rax
 342 011a 488B00   		movq	(%rax), %rax
 343 011d 488D1400 		leaq	(%rax,%rax), %rdx
 344 0121 488B45C0 		movq	-64(%rbp), %rax
 345 0125 488910   		movq	%rdx, (%rax)
 296:/home/xingli/share/LiteOS_Lab/secure_c/src/input.inl ****         return 0;
 346              		.loc 1 296 16
 347 0128 B8000000 		movl	$0, %eax
 347      00
 348 012d E90F0100 		jmp	.L19
 348      00
 349              	.L20:
 350              	.LBE3:
 351              	.LBB4:
 297:/home/xingli/share/LiteOS_Lab/secure_c/src/input.inl ****     } else {
 298:/home/xingli/share/LiteOS_Lab/secure_c/src/input.inl ****         /* LSD 2014.3.6 fix, replace realloc to malloc to avoid heap injection */
 299:/home/xingli/share/LiteOS_Lab/secure_c/src/input.inl ****         size_t oriBufSize = floatSpec->floatStrSize * sizeof(SecChar);
 352              		.loc 1 299 38
 353 0132 488B45C0 		movq	-64(%rbp), %rax
 354 0136 488B00   		movq	(%rax), %rax
 355              		.loc 1 299 16
 356 0139 48C1E002 		salq	$2, %rax
 357 013d 488945D0 		movq	%rax, -48(%rbp)
 300:/home/xingli/share/LiteOS_Lab/secure_c/src/input.inl ****         size_t nextSize = (oriBufSize * SECUREC_BUF_EXT_MUL) + 1; /* add 1 to clear satic check too
 358              		.loc 1 300 39
 359 0141 488B45D0 		movq	-48(%rbp), %rax
 360 0145 4801C0   		addq	%rax, %rax
 361              		.loc 1 300 16
 362 0148 4883C001 		addq	$1, %rax
 363 014c 488945D8 		movq	%rax, -40(%rbp)
 301:/home/xingli/share/LiteOS_Lab/secure_c/src/input.inl ****         /* Prevents integer overflow when calculating the wide character length.
 302:/home/xingli/share/LiteOS_Lab/secure_c/src/input.inl ****          * The maximum length of SECUREC_MAX_WIDTH_LEN is enough
 303:/home/xingli/share/LiteOS_Lab/secure_c/src/input.inl ****          */
 304:/home/xingli/share/LiteOS_Lab/secure_c/src/input.inl ****         if (nextSize <= SECUREC_MAX_WIDTH_LEN) {
 364              		.loc 1 304 12
 365 0150 48817DD8 		cmpq	$214748360, -40(%rbp)
 365      C8CCCC0C 
 366 0158 0F87DE00 		ja	.L23
 366      0000
 367              	.LBB5:
 305:/home/xingli/share/LiteOS_Lab/secure_c/src/input.inl ****             void *tmpPointer = (void *)SECUREC_MALLOC(nextSize);
 368              		.loc 1 305 32
 369 015e 488B45D8 		movq	-40(%rbp), %rax
 370 0162 4889C7   		movq	%rax, %rdi
 371 0165 E8000000 		call	malloc@PLT
 371      00
 372 016a 488945E0 		movq	%rax, -32(%rbp)
 306:/home/xingli/share/LiteOS_Lab/secure_c/src/input.inl ****             if (tmpPointer == NULL) {
 373              		.loc 1 306 16
 374 016e 48837DE0 		cmpq	$0, -32(%rbp)
 374      00
 375 0173 750A     		jne	.L24
 307:/home/xingli/share/LiteOS_Lab/secure_c/src/input.inl ****                 return -1;
 376              		.loc 1 307 24
 377 0175 B8FFFFFF 		movl	$-1, %eax
 377      FF
 378 017a E9C20000 		jmp	.L19
GAS LISTING /tmp/cc1ytava.s 			page 14


 378      00
 379              	.L24:
 308:/home/xingli/share/LiteOS_Lab/secure_c/src/input.inl ****             }
 309:/home/xingli/share/LiteOS_Lab/secure_c/src/input.inl ****             if (memcpy_s(tmpPointer, nextSize, floatSpec->floatStr, oriBufSize) != EOK) {
 380              		.loc 1 309 57
 381 017f 488B45C0 		movq	-64(%rbp), %rax
 382 0183 488B9088 		movq	1416(%rax), %rdx
 382      050000
 383              		.loc 1 309 17
 384 018a 488B4DD0 		movq	-48(%rbp), %rcx
 385 018e 488B75D8 		movq	-40(%rbp), %rsi
 386 0192 488B45E0 		movq	-32(%rbp), %rax
 387 0196 4889C7   		movq	%rax, %rdi
 388 0199 E8000000 		call	memcpy_s@PLT
 388      00
 389              		.loc 1 309 16
 390 019e 85C0     		testl	%eax, %eax
 391 01a0 7416     		je	.L25
 310:/home/xingli/share/LiteOS_Lab/secure_c/src/input.inl ****                 SECUREC_FREE(tmpPointer);   /* This is a dead code, just to meet the coding require
 392              		.loc 1 310 17
 393 01a2 488B45E0 		movq	-32(%rbp), %rax
 394 01a6 4889C7   		movq	%rax, %rdi
 395 01a9 E8000000 		call	free@PLT
 395      00
 311:/home/xingli/share/LiteOS_Lab/secure_c/src/input.inl ****                 return -1;
 396              		.loc 1 311 24
 397 01ae B8FFFFFF 		movl	$-1, %eax
 397      FF
 398 01b3 E9890000 		jmp	.L19
 398      00
 399              	.L25:
 312:/home/xingli/share/LiteOS_Lab/secure_c/src/input.inl ****             }
 313:/home/xingli/share/LiteOS_Lab/secure_c/src/input.inl ****             if (memset_s(floatSpec->floatStr, oriBufSize, 0, oriBufSize) != EOK) {
 400              		.loc 1 313 35
 401 01b8 488B45C0 		movq	-64(%rbp), %rax
 402 01bc 488B8088 		movq	1416(%rax), %rax
 402      050000
 403              		.loc 1 313 17
 404 01c3 488B55D0 		movq	-48(%rbp), %rdx
 405 01c7 488B75D0 		movq	-48(%rbp), %rsi
 406 01cb 4889D1   		movq	%rdx, %rcx
 407 01ce BA000000 		movl	$0, %edx
 407      00
 408 01d3 4889C7   		movq	%rax, %rdi
 409 01d6 E8000000 		call	memset_s@PLT
 409      00
 410              		.loc 1 313 16
 411 01db 85C0     		testl	%eax, %eax
 412 01dd 7413     		je	.L26
 314:/home/xingli/share/LiteOS_Lab/secure_c/src/input.inl ****                 SECUREC_FREE(tmpPointer);   /* This is a dead code, just to meet the coding require
 413              		.loc 1 314 17
 414 01df 488B45E0 		movq	-32(%rbp), %rax
 415 01e3 4889C7   		movq	%rax, %rdi
 416 01e6 E8000000 		call	free@PLT
 416      00
 315:/home/xingli/share/LiteOS_Lab/secure_c/src/input.inl ****                 return -1;
 417              		.loc 1 315 24
GAS LISTING /tmp/cc1ytava.s 			page 15


 418 01eb B8FFFFFF 		movl	$-1, %eax
 418      FF
 419 01f0 EB4F     		jmp	.L19
 420              	.L26:
 316:/home/xingli/share/LiteOS_Lab/secure_c/src/input.inl ****             }
 317:/home/xingli/share/LiteOS_Lab/secure_c/src/input.inl ****             SECUREC_FREE(floatSpec->floatStr);
 421              		.loc 1 317 13
 422 01f2 488B45C0 		movq	-64(%rbp), %rax
 423 01f6 488B8088 		movq	1416(%rax), %rax
 423      050000
 424 01fd 4889C7   		movq	%rax, %rdi
 425 0200 E8000000 		call	free@PLT
 425      00
 318:/home/xingli/share/LiteOS_Lab/secure_c/src/input.inl **** 
 319:/home/xingli/share/LiteOS_Lab/secure_c/src/input.inl ****             floatSpec->floatStr = (SecChar *) (tmpPointer);
 426              		.loc 1 319 33
 427 0205 488B45C0 		movq	-64(%rbp), %rax
 428 0209 488B55E0 		movq	-32(%rbp), %rdx
 429 020d 48899088 		movq	%rdx, 1416(%rax)
 429      050000
 320:/home/xingli/share/LiteOS_Lab/secure_c/src/input.inl ****             floatSpec->allocatedFloatStr = (SecChar *) (tmpPointer);    /* use to clear free on sta
 430              		.loc 1 320 42
 431 0214 488B45C0 		movq	-64(%rbp), %rax
 432 0218 488B55E0 		movq	-32(%rbp), %rdx
 433 021c 48899090 		movq	%rdx, 1424(%rax)
 433      050000
 321:/home/xingli/share/LiteOS_Lab/secure_c/src/input.inl ****             floatSpec->floatStrSize *= SECUREC_BUF_EXT_MUL; /* this is OK, oriBufSize plus 1 just c
 434              		.loc 1 321 37
 435 0223 488B45C0 		movq	-64(%rbp), %rax
 436 0227 488B00   		movq	(%rax), %rax
 437 022a 488D1400 		leaq	(%rax,%rax), %rdx
 438 022e 488B45C0 		movq	-64(%rbp), %rax
 439 0232 488910   		movq	%rdx, (%rax)
 322:/home/xingli/share/LiteOS_Lab/secure_c/src/input.inl ****             return 0;
 440              		.loc 1 322 20
 441 0235 B8000000 		movl	$0, %eax
 441      00
 442 023a EB05     		jmp	.L19
 443              	.L23:
 444              	.LBE5:
 445              	.LBE4:
 323:/home/xingli/share/LiteOS_Lab/secure_c/src/input.inl ****         }
 324:/home/xingli/share/LiteOS_Lab/secure_c/src/input.inl ****     }
 325:/home/xingli/share/LiteOS_Lab/secure_c/src/input.inl ****     return -1;
 446              		.loc 1 325 12
 447 023c B8FFFFFF 		movl	$-1, %eax
 447      FF
 448              	.L19:
 326:/home/xingli/share/LiteOS_Lab/secure_c/src/input.inl **** }
 449              		.loc 1 326 1
 450 0241 488B4DF8 		movq	-8(%rbp), %rcx
 451 0245 6448330C 		xorq	%fs:40, %rcx
 451      25280000 
 451      00
 452 024e 7405     		je	.L27
 453 0250 E8000000 		call	__stack_chk_fail@PLT
 453      00
GAS LISTING /tmp/cc1ytava.s 			page 16


 454              	.L27:
 455 0255 C9       		leave
 456              	.LCFI11:
 457              		.cfi_def_cfa 7, 8
 458 0256 C3       		ret
 459              		.cfi_endproc
 460              	.LFE9:
 462              		.section	.text.SecUpdateWcharFlagByType,"ax",@progbits
 464              	SecUpdateWcharFlagByType:
 465              	.LFB10:
 327:/home/xingli/share/LiteOS_Lab/secure_c/src/input.inl **** #endif
 328:/home/xingli/share/LiteOS_Lab/secure_c/src/input.inl **** 
 329:/home/xingli/share/LiteOS_Lab/secure_c/src/input.inl **** #ifndef SECUREC_FOR_WCHAR
 330:/home/xingli/share/LiteOS_Lab/secure_c/src/input.inl **** /* LSD only multi-bytes string need isleadbyte() function */
 331:/home/xingli/share/LiteOS_Lab/secure_c/src/input.inl **** static int SecIsLeadByte(SecInt ch)
 332:/home/xingli/share/LiteOS_Lab/secure_c/src/input.inl **** {
 333:/home/xingli/share/LiteOS_Lab/secure_c/src/input.inl ****     unsigned int c = (unsigned int)ch;
 334:/home/xingli/share/LiteOS_Lab/secure_c/src/input.inl **** #if !(defined(_MSC_VER) || defined(_INC_WCTYPE))
 335:/home/xingli/share/LiteOS_Lab/secure_c/src/input.inl ****     return (int)(c & 0x80);
 336:/home/xingli/share/LiteOS_Lab/secure_c/src/input.inl **** #else
 337:/home/xingli/share/LiteOS_Lab/secure_c/src/input.inl ****     return (int)isleadbyte((int)(c & 0xff));
 338:/home/xingli/share/LiteOS_Lab/secure_c/src/input.inl **** #endif
 339:/home/xingli/share/LiteOS_Lab/secure_c/src/input.inl **** }
 340:/home/xingli/share/LiteOS_Lab/secure_c/src/input.inl **** #endif
 341:/home/xingli/share/LiteOS_Lab/secure_c/src/input.inl **** 
 342:/home/xingli/share/LiteOS_Lab/secure_c/src/input.inl **** /*
 343:/home/xingli/share/LiteOS_Lab/secure_c/src/input.inl ****  * Parsing whether it is a wide character
 344:/home/xingli/share/LiteOS_Lab/secure_c/src/input.inl ****  */
 345:/home/xingli/share/LiteOS_Lab/secure_c/src/input.inl **** static void SecUpdateWcharFlagByType(SecUnsignedChar ch, SecScanSpec *spec)
 346:/home/xingli/share/LiteOS_Lab/secure_c/src/input.inl **** {
 466              		.loc 1 346 1
 467              		.cfi_startproc
 468 0000 F30F1EFA 		endbr64
 469 0004 55       		pushq	%rbp
 470              	.LCFI12:
 471              		.cfi_def_cfa_offset 16
 472              		.cfi_offset 6, -16
 473 0005 4889E5   		movq	%rsp, %rbp
 474              	.LCFI13:
 475              		.cfi_def_cfa_register 6
 476 0008 4883EC20 		subq	$32, %rsp
 477 000c 897DEC   		movl	%edi, -20(%rbp)
 478 000f 488975E0 		movq	%rsi, -32(%rbp)
 479              		.loc 1 346 1
 480 0013 64488B04 		movq	%fs:40, %rax
 480      25280000 
 480      00
 481 001c 488945F8 		movq	%rax, -8(%rbp)
 482 0020 31C0     		xorl	%eax, %eax
 347:/home/xingli/share/LiteOS_Lab/secure_c/src/input.inl **** #if defined(SECUREC_FOR_WCHAR) && (defined(SECUREC_COMPATIBLE_WIN_FORMAT))
 348:/home/xingli/share/LiteOS_Lab/secure_c/src/input.inl ****     signed char flagForUpperType = -1;
 349:/home/xingli/share/LiteOS_Lab/secure_c/src/input.inl ****     signed char flagForLowerType = 1;
 350:/home/xingli/share/LiteOS_Lab/secure_c/src/input.inl **** #else
 351:/home/xingli/share/LiteOS_Lab/secure_c/src/input.inl ****     signed char flagForUpperType = 1;
 483              		.loc 1 351 17
 484 0022 C645F601 		movb	$1, -10(%rbp)
 352:/home/xingli/share/LiteOS_Lab/secure_c/src/input.inl ****     signed char flagForLowerType = -1;
GAS LISTING /tmp/cc1ytava.s 			page 17


 485              		.loc 1 352 17
 486 0026 C645F7FF 		movb	$-1, -9(%rbp)
 353:/home/xingli/share/LiteOS_Lab/secure_c/src/input.inl **** #endif
 354:/home/xingli/share/LiteOS_Lab/secure_c/src/input.inl ****     /* if no  l or h flag  */
 355:/home/xingli/share/LiteOS_Lab/secure_c/src/input.inl ****     if (spec->isWChar == 0) {
 487              		.loc 1 355 13
 488 002a 488B45E0 		movq	-32(%rbp), %rax
 489 002e 0FB64040 		movzbl	64(%rax), %eax
 490              		.loc 1 355 8
 491 0032 84C0     		testb	%al, %al
 492 0034 7525     		jne	.L34
 356:/home/xingli/share/LiteOS_Lab/secure_c/src/input.inl ****         if ((ch == SECUREC_CHAR('C')) || (ch == SECUREC_CHAR('S'))) {
 493              		.loc 1 356 12
 494 0036 837DEC43 		cmpl	$67, -20(%rbp)
 495 003a 7406     		je	.L30
 496              		.loc 1 356 39 discriminator 1
 497 003c 837DEC53 		cmpl	$83, -20(%rbp)
 498 0040 750D     		jne	.L31
 499              	.L30:
 357:/home/xingli/share/LiteOS_Lab/secure_c/src/input.inl ****             spec->isWChar = flagForUpperType;
 500              		.loc 1 357 27
 501 0042 488B45E0 		movq	-32(%rbp), %rax
 502 0046 0FB655F6 		movzbl	-10(%rbp), %edx
 503 004a 885040   		movb	%dl, 64(%rax)
 504 004d EB0B     		jmp	.L29
 505              	.L31:
 358:/home/xingli/share/LiteOS_Lab/secure_c/src/input.inl ****         } else {
 359:/home/xingli/share/LiteOS_Lab/secure_c/src/input.inl ****             spec->isWChar = flagForLowerType;
 506              		.loc 1 359 27
 507 004f 488B45E0 		movq	-32(%rbp), %rax
 508 0053 0FB655F7 		movzbl	-9(%rbp), %edx
 509 0057 885040   		movb	%dl, 64(%rax)
 510              	.L29:
 360:/home/xingli/share/LiteOS_Lab/secure_c/src/input.inl ****         }
 361:/home/xingli/share/LiteOS_Lab/secure_c/src/input.inl ****     }
 362:/home/xingli/share/LiteOS_Lab/secure_c/src/input.inl ****     return;
 511              		.loc 1 362 5
 512 005a 90       		nop
 513              	.L34:
 514 005b 90       		nop
 363:/home/xingli/share/LiteOS_Lab/secure_c/src/input.inl **** }
 515              		.loc 1 363 1
 516 005c 488B45F8 		movq	-8(%rbp), %rax
 517 0060 64483304 		xorq	%fs:40, %rax
 517      25280000 
 517      00
 518 0069 7405     		je	.L33
 519 006b E8000000 		call	__stack_chk_fail@PLT
 519      00
 520              	.L33:
 521 0070 C9       		leave
 522              	.LCFI14:
 523              		.cfi_def_cfa 7, 8
 524 0071 C3       		ret
 525              		.cfi_endproc
 526              	.LFE10:
 528              		.section	.text.SecDecodeScanQualifierL,"ax",@progbits
GAS LISTING /tmp/cc1ytava.s 			page 18


 530              	SecDecodeScanQualifierL:
 531              	.LFB11:
 364:/home/xingli/share/LiteOS_Lab/secure_c/src/input.inl **** /*
 365:/home/xingli/share/LiteOS_Lab/secure_c/src/input.inl ****  * decode  %l %ll
 366:/home/xingli/share/LiteOS_Lab/secure_c/src/input.inl ****  */
 367:/home/xingli/share/LiteOS_Lab/secure_c/src/input.inl **** static void SecDecodeScanQualifierL(const SecUnsignedChar **format, SecScanSpec *spec)
 368:/home/xingli/share/LiteOS_Lab/secure_c/src/input.inl **** {
 532              		.loc 1 368 1
 533              		.cfi_startproc
 534 0000 F30F1EFA 		endbr64
 535 0004 55       		pushq	%rbp
 536              	.LCFI15:
 537              		.cfi_def_cfa_offset 16
 538              		.cfi_offset 6, -16
 539 0005 4889E5   		movq	%rsp, %rbp
 540              	.LCFI16:
 541              		.cfi_def_cfa_register 6
 542 0008 4883EC20 		subq	$32, %rsp
 543 000c 48897DE8 		movq	%rdi, -24(%rbp)
 544 0010 488975E0 		movq	%rsi, -32(%rbp)
 545              		.loc 1 368 1
 546 0014 64488B04 		movq	%fs:40, %rax
 546      25280000 
 546      00
 547 001d 488945F8 		movq	%rax, -8(%rbp)
 548 0021 31C0     		xorl	%eax, %eax
 369:/home/xingli/share/LiteOS_Lab/secure_c/src/input.inl ****     const SecUnsignedChar *fmt = *format;
 549              		.loc 1 369 28
 550 0023 488B45E8 		movq	-24(%rbp), %rax
 551 0027 488B00   		movq	(%rax), %rax
 552 002a 488945F0 		movq	%rax, -16(%rbp)
 370:/home/xingli/share/LiteOS_Lab/secure_c/src/input.inl ****     if (*(fmt + 1) == SECUREC_CHAR('l')) {
 553              		.loc 1 370 15
 554 002e 488B45F0 		movq	-16(%rbp), %rax
 555 0032 4883C004 		addq	$4, %rax
 556              		.loc 1 370 9
 557 0036 8B00     		movl	(%rax), %eax
 558              		.loc 1 370 8
 559 0038 83F86C   		cmpl	$108, %eax
 560 003b 751D     		jne	.L36
 371:/home/xingli/share/LiteOS_Lab/secure_c/src/input.inl ****         spec->isInt64Arg = 1;
 561              		.loc 1 371 26
 562 003d 488B45E0 		movq	-32(%rbp), %rax
 563 0041 C7401401 		movl	$1, 20(%rax)
 563      000000
 372:/home/xingli/share/LiteOS_Lab/secure_c/src/input.inl ****         spec->numberWidth = SECUREC_NUM_WIDTH_LONG_LONG;
 564              		.loc 1 372 27
 565 0048 488B45E0 		movq	-32(%rbp), %rax
 566 004c C7401003 		movl	$3, 16(%rax)
 566      000000
 373:/home/xingli/share/LiteOS_Lab/secure_c/src/input.inl ****         ++fmt;
 567              		.loc 1 373 9
 568 0053 488345F0 		addq	$4, -16(%rbp)
 568      04
 569 0058 EB1E     		jmp	.L37
 570              	.L36:
 374:/home/xingli/share/LiteOS_Lab/secure_c/src/input.inl ****     } else {
GAS LISTING /tmp/cc1ytava.s 			page 19


 375:/home/xingli/share/LiteOS_Lab/secure_c/src/input.inl ****         spec->numberWidth = SECUREC_NUM_WIDTH_LONG;
 571              		.loc 1 375 27
 572 005a 488B45E0 		movq	-32(%rbp), %rax
 573 005e C7401002 		movl	$2, 16(%rax)
 573      000000
 376:/home/xingli/share/LiteOS_Lab/secure_c/src/input.inl **** #if defined(SECUREC_ON_64BITS) && !(defined(SECUREC_COMPATIBLE_WIN_FORMAT))
 377:/home/xingli/share/LiteOS_Lab/secure_c/src/input.inl ****         /* on window 64 system sizeof long is 32bit */
 378:/home/xingli/share/LiteOS_Lab/secure_c/src/input.inl ****         spec->isInt64Arg = 1;
 574              		.loc 1 378 26
 575 0065 488B45E0 		movq	-32(%rbp), %rax
 576 0069 C7401401 		movl	$1, 20(%rax)
 576      000000
 379:/home/xingli/share/LiteOS_Lab/secure_c/src/input.inl **** #endif
 380:/home/xingli/share/LiteOS_Lab/secure_c/src/input.inl ****         spec->isWChar = 1;
 577              		.loc 1 380 23
 578 0070 488B45E0 		movq	-32(%rbp), %rax
 579 0074 C6404001 		movb	$1, 64(%rax)
 580              	.L37:
 381:/home/xingli/share/LiteOS_Lab/secure_c/src/input.inl ****     }
 382:/home/xingli/share/LiteOS_Lab/secure_c/src/input.inl ****     *format = fmt;
 581              		.loc 1 382 13
 582 0078 488B45E8 		movq	-24(%rbp), %rax
 583 007c 488B55F0 		movq	-16(%rbp), %rdx
 584 0080 488910   		movq	%rdx, (%rax)
 383:/home/xingli/share/LiteOS_Lab/secure_c/src/input.inl **** }
 585              		.loc 1 383 1
 586 0083 90       		nop
 587 0084 488B45F8 		movq	-8(%rbp), %rax
 588 0088 64483304 		xorq	%fs:40, %rax
 588      25280000 
 588      00
 589 0091 7405     		je	.L38
 590 0093 E8000000 		call	__stack_chk_fail@PLT
 590      00
 591              	.L38:
 592 0098 C9       		leave
 593              	.LCFI17:
 594              		.cfi_def_cfa 7, 8
 595 0099 C3       		ret
 596              		.cfi_endproc
 597              	.LFE11:
 599              		.section	.text.SecDecodeScanQualifierI,"ax",@progbits
 601              	SecDecodeScanQualifierI:
 602              	.LFB12:
 384:/home/xingli/share/LiteOS_Lab/secure_c/src/input.inl **** 
 385:/home/xingli/share/LiteOS_Lab/secure_c/src/input.inl **** /*
 386:/home/xingli/share/LiteOS_Lab/secure_c/src/input.inl ****  * decode  %I %I43 %I64 %Id %Ii %Io ...
 387:/home/xingli/share/LiteOS_Lab/secure_c/src/input.inl ****  * set finishFlag to  1  finish Flag
 388:/home/xingli/share/LiteOS_Lab/secure_c/src/input.inl ****  */
 389:/home/xingli/share/LiteOS_Lab/secure_c/src/input.inl **** static void SecDecodeScanQualifierI(const SecUnsignedChar **format, SecScanSpec *spec, int *finishF
 390:/home/xingli/share/LiteOS_Lab/secure_c/src/input.inl **** {
 603              		.loc 1 390 1
 604              		.cfi_startproc
 605 0000 F30F1EFA 		endbr64
 606 0004 55       		pushq	%rbp
 607              	.LCFI18:
 608              		.cfi_def_cfa_offset 16
GAS LISTING /tmp/cc1ytava.s 			page 20


 609              		.cfi_offset 6, -16
 610 0005 4889E5   		movq	%rsp, %rbp
 611              	.LCFI19:
 612              		.cfi_def_cfa_register 6
 613 0008 4883EC30 		subq	$48, %rsp
 614 000c 48897DE8 		movq	%rdi, -24(%rbp)
 615 0010 488975E0 		movq	%rsi, -32(%rbp)
 616 0014 488955D8 		movq	%rdx, -40(%rbp)
 617              		.loc 1 390 1
 618 0018 64488B04 		movq	%fs:40, %rax
 618      25280000 
 618      00
 619 0021 488945F8 		movq	%rax, -8(%rbp)
 620 0025 31C0     		xorl	%eax, %eax
 391:/home/xingli/share/LiteOS_Lab/secure_c/src/input.inl ****     const SecUnsignedChar *fmt = *format;
 621              		.loc 1 391 28
 622 0027 488B45E8 		movq	-24(%rbp), %rax
 623 002b 488B00   		movq	(%rax), %rax
 624 002e 488945F0 		movq	%rax, -16(%rbp)
 392:/home/xingli/share/LiteOS_Lab/secure_c/src/input.inl ****     if ((*(fmt + 1) == SECUREC_CHAR('6')) &&
 625              		.loc 1 392 16
 626 0032 488B45F0 		movq	-16(%rbp), %rax
 627 0036 4883C004 		addq	$4, %rax
 628              		.loc 1 392 10
 629 003a 8B00     		movl	(%rax), %eax
 630              		.loc 1 392 8
 631 003c 83F836   		cmpl	$54, %eax
 632 003f 7531     		jne	.L40
 393:/home/xingli/share/LiteOS_Lab/secure_c/src/input.inl ****         (*(fmt + 2) == SECUREC_CHAR('4'))) { /* offset 2 for I64 */
 633              		.loc 1 393 16 discriminator 1
 634 0041 488B45F0 		movq	-16(%rbp), %rax
 635 0045 4883C008 		addq	$8, %rax
 636              		.loc 1 393 10 discriminator 1
 637 0049 8B00     		movl	(%rax), %eax
 392:/home/xingli/share/LiteOS_Lab/secure_c/src/input.inl ****     if ((*(fmt + 1) == SECUREC_CHAR('6')) &&
 638              		.loc 1 392 43 discriminator 1
 639 004b 83F834   		cmpl	$52, %eax
 640 004e 7522     		jne	.L40
 394:/home/xingli/share/LiteOS_Lab/secure_c/src/input.inl ****         spec->isInt64Arg = 1;
 641              		.loc 1 394 26
 642 0050 488B45E0 		movq	-32(%rbp), %rax
 643 0054 C7401401 		movl	$1, 20(%rax)
 643      000000
 395:/home/xingli/share/LiteOS_Lab/secure_c/src/input.inl ****         *format = *format + 2; /* add 2 to skip I64 point to '4' next loop will inc */
 644              		.loc 1 395 19
 645 005b 488B45E8 		movq	-24(%rbp), %rax
 646 005f 488B00   		movq	(%rax), %rax
 647              		.loc 1 395 27
 648 0062 488D5008 		leaq	8(%rax), %rdx
 649              		.loc 1 395 17
 650 0066 488B45E8 		movq	-24(%rbp), %rax
 651 006a 488910   		movq	%rdx, (%rax)
 652 006d E9AB0000 		jmp	.L41
 652      00
 653              	.L40:
 396:/home/xingli/share/LiteOS_Lab/secure_c/src/input.inl ****     } else if ((*(fmt + 1) == SECUREC_CHAR('3')) &&
 654              		.loc 1 396 23
GAS LISTING /tmp/cc1ytava.s 			page 21


 655 0072 488B45F0 		movq	-16(%rbp), %rax
 656 0076 4883C004 		addq	$4, %rax
 657              		.loc 1 396 17
 658 007a 8B00     		movl	(%rax), %eax
 659              		.loc 1 396 15
 660 007c 83F833   		cmpl	$51, %eax
 661 007f 7523     		jne	.L42
 397:/home/xingli/share/LiteOS_Lab/secure_c/src/input.inl ****                 (*(fmt + 2) == SECUREC_CHAR('2'))) { /* offset 2 for I32 */
 662              		.loc 1 397 24 discriminator 1
 663 0081 488B45F0 		movq	-16(%rbp), %rax
 664 0085 4883C008 		addq	$8, %rax
 665              		.loc 1 397 18 discriminator 1
 666 0089 8B00     		movl	(%rax), %eax
 396:/home/xingli/share/LiteOS_Lab/secure_c/src/input.inl ****     } else if ((*(fmt + 1) == SECUREC_CHAR('3')) &&
 667              		.loc 1 396 50 discriminator 1
 668 008b 83F832   		cmpl	$50, %eax
 669 008e 7514     		jne	.L42
 398:/home/xingli/share/LiteOS_Lab/secure_c/src/input.inl ****         *format = *format + 2; /* add 2 to skip I32 point to '2' next loop will inc */
 670              		.loc 1 398 19
 671 0090 488B45E8 		movq	-24(%rbp), %rax
 672 0094 488B00   		movq	(%rax), %rax
 673              		.loc 1 398 27
 674 0097 488D5008 		leaq	8(%rax), %rdx
 675              		.loc 1 398 17
 676 009b 488B45E8 		movq	-24(%rbp), %rax
 677 009f 488910   		movq	%rdx, (%rax)
 678 00a2 EB79     		jmp	.L41
 679              	.L42:
 399:/home/xingli/share/LiteOS_Lab/secure_c/src/input.inl ****     } else if ((*(fmt + 1) == SECUREC_CHAR('d')) ||
 680              		.loc 1 399 23
 681 00a4 488B45F0 		movq	-16(%rbp), %rax
 682 00a8 4883C004 		addq	$4, %rax
 683              		.loc 1 399 17
 684 00ac 8B00     		movl	(%rax), %eax
 685              		.loc 1 399 15
 686 00ae 83F864   		cmpl	$100, %eax
 687 00b1 743C     		je	.L43
 400:/home/xingli/share/LiteOS_Lab/secure_c/src/input.inl ****                 (*(fmt + 1) == SECUREC_CHAR('i')) ||
 688              		.loc 1 400 24 discriminator 1
 689 00b3 488B45F0 		movq	-16(%rbp), %rax
 690 00b7 4883C004 		addq	$4, %rax
 691              		.loc 1 400 18 discriminator 1
 692 00bb 8B00     		movl	(%rax), %eax
 399:/home/xingli/share/LiteOS_Lab/secure_c/src/input.inl ****     } else if ((*(fmt + 1) == SECUREC_CHAR('d')) ||
 693              		.loc 1 399 50 discriminator 1
 694 00bd 83F869   		cmpl	$105, %eax
 695 00c0 742D     		je	.L43
 401:/home/xingli/share/LiteOS_Lab/secure_c/src/input.inl ****                 (*(fmt + 1) == SECUREC_CHAR('o')) ||
 696              		.loc 1 401 24
 697 00c2 488B45F0 		movq	-16(%rbp), %rax
 698 00c6 4883C004 		addq	$4, %rax
 699              		.loc 1 401 18
 700 00ca 8B00     		movl	(%rax), %eax
 400:/home/xingli/share/LiteOS_Lab/secure_c/src/input.inl ****                 (*(fmt + 1) == SECUREC_CHAR('i')) ||
 701              		.loc 1 400 51
 702 00cc 83F86F   		cmpl	$111, %eax
 703 00cf 741E     		je	.L43
GAS LISTING /tmp/cc1ytava.s 			page 22


 402:/home/xingli/share/LiteOS_Lab/secure_c/src/input.inl ****                 (*(fmt + 1) == SECUREC_CHAR('x')) ||
 704              		.loc 1 402 24
 705 00d1 488B45F0 		movq	-16(%rbp), %rax
 706 00d5 4883C004 		addq	$4, %rax
 707              		.loc 1 402 18
 708 00d9 8B00     		movl	(%rax), %eax
 401:/home/xingli/share/LiteOS_Lab/secure_c/src/input.inl ****                 (*(fmt + 1) == SECUREC_CHAR('o')) ||
 709              		.loc 1 401 51
 710 00db 83F878   		cmpl	$120, %eax
 711 00de 740F     		je	.L43
 403:/home/xingli/share/LiteOS_Lab/secure_c/src/input.inl ****                 (*(fmt + 1) == SECUREC_CHAR('X'))) {
 712              		.loc 1 403 24
 713 00e0 488B45F0 		movq	-16(%rbp), %rax
 714 00e4 4883C004 		addq	$4, %rax
 715              		.loc 1 403 18
 716 00e8 8B00     		movl	(%rax), %eax
 402:/home/xingli/share/LiteOS_Lab/secure_c/src/input.inl ****                 (*(fmt + 1) == SECUREC_CHAR('x')) ||
 717              		.loc 1 402 51
 718 00ea 83F858   		cmpl	$88, %eax
 719 00ed 7513     		jne	.L44
 720              	.L43:
 404:/home/xingli/share/LiteOS_Lab/secure_c/src/input.inl ****         spec->isInt64Arg = SecIs64BitPtr(sizeof(void *));
 721              		.loc 1 404 28
 722 00ef BF080000 		movl	$8, %edi
 722      00
 723 00f4 E8000000 		call	SecIs64BitPtr
 723      00
 724              		.loc 1 404 26
 725 00f9 488B55E0 		movq	-32(%rbp), %rdx
 726 00fd 894214   		movl	%eax, 20(%rdx)
 727 0100 EB1B     		jmp	.L41
 728              	.L44:
 405:/home/xingli/share/LiteOS_Lab/secure_c/src/input.inl ****     } else {
 406:/home/xingli/share/LiteOS_Lab/secure_c/src/input.inl ****         /* for %I */
 407:/home/xingli/share/LiteOS_Lab/secure_c/src/input.inl ****         spec->isInt64Arg = SecIs64BitPtr(sizeof(void *));
 729              		.loc 1 407 28
 730 0102 BF080000 		movl	$8, %edi
 730      00
 731 0107 E8000000 		call	SecIs64BitPtr
 731      00
 732              		.loc 1 407 26
 733 010c 488B55E0 		movq	-32(%rbp), %rdx
 734 0110 894214   		movl	%eax, 20(%rdx)
 408:/home/xingli/share/LiteOS_Lab/secure_c/src/input.inl ****         *finishFlag = 1;
 735              		.loc 1 408 21
 736 0113 488B45D8 		movq	-40(%rbp), %rax
 737 0117 C7000100 		movl	$1, (%rax)
 737      0000
 738              	.L41:
 409:/home/xingli/share/LiteOS_Lab/secure_c/src/input.inl ****     }
 410:/home/xingli/share/LiteOS_Lab/secure_c/src/input.inl **** }
 739              		.loc 1 410 1
 740 011d 90       		nop
 741 011e 488B45F8 		movq	-8(%rbp), %rax
 742 0122 64483304 		xorq	%fs:40, %rax
 742      25280000 
 742      00
GAS LISTING /tmp/cc1ytava.s 			page 23


 743 012b 7405     		je	.L45
 744 012d E8000000 		call	__stack_chk_fail@PLT
 744      00
 745              	.L45:
 746 0132 C9       		leave
 747              	.LCFI20:
 748              		.cfi_def_cfa 7, 8
 749 0133 C3       		ret
 750              		.cfi_endproc
 751              	.LFE12:
 753              		.section	.text.SecDecodeScanWidth,"ax",@progbits
 755              	SecDecodeScanWidth:
 756              	.LFB13:
 411:/home/xingli/share/LiteOS_Lab/secure_c/src/input.inl **** 
 412:/home/xingli/share/LiteOS_Lab/secure_c/src/input.inl **** static int SecDecodeScanWidth(const SecUnsignedChar **format, SecScanSpec *spec)
 413:/home/xingli/share/LiteOS_Lab/secure_c/src/input.inl **** {
 757              		.loc 1 413 1
 758              		.cfi_startproc
 759 0000 F30F1EFA 		endbr64
 760 0004 55       		pushq	%rbp
 761              	.LCFI21:
 762              		.cfi_def_cfa_offset 16
 763              		.cfi_offset 6, -16
 764 0005 4889E5   		movq	%rsp, %rbp
 765              	.LCFI22:
 766              		.cfi_def_cfa_register 6
 767 0008 4883EC20 		subq	$32, %rsp
 768 000c 48897DE8 		movq	%rdi, -24(%rbp)
 769 0010 488975E0 		movq	%rsi, -32(%rbp)
 770              		.loc 1 413 1
 771 0014 64488B04 		movq	%fs:40, %rax
 771      25280000 
 771      00
 772 001d 488945F8 		movq	%rax, -8(%rbp)
 773 0021 31C0     		xorl	%eax, %eax
 414:/home/xingli/share/LiteOS_Lab/secure_c/src/input.inl ****     const SecUnsignedChar *fmt = *format;
 774              		.loc 1 414 28
 775 0023 488B45E8 		movq	-24(%rbp), %rax
 776 0027 488B00   		movq	(%rax), %rax
 777 002a 488945F0 		movq	%rax, -16(%rbp)
 415:/home/xingli/share/LiteOS_Lab/secure_c/src/input.inl ****     while (SECUREC_IS_DIGIT(*fmt)) {
 778              		.loc 1 415 11
 779 002e EB58     		jmp	.L47
 780              	.L51:
 416:/home/xingli/share/LiteOS_Lab/secure_c/src/input.inl ****         spec->widthSet = 1;
 781              		.loc 1 416 24
 782 0030 488B45E0 		movq	-32(%rbp), %rax
 783 0034 C7403401 		movl	$1, 52(%rax)
 783      000000
 417:/home/xingli/share/LiteOS_Lab/secure_c/src/input.inl ****         if (SECUREC_MUL_TEN_ADD_BEYOND_MAX(spec->width)) {
 784              		.loc 1 417 13
 785 003b 488B45E0 		movq	-32(%rbp), %rax
 786 003f 8B4030   		movl	48(%rax), %eax
 787              		.loc 1 417 12
 788 0042 3D14AE47 		cmpl	$21474836, %eax
 788      01
 789 0047 7E0A     		jle	.L48
GAS LISTING /tmp/cc1ytava.s 			page 24


 418:/home/xingli/share/LiteOS_Lab/secure_c/src/input.inl ****             return -1;
 790              		.loc 1 418 20
 791 0049 B8FFFFFF 		movl	$-1, %eax
 791      FF
 792 004e E9800000 		jmp	.L49
 792      00
 793              	.L48:
 419:/home/xingli/share/LiteOS_Lab/secure_c/src/input.inl ****         }
 420:/home/xingli/share/LiteOS_Lab/secure_c/src/input.inl ****         spec->width = (int)SECUREC_MUL_TEN((unsigned int)spec->width) + (unsigned char)(*fmt - SECU
 794              		.loc 1 420 28
 795 0053 488B45E0 		movq	-32(%rbp), %rax
 796 0057 8B4030   		movl	48(%rax), %eax
 797 005a 8D148500 		leal	0(,%rax,4), %edx
 797      000000
 798 0061 488B45E0 		movq	-32(%rbp), %rax
 799 0065 8B4030   		movl	48(%rax), %eax
 800 0068 01D0     		addl	%edx, %eax
 801 006a 01C0     		addl	%eax, %eax
 802              		.loc 1 420 23
 803 006c 89C2     		movl	%eax, %edx
 804              		.loc 1 420 89
 805 006e 488B45F0 		movq	-16(%rbp), %rax
 806 0072 8B00     		movl	(%rax), %eax
 807              		.loc 1 420 73
 808 0074 83E830   		subl	$48, %eax
 809 0077 0FB6C0   		movzbl	%al, %eax
 810              		.loc 1 420 71
 811 007a 01C2     		addl	%eax, %edx
 812              		.loc 1 420 21
 813 007c 488B45E0 		movq	-32(%rbp), %rax
 814 0080 895030   		movl	%edx, 48(%rax)
 421:/home/xingli/share/LiteOS_Lab/secure_c/src/input.inl ****         ++fmt;
 815              		.loc 1 421 9
 816 0083 488345F0 		addq	$4, -16(%rbp)
 816      04
 817              	.L47:
 415:/home/xingli/share/LiteOS_Lab/secure_c/src/input.inl ****         spec->widthSet = 1;
 818              		.loc 1 415 12
 819 0088 488B45F0 		movq	-16(%rbp), %rax
 820 008c 8B00     		movl	(%rax), %eax
 821 008e 2500FF00 		andl	$65280, %eax
 821      00
 415:/home/xingli/share/LiteOS_Lab/secure_c/src/input.inl ****         spec->widthSet = 1;
 822              		.loc 1 415 11
 823 0093 85C0     		testl	%eax, %eax
 824 0095 752C     		jne	.L50
 415:/home/xingli/share/LiteOS_Lab/secure_c/src/input.inl ****         spec->widthSet = 1;
 825              		.loc 1 415 12 discriminator 1
 826 0097 E8000000 		call	__ctype_b_loc@PLT
 826      00
 827 009c 488B10   		movq	(%rax), %rdx
 828 009f 488B45F0 		movq	-16(%rbp), %rax
 829 00a3 8B00     		movl	(%rax), %eax
 830 00a5 4898     		cltq
 831 00a7 0FB6C0   		movzbl	%al, %eax
 832 00aa 4801C0   		addq	%rax, %rax
 833 00ad 4801D0   		addq	%rdx, %rax
GAS LISTING /tmp/cc1ytava.s 			page 25


 834 00b0 0FB700   		movzwl	(%rax), %eax
 835 00b3 0FB7C0   		movzwl	%ax, %eax
 836 00b6 25000800 		andl	$2048, %eax
 836      00
 837 00bb 85C0     		testl	%eax, %eax
 838 00bd 0F856DFF 		jne	.L51
 838      FFFF
 839              	.L50:
 422:/home/xingli/share/LiteOS_Lab/secure_c/src/input.inl ****     }
 423:/home/xingli/share/LiteOS_Lab/secure_c/src/input.inl ****     *format = fmt;
 840              		.loc 1 423 13
 841 00c3 488B45E8 		movq	-24(%rbp), %rax
 842 00c7 488B55F0 		movq	-16(%rbp), %rdx
 843 00cb 488910   		movq	%rdx, (%rax)
 424:/home/xingli/share/LiteOS_Lab/secure_c/src/input.inl ****     return 0;
 844              		.loc 1 424 12
 845 00ce B8000000 		movl	$0, %eax
 845      00
 846              	.L49:
 425:/home/xingli/share/LiteOS_Lab/secure_c/src/input.inl **** }
 847              		.loc 1 425 1
 848 00d3 488B4DF8 		movq	-8(%rbp), %rcx
 849 00d7 6448330C 		xorq	%fs:40, %rcx
 849      25280000 
 849      00
 850 00e0 7405     		je	.L52
 851 00e2 E8000000 		call	__stack_chk_fail@PLT
 851      00
 852              	.L52:
 853 00e7 C9       		leave
 854              	.LCFI23:
 855              		.cfi_def_cfa 7, 8
 856 00e8 C3       		ret
 857              		.cfi_endproc
 858              	.LFE13:
 860              		.section	.text.SecSetDefaultScanSpec,"ax",@progbits
 862              	SecSetDefaultScanSpec:
 863              	.LFB14:
 426:/home/xingli/share/LiteOS_Lab/secure_c/src/input.inl **** 
 427:/home/xingli/share/LiteOS_Lab/secure_c/src/input.inl **** /*
 428:/home/xingli/share/LiteOS_Lab/secure_c/src/input.inl ****  * init default flags for each format
 429:/home/xingli/share/LiteOS_Lab/secure_c/src/input.inl ****  */
 430:/home/xingli/share/LiteOS_Lab/secure_c/src/input.inl **** static void SecSetDefaultScanSpec(SecScanSpec *spec)
 431:/home/xingli/share/LiteOS_Lab/secure_c/src/input.inl **** {
 864              		.loc 1 431 1
 865              		.cfi_startproc
 866 0000 F30F1EFA 		endbr64
 867 0004 55       		pushq	%rbp
 868              	.LCFI24:
 869              		.cfi_def_cfa_offset 16
 870              		.cfi_offset 6, -16
 871 0005 4889E5   		movq	%rsp, %rbp
 872              	.LCFI25:
 873              		.cfi_def_cfa_register 6
 874 0008 4883EC20 		subq	$32, %rsp
 875 000c 48897DE8 		movq	%rdi, -24(%rbp)
 876              		.loc 1 431 1
GAS LISTING /tmp/cc1ytava.s 			page 26


 877 0010 64488B04 		movq	%fs:40, %rax
 877      25280000 
 877      00
 878 0019 488945F8 		movq	%rax, -8(%rbp)
 879 001d 31C0     		xorl	%eax, %eax
 432:/home/xingli/share/LiteOS_Lab/secure_c/src/input.inl ****     spec->number64 = 0;
 880              		.loc 1 432 20
 881 001f 488B45E8 		movq	-24(%rbp), %rax
 882 0023 48C70000 		movq	$0, (%rax)
 882      000000
 433:/home/xingli/share/LiteOS_Lab/secure_c/src/input.inl ****     spec->number = 0;
 883              		.loc 1 433 18
 884 002a 488B45E8 		movq	-24(%rbp), %rax
 885 002e 48C74008 		movq	$0, 8(%rax)
 885      00000000 
 434:/home/xingli/share/LiteOS_Lab/secure_c/src/input.inl ****     spec->numberWidth = SECUREC_NUM_WIDTH_INT;    /* 0 = SHORT, 1 = int, > 1  long or L_DOUBLE */
 886              		.loc 1 434 23
 887 0036 488B45E8 		movq	-24(%rbp), %rax
 888 003a C7401001 		movl	$1, 16(%rax)
 888      000000
 435:/home/xingli/share/LiteOS_Lab/secure_c/src/input.inl ****     spec->isInt64Arg = 0;                         /* 1 for 64-bit integer, 0 otherwise */
 889              		.loc 1 435 22
 890 0041 488B45E8 		movq	-24(%rbp), %rax
 891 0045 C7401400 		movl	$0, 20(%rax)
 891      000000
 436:/home/xingli/share/LiteOS_Lab/secure_c/src/input.inl ****     spec->negative = 0;
 892              		.loc 1 436 20
 893 004c 488B45E8 		movq	-24(%rbp), %rax
 894 0050 C7401800 		movl	$0, 24(%rax)
 894      000000
 437:/home/xingli/share/LiteOS_Lab/secure_c/src/input.inl **** #if (defined(SECUREC_COMPATIBLE_LINUX_FORMAT) && !(defined(SECUREC_ON_UNIX)))
 438:/home/xingli/share/LiteOS_Lab/secure_c/src/input.inl ****     spec->beyondMax = 0;
 895              		.loc 1 438 21
 896 0057 488B45E8 		movq	-24(%rbp), %rax
 897 005b C7401C00 		movl	$0, 28(%rax)
 897      000000
 439:/home/xingli/share/LiteOS_Lab/secure_c/src/input.inl **** #endif
 440:/home/xingli/share/LiteOS_Lab/secure_c/src/input.inl ****     spec->argPtr = NULL;
 898              		.loc 1 440 18
 899 0062 488B45E8 		movq	-24(%rbp), %rax
 900 0066 48C74020 		movq	$0, 32(%rax)
 900      00000000 
 441:/home/xingli/share/LiteOS_Lab/secure_c/src/input.inl ****     spec->arrayWidth = 0;
 901              		.loc 1 441 22
 902 006e 488B45E8 		movq	-24(%rbp), %rax
 903 0072 48C74028 		movq	$0, 40(%rax)
 903      00000000 
 442:/home/xingli/share/LiteOS_Lab/secure_c/src/input.inl ****     spec->width = 0;
 904              		.loc 1 442 17
 905 007a 488B45E8 		movq	-24(%rbp), %rax
 906 007e C7403000 		movl	$0, 48(%rax)
 906      000000
 443:/home/xingli/share/LiteOS_Lab/secure_c/src/input.inl ****     spec->widthSet = 0;
 907              		.loc 1 443 20
 908 0085 488B45E8 		movq	-24(%rbp), %rax
 909 0089 C7403400 		movl	$0, 52(%rax)
 909      000000
GAS LISTING /tmp/cc1ytava.s 			page 27


 444:/home/xingli/share/LiteOS_Lab/secure_c/src/input.inl ****     spec->comChr = 0;
 910              		.loc 1 444 18
 911 0090 488B45E8 		movq	-24(%rbp), %rax
 912 0094 C7403800 		movl	$0, 56(%rax)
 912      000000
 445:/home/xingli/share/LiteOS_Lab/secure_c/src/input.inl ****     spec->isWChar = 0;
 913              		.loc 1 445 19
 914 009b 488B45E8 		movq	-24(%rbp), %rax
 915 009f C6404000 		movb	$0, 64(%rax)
 446:/home/xingli/share/LiteOS_Lab/secure_c/src/input.inl ****     spec->suppress = 0;
 916              		.loc 1 446 20
 917 00a3 488B45E8 		movq	-24(%rbp), %rax
 918 00a7 C6404100 		movb	$0, 65(%rax)
 447:/home/xingli/share/LiteOS_Lab/secure_c/src/input.inl **** }
 919              		.loc 1 447 1
 920 00ab 90       		nop
 921 00ac 488B45F8 		movq	-8(%rbp), %rax
 922 00b0 64483304 		xorq	%fs:40, %rax
 922      25280000 
 922      00
 923 00b9 7405     		je	.L54
 924 00bb E8000000 		call	__stack_chk_fail@PLT
 924      00
 925              	.L54:
 926 00c0 C9       		leave
 927              	.LCFI26:
 928              		.cfi_def_cfa 7, 8
 929 00c1 C3       		ret
 930              		.cfi_endproc
 931              	.LFE14:
 933              		.section	.text.SecDecodeScanQualifier,"ax",@progbits
 935              	SecDecodeScanQualifier:
 936              	.LFB15:
 448:/home/xingli/share/LiteOS_Lab/secure_c/src/input.inl **** 
 449:/home/xingli/share/LiteOS_Lab/secure_c/src/input.inl **** /*
 450:/home/xingli/share/LiteOS_Lab/secure_c/src/input.inl ****  * decode qualifier %I %L %h ...
 451:/home/xingli/share/LiteOS_Lab/secure_c/src/input.inl ****  * set finishFlag to  1  finish Flag
 452:/home/xingli/share/LiteOS_Lab/secure_c/src/input.inl ****  */
 453:/home/xingli/share/LiteOS_Lab/secure_c/src/input.inl **** static void  SecDecodeScanQualifier(const SecUnsignedChar **format, SecScanSpec *spec, int *finishF
 454:/home/xingli/share/LiteOS_Lab/secure_c/src/input.inl **** {
 937              		.loc 1 454 1
 938              		.cfi_startproc
 939 0000 F30F1EFA 		endbr64
 940 0004 55       		pushq	%rbp
 941              	.LCFI27:
 942              		.cfi_def_cfa_offset 16
 943              		.cfi_offset 6, -16
 944 0005 4889E5   		movq	%rsp, %rbp
 945              	.LCFI28:
 946              		.cfi_def_cfa_register 6
 947 0008 4883EC30 		subq	$48, %rsp
 948 000c 48897DE8 		movq	%rdi, -24(%rbp)
 949 0010 488975E0 		movq	%rsi, -32(%rbp)
 950 0014 488955D8 		movq	%rdx, -40(%rbp)
 951              		.loc 1 454 1
 952 0018 64488B04 		movq	%fs:40, %rax
 952      25280000 
GAS LISTING /tmp/cc1ytava.s 			page 28


 952      00
 953 0021 488945F8 		movq	%rax, -8(%rbp)
 954 0025 31C0     		xorl	%eax, %eax
 455:/home/xingli/share/LiteOS_Lab/secure_c/src/input.inl ****     switch ((int)(unsigned char)(**(format))) {
 955              		.loc 1 455 35
 956 0027 488B45E8 		movq	-24(%rbp), %rax
 957 002b 488B00   		movq	(%rax), %rax
 958              		.loc 1 455 34
 959 002e 8B00     		movl	(%rax), %eax
 960              		.loc 1 455 13
 961 0030 0FB6C0   		movzbl	%al, %eax
 962 0033 83E82A   		subl	$42, %eax
 963 0036 83F850   		cmpl	$80, %eax
 964 0039 0F87CB00 		ja	.L56
 964      0000
 965 003f 89C0     		movl	%eax, %eax
 966 0041 488D1485 		leaq	0(,%rax,4), %rdx
 966      00000000 
 967 0049 488D0500 		leaq	.L58(%rip), %rax
 967      000000
 968 0050 8B0402   		movl	(%rdx,%rax), %eax
 969 0053 4898     		cltq
 970 0055 488D1500 		leaq	.L58(%rip), %rdx
 970      000000
 971 005c 4801D0   		addq	%rdx, %rax
 972 005f 3EFFE0   		notrack jmp	*%rax
 973              		.section	.rodata.SecDecodeScanQualifier,"a",@progbits
 974              		.align 4
 975              		.align 4
 976              	.L58:
 977 0000 00000000 		.long	.L66-.L58
 978 0004 00000000 		.long	.L56-.L58
 979 0008 00000000 		.long	.L56-.L58
 980 000c 00000000 		.long	.L56-.L58
 981 0010 00000000 		.long	.L56-.L58
 982 0014 00000000 		.long	.L56-.L58
 983 0018 00000000 		.long	.L56-.L58
 984 001c 00000000 		.long	.L56-.L58
 985 0020 00000000 		.long	.L56-.L58
 986 0024 00000000 		.long	.L56-.L58
 987 0028 00000000 		.long	.L56-.L58
 988 002c 00000000 		.long	.L56-.L58
 989 0030 00000000 		.long	.L56-.L58
 990 0034 00000000 		.long	.L56-.L58
 991 0038 00000000 		.long	.L56-.L58
 992 003c 00000000 		.long	.L56-.L58
 993 0040 00000000 		.long	.L56-.L58
 994 0044 00000000 		.long	.L56-.L58
 995 0048 00000000 		.long	.L56-.L58
 996 004c 00000000 		.long	.L56-.L58
 997 0050 00000000 		.long	.L56-.L58
 998 0054 00000000 		.long	.L56-.L58
 999 0058 00000000 		.long	.L56-.L58
 1000 005c 00000000 		.long	.L56-.L58
 1001 0060 00000000 		.long	.L56-.L58
 1002 0064 00000000 		.long	.L56-.L58
 1003 0068 00000000 		.long	.L56-.L58
GAS LISTING /tmp/cc1ytava.s 			page 29


 1004 006c 00000000 		.long	.L56-.L58
 1005 0070 00000000 		.long	.L69-.L58
 1006 0074 00000000 		.long	.L56-.L58
 1007 0078 00000000 		.long	.L56-.L58
 1008 007c 00000000 		.long	.L65-.L58
 1009 0080 00000000 		.long	.L56-.L58
 1010 0084 00000000 		.long	.L56-.L58
 1011 0088 00000000 		.long	.L60-.L58
 1012 008c 00000000 		.long	.L56-.L58
 1013 0090 00000000 		.long	.L69-.L58
 1014 0094 00000000 		.long	.L56-.L58
 1015 0098 00000000 		.long	.L56-.L58
 1016 009c 00000000 		.long	.L56-.L58
 1017 00a0 00000000 		.long	.L56-.L58
 1018 00a4 00000000 		.long	.L56-.L58
 1019 00a8 00000000 		.long	.L56-.L58
 1020 00ac 00000000 		.long	.L56-.L58
 1021 00b0 00000000 		.long	.L56-.L58
 1022 00b4 00000000 		.long	.L56-.L58
 1023 00b8 00000000 		.long	.L56-.L58
 1024 00bc 00000000 		.long	.L56-.L58
 1025 00c0 00000000 		.long	.L56-.L58
 1026 00c4 00000000 		.long	.L56-.L58
 1027 00c8 00000000 		.long	.L56-.L58
 1028 00cc 00000000 		.long	.L56-.L58
 1029 00d0 00000000 		.long	.L56-.L58
 1030 00d4 00000000 		.long	.L56-.L58
 1031 00d8 00000000 		.long	.L56-.L58
 1032 00dc 00000000 		.long	.L56-.L58
 1033 00e0 00000000 		.long	.L56-.L58
 1034 00e4 00000000 		.long	.L56-.L58
 1035 00e8 00000000 		.long	.L56-.L58
 1036 00ec 00000000 		.long	.L56-.L58
 1037 00f0 00000000 		.long	.L56-.L58
 1038 00f4 00000000 		.long	.L56-.L58
 1039 00f8 00000000 		.long	.L63-.L58
 1040 00fc 00000000 		.long	.L56-.L58
 1041 0100 00000000 		.long	.L62-.L58
 1042 0104 00000000 		.long	.L56-.L58
 1043 0108 00000000 		.long	.L61-.L58
 1044 010c 00000000 		.long	.L56-.L58
 1045 0110 00000000 		.long	.L56-.L58
 1046 0114 00000000 		.long	.L56-.L58
 1047 0118 00000000 		.long	.L56-.L58
 1048 011c 00000000 		.long	.L60-.L58
 1049 0120 00000000 		.long	.L56-.L58
 1050 0124 00000000 		.long	.L56-.L58
 1051 0128 00000000 		.long	.L57-.L58
 1052 012c 00000000 		.long	.L56-.L58
 1053 0130 00000000 		.long	.L56-.L58
 1054 0134 00000000 		.long	.L59-.L58
 1055 0138 00000000 		.long	.L56-.L58
 1056 013c 00000000 		.long	.L56-.L58
 1057 0140 00000000 		.long	.L57-.L58
 1058              		.section	.text.SecDecodeScanQualifier
 1059              	.L63:
 456:/home/xingli/share/LiteOS_Lab/secure_c/src/input.inl ****         case SECUREC_CHAR('F'):    /* fall-through */ /* FALLTHRU */
GAS LISTING /tmp/cc1ytava.s 			page 30


 457:/home/xingli/share/LiteOS_Lab/secure_c/src/input.inl ****         case SECUREC_CHAR('N'):
 458:/home/xingli/share/LiteOS_Lab/secure_c/src/input.inl ****             break;
 459:/home/xingli/share/LiteOS_Lab/secure_c/src/input.inl ****         case SECUREC_CHAR('h'):
 460:/home/xingli/share/LiteOS_Lab/secure_c/src/input.inl ****             --spec->numberWidth;  /* h for SHORT , hh for CHAR */
 1060              		.loc 1 460 19
 1061 0062 488B45E0 		movq	-32(%rbp), %rax
 1062 0066 8B4010   		movl	16(%rax), %eax
 1063              		.loc 1 460 13
 1064 0069 8D50FF   		leal	-1(%rax), %edx
 1065 006c 488B45E0 		movq	-32(%rbp), %rax
 1066 0070 895010   		movl	%edx, 16(%rax)
 461:/home/xingli/share/LiteOS_Lab/secure_c/src/input.inl ****             spec->isWChar = -1;
 1067              		.loc 1 461 27
 1068 0073 488B45E0 		movq	-32(%rbp), %rax
 1069 0077 C64040FF 		movb	$-1, 64(%rax)
 462:/home/xingli/share/LiteOS_Lab/secure_c/src/input.inl ****             break;
 1070              		.loc 1 462 13
 1071 007b E9970000 		jmp	.L67
 1071      00
 1072              	.L62:
 463:/home/xingli/share/LiteOS_Lab/secure_c/src/input.inl **** #ifdef SECUREC_COMPATIBLE_LINUX_FORMAT
 464:/home/xingli/share/LiteOS_Lab/secure_c/src/input.inl ****         case SECUREC_CHAR('j'):
 465:/home/xingli/share/LiteOS_Lab/secure_c/src/input.inl ****             spec->numberWidth = SECUREC_NUM_WIDTH_LONG_LONG;  /* intmax_t or uintmax_t */
 1073              		.loc 1 465 31
 1074 0080 488B45E0 		movq	-32(%rbp), %rax
 1075 0084 C7401003 		movl	$3, 16(%rax)
 1075      000000
 466:/home/xingli/share/LiteOS_Lab/secure_c/src/input.inl ****             spec->isInt64Arg = 1;
 1076              		.loc 1 466 30
 1077 008b 488B45E0 		movq	-32(%rbp), %rax
 1078 008f C7401401 		movl	$1, 20(%rax)
 1078      000000
 467:/home/xingli/share/LiteOS_Lab/secure_c/src/input.inl ****             break;
 1079              		.loc 1 467 13
 1080 0096 EB7F     		jmp	.L67
 1081              	.L57:
 468:/home/xingli/share/LiteOS_Lab/secure_c/src/input.inl ****         case SECUREC_CHAR('t'):    /* fall-through */ /* FALLTHRU */
 469:/home/xingli/share/LiteOS_Lab/secure_c/src/input.inl **** #endif
 470:/home/xingli/share/LiteOS_Lab/secure_c/src/input.inl ****         case SECUREC_CHAR('z'):
 471:/home/xingli/share/LiteOS_Lab/secure_c/src/input.inl **** #ifdef SECUREC_ON_64BITS
 472:/home/xingli/share/LiteOS_Lab/secure_c/src/input.inl ****             spec->numberWidth = SECUREC_NUM_WIDTH_LONG_LONG;
 1082              		.loc 1 472 31
 1083 0098 488B45E0 		movq	-32(%rbp), %rax
 1084 009c C7401003 		movl	$3, 16(%rax)
 1084      000000
 473:/home/xingli/share/LiteOS_Lab/secure_c/src/input.inl ****             spec->isInt64Arg = 1;
 1085              		.loc 1 473 30
 1086 00a3 488B45E0 		movq	-32(%rbp), %rax
 1087 00a7 C7401401 		movl	$1, 20(%rax)
 1087      000000
 474:/home/xingli/share/LiteOS_Lab/secure_c/src/input.inl **** #else
 475:/home/xingli/share/LiteOS_Lab/secure_c/src/input.inl ****             spec->numberWidth = SECUREC_NUM_WIDTH_LONG;
 476:/home/xingli/share/LiteOS_Lab/secure_c/src/input.inl **** #endif
 477:/home/xingli/share/LiteOS_Lab/secure_c/src/input.inl ****             break;
 1088              		.loc 1 477 13
 1089 00ae EB67     		jmp	.L67
 1090              	.L60:
GAS LISTING /tmp/cc1ytava.s 			page 31


 478:/home/xingli/share/LiteOS_Lab/secure_c/src/input.inl ****         case SECUREC_CHAR('L'):    /* long double */ /* fall-through */ /* FALLTHRU */
 479:/home/xingli/share/LiteOS_Lab/secure_c/src/input.inl ****         case SECUREC_CHAR('q'):
 480:/home/xingli/share/LiteOS_Lab/secure_c/src/input.inl ****             spec->numberWidth = SECUREC_NUM_WIDTH_LONG_LONG;
 1091              		.loc 1 480 31
 1092 00b0 488B45E0 		movq	-32(%rbp), %rax
 1093 00b4 C7401003 		movl	$3, 16(%rax)
 1093      000000
 481:/home/xingli/share/LiteOS_Lab/secure_c/src/input.inl ****             spec->isInt64Arg = 1;
 1094              		.loc 1 481 30
 1095 00bb 488B45E0 		movq	-32(%rbp), %rax
 1096 00bf C7401401 		movl	$1, 20(%rax)
 1096      000000
 482:/home/xingli/share/LiteOS_Lab/secure_c/src/input.inl ****             break;
 1097              		.loc 1 482 13
 1098 00c6 EB4F     		jmp	.L67
 1099              	.L61:
 483:/home/xingli/share/LiteOS_Lab/secure_c/src/input.inl ****         case SECUREC_CHAR('l'):
 484:/home/xingli/share/LiteOS_Lab/secure_c/src/input.inl ****             SecDecodeScanQualifierL(format, spec);
 1100              		.loc 1 484 13
 1101 00c8 488B55E0 		movq	-32(%rbp), %rdx
 1102 00cc 488B45E8 		movq	-24(%rbp), %rax
 1103 00d0 4889D6   		movq	%rdx, %rsi
 1104 00d3 4889C7   		movq	%rax, %rdi
 1105 00d6 E8000000 		call	SecDecodeScanQualifierL
 1105      00
 485:/home/xingli/share/LiteOS_Lab/secure_c/src/input.inl ****             break;
 1106              		.loc 1 485 13
 1107 00db EB3A     		jmp	.L67
 1108              	.L59:
 486:/home/xingli/share/LiteOS_Lab/secure_c/src/input.inl ****         case SECUREC_CHAR('w'):
 487:/home/xingli/share/LiteOS_Lab/secure_c/src/input.inl ****             spec->isWChar = 1;
 1109              		.loc 1 487 27
 1110 00dd 488B45E0 		movq	-32(%rbp), %rax
 1111 00e1 C6404001 		movb	$1, 64(%rax)
 488:/home/xingli/share/LiteOS_Lab/secure_c/src/input.inl ****             break;
 1112              		.loc 1 488 13
 1113 00e5 EB30     		jmp	.L67
 1114              	.L66:
 489:/home/xingli/share/LiteOS_Lab/secure_c/src/input.inl ****         case SECUREC_CHAR('*'):
 490:/home/xingli/share/LiteOS_Lab/secure_c/src/input.inl ****             spec->suppress = 1;
 1115              		.loc 1 490 28
 1116 00e7 488B45E0 		movq	-32(%rbp), %rax
 1117 00eb C6404101 		movb	$1, 65(%rax)
 491:/home/xingli/share/LiteOS_Lab/secure_c/src/input.inl ****             break;
 1118              		.loc 1 491 13
 1119 00ef EB26     		jmp	.L67
 1120              	.L65:
 492:/home/xingli/share/LiteOS_Lab/secure_c/src/input.inl ****         case SECUREC_CHAR('I'):
 493:/home/xingli/share/LiteOS_Lab/secure_c/src/input.inl ****             SecDecodeScanQualifierI(format, spec, finishFlag);
 1121              		.loc 1 493 13
 1122 00f1 488B55D8 		movq	-40(%rbp), %rdx
 1123 00f5 488B4DE0 		movq	-32(%rbp), %rcx
 1124 00f9 488B45E8 		movq	-24(%rbp), %rax
 1125 00fd 4889CE   		movq	%rcx, %rsi
 1126 0100 4889C7   		movq	%rax, %rdi
 1127 0103 E8000000 		call	SecDecodeScanQualifierI
 1127      00
GAS LISTING /tmp/cc1ytava.s 			page 32


 494:/home/xingli/share/LiteOS_Lab/secure_c/src/input.inl ****             break;
 1128              		.loc 1 494 13
 1129 0108 EB0D     		jmp	.L67
 1130              	.L56:
 495:/home/xingli/share/LiteOS_Lab/secure_c/src/input.inl ****         default:
 496:/home/xingli/share/LiteOS_Lab/secure_c/src/input.inl ****             *finishFlag = 1;
 1131              		.loc 1 496 25
 1132 010a 488B45D8 		movq	-40(%rbp), %rax
 1133 010e C7000100 		movl	$1, (%rax)
 1133      0000
 497:/home/xingli/share/LiteOS_Lab/secure_c/src/input.inl ****             break;
 1134              		.loc 1 497 13
 1135 0114 EB01     		jmp	.L67
 1136              	.L69:
 458:/home/xingli/share/LiteOS_Lab/secure_c/src/input.inl ****         case SECUREC_CHAR('h'):
 1137              		.loc 1 458 13
 1138 0116 90       		nop
 1139              	.L67:
 498:/home/xingli/share/LiteOS_Lab/secure_c/src/input.inl ****     }
 499:/home/xingli/share/LiteOS_Lab/secure_c/src/input.inl **** 
 500:/home/xingli/share/LiteOS_Lab/secure_c/src/input.inl **** }
 1140              		.loc 1 500 1
 1141 0117 90       		nop
 1142 0118 488B45F8 		movq	-8(%rbp), %rax
 1143 011c 64483304 		xorq	%fs:40, %rax
 1143      25280000 
 1143      00
 1144 0125 7405     		je	.L68
 1145 0127 E8000000 		call	__stack_chk_fail@PLT
 1145      00
 1146              	.L68:
 1147 012c C9       		leave
 1148              	.LCFI29:
 1149              		.cfi_def_cfa 7, 8
 1150 012d C3       		ret
 1151              		.cfi_endproc
 1152              	.LFE15:
 1154              		.section	.text.SecDecodeScanFlag,"ax",@progbits
 1156              	SecDecodeScanFlag:
 1157              	.LFB16:
 501:/home/xingli/share/LiteOS_Lab/secure_c/src/input.inl **** /*
 502:/home/xingli/share/LiteOS_Lab/secure_c/src/input.inl ****  * decode width and qualifier in format
 503:/home/xingli/share/LiteOS_Lab/secure_c/src/input.inl ****  */
 504:/home/xingli/share/LiteOS_Lab/secure_c/src/input.inl **** static int SecDecodeScanFlag(const SecUnsignedChar **format, SecScanSpec *spec)
 505:/home/xingli/share/LiteOS_Lab/secure_c/src/input.inl **** {
 1158              		.loc 1 505 1
 1159              		.cfi_startproc
 1160 0000 F30F1EFA 		endbr64
 1161 0004 55       		pushq	%rbp
 1162              	.LCFI30:
 1163              		.cfi_def_cfa_offset 16
 1164              		.cfi_offset 6, -16
 1165 0005 4889E5   		movq	%rsp, %rbp
 1166              	.LCFI31:
 1167              		.cfi_def_cfa_register 6
 1168 0008 4883EC30 		subq	$48, %rsp
 1169 000c 48897DD8 		movq	%rdi, -40(%rbp)
GAS LISTING /tmp/cc1ytava.s 			page 33


 1170 0010 488975D0 		movq	%rsi, -48(%rbp)
 1171              		.loc 1 505 1
 1172 0014 64488B04 		movq	%fs:40, %rax
 1172      25280000 
 1172      00
 1173 001d 488945F8 		movq	%rax, -8(%rbp)
 1174 0021 31C0     		xorl	%eax, %eax
 506:/home/xingli/share/LiteOS_Lab/secure_c/src/input.inl ****     const SecUnsignedChar *fmt = *format;
 1175              		.loc 1 506 34
 1176 0023 488B45D8 		movq	-40(%rbp), %rax
 1177 0027 488B00   		movq	(%rax), %rax
 1178              		.loc 1 506 28
 1179 002a 488945F0 		movq	%rax, -16(%rbp)
 507:/home/xingli/share/LiteOS_Lab/secure_c/src/input.inl ****     int finishFlag = 0;
 1180              		.loc 1 507 9
 1181 002e C745EC00 		movl	$0, -20(%rbp)
 1181      000000
 1182              	.L73:
 508:/home/xingli/share/LiteOS_Lab/secure_c/src/input.inl **** 
 509:/home/xingli/share/LiteOS_Lab/secure_c/src/input.inl ****     do {
 510:/home/xingli/share/LiteOS_Lab/secure_c/src/input.inl ****         ++fmt; /*  first skip % , next  seek fmt */
 1183              		.loc 1 510 9
 1184 0035 488B45F0 		movq	-16(%rbp), %rax
 1185 0039 4883C004 		addq	$4, %rax
 1186 003d 488945F0 		movq	%rax, -16(%rbp)
 511:/home/xingli/share/LiteOS_Lab/secure_c/src/input.inl ****         /* may %*6d , so put it inside the loop */
 512:/home/xingli/share/LiteOS_Lab/secure_c/src/input.inl ****         if (SecDecodeScanWidth(&fmt, spec) != 0) {
 1187              		.loc 1 512 13
 1188 0041 488B55D0 		movq	-48(%rbp), %rdx
 1189 0045 488D45F0 		leaq	-16(%rbp), %rax
 1190 0049 4889D6   		movq	%rdx, %rsi
 1191 004c 4889C7   		movq	%rax, %rdi
 1192 004f E8000000 		call	SecDecodeScanWidth
 1192      00
 1193              		.loc 1 512 12
 1194 0054 85C0     		testl	%eax, %eax
 1195 0056 7407     		je	.L71
 513:/home/xingli/share/LiteOS_Lab/secure_c/src/input.inl ****             return -1;
 1196              		.loc 1 513 20
 1197 0058 B8FFFFFF 		movl	$-1, %eax
 1197      FF
 1198 005d EB2E     		jmp	.L74
 1199              	.L71:
 514:/home/xingli/share/LiteOS_Lab/secure_c/src/input.inl ****         }
 515:/home/xingli/share/LiteOS_Lab/secure_c/src/input.inl ****         SecDecodeScanQualifier(&fmt, spec, &finishFlag);
 1200              		.loc 1 515 9
 1201 005f 488D55EC 		leaq	-20(%rbp), %rdx
 1202 0063 488B4DD0 		movq	-48(%rbp), %rcx
 1203 0067 488D45F0 		leaq	-16(%rbp), %rax
 1204 006b 4889CE   		movq	%rcx, %rsi
 1205 006e 4889C7   		movq	%rax, %rdi
 1206 0071 E8000000 		call	SecDecodeScanQualifier
 1206      00
 516:/home/xingli/share/LiteOS_Lab/secure_c/src/input.inl ****     } while (finishFlag == 0);
 1207              		.loc 1 516 25
 1208 0076 8B45EC   		movl	-20(%rbp), %eax
 1209              		.loc 1 516 5
GAS LISTING /tmp/cc1ytava.s 			page 34


 1210 0079 85C0     		testl	%eax, %eax
 1211 007b 74B8     		je	.L73
 517:/home/xingli/share/LiteOS_Lab/secure_c/src/input.inl ****     *format = fmt;
 1212              		.loc 1 517 13
 1213 007d 488B55F0 		movq	-16(%rbp), %rdx
 1214 0081 488B45D8 		movq	-40(%rbp), %rax
 1215 0085 488910   		movq	%rdx, (%rax)
 518:/home/xingli/share/LiteOS_Lab/secure_c/src/input.inl ****     return 0;
 1216              		.loc 1 518 12
 1217 0088 B8000000 		movl	$0, %eax
 1217      00
 1218              	.L74:
 519:/home/xingli/share/LiteOS_Lab/secure_c/src/input.inl **** }
 1219              		.loc 1 519 1 discriminator 1
 1220 008d 488B4DF8 		movq	-8(%rbp), %rcx
 1221 0091 6448330C 		xorq	%fs:40, %rcx
 1221      25280000 
 1221      00
 1222 009a 7405     		je	.L75
 1223              		.loc 1 519 1 is_stmt 0
 1224 009c E8000000 		call	__stack_chk_fail@PLT
 1224      00
 1225              	.L75:
 1226 00a1 C9       		leave
 1227              	.LCFI32:
 1228              		.cfi_def_cfa 7, 8
 1229 00a2 C3       		ret
 1230              		.cfi_endproc
 1231              	.LFE16:
 1233              		.section	.text.SecDecodeClearFormat,"ax",@progbits
 1235              	SecDecodeClearFormat:
 1236              	.LFB17:
 520:/home/xingli/share/LiteOS_Lab/secure_c/src/input.inl **** 
 521:/home/xingli/share/LiteOS_Lab/secure_c/src/input.inl **** 
 522:/home/xingli/share/LiteOS_Lab/secure_c/src/input.inl **** 
 523:/home/xingli/share/LiteOS_Lab/secure_c/src/input.inl **** 
 524:/home/xingli/share/LiteOS_Lab/secure_c/src/input.inl **** 
 525:/home/xingli/share/LiteOS_Lab/secure_c/src/input.inl **** /*
 526:/home/xingli/share/LiteOS_Lab/secure_c/src/input.inl ****  * Judging whether a zeroing buffer is needed according to different formats
 527:/home/xingli/share/LiteOS_Lab/secure_c/src/input.inl ****  */
 528:/home/xingli/share/LiteOS_Lab/secure_c/src/input.inl **** static int SecDecodeClearFormat(const SecUnsignedChar *format, int *comChr)
 529:/home/xingli/share/LiteOS_Lab/secure_c/src/input.inl **** {
 1237              		.loc 1 529 1 is_stmt 1
 1238              		.cfi_startproc
 1239 0000 F30F1EFA 		endbr64
 1240 0004 55       		pushq	%rbp
 1241              	.LCFI33:
 1242              		.cfi_def_cfa_offset 16
 1243              		.cfi_offset 6, -16
 1244 0005 4889E5   		movq	%rsp, %rbp
 1245              	.LCFI34:
 1246              		.cfi_def_cfa_register 6
 1247 0008 4883EC30 		subq	$48, %rsp
 1248 000c 48897DD8 		movq	%rdi, -40(%rbp)
 1249 0010 488975D0 		movq	%rsi, -48(%rbp)
 1250              		.loc 1 529 1
 1251 0014 64488B04 		movq	%fs:40, %rax
GAS LISTING /tmp/cc1ytava.s 			page 35


 1251      25280000 
 1251      00
 1252 001d 488945F8 		movq	%rax, -8(%rbp)
 1253 0021 31C0     		xorl	%eax, %eax
 530:/home/xingli/share/LiteOS_Lab/secure_c/src/input.inl ****     const SecUnsignedChar *fmt = format;
 1254              		.loc 1 530 28
 1255 0023 488B45D8 		movq	-40(%rbp), %rax
 1256 0027 488945F0 		movq	%rax, -16(%rbp)
 531:/home/xingli/share/LiteOS_Lab/secure_c/src/input.inl ****     /* to lowercase */
 532:/home/xingli/share/LiteOS_Lab/secure_c/src/input.inl ****     int ch = (unsigned char)(*fmt) | (SECUREC_CHAR('a') - SECUREC_CHAR('A'));
 1257              		.loc 1 532 30
 1258 002b 488B45F0 		movq	-16(%rbp), %rax
 1259 002f 8B00     		movl	(%rax), %eax
 1260              		.loc 1 532 36
 1261 0031 83C820   		orl	$32, %eax
 1262              		.loc 1 532 9
 1263 0034 0FB6C0   		movzbl	%al, %eax
 1264 0037 8945EC   		movl	%eax, -20(%rbp)
 533:/home/xingli/share/LiteOS_Lab/secure_c/src/input.inl ****     if (!(ch == SECUREC_CHAR('c') || ch == SECUREC_CHAR('s') || ch == SECUREC_BRACE)) {
 1265              		.loc 1 533 8
 1266 003a 837DEC63 		cmpl	$99, -20(%rbp)
 1267 003e 7413     		je	.L77
 1268              		.loc 1 533 35 discriminator 1
 1269 0040 837DEC73 		cmpl	$115, -20(%rbp)
 1270 0044 740D     		je	.L77
 1271              		.loc 1 533 9 discriminator 2
 1272 0046 837DEC7B 		cmpl	$123, -20(%rbp)
 1273 004a 7407     		je	.L77
 534:/home/xingli/share/LiteOS_Lab/secure_c/src/input.inl ****         return -1;     /* first argument is not a string type */
 1274              		.loc 1 534 16
 1275 004c B8FFFFFF 		movl	$-1, %eax
 1275      FF
 1276 0051 EB78     		jmp	.L78
 1277              	.L77:
 535:/home/xingli/share/LiteOS_Lab/secure_c/src/input.inl ****     }
 536:/home/xingli/share/LiteOS_Lab/secure_c/src/input.inl ****     if (ch == SECUREC_BRACE) {
 1278              		.loc 1 536 8
 1279 0053 837DEC7B 		cmpl	$123, -20(%rbp)
 1280 0057 7564     		jne	.L79
 537:/home/xingli/share/LiteOS_Lab/secure_c/src/input.inl **** #if !(defined(SECUREC_COMPATIBLE_WIN_FORMAT))
 538:/home/xingli/share/LiteOS_Lab/secure_c/src/input.inl ****         if (*fmt == SECUREC_CHAR('{')) {
 1281              		.loc 1 538 13
 1282 0059 488B45F0 		movq	-16(%rbp), %rax
 1283 005d 8B00     		movl	(%rax), %eax
 1284              		.loc 1 538 12
 1285 005f 83F87B   		cmpl	$123, %eax
 1286 0062 7507     		jne	.L80
 539:/home/xingli/share/LiteOS_Lab/secure_c/src/input.inl ****             return -1;
 1287              		.loc 1 539 20
 1288 0064 B8FFFFFF 		movl	$-1, %eax
 1288      FF
 1289 0069 EB60     		jmp	.L78
 1290              	.L80:
 540:/home/xingli/share/LiteOS_Lab/secure_c/src/input.inl ****         }
 541:/home/xingli/share/LiteOS_Lab/secure_c/src/input.inl **** #endif
 542:/home/xingli/share/LiteOS_Lab/secure_c/src/input.inl ****         ++fmt;
 1291              		.loc 1 542 9
GAS LISTING /tmp/cc1ytava.s 			page 36


 1292 006b 488345F0 		addq	$4, -16(%rbp)
 1292      04
 543:/home/xingli/share/LiteOS_Lab/secure_c/src/input.inl ****         if (*fmt == SECUREC_CHAR('^')) {
 1293              		.loc 1 543 13
 1294 0070 488B45F0 		movq	-16(%rbp), %rax
 1295 0074 8B00     		movl	(%rax), %eax
 1296              		.loc 1 543 12
 1297 0076 83F85E   		cmpl	$94, %eax
 1298 0079 7505     		jne	.L81
 544:/home/xingli/share/LiteOS_Lab/secure_c/src/input.inl ****             ++fmt;
 1299              		.loc 1 544 13
 1300 007b 488345F0 		addq	$4, -16(%rbp)
 1300      04
 1301              	.L81:
 545:/home/xingli/share/LiteOS_Lab/secure_c/src/input.inl ****         }
 546:/home/xingli/share/LiteOS_Lab/secure_c/src/input.inl ****         if (*fmt == SECUREC_CHAR(']')) {
 1302              		.loc 1 546 13
 1303 0080 488B45F0 		movq	-16(%rbp), %rax
 1304 0084 8B00     		movl	(%rax), %eax
 1305              		.loc 1 546 12
 1306 0086 83F85D   		cmpl	$93, %eax
 1307 0089 750C     		jne	.L83
 547:/home/xingli/share/LiteOS_Lab/secure_c/src/input.inl ****             ++fmt;
 1308              		.loc 1 547 13
 1309 008b 488345F0 		addq	$4, -16(%rbp)
 1309      04
 548:/home/xingli/share/LiteOS_Lab/secure_c/src/input.inl ****         }
 549:/home/xingli/share/LiteOS_Lab/secure_c/src/input.inl ****         while ((*fmt != SECUREC_CHAR('\0')) && (*fmt != SECUREC_CHAR(']'))) {
 1310              		.loc 1 549 15
 1311 0090 EB05     		jmp	.L83
 1312              	.L85:
 550:/home/xingli/share/LiteOS_Lab/secure_c/src/input.inl ****             ++fmt;
 1313              		.loc 1 550 13
 1314 0092 488345F0 		addq	$4, -16(%rbp)
 1314      04
 1315              	.L83:
 549:/home/xingli/share/LiteOS_Lab/secure_c/src/input.inl ****             ++fmt;
 1316              		.loc 1 549 17
 1317 0097 488B45F0 		movq	-16(%rbp), %rax
 1318 009b 8B00     		movl	(%rax), %eax
 549:/home/xingli/share/LiteOS_Lab/secure_c/src/input.inl ****             ++fmt;
 1319              		.loc 1 549 15
 1320 009d 85C0     		testl	%eax, %eax
 1321 009f 740B     		je	.L84
 549:/home/xingli/share/LiteOS_Lab/secure_c/src/input.inl ****             ++fmt;
 1322              		.loc 1 549 49 discriminator 1
 1323 00a1 488B45F0 		movq	-16(%rbp), %rax
 1324 00a5 8B00     		movl	(%rax), %eax
 549:/home/xingli/share/LiteOS_Lab/secure_c/src/input.inl ****             ++fmt;
 1325              		.loc 1 549 45 discriminator 1
 1326 00a7 83F85D   		cmpl	$93, %eax
 1327 00aa 75E6     		jne	.L85
 1328              	.L84:
 551:/home/xingli/share/LiteOS_Lab/secure_c/src/input.inl ****         }
 552:/home/xingli/share/LiteOS_Lab/secure_c/src/input.inl ****         if (*fmt == SECUREC_CHAR('\0')) {
 1329              		.loc 1 552 13
 1330 00ac 488B45F0 		movq	-16(%rbp), %rax
GAS LISTING /tmp/cc1ytava.s 			page 37


 1331 00b0 8B00     		movl	(%rax), %eax
 1332              		.loc 1 552 12
 1333 00b2 85C0     		testl	%eax, %eax
 1334 00b4 7507     		jne	.L79
 553:/home/xingli/share/LiteOS_Lab/secure_c/src/input.inl ****             return -1; /* trunc'd format string */
 1335              		.loc 1 553 20
 1336 00b6 B8FFFFFF 		movl	$-1, %eax
 1336      FF
 1337 00bb EB0E     		jmp	.L78
 1338              	.L79:
 554:/home/xingli/share/LiteOS_Lab/secure_c/src/input.inl ****         }
 555:/home/xingli/share/LiteOS_Lab/secure_c/src/input.inl ****     }
 556:/home/xingli/share/LiteOS_Lab/secure_c/src/input.inl ****     *comChr = ch;
 1339              		.loc 1 556 13
 1340 00bd 488B45D0 		movq	-48(%rbp), %rax
 1341 00c1 8B55EC   		movl	-20(%rbp), %edx
 1342 00c4 8910     		movl	%edx, (%rax)
 557:/home/xingli/share/LiteOS_Lab/secure_c/src/input.inl ****     return 0;
 1343              		.loc 1 557 12
 1344 00c6 B8000000 		movl	$0, %eax
 1344      00
 1345              	.L78:
 558:/home/xingli/share/LiteOS_Lab/secure_c/src/input.inl **** }
 1346              		.loc 1 558 1
 1347 00cb 488B4DF8 		movq	-8(%rbp), %rcx
 1348 00cf 6448330C 		xorq	%fs:40, %rcx
 1348      25280000 
 1348      00
 1349 00d8 7405     		je	.L86
 1350 00da E8000000 		call	__stack_chk_fail@PLT
 1350      00
 1351              	.L86:
 1352 00df C9       		leave
 1353              	.LCFI35:
 1354              		.cfi_def_cfa 7, 8
 1355 00e0 C3       		ret
 1356              		.cfi_endproc
 1357              	.LFE17:
 1359              		.section	.text.SecAddEndingZero,"ax",@progbits
 1361              	SecAddEndingZero:
 1362              	.LFB18:
 559:/home/xingli/share/LiteOS_Lab/secure_c/src/input.inl **** 
 560:/home/xingli/share/LiteOS_Lab/secure_c/src/input.inl **** /*
 561:/home/xingli/share/LiteOS_Lab/secure_c/src/input.inl ****  * add L'\0' for wchar string , add '\0' for char string
 562:/home/xingli/share/LiteOS_Lab/secure_c/src/input.inl ****  */
 563:/home/xingli/share/LiteOS_Lab/secure_c/src/input.inl **** static void SecAddEndingZero(void *ptr, const SecScanSpec *spec)
 564:/home/xingli/share/LiteOS_Lab/secure_c/src/input.inl **** {
 1363              		.loc 1 564 1
 1364              		.cfi_startproc
 1365 0000 F30F1EFA 		endbr64
 1366 0004 55       		pushq	%rbp
 1367              	.LCFI36:
 1368              		.cfi_def_cfa_offset 16
 1369              		.cfi_offset 6, -16
 1370 0005 4889E5   		movq	%rsp, %rbp
 1371              	.LCFI37:
 1372              		.cfi_def_cfa_register 6
GAS LISTING /tmp/cc1ytava.s 			page 38


 1373 0008 4883EC20 		subq	$32, %rsp
 1374 000c 48897DE8 		movq	%rdi, -24(%rbp)
 1375 0010 488975E0 		movq	%rsi, -32(%rbp)
 1376              		.loc 1 564 1
 1377 0014 64488B04 		movq	%fs:40, %rax
 1377      25280000 
 1377      00
 1378 001d 488945F8 		movq	%rax, -8(%rbp)
 1379 0021 31C0     		xorl	%eax, %eax
 565:/home/xingli/share/LiteOS_Lab/secure_c/src/input.inl ****     *(char *)ptr = '\0';
 1380              		.loc 1 565 18
 1381 0023 488B45E8 		movq	-24(%rbp), %rax
 1382 0027 C60000   		movb	$0, (%rax)
 566:/home/xingli/share/LiteOS_Lab/secure_c/src/input.inl ****     (void)spec; /* clear not use */
 567:/home/xingli/share/LiteOS_Lab/secure_c/src/input.inl **** #if SECUREC_HAVE_WCHART
 568:/home/xingli/share/LiteOS_Lab/secure_c/src/input.inl ****     if (spec->isWChar > 0) {
 1383              		.loc 1 568 13
 1384 002a 488B45E0 		movq	-32(%rbp), %rax
 1385 002e 0FB64040 		movzbl	64(%rax), %eax
 1386              		.loc 1 568 8
 1387 0032 84C0     		testb	%al, %al
 1388 0034 7E0A     		jle	.L90
 569:/home/xingli/share/LiteOS_Lab/secure_c/src/input.inl ****         *(wchar_t UNALIGNED *)ptr = L'\0';
 1389              		.loc 1 569 35
 1390 0036 488B45E8 		movq	-24(%rbp), %rax
 1391 003a C7000000 		movl	$0, (%rax)
 1391      0000
 1392              	.L90:
 570:/home/xingli/share/LiteOS_Lab/secure_c/src/input.inl ****     }
 571:/home/xingli/share/LiteOS_Lab/secure_c/src/input.inl **** #endif
 572:/home/xingli/share/LiteOS_Lab/secure_c/src/input.inl **** }
 1393              		.loc 1 572 1
 1394 0040 90       		nop
 1395 0041 488B45F8 		movq	-8(%rbp), %rax
 1396 0045 64483304 		xorq	%fs:40, %rax
 1396      25280000 
 1396      00
 1397 004e 7405     		je	.L89
 1398 0050 E8000000 		call	__stack_chk_fail@PLT
 1398      00
 1399              	.L89:
 1400 0055 C9       		leave
 1401              	.LCFI38:
 1402              		.cfi_def_cfa 7, 8
 1403 0056 C3       		ret
 1404              		.cfi_endproc
 1405              	.LFE18:
 1407              		.section	.text.SecClearDestBufW,"ax",@progbits
 1408              		.globl	SecClearDestBufW
 1410              	SecClearDestBufW:
 1411              	.LFB19:
 573:/home/xingli/share/LiteOS_Lab/secure_c/src/input.inl **** 
 574:/home/xingli/share/LiteOS_Lab/secure_c/src/input.inl **** #ifdef SECUREC_FOR_WCHAR
 575:/home/xingli/share/LiteOS_Lab/secure_c/src/input.inl **** /*
 576:/home/xingli/share/LiteOS_Lab/secure_c/src/input.inl ****  *  Clean up the first %s %c buffer to zero for wchar version
 577:/home/xingli/share/LiteOS_Lab/secure_c/src/input.inl ****  */
 578:/home/xingli/share/LiteOS_Lab/secure_c/src/input.inl **** void SecClearDestBufW(const wchar_t *buffer, const wchar_t *format, va_list argList)
GAS LISTING /tmp/cc1ytava.s 			page 39


 579:/home/xingli/share/LiteOS_Lab/secure_c/src/input.inl **** #else
 580:/home/xingli/share/LiteOS_Lab/secure_c/src/input.inl **** /*
 581:/home/xingli/share/LiteOS_Lab/secure_c/src/input.inl ****  *  Clean up the first %s %c buffer to zero for char version
 582:/home/xingli/share/LiteOS_Lab/secure_c/src/input.inl ****  */
 583:/home/xingli/share/LiteOS_Lab/secure_c/src/input.inl **** void SecClearDestBuf(const char *buffer, const char *format, va_list argList)
 584:/home/xingli/share/LiteOS_Lab/secure_c/src/input.inl **** #endif
 585:/home/xingli/share/LiteOS_Lab/secure_c/src/input.inl **** {
 1412              		.loc 1 585 1
 1413              		.cfi_startproc
 1414 0000 F30F1EFA 		endbr64
 1415 0004 55       		pushq	%rbp
 1416              	.LCFI39:
 1417              		.cfi_def_cfa_offset 16
 1418              		.cfi_offset 6, -16
 1419 0005 4889E5   		movq	%rsp, %rbp
 1420              	.LCFI40:
 1421              		.cfi_def_cfa_register 6
 1422 0008 4881ECB0 		subq	$176, %rsp
 1422      000000
 1423 000f 4889BD68 		movq	%rdi, -152(%rbp)
 1423      FFFFFF
 1424 0016 4889B560 		movq	%rsi, -160(%rbp)
 1424      FFFFFF
 1425 001d 48899558 		movq	%rdx, -168(%rbp)
 1425      FFFFFF
 1426              		.loc 1 585 1
 1427 0024 64488B04 		movq	%fs:40, %rax
 1427      25280000 
 1427      00
 1428 002d 488945F8 		movq	%rax, -8(%rbp)
 1429 0031 31C0     		xorl	%eax, %eax
 586:/home/xingli/share/LiteOS_Lab/secure_c/src/input.inl **** 
 587:/home/xingli/share/LiteOS_Lab/secure_c/src/input.inl ****     va_list argListSave;        /* backup for argList value, this variable don't need initialized *
 588:/home/xingli/share/LiteOS_Lab/secure_c/src/input.inl ****     SecScanSpec spec;
 589:/home/xingli/share/LiteOS_Lab/secure_c/src/input.inl ****     int comChr = 0;
 1430              		.loc 1 589 9
 1431 0033 C78574FF 		movl	$0, -140(%rbp)
 1431      FFFF0000 
 1431      0000
 590:/home/xingli/share/LiteOS_Lab/secure_c/src/input.inl ****     const SecUnsignedChar *fmt = (const SecUnsignedChar *)format;
 1432              		.loc 1 590 28
 1433 003d 488B8560 		movq	-160(%rbp), %rax
 1433      FFFFFF
 1434 0044 48898578 		movq	%rax, -136(%rbp)
 1434      FFFFFF
 591:/home/xingli/share/LiteOS_Lab/secure_c/src/input.inl ****     if (fmt == NULL) {
 1435              		.loc 1 591 13
 1436 004b 488B8578 		movq	-136(%rbp), %rax
 1436      FFFFFF
 1437              		.loc 1 591 8
 1438 0052 4885C0   		testq	%rax, %rax
 1439 0055 0F849501 		je	.L110
 1439      0000
 592:/home/xingli/share/LiteOS_Lab/secure_c/src/input.inl ****         return;
 593:/home/xingli/share/LiteOS_Lab/secure_c/src/input.inl ****     }
 594:/home/xingli/share/LiteOS_Lab/secure_c/src/input.inl **** 
 595:/home/xingli/share/LiteOS_Lab/secure_c/src/input.inl ****     /* find first % */
GAS LISTING /tmp/cc1ytava.s 			page 40


 596:/home/xingli/share/LiteOS_Lab/secure_c/src/input.inl ****     while (*fmt != SECUREC_CHAR('\0') && *fmt != SECUREC_CHAR('%')) {
 1440              		.loc 1 596 11
 1441 005b EB12     		jmp	.L94
 1442              	.L96:
 597:/home/xingli/share/LiteOS_Lab/secure_c/src/input.inl ****         ++fmt;
 1443              		.loc 1 597 9
 1444 005d 488B8578 		movq	-136(%rbp), %rax
 1444      FFFFFF
 1445 0064 4883C004 		addq	$4, %rax
 1446 0068 48898578 		movq	%rax, -136(%rbp)
 1446      FFFFFF
 1447              	.L94:
 596:/home/xingli/share/LiteOS_Lab/secure_c/src/input.inl ****         ++fmt;
 1448              		.loc 1 596 12
 1449 006f 488B8578 		movq	-136(%rbp), %rax
 1449      FFFFFF
 1450 0076 8B00     		movl	(%rax), %eax
 596:/home/xingli/share/LiteOS_Lab/secure_c/src/input.inl ****         ++fmt;
 1451              		.loc 1 596 11
 1452 0078 85C0     		testl	%eax, %eax
 1453 007a 740E     		je	.L95
 596:/home/xingli/share/LiteOS_Lab/secure_c/src/input.inl ****         ++fmt;
 1454              		.loc 1 596 42 discriminator 1
 1455 007c 488B8578 		movq	-136(%rbp), %rax
 1455      FFFFFF
 1456 0083 8B00     		movl	(%rax), %eax
 596:/home/xingli/share/LiteOS_Lab/secure_c/src/input.inl ****         ++fmt;
 1457              		.loc 1 596 39 discriminator 1
 1458 0085 83F825   		cmpl	$37, %eax
 1459 0088 75D3     		jne	.L96
 1460              	.L95:
 598:/home/xingli/share/LiteOS_Lab/secure_c/src/input.inl ****     }
 599:/home/xingli/share/LiteOS_Lab/secure_c/src/input.inl ****     if (*fmt == SECUREC_CHAR('\0')) {
 1461              		.loc 1 599 9
 1462 008a 488B8578 		movq	-136(%rbp), %rax
 1462      FFFFFF
 1463 0091 8B00     		movl	(%rax), %eax
 1464              		.loc 1 599 8
 1465 0093 85C0     		testl	%eax, %eax
 1466 0095 0F845801 		je	.L111
 1466      0000
 600:/home/xingli/share/LiteOS_Lab/secure_c/src/input.inl ****         return;
 601:/home/xingli/share/LiteOS_Lab/secure_c/src/input.inl ****     }
 602:/home/xingli/share/LiteOS_Lab/secure_c/src/input.inl **** 
 603:/home/xingli/share/LiteOS_Lab/secure_c/src/input.inl ****     SecSetDefaultScanSpec(&spec);
 1467              		.loc 1 603 5
 1468 009b 488D4590 		leaq	-112(%rbp), %rax
 1469 009f 4889C7   		movq	%rax, %rdi
 1470 00a2 E8000000 		call	SecSetDefaultScanSpec
 1470      00
 604:/home/xingli/share/LiteOS_Lab/secure_c/src/input.inl ****     if (SecDecodeScanFlag(&fmt, &spec) != 0) {
 1471              		.loc 1 604 9
 1472 00a7 488D5590 		leaq	-112(%rbp), %rdx
 1473 00ab 488D8578 		leaq	-136(%rbp), %rax
 1473      FFFFFF
 1474 00b2 4889D6   		movq	%rdx, %rsi
 1475 00b5 4889C7   		movq	%rax, %rdi
GAS LISTING /tmp/cc1ytava.s 			page 41


 1476 00b8 E8000000 		call	SecDecodeScanFlag
 1476      00
 1477              		.loc 1 604 8
 1478 00bd 85C0     		testl	%eax, %eax
 1479 00bf 0F853101 		jne	.L112
 1479      0000
 605:/home/xingli/share/LiteOS_Lab/secure_c/src/input.inl ****         return;
 606:/home/xingli/share/LiteOS_Lab/secure_c/src/input.inl ****     }
 607:/home/xingli/share/LiteOS_Lab/secure_c/src/input.inl **** 
 608:/home/xingli/share/LiteOS_Lab/secure_c/src/input.inl ****     /* update wchar flag for %S %C */
 609:/home/xingli/share/LiteOS_Lab/secure_c/src/input.inl ****     SecUpdateWcharFlagByType(*fmt, &spec);
 1480              		.loc 1 609 5
 1481 00c5 488B8578 		movq	-136(%rbp), %rax
 1481      FFFFFF
 1482 00cc 8B00     		movl	(%rax), %eax
 1483 00ce 488D5590 		leaq	-112(%rbp), %rdx
 1484 00d2 4889D6   		movq	%rdx, %rsi
 1485 00d5 89C7     		movl	%eax, %edi
 1486 00d7 E8000000 		call	SecUpdateWcharFlagByType
 1486      00
 610:/home/xingli/share/LiteOS_Lab/secure_c/src/input.inl **** 
 611:/home/xingli/share/LiteOS_Lab/secure_c/src/input.inl ****     if (spec.suppress != 0 || SecDecodeClearFormat(fmt, &comChr) != 0) {
 1487              		.loc 1 611 13
 1488 00dc 0FB645D1 		movzbl	-47(%rbp), %eax
 1489              		.loc 1 611 8
 1490 00e0 84C0     		testb	%al, %al
 1491 00e2 0F851101 		jne	.L113
 1491      0000
 1492              		.loc 1 611 31 discriminator 1
 1493 00e8 488B8578 		movq	-136(%rbp), %rax
 1493      FFFFFF
 1494 00ef 488D9574 		leaq	-140(%rbp), %rdx
 1494      FFFFFF
 1495 00f6 4889D6   		movq	%rdx, %rsi
 1496 00f9 4889C7   		movq	%rax, %rdi
 1497 00fc E8000000 		call	SecDecodeClearFormat
 1497      00
 1498              		.loc 1 611 28 discriminator 1
 1499 0101 85C0     		testl	%eax, %eax
 1500 0103 0F85F000 		jne	.L113
 1500      0000
 612:/home/xingli/share/LiteOS_Lab/secure_c/src/input.inl ****         return;
 613:/home/xingli/share/LiteOS_Lab/secure_c/src/input.inl ****     }
 614:/home/xingli/share/LiteOS_Lab/secure_c/src/input.inl **** 
 615:/home/xingli/share/LiteOS_Lab/secure_c/src/input.inl ****     if ((buffer != NULL) && (*buffer != SECUREC_CHAR('\0')) && (comChr != SECUREC_CHAR('s'))) {
 1501              		.loc 1 615 8
 1502 0109 4883BD68 		cmpq	$0, -152(%rbp)
 1502      FFFFFF00 
 1503 0111 741C     		je	.L101
 1504              		.loc 1 615 30 discriminator 1
 1505 0113 488B8568 		movq	-152(%rbp), %rax
 1505      FFFFFF
 1506 011a 8B00     		movl	(%rax), %eax
 1507              		.loc 1 615 26 discriminator 1
 1508 011c 85C0     		testl	%eax, %eax
 1509 011e 740F     		je	.L101
 1510              		.loc 1 615 72 discriminator 2
GAS LISTING /tmp/cc1ytava.s 			page 42


 1511 0120 8B8574FF 		movl	-140(%rbp), %eax
 1511      FFFF
 1512              		.loc 1 615 61 discriminator 2
 1513 0126 83F873   		cmpl	$115, %eax
 1514 0129 0F85CD00 		jne	.L114
 1514      0000
 1515              	.L101:
 616:/home/xingli/share/LiteOS_Lab/secure_c/src/input.inl ****         /* when buffer not empty just clear %s.
 617:/home/xingli/share/LiteOS_Lab/secure_c/src/input.inl ****          * example call sscanf by  argment of (" \n", "%s", s, sizeof(s))
 618:/home/xingli/share/LiteOS_Lab/secure_c/src/input.inl ****          */
 619:/home/xingli/share/LiteOS_Lab/secure_c/src/input.inl ****         return;
 620:/home/xingli/share/LiteOS_Lab/secure_c/src/input.inl ****     }
 621:/home/xingli/share/LiteOS_Lab/secure_c/src/input.inl ****     (void)memset(&argListSave, 0, sizeof(va_list)); /* to clear e530 argListSave not initialized */
 1516              		.loc 1 621 11
 1517 012f 488D45E0 		leaq	-32(%rbp), %rax
 1518 0133 BA180000 		movl	$24, %edx
 1518      00
 1519 0138 BE000000 		movl	$0, %esi
 1519      00
 1520 013d 4889C7   		movq	%rax, %rdi
 1521 0140 E8000000 		call	memset@PLT
 1521      00
 622:/home/xingli/share/LiteOS_Lab/secure_c/src/input.inl **** #if defined(va_copy)
 623:/home/xingli/share/LiteOS_Lab/secure_c/src/input.inl ****     va_copy(argListSave, argList);
 1522              		.loc 1 623 5
 1523 0145 488D4DE0 		leaq	-32(%rbp), %rcx
 1524 0149 488BB558 		movq	-168(%rbp), %rsi
 1524      FFFFFF
 1525 0150 488B06   		movq	(%rsi), %rax
 1526 0153 488B5608 		movq	8(%rsi), %rdx
 1527 0157 488901   		movq	%rax, (%rcx)
 1528 015a 48895108 		movq	%rdx, 8(%rcx)
 1529 015e 488B4610 		movq	16(%rsi), %rax
 1530 0162 48894110 		movq	%rax, 16(%rcx)
 1531              	.LBB6:
 624:/home/xingli/share/LiteOS_Lab/secure_c/src/input.inl **** #elif defined(__va_copy)        /* for vxworks */
 625:/home/xingli/share/LiteOS_Lab/secure_c/src/input.inl ****     __va_copy(argListSave, argList);
 626:/home/xingli/share/LiteOS_Lab/secure_c/src/input.inl **** #else
 627:/home/xingli/share/LiteOS_Lab/secure_c/src/input.inl ****     argListSave = argList;
 628:/home/xingli/share/LiteOS_Lab/secure_c/src/input.inl **** #endif
 629:/home/xingli/share/LiteOS_Lab/secure_c/src/input.inl ****     do {
 630:/home/xingli/share/LiteOS_Lab/secure_c/src/input.inl ****         void *argPtr = (void *)va_arg(argListSave, void *);
 1532              		.loc 1 630 15
 1533 0166 8B45E0   		movl	-32(%rbp), %eax
 1534 0169 83F82F   		cmpl	$47, %eax
 1535 016c 7717     		ja	.L102
 1536 016e 488B45F0 		movq	-16(%rbp), %rax
 1537 0172 8B55E0   		movl	-32(%rbp), %edx
 1538 0175 89D2     		movl	%edx, %edx
 1539 0177 4801D0   		addq	%rdx, %rax
 1540 017a 8B55E0   		movl	-32(%rbp), %edx
 1541 017d 83C208   		addl	$8, %edx
 1542 0180 8955E0   		movl	%edx, -32(%rbp)
 1543 0183 EB0C     		jmp	.L103
 1544              	.L102:
 1545 0185 488B45E8 		movq	-24(%rbp), %rax
 1546 0189 488D5008 		leaq	8(%rax), %rdx
GAS LISTING /tmp/cc1ytava.s 			page 43


 1547 018d 488955E8 		movq	%rdx, -24(%rbp)
 1548              	.L103:
 1549 0191 488B00   		movq	(%rax), %rax
 1550 0194 48894580 		movq	%rax, -128(%rbp)
 631:/home/xingli/share/LiteOS_Lab/secure_c/src/input.inl ****         /* Get the next argument - size of the array in characters */
 632:/home/xingli/share/LiteOS_Lab/secure_c/src/input.inl ****         size_t arrayWidth = ((size_t)(va_arg(argListSave, size_t))) & 0xFFFFFFFFUL;
 1551              		.loc 1 632 39
 1552 0198 8B45E0   		movl	-32(%rbp), %eax
 1553 019b 83F82F   		cmpl	$47, %eax
 1554 019e 7717     		ja	.L104
 1555 01a0 488B45F0 		movq	-16(%rbp), %rax
 1556 01a4 8B55E0   		movl	-32(%rbp), %edx
 1557 01a7 89D2     		movl	%edx, %edx
 1558 01a9 4801D0   		addq	%rdx, %rax
 1559 01ac 8B55E0   		movl	-32(%rbp), %edx
 1560 01af 83C208   		addl	$8, %edx
 1561 01b2 8955E0   		movl	%edx, -32(%rbp)
 1562 01b5 EB0C     		jmp	.L105
 1563              	.L104:
 1564 01b7 488B45E8 		movq	-24(%rbp), %rax
 1565 01bb 488D5008 		leaq	8(%rax), %rdx
 1566 01bf 488955E8 		movq	%rdx, -24(%rbp)
 1567              	.L105:
 1568 01c3 488B00   		movq	(%rax), %rax
 1569              		.loc 1 632 16
 1570 01c6 83E0FF   		andl	$4294967295, %eax
 1571 01c9 48894588 		movq	%rax, -120(%rbp)
 633:/home/xingli/share/LiteOS_Lab/secure_c/src/input.inl ****         va_end(argListSave);
 634:/home/xingli/share/LiteOS_Lab/secure_c/src/input.inl ****         /* to clear e438 last value assigned not used , the compiler will optimize this code */
 635:/home/xingli/share/LiteOS_Lab/secure_c/src/input.inl ****         (void)argListSave;
 636:/home/xingli/share/LiteOS_Lab/secure_c/src/input.inl ****         /* There is no need to judge the upper limit */
 637:/home/xingli/share/LiteOS_Lab/secure_c/src/input.inl ****         if (arrayWidth == 0 || argPtr == NULL) {
 1572              		.loc 1 637 12
 1573 01cd 48837D88 		cmpq	$0, -120(%rbp)
 1573      00
 1574 01d2 742B     		je	.L115
 1575              		.loc 1 637 29 discriminator 1
 1576 01d4 48837D80 		cmpq	$0, -128(%rbp)
 1576      00
 1577 01d9 7424     		je	.L115
 638:/home/xingli/share/LiteOS_Lab/secure_c/src/input.inl ****             return;
 639:/home/xingli/share/LiteOS_Lab/secure_c/src/input.inl ****         }
 640:/home/xingli/share/LiteOS_Lab/secure_c/src/input.inl **** 
 641:/home/xingli/share/LiteOS_Lab/secure_c/src/input.inl ****         /* clear one char */
 642:/home/xingli/share/LiteOS_Lab/secure_c/src/input.inl ****         SecAddEndingZero(argPtr, &spec);
 1578              		.loc 1 642 9
 1579 01db 488D5590 		leaq	-112(%rbp), %rdx
 1580 01df 488B4580 		movq	-128(%rbp), %rax
 1581 01e3 4889D6   		movq	%rdx, %rsi
 1582 01e6 4889C7   		movq	%rax, %rdi
 1583 01e9 E8000000 		call	SecAddEndingZero
 1583      00
 1584              	.LBE6:
 643:/home/xingli/share/LiteOS_Lab/secure_c/src/input.inl ****     } SECUREC_WHILE_ZERO;
 644:/home/xingli/share/LiteOS_Lab/secure_c/src/input.inl ****     return;
 1585              		.loc 1 644 5
 1586 01ee EB10     		jmp	.L91
GAS LISTING /tmp/cc1ytava.s 			page 44


 1587              	.L110:
 592:/home/xingli/share/LiteOS_Lab/secure_c/src/input.inl ****     }
 1588              		.loc 1 592 9
 1589 01f0 90       		nop
 1590 01f1 EB0D     		jmp	.L91
 1591              	.L111:
 600:/home/xingli/share/LiteOS_Lab/secure_c/src/input.inl ****     }
 1592              		.loc 1 600 9
 1593 01f3 90       		nop
 1594 01f4 EB0A     		jmp	.L91
 1595              	.L112:
 605:/home/xingli/share/LiteOS_Lab/secure_c/src/input.inl ****     }
 1596              		.loc 1 605 9
 1597 01f6 90       		nop
 1598 01f7 EB07     		jmp	.L91
 1599              	.L113:
 612:/home/xingli/share/LiteOS_Lab/secure_c/src/input.inl ****     }
 1600              		.loc 1 612 9
 1601 01f9 90       		nop
 1602 01fa EB04     		jmp	.L91
 1603              	.L114:
 619:/home/xingli/share/LiteOS_Lab/secure_c/src/input.inl ****     }
 1604              		.loc 1 619 9
 1605 01fc 90       		nop
 1606 01fd EB01     		jmp	.L91
 1607              	.L115:
 1608              	.LBB7:
 638:/home/xingli/share/LiteOS_Lab/secure_c/src/input.inl ****         }
 1609              		.loc 1 638 13
 1610 01ff 90       		nop
 1611              	.L91:
 1612              	.LBE7:
 645:/home/xingli/share/LiteOS_Lab/secure_c/src/input.inl **** 
 646:/home/xingli/share/LiteOS_Lab/secure_c/src/input.inl **** }
 1613              		.loc 1 646 1
 1614 0200 488B45F8 		movq	-8(%rbp), %rax
 1615 0204 64483304 		xorq	%fs:40, %rax
 1615      25280000 
 1615      00
 1616 020d 7405     		je	.L109
 1617 020f E8000000 		call	__stack_chk_fail@PLT
 1617      00
 1618              	.L109:
 1619 0214 C9       		leave
 1620              	.LCFI41:
 1621              		.cfi_def_cfa 7, 8
 1622 0215 C3       		ret
 1623              		.cfi_endproc
 1624              	.LFE19:
 1626              		.section	.text.SecAssignNumber,"ax",@progbits
 1628              	SecAssignNumber:
 1629              	.LFB20:
 647:/home/xingli/share/LiteOS_Lab/secure_c/src/input.inl **** 
 648:/home/xingli/share/LiteOS_Lab/secure_c/src/input.inl **** /*
 649:/home/xingli/share/LiteOS_Lab/secure_c/src/input.inl ****  *  Assign number  to output buffer
 650:/home/xingli/share/LiteOS_Lab/secure_c/src/input.inl ****  */
 651:/home/xingli/share/LiteOS_Lab/secure_c/src/input.inl **** static void SecAssignNumber(const SecScanSpec *spec)
GAS LISTING /tmp/cc1ytava.s 			page 45


 652:/home/xingli/share/LiteOS_Lab/secure_c/src/input.inl **** {
 1630              		.loc 1 652 1
 1631              		.cfi_startproc
 1632 0000 F30F1EFA 		endbr64
 1633 0004 55       		pushq	%rbp
 1634              	.LCFI42:
 1635              		.cfi_def_cfa_offset 16
 1636              		.cfi_offset 6, -16
 1637 0005 4889E5   		movq	%rsp, %rbp
 1638              	.LCFI43:
 1639              		.cfi_def_cfa_register 6
 1640 0008 4883EC20 		subq	$32, %rsp
 1641 000c 48897DE8 		movq	%rdi, -24(%rbp)
 1642              		.loc 1 652 1
 1643 0010 64488B04 		movq	%fs:40, %rax
 1643      25280000 
 1643      00
 1644 0019 488945F8 		movq	%rax, -8(%rbp)
 1645 001d 31C0     		xorl	%eax, %eax
 653:/home/xingli/share/LiteOS_Lab/secure_c/src/input.inl ****     void *argPtr = spec->argPtr;
 1646              		.loc 1 653 11
 1647 001f 488B45E8 		movq	-24(%rbp), %rax
 1648 0023 488B4020 		movq	32(%rax), %rax
 1649 0027 488945F0 		movq	%rax, -16(%rbp)
 654:/home/xingli/share/LiteOS_Lab/secure_c/src/input.inl ****     if (spec->isInt64Arg != 0) {
 1650              		.loc 1 654 13
 1651 002b 488B45E8 		movq	-24(%rbp), %rax
 1652 002f 8B4014   		movl	20(%rax), %eax
 1653              		.loc 1 654 8
 1654 0032 85C0     		testl	%eax, %eax
 1655 0034 7413     		je	.L117
 655:/home/xingli/share/LiteOS_Lab/secure_c/src/input.inl **** #if defined(SECUREC_VXWORKS_PLATFORM)
 656:/home/xingli/share/LiteOS_Lab/secure_c/src/input.inl **** #if defined(SECUREC_VXWORKS_PLATFORM_COMP)
 657:/home/xingli/share/LiteOS_Lab/secure_c/src/input.inl ****         *(SecInt64 UNALIGNED *)argPtr = (SecInt64)(spec->number64);
 658:/home/xingli/share/LiteOS_Lab/secure_c/src/input.inl **** #else
 659:/home/xingli/share/LiteOS_Lab/secure_c/src/input.inl ****          /* take number64 as unsigned number unsigned to int clear Compile warning */
 660:/home/xingli/share/LiteOS_Lab/secure_c/src/input.inl ****         *(SecInt64 UNALIGNED *)argPtr = *(SecUnsignedInt64 *)(&(spec->number64));
 661:/home/xingli/share/LiteOS_Lab/secure_c/src/input.inl **** #endif
 662:/home/xingli/share/LiteOS_Lab/secure_c/src/input.inl **** #else
 663:/home/xingli/share/LiteOS_Lab/secure_c/src/input.inl ****         /* take number64 as unsigned number */
 664:/home/xingli/share/LiteOS_Lab/secure_c/src/input.inl ****         *(SecInt64 UNALIGNED *)argPtr = (SecInt64)(spec->number64);
 1656              		.loc 1 664 56
 1657 0036 488B45E8 		movq	-24(%rbp), %rax
 1658 003a 488B00   		movq	(%rax), %rax
 1659              		.loc 1 664 41
 1660 003d 4889C2   		movq	%rax, %rdx
 1661              		.loc 1 664 39
 1662 0040 488B45F0 		movq	-16(%rbp), %rax
 1663 0044 488910   		movq	%rdx, (%rax)
 665:/home/xingli/share/LiteOS_Lab/secure_c/src/input.inl **** #endif
 666:/home/xingli/share/LiteOS_Lab/secure_c/src/input.inl ****         return;
 1664              		.loc 1 666 9
 1665 0047 EB6C     		jmp	.L116
 1666              	.L117:
 667:/home/xingli/share/LiteOS_Lab/secure_c/src/input.inl ****     }
 668:/home/xingli/share/LiteOS_Lab/secure_c/src/input.inl ****     if (spec->numberWidth > SECUREC_NUM_WIDTH_INT) {
 1667              		.loc 1 668 13
GAS LISTING /tmp/cc1ytava.s 			page 46


 1668 0049 488B45E8 		movq	-24(%rbp), %rax
 1669 004d 8B4010   		movl	16(%rax), %eax
 1670              		.loc 1 668 8
 1671 0050 83F801   		cmpl	$1, %eax
 1672 0053 7E14     		jle	.L119
 669:/home/xingli/share/LiteOS_Lab/secure_c/src/input.inl ****         /* take number as unsigned number */
 670:/home/xingli/share/LiteOS_Lab/secure_c/src/input.inl ****         *(long UNALIGNED *)argPtr = (long)(spec->number);
 1673              		.loc 1 670 48
 1674 0055 488B45E8 		movq	-24(%rbp), %rax
 1675 0059 488B4008 		movq	8(%rax), %rax
 1676              		.loc 1 670 37
 1677 005d 4889C2   		movq	%rax, %rdx
 1678              		.loc 1 670 35
 1679 0060 488B45F0 		movq	-16(%rbp), %rax
 1680 0064 488910   		movq	%rdx, (%rax)
 1681 0067 EB4C     		jmp	.L116
 1682              	.L119:
 671:/home/xingli/share/LiteOS_Lab/secure_c/src/input.inl ****     } else if (spec->numberWidth == SECUREC_NUM_WIDTH_INT) {
 1683              		.loc 1 671 20
 1684 0069 488B45E8 		movq	-24(%rbp), %rax
 1685 006d 8B4010   		movl	16(%rax), %eax
 1686              		.loc 1 671 15
 1687 0070 83F801   		cmpl	$1, %eax
 1688 0073 7512     		jne	.L120
 672:/home/xingli/share/LiteOS_Lab/secure_c/src/input.inl ****         *(int UNALIGNED *)argPtr = (int)(spec->number);
 1689              		.loc 1 672 46
 1690 0075 488B45E8 		movq	-24(%rbp), %rax
 1691 0079 488B4008 		movq	8(%rax), %rax
 1692              		.loc 1 672 36
 1693 007d 89C2     		movl	%eax, %edx
 1694              		.loc 1 672 34
 1695 007f 488B45F0 		movq	-16(%rbp), %rax
 1696 0083 8910     		movl	%edx, (%rax)
 1697 0085 EB2E     		jmp	.L116
 1698              	.L120:
 673:/home/xingli/share/LiteOS_Lab/secure_c/src/input.inl ****     } else if (spec->numberWidth == SECUREC_NUM_WIDTH_SHORT) {
 1699              		.loc 1 673 20
 1700 0087 488B45E8 		movq	-24(%rbp), %rax
 1701 008b 8B4010   		movl	16(%rax), %eax
 1702              		.loc 1 673 15
 1703 008e 85C0     		testl	%eax, %eax
 1704 0090 7513     		jne	.L121
 674:/home/xingli/share/LiteOS_Lab/secure_c/src/input.inl ****         /* take number as unsigned number */
 675:/home/xingli/share/LiteOS_Lab/secure_c/src/input.inl ****         *(short UNALIGNED *)argPtr = (short)(spec->number);
 1705              		.loc 1 675 50
 1706 0092 488B45E8 		movq	-24(%rbp), %rax
 1707 0096 488B4008 		movq	8(%rax), %rax
 1708              		.loc 1 675 38
 1709 009a 89C2     		movl	%eax, %edx
 1710              		.loc 1 675 36
 1711 009c 488B45F0 		movq	-16(%rbp), %rax
 1712 00a0 668910   		movw	%dx, (%rax)
 1713 00a3 EB10     		jmp	.L116
 1714              	.L121:
 676:/home/xingli/share/LiteOS_Lab/secure_c/src/input.inl ****     } else {  /* < 0 for hh format modifier */
 677:/home/xingli/share/LiteOS_Lab/secure_c/src/input.inl ****         /* take number as unsigned number */
 678:/home/xingli/share/LiteOS_Lab/secure_c/src/input.inl ****         *(char UNALIGNED *)argPtr = (char)(spec->number);
GAS LISTING /tmp/cc1ytava.s 			page 47


 1715              		.loc 1 678 48
 1716 00a5 488B45E8 		movq	-24(%rbp), %rax
 1717 00a9 488B4008 		movq	8(%rax), %rax
 1718              		.loc 1 678 37
 1719 00ad 89C2     		movl	%eax, %edx
 1720              		.loc 1 678 35
 1721 00af 488B45F0 		movq	-16(%rbp), %rax
 1722 00b3 8810     		movb	%dl, (%rax)
 1723              	.L116:
 679:/home/xingli/share/LiteOS_Lab/secure_c/src/input.inl ****     }
 680:/home/xingli/share/LiteOS_Lab/secure_c/src/input.inl **** }
 1724              		.loc 1 680 1
 1725 00b5 488B45F8 		movq	-8(%rbp), %rax
 1726 00b9 64483304 		xorq	%fs:40, %rax
 1726      25280000 
 1726      00
 1727 00c2 7405     		je	.L122
 1728 00c4 E8000000 		call	__stack_chk_fail@PLT
 1728      00
 1729              	.L122:
 1730 00c9 C9       		leave
 1731              	.LCFI44:
 1732              		.cfi_def_cfa 7, 8
 1733 00ca C3       		ret
 1734              		.cfi_endproc
 1735              	.LFE20:
 1737              		.section	.text.SecIsLongBitEqual,"ax",@progbits
 1739              	SecIsLongBitEqual:
 1740              	.LFB21:
 681:/home/xingli/share/LiteOS_Lab/secure_c/src/input.inl **** 
 682:/home/xingli/share/LiteOS_Lab/secure_c/src/input.inl **** #if (defined(SECUREC_COMPATIBLE_LINUX_FORMAT) && !(defined(SECUREC_ON_UNIX)))
 683:/home/xingli/share/LiteOS_Lab/secure_c/src/input.inl **** /*
 684:/home/xingli/share/LiteOS_Lab/secure_c/src/input.inl ****  *  Judge the long bit width
 685:/home/xingli/share/LiteOS_Lab/secure_c/src/input.inl ****  */
 686:/home/xingli/share/LiteOS_Lab/secure_c/src/input.inl **** static int SecIsLongBitEqual(int bitNum)
 687:/home/xingli/share/LiteOS_Lab/secure_c/src/input.inl **** {
 1741              		.loc 1 687 1
 1742              		.cfi_startproc
 1743 0000 F30F1EFA 		endbr64
 1744 0004 55       		pushq	%rbp
 1745              	.LCFI45:
 1746              		.cfi_def_cfa_offset 16
 1747              		.cfi_offset 6, -16
 1748 0005 4889E5   		movq	%rsp, %rbp
 1749              	.LCFI46:
 1750              		.cfi_def_cfa_register 6
 1751 0008 4883EC20 		subq	$32, %rsp
 1752 000c 897DEC   		movl	%edi, -20(%rbp)
 1753              		.loc 1 687 1
 1754 000f 64488B04 		movq	%fs:40, %rax
 1754      25280000 
 1754      00
 1755 0018 488945F8 		movq	%rax, -8(%rbp)
 1756 001c 31C0     		xorl	%eax, %eax
 688:/home/xingli/share/LiteOS_Lab/secure_c/src/input.inl ****     return (unsigned int)bitNum == SECUREC_LONG_BIT_NUM;
 1757              		.loc 1 688 33
 1758 001e 837DEC40 		cmpl	$64, -20(%rbp)
GAS LISTING /tmp/cc1ytava.s 			page 48


 1759 0022 0F94C0   		sete	%al
 1760 0025 0FB6C0   		movzbl	%al, %eax
 689:/home/xingli/share/LiteOS_Lab/secure_c/src/input.inl **** }
 1761              		.loc 1 689 1
 1762 0028 488B55F8 		movq	-8(%rbp), %rdx
 1763 002c 64483314 		xorq	%fs:40, %rdx
 1763      25280000 
 1763      00
 1764 0035 7405     		je	.L125
 1765 0037 E8000000 		call	__stack_chk_fail@PLT
 1765      00
 1766              	.L125:
 1767 003c C9       		leave
 1768              	.LCFI47:
 1769              		.cfi_def_cfa 7, 8
 1770 003d C3       		ret
 1771              		.cfi_endproc
 1772              	.LFE21:
 1774              		.section	.text.SecHexValueOfChar,"ax",@progbits
 1776              	SecHexValueOfChar:
 1777              	.LFB22:
 690:/home/xingli/share/LiteOS_Lab/secure_c/src/input.inl **** #endif
 691:/home/xingli/share/LiteOS_Lab/secure_c/src/input.inl **** /*
 692:/home/xingli/share/LiteOS_Lab/secure_c/src/input.inl ****  * Convert hexadecimal characters to decimal value
 693:/home/xingli/share/LiteOS_Lab/secure_c/src/input.inl ****  */
 694:/home/xingli/share/LiteOS_Lab/secure_c/src/input.inl **** static int SecHexValueOfChar(SecInt ch)
 695:/home/xingli/share/LiteOS_Lab/secure_c/src/input.inl **** {
 1778              		.loc 1 695 1
 1779              		.cfi_startproc
 1780 0000 F30F1EFA 		endbr64
 1781 0004 55       		pushq	%rbp
 1782              	.LCFI48:
 1783              		.cfi_def_cfa_offset 16
 1784              		.cfi_offset 6, -16
 1785 0005 4889E5   		movq	%rsp, %rbp
 1786              	.LCFI49:
 1787              		.cfi_def_cfa_register 6
 1788 0008 4883EC20 		subq	$32, %rsp
 1789 000c 897DEC   		movl	%edi, -20(%rbp)
 1790              		.loc 1 695 1
 1791 000f 64488B04 		movq	%fs:40, %rax
 1791      25280000 
 1791      00
 1792 0018 488945F8 		movq	%rax, -8(%rbp)
 1793 001c 31C0     		xorl	%eax, %eax
 696:/home/xingli/share/LiteOS_Lab/secure_c/src/input.inl ****     /* use isdigt Causing tool false alarms */
 697:/home/xingli/share/LiteOS_Lab/secure_c/src/input.inl ****     return (int)((ch >= '0' && ch <= '9') ? ((unsigned char)ch - '0') :
 1794              		.loc 1 697 12
 1795 001e 837DEC2F 		cmpl	$47, -20(%rbp)
 1796 0022 7611     		jbe	.L127
 1797              		.loc 1 697 29 discriminator 1
 1798 0024 837DEC39 		cmpl	$57, -20(%rbp)
 1799 0028 770B     		ja	.L127
 1800              		.loc 1 697 46 discriminator 3
 1801 002a 8B45EC   		movl	-20(%rbp), %eax
 1802 002d 0FB6C0   		movzbl	%al, %eax
 1803              		.loc 1 697 12 discriminator 3
GAS LISTING /tmp/cc1ytava.s 			page 49


 1804 0030 83E830   		subl	$48, %eax
 1805 0033 EB0C     		jmp	.L129
 1806              	.L127:
 698:/home/xingli/share/LiteOS_Lab/secure_c/src/input.inl ****             ((((unsigned char)ch | (unsigned char)('a' - 'A')) - ('a')) + 10)); /* Adding 10 is to 
 1807              		.loc 1 698 16 discriminator 4
 1808 0035 8B45EC   		movl	-20(%rbp), %eax
 1809              		.loc 1 698 34 discriminator 4
 1810 0038 83C820   		orl	$32, %eax
 1811 003b 0FB6C0   		movzbl	%al, %eax
 697:/home/xingli/share/LiteOS_Lab/secure_c/src/input.inl ****             ((((unsigned char)ch | (unsigned char)('a' - 'A')) - ('a')) + 10)); /* Adding 10 is to 
 1812              		.loc 1 697 12 discriminator 4
 1813 003e 83E857   		subl	$87, %eax
 1814              	.L129:
 699:/home/xingli/share/LiteOS_Lab/secure_c/src/input.inl **** }
 1815              		.loc 1 699 1 discriminator 7
 1816 0041 488B55F8 		movq	-8(%rbp), %rdx
 1817 0045 64483314 		xorq	%fs:40, %rdx
 1817      25280000 
 1817      00
 1818 004e 7405     		je	.L130
 1819              		.loc 1 699 1 is_stmt 0
 1820 0050 E8000000 		call	__stack_chk_fail@PLT
 1820      00
 1821              	.L130:
 1822 0055 C9       		leave
 1823              	.LCFI50:
 1824              		.cfi_def_cfa 7, 8
 1825 0056 C3       		ret
 1826              		.cfi_endproc
 1827              	.LFE22:
 1829              		.section	.text.SecDecodeNumberDecimal,"ax",@progbits
 1831              	SecDecodeNumberDecimal:
 1832              	.LFB23:
 700:/home/xingli/share/LiteOS_Lab/secure_c/src/input.inl **** 
 701:/home/xingli/share/LiteOS_Lab/secure_c/src/input.inl **** 
 702:/home/xingli/share/LiteOS_Lab/secure_c/src/input.inl **** 
 703:/home/xingli/share/LiteOS_Lab/secure_c/src/input.inl **** /*
 704:/home/xingli/share/LiteOS_Lab/secure_c/src/input.inl ****  * Parse decimal character to integer for 32bit .
 705:/home/xingli/share/LiteOS_Lab/secure_c/src/input.inl ****  */
 706:/home/xingli/share/LiteOS_Lab/secure_c/src/input.inl **** static void SecDecodeNumberDecimal(SecInt ch, SecScanSpec *spec)
 707:/home/xingli/share/LiteOS_Lab/secure_c/src/input.inl **** {
 1833              		.loc 1 707 1 is_stmt 1
 1834              		.cfi_startproc
 1835 0000 F30F1EFA 		endbr64
 1836 0004 55       		pushq	%rbp
 1837              	.LCFI51:
 1838              		.cfi_def_cfa_offset 16
 1839              		.cfi_offset 6, -16
 1840 0005 4889E5   		movq	%rsp, %rbp
 1841              	.LCFI52:
 1842              		.cfi_def_cfa_register 6
 1843 0008 4883EC30 		subq	$48, %rsp
 1844 000c 897DDC   		movl	%edi, -36(%rbp)
 1845 000f 488975D0 		movq	%rsi, -48(%rbp)
 1846              		.loc 1 707 1
 1847 0013 64488B04 		movq	%fs:40, %rax
 1847      25280000 
GAS LISTING /tmp/cc1ytava.s 			page 50


 1847      00
 1848 001c 488945F8 		movq	%rax, -8(%rbp)
 1849 0020 31C0     		xorl	%eax, %eax
 708:/home/xingli/share/LiteOS_Lab/secure_c/src/input.inl **** #if (defined(SECUREC_COMPATIBLE_LINUX_FORMAT) && !(defined(SECUREC_ON_UNIX)))
 709:/home/xingli/share/LiteOS_Lab/secure_c/src/input.inl ****     unsigned long decimalEdge = SECUREC_MAX_32BITS_VALUE_DIV_TEN;
 1850              		.loc 1 709 19
 1851 0022 48C745E8 		movq	$429496729, -24(%rbp)
 1851      99999919 
 710:/home/xingli/share/LiteOS_Lab/secure_c/src/input.inl **** #ifdef SECUREC_ON_64BITS
 711:/home/xingli/share/LiteOS_Lab/secure_c/src/input.inl ****     if (SecIsLongBitEqual(SECUREC_LP64_BIT_WIDTH)) {
 1852              		.loc 1 711 9
 1853 002a BF400000 		movl	$64, %edi
 1853      00
 1854 002f E8000000 		call	SecIsLongBitEqual
 1854      00
 1855              		.loc 1 711 8
 1856 0034 85C0     		testl	%eax, %eax
 1857 0036 740E     		je	.L132
 712:/home/xingli/share/LiteOS_Lab/secure_c/src/input.inl ****         decimalEdge = (unsigned long)SECUREC_MAX_64BITS_VALUE_DIV_TEN;
 1858              		.loc 1 712 21
 1859 0038 48B89999 		movabsq	$1844674407370955161, %rax
 1859      99999999 
 1859      9919
 1860 0042 488945E8 		movq	%rax, -24(%rbp)
 1861              	.L132:
 713:/home/xingli/share/LiteOS_Lab/secure_c/src/input.inl ****     }
 714:/home/xingli/share/LiteOS_Lab/secure_c/src/input.inl **** #else
 715:/home/xingli/share/LiteOS_Lab/secure_c/src/input.inl ****     if (SecIsLongBitEqual(SECUREC_LP32_BIT_WIDTH)) {
 716:/home/xingli/share/LiteOS_Lab/secure_c/src/input.inl ****         decimalEdge = SECUREC_MAX_32BITS_VALUE_DIV_TEN;
 717:/home/xingli/share/LiteOS_Lab/secure_c/src/input.inl ****     }
 718:/home/xingli/share/LiteOS_Lab/secure_c/src/input.inl **** #endif
 719:/home/xingli/share/LiteOS_Lab/secure_c/src/input.inl ****     if (spec->number > decimalEdge) {
 1862              		.loc 1 719 13
 1863 0046 488B45D0 		movq	-48(%rbp), %rax
 1864 004a 488B4008 		movq	8(%rax), %rax
 1865              		.loc 1 719 8
 1866 004e 483945E8 		cmpq	%rax, -24(%rbp)
 1867 0052 730B     		jnb	.L133
 720:/home/xingli/share/LiteOS_Lab/secure_c/src/input.inl ****         spec->beyondMax = 1;
 1868              		.loc 1 720 25
 1869 0054 488B45D0 		movq	-48(%rbp), %rax
 1870 0058 C7401C01 		movl	$1, 28(%rax)
 1870      000000
 1871              	.L133:
 721:/home/xingli/share/LiteOS_Lab/secure_c/src/input.inl ****     }
 722:/home/xingli/share/LiteOS_Lab/secure_c/src/input.inl **** #endif
 723:/home/xingli/share/LiteOS_Lab/secure_c/src/input.inl ****     spec->number = SECUREC_MUL_TEN(spec->number);
 1872              		.loc 1 723 20
 1873 005f 488B45D0 		movq	-48(%rbp), %rax
 1874 0063 488B4008 		movq	8(%rax), %rax
 1875 0067 488D1485 		leaq	0(,%rax,4), %rdx
 1875      00000000 
 1876 006f 488B45D0 		movq	-48(%rbp), %rax
 1877 0073 488B4008 		movq	8(%rax), %rax
 1878 0077 4801D0   		addq	%rdx, %rax
 1879 007a 488D1400 		leaq	(%rax,%rax), %rdx
 1880              		.loc 1 723 18
GAS LISTING /tmp/cc1ytava.s 			page 51


 1881 007e 488B45D0 		movq	-48(%rbp), %rax
 1882 0082 48895008 		movq	%rdx, 8(%rax)
 724:/home/xingli/share/LiteOS_Lab/secure_c/src/input.inl **** #if (defined(SECUREC_COMPATIBLE_LINUX_FORMAT) && !(defined(SECUREC_ON_UNIX)))
 725:/home/xingli/share/LiteOS_Lab/secure_c/src/input.inl ****     if (spec->number == SECUREC_MUL_TEN(decimalEdge)) {
 1883              		.loc 1 725 13
 1884 0086 488B45D0 		movq	-48(%rbp), %rax
 1885 008a 488B4008 		movq	8(%rax), %rax
 1886              		.loc 1 725 25
 1887 008e 488B55E8 		movq	-24(%rbp), %rdx
 1888 0092 488D0C95 		leaq	0(,%rdx,4), %rcx
 1888      00000000 
 1889 009a 488B55E8 		movq	-24(%rbp), %rdx
 1890 009e 4801CA   		addq	%rcx, %rdx
 1891 00a1 4801D2   		addq	%rdx, %rdx
 1892              		.loc 1 725 8
 1893 00a4 4839D0   		cmpq	%rdx, %rax
 1894 00a7 7528     		jne	.L134
 1895              	.LBB8:
 726:/home/xingli/share/LiteOS_Lab/secure_c/src/input.inl ****         SecUnsignedInt64 number64As = (unsigned long)SECUREC_MAX_64BITS_VALUE - spec->number;
 1896              		.loc 1 726 85
 1897 00a9 488B45D0 		movq	-48(%rbp), %rax
 1898 00ad 488B4008 		movq	8(%rax), %rax
 1899              		.loc 1 726 26
 1900 00b1 48F7D0   		notq	%rax
 1901 00b4 488945F0 		movq	%rax, -16(%rbp)
 727:/home/xingli/share/LiteOS_Lab/secure_c/src/input.inl ****         if (number64As < (SecUnsignedInt64)((SecUnsignedInt)ch - SECUREC_CHAR('0'))) {
 1902              		.loc 1 727 64
 1903 00b8 8B45DC   		movl	-36(%rbp), %eax
 1904 00bb 83E830   		subl	$48, %eax
 1905              		.loc 1 727 26
 1906 00be 89C0     		movl	%eax, %eax
 1907              		.loc 1 727 12
 1908 00c0 483945F0 		cmpq	%rax, -16(%rbp)
 1909 00c4 730B     		jnb	.L134
 728:/home/xingli/share/LiteOS_Lab/secure_c/src/input.inl ****             spec->beyondMax = 1;
 1910              		.loc 1 728 29
 1911 00c6 488B45D0 		movq	-48(%rbp), %rax
 1912 00ca C7401C01 		movl	$1, 28(%rax)
 1912      000000
 1913              	.L134:
 1914              	.LBE8:
 729:/home/xingli/share/LiteOS_Lab/secure_c/src/input.inl ****         }
 730:/home/xingli/share/LiteOS_Lab/secure_c/src/input.inl ****     }
 731:/home/xingli/share/LiteOS_Lab/secure_c/src/input.inl **** #endif
 732:/home/xingli/share/LiteOS_Lab/secure_c/src/input.inl ****     spec->number += (unsigned long)((SecUnsignedInt)ch - SECUREC_CHAR('0'));
 1915              		.loc 1 732 18
 1916 00d1 488B45D0 		movq	-48(%rbp), %rax
 1917 00d5 488B4008 		movq	8(%rax), %rax
 1918              		.loc 1 732 56
 1919 00d9 8B55DC   		movl	-36(%rbp), %edx
 1920 00dc 83EA30   		subl	$48, %edx
 1921              		.loc 1 732 21
 1922 00df 89D2     		movl	%edx, %edx
 1923              		.loc 1 732 18
 1924 00e1 4801C2   		addq	%rax, %rdx
 1925 00e4 488B45D0 		movq	-48(%rbp), %rax
 1926 00e8 48895008 		movq	%rdx, 8(%rax)
GAS LISTING /tmp/cc1ytava.s 			page 52


 733:/home/xingli/share/LiteOS_Lab/secure_c/src/input.inl **** 
 734:/home/xingli/share/LiteOS_Lab/secure_c/src/input.inl **** }
 1927              		.loc 1 734 1
 1928 00ec 90       		nop
 1929 00ed 488B45F8 		movq	-8(%rbp), %rax
 1930 00f1 64483304 		xorq	%fs:40, %rax
 1930      25280000 
 1930      00
 1931 00fa 7405     		je	.L135
 1932 00fc E8000000 		call	__stack_chk_fail@PLT
 1932      00
 1933              	.L135:
 1934 0101 C9       		leave
 1935              	.LCFI53:
 1936              		.cfi_def_cfa 7, 8
 1937 0102 C3       		ret
 1938              		.cfi_endproc
 1939              	.LFE23:
 1941              		.section	.text.SecDecodeNumberHex,"ax",@progbits
 1943              	SecDecodeNumberHex:
 1944              	.LFB24:
 735:/home/xingli/share/LiteOS_Lab/secure_c/src/input.inl **** 
 736:/home/xingli/share/LiteOS_Lab/secure_c/src/input.inl **** 
 737:/home/xingli/share/LiteOS_Lab/secure_c/src/input.inl **** /*
 738:/home/xingli/share/LiteOS_Lab/secure_c/src/input.inl ****  * Parse Hex character to integer for 32bit .
 739:/home/xingli/share/LiteOS_Lab/secure_c/src/input.inl ****  */
 740:/home/xingli/share/LiteOS_Lab/secure_c/src/input.inl **** static void SecDecodeNumberHex(SecInt ch, SecScanSpec *spec)
 741:/home/xingli/share/LiteOS_Lab/secure_c/src/input.inl **** {
 1945              		.loc 1 741 1
 1946              		.cfi_startproc
 1947 0000 F30F1EFA 		endbr64
 1948 0004 55       		pushq	%rbp
 1949              	.LCFI54:
 1950              		.cfi_def_cfa_offset 16
 1951              		.cfi_offset 6, -16
 1952 0005 4889E5   		movq	%rsp, %rbp
 1953              	.LCFI55:
 1954              		.cfi_def_cfa_register 6
 1955 0008 4883EC20 		subq	$32, %rsp
 1956 000c 897DEC   		movl	%edi, -20(%rbp)
 1957 000f 488975E0 		movq	%rsi, -32(%rbp)
 1958              		.loc 1 741 1
 1959 0013 64488B04 		movq	%fs:40, %rax
 1959      25280000 
 1959      00
 1960 001c 488945F8 		movq	%rax, -8(%rbp)
 1961 0020 31C0     		xorl	%eax, %eax
 742:/home/xingli/share/LiteOS_Lab/secure_c/src/input.inl **** #if (defined(SECUREC_COMPATIBLE_LINUX_FORMAT) && !(defined(SECUREC_ON_UNIX)))
 743:/home/xingli/share/LiteOS_Lab/secure_c/src/input.inl ****     if (SECUREC_LONG_HEX_BEYOND_MAX(spec->number)) {
 1962              		.loc 1 743 9
 1963 0022 488B45E0 		movq	-32(%rbp), %rax
 1964 0026 488B4008 		movq	8(%rax), %rax
 1965 002a 48C1E83C 		shrq	$60, %rax
 1966              		.loc 1 743 8
 1967 002e 4885C0   		testq	%rax, %rax
 1968 0031 740B     		je	.L137
 744:/home/xingli/share/LiteOS_Lab/secure_c/src/input.inl ****         spec->beyondMax = 1;
GAS LISTING /tmp/cc1ytava.s 			page 53


 1969              		.loc 1 744 25
 1970 0033 488B45E0 		movq	-32(%rbp), %rax
 1971 0037 C7401C01 		movl	$1, 28(%rax)
 1971      000000
 1972              	.L137:
 745:/home/xingli/share/LiteOS_Lab/secure_c/src/input.inl ****     }
 746:/home/xingli/share/LiteOS_Lab/secure_c/src/input.inl **** #endif
 747:/home/xingli/share/LiteOS_Lab/secure_c/src/input.inl ****     spec->number = SECUREC_MUL_SIXTEEN(spec->number);
 1973              		.loc 1 747 20
 1974 003e 488B45E0 		movq	-32(%rbp), %rax
 1975 0042 488B4008 		movq	8(%rax), %rax
 1976 0046 48C1E004 		salq	$4, %rax
 1977 004a 4889C2   		movq	%rax, %rdx
 1978              		.loc 1 747 18
 1979 004d 488B45E0 		movq	-32(%rbp), %rax
 1980 0051 48895008 		movq	%rdx, 8(%rax)
 748:/home/xingli/share/LiteOS_Lab/secure_c/src/input.inl ****     spec->number += (unsigned long)(unsigned int)SecHexValueOfChar(ch);
 1981              		.loc 1 748 50
 1982 0055 8B45EC   		movl	-20(%rbp), %eax
 1983 0058 89C7     		movl	%eax, %edi
 1984 005a E8000000 		call	SecHexValueOfChar
 1984      00
 1985              		.loc 1 748 21
 1986 005f 89C2     		movl	%eax, %edx
 1987              		.loc 1 748 18
 1988 0061 488B45E0 		movq	-32(%rbp), %rax
 1989 0065 488B4008 		movq	8(%rax), %rax
 1990 0069 4801C2   		addq	%rax, %rdx
 1991 006c 488B45E0 		movq	-32(%rbp), %rax
 1992 0070 48895008 		movq	%rdx, 8(%rax)
 749:/home/xingli/share/LiteOS_Lab/secure_c/src/input.inl **** }
 1993              		.loc 1 749 1
 1994 0074 90       		nop
 1995 0075 488B45F8 		movq	-8(%rbp), %rax
 1996 0079 64483304 		xorq	%fs:40, %rax
 1996      25280000 
 1996      00
 1997 0082 7405     		je	.L138
 1998 0084 E8000000 		call	__stack_chk_fail@PLT
 1998      00
 1999              	.L138:
 2000 0089 C9       		leave
 2001              	.LCFI56:
 2002              		.cfi_def_cfa 7, 8
 2003 008a C3       		ret
 2004              		.cfi_endproc
 2005              	.LFE24:
 2007              		.section	.text.SecDecodeNumberOctal,"ax",@progbits
 2009              	SecDecodeNumberOctal:
 2010              	.LFB25:
 750:/home/xingli/share/LiteOS_Lab/secure_c/src/input.inl **** 
 751:/home/xingli/share/LiteOS_Lab/secure_c/src/input.inl **** 
 752:/home/xingli/share/LiteOS_Lab/secure_c/src/input.inl **** /*
 753:/home/xingli/share/LiteOS_Lab/secure_c/src/input.inl ****  * Parse Octal character to integer for 32bit .
 754:/home/xingli/share/LiteOS_Lab/secure_c/src/input.inl ****  */
 755:/home/xingli/share/LiteOS_Lab/secure_c/src/input.inl **** static void SecDecodeNumberOctal(SecInt ch, SecScanSpec *spec)
 756:/home/xingli/share/LiteOS_Lab/secure_c/src/input.inl **** {
GAS LISTING /tmp/cc1ytava.s 			page 54


 2011              		.loc 1 756 1
 2012              		.cfi_startproc
 2013 0000 F30F1EFA 		endbr64
 2014 0004 55       		pushq	%rbp
 2015              	.LCFI57:
 2016              		.cfi_def_cfa_offset 16
 2017              		.cfi_offset 6, -16
 2018 0005 4889E5   		movq	%rsp, %rbp
 2019              	.LCFI58:
 2020              		.cfi_def_cfa_register 6
 2021 0008 4883EC20 		subq	$32, %rsp
 2022 000c 897DEC   		movl	%edi, -20(%rbp)
 2023 000f 488975E0 		movq	%rsi, -32(%rbp)
 2024              		.loc 1 756 1
 2025 0013 64488B04 		movq	%fs:40, %rax
 2025      25280000 
 2025      00
 2026 001c 488945F8 		movq	%rax, -8(%rbp)
 2027 0020 31C0     		xorl	%eax, %eax
 757:/home/xingli/share/LiteOS_Lab/secure_c/src/input.inl **** #if (defined(SECUREC_COMPATIBLE_LINUX_FORMAT) && !(defined(SECUREC_ON_UNIX)))
 758:/home/xingli/share/LiteOS_Lab/secure_c/src/input.inl ****     if (SECUREC_LONG_OCTAL_BEYOND_MAX(spec->number)) {
 2028              		.loc 1 758 9
 2029 0022 488B45E0 		movq	-32(%rbp), %rax
 2030 0026 488B4008 		movq	8(%rax), %rax
 2031 002a 48C1E83D 		shrq	$61, %rax
 2032              		.loc 1 758 8
 2033 002e 4885C0   		testq	%rax, %rax
 2034 0031 740B     		je	.L140
 759:/home/xingli/share/LiteOS_Lab/secure_c/src/input.inl ****         spec->beyondMax = 1;
 2035              		.loc 1 759 25
 2036 0033 488B45E0 		movq	-32(%rbp), %rax
 2037 0037 C7401C01 		movl	$1, 28(%rax)
 2037      000000
 2038              	.L140:
 760:/home/xingli/share/LiteOS_Lab/secure_c/src/input.inl ****     }
 761:/home/xingli/share/LiteOS_Lab/secure_c/src/input.inl **** #endif
 762:/home/xingli/share/LiteOS_Lab/secure_c/src/input.inl ****     spec->number = SECUREC_MUL_EIGHT(spec->number);
 2039              		.loc 1 762 20
 2040 003e 488B45E0 		movq	-32(%rbp), %rax
 2041 0042 488B4008 		movq	8(%rax), %rax
 2042 0046 488D14C5 		leaq	0(,%rax,8), %rdx
 2042      00000000 
 2043              		.loc 1 762 18
 2044 004e 488B45E0 		movq	-32(%rbp), %rax
 2045 0052 48895008 		movq	%rdx, 8(%rax)
 763:/home/xingli/share/LiteOS_Lab/secure_c/src/input.inl ****     spec->number += (unsigned long)((SecUnsignedInt)ch - SECUREC_CHAR('0'));
 2046              		.loc 1 763 18
 2047 0056 488B45E0 		movq	-32(%rbp), %rax
 2048 005a 488B4008 		movq	8(%rax), %rax
 2049              		.loc 1 763 56
 2050 005e 8B55EC   		movl	-20(%rbp), %edx
 2051 0061 83EA30   		subl	$48, %edx
 2052              		.loc 1 763 21
 2053 0064 89D2     		movl	%edx, %edx
 2054              		.loc 1 763 18
 2055 0066 4801C2   		addq	%rax, %rdx
 2056 0069 488B45E0 		movq	-32(%rbp), %rax
GAS LISTING /tmp/cc1ytava.s 			page 55


 2057 006d 48895008 		movq	%rdx, 8(%rax)
 764:/home/xingli/share/LiteOS_Lab/secure_c/src/input.inl **** }
 2058              		.loc 1 764 1
 2059 0071 90       		nop
 2060 0072 488B45F8 		movq	-8(%rbp), %rax
 2061 0076 64483304 		xorq	%fs:40, %rax
 2061      25280000 
 2061      00
 2062 007f 7405     		je	.L141
 2063 0081 E8000000 		call	__stack_chk_fail@PLT
 2063      00
 2064              	.L141:
 2065 0086 C9       		leave
 2066              	.LCFI59:
 2067              		.cfi_def_cfa 7, 8
 2068 0087 C3       		ret
 2069              		.cfi_endproc
 2070              	.LFE25:
 2072              		.section	.text.SecFinishNumberNegativeOther,"ax",@progbits
 2074              	SecFinishNumberNegativeOther:
 2075              	.LFB26:
 765:/home/xingli/share/LiteOS_Lab/secure_c/src/input.inl **** 
 766:/home/xingli/share/LiteOS_Lab/secure_c/src/input.inl **** 
 767:/home/xingli/share/LiteOS_Lab/secure_c/src/input.inl **** #if (defined(SECUREC_COMPATIBLE_LINUX_FORMAT) && !(defined(SECUREC_ON_UNIX)))
 768:/home/xingli/share/LiteOS_Lab/secure_c/src/input.inl **** /* Compatible with integer negative values other than int */
 769:/home/xingli/share/LiteOS_Lab/secure_c/src/input.inl **** static void SecFinishNumberNegativeOther(int comChr, int numberWidth, SecScanSpec *spec)
 770:/home/xingli/share/LiteOS_Lab/secure_c/src/input.inl **** {
 2076              		.loc 1 770 1
 2077              		.cfi_startproc
 2078 0000 F30F1EFA 		endbr64
 2079 0004 55       		pushq	%rbp
 2080              	.LCFI60:
 2081              		.cfi_def_cfa_offset 16
 2082              		.cfi_offset 6, -16
 2083 0005 4889E5   		movq	%rsp, %rbp
 2084              	.LCFI61:
 2085              		.cfi_def_cfa_register 6
 2086 0008 4883EC20 		subq	$32, %rsp
 2087 000c 897DEC   		movl	%edi, -20(%rbp)
 2088 000f 8975E8   		movl	%esi, -24(%rbp)
 2089 0012 488955E0 		movq	%rdx, -32(%rbp)
 2090              		.loc 1 770 1
 2091 0016 64488B04 		movq	%fs:40, %rax
 2091      25280000 
 2091      00
 2092 001f 488945F8 		movq	%rax, -8(%rbp)
 2093 0023 31C0     		xorl	%eax, %eax
 771:/home/xingli/share/LiteOS_Lab/secure_c/src/input.inl ****     if ((comChr == SECUREC_CHAR('d')) || (comChr == SECUREC_CHAR('i'))) {
 2094              		.loc 1 771 8
 2095 0025 837DEC64 		cmpl	$100, -20(%rbp)
 2096 0029 7406     		je	.L143
 2097              		.loc 1 771 39 discriminator 1
 2098 002b 837DEC69 		cmpl	$105, -20(%rbp)
 2099 002f 757A     		jne	.L144
 2100              	.L143:
 772:/home/xingli/share/LiteOS_Lab/secure_c/src/input.inl ****         if (spec->number > (unsigned long)(1ULL << (SECUREC_LONG_BIT_NUM - 1))) {
 2101              		.loc 1 772 17
GAS LISTING /tmp/cc1ytava.s 			page 56


 2102 0031 488B45E0 		movq	-32(%rbp), %rax
 2103 0035 488B4008 		movq	8(%rax), %rax
 2104              		.loc 1 772 12
 2105 0039 48BA0000 		movabsq	$-9223372036854775808, %rdx
 2105      00000000 
 2105      0080
 2106 0043 4839D0   		cmpq	%rdx, %rax
 2107 0046 7614     		jbe	.L145
 773:/home/xingli/share/LiteOS_Lab/secure_c/src/input.inl ****             spec->number = (unsigned long)(1ULL << (SECUREC_LONG_BIT_NUM - 1));
 2108              		.loc 1 773 26
 2109 0048 488B45E0 		movq	-32(%rbp), %rax
 2110 004c 48B90000 		movabsq	$-9223372036854775808, %rcx
 2110      00000000 
 2110      0080
 2111 0056 48894808 		movq	%rcx, 8(%rax)
 2112 005a EB16     		jmp	.L146
 2113              	.L145:
 774:/home/xingli/share/LiteOS_Lab/secure_c/src/input.inl ****         } else {
 775:/home/xingli/share/LiteOS_Lab/secure_c/src/input.inl ****             spec->number = (unsigned long)(-(long)spec->number);
 2114              		.loc 1 775 55
 2115 005c 488B45E0 		movq	-32(%rbp), %rax
 2116 0060 488B4008 		movq	8(%rax), %rax
 2117              		.loc 1 775 44
 2118 0064 48F7D8   		negq	%rax
 2119              		.loc 1 775 28
 2120 0067 4889C2   		movq	%rax, %rdx
 2121              		.loc 1 775 26
 2122 006a 488B45E0 		movq	-32(%rbp), %rax
 2123 006e 48895008 		movq	%rdx, 8(%rax)
 2124              	.L146:
 776:/home/xingli/share/LiteOS_Lab/secure_c/src/input.inl ****         }
 777:/home/xingli/share/LiteOS_Lab/secure_c/src/input.inl ****         if (spec->beyondMax != 0) {
 2125              		.loc 1 777 17
 2126 0072 488B45E0 		movq	-32(%rbp), %rax
 2127 0076 8B401C   		movl	28(%rax), %eax
 2128              		.loc 1 777 12
 2129 0079 85C0     		testl	%eax, %eax
 2130 007b 745D     		je	.L151
 778:/home/xingli/share/LiteOS_Lab/secure_c/src/input.inl ****             if (numberWidth < SECUREC_NUM_WIDTH_INT) {
 2131              		.loc 1 778 16
 2132 007d 837DE800 		cmpl	$0, -24(%rbp)
 2133 0081 7F0E     		jg	.L148
 779:/home/xingli/share/LiteOS_Lab/secure_c/src/input.inl ****                 spec->number = 0;
 2134              		.loc 1 779 30
 2135 0083 488B45E0 		movq	-32(%rbp), %rax
 2136 0087 48C74008 		movq	$0, 8(%rax)
 2136      00000000 
 777:/home/xingli/share/LiteOS_Lab/secure_c/src/input.inl ****             if (numberWidth < SECUREC_NUM_WIDTH_INT) {
 2137              		.loc 1 777 12
 2138 008f EB49     		jmp	.L151
 2139              	.L148:
 780:/home/xingli/share/LiteOS_Lab/secure_c/src/input.inl ****             } else if (numberWidth == SECUREC_NUM_WIDTH_LONG) {
 2140              		.loc 1 780 23
 2141 0091 837DE802 		cmpl	$2, -24(%rbp)
 2142 0095 7543     		jne	.L151
 781:/home/xingli/share/LiteOS_Lab/secure_c/src/input.inl ****                 spec->number = ((unsigned long)(1UL << (SECUREC_LONG_BIT_NUM - 1)));
 2143              		.loc 1 781 30
GAS LISTING /tmp/cc1ytava.s 			page 57


 2144 0097 488B45E0 		movq	-32(%rbp), %rax
 2145 009b 48BE0000 		movabsq	$-9223372036854775808, %rsi
 2145      00000000 
 2145      0080
 2146 00a5 48897008 		movq	%rsi, 8(%rax)
 777:/home/xingli/share/LiteOS_Lab/secure_c/src/input.inl ****             if (numberWidth < SECUREC_NUM_WIDTH_INT) {
 2147              		.loc 1 777 12
 2148 00a9 EB2F     		jmp	.L151
 2149              	.L144:
 782:/home/xingli/share/LiteOS_Lab/secure_c/src/input.inl ****             }
 783:/home/xingli/share/LiteOS_Lab/secure_c/src/input.inl ****         }
 784:/home/xingli/share/LiteOS_Lab/secure_c/src/input.inl ****     } else { /* o, u, x, X, p */
 785:/home/xingli/share/LiteOS_Lab/secure_c/src/input.inl ****         spec->number = (unsigned long)(-(long)spec->number);
 2150              		.loc 1 785 51
 2151 00ab 488B45E0 		movq	-32(%rbp), %rax
 2152 00af 488B4008 		movq	8(%rax), %rax
 2153              		.loc 1 785 40
 2154 00b3 48F7D8   		negq	%rax
 2155              		.loc 1 785 24
 2156 00b6 4889C2   		movq	%rax, %rdx
 2157              		.loc 1 785 22
 2158 00b9 488B45E0 		movq	-32(%rbp), %rax
 2159 00bd 48895008 		movq	%rdx, 8(%rax)
 786:/home/xingli/share/LiteOS_Lab/secure_c/src/input.inl ****         if (spec->beyondMax != 0) {
 2160              		.loc 1 786 17
 2161 00c1 488B45E0 		movq	-32(%rbp), %rax
 2162 00c5 8B401C   		movl	28(%rax), %eax
 2163              		.loc 1 786 12
 2164 00c8 85C0     		testl	%eax, %eax
 2165 00ca 740F     		je	.L152
 787:/home/xingli/share/LiteOS_Lab/secure_c/src/input.inl ****             spec->number |= (unsigned long)SECUREC_MAX_64BITS_VALUE;
 2166              		.loc 1 787 26
 2167 00cc 488B45E0 		movq	-32(%rbp), %rax
 2168 00d0 48C74008 		movq	$-1, 8(%rax)
 2168      FFFFFFFF 
 788:/home/xingli/share/LiteOS_Lab/secure_c/src/input.inl ****         }
 789:/home/xingli/share/LiteOS_Lab/secure_c/src/input.inl ****     }
 790:/home/xingli/share/LiteOS_Lab/secure_c/src/input.inl **** }
 2169              		.loc 1 790 1
 2170 00d8 EB01     		jmp	.L152
 2171              	.L151:
 777:/home/xingli/share/LiteOS_Lab/secure_c/src/input.inl ****             if (numberWidth < SECUREC_NUM_WIDTH_INT) {
 2172              		.loc 1 777 12
 2173 00da 90       		nop
 2174              	.L152:
 2175              		.loc 1 790 1
 2176 00db 90       		nop
 2177 00dc 488B45F8 		movq	-8(%rbp), %rax
 2178 00e0 64483304 		xorq	%fs:40, %rax
 2178      25280000 
 2178      00
 2179 00e9 7405     		je	.L150
 2180 00eb E8000000 		call	__stack_chk_fail@PLT
 2180      00
 2181              	.L150:
 2182 00f0 C9       		leave
 2183              	.LCFI62:
GAS LISTING /tmp/cc1ytava.s 			page 58


 2184              		.cfi_def_cfa 7, 8
 2185 00f1 C3       		ret
 2186              		.cfi_endproc
 2187              	.LFE26:
 2189              		.section	.text.SecFinishNumberNegativeInt,"ax",@progbits
 2191              	SecFinishNumberNegativeInt:
 2192              	.LFB27:
 791:/home/xingli/share/LiteOS_Lab/secure_c/src/input.inl **** /* Compatible processing of integer negative numbers */
 792:/home/xingli/share/LiteOS_Lab/secure_c/src/input.inl **** static void SecFinishNumberNegativeInt(int comChr, SecScanSpec *spec)
 793:/home/xingli/share/LiteOS_Lab/secure_c/src/input.inl **** {
 2193              		.loc 1 793 1
 2194              		.cfi_startproc
 2195 0000 F30F1EFA 		endbr64
 2196 0004 55       		pushq	%rbp
 2197              	.LCFI63:
 2198              		.cfi_def_cfa_offset 16
 2199              		.cfi_offset 6, -16
 2200 0005 4889E5   		movq	%rsp, %rbp
 2201              	.LCFI64:
 2202              		.cfi_def_cfa_register 6
 2203 0008 4883EC20 		subq	$32, %rsp
 2204 000c 897DEC   		movl	%edi, -20(%rbp)
 2205 000f 488975E0 		movq	%rsi, -32(%rbp)
 2206              		.loc 1 793 1
 2207 0013 64488B04 		movq	%fs:40, %rax
 2207      25280000 
 2207      00
 2208 001c 488945F8 		movq	%rax, -8(%rbp)
 2209 0020 31C0     		xorl	%eax, %eax
 794:/home/xingli/share/LiteOS_Lab/secure_c/src/input.inl ****     if ((comChr == SECUREC_CHAR('d')) || (comChr == SECUREC_CHAR('i'))) {
 2210              		.loc 1 794 8
 2211 0022 837DEC64 		cmpl	$100, -20(%rbp)
 2212 0026 7406     		je	.L154
 2213              		.loc 1 794 39 discriminator 1
 2214 0028 837DEC69 		cmpl	$105, -20(%rbp)
 2215 002c 756E     		jne	.L155
 2216              	.L154:
 795:/home/xingli/share/LiteOS_Lab/secure_c/src/input.inl **** #ifdef SECUREC_ON_64BITS
 796:/home/xingli/share/LiteOS_Lab/secure_c/src/input.inl ****         if (SecIsLongBitEqual(SECUREC_LP64_BIT_WIDTH)) {
 2217              		.loc 1 796 13
 2218 002e BF400000 		movl	$64, %edi
 2218      00
 2219 0033 E8000000 		call	SecIsLongBitEqual
 2219      00
 2220              		.loc 1 796 12
 2221 0038 85C0     		testl	%eax, %eax
 2222 003a 7439     		je	.L156
 797:/home/xingli/share/LiteOS_Lab/secure_c/src/input.inl ****             if ((spec->number > SECUREC_MIN_64BITS_NEG_VALUE)) {
 2223              		.loc 1 797 22
 2224 003c 488B45E0 		movq	-32(%rbp), %rax
 2225 0040 488B4008 		movq	8(%rax), %rax
 2226              		.loc 1 797 16
 2227 0044 48BA0000 		movabsq	$-9223372036854775808, %rdx
 2227      00000000 
 2227      0080
 2228 004e 4839D0   		cmpq	%rdx, %rax
 2229 0051 760E     		jbe	.L157
GAS LISTING /tmp/cc1ytava.s 			page 59


 798:/home/xingli/share/LiteOS_Lab/secure_c/src/input.inl ****                 spec->number = 0;
 2230              		.loc 1 798 30
 2231 0053 488B45E0 		movq	-32(%rbp), %rax
 2232 0057 48C74008 		movq	$0, 8(%rax)
 2232      00000000 
 2233 005f EB14     		jmp	.L156
 2234              	.L157:
 799:/home/xingli/share/LiteOS_Lab/secure_c/src/input.inl ****             } else {
 800:/home/xingli/share/LiteOS_Lab/secure_c/src/input.inl ****                 spec->number = (unsigned int)(-(int)spec->number);
 2235              		.loc 1 800 57
 2236 0061 488B45E0 		movq	-32(%rbp), %rax
 2237 0065 488B4008 		movq	8(%rax), %rax
 2238              		.loc 1 800 47
 2239 0069 F7D8     		negl	%eax
 2240              		.loc 1 800 32
 2241 006b 89C2     		movl	%eax, %edx
 2242              		.loc 1 800 30
 2243 006d 488B45E0 		movq	-32(%rbp), %rax
 2244 0071 48895008 		movq	%rdx, 8(%rax)
 2245              	.L156:
 801:/home/xingli/share/LiteOS_Lab/secure_c/src/input.inl ****             }
 802:/home/xingli/share/LiteOS_Lab/secure_c/src/input.inl ****         }
 803:/home/xingli/share/LiteOS_Lab/secure_c/src/input.inl **** #else
 804:/home/xingli/share/LiteOS_Lab/secure_c/src/input.inl ****         if (SecIsLongBitEqual(SECUREC_LP32_BIT_WIDTH)) {
 805:/home/xingli/share/LiteOS_Lab/secure_c/src/input.inl ****             if ((spec->number > SECUREC_MIN_32BITS_NEG_VALUE)) {
 806:/home/xingli/share/LiteOS_Lab/secure_c/src/input.inl ****                 spec->number = SECUREC_MIN_32BITS_NEG_VALUE;
 807:/home/xingli/share/LiteOS_Lab/secure_c/src/input.inl ****             } else {
 808:/home/xingli/share/LiteOS_Lab/secure_c/src/input.inl ****                 spec->number = (unsigned int)(-(int)spec->number);
 809:/home/xingli/share/LiteOS_Lab/secure_c/src/input.inl ****             }
 810:/home/xingli/share/LiteOS_Lab/secure_c/src/input.inl ****         }
 811:/home/xingli/share/LiteOS_Lab/secure_c/src/input.inl **** #endif
 812:/home/xingli/share/LiteOS_Lab/secure_c/src/input.inl ****         if (spec->beyondMax != 0) {
 2246              		.loc 1 812 17
 2247 0075 488B45E0 		movq	-32(%rbp), %rax
 2248 0079 8B401C   		movl	28(%rax), %eax
 2249              		.loc 1 812 12
 2250 007c 85C0     		testl	%eax, %eax
 2251 007e 746F     		je	.L163
 813:/home/xingli/share/LiteOS_Lab/secure_c/src/input.inl **** #ifdef SECUREC_ON_64BITS
 814:/home/xingli/share/LiteOS_Lab/secure_c/src/input.inl ****             if (SecIsLongBitEqual(SECUREC_LP64_BIT_WIDTH)) {
 2252              		.loc 1 814 17
 2253 0080 BF400000 		movl	$64, %edi
 2253      00
 2254 0085 E8000000 		call	SecIsLongBitEqual
 2254      00
 2255              		.loc 1 814 16
 2256 008a 85C0     		testl	%eax, %eax
 2257 008c 7461     		je	.L163
 815:/home/xingli/share/LiteOS_Lab/secure_c/src/input.inl ****                 spec->number = 0;
 2258              		.loc 1 815 30
 2259 008e 488B45E0 		movq	-32(%rbp), %rax
 2260 0092 48C74008 		movq	$0, 8(%rax)
 2260      00000000 
 812:/home/xingli/share/LiteOS_Lab/secure_c/src/input.inl **** #ifdef SECUREC_ON_64BITS
 2261              		.loc 1 812 12
 2262 009a EB53     		jmp	.L163
 2263              	.L155:
GAS LISTING /tmp/cc1ytava.s 			page 60


 816:/home/xingli/share/LiteOS_Lab/secure_c/src/input.inl ****             }
 817:/home/xingli/share/LiteOS_Lab/secure_c/src/input.inl **** #else
 818:/home/xingli/share/LiteOS_Lab/secure_c/src/input.inl ****             if (SecIsLongBitEqual(SECUREC_LP32_BIT_WIDTH)) {
 819:/home/xingli/share/LiteOS_Lab/secure_c/src/input.inl ****                 spec->number = SECUREC_MIN_32BITS_NEG_VALUE;
 820:/home/xingli/share/LiteOS_Lab/secure_c/src/input.inl ****             }
 821:/home/xingli/share/LiteOS_Lab/secure_c/src/input.inl **** #endif
 822:/home/xingli/share/LiteOS_Lab/secure_c/src/input.inl ****         }
 823:/home/xingli/share/LiteOS_Lab/secure_c/src/input.inl ****     } else {            /* o, u, x, X ,p */
 824:/home/xingli/share/LiteOS_Lab/secure_c/src/input.inl **** #ifdef SECUREC_ON_64BITS
 825:/home/xingli/share/LiteOS_Lab/secure_c/src/input.inl ****         if (spec->number > SECUREC_MAX_32BITS_VALUE_INC) {
 2264              		.loc 1 825 17
 2265 009c 488B45E0 		movq	-32(%rbp), %rax
 2266 00a0 488B4008 		movq	8(%rax), %rax
 2267              		.loc 1 825 12
 2268 00a4 48BA0000 		movabsq	$4294967296, %rdx
 2268      00000100 
 2268      0000
 2269 00ae 4839D0   		cmpq	%rdx, %rax
 2270 00b1 760F     		jbe	.L160
 826:/home/xingli/share/LiteOS_Lab/secure_c/src/input.inl ****             spec->number = SECUREC_MAX_32BITS_VALUE;
 2271              		.loc 1 826 26
 2272 00b3 488B45E0 		movq	-32(%rbp), %rax
 2273 00b7 B9FFFFFF 		movl	$4294967295, %ecx
 2273      FF
 2274 00bc 48894808 		movq	%rcx, 8(%rax)
 2275 00c0 EB14     		jmp	.L161
 2276              	.L160:
 827:/home/xingli/share/LiteOS_Lab/secure_c/src/input.inl ****         } else {
 828:/home/xingli/share/LiteOS_Lab/secure_c/src/input.inl ****             spec->number = (unsigned int)(-(int)spec->number);
 2277              		.loc 1 828 53
 2278 00c2 488B45E0 		movq	-32(%rbp), %rax
 2279 00c6 488B4008 		movq	8(%rax), %rax
 2280              		.loc 1 828 43
 2281 00ca F7D8     		negl	%eax
 2282              		.loc 1 828 28
 2283 00cc 89C2     		movl	%eax, %edx
 2284              		.loc 1 828 26
 2285 00ce 488B45E0 		movq	-32(%rbp), %rax
 2286 00d2 48895008 		movq	%rdx, 8(%rax)
 2287              	.L161:
 829:/home/xingli/share/LiteOS_Lab/secure_c/src/input.inl ****         }
 830:/home/xingli/share/LiteOS_Lab/secure_c/src/input.inl **** #else
 831:/home/xingli/share/LiteOS_Lab/secure_c/src/input.inl ****         spec->number = (unsigned int)(-(int)spec->number);
 832:/home/xingli/share/LiteOS_Lab/secure_c/src/input.inl **** #endif
 833:/home/xingli/share/LiteOS_Lab/secure_c/src/input.inl ****         if (spec->beyondMax != 0) {
 2288              		.loc 1 833 17
 2289 00d6 488B45E0 		movq	-32(%rbp), %rax
 2290 00da 8B401C   		movl	28(%rax), %eax
 2291              		.loc 1 833 12
 2292 00dd 85C0     		testl	%eax, %eax
 2293 00df 740F     		je	.L164
 834:/home/xingli/share/LiteOS_Lab/secure_c/src/input.inl ****             spec->number |= (unsigned long)SECUREC_MAX_64BITS_VALUE;
 2294              		.loc 1 834 26
 2295 00e1 488B45E0 		movq	-32(%rbp), %rax
 2296 00e5 48C74008 		movq	$-1, 8(%rax)
 2296      FFFFFFFF 
 835:/home/xingli/share/LiteOS_Lab/secure_c/src/input.inl ****         }
GAS LISTING /tmp/cc1ytava.s 			page 61


 836:/home/xingli/share/LiteOS_Lab/secure_c/src/input.inl ****     }
 837:/home/xingli/share/LiteOS_Lab/secure_c/src/input.inl **** }
 2297              		.loc 1 837 1
 2298 00ed EB01     		jmp	.L164
 2299              	.L163:
 812:/home/xingli/share/LiteOS_Lab/secure_c/src/input.inl **** #ifdef SECUREC_ON_64BITS
 2300              		.loc 1 812 12
 2301 00ef 90       		nop
 2302              	.L164:
 2303              		.loc 1 837 1
 2304 00f0 90       		nop
 2305 00f1 488B45F8 		movq	-8(%rbp), %rax
 2306 00f5 64483304 		xorq	%fs:40, %rax
 2306      25280000 
 2306      00
 2307 00fe 7405     		je	.L162
 2308 0100 E8000000 		call	__stack_chk_fail@PLT
 2308      00
 2309              	.L162:
 2310 0105 C9       		leave
 2311              	.LCFI65:
 2312              		.cfi_def_cfa 7, 8
 2313 0106 C3       		ret
 2314              		.cfi_endproc
 2315              	.LFE27:
 2317              		.section	.text.SecFinishNumberPositiveOther,"ax",@progbits
 2319              	SecFinishNumberPositiveOther:
 2320              	.LFB28:
 838:/home/xingli/share/LiteOS_Lab/secure_c/src/input.inl **** 
 839:/home/xingli/share/LiteOS_Lab/secure_c/src/input.inl **** /* Compatible with integer positive values other than int */
 840:/home/xingli/share/LiteOS_Lab/secure_c/src/input.inl **** static void SecFinishNumberPositiveOther(int comChr, int numberWidth, SecScanSpec *spec)
 841:/home/xingli/share/LiteOS_Lab/secure_c/src/input.inl **** {
 2321              		.loc 1 841 1
 2322              		.cfi_startproc
 2323 0000 F30F1EFA 		endbr64
 2324 0004 55       		pushq	%rbp
 2325              	.LCFI66:
 2326              		.cfi_def_cfa_offset 16
 2327              		.cfi_offset 6, -16
 2328 0005 4889E5   		movq	%rsp, %rbp
 2329              	.LCFI67:
 2330              		.cfi_def_cfa_register 6
 2331 0008 4883EC20 		subq	$32, %rsp
 2332 000c 897DEC   		movl	%edi, -20(%rbp)
 2333 000f 8975E8   		movl	%esi, -24(%rbp)
 2334 0012 488955E0 		movq	%rdx, -32(%rbp)
 2335              		.loc 1 841 1
 2336 0016 64488B04 		movq	%fs:40, %rax
 2336      25280000 
 2336      00
 2337 001f 488945F8 		movq	%rax, -8(%rbp)
 2338 0023 31C0     		xorl	%eax, %eax
 842:/home/xingli/share/LiteOS_Lab/secure_c/src/input.inl ****     if (comChr == SECUREC_CHAR('d') || comChr == SECUREC_CHAR('i')) {
 2339              		.loc 1 842 8
 2340 0025 837DEC64 		cmpl	$100, -20(%rbp)
 2341 0029 7406     		je	.L166
 2342              		.loc 1 842 37 discriminator 1
GAS LISTING /tmp/cc1ytava.s 			page 62


 2343 002b 837DEC69 		cmpl	$105, -20(%rbp)
 2344 002f 7561     		jne	.L167
 2345              	.L166:
 843:/home/xingli/share/LiteOS_Lab/secure_c/src/input.inl ****         if (spec->number > ((unsigned long)(1UL << (SECUREC_LONG_BIT_NUM - 1)) - 1)) {
 2346              		.loc 1 843 17
 2347 0031 488B45E0 		movq	-32(%rbp), %rax
 2348 0035 488B4008 		movq	8(%rax), %rax
 2349              		.loc 1 843 12
 2350 0039 4885C0   		testq	%rax, %rax
 2351 003c 7912     		jns	.L168
 844:/home/xingli/share/LiteOS_Lab/secure_c/src/input.inl ****             spec->number = ((unsigned long)(1UL << (SECUREC_LONG_BIT_NUM - 1)) - 1);
 2352              		.loc 1 844 26
 2353 003e 488B45E0 		movq	-32(%rbp), %rax
 2354 0042 48B9FFFF 		movabsq	$9223372036854775807, %rcx
 2354      FFFFFFFF 
 2354      FF7F
 2355 004c 48894808 		movq	%rcx, 8(%rax)
 2356              	.L168:
 845:/home/xingli/share/LiteOS_Lab/secure_c/src/input.inl ****         }
 846:/home/xingli/share/LiteOS_Lab/secure_c/src/input.inl ****         if ((spec->beyondMax != 0 && numberWidth < SECUREC_NUM_WIDTH_INT)) {
 2357              		.loc 1 846 18
 2358 0050 488B45E0 		movq	-32(%rbp), %rax
 2359 0054 8B401C   		movl	28(%rax), %eax
 2360              		.loc 1 846 12
 2361 0057 85C0     		testl	%eax, %eax
 2362 0059 7412     		je	.L169
 2363              		.loc 1 846 35 discriminator 1
 2364 005b 837DE800 		cmpl	$0, -24(%rbp)
 2365 005f 7F0C     		jg	.L169
 847:/home/xingli/share/LiteOS_Lab/secure_c/src/input.inl ****             spec->number |= (unsigned long)SECUREC_MAX_64BITS_VALUE;
 2366              		.loc 1 847 26
 2367 0061 488B45E0 		movq	-32(%rbp), %rax
 2368 0065 48C74008 		movq	$-1, 8(%rax)
 2368      FFFFFFFF 
 2369              	.L169:
 848:/home/xingli/share/LiteOS_Lab/secure_c/src/input.inl ****         }
 849:/home/xingli/share/LiteOS_Lab/secure_c/src/input.inl ****         if (spec->beyondMax != 0 && numberWidth == SECUREC_NUM_WIDTH_LONG) {
 2370              		.loc 1 849 17
 2371 006d 488B45E0 		movq	-32(%rbp), %rax
 2372 0071 8B401C   		movl	28(%rax), %eax
 2373              		.loc 1 849 12
 2374 0074 85C0     		testl	%eax, %eax
 2375 0076 7433     		je	.L173
 2376              		.loc 1 849 34 discriminator 1
 2377 0078 837DE802 		cmpl	$2, -24(%rbp)
 2378 007c 752D     		jne	.L173
 850:/home/xingli/share/LiteOS_Lab/secure_c/src/input.inl ****             spec->number = ((unsigned long)(1UL << (SECUREC_LONG_BIT_NUM - 1)) - 1);
 2379              		.loc 1 850 26
 2380 007e 488B45E0 		movq	-32(%rbp), %rax
 2381 0082 48BAFFFF 		movabsq	$9223372036854775807, %rdx
 2381      FFFFFFFF 
 2381      FF7F
 2382 008c 48895008 		movq	%rdx, 8(%rax)
 849:/home/xingli/share/LiteOS_Lab/secure_c/src/input.inl ****             spec->number = ((unsigned long)(1UL << (SECUREC_LONG_BIT_NUM - 1)) - 1);
 2383              		.loc 1 849 12
 2384 0090 EB19     		jmp	.L173
 2385              	.L167:
GAS LISTING /tmp/cc1ytava.s 			page 63


 851:/home/xingli/share/LiteOS_Lab/secure_c/src/input.inl ****         }
 852:/home/xingli/share/LiteOS_Lab/secure_c/src/input.inl ****     } else {
 853:/home/xingli/share/LiteOS_Lab/secure_c/src/input.inl ****         if (spec->beyondMax != 0) {
 2386              		.loc 1 853 17
 2387 0092 488B45E0 		movq	-32(%rbp), %rax
 2388 0096 8B401C   		movl	28(%rax), %eax
 2389              		.loc 1 853 12
 2390 0099 85C0     		testl	%eax, %eax
 2391 009b 740F     		je	.L174
 854:/home/xingli/share/LiteOS_Lab/secure_c/src/input.inl ****             spec->number |= (unsigned long)SECUREC_MAX_64BITS_VALUE;
 2392              		.loc 1 854 26
 2393 009d 488B45E0 		movq	-32(%rbp), %rax
 2394 00a1 48C74008 		movq	$-1, 8(%rax)
 2394      FFFFFFFF 
 855:/home/xingli/share/LiteOS_Lab/secure_c/src/input.inl ****         }
 856:/home/xingli/share/LiteOS_Lab/secure_c/src/input.inl ****     }
 857:/home/xingli/share/LiteOS_Lab/secure_c/src/input.inl **** }
 2395              		.loc 1 857 1
 2396 00a9 EB01     		jmp	.L174
 2397              	.L173:
 849:/home/xingli/share/LiteOS_Lab/secure_c/src/input.inl ****             spec->number = ((unsigned long)(1UL << (SECUREC_LONG_BIT_NUM - 1)) - 1);
 2398              		.loc 1 849 12
 2399 00ab 90       		nop
 2400              	.L174:
 2401              		.loc 1 857 1
 2402 00ac 90       		nop
 2403 00ad 488B45F8 		movq	-8(%rbp), %rax
 2404 00b1 64483304 		xorq	%fs:40, %rax
 2404      25280000 
 2404      00
 2405 00ba 7405     		je	.L172
 2406 00bc E8000000 		call	__stack_chk_fail@PLT
 2406      00
 2407              	.L172:
 2408 00c1 C9       		leave
 2409              	.LCFI68:
 2410              		.cfi_def_cfa 7, 8
 2411 00c2 C3       		ret
 2412              		.cfi_endproc
 2413              	.LFE28:
 2415              		.section	.text.SecFinishNumberPositiveInt,"ax",@progbits
 2417              	SecFinishNumberPositiveInt:
 2418              	.LFB29:
 858:/home/xingli/share/LiteOS_Lab/secure_c/src/input.inl **** 
 859:/home/xingli/share/LiteOS_Lab/secure_c/src/input.inl **** /* Compatible processing of integer positive numbers */
 860:/home/xingli/share/LiteOS_Lab/secure_c/src/input.inl **** static void SecFinishNumberPositiveInt(int comChr, SecScanSpec *spec)
 861:/home/xingli/share/LiteOS_Lab/secure_c/src/input.inl **** {
 2419              		.loc 1 861 1
 2420              		.cfi_startproc
 2421 0000 F30F1EFA 		endbr64
 2422 0004 55       		pushq	%rbp
 2423              	.LCFI69:
 2424              		.cfi_def_cfa_offset 16
 2425              		.cfi_offset 6, -16
 2426 0005 4889E5   		movq	%rsp, %rbp
 2427              	.LCFI70:
 2428              		.cfi_def_cfa_register 6
GAS LISTING /tmp/cc1ytava.s 			page 64


 2429 0008 4883EC20 		subq	$32, %rsp
 2430 000c 897DEC   		movl	%edi, -20(%rbp)
 2431 000f 488975E0 		movq	%rsi, -32(%rbp)
 2432              		.loc 1 861 1
 2433 0013 64488B04 		movq	%fs:40, %rax
 2433      25280000 
 2433      00
 2434 001c 488945F8 		movq	%rax, -8(%rbp)
 2435 0020 31C0     		xorl	%eax, %eax
 862:/home/xingli/share/LiteOS_Lab/secure_c/src/input.inl ****     if ((comChr == SECUREC_CHAR('d')) || (comChr == SECUREC_CHAR('i'))) {
 2436              		.loc 1 862 8
 2437 0022 837DEC64 		cmpl	$100, -20(%rbp)
 2438 0026 7406     		je	.L176
 2439              		.loc 1 862 39 discriminator 1
 2440 0028 837DEC69 		cmpl	$105, -20(%rbp)
 2441 002c 754E     		jne	.L177
 2442              	.L176:
 863:/home/xingli/share/LiteOS_Lab/secure_c/src/input.inl **** #ifdef SECUREC_ON_64BITS
 864:/home/xingli/share/LiteOS_Lab/secure_c/src/input.inl ****         if (SecIsLongBitEqual(SECUREC_LP64_BIT_WIDTH)) {
 2443              		.loc 1 864 13
 2444 002e BF400000 		movl	$64, %edi
 2444      00
 2445 0033 E8000000 		call	SecIsLongBitEqual
 2445      00
 2446              		.loc 1 864 12
 2447 0038 85C0     		testl	%eax, %eax
 2448 003a 7419     		je	.L178
 865:/home/xingli/share/LiteOS_Lab/secure_c/src/input.inl ****             if (spec->number > SECUREC_MAX_64BITS_POS_VALUE) {
 2449              		.loc 1 865 21
 2450 003c 488B45E0 		movq	-32(%rbp), %rax
 2451 0040 488B4008 		movq	8(%rax), %rax
 2452              		.loc 1 865 16
 2453 0044 4885C0   		testq	%rax, %rax
 2454 0047 790C     		jns	.L178
 866:/home/xingli/share/LiteOS_Lab/secure_c/src/input.inl ****                 spec->number |= (unsigned long)SECUREC_MAX_64BITS_VALUE;
 2455              		.loc 1 866 30
 2456 0049 488B45E0 		movq	-32(%rbp), %rax
 2457 004d 48C74008 		movq	$-1, 8(%rax)
 2457      FFFFFFFF 
 2458              	.L178:
 867:/home/xingli/share/LiteOS_Lab/secure_c/src/input.inl ****             }
 868:/home/xingli/share/LiteOS_Lab/secure_c/src/input.inl ****         }
 869:/home/xingli/share/LiteOS_Lab/secure_c/src/input.inl ****         if (spec->beyondMax != 0 && SecIsLongBitEqual(SECUREC_LP64_BIT_WIDTH)) {
 2459              		.loc 1 869 17
 2460 0055 488B45E0 		movq	-32(%rbp), %rax
 2461 0059 8B401C   		movl	28(%rax), %eax
 2462              		.loc 1 869 12
 2463 005c 85C0     		testl	%eax, %eax
 2464 005e 7436     		je	.L182
 2465              		.loc 1 869 37 discriminator 1
 2466 0060 BF400000 		movl	$64, %edi
 2466      00
 2467 0065 E8000000 		call	SecIsLongBitEqual
 2467      00
 2468              		.loc 1 869 34 discriminator 1
 2469 006a 85C0     		testl	%eax, %eax
 2470 006c 7428     		je	.L182
GAS LISTING /tmp/cc1ytava.s 			page 65


 870:/home/xingli/share/LiteOS_Lab/secure_c/src/input.inl ****             spec->number |= (unsigned long)SECUREC_MAX_64BITS_VALUE;
 2471              		.loc 1 870 26
 2472 006e 488B45E0 		movq	-32(%rbp), %rax
 2473 0072 48C74008 		movq	$-1, 8(%rax)
 2473      FFFFFFFF 
 869:/home/xingli/share/LiteOS_Lab/secure_c/src/input.inl ****             spec->number |= (unsigned long)SECUREC_MAX_64BITS_VALUE;
 2474              		.loc 1 869 12
 2475 007a EB1A     		jmp	.L182
 2476              	.L177:
 871:/home/xingli/share/LiteOS_Lab/secure_c/src/input.inl ****         }
 872:/home/xingli/share/LiteOS_Lab/secure_c/src/input.inl **** #else
 873:/home/xingli/share/LiteOS_Lab/secure_c/src/input.inl ****         if (SecIsLongBitEqual(SECUREC_LP32_BIT_WIDTH)) {
 874:/home/xingli/share/LiteOS_Lab/secure_c/src/input.inl ****             if (spec->number > SECUREC_MAX_32BITS_POS_VALUE) {
 875:/home/xingli/share/LiteOS_Lab/secure_c/src/input.inl ****                 spec->number = SECUREC_MAX_32BITS_POS_VALUE;
 876:/home/xingli/share/LiteOS_Lab/secure_c/src/input.inl ****             }
 877:/home/xingli/share/LiteOS_Lab/secure_c/src/input.inl ****         }
 878:/home/xingli/share/LiteOS_Lab/secure_c/src/input.inl ****         if (spec->beyondMax != 0 && SecIsLongBitEqual(SECUREC_LP32_BIT_WIDTH)) {
 879:/home/xingli/share/LiteOS_Lab/secure_c/src/input.inl ****             spec->number = SECUREC_MAX_32BITS_POS_VALUE;
 880:/home/xingli/share/LiteOS_Lab/secure_c/src/input.inl ****         }
 881:/home/xingli/share/LiteOS_Lab/secure_c/src/input.inl **** #endif
 882:/home/xingli/share/LiteOS_Lab/secure_c/src/input.inl ****     } else {            /* o,u,x,X,p */
 883:/home/xingli/share/LiteOS_Lab/secure_c/src/input.inl ****         if (spec->beyondMax != 0) {
 2477              		.loc 1 883 17
 2478 007c 488B45E0 		movq	-32(%rbp), %rax
 2479 0080 8B401C   		movl	28(%rax), %eax
 2480              		.loc 1 883 12
 2481 0083 85C0     		testl	%eax, %eax
 2482 0085 7410     		je	.L183
 884:/home/xingli/share/LiteOS_Lab/secure_c/src/input.inl ****             spec->number = SECUREC_MAX_32BITS_VALUE;
 2483              		.loc 1 884 26
 2484 0087 488B45E0 		movq	-32(%rbp), %rax
 2485 008b BAFFFFFF 		movl	$4294967295, %edx
 2485      FF
 2486 0090 48895008 		movq	%rdx, 8(%rax)
 885:/home/xingli/share/LiteOS_Lab/secure_c/src/input.inl ****         }
 886:/home/xingli/share/LiteOS_Lab/secure_c/src/input.inl ****     }
 887:/home/xingli/share/LiteOS_Lab/secure_c/src/input.inl **** }
 2487              		.loc 1 887 1
 2488 0094 EB01     		jmp	.L183
 2489              	.L182:
 869:/home/xingli/share/LiteOS_Lab/secure_c/src/input.inl ****             spec->number |= (unsigned long)SECUREC_MAX_64BITS_VALUE;
 2490              		.loc 1 869 12
 2491 0096 90       		nop
 2492              	.L183:
 2493              		.loc 1 887 1
 2494 0097 90       		nop
 2495 0098 488B45F8 		movq	-8(%rbp), %rax
 2496 009c 64483304 		xorq	%fs:40, %rax
 2496      25280000 
 2496      00
 2497 00a5 7405     		je	.L181
 2498 00a7 E8000000 		call	__stack_chk_fail@PLT
 2498      00
 2499              	.L181:
 2500 00ac C9       		leave
 2501              	.LCFI71:
 2502              		.cfi_def_cfa 7, 8
GAS LISTING /tmp/cc1ytava.s 			page 66


 2503 00ad C3       		ret
 2504              		.cfi_endproc
 2505              	.LFE29:
 2507              		.section	.text.SecDecodeNumber64Decimal,"ax",@progbits
 2509              	SecDecodeNumber64Decimal:
 2510              	.LFB30:
 888:/home/xingli/share/LiteOS_Lab/secure_c/src/input.inl **** 
 889:/home/xingli/share/LiteOS_Lab/secure_c/src/input.inl **** #endif
 890:/home/xingli/share/LiteOS_Lab/secure_c/src/input.inl **** 
 891:/home/xingli/share/LiteOS_Lab/secure_c/src/input.inl **** 
 892:/home/xingli/share/LiteOS_Lab/secure_c/src/input.inl **** /*
 893:/home/xingli/share/LiteOS_Lab/secure_c/src/input.inl ****  * Parse decimal character to integer for 64bit .
 894:/home/xingli/share/LiteOS_Lab/secure_c/src/input.inl ****  */
 895:/home/xingli/share/LiteOS_Lab/secure_c/src/input.inl **** static void SecDecodeNumber64Decimal(SecInt ch, SecScanSpec *spec)
 896:/home/xingli/share/LiteOS_Lab/secure_c/src/input.inl **** {
 2511              		.loc 1 896 1
 2512              		.cfi_startproc
 2513 0000 F30F1EFA 		endbr64
 2514 0004 55       		pushq	%rbp
 2515              	.LCFI72:
 2516              		.cfi_def_cfa_offset 16
 2517              		.cfi_offset 6, -16
 2518 0005 4889E5   		movq	%rsp, %rbp
 2519              	.LCFI73:
 2520              		.cfi_def_cfa_register 6
 2521 0008 4883EC20 		subq	$32, %rsp
 2522 000c 897DEC   		movl	%edi, -20(%rbp)
 2523 000f 488975E0 		movq	%rsi, -32(%rbp)
 2524              		.loc 1 896 1
 2525 0013 64488B04 		movq	%fs:40, %rax
 2525      25280000 
 2525      00
 2526 001c 488945F8 		movq	%rax, -8(%rbp)
 2527 0020 31C0     		xorl	%eax, %eax
 897:/home/xingli/share/LiteOS_Lab/secure_c/src/input.inl **** #if (defined(SECUREC_COMPATIBLE_LINUX_FORMAT) && !(defined(SECUREC_ON_UNIX)))
 898:/home/xingli/share/LiteOS_Lab/secure_c/src/input.inl ****     if (spec->number64 > SECUREC_MAX_64BITS_VALUE_DIV_TEN) {
 2528              		.loc 1 898 13
 2529 0022 488B45E0 		movq	-32(%rbp), %rax
 2530 0026 488B00   		movq	(%rax), %rax
 2531              		.loc 1 898 8
 2532 0029 48BA9999 		movabsq	$1844674407370955161, %rdx
 2532      99999999 
 2532      9919
 2533 0033 4839D0   		cmpq	%rdx, %rax
 2534 0036 760B     		jbe	.L185
 899:/home/xingli/share/LiteOS_Lab/secure_c/src/input.inl ****         spec->beyondMax = 1;
 2535              		.loc 1 899 25
 2536 0038 488B45E0 		movq	-32(%rbp), %rax
 2537 003c C7401C01 		movl	$1, 28(%rax)
 2537      000000
 2538              	.L185:
 900:/home/xingli/share/LiteOS_Lab/secure_c/src/input.inl ****     }
 901:/home/xingli/share/LiteOS_Lab/secure_c/src/input.inl **** #endif
 902:/home/xingli/share/LiteOS_Lab/secure_c/src/input.inl ****     spec->number64 = SECUREC_MUL_TEN(spec->number64);
 2539              		.loc 1 902 22
 2540 0043 488B45E0 		movq	-32(%rbp), %rax
 2541 0047 488B00   		movq	(%rax), %rax
GAS LISTING /tmp/cc1ytava.s 			page 67


 2542 004a 488D1485 		leaq	0(,%rax,4), %rdx
 2542      00000000 
 2543 0052 488B45E0 		movq	-32(%rbp), %rax
 2544 0056 488B00   		movq	(%rax), %rax
 2545 0059 4801D0   		addq	%rdx, %rax
 2546 005c 488D1400 		leaq	(%rax,%rax), %rdx
 2547              		.loc 1 902 20
 2548 0060 488B45E0 		movq	-32(%rbp), %rax
 2549 0064 488910   		movq	%rdx, (%rax)
 903:/home/xingli/share/LiteOS_Lab/secure_c/src/input.inl **** #if (defined(SECUREC_COMPATIBLE_LINUX_FORMAT) && !(defined(SECUREC_ON_UNIX)))
 904:/home/xingli/share/LiteOS_Lab/secure_c/src/input.inl ****     if (spec->number64 == SECUREC_MAX_64BITS_VALUE_CUT_LAST_DIGIT) {
 2550              		.loc 1 904 13
 2551 0067 488B45E0 		movq	-32(%rbp), %rax
 2552 006b 488B00   		movq	(%rax), %rax
 2553              		.loc 1 904 8
 2554 006e 4883F8FA 		cmpq	$-6, %rax
 2555 0072 7527     		jne	.L186
 2556              	.LBB9:
 905:/home/xingli/share/LiteOS_Lab/secure_c/src/input.inl ****         SecUnsignedInt64 number64As = (SecUnsignedInt64)SECUREC_MAX_64BITS_VALUE - spec->number64;
 2557              		.loc 1 905 88
 2558 0074 488B45E0 		movq	-32(%rbp), %rax
 2559 0078 488B00   		movq	(%rax), %rax
 2560              		.loc 1 905 26
 2561 007b 48F7D0   		notq	%rax
 2562 007e 488945F0 		movq	%rax, -16(%rbp)
 906:/home/xingli/share/LiteOS_Lab/secure_c/src/input.inl ****         if (number64As < (SecUnsignedInt64)((SecUnsignedInt)ch - SECUREC_CHAR('0'))) {
 2563              		.loc 1 906 64
 2564 0082 8B45EC   		movl	-20(%rbp), %eax
 2565 0085 83E830   		subl	$48, %eax
 2566              		.loc 1 906 26
 2567 0088 89C0     		movl	%eax, %eax
 2568              		.loc 1 906 12
 2569 008a 483945F0 		cmpq	%rax, -16(%rbp)
 2570 008e 730B     		jnb	.L186
 907:/home/xingli/share/LiteOS_Lab/secure_c/src/input.inl ****             spec->beyondMax = 1;
 2571              		.loc 1 907 29
 2572 0090 488B45E0 		movq	-32(%rbp), %rax
 2573 0094 C7401C01 		movl	$1, 28(%rax)
 2573      000000
 2574              	.L186:
 2575              	.LBE9:
 908:/home/xingli/share/LiteOS_Lab/secure_c/src/input.inl ****         }
 909:/home/xingli/share/LiteOS_Lab/secure_c/src/input.inl ****     }
 910:/home/xingli/share/LiteOS_Lab/secure_c/src/input.inl **** #endif
 911:/home/xingli/share/LiteOS_Lab/secure_c/src/input.inl ****     spec->number64 += (SecUnsignedInt64)((SecUnsignedInt)ch - SECUREC_CHAR('0'));
 2576              		.loc 1 911 20
 2577 009b 488B45E0 		movq	-32(%rbp), %rax
 2578 009f 488B00   		movq	(%rax), %rax
 2579              		.loc 1 911 61
 2580 00a2 8B55EC   		movl	-20(%rbp), %edx
 2581 00a5 83EA30   		subl	$48, %edx
 2582              		.loc 1 911 23
 2583 00a8 89D2     		movl	%edx, %edx
 2584              		.loc 1 911 20
 2585 00aa 4801C2   		addq	%rax, %rdx
 2586 00ad 488B45E0 		movq	-32(%rbp), %rax
 2587 00b1 488910   		movq	%rdx, (%rax)
GAS LISTING /tmp/cc1ytava.s 			page 68


 912:/home/xingli/share/LiteOS_Lab/secure_c/src/input.inl **** }
 2588              		.loc 1 912 1
 2589 00b4 90       		nop
 2590 00b5 488B45F8 		movq	-8(%rbp), %rax
 2591 00b9 64483304 		xorq	%fs:40, %rax
 2591      25280000 
 2591      00
 2592 00c2 7405     		je	.L187
 2593 00c4 E8000000 		call	__stack_chk_fail@PLT
 2593      00
 2594              	.L187:
 2595 00c9 C9       		leave
 2596              	.LCFI74:
 2597              		.cfi_def_cfa 7, 8
 2598 00ca C3       		ret
 2599              		.cfi_endproc
 2600              	.LFE30:
 2602              		.section	.text.SecDecodeNumber64Hex,"ax",@progbits
 2604              	SecDecodeNumber64Hex:
 2605              	.LFB31:
 913:/home/xingli/share/LiteOS_Lab/secure_c/src/input.inl **** 
 914:/home/xingli/share/LiteOS_Lab/secure_c/src/input.inl **** /*
 915:/home/xingli/share/LiteOS_Lab/secure_c/src/input.inl ****  * Parse Hex character to integer for 64bit .
 916:/home/xingli/share/LiteOS_Lab/secure_c/src/input.inl ****  */
 917:/home/xingli/share/LiteOS_Lab/secure_c/src/input.inl **** static void SecDecodeNumber64Hex(SecInt ch, SecScanSpec *spec)
 918:/home/xingli/share/LiteOS_Lab/secure_c/src/input.inl **** {
 2606              		.loc 1 918 1
 2607              		.cfi_startproc
 2608 0000 F30F1EFA 		endbr64
 2609 0004 55       		pushq	%rbp
 2610              	.LCFI75:
 2611              		.cfi_def_cfa_offset 16
 2612              		.cfi_offset 6, -16
 2613 0005 4889E5   		movq	%rsp, %rbp
 2614              	.LCFI76:
 2615              		.cfi_def_cfa_register 6
 2616 0008 4883EC20 		subq	$32, %rsp
 2617 000c 897DEC   		movl	%edi, -20(%rbp)
 2618 000f 488975E0 		movq	%rsi, -32(%rbp)
 2619              		.loc 1 918 1
 2620 0013 64488B04 		movq	%fs:40, %rax
 2620      25280000 
 2620      00
 2621 001c 488945F8 		movq	%rax, -8(%rbp)
 2622 0020 31C0     		xorl	%eax, %eax
 919:/home/xingli/share/LiteOS_Lab/secure_c/src/input.inl **** #if (defined(SECUREC_COMPATIBLE_LINUX_FORMAT) && !(defined(SECUREC_ON_UNIX)))
 920:/home/xingli/share/LiteOS_Lab/secure_c/src/input.inl ****     if (SECUREC_QWORD_HEX_BEYOND_MAX(spec->number64)) {
 2623              		.loc 1 920 9
 2624 0022 488B45E0 		movq	-32(%rbp), %rax
 2625 0026 488B00   		movq	(%rax), %rax
 2626 0029 48C1E83C 		shrq	$60, %rax
 2627              		.loc 1 920 8
 2628 002d 4885C0   		testq	%rax, %rax
 2629 0030 740B     		je	.L189
 921:/home/xingli/share/LiteOS_Lab/secure_c/src/input.inl ****         spec->beyondMax = 1;
 2630              		.loc 1 921 25
 2631 0032 488B45E0 		movq	-32(%rbp), %rax
GAS LISTING /tmp/cc1ytava.s 			page 69


 2632 0036 C7401C01 		movl	$1, 28(%rax)
 2632      000000
 2633              	.L189:
 922:/home/xingli/share/LiteOS_Lab/secure_c/src/input.inl ****     }
 923:/home/xingli/share/LiteOS_Lab/secure_c/src/input.inl **** #endif
 924:/home/xingli/share/LiteOS_Lab/secure_c/src/input.inl ****     spec->number64 = SECUREC_MUL_SIXTEEN(spec->number64);
 2634              		.loc 1 924 22
 2635 003d 488B45E0 		movq	-32(%rbp), %rax
 2636 0041 488B00   		movq	(%rax), %rax
 2637 0044 48C1E004 		salq	$4, %rax
 2638 0048 4889C2   		movq	%rax, %rdx
 2639              		.loc 1 924 20
 2640 004b 488B45E0 		movq	-32(%rbp), %rax
 2641 004f 488910   		movq	%rdx, (%rax)
 925:/home/xingli/share/LiteOS_Lab/secure_c/src/input.inl ****     spec->number64 += (SecUnsignedInt64)(unsigned int)SecHexValueOfChar(ch);
 2642              		.loc 1 925 55
 2643 0052 8B45EC   		movl	-20(%rbp), %eax
 2644 0055 89C7     		movl	%eax, %edi
 2645 0057 E8000000 		call	SecHexValueOfChar
 2645      00
 2646              		.loc 1 925 23
 2647 005c 89C2     		movl	%eax, %edx
 2648              		.loc 1 925 20
 2649 005e 488B45E0 		movq	-32(%rbp), %rax
 2650 0062 488B00   		movq	(%rax), %rax
 2651 0065 4801C2   		addq	%rax, %rdx
 2652 0068 488B45E0 		movq	-32(%rbp), %rax
 2653 006c 488910   		movq	%rdx, (%rax)
 926:/home/xingli/share/LiteOS_Lab/secure_c/src/input.inl **** 
 927:/home/xingli/share/LiteOS_Lab/secure_c/src/input.inl **** }
 2654              		.loc 1 927 1
 2655 006f 90       		nop
 2656 0070 488B45F8 		movq	-8(%rbp), %rax
 2657 0074 64483304 		xorq	%fs:40, %rax
 2657      25280000 
 2657      00
 2658 007d 7405     		je	.L190
 2659 007f E8000000 		call	__stack_chk_fail@PLT
 2659      00
 2660              	.L190:
 2661 0084 C9       		leave
 2662              	.LCFI77:
 2663              		.cfi_def_cfa 7, 8
 2664 0085 C3       		ret
 2665              		.cfi_endproc
 2666              	.LFE31:
 2668              		.section	.text.SecDecodeNumber64Octal,"ax",@progbits
 2670              	SecDecodeNumber64Octal:
 2671              	.LFB32:
 928:/home/xingli/share/LiteOS_Lab/secure_c/src/input.inl **** 
 929:/home/xingli/share/LiteOS_Lab/secure_c/src/input.inl **** /*
 930:/home/xingli/share/LiteOS_Lab/secure_c/src/input.inl ****  * Parse Octal character to integer for 64bit .
 931:/home/xingli/share/LiteOS_Lab/secure_c/src/input.inl ****  */
 932:/home/xingli/share/LiteOS_Lab/secure_c/src/input.inl **** static void SecDecodeNumber64Octal(SecInt ch, SecScanSpec *spec)
 933:/home/xingli/share/LiteOS_Lab/secure_c/src/input.inl **** {
 2672              		.loc 1 933 1
 2673              		.cfi_startproc
GAS LISTING /tmp/cc1ytava.s 			page 70


 2674 0000 F30F1EFA 		endbr64
 2675 0004 55       		pushq	%rbp
 2676              	.LCFI78:
 2677              		.cfi_def_cfa_offset 16
 2678              		.cfi_offset 6, -16
 2679 0005 4889E5   		movq	%rsp, %rbp
 2680              	.LCFI79:
 2681              		.cfi_def_cfa_register 6
 2682 0008 4883EC20 		subq	$32, %rsp
 2683 000c 897DEC   		movl	%edi, -20(%rbp)
 2684 000f 488975E0 		movq	%rsi, -32(%rbp)
 2685              		.loc 1 933 1
 2686 0013 64488B04 		movq	%fs:40, %rax
 2686      25280000 
 2686      00
 2687 001c 488945F8 		movq	%rax, -8(%rbp)
 2688 0020 31C0     		xorl	%eax, %eax
 934:/home/xingli/share/LiteOS_Lab/secure_c/src/input.inl **** #if (defined(SECUREC_COMPATIBLE_LINUX_FORMAT) && !(defined(SECUREC_ON_UNIX)))
 935:/home/xingli/share/LiteOS_Lab/secure_c/src/input.inl ****     if (SECUREC_QWORD_OCTAL_BEYOND_MAX(spec->number64)) {
 2689              		.loc 1 935 9
 2690 0022 488B45E0 		movq	-32(%rbp), %rax
 2691 0026 488B00   		movq	(%rax), %rax
 2692 0029 48C1E83D 		shrq	$61, %rax
 2693              		.loc 1 935 8
 2694 002d 4885C0   		testq	%rax, %rax
 2695 0030 740B     		je	.L192
 936:/home/xingli/share/LiteOS_Lab/secure_c/src/input.inl ****         spec->beyondMax = 1;
 2696              		.loc 1 936 25
 2697 0032 488B45E0 		movq	-32(%rbp), %rax
 2698 0036 C7401C01 		movl	$1, 28(%rax)
 2698      000000
 2699              	.L192:
 937:/home/xingli/share/LiteOS_Lab/secure_c/src/input.inl ****     }
 938:/home/xingli/share/LiteOS_Lab/secure_c/src/input.inl **** #endif
 939:/home/xingli/share/LiteOS_Lab/secure_c/src/input.inl ****     spec->number64 = SECUREC_MUL_EIGHT(spec->number64);
 2700              		.loc 1 939 22
 2701 003d 488B45E0 		movq	-32(%rbp), %rax
 2702 0041 488B00   		movq	(%rax), %rax
 2703 0044 488D14C5 		leaq	0(,%rax,8), %rdx
 2703      00000000 
 2704              		.loc 1 939 20
 2705 004c 488B45E0 		movq	-32(%rbp), %rax
 2706 0050 488910   		movq	%rdx, (%rax)
 940:/home/xingli/share/LiteOS_Lab/secure_c/src/input.inl ****     spec->number64 += (SecUnsignedInt64)((SecUnsignedInt)ch - SECUREC_CHAR('0'));
 2707              		.loc 1 940 20
 2708 0053 488B45E0 		movq	-32(%rbp), %rax
 2709 0057 488B00   		movq	(%rax), %rax
 2710              		.loc 1 940 61
 2711 005a 8B55EC   		movl	-20(%rbp), %edx
 2712 005d 83EA30   		subl	$48, %edx
 2713              		.loc 1 940 23
 2714 0060 89D2     		movl	%edx, %edx
 2715              		.loc 1 940 20
 2716 0062 4801C2   		addq	%rax, %rdx
 2717 0065 488B45E0 		movq	-32(%rbp), %rax
 2718 0069 488910   		movq	%rdx, (%rax)
 941:/home/xingli/share/LiteOS_Lab/secure_c/src/input.inl **** }
GAS LISTING /tmp/cc1ytava.s 			page 71


 2719              		.loc 1 941 1
 2720 006c 90       		nop
 2721 006d 488B45F8 		movq	-8(%rbp), %rax
 2722 0071 64483304 		xorq	%fs:40, %rax
 2722      25280000 
 2722      00
 2723 007a 7405     		je	.L193
 2724 007c E8000000 		call	__stack_chk_fail@PLT
 2724      00
 2725              	.L193:
 2726 0081 C9       		leave
 2727              	.LCFI80:
 2728              		.cfi_def_cfa 7, 8
 2729 0082 C3       		ret
 2730              		.cfi_endproc
 2731              	.LFE32:
 2733              		.section	.data.rel.local.g_secDecodeNumberHex,"aw"
 2734              		.align 16
 2737              	g_secDecodeNumberHex:
 2738 0000 00000000 		.quad	SecDecodeNumberHex
 2738      00000000 
 2739 0008 00000000 		.quad	SecDecodeNumber64Hex
 2739      00000000 
 2740              		.section	.data.rel.local.g_secDecodeNumberOctal,"aw"
 2741              		.align 16
 2744              	g_secDecodeNumberOctal:
 2745 0000 00000000 		.quad	SecDecodeNumberOctal
 2745      00000000 
 2746 0008 00000000 		.quad	SecDecodeNumber64Octal
 2746      00000000 
 2747              		.section	.data.rel.local.g_secDecodeNumberDecimal,"aw"
 2748              		.align 16
 2751              	g_secDecodeNumberDecimal:
 2752 0000 00000000 		.quad	SecDecodeNumberDecimal
 2752      00000000 
 2753 0008 00000000 		.quad	SecDecodeNumber64Decimal
 2753      00000000 
 2754              		.section	.text.SecDecodeNumber,"ax",@progbits
 2756              	SecDecodeNumber:
 2757              	.LFB33:
 942:/home/xingli/share/LiteOS_Lab/secure_c/src/input.inl **** 
 943:/home/xingli/share/LiteOS_Lab/secure_c/src/input.inl **** #define SECUREC_DECODE_NUMBER_FUNC_NUM 2
 944:/home/xingli/share/LiteOS_Lab/secure_c/src/input.inl **** /* Function name cannot add address symbol, causing 546 alarm */
 945:/home/xingli/share/LiteOS_Lab/secure_c/src/input.inl **** static void (*g_secDecodeNumberHex[SECUREC_DECODE_NUMBER_FUNC_NUM])(SecInt ch, SecScanSpec *spec) =
 946:/home/xingli/share/LiteOS_Lab/secure_c/src/input.inl ****     { SecDecodeNumberHex, SecDecodeNumber64Hex };
 947:/home/xingli/share/LiteOS_Lab/secure_c/src/input.inl **** static void (*g_secDecodeNumberOctal[SECUREC_DECODE_NUMBER_FUNC_NUM])(SecInt ch, SecScanSpec *spec)
 948:/home/xingli/share/LiteOS_Lab/secure_c/src/input.inl ****     { SecDecodeNumberOctal, SecDecodeNumber64Octal };
 949:/home/xingli/share/LiteOS_Lab/secure_c/src/input.inl **** static void (*g_secDecodeNumberDecimal[SECUREC_DECODE_NUMBER_FUNC_NUM])(SecInt ch, SecScanSpec *spe
 950:/home/xingli/share/LiteOS_Lab/secure_c/src/input.inl ****     { SecDecodeNumberDecimal, SecDecodeNumber64Decimal };
 951:/home/xingli/share/LiteOS_Lab/secure_c/src/input.inl **** 
 952:/home/xingli/share/LiteOS_Lab/secure_c/src/input.inl **** /*
 953:/home/xingli/share/LiteOS_Lab/secure_c/src/input.inl ****  * Parse 64-bit integer formatted input, return 0 when ch is a number.
 954:/home/xingli/share/LiteOS_Lab/secure_c/src/input.inl ****  */
 955:/home/xingli/share/LiteOS_Lab/secure_c/src/input.inl **** static int SecDecodeNumber(SecInt ch, SecScanSpec *spec)
 956:/home/xingli/share/LiteOS_Lab/secure_c/src/input.inl **** {
 2758              		.loc 1 956 1
 2759              		.cfi_startproc
GAS LISTING /tmp/cc1ytava.s 			page 72


 2760 0000 F30F1EFA 		endbr64
 2761 0004 55       		pushq	%rbp
 2762              	.LCFI81:
 2763              		.cfi_def_cfa_offset 16
 2764              		.cfi_offset 6, -16
 2765 0005 4889E5   		movq	%rsp, %rbp
 2766              	.LCFI82:
 2767              		.cfi_def_cfa_register 6
 2768 0008 4883EC20 		subq	$32, %rsp
 2769 000c 897DEC   		movl	%edi, -20(%rbp)
 2770 000f 488975E0 		movq	%rsi, -32(%rbp)
 2771              		.loc 1 956 1
 2772 0013 64488B04 		movq	%fs:40, %rax
 2772      25280000 
 2772      00
 2773 001c 488945F8 		movq	%rax, -8(%rbp)
 2774 0020 31C0     		xorl	%eax, %eax
 957:/home/xingli/share/LiteOS_Lab/secure_c/src/input.inl ****     if (spec->comChr == SECUREC_CHAR('x') || spec->comChr == SECUREC_CHAR('p')) {
 2775              		.loc 1 957 13
 2776 0022 488B45E0 		movq	-32(%rbp), %rax
 2777 0026 8B4038   		movl	56(%rax), %eax
 2778              		.loc 1 957 8
 2779 0029 83F878   		cmpl	$120, %eax
 2780 002c 740C     		je	.L195
 2781              		.loc 1 957 50 discriminator 1
 2782 002e 488B45E0 		movq	-32(%rbp), %rax
 2783 0032 8B4038   		movl	56(%rax), %eax
 2784              		.loc 1 957 43 discriminator 1
 2785 0035 83F870   		cmpl	$112, %eax
 2786 0038 7570     		jne	.L196
 2787              	.L195:
 958:/home/xingli/share/LiteOS_Lab/secure_c/src/input.inl ****         if (SECUREC_IS_XDIGIT(ch)) {
 2788              		.loc 1 958 13
 2789 003a 8B45EC   		movl	-20(%rbp), %eax
 2790 003d 2500FF00 		andl	$65280, %eax
 2790      00
 2791              		.loc 1 958 12
 2792 0042 85C0     		testl	%eax, %eax
 2793 0044 755A     		jne	.L197
 2794              		.loc 1 958 13 discriminator 1
 2795 0046 E8000000 		call	__ctype_b_loc@PLT
 2795      00
 2796 004b 488B00   		movq	(%rax), %rax
 2797 004e 8B55EC   		movl	-20(%rbp), %edx
 2798 0051 4863D2   		movslq	%edx, %rdx
 2799 0054 0FB6D2   		movzbl	%dl, %edx
 2800 0057 4801D2   		addq	%rdx, %rdx
 2801 005a 4801D0   		addq	%rdx, %rax
 2802 005d 0FB700   		movzwl	(%rax), %eax
 2803 0060 0FB7C0   		movzwl	%ax, %eax
 2804 0063 25001000 		andl	$4096, %eax
 2804      00
 2805 0068 85C0     		testl	%eax, %eax
 2806 006a 7434     		je	.L197
 959:/home/xingli/share/LiteOS_Lab/secure_c/src/input.inl ****             (*g_secDecodeNumberHex[spec->isInt64Arg])(ch, spec);
 2807              		.loc 1 959 40
 2808 006c 488B45E0 		movq	-32(%rbp), %rax
GAS LISTING /tmp/cc1ytava.s 			page 73


 2809 0070 8B4014   		movl	20(%rax), %eax
 2810              		.loc 1 959 14
 2811 0073 4898     		cltq
 2812 0075 488D14C5 		leaq	0(,%rax,8), %rdx
 2812      00000000 
 2813 007d 488D0500 		leaq	g_secDecodeNumberHex(%rip), %rax
 2813      000000
 2814 0084 488B0C02 		movq	(%rdx,%rax), %rcx
 2815 0088 488B55E0 		movq	-32(%rbp), %rdx
 2816 008c 8B45EC   		movl	-20(%rbp), %eax
 2817 008f 4889D6   		movq	%rdx, %rsi
 2818 0092 89C7     		movl	%eax, %edi
 2819 0094 FFD1     		call	*%rcx
 2820              	.LVL0:
 960:/home/xingli/share/LiteOS_Lab/secure_c/src/input.inl ****         } else {
 961:/home/xingli/share/LiteOS_Lab/secure_c/src/input.inl ****             return -1;
 962:/home/xingli/share/LiteOS_Lab/secure_c/src/input.inl ****         }
 963:/home/xingli/share/LiteOS_Lab/secure_c/src/input.inl ****         return 0;
 2821              		.loc 1 963 16
 2822 0096 B8000000 		movl	$0, %eax
 2822      00
 2823 009b E9B70000 		jmp	.L198
 2823      00
 2824              	.L197:
 961:/home/xingli/share/LiteOS_Lab/secure_c/src/input.inl ****         }
 2825              		.loc 1 961 20
 2826 00a0 B8FFFFFF 		movl	$-1, %eax
 2826      FF
 2827 00a5 E9AD0000 		jmp	.L198
 2827      00
 2828              	.L196:
 964:/home/xingli/share/LiteOS_Lab/secure_c/src/input.inl ****     }
 965:/home/xingli/share/LiteOS_Lab/secure_c/src/input.inl ****     if (!(SECUREC_IS_DIGIT(ch))) {
 2829              		.loc 1 965 11
 2830 00aa 8B45EC   		movl	-20(%rbp), %eax
 2831 00ad 2500FF00 		andl	$65280, %eax
 2831      00
 2832              		.loc 1 965 8
 2833 00b2 85C0     		testl	%eax, %eax
 2834 00b4 7526     		jne	.L199
 2835              		.loc 1 965 11 discriminator 1
 2836 00b6 E8000000 		call	__ctype_b_loc@PLT
 2836      00
 2837 00bb 488B00   		movq	(%rax), %rax
 2838 00be 8B55EC   		movl	-20(%rbp), %edx
 2839 00c1 4863D2   		movslq	%edx, %rdx
 2840 00c4 0FB6D2   		movzbl	%dl, %edx
 2841 00c7 4801D2   		addq	%rdx, %rdx
 2842 00ca 4801D0   		addq	%rdx, %rax
 2843 00cd 0FB700   		movzwl	(%rax), %eax
 2844 00d0 0FB7C0   		movzwl	%ax, %eax
 2845 00d3 25000800 		andl	$2048, %eax
 2845      00
 2846              		.loc 1 965 9 discriminator 1
 2847 00d8 85C0     		testl	%eax, %eax
 2848 00da 7507     		jne	.L200
 2849              	.L199:
GAS LISTING /tmp/cc1ytava.s 			page 74


 966:/home/xingli/share/LiteOS_Lab/secure_c/src/input.inl ****         return -1;
 2850              		.loc 1 966 16
 2851 00dc B8FFFFFF 		movl	$-1, %eax
 2851      FF
 2852 00e1 EB74     		jmp	.L198
 2853              	.L200:
 967:/home/xingli/share/LiteOS_Lab/secure_c/src/input.inl ****     }
 968:/home/xingli/share/LiteOS_Lab/secure_c/src/input.inl ****     if (spec->comChr == SECUREC_CHAR('o')) {
 2854              		.loc 1 968 13
 2855 00e3 488B45E0 		movq	-32(%rbp), %rax
 2856 00e7 8B4038   		movl	56(%rax), %eax
 2857              		.loc 1 968 8
 2858 00ea 83F86F   		cmpl	$111, %eax
 2859 00ed 7539     		jne	.L201
 969:/home/xingli/share/LiteOS_Lab/secure_c/src/input.inl ****         if (ch < SECUREC_CHAR('8')) {
 2860              		.loc 1 969 12
 2861 00ef 837DEC37 		cmpl	$55, -20(%rbp)
 2862 00f3 772C     		ja	.L202
 970:/home/xingli/share/LiteOS_Lab/secure_c/src/input.inl ****             (*g_secDecodeNumberOctal[spec->isInt64Arg])(ch, spec);
 2863              		.loc 1 970 42
 2864 00f5 488B45E0 		movq	-32(%rbp), %rax
 2865 00f9 8B4014   		movl	20(%rax), %eax
 2866              		.loc 1 970 14
 2867 00fc 4898     		cltq
 2868 00fe 488D14C5 		leaq	0(,%rax,8), %rdx
 2868      00000000 
 2869 0106 488D0500 		leaq	g_secDecodeNumberOctal(%rip), %rax
 2869      000000
 2870 010d 488B0C02 		movq	(%rdx,%rax), %rcx
 2871 0111 488B55E0 		movq	-32(%rbp), %rdx
 2872 0115 8B45EC   		movl	-20(%rbp), %eax
 2873 0118 4889D6   		movq	%rdx, %rsi
 2874 011b 89C7     		movl	%eax, %edi
 2875 011d FFD1     		call	*%rcx
 2876              	.LVL1:
 2877 011f EB31     		jmp	.L203
 2878              	.L202:
 971:/home/xingli/share/LiteOS_Lab/secure_c/src/input.inl ****         } else {
 972:/home/xingli/share/LiteOS_Lab/secure_c/src/input.inl ****             return -1;
 2879              		.loc 1 972 20
 2880 0121 B8FFFFFF 		movl	$-1, %eax
 2880      FF
 2881 0126 EB2F     		jmp	.L198
 2882              	.L201:
 973:/home/xingli/share/LiteOS_Lab/secure_c/src/input.inl ****         }
 974:/home/xingli/share/LiteOS_Lab/secure_c/src/input.inl ****     } else { /* comChr is 'd' */
 975:/home/xingli/share/LiteOS_Lab/secure_c/src/input.inl ****         (*g_secDecodeNumberDecimal[spec->isInt64Arg])(ch, spec);
 2883              		.loc 1 975 40
 2884 0128 488B45E0 		movq	-32(%rbp), %rax
 2885 012c 8B4014   		movl	20(%rax), %eax
 2886              		.loc 1 975 10
 2887 012f 4898     		cltq
 2888 0131 488D14C5 		leaq	0(,%rax,8), %rdx
 2888      00000000 
 2889 0139 488D0500 		leaq	g_secDecodeNumberDecimal(%rip), %rax
 2889      000000
 2890 0140 488B0C02 		movq	(%rdx,%rax), %rcx
GAS LISTING /tmp/cc1ytava.s 			page 75


 2891 0144 488B55E0 		movq	-32(%rbp), %rdx
 2892 0148 8B45EC   		movl	-20(%rbp), %eax
 2893 014b 4889D6   		movq	%rdx, %rsi
 2894 014e 89C7     		movl	%eax, %edi
 2895 0150 FFD1     		call	*%rcx
 2896              	.LVL2:
 2897              	.L203:
 976:/home/xingli/share/LiteOS_Lab/secure_c/src/input.inl ****     }
 977:/home/xingli/share/LiteOS_Lab/secure_c/src/input.inl ****     return 0;
 2898              		.loc 1 977 12
 2899 0152 B8000000 		movl	$0, %eax
 2899      00
 2900              	.L198:
 978:/home/xingli/share/LiteOS_Lab/secure_c/src/input.inl **** }
 2901              		.loc 1 978 1
 2902 0157 488B75F8 		movq	-8(%rbp), %rsi
 2903 015b 64483334 		xorq	%fs:40, %rsi
 2903      25280000 
 2903      00
 2904 0164 7405     		je	.L204
 2905 0166 E8000000 		call	__stack_chk_fail@PLT
 2905      00
 2906              	.L204:
 2907 016b C9       		leave
 2908              	.LCFI83:
 2909              		.cfi_def_cfa 7, 8
 2910 016c C3       		ret
 2911              		.cfi_endproc
 2912              	.LFE33:
 2914              		.section	.text.SecFinishNumber,"ax",@progbits
 2916              	SecFinishNumber:
 2917              	.LFB34:
 979:/home/xingli/share/LiteOS_Lab/secure_c/src/input.inl **** 
 980:/home/xingli/share/LiteOS_Lab/secure_c/src/input.inl **** 
 981:/home/xingli/share/LiteOS_Lab/secure_c/src/input.inl **** /*
 982:/home/xingli/share/LiteOS_Lab/secure_c/src/input.inl ****  * Complete the final 32-bit integer formatted input
 983:/home/xingli/share/LiteOS_Lab/secure_c/src/input.inl ****  */
 984:/home/xingli/share/LiteOS_Lab/secure_c/src/input.inl **** static void SecFinishNumber(SecScanSpec *spec)
 985:/home/xingli/share/LiteOS_Lab/secure_c/src/input.inl **** {
 2918              		.loc 1 985 1
 2919              		.cfi_startproc
 2920 0000 F30F1EFA 		endbr64
 2921 0004 55       		pushq	%rbp
 2922              	.LCFI84:
 2923              		.cfi_def_cfa_offset 16
 2924              		.cfi_offset 6, -16
 2925 0005 4889E5   		movq	%rsp, %rbp
 2926              	.LCFI85:
 2927              		.cfi_def_cfa_register 6
 2928 0008 4883EC20 		subq	$32, %rsp
 2929 000c 48897DE8 		movq	%rdi, -24(%rbp)
 2930              		.loc 1 985 1
 2931 0010 64488B04 		movq	%fs:40, %rax
 2931      25280000 
 2931      00
 2932 0019 488945F8 		movq	%rax, -8(%rbp)
 2933 001d 31C0     		xorl	%eax, %eax
GAS LISTING /tmp/cc1ytava.s 			page 76


 986:/home/xingli/share/LiteOS_Lab/secure_c/src/input.inl **** #if (defined(SECUREC_COMPATIBLE_LINUX_FORMAT) && !(defined(SECUREC_ON_UNIX)))
 987:/home/xingli/share/LiteOS_Lab/secure_c/src/input.inl ****     if (spec->negative != 0) {
 2934              		.loc 1 987 13
 2935 001f 488B45E8 		movq	-24(%rbp), %rax
 2936 0023 8B4018   		movl	24(%rax), %eax
 2937              		.loc 1 987 8
 2938 0026 85C0     		testl	%eax, %eax
 2939 0028 7440     		je	.L206
 988:/home/xingli/share/LiteOS_Lab/secure_c/src/input.inl ****         if (spec->numberWidth == SECUREC_NUM_WIDTH_INT) {
 2940              		.loc 1 988 17
 2941 002a 488B45E8 		movq	-24(%rbp), %rax
 2942 002e 8B4010   		movl	16(%rax), %eax
 2943              		.loc 1 988 12
 2944 0031 83F801   		cmpl	$1, %eax
 2945 0034 7517     		jne	.L207
 989:/home/xingli/share/LiteOS_Lab/secure_c/src/input.inl ****             SecFinishNumberNegativeInt(spec->oriComChr, spec);
 2946              		.loc 1 989 13
 2947 0036 488B45E8 		movq	-24(%rbp), %rax
 2948 003a 8B403C   		movl	60(%rax), %eax
 2949 003d 488B55E8 		movq	-24(%rbp), %rdx
 2950 0041 4889D6   		movq	%rdx, %rsi
 2951 0044 89C7     		movl	%eax, %edi
 2952 0046 E8000000 		call	SecFinishNumberNegativeInt
 2952      00
 990:/home/xingli/share/LiteOS_Lab/secure_c/src/input.inl ****         } else {
 991:/home/xingli/share/LiteOS_Lab/secure_c/src/input.inl ****             SecFinishNumberNegativeOther(spec->oriComChr, spec->numberWidth, spec);
 992:/home/xingli/share/LiteOS_Lab/secure_c/src/input.inl ****         }
 993:/home/xingli/share/LiteOS_Lab/secure_c/src/input.inl ****     } else {
 994:/home/xingli/share/LiteOS_Lab/secure_c/src/input.inl ****         if (spec->numberWidth == SECUREC_NUM_WIDTH_INT) {
 995:/home/xingli/share/LiteOS_Lab/secure_c/src/input.inl ****             SecFinishNumberPositiveInt(spec->oriComChr, spec);
 996:/home/xingli/share/LiteOS_Lab/secure_c/src/input.inl ****         } else {
 997:/home/xingli/share/LiteOS_Lab/secure_c/src/input.inl ****             SecFinishNumberPositiveOther(spec->oriComChr, spec->numberWidth, spec);
 998:/home/xingli/share/LiteOS_Lab/secure_c/src/input.inl ****         }
 999:/home/xingli/share/LiteOS_Lab/secure_c/src/input.inl ****     }
1000:/home/xingli/share/LiteOS_Lab/secure_c/src/input.inl **** #else
1001:/home/xingli/share/LiteOS_Lab/secure_c/src/input.inl ****     if (spec->negative != 0) {
1002:/home/xingli/share/LiteOS_Lab/secure_c/src/input.inl **** #if defined(__hpux)
1003:/home/xingli/share/LiteOS_Lab/secure_c/src/input.inl ****         if (spec->oriComChr != SECUREC_CHAR('p')) {
1004:/home/xingli/share/LiteOS_Lab/secure_c/src/input.inl ****             spec->number = (unsigned long)(-(long)spec->number);
1005:/home/xingli/share/LiteOS_Lab/secure_c/src/input.inl ****         }
1006:/home/xingli/share/LiteOS_Lab/secure_c/src/input.inl **** #else
1007:/home/xingli/share/LiteOS_Lab/secure_c/src/input.inl ****         spec->number = (unsigned long)(-(long)spec->number);
1008:/home/xingli/share/LiteOS_Lab/secure_c/src/input.inl **** #endif
1009:/home/xingli/share/LiteOS_Lab/secure_c/src/input.inl ****     }
1010:/home/xingli/share/LiteOS_Lab/secure_c/src/input.inl **** #endif
1011:/home/xingli/share/LiteOS_Lab/secure_c/src/input.inl ****     return;
 2953              		.loc 1 1011 5
 2954 004b EB5C     		jmp	.L205
 2955              	.L207:
 991:/home/xingli/share/LiteOS_Lab/secure_c/src/input.inl ****         }
 2956              		.loc 1 991 13
 2957 004d 488B45E8 		movq	-24(%rbp), %rax
 2958 0051 8B4810   		movl	16(%rax), %ecx
 2959 0054 488B45E8 		movq	-24(%rbp), %rax
 2960 0058 8B403C   		movl	60(%rax), %eax
 2961 005b 488B55E8 		movq	-24(%rbp), %rdx
 2962 005f 89CE     		movl	%ecx, %esi
GAS LISTING /tmp/cc1ytava.s 			page 77


 2963 0061 89C7     		movl	%eax, %edi
 2964 0063 E8000000 		call	SecFinishNumberNegativeOther
 2964      00
 2965              		.loc 1 1011 5
 2966 0068 EB3F     		jmp	.L205
 2967              	.L206:
 994:/home/xingli/share/LiteOS_Lab/secure_c/src/input.inl ****             SecFinishNumberPositiveInt(spec->oriComChr, spec);
 2968              		.loc 1 994 17
 2969 006a 488B45E8 		movq	-24(%rbp), %rax
 2970 006e 8B4010   		movl	16(%rax), %eax
 994:/home/xingli/share/LiteOS_Lab/secure_c/src/input.inl ****             SecFinishNumberPositiveInt(spec->oriComChr, spec);
 2971              		.loc 1 994 12
 2972 0071 83F801   		cmpl	$1, %eax
 2973 0074 7517     		jne	.L209
 995:/home/xingli/share/LiteOS_Lab/secure_c/src/input.inl ****         } else {
 2974              		.loc 1 995 13
 2975 0076 488B45E8 		movq	-24(%rbp), %rax
 2976 007a 8B403C   		movl	60(%rax), %eax
 2977 007d 488B55E8 		movq	-24(%rbp), %rdx
 2978 0081 4889D6   		movq	%rdx, %rsi
 2979 0084 89C7     		movl	%eax, %edi
 2980 0086 E8000000 		call	SecFinishNumberPositiveInt
 2980      00
 2981              		.loc 1 1011 5
 2982 008b EB1C     		jmp	.L205
 2983              	.L209:
 997:/home/xingli/share/LiteOS_Lab/secure_c/src/input.inl ****         }
 2984              		.loc 1 997 13
 2985 008d 488B45E8 		movq	-24(%rbp), %rax
 2986 0091 8B4810   		movl	16(%rax), %ecx
 2987 0094 488B45E8 		movq	-24(%rbp), %rax
 2988 0098 8B403C   		movl	60(%rax), %eax
 2989 009b 488B55E8 		movq	-24(%rbp), %rdx
 2990 009f 89CE     		movl	%ecx, %esi
 2991 00a1 89C7     		movl	%eax, %edi
 2992 00a3 E8000000 		call	SecFinishNumberPositiveOther
 2992      00
 2993              		.loc 1 1011 5
 2994 00a8 90       		nop
 2995              	.L205:
1012:/home/xingli/share/LiteOS_Lab/secure_c/src/input.inl **** }
 2996              		.loc 1 1012 1
 2997 00a9 488B45F8 		movq	-8(%rbp), %rax
 2998 00ad 64483304 		xorq	%fs:40, %rax
 2998      25280000 
 2998      00
 2999 00b6 7405     		je	.L211
 3000 00b8 E8000000 		call	__stack_chk_fail@PLT
 3000      00
 3001              	.L211:
 3002 00bd C9       		leave
 3003              	.LCFI86:
 3004              		.cfi_def_cfa 7, 8
 3005 00be C3       		ret
 3006              		.cfi_endproc
 3007              	.LFE34:
 3009              		.section	.text.SecFinishNumber64,"ax",@progbits
GAS LISTING /tmp/cc1ytava.s 			page 78


 3011              	SecFinishNumber64:
 3012              	.LFB35:
1013:/home/xingli/share/LiteOS_Lab/secure_c/src/input.inl **** 
1014:/home/xingli/share/LiteOS_Lab/secure_c/src/input.inl **** /*
1015:/home/xingli/share/LiteOS_Lab/secure_c/src/input.inl ****  * Complete the final 64-bit integer formatted input
1016:/home/xingli/share/LiteOS_Lab/secure_c/src/input.inl ****  */
1017:/home/xingli/share/LiteOS_Lab/secure_c/src/input.inl **** static void SecFinishNumber64(SecScanSpec *spec)
1018:/home/xingli/share/LiteOS_Lab/secure_c/src/input.inl **** {
 3013              		.loc 1 1018 1
 3014              		.cfi_startproc
 3015 0000 F30F1EFA 		endbr64
 3016 0004 55       		pushq	%rbp
 3017              	.LCFI87:
 3018              		.cfi_def_cfa_offset 16
 3019              		.cfi_offset 6, -16
 3020 0005 4889E5   		movq	%rsp, %rbp
 3021              	.LCFI88:
 3022              		.cfi_def_cfa_register 6
 3023 0008 4883EC20 		subq	$32, %rsp
 3024 000c 48897DE8 		movq	%rdi, -24(%rbp)
 3025              		.loc 1 1018 1
 3026 0010 64488B04 		movq	%fs:40, %rax
 3026      25280000 
 3026      00
 3027 0019 488945F8 		movq	%rax, -8(%rbp)
 3028 001d 31C0     		xorl	%eax, %eax
1019:/home/xingli/share/LiteOS_Lab/secure_c/src/input.inl **** #if (defined(SECUREC_COMPATIBLE_LINUX_FORMAT) && !(defined(SECUREC_ON_UNIX)))
1020:/home/xingli/share/LiteOS_Lab/secure_c/src/input.inl ****     if (spec->negative != 0) {
 3029              		.loc 1 1020 13
 3030 001f 488B45E8 		movq	-24(%rbp), %rax
 3031 0023 8B4018   		movl	24(%rax), %eax
 3032              		.loc 1 1020 8
 3033 0026 85C0     		testl	%eax, %eax
 3034 0028 0F84A600 		je	.L213
 3034      0000
1021:/home/xingli/share/LiteOS_Lab/secure_c/src/input.inl ****         if (spec->oriComChr == (SECUREC_CHAR('d')) || (spec->oriComChr == SECUREC_CHAR('i'))) {
 3035              		.loc 1 1021 17
 3036 002e 488B45E8 		movq	-24(%rbp), %rax
 3037 0032 8B403C   		movl	60(%rax), %eax
 3038              		.loc 1 1021 12
 3039 0035 83F864   		cmpl	$100, %eax
 3040 0038 740C     		je	.L214
 3041              		.loc 1 1021 60 discriminator 1
 3042 003a 488B45E8 		movq	-24(%rbp), %rax
 3043 003e 8B403C   		movl	60(%rax), %eax
 3044              		.loc 1 1021 52 discriminator 1
 3045 0041 83F869   		cmpl	$105, %eax
 3046 0044 7562     		jne	.L215
 3047              	.L214:
1022:/home/xingli/share/LiteOS_Lab/secure_c/src/input.inl ****             if (spec->number64 > SECUREC_MIN_64BITS_NEG_VALUE) {
 3048              		.loc 1 1022 21
 3049 0046 488B45E8 		movq	-24(%rbp), %rax
 3050 004a 488B00   		movq	(%rax), %rax
 3051              		.loc 1 1022 16
 3052 004d 48BA0000 		movabsq	$-9223372036854775808, %rdx
 3052      00000000 
 3052      0080
GAS LISTING /tmp/cc1ytava.s 			page 79


 3053 0057 4839D0   		cmpq	%rdx, %rax
 3054 005a 7613     		jbe	.L216
1023:/home/xingli/share/LiteOS_Lab/secure_c/src/input.inl ****                 spec->number64 = SECUREC_MIN_64BITS_NEG_VALUE;
 3055              		.loc 1 1023 32
 3056 005c 488B45E8 		movq	-24(%rbp), %rax
 3057 0060 48B90000 		movabsq	$-9223372036854775808, %rcx
 3057      00000000 
 3057      0080
 3058 006a 488908   		movq	%rcx, (%rax)
 3059 006d EB14     		jmp	.L217
 3060              	.L216:
1024:/home/xingli/share/LiteOS_Lab/secure_c/src/input.inl ****             } else {
1025:/home/xingli/share/LiteOS_Lab/secure_c/src/input.inl ****                 spec->number64 = (SecUnsignedInt64)(-(SecInt64)spec->number64);
 3061              		.loc 1 1025 68
 3062 006f 488B45E8 		movq	-24(%rbp), %rax
 3063 0073 488B00   		movq	(%rax), %rax
 3064              		.loc 1 1025 53
 3065 0076 48F7D8   		negq	%rax
 3066              		.loc 1 1025 34
 3067 0079 4889C2   		movq	%rax, %rdx
 3068              		.loc 1 1025 32
 3069 007c 488B45E8 		movq	-24(%rbp), %rax
 3070 0080 488910   		movq	%rdx, (%rax)
 3071              	.L217:
1026:/home/xingli/share/LiteOS_Lab/secure_c/src/input.inl ****             }
1027:/home/xingli/share/LiteOS_Lab/secure_c/src/input.inl ****             if (spec->beyondMax != 0) {
 3072              		.loc 1 1027 21
 3073 0083 488B45E8 		movq	-24(%rbp), %rax
 3074 0087 8B401C   		movl	28(%rax), %eax
 3075              		.loc 1 1027 16
 3076 008a 85C0     		testl	%eax, %eax
 3077 008c 0F84AB00 		je	.L220
 3077      0000
1028:/home/xingli/share/LiteOS_Lab/secure_c/src/input.inl ****                 spec->number64 = SECUREC_MIN_64BITS_NEG_VALUE;
 3078              		.loc 1 1028 32
 3079 0092 488B45E8 		movq	-24(%rbp), %rax
 3080 0096 48BE0000 		movabsq	$-9223372036854775808, %rsi
 3080      00000000 
 3080      0080
 3081 00a0 488930   		movq	%rsi, (%rax)
1027:/home/xingli/share/LiteOS_Lab/secure_c/src/input.inl ****                 spec->number64 = SECUREC_MIN_64BITS_NEG_VALUE;
 3082              		.loc 1 1027 16
 3083 00a3 E9950000 		jmp	.L220
 3083      00
 3084              	.L215:
1029:/home/xingli/share/LiteOS_Lab/secure_c/src/input.inl ****             }
1030:/home/xingli/share/LiteOS_Lab/secure_c/src/input.inl ****         } else {                /* o, u, x, X, p */
1031:/home/xingli/share/LiteOS_Lab/secure_c/src/input.inl ****             spec->number64 = (SecUnsignedInt64)(-(SecInt64)spec->number64);
 3085              		.loc 1 1031 64
 3086 00a8 488B45E8 		movq	-24(%rbp), %rax
 3087 00ac 488B00   		movq	(%rax), %rax
 3088              		.loc 1 1031 49
 3089 00af 48F7D8   		negq	%rax
 3090              		.loc 1 1031 30
 3091 00b2 4889C2   		movq	%rax, %rdx
 3092              		.loc 1 1031 28
 3093 00b5 488B45E8 		movq	-24(%rbp), %rax
GAS LISTING /tmp/cc1ytava.s 			page 80


 3094 00b9 488910   		movq	%rdx, (%rax)
1032:/home/xingli/share/LiteOS_Lab/secure_c/src/input.inl ****             if (spec->beyondMax != 0) {
 3095              		.loc 1 1032 21
 3096 00bc 488B45E8 		movq	-24(%rbp), %rax
 3097 00c0 8B401C   		movl	28(%rax), %eax
 3098              		.loc 1 1032 16
 3099 00c3 85C0     		testl	%eax, %eax
 3100 00c5 7477     		je	.L227
1033:/home/xingli/share/LiteOS_Lab/secure_c/src/input.inl ****                 spec->number64 = SECUREC_MAX_64BITS_VALUE;
 3101              		.loc 1 1033 32
 3102 00c7 488B45E8 		movq	-24(%rbp), %rax
 3103 00cb 48C700FF 		movq	$-1, (%rax)
 3103      FFFFFF
1034:/home/xingli/share/LiteOS_Lab/secure_c/src/input.inl ****             }
1035:/home/xingli/share/LiteOS_Lab/secure_c/src/input.inl ****         }
1036:/home/xingli/share/LiteOS_Lab/secure_c/src/input.inl ****     } else {
1037:/home/xingli/share/LiteOS_Lab/secure_c/src/input.inl ****         if ((spec->oriComChr == SECUREC_CHAR('d')) || (spec->oriComChr == SECUREC_CHAR('i'))) {
1038:/home/xingli/share/LiteOS_Lab/secure_c/src/input.inl ****             if (spec->number64 > SECUREC_MAX_64BITS_POS_VALUE) {
1039:/home/xingli/share/LiteOS_Lab/secure_c/src/input.inl ****                 spec->number64 = SECUREC_MAX_64BITS_POS_VALUE;
1040:/home/xingli/share/LiteOS_Lab/secure_c/src/input.inl ****             }
1041:/home/xingli/share/LiteOS_Lab/secure_c/src/input.inl ****             if (spec->beyondMax != 0) {
1042:/home/xingli/share/LiteOS_Lab/secure_c/src/input.inl ****                 spec->number64 = SECUREC_MAX_64BITS_POS_VALUE;
1043:/home/xingli/share/LiteOS_Lab/secure_c/src/input.inl ****             }
1044:/home/xingli/share/LiteOS_Lab/secure_c/src/input.inl ****         } else {
1045:/home/xingli/share/LiteOS_Lab/secure_c/src/input.inl ****             if (spec->beyondMax != 0) {
1046:/home/xingli/share/LiteOS_Lab/secure_c/src/input.inl ****                 spec->number64 = SECUREC_MAX_64BITS_VALUE;
1047:/home/xingli/share/LiteOS_Lab/secure_c/src/input.inl ****             }
1048:/home/xingli/share/LiteOS_Lab/secure_c/src/input.inl ****         }
1049:/home/xingli/share/LiteOS_Lab/secure_c/src/input.inl ****     }
1050:/home/xingli/share/LiteOS_Lab/secure_c/src/input.inl **** #else
1051:/home/xingli/share/LiteOS_Lab/secure_c/src/input.inl ****     if (spec->negative != 0) {
1052:/home/xingli/share/LiteOS_Lab/secure_c/src/input.inl **** #if defined(__hpux)
1053:/home/xingli/share/LiteOS_Lab/secure_c/src/input.inl ****         if (spec->oriComChr != SECUREC_CHAR('p')) {
1054:/home/xingli/share/LiteOS_Lab/secure_c/src/input.inl ****             spec->number64 = (SecUnsignedInt64)(-(SecInt64)spec->number64);
1055:/home/xingli/share/LiteOS_Lab/secure_c/src/input.inl ****         }
1056:/home/xingli/share/LiteOS_Lab/secure_c/src/input.inl **** #else
1057:/home/xingli/share/LiteOS_Lab/secure_c/src/input.inl ****         spec->number64 = (SecUnsignedInt64)(-(SecInt64)spec->number64);
1058:/home/xingli/share/LiteOS_Lab/secure_c/src/input.inl **** #endif
1059:/home/xingli/share/LiteOS_Lab/secure_c/src/input.inl ****     }
1060:/home/xingli/share/LiteOS_Lab/secure_c/src/input.inl **** #endif
1061:/home/xingli/share/LiteOS_Lab/secure_c/src/input.inl ****     return;
 3104              		.loc 1 1061 5
 3105 00d2 EB6A     		jmp	.L227
 3106              	.L213:
1037:/home/xingli/share/LiteOS_Lab/secure_c/src/input.inl ****             if (spec->number64 > SECUREC_MAX_64BITS_POS_VALUE) {
 3107              		.loc 1 1037 18
 3108 00d4 488B45E8 		movq	-24(%rbp), %rax
 3109 00d8 8B403C   		movl	60(%rax), %eax
1037:/home/xingli/share/LiteOS_Lab/secure_c/src/input.inl ****             if (spec->number64 > SECUREC_MAX_64BITS_POS_VALUE) {
 3110              		.loc 1 1037 12
 3111 00db 83F864   		cmpl	$100, %eax
 3112 00de 740C     		je	.L221
1037:/home/xingli/share/LiteOS_Lab/secure_c/src/input.inl ****             if (spec->number64 > SECUREC_MAX_64BITS_POS_VALUE) {
 3113              		.loc 1 1037 60 discriminator 1
 3114 00e0 488B45E8 		movq	-24(%rbp), %rax
 3115 00e4 8B403C   		movl	60(%rax), %eax
1037:/home/xingli/share/LiteOS_Lab/secure_c/src/input.inl ****             if (spec->number64 > SECUREC_MAX_64BITS_POS_VALUE) {
GAS LISTING /tmp/cc1ytava.s 			page 81


 3116              		.loc 1 1037 52 discriminator 1
 3117 00e7 83F869   		cmpl	$105, %eax
 3118 00ea 753B     		jne	.L222
 3119              	.L221:
1038:/home/xingli/share/LiteOS_Lab/secure_c/src/input.inl ****                 spec->number64 = SECUREC_MAX_64BITS_POS_VALUE;
 3120              		.loc 1 1038 21
 3121 00ec 488B45E8 		movq	-24(%rbp), %rax
 3122 00f0 488B00   		movq	(%rax), %rax
1038:/home/xingli/share/LiteOS_Lab/secure_c/src/input.inl ****                 spec->number64 = SECUREC_MAX_64BITS_POS_VALUE;
 3123              		.loc 1 1038 16
 3124 00f3 4885C0   		testq	%rax, %rax
 3125 00f6 7911     		jns	.L223
1039:/home/xingli/share/LiteOS_Lab/secure_c/src/input.inl ****             }
 3126              		.loc 1 1039 32
 3127 00f8 488B45E8 		movq	-24(%rbp), %rax
 3128 00fc 48BFFFFF 		movabsq	$9223372036854775807, %rdi
 3128      FFFFFFFF 
 3128      FF7F
 3129 0106 488938   		movq	%rdi, (%rax)
 3130              	.L223:
1041:/home/xingli/share/LiteOS_Lab/secure_c/src/input.inl ****                 spec->number64 = SECUREC_MAX_64BITS_POS_VALUE;
 3131              		.loc 1 1041 21
 3132 0109 488B45E8 		movq	-24(%rbp), %rax
 3133 010d 8B401C   		movl	28(%rax), %eax
1041:/home/xingli/share/LiteOS_Lab/secure_c/src/input.inl ****                 spec->number64 = SECUREC_MAX_64BITS_POS_VALUE;
 3134              		.loc 1 1041 16
 3135 0110 85C0     		testl	%eax, %eax
 3136 0112 7429     		je	.L220
1042:/home/xingli/share/LiteOS_Lab/secure_c/src/input.inl ****             }
 3137              		.loc 1 1042 32
 3138 0114 488B45E8 		movq	-24(%rbp), %rax
 3139 0118 48B9FFFF 		movabsq	$9223372036854775807, %rcx
 3139      FFFFFFFF 
 3139      FF7F
 3140 0122 488908   		movq	%rcx, (%rax)
1041:/home/xingli/share/LiteOS_Lab/secure_c/src/input.inl ****                 spec->number64 = SECUREC_MAX_64BITS_POS_VALUE;
 3141              		.loc 1 1041 16
 3142 0125 EB16     		jmp	.L220
 3143              	.L222:
1045:/home/xingli/share/LiteOS_Lab/secure_c/src/input.inl ****                 spec->number64 = SECUREC_MAX_64BITS_VALUE;
 3144              		.loc 1 1045 21
 3145 0127 488B45E8 		movq	-24(%rbp), %rax
 3146 012b 8B401C   		movl	28(%rax), %eax
1045:/home/xingli/share/LiteOS_Lab/secure_c/src/input.inl ****                 spec->number64 = SECUREC_MAX_64BITS_VALUE;
 3147              		.loc 1 1045 16
 3148 012e 85C0     		testl	%eax, %eax
 3149 0130 740C     		je	.L227
1046:/home/xingli/share/LiteOS_Lab/secure_c/src/input.inl ****             }
 3150              		.loc 1 1046 32
 3151 0132 488B45E8 		movq	-24(%rbp), %rax
 3152 0136 48C700FF 		movq	$-1, (%rax)
 3152      FFFFFF
 3153              	.L220:
 3154              		.loc 1 1061 5 discriminator 2
 3155 013d 90       		nop
 3156              	.L227:
 3157              		.loc 1 1061 5 is_stmt 0
GAS LISTING /tmp/cc1ytava.s 			page 82


 3158 013e 90       		nop
1062:/home/xingli/share/LiteOS_Lab/secure_c/src/input.inl **** }
 3159              		.loc 1 1062 1 is_stmt 1
 3160 013f 488B45F8 		movq	-8(%rbp), %rax
 3161 0143 64483304 		xorq	%fs:40, %rax
 3161      25280000 
 3161      00
 3162 014c 7405     		je	.L226
 3163 014e E8000000 		call	__stack_chk_fail@PLT
 3163      00
 3164              	.L226:
 3165 0153 C9       		leave
 3166              	.LCFI89:
 3167              		.cfi_def_cfa 7, 8
 3168 0154 C3       		ret
 3169              		.cfi_endproc
 3170              	.LFE35:
 3172              		.section	.data.rel.local.g_secFinishNumber,"aw"
 3173              		.align 16
 3176              	g_secFinishNumber:
 3177 0000 00000000 		.quad	SecFinishNumber
 3177      00000000 
 3178 0008 00000000 		.quad	SecFinishNumber64
 3178      00000000 
 3179              		.section	.text.SecSeekStream,"ax",@progbits
 3181              	SecSeekStream:
 3182              	.LFB36:
1063:/home/xingli/share/LiteOS_Lab/secure_c/src/input.inl **** static void (*g_secFinishNumber[SECUREC_DECODE_NUMBER_FUNC_NUM])(SecScanSpec *spec) = \
1064:/home/xingli/share/LiteOS_Lab/secure_c/src/input.inl ****     { SecFinishNumber, SecFinishNumber64 };
1065:/home/xingli/share/LiteOS_Lab/secure_c/src/input.inl **** 
1066:/home/xingli/share/LiteOS_Lab/secure_c/src/input.inl **** #if SECUREC_ENABLE_SCANF_FILE
1067:/home/xingli/share/LiteOS_Lab/secure_c/src/input.inl **** 
1068:/home/xingli/share/LiteOS_Lab/secure_c/src/input.inl **** /*
1069:/home/xingli/share/LiteOS_Lab/secure_c/src/input.inl ****  *  Adjust the pointer position of the file stream
1070:/home/xingli/share/LiteOS_Lab/secure_c/src/input.inl ****  */
1071:/home/xingli/share/LiteOS_Lab/secure_c/src/input.inl **** static void SecSeekStream(SecFileStream *stream)
1072:/home/xingli/share/LiteOS_Lab/secure_c/src/input.inl **** {
 3183              		.loc 1 1072 1
 3184              		.cfi_startproc
 3185 0000 F30F1EFA 		endbr64
 3186 0004 55       		pushq	%rbp
 3187              	.LCFI90:
 3188              		.cfi_def_cfa_offset 16
 3189              		.cfi_offset 6, -16
 3190 0005 4889E5   		movq	%rsp, %rbp
 3191              	.LCFI91:
 3192              		.cfi_def_cfa_register 6
 3193 0008 4883EC20 		subq	$32, %rsp
 3194 000c 48897DE8 		movq	%rdi, -24(%rbp)
 3195              		.loc 1 1072 1
 3196 0010 64488B04 		movq	%fs:40, %rax
 3196      25280000 
 3196      00
 3197 0019 488945F8 		movq	%rax, -8(%rbp)
 3198 001d 31C0     		xorl	%eax, %eax
1073:/home/xingli/share/LiteOS_Lab/secure_c/src/input.inl ****     if ((stream->count == 0) && feof(stream->pf)) {
 3199              		.loc 1 1073 16
GAS LISTING /tmp/cc1ytava.s 			page 83


 3200 001f 488B45E8 		movq	-24(%rbp), %rax
 3201 0023 8B4004   		movl	4(%rax), %eax
 3202              		.loc 1 1073 8
 3203 0026 85C0     		testl	%eax, %eax
 3204 0028 7521     		jne	.L229
 3205              		.loc 1 1073 33 discriminator 1
 3206 002a 488B45E8 		movq	-24(%rbp), %rax
 3207 002e 488B4018 		movq	24(%rax), %rax
 3208 0032 4889C7   		movq	%rax, %rdi
 3209 0035 E8000000 		call	feof@PLT
 3209      00
 3210              		.loc 1 1073 30 discriminator 1
 3211 003a 85C0     		testl	%eax, %eax
 3212 003c 740D     		je	.L229
1074:/home/xingli/share/LiteOS_Lab/secure_c/src/input.inl ****         /* file pointer at the end of file, don't need to seek back */
1075:/home/xingli/share/LiteOS_Lab/secure_c/src/input.inl ****         stream->base[0] = '\0';
 3213              		.loc 1 1075 15
 3214 003e 488B45E8 		movq	-24(%rbp), %rax
 3215 0042 488B4010 		movq	16(%rax), %rax
 3216              		.loc 1 1075 25
 3217 0046 C60000   		movb	$0, (%rax)
1076:/home/xingli/share/LiteOS_Lab/secure_c/src/input.inl ****         return;
 3218              		.loc 1 1076 9
 3219 0049 EB7B     		jmp	.L228
 3220              	.L229:
1077:/home/xingli/share/LiteOS_Lab/secure_c/src/input.inl ****     }
1078:/home/xingli/share/LiteOS_Lab/secure_c/src/input.inl ****     /* LSD seek to original position, bug fix 2014 1 21 */
1079:/home/xingli/share/LiteOS_Lab/secure_c/src/input.inl ****     if (fseek(stream->pf, stream->oriFilePos, SEEK_SET)) {
 3221              		.loc 1 1079 9
 3222 004b 488B45E8 		movq	-24(%rbp), %rax
 3223 004f 488B4820 		movq	32(%rax), %rcx
 3224 0053 488B45E8 		movq	-24(%rbp), %rax
 3225 0057 488B4018 		movq	24(%rax), %rax
 3226 005b BA000000 		movl	$0, %edx
 3226      00
 3227 0060 4889CE   		movq	%rcx, %rsi
 3228 0063 4889C7   		movq	%rax, %rdi
 3229 0066 E8000000 		call	fseek@PLT
 3229      00
 3230              		.loc 1 1079 8
 3231 006b 85C0     		testl	%eax, %eax
 3232 006d 740E     		je	.L231
1080:/home/xingli/share/LiteOS_Lab/secure_c/src/input.inl ****         /* seek failed, ignore it */
1081:/home/xingli/share/LiteOS_Lab/secure_c/src/input.inl ****         stream->oriFilePos = 0;
 3233              		.loc 1 1081 28
 3234 006f 488B45E8 		movq	-24(%rbp), %rax
 3235 0073 48C74020 		movq	$0, 32(%rax)
 3235      00000000 
1082:/home/xingli/share/LiteOS_Lab/secure_c/src/input.inl ****         return;
 3236              		.loc 1 1082 9
 3237 007b EB49     		jmp	.L228
 3238              	.L231:
1083:/home/xingli/share/LiteOS_Lab/secure_c/src/input.inl ****     }
1084:/home/xingli/share/LiteOS_Lab/secure_c/src/input.inl **** 
1085:/home/xingli/share/LiteOS_Lab/secure_c/src/input.inl ****     if (stream->fileRealRead > 0) { /* LSD bug fix. when file reach to EOF, don't seek back */
 3239              		.loc 1 1085 15
 3240 007d 488B45E8 		movq	-24(%rbp), %rax
GAS LISTING /tmp/cc1ytava.s 			page 84


 3241 0081 8B4028   		movl	40(%rax), %eax
 3242              		.loc 1 1085 8
 3243 0084 85C0     		testl	%eax, %eax
 3244 0086 7E3D     		jle	.L234
1086:/home/xingli/share/LiteOS_Lab/secure_c/src/input.inl **** #if (defined(SECUREC_COMPATIBLE_WIN_FORMAT))
1087:/home/xingli/share/LiteOS_Lab/secure_c/src/input.inl ****         int loops;
1088:/home/xingli/share/LiteOS_Lab/secure_c/src/input.inl ****         for (loops = 0; loops < (stream->fileRealRead / SECUREC_BUFFERED_BLOK_SIZE); ++loops) {
1089:/home/xingli/share/LiteOS_Lab/secure_c/src/input.inl ****             if (fread(stream->base, (size_t)1, (size_t)SECUREC_BUFFERED_BLOK_SIZE,
1090:/home/xingli/share/LiteOS_Lab/secure_c/src/input.inl ****                 stream->pf) != SECUREC_BUFFERED_BLOK_SIZE) {
1091:/home/xingli/share/LiteOS_Lab/secure_c/src/input.inl ****                 break;
1092:/home/xingli/share/LiteOS_Lab/secure_c/src/input.inl ****             }
1093:/home/xingli/share/LiteOS_Lab/secure_c/src/input.inl ****         }
1094:/home/xingli/share/LiteOS_Lab/secure_c/src/input.inl ****         if ((stream->fileRealRead % SECUREC_BUFFERED_BLOK_SIZE) != 0) {
1095:/home/xingli/share/LiteOS_Lab/secure_c/src/input.inl ****             size_t ret = fread(stream->base, (size_t)((unsigned int)stream->fileRealRead % SECUREC_
1096:/home/xingli/share/LiteOS_Lab/secure_c/src/input.inl ****                                (size_t)1, stream->pf);
1097:/home/xingli/share/LiteOS_Lab/secure_c/src/input.inl ****             if ((ret == 1 || ret == 0) && (ftell(stream->pf) < stream->oriFilePos + stream->fileRea
1098:/home/xingli/share/LiteOS_Lab/secure_c/src/input.inl ****                 (void)fseek(stream->pf, stream->oriFilePos + stream->fileRealRead, SEEK_SET);
1099:/home/xingli/share/LiteOS_Lab/secure_c/src/input.inl ****             }
1100:/home/xingli/share/LiteOS_Lab/secure_c/src/input.inl ****         }
1101:/home/xingli/share/LiteOS_Lab/secure_c/src/input.inl **** 
1102:/home/xingli/share/LiteOS_Lab/secure_c/src/input.inl **** #else
1103:/home/xingli/share/LiteOS_Lab/secure_c/src/input.inl ****         /* in linux like system */
1104:/home/xingli/share/LiteOS_Lab/secure_c/src/input.inl ****         if (fseek(stream->pf, stream->oriFilePos + stream->fileRealRead, SEEK_SET)) {
 3245              		.loc 1 1104 37
 3246 0088 488B45E8 		movq	-24(%rbp), %rax
 3247 008c 488B5020 		movq	32(%rax), %rdx
 3248              		.loc 1 1104 58
 3249 0090 488B45E8 		movq	-24(%rbp), %rax
 3250 0094 8B4028   		movl	40(%rax), %eax
 3251 0097 4898     		cltq
 3252              		.loc 1 1104 13
 3253 0099 488D0C02 		leaq	(%rdx,%rax), %rcx
 3254 009d 488B45E8 		movq	-24(%rbp), %rax
 3255 00a1 488B4018 		movq	24(%rax), %rax
 3256 00a5 BA000000 		movl	$0, %edx
 3256      00
 3257 00aa 4889CE   		movq	%rcx, %rsi
 3258 00ad 4889C7   		movq	%rax, %rdi
 3259 00b0 E8000000 		call	fseek@PLT
 3259      00
 3260              		.loc 1 1104 12
 3261 00b5 85C0     		testl	%eax, %eax
 3262 00b7 740C     		je	.L234
1105:/home/xingli/share/LiteOS_Lab/secure_c/src/input.inl ****             /* seek failed, ignore it */
1106:/home/xingli/share/LiteOS_Lab/secure_c/src/input.inl ****             stream->oriFilePos = 0;
 3263              		.loc 1 1106 32
 3264 00b9 488B45E8 		movq	-24(%rbp), %rax
 3265 00bd 48C74020 		movq	$0, 32(%rax)
 3265      00000000 
 3266              	.L234:
1107:/home/xingli/share/LiteOS_Lab/secure_c/src/input.inl ****         }
1108:/home/xingli/share/LiteOS_Lab/secure_c/src/input.inl **** #endif
1109:/home/xingli/share/LiteOS_Lab/secure_c/src/input.inl ****     }
1110:/home/xingli/share/LiteOS_Lab/secure_c/src/input.inl **** 
1111:/home/xingli/share/LiteOS_Lab/secure_c/src/input.inl ****     return;
 3267              		.loc 1 1111 5
 3268 00c5 90       		nop
GAS LISTING /tmp/cc1ytava.s 			page 85


 3269              	.L228:
1112:/home/xingli/share/LiteOS_Lab/secure_c/src/input.inl **** }
 3270              		.loc 1 1112 1
 3271 00c6 488B45F8 		movq	-8(%rbp), %rax
 3272 00ca 64483304 		xorq	%fs:40, %rax
 3272      25280000 
 3272      00
 3273 00d3 7405     		je	.L233
 3274 00d5 E8000000 		call	__stack_chk_fail@PLT
 3274      00
 3275              	.L233:
 3276 00da C9       		leave
 3277              	.LCFI92:
 3278              		.cfi_def_cfa 7, 8
 3279 00db C3       		ret
 3280              		.cfi_endproc
 3281              	.LFE36:
 3283              		.section	.text.SecAdjustStream,"ax",@progbits
 3285              	SecAdjustStream:
 3286              	.LFB37:
1113:/home/xingli/share/LiteOS_Lab/secure_c/src/input.inl **** 
1114:/home/xingli/share/LiteOS_Lab/secure_c/src/input.inl **** /*
1115:/home/xingli/share/LiteOS_Lab/secure_c/src/input.inl ****  *  Adjust the pointer position of the file stream and free memory
1116:/home/xingli/share/LiteOS_Lab/secure_c/src/input.inl ****  */
1117:/home/xingli/share/LiteOS_Lab/secure_c/src/input.inl **** static void SecAdjustStream(SecFileStream *stream)
1118:/home/xingli/share/LiteOS_Lab/secure_c/src/input.inl **** {
 3287              		.loc 1 1118 1
 3288              		.cfi_startproc
 3289 0000 F30F1EFA 		endbr64
 3290 0004 55       		pushq	%rbp
 3291              	.LCFI93:
 3292              		.cfi_def_cfa_offset 16
 3293              		.cfi_offset 6, -16
 3294 0005 4889E5   		movq	%rsp, %rbp
 3295              	.LCFI94:
 3296              		.cfi_def_cfa_register 6
 3297 0008 4883EC20 		subq	$32, %rsp
 3298 000c 48897DE8 		movq	%rdi, -24(%rbp)
 3299              		.loc 1 1118 1
 3300 0010 64488B04 		movq	%fs:40, %rax
 3300      25280000 
 3300      00
 3301 0019 488945F8 		movq	%rax, -8(%rbp)
 3302 001d 31C0     		xorl	%eax, %eax
1119:/home/xingli/share/LiteOS_Lab/secure_c/src/input.inl ****     if (stream != NULL && (stream->flag & SECUREC_FILE_STREAM_FLAG) && stream->base != NULL) {
 3303              		.loc 1 1119 8
 3304 001f 48837DE8 		cmpq	$0, -24(%rbp)
 3304      00
 3305 0024 7443     		je	.L239
 3306              		.loc 1 1119 34 discriminator 1
 3307 0026 488B45E8 		movq	-24(%rbp), %rax
 3308 002a 8B00     		movl	(%rax), %eax
 3309              		.loc 1 1119 41 discriminator 1
 3310 002c 83E002   		andl	$2, %eax
 3311              		.loc 1 1119 24 discriminator 1
 3312 002f 85C0     		testl	%eax, %eax
 3313 0031 7436     		je	.L239
GAS LISTING /tmp/cc1ytava.s 			page 86


 3314              		.loc 1 1119 78 discriminator 2
 3315 0033 488B45E8 		movq	-24(%rbp), %rax
 3316 0037 488B4010 		movq	16(%rax), %rax
 3317              		.loc 1 1119 69 discriminator 2
 3318 003b 4885C0   		testq	%rax, %rax
 3319 003e 7429     		je	.L239
1120:/home/xingli/share/LiteOS_Lab/secure_c/src/input.inl ****         SecSeekStream(stream);
 3320              		.loc 1 1120 9
 3321 0040 488B45E8 		movq	-24(%rbp), %rax
 3322 0044 4889C7   		movq	%rax, %rdi
 3323 0047 E8000000 		call	SecSeekStream
 3323      00
1121:/home/xingli/share/LiteOS_Lab/secure_c/src/input.inl ****         SECUREC_FREE(stream->base);
 3324              		.loc 1 1121 9
 3325 004c 488B45E8 		movq	-24(%rbp), %rax
 3326 0050 488B4010 		movq	16(%rax), %rax
 3327 0054 4889C7   		movq	%rax, %rdi
 3328 0057 E8000000 		call	free@PLT
 3328      00
1122:/home/xingli/share/LiteOS_Lab/secure_c/src/input.inl ****         stream->base = NULL;
 3329              		.loc 1 1122 22
 3330 005c 488B45E8 		movq	-24(%rbp), %rax
 3331 0060 48C74010 		movq	$0, 16(%rax)
 3331      00000000 
1123:/home/xingli/share/LiteOS_Lab/secure_c/src/input.inl ****     }
1124:/home/xingli/share/LiteOS_Lab/secure_c/src/input.inl ****     return;
 3332              		.loc 1 1124 5
 3333 0068 90       		nop
 3334              	.L239:
 3335 0069 90       		nop
1125:/home/xingli/share/LiteOS_Lab/secure_c/src/input.inl **** }
 3336              		.loc 1 1125 1
 3337 006a 488B45F8 		movq	-8(%rbp), %rax
 3338 006e 64483304 		xorq	%fs:40, %rax
 3338      25280000 
 3338      00
 3339 0077 7405     		je	.L238
 3340 0079 E8000000 		call	__stack_chk_fail@PLT
 3340      00
 3341              	.L238:
 3342 007e C9       		leave
 3343              	.LCFI95:
 3344              		.cfi_def_cfa 7, 8
 3345 007f C3       		ret
 3346              		.cfi_endproc
 3347              	.LFE37:
 3349              		.section	.text.SecSkipSpaceFormat,"ax",@progbits
 3351              	SecSkipSpaceFormat:
 3352              	.LFB38:
1126:/home/xingli/share/LiteOS_Lab/secure_c/src/input.inl **** #endif
1127:/home/xingli/share/LiteOS_Lab/secure_c/src/input.inl **** 
1128:/home/xingli/share/LiteOS_Lab/secure_c/src/input.inl **** static void SecSkipSpaceFormat(const SecUnsignedChar **format)
1129:/home/xingli/share/LiteOS_Lab/secure_c/src/input.inl **** {
 3353              		.loc 1 1129 1
 3354              		.cfi_startproc
 3355 0000 F30F1EFA 		endbr64
 3356 0004 55       		pushq	%rbp
GAS LISTING /tmp/cc1ytava.s 			page 87


 3357              	.LCFI96:
 3358              		.cfi_def_cfa_offset 16
 3359              		.cfi_offset 6, -16
 3360 0005 4889E5   		movq	%rsp, %rbp
 3361              	.LCFI97:
 3362              		.cfi_def_cfa_register 6
 3363 0008 4883EC20 		subq	$32, %rsp
 3364 000c 48897DE8 		movq	%rdi, -24(%rbp)
 3365              		.loc 1 1129 1
 3366 0010 64488B04 		movq	%fs:40, %rax
 3366      25280000 
 3366      00
 3367 0019 488945F8 		movq	%rax, -8(%rbp)
 3368 001d 31C0     		xorl	%eax, %eax
1130:/home/xingli/share/LiteOS_Lab/secure_c/src/input.inl ****     const SecUnsignedChar *fmt = *format;
 3369              		.loc 1 1130 28
 3370 001f 488B45E8 		movq	-24(%rbp), %rax
 3371 0023 488B00   		movq	(%rax), %rax
 3372 0026 488945F0 		movq	%rax, -16(%rbp)
1131:/home/xingli/share/LiteOS_Lab/secure_c/src/input.inl ****     while (SECUREC_IS_SPACE(*fmt)) {
 3373              		.loc 1 1131 11
 3374 002a EB05     		jmp	.L241
 3375              	.L242:
1132:/home/xingli/share/LiteOS_Lab/secure_c/src/input.inl ****         ++fmt;
 3376              		.loc 1 1132 9
 3377 002c 488345F0 		addq	$4, -16(%rbp)
 3377      04
 3378              	.L241:
1131:/home/xingli/share/LiteOS_Lab/secure_c/src/input.inl ****     while (SECUREC_IS_SPACE(*fmt)) {
 3379              		.loc 1 1131 12
 3380 0031 488B45F0 		movq	-16(%rbp), %rax
 3381 0035 8B00     		movl	(%rax), %eax
 3382 0037 89C7     		movl	%eax, %edi
 3383 0039 E8000000 		call	iswspace@PLT
 3383      00
1131:/home/xingli/share/LiteOS_Lab/secure_c/src/input.inl ****     while (SECUREC_IS_SPACE(*fmt)) {
 3384              		.loc 1 1131 11
 3385 003e 85C0     		testl	%eax, %eax
 3386 0040 75EA     		jne	.L242
1133:/home/xingli/share/LiteOS_Lab/secure_c/src/input.inl ****     }
