GAS LISTING /tmp/cctkD7cV.s 			page 1


   1              		.file	"strcat_s.c"
   2              		.text
   3              	.Ltext0:
   4              		.section	.text.SecDoMemcpy,"ax",@progbits
   6              	SecDoMemcpy:
   7              	.LFB6:
   8              		.file 1 "/home/xingli/share/LiteOS_Lab/secure_c/src/securecutil.h"
   1:/home/xingli/share/LiteOS_Lab/secure_c/src/securecutil.h **** /*
   2:/home/xingli/share/LiteOS_Lab/secure_c/src/securecutil.h ****  * Copyright (c) [2019] Huawei Technologies Co.,Ltd.All rights reserved.
   3:/home/xingli/share/LiteOS_Lab/secure_c/src/securecutil.h ****  *
   4:/home/xingli/share/LiteOS_Lab/secure_c/src/securecutil.h ****  * OpenArkCompiler is licensed under the Mulan PSL v1. 
   5:/home/xingli/share/LiteOS_Lab/secure_c/src/securecutil.h ****  * You can use this software according to the terms and conditions of the Mulan PSL v1.
   6:/home/xingli/share/LiteOS_Lab/secure_c/src/securecutil.h ****  * You may obtain a copy of Mulan PSL v1 at:
   7:/home/xingli/share/LiteOS_Lab/secure_c/src/securecutil.h ****  *
   8:/home/xingli/share/LiteOS_Lab/secure_c/src/securecutil.h ****  * 	http://license.coscl.org.cn/MulanPSL 
   9:/home/xingli/share/LiteOS_Lab/secure_c/src/securecutil.h ****  *
  10:/home/xingli/share/LiteOS_Lab/secure_c/src/securecutil.h ****  * THIS SOFTWARE IS PROVIDED ON AN "AS IS" BASIS, WITHOUT WARRANTIES OF ANY KIND, EITHER 
  11:/home/xingli/share/LiteOS_Lab/secure_c/src/securecutil.h ****  * EXPRESS OR IMPLIED, INCLUDING BUT NOT LIMITED TO NON-INFRINGEMENT, MERCHANTABILITY OR
  12:/home/xingli/share/LiteOS_Lab/secure_c/src/securecutil.h ****  * FIT FOR A PARTICULAR PURPOSE.  
  13:/home/xingli/share/LiteOS_Lab/secure_c/src/securecutil.h ****  * See the Mulan PSL v1 for more details.  
  14:/home/xingli/share/LiteOS_Lab/secure_c/src/securecutil.h ****  */
  15:/home/xingli/share/LiteOS_Lab/secure_c/src/securecutil.h **** 
  16:/home/xingli/share/LiteOS_Lab/secure_c/src/securecutil.h **** #ifndef SECURECUTIL_H_46C86578_F8FF_4E49_8E64_9B175241761F
  17:/home/xingli/share/LiteOS_Lab/secure_c/src/securecutil.h **** #define SECURECUTIL_H_46C86578_F8FF_4E49_8E64_9B175241761F
  18:/home/xingli/share/LiteOS_Lab/secure_c/src/securecutil.h **** #include "securec.h"
  19:/home/xingli/share/LiteOS_Lab/secure_c/src/securecutil.h **** 
  20:/home/xingli/share/LiteOS_Lab/secure_c/src/securecutil.h **** #if (defined(_MSC_VER)) && (_MSC_VER >= 1400)
  21:/home/xingli/share/LiteOS_Lab/secure_c/src/securecutil.h **** #define SECUREC_MASK_MSVC_CRT_WARNING __pragma(warning(push)) \
  22:/home/xingli/share/LiteOS_Lab/secure_c/src/securecutil.h ****     __pragma(warning(disable:4996 4127))
  23:/home/xingli/share/LiteOS_Lab/secure_c/src/securecutil.h **** #define SECUREC_END_MASK_MSVC_CRT_WARNING  __pragma(warning(pop))
  24:/home/xingli/share/LiteOS_Lab/secure_c/src/securecutil.h **** #else
  25:/home/xingli/share/LiteOS_Lab/secure_c/src/securecutil.h **** #define SECUREC_MASK_MSVC_CRT_WARNING
  26:/home/xingli/share/LiteOS_Lab/secure_c/src/securecutil.h **** #define SECUREC_END_MASK_MSVC_CRT_WARNING
  27:/home/xingli/share/LiteOS_Lab/secure_c/src/securecutil.h **** #endif
  28:/home/xingli/share/LiteOS_Lab/secure_c/src/securecutil.h **** #define SECUREC_WHILE_ZERO SECUREC_MASK_MSVC_CRT_WARNING while (0) SECUREC_END_MASK_MSVC_CRT_WARNIN
  29:/home/xingli/share/LiteOS_Lab/secure_c/src/securecutil.h **** 
  30:/home/xingli/share/LiteOS_Lab/secure_c/src/securecutil.h **** #ifndef SECUREC_HAVE_STRNLEN
  31:/home/xingli/share/LiteOS_Lab/secure_c/src/securecutil.h **** #if (defined(_XOPEN_SOURCE) && _XOPEN_SOURCE >= 700) || (defined(_POSIX_C_SOURCE) && _POSIX_C_SOURC
  32:/home/xingli/share/LiteOS_Lab/secure_c/src/securecutil.h **** #if SECUREC_IN_KERNEL
  33:/home/xingli/share/LiteOS_Lab/secure_c/src/securecutil.h **** #define SECUREC_HAVE_STRNLEN 0
  34:/home/xingli/share/LiteOS_Lab/secure_c/src/securecutil.h **** #else
  35:/home/xingli/share/LiteOS_Lab/secure_c/src/securecutil.h **** #if defined(__GLIBC__) && __GLIBC__ >= 2 && defined(__GLIBC_MINOR__) && __GLIBC_MINOR__ >= 10
  36:/home/xingli/share/LiteOS_Lab/secure_c/src/securecutil.h **** #define SECUREC_HAVE_STRNLEN 1
  37:/home/xingli/share/LiteOS_Lab/secure_c/src/securecutil.h **** #else
  38:/home/xingli/share/LiteOS_Lab/secure_c/src/securecutil.h **** #define SECUREC_HAVE_STRNLEN 0
  39:/home/xingli/share/LiteOS_Lab/secure_c/src/securecutil.h **** #endif
  40:/home/xingli/share/LiteOS_Lab/secure_c/src/securecutil.h **** #endif
  41:/home/xingli/share/LiteOS_Lab/secure_c/src/securecutil.h **** #else
  42:/home/xingli/share/LiteOS_Lab/secure_c/src/securecutil.h **** #define SECUREC_HAVE_STRNLEN 0
  43:/home/xingli/share/LiteOS_Lab/secure_c/src/securecutil.h **** #endif
  44:/home/xingli/share/LiteOS_Lab/secure_c/src/securecutil.h **** #endif
  45:/home/xingli/share/LiteOS_Lab/secure_c/src/securecutil.h **** 
  46:/home/xingli/share/LiteOS_Lab/secure_c/src/securecutil.h **** #if SECUREC_IN_KERNEL
  47:/home/xingli/share/LiteOS_Lab/secure_c/src/securecutil.h **** /* in kernel disbale functions */
  48:/home/xingli/share/LiteOS_Lab/secure_c/src/securecutil.h **** #ifndef SECUREC_ENABLE_SCANF_FILE
  49:/home/xingli/share/LiteOS_Lab/secure_c/src/securecutil.h **** #define SECUREC_ENABLE_SCANF_FILE 0
  50:/home/xingli/share/LiteOS_Lab/secure_c/src/securecutil.h **** #endif
GAS LISTING /tmp/cctkD7cV.s 			page 2


  51:/home/xingli/share/LiteOS_Lab/secure_c/src/securecutil.h **** #ifndef SECUREC_ENABLE_SCANF_FLOAT
  52:/home/xingli/share/LiteOS_Lab/secure_c/src/securecutil.h **** #define SECUREC_ENABLE_SCANF_FLOAT 0
  53:/home/xingli/share/LiteOS_Lab/secure_c/src/securecutil.h **** #endif
  54:/home/xingli/share/LiteOS_Lab/secure_c/src/securecutil.h **** #ifndef SECUREC_ENABLE_SPRINTF_FLOAT
  55:/home/xingli/share/LiteOS_Lab/secure_c/src/securecutil.h **** #define SECUREC_ENABLE_SPRINTF_FLOAT 0
  56:/home/xingli/share/LiteOS_Lab/secure_c/src/securecutil.h **** #endif
  57:/home/xingli/share/LiteOS_Lab/secure_c/src/securecutil.h **** #ifndef SECUREC_HAVE_MBTOWC
  58:/home/xingli/share/LiteOS_Lab/secure_c/src/securecutil.h **** #define SECUREC_HAVE_MBTOWC 0
  59:/home/xingli/share/LiteOS_Lab/secure_c/src/securecutil.h **** #endif
  60:/home/xingli/share/LiteOS_Lab/secure_c/src/securecutil.h **** #ifndef SECUREC_HAVE_WCTOMB
  61:/home/xingli/share/LiteOS_Lab/secure_c/src/securecutil.h **** #define SECUREC_HAVE_WCTOMB 0
  62:/home/xingli/share/LiteOS_Lab/secure_c/src/securecutil.h **** #endif
  63:/home/xingli/share/LiteOS_Lab/secure_c/src/securecutil.h **** #ifndef SECUREC_HAVE_WCHART
  64:/home/xingli/share/LiteOS_Lab/secure_c/src/securecutil.h **** #define SECUREC_HAVE_WCHART 0
  65:/home/xingli/share/LiteOS_Lab/secure_c/src/securecutil.h **** #endif
  66:/home/xingli/share/LiteOS_Lab/secure_c/src/securecutil.h **** #else /* no in kernel */
  67:/home/xingli/share/LiteOS_Lab/secure_c/src/securecutil.h **** /* Systems that do not support file, can define this macro to 0. */
  68:/home/xingli/share/LiteOS_Lab/secure_c/src/securecutil.h **** #ifndef SECUREC_ENABLE_SCANF_FILE
  69:/home/xingli/share/LiteOS_Lab/secure_c/src/securecutil.h **** #define SECUREC_ENABLE_SCANF_FILE 1
  70:/home/xingli/share/LiteOS_Lab/secure_c/src/securecutil.h **** #endif
  71:/home/xingli/share/LiteOS_Lab/secure_c/src/securecutil.h **** #ifndef SECUREC_ENABLE_SCANF_FLOAT
  72:/home/xingli/share/LiteOS_Lab/secure_c/src/securecutil.h **** #define SECUREC_ENABLE_SCANF_FLOAT 1
  73:/home/xingli/share/LiteOS_Lab/secure_c/src/securecutil.h **** #endif
  74:/home/xingli/share/LiteOS_Lab/secure_c/src/securecutil.h **** /* Systems that do not support float, can define this macro to 0. */
  75:/home/xingli/share/LiteOS_Lab/secure_c/src/securecutil.h **** #ifndef SECUREC_ENABLE_SPRINTF_FLOAT
  76:/home/xingli/share/LiteOS_Lab/secure_c/src/securecutil.h **** #define SECUREC_ENABLE_SPRINTF_FLOAT 1
  77:/home/xingli/share/LiteOS_Lab/secure_c/src/securecutil.h **** #endif
  78:/home/xingli/share/LiteOS_Lab/secure_c/src/securecutil.h **** #ifndef SECUREC_HAVE_MBTOWC
  79:/home/xingli/share/LiteOS_Lab/secure_c/src/securecutil.h **** #define SECUREC_HAVE_MBTOWC 1
  80:/home/xingli/share/LiteOS_Lab/secure_c/src/securecutil.h **** #endif
  81:/home/xingli/share/LiteOS_Lab/secure_c/src/securecutil.h **** #ifndef SECUREC_HAVE_WCTOMB
  82:/home/xingli/share/LiteOS_Lab/secure_c/src/securecutil.h **** #define SECUREC_HAVE_WCTOMB 1
  83:/home/xingli/share/LiteOS_Lab/secure_c/src/securecutil.h **** #endif
  84:/home/xingli/share/LiteOS_Lab/secure_c/src/securecutil.h **** #ifndef SECUREC_HAVE_WCHART
  85:/home/xingli/share/LiteOS_Lab/secure_c/src/securecutil.h **** #define SECUREC_HAVE_WCHART 1
  86:/home/xingli/share/LiteOS_Lab/secure_c/src/securecutil.h **** #endif
  87:/home/xingli/share/LiteOS_Lab/secure_c/src/securecutil.h **** #endif
  88:/home/xingli/share/LiteOS_Lab/secure_c/src/securecutil.h **** 
  89:/home/xingli/share/LiteOS_Lab/secure_c/src/securecutil.h **** 
  90:/home/xingli/share/LiteOS_Lab/secure_c/src/securecutil.h **** #define SECUREC_INT_MAX                     2147483647
  91:/home/xingli/share/LiteOS_Lab/secure_c/src/securecutil.h **** #define SECUREC_MUL_SIXTEEN(x)              ((x) << 4)
  92:/home/xingli/share/LiteOS_Lab/secure_c/src/securecutil.h **** #define SECUREC_MUL_EIGHT(x)                ((x) << 3)
  93:/home/xingli/share/LiteOS_Lab/secure_c/src/securecutil.h **** #define SECUREC_MUL_TEN(x)                  ((((x) << 2) + (x)) << 1)
  94:/home/xingli/share/LiteOS_Lab/secure_c/src/securecutil.h **** /* Limited format input and output width */
  95:/home/xingli/share/LiteOS_Lab/secure_c/src/securecutil.h **** #define SECUREC_MAX_WIDTH_LEN_DIV_TEN       21474836
  96:/home/xingli/share/LiteOS_Lab/secure_c/src/securecutil.h **** #define SECUREC_MAX_WIDTH_LEN               SECUREC_MUL_TEN(SECUREC_MAX_WIDTH_LEN_DIV_TEN)
  97:/home/xingli/share/LiteOS_Lab/secure_c/src/securecutil.h **** /* Is the x multiplied by 10 greater than */
  98:/home/xingli/share/LiteOS_Lab/secure_c/src/securecutil.h **** #define SECUREC_MUL_TEN_ADD_BEYOND_MAX(x)   (((x) > SECUREC_MAX_WIDTH_LEN_DIV_TEN))
  99:/home/xingli/share/LiteOS_Lab/secure_c/src/securecutil.h **** 
 100:/home/xingli/share/LiteOS_Lab/secure_c/src/securecutil.h **** #define SECUREC_FLOAT_BUFSIZE               (309 + 40)  /* Max length of double value */
 101:/home/xingli/share/LiteOS_Lab/secure_c/src/securecutil.h **** #define SECUREC_FLOAT_BUFSIZE_LB            (4932 + 40) /* Max length of long double value */
 102:/home/xingli/share/LiteOS_Lab/secure_c/src/securecutil.h **** #define SECUREC_FLOAT_DEFAULT_PRECISION     6
 103:/home/xingli/share/LiteOS_Lab/secure_c/src/securecutil.h **** 
 104:/home/xingli/share/LiteOS_Lab/secure_c/src/securecutil.h **** /* This macro does not handle pointer equality or integer overflow */
 105:/home/xingli/share/LiteOS_Lab/secure_c/src/securecutil.h **** #define SECUREC_MEMORY_NO_OVERLAP(dest, src, count) \
 106:/home/xingli/share/LiteOS_Lab/secure_c/src/securecutil.h ****     (((src) < (dest) && ((const char *)(src) + (count)) <= (char *)(dest)) || \
 107:/home/xingli/share/LiteOS_Lab/secure_c/src/securecutil.h ****     ((dest) < (src) && ((char *)(dest) + (count)) <= (const char *)(src)))
GAS LISTING /tmp/cctkD7cV.s 			page 3


 108:/home/xingli/share/LiteOS_Lab/secure_c/src/securecutil.h **** 
 109:/home/xingli/share/LiteOS_Lab/secure_c/src/securecutil.h **** #define SECUREC_MEMORY_IS_OVERLAP(dest, src, count) \
 110:/home/xingli/share/LiteOS_Lab/secure_c/src/securecutil.h ****     (((src) < (dest) && ((const char *)(src) + (count)) > (char *)(dest)) || \
 111:/home/xingli/share/LiteOS_Lab/secure_c/src/securecutil.h ****     ((dest) < (src) && ((char *)(dest) + (count)) > (const char *)(src)))
 112:/home/xingli/share/LiteOS_Lab/secure_c/src/securecutil.h **** 
 113:/home/xingli/share/LiteOS_Lab/secure_c/src/securecutil.h **** /*
 114:/home/xingli/share/LiteOS_Lab/secure_c/src/securecutil.h ****  * Check whether the strings overlap, len is the length of the string not include terminator
 115:/home/xingli/share/LiteOS_Lab/secure_c/src/securecutil.h ****  * Length is related to data type char or wchar , do not force conversion of types
 116:/home/xingli/share/LiteOS_Lab/secure_c/src/securecutil.h ****  */
 117:/home/xingli/share/LiteOS_Lab/secure_c/src/securecutil.h **** #define SECUREC_STRING_NO_OVERLAP(dest, src, len) \
 118:/home/xingli/share/LiteOS_Lab/secure_c/src/securecutil.h ****     (((src) < (dest) && ((src) + (len)) < (dest)) || \
 119:/home/xingli/share/LiteOS_Lab/secure_c/src/securecutil.h ****     ((dest) < (src) && ((dest) + (len)) < (src)))
 120:/home/xingli/share/LiteOS_Lab/secure_c/src/securecutil.h **** 
 121:/home/xingli/share/LiteOS_Lab/secure_c/src/securecutil.h **** /*
 122:/home/xingli/share/LiteOS_Lab/secure_c/src/securecutil.h ****  * Check whether the strings overlap for strcpy wcscpy function, dest len and src Len are not inclu
 123:/home/xingli/share/LiteOS_Lab/secure_c/src/securecutil.h ****  * Length is related to data type char or wchar , do not force conversion of types
 124:/home/xingli/share/LiteOS_Lab/secure_c/src/securecutil.h ****  */
 125:/home/xingli/share/LiteOS_Lab/secure_c/src/securecutil.h **** #define SECUREC_STRING_IS_OVERLAP(dest, src, len) \
 126:/home/xingli/share/LiteOS_Lab/secure_c/src/securecutil.h ****     (((src) < (dest) && ((src) + (len)) >= (dest)) || \
 127:/home/xingli/share/LiteOS_Lab/secure_c/src/securecutil.h ****     ((dest) < (src) && ((dest) + (len)) >= (src)))
 128:/home/xingli/share/LiteOS_Lab/secure_c/src/securecutil.h **** 
 129:/home/xingli/share/LiteOS_Lab/secure_c/src/securecutil.h **** /*
 130:/home/xingli/share/LiteOS_Lab/secure_c/src/securecutil.h ****  * Check whether the strings overlap for strcat wcscat function, dest len and src Len are not inclu
 131:/home/xingli/share/LiteOS_Lab/secure_c/src/securecutil.h ****  * Length is related to data type char or wchar , do not force conversion of types
 132:/home/xingli/share/LiteOS_Lab/secure_c/src/securecutil.h ****  */
 133:/home/xingli/share/LiteOS_Lab/secure_c/src/securecutil.h **** #define SECUREC_CAT_STRING_IS_OVERLAP(dest, destLen, src, srcLen) \
 134:/home/xingli/share/LiteOS_Lab/secure_c/src/securecutil.h ****     (((dest) < (src) && ((dest) + (destLen) + (srcLen)) >= (src)) || \
 135:/home/xingli/share/LiteOS_Lab/secure_c/src/securecutil.h ****     ((src) < (dest) && ((src) + (srcLen)) >= (dest)))
 136:/home/xingli/share/LiteOS_Lab/secure_c/src/securecutil.h **** 
 137:/home/xingli/share/LiteOS_Lab/secure_c/src/securecutil.h **** 
 138:/home/xingli/share/LiteOS_Lab/secure_c/src/securecutil.h **** #if SECUREC_HAVE_STRNLEN
 139:/home/xingli/share/LiteOS_Lab/secure_c/src/securecutil.h **** #define SECUREC_CALC_STR_LEN(str, maxLen, outLen) do { \
 140:/home/xingli/share/LiteOS_Lab/secure_c/src/securecutil.h ****     *(outLen) = strnlen((str), (maxLen)); \
 141:/home/xingli/share/LiteOS_Lab/secure_c/src/securecutil.h **** } SECUREC_WHILE_ZERO
 142:/home/xingli/share/LiteOS_Lab/secure_c/src/securecutil.h **** #define SECUREC_CALC_STR_LEN_OPT(str, maxLen, outLen) do { \
 143:/home/xingli/share/LiteOS_Lab/secure_c/src/securecutil.h ****     if ((maxLen) > 8) { \
 144:/home/xingli/share/LiteOS_Lab/secure_c/src/securecutil.h ****         /* Optimization or len less then 8 */ \
 145:/home/xingli/share/LiteOS_Lab/secure_c/src/securecutil.h ****         if (*((str) + 0) == '\0') { \
 146:/home/xingli/share/LiteOS_Lab/secure_c/src/securecutil.h ****             *(outLen) = 0; \
 147:/home/xingli/share/LiteOS_Lab/secure_c/src/securecutil.h ****         } else if (*((str) + 1) == '\0') { \
 148:/home/xingli/share/LiteOS_Lab/secure_c/src/securecutil.h ****             *(outLen) = 1; \
 149:/home/xingli/share/LiteOS_Lab/secure_c/src/securecutil.h ****         } else if (*((str) + 2) == '\0') { \
 150:/home/xingli/share/LiteOS_Lab/secure_c/src/securecutil.h ****             *(outLen) = 2; \
 151:/home/xingli/share/LiteOS_Lab/secure_c/src/securecutil.h ****         } else if (*((str) + 3) == '\0') { \
 152:/home/xingli/share/LiteOS_Lab/secure_c/src/securecutil.h ****             *(outLen) = 3; \
 153:/home/xingli/share/LiteOS_Lab/secure_c/src/securecutil.h ****         } else if (*((str) + 4) == '\0') { \
 154:/home/xingli/share/LiteOS_Lab/secure_c/src/securecutil.h ****             *(outLen) = 4; \
 155:/home/xingli/share/LiteOS_Lab/secure_c/src/securecutil.h ****         } else if (*((str) + 5) == '\0') { \
 156:/home/xingli/share/LiteOS_Lab/secure_c/src/securecutil.h ****             *(outLen) = 5; \
 157:/home/xingli/share/LiteOS_Lab/secure_c/src/securecutil.h ****         } else if (*((str) + 6) == '\0') { \
 158:/home/xingli/share/LiteOS_Lab/secure_c/src/securecutil.h ****             *(outLen) = 6; \
 159:/home/xingli/share/LiteOS_Lab/secure_c/src/securecutil.h ****         } else if (*((str) + 7) == '\0') { \
 160:/home/xingli/share/LiteOS_Lab/secure_c/src/securecutil.h ****             *(outLen) = 7; \
 161:/home/xingli/share/LiteOS_Lab/secure_c/src/securecutil.h ****         } else if (*((str) + 8) == '\0') { \
 162:/home/xingli/share/LiteOS_Lab/secure_c/src/securecutil.h ****             /* Optimization with a length of 8 */ \
 163:/home/xingli/share/LiteOS_Lab/secure_c/src/securecutil.h ****             *(outLen) = 8; \
 164:/home/xingli/share/LiteOS_Lab/secure_c/src/securecutil.h ****         } else { \
GAS LISTING /tmp/cctkD7cV.s 			page 4


 165:/home/xingli/share/LiteOS_Lab/secure_c/src/securecutil.h ****             /* The offset is 8 because the performance of 8 byte alignment is high */ \
 166:/home/xingli/share/LiteOS_Lab/secure_c/src/securecutil.h ****             *(outLen) = 8 + strnlen((str) + 8, (maxLen) - 8); \
 167:/home/xingli/share/LiteOS_Lab/secure_c/src/securecutil.h ****         } \
 168:/home/xingli/share/LiteOS_Lab/secure_c/src/securecutil.h ****     } else { \
 169:/home/xingli/share/LiteOS_Lab/secure_c/src/securecutil.h ****         SECUREC_CALC_STR_LEN((str), (maxLen), (outLen)); \
 170:/home/xingli/share/LiteOS_Lab/secure_c/src/securecutil.h ****     } \
 171:/home/xingli/share/LiteOS_Lab/secure_c/src/securecutil.h **** } SECUREC_WHILE_ZERO
 172:/home/xingli/share/LiteOS_Lab/secure_c/src/securecutil.h **** #else
 173:/home/xingli/share/LiteOS_Lab/secure_c/src/securecutil.h **** #define SECUREC_CALC_STR_LEN(str, maxLen, outLen) do { \
 174:/home/xingli/share/LiteOS_Lab/secure_c/src/securecutil.h ****     const char *strEnd = (const char *)(str); \
 175:/home/xingli/share/LiteOS_Lab/secure_c/src/securecutil.h ****     size_t availableSize = (size_t)(maxLen); \
 176:/home/xingli/share/LiteOS_Lab/secure_c/src/securecutil.h ****     while (availableSize > 0 && *strEnd != '\0') { \
 177:/home/xingli/share/LiteOS_Lab/secure_c/src/securecutil.h ****         --availableSize; \
 178:/home/xingli/share/LiteOS_Lab/secure_c/src/securecutil.h ****         ++strEnd; \
 179:/home/xingli/share/LiteOS_Lab/secure_c/src/securecutil.h ****     } \
 180:/home/xingli/share/LiteOS_Lab/secure_c/src/securecutil.h ****     *(outLen) = (size_t)(strEnd - (str)); \
 181:/home/xingli/share/LiteOS_Lab/secure_c/src/securecutil.h **** } SECUREC_WHILE_ZERO
 182:/home/xingli/share/LiteOS_Lab/secure_c/src/securecutil.h **** #define SECUREC_CALC_STR_LEN_OPT SECUREC_CALC_STR_LEN
 183:/home/xingli/share/LiteOS_Lab/secure_c/src/securecutil.h **** #endif
 184:/home/xingli/share/LiteOS_Lab/secure_c/src/securecutil.h **** 
 185:/home/xingli/share/LiteOS_Lab/secure_c/src/securecutil.h **** #define SECUREC_CALC_WSTR_LEN(str, maxLen, outLen) do { \
 186:/home/xingli/share/LiteOS_Lab/secure_c/src/securecutil.h ****     const wchar_t *strEnd = (const wchar_t *)(str); \
 187:/home/xingli/share/LiteOS_Lab/secure_c/src/securecutil.h ****     *(outLen) = 0; \
 188:/home/xingli/share/LiteOS_Lab/secure_c/src/securecutil.h ****     while (*(outLen) < (maxLen) && *strEnd != L'\0') { \
 189:/home/xingli/share/LiteOS_Lab/secure_c/src/securecutil.h ****         *(outLen) = *(outLen) + 1; \
 190:/home/xingli/share/LiteOS_Lab/secure_c/src/securecutil.h ****         ++strEnd; \
 191:/home/xingli/share/LiteOS_Lab/secure_c/src/securecutil.h ****     } \
 192:/home/xingli/share/LiteOS_Lab/secure_c/src/securecutil.h **** } SECUREC_WHILE_ZERO
 193:/home/xingli/share/LiteOS_Lab/secure_c/src/securecutil.h **** 
 194:/home/xingli/share/LiteOS_Lab/secure_c/src/securecutil.h **** 
 195:/home/xingli/share/LiteOS_Lab/secure_c/src/securecutil.h **** #ifdef SECUREC_FORMAT_OUTPUT_INPUT
 196:/home/xingli/share/LiteOS_Lab/secure_c/src/securecutil.h **** #if defined(SECUREC_COMPATIBLE_WIN_FORMAT) || defined(__ARMCC_VERSION)
 197:/home/xingli/share/LiteOS_Lab/secure_c/src/securecutil.h **** typedef __int64 SecInt64;
 198:/home/xingli/share/LiteOS_Lab/secure_c/src/securecutil.h **** typedef unsigned __int64 SecUnsignedInt64;
 199:/home/xingli/share/LiteOS_Lab/secure_c/src/securecutil.h **** #if defined(__ARMCC_VERSION)
 200:/home/xingli/share/LiteOS_Lab/secure_c/src/securecutil.h **** typedef unsigned int SecUnsignedInt32;
 201:/home/xingli/share/LiteOS_Lab/secure_c/src/securecutil.h **** #else
 202:/home/xingli/share/LiteOS_Lab/secure_c/src/securecutil.h **** typedef unsigned __int32 SecUnsignedInt32;
 203:/home/xingli/share/LiteOS_Lab/secure_c/src/securecutil.h **** #endif
 204:/home/xingli/share/LiteOS_Lab/secure_c/src/securecutil.h **** #else
 205:/home/xingli/share/LiteOS_Lab/secure_c/src/securecutil.h **** typedef unsigned int SecUnsignedInt32;
 206:/home/xingli/share/LiteOS_Lab/secure_c/src/securecutil.h **** typedef long long SecInt64;
 207:/home/xingli/share/LiteOS_Lab/secure_c/src/securecutil.h **** typedef unsigned long long SecUnsignedInt64;
 208:/home/xingli/share/LiteOS_Lab/secure_c/src/securecutil.h **** #endif
 209:/home/xingli/share/LiteOS_Lab/secure_c/src/securecutil.h **** 
 210:/home/xingli/share/LiteOS_Lab/secure_c/src/securecutil.h **** #ifdef SECUREC_FOR_WCHAR
 211:/home/xingli/share/LiteOS_Lab/secure_c/src/securecutil.h **** #if defined(SECUREC_VXWORKS_PLATFORM) && !defined(__WINT_TYPE__)
 212:/home/xingli/share/LiteOS_Lab/secure_c/src/securecutil.h **** typedef wchar_t wint_t;
 213:/home/xingli/share/LiteOS_Lab/secure_c/src/securecutil.h **** #endif
 214:/home/xingli/share/LiteOS_Lab/secure_c/src/securecutil.h **** typedef wchar_t SecChar;
 215:/home/xingli/share/LiteOS_Lab/secure_c/src/securecutil.h **** typedef wchar_t SecUnsignedChar;
 216:/home/xingli/share/LiteOS_Lab/secure_c/src/securecutil.h **** typedef wint_t SecInt;
 217:/home/xingli/share/LiteOS_Lab/secure_c/src/securecutil.h **** typedef wint_t SecUnsignedInt;
 218:/home/xingli/share/LiteOS_Lab/secure_c/src/securecutil.h **** #else /*  no SECUREC_FOR_WCHAR */
 219:/home/xingli/share/LiteOS_Lab/secure_c/src/securecutil.h **** typedef char SecChar;
 220:/home/xingli/share/LiteOS_Lab/secure_c/src/securecutil.h **** typedef unsigned char SecUnsignedChar;
 221:/home/xingli/share/LiteOS_Lab/secure_c/src/securecutil.h **** typedef int SecInt;
GAS LISTING /tmp/cctkD7cV.s 			page 5


 222:/home/xingli/share/LiteOS_Lab/secure_c/src/securecutil.h **** typedef unsigned int SecUnsignedInt;
 223:/home/xingli/share/LiteOS_Lab/secure_c/src/securecutil.h **** #endif
 224:/home/xingli/share/LiteOS_Lab/secure_c/src/securecutil.h **** #endif
 225:/home/xingli/share/LiteOS_Lab/secure_c/src/securecutil.h **** 
 226:/home/xingli/share/LiteOS_Lab/secure_c/src/securecutil.h **** /* Determine whether the address is 8-byte aligned
 227:/home/xingli/share/LiteOS_Lab/secure_c/src/securecutil.h ****  * Some systems do not have uintptr_t type, so  use NULL to clear tool alarm 507
 228:/home/xingli/share/LiteOS_Lab/secure_c/src/securecutil.h ****  */
 229:/home/xingli/share/LiteOS_Lab/secure_c/src/securecutil.h **** #define SECUREC_ADDR_ALIGNED_8(addr) (SecIsAddrAligned8((addr), NULL) == 0)
 230:/home/xingli/share/LiteOS_Lab/secure_c/src/securecutil.h **** 
 231:/home/xingli/share/LiteOS_Lab/secure_c/src/securecutil.h **** /* If you define the memory allocation function,
 232:/home/xingli/share/LiteOS_Lab/secure_c/src/securecutil.h ****  * you need to define the function prototype. You can define this macro as a header file.
 233:/home/xingli/share/LiteOS_Lab/secure_c/src/securecutil.h ****  */
 234:/home/xingli/share/LiteOS_Lab/secure_c/src/securecutil.h **** #if defined(SECUREC_MALLOC_PROTOTYPE)
 235:/home/xingli/share/LiteOS_Lab/secure_c/src/securecutil.h **** SECUREC_MALLOC_PROTOTYPE
 236:/home/xingli/share/LiteOS_Lab/secure_c/src/securecutil.h **** #endif
 237:/home/xingli/share/LiteOS_Lab/secure_c/src/securecutil.h **** 
 238:/home/xingli/share/LiteOS_Lab/secure_c/src/securecutil.h **** #ifndef SECUREC_MALLOC
 239:/home/xingli/share/LiteOS_Lab/secure_c/src/securecutil.h **** #define SECUREC_MALLOC(x) malloc((size_t)(x))
 240:/home/xingli/share/LiteOS_Lab/secure_c/src/securecutil.h **** #endif
 241:/home/xingli/share/LiteOS_Lab/secure_c/src/securecutil.h **** 
 242:/home/xingli/share/LiteOS_Lab/secure_c/src/securecutil.h **** #ifndef SECUREC_FREE
 243:/home/xingli/share/LiteOS_Lab/secure_c/src/securecutil.h **** #define SECUREC_FREE(x)   free((void *)(x))
 244:/home/xingli/share/LiteOS_Lab/secure_c/src/securecutil.h **** #endif
 245:/home/xingli/share/LiteOS_Lab/secure_c/src/securecutil.h **** 
 246:/home/xingli/share/LiteOS_Lab/secure_c/src/securecutil.h **** /* struct for performance */
 247:/home/xingli/share/LiteOS_Lab/secure_c/src/securecutil.h **** typedef struct {
 248:/home/xingli/share/LiteOS_Lab/secure_c/src/securecutil.h ****     unsigned char buf[1]; /* Performance optimization code structure assignment length 1 bytes */
 249:/home/xingli/share/LiteOS_Lab/secure_c/src/securecutil.h **** } SecStrBuf1;
 250:/home/xingli/share/LiteOS_Lab/secure_c/src/securecutil.h **** typedef struct {
 251:/home/xingli/share/LiteOS_Lab/secure_c/src/securecutil.h ****     unsigned char buf[2]; /* Performance optimization code structure assignment length 2 bytes */
 252:/home/xingli/share/LiteOS_Lab/secure_c/src/securecutil.h **** } SecStrBuf2;
 253:/home/xingli/share/LiteOS_Lab/secure_c/src/securecutil.h **** typedef struct {
 254:/home/xingli/share/LiteOS_Lab/secure_c/src/securecutil.h ****     unsigned char buf[3]; /* Performance optimization code structure assignment length 3 bytes */
 255:/home/xingli/share/LiteOS_Lab/secure_c/src/securecutil.h **** } SecStrBuf3;
 256:/home/xingli/share/LiteOS_Lab/secure_c/src/securecutil.h **** typedef struct {
 257:/home/xingli/share/LiteOS_Lab/secure_c/src/securecutil.h ****     unsigned char buf[4]; /* Performance optimization code structure assignment length 4 bytes */
 258:/home/xingli/share/LiteOS_Lab/secure_c/src/securecutil.h **** } SecStrBuf4;
 259:/home/xingli/share/LiteOS_Lab/secure_c/src/securecutil.h **** typedef struct {
 260:/home/xingli/share/LiteOS_Lab/secure_c/src/securecutil.h ****     unsigned char buf[5]; /* Performance optimization code structure assignment length 5 bytes */
 261:/home/xingli/share/LiteOS_Lab/secure_c/src/securecutil.h **** } SecStrBuf5;
 262:/home/xingli/share/LiteOS_Lab/secure_c/src/securecutil.h **** typedef struct {
 263:/home/xingli/share/LiteOS_Lab/secure_c/src/securecutil.h ****     unsigned char buf[6]; /* Performance optimization code structure assignment length 6 bytes */
 264:/home/xingli/share/LiteOS_Lab/secure_c/src/securecutil.h **** } SecStrBuf6;
 265:/home/xingli/share/LiteOS_Lab/secure_c/src/securecutil.h **** typedef struct {
 266:/home/xingli/share/LiteOS_Lab/secure_c/src/securecutil.h ****     unsigned char buf[7]; /* Performance optimization code structure assignment length 7 bytes */
 267:/home/xingli/share/LiteOS_Lab/secure_c/src/securecutil.h **** } SecStrBuf7;
 268:/home/xingli/share/LiteOS_Lab/secure_c/src/securecutil.h **** typedef struct {
 269:/home/xingli/share/LiteOS_Lab/secure_c/src/securecutil.h ****     unsigned char buf[8]; /* Performance optimization code structure assignment length 8 bytes */
 270:/home/xingli/share/LiteOS_Lab/secure_c/src/securecutil.h **** } SecStrBuf8;
 271:/home/xingli/share/LiteOS_Lab/secure_c/src/securecutil.h **** typedef struct {
 272:/home/xingli/share/LiteOS_Lab/secure_c/src/securecutil.h ****     unsigned char buf[9]; /* Performance optimization code structure assignment length 9 bytes */
 273:/home/xingli/share/LiteOS_Lab/secure_c/src/securecutil.h **** } SecStrBuf9;
 274:/home/xingli/share/LiteOS_Lab/secure_c/src/securecutil.h **** typedef struct {
 275:/home/xingli/share/LiteOS_Lab/secure_c/src/securecutil.h ****     unsigned char buf[10]; /* Performance optimization code structure assignment length 10 bytes */
 276:/home/xingli/share/LiteOS_Lab/secure_c/src/securecutil.h **** } SecStrBuf10;
 277:/home/xingli/share/LiteOS_Lab/secure_c/src/securecutil.h **** typedef struct {
 278:/home/xingli/share/LiteOS_Lab/secure_c/src/securecutil.h ****     unsigned char buf[11]; /* Performance optimization code structure assignment length 11 bytes */
GAS LISTING /tmp/cctkD7cV.s 			page 6


 279:/home/xingli/share/LiteOS_Lab/secure_c/src/securecutil.h **** } SecStrBuf11;
 280:/home/xingli/share/LiteOS_Lab/secure_c/src/securecutil.h **** typedef struct {
 281:/home/xingli/share/LiteOS_Lab/secure_c/src/securecutil.h ****     unsigned char buf[12]; /* Performance optimization code structure assignment length 12 bytes */
 282:/home/xingli/share/LiteOS_Lab/secure_c/src/securecutil.h **** } SecStrBuf12;
 283:/home/xingli/share/LiteOS_Lab/secure_c/src/securecutil.h **** typedef struct {
 284:/home/xingli/share/LiteOS_Lab/secure_c/src/securecutil.h ****     unsigned char buf[13]; /* Performance optimization code structure assignment length 13 bytes */
 285:/home/xingli/share/LiteOS_Lab/secure_c/src/securecutil.h **** } SecStrBuf13;
 286:/home/xingli/share/LiteOS_Lab/secure_c/src/securecutil.h **** typedef struct {
 287:/home/xingli/share/LiteOS_Lab/secure_c/src/securecutil.h ****     unsigned char buf[14]; /* Performance optimization code structure assignment length 14 bytes */
 288:/home/xingli/share/LiteOS_Lab/secure_c/src/securecutil.h **** } SecStrBuf14;
 289:/home/xingli/share/LiteOS_Lab/secure_c/src/securecutil.h **** typedef struct {
 290:/home/xingli/share/LiteOS_Lab/secure_c/src/securecutil.h ****     unsigned char buf[15]; /* Performance optimization code structure assignment length 15 bytes */
 291:/home/xingli/share/LiteOS_Lab/secure_c/src/securecutil.h **** } SecStrBuf15;
 292:/home/xingli/share/LiteOS_Lab/secure_c/src/securecutil.h **** typedef struct {
 293:/home/xingli/share/LiteOS_Lab/secure_c/src/securecutil.h ****     unsigned char buf[16]; /* Performance optimization code structure assignment length 16 bytes */
 294:/home/xingli/share/LiteOS_Lab/secure_c/src/securecutil.h **** } SecStrBuf16;
 295:/home/xingli/share/LiteOS_Lab/secure_c/src/securecutil.h **** typedef struct {
 296:/home/xingli/share/LiteOS_Lab/secure_c/src/securecutil.h ****     unsigned char buf[17]; /* Performance optimization code structure assignment length 17 bytes */
 297:/home/xingli/share/LiteOS_Lab/secure_c/src/securecutil.h **** } SecStrBuf17;
 298:/home/xingli/share/LiteOS_Lab/secure_c/src/securecutil.h **** typedef struct {
 299:/home/xingli/share/LiteOS_Lab/secure_c/src/securecutil.h ****     unsigned char buf[18]; /* Performance optimization code structure assignment length 18 bytes */
 300:/home/xingli/share/LiteOS_Lab/secure_c/src/securecutil.h **** } SecStrBuf18;
 301:/home/xingli/share/LiteOS_Lab/secure_c/src/securecutil.h **** typedef struct {
 302:/home/xingli/share/LiteOS_Lab/secure_c/src/securecutil.h ****     unsigned char buf[19]; /* Performance optimization code structure assignment length 19 bytes */
 303:/home/xingli/share/LiteOS_Lab/secure_c/src/securecutil.h **** } SecStrBuf19;
 304:/home/xingli/share/LiteOS_Lab/secure_c/src/securecutil.h **** typedef struct {
 305:/home/xingli/share/LiteOS_Lab/secure_c/src/securecutil.h ****     unsigned char buf[20]; /* Performance optimization code structure assignment length 20 bytes */
 306:/home/xingli/share/LiteOS_Lab/secure_c/src/securecutil.h **** } SecStrBuf20;
 307:/home/xingli/share/LiteOS_Lab/secure_c/src/securecutil.h **** typedef struct {
 308:/home/xingli/share/LiteOS_Lab/secure_c/src/securecutil.h ****     unsigned char buf[21]; /* Performance optimization code structure assignment length 21 bytes */
 309:/home/xingli/share/LiteOS_Lab/secure_c/src/securecutil.h **** } SecStrBuf21;
 310:/home/xingli/share/LiteOS_Lab/secure_c/src/securecutil.h **** typedef struct {
 311:/home/xingli/share/LiteOS_Lab/secure_c/src/securecutil.h ****     unsigned char buf[22]; /* Performance optimization code structure assignment length 22 bytes */
 312:/home/xingli/share/LiteOS_Lab/secure_c/src/securecutil.h **** } SecStrBuf22;
 313:/home/xingli/share/LiteOS_Lab/secure_c/src/securecutil.h **** typedef struct {
 314:/home/xingli/share/LiteOS_Lab/secure_c/src/securecutil.h ****     unsigned char buf[23]; /* Performance optimization code structure assignment length 23 bytes */
 315:/home/xingli/share/LiteOS_Lab/secure_c/src/securecutil.h **** } SecStrBuf23;
 316:/home/xingli/share/LiteOS_Lab/secure_c/src/securecutil.h **** typedef struct {
 317:/home/xingli/share/LiteOS_Lab/secure_c/src/securecutil.h ****     unsigned char buf[24]; /* Performance optimization code structure assignment length 24 bytes */
 318:/home/xingli/share/LiteOS_Lab/secure_c/src/securecutil.h **** } SecStrBuf24;
 319:/home/xingli/share/LiteOS_Lab/secure_c/src/securecutil.h **** typedef struct {
 320:/home/xingli/share/LiteOS_Lab/secure_c/src/securecutil.h ****     unsigned char buf[25]; /* Performance optimization code structure assignment length 25 bytes */
 321:/home/xingli/share/LiteOS_Lab/secure_c/src/securecutil.h **** } SecStrBuf25;
 322:/home/xingli/share/LiteOS_Lab/secure_c/src/securecutil.h **** typedef struct {
 323:/home/xingli/share/LiteOS_Lab/secure_c/src/securecutil.h ****     unsigned char buf[26]; /* Performance optimization code structure assignment length 26 bytes */
 324:/home/xingli/share/LiteOS_Lab/secure_c/src/securecutil.h **** } SecStrBuf26;
 325:/home/xingli/share/LiteOS_Lab/secure_c/src/securecutil.h **** typedef struct {
 326:/home/xingli/share/LiteOS_Lab/secure_c/src/securecutil.h ****     unsigned char buf[27]; /* Performance optimization code structure assignment length 27 bytes */
 327:/home/xingli/share/LiteOS_Lab/secure_c/src/securecutil.h **** } SecStrBuf27;
 328:/home/xingli/share/LiteOS_Lab/secure_c/src/securecutil.h **** typedef struct {
 329:/home/xingli/share/LiteOS_Lab/secure_c/src/securecutil.h ****     unsigned char buf[28]; /* Performance optimization code structure assignment length 28 bytes */
 330:/home/xingli/share/LiteOS_Lab/secure_c/src/securecutil.h **** } SecStrBuf28;
 331:/home/xingli/share/LiteOS_Lab/secure_c/src/securecutil.h **** typedef struct {
 332:/home/xingli/share/LiteOS_Lab/secure_c/src/securecutil.h ****     unsigned char buf[29]; /* Performance optimization code structure assignment length 29 bytes */
 333:/home/xingli/share/LiteOS_Lab/secure_c/src/securecutil.h **** } SecStrBuf29;
 334:/home/xingli/share/LiteOS_Lab/secure_c/src/securecutil.h **** typedef struct {
 335:/home/xingli/share/LiteOS_Lab/secure_c/src/securecutil.h ****     unsigned char buf[30]; /* Performance optimization code structure assignment length 30 bytes */
GAS LISTING /tmp/cctkD7cV.s 			page 7


 336:/home/xingli/share/LiteOS_Lab/secure_c/src/securecutil.h **** } SecStrBuf30;
 337:/home/xingli/share/LiteOS_Lab/secure_c/src/securecutil.h **** typedef struct {
 338:/home/xingli/share/LiteOS_Lab/secure_c/src/securecutil.h ****     unsigned char buf[31]; /* Performance optimization code structure assignment length 31 bytes */
 339:/home/xingli/share/LiteOS_Lab/secure_c/src/securecutil.h **** } SecStrBuf31;
 340:/home/xingli/share/LiteOS_Lab/secure_c/src/securecutil.h **** typedef struct {
 341:/home/xingli/share/LiteOS_Lab/secure_c/src/securecutil.h ****     unsigned char buf[32]; /* Performance optimization code structure assignment length 32 bytes */
 342:/home/xingli/share/LiteOS_Lab/secure_c/src/securecutil.h **** } SecStrBuf32;
 343:/home/xingli/share/LiteOS_Lab/secure_c/src/securecutil.h **** typedef struct {
 344:/home/xingli/share/LiteOS_Lab/secure_c/src/securecutil.h ****     unsigned char buf[33]; /* Performance optimization code structure assignment length 33 bytes */
 345:/home/xingli/share/LiteOS_Lab/secure_c/src/securecutil.h **** } SecStrBuf33;
 346:/home/xingli/share/LiteOS_Lab/secure_c/src/securecutil.h **** typedef struct {
 347:/home/xingli/share/LiteOS_Lab/secure_c/src/securecutil.h ****     unsigned char buf[34]; /* Performance optimization code structure assignment length 34 bytes */
 348:/home/xingli/share/LiteOS_Lab/secure_c/src/securecutil.h **** } SecStrBuf34;
 349:/home/xingli/share/LiteOS_Lab/secure_c/src/securecutil.h **** typedef struct {
 350:/home/xingli/share/LiteOS_Lab/secure_c/src/securecutil.h ****     unsigned char buf[35]; /* Performance optimization code structure assignment length 35 bytes */
 351:/home/xingli/share/LiteOS_Lab/secure_c/src/securecutil.h **** } SecStrBuf35;
 352:/home/xingli/share/LiteOS_Lab/secure_c/src/securecutil.h **** typedef struct {
 353:/home/xingli/share/LiteOS_Lab/secure_c/src/securecutil.h ****     unsigned char buf[36]; /* Performance optimization code structure assignment length 36 bytes */
 354:/home/xingli/share/LiteOS_Lab/secure_c/src/securecutil.h **** } SecStrBuf36;
 355:/home/xingli/share/LiteOS_Lab/secure_c/src/securecutil.h **** typedef struct {
 356:/home/xingli/share/LiteOS_Lab/secure_c/src/securecutil.h ****     unsigned char buf[37]; /* Performance optimization code structure assignment length 37 bytes */
 357:/home/xingli/share/LiteOS_Lab/secure_c/src/securecutil.h **** } SecStrBuf37;
 358:/home/xingli/share/LiteOS_Lab/secure_c/src/securecutil.h **** typedef struct {
 359:/home/xingli/share/LiteOS_Lab/secure_c/src/securecutil.h ****     unsigned char buf[38]; /* Performance optimization code structure assignment length 38 bytes */
 360:/home/xingli/share/LiteOS_Lab/secure_c/src/securecutil.h **** } SecStrBuf38;
 361:/home/xingli/share/LiteOS_Lab/secure_c/src/securecutil.h **** typedef struct {
 362:/home/xingli/share/LiteOS_Lab/secure_c/src/securecutil.h ****     unsigned char buf[39]; /* Performance optimization code structure assignment length 39 bytes */
 363:/home/xingli/share/LiteOS_Lab/secure_c/src/securecutil.h **** } SecStrBuf39;
 364:/home/xingli/share/LiteOS_Lab/secure_c/src/securecutil.h **** typedef struct {
 365:/home/xingli/share/LiteOS_Lab/secure_c/src/securecutil.h ****     unsigned char buf[40]; /* Performance optimization code structure assignment length 40 bytes */
 366:/home/xingli/share/LiteOS_Lab/secure_c/src/securecutil.h **** } SecStrBuf40;
 367:/home/xingli/share/LiteOS_Lab/secure_c/src/securecutil.h **** typedef struct {
 368:/home/xingli/share/LiteOS_Lab/secure_c/src/securecutil.h ****     unsigned char buf[41]; /* Performance optimization code structure assignment length 41 bytes */
 369:/home/xingli/share/LiteOS_Lab/secure_c/src/securecutil.h **** } SecStrBuf41;
 370:/home/xingli/share/LiteOS_Lab/secure_c/src/securecutil.h **** typedef struct {
 371:/home/xingli/share/LiteOS_Lab/secure_c/src/securecutil.h ****     unsigned char buf[42]; /* Performance optimization code structure assignment length 42 bytes */
 372:/home/xingli/share/LiteOS_Lab/secure_c/src/securecutil.h **** } SecStrBuf42;
 373:/home/xingli/share/LiteOS_Lab/secure_c/src/securecutil.h **** typedef struct {
 374:/home/xingli/share/LiteOS_Lab/secure_c/src/securecutil.h ****     unsigned char buf[43]; /* Performance optimization code structure assignment length 43 bytes */
 375:/home/xingli/share/LiteOS_Lab/secure_c/src/securecutil.h **** } SecStrBuf43;
 376:/home/xingli/share/LiteOS_Lab/secure_c/src/securecutil.h **** typedef struct {
 377:/home/xingli/share/LiteOS_Lab/secure_c/src/securecutil.h ****     unsigned char buf[44]; /* Performance optimization code structure assignment length 44 bytes */
 378:/home/xingli/share/LiteOS_Lab/secure_c/src/securecutil.h **** } SecStrBuf44;
 379:/home/xingli/share/LiteOS_Lab/secure_c/src/securecutil.h **** typedef struct {
 380:/home/xingli/share/LiteOS_Lab/secure_c/src/securecutil.h ****     unsigned char buf[45]; /* Performance optimization code structure assignment length 45 bytes */
 381:/home/xingli/share/LiteOS_Lab/secure_c/src/securecutil.h **** } SecStrBuf45;
 382:/home/xingli/share/LiteOS_Lab/secure_c/src/securecutil.h **** typedef struct {
 383:/home/xingli/share/LiteOS_Lab/secure_c/src/securecutil.h ****     unsigned char buf[46]; /* Performance optimization code structure assignment length 46 bytes */
 384:/home/xingli/share/LiteOS_Lab/secure_c/src/securecutil.h **** } SecStrBuf46;
 385:/home/xingli/share/LiteOS_Lab/secure_c/src/securecutil.h **** typedef struct {
 386:/home/xingli/share/LiteOS_Lab/secure_c/src/securecutil.h ****     unsigned char buf[47]; /* Performance optimization code structure assignment length 47 bytes */
 387:/home/xingli/share/LiteOS_Lab/secure_c/src/securecutil.h **** } SecStrBuf47;
 388:/home/xingli/share/LiteOS_Lab/secure_c/src/securecutil.h **** typedef struct {
 389:/home/xingli/share/LiteOS_Lab/secure_c/src/securecutil.h ****     unsigned char buf[48]; /* Performance optimization code structure assignment length 48 bytes */
 390:/home/xingli/share/LiteOS_Lab/secure_c/src/securecutil.h **** } SecStrBuf48;
 391:/home/xingli/share/LiteOS_Lab/secure_c/src/securecutil.h **** typedef struct {
 392:/home/xingli/share/LiteOS_Lab/secure_c/src/securecutil.h ****     unsigned char buf[49]; /* Performance optimization code structure assignment length 49 bytes */
GAS LISTING /tmp/cctkD7cV.s 			page 8


 393:/home/xingli/share/LiteOS_Lab/secure_c/src/securecutil.h **** } SecStrBuf49;
 394:/home/xingli/share/LiteOS_Lab/secure_c/src/securecutil.h **** typedef struct {
 395:/home/xingli/share/LiteOS_Lab/secure_c/src/securecutil.h ****     unsigned char buf[50]; /* Performance optimization code structure assignment length 50 bytes */
 396:/home/xingli/share/LiteOS_Lab/secure_c/src/securecutil.h **** } SecStrBuf50;
 397:/home/xingli/share/LiteOS_Lab/secure_c/src/securecutil.h **** typedef struct {
 398:/home/xingli/share/LiteOS_Lab/secure_c/src/securecutil.h ****     unsigned char buf[51]; /* Performance optimization code structure assignment length 51 bytes */
 399:/home/xingli/share/LiteOS_Lab/secure_c/src/securecutil.h **** } SecStrBuf51;
 400:/home/xingli/share/LiteOS_Lab/secure_c/src/securecutil.h **** typedef struct {
 401:/home/xingli/share/LiteOS_Lab/secure_c/src/securecutil.h ****     unsigned char buf[52]; /* Performance optimization code structure assignment length 52 bytes */
 402:/home/xingli/share/LiteOS_Lab/secure_c/src/securecutil.h **** } SecStrBuf52;
 403:/home/xingli/share/LiteOS_Lab/secure_c/src/securecutil.h **** typedef struct {
 404:/home/xingli/share/LiteOS_Lab/secure_c/src/securecutil.h ****     unsigned char buf[53]; /* Performance optimization code structure assignment length 53 bytes */
 405:/home/xingli/share/LiteOS_Lab/secure_c/src/securecutil.h **** } SecStrBuf53;
 406:/home/xingli/share/LiteOS_Lab/secure_c/src/securecutil.h **** typedef struct {
 407:/home/xingli/share/LiteOS_Lab/secure_c/src/securecutil.h ****     unsigned char buf[54]; /* Performance optimization code structure assignment length 54 bytes */
 408:/home/xingli/share/LiteOS_Lab/secure_c/src/securecutil.h **** } SecStrBuf54;
 409:/home/xingli/share/LiteOS_Lab/secure_c/src/securecutil.h **** typedef struct {
 410:/home/xingli/share/LiteOS_Lab/secure_c/src/securecutil.h ****     unsigned char buf[55]; /* Performance optimization code structure assignment length 55 bytes */
 411:/home/xingli/share/LiteOS_Lab/secure_c/src/securecutil.h **** } SecStrBuf55;
 412:/home/xingli/share/LiteOS_Lab/secure_c/src/securecutil.h **** typedef struct {
 413:/home/xingli/share/LiteOS_Lab/secure_c/src/securecutil.h ****     unsigned char buf[56]; /* Performance optimization code structure assignment length 56 bytes */
 414:/home/xingli/share/LiteOS_Lab/secure_c/src/securecutil.h **** } SecStrBuf56;
 415:/home/xingli/share/LiteOS_Lab/secure_c/src/securecutil.h **** typedef struct {
 416:/home/xingli/share/LiteOS_Lab/secure_c/src/securecutil.h ****     unsigned char buf[57]; /* Performance optimization code structure assignment length 57 bytes */
 417:/home/xingli/share/LiteOS_Lab/secure_c/src/securecutil.h **** } SecStrBuf57;
 418:/home/xingli/share/LiteOS_Lab/secure_c/src/securecutil.h **** typedef struct {
 419:/home/xingli/share/LiteOS_Lab/secure_c/src/securecutil.h ****     unsigned char buf[58]; /* Performance optimization code structure assignment length 58 bytes */
 420:/home/xingli/share/LiteOS_Lab/secure_c/src/securecutil.h **** } SecStrBuf58;
 421:/home/xingli/share/LiteOS_Lab/secure_c/src/securecutil.h **** typedef struct {
 422:/home/xingli/share/LiteOS_Lab/secure_c/src/securecutil.h ****     unsigned char buf[59]; /* Performance optimization code structure assignment length 59 bytes */
 423:/home/xingli/share/LiteOS_Lab/secure_c/src/securecutil.h **** } SecStrBuf59;
 424:/home/xingli/share/LiteOS_Lab/secure_c/src/securecutil.h **** typedef struct {
 425:/home/xingli/share/LiteOS_Lab/secure_c/src/securecutil.h ****     unsigned char buf[60]; /* Performance optimization code structure assignment length 60 bytes */
 426:/home/xingli/share/LiteOS_Lab/secure_c/src/securecutil.h **** } SecStrBuf60;
 427:/home/xingli/share/LiteOS_Lab/secure_c/src/securecutil.h **** typedef struct {
 428:/home/xingli/share/LiteOS_Lab/secure_c/src/securecutil.h ****     unsigned char buf[61]; /* Performance optimization code structure assignment length 61 bytes */
 429:/home/xingli/share/LiteOS_Lab/secure_c/src/securecutil.h **** } SecStrBuf61;
 430:/home/xingli/share/LiteOS_Lab/secure_c/src/securecutil.h **** typedef struct {
 431:/home/xingli/share/LiteOS_Lab/secure_c/src/securecutil.h ****     unsigned char buf[62]; /* Performance optimization code structure assignment length 62 bytes */
 432:/home/xingli/share/LiteOS_Lab/secure_c/src/securecutil.h **** } SecStrBuf62;
 433:/home/xingli/share/LiteOS_Lab/secure_c/src/securecutil.h **** typedef struct {
 434:/home/xingli/share/LiteOS_Lab/secure_c/src/securecutil.h ****     unsigned char buf[63]; /* Performance optimization code structure assignment length 63 bytes */
 435:/home/xingli/share/LiteOS_Lab/secure_c/src/securecutil.h **** } SecStrBuf63;
 436:/home/xingli/share/LiteOS_Lab/secure_c/src/securecutil.h **** typedef struct {
 437:/home/xingli/share/LiteOS_Lab/secure_c/src/securecutil.h ****     unsigned char buf[64]; /* Performance optimization code structure assignment length 64 bytes */
 438:/home/xingli/share/LiteOS_Lab/secure_c/src/securecutil.h **** } SecStrBuf64;
 439:/home/xingli/share/LiteOS_Lab/secure_c/src/securecutil.h **** 
 440:/home/xingli/share/LiteOS_Lab/secure_c/src/securecutil.h **** 
 441:/home/xingli/share/LiteOS_Lab/secure_c/src/securecutil.h **** 
 442:/home/xingli/share/LiteOS_Lab/secure_c/src/securecutil.h **** 
 443:/home/xingli/share/LiteOS_Lab/secure_c/src/securecutil.h **** /* User can change the error handler by modify the following definition,
 444:/home/xingli/share/LiteOS_Lab/secure_c/src/securecutil.h ****  * such as logging the detail error in file.
 445:/home/xingli/share/LiteOS_Lab/secure_c/src/securecutil.h ****  */
 446:/home/xingli/share/LiteOS_Lab/secure_c/src/securecutil.h **** #if defined(_DEBUG) || defined(DEBUG)
 447:/home/xingli/share/LiteOS_Lab/secure_c/src/securecutil.h **** #if defined(SECUREC_ERROR_HANDLER_BY_ASSERT)
 448:/home/xingli/share/LiteOS_Lab/secure_c/src/securecutil.h **** #define SECUREC_ERROR_INVALID_PARAMTER(msg) assert(msg "invalid argument" == NULL)
 449:/home/xingli/share/LiteOS_Lab/secure_c/src/securecutil.h **** #define SECUREC_ERROR_INVALID_RANGE(msg)    assert(msg "invalid dest buffer size" == NULL)
GAS LISTING /tmp/cctkD7cV.s 			page 9


 450:/home/xingli/share/LiteOS_Lab/secure_c/src/securecutil.h **** #define SECUREC_ERROR_BUFFER_OVERLAP(msg)   assert(msg "buffer overlap" == NULL)
 451:/home/xingli/share/LiteOS_Lab/secure_c/src/securecutil.h **** #elif defined(SECUREC_ERROR_HANDLER_BY_PRINTF)
 452:/home/xingli/share/LiteOS_Lab/secure_c/src/securecutil.h **** #if SECUREC_IN_KERNEL
 453:/home/xingli/share/LiteOS_Lab/secure_c/src/securecutil.h **** #define SECUREC_ERROR_INVALID_PARAMTER(msg) printk("%s invalid argument\n", msg)
 454:/home/xingli/share/LiteOS_Lab/secure_c/src/securecutil.h **** #define SECUREC_ERROR_INVALID_RANGE(msg)    printk("%s invalid dest buffer size\n", msg)
 455:/home/xingli/share/LiteOS_Lab/secure_c/src/securecutil.h **** #define SECUREC_ERROR_BUFFER_OVERLAP(msg)   printk("%s buffer overlap\n", msg)
 456:/home/xingli/share/LiteOS_Lab/secure_c/src/securecutil.h **** #else
 457:/home/xingli/share/LiteOS_Lab/secure_c/src/securecutil.h **** #define SECUREC_ERROR_INVALID_PARAMTER(msg) printf("%s invalid argument\n", msg)
 458:/home/xingli/share/LiteOS_Lab/secure_c/src/securecutil.h **** #define SECUREC_ERROR_INVALID_RANGE(msg)    printf("%s invalid dest buffer size\n", msg)
 459:/home/xingli/share/LiteOS_Lab/secure_c/src/securecutil.h **** #define SECUREC_ERROR_BUFFER_OVERLAP(msg)   printf("%s buffer overlap\n", msg)
 460:/home/xingli/share/LiteOS_Lab/secure_c/src/securecutil.h **** #endif
 461:/home/xingli/share/LiteOS_Lab/secure_c/src/securecutil.h **** #elif defined(SECUREC_ERROR_HANDLER_BY_FILE_LOG)
 462:/home/xingli/share/LiteOS_Lab/secure_c/src/securecutil.h **** #define SECUREC_ERROR_INVALID_PARAMTER(msg) LogSecureCRuntimeError(msg " EINVAL\n")
 463:/home/xingli/share/LiteOS_Lab/secure_c/src/securecutil.h **** #define SECUREC_ERROR_INVALID_RANGE(msg)    LogSecureCRuntimeError(msg " ERANGE\n")
 464:/home/xingli/share/LiteOS_Lab/secure_c/src/securecutil.h **** #define SECUREC_ERROR_BUFFER_OVERLAP(msg)   LogSecureCRuntimeError(msg " EOVERLAP\n")
 465:/home/xingli/share/LiteOS_Lab/secure_c/src/securecutil.h **** #else /* no HANDLER is defined */
 466:/home/xingli/share/LiteOS_Lab/secure_c/src/securecutil.h **** #define SECUREC_ERROR_INVALID_PARAMTER(msg) ((void)0)
 467:/home/xingli/share/LiteOS_Lab/secure_c/src/securecutil.h **** #define SECUREC_ERROR_INVALID_RANGE(msg)    ((void)0)
 468:/home/xingli/share/LiteOS_Lab/secure_c/src/securecutil.h **** #define SECUREC_ERROR_BUFFER_OVERLAP(msg)   ((void)0)
 469:/home/xingli/share/LiteOS_Lab/secure_c/src/securecutil.h **** #endif
 470:/home/xingli/share/LiteOS_Lab/secure_c/src/securecutil.h **** #else /* no DEBUG */
 471:/home/xingli/share/LiteOS_Lab/secure_c/src/securecutil.h **** #define SECUREC_ERROR_INVALID_PARAMTER(msg) ((void)0)
 472:/home/xingli/share/LiteOS_Lab/secure_c/src/securecutil.h **** #define SECUREC_ERROR_INVALID_RANGE(msg)    ((void)0)
 473:/home/xingli/share/LiteOS_Lab/secure_c/src/securecutil.h **** #define SECUREC_ERROR_BUFFER_OVERLAP(msg)   ((void)0)
 474:/home/xingli/share/LiteOS_Lab/secure_c/src/securecutil.h **** #endif
 475:/home/xingli/share/LiteOS_Lab/secure_c/src/securecutil.h **** 
 476:/home/xingli/share/LiteOS_Lab/secure_c/src/securecutil.h **** #ifdef __cplusplus
 477:/home/xingli/share/LiteOS_Lab/secure_c/src/securecutil.h **** extern "C" {
 478:/home/xingli/share/LiteOS_Lab/secure_c/src/securecutil.h **** #endif
 479:/home/xingli/share/LiteOS_Lab/secure_c/src/securecutil.h **** 
 480:/home/xingli/share/LiteOS_Lab/secure_c/src/securecutil.h **** /* assembly language memory copy and memory set for X86 or MIPS ... */
 481:/home/xingli/share/LiteOS_Lab/secure_c/src/securecutil.h **** #ifdef SECUREC_USE_ASM
 482:/home/xingli/share/LiteOS_Lab/secure_c/src/securecutil.h ****     extern void *memcpy_opt(void *, const void *, size_t);
 483:/home/xingli/share/LiteOS_Lab/secure_c/src/securecutil.h ****     extern void *memset_opt(void *, int, size_t);
 484:/home/xingli/share/LiteOS_Lab/secure_c/src/securecutil.h **** #endif
 485:/home/xingli/share/LiteOS_Lab/secure_c/src/securecutil.h **** 
 486:/home/xingli/share/LiteOS_Lab/secure_c/src/securecutil.h **** #if defined(SECUREC_ERROR_HANDLER_BY_FILE_LOG)
 487:/home/xingli/share/LiteOS_Lab/secure_c/src/securecutil.h ****     extern void LogSecureCRuntimeError(const char *errDetail);
 488:/home/xingli/share/LiteOS_Lab/secure_c/src/securecutil.h **** #endif
 489:/home/xingli/share/LiteOS_Lab/secure_c/src/securecutil.h **** 
 490:/home/xingli/share/LiteOS_Lab/secure_c/src/securecutil.h **** #ifdef SECUREC_INLINE_DO_MEMCPY
 491:/home/xingli/share/LiteOS_Lab/secure_c/src/securecutil.h **** static void SecDoMemcpy(void *dest, const void *src, size_t count)
 492:/home/xingli/share/LiteOS_Lab/secure_c/src/securecutil.h **** {
   9              		.loc 1 492 1
  10              		.cfi_startproc
  11 0000 F30F1EFA 		endbr64
  12 0004 55       		pushq	%rbp
  13              	.LCFI0:
  14              		.cfi_def_cfa_offset 16
  15              		.cfi_offset 6, -16
  16 0005 4889E5   		movq	%rsp, %rbp
  17              	.LCFI1:
  18              		.cfi_def_cfa_register 6
  19 0008 4883EC30 		subq	$48, %rsp
  20 000c 48897DE8 		movq	%rdi, -24(%rbp)
  21 0010 488975E0 		movq	%rsi, -32(%rbp)
  22 0014 488955D8 		movq	%rdx, -40(%rbp)
GAS LISTING /tmp/cctkD7cV.s 			page 10


  23              		.loc 1 492 1
  24 0018 64488B04 		movq	%fs:40, %rax
  24      25280000 
  24      00
  25 0021 488945F8 		movq	%rax, -8(%rbp)
  26 0025 31C0     		xorl	%eax, %eax
 493:/home/xingli/share/LiteOS_Lab/secure_c/src/securecutil.h ****     /*
 494:/home/xingli/share/LiteOS_Lab/secure_c/src/securecutil.h ****      * if SECUREC_USE_ASM macro is enabled, it will call assembly language function to improve perf
 495:/home/xingli/share/LiteOS_Lab/secure_c/src/securecutil.h ****      */
 496:/home/xingli/share/LiteOS_Lab/secure_c/src/securecutil.h **** #ifdef SECUREC_USE_ASM
 497:/home/xingli/share/LiteOS_Lab/secure_c/src/securecutil.h ****     (void)memcpy_opt(dest, src, count);
 498:/home/xingli/share/LiteOS_Lab/secure_c/src/securecutil.h **** #else
 499:/home/xingli/share/LiteOS_Lab/secure_c/src/securecutil.h ****     /* large enough, let system API do it */
 500:/home/xingli/share/LiteOS_Lab/secure_c/src/securecutil.h ****     (void)memcpy(dest, src, count);
  27              		.loc 1 500 11
  28 0027 488B55D8 		movq	-40(%rbp), %rdx
  29 002b 488B4DE0 		movq	-32(%rbp), %rcx
  30 002f 488B45E8 		movq	-24(%rbp), %rax
  31 0033 4889CE   		movq	%rcx, %rsi
  32 0036 4889C7   		movq	%rax, %rdi
  33 0039 E8000000 		call	memcpy@PLT
  33      00
 501:/home/xingli/share/LiteOS_Lab/secure_c/src/securecutil.h **** #endif
 502:/home/xingli/share/LiteOS_Lab/secure_c/src/securecutil.h **** }
  34              		.loc 1 502 1
  35 003e 90       		nop
  36 003f 488B45F8 		movq	-8(%rbp), %rax
  37 0043 64483304 		xorq	%fs:40, %rax
  37      25280000 
  37      00
  38 004c 7405     		je	.L2
  39 004e E8000000 		call	__stack_chk_fail@PLT
  39      00
  40              	.L2:
  41 0053 C9       		leave
  42              	.LCFI2:
  43              		.cfi_def_cfa 7, 8
  44 0054 C3       		ret
  45              		.cfi_endproc
  46              	.LFE6:
  48              		.section	.text.SecStrMinLen,"ax",@progbits
  50              	SecStrMinLen:
  51              	.LFB7:
 503:/home/xingli/share/LiteOS_Lab/secure_c/src/securecutil.h **** #endif
 504:/home/xingli/share/LiteOS_Lab/secure_c/src/securecutil.h **** 
 505:/home/xingli/share/LiteOS_Lab/secure_c/src/securecutil.h **** #ifdef SECUREC_INLINE_DO_MEMSET
 506:/home/xingli/share/LiteOS_Lab/secure_c/src/securecutil.h **** static void SecDoMemset(void *dest, int c, size_t count)
 507:/home/xingli/share/LiteOS_Lab/secure_c/src/securecutil.h **** {
 508:/home/xingli/share/LiteOS_Lab/secure_c/src/securecutil.h **** #ifdef SECUREC_USE_ASM
 509:/home/xingli/share/LiteOS_Lab/secure_c/src/securecutil.h ****     (void)memset_opt(dest, c, count);
 510:/home/xingli/share/LiteOS_Lab/secure_c/src/securecutil.h **** #else
 511:/home/xingli/share/LiteOS_Lab/secure_c/src/securecutil.h ****     (void)memset(dest, c, count);
 512:/home/xingli/share/LiteOS_Lab/secure_c/src/securecutil.h **** #endif
 513:/home/xingli/share/LiteOS_Lab/secure_c/src/securecutil.h **** }
 514:/home/xingli/share/LiteOS_Lab/secure_c/src/securecutil.h **** #endif
 515:/home/xingli/share/LiteOS_Lab/secure_c/src/securecutil.h **** 
 516:/home/xingli/share/LiteOS_Lab/secure_c/src/securecutil.h **** #ifdef SECUREC_INLINE_STR_LEN
GAS LISTING /tmp/cctkD7cV.s 			page 11


 517:/home/xingli/share/LiteOS_Lab/secure_c/src/securecutil.h **** /* The function compiler will be inlined and not placed in other files */
 518:/home/xingli/share/LiteOS_Lab/secure_c/src/securecutil.h **** static size_t SecStrMinLen(const char *str, size_t maxLen)
 519:/home/xingli/share/LiteOS_Lab/secure_c/src/securecutil.h **** {
  52              		.loc 1 519 1
  53              		.cfi_startproc
  54 0000 F30F1EFA 		endbr64
  55 0004 55       		pushq	%rbp
  56              	.LCFI3:
  57              		.cfi_def_cfa_offset 16
  58              		.cfi_offset 6, -16
  59 0005 4889E5   		movq	%rsp, %rbp
  60              	.LCFI4:
  61              		.cfi_def_cfa_register 6
  62 0008 4883EC20 		subq	$32, %rsp
  63 000c 48897DE8 		movq	%rdi, -24(%rbp)
  64 0010 488975E0 		movq	%rsi, -32(%rbp)
  65              		.loc 1 519 1
  66 0014 64488B04 		movq	%fs:40, %rax
  66      25280000 
  66      00
  67 001d 488945F8 		movq	%rax, -8(%rbp)
  68 0021 31C0     		xorl	%eax, %eax
 520:/home/xingli/share/LiteOS_Lab/secure_c/src/securecutil.h ****     size_t len;
 521:/home/xingli/share/LiteOS_Lab/secure_c/src/securecutil.h ****     SECUREC_CALC_STR_LEN(str, maxLen, &len);
  69              		.loc 1 521 5
  70 0023 488B55E0 		movq	-32(%rbp), %rdx
  71 0027 488B45E8 		movq	-24(%rbp), %rax
  72 002b 4889D6   		movq	%rdx, %rsi
  73 002e 4889C7   		movq	%rax, %rdi
  74 0031 E8000000 		call	strnlen@PLT
  74      00
  75 0036 488945F0 		movq	%rax, -16(%rbp)
 522:/home/xingli/share/LiteOS_Lab/secure_c/src/securecutil.h ****     return len;
  76              		.loc 1 522 12
  77 003a 488B45F0 		movq	-16(%rbp), %rax
 523:/home/xingli/share/LiteOS_Lab/secure_c/src/securecutil.h **** }
  78              		.loc 1 523 1
  79 003e 488B4DF8 		movq	-8(%rbp), %rcx
  80 0042 6448330C 		xorq	%fs:40, %rcx
  80      25280000 
  80      00
  81 004b 7405     		je	.L5
  82 004d E8000000 		call	__stack_chk_fail@PLT
  82      00
  83              	.L5:
  84 0052 C9       		leave
  85              	.LCFI5:
  86              		.cfi_def_cfa 7, 8
  87 0053 C3       		ret
  88              		.cfi_endproc
  89              	.LFE7:
  91              		.section	.text.SecStrMinLenOpt,"ax",@progbits
  93              	SecStrMinLenOpt:
  94              	.LFB8:
 524:/home/xingli/share/LiteOS_Lab/secure_c/src/securecutil.h **** #endif
 525:/home/xingli/share/LiteOS_Lab/secure_c/src/securecutil.h **** 
 526:/home/xingli/share/LiteOS_Lab/secure_c/src/securecutil.h **** #ifdef SECUREC_INLINE_STR_LEN_OPT
GAS LISTING /tmp/cctkD7cV.s 			page 12


 527:/home/xingli/share/LiteOS_Lab/secure_c/src/securecutil.h **** /* The function compiler will be inlined and not placed in other files */
 528:/home/xingli/share/LiteOS_Lab/secure_c/src/securecutil.h **** static size_t SecStrMinLenOpt(const char *str, size_t maxLen)
 529:/home/xingli/share/LiteOS_Lab/secure_c/src/securecutil.h **** {
  95              		.loc 1 529 1
  96              		.cfi_startproc
  97 0000 F30F1EFA 		endbr64
  98 0004 55       		pushq	%rbp
  99              	.LCFI6:
 100              		.cfi_def_cfa_offset 16
 101              		.cfi_offset 6, -16
 102 0005 4889E5   		movq	%rsp, %rbp
 103              	.LCFI7:
 104              		.cfi_def_cfa_register 6
 105 0008 4883EC20 		subq	$32, %rsp
 106 000c 48897DE8 		movq	%rdi, -24(%rbp)
 107 0010 488975E0 		movq	%rsi, -32(%rbp)
 108              		.loc 1 529 1
 109 0014 64488B04 		movq	%fs:40, %rax
 109      25280000 
 109      00
 110 001d 488945F8 		movq	%rax, -8(%rbp)
 111 0021 31C0     		xorl	%eax, %eax
 530:/home/xingli/share/LiteOS_Lab/secure_c/src/securecutil.h ****     size_t len;
 531:/home/xingli/share/LiteOS_Lab/secure_c/src/securecutil.h ****     SECUREC_CALC_STR_LEN_OPT(str, maxLen, &len);
 112              		.loc 1 531 5
 113 0023 48837DE0 		cmpq	$8, -32(%rbp)
 113      08
 114 0028 0F861401 		jbe	.L7
 114      0000
 115              		.loc 1 531 5 is_stmt 0 discriminator 1
 116 002e 488B45E8 		movq	-24(%rbp), %rax
 117 0032 0FB600   		movzbl	(%rax), %eax
 118 0035 84C0     		testb	%al, %al
 119 0037 750D     		jne	.L8
 120              		.loc 1 531 5 discriminator 3
 121 0039 48C745F0 		movq	$0, -16(%rbp)
 121      00000000 
 122 0041 E9130100 		jmp	.L9
 122      00
 123              	.L8:
 124              		.loc 1 531 5 discriminator 4
 125 0046 488B45E8 		movq	-24(%rbp), %rax
 126 004a 4883C001 		addq	$1, %rax
 127 004e 0FB600   		movzbl	(%rax), %eax
 128 0051 84C0     		testb	%al, %al
 129 0053 750D     		jne	.L10
 130              		.loc 1 531 5 discriminator 5
 131 0055 48C745F0 		movq	$1, -16(%rbp)
 131      01000000 
 132 005d E9F70000 		jmp	.L9
 132      00
 133              	.L10:
 134              		.loc 1 531 5 discriminator 6
 135 0062 488B45E8 		movq	-24(%rbp), %rax
 136 0066 4883C002 		addq	$2, %rax
 137 006a 0FB600   		movzbl	(%rax), %eax
 138 006d 84C0     		testb	%al, %al
GAS LISTING /tmp/cctkD7cV.s 			page 13


 139 006f 750D     		jne	.L11
 140              		.loc 1 531 5 discriminator 7
 141 0071 48C745F0 		movq	$2, -16(%rbp)
 141      02000000 
 142 0079 E9DB0000 		jmp	.L9
 142      00
 143              	.L11:
 144              		.loc 1 531 5 discriminator 8
 145 007e 488B45E8 		movq	-24(%rbp), %rax
 146 0082 4883C003 		addq	$3, %rax
 147 0086 0FB600   		movzbl	(%rax), %eax
 148 0089 84C0     		testb	%al, %al
 149 008b 750D     		jne	.L12
 150              		.loc 1 531 5 discriminator 9
 151 008d 48C745F0 		movq	$3, -16(%rbp)
 151      03000000 
 152 0095 E9BF0000 		jmp	.L9
 152      00
 153              	.L12:
 154              		.loc 1 531 5 discriminator 10
 155 009a 488B45E8 		movq	-24(%rbp), %rax
 156 009e 4883C004 		addq	$4, %rax
 157 00a2 0FB600   		movzbl	(%rax), %eax
 158 00a5 84C0     		testb	%al, %al
 159 00a7 750D     		jne	.L13
 160              		.loc 1 531 5 discriminator 11
 161 00a9 48C745F0 		movq	$4, -16(%rbp)
 161      04000000 
 162 00b1 E9A30000 		jmp	.L9
 162      00
 163              	.L13:
 164              		.loc 1 531 5 discriminator 12
 165 00b6 488B45E8 		movq	-24(%rbp), %rax
 166 00ba 4883C005 		addq	$5, %rax
 167 00be 0FB600   		movzbl	(%rax), %eax
 168 00c1 84C0     		testb	%al, %al
 169 00c3 750D     		jne	.L14
 170              		.loc 1 531 5 discriminator 13
 171 00c5 48C745F0 		movq	$5, -16(%rbp)
 171      05000000 
 172 00cd E9870000 		jmp	.L9
 172      00
 173              	.L14:
 174              		.loc 1 531 5 discriminator 14
 175 00d2 488B45E8 		movq	-24(%rbp), %rax
 176 00d6 4883C006 		addq	$6, %rax
 177 00da 0FB600   		movzbl	(%rax), %eax
 178 00dd 84C0     		testb	%al, %al
 179 00df 750A     		jne	.L15
 180              		.loc 1 531 5 discriminator 15
 181 00e1 48C745F0 		movq	$6, -16(%rbp)
 181      06000000 
 182 00e9 EB6E     		jmp	.L9
 183              	.L15:
 184              		.loc 1 531 5 discriminator 16
 185 00eb 488B45E8 		movq	-24(%rbp), %rax
 186 00ef 4883C007 		addq	$7, %rax
GAS LISTING /tmp/cctkD7cV.s 			page 14


 187 00f3 0FB600   		movzbl	(%rax), %eax
 188 00f6 84C0     		testb	%al, %al
 189 00f8 750A     		jne	.L16
 190              		.loc 1 531 5 discriminator 17
 191 00fa 48C745F0 		movq	$7, -16(%rbp)
 191      07000000 
 192 0102 EB55     		jmp	.L9
 193              	.L16:
 194              		.loc 1 531 5 discriminator 18
 195 0104 488B45E8 		movq	-24(%rbp), %rax
 196 0108 4883C008 		addq	$8, %rax
 197 010c 0FB600   		movzbl	(%rax), %eax
 198 010f 84C0     		testb	%al, %al
 199 0111 750A     		jne	.L17
 200              		.loc 1 531 5 discriminator 19
 201 0113 48C745F0 		movq	$8, -16(%rbp)
 201      08000000 
 202 011b EB3C     		jmp	.L9
 203              	.L17:
 204              		.loc 1 531 5 discriminator 20
 205 011d 488B45E0 		movq	-32(%rbp), %rax
 206 0121 488D50F8 		leaq	-8(%rax), %rdx
 207 0125 488B45E8 		movq	-24(%rbp), %rax
 208 0129 4883C008 		addq	$8, %rax
 209 012d 4889D6   		movq	%rdx, %rsi
 210 0130 4889C7   		movq	%rax, %rdi
 211 0133 E8000000 		call	strnlen@PLT
 211      00
 212 0138 4883C008 		addq	$8, %rax
 213 013c 488945F0 		movq	%rax, -16(%rbp)
 214 0140 EB17     		jmp	.L9
 215              	.L7:
 216              		.loc 1 531 5 discriminator 2
 217 0142 488B55E0 		movq	-32(%rbp), %rdx
 218 0146 488B45E8 		movq	-24(%rbp), %rax
 219 014a 4889D6   		movq	%rdx, %rsi
 220 014d 4889C7   		movq	%rax, %rdi
 221 0150 E8000000 		call	strnlen@PLT
 221      00
 222 0155 488945F0 		movq	%rax, -16(%rbp)
 223              	.L9:
 532:/home/xingli/share/LiteOS_Lab/secure_c/src/securecutil.h ****     return len;
 224              		.loc 1 532 12 is_stmt 1
 225 0159 488B45F0 		movq	-16(%rbp), %rax
 533:/home/xingli/share/LiteOS_Lab/secure_c/src/securecutil.h **** }
 226              		.loc 1 533 1
 227 015d 488B4DF8 		movq	-8(%rbp), %rcx
 228 0161 6448330C 		xorq	%fs:40, %rcx
 228      25280000 
 228      00
 229 016a 7405     		je	.L19
 230 016c E8000000 		call	__stack_chk_fail@PLT
 230      00
 231              	.L19:
 232 0171 C9       		leave
 233              	.LCFI8:
 234              		.cfi_def_cfa 7, 8
GAS LISTING /tmp/cctkD7cV.s 			page 15


 235 0172 C3       		ret
 236              		.cfi_endproc
 237              	.LFE8:
 239              		.section	.text.SecDoStrcat,"ax",@progbits
 241              	SecDoStrcat:
 242              	.LFB9:
 243              		.file 2 "/home/xingli/share/LiteOS_Lab/secure_c/src/strcat_s.c"
   1:/home/xingli/share/LiteOS_Lab/secure_c/src/strcat_s.c **** /*
   2:/home/xingli/share/LiteOS_Lab/secure_c/src/strcat_s.c ****  * Copyright (c) [2019] Huawei Technologies Co.,Ltd.All rights reserved.
   3:/home/xingli/share/LiteOS_Lab/secure_c/src/strcat_s.c ****  *
   4:/home/xingli/share/LiteOS_Lab/secure_c/src/strcat_s.c ****  * OpenArkCompiler is licensed under the Mulan PSL v1. 
   5:/home/xingli/share/LiteOS_Lab/secure_c/src/strcat_s.c ****  * You can use this software according to the terms and conditions of the Mulan PSL v1.
   6:/home/xingli/share/LiteOS_Lab/secure_c/src/strcat_s.c ****  * You may obtain a copy of Mulan PSL v1 at:
   7:/home/xingli/share/LiteOS_Lab/secure_c/src/strcat_s.c ****  *
   8:/home/xingli/share/LiteOS_Lab/secure_c/src/strcat_s.c ****  * 	http://license.coscl.org.cn/MulanPSL 
   9:/home/xingli/share/LiteOS_Lab/secure_c/src/strcat_s.c ****  *
  10:/home/xingli/share/LiteOS_Lab/secure_c/src/strcat_s.c ****  * THIS SOFTWARE IS PROVIDED ON AN "AS IS" BASIS, WITHOUT WARRANTIES OF ANY KIND, EITHER 
  11:/home/xingli/share/LiteOS_Lab/secure_c/src/strcat_s.c ****  * EXPRESS OR IMPLIED, INCLUDING BUT NOT LIMITED TO NON-INFRINGEMENT, MERCHANTABILITY OR
  12:/home/xingli/share/LiteOS_Lab/secure_c/src/strcat_s.c ****  * FIT FOR A PARTICULAR PURPOSE.  
  13:/home/xingli/share/LiteOS_Lab/secure_c/src/strcat_s.c ****  * See the Mulan PSL v1 for more details.  
  14:/home/xingli/share/LiteOS_Lab/secure_c/src/strcat_s.c ****  */
  15:/home/xingli/share/LiteOS_Lab/secure_c/src/strcat_s.c **** 
  16:/home/xingli/share/LiteOS_Lab/secure_c/src/strcat_s.c **** #define SECUREC_INLINE_STR_LEN     1
  17:/home/xingli/share/LiteOS_Lab/secure_c/src/strcat_s.c **** #define SECUREC_INLINE_STR_LEN_OPT 1
  18:/home/xingli/share/LiteOS_Lab/secure_c/src/strcat_s.c **** #define SECUREC_INLINE_DO_MEMCPY   1
  19:/home/xingli/share/LiteOS_Lab/secure_c/src/strcat_s.c **** #include "securecutil.h"
  20:/home/xingli/share/LiteOS_Lab/secure_c/src/strcat_s.c **** 
  21:/home/xingli/share/LiteOS_Lab/secure_c/src/strcat_s.c **** /*
  22:/home/xingli/share/LiteOS_Lab/secure_c/src/strcat_s.c ****  * Befor this function, the basic parameter checking has been done
  23:/home/xingli/share/LiteOS_Lab/secure_c/src/strcat_s.c ****  */
  24:/home/xingli/share/LiteOS_Lab/secure_c/src/strcat_s.c **** static errno_t SecDoStrcat(char *strDest, size_t destMax, const char *strSrc)
  25:/home/xingli/share/LiteOS_Lab/secure_c/src/strcat_s.c **** {
 244              		.loc 2 25 1
 245              		.cfi_startproc
 246 0000 F30F1EFA 		endbr64
 247 0004 55       		pushq	%rbp
 248              	.LCFI9:
 249              		.cfi_def_cfa_offset 16
 250              		.cfi_offset 6, -16
 251 0005 4889E5   		movq	%rsp, %rbp
 252              	.LCFI10:
 253              		.cfi_def_cfa_register 6
 254 0008 4883EC40 		subq	$64, %rsp
 255 000c 48897DD8 		movq	%rdi, -40(%rbp)
 256 0010 488975D0 		movq	%rsi, -48(%rbp)
 257 0014 488955C8 		movq	%rdx, -56(%rbp)
 258              		.loc 2 25 1
 259 0018 64488B04 		movq	%fs:40, %rax
 259      25280000 
 259      00
 260 0021 488945F8 		movq	%rax, -8(%rbp)
 261 0025 31C0     		xorl	%eax, %eax
  26:/home/xingli/share/LiteOS_Lab/secure_c/src/strcat_s.c ****     size_t destLen = SecStrMinLen(strDest, destMax);
 262              		.loc 2 26 22
 263 0027 488B55D0 		movq	-48(%rbp), %rdx
 264 002b 488B45D8 		movq	-40(%rbp), %rax
 265 002f 4889D6   		movq	%rdx, %rsi
GAS LISTING /tmp/cctkD7cV.s 			page 16


 266 0032 4889C7   		movq	%rax, %rdi
 267 0035 E8000000 		call	SecStrMinLen
 267      00
 268 003a 488945E8 		movq	%rax, -24(%rbp)
  27:/home/xingli/share/LiteOS_Lab/secure_c/src/strcat_s.c ****     /* Only optimize strSrc, do not apply this function to strDest */
  28:/home/xingli/share/LiteOS_Lab/secure_c/src/strcat_s.c ****     size_t srcLen = SecStrMinLenOpt(strSrc, destMax - destLen);
 269              		.loc 2 28 21
 270 003e 488B45D0 		movq	-48(%rbp), %rax
 271 0042 482B45E8 		subq	-24(%rbp), %rax
 272 0046 4889C2   		movq	%rax, %rdx
 273 0049 488B45C8 		movq	-56(%rbp), %rax
 274 004d 4889D6   		movq	%rdx, %rsi
 275 0050 4889C7   		movq	%rax, %rdi
 276 0053 E8000000 		call	SecStrMinLenOpt
 276      00
 277 0058 488945F0 		movq	%rax, -16(%rbp)
  29:/home/xingli/share/LiteOS_Lab/secure_c/src/strcat_s.c **** 
  30:/home/xingli/share/LiteOS_Lab/secure_c/src/strcat_s.c ****     if (SECUREC_CAT_STRING_IS_OVERLAP(strDest, destLen, strSrc, srcLen)) {
 278              		.loc 2 30 8
 279 005c 488B45D8 		movq	-40(%rbp), %rax
 280 0060 483B45C8 		cmpq	-56(%rbp), %rax
 281 0064 7318     		jnb	.L21
 282              		.loc 2 30 9 discriminator 1
 283 0066 488B55E8 		movq	-24(%rbp), %rdx
 284 006a 488B45F0 		movq	-16(%rbp), %rax
 285 006e 4801C2   		addq	%rax, %rdx
 286 0071 488B45D8 		movq	-40(%rbp), %rax
 287 0075 4801D0   		addq	%rdx, %rax
 288 0078 483945C8 		cmpq	%rax, -56(%rbp)
 289 007c 761B     		jbe	.L22
 290              	.L21:
 291              		.loc 2 30 9 is_stmt 0 discriminator 3
 292 007e 488B45C8 		movq	-56(%rbp), %rax
 293 0082 483B45D8 		cmpq	-40(%rbp), %rax
 294 0086 7341     		jnb	.L23
 295              		.loc 2 30 9 discriminator 4
 296 0088 488B55C8 		movq	-56(%rbp), %rdx
 297 008c 488B45F0 		movq	-16(%rbp), %rax
 298 0090 4801D0   		addq	%rdx, %rax
 299 0093 483945D8 		cmpq	%rax, -40(%rbp)
 300 0097 7730     		ja	.L23
 301              	.L22:
  31:/home/xingli/share/LiteOS_Lab/secure_c/src/strcat_s.c ****         strDest[0] = '\0';
 302              		.loc 2 31 20 is_stmt 1
 303 0099 488B45D8 		movq	-40(%rbp), %rax
 304 009d C60000   		movb	$0, (%rax)
  32:/home/xingli/share/LiteOS_Lab/secure_c/src/strcat_s.c ****         if (strDest + destLen <= strSrc && destLen == destMax) {
 305              		.loc 2 32 21
 306 00a0 488B55D8 		movq	-40(%rbp), %rdx
 307 00a4 488B45E8 		movq	-24(%rbp), %rax
 308 00a8 4801D0   		addq	%rdx, %rax
 309              		.loc 2 32 12
 310 00ab 483945C8 		cmpq	%rax, -56(%rbp)
 311 00af 7211     		jb	.L24
 312              		.loc 2 32 41 discriminator 1
 313 00b1 488B45E8 		movq	-24(%rbp), %rax
 314 00b5 483B45D0 		cmpq	-48(%rbp), %rax
GAS LISTING /tmp/cctkD7cV.s 			page 17


 315 00b9 7507     		jne	.L24
  33:/home/xingli/share/LiteOS_Lab/secure_c/src/strcat_s.c ****             SECUREC_ERROR_INVALID_PARAMTER("strcat_s");
  34:/home/xingli/share/LiteOS_Lab/secure_c/src/strcat_s.c ****             return EINVAL_AND_RESET;
 316              		.loc 2 34 20
 317 00bb B8960000 		movl	$150, %eax
 317      00
 318 00c0 EB68     		jmp	.L25
 319              	.L24:
  35:/home/xingli/share/LiteOS_Lab/secure_c/src/strcat_s.c ****         }
  36:/home/xingli/share/LiteOS_Lab/secure_c/src/strcat_s.c ****         SECUREC_ERROR_BUFFER_OVERLAP("strcat_s");
  37:/home/xingli/share/LiteOS_Lab/secure_c/src/strcat_s.c ****         return EOVERLAP_AND_RESET;
 320              		.loc 2 37 16
 321 00c2 B8B60000 		movl	$182, %eax
 321      00
 322 00c7 EB61     		jmp	.L25
 323              	.L23:
  38:/home/xingli/share/LiteOS_Lab/secure_c/src/strcat_s.c ****     }
  39:/home/xingli/share/LiteOS_Lab/secure_c/src/strcat_s.c ****     if (srcLen + destLen >= destMax || strDest == strSrc) {
 324              		.loc 2 39 16
 325 00c9 488B55F0 		movq	-16(%rbp), %rdx
 326 00cd 488B45E8 		movq	-24(%rbp), %rax
 327 00d1 4801D0   		addq	%rdx, %rax
 328              		.loc 2 39 8
 329 00d4 483945D0 		cmpq	%rax, -48(%rbp)
 330 00d8 760A     		jbe	.L26
 331              		.loc 2 39 37 discriminator 1
 332 00da 488B45D8 		movq	-40(%rbp), %rax
 333 00de 483B45C8 		cmpq	-56(%rbp), %rax
 334 00e2 751F     		jne	.L27
 335              	.L26:
  40:/home/xingli/share/LiteOS_Lab/secure_c/src/strcat_s.c ****         strDest[0] = '\0';
 336              		.loc 2 40 20
 337 00e4 488B45D8 		movq	-40(%rbp), %rax
 338 00e8 C60000   		movb	$0, (%rax)
  41:/home/xingli/share/LiteOS_Lab/secure_c/src/strcat_s.c ****         if (destLen == destMax) {
 339              		.loc 2 41 12
 340 00eb 488B45E8 		movq	-24(%rbp), %rax
 341 00ef 483B45D0 		cmpq	-48(%rbp), %rax
 342 00f3 7507     		jne	.L28
  42:/home/xingli/share/LiteOS_Lab/secure_c/src/strcat_s.c ****             SECUREC_ERROR_INVALID_PARAMTER("strcat_s");
  43:/home/xingli/share/LiteOS_Lab/secure_c/src/strcat_s.c ****             return EINVAL_AND_RESET;
 343              		.loc 2 43 20
 344 00f5 B8960000 		movl	$150, %eax
 344      00
 345 00fa EB2E     		jmp	.L25
 346              	.L28:
  44:/home/xingli/share/LiteOS_Lab/secure_c/src/strcat_s.c ****         }
  45:/home/xingli/share/LiteOS_Lab/secure_c/src/strcat_s.c ****         SECUREC_ERROR_INVALID_RANGE("strcat_s");
  46:/home/xingli/share/LiteOS_Lab/secure_c/src/strcat_s.c ****         return ERANGE_AND_RESET;
 347              		.loc 2 46 16
 348 00fc B8A20000 		movl	$162, %eax
 348      00
 349 0101 EB27     		jmp	.L25
 350              	.L27:
  47:/home/xingli/share/LiteOS_Lab/secure_c/src/strcat_s.c ****     }
  48:/home/xingli/share/LiteOS_Lab/secure_c/src/strcat_s.c ****     SecDoMemcpy(strDest + destLen, strSrc, srcLen + 1); /* single character length  include \0 */
 351              		.loc 2 48 5
GAS LISTING /tmp/cctkD7cV.s 			page 18


 352 0103 488B45F0 		movq	-16(%rbp), %rax
 353 0107 488D5001 		leaq	1(%rax), %rdx
 354              		.loc 2 48 25
 355 010b 488B4DD8 		movq	-40(%rbp), %rcx
 356 010f 488B45E8 		movq	-24(%rbp), %rax
 357 0113 4801C1   		addq	%rax, %rcx
 358              		.loc 2 48 5
 359 0116 488B45C8 		movq	-56(%rbp), %rax
 360 011a 4889C6   		movq	%rax, %rsi
 361 011d 4889CF   		movq	%rcx, %rdi
 362 0120 E8000000 		call	SecDoMemcpy
 362      00
  49:/home/xingli/share/LiteOS_Lab/secure_c/src/strcat_s.c ****     return EOK;
 363              		.loc 2 49 12
 364 0125 B8000000 		movl	$0, %eax
 364      00
 365              	.L25:
  50:/home/xingli/share/LiteOS_Lab/secure_c/src/strcat_s.c **** }
 366              		.loc 2 50 1
 367 012a 488B4DF8 		movq	-8(%rbp), %rcx
 368 012e 6448330C 		xorq	%fs:40, %rcx
 368      25280000 
 368      00
 369 0137 7405     		je	.L29
 370 0139 E8000000 		call	__stack_chk_fail@PLT
 370      00
 371              	.L29:
 372 013e C9       		leave
 373              	.LCFI11:
 374              		.cfi_def_cfa 7, 8
 375 013f C3       		ret
 376              		.cfi_endproc
 377              	.LFE9:
 379              		.section	.text.strcat_s,"ax",@progbits
 380              		.globl	strcat_s
 382              	strcat_s:
 383              	.LFB10:
  51:/home/xingli/share/LiteOS_Lab/secure_c/src/strcat_s.c **** 
  52:/home/xingli/share/LiteOS_Lab/secure_c/src/strcat_s.c **** /*
  53:/home/xingli/share/LiteOS_Lab/secure_c/src/strcat_s.c ****  * <FUNCTION DESCRIPTION>
  54:/home/xingli/share/LiteOS_Lab/secure_c/src/strcat_s.c ****  *    The strcat_s function appends a copy of the string pointed to by strSrc (including the termin
  55:/home/xingli/share/LiteOS_Lab/secure_c/src/strcat_s.c ****  *    to the end of the  string pointed to by strDest.
  56:/home/xingli/share/LiteOS_Lab/secure_c/src/strcat_s.c ****  *    The initial character of strSrc overwrites the terminating null character of strDest.
  57:/home/xingli/share/LiteOS_Lab/secure_c/src/strcat_s.c ****  *    strcat_s will return EOVERLAP_AND_RESET if the source and destination strings overlap.
  58:/home/xingli/share/LiteOS_Lab/secure_c/src/strcat_s.c ****  *
  59:/home/xingli/share/LiteOS_Lab/secure_c/src/strcat_s.c ****  *    Note that the second parameter is the total size of the buffer, not the
  60:/home/xingli/share/LiteOS_Lab/secure_c/src/strcat_s.c ****  *    remaining size.
  61:/home/xingli/share/LiteOS_Lab/secure_c/src/strcat_s.c ****  *
  62:/home/xingli/share/LiteOS_Lab/secure_c/src/strcat_s.c ****  * <INPUT PARAMETERS>
  63:/home/xingli/share/LiteOS_Lab/secure_c/src/strcat_s.c ****  *    strDest             Null-terminated destination string buffer.
  64:/home/xingli/share/LiteOS_Lab/secure_c/src/strcat_s.c ****  *    destMax             Size of the destination string buffer.
  65:/home/xingli/share/LiteOS_Lab/secure_c/src/strcat_s.c ****  *    strSrc              Null-terminated source string buffer.
  66:/home/xingli/share/LiteOS_Lab/secure_c/src/strcat_s.c ****  *
  67:/home/xingli/share/LiteOS_Lab/secure_c/src/strcat_s.c ****  * <OUTPUT PARAMETERS>
  68:/home/xingli/share/LiteOS_Lab/secure_c/src/strcat_s.c ****  *    strDest             is updated
  69:/home/xingli/share/LiteOS_Lab/secure_c/src/strcat_s.c ****  *
  70:/home/xingli/share/LiteOS_Lab/secure_c/src/strcat_s.c ****  * <RETURN VALUE>
GAS LISTING /tmp/cctkD7cV.s 			page 19


  71:/home/xingli/share/LiteOS_Lab/secure_c/src/strcat_s.c ****  *    EOK                 Success
  72:/home/xingli/share/LiteOS_Lab/secure_c/src/strcat_s.c ****  *    EINVAL              strDest is  NULL and destMax != 0 and destMax <= SECUREC_STRING_MAX_LEN
  73:/home/xingli/share/LiteOS_Lab/secure_c/src/strcat_s.c ****  *    EINVAL_AND_RESET    (strDest unterminated  and all other parameters are valid)or
  74:/home/xingli/share/LiteOS_Lab/secure_c/src/strcat_s.c ****  *                         (strDest != NULL and strSrc is NULL and destMax != 0 and destMax <= SECU
  75:/home/xingli/share/LiteOS_Lab/secure_c/src/strcat_s.c ****  *    ERANGE              destMax is 0 and destMax > SECUREC_STRING_MAX_LEN
  76:/home/xingli/share/LiteOS_Lab/secure_c/src/strcat_s.c ****  *    ERANGE_AND_RESET      strDest have not enough space  and all other parameters are valid  and 
  77:/home/xingli/share/LiteOS_Lab/secure_c/src/strcat_s.c ****  *    EOVERLAP_AND_RESET   dest buffer and source buffer are overlapped and all  parameters are val
  78:/home/xingli/share/LiteOS_Lab/secure_c/src/strcat_s.c ****  *
  79:/home/xingli/share/LiteOS_Lab/secure_c/src/strcat_s.c ****  *    If there is a runtime-constraint violation, strDest[0] will be set to the '\0' when strDest a
  80:/home/xingli/share/LiteOS_Lab/secure_c/src/strcat_s.c ****  */
  81:/home/xingli/share/LiteOS_Lab/secure_c/src/strcat_s.c **** errno_t strcat_s(char *strDest, size_t destMax, const char *strSrc)
  82:/home/xingli/share/LiteOS_Lab/secure_c/src/strcat_s.c **** {
 384              		.loc 2 82 1
 385              		.cfi_startproc
 386 0000 F30F1EFA 		endbr64
 387 0004 55       		pushq	%rbp
 388              	.LCFI12:
 389              		.cfi_def_cfa_offset 16
 390              		.cfi_offset 6, -16
 391 0005 4889E5   		movq	%rsp, %rbp
 392              	.LCFI13:
 393              		.cfi_def_cfa_register 6
 394 0008 4883EC30 		subq	$48, %rsp
 395 000c 48897DE8 		movq	%rdi, -24(%rbp)
 396 0010 488975E0 		movq	%rsi, -32(%rbp)
 397 0014 488955D8 		movq	%rdx, -40(%rbp)
 398              		.loc 2 82 1
 399 0018 64488B04 		movq	%fs:40, %rax
 399      25280000 
 399      00
 400 0021 488945F8 		movq	%rax, -8(%rbp)
 401 0025 31C0     		xorl	%eax, %eax
  83:/home/xingli/share/LiteOS_Lab/secure_c/src/strcat_s.c ****     if (destMax == 0 || destMax > SECUREC_STRING_MAX_LEN) {
 402              		.loc 2 83 8
 403 0027 48837DE0 		cmpq	$0, -32(%rbp)
 403      00
 404 002c 740B     		je	.L31
 405              		.loc 2 83 22 discriminator 1
 406 002e B8000000 		movl	$2147483648, %eax
 406      80
 407 0033 483945E0 		cmpq	%rax, -32(%rbp)
 408 0037 7207     		jb	.L32
 409              	.L31:
  84:/home/xingli/share/LiteOS_Lab/secure_c/src/strcat_s.c ****         SECUREC_ERROR_INVALID_RANGE("strcat_s");
  85:/home/xingli/share/LiteOS_Lab/secure_c/src/strcat_s.c ****         return ERANGE;
 410              		.loc 2 85 16
 411 0039 B8220000 		movl	$34, %eax
 411      00
 412 003e EB41     		jmp	.L33
 413              	.L32:
  86:/home/xingli/share/LiteOS_Lab/secure_c/src/strcat_s.c ****     }
  87:/home/xingli/share/LiteOS_Lab/secure_c/src/strcat_s.c ****     if (strDest == NULL || strSrc == NULL) {
 414              		.loc 2 87 8
 415 0040 48837DE8 		cmpq	$0, -24(%rbp)
 415      00
 416 0045 7407     		je	.L34
 417              		.loc 2 87 25 discriminator 1
GAS LISTING /tmp/cctkD7cV.s 			page 20


 418 0047 48837DD8 		cmpq	$0, -40(%rbp)
 418      00
 419 004c 751C     		jne	.L35
 420              	.L34:
  88:/home/xingli/share/LiteOS_Lab/secure_c/src/strcat_s.c ****         SECUREC_ERROR_INVALID_PARAMTER("strcat_s");
  89:/home/xingli/share/LiteOS_Lab/secure_c/src/strcat_s.c ****         if (strDest != NULL) {
 421              		.loc 2 89 12
 422 004e 48837DE8 		cmpq	$0, -24(%rbp)
 422      00
 423 0053 740E     		je	.L36
  90:/home/xingli/share/LiteOS_Lab/secure_c/src/strcat_s.c ****             strDest[0] = '\0';
 424              		.loc 2 90 24
 425 0055 488B45E8 		movq	-24(%rbp), %rax
 426 0059 C60000   		movb	$0, (%rax)
  91:/home/xingli/share/LiteOS_Lab/secure_c/src/strcat_s.c ****             return EINVAL_AND_RESET;
 427              		.loc 2 91 20
 428 005c B8960000 		movl	$150, %eax
 428      00
 429 0061 EB1E     		jmp	.L33
 430              	.L36:
  92:/home/xingli/share/LiteOS_Lab/secure_c/src/strcat_s.c ****         }
  93:/home/xingli/share/LiteOS_Lab/secure_c/src/strcat_s.c ****         return EINVAL;
 431              		.loc 2 93 16
 432 0063 B8160000 		movl	$22, %eax
 432      00
 433 0068 EB17     		jmp	.L33
 434              	.L35:
  94:/home/xingli/share/LiteOS_Lab/secure_c/src/strcat_s.c ****     }
  95:/home/xingli/share/LiteOS_Lab/secure_c/src/strcat_s.c ****     return SecDoStrcat(strDest, destMax, strSrc);
 435              		.loc 2 95 12
 436 006a 488B55D8 		movq	-40(%rbp), %rdx
 437 006e 488B4DE0 		movq	-32(%rbp), %rcx
 438 0072 488B45E8 		movq	-24(%rbp), %rax
 439 0076 4889CE   		movq	%rcx, %rsi
 440 0079 4889C7   		movq	%rax, %rdi
 441 007c E8000000 		call	SecDoStrcat
 441      00
 442              	.L33:
  96:/home/xingli/share/LiteOS_Lab/secure_c/src/strcat_s.c **** }
 443              		.loc 2 96 1
 444 0081 488B4DF8 		movq	-8(%rbp), %rcx
 445 0085 6448330C 		xorq	%fs:40, %rcx
 445      25280000 
 445      00
 446 008e 7405     		je	.L37
 447 0090 E8000000 		call	__stack_chk_fail@PLT
 447      00
 448              	.L37:
 449 0095 C9       		leave
 450              	.LCFI14:
 451              		.cfi_def_cfa 7, 8
 452 0096 C3       		ret
 453              		.cfi_endproc
 454              	.LFE10:
 456              		.text
 457              	.Letext0:
 458              		.file 3 "/usr/lib/gcc/x86_64-linux-gnu/9/include/stddef.h"
GAS LISTING /tmp/cctkD7cV.s 			page 21


 459              		.file 4 "/usr/include/x86_64-linux-gnu/bits/types.h"
 460              		.file 5 "/usr/include/x86_64-linux-gnu/bits/types/struct_FILE.h"
 461              		.file 6 "/usr/include/x86_64-linux-gnu/bits/types/FILE.h"
 462              		.file 7 "/usr/include/stdio.h"
 463              		.file 8 "/usr/include/x86_64-linux-gnu/bits/sys_errlist.h"
 464              		.file 9 "/home/xingli/share/LiteOS_Lab/secure_c/include/securec.h"
 1830              		.section	.note.gnu.property,"a"
 1831              		.align 8
 1832 0000 04000000 		.long	 1f - 0f
 1833 0004 10000000 		.long	 4f - 1f
 1834 0008 05000000 		.long	 5
 1835              	0:
 1836 000c 474E5500 		.string	 "GNU"
 1837              	1:
 1838              		.align 8
 1839 0010 020000C0 		.long	 0xc0000002
 1840 0014 04000000 		.long	 3f - 2f
 1841              	2:
 1842 0018 03000000 		.long	 0x3
 1843              	3:
 1844 001c 00000000 		.align 8
 1845              	4:
GAS LISTING /tmp/cctkD7cV.s 			page 22

