ARM GAS  /tmp/ccLafEr3.s 			page 1


   1              		.cpu cortex-m4
   2              		.eabi_attribute 27, 1
   3              		.eabi_attribute 28, 1
   4              		.eabi_attribute 20, 1
   5              		.eabi_attribute 21, 1
   6              		.eabi_attribute 23, 3
   7              		.eabi_attribute 24, 1
   8              		.eabi_attribute 25, 1
   9              		.eabi_attribute 26, 1
  10              		.eabi_attribute 30, 6
  11              		.eabi_attribute 34, 1
  12              		.eabi_attribute 18, 4
  13              		.file	"los_mux.c"
  14              		.text
  15              	.Ltext0:
  16              		.cfi_sections	.debug_frame
  17              		.section	.text.LOS_ListInit,"ax",%progbits
  18              		.align	1
  19              		.arch armv7e-m
  20              		.syntax unified
  21              		.thumb
  22              		.thumb_func
  23              		.fpu fpv4-sp-d16
  25              	LOS_ListInit:
  26              	.LFB126:
  27              		.file 1 "/home/fanxinhao/Work/LiteOS_Lab/iot_link/os/liteos/include/los_list.h"
   1:/home/fanxinhao/Work/LiteOS_Lab/iot_link/os/liteos/include/los_list.h **** /*----------------------------------------------------------------------------
   2:/home/fanxinhao/Work/LiteOS_Lab/iot_link/os/liteos/include/los_list.h ****  * Copyright (c) <2013-2015>, <Huawei Technologies Co., Ltd>
   3:/home/fanxinhao/Work/LiteOS_Lab/iot_link/os/liteos/include/los_list.h ****  * All rights reserved.
   4:/home/fanxinhao/Work/LiteOS_Lab/iot_link/os/liteos/include/los_list.h ****  * Redistribution and use in source and binary forms, with or without modification,
   5:/home/fanxinhao/Work/LiteOS_Lab/iot_link/os/liteos/include/los_list.h ****  * are permitted provided that the following conditions are met:
   6:/home/fanxinhao/Work/LiteOS_Lab/iot_link/os/liteos/include/los_list.h ****  * 1. Redistributions of source code must retain the above copyright notice, this list of
   7:/home/fanxinhao/Work/LiteOS_Lab/iot_link/os/liteos/include/los_list.h ****  * conditions and the following disclaimer.
   8:/home/fanxinhao/Work/LiteOS_Lab/iot_link/os/liteos/include/los_list.h ****  * 2. Redistributions in binary form must reproduce the above copyright notice, this list
   9:/home/fanxinhao/Work/LiteOS_Lab/iot_link/os/liteos/include/los_list.h ****  * of conditions and the following disclaimer in the documentation and/or other materials
  10:/home/fanxinhao/Work/LiteOS_Lab/iot_link/os/liteos/include/los_list.h ****  * provided with the distribution.
  11:/home/fanxinhao/Work/LiteOS_Lab/iot_link/os/liteos/include/los_list.h ****  * 3. Neither the name of the copyright holder nor the names of its contributors may be used
  12:/home/fanxinhao/Work/LiteOS_Lab/iot_link/os/liteos/include/los_list.h ****  * to endorse or promote products derived from this software without specific prior written
  13:/home/fanxinhao/Work/LiteOS_Lab/iot_link/os/liteos/include/los_list.h ****  * permission.
  14:/home/fanxinhao/Work/LiteOS_Lab/iot_link/os/liteos/include/los_list.h ****  * THIS SOFTWARE IS PROVIDED BY THE COPYRIGHT HOLDERS AND CONTRIBUTORS
  15:/home/fanxinhao/Work/LiteOS_Lab/iot_link/os/liteos/include/los_list.h ****  * "AS IS" AND ANY EXPRESS OR IMPLIED WARRANTIES, INCLUDING, BUT NOT LIMITED TO,
  16:/home/fanxinhao/Work/LiteOS_Lab/iot_link/os/liteos/include/los_list.h ****  * THE IMPLIED WARRANTIES OF MERCHANTABILITY AND FITNESS FOR A PARTICULAR
  17:/home/fanxinhao/Work/LiteOS_Lab/iot_link/os/liteos/include/los_list.h ****  * PURPOSE ARE DISCLAIMED. IN NO EVENT SHALL THE COPYRIGHT HOLDER OR
  18:/home/fanxinhao/Work/LiteOS_Lab/iot_link/os/liteos/include/los_list.h ****  * CONTRIBUTORS BE LIABLE FOR ANY DIRECT, INDIRECT, INCIDENTAL, SPECIAL,
  19:/home/fanxinhao/Work/LiteOS_Lab/iot_link/os/liteos/include/los_list.h ****  * EXEMPLARY, OR CONSEQUENTIAL DAMAGES (INCLUDING, BUT NOT LIMITED TO,
  20:/home/fanxinhao/Work/LiteOS_Lab/iot_link/os/liteos/include/los_list.h ****  * PROCUREMENT OF SUBSTITUTE GOODS OR SERVICES; LOSS OF USE, DATA, OR PROFITS;
  21:/home/fanxinhao/Work/LiteOS_Lab/iot_link/os/liteos/include/los_list.h ****  * OR BUSINESS INTERRUPTION) HOWEVER CAUSED AND ON ANY THEORY OF LIABILITY,
  22:/home/fanxinhao/Work/LiteOS_Lab/iot_link/os/liteos/include/los_list.h ****  * WHETHER IN CONTRACT, STRICT LIABILITY, OR TORT (INCLUDING NEGLIGENCE OR
  23:/home/fanxinhao/Work/LiteOS_Lab/iot_link/os/liteos/include/los_list.h ****  * OTHERWISE) ARISING IN ANY WAY OUT OF THE USE OF THIS SOFTWARE, EVEN IF
  24:/home/fanxinhao/Work/LiteOS_Lab/iot_link/os/liteos/include/los_list.h ****  * ADVISED OF THE POSSIBILITY OF SUCH DAMAGE.
  25:/home/fanxinhao/Work/LiteOS_Lab/iot_link/os/liteos/include/los_list.h ****  *---------------------------------------------------------------------------*/
  26:/home/fanxinhao/Work/LiteOS_Lab/iot_link/os/liteos/include/los_list.h **** /*----------------------------------------------------------------------------
  27:/home/fanxinhao/Work/LiteOS_Lab/iot_link/os/liteos/include/los_list.h ****  * Notice of Export Control Law
  28:/home/fanxinhao/Work/LiteOS_Lab/iot_link/os/liteos/include/los_list.h ****  * ===============================================
  29:/home/fanxinhao/Work/LiteOS_Lab/iot_link/os/liteos/include/los_list.h ****  * Huawei LiteOS may be subject to applicable export control laws and regulations, which might
  30:/home/fanxinhao/Work/LiteOS_Lab/iot_link/os/liteos/include/los_list.h ****  * include those applicable to Huawei LiteOS of U.S. and the country in which you are located.
  31:/home/fanxinhao/Work/LiteOS_Lab/iot_link/os/liteos/include/los_list.h ****  * Import, export and usage of Huawei LiteOS in any manner by you shall be in compliance with such
ARM GAS  /tmp/ccLafEr3.s 			page 2


  32:/home/fanxinhao/Work/LiteOS_Lab/iot_link/os/liteos/include/los_list.h ****  * applicable export control laws and regulations.
  33:/home/fanxinhao/Work/LiteOS_Lab/iot_link/os/liteos/include/los_list.h ****  *---------------------------------------------------------------------------*/
  34:/home/fanxinhao/Work/LiteOS_Lab/iot_link/os/liteos/include/los_list.h **** 
  35:/home/fanxinhao/Work/LiteOS_Lab/iot_link/os/liteos/include/los_list.h ****  /** @defgroup los_list Doubly linked list
  36:/home/fanxinhao/Work/LiteOS_Lab/iot_link/os/liteos/include/los_list.h ****  * @ingroup kernel
  37:/home/fanxinhao/Work/LiteOS_Lab/iot_link/os/liteos/include/los_list.h ****  */
  38:/home/fanxinhao/Work/LiteOS_Lab/iot_link/os/liteos/include/los_list.h **** 
  39:/home/fanxinhao/Work/LiteOS_Lab/iot_link/os/liteos/include/los_list.h **** #ifndef _LOS_LIST_H
  40:/home/fanxinhao/Work/LiteOS_Lab/iot_link/os/liteos/include/los_list.h **** #define _LOS_LIST_H
  41:/home/fanxinhao/Work/LiteOS_Lab/iot_link/os/liteos/include/los_list.h **** 
  42:/home/fanxinhao/Work/LiteOS_Lab/iot_link/os/liteos/include/los_list.h **** #include "los_typedef.h"
  43:/home/fanxinhao/Work/LiteOS_Lab/iot_link/os/liteos/include/los_list.h **** 
  44:/home/fanxinhao/Work/LiteOS_Lab/iot_link/os/liteos/include/los_list.h **** #ifdef __cplusplus
  45:/home/fanxinhao/Work/LiteOS_Lab/iot_link/os/liteos/include/los_list.h **** #if __cplusplus
  46:/home/fanxinhao/Work/LiteOS_Lab/iot_link/os/liteos/include/los_list.h **** extern "C" {
  47:/home/fanxinhao/Work/LiteOS_Lab/iot_link/os/liteos/include/los_list.h **** #endif /* __cplusplus */
  48:/home/fanxinhao/Work/LiteOS_Lab/iot_link/os/liteos/include/los_list.h **** #endif /* __cplusplus */
  49:/home/fanxinhao/Work/LiteOS_Lab/iot_link/os/liteos/include/los_list.h **** 
  50:/home/fanxinhao/Work/LiteOS_Lab/iot_link/os/liteos/include/los_list.h **** 
  51:/home/fanxinhao/Work/LiteOS_Lab/iot_link/os/liteos/include/los_list.h **** /**
  52:/home/fanxinhao/Work/LiteOS_Lab/iot_link/os/liteos/include/los_list.h ****  *@ingroup los_list
  53:/home/fanxinhao/Work/LiteOS_Lab/iot_link/os/liteos/include/los_list.h ****  *Structure of a node in a doubly linked list.
  54:/home/fanxinhao/Work/LiteOS_Lab/iot_link/os/liteos/include/los_list.h ****  */
  55:/home/fanxinhao/Work/LiteOS_Lab/iot_link/os/liteos/include/los_list.h **** typedef struct LOS_DL_LIST
  56:/home/fanxinhao/Work/LiteOS_Lab/iot_link/os/liteos/include/los_list.h **** {
  57:/home/fanxinhao/Work/LiteOS_Lab/iot_link/os/liteos/include/los_list.h ****     struct LOS_DL_LIST *pstPrev;            /**< Current node's pointer to the previous node*/
  58:/home/fanxinhao/Work/LiteOS_Lab/iot_link/os/liteos/include/los_list.h ****     struct LOS_DL_LIST *pstNext;            /**< Current node's pointer to the next node*/
  59:/home/fanxinhao/Work/LiteOS_Lab/iot_link/os/liteos/include/los_list.h **** } LOS_DL_LIST;
  60:/home/fanxinhao/Work/LiteOS_Lab/iot_link/os/liteos/include/los_list.h **** 
  61:/home/fanxinhao/Work/LiteOS_Lab/iot_link/os/liteos/include/los_list.h **** /**
  62:/home/fanxinhao/Work/LiteOS_Lab/iot_link/os/liteos/include/los_list.h ****  *@ingroup los_list
  63:/home/fanxinhao/Work/LiteOS_Lab/iot_link/os/liteos/include/los_list.h ****  *@brief Initialize a doubly linked list.
  64:/home/fanxinhao/Work/LiteOS_Lab/iot_link/os/liteos/include/los_list.h ****  *
  65:/home/fanxinhao/Work/LiteOS_Lab/iot_link/os/liteos/include/los_list.h ****  *@par Description:
  66:/home/fanxinhao/Work/LiteOS_Lab/iot_link/os/liteos/include/los_list.h ****  *This API is used to initialize a doubly linked list.
  67:/home/fanxinhao/Work/LiteOS_Lab/iot_link/os/liteos/include/los_list.h ****  *@attention
  68:/home/fanxinhao/Work/LiteOS_Lab/iot_link/os/liteos/include/los_list.h ****  *<ul>
  69:/home/fanxinhao/Work/LiteOS_Lab/iot_link/os/liteos/include/los_list.h ****  *<li>The parameter passed in should be ensured to be a legal pointer.</li>
  70:/home/fanxinhao/Work/LiteOS_Lab/iot_link/os/liteos/include/los_list.h ****  *</ul>
  71:/home/fanxinhao/Work/LiteOS_Lab/iot_link/os/liteos/include/los_list.h ****  *
  72:/home/fanxinhao/Work/LiteOS_Lab/iot_link/os/liteos/include/los_list.h ****  *@param pstList    [IN] Node in a doubly linked list.
  73:/home/fanxinhao/Work/LiteOS_Lab/iot_link/os/liteos/include/los_list.h ****  *
  74:/home/fanxinhao/Work/LiteOS_Lab/iot_link/os/liteos/include/los_list.h ****  *@retval None.
  75:/home/fanxinhao/Work/LiteOS_Lab/iot_link/os/liteos/include/los_list.h ****  *@par Dependency:
  76:/home/fanxinhao/Work/LiteOS_Lab/iot_link/os/liteos/include/los_list.h ****  *<ul><li>los_list.h: the header file that contains the API declaration.</li></ul>
  77:/home/fanxinhao/Work/LiteOS_Lab/iot_link/os/liteos/include/los_list.h ****  *@see
  78:/home/fanxinhao/Work/LiteOS_Lab/iot_link/os/liteos/include/los_list.h ****  *@since Huawei LiteOS V100R001C00
  79:/home/fanxinhao/Work/LiteOS_Lab/iot_link/os/liteos/include/los_list.h ****  */
  80:/home/fanxinhao/Work/LiteOS_Lab/iot_link/os/liteos/include/los_list.h **** LITE_OS_SEC_ALW_INLINE STATIC_INLINE VOID LOS_ListInit(LOS_DL_LIST *pstList)
  81:/home/fanxinhao/Work/LiteOS_Lab/iot_link/os/liteos/include/los_list.h **** {
  28              		.loc 1 81 1
  29              		.cfi_startproc
  30              		@ args = 0, pretend = 0, frame = 8
  31              		@ frame_needed = 1, uses_anonymous_args = 0
  32              		@ link register save eliminated.
  33 0000 80B4     		push	{r7}
  34              	.LCFI0:
ARM GAS  /tmp/ccLafEr3.s 			page 3


  35              		.cfi_def_cfa_offset 4
  36              		.cfi_offset 7, -4
  37 0002 83B0     		sub	sp, sp, #12
  38              	.LCFI1:
  39              		.cfi_def_cfa_offset 16
  40 0004 00AF     		add	r7, sp, #0
  41              	.LCFI2:
  42              		.cfi_def_cfa_register 7
  43 0006 7860     		str	r0, [r7, #4]
  82:/home/fanxinhao/Work/LiteOS_Lab/iot_link/os/liteos/include/los_list.h ****     pstList->pstNext = pstList;
  44              		.loc 1 82 22
  45 0008 7B68     		ldr	r3, [r7, #4]
  46 000a 7A68     		ldr	r2, [r7, #4]
  47 000c 5A60     		str	r2, [r3, #4]
  83:/home/fanxinhao/Work/LiteOS_Lab/iot_link/os/liteos/include/los_list.h ****     pstList->pstPrev = pstList;
  48              		.loc 1 83 22
  49 000e 7B68     		ldr	r3, [r7, #4]
  50 0010 7A68     		ldr	r2, [r7, #4]
  51 0012 1A60     		str	r2, [r3]
  84:/home/fanxinhao/Work/LiteOS_Lab/iot_link/os/liteos/include/los_list.h **** }
  52              		.loc 1 84 1
  53 0014 00BF     		nop
  54 0016 0C37     		adds	r7, r7, #12
  55              	.LCFI3:
  56              		.cfi_def_cfa_offset 4
  57 0018 BD46     		mov	sp, r7
  58              	.LCFI4:
  59              		.cfi_def_cfa_register 13
  60              		@ sp needed
  61 001a 5DF8047B 		ldr	r7, [sp], #4
  62              	.LCFI5:
  63              		.cfi_restore 7
  64              		.cfi_def_cfa_offset 0
  65 001e 7047     		bx	lr
  66              		.cfi_endproc
  67              	.LFE126:
  69              		.section	.text.LOS_ListAdd,"ax",%progbits
  70              		.align	1
  71              		.syntax unified
  72              		.thumb
  73              		.thumb_func
  74              		.fpu fpv4-sp-d16
  76              	LOS_ListAdd:
  77              	.LFB127:
  85:/home/fanxinhao/Work/LiteOS_Lab/iot_link/os/liteos/include/los_list.h **** 
  86:/home/fanxinhao/Work/LiteOS_Lab/iot_link/os/liteos/include/los_list.h **** /**
  87:/home/fanxinhao/Work/LiteOS_Lab/iot_link/os/liteos/include/los_list.h ****  *@ingroup los_list
  88:/home/fanxinhao/Work/LiteOS_Lab/iot_link/os/liteos/include/los_list.h ****  *@brief Point to the next node pointed to by the current node.
  89:/home/fanxinhao/Work/LiteOS_Lab/iot_link/os/liteos/include/los_list.h ****  *
  90:/home/fanxinhao/Work/LiteOS_Lab/iot_link/os/liteos/include/los_list.h ****  *@par Description:
  91:/home/fanxinhao/Work/LiteOS_Lab/iot_link/os/liteos/include/los_list.h ****  *<ul>
  92:/home/fanxinhao/Work/LiteOS_Lab/iot_link/os/liteos/include/los_list.h ****  *<li>This API is used to point to the next node pointed to by the current node.</li>
  93:/home/fanxinhao/Work/LiteOS_Lab/iot_link/os/liteos/include/los_list.h ****  *</ul>
  94:/home/fanxinhao/Work/LiteOS_Lab/iot_link/os/liteos/include/los_list.h ****  *@attention
  95:/home/fanxinhao/Work/LiteOS_Lab/iot_link/os/liteos/include/los_list.h ****  *<ul>
  96:/home/fanxinhao/Work/LiteOS_Lab/iot_link/os/liteos/include/los_list.h ****  *<li>None.</li>
  97:/home/fanxinhao/Work/LiteOS_Lab/iot_link/os/liteos/include/los_list.h ****  *</ul>
ARM GAS  /tmp/ccLafEr3.s 			page 4


  98:/home/fanxinhao/Work/LiteOS_Lab/iot_link/os/liteos/include/los_list.h ****  *
  99:/home/fanxinhao/Work/LiteOS_Lab/iot_link/os/liteos/include/los_list.h ****  *@param pstObject  [IN] Node in the doubly linked list.
 100:/home/fanxinhao/Work/LiteOS_Lab/iot_link/os/liteos/include/los_list.h ****  *
 101:/home/fanxinhao/Work/LiteOS_Lab/iot_link/os/liteos/include/los_list.h ****  *@retval None.
 102:/home/fanxinhao/Work/LiteOS_Lab/iot_link/os/liteos/include/los_list.h ****  *@par Dependency:
 103:/home/fanxinhao/Work/LiteOS_Lab/iot_link/os/liteos/include/los_list.h ****  *<ul><li>los_list.h: the header file that contains the API declaration.</li></ul>
 104:/home/fanxinhao/Work/LiteOS_Lab/iot_link/os/liteos/include/los_list.h ****  *@see
 105:/home/fanxinhao/Work/LiteOS_Lab/iot_link/os/liteos/include/los_list.h ****  *@since Huawei LiteOS V100R001C00
 106:/home/fanxinhao/Work/LiteOS_Lab/iot_link/os/liteos/include/los_list.h ****  */
 107:/home/fanxinhao/Work/LiteOS_Lab/iot_link/os/liteos/include/los_list.h **** #define LOS_DL_LIST_FIRST(pstObject) ((pstObject)->pstNext)
 108:/home/fanxinhao/Work/LiteOS_Lab/iot_link/os/liteos/include/los_list.h **** 
 109:/home/fanxinhao/Work/LiteOS_Lab/iot_link/os/liteos/include/los_list.h **** /**
 110:/home/fanxinhao/Work/LiteOS_Lab/iot_link/os/liteos/include/los_list.h ****  *@ingroup los_list
 111:/home/fanxinhao/Work/LiteOS_Lab/iot_link/os/liteos/include/los_list.h ****  *@brief Insert a new node to a doubly linked list.
 112:/home/fanxinhao/Work/LiteOS_Lab/iot_link/os/liteos/include/los_list.h ****  *
 113:/home/fanxinhao/Work/LiteOS_Lab/iot_link/os/liteos/include/los_list.h ****  *@par Description:
 114:/home/fanxinhao/Work/LiteOS_Lab/iot_link/os/liteos/include/los_list.h ****  *This API is used to insert a new node to a doubly linked list.
 115:/home/fanxinhao/Work/LiteOS_Lab/iot_link/os/liteos/include/los_list.h ****  *@attention
 116:/home/fanxinhao/Work/LiteOS_Lab/iot_link/os/liteos/include/los_list.h ****  *<ul>
 117:/home/fanxinhao/Work/LiteOS_Lab/iot_link/os/liteos/include/los_list.h ****  *<li>The parameters passed in should be ensured to be legal pointers.</li>
 118:/home/fanxinhao/Work/LiteOS_Lab/iot_link/os/liteos/include/los_list.h ****  *</ul>
 119:/home/fanxinhao/Work/LiteOS_Lab/iot_link/os/liteos/include/los_list.h ****  *
 120:/home/fanxinhao/Work/LiteOS_Lab/iot_link/os/liteos/include/los_list.h ****  *@param pstList    [IN]   Doubly linked list where the new node is inserted.
 121:/home/fanxinhao/Work/LiteOS_Lab/iot_link/os/liteos/include/los_list.h ****  *@param pstNode    [IN]   New node to be inserted.
 122:/home/fanxinhao/Work/LiteOS_Lab/iot_link/os/liteos/include/los_list.h ****  *
 123:/home/fanxinhao/Work/LiteOS_Lab/iot_link/os/liteos/include/los_list.h ****  *@retval None
 124:/home/fanxinhao/Work/LiteOS_Lab/iot_link/os/liteos/include/los_list.h ****  *@par Dependency:
 125:/home/fanxinhao/Work/LiteOS_Lab/iot_link/os/liteos/include/los_list.h ****  *<ul><li>los_list.h: the header file that contains the API declaration.</li></ul>
 126:/home/fanxinhao/Work/LiteOS_Lab/iot_link/os/liteos/include/los_list.h ****  *@see LOS_ListDelete
 127:/home/fanxinhao/Work/LiteOS_Lab/iot_link/os/liteos/include/los_list.h ****  *@since Huawei LiteOS V100R001C00
 128:/home/fanxinhao/Work/LiteOS_Lab/iot_link/os/liteos/include/los_list.h ****  */
 129:/home/fanxinhao/Work/LiteOS_Lab/iot_link/os/liteos/include/los_list.h **** LITE_OS_SEC_ALW_INLINE STATIC_INLINE VOID LOS_ListAdd(LOS_DL_LIST *pstList, LOS_DL_LIST *pstNode)
 130:/home/fanxinhao/Work/LiteOS_Lab/iot_link/os/liteos/include/los_list.h **** {
  78              		.loc 1 130 1
  79              		.cfi_startproc
  80              		@ args = 0, pretend = 0, frame = 8
  81              		@ frame_needed = 1, uses_anonymous_args = 0
  82              		@ link register save eliminated.
  83 0000 80B4     		push	{r7}
  84              	.LCFI6:
  85              		.cfi_def_cfa_offset 4
  86              		.cfi_offset 7, -4
  87 0002 83B0     		sub	sp, sp, #12
  88              	.LCFI7:
  89              		.cfi_def_cfa_offset 16
  90 0004 00AF     		add	r7, sp, #0
  91              	.LCFI8:
  92              		.cfi_def_cfa_register 7
  93 0006 7860     		str	r0, [r7, #4]
  94 0008 3960     		str	r1, [r7]
 131:/home/fanxinhao/Work/LiteOS_Lab/iot_link/os/liteos/include/los_list.h ****     pstNode->pstNext = pstList->pstNext;
  95              		.loc 1 131 31
  96 000a 7B68     		ldr	r3, [r7, #4]
  97 000c 5A68     		ldr	r2, [r3, #4]
  98              		.loc 1 131 22
  99 000e 3B68     		ldr	r3, [r7]
 100 0010 5A60     		str	r2, [r3, #4]
ARM GAS  /tmp/ccLafEr3.s 			page 5


 132:/home/fanxinhao/Work/LiteOS_Lab/iot_link/os/liteos/include/los_list.h ****     pstNode->pstPrev = pstList;
 101              		.loc 1 132 22
 102 0012 3B68     		ldr	r3, [r7]
 103 0014 7A68     		ldr	r2, [r7, #4]
 104 0016 1A60     		str	r2, [r3]
 133:/home/fanxinhao/Work/LiteOS_Lab/iot_link/os/liteos/include/los_list.h ****     pstList->pstNext->pstPrev = pstNode;
 105              		.loc 1 133 12
 106 0018 7B68     		ldr	r3, [r7, #4]
 107 001a 5B68     		ldr	r3, [r3, #4]
 108              		.loc 1 133 31
 109 001c 3A68     		ldr	r2, [r7]
 110 001e 1A60     		str	r2, [r3]
 134:/home/fanxinhao/Work/LiteOS_Lab/iot_link/os/liteos/include/los_list.h ****     pstList->pstNext = pstNode;
 111              		.loc 1 134 22
 112 0020 7B68     		ldr	r3, [r7, #4]
 113 0022 3A68     		ldr	r2, [r7]
 114 0024 5A60     		str	r2, [r3, #4]
 135:/home/fanxinhao/Work/LiteOS_Lab/iot_link/os/liteos/include/los_list.h **** }
 115              		.loc 1 135 1
 116 0026 00BF     		nop
 117 0028 0C37     		adds	r7, r7, #12
 118              	.LCFI9:
 119              		.cfi_def_cfa_offset 4
 120 002a BD46     		mov	sp, r7
 121              	.LCFI10:
 122              		.cfi_def_cfa_register 13
 123              		@ sp needed
 124 002c 5DF8047B 		ldr	r7, [sp], #4
 125              	.LCFI11:
 126              		.cfi_restore 7
 127              		.cfi_def_cfa_offset 0
 128 0030 7047     		bx	lr
 129              		.cfi_endproc
 130              	.LFE127:
 132              		.section	.text.LOS_ListTailInsert,"ax",%progbits
 133              		.align	1
 134              		.syntax unified
 135              		.thumb
 136              		.thumb_func
 137              		.fpu fpv4-sp-d16
 139              	LOS_ListTailInsert:
 140              	.LFB128:
 136:/home/fanxinhao/Work/LiteOS_Lab/iot_link/os/liteos/include/los_list.h **** 
 137:/home/fanxinhao/Work/LiteOS_Lab/iot_link/os/liteos/include/los_list.h **** /**
 138:/home/fanxinhao/Work/LiteOS_Lab/iot_link/os/liteos/include/los_list.h ****  *@ingroup los_list
 139:/home/fanxinhao/Work/LiteOS_Lab/iot_link/os/liteos/include/los_list.h ****  *@brief Insert a node to the tail of a doubly linked list.
 140:/home/fanxinhao/Work/LiteOS_Lab/iot_link/os/liteos/include/los_list.h ****  *
 141:/home/fanxinhao/Work/LiteOS_Lab/iot_link/os/liteos/include/los_list.h ****  *@par Description:
 142:/home/fanxinhao/Work/LiteOS_Lab/iot_link/os/liteos/include/los_list.h ****  *This API is used to insert a new node to the tail of a doubly linked list.
 143:/home/fanxinhao/Work/LiteOS_Lab/iot_link/os/liteos/include/los_list.h ****  *@attention
 144:/home/fanxinhao/Work/LiteOS_Lab/iot_link/os/liteos/include/los_list.h ****  *<ul>
 145:/home/fanxinhao/Work/LiteOS_Lab/iot_link/os/liteos/include/los_list.h ****  *<li>The parameters passed in should be ensured to be legal pointers.</li>
 146:/home/fanxinhao/Work/LiteOS_Lab/iot_link/os/liteos/include/los_list.h ****  *</ul>
 147:/home/fanxinhao/Work/LiteOS_Lab/iot_link/os/liteos/include/los_list.h ****  *
 148:/home/fanxinhao/Work/LiteOS_Lab/iot_link/os/liteos/include/los_list.h ****  *@param pstList     [IN] Doubly linked list where the new node is inserted.
 149:/home/fanxinhao/Work/LiteOS_Lab/iot_link/os/liteos/include/los_list.h ****  *@param pstNode     [IN] New node to be inserted.
 150:/home/fanxinhao/Work/LiteOS_Lab/iot_link/os/liteos/include/los_list.h ****  *
ARM GAS  /tmp/ccLafEr3.s 			page 6


 151:/home/fanxinhao/Work/LiteOS_Lab/iot_link/os/liteos/include/los_list.h ****  *@retval None.
 152:/home/fanxinhao/Work/LiteOS_Lab/iot_link/os/liteos/include/los_list.h ****  *@par Dependency:
 153:/home/fanxinhao/Work/LiteOS_Lab/iot_link/os/liteos/include/los_list.h ****  *<ul><li>los_list.h: the header file that contains the API declaration.</li></ul>
 154:/home/fanxinhao/Work/LiteOS_Lab/iot_link/os/liteos/include/los_list.h ****  *@see LOS_ListAdd | LOS_ListHeadInsert
 155:/home/fanxinhao/Work/LiteOS_Lab/iot_link/os/liteos/include/los_list.h ****  *@since Huawei LiteOS V100R001C00
 156:/home/fanxinhao/Work/LiteOS_Lab/iot_link/os/liteos/include/los_list.h ****  */
 157:/home/fanxinhao/Work/LiteOS_Lab/iot_link/os/liteos/include/los_list.h **** LITE_OS_SEC_ALW_INLINE STATIC_INLINE VOID LOS_ListTailInsert(LOS_DL_LIST *pstList, LOS_DL_LIST *pst
 158:/home/fanxinhao/Work/LiteOS_Lab/iot_link/os/liteos/include/los_list.h **** {
 141              		.loc 1 158 1
 142              		.cfi_startproc
 143              		@ args = 0, pretend = 0, frame = 8
 144              		@ frame_needed = 1, uses_anonymous_args = 0
 145 0000 80B5     		push	{r7, lr}
 146              	.LCFI12:
 147              		.cfi_def_cfa_offset 8
 148              		.cfi_offset 7, -8
 149              		.cfi_offset 14, -4
 150 0002 82B0     		sub	sp, sp, #8
 151              	.LCFI13:
 152              		.cfi_def_cfa_offset 16
 153 0004 00AF     		add	r7, sp, #0
 154              	.LCFI14:
 155              		.cfi_def_cfa_register 7
 156 0006 7860     		str	r0, [r7, #4]
 157 0008 3960     		str	r1, [r7]
 159:/home/fanxinhao/Work/LiteOS_Lab/iot_link/os/liteos/include/los_list.h ****     LOS_ListAdd(pstList->pstPrev, pstNode);
 158              		.loc 1 159 24
 159 000a 7B68     		ldr	r3, [r7, #4]
 160 000c 1B68     		ldr	r3, [r3]
 161              		.loc 1 159 5
 162 000e 3968     		ldr	r1, [r7]
 163 0010 1846     		mov	r0, r3
 164 0012 FFF7FEFF 		bl	LOS_ListAdd
 160:/home/fanxinhao/Work/LiteOS_Lab/iot_link/os/liteos/include/los_list.h **** }
 165              		.loc 1 160 1
 166 0016 00BF     		nop
 167 0018 0837     		adds	r7, r7, #8
 168              	.LCFI15:
 169              		.cfi_def_cfa_offset 8
 170 001a BD46     		mov	sp, r7
 171              	.LCFI16:
 172              		.cfi_def_cfa_register 13
 173              		@ sp needed
 174 001c 80BD     		pop	{r7, pc}
 175              		.cfi_endproc
 176              	.LFE128:
 178              		.section	.text.LOS_ListDelete,"ax",%progbits
 179              		.align	1
 180              		.syntax unified
 181              		.thumb
 182              		.thumb_func
 183              		.fpu fpv4-sp-d16
 185              	LOS_ListDelete:
 186              	.LFB129:
 161:/home/fanxinhao/Work/LiteOS_Lab/iot_link/os/liteos/include/los_list.h **** 
 162:/home/fanxinhao/Work/LiteOS_Lab/iot_link/os/liteos/include/los_list.h **** /**
 163:/home/fanxinhao/Work/LiteOS_Lab/iot_link/os/liteos/include/los_list.h ****  *@ingroup los_list
ARM GAS  /tmp/ccLafEr3.s 			page 7


 164:/home/fanxinhao/Work/LiteOS_Lab/iot_link/os/liteos/include/los_list.h ****  *@brief Delete a specified node from a doubly linked list.
 165:/home/fanxinhao/Work/LiteOS_Lab/iot_link/os/liteos/include/los_list.h ****  *
 166:/home/fanxinhao/Work/LiteOS_Lab/iot_link/os/liteos/include/los_list.h ****  *@par Description:
 167:/home/fanxinhao/Work/LiteOS_Lab/iot_link/os/liteos/include/los_list.h ****  *<ul>
 168:/home/fanxinhao/Work/LiteOS_Lab/iot_link/os/liteos/include/los_list.h ****  *<li>This API is used to delete a specified node from a doubly linked list.</li>
 169:/home/fanxinhao/Work/LiteOS_Lab/iot_link/os/liteos/include/los_list.h ****  *</ul>
 170:/home/fanxinhao/Work/LiteOS_Lab/iot_link/os/liteos/include/los_list.h ****  *@attention
 171:/home/fanxinhao/Work/LiteOS_Lab/iot_link/os/liteos/include/los_list.h ****  *<ul>
 172:/home/fanxinhao/Work/LiteOS_Lab/iot_link/os/liteos/include/los_list.h ****  *<li>The parameter passed in should be ensured to be a legal pointer.</li>
 173:/home/fanxinhao/Work/LiteOS_Lab/iot_link/os/liteos/include/los_list.h ****  *</ul>
 174:/home/fanxinhao/Work/LiteOS_Lab/iot_link/os/liteos/include/los_list.h ****  *
 175:/home/fanxinhao/Work/LiteOS_Lab/iot_link/os/liteos/include/los_list.h ****  *@param pstNode    [IN] Node to be deleted.
 176:/home/fanxinhao/Work/LiteOS_Lab/iot_link/os/liteos/include/los_list.h ****  *
 177:/home/fanxinhao/Work/LiteOS_Lab/iot_link/os/liteos/include/los_list.h ****  *@retval None.
 178:/home/fanxinhao/Work/LiteOS_Lab/iot_link/os/liteos/include/los_list.h ****  *@par Dependency:
 179:/home/fanxinhao/Work/LiteOS_Lab/iot_link/os/liteos/include/los_list.h ****  *<ul><li>los_list.h: the header file that contains the API declaration.</li></ul>
 180:/home/fanxinhao/Work/LiteOS_Lab/iot_link/os/liteos/include/los_list.h ****  *@see LOS_ListAdd
 181:/home/fanxinhao/Work/LiteOS_Lab/iot_link/os/liteos/include/los_list.h ****  *@since Huawei LiteOS V100R001C00
 182:/home/fanxinhao/Work/LiteOS_Lab/iot_link/os/liteos/include/los_list.h ****  */
 183:/home/fanxinhao/Work/LiteOS_Lab/iot_link/os/liteos/include/los_list.h **** LITE_OS_SEC_ALW_INLINE STATIC_INLINE VOID LOS_ListDelete(LOS_DL_LIST *pstNode)
 184:/home/fanxinhao/Work/LiteOS_Lab/iot_link/os/liteos/include/los_list.h **** {
 187              		.loc 1 184 1
 188              		.cfi_startproc
 189              		@ args = 0, pretend = 0, frame = 8
 190              		@ frame_needed = 1, uses_anonymous_args = 0
 191              		@ link register save eliminated.
 192 0000 80B4     		push	{r7}
 193              	.LCFI17:
 194              		.cfi_def_cfa_offset 4
 195              		.cfi_offset 7, -4
 196 0002 83B0     		sub	sp, sp, #12
 197              	.LCFI18:
 198              		.cfi_def_cfa_offset 16
 199 0004 00AF     		add	r7, sp, #0
 200              	.LCFI19:
 201              		.cfi_def_cfa_register 7
 202 0006 7860     		str	r0, [r7, #4]
 185:/home/fanxinhao/Work/LiteOS_Lab/iot_link/os/liteos/include/los_list.h ****     pstNode->pstNext->pstPrev = pstNode->pstPrev;
 203              		.loc 1 185 12
 204 0008 7B68     		ldr	r3, [r7, #4]
 205 000a 5B68     		ldr	r3, [r3, #4]
 206              		.loc 1 185 40
 207 000c 7A68     		ldr	r2, [r7, #4]
 208 000e 1268     		ldr	r2, [r2]
 209              		.loc 1 185 31
 210 0010 1A60     		str	r2, [r3]
 186:/home/fanxinhao/Work/LiteOS_Lab/iot_link/os/liteos/include/los_list.h ****     pstNode->pstPrev->pstNext = pstNode->pstNext;
 211              		.loc 1 186 12
 212 0012 7B68     		ldr	r3, [r7, #4]
 213 0014 1B68     		ldr	r3, [r3]
 214              		.loc 1 186 40
 215 0016 7A68     		ldr	r2, [r7, #4]
 216 0018 5268     		ldr	r2, [r2, #4]
 217              		.loc 1 186 31
 218 001a 5A60     		str	r2, [r3, #4]
 187:/home/fanxinhao/Work/LiteOS_Lab/iot_link/os/liteos/include/los_list.h ****     pstNode->pstNext = (LOS_DL_LIST *)NULL;
 219              		.loc 1 187 22
ARM GAS  /tmp/ccLafEr3.s 			page 8


 220 001c 7B68     		ldr	r3, [r7, #4]
 221 001e 0022     		movs	r2, #0
 222 0020 5A60     		str	r2, [r3, #4]
 188:/home/fanxinhao/Work/LiteOS_Lab/iot_link/os/liteos/include/los_list.h ****     pstNode->pstPrev = (LOS_DL_LIST *)NULL;
 223              		.loc 1 188 22
 224 0022 7B68     		ldr	r3, [r7, #4]
 225 0024 0022     		movs	r2, #0
 226 0026 1A60     		str	r2, [r3]
 189:/home/fanxinhao/Work/LiteOS_Lab/iot_link/os/liteos/include/los_list.h **** }
 227              		.loc 1 189 1
 228 0028 00BF     		nop
 229 002a 0C37     		adds	r7, r7, #12
 230              	.LCFI20:
 231              		.cfi_def_cfa_offset 4
 232 002c BD46     		mov	sp, r7
 233              	.LCFI21:
 234              		.cfi_def_cfa_register 13
 235              		@ sp needed
 236 002e 5DF8047B 		ldr	r7, [sp], #4
 237              	.LCFI22:
 238              		.cfi_restore 7
 239              		.cfi_def_cfa_offset 0
 240 0032 7047     		bx	lr
 241              		.cfi_endproc
 242              	.LFE129:
 244              		.section	.text.LOS_ListEmpty,"ax",%progbits
 245              		.align	1
 246              		.syntax unified
 247              		.thumb
 248              		.thumb_func
 249              		.fpu fpv4-sp-d16
 251              	LOS_ListEmpty:
 252              	.LFB130:
 190:/home/fanxinhao/Work/LiteOS_Lab/iot_link/os/liteos/include/los_list.h **** 
 191:/home/fanxinhao/Work/LiteOS_Lab/iot_link/os/liteos/include/los_list.h **** /**
 192:/home/fanxinhao/Work/LiteOS_Lab/iot_link/os/liteos/include/los_list.h ****  *@ingroup los_list
 193:/home/fanxinhao/Work/LiteOS_Lab/iot_link/os/liteos/include/los_list.h ****  *@brief Identify whether a specified doubly linked list is empty.
 194:/home/fanxinhao/Work/LiteOS_Lab/iot_link/os/liteos/include/los_list.h ****  *
 195:/home/fanxinhao/Work/LiteOS_Lab/iot_link/os/liteos/include/los_list.h ****  *@par Description:
 196:/home/fanxinhao/Work/LiteOS_Lab/iot_link/os/liteos/include/los_list.h ****  *<ul>
 197:/home/fanxinhao/Work/LiteOS_Lab/iot_link/os/liteos/include/los_list.h ****  *<li>This API is used to return whether a doubly linked list is empty.</li>
 198:/home/fanxinhao/Work/LiteOS_Lab/iot_link/os/liteos/include/los_list.h ****  *</ul>
 199:/home/fanxinhao/Work/LiteOS_Lab/iot_link/os/liteos/include/los_list.h ****  *@attention
 200:/home/fanxinhao/Work/LiteOS_Lab/iot_link/os/liteos/include/los_list.h ****  *<ul>
 201:/home/fanxinhao/Work/LiteOS_Lab/iot_link/os/liteos/include/los_list.h ****  *<li>The parameter passed in should be ensured to be a legal pointer.</li>
 202:/home/fanxinhao/Work/LiteOS_Lab/iot_link/os/liteos/include/los_list.h ****  *</ul>
 203:/home/fanxinhao/Work/LiteOS_Lab/iot_link/os/liteos/include/los_list.h ****  *
 204:/home/fanxinhao/Work/LiteOS_Lab/iot_link/os/liteos/include/los_list.h ****  *@param pstList  [IN] Doubly linked list.
 205:/home/fanxinhao/Work/LiteOS_Lab/iot_link/os/liteos/include/los_list.h ****  *
 206:/home/fanxinhao/Work/LiteOS_Lab/iot_link/os/liteos/include/los_list.h ****  *@retval TRUE The doubly linked list is empty.
 207:/home/fanxinhao/Work/LiteOS_Lab/iot_link/os/liteos/include/los_list.h ****  *@retval FALSE The doubly linked list is not empty.
 208:/home/fanxinhao/Work/LiteOS_Lab/iot_link/os/liteos/include/los_list.h ****  *@par Dependency:
 209:/home/fanxinhao/Work/LiteOS_Lab/iot_link/os/liteos/include/los_list.h ****  *<ul><li>los_list.h: the header file that contains the API declaration.</li></ul>
 210:/home/fanxinhao/Work/LiteOS_Lab/iot_link/os/liteos/include/los_list.h ****  *@see
 211:/home/fanxinhao/Work/LiteOS_Lab/iot_link/os/liteos/include/los_list.h ****  *@since Huawei LiteOS V100R001C00
 212:/home/fanxinhao/Work/LiteOS_Lab/iot_link/os/liteos/include/los_list.h ****  */
 213:/home/fanxinhao/Work/LiteOS_Lab/iot_link/os/liteos/include/los_list.h **** LITE_OS_SEC_ALW_INLINE STATIC_INLINE BOOL LOS_ListEmpty(LOS_DL_LIST *pstNode)
ARM GAS  /tmp/ccLafEr3.s 			page 9


 214:/home/fanxinhao/Work/LiteOS_Lab/iot_link/os/liteos/include/los_list.h **** {
 253              		.loc 1 214 1
 254              		.cfi_startproc
 255              		@ args = 0, pretend = 0, frame = 8
 256              		@ frame_needed = 1, uses_anonymous_args = 0
 257              		@ link register save eliminated.
 258 0000 80B4     		push	{r7}
 259              	.LCFI23:
 260              		.cfi_def_cfa_offset 4
 261              		.cfi_offset 7, -4
 262 0002 83B0     		sub	sp, sp, #12
 263              	.LCFI24:
 264              		.cfi_def_cfa_offset 16
 265 0004 00AF     		add	r7, sp, #0
 266              	.LCFI25:
 267              		.cfi_def_cfa_register 7
 268 0006 7860     		str	r0, [r7, #4]
 215:/home/fanxinhao/Work/LiteOS_Lab/iot_link/os/liteos/include/los_list.h ****     return (BOOL)(pstNode->pstNext == pstNode);
 269              		.loc 1 215 26
 270 0008 7B68     		ldr	r3, [r7, #4]
 271 000a 5B68     		ldr	r3, [r3, #4]
 272              		.loc 1 215 12
 273 000c 7A68     		ldr	r2, [r7, #4]
 274 000e 9A42     		cmp	r2, r3
 275 0010 0CBF     		ite	eq
 276 0012 0123     		moveq	r3, #1
 277 0014 0023     		movne	r3, #0
 278 0016 DBB2     		uxtb	r3, r3
 216:/home/fanxinhao/Work/LiteOS_Lab/iot_link/os/liteos/include/los_list.h **** }
 279              		.loc 1 216 1
 280 0018 1846     		mov	r0, r3
 281 001a 0C37     		adds	r7, r7, #12
 282              	.LCFI26:
 283              		.cfi_def_cfa_offset 4
 284 001c BD46     		mov	sp, r7
 285              	.LCFI27:
 286              		.cfi_def_cfa_register 13
 287              		@ sp needed
 288 001e 5DF8047B 		ldr	r7, [sp], #4
 289              	.LCFI28:
 290              		.cfi_restore 7
 291              		.cfi_def_cfa_offset 0
 292 0022 7047     		bx	lr
 293              		.cfi_endproc
 294              	.LFE130:
 296              		.global	g_pstAllMux
 297              		.section	.bss.g_pstAllMux,"aw",%nobits
 298              		.align	2
 301              	g_pstAllMux:
 302 0000 00000000 		.space	4
 303              		.comm	g_stUnusedMuxList,8,4
 304              		.section	.text.osMuxInit,"ax",%progbits
 305              		.align	1
 306              		.global	osMuxInit
 307              		.syntax unified
 308              		.thumb
 309              		.thumb_func
ARM GAS  /tmp/ccLafEr3.s 			page 10


 310              		.fpu fpv4-sp-d16
 312              	osMuxInit:
 313              	.LFB133:
 314              		.file 2 "/home/fanxinhao/Work/LiteOS_Lab/iot_link/os/liteos/base/ipc/los_mux.c"
   1:/home/fanxinhao/Work/LiteOS_Lab/iot_link/os/liteos/base/ipc/los_mux.c **** /*----------------------------------------------------------------------------
   2:/home/fanxinhao/Work/LiteOS_Lab/iot_link/os/liteos/base/ipc/los_mux.c ****  * Copyright (c) <2013-2015>, <Huawei Technologies Co., Ltd>
   3:/home/fanxinhao/Work/LiteOS_Lab/iot_link/os/liteos/base/ipc/los_mux.c ****  * All rights reserved.
   4:/home/fanxinhao/Work/LiteOS_Lab/iot_link/os/liteos/base/ipc/los_mux.c ****  * Redistribution and use in source and binary forms, with or without modification,
   5:/home/fanxinhao/Work/LiteOS_Lab/iot_link/os/liteos/base/ipc/los_mux.c ****  * are permitted provided that the following conditions are met:
   6:/home/fanxinhao/Work/LiteOS_Lab/iot_link/os/liteos/base/ipc/los_mux.c ****  * 1. Redistributions of source code must retain the above copyright notice, this list of
   7:/home/fanxinhao/Work/LiteOS_Lab/iot_link/os/liteos/base/ipc/los_mux.c ****  * conditions and the following disclaimer.
   8:/home/fanxinhao/Work/LiteOS_Lab/iot_link/os/liteos/base/ipc/los_mux.c ****  * 2. Redistributions in binary form must reproduce the above copyright notice, this list
   9:/home/fanxinhao/Work/LiteOS_Lab/iot_link/os/liteos/base/ipc/los_mux.c ****  * of conditions and the following disclaimer in the documentation and/or other materials
  10:/home/fanxinhao/Work/LiteOS_Lab/iot_link/os/liteos/base/ipc/los_mux.c ****  * provided with the distribution.
  11:/home/fanxinhao/Work/LiteOS_Lab/iot_link/os/liteos/base/ipc/los_mux.c ****  * 3. Neither the name of the copyright holder nor the names of its contributors may be used
  12:/home/fanxinhao/Work/LiteOS_Lab/iot_link/os/liteos/base/ipc/los_mux.c ****  * to endorse or promote products derived from this software without specific prior written
  13:/home/fanxinhao/Work/LiteOS_Lab/iot_link/os/liteos/base/ipc/los_mux.c ****  * permission.
  14:/home/fanxinhao/Work/LiteOS_Lab/iot_link/os/liteos/base/ipc/los_mux.c ****  * THIS SOFTWARE IS PROVIDED BY THE COPYRIGHT HOLDERS AND CONTRIBUTORS
  15:/home/fanxinhao/Work/LiteOS_Lab/iot_link/os/liteos/base/ipc/los_mux.c ****  * "AS IS" AND ANY EXPRESS OR IMPLIED WARRANTIES, INCLUDING, BUT NOT LIMITED TO,
  16:/home/fanxinhao/Work/LiteOS_Lab/iot_link/os/liteos/base/ipc/los_mux.c ****  * THE IMPLIED WARRANTIES OF MERCHANTABILITY AND FITNESS FOR A PARTICULAR
  17:/home/fanxinhao/Work/LiteOS_Lab/iot_link/os/liteos/base/ipc/los_mux.c ****  * PURPOSE ARE DISCLAIMED. IN NO EVENT SHALL THE COPYRIGHT HOLDER OR
  18:/home/fanxinhao/Work/LiteOS_Lab/iot_link/os/liteos/base/ipc/los_mux.c ****  * CONTRIBUTORS BE LIABLE FOR ANY DIRECT, INDIRECT, INCIDENTAL, SPECIAL,
  19:/home/fanxinhao/Work/LiteOS_Lab/iot_link/os/liteos/base/ipc/los_mux.c ****  * EXEMPLARY, OR CONSEQUENTIAL DAMAGES (INCLUDING, BUT NOT LIMITED TO,
  20:/home/fanxinhao/Work/LiteOS_Lab/iot_link/os/liteos/base/ipc/los_mux.c ****  * PROCUREMENT OF SUBSTITUTE GOODS OR SERVICES; LOSS OF USE, DATA, OR PROFITS;
  21:/home/fanxinhao/Work/LiteOS_Lab/iot_link/os/liteos/base/ipc/los_mux.c ****  * OR BUSINESS INTERRUPTION) HOWEVER CAUSED AND ON ANY THEORY OF LIABILITY,
  22:/home/fanxinhao/Work/LiteOS_Lab/iot_link/os/liteos/base/ipc/los_mux.c ****  * WHETHER IN CONTRACT, STRICT LIABILITY, OR TORT (INCLUDING NEGLIGENCE OR
  23:/home/fanxinhao/Work/LiteOS_Lab/iot_link/os/liteos/base/ipc/los_mux.c ****  * OTHERWISE) ARISING IN ANY WAY OUT OF THE USE OF THIS SOFTWARE, EVEN IF
  24:/home/fanxinhao/Work/LiteOS_Lab/iot_link/os/liteos/base/ipc/los_mux.c ****  * ADVISED OF THE POSSIBILITY OF SUCH DAMAGE.
  25:/home/fanxinhao/Work/LiteOS_Lab/iot_link/os/liteos/base/ipc/los_mux.c ****  *---------------------------------------------------------------------------*/
  26:/home/fanxinhao/Work/LiteOS_Lab/iot_link/os/liteos/base/ipc/los_mux.c **** /*----------------------------------------------------------------------------
  27:/home/fanxinhao/Work/LiteOS_Lab/iot_link/os/liteos/base/ipc/los_mux.c ****  * Notice of Export Control Law
  28:/home/fanxinhao/Work/LiteOS_Lab/iot_link/os/liteos/base/ipc/los_mux.c ****  * ===============================================
  29:/home/fanxinhao/Work/LiteOS_Lab/iot_link/os/liteos/base/ipc/los_mux.c ****  * Huawei LiteOS may be subject to applicable export control laws and regulations, which might
  30:/home/fanxinhao/Work/LiteOS_Lab/iot_link/os/liteos/base/ipc/los_mux.c ****  * include those applicable to Huawei LiteOS of U.S. and the country in which you are located.
  31:/home/fanxinhao/Work/LiteOS_Lab/iot_link/os/liteos/base/ipc/los_mux.c ****  * Import, export and usage of Huawei LiteOS in any manner by you shall be in compliance with such
  32:/home/fanxinhao/Work/LiteOS_Lab/iot_link/os/liteos/base/ipc/los_mux.c ****  * applicable export control laws and regulations.
  33:/home/fanxinhao/Work/LiteOS_Lab/iot_link/os/liteos/base/ipc/los_mux.c ****  *---------------------------------------------------------------------------*/
  34:/home/fanxinhao/Work/LiteOS_Lab/iot_link/os/liteos/base/ipc/los_mux.c **** 
  35:/home/fanxinhao/Work/LiteOS_Lab/iot_link/os/liteos/base/ipc/los_mux.c **** #include "los_mux.inc"
  36:/home/fanxinhao/Work/LiteOS_Lab/iot_link/os/liteos/base/ipc/los_mux.c **** #include "los_err.ph"
  37:/home/fanxinhao/Work/LiteOS_Lab/iot_link/os/liteos/base/ipc/los_mux.c **** #include "los_memory.ph"
  38:/home/fanxinhao/Work/LiteOS_Lab/iot_link/os/liteos/base/ipc/los_mux.c **** #include "los_priqueue.ph"
  39:/home/fanxinhao/Work/LiteOS_Lab/iot_link/os/liteos/base/ipc/los_mux.c **** #include "los_task.ph"
  40:/home/fanxinhao/Work/LiteOS_Lab/iot_link/os/liteos/base/ipc/los_mux.c **** #if (LOSCFG_PLATFORM_EXC == YES)
  41:/home/fanxinhao/Work/LiteOS_Lab/iot_link/os/liteos/base/ipc/los_mux.c **** #include "los_exc.h"
  42:/home/fanxinhao/Work/LiteOS_Lab/iot_link/os/liteos/base/ipc/los_mux.c **** #endif
  43:/home/fanxinhao/Work/LiteOS_Lab/iot_link/os/liteos/base/ipc/los_mux.c **** #include "los_hw.h"
  44:/home/fanxinhao/Work/LiteOS_Lab/iot_link/os/liteos/base/ipc/los_mux.c **** 
  45:/home/fanxinhao/Work/LiteOS_Lab/iot_link/os/liteos/base/ipc/los_mux.c **** #ifdef __cplusplus
  46:/home/fanxinhao/Work/LiteOS_Lab/iot_link/os/liteos/base/ipc/los_mux.c **** #if __cplusplus
  47:/home/fanxinhao/Work/LiteOS_Lab/iot_link/os/liteos/base/ipc/los_mux.c **** extern "C"{
  48:/home/fanxinhao/Work/LiteOS_Lab/iot_link/os/liteos/base/ipc/los_mux.c **** #endif
  49:/home/fanxinhao/Work/LiteOS_Lab/iot_link/os/liteos/base/ipc/los_mux.c **** #endif /* __cplusplus */
  50:/home/fanxinhao/Work/LiteOS_Lab/iot_link/os/liteos/base/ipc/los_mux.c **** 
  51:/home/fanxinhao/Work/LiteOS_Lab/iot_link/os/liteos/base/ipc/los_mux.c **** 
  52:/home/fanxinhao/Work/LiteOS_Lab/iot_link/os/liteos/base/ipc/los_mux.c **** #if (LOSCFG_BASE_IPC_MUX == YES)
  53:/home/fanxinhao/Work/LiteOS_Lab/iot_link/os/liteos/base/ipc/los_mux.c **** 
ARM GAS  /tmp/ccLafEr3.s 			page 11


  54:/home/fanxinhao/Work/LiteOS_Lab/iot_link/os/liteos/base/ipc/los_mux.c **** LITE_OS_SEC_BSS MUX_CB_S             *g_pstAllMux = NULL;
  55:/home/fanxinhao/Work/LiteOS_Lab/iot_link/os/liteos/base/ipc/los_mux.c **** LITE_OS_SEC_BSS LOS_DL_LIST          g_stUnusedMuxList;
  56:/home/fanxinhao/Work/LiteOS_Lab/iot_link/os/liteos/base/ipc/los_mux.c **** 
  57:/home/fanxinhao/Work/LiteOS_Lab/iot_link/os/liteos/base/ipc/los_mux.c **** 
  58:/home/fanxinhao/Work/LiteOS_Lab/iot_link/os/liteos/base/ipc/los_mux.c **** /*****************************************************************************
  59:/home/fanxinhao/Work/LiteOS_Lab/iot_link/os/liteos/base/ipc/los_mux.c ****  Funtion         : osMuxInit,
  60:/home/fanxinhao/Work/LiteOS_Lab/iot_link/os/liteos/base/ipc/los_mux.c ****  Description  : Initializes the mutex,
  61:/home/fanxinhao/Work/LiteOS_Lab/iot_link/os/liteos/base/ipc/los_mux.c ****  Input        : None
  62:/home/fanxinhao/Work/LiteOS_Lab/iot_link/os/liteos/base/ipc/los_mux.c ****  Output       : None
  63:/home/fanxinhao/Work/LiteOS_Lab/iot_link/os/liteos/base/ipc/los_mux.c ****  Return       : LOS_OK on success ,or error code on failure
  64:/home/fanxinhao/Work/LiteOS_Lab/iot_link/os/liteos/base/ipc/los_mux.c ****  *****************************************************************************/
  65:/home/fanxinhao/Work/LiteOS_Lab/iot_link/os/liteos/base/ipc/los_mux.c **** LITE_OS_SEC_TEXT_INIT UINT32 osMuxInit(VOID)
  66:/home/fanxinhao/Work/LiteOS_Lab/iot_link/os/liteos/base/ipc/los_mux.c **** {
 315              		.loc 2 66 1
 316              		.cfi_startproc
 317              		@ args = 0, pretend = 0, frame = 8
 318              		@ frame_needed = 1, uses_anonymous_args = 0
 319 0000 80B5     		push	{r7, lr}
 320              	.LCFI29:
 321              		.cfi_def_cfa_offset 8
 322              		.cfi_offset 7, -8
 323              		.cfi_offset 14, -4
 324 0002 82B0     		sub	sp, sp, #8
 325              	.LCFI30:
 326              		.cfi_def_cfa_offset 16
 327 0004 00AF     		add	r7, sp, #0
 328              	.LCFI31:
 329              		.cfi_def_cfa_register 7
  67:/home/fanxinhao/Work/LiteOS_Lab/iot_link/os/liteos/base/ipc/los_mux.c ****     MUX_CB_S *pstMuxNode;
  68:/home/fanxinhao/Work/LiteOS_Lab/iot_link/os/liteos/base/ipc/los_mux.c ****     UINT32   uwIndex;
  69:/home/fanxinhao/Work/LiteOS_Lab/iot_link/os/liteos/base/ipc/los_mux.c **** 
  70:/home/fanxinhao/Work/LiteOS_Lab/iot_link/os/liteos/base/ipc/los_mux.c ****     static MUX_CB_S s_astAllMux [LOSCFG_BASE_IPC_MUX_LIMIT];
  71:/home/fanxinhao/Work/LiteOS_Lab/iot_link/os/liteos/base/ipc/los_mux.c **** 
  72:/home/fanxinhao/Work/LiteOS_Lab/iot_link/os/liteos/base/ipc/los_mux.c ****     if (g_pstAllMux != NULL)
 330              		.loc 2 72 21
 331 0006 174B     		ldr	r3, .L12
 332 0008 1B68     		ldr	r3, [r3]
 333              		.loc 2 72 8
 334 000a 002B     		cmp	r3, #0
 335 000c 01D0     		beq	.L8
  73:/home/fanxinhao/Work/LiteOS_Lab/iot_link/os/liteos/base/ipc/los_mux.c ****         {
  74:/home/fanxinhao/Work/LiteOS_Lab/iot_link/os/liteos/base/ipc/los_mux.c ****         return LOS_OK;
 336              		.loc 2 74 16
 337 000e 0023     		movs	r3, #0
 338 0010 24E0     		b	.L9
 339              	.L8:
  75:/home/fanxinhao/Work/LiteOS_Lab/iot_link/os/liteos/base/ipc/los_mux.c ****         }
  76:/home/fanxinhao/Work/LiteOS_Lab/iot_link/os/liteos/base/ipc/los_mux.c **** 
  77:/home/fanxinhao/Work/LiteOS_Lab/iot_link/os/liteos/base/ipc/los_mux.c ****     g_pstAllMux = s_astAllMux;
 340              		.loc 2 77 17
 341 0012 144B     		ldr	r3, .L12
 342 0014 144A     		ldr	r2, .L12+4
 343 0016 1A60     		str	r2, [r3]
  78:/home/fanxinhao/Work/LiteOS_Lab/iot_link/os/liteos/base/ipc/los_mux.c **** 
  79:/home/fanxinhao/Work/LiteOS_Lab/iot_link/os/liteos/base/ipc/los_mux.c ****     LOS_ListInit(&g_stUnusedMuxList);
 344              		.loc 2 79 5
 345 0018 1448     		ldr	r0, .L12+8
ARM GAS  /tmp/ccLafEr3.s 			page 12


 346 001a FFF7FEFF 		bl	LOS_ListInit
  80:/home/fanxinhao/Work/LiteOS_Lab/iot_link/os/liteos/base/ipc/los_mux.c **** 
  81:/home/fanxinhao/Work/LiteOS_Lab/iot_link/os/liteos/base/ipc/los_mux.c ****     if (LOSCFG_BASE_IPC_MUX_LIMIT == 0)   /*lint !e506*/
  82:/home/fanxinhao/Work/LiteOS_Lab/iot_link/os/liteos/base/ipc/los_mux.c ****     {
  83:/home/fanxinhao/Work/LiteOS_Lab/iot_link/os/liteos/base/ipc/los_mux.c ****         return LOS_ERRNO_MUX_MAXNUM_ZERO;
  84:/home/fanxinhao/Work/LiteOS_Lab/iot_link/os/liteos/base/ipc/los_mux.c ****     }
  85:/home/fanxinhao/Work/LiteOS_Lab/iot_link/os/liteos/base/ipc/los_mux.c **** 
  86:/home/fanxinhao/Work/LiteOS_Lab/iot_link/os/liteos/base/ipc/los_mux.c ****     for (uwIndex = 0; uwIndex < LOSCFG_BASE_IPC_MUX_LIMIT; uwIndex++)
 347              		.loc 2 86 18
 348 001e 0023     		movs	r3, #0
 349 0020 7B60     		str	r3, [r7, #4]
 350              		.loc 2 86 5
 351 0022 17E0     		b	.L10
 352              	.L11:
  87:/home/fanxinhao/Work/LiteOS_Lab/iot_link/os/liteos/base/ipc/los_mux.c ****     {
  88:/home/fanxinhao/Work/LiteOS_Lab/iot_link/os/liteos/base/ipc/los_mux.c ****         pstMuxNode              = ((MUX_CB_S *)g_pstAllMux) + uwIndex;
 353              		.loc 2 88 61 discriminator 3
 354 0024 0F4B     		ldr	r3, .L12
 355 0026 1968     		ldr	r1, [r3]
 356 0028 7A68     		ldr	r2, [r7, #4]
 357 002a 1346     		mov	r3, r2
 358 002c 5B00     		lsls	r3, r3, #1
 359 002e 1344     		add	r3, r3, r2
 360 0030 DB00     		lsls	r3, r3, #3
 361              		.loc 2 88 33 discriminator 3
 362 0032 0B44     		add	r3, r3, r1
 363 0034 3B60     		str	r3, [r7]
  89:/home/fanxinhao/Work/LiteOS_Lab/iot_link/os/liteos/base/ipc/los_mux.c ****         pstMuxNode->ucMuxID     = uwIndex;
 364              		.loc 2 89 33 discriminator 3
 365 0036 3B68     		ldr	r3, [r7]
 366 0038 7A68     		ldr	r2, [r7, #4]
 367 003a 5A60     		str	r2, [r3, #4]
  90:/home/fanxinhao/Work/LiteOS_Lab/iot_link/os/liteos/base/ipc/los_mux.c ****         pstMuxNode->ucMuxStat   = OS_MUX_UNUSED;
 368              		.loc 2 90 33 discriminator 3
 369 003c 3B68     		ldr	r3, [r7]
 370 003e 0022     		movs	r2, #0
 371 0040 1A70     		strb	r2, [r3]
  91:/home/fanxinhao/Work/LiteOS_Lab/iot_link/os/liteos/base/ipc/los_mux.c ****         LOS_ListTailInsert(&g_stUnusedMuxList, &pstMuxNode->stMuxList);
 372              		.loc 2 91 9 discriminator 3
 373 0042 3B68     		ldr	r3, [r7]
 374 0044 0833     		adds	r3, r3, #8
 375 0046 1946     		mov	r1, r3
 376 0048 0848     		ldr	r0, .L12+8
 377 004a FFF7FEFF 		bl	LOS_ListTailInsert
  86:/home/fanxinhao/Work/LiteOS_Lab/iot_link/os/liteos/base/ipc/los_mux.c ****     {
 378              		.loc 2 86 67 discriminator 3
 379 004e 7B68     		ldr	r3, [r7, #4]
 380 0050 0133     		adds	r3, r3, #1
 381 0052 7B60     		str	r3, [r7, #4]
 382              	.L10:
  86:/home/fanxinhao/Work/LiteOS_Lab/iot_link/os/liteos/base/ipc/los_mux.c ****     {
 383              		.loc 2 86 5 discriminator 1
 384 0054 7B68     		ldr	r3, [r7, #4]
 385 0056 132B     		cmp	r3, #19
 386 0058 E4D9     		bls	.L11
  92:/home/fanxinhao/Work/LiteOS_Lab/iot_link/os/liteos/base/ipc/los_mux.c ****     }
  93:/home/fanxinhao/Work/LiteOS_Lab/iot_link/os/liteos/base/ipc/los_mux.c ****     return LOS_OK;
ARM GAS  /tmp/ccLafEr3.s 			page 13


 387              		.loc 2 93 12
 388 005a 0023     		movs	r3, #0
 389              	.L9:
  94:/home/fanxinhao/Work/LiteOS_Lab/iot_link/os/liteos/base/ipc/los_mux.c **** }
 390              		.loc 2 94 1
 391 005c 1846     		mov	r0, r3
 392 005e 0837     		adds	r7, r7, #8
 393              	.LCFI32:
 394              		.cfi_def_cfa_offset 8
 395 0060 BD46     		mov	sp, r7
 396              	.LCFI33:
 397              		.cfi_def_cfa_register 13
 398              		@ sp needed
 399 0062 80BD     		pop	{r7, pc}
 400              	.L13:
 401              		.align	2
 402              	.L12:
 403 0064 00000000 		.word	g_pstAllMux
 404 0068 00000000 		.word	s_astAllMux.10194
 405 006c 00000000 		.word	g_stUnusedMuxList
 406              		.cfi_endproc
 407              	.LFE133:
 409              		.section	.rodata
 410              		.align	2
 411              	.LC0:
 412 0000 6F735F75 		.ascii	"os_unspecific_file\000"
 412      6E737065 
 412      63696669 
 412      635F6669 
 412      6C6500
 413              		.section	.text.LOS_MuxCreate,"ax",%progbits
 414              		.align	1
 415              		.global	LOS_MuxCreate
 416              		.syntax unified
 417              		.thumb
 418              		.thumb_func
 419              		.fpu fpv4-sp-d16
 421              	LOS_MuxCreate:
 422              	.LFB134:
  95:/home/fanxinhao/Work/LiteOS_Lab/iot_link/os/liteos/base/ipc/los_mux.c **** 
  96:/home/fanxinhao/Work/LiteOS_Lab/iot_link/os/liteos/base/ipc/los_mux.c **** /*****************************************************************************
  97:/home/fanxinhao/Work/LiteOS_Lab/iot_link/os/liteos/base/ipc/los_mux.c ****  Function     : LOS_MuxCreate
  98:/home/fanxinhao/Work/LiteOS_Lab/iot_link/os/liteos/base/ipc/los_mux.c ****  Description  : Create a mutex,
  99:/home/fanxinhao/Work/LiteOS_Lab/iot_link/os/liteos/base/ipc/los_mux.c ****  Input        : None
 100:/home/fanxinhao/Work/LiteOS_Lab/iot_link/os/liteos/base/ipc/los_mux.c ****  Output       : puwMuxHandle ------ Mutex operation handle
 101:/home/fanxinhao/Work/LiteOS_Lab/iot_link/os/liteos/base/ipc/los_mux.c ****  Return       : LOS_OK on success ,or error code on failure
 102:/home/fanxinhao/Work/LiteOS_Lab/iot_link/os/liteos/base/ipc/los_mux.c ****  *****************************************************************************/
 103:/home/fanxinhao/Work/LiteOS_Lab/iot_link/os/liteos/base/ipc/los_mux.c **** LITE_OS_SEC_TEXT_INIT  UINT32  LOS_MuxCreate (UINT32 *puwMuxHandle)
 104:/home/fanxinhao/Work/LiteOS_Lab/iot_link/os/liteos/base/ipc/los_mux.c **** {
 423              		.loc 2 104 1
 424              		.cfi_startproc
 425              		@ args = 0, pretend = 0, frame = 32
 426              		@ frame_needed = 1, uses_anonymous_args = 0
 427 0000 80B5     		push	{r7, lr}
 428              	.LCFI34:
 429              		.cfi_def_cfa_offset 8
 430              		.cfi_offset 7, -8
ARM GAS  /tmp/ccLafEr3.s 			page 14


 431              		.cfi_offset 14, -4
 432 0002 8AB0     		sub	sp, sp, #40
 433              	.LCFI35:
 434              		.cfi_def_cfa_offset 48
 435 0004 02AF     		add	r7, sp, #8
 436              	.LCFI36:
 437              		.cfi_def_cfa 7, 40
 438 0006 7860     		str	r0, [r7, #4]
 105:/home/fanxinhao/Work/LiteOS_Lab/iot_link/os/liteos/base/ipc/los_mux.c ****     UINT32      uwIntSave;
 106:/home/fanxinhao/Work/LiteOS_Lab/iot_link/os/liteos/base/ipc/los_mux.c ****     MUX_CB_S    *pstMuxCreated;
 107:/home/fanxinhao/Work/LiteOS_Lab/iot_link/os/liteos/base/ipc/los_mux.c ****     LOS_DL_LIST *pstUnusedMux;
 108:/home/fanxinhao/Work/LiteOS_Lab/iot_link/os/liteos/base/ipc/los_mux.c ****     UINT32      uwErrNo;
 109:/home/fanxinhao/Work/LiteOS_Lab/iot_link/os/liteos/base/ipc/los_mux.c ****     UINT32      uwErrLine;
 110:/home/fanxinhao/Work/LiteOS_Lab/iot_link/os/liteos/base/ipc/los_mux.c **** 
 111:/home/fanxinhao/Work/LiteOS_Lab/iot_link/os/liteos/base/ipc/los_mux.c ****     if (g_pstAllMux == NULL)
 439              		.loc 2 111 21
 440 0008 254B     		ldr	r3, .L20
 441 000a 1B68     		ldr	r3, [r3]
 442              		.loc 2 111 8
 443 000c 002B     		cmp	r3, #0
 444 000e 01D1     		bne	.L15
 112:/home/fanxinhao/Work/LiteOS_Lab/iot_link/os/liteos/base/ipc/los_mux.c ****         {
 113:/home/fanxinhao/Work/LiteOS_Lab/iot_link/os/liteos/base/ipc/los_mux.c ****         osMuxInit ();
 445              		.loc 2 113 9
 446 0010 FFF7FEFF 		bl	osMuxInit
 447              	.L15:
 114:/home/fanxinhao/Work/LiteOS_Lab/iot_link/os/liteos/base/ipc/los_mux.c ****         }
 115:/home/fanxinhao/Work/LiteOS_Lab/iot_link/os/liteos/base/ipc/los_mux.c **** 
 116:/home/fanxinhao/Work/LiteOS_Lab/iot_link/os/liteos/base/ipc/los_mux.c ****     if (NULL == puwMuxHandle)
 448              		.loc 2 116 8
 449 0014 7B68     		ldr	r3, [r7, #4]
 450 0016 002B     		cmp	r3, #0
 451 0018 01D1     		bne	.L16
 117:/home/fanxinhao/Work/LiteOS_Lab/iot_link/os/liteos/base/ipc/los_mux.c ****     {
 118:/home/fanxinhao/Work/LiteOS_Lab/iot_link/os/liteos/base/ipc/los_mux.c ****         return LOS_ERRNO_MUX_PTR_NULL;
 452              		.loc 2 118 16
 453 001a 224B     		ldr	r3, .L20+4
 454 001c 3CE0     		b	.L17
 455              	.L16:
 119:/home/fanxinhao/Work/LiteOS_Lab/iot_link/os/liteos/base/ipc/los_mux.c ****     }
 120:/home/fanxinhao/Work/LiteOS_Lab/iot_link/os/liteos/base/ipc/los_mux.c **** 
 121:/home/fanxinhao/Work/LiteOS_Lab/iot_link/os/liteos/base/ipc/los_mux.c ****     uwIntSave = LOS_IntLock();
 456              		.loc 2 121 17
 457 001e FFF7FEFF 		bl	LOS_IntLock
 458 0022 F861     		str	r0, [r7, #28]
 122:/home/fanxinhao/Work/LiteOS_Lab/iot_link/os/liteos/base/ipc/los_mux.c ****     if (LOS_ListEmpty(&g_stUnusedMuxList))
 459              		.loc 2 122 9
 460 0024 2048     		ldr	r0, .L20+8
 461 0026 FFF7FEFF 		bl	LOS_ListEmpty
 462 002a 0346     		mov	r3, r0
 463              		.loc 2 122 8
 464 002c 002B     		cmp	r3, #0
 465 002e 11D0     		beq	.L18
 123:/home/fanxinhao/Work/LiteOS_Lab/iot_link/os/liteos/base/ipc/los_mux.c ****     {
 124:/home/fanxinhao/Work/LiteOS_Lab/iot_link/os/liteos/base/ipc/los_mux.c ****         LOS_IntRestore(uwIntSave);
 466              		.loc 2 124 9
 467 0030 F869     		ldr	r0, [r7, #28]
ARM GAS  /tmp/ccLafEr3.s 			page 15


 468 0032 FFF7FEFF 		bl	LOS_IntRestore
 125:/home/fanxinhao/Work/LiteOS_Lab/iot_link/os/liteos/base/ipc/los_mux.c ****         OS_GOTO_ERR_HANDLER(LOS_ERRNO_MUX_ALL_BUSY);
 469              		.loc 2 125 9
 470 0036 1D4B     		ldr	r3, .L20+12
 471 0038 3B61     		str	r3, [r7, #16]
 472 003a 1D4B     		ldr	r3, .L20+16
 473 003c FB60     		str	r3, [r7, #12]
 474 003e 00BF     		nop
 475              	.L19:
 126:/home/fanxinhao/Work/LiteOS_Lab/iot_link/os/liteos/base/ipc/los_mux.c ****     }
 127:/home/fanxinhao/Work/LiteOS_Lab/iot_link/os/liteos/base/ipc/los_mux.c **** 
 128:/home/fanxinhao/Work/LiteOS_Lab/iot_link/os/liteos/base/ipc/los_mux.c ****     pstUnusedMux                = LOS_DL_LIST_FIRST(&(g_stUnusedMuxList));
 129:/home/fanxinhao/Work/LiteOS_Lab/iot_link/os/liteos/base/ipc/los_mux.c ****     LOS_ListDelete(pstUnusedMux);
 130:/home/fanxinhao/Work/LiteOS_Lab/iot_link/os/liteos/base/ipc/los_mux.c ****     pstMuxCreated               = (GET_MUX_LIST(pstUnusedMux)); /*lint !e413*/
 131:/home/fanxinhao/Work/LiteOS_Lab/iot_link/os/liteos/base/ipc/los_mux.c ****     pstMuxCreated->usMuxCount   = 0;
 132:/home/fanxinhao/Work/LiteOS_Lab/iot_link/os/liteos/base/ipc/los_mux.c ****     pstMuxCreated->ucMuxStat    = OS_MUX_USED;
 133:/home/fanxinhao/Work/LiteOS_Lab/iot_link/os/liteos/base/ipc/los_mux.c ****     pstMuxCreated->usPriority   = 0;
 134:/home/fanxinhao/Work/LiteOS_Lab/iot_link/os/liteos/base/ipc/los_mux.c ****     pstMuxCreated->pstOwner     = (LOS_TASK_CB *)NULL;
 135:/home/fanxinhao/Work/LiteOS_Lab/iot_link/os/liteos/base/ipc/los_mux.c ****     LOS_ListInit(&pstMuxCreated->stMuxList);
 136:/home/fanxinhao/Work/LiteOS_Lab/iot_link/os/liteos/base/ipc/los_mux.c ****     *puwMuxHandle               = (UINT32)pstMuxCreated->ucMuxID;
 137:/home/fanxinhao/Work/LiteOS_Lab/iot_link/os/liteos/base/ipc/los_mux.c ****     LOS_IntRestore(uwIntSave);
 138:/home/fanxinhao/Work/LiteOS_Lab/iot_link/os/liteos/base/ipc/los_mux.c ****     return LOS_OK;
 139:/home/fanxinhao/Work/LiteOS_Lab/iot_link/os/liteos/base/ipc/los_mux.c **** ErrHandler:
 140:/home/fanxinhao/Work/LiteOS_Lab/iot_link/os/liteos/base/ipc/los_mux.c ****     OS_RETURN_ERROR_P2(uwErrLine, uwErrNo);
 476              		.loc 2 140 5
 477 0040 0023     		movs	r3, #0
 478 0042 0093     		str	r3, [sp]
 479 0044 0023     		movs	r3, #0
 480 0046 3A69     		ldr	r2, [r7, #16]
 481 0048 F968     		ldr	r1, [r7, #12]
 482 004a 1A48     		ldr	r0, .L20+20
 483 004c FFF7FEFF 		bl	LOS_ErrHandle
 484 0050 3B69     		ldr	r3, [r7, #16]
 485 0052 21E0     		b	.L17
 486              	.L18:
 128:/home/fanxinhao/Work/LiteOS_Lab/iot_link/os/liteos/base/ipc/los_mux.c ****     LOS_ListDelete(pstUnusedMux);
 487              		.loc 2 128 33
 488 0054 144B     		ldr	r3, .L20+8
 489 0056 5B68     		ldr	r3, [r3, #4]
 490 0058 BB61     		str	r3, [r7, #24]
 129:/home/fanxinhao/Work/LiteOS_Lab/iot_link/os/liteos/base/ipc/los_mux.c ****     pstMuxCreated               = (GET_MUX_LIST(pstUnusedMux)); /*lint !e413*/
 491              		.loc 2 129 5
 492 005a B869     		ldr	r0, [r7, #24]
 493 005c FFF7FEFF 		bl	LOS_ListDelete
 130:/home/fanxinhao/Work/LiteOS_Lab/iot_link/os/liteos/base/ipc/los_mux.c ****     pstMuxCreated->usMuxCount   = 0;
 494              		.loc 2 130 33
 495 0060 BB69     		ldr	r3, [r7, #24]
 496 0062 083B     		subs	r3, r3, #8
 497 0064 7B61     		str	r3, [r7, #20]
 131:/home/fanxinhao/Work/LiteOS_Lab/iot_link/os/liteos/base/ipc/los_mux.c ****     pstMuxCreated->ucMuxStat    = OS_MUX_USED;
 498              		.loc 2 131 33
 499 0066 7B69     		ldr	r3, [r7, #20]
 500 0068 0022     		movs	r2, #0
 501 006a 5A80     		strh	r2, [r3, #2]	@ movhi
 132:/home/fanxinhao/Work/LiteOS_Lab/iot_link/os/liteos/base/ipc/los_mux.c ****     pstMuxCreated->usPriority   = 0;
 502              		.loc 2 132 33
 503 006c 7B69     		ldr	r3, [r7, #20]
ARM GAS  /tmp/ccLafEr3.s 			page 16


 504 006e 0122     		movs	r2, #1
 505 0070 1A70     		strb	r2, [r3]
 133:/home/fanxinhao/Work/LiteOS_Lab/iot_link/os/liteos/base/ipc/los_mux.c ****     pstMuxCreated->pstOwner     = (LOS_TASK_CB *)NULL;
 506              		.loc 2 133 33
 507 0072 7B69     		ldr	r3, [r7, #20]
 508 0074 0022     		movs	r2, #0
 509 0076 9A82     		strh	r2, [r3, #20]	@ movhi
 134:/home/fanxinhao/Work/LiteOS_Lab/iot_link/os/liteos/base/ipc/los_mux.c ****     LOS_ListInit(&pstMuxCreated->stMuxList);
 510              		.loc 2 134 33
 511 0078 7B69     		ldr	r3, [r7, #20]
 512 007a 0022     		movs	r2, #0
 513 007c 1A61     		str	r2, [r3, #16]
 135:/home/fanxinhao/Work/LiteOS_Lab/iot_link/os/liteos/base/ipc/los_mux.c ****     *puwMuxHandle               = (UINT32)pstMuxCreated->ucMuxID;
 514              		.loc 2 135 5
 515 007e 7B69     		ldr	r3, [r7, #20]
 516 0080 0833     		adds	r3, r3, #8
 517 0082 1846     		mov	r0, r3
 518 0084 FFF7FEFF 		bl	LOS_ListInit
 136:/home/fanxinhao/Work/LiteOS_Lab/iot_link/os/liteos/base/ipc/los_mux.c ****     LOS_IntRestore(uwIntSave);
 519              		.loc 2 136 56
 520 0088 7B69     		ldr	r3, [r7, #20]
 521 008a 5A68     		ldr	r2, [r3, #4]
 136:/home/fanxinhao/Work/LiteOS_Lab/iot_link/os/liteos/base/ipc/los_mux.c ****     LOS_IntRestore(uwIntSave);
 522              		.loc 2 136 33
 523 008c 7B68     		ldr	r3, [r7, #4]
 524 008e 1A60     		str	r2, [r3]
 137:/home/fanxinhao/Work/LiteOS_Lab/iot_link/os/liteos/base/ipc/los_mux.c ****     return LOS_OK;
 525              		.loc 2 137 5
 526 0090 F869     		ldr	r0, [r7, #28]
 527 0092 FFF7FEFF 		bl	LOS_IntRestore
 138:/home/fanxinhao/Work/LiteOS_Lab/iot_link/os/liteos/base/ipc/los_mux.c **** ErrHandler:
 528              		.loc 2 138 12
 529 0096 0023     		movs	r3, #0
 530              	.L17:
 141:/home/fanxinhao/Work/LiteOS_Lab/iot_link/os/liteos/base/ipc/los_mux.c **** }
 531              		.loc 2 141 1
 532 0098 1846     		mov	r0, r3
 533 009a 2037     		adds	r7, r7, #32
 534              	.LCFI37:
 535              		.cfi_def_cfa_offset 8
 536 009c BD46     		mov	sp, r7
 537              	.LCFI38:
 538              		.cfi_def_cfa_register 13
 539              		@ sp needed
 540 009e 80BD     		pop	{r7, pc}
 541              	.L21:
 542              		.align	2
 543              	.L20:
 544 00a0 00000000 		.word	g_pstAllMux
 545 00a4 021D0002 		.word	33561858
 546 00a8 00000000 		.word	g_stUnusedMuxList
 547 00ac 031D0002 		.word	33561859
 548 00b0 F8C3B2A1 		.word	-1582119944
 549 00b4 00000000 		.word	.LC0
 550              		.cfi_endproc
 551              	.LFE134:
 553              		.section	.text.LOS_MuxDelete,"ax",%progbits
ARM GAS  /tmp/ccLafEr3.s 			page 17


 554              		.align	1
 555              		.global	LOS_MuxDelete
 556              		.syntax unified
 557              		.thumb
 558              		.thumb_func
 559              		.fpu fpv4-sp-d16
 561              	LOS_MuxDelete:
 562              	.LFB135:
 142:/home/fanxinhao/Work/LiteOS_Lab/iot_link/os/liteos/base/ipc/los_mux.c **** 
 143:/home/fanxinhao/Work/LiteOS_Lab/iot_link/os/liteos/base/ipc/los_mux.c **** /*****************************************************************************
 144:/home/fanxinhao/Work/LiteOS_Lab/iot_link/os/liteos/base/ipc/los_mux.c ****  Function     : LOS_MuxDelete
 145:/home/fanxinhao/Work/LiteOS_Lab/iot_link/os/liteos/base/ipc/los_mux.c ****  Description  : Delete a mutex,
 146:/home/fanxinhao/Work/LiteOS_Lab/iot_link/os/liteos/base/ipc/los_mux.c ****  Input        : uwMuxHandle------Mutex operation handle
 147:/home/fanxinhao/Work/LiteOS_Lab/iot_link/os/liteos/base/ipc/los_mux.c ****  Output       : None
 148:/home/fanxinhao/Work/LiteOS_Lab/iot_link/os/liteos/base/ipc/los_mux.c ****  Return       : LOS_OK on success ,or error code on failure
 149:/home/fanxinhao/Work/LiteOS_Lab/iot_link/os/liteos/base/ipc/los_mux.c ****  *****************************************************************************/
 150:/home/fanxinhao/Work/LiteOS_Lab/iot_link/os/liteos/base/ipc/los_mux.c **** LITE_OS_SEC_TEXT_INIT UINT32 LOS_MuxDelete(UINT32 uwMuxHandle)
 151:/home/fanxinhao/Work/LiteOS_Lab/iot_link/os/liteos/base/ipc/los_mux.c **** {
 563              		.loc 2 151 1
 564              		.cfi_startproc
 565              		@ args = 0, pretend = 0, frame = 24
 566              		@ frame_needed = 1, uses_anonymous_args = 0
 567 0000 80B5     		push	{r7, lr}
 568              	.LCFI39:
 569              		.cfi_def_cfa_offset 8
 570              		.cfi_offset 7, -8
 571              		.cfi_offset 14, -4
 572 0002 88B0     		sub	sp, sp, #32
 573              	.LCFI40:
 574              		.cfi_def_cfa_offset 40
 575 0004 02AF     		add	r7, sp, #8
 576              	.LCFI41:
 577              		.cfi_def_cfa 7, 32
 578 0006 7860     		str	r0, [r7, #4]
 152:/home/fanxinhao/Work/LiteOS_Lab/iot_link/os/liteos/base/ipc/los_mux.c ****     UINT32    uwIntSave;
 153:/home/fanxinhao/Work/LiteOS_Lab/iot_link/os/liteos/base/ipc/los_mux.c ****     MUX_CB_S *pstMuxDeleted;
 154:/home/fanxinhao/Work/LiteOS_Lab/iot_link/os/liteos/base/ipc/los_mux.c ****     UINT32   uwErrNo;
 155:/home/fanxinhao/Work/LiteOS_Lab/iot_link/os/liteos/base/ipc/los_mux.c ****     UINT32   uwErrLine;
 156:/home/fanxinhao/Work/LiteOS_Lab/iot_link/os/liteos/base/ipc/los_mux.c **** 
 157:/home/fanxinhao/Work/LiteOS_Lab/iot_link/os/liteos/base/ipc/los_mux.c ****     if (uwMuxHandle >= (UINT32)LOSCFG_BASE_IPC_MUX_LIMIT)
 579              		.loc 2 157 8
 580 0008 7B68     		ldr	r3, [r7, #4]
 581 000a 132B     		cmp	r3, #19
 582 000c 04D9     		bls	.L23
 158:/home/fanxinhao/Work/LiteOS_Lab/iot_link/os/liteos/base/ipc/los_mux.c ****     {
 159:/home/fanxinhao/Work/LiteOS_Lab/iot_link/os/liteos/base/ipc/los_mux.c ****         OS_GOTO_ERR_HANDLER(LOS_ERRNO_MUX_INVALID);
 583              		.loc 2 159 9
 584 000e 264B     		ldr	r3, .L29
 585 0010 7B61     		str	r3, [r7, #20]
 586 0012 264B     		ldr	r3, .L29+4
 587 0014 3B61     		str	r3, [r7, #16]
 588 0016 39E0     		b	.L24
 589              	.L23:
 160:/home/fanxinhao/Work/LiteOS_Lab/iot_link/os/liteos/base/ipc/los_mux.c ****     }
 161:/home/fanxinhao/Work/LiteOS_Lab/iot_link/os/liteos/base/ipc/los_mux.c **** 
 162:/home/fanxinhao/Work/LiteOS_Lab/iot_link/os/liteos/base/ipc/los_mux.c ****     pstMuxDeleted = GET_MUX(uwMuxHandle);
 590              		.loc 2 162 21
ARM GAS  /tmp/ccLafEr3.s 			page 18


 591 0018 254B     		ldr	r3, .L29+8
 592 001a 1968     		ldr	r1, [r3]
 593 001c 7A68     		ldr	r2, [r7, #4]
 594 001e 1346     		mov	r3, r2
 595 0020 5B00     		lsls	r3, r3, #1
 596 0022 1344     		add	r3, r3, r2
 597 0024 DB00     		lsls	r3, r3, #3
 598              		.loc 2 162 19
 599 0026 0B44     		add	r3, r3, r1
 600 0028 FB60     		str	r3, [r7, #12]
 163:/home/fanxinhao/Work/LiteOS_Lab/iot_link/os/liteos/base/ipc/los_mux.c ****     uwIntSave = LOS_IntLock();
 601              		.loc 2 163 17
 602 002a FFF7FEFF 		bl	LOS_IntLock
 603 002e B860     		str	r0, [r7, #8]
 164:/home/fanxinhao/Work/LiteOS_Lab/iot_link/os/liteos/base/ipc/los_mux.c ****     if (OS_MUX_UNUSED == pstMuxDeleted->ucMuxStat)
 604              		.loc 2 164 39
 605 0030 FB68     		ldr	r3, [r7, #12]
 606 0032 1B78     		ldrb	r3, [r3]	@ zero_extendqisi2
 607              		.loc 2 164 8
 608 0034 002B     		cmp	r3, #0
 609 0036 07D1     		bne	.L25
 165:/home/fanxinhao/Work/LiteOS_Lab/iot_link/os/liteos/base/ipc/los_mux.c ****     {
 166:/home/fanxinhao/Work/LiteOS_Lab/iot_link/os/liteos/base/ipc/los_mux.c ****         LOS_IntRestore(uwIntSave);
 610              		.loc 2 166 9
 611 0038 B868     		ldr	r0, [r7, #8]
 612 003a FFF7FEFF 		bl	LOS_IntRestore
 167:/home/fanxinhao/Work/LiteOS_Lab/iot_link/os/liteos/base/ipc/los_mux.c ****         OS_GOTO_ERR_HANDLER(LOS_ERRNO_MUX_INVALID);
 613              		.loc 2 167 9
 614 003e 1A4B     		ldr	r3, .L29
 615 0040 7B61     		str	r3, [r7, #20]
 616 0042 1A4B     		ldr	r3, .L29+4
 617 0044 3B61     		str	r3, [r7, #16]
 618 0046 21E0     		b	.L24
 619              	.L25:
 168:/home/fanxinhao/Work/LiteOS_Lab/iot_link/os/liteos/base/ipc/los_mux.c ****     }
 169:/home/fanxinhao/Work/LiteOS_Lab/iot_link/os/liteos/base/ipc/los_mux.c **** 
 170:/home/fanxinhao/Work/LiteOS_Lab/iot_link/os/liteos/base/ipc/los_mux.c ****     if (!LOS_ListEmpty(&pstMuxDeleted->stMuxList) || pstMuxDeleted->usMuxCount)
 620              		.loc 2 170 10
 621 0048 FB68     		ldr	r3, [r7, #12]
 622 004a 0833     		adds	r3, r3, #8
 623 004c 1846     		mov	r0, r3
 624 004e FFF7FEFF 		bl	LOS_ListEmpty
 625 0052 0346     		mov	r3, r0
 626              		.loc 2 170 8
 627 0054 002B     		cmp	r3, #0
 628 0056 03D0     		beq	.L26
 629              		.loc 2 170 67 discriminator 1
 630 0058 FB68     		ldr	r3, [r7, #12]
 631 005a 5B88     		ldrh	r3, [r3, #2]
 632              		.loc 2 170 51 discriminator 1
 633 005c 002B     		cmp	r3, #0
 634 005e 07D0     		beq	.L27
 635              	.L26:
 171:/home/fanxinhao/Work/LiteOS_Lab/iot_link/os/liteos/base/ipc/los_mux.c ****     {
 172:/home/fanxinhao/Work/LiteOS_Lab/iot_link/os/liteos/base/ipc/los_mux.c ****         LOS_IntRestore(uwIntSave);
 636              		.loc 2 172 9
 637 0060 B868     		ldr	r0, [r7, #8]
ARM GAS  /tmp/ccLafEr3.s 			page 19


 638 0062 FFF7FEFF 		bl	LOS_IntRestore
 173:/home/fanxinhao/Work/LiteOS_Lab/iot_link/os/liteos/base/ipc/los_mux.c ****         OS_GOTO_ERR_HANDLER(LOS_ERRNO_MUX_PENDED);
 639              		.loc 2 173 9
 640 0066 134B     		ldr	r3, .L29+12
 641 0068 7B61     		str	r3, [r7, #20]
 642 006a 104B     		ldr	r3, .L29+4
 643 006c 3B61     		str	r3, [r7, #16]
 644 006e 0DE0     		b	.L24
 645              	.L27:
 174:/home/fanxinhao/Work/LiteOS_Lab/iot_link/os/liteos/base/ipc/los_mux.c ****     }
 175:/home/fanxinhao/Work/LiteOS_Lab/iot_link/os/liteos/base/ipc/los_mux.c **** 
 176:/home/fanxinhao/Work/LiteOS_Lab/iot_link/os/liteos/base/ipc/los_mux.c ****     LOS_ListAdd(&g_stUnusedMuxList, &pstMuxDeleted->stMuxList);
 646              		.loc 2 176 5
 647 0070 FB68     		ldr	r3, [r7, #12]
 648 0072 0833     		adds	r3, r3, #8
 649 0074 1946     		mov	r1, r3
 650 0076 1048     		ldr	r0, .L29+16
 651 0078 FFF7FEFF 		bl	LOS_ListAdd
 177:/home/fanxinhao/Work/LiteOS_Lab/iot_link/os/liteos/base/ipc/los_mux.c ****     pstMuxDeleted->ucMuxStat = OS_MUX_UNUSED;
 652              		.loc 2 177 30
 653 007c FB68     		ldr	r3, [r7, #12]
 654 007e 0022     		movs	r2, #0
 655 0080 1A70     		strb	r2, [r3]
 178:/home/fanxinhao/Work/LiteOS_Lab/iot_link/os/liteos/base/ipc/los_mux.c **** 
 179:/home/fanxinhao/Work/LiteOS_Lab/iot_link/os/liteos/base/ipc/los_mux.c ****     LOS_IntRestore(uwIntSave);
 656              		.loc 2 179 5
 657 0082 B868     		ldr	r0, [r7, #8]
 658 0084 FFF7FEFF 		bl	LOS_IntRestore
 180:/home/fanxinhao/Work/LiteOS_Lab/iot_link/os/liteos/base/ipc/los_mux.c **** 
 181:/home/fanxinhao/Work/LiteOS_Lab/iot_link/os/liteos/base/ipc/los_mux.c ****     return LOS_OK;
 659              		.loc 2 181 12
 660 0088 0023     		movs	r3, #0
 661 008a 08E0     		b	.L28
 662              	.L24:
 182:/home/fanxinhao/Work/LiteOS_Lab/iot_link/os/liteos/base/ipc/los_mux.c **** ErrHandler:
 183:/home/fanxinhao/Work/LiteOS_Lab/iot_link/os/liteos/base/ipc/los_mux.c ****     OS_RETURN_ERROR_P2(uwErrLine, uwErrNo);
 663              		.loc 2 183 5
 664 008c 0023     		movs	r3, #0
 665 008e 0093     		str	r3, [sp]
 666 0090 0023     		movs	r3, #0
 667 0092 7A69     		ldr	r2, [r7, #20]
 668 0094 3969     		ldr	r1, [r7, #16]
 669 0096 0948     		ldr	r0, .L29+20
 670 0098 FFF7FEFF 		bl	LOS_ErrHandle
 671 009c 7B69     		ldr	r3, [r7, #20]
 672              	.L28:
 184:/home/fanxinhao/Work/LiteOS_Lab/iot_link/os/liteos/base/ipc/los_mux.c **** }
 673              		.loc 2 184 1
 674 009e 1846     		mov	r0, r3
 675 00a0 1837     		adds	r7, r7, #24
 676              	.LCFI42:
 677              		.cfi_def_cfa_offset 8
 678 00a2 BD46     		mov	sp, r7
 679              	.LCFI43:
 680              		.cfi_def_cfa_register 13
 681              		@ sp needed
 682 00a4 80BD     		pop	{r7, pc}
ARM GAS  /tmp/ccLafEr3.s 			page 20


 683              	.L30:
 684 00a6 00BF     		.align	2
 685              	.L29:
 686 00a8 011D0002 		.word	33561857
 687 00ac F8C3B2A1 		.word	-1582119944
 688 00b0 00000000 		.word	g_pstAllMux
 689 00b4 091D0002 		.word	33561865
 690 00b8 00000000 		.word	g_stUnusedMuxList
 691 00bc 00000000 		.word	.LC0
 692              		.cfi_endproc
 693              	.LFE135:
 695              		.section	.rodata
 696 0013 00       		.align	2
 697              	.LC1:
 698 0014 5B455252 		.ascii	"[ERR] \000"
 698      5D2000
 699 001b 00       		.align	2
 700              	.LC2:
 701 001c 2121214C 		.ascii	"!!!LOS_ERRNO_MUX_PEND_IN_LOCK!!!\000"
 701      4F535F45 
 701      52524E4F 
 701      5F4D5558 
 701      5F50454E 
 702              		.section	.text.LOS_MuxPend,"ax",%progbits
 703              		.align	1
 704              		.global	LOS_MuxPend
 705              		.syntax unified
 706              		.thumb
 707              		.thumb_func
 708              		.fpu fpv4-sp-d16
 710              	LOS_MuxPend:
 711              	.LFB136:
 185:/home/fanxinhao/Work/LiteOS_Lab/iot_link/os/liteos/base/ipc/los_mux.c **** 
 186:/home/fanxinhao/Work/LiteOS_Lab/iot_link/os/liteos/base/ipc/los_mux.c **** /*****************************************************************************
 187:/home/fanxinhao/Work/LiteOS_Lab/iot_link/os/liteos/base/ipc/los_mux.c ****  Function     : LOS_MuxPend
 188:/home/fanxinhao/Work/LiteOS_Lab/iot_link/os/liteos/base/ipc/los_mux.c ****  Description  : Specify the mutex P operation,
 189:/home/fanxinhao/Work/LiteOS_Lab/iot_link/os/liteos/base/ipc/los_mux.c ****  Input        : uwMuxHandle ------ Mutex operation handleone,
 190:/home/fanxinhao/Work/LiteOS_Lab/iot_link/os/liteos/base/ipc/los_mux.c ****                 uwTimeOut  ------- waiting time,
 191:/home/fanxinhao/Work/LiteOS_Lab/iot_link/os/liteos/base/ipc/los_mux.c ****  Output       : None
 192:/home/fanxinhao/Work/LiteOS_Lab/iot_link/os/liteos/base/ipc/los_mux.c ****  Return       : LOS_OK on success ,or error code on failure
 193:/home/fanxinhao/Work/LiteOS_Lab/iot_link/os/liteos/base/ipc/los_mux.c ****  *****************************************************************************/
 194:/home/fanxinhao/Work/LiteOS_Lab/iot_link/os/liteos/base/ipc/los_mux.c **** LITE_OS_SEC_TEXT UINT32 LOS_MuxPend(UINT32 uwMuxHandle, UINT32 uwTimeout)
 195:/home/fanxinhao/Work/LiteOS_Lab/iot_link/os/liteos/base/ipc/los_mux.c **** {
 712              		.loc 2 195 1
 713              		.cfi_startproc
 714              		@ args = 0, pretend = 0, frame = 24
 715              		@ frame_needed = 1, uses_anonymous_args = 0
 716 0000 80B5     		push	{r7, lr}
 717              	.LCFI44:
 718              		.cfi_def_cfa_offset 8
 719              		.cfi_offset 7, -8
 720              		.cfi_offset 14, -4
 721 0002 88B0     		sub	sp, sp, #32
 722              	.LCFI45:
 723              		.cfi_def_cfa_offset 40
 724 0004 02AF     		add	r7, sp, #8
 725              	.LCFI46:
ARM GAS  /tmp/ccLafEr3.s 			page 21


 726              		.cfi_def_cfa 7, 32
 727 0006 7860     		str	r0, [r7, #4]
 728 0008 3960     		str	r1, [r7]
 196:/home/fanxinhao/Work/LiteOS_Lab/iot_link/os/liteos/base/ipc/los_mux.c ****     UINT32     uwIntSave;
 197:/home/fanxinhao/Work/LiteOS_Lab/iot_link/os/liteos/base/ipc/los_mux.c ****     MUX_CB_S  *pstMuxPended;
 198:/home/fanxinhao/Work/LiteOS_Lab/iot_link/os/liteos/base/ipc/los_mux.c ****     UINT32     uwRetErr;
 199:/home/fanxinhao/Work/LiteOS_Lab/iot_link/os/liteos/base/ipc/los_mux.c ****     LOS_TASK_CB  *pstRunTsk;
 200:/home/fanxinhao/Work/LiteOS_Lab/iot_link/os/liteos/base/ipc/los_mux.c **** 
 201:/home/fanxinhao/Work/LiteOS_Lab/iot_link/os/liteos/base/ipc/los_mux.c ****     if (uwMuxHandle >= (UINT32)LOSCFG_BASE_IPC_MUX_LIMIT)
 729              		.loc 2 201 8
 730 000a 7B68     		ldr	r3, [r7, #4]
 731 000c 132B     		cmp	r3, #19
 732 000e 09D9     		bls	.L32
 202:/home/fanxinhao/Work/LiteOS_Lab/iot_link/os/liteos/base/ipc/los_mux.c ****     {
 203:/home/fanxinhao/Work/LiteOS_Lab/iot_link/os/liteos/base/ipc/los_mux.c ****         OS_RETURN_ERROR(LOS_ERRNO_MUX_INVALID);
 733              		.loc 2 203 9
 734 0010 0023     		movs	r3, #0
 735 0012 0093     		str	r3, [sp]
 736 0014 0023     		movs	r3, #0
 737 0016 594A     		ldr	r2, .L44
 738 0018 5949     		ldr	r1, .L44+4
 739 001a 5A48     		ldr	r0, .L44+8
 740 001c FFF7FEFF 		bl	LOS_ErrHandle
 741 0020 564B     		ldr	r3, .L44
 742 0022 A6E0     		b	.L33
 743              	.L32:
 204:/home/fanxinhao/Work/LiteOS_Lab/iot_link/os/liteos/base/ipc/los_mux.c ****     }
 205:/home/fanxinhao/Work/LiteOS_Lab/iot_link/os/liteos/base/ipc/los_mux.c **** 
 206:/home/fanxinhao/Work/LiteOS_Lab/iot_link/os/liteos/base/ipc/los_mux.c ****     pstMuxPended = GET_MUX(uwMuxHandle);
 744              		.loc 2 206 20
 745 0024 584B     		ldr	r3, .L44+12
 746 0026 1968     		ldr	r1, [r3]
 747 0028 7A68     		ldr	r2, [r7, #4]
 748 002a 1346     		mov	r3, r2
 749 002c 5B00     		lsls	r3, r3, #1
 750 002e 1344     		add	r3, r3, r2
 751 0030 DB00     		lsls	r3, r3, #3
 752              		.loc 2 206 18
 753 0032 0B44     		add	r3, r3, r1
 754 0034 3B61     		str	r3, [r7, #16]
 207:/home/fanxinhao/Work/LiteOS_Lab/iot_link/os/liteos/base/ipc/los_mux.c ****     uwIntSave = LOS_IntLock();
 755              		.loc 2 207 17
 756 0036 FFF7FEFF 		bl	LOS_IntLock
 757 003a F860     		str	r0, [r7, #12]
 208:/home/fanxinhao/Work/LiteOS_Lab/iot_link/os/liteos/base/ipc/los_mux.c ****     if (OS_MUX_UNUSED == pstMuxPended->ucMuxStat)
 758              		.loc 2 208 38
 759 003c 3B69     		ldr	r3, [r7, #16]
 760 003e 1B78     		ldrb	r3, [r3]	@ zero_extendqisi2
 761              		.loc 2 208 8
 762 0040 002B     		cmp	r3, #0
 763 0042 0CD1     		bne	.L34
 209:/home/fanxinhao/Work/LiteOS_Lab/iot_link/os/liteos/base/ipc/los_mux.c ****     {
 210:/home/fanxinhao/Work/LiteOS_Lab/iot_link/os/liteos/base/ipc/los_mux.c ****         LOS_IntRestore(uwIntSave);
 764              		.loc 2 210 9
 765 0044 F868     		ldr	r0, [r7, #12]
 766 0046 FFF7FEFF 		bl	LOS_IntRestore
 211:/home/fanxinhao/Work/LiteOS_Lab/iot_link/os/liteos/base/ipc/los_mux.c ****         OS_RETURN_ERROR(LOS_ERRNO_MUX_INVALID);
ARM GAS  /tmp/ccLafEr3.s 			page 22


 767              		.loc 2 211 9
 768 004a 0023     		movs	r3, #0
 769 004c 0093     		str	r3, [sp]
 770 004e 0023     		movs	r3, #0
 771 0050 4A4A     		ldr	r2, .L44
 772 0052 4B49     		ldr	r1, .L44+4
 773 0054 4B48     		ldr	r0, .L44+8
 774 0056 FFF7FEFF 		bl	LOS_ErrHandle
 775 005a 484B     		ldr	r3, .L44
 776 005c 89E0     		b	.L33
 777              	.L34:
 212:/home/fanxinhao/Work/LiteOS_Lab/iot_link/os/liteos/base/ipc/los_mux.c ****     }
 213:/home/fanxinhao/Work/LiteOS_Lab/iot_link/os/liteos/base/ipc/los_mux.c **** 
 214:/home/fanxinhao/Work/LiteOS_Lab/iot_link/os/liteos/base/ipc/los_mux.c ****     if (OS_INT_ACTIVE)
 778              		.loc 2 214 9
 779 005e 4B4B     		ldr	r3, .L44+16
 780 0060 1B68     		ldr	r3, [r3]
 781              		.loc 2 214 8
 782 0062 002B     		cmp	r3, #0
 783 0064 04D0     		beq	.L35
 215:/home/fanxinhao/Work/LiteOS_Lab/iot_link/os/liteos/base/ipc/los_mux.c ****     {
 216:/home/fanxinhao/Work/LiteOS_Lab/iot_link/os/liteos/base/ipc/los_mux.c ****         LOS_IntRestore(uwIntSave);
 784              		.loc 2 216 9
 785 0066 F868     		ldr	r0, [r7, #12]
 786 0068 FFF7FEFF 		bl	LOS_IntRestore
 217:/home/fanxinhao/Work/LiteOS_Lab/iot_link/os/liteos/base/ipc/los_mux.c ****         return LOS_ERRNO_MUX_PEND_INTERR;
 787              		.loc 2 217 16
 788 006c 484B     		ldr	r3, .L44+20
 789 006e 80E0     		b	.L33
 790              	.L35:
 218:/home/fanxinhao/Work/LiteOS_Lab/iot_link/os/liteos/base/ipc/los_mux.c ****     }
 219:/home/fanxinhao/Work/LiteOS_Lab/iot_link/os/liteos/base/ipc/los_mux.c **** 
 220:/home/fanxinhao/Work/LiteOS_Lab/iot_link/os/liteos/base/ipc/los_mux.c ****     pstRunTsk = (LOS_TASK_CB *)g_stLosTask.pstRunTask;
 791              		.loc 2 220 15
 792 0070 484B     		ldr	r3, .L44+24
 793 0072 1B68     		ldr	r3, [r3]
 794 0074 BB60     		str	r3, [r7, #8]
 221:/home/fanxinhao/Work/LiteOS_Lab/iot_link/os/liteos/base/ipc/los_mux.c ****     if (pstMuxPended->usMuxCount == 0)
 795              		.loc 2 221 21
 796 0076 3B69     		ldr	r3, [r7, #16]
 797 0078 5B88     		ldrh	r3, [r3, #2]
 798              		.loc 2 221 8
 799 007a 002B     		cmp	r3, #0
 800 007c 11D1     		bne	.L36
 222:/home/fanxinhao/Work/LiteOS_Lab/iot_link/os/liteos/base/ipc/los_mux.c ****     {
 223:/home/fanxinhao/Work/LiteOS_Lab/iot_link/os/liteos/base/ipc/los_mux.c ****         pstMuxPended->usMuxCount++;
 801              		.loc 2 223 21
 802 007e 3B69     		ldr	r3, [r7, #16]
 803 0080 5B88     		ldrh	r3, [r3, #2]
 804              		.loc 2 223 33
 805 0082 0133     		adds	r3, r3, #1
 806 0084 9AB2     		uxth	r2, r3
 807 0086 3B69     		ldr	r3, [r7, #16]
 808 0088 5A80     		strh	r2, [r3, #2]	@ movhi
 224:/home/fanxinhao/Work/LiteOS_Lab/iot_link/os/liteos/base/ipc/los_mux.c ****         pstMuxPended->pstOwner = pstRunTsk;
 809              		.loc 2 224 32
 810 008a 3B69     		ldr	r3, [r7, #16]
ARM GAS  /tmp/ccLafEr3.s 			page 23


 811 008c BA68     		ldr	r2, [r7, #8]
 812 008e 1A61     		str	r2, [r3, #16]
 225:/home/fanxinhao/Work/LiteOS_Lab/iot_link/os/liteos/base/ipc/los_mux.c ****         pstMuxPended->usPriority = pstRunTsk->usPriority;
 813              		.loc 2 225 45
 814 0090 BB68     		ldr	r3, [r7, #8]
 815 0092 DA88     		ldrh	r2, [r3, #6]
 816              		.loc 2 225 34
 817 0094 3B69     		ldr	r3, [r7, #16]
 818 0096 9A82     		strh	r2, [r3, #20]	@ movhi
 226:/home/fanxinhao/Work/LiteOS_Lab/iot_link/os/liteos/base/ipc/los_mux.c ****         LOS_IntRestore(uwIntSave);
 819              		.loc 2 226 9
 820 0098 F868     		ldr	r0, [r7, #12]
 821 009a FFF7FEFF 		bl	LOS_IntRestore
 227:/home/fanxinhao/Work/LiteOS_Lab/iot_link/os/liteos/base/ipc/los_mux.c ****         return LOS_OK;
 822              		.loc 2 227 16
 823 009e 0023     		movs	r3, #0
 824 00a0 67E0     		b	.L33
 825              	.L36:
 228:/home/fanxinhao/Work/LiteOS_Lab/iot_link/os/liteos/base/ipc/los_mux.c ****     }
 229:/home/fanxinhao/Work/LiteOS_Lab/iot_link/os/liteos/base/ipc/los_mux.c **** 
 230:/home/fanxinhao/Work/LiteOS_Lab/iot_link/os/liteos/base/ipc/los_mux.c ****     if (pstMuxPended->pstOwner == pstRunTsk)
 826              		.loc 2 230 21
 827 00a2 3B69     		ldr	r3, [r7, #16]
 828 00a4 1B69     		ldr	r3, [r3, #16]
 829              		.loc 2 230 8
 830 00a6 BA68     		ldr	r2, [r7, #8]
 831 00a8 9A42     		cmp	r2, r3
 832 00aa 0AD1     		bne	.L37
 231:/home/fanxinhao/Work/LiteOS_Lab/iot_link/os/liteos/base/ipc/los_mux.c ****     {
 232:/home/fanxinhao/Work/LiteOS_Lab/iot_link/os/liteos/base/ipc/los_mux.c ****         pstMuxPended->usMuxCount++;
 833              		.loc 2 232 21
 834 00ac 3B69     		ldr	r3, [r7, #16]
 835 00ae 5B88     		ldrh	r3, [r3, #2]
 836              		.loc 2 232 33
 837 00b0 0133     		adds	r3, r3, #1
 838 00b2 9AB2     		uxth	r2, r3
 839 00b4 3B69     		ldr	r3, [r7, #16]
 840 00b6 5A80     		strh	r2, [r3, #2]	@ movhi
 233:/home/fanxinhao/Work/LiteOS_Lab/iot_link/os/liteos/base/ipc/los_mux.c ****         LOS_IntRestore(uwIntSave);
 841              		.loc 2 233 9
 842 00b8 F868     		ldr	r0, [r7, #12]
 843 00ba FFF7FEFF 		bl	LOS_IntRestore
 234:/home/fanxinhao/Work/LiteOS_Lab/iot_link/os/liteos/base/ipc/los_mux.c ****         return LOS_OK;
 844              		.loc 2 234 16
 845 00be 0023     		movs	r3, #0
 846 00c0 57E0     		b	.L33
 847              	.L37:
 235:/home/fanxinhao/Work/LiteOS_Lab/iot_link/os/liteos/base/ipc/los_mux.c ****     }
 236:/home/fanxinhao/Work/LiteOS_Lab/iot_link/os/liteos/base/ipc/los_mux.c **** 
 237:/home/fanxinhao/Work/LiteOS_Lab/iot_link/os/liteos/base/ipc/los_mux.c ****     if (!uwTimeout)
 848              		.loc 2 237 8
 849 00c2 3B68     		ldr	r3, [r7]
 850 00c4 002B     		cmp	r3, #0
 851 00c6 04D1     		bne	.L38
 238:/home/fanxinhao/Work/LiteOS_Lab/iot_link/os/liteos/base/ipc/los_mux.c ****     {
 239:/home/fanxinhao/Work/LiteOS_Lab/iot_link/os/liteos/base/ipc/los_mux.c ****         LOS_IntRestore(uwIntSave);
 852              		.loc 2 239 9
ARM GAS  /tmp/ccLafEr3.s 			page 24


 853 00c8 F868     		ldr	r0, [r7, #12]
 854 00ca FFF7FEFF 		bl	LOS_IntRestore
 240:/home/fanxinhao/Work/LiteOS_Lab/iot_link/os/liteos/base/ipc/los_mux.c ****         return LOS_ERRNO_MUX_UNAVAILABLE;
 855              		.loc 2 240 16
 856 00ce 324B     		ldr	r3, .L44+28
 857 00d0 4FE0     		b	.L33
 858              	.L38:
 241:/home/fanxinhao/Work/LiteOS_Lab/iot_link/os/liteos/base/ipc/los_mux.c ****     }
 242:/home/fanxinhao/Work/LiteOS_Lab/iot_link/os/liteos/base/ipc/los_mux.c **** 
 243:/home/fanxinhao/Work/LiteOS_Lab/iot_link/os/liteos/base/ipc/los_mux.c ****     if (g_usLosTaskLock)
 859              		.loc 2 243 9
 860 00d2 324B     		ldr	r3, .L44+32
 861 00d4 1B88     		ldrh	r3, [r3]
 862              		.loc 2 243 8
 863 00d6 002B     		cmp	r3, #0
 864 00d8 0CD0     		beq	.L39
 244:/home/fanxinhao/Work/LiteOS_Lab/iot_link/os/liteos/base/ipc/los_mux.c ****     {
 245:/home/fanxinhao/Work/LiteOS_Lab/iot_link/os/liteos/base/ipc/los_mux.c ****         uwRetErr = LOS_ERRNO_MUX_PEND_IN_LOCK;
 865              		.loc 2 245 18
 866 00da 314B     		ldr	r3, .L44+36
 867 00dc 7B61     		str	r3, [r7, #20]
 246:/home/fanxinhao/Work/LiteOS_Lab/iot_link/os/liteos/base/ipc/los_mux.c ****         PRINT_ERR("!!!LOS_ERRNO_MUX_PEND_IN_LOCK!!!\n");
 868              		.loc 2 246 9
 869 00de 3148     		ldr	r0, .L44+40
 870 00e0 FFF7FEFF 		bl	printf
 871 00e4 3048     		ldr	r0, .L44+44
 872 00e6 FFF7FEFF 		bl	puts
 247:/home/fanxinhao/Work/LiteOS_Lab/iot_link/os/liteos/base/ipc/los_mux.c **** #if (LOSCFG_PLATFORM_EXC == YES)
 248:/home/fanxinhao/Work/LiteOS_Lab/iot_link/os/liteos/base/ipc/los_mux.c ****         osBackTrace();
 249:/home/fanxinhao/Work/LiteOS_Lab/iot_link/os/liteos/base/ipc/los_mux.c **** #endif
 250:/home/fanxinhao/Work/LiteOS_Lab/iot_link/os/liteos/base/ipc/los_mux.c ****         goto errre_uniMuxPend;
 873              		.loc 2 250 9
 874 00ea 00BF     		nop
 875              	.L40:
 251:/home/fanxinhao/Work/LiteOS_Lab/iot_link/os/liteos/base/ipc/los_mux.c ****     }
 252:/home/fanxinhao/Work/LiteOS_Lab/iot_link/os/liteos/base/ipc/los_mux.c **** 
 253:/home/fanxinhao/Work/LiteOS_Lab/iot_link/os/liteos/base/ipc/los_mux.c ****     pstRunTsk->pTaskMux = (VOID *)pstMuxPended;
 254:/home/fanxinhao/Work/LiteOS_Lab/iot_link/os/liteos/base/ipc/los_mux.c **** 
 255:/home/fanxinhao/Work/LiteOS_Lab/iot_link/os/liteos/base/ipc/los_mux.c ****     if (pstMuxPended->pstOwner->usPriority > pstRunTsk->usPriority)
 256:/home/fanxinhao/Work/LiteOS_Lab/iot_link/os/liteos/base/ipc/los_mux.c ****     {
 257:/home/fanxinhao/Work/LiteOS_Lab/iot_link/os/liteos/base/ipc/los_mux.c ****         osTaskPriModify(pstMuxPended->pstOwner, pstRunTsk->usPriority);
 258:/home/fanxinhao/Work/LiteOS_Lab/iot_link/os/liteos/base/ipc/los_mux.c ****     }
 259:/home/fanxinhao/Work/LiteOS_Lab/iot_link/os/liteos/base/ipc/los_mux.c **** 
 260:/home/fanxinhao/Work/LiteOS_Lab/iot_link/os/liteos/base/ipc/los_mux.c ****     osTaskWait(&pstMuxPended->stMuxList, OS_TASK_STATUS_PEND, uwTimeout);
 261:/home/fanxinhao/Work/LiteOS_Lab/iot_link/os/liteos/base/ipc/los_mux.c **** 
 262:/home/fanxinhao/Work/LiteOS_Lab/iot_link/os/liteos/base/ipc/los_mux.c ****     (VOID)LOS_IntRestore(uwIntSave);
 263:/home/fanxinhao/Work/LiteOS_Lab/iot_link/os/liteos/base/ipc/los_mux.c ****     LOS_Schedule();
 264:/home/fanxinhao/Work/LiteOS_Lab/iot_link/os/liteos/base/ipc/los_mux.c **** 
 265:/home/fanxinhao/Work/LiteOS_Lab/iot_link/os/liteos/base/ipc/los_mux.c ****     if (pstRunTsk->usTaskStatus & OS_TASK_STATUS_TIMEOUT)
 266:/home/fanxinhao/Work/LiteOS_Lab/iot_link/os/liteos/base/ipc/los_mux.c ****     {
 267:/home/fanxinhao/Work/LiteOS_Lab/iot_link/os/liteos/base/ipc/los_mux.c ****         uwIntSave = LOS_IntLock();
 268:/home/fanxinhao/Work/LiteOS_Lab/iot_link/os/liteos/base/ipc/los_mux.c ****         pstRunTsk->usTaskStatus &= (~OS_TASK_STATUS_TIMEOUT);
 269:/home/fanxinhao/Work/LiteOS_Lab/iot_link/os/liteos/base/ipc/los_mux.c ****         (VOID)LOS_IntRestore(uwIntSave);
 270:/home/fanxinhao/Work/LiteOS_Lab/iot_link/os/liteos/base/ipc/los_mux.c ****         uwRetErr = LOS_ERRNO_MUX_TIMEOUT;
 271:/home/fanxinhao/Work/LiteOS_Lab/iot_link/os/liteos/base/ipc/los_mux.c ****         goto error_uniMuxPend;
 272:/home/fanxinhao/Work/LiteOS_Lab/iot_link/os/liteos/base/ipc/los_mux.c ****     }
 273:/home/fanxinhao/Work/LiteOS_Lab/iot_link/os/liteos/base/ipc/los_mux.c **** 
ARM GAS  /tmp/ccLafEr3.s 			page 25


 274:/home/fanxinhao/Work/LiteOS_Lab/iot_link/os/liteos/base/ipc/los_mux.c ****     return LOS_OK;
 275:/home/fanxinhao/Work/LiteOS_Lab/iot_link/os/liteos/base/ipc/los_mux.c **** 
 276:/home/fanxinhao/Work/LiteOS_Lab/iot_link/os/liteos/base/ipc/los_mux.c **** errre_uniMuxPend:
 277:/home/fanxinhao/Work/LiteOS_Lab/iot_link/os/liteos/base/ipc/los_mux.c ****     (VOID)LOS_IntRestore(uwIntSave);
 876              		.loc 2 277 5
 877 00ec F868     		ldr	r0, [r7, #12]
 878 00ee FFF7FEFF 		bl	LOS_IntRestore
 879 00f2 35E0     		b	.L43
 880              	.L39:
 253:/home/fanxinhao/Work/LiteOS_Lab/iot_link/os/liteos/base/ipc/los_mux.c **** 
 881              		.loc 2 253 25
 882 00f4 BB68     		ldr	r3, [r7, #8]
 883 00f6 3A69     		ldr	r2, [r7, #16]
 884 00f8 DA61     		str	r2, [r3, #28]
 255:/home/fanxinhao/Work/LiteOS_Lab/iot_link/os/liteos/base/ipc/los_mux.c ****     {
 885              		.loc 2 255 21
 886 00fa 3B69     		ldr	r3, [r7, #16]
 887 00fc 1B69     		ldr	r3, [r3, #16]
 255:/home/fanxinhao/Work/LiteOS_Lab/iot_link/os/liteos/base/ipc/los_mux.c ****     {
 888              		.loc 2 255 31
 889 00fe DA88     		ldrh	r2, [r3, #6]
 255:/home/fanxinhao/Work/LiteOS_Lab/iot_link/os/liteos/base/ipc/los_mux.c ****     {
 890              		.loc 2 255 55
 891 0100 BB68     		ldr	r3, [r7, #8]
 892 0102 DB88     		ldrh	r3, [r3, #6]
 255:/home/fanxinhao/Work/LiteOS_Lab/iot_link/os/liteos/base/ipc/los_mux.c ****     {
 893              		.loc 2 255 8
 894 0104 9A42     		cmp	r2, r3
 895 0106 07D9     		bls	.L41
 257:/home/fanxinhao/Work/LiteOS_Lab/iot_link/os/liteos/base/ipc/los_mux.c ****     }
 896              		.loc 2 257 9
 897 0108 3B69     		ldr	r3, [r7, #16]
 898 010a 1A69     		ldr	r2, [r3, #16]
 899 010c BB68     		ldr	r3, [r7, #8]
 900 010e DB88     		ldrh	r3, [r3, #6]
 901 0110 1946     		mov	r1, r3
 902 0112 1046     		mov	r0, r2
 903 0114 FFF7FEFF 		bl	osTaskPriModify
 904              	.L41:
 260:/home/fanxinhao/Work/LiteOS_Lab/iot_link/os/liteos/base/ipc/los_mux.c **** 
 905              		.loc 2 260 5
 906 0118 3B69     		ldr	r3, [r7, #16]
 907 011a 0833     		adds	r3, r3, #8
 908 011c 3A68     		ldr	r2, [r7]
 909 011e 0821     		movs	r1, #8
 910 0120 1846     		mov	r0, r3
 911 0122 FFF7FEFF 		bl	osTaskWait
 262:/home/fanxinhao/Work/LiteOS_Lab/iot_link/os/liteos/base/ipc/los_mux.c ****     LOS_Schedule();
 912              		.loc 2 262 5
 913 0126 F868     		ldr	r0, [r7, #12]
 914 0128 FFF7FEFF 		bl	LOS_IntRestore
 263:/home/fanxinhao/Work/LiteOS_Lab/iot_link/os/liteos/base/ipc/los_mux.c **** 
 915              		.loc 2 263 5
 916 012c FFF7FEFF 		bl	LOS_Schedule
 265:/home/fanxinhao/Work/LiteOS_Lab/iot_link/os/liteos/base/ipc/los_mux.c ****     {
 917              		.loc 2 265 18
 918 0130 BB68     		ldr	r3, [r7, #8]
ARM GAS  /tmp/ccLafEr3.s 			page 26


 919 0132 9B88     		ldrh	r3, [r3, #4]
 265:/home/fanxinhao/Work/LiteOS_Lab/iot_link/os/liteos/base/ipc/los_mux.c ****     {
 920              		.loc 2 265 33
 921 0134 03F04003 		and	r3, r3, #64
 265:/home/fanxinhao/Work/LiteOS_Lab/iot_link/os/liteos/base/ipc/los_mux.c ****     {
 922              		.loc 2 265 8
 923 0138 002B     		cmp	r3, #0
 924 013a 0FD0     		beq	.L42
 267:/home/fanxinhao/Work/LiteOS_Lab/iot_link/os/liteos/base/ipc/los_mux.c ****         pstRunTsk->usTaskStatus &= (~OS_TASK_STATUS_TIMEOUT);
 925              		.loc 2 267 21
 926 013c FFF7FEFF 		bl	LOS_IntLock
 927 0140 F860     		str	r0, [r7, #12]
 268:/home/fanxinhao/Work/LiteOS_Lab/iot_link/os/liteos/base/ipc/los_mux.c ****         (VOID)LOS_IntRestore(uwIntSave);
 928              		.loc 2 268 33
 929 0142 BB68     		ldr	r3, [r7, #8]
 930 0144 9B88     		ldrh	r3, [r3, #4]
 931 0146 23F04003 		bic	r3, r3, #64
 932 014a 9AB2     		uxth	r2, r3
 933 014c BB68     		ldr	r3, [r7, #8]
 934 014e 9A80     		strh	r2, [r3, #4]	@ movhi
 269:/home/fanxinhao/Work/LiteOS_Lab/iot_link/os/liteos/base/ipc/los_mux.c ****         uwRetErr = LOS_ERRNO_MUX_TIMEOUT;
 935              		.loc 2 269 9
 936 0150 F868     		ldr	r0, [r7, #12]
 937 0152 FFF7FEFF 		bl	LOS_IntRestore
 270:/home/fanxinhao/Work/LiteOS_Lab/iot_link/os/liteos/base/ipc/los_mux.c ****         goto error_uniMuxPend;
 938              		.loc 2 270 18
 939 0156 154B     		ldr	r3, .L44+48
 940 0158 7B61     		str	r3, [r7, #20]
 271:/home/fanxinhao/Work/LiteOS_Lab/iot_link/os/liteos/base/ipc/los_mux.c ****     }
 941              		.loc 2 271 9
 942 015a 01E0     		b	.L43
 943              	.L42:
 274:/home/fanxinhao/Work/LiteOS_Lab/iot_link/os/liteos/base/ipc/los_mux.c **** 
 944              		.loc 2 274 12
 945 015c 0023     		movs	r3, #0
 946 015e 08E0     		b	.L33
 947              	.L43:
 278:/home/fanxinhao/Work/LiteOS_Lab/iot_link/os/liteos/base/ipc/los_mux.c **** error_uniMuxPend:
 279:/home/fanxinhao/Work/LiteOS_Lab/iot_link/os/liteos/base/ipc/los_mux.c ****     OS_RETURN_ERROR(uwRetErr);
 948              		.loc 2 279 5
 949 0160 0023     		movs	r3, #0
 950 0162 0093     		str	r3, [sp]
 951 0164 0023     		movs	r3, #0
 952 0166 7A69     		ldr	r2, [r7, #20]
 953 0168 0549     		ldr	r1, .L44+4
 954 016a 0648     		ldr	r0, .L44+8
 955 016c FFF7FEFF 		bl	LOS_ErrHandle
 956 0170 7B69     		ldr	r3, [r7, #20]
 957              	.L33:
 280:/home/fanxinhao/Work/LiteOS_Lab/iot_link/os/liteos/base/ipc/los_mux.c **** }
 958              		.loc 2 280 1
 959 0172 1846     		mov	r0, r3
 960 0174 1837     		adds	r7, r7, #24
 961              	.LCFI47:
 962              		.cfi_def_cfa_offset 8
 963 0176 BD46     		mov	sp, r7
 964              	.LCFI48:
ARM GAS  /tmp/ccLafEr3.s 			page 27


 965              		.cfi_def_cfa_register 13
 966              		@ sp needed
 967 0178 80BD     		pop	{r7, pc}
 968              	.L45:
 969 017a 00BF     		.align	2
 970              	.L44:
 971 017c 011D0002 		.word	33561857
 972 0180 F8C3B2A1 		.word	-1582119944
 973 0184 00000000 		.word	.LC0
 974 0188 00000000 		.word	g_pstAllMux
 975 018c 00000000 		.word	g_vuwIntCount
 976 0190 051D0002 		.word	33561861
 977 0194 00000000 		.word	g_stLosTask
 978 0198 041D0002 		.word	33561860
 979 019c 00000000 		.word	g_usLosTaskLock
 980 01a0 061D0002 		.word	33561862
 981 01a4 14000000 		.word	.LC1
 982 01a8 1C000000 		.word	.LC2
 983 01ac 071D0002 		.word	33561863
 984              		.cfi_endproc
 985              	.LFE136:
 987              		.section	.text.LOS_MuxPost,"ax",%progbits
 988              		.align	1
 989              		.global	LOS_MuxPost
 990              		.syntax unified
 991              		.thumb
 992              		.thumb_func
 993              		.fpu fpv4-sp-d16
 995              	LOS_MuxPost:
 996              	.LFB137:
 281:/home/fanxinhao/Work/LiteOS_Lab/iot_link/os/liteos/base/ipc/los_mux.c **** 
 282:/home/fanxinhao/Work/LiteOS_Lab/iot_link/os/liteos/base/ipc/los_mux.c **** /*****************************************************************************
 283:/home/fanxinhao/Work/LiteOS_Lab/iot_link/os/liteos/base/ipc/los_mux.c ****  Function     : LOS_MuxPost
 284:/home/fanxinhao/Work/LiteOS_Lab/iot_link/os/liteos/base/ipc/los_mux.c ****  Description  : Specify the mutex V operation,
 285:/home/fanxinhao/Work/LiteOS_Lab/iot_link/os/liteos/base/ipc/los_mux.c ****  Input        : uwMuxHandle ------ Mutex operation handle,
 286:/home/fanxinhao/Work/LiteOS_Lab/iot_link/os/liteos/base/ipc/los_mux.c ****  Output       : None
 287:/home/fanxinhao/Work/LiteOS_Lab/iot_link/os/liteos/base/ipc/los_mux.c ****  Return       : LOS_OK on success ,or error code on failure
 288:/home/fanxinhao/Work/LiteOS_Lab/iot_link/os/liteos/base/ipc/los_mux.c ****  *****************************************************************************/
 289:/home/fanxinhao/Work/LiteOS_Lab/iot_link/os/liteos/base/ipc/los_mux.c **** LITE_OS_SEC_TEXT UINT32 LOS_MuxPost(UINT32 uwMuxHandle)
 290:/home/fanxinhao/Work/LiteOS_Lab/iot_link/os/liteos/base/ipc/los_mux.c **** {
 997              		.loc 2 290 1
 998              		.cfi_startproc
 999              		@ args = 0, pretend = 0, frame = 24
 1000              		@ frame_needed = 1, uses_anonymous_args = 0
 1001 0000 80B5     		push	{r7, lr}
 1002              	.LCFI49:
 1003              		.cfi_def_cfa_offset 8
 1004              		.cfi_offset 7, -8
 1005              		.cfi_offset 14, -4
 1006 0002 88B0     		sub	sp, sp, #32
 1007              	.LCFI50:
 1008              		.cfi_def_cfa_offset 40
 1009 0004 02AF     		add	r7, sp, #8
 1010              	.LCFI51:
 1011              		.cfi_def_cfa 7, 32
 1012 0006 7860     		str	r0, [r7, #4]
 291:/home/fanxinhao/Work/LiteOS_Lab/iot_link/os/liteos/base/ipc/los_mux.c ****     UINT32      uwIntSave;
ARM GAS  /tmp/ccLafEr3.s 			page 28


 292:/home/fanxinhao/Work/LiteOS_Lab/iot_link/os/liteos/base/ipc/los_mux.c ****     MUX_CB_S    *pstMuxPosted = GET_MUX(uwMuxHandle);
 1013              		.loc 2 292 33
 1014 0008 404B     		ldr	r3, .L56
 1015 000a 1968     		ldr	r1, [r3]
 1016 000c 7A68     		ldr	r2, [r7, #4]
 1017 000e 1346     		mov	r3, r2
 1018 0010 5B00     		lsls	r3, r3, #1
 1019 0012 1344     		add	r3, r3, r2
 1020 0014 DB00     		lsls	r3, r3, #3
 1021              		.loc 2 292 18
 1022 0016 0B44     		add	r3, r3, r1
 1023 0018 7B61     		str	r3, [r7, #20]
 293:/home/fanxinhao/Work/LiteOS_Lab/iot_link/os/liteos/base/ipc/los_mux.c ****     LOS_TASK_CB *pstResumedTask;
 294:/home/fanxinhao/Work/LiteOS_Lab/iot_link/os/liteos/base/ipc/los_mux.c ****     LOS_TASK_CB *pstRunTsk;
 295:/home/fanxinhao/Work/LiteOS_Lab/iot_link/os/liteos/base/ipc/los_mux.c **** 
 296:/home/fanxinhao/Work/LiteOS_Lab/iot_link/os/liteos/base/ipc/los_mux.c ****     uwIntSave = LOS_IntLock();
 1024              		.loc 2 296 17
 1025 001a FFF7FEFF 		bl	LOS_IntLock
 1026 001e 3861     		str	r0, [r7, #16]
 297:/home/fanxinhao/Work/LiteOS_Lab/iot_link/os/liteos/base/ipc/los_mux.c **** 
 298:/home/fanxinhao/Work/LiteOS_Lab/iot_link/os/liteos/base/ipc/los_mux.c ****     if ((uwMuxHandle >= (UINT32)LOSCFG_BASE_IPC_MUX_LIMIT) ||
 1027              		.loc 2 298 8
 1028 0020 7B68     		ldr	r3, [r7, #4]
 1029 0022 132B     		cmp	r3, #19
 1030 0024 03D8     		bhi	.L47
 299:/home/fanxinhao/Work/LiteOS_Lab/iot_link/os/liteos/base/ipc/los_mux.c ****         (OS_MUX_UNUSED == pstMuxPosted->ucMuxStat))
 1031              		.loc 2 299 39 discriminator 1
 1032 0026 7B69     		ldr	r3, [r7, #20]
 1033 0028 1B78     		ldrb	r3, [r3]	@ zero_extendqisi2
 298:/home/fanxinhao/Work/LiteOS_Lab/iot_link/os/liteos/base/ipc/los_mux.c ****         (OS_MUX_UNUSED == pstMuxPosted->ucMuxStat))
 1034              		.loc 2 298 60 discriminator 1
 1035 002a 002B     		cmp	r3, #0
 1036 002c 0CD1     		bne	.L48
 1037              	.L47:
 300:/home/fanxinhao/Work/LiteOS_Lab/iot_link/os/liteos/base/ipc/los_mux.c ****     {
 301:/home/fanxinhao/Work/LiteOS_Lab/iot_link/os/liteos/base/ipc/los_mux.c ****         LOS_IntRestore(uwIntSave);
 1038              		.loc 2 301 9
 1039 002e 3869     		ldr	r0, [r7, #16]
 1040 0030 FFF7FEFF 		bl	LOS_IntRestore
 302:/home/fanxinhao/Work/LiteOS_Lab/iot_link/os/liteos/base/ipc/los_mux.c ****         OS_RETURN_ERROR(LOS_ERRNO_MUX_INVALID);
 1041              		.loc 2 302 9
 1042 0034 0023     		movs	r3, #0
 1043 0036 0093     		str	r3, [sp]
 1044 0038 0023     		movs	r3, #0
 1045 003a 354A     		ldr	r2, .L56+4
 1046 003c 3549     		ldr	r1, .L56+8
 1047 003e 3648     		ldr	r0, .L56+12
 1048 0040 FFF7FEFF 		bl	LOS_ErrHandle
 1049 0044 324B     		ldr	r3, .L56+4
 1050 0046 5DE0     		b	.L49
 1051              	.L48:
 303:/home/fanxinhao/Work/LiteOS_Lab/iot_link/os/liteos/base/ipc/los_mux.c ****     }
 304:/home/fanxinhao/Work/LiteOS_Lab/iot_link/os/liteos/base/ipc/los_mux.c **** 
 305:/home/fanxinhao/Work/LiteOS_Lab/iot_link/os/liteos/base/ipc/los_mux.c ****     pstRunTsk = (LOS_TASK_CB *)g_stLosTask.pstRunTask;
 1052              		.loc 2 305 15
 1053 0048 344B     		ldr	r3, .L56+16
 1054 004a 1B68     		ldr	r3, [r3]
ARM GAS  /tmp/ccLafEr3.s 			page 29


 1055 004c FB60     		str	r3, [r7, #12]
 306:/home/fanxinhao/Work/LiteOS_Lab/iot_link/os/liteos/base/ipc/los_mux.c ****     if ((pstMuxPosted->usMuxCount == 0) || (pstMuxPosted->pstOwner != pstRunTsk))
 1056              		.loc 2 306 22
 1057 004e 7B69     		ldr	r3, [r7, #20]
 1058 0050 5B88     		ldrh	r3, [r3, #2]
 1059              		.loc 2 306 8
 1060 0052 002B     		cmp	r3, #0
 1061 0054 04D0     		beq	.L50
 1062              		.loc 2 306 57 discriminator 1
 1063 0056 7B69     		ldr	r3, [r7, #20]
 1064 0058 1B69     		ldr	r3, [r3, #16]
 1065              		.loc 2 306 41 discriminator 1
 1066 005a FA68     		ldr	r2, [r7, #12]
 1067 005c 9A42     		cmp	r2, r3
 1068 005e 0CD0     		beq	.L51
 1069              	.L50:
 307:/home/fanxinhao/Work/LiteOS_Lab/iot_link/os/liteos/base/ipc/los_mux.c ****     {
 308:/home/fanxinhao/Work/LiteOS_Lab/iot_link/os/liteos/base/ipc/los_mux.c ****         LOS_IntRestore(uwIntSave);
 1070              		.loc 2 308 9
 1071 0060 3869     		ldr	r0, [r7, #16]
 1072 0062 FFF7FEFF 		bl	LOS_IntRestore
 309:/home/fanxinhao/Work/LiteOS_Lab/iot_link/os/liteos/base/ipc/los_mux.c ****         OS_RETURN_ERROR(LOS_ERRNO_MUX_INVALID);
 1073              		.loc 2 309 9
 1074 0066 0023     		movs	r3, #0
 1075 0068 0093     		str	r3, [sp]
 1076 006a 0023     		movs	r3, #0
 1077 006c 284A     		ldr	r2, .L56+4
 1078 006e 2949     		ldr	r1, .L56+8
 1079 0070 2948     		ldr	r0, .L56+12
 1080 0072 FFF7FEFF 		bl	LOS_ErrHandle
 1081 0076 264B     		ldr	r3, .L56+4
 1082 0078 44E0     		b	.L49
 1083              	.L51:
 310:/home/fanxinhao/Work/LiteOS_Lab/iot_link/os/liteos/base/ipc/los_mux.c ****     }
 311:/home/fanxinhao/Work/LiteOS_Lab/iot_link/os/liteos/base/ipc/los_mux.c **** 
 312:/home/fanxinhao/Work/LiteOS_Lab/iot_link/os/liteos/base/ipc/los_mux.c ****     if (--(pstMuxPosted->usMuxCount) != 0)
 1084              		.loc 2 312 24
 1085 007a 7B69     		ldr	r3, [r7, #20]
 1086 007c 5B88     		ldrh	r3, [r3, #2]
 1087              		.loc 2 312 9
 1088 007e 013B     		subs	r3, r3, #1
 1089 0080 9AB2     		uxth	r2, r3
 1090              		.loc 2 312 8
 1091 0082 7B69     		ldr	r3, [r7, #20]
 1092 0084 5A80     		strh	r2, [r3, #2]	@ movhi
 1093              		.loc 2 312 24
 1094 0086 7B69     		ldr	r3, [r7, #20]
 1095 0088 5B88     		ldrh	r3, [r3, #2]
 1096              		.loc 2 312 8
 1097 008a 002B     		cmp	r3, #0
 1098 008c 04D0     		beq	.L52
 313:/home/fanxinhao/Work/LiteOS_Lab/iot_link/os/liteos/base/ipc/los_mux.c ****     {
 314:/home/fanxinhao/Work/LiteOS_Lab/iot_link/os/liteos/base/ipc/los_mux.c ****         LOS_IntRestore(uwIntSave);
 1099              		.loc 2 314 9
 1100 008e 3869     		ldr	r0, [r7, #16]
 1101 0090 FFF7FEFF 		bl	LOS_IntRestore
 315:/home/fanxinhao/Work/LiteOS_Lab/iot_link/os/liteos/base/ipc/los_mux.c ****         return LOS_OK;
ARM GAS  /tmp/ccLafEr3.s 			page 30


 1102              		.loc 2 315 16
 1103 0094 0023     		movs	r3, #0
 1104 0096 35E0     		b	.L49
 1105              	.L52:
 316:/home/fanxinhao/Work/LiteOS_Lab/iot_link/os/liteos/base/ipc/los_mux.c ****     }
 317:/home/fanxinhao/Work/LiteOS_Lab/iot_link/os/liteos/base/ipc/los_mux.c **** 
 318:/home/fanxinhao/Work/LiteOS_Lab/iot_link/os/liteos/base/ipc/los_mux.c ****     if ((pstMuxPosted->pstOwner->usPriority) != pstMuxPosted->usPriority)
 1106              		.loc 2 318 22
 1107 0098 7B69     		ldr	r3, [r7, #20]
 1108 009a 1B69     		ldr	r3, [r3, #16]
 1109              		.loc 2 318 32
 1110 009c DA88     		ldrh	r2, [r3, #6]
 1111              		.loc 2 318 61
 1112 009e 7B69     		ldr	r3, [r7, #20]
 1113 00a0 9B8A     		ldrh	r3, [r3, #20]
 1114              		.loc 2 318 8
 1115 00a2 9A42     		cmp	r2, r3
 1116 00a4 07D0     		beq	.L53
 319:/home/fanxinhao/Work/LiteOS_Lab/iot_link/os/liteos/base/ipc/los_mux.c ****     {
 320:/home/fanxinhao/Work/LiteOS_Lab/iot_link/os/liteos/base/ipc/los_mux.c ****         osTaskPriModify(pstMuxPosted->pstOwner, pstMuxPosted->usPriority);
 1117              		.loc 2 320 9
 1118 00a6 7B69     		ldr	r3, [r7, #20]
 1119 00a8 1A69     		ldr	r2, [r3, #16]
 1120 00aa 7B69     		ldr	r3, [r7, #20]
 1121 00ac 9B8A     		ldrh	r3, [r3, #20]
 1122 00ae 1946     		mov	r1, r3
 1123 00b0 1046     		mov	r0, r2
 1124 00b2 FFF7FEFF 		bl	osTaskPriModify
 1125              	.L53:
 321:/home/fanxinhao/Work/LiteOS_Lab/iot_link/os/liteos/base/ipc/los_mux.c ****     }
 322:/home/fanxinhao/Work/LiteOS_Lab/iot_link/os/liteos/base/ipc/los_mux.c **** 
 323:/home/fanxinhao/Work/LiteOS_Lab/iot_link/os/liteos/base/ipc/los_mux.c ****     if (!LOS_ListEmpty(&pstMuxPosted->stMuxList))
 1126              		.loc 2 323 10
 1127 00b6 7B69     		ldr	r3, [r7, #20]
 1128 00b8 0833     		adds	r3, r3, #8
 1129 00ba 1846     		mov	r0, r3
 1130 00bc FFF7FEFF 		bl	LOS_ListEmpty
 1131 00c0 0346     		mov	r3, r0
 1132              		.loc 2 323 8
 1133 00c2 002B     		cmp	r3, #0
 1134 00c4 1AD1     		bne	.L54
 324:/home/fanxinhao/Work/LiteOS_Lab/iot_link/os/liteos/base/ipc/los_mux.c ****     {
 325:/home/fanxinhao/Work/LiteOS_Lab/iot_link/os/liteos/base/ipc/los_mux.c ****         pstResumedTask = OS_TCB_FROM_PENDLIST(LOS_DL_LIST_FIRST(&(pstMuxPosted->stMuxList))); /*lin
 1135              		.loc 2 325 26
 1136 00c6 7B69     		ldr	r3, [r7, #20]
 1137 00c8 DB68     		ldr	r3, [r3, #12]
 1138              		.loc 2 325 24
 1139 00ca 283B     		subs	r3, r3, #40
 1140 00cc BB60     		str	r3, [r7, #8]
 326:/home/fanxinhao/Work/LiteOS_Lab/iot_link/os/liteos/base/ipc/los_mux.c **** 
 327:/home/fanxinhao/Work/LiteOS_Lab/iot_link/os/liteos/base/ipc/los_mux.c ****         pstMuxPosted->usMuxCount    = 1;
 1141              		.loc 2 327 37
 1142 00ce 7B69     		ldr	r3, [r7, #20]
 1143 00d0 0122     		movs	r2, #1
 1144 00d2 5A80     		strh	r2, [r3, #2]	@ movhi
 328:/home/fanxinhao/Work/LiteOS_Lab/iot_link/os/liteos/base/ipc/los_mux.c ****         pstMuxPosted->pstOwner      = pstResumedTask;
 1145              		.loc 2 328 37
ARM GAS  /tmp/ccLafEr3.s 			page 31


 1146 00d4 7B69     		ldr	r3, [r7, #20]
 1147 00d6 BA68     		ldr	r2, [r7, #8]
 1148 00d8 1A61     		str	r2, [r3, #16]
 329:/home/fanxinhao/Work/LiteOS_Lab/iot_link/os/liteos/base/ipc/los_mux.c ****         pstMuxPosted->usPriority    = pstResumedTask->usPriority;
 1149              		.loc 2 329 53
 1150 00da BB68     		ldr	r3, [r7, #8]
 1151 00dc DA88     		ldrh	r2, [r3, #6]
 1152              		.loc 2 329 37
 1153 00de 7B69     		ldr	r3, [r7, #20]
 1154 00e0 9A82     		strh	r2, [r3, #20]	@ movhi
 330:/home/fanxinhao/Work/LiteOS_Lab/iot_link/os/liteos/base/ipc/los_mux.c ****         pstResumedTask->pTaskMux    = NULL;
 1155              		.loc 2 330 37
 1156 00e2 BB68     		ldr	r3, [r7, #8]
 1157 00e4 0022     		movs	r2, #0
 1158 00e6 DA61     		str	r2, [r3, #28]
 331:/home/fanxinhao/Work/LiteOS_Lab/iot_link/os/liteos/base/ipc/los_mux.c **** 
 332:/home/fanxinhao/Work/LiteOS_Lab/iot_link/os/liteos/base/ipc/los_mux.c ****         osTaskWake(pstResumedTask, OS_TASK_STATUS_PEND);
 1159              		.loc 2 332 9
 1160 00e8 0821     		movs	r1, #8
 1161 00ea B868     		ldr	r0, [r7, #8]
 1162 00ec FFF7FEFF 		bl	osTaskWake
 333:/home/fanxinhao/Work/LiteOS_Lab/iot_link/os/liteos/base/ipc/los_mux.c **** 
 334:/home/fanxinhao/Work/LiteOS_Lab/iot_link/os/liteos/base/ipc/los_mux.c ****         (VOID)LOS_IntRestore(uwIntSave);
 1163              		.loc 2 334 9
 1164 00f0 3869     		ldr	r0, [r7, #16]
 1165 00f2 FFF7FEFF 		bl	LOS_IntRestore
 335:/home/fanxinhao/Work/LiteOS_Lab/iot_link/os/liteos/base/ipc/los_mux.c ****         LOS_Schedule();
 1166              		.loc 2 335 9
 1167 00f6 FFF7FEFF 		bl	LOS_Schedule
 1168 00fa 02E0     		b	.L55
 1169              	.L54:
 336:/home/fanxinhao/Work/LiteOS_Lab/iot_link/os/liteos/base/ipc/los_mux.c ****     }
 337:/home/fanxinhao/Work/LiteOS_Lab/iot_link/os/liteos/base/ipc/los_mux.c ****     else
 338:/home/fanxinhao/Work/LiteOS_Lab/iot_link/os/liteos/base/ipc/los_mux.c ****     {
 339:/home/fanxinhao/Work/LiteOS_Lab/iot_link/os/liteos/base/ipc/los_mux.c ****         (VOID)LOS_IntRestore(uwIntSave);
 1170              		.loc 2 339 9
 1171 00fc 3869     		ldr	r0, [r7, #16]
 1172 00fe FFF7FEFF 		bl	LOS_IntRestore
 1173              	.L55:
 340:/home/fanxinhao/Work/LiteOS_Lab/iot_link/os/liteos/base/ipc/los_mux.c ****     }
 341:/home/fanxinhao/Work/LiteOS_Lab/iot_link/os/liteos/base/ipc/los_mux.c **** 
 342:/home/fanxinhao/Work/LiteOS_Lab/iot_link/os/liteos/base/ipc/los_mux.c ****     return LOS_OK;
 1174              		.loc 2 342 12
 1175 0102 0023     		movs	r3, #0
 1176              	.L49:
 343:/home/fanxinhao/Work/LiteOS_Lab/iot_link/os/liteos/base/ipc/los_mux.c **** }
 1177              		.loc 2 343 1
 1178 0104 1846     		mov	r0, r3
 1179 0106 1837     		adds	r7, r7, #24
 1180              	.LCFI52:
 1181              		.cfi_def_cfa_offset 8
 1182 0108 BD46     		mov	sp, r7
 1183              	.LCFI53:
 1184              		.cfi_def_cfa_register 13
 1185              		@ sp needed
 1186 010a 80BD     		pop	{r7, pc}
 1187              	.L57:
ARM GAS  /tmp/ccLafEr3.s 			page 32


 1188              		.align	2
 1189              	.L56:
 1190 010c 00000000 		.word	g_pstAllMux
 1191 0110 011D0002 		.word	33561857
 1192 0114 F8C3B2A1 		.word	-1582119944
 1193 0118 00000000 		.word	.LC0
 1194 011c 00000000 		.word	g_stLosTask
 1195              		.cfi_endproc
 1196              	.LFE137:
 1198              		.section	.bss.s_astAllMux.10194,"aw",%nobits
 1199              		.align	2
 1202              	s_astAllMux.10194:
 1203 0000 00000000 		.space	480
 1203      00000000 
 1203      00000000 
 1203      00000000 
 1203      00000000 
 1204              		.text
 1205              	.Letext0:
 1206              		.file 3 "/home/fanxinhao/toolchain/gcc-arm-none-eabi-9-2019-q4-major/arm-none-eabi/include/machine
 1207              		.file 4 "/home/fanxinhao/toolchain/gcc-arm-none-eabi-9-2019-q4-major/arm-none-eabi/include/sys/loc
 1208              		.file 5 "/home/fanxinhao/toolchain/gcc-arm-none-eabi-9-2019-q4-major/arm-none-eabi/include/sys/_ty
 1209              		.file 6 "/home/fanxinhao/toolchain/gcc-arm-none-eabi-9-2019-q4-major/lib/gcc/arm-none-eabi/9.2.1/i
 1210              		.file 7 "/home/fanxinhao/toolchain/gcc-arm-none-eabi-9-2019-q4-major/arm-none-eabi/include/sys/ree
 1211              		.file 8 "/home/fanxinhao/Work/LiteOS_Lab/iot_link/os/liteos/include/los_typedef.h"
 1212              		.file 9 "/home/fanxinhao/toolchain/gcc-arm-none-eabi-9-2019-q4-major/arm-none-eabi/include/sys/_st
 1213              		.file 10 "/home/fanxinhao/Work/LiteOS_Lab/iot_link/os/liteos/arch/arm/common/cmsis/core_cm4.h"
 1214              		.file 11 "/home/fanxinhao/Work/LiteOS_Lab/targets/STM32L476RG_NB476/Inc/system_stm32l4xx.h"
 1215              		.file 12 "/home/fanxinhao/Work/LiteOS_Lab/iot_link/os/liteos/include/los_config.h"
 1216              		.file 13 "/home/fanxinhao/Work/LiteOS_Lab/iot_link/os/liteos/include/los_err.h"
 1217              		.file 14 "/home/fanxinhao/Work/LiteOS_Lab/iot_link/os/liteos/arch/arm/arm-m/include/los_hwi.h"
 1218              		.file 15 "/home/fanxinhao/Work/LiteOS_Lab/iot_link/os/liteos/include/los_tick.h"
 1219              		.file 16 "/home/fanxinhao/Work/LiteOS_Lab/iot_link/os/liteos/include/los_event.h"
 1220              		.file 17 "/home/fanxinhao/Work/LiteOS_Lab/iot_link/os/liteos/include/los_task.h"
 1221              		.file 18 "/home/fanxinhao/Work/LiteOS_Lab/iot_link/os/liteos/base/include/los_task.ph"
 1222              		.file 19 "/home/fanxinhao/Work/LiteOS_Lab/iot_link/os/liteos/base/include/los_mux.ph"
 1223              		.file 20 "/home/fanxinhao/Work/LiteOS_Lab/iot_link/os/liteos/include/los_memory.h"
ARM GAS  /tmp/ccLafEr3.s 			page 33

