ARM GAS  /tmp/ccK7oid1.s 			page 1


   1              		.cpu cortex-m4
   2              		.eabi_attribute 27, 1
   3              		.eabi_attribute 28, 1
   4              		.eabi_attribute 20, 1
   5              		.eabi_attribute 21, 1
   6              		.eabi_attribute 23, 3
   7              		.eabi_attribute 24, 1
   8              		.eabi_attribute 25, 1
   9              		.eabi_attribute 26, 1
  10              		.eabi_attribute 30, 6
  11              		.eabi_attribute 34, 1
  12              		.eabi_attribute 18, 4
  13              		.file	"los_queue.c"
  14              		.text
  15              	.Ltext0:
  16              		.cfi_sections	.debug_frame
  17              		.section	.text.LOS_ListInit,"ax",%progbits
  18              		.align	1
  19              		.arch armv7e-m
  20              		.syntax unified
  21              		.thumb
  22              		.thumb_func
  23              		.fpu fpv4-sp-d16
  25              	LOS_ListInit:
  26              	.LFB126:
  27              		.file 1 "/home/fanxinhao/Work/LiteOS_Lab/iot_link/os/liteos/include/los_list.h"
   1:/home/fanxinhao/Work/LiteOS_Lab/iot_link/os/liteos/include/los_list.h **** /*----------------------------------------------------------------------------
   2:/home/fanxinhao/Work/LiteOS_Lab/iot_link/os/liteos/include/los_list.h ****  * Copyright (c) <2013-2015>, <Huawei Technologies Co., Ltd>
   3:/home/fanxinhao/Work/LiteOS_Lab/iot_link/os/liteos/include/los_list.h ****  * All rights reserved.
   4:/home/fanxinhao/Work/LiteOS_Lab/iot_link/os/liteos/include/los_list.h ****  * Redistribution and use in source and binary forms, with or without modification,
   5:/home/fanxinhao/Work/LiteOS_Lab/iot_link/os/liteos/include/los_list.h ****  * are permitted provided that the following conditions are met:
   6:/home/fanxinhao/Work/LiteOS_Lab/iot_link/os/liteos/include/los_list.h ****  * 1. Redistributions of source code must retain the above copyright notice, this list of
   7:/home/fanxinhao/Work/LiteOS_Lab/iot_link/os/liteos/include/los_list.h ****  * conditions and the following disclaimer.
   8:/home/fanxinhao/Work/LiteOS_Lab/iot_link/os/liteos/include/los_list.h ****  * 2. Redistributions in binary form must reproduce the above copyright notice, this list
   9:/home/fanxinhao/Work/LiteOS_Lab/iot_link/os/liteos/include/los_list.h ****  * of conditions and the following disclaimer in the documentation and/or other materials
  10:/home/fanxinhao/Work/LiteOS_Lab/iot_link/os/liteos/include/los_list.h ****  * provided with the distribution.
  11:/home/fanxinhao/Work/LiteOS_Lab/iot_link/os/liteos/include/los_list.h ****  * 3. Neither the name of the copyright holder nor the names of its contributors may be used
  12:/home/fanxinhao/Work/LiteOS_Lab/iot_link/os/liteos/include/los_list.h ****  * to endorse or promote products derived from this software without specific prior written
  13:/home/fanxinhao/Work/LiteOS_Lab/iot_link/os/liteos/include/los_list.h ****  * permission.
  14:/home/fanxinhao/Work/LiteOS_Lab/iot_link/os/liteos/include/los_list.h ****  * THIS SOFTWARE IS PROVIDED BY THE COPYRIGHT HOLDERS AND CONTRIBUTORS
  15:/home/fanxinhao/Work/LiteOS_Lab/iot_link/os/liteos/include/los_list.h ****  * "AS IS" AND ANY EXPRESS OR IMPLIED WARRANTIES, INCLUDING, BUT NOT LIMITED TO,
  16:/home/fanxinhao/Work/LiteOS_Lab/iot_link/os/liteos/include/los_list.h ****  * THE IMPLIED WARRANTIES OF MERCHANTABILITY AND FITNESS FOR A PARTICULAR
  17:/home/fanxinhao/Work/LiteOS_Lab/iot_link/os/liteos/include/los_list.h ****  * PURPOSE ARE DISCLAIMED. IN NO EVENT SHALL THE COPYRIGHT HOLDER OR
  18:/home/fanxinhao/Work/LiteOS_Lab/iot_link/os/liteos/include/los_list.h ****  * CONTRIBUTORS BE LIABLE FOR ANY DIRECT, INDIRECT, INCIDENTAL, SPECIAL,
  19:/home/fanxinhao/Work/LiteOS_Lab/iot_link/os/liteos/include/los_list.h ****  * EXEMPLARY, OR CONSEQUENTIAL DAMAGES (INCLUDING, BUT NOT LIMITED TO,
  20:/home/fanxinhao/Work/LiteOS_Lab/iot_link/os/liteos/include/los_list.h ****  * PROCUREMENT OF SUBSTITUTE GOODS OR SERVICES; LOSS OF USE, DATA, OR PROFITS;
  21:/home/fanxinhao/Work/LiteOS_Lab/iot_link/os/liteos/include/los_list.h ****  * OR BUSINESS INTERRUPTION) HOWEVER CAUSED AND ON ANY THEORY OF LIABILITY,
  22:/home/fanxinhao/Work/LiteOS_Lab/iot_link/os/liteos/include/los_list.h ****  * WHETHER IN CONTRACT, STRICT LIABILITY, OR TORT (INCLUDING NEGLIGENCE OR
  23:/home/fanxinhao/Work/LiteOS_Lab/iot_link/os/liteos/include/los_list.h ****  * OTHERWISE) ARISING IN ANY WAY OUT OF THE USE OF THIS SOFTWARE, EVEN IF
  24:/home/fanxinhao/Work/LiteOS_Lab/iot_link/os/liteos/include/los_list.h ****  * ADVISED OF THE POSSIBILITY OF SUCH DAMAGE.
  25:/home/fanxinhao/Work/LiteOS_Lab/iot_link/os/liteos/include/los_list.h ****  *---------------------------------------------------------------------------*/
  26:/home/fanxinhao/Work/LiteOS_Lab/iot_link/os/liteos/include/los_list.h **** /*----------------------------------------------------------------------------
  27:/home/fanxinhao/Work/LiteOS_Lab/iot_link/os/liteos/include/los_list.h ****  * Notice of Export Control Law
  28:/home/fanxinhao/Work/LiteOS_Lab/iot_link/os/liteos/include/los_list.h ****  * ===============================================
  29:/home/fanxinhao/Work/LiteOS_Lab/iot_link/os/liteos/include/los_list.h ****  * Huawei LiteOS may be subject to applicable export control laws and regulations, which might
  30:/home/fanxinhao/Work/LiteOS_Lab/iot_link/os/liteos/include/los_list.h ****  * include those applicable to Huawei LiteOS of U.S. and the country in which you are located.
  31:/home/fanxinhao/Work/LiteOS_Lab/iot_link/os/liteos/include/los_list.h ****  * Import, export and usage of Huawei LiteOS in any manner by you shall be in compliance with such
ARM GAS  /tmp/ccK7oid1.s 			page 2


  32:/home/fanxinhao/Work/LiteOS_Lab/iot_link/os/liteos/include/los_list.h ****  * applicable export control laws and regulations.
  33:/home/fanxinhao/Work/LiteOS_Lab/iot_link/os/liteos/include/los_list.h ****  *---------------------------------------------------------------------------*/
  34:/home/fanxinhao/Work/LiteOS_Lab/iot_link/os/liteos/include/los_list.h **** 
  35:/home/fanxinhao/Work/LiteOS_Lab/iot_link/os/liteos/include/los_list.h ****  /** @defgroup los_list Doubly linked list
  36:/home/fanxinhao/Work/LiteOS_Lab/iot_link/os/liteos/include/los_list.h ****  * @ingroup kernel
  37:/home/fanxinhao/Work/LiteOS_Lab/iot_link/os/liteos/include/los_list.h ****  */
  38:/home/fanxinhao/Work/LiteOS_Lab/iot_link/os/liteos/include/los_list.h **** 
  39:/home/fanxinhao/Work/LiteOS_Lab/iot_link/os/liteos/include/los_list.h **** #ifndef _LOS_LIST_H
  40:/home/fanxinhao/Work/LiteOS_Lab/iot_link/os/liteos/include/los_list.h **** #define _LOS_LIST_H
  41:/home/fanxinhao/Work/LiteOS_Lab/iot_link/os/liteos/include/los_list.h **** 
  42:/home/fanxinhao/Work/LiteOS_Lab/iot_link/os/liteos/include/los_list.h **** #include "los_typedef.h"
  43:/home/fanxinhao/Work/LiteOS_Lab/iot_link/os/liteos/include/los_list.h **** 
  44:/home/fanxinhao/Work/LiteOS_Lab/iot_link/os/liteos/include/los_list.h **** #ifdef __cplusplus
  45:/home/fanxinhao/Work/LiteOS_Lab/iot_link/os/liteos/include/los_list.h **** #if __cplusplus
  46:/home/fanxinhao/Work/LiteOS_Lab/iot_link/os/liteos/include/los_list.h **** extern "C" {
  47:/home/fanxinhao/Work/LiteOS_Lab/iot_link/os/liteos/include/los_list.h **** #endif /* __cplusplus */
  48:/home/fanxinhao/Work/LiteOS_Lab/iot_link/os/liteos/include/los_list.h **** #endif /* __cplusplus */
  49:/home/fanxinhao/Work/LiteOS_Lab/iot_link/os/liteos/include/los_list.h **** 
  50:/home/fanxinhao/Work/LiteOS_Lab/iot_link/os/liteos/include/los_list.h **** 
  51:/home/fanxinhao/Work/LiteOS_Lab/iot_link/os/liteos/include/los_list.h **** /**
  52:/home/fanxinhao/Work/LiteOS_Lab/iot_link/os/liteos/include/los_list.h ****  *@ingroup los_list
  53:/home/fanxinhao/Work/LiteOS_Lab/iot_link/os/liteos/include/los_list.h ****  *Structure of a node in a doubly linked list.
  54:/home/fanxinhao/Work/LiteOS_Lab/iot_link/os/liteos/include/los_list.h ****  */
  55:/home/fanxinhao/Work/LiteOS_Lab/iot_link/os/liteos/include/los_list.h **** typedef struct LOS_DL_LIST
  56:/home/fanxinhao/Work/LiteOS_Lab/iot_link/os/liteos/include/los_list.h **** {
  57:/home/fanxinhao/Work/LiteOS_Lab/iot_link/os/liteos/include/los_list.h ****     struct LOS_DL_LIST *pstPrev;            /**< Current node's pointer to the previous node*/
  58:/home/fanxinhao/Work/LiteOS_Lab/iot_link/os/liteos/include/los_list.h ****     struct LOS_DL_LIST *pstNext;            /**< Current node's pointer to the next node*/
  59:/home/fanxinhao/Work/LiteOS_Lab/iot_link/os/liteos/include/los_list.h **** } LOS_DL_LIST;
  60:/home/fanxinhao/Work/LiteOS_Lab/iot_link/os/liteos/include/los_list.h **** 
  61:/home/fanxinhao/Work/LiteOS_Lab/iot_link/os/liteos/include/los_list.h **** /**
  62:/home/fanxinhao/Work/LiteOS_Lab/iot_link/os/liteos/include/los_list.h ****  *@ingroup los_list
  63:/home/fanxinhao/Work/LiteOS_Lab/iot_link/os/liteos/include/los_list.h ****  *@brief Initialize a doubly linked list.
  64:/home/fanxinhao/Work/LiteOS_Lab/iot_link/os/liteos/include/los_list.h ****  *
  65:/home/fanxinhao/Work/LiteOS_Lab/iot_link/os/liteos/include/los_list.h ****  *@par Description:
  66:/home/fanxinhao/Work/LiteOS_Lab/iot_link/os/liteos/include/los_list.h ****  *This API is used to initialize a doubly linked list.
  67:/home/fanxinhao/Work/LiteOS_Lab/iot_link/os/liteos/include/los_list.h ****  *@attention
  68:/home/fanxinhao/Work/LiteOS_Lab/iot_link/os/liteos/include/los_list.h ****  *<ul>
  69:/home/fanxinhao/Work/LiteOS_Lab/iot_link/os/liteos/include/los_list.h ****  *<li>The parameter passed in should be ensured to be a legal pointer.</li>
  70:/home/fanxinhao/Work/LiteOS_Lab/iot_link/os/liteos/include/los_list.h ****  *</ul>
  71:/home/fanxinhao/Work/LiteOS_Lab/iot_link/os/liteos/include/los_list.h ****  *
  72:/home/fanxinhao/Work/LiteOS_Lab/iot_link/os/liteos/include/los_list.h ****  *@param pstList    [IN] Node in a doubly linked list.
  73:/home/fanxinhao/Work/LiteOS_Lab/iot_link/os/liteos/include/los_list.h ****  *
  74:/home/fanxinhao/Work/LiteOS_Lab/iot_link/os/liteos/include/los_list.h ****  *@retval None.
  75:/home/fanxinhao/Work/LiteOS_Lab/iot_link/os/liteos/include/los_list.h ****  *@par Dependency:
  76:/home/fanxinhao/Work/LiteOS_Lab/iot_link/os/liteos/include/los_list.h ****  *<ul><li>los_list.h: the header file that contains the API declaration.</li></ul>
  77:/home/fanxinhao/Work/LiteOS_Lab/iot_link/os/liteos/include/los_list.h ****  *@see
  78:/home/fanxinhao/Work/LiteOS_Lab/iot_link/os/liteos/include/los_list.h ****  *@since Huawei LiteOS V100R001C00
  79:/home/fanxinhao/Work/LiteOS_Lab/iot_link/os/liteos/include/los_list.h ****  */
  80:/home/fanxinhao/Work/LiteOS_Lab/iot_link/os/liteos/include/los_list.h **** LITE_OS_SEC_ALW_INLINE STATIC_INLINE VOID LOS_ListInit(LOS_DL_LIST *pstList)
  81:/home/fanxinhao/Work/LiteOS_Lab/iot_link/os/liteos/include/los_list.h **** {
  28              		.loc 1 81 1
  29              		.cfi_startproc
  30              		@ args = 0, pretend = 0, frame = 8
  31              		@ frame_needed = 1, uses_anonymous_args = 0
  32              		@ link register save eliminated.
  33 0000 80B4     		push	{r7}
  34              	.LCFI0:
ARM GAS  /tmp/ccK7oid1.s 			page 3


  35              		.cfi_def_cfa_offset 4
  36              		.cfi_offset 7, -4
  37 0002 83B0     		sub	sp, sp, #12
  38              	.LCFI1:
  39              		.cfi_def_cfa_offset 16
  40 0004 00AF     		add	r7, sp, #0
  41              	.LCFI2:
  42              		.cfi_def_cfa_register 7
  43 0006 7860     		str	r0, [r7, #4]
  82:/home/fanxinhao/Work/LiteOS_Lab/iot_link/os/liteos/include/los_list.h ****     pstList->pstNext = pstList;
  44              		.loc 1 82 22
  45 0008 7B68     		ldr	r3, [r7, #4]
  46 000a 7A68     		ldr	r2, [r7, #4]
  47 000c 5A60     		str	r2, [r3, #4]
  83:/home/fanxinhao/Work/LiteOS_Lab/iot_link/os/liteos/include/los_list.h ****     pstList->pstPrev = pstList;
  48              		.loc 1 83 22
  49 000e 7B68     		ldr	r3, [r7, #4]
  50 0010 7A68     		ldr	r2, [r7, #4]
  51 0012 1A60     		str	r2, [r3]
  84:/home/fanxinhao/Work/LiteOS_Lab/iot_link/os/liteos/include/los_list.h **** }
  52              		.loc 1 84 1
  53 0014 00BF     		nop
  54 0016 0C37     		adds	r7, r7, #12
  55              	.LCFI3:
  56              		.cfi_def_cfa_offset 4
  57 0018 BD46     		mov	sp, r7
  58              	.LCFI4:
  59              		.cfi_def_cfa_register 13
  60              		@ sp needed
  61 001a 5DF8047B 		ldr	r7, [sp], #4
  62              	.LCFI5:
  63              		.cfi_restore 7
  64              		.cfi_def_cfa_offset 0
  65 001e 7047     		bx	lr
  66              		.cfi_endproc
  67              	.LFE126:
  69              		.section	.text.LOS_ListAdd,"ax",%progbits
  70              		.align	1
  71              		.syntax unified
  72              		.thumb
  73              		.thumb_func
  74              		.fpu fpv4-sp-d16
  76              	LOS_ListAdd:
  77              	.LFB127:
  85:/home/fanxinhao/Work/LiteOS_Lab/iot_link/os/liteos/include/los_list.h **** 
  86:/home/fanxinhao/Work/LiteOS_Lab/iot_link/os/liteos/include/los_list.h **** /**
  87:/home/fanxinhao/Work/LiteOS_Lab/iot_link/os/liteos/include/los_list.h ****  *@ingroup los_list
  88:/home/fanxinhao/Work/LiteOS_Lab/iot_link/os/liteos/include/los_list.h ****  *@brief Point to the next node pointed to by the current node.
  89:/home/fanxinhao/Work/LiteOS_Lab/iot_link/os/liteos/include/los_list.h ****  *
  90:/home/fanxinhao/Work/LiteOS_Lab/iot_link/os/liteos/include/los_list.h ****  *@par Description:
  91:/home/fanxinhao/Work/LiteOS_Lab/iot_link/os/liteos/include/los_list.h ****  *<ul>
  92:/home/fanxinhao/Work/LiteOS_Lab/iot_link/os/liteos/include/los_list.h ****  *<li>This API is used to point to the next node pointed to by the current node.</li>
  93:/home/fanxinhao/Work/LiteOS_Lab/iot_link/os/liteos/include/los_list.h ****  *</ul>
  94:/home/fanxinhao/Work/LiteOS_Lab/iot_link/os/liteos/include/los_list.h ****  *@attention
  95:/home/fanxinhao/Work/LiteOS_Lab/iot_link/os/liteos/include/los_list.h ****  *<ul>
  96:/home/fanxinhao/Work/LiteOS_Lab/iot_link/os/liteos/include/los_list.h ****  *<li>None.</li>
  97:/home/fanxinhao/Work/LiteOS_Lab/iot_link/os/liteos/include/los_list.h ****  *</ul>
ARM GAS  /tmp/ccK7oid1.s 			page 4


  98:/home/fanxinhao/Work/LiteOS_Lab/iot_link/os/liteos/include/los_list.h ****  *
  99:/home/fanxinhao/Work/LiteOS_Lab/iot_link/os/liteos/include/los_list.h ****  *@param pstObject  [IN] Node in the doubly linked list.
 100:/home/fanxinhao/Work/LiteOS_Lab/iot_link/os/liteos/include/los_list.h ****  *
 101:/home/fanxinhao/Work/LiteOS_Lab/iot_link/os/liteos/include/los_list.h ****  *@retval None.
 102:/home/fanxinhao/Work/LiteOS_Lab/iot_link/os/liteos/include/los_list.h ****  *@par Dependency:
 103:/home/fanxinhao/Work/LiteOS_Lab/iot_link/os/liteos/include/los_list.h ****  *<ul><li>los_list.h: the header file that contains the API declaration.</li></ul>
 104:/home/fanxinhao/Work/LiteOS_Lab/iot_link/os/liteos/include/los_list.h ****  *@see
 105:/home/fanxinhao/Work/LiteOS_Lab/iot_link/os/liteos/include/los_list.h ****  *@since Huawei LiteOS V100R001C00
 106:/home/fanxinhao/Work/LiteOS_Lab/iot_link/os/liteos/include/los_list.h ****  */
 107:/home/fanxinhao/Work/LiteOS_Lab/iot_link/os/liteos/include/los_list.h **** #define LOS_DL_LIST_FIRST(pstObject) ((pstObject)->pstNext)
 108:/home/fanxinhao/Work/LiteOS_Lab/iot_link/os/liteos/include/los_list.h **** 
 109:/home/fanxinhao/Work/LiteOS_Lab/iot_link/os/liteos/include/los_list.h **** /**
 110:/home/fanxinhao/Work/LiteOS_Lab/iot_link/os/liteos/include/los_list.h ****  *@ingroup los_list
 111:/home/fanxinhao/Work/LiteOS_Lab/iot_link/os/liteos/include/los_list.h ****  *@brief Insert a new node to a doubly linked list.
 112:/home/fanxinhao/Work/LiteOS_Lab/iot_link/os/liteos/include/los_list.h ****  *
 113:/home/fanxinhao/Work/LiteOS_Lab/iot_link/os/liteos/include/los_list.h ****  *@par Description:
 114:/home/fanxinhao/Work/LiteOS_Lab/iot_link/os/liteos/include/los_list.h ****  *This API is used to insert a new node to a doubly linked list.
 115:/home/fanxinhao/Work/LiteOS_Lab/iot_link/os/liteos/include/los_list.h ****  *@attention
 116:/home/fanxinhao/Work/LiteOS_Lab/iot_link/os/liteos/include/los_list.h ****  *<ul>
 117:/home/fanxinhao/Work/LiteOS_Lab/iot_link/os/liteos/include/los_list.h ****  *<li>The parameters passed in should be ensured to be legal pointers.</li>
 118:/home/fanxinhao/Work/LiteOS_Lab/iot_link/os/liteos/include/los_list.h ****  *</ul>
 119:/home/fanxinhao/Work/LiteOS_Lab/iot_link/os/liteos/include/los_list.h ****  *
 120:/home/fanxinhao/Work/LiteOS_Lab/iot_link/os/liteos/include/los_list.h ****  *@param pstList    [IN]   Doubly linked list where the new node is inserted.
 121:/home/fanxinhao/Work/LiteOS_Lab/iot_link/os/liteos/include/los_list.h ****  *@param pstNode    [IN]   New node to be inserted.
 122:/home/fanxinhao/Work/LiteOS_Lab/iot_link/os/liteos/include/los_list.h ****  *
 123:/home/fanxinhao/Work/LiteOS_Lab/iot_link/os/liteos/include/los_list.h ****  *@retval None
 124:/home/fanxinhao/Work/LiteOS_Lab/iot_link/os/liteos/include/los_list.h ****  *@par Dependency:
 125:/home/fanxinhao/Work/LiteOS_Lab/iot_link/os/liteos/include/los_list.h ****  *<ul><li>los_list.h: the header file that contains the API declaration.</li></ul>
 126:/home/fanxinhao/Work/LiteOS_Lab/iot_link/os/liteos/include/los_list.h ****  *@see LOS_ListDelete
 127:/home/fanxinhao/Work/LiteOS_Lab/iot_link/os/liteos/include/los_list.h ****  *@since Huawei LiteOS V100R001C00
 128:/home/fanxinhao/Work/LiteOS_Lab/iot_link/os/liteos/include/los_list.h ****  */
 129:/home/fanxinhao/Work/LiteOS_Lab/iot_link/os/liteos/include/los_list.h **** LITE_OS_SEC_ALW_INLINE STATIC_INLINE VOID LOS_ListAdd(LOS_DL_LIST *pstList, LOS_DL_LIST *pstNode)
 130:/home/fanxinhao/Work/LiteOS_Lab/iot_link/os/liteos/include/los_list.h **** {
  78              		.loc 1 130 1
  79              		.cfi_startproc
  80              		@ args = 0, pretend = 0, frame = 8
  81              		@ frame_needed = 1, uses_anonymous_args = 0
  82              		@ link register save eliminated.
  83 0000 80B4     		push	{r7}
  84              	.LCFI6:
  85              		.cfi_def_cfa_offset 4
  86              		.cfi_offset 7, -4
  87 0002 83B0     		sub	sp, sp, #12
  88              	.LCFI7:
  89              		.cfi_def_cfa_offset 16
  90 0004 00AF     		add	r7, sp, #0
  91              	.LCFI8:
  92              		.cfi_def_cfa_register 7
  93 0006 7860     		str	r0, [r7, #4]
  94 0008 3960     		str	r1, [r7]
 131:/home/fanxinhao/Work/LiteOS_Lab/iot_link/os/liteos/include/los_list.h ****     pstNode->pstNext = pstList->pstNext;
  95              		.loc 1 131 31
  96 000a 7B68     		ldr	r3, [r7, #4]
  97 000c 5A68     		ldr	r2, [r3, #4]
  98              		.loc 1 131 22
  99 000e 3B68     		ldr	r3, [r7]
 100 0010 5A60     		str	r2, [r3, #4]
ARM GAS  /tmp/ccK7oid1.s 			page 5


 132:/home/fanxinhao/Work/LiteOS_Lab/iot_link/os/liteos/include/los_list.h ****     pstNode->pstPrev = pstList;
 101              		.loc 1 132 22
 102 0012 3B68     		ldr	r3, [r7]
 103 0014 7A68     		ldr	r2, [r7, #4]
 104 0016 1A60     		str	r2, [r3]
 133:/home/fanxinhao/Work/LiteOS_Lab/iot_link/os/liteos/include/los_list.h ****     pstList->pstNext->pstPrev = pstNode;
 105              		.loc 1 133 12
 106 0018 7B68     		ldr	r3, [r7, #4]
 107 001a 5B68     		ldr	r3, [r3, #4]
 108              		.loc 1 133 31
 109 001c 3A68     		ldr	r2, [r7]
 110 001e 1A60     		str	r2, [r3]
 134:/home/fanxinhao/Work/LiteOS_Lab/iot_link/os/liteos/include/los_list.h ****     pstList->pstNext = pstNode;
 111              		.loc 1 134 22
 112 0020 7B68     		ldr	r3, [r7, #4]
 113 0022 3A68     		ldr	r2, [r7]
 114 0024 5A60     		str	r2, [r3, #4]
 135:/home/fanxinhao/Work/LiteOS_Lab/iot_link/os/liteos/include/los_list.h **** }
 115              		.loc 1 135 1
 116 0026 00BF     		nop
 117 0028 0C37     		adds	r7, r7, #12
 118              	.LCFI9:
 119              		.cfi_def_cfa_offset 4
 120 002a BD46     		mov	sp, r7
 121              	.LCFI10:
 122              		.cfi_def_cfa_register 13
 123              		@ sp needed
 124 002c 5DF8047B 		ldr	r7, [sp], #4
 125              	.LCFI11:
 126              		.cfi_restore 7
 127              		.cfi_def_cfa_offset 0
 128 0030 7047     		bx	lr
 129              		.cfi_endproc
 130              	.LFE127:
 132              		.section	.text.LOS_ListTailInsert,"ax",%progbits
 133              		.align	1
 134              		.syntax unified
 135              		.thumb
 136              		.thumb_func
 137              		.fpu fpv4-sp-d16
 139              	LOS_ListTailInsert:
 140              	.LFB128:
 136:/home/fanxinhao/Work/LiteOS_Lab/iot_link/os/liteos/include/los_list.h **** 
 137:/home/fanxinhao/Work/LiteOS_Lab/iot_link/os/liteos/include/los_list.h **** /**
 138:/home/fanxinhao/Work/LiteOS_Lab/iot_link/os/liteos/include/los_list.h ****  *@ingroup los_list
 139:/home/fanxinhao/Work/LiteOS_Lab/iot_link/os/liteos/include/los_list.h ****  *@brief Insert a node to the tail of a doubly linked list.
 140:/home/fanxinhao/Work/LiteOS_Lab/iot_link/os/liteos/include/los_list.h ****  *
 141:/home/fanxinhao/Work/LiteOS_Lab/iot_link/os/liteos/include/los_list.h ****  *@par Description:
 142:/home/fanxinhao/Work/LiteOS_Lab/iot_link/os/liteos/include/los_list.h ****  *This API is used to insert a new node to the tail of a doubly linked list.
 143:/home/fanxinhao/Work/LiteOS_Lab/iot_link/os/liteos/include/los_list.h ****  *@attention
 144:/home/fanxinhao/Work/LiteOS_Lab/iot_link/os/liteos/include/los_list.h ****  *<ul>
 145:/home/fanxinhao/Work/LiteOS_Lab/iot_link/os/liteos/include/los_list.h ****  *<li>The parameters passed in should be ensured to be legal pointers.</li>
 146:/home/fanxinhao/Work/LiteOS_Lab/iot_link/os/liteos/include/los_list.h ****  *</ul>
 147:/home/fanxinhao/Work/LiteOS_Lab/iot_link/os/liteos/include/los_list.h ****  *
 148:/home/fanxinhao/Work/LiteOS_Lab/iot_link/os/liteos/include/los_list.h ****  *@param pstList     [IN] Doubly linked list where the new node is inserted.
 149:/home/fanxinhao/Work/LiteOS_Lab/iot_link/os/liteos/include/los_list.h ****  *@param pstNode     [IN] New node to be inserted.
 150:/home/fanxinhao/Work/LiteOS_Lab/iot_link/os/liteos/include/los_list.h ****  *
ARM GAS  /tmp/ccK7oid1.s 			page 6


 151:/home/fanxinhao/Work/LiteOS_Lab/iot_link/os/liteos/include/los_list.h ****  *@retval None.
 152:/home/fanxinhao/Work/LiteOS_Lab/iot_link/os/liteos/include/los_list.h ****  *@par Dependency:
 153:/home/fanxinhao/Work/LiteOS_Lab/iot_link/os/liteos/include/los_list.h ****  *<ul><li>los_list.h: the header file that contains the API declaration.</li></ul>
 154:/home/fanxinhao/Work/LiteOS_Lab/iot_link/os/liteos/include/los_list.h ****  *@see LOS_ListAdd | LOS_ListHeadInsert
 155:/home/fanxinhao/Work/LiteOS_Lab/iot_link/os/liteos/include/los_list.h ****  *@since Huawei LiteOS V100R001C00
 156:/home/fanxinhao/Work/LiteOS_Lab/iot_link/os/liteos/include/los_list.h ****  */
 157:/home/fanxinhao/Work/LiteOS_Lab/iot_link/os/liteos/include/los_list.h **** LITE_OS_SEC_ALW_INLINE STATIC_INLINE VOID LOS_ListTailInsert(LOS_DL_LIST *pstList, LOS_DL_LIST *pst
 158:/home/fanxinhao/Work/LiteOS_Lab/iot_link/os/liteos/include/los_list.h **** {
 141              		.loc 1 158 1
 142              		.cfi_startproc
 143              		@ args = 0, pretend = 0, frame = 8
 144              		@ frame_needed = 1, uses_anonymous_args = 0
 145 0000 80B5     		push	{r7, lr}
 146              	.LCFI12:
 147              		.cfi_def_cfa_offset 8
 148              		.cfi_offset 7, -8
 149              		.cfi_offset 14, -4
 150 0002 82B0     		sub	sp, sp, #8
 151              	.LCFI13:
 152              		.cfi_def_cfa_offset 16
 153 0004 00AF     		add	r7, sp, #0
 154              	.LCFI14:
 155              		.cfi_def_cfa_register 7
 156 0006 7860     		str	r0, [r7, #4]
 157 0008 3960     		str	r1, [r7]
 159:/home/fanxinhao/Work/LiteOS_Lab/iot_link/os/liteos/include/los_list.h ****     LOS_ListAdd(pstList->pstPrev, pstNode);
 158              		.loc 1 159 24
 159 000a 7B68     		ldr	r3, [r7, #4]
 160 000c 1B68     		ldr	r3, [r3]
 161              		.loc 1 159 5
 162 000e 3968     		ldr	r1, [r7]
 163 0010 1846     		mov	r0, r3
 164 0012 FFF7FEFF 		bl	LOS_ListAdd
 160:/home/fanxinhao/Work/LiteOS_Lab/iot_link/os/liteos/include/los_list.h **** }
 165              		.loc 1 160 1
 166 0016 00BF     		nop
 167 0018 0837     		adds	r7, r7, #8
 168              	.LCFI15:
 169              		.cfi_def_cfa_offset 8
 170 001a BD46     		mov	sp, r7
 171              	.LCFI16:
 172              		.cfi_def_cfa_register 13
 173              		@ sp needed
 174 001c 80BD     		pop	{r7, pc}
 175              		.cfi_endproc
 176              	.LFE128:
 178              		.section	.text.LOS_ListDelete,"ax",%progbits
 179              		.align	1
 180              		.syntax unified
 181              		.thumb
 182              		.thumb_func
 183              		.fpu fpv4-sp-d16
 185              	LOS_ListDelete:
 186              	.LFB129:
 161:/home/fanxinhao/Work/LiteOS_Lab/iot_link/os/liteos/include/los_list.h **** 
 162:/home/fanxinhao/Work/LiteOS_Lab/iot_link/os/liteos/include/los_list.h **** /**
 163:/home/fanxinhao/Work/LiteOS_Lab/iot_link/os/liteos/include/los_list.h ****  *@ingroup los_list
ARM GAS  /tmp/ccK7oid1.s 			page 7


 164:/home/fanxinhao/Work/LiteOS_Lab/iot_link/os/liteos/include/los_list.h ****  *@brief Delete a specified node from a doubly linked list.
 165:/home/fanxinhao/Work/LiteOS_Lab/iot_link/os/liteos/include/los_list.h ****  *
 166:/home/fanxinhao/Work/LiteOS_Lab/iot_link/os/liteos/include/los_list.h ****  *@par Description:
 167:/home/fanxinhao/Work/LiteOS_Lab/iot_link/os/liteos/include/los_list.h ****  *<ul>
 168:/home/fanxinhao/Work/LiteOS_Lab/iot_link/os/liteos/include/los_list.h ****  *<li>This API is used to delete a specified node from a doubly linked list.</li>
 169:/home/fanxinhao/Work/LiteOS_Lab/iot_link/os/liteos/include/los_list.h ****  *</ul>
 170:/home/fanxinhao/Work/LiteOS_Lab/iot_link/os/liteos/include/los_list.h ****  *@attention
 171:/home/fanxinhao/Work/LiteOS_Lab/iot_link/os/liteos/include/los_list.h ****  *<ul>
 172:/home/fanxinhao/Work/LiteOS_Lab/iot_link/os/liteos/include/los_list.h ****  *<li>The parameter passed in should be ensured to be a legal pointer.</li>
 173:/home/fanxinhao/Work/LiteOS_Lab/iot_link/os/liteos/include/los_list.h ****  *</ul>
 174:/home/fanxinhao/Work/LiteOS_Lab/iot_link/os/liteos/include/los_list.h ****  *
 175:/home/fanxinhao/Work/LiteOS_Lab/iot_link/os/liteos/include/los_list.h ****  *@param pstNode    [IN] Node to be deleted.
 176:/home/fanxinhao/Work/LiteOS_Lab/iot_link/os/liteos/include/los_list.h ****  *
 177:/home/fanxinhao/Work/LiteOS_Lab/iot_link/os/liteos/include/los_list.h ****  *@retval None.
 178:/home/fanxinhao/Work/LiteOS_Lab/iot_link/os/liteos/include/los_list.h ****  *@par Dependency:
 179:/home/fanxinhao/Work/LiteOS_Lab/iot_link/os/liteos/include/los_list.h ****  *<ul><li>los_list.h: the header file that contains the API declaration.</li></ul>
 180:/home/fanxinhao/Work/LiteOS_Lab/iot_link/os/liteos/include/los_list.h ****  *@see LOS_ListAdd
 181:/home/fanxinhao/Work/LiteOS_Lab/iot_link/os/liteos/include/los_list.h ****  *@since Huawei LiteOS V100R001C00
 182:/home/fanxinhao/Work/LiteOS_Lab/iot_link/os/liteos/include/los_list.h ****  */
 183:/home/fanxinhao/Work/LiteOS_Lab/iot_link/os/liteos/include/los_list.h **** LITE_OS_SEC_ALW_INLINE STATIC_INLINE VOID LOS_ListDelete(LOS_DL_LIST *pstNode)
 184:/home/fanxinhao/Work/LiteOS_Lab/iot_link/os/liteos/include/los_list.h **** {
 187              		.loc 1 184 1
 188              		.cfi_startproc
 189              		@ args = 0, pretend = 0, frame = 8
 190              		@ frame_needed = 1, uses_anonymous_args = 0
 191              		@ link register save eliminated.
 192 0000 80B4     		push	{r7}
 193              	.LCFI17:
 194              		.cfi_def_cfa_offset 4
 195              		.cfi_offset 7, -4
 196 0002 83B0     		sub	sp, sp, #12
 197              	.LCFI18:
 198              		.cfi_def_cfa_offset 16
 199 0004 00AF     		add	r7, sp, #0
 200              	.LCFI19:
 201              		.cfi_def_cfa_register 7
 202 0006 7860     		str	r0, [r7, #4]
 185:/home/fanxinhao/Work/LiteOS_Lab/iot_link/os/liteos/include/los_list.h ****     pstNode->pstNext->pstPrev = pstNode->pstPrev;
 203              		.loc 1 185 12
 204 0008 7B68     		ldr	r3, [r7, #4]
 205 000a 5B68     		ldr	r3, [r3, #4]
 206              		.loc 1 185 40
 207 000c 7A68     		ldr	r2, [r7, #4]
 208 000e 1268     		ldr	r2, [r2]
 209              		.loc 1 185 31
 210 0010 1A60     		str	r2, [r3]
 186:/home/fanxinhao/Work/LiteOS_Lab/iot_link/os/liteos/include/los_list.h ****     pstNode->pstPrev->pstNext = pstNode->pstNext;
 211              		.loc 1 186 12
 212 0012 7B68     		ldr	r3, [r7, #4]
 213 0014 1B68     		ldr	r3, [r3]
 214              		.loc 1 186 40
 215 0016 7A68     		ldr	r2, [r7, #4]
 216 0018 5268     		ldr	r2, [r2, #4]
 217              		.loc 1 186 31
 218 001a 5A60     		str	r2, [r3, #4]
 187:/home/fanxinhao/Work/LiteOS_Lab/iot_link/os/liteos/include/los_list.h ****     pstNode->pstNext = (LOS_DL_LIST *)NULL;
 219              		.loc 1 187 22
ARM GAS  /tmp/ccK7oid1.s 			page 8


 220 001c 7B68     		ldr	r3, [r7, #4]
 221 001e 0022     		movs	r2, #0
 222 0020 5A60     		str	r2, [r3, #4]
 188:/home/fanxinhao/Work/LiteOS_Lab/iot_link/os/liteos/include/los_list.h ****     pstNode->pstPrev = (LOS_DL_LIST *)NULL;
 223              		.loc 1 188 22
 224 0022 7B68     		ldr	r3, [r7, #4]
 225 0024 0022     		movs	r2, #0
 226 0026 1A60     		str	r2, [r3]
 189:/home/fanxinhao/Work/LiteOS_Lab/iot_link/os/liteos/include/los_list.h **** }
 227              		.loc 1 189 1
 228 0028 00BF     		nop
 229 002a 0C37     		adds	r7, r7, #12
 230              	.LCFI20:
 231              		.cfi_def_cfa_offset 4
 232 002c BD46     		mov	sp, r7
 233              	.LCFI21:
 234              		.cfi_def_cfa_register 13
 235              		@ sp needed
 236 002e 5DF8047B 		ldr	r7, [sp], #4
 237              	.LCFI22:
 238              		.cfi_restore 7
 239              		.cfi_def_cfa_offset 0
 240 0032 7047     		bx	lr
 241              		.cfi_endproc
 242              	.LFE129:
 244              		.section	.text.LOS_ListEmpty,"ax",%progbits
 245              		.align	1
 246              		.syntax unified
 247              		.thumb
 248              		.thumb_func
 249              		.fpu fpv4-sp-d16
 251              	LOS_ListEmpty:
 252              	.LFB130:
 190:/home/fanxinhao/Work/LiteOS_Lab/iot_link/os/liteos/include/los_list.h **** 
 191:/home/fanxinhao/Work/LiteOS_Lab/iot_link/os/liteos/include/los_list.h **** /**
 192:/home/fanxinhao/Work/LiteOS_Lab/iot_link/os/liteos/include/los_list.h ****  *@ingroup los_list
 193:/home/fanxinhao/Work/LiteOS_Lab/iot_link/os/liteos/include/los_list.h ****  *@brief Identify whether a specified doubly linked list is empty.
 194:/home/fanxinhao/Work/LiteOS_Lab/iot_link/os/liteos/include/los_list.h ****  *
 195:/home/fanxinhao/Work/LiteOS_Lab/iot_link/os/liteos/include/los_list.h ****  *@par Description:
 196:/home/fanxinhao/Work/LiteOS_Lab/iot_link/os/liteos/include/los_list.h ****  *<ul>
 197:/home/fanxinhao/Work/LiteOS_Lab/iot_link/os/liteos/include/los_list.h ****  *<li>This API is used to return whether a doubly linked list is empty.</li>
 198:/home/fanxinhao/Work/LiteOS_Lab/iot_link/os/liteos/include/los_list.h ****  *</ul>
 199:/home/fanxinhao/Work/LiteOS_Lab/iot_link/os/liteos/include/los_list.h ****  *@attention
 200:/home/fanxinhao/Work/LiteOS_Lab/iot_link/os/liteos/include/los_list.h ****  *<ul>
 201:/home/fanxinhao/Work/LiteOS_Lab/iot_link/os/liteos/include/los_list.h ****  *<li>The parameter passed in should be ensured to be a legal pointer.</li>
 202:/home/fanxinhao/Work/LiteOS_Lab/iot_link/os/liteos/include/los_list.h ****  *</ul>
 203:/home/fanxinhao/Work/LiteOS_Lab/iot_link/os/liteos/include/los_list.h ****  *
 204:/home/fanxinhao/Work/LiteOS_Lab/iot_link/os/liteos/include/los_list.h ****  *@param pstList  [IN] Doubly linked list.
 205:/home/fanxinhao/Work/LiteOS_Lab/iot_link/os/liteos/include/los_list.h ****  *
 206:/home/fanxinhao/Work/LiteOS_Lab/iot_link/os/liteos/include/los_list.h ****  *@retval TRUE The doubly linked list is empty.
 207:/home/fanxinhao/Work/LiteOS_Lab/iot_link/os/liteos/include/los_list.h ****  *@retval FALSE The doubly linked list is not empty.
 208:/home/fanxinhao/Work/LiteOS_Lab/iot_link/os/liteos/include/los_list.h ****  *@par Dependency:
 209:/home/fanxinhao/Work/LiteOS_Lab/iot_link/os/liteos/include/los_list.h ****  *<ul><li>los_list.h: the header file that contains the API declaration.</li></ul>
 210:/home/fanxinhao/Work/LiteOS_Lab/iot_link/os/liteos/include/los_list.h ****  *@see
 211:/home/fanxinhao/Work/LiteOS_Lab/iot_link/os/liteos/include/los_list.h ****  *@since Huawei LiteOS V100R001C00
 212:/home/fanxinhao/Work/LiteOS_Lab/iot_link/os/liteos/include/los_list.h ****  */
 213:/home/fanxinhao/Work/LiteOS_Lab/iot_link/os/liteos/include/los_list.h **** LITE_OS_SEC_ALW_INLINE STATIC_INLINE BOOL LOS_ListEmpty(LOS_DL_LIST *pstNode)
ARM GAS  /tmp/ccK7oid1.s 			page 9


 214:/home/fanxinhao/Work/LiteOS_Lab/iot_link/os/liteos/include/los_list.h **** {
 253              		.loc 1 214 1
 254              		.cfi_startproc
 255              		@ args = 0, pretend = 0, frame = 8
 256              		@ frame_needed = 1, uses_anonymous_args = 0
 257              		@ link register save eliminated.
 258 0000 80B4     		push	{r7}
 259              	.LCFI23:
 260              		.cfi_def_cfa_offset 4
 261              		.cfi_offset 7, -4
 262 0002 83B0     		sub	sp, sp, #12
 263              	.LCFI24:
 264              		.cfi_def_cfa_offset 16
 265 0004 00AF     		add	r7, sp, #0
 266              	.LCFI25:
 267              		.cfi_def_cfa_register 7
 268 0006 7860     		str	r0, [r7, #4]
 215:/home/fanxinhao/Work/LiteOS_Lab/iot_link/os/liteos/include/los_list.h ****     return (BOOL)(pstNode->pstNext == pstNode);
 269              		.loc 1 215 26
 270 0008 7B68     		ldr	r3, [r7, #4]
 271 000a 5B68     		ldr	r3, [r3, #4]
 272              		.loc 1 215 12
 273 000c 7A68     		ldr	r2, [r7, #4]
 274 000e 9A42     		cmp	r2, r3
 275 0010 0CBF     		ite	eq
 276 0012 0123     		moveq	r3, #1
 277 0014 0023     		movne	r3, #0
 278 0016 DBB2     		uxtb	r3, r3
 216:/home/fanxinhao/Work/LiteOS_Lab/iot_link/os/liteos/include/los_list.h **** }
 279              		.loc 1 216 1
 280 0018 1846     		mov	r0, r3
 281 001a 0C37     		adds	r7, r7, #12
 282              	.LCFI26:
 283              		.cfi_def_cfa_offset 4
 284 001c BD46     		mov	sp, r7
 285              	.LCFI27:
 286              		.cfi_def_cfa_register 13
 287              		@ sp needed
 288 001e 5DF8047B 		ldr	r7, [sp], #4
 289              	.LCFI28:
 290              		.cfi_restore 7
 291              		.cfi_def_cfa_offset 0
 292 0022 7047     		bx	lr
 293              		.cfi_endproc
 294              	.LFE130:
 296              		.comm	g_pstAllQueue,4,4
 297              		.comm	g_stFreeQueueList,8,4
 298              		.section	.text.osQueueInit,"ax",%progbits
 299              		.align	1
 300              		.global	osQueueInit
 301              		.syntax unified
 302              		.thumb
 303              		.thumb_func
 304              		.fpu fpv4-sp-d16
 306              	osQueueInit:
 307              	.LFB133:
 308              		.file 2 "/home/fanxinhao/Work/LiteOS_Lab/iot_link/os/liteos/base/ipc/los_queue.c"
ARM GAS  /tmp/ccK7oid1.s 			page 10


   1:/home/fanxinhao/Work/LiteOS_Lab/iot_link/os/liteos/base/ipc/los_queue.c **** /*----------------------------------------------------------------------------
   2:/home/fanxinhao/Work/LiteOS_Lab/iot_link/os/liteos/base/ipc/los_queue.c ****  * Copyright (c) <2013-2015>, <Huawei Technologies Co., Ltd>
   3:/home/fanxinhao/Work/LiteOS_Lab/iot_link/os/liteos/base/ipc/los_queue.c ****  * All rights reserved.
   4:/home/fanxinhao/Work/LiteOS_Lab/iot_link/os/liteos/base/ipc/los_queue.c ****  * Redistribution and use in source and binary forms, with or without modification,
   5:/home/fanxinhao/Work/LiteOS_Lab/iot_link/os/liteos/base/ipc/los_queue.c ****  * are permitted provided that the following conditions are met:
   6:/home/fanxinhao/Work/LiteOS_Lab/iot_link/os/liteos/base/ipc/los_queue.c ****  * 1. Redistributions of source code must retain the above copyright notice, this list of
   7:/home/fanxinhao/Work/LiteOS_Lab/iot_link/os/liteos/base/ipc/los_queue.c ****  * conditions and the following disclaimer.
   8:/home/fanxinhao/Work/LiteOS_Lab/iot_link/os/liteos/base/ipc/los_queue.c ****  * 2. Redistributions in binary form must reproduce the above copyright notice, this list
   9:/home/fanxinhao/Work/LiteOS_Lab/iot_link/os/liteos/base/ipc/los_queue.c ****  * of conditions and the following disclaimer in the documentation and/or other materials
  10:/home/fanxinhao/Work/LiteOS_Lab/iot_link/os/liteos/base/ipc/los_queue.c ****  * provided with the distribution.
  11:/home/fanxinhao/Work/LiteOS_Lab/iot_link/os/liteos/base/ipc/los_queue.c ****  * 3. Neither the name of the copyright holder nor the names of its contributors may be used
  12:/home/fanxinhao/Work/LiteOS_Lab/iot_link/os/liteos/base/ipc/los_queue.c ****  * to endorse or promote products derived from this software without specific prior written
  13:/home/fanxinhao/Work/LiteOS_Lab/iot_link/os/liteos/base/ipc/los_queue.c ****  * permission.
  14:/home/fanxinhao/Work/LiteOS_Lab/iot_link/os/liteos/base/ipc/los_queue.c ****  * THIS SOFTWARE IS PROVIDED BY THE COPYRIGHT HOLDERS AND CONTRIBUTORS
  15:/home/fanxinhao/Work/LiteOS_Lab/iot_link/os/liteos/base/ipc/los_queue.c ****  * "AS IS" AND ANY EXPRESS OR IMPLIED WARRANTIES, INCLUDING, BUT NOT LIMITED TO,
  16:/home/fanxinhao/Work/LiteOS_Lab/iot_link/os/liteos/base/ipc/los_queue.c ****  * THE IMPLIED WARRANTIES OF MERCHANTABILITY AND FITNESS FOR A PARTICULAR
  17:/home/fanxinhao/Work/LiteOS_Lab/iot_link/os/liteos/base/ipc/los_queue.c ****  * PURPOSE ARE DISCLAIMED. IN NO EVENT SHALL THE COPYRIGHT HOLDER OR
  18:/home/fanxinhao/Work/LiteOS_Lab/iot_link/os/liteos/base/ipc/los_queue.c ****  * CONTRIBUTORS BE LIABLE FOR ANY DIRECT, INDIRECT, INCIDENTAL, SPECIAL,
  19:/home/fanxinhao/Work/LiteOS_Lab/iot_link/os/liteos/base/ipc/los_queue.c ****  * EXEMPLARY, OR CONSEQUENTIAL DAMAGES (INCLUDING, BUT NOT LIMITED TO,
  20:/home/fanxinhao/Work/LiteOS_Lab/iot_link/os/liteos/base/ipc/los_queue.c ****  * PROCUREMENT OF SUBSTITUTE GOODS OR SERVICES; LOSS OF USE, DATA, OR PROFITS;
  21:/home/fanxinhao/Work/LiteOS_Lab/iot_link/os/liteos/base/ipc/los_queue.c ****  * OR BUSINESS INTERRUPTION) HOWEVER CAUSED AND ON ANY THEORY OF LIABILITY,
  22:/home/fanxinhao/Work/LiteOS_Lab/iot_link/os/liteos/base/ipc/los_queue.c ****  * WHETHER IN CONTRACT, STRICT LIABILITY, OR TORT (INCLUDING NEGLIGENCE OR
  23:/home/fanxinhao/Work/LiteOS_Lab/iot_link/os/liteos/base/ipc/los_queue.c ****  * OTHERWISE) ARISING IN ANY WAY OUT OF THE USE OF THIS SOFTWARE, EVEN IF
  24:/home/fanxinhao/Work/LiteOS_Lab/iot_link/os/liteos/base/ipc/los_queue.c ****  * ADVISED OF THE POSSIBILITY OF SUCH DAMAGE.
  25:/home/fanxinhao/Work/LiteOS_Lab/iot_link/os/liteos/base/ipc/los_queue.c ****  *---------------------------------------------------------------------------*/
  26:/home/fanxinhao/Work/LiteOS_Lab/iot_link/os/liteos/base/ipc/los_queue.c **** /*----------------------------------------------------------------------------
  27:/home/fanxinhao/Work/LiteOS_Lab/iot_link/os/liteos/base/ipc/los_queue.c ****  * Notice of Export Control Law
  28:/home/fanxinhao/Work/LiteOS_Lab/iot_link/os/liteos/base/ipc/los_queue.c ****  * ===============================================
  29:/home/fanxinhao/Work/LiteOS_Lab/iot_link/os/liteos/base/ipc/los_queue.c ****  * Huawei LiteOS may be subject to applicable export control laws and regulations, which might
  30:/home/fanxinhao/Work/LiteOS_Lab/iot_link/os/liteos/base/ipc/los_queue.c ****  * include those applicable to Huawei LiteOS of U.S. and the country in which you are located.
  31:/home/fanxinhao/Work/LiteOS_Lab/iot_link/os/liteos/base/ipc/los_queue.c ****  * Import, export and usage of Huawei LiteOS in any manner by you shall be in compliance with such
  32:/home/fanxinhao/Work/LiteOS_Lab/iot_link/os/liteos/base/ipc/los_queue.c ****  * applicable export control laws and regulations.
  33:/home/fanxinhao/Work/LiteOS_Lab/iot_link/os/liteos/base/ipc/los_queue.c ****  *---------------------------------------------------------------------------*/
  34:/home/fanxinhao/Work/LiteOS_Lab/iot_link/os/liteos/base/ipc/los_queue.c **** #include "string.h"
  35:/home/fanxinhao/Work/LiteOS_Lab/iot_link/os/liteos/base/ipc/los_queue.c **** #include "los_queue.ph"
  36:/home/fanxinhao/Work/LiteOS_Lab/iot_link/os/liteos/base/ipc/los_queue.c **** #include "los_membox.ph"
  37:/home/fanxinhao/Work/LiteOS_Lab/iot_link/os/liteos/base/ipc/los_queue.c **** #include "los_memory.ph"
  38:/home/fanxinhao/Work/LiteOS_Lab/iot_link/os/liteos/base/ipc/los_queue.c **** #include "los_priqueue.ph"
  39:/home/fanxinhao/Work/LiteOS_Lab/iot_link/os/liteos/base/ipc/los_queue.c **** #include "los_task.ph"
  40:/home/fanxinhao/Work/LiteOS_Lab/iot_link/os/liteos/base/ipc/los_queue.c **** #if (LOSCFG_PLATFORM_EXC == YES)
  41:/home/fanxinhao/Work/LiteOS_Lab/iot_link/os/liteos/base/ipc/los_queue.c **** #include "los_exc.ph"
  42:/home/fanxinhao/Work/LiteOS_Lab/iot_link/os/liteos/base/ipc/los_queue.c **** #endif
  43:/home/fanxinhao/Work/LiteOS_Lab/iot_link/os/liteos/base/ipc/los_queue.c **** 
  44:/home/fanxinhao/Work/LiteOS_Lab/iot_link/os/liteos/base/ipc/los_queue.c **** #ifdef __cplusplus
  45:/home/fanxinhao/Work/LiteOS_Lab/iot_link/os/liteos/base/ipc/los_queue.c **** #if __cplusplus
  46:/home/fanxinhao/Work/LiteOS_Lab/iot_link/os/liteos/base/ipc/los_queue.c **** extern "C"{
  47:/home/fanxinhao/Work/LiteOS_Lab/iot_link/os/liteos/base/ipc/los_queue.c **** #endif
  48:/home/fanxinhao/Work/LiteOS_Lab/iot_link/os/liteos/base/ipc/los_queue.c **** #endif /* __cplusplus */
  49:/home/fanxinhao/Work/LiteOS_Lab/iot_link/os/liteos/base/ipc/los_queue.c **** 
  50:/home/fanxinhao/Work/LiteOS_Lab/iot_link/os/liteos/base/ipc/los_queue.c **** #if (LOSCFG_BASE_IPC_QUEUE == YES)
  51:/home/fanxinhao/Work/LiteOS_Lab/iot_link/os/liteos/base/ipc/los_queue.c **** 
  52:/home/fanxinhao/Work/LiteOS_Lab/iot_link/os/liteos/base/ipc/los_queue.c **** /*lint -save -e64*/
  53:/home/fanxinhao/Work/LiteOS_Lab/iot_link/os/liteos/base/ipc/los_queue.c **** LITE_OS_SEC_BSS      QUEUE_CB_S       *g_pstAllQueue;
  54:/home/fanxinhao/Work/LiteOS_Lab/iot_link/os/liteos/base/ipc/los_queue.c **** LITE_OS_SEC_BSS      LOS_DL_LIST      g_stFreeQueueList;
  55:/home/fanxinhao/Work/LiteOS_Lab/iot_link/os/liteos/base/ipc/los_queue.c **** #if ((LOSCFG_PLATFORM_EXC == YES) && (LOSCFG_SAVE_EXC_INFO == YES))
  56:/home/fanxinhao/Work/LiteOS_Lab/iot_link/os/liteos/base/ipc/los_queue.c **** LITE_OS_SEC_BSS      UINT32           g_uwExcQueueMaxNum;
  57:/home/fanxinhao/Work/LiteOS_Lab/iot_link/os/liteos/base/ipc/los_queue.c **** #endif
ARM GAS  /tmp/ccK7oid1.s 			page 11


  58:/home/fanxinhao/Work/LiteOS_Lab/iot_link/os/liteos/base/ipc/los_queue.c **** 
  59:/home/fanxinhao/Work/LiteOS_Lab/iot_link/os/liteos/base/ipc/los_queue.c **** /**************************************************************************
  60:/home/fanxinhao/Work/LiteOS_Lab/iot_link/os/liteos/base/ipc/los_queue.c ****  Function    : osQueueInit
  61:/home/fanxinhao/Work/LiteOS_Lab/iot_link/os/liteos/base/ipc/los_queue.c ****  Description : queue initial
  62:/home/fanxinhao/Work/LiteOS_Lab/iot_link/os/liteos/base/ipc/los_queue.c ****  Input       : None
  63:/home/fanxinhao/Work/LiteOS_Lab/iot_link/os/liteos/base/ipc/los_queue.c ****  Output      : None
  64:/home/fanxinhao/Work/LiteOS_Lab/iot_link/os/liteos/base/ipc/los_queue.c ****  Return      : LOS_OK on success or error code on failure
  65:/home/fanxinhao/Work/LiteOS_Lab/iot_link/os/liteos/base/ipc/los_queue.c **** **************************************************************************/
  66:/home/fanxinhao/Work/LiteOS_Lab/iot_link/os/liteos/base/ipc/los_queue.c **** LITE_OS_SEC_TEXT_INIT UINT32 osQueueInit(VOID)
  67:/home/fanxinhao/Work/LiteOS_Lab/iot_link/os/liteos/base/ipc/los_queue.c **** {
 309              		.loc 2 67 1
 310              		.cfi_startproc
 311              		@ args = 0, pretend = 0, frame = 8
 312              		@ frame_needed = 1, uses_anonymous_args = 0
 313 0000 80B5     		push	{r7, lr}
 314              	.LCFI29:
 315              		.cfi_def_cfa_offset 8
 316              		.cfi_offset 7, -8
 317              		.cfi_offset 14, -4
 318 0002 82B0     		sub	sp, sp, #8
 319              	.LCFI30:
 320              		.cfi_def_cfa_offset 16
 321 0004 00AF     		add	r7, sp, #0
 322              	.LCFI31:
 323              		.cfi_def_cfa_register 7
  68:/home/fanxinhao/Work/LiteOS_Lab/iot_link/os/liteos/base/ipc/los_queue.c ****     QUEUE_CB_S *pstQueueNode;
  69:/home/fanxinhao/Work/LiteOS_Lab/iot_link/os/liteos/base/ipc/los_queue.c ****     UINT16   usIndex;
  70:/home/fanxinhao/Work/LiteOS_Lab/iot_link/os/liteos/base/ipc/los_queue.c **** 
  71:/home/fanxinhao/Work/LiteOS_Lab/iot_link/os/liteos/base/ipc/los_queue.c ****     if (0 == LOSCFG_BASE_IPC_QUEUE_LIMIT)   /*lint !e506*/
  72:/home/fanxinhao/Work/LiteOS_Lab/iot_link/os/liteos/base/ipc/los_queue.c ****     {
  73:/home/fanxinhao/Work/LiteOS_Lab/iot_link/os/liteos/base/ipc/los_queue.c ****         return LOS_ERRNO_QUEUE_MAXNUM_ZERO;
  74:/home/fanxinhao/Work/LiteOS_Lab/iot_link/os/liteos/base/ipc/los_queue.c ****     }
  75:/home/fanxinhao/Work/LiteOS_Lab/iot_link/os/liteos/base/ipc/los_queue.c **** 
  76:/home/fanxinhao/Work/LiteOS_Lab/iot_link/os/liteos/base/ipc/los_queue.c ****     g_pstAllQueue = (QUEUE_CB_S *)LOS_MemAlloc(m_aucSysMem0, LOSCFG_BASE_IPC_QUEUE_LIMIT * sizeof(Q
 324              		.loc 2 76 35
 325 0006 1D4B     		ldr	r3, .L12
 326 0008 1B68     		ldr	r3, [r3]
 327 000a 4FF4DC71 		mov	r1, #440
 328 000e 1846     		mov	r0, r3
 329 0010 FFF7FEFF 		bl	LOS_MemAlloc
 330 0014 0346     		mov	r3, r0
 331              		.loc 2 76 19
 332 0016 1A4A     		ldr	r2, .L12+4
 333 0018 1360     		str	r3, [r2]
  77:/home/fanxinhao/Work/LiteOS_Lab/iot_link/os/liteos/base/ipc/los_queue.c ****     if (NULL == g_pstAllQueue)
 334              		.loc 2 77 14
 335 001a 194B     		ldr	r3, .L12+4
 336 001c 1B68     		ldr	r3, [r3]
 337              		.loc 2 77 8
 338 001e 002B     		cmp	r3, #0
 339 0020 01D1     		bne	.L8
  78:/home/fanxinhao/Work/LiteOS_Lab/iot_link/os/liteos/base/ipc/los_queue.c ****     {
  79:/home/fanxinhao/Work/LiteOS_Lab/iot_link/os/liteos/base/ipc/los_queue.c ****         return LOS_ERRNO_QUEUE_NO_MEMORY;
 340              		.loc 2 79 16
 341 0022 184B     		ldr	r3, .L12+8
 342 0024 25E0     		b	.L9
 343              	.L8:
ARM GAS  /tmp/ccK7oid1.s 			page 12


  80:/home/fanxinhao/Work/LiteOS_Lab/iot_link/os/liteos/base/ipc/los_queue.c ****     }
  81:/home/fanxinhao/Work/LiteOS_Lab/iot_link/os/liteos/base/ipc/los_queue.c **** 
  82:/home/fanxinhao/Work/LiteOS_Lab/iot_link/os/liteos/base/ipc/los_queue.c ****     (VOID)memset(g_pstAllQueue, 0, LOSCFG_BASE_IPC_QUEUE_LIMIT * sizeof(QUEUE_CB_S));
 344              		.loc 2 82 11
 345 0026 164B     		ldr	r3, .L12+4
 346 0028 1B68     		ldr	r3, [r3]
 347 002a 4FF4DC72 		mov	r2, #440
 348 002e 0021     		movs	r1, #0
 349 0030 1846     		mov	r0, r3
 350 0032 FFF7FEFF 		bl	memset
  83:/home/fanxinhao/Work/LiteOS_Lab/iot_link/os/liteos/base/ipc/los_queue.c **** 
  84:/home/fanxinhao/Work/LiteOS_Lab/iot_link/os/liteos/base/ipc/los_queue.c ****     LOS_ListInit(&g_stFreeQueueList);
 351              		.loc 2 84 5
 352 0036 1448     		ldr	r0, .L12+12
 353 0038 FFF7FEFF 		bl	LOS_ListInit
  85:/home/fanxinhao/Work/LiteOS_Lab/iot_link/os/liteos/base/ipc/los_queue.c ****     for (usIndex = 0; usIndex < LOSCFG_BASE_IPC_QUEUE_LIMIT; usIndex++)
 354              		.loc 2 85 18
 355 003c 0023     		movs	r3, #0
 356 003e FB80     		strh	r3, [r7, #6]	@ movhi
 357              		.loc 2 85 5
 358 0040 13E0     		b	.L10
 359              	.L11:
  86:/home/fanxinhao/Work/LiteOS_Lab/iot_link/os/liteos/base/ipc/los_queue.c ****     {
  87:/home/fanxinhao/Work/LiteOS_Lab/iot_link/os/liteos/base/ipc/los_queue.c ****         pstQueueNode = ((QUEUE_CB_S *)g_pstAllQueue) + usIndex;
 360              		.loc 2 87 54 discriminator 3
 361 0042 0F4B     		ldr	r3, .L12+4
 362 0044 1A68     		ldr	r2, [r3]
 363 0046 FB88     		ldrh	r3, [r7, #6]
 364 0048 2C21     		movs	r1, #44
 365 004a 01FB03F3 		mul	r3, r1, r3
 366              		.loc 2 87 22 discriminator 3
 367 004e 1344     		add	r3, r3, r2
 368 0050 3B60     		str	r3, [r7]
  88:/home/fanxinhao/Work/LiteOS_Lab/iot_link/os/liteos/base/ipc/los_queue.c ****         pstQueueNode->usQueueID = usIndex;
 369              		.loc 2 88 33 discriminator 3
 370 0052 3B68     		ldr	r3, [r7]
 371 0054 FA88     		ldrh	r2, [r7, #6]	@ movhi
 372 0056 5A81     		strh	r2, [r3, #10]	@ movhi
  89:/home/fanxinhao/Work/LiteOS_Lab/iot_link/os/liteos/base/ipc/los_queue.c ****         LOS_ListTailInsert(&g_stFreeQueueList, &pstQueueNode->stReadWriteList[OS_QUEUE_WRITE]);
 373              		.loc 2 89 9 discriminator 3
 374 0058 3B68     		ldr	r3, [r7]
 375 005a 1C33     		adds	r3, r3, #28
 376 005c 1946     		mov	r1, r3
 377 005e 0A48     		ldr	r0, .L12+12
 378 0060 FFF7FEFF 		bl	LOS_ListTailInsert
  85:/home/fanxinhao/Work/LiteOS_Lab/iot_link/os/liteos/base/ipc/los_queue.c ****     {
 379              		.loc 2 85 69 discriminator 3
 380 0064 FB88     		ldrh	r3, [r7, #6]
 381 0066 0133     		adds	r3, r3, #1
 382 0068 FB80     		strh	r3, [r7, #6]	@ movhi
 383              	.L10:
  85:/home/fanxinhao/Work/LiteOS_Lab/iot_link/os/liteos/base/ipc/los_queue.c ****     {
 384              		.loc 2 85 5 discriminator 1
 385 006a FB88     		ldrh	r3, [r7, #6]
 386 006c 092B     		cmp	r3, #9
 387 006e E8D9     		bls	.L11
  90:/home/fanxinhao/Work/LiteOS_Lab/iot_link/os/liteos/base/ipc/los_queue.c ****     }
ARM GAS  /tmp/ccK7oid1.s 			page 13


  91:/home/fanxinhao/Work/LiteOS_Lab/iot_link/os/liteos/base/ipc/los_queue.c **** 
  92:/home/fanxinhao/Work/LiteOS_Lab/iot_link/os/liteos/base/ipc/los_queue.c **** #if ((LOSCFG_PLATFORM_EXC == YES) && (LOSCFG_SAVE_EXC_INFO == YES))
  93:/home/fanxinhao/Work/LiteOS_Lab/iot_link/os/liteos/base/ipc/los_queue.c ****     g_uwExcQueueMaxNum = LOSCFG_BASE_IPC_QUEUE_LIMIT;
  94:/home/fanxinhao/Work/LiteOS_Lab/iot_link/os/liteos/base/ipc/los_queue.c ****     osExcRegister(OS_EXC_TYPE_QUE, (EXC_INFO_SAVE_CALLBACK)LOS_QueueInfoGet, &g_uwExcQueueMaxNum);
  95:/home/fanxinhao/Work/LiteOS_Lab/iot_link/os/liteos/base/ipc/los_queue.c **** #endif
  96:/home/fanxinhao/Work/LiteOS_Lab/iot_link/os/liteos/base/ipc/los_queue.c **** 
  97:/home/fanxinhao/Work/LiteOS_Lab/iot_link/os/liteos/base/ipc/los_queue.c ****     return LOS_OK;
 388              		.loc 2 97 12
 389 0070 0023     		movs	r3, #0
 390              	.L9:
  98:/home/fanxinhao/Work/LiteOS_Lab/iot_link/os/liteos/base/ipc/los_queue.c **** }
 391              		.loc 2 98 1
 392 0072 1846     		mov	r0, r3
 393 0074 0837     		adds	r7, r7, #8
 394              	.LCFI32:
 395              		.cfi_def_cfa_offset 8
 396 0076 BD46     		mov	sp, r7
 397              	.LCFI33:
 398              		.cfi_def_cfa_register 13
 399              		@ sp needed
 400 0078 80BD     		pop	{r7, pc}
 401              	.L13:
 402 007a 00BF     		.align	2
 403              	.L12:
 404 007c 00000000 		.word	m_aucSysMem0
 405 0080 00000000 		.word	g_pstAllQueue
 406 0084 01060002 		.word	33555969
 407 0088 00000000 		.word	g_stFreeQueueList
 408              		.cfi_endproc
 409              	.LFE133:
 411              		.section	.text.LOS_QueueCreate,"ax",%progbits
 412              		.align	1
 413              		.global	LOS_QueueCreate
 414              		.syntax unified
 415              		.thumb
 416              		.thumb_func
 417              		.fpu fpv4-sp-d16
 419              	LOS_QueueCreate:
 420              	.LFB134:
  99:/home/fanxinhao/Work/LiteOS_Lab/iot_link/os/liteos/base/ipc/los_queue.c **** 
 100:/home/fanxinhao/Work/LiteOS_Lab/iot_link/os/liteos/base/ipc/los_queue.c **** /*****************************************************************************
 101:/home/fanxinhao/Work/LiteOS_Lab/iot_link/os/liteos/base/ipc/los_queue.c ****  Function    : LOS_QueueCreate
 102:/home/fanxinhao/Work/LiteOS_Lab/iot_link/os/liteos/base/ipc/los_queue.c ****  Description : Create a queue
 103:/home/fanxinhao/Work/LiteOS_Lab/iot_link/os/liteos/base/ipc/los_queue.c ****  Input       : pcQueueName  --- Queue name, less than 4 characters
 104:/home/fanxinhao/Work/LiteOS_Lab/iot_link/os/liteos/base/ipc/los_queue.c ****                usLen        --- Queue lenth
 105:/home/fanxinhao/Work/LiteOS_Lab/iot_link/os/liteos/base/ipc/los_queue.c ****                uwFlags      --- Queue type, FIFO or PRIO
 106:/home/fanxinhao/Work/LiteOS_Lab/iot_link/os/liteos/base/ipc/los_queue.c ****                usMaxMsgSize --- Maximum message size in byte
 107:/home/fanxinhao/Work/LiteOS_Lab/iot_link/os/liteos/base/ipc/los_queue.c ****  Output      : puwQueueID   --- Queue ID
 108:/home/fanxinhao/Work/LiteOS_Lab/iot_link/os/liteos/base/ipc/los_queue.c ****  Return      : LOS_OK on success or error code on failure
 109:/home/fanxinhao/Work/LiteOS_Lab/iot_link/os/liteos/base/ipc/los_queue.c ****  *****************************************************************************/
 110:/home/fanxinhao/Work/LiteOS_Lab/iot_link/os/liteos/base/ipc/los_queue.c **** LITE_OS_SEC_TEXT_INIT UINT32 LOS_QueueCreate(CHAR *pcQueueName,
 111:/home/fanxinhao/Work/LiteOS_Lab/iot_link/os/liteos/base/ipc/los_queue.c ****                                           UINT16 usLen,
 112:/home/fanxinhao/Work/LiteOS_Lab/iot_link/os/liteos/base/ipc/los_queue.c ****                                           UINT32 *puwQueueID,
 113:/home/fanxinhao/Work/LiteOS_Lab/iot_link/os/liteos/base/ipc/los_queue.c ****                                           UINT32 uwFlags,
 114:/home/fanxinhao/Work/LiteOS_Lab/iot_link/os/liteos/base/ipc/los_queue.c ****                                           UINT16 usMaxMsgSize )
 115:/home/fanxinhao/Work/LiteOS_Lab/iot_link/os/liteos/base/ipc/los_queue.c **** {
 421              		.loc 2 115 1
ARM GAS  /tmp/ccK7oid1.s 			page 14


 422              		.cfi_startproc
 423              		@ args = 4, pretend = 0, frame = 40
 424              		@ frame_needed = 1, uses_anonymous_args = 0
 425 0000 80B5     		push	{r7, lr}
 426              	.LCFI34:
 427              		.cfi_def_cfa_offset 8
 428              		.cfi_offset 7, -8
 429              		.cfi_offset 14, -4
 430 0002 8AB0     		sub	sp, sp, #40
 431              	.LCFI35:
 432              		.cfi_def_cfa_offset 48
 433 0004 00AF     		add	r7, sp, #0
 434              	.LCFI36:
 435              		.cfi_def_cfa_register 7
 436 0006 F860     		str	r0, [r7, #12]
 437 0008 7A60     		str	r2, [r7, #4]
 438 000a 3B60     		str	r3, [r7]
 439 000c 0B46     		mov	r3, r1	@ movhi
 440 000e 7B81     		strh	r3, [r7, #10]	@ movhi
 116:/home/fanxinhao/Work/LiteOS_Lab/iot_link/os/liteos/base/ipc/los_queue.c ****     QUEUE_CB_S      *pstQueueCB;
 117:/home/fanxinhao/Work/LiteOS_Lab/iot_link/os/liteos/base/ipc/los_queue.c ****     UINTPTR         uvIntSave;
 118:/home/fanxinhao/Work/LiteOS_Lab/iot_link/os/liteos/base/ipc/los_queue.c ****     LOS_DL_LIST     *pstUnusedQueue;
 119:/home/fanxinhao/Work/LiteOS_Lab/iot_link/os/liteos/base/ipc/los_queue.c ****     UINT8           *pucQueue;
 120:/home/fanxinhao/Work/LiteOS_Lab/iot_link/os/liteos/base/ipc/los_queue.c ****     UINT16          usMsgSize = usMaxMsgSize + sizeof(UINT32);
 441              		.loc 2 120 21
 442 0010 3B8E     		ldrh	r3, [r7, #48]	@ movhi
 443 0012 0433     		adds	r3, r3, #4
 444 0014 FB84     		strh	r3, [r7, #38]	@ movhi
 121:/home/fanxinhao/Work/LiteOS_Lab/iot_link/os/liteos/base/ipc/los_queue.c **** 
 122:/home/fanxinhao/Work/LiteOS_Lab/iot_link/os/liteos/base/ipc/los_queue.c ****     (VOID)pcQueueName;
 123:/home/fanxinhao/Work/LiteOS_Lab/iot_link/os/liteos/base/ipc/los_queue.c ****     (VOID)uwFlags;
 124:/home/fanxinhao/Work/LiteOS_Lab/iot_link/os/liteos/base/ipc/los_queue.c **** 
 125:/home/fanxinhao/Work/LiteOS_Lab/iot_link/os/liteos/base/ipc/los_queue.c ****     if (NULL == puwQueueID)
 445              		.loc 2 125 8
 446 0016 7B68     		ldr	r3, [r7, #4]
 447 0018 002B     		cmp	r3, #0
 448 001a 01D1     		bne	.L15
 126:/home/fanxinhao/Work/LiteOS_Lab/iot_link/os/liteos/base/ipc/los_queue.c ****     {
 127:/home/fanxinhao/Work/LiteOS_Lab/iot_link/os/liteos/base/ipc/los_queue.c ****         return LOS_ERRNO_QUEUE_CREAT_PTR_NULL;
 449              		.loc 2 127 16
 450 001c 384B     		ldr	r3, .L22
 451 001e 6AE0     		b	.L16
 452              	.L15:
 128:/home/fanxinhao/Work/LiteOS_Lab/iot_link/os/liteos/base/ipc/los_queue.c ****     }
 129:/home/fanxinhao/Work/LiteOS_Lab/iot_link/os/liteos/base/ipc/los_queue.c **** 
 130:/home/fanxinhao/Work/LiteOS_Lab/iot_link/os/liteos/base/ipc/los_queue.c ****     if(usMaxMsgSize > OS_NULL_SHORT -4)
 453              		.loc 2 130 7
 454 0020 3B8E     		ldrh	r3, [r7, #48]
 455 0022 4FF6FB72 		movw	r2, #65531
 456 0026 9342     		cmp	r3, r2
 457 0028 01D9     		bls	.L17
 131:/home/fanxinhao/Work/LiteOS_Lab/iot_link/os/liteos/base/ipc/los_queue.c ****     {
 132:/home/fanxinhao/Work/LiteOS_Lab/iot_link/os/liteos/base/ipc/los_queue.c ****         return LOS_ERRNO_QUEUE_SIZE_TOO_BIG;
 458              		.loc 2 132 16
 459 002a 364B     		ldr	r3, .L22+4
 460 002c 63E0     		b	.L16
 461              	.L17:
ARM GAS  /tmp/ccK7oid1.s 			page 15


 133:/home/fanxinhao/Work/LiteOS_Lab/iot_link/os/liteos/base/ipc/los_queue.c ****     }
 134:/home/fanxinhao/Work/LiteOS_Lab/iot_link/os/liteos/base/ipc/los_queue.c **** 
 135:/home/fanxinhao/Work/LiteOS_Lab/iot_link/os/liteos/base/ipc/los_queue.c ****     if ((0 == usLen) || (0 == usMaxMsgSize))
 462              		.loc 2 135 8
 463 002e 7B89     		ldrh	r3, [r7, #10]
 464 0030 002B     		cmp	r3, #0
 465 0032 02D0     		beq	.L18
 466              		.loc 2 135 22 discriminator 1
 467 0034 3B8E     		ldrh	r3, [r7, #48]
 468 0036 002B     		cmp	r3, #0
 469 0038 01D1     		bne	.L19
 470              	.L18:
 136:/home/fanxinhao/Work/LiteOS_Lab/iot_link/os/liteos/base/ipc/los_queue.c ****     {
 137:/home/fanxinhao/Work/LiteOS_Lab/iot_link/os/liteos/base/ipc/los_queue.c ****         return LOS_ERRNO_QUEUE_PARA_ISZERO;
 471              		.loc 2 137 16
 472 003a 334B     		ldr	r3, .L22+8
 473 003c 5BE0     		b	.L16
 474              	.L19:
 138:/home/fanxinhao/Work/LiteOS_Lab/iot_link/os/liteos/base/ipc/los_queue.c ****     }
 139:/home/fanxinhao/Work/LiteOS_Lab/iot_link/os/liteos/base/ipc/los_queue.c **** 
 140:/home/fanxinhao/Work/LiteOS_Lab/iot_link/os/liteos/base/ipc/los_queue.c ****     /* Memory allocation is time-consuming, to shorten the time of disable interrupt,
 141:/home/fanxinhao/Work/LiteOS_Lab/iot_link/os/liteos/base/ipc/los_queue.c ****        move the memory allocation to here. */
 142:/home/fanxinhao/Work/LiteOS_Lab/iot_link/os/liteos/base/ipc/los_queue.c ****     pucQueue = (UINT8 *)LOS_MemAlloc(m_aucSysMem0, usLen * usMsgSize);
 475              		.loc 2 142 25
 476 003e 334B     		ldr	r3, .L22+12
 477 0040 1868     		ldr	r0, [r3]
 478              		.loc 2 142 58
 479 0042 7B89     		ldrh	r3, [r7, #10]
 480 0044 FA8C     		ldrh	r2, [r7, #38]
 481 0046 02FB03F3 		mul	r3, r2, r3
 482              		.loc 2 142 25
 483 004a 1946     		mov	r1, r3
 484 004c FFF7FEFF 		bl	LOS_MemAlloc
 485 0050 3862     		str	r0, [r7, #32]
 143:/home/fanxinhao/Work/LiteOS_Lab/iot_link/os/liteos/base/ipc/los_queue.c ****     if (NULL == pucQueue)
 486              		.loc 2 143 8
 487 0052 3B6A     		ldr	r3, [r7, #32]
 488 0054 002B     		cmp	r3, #0
 489 0056 01D1     		bne	.L20
 144:/home/fanxinhao/Work/LiteOS_Lab/iot_link/os/liteos/base/ipc/los_queue.c ****     {
 145:/home/fanxinhao/Work/LiteOS_Lab/iot_link/os/liteos/base/ipc/los_queue.c ****         return LOS_ERRNO_QUEUE_CREATE_NO_MEMORY;
 490              		.loc 2 145 16
 491 0058 2D4B     		ldr	r3, .L22+16
 492 005a 4CE0     		b	.L16
 493              	.L20:
 146:/home/fanxinhao/Work/LiteOS_Lab/iot_link/os/liteos/base/ipc/los_queue.c ****     }
 147:/home/fanxinhao/Work/LiteOS_Lab/iot_link/os/liteos/base/ipc/los_queue.c **** 
 148:/home/fanxinhao/Work/LiteOS_Lab/iot_link/os/liteos/base/ipc/los_queue.c ****     uvIntSave = LOS_IntLock();
 494              		.loc 2 148 17
 495 005c FFF7FEFF 		bl	LOS_IntLock
 496 0060 F861     		str	r0, [r7, #28]
 149:/home/fanxinhao/Work/LiteOS_Lab/iot_link/os/liteos/base/ipc/los_queue.c ****     if (LOS_ListEmpty(&g_stFreeQueueList))
 497              		.loc 2 149 9
 498 0062 2C48     		ldr	r0, .L22+20
 499 0064 FFF7FEFF 		bl	LOS_ListEmpty
 500 0068 0346     		mov	r3, r0
 501              		.loc 2 149 8
ARM GAS  /tmp/ccK7oid1.s 			page 16


 502 006a 002B     		cmp	r3, #0
 503 006c 0AD0     		beq	.L21
 150:/home/fanxinhao/Work/LiteOS_Lab/iot_link/os/liteos/base/ipc/los_queue.c ****     {
 151:/home/fanxinhao/Work/LiteOS_Lab/iot_link/os/liteos/base/ipc/los_queue.c ****         LOS_IntRestore(uvIntSave);
 504              		.loc 2 151 9
 505 006e F869     		ldr	r0, [r7, #28]
 506 0070 FFF7FEFF 		bl	LOS_IntRestore
 152:/home/fanxinhao/Work/LiteOS_Lab/iot_link/os/liteos/base/ipc/los_queue.c ****         (VOID)LOS_MemFree(m_aucSysMem0, pucQueue);
 507              		.loc 2 152 15
 508 0074 254B     		ldr	r3, .L22+12
 509 0076 1B68     		ldr	r3, [r3]
 510 0078 396A     		ldr	r1, [r7, #32]
 511 007a 1846     		mov	r0, r3
 512 007c FFF7FEFF 		bl	LOS_MemFree
 153:/home/fanxinhao/Work/LiteOS_Lab/iot_link/os/liteos/base/ipc/los_queue.c ****         return LOS_ERRNO_QUEUE_CB_UNAVAILABLE;
 513              		.loc 2 153 16
 514 0080 254B     		ldr	r3, .L22+24
 515 0082 38E0     		b	.L16
 516              	.L21:
 154:/home/fanxinhao/Work/LiteOS_Lab/iot_link/os/liteos/base/ipc/los_queue.c ****     }
 155:/home/fanxinhao/Work/LiteOS_Lab/iot_link/os/liteos/base/ipc/los_queue.c **** 
 156:/home/fanxinhao/Work/LiteOS_Lab/iot_link/os/liteos/base/ipc/los_queue.c ****     pstUnusedQueue = LOS_DL_LIST_FIRST(&(g_stFreeQueueList));
 517              		.loc 2 156 20
 518 0084 234B     		ldr	r3, .L22+20
 519 0086 5B68     		ldr	r3, [r3, #4]
 520 0088 BB61     		str	r3, [r7, #24]
 157:/home/fanxinhao/Work/LiteOS_Lab/iot_link/os/liteos/base/ipc/los_queue.c ****     LOS_ListDelete(pstUnusedQueue);
 521              		.loc 2 157 5
 522 008a B869     		ldr	r0, [r7, #24]
 523 008c FFF7FEFF 		bl	LOS_ListDelete
 158:/home/fanxinhao/Work/LiteOS_Lab/iot_link/os/liteos/base/ipc/los_queue.c ****     pstQueueCB = (GET_QUEUE_LIST(pstUnusedQueue));
 524              		.loc 2 158 16
 525 0090 BB69     		ldr	r3, [r7, #24]
 526 0092 1C3B     		subs	r3, r3, #28
 527 0094 7B61     		str	r3, [r7, #20]
 159:/home/fanxinhao/Work/LiteOS_Lab/iot_link/os/liteos/base/ipc/los_queue.c ****     pstQueueCB->usQueueLen = usLen;
 528              		.loc 2 159 28
 529 0096 7B69     		ldr	r3, [r7, #20]
 530 0098 7A89     		ldrh	r2, [r7, #10]	@ movhi
 531 009a DA80     		strh	r2, [r3, #6]	@ movhi
 160:/home/fanxinhao/Work/LiteOS_Lab/iot_link/os/liteos/base/ipc/los_queue.c ****     pstQueueCB->usQueueSize = usMsgSize;
 532              		.loc 2 160 29
 533 009c 7B69     		ldr	r3, [r7, #20]
 534 009e FA8C     		ldrh	r2, [r7, #38]	@ movhi
 535 00a0 1A81     		strh	r2, [r3, #8]	@ movhi
 161:/home/fanxinhao/Work/LiteOS_Lab/iot_link/os/liteos/base/ipc/los_queue.c ****     pstQueueCB->pucQueue = pucQueue;
 536              		.loc 2 161 26
 537 00a2 7B69     		ldr	r3, [r7, #20]
 538 00a4 3A6A     		ldr	r2, [r7, #32]
 539 00a6 1A60     		str	r2, [r3]
 162:/home/fanxinhao/Work/LiteOS_Lab/iot_link/os/liteos/base/ipc/los_queue.c ****     pstQueueCB->usQueueState = OS_QUEUE_INUSED;
 540              		.loc 2 162 30
 541 00a8 7B69     		ldr	r3, [r7, #20]
 542 00aa 0122     		movs	r2, #1
 543 00ac 9A80     		strh	r2, [r3, #4]	@ movhi
 163:/home/fanxinhao/Work/LiteOS_Lab/iot_link/os/liteos/base/ipc/los_queue.c ****     pstQueueCB->usReadWriteableCnt[OS_QUEUE_READ]  = 0;
 544              		.loc 2 163 52
ARM GAS  /tmp/ccK7oid1.s 			page 17


 545 00ae 7B69     		ldr	r3, [r7, #20]
 546 00b0 0022     		movs	r2, #0
 547 00b2 1A82     		strh	r2, [r3, #16]	@ movhi
 164:/home/fanxinhao/Work/LiteOS_Lab/iot_link/os/liteos/base/ipc/los_queue.c ****     pstQueueCB->usReadWriteableCnt[OS_QUEUE_WRITE] = usLen;
 548              		.loc 2 164 52
 549 00b4 7B69     		ldr	r3, [r7, #20]
 550 00b6 7A89     		ldrh	r2, [r7, #10]	@ movhi
 551 00b8 5A82     		strh	r2, [r3, #18]	@ movhi
 165:/home/fanxinhao/Work/LiteOS_Lab/iot_link/os/liteos/base/ipc/los_queue.c ****     pstQueueCB->usQueueHead = 0;
 552              		.loc 2 165 29
 553 00ba 7B69     		ldr	r3, [r7, #20]
 554 00bc 0022     		movs	r2, #0
 555 00be 9A81     		strh	r2, [r3, #12]	@ movhi
 166:/home/fanxinhao/Work/LiteOS_Lab/iot_link/os/liteos/base/ipc/los_queue.c ****     pstQueueCB->usQueueTail = 0;
 556              		.loc 2 166 29
 557 00c0 7B69     		ldr	r3, [r7, #20]
 558 00c2 0022     		movs	r2, #0
 559 00c4 DA81     		strh	r2, [r3, #14]	@ movhi
 167:/home/fanxinhao/Work/LiteOS_Lab/iot_link/os/liteos/base/ipc/los_queue.c ****     LOS_ListInit(&pstQueueCB->stReadWriteList[OS_QUEUE_READ]);
 560              		.loc 2 167 5
 561 00c6 7B69     		ldr	r3, [r7, #20]
 562 00c8 1433     		adds	r3, r3, #20
 563 00ca 1846     		mov	r0, r3
 564 00cc FFF7FEFF 		bl	LOS_ListInit
 168:/home/fanxinhao/Work/LiteOS_Lab/iot_link/os/liteos/base/ipc/los_queue.c ****     LOS_ListInit(&pstQueueCB->stReadWriteList[OS_QUEUE_WRITE]);
 565              		.loc 2 168 5
 566 00d0 7B69     		ldr	r3, [r7, #20]
 567 00d2 1C33     		adds	r3, r3, #28
 568 00d4 1846     		mov	r0, r3
 569 00d6 FFF7FEFF 		bl	LOS_ListInit
 169:/home/fanxinhao/Work/LiteOS_Lab/iot_link/os/liteos/base/ipc/los_queue.c ****     LOS_ListInit(&pstQueueCB->stMemList);
 570              		.loc 2 169 5
 571 00da 7B69     		ldr	r3, [r7, #20]
 572 00dc 2433     		adds	r3, r3, #36
 573 00de 1846     		mov	r0, r3
 574 00e0 FFF7FEFF 		bl	LOS_ListInit
 170:/home/fanxinhao/Work/LiteOS_Lab/iot_link/os/liteos/base/ipc/los_queue.c ****     LOS_IntRestore(uvIntSave);
 575              		.loc 2 170 5
 576 00e4 F869     		ldr	r0, [r7, #28]
 577 00e6 FFF7FEFF 		bl	LOS_IntRestore
 171:/home/fanxinhao/Work/LiteOS_Lab/iot_link/os/liteos/base/ipc/los_queue.c **** 
 172:/home/fanxinhao/Work/LiteOS_Lab/iot_link/os/liteos/base/ipc/los_queue.c ****     *puwQueueID = pstQueueCB->usQueueID;
 578              		.loc 2 172 29
 579 00ea 7B69     		ldr	r3, [r7, #20]
 580 00ec 5B89     		ldrh	r3, [r3, #10]
 581 00ee 1A46     		mov	r2, r3
 582              		.loc 2 172 17
 583 00f0 7B68     		ldr	r3, [r7, #4]
 584 00f2 1A60     		str	r2, [r3]
 173:/home/fanxinhao/Work/LiteOS_Lab/iot_link/os/liteos/base/ipc/los_queue.c **** 
 174:/home/fanxinhao/Work/LiteOS_Lab/iot_link/os/liteos/base/ipc/los_queue.c ****     return LOS_OK;
 585              		.loc 2 174 12
 586 00f4 0023     		movs	r3, #0
 587              	.L16:
 175:/home/fanxinhao/Work/LiteOS_Lab/iot_link/os/liteos/base/ipc/los_queue.c **** }
 588              		.loc 2 175 1
 589 00f6 1846     		mov	r0, r3
ARM GAS  /tmp/ccK7oid1.s 			page 18


 590 00f8 2837     		adds	r7, r7, #40
 591              	.LCFI37:
 592              		.cfi_def_cfa_offset 8
 593 00fa BD46     		mov	sp, r7
 594              	.LCFI38:
 595              		.cfi_def_cfa_register 13
 596              		@ sp needed
 597 00fc 80BD     		pop	{r7, pc}
 598              	.L23:
 599 00fe 00BF     		.align	2
 600              	.L22:
 601 0100 0C060002 		.word	33555980
 602 0104 03060002 		.word	33555971
 603 0108 0D060002 		.word	33555981
 604 010c 00000000 		.word	m_aucSysMem0
 605 0110 02060002 		.word	33555970
 606 0114 00000000 		.word	g_stFreeQueueList
 607 0118 04060002 		.word	33555972
 608              		.cfi_endproc
 609              	.LFE134:
 611              		.section	.text.osQueueReadParameterCheck,"ax",%progbits
 612              		.align	1
 613              		.syntax unified
 614              		.thumb
 615              		.thumb_func
 616              		.fpu fpv4-sp-d16
 618              	osQueueReadParameterCheck:
 619              	.LFB135:
 176:/home/fanxinhao/Work/LiteOS_Lab/iot_link/os/liteos/base/ipc/los_queue.c **** 
 177:/home/fanxinhao/Work/LiteOS_Lab/iot_link/os/liteos/base/ipc/los_queue.c **** LITE_OS_SEC_TEXT static INLINE UINT32 osQueueReadParameterCheck(UINT32 uwQueueID, VOID *pBufferAddr
 178:/home/fanxinhao/Work/LiteOS_Lab/iot_link/os/liteos/base/ipc/los_queue.c **** {
 620              		.loc 2 178 1
 621              		.cfi_startproc
 622              		@ args = 0, pretend = 0, frame = 16
 623              		@ frame_needed = 1, uses_anonymous_args = 0
 624              		@ link register save eliminated.
 625 0000 80B4     		push	{r7}
 626              	.LCFI39:
 627              		.cfi_def_cfa_offset 4
 628              		.cfi_offset 7, -4
 629 0002 85B0     		sub	sp, sp, #20
 630              	.LCFI40:
 631              		.cfi_def_cfa_offset 24
 632 0004 00AF     		add	r7, sp, #0
 633              	.LCFI41:
 634              		.cfi_def_cfa_register 7
 635 0006 F860     		str	r0, [r7, #12]
 636 0008 B960     		str	r1, [r7, #8]
 637 000a 7A60     		str	r2, [r7, #4]
 638 000c 3B60     		str	r3, [r7]
 179:/home/fanxinhao/Work/LiteOS_Lab/iot_link/os/liteos/base/ipc/los_queue.c ****     if (uwQueueID >= LOSCFG_BASE_IPC_QUEUE_LIMIT)
 639              		.loc 2 179 8
 640 000e FB68     		ldr	r3, [r7, #12]
 641 0010 092B     		cmp	r3, #9
 642 0012 01D9     		bls	.L25
 180:/home/fanxinhao/Work/LiteOS_Lab/iot_link/os/liteos/base/ipc/los_queue.c ****     {
 181:/home/fanxinhao/Work/LiteOS_Lab/iot_link/os/liteos/base/ipc/los_queue.c ****         return LOS_ERRNO_QUEUE_INVALID;
ARM GAS  /tmp/ccK7oid1.s 			page 19


 643              		.loc 2 181 16
 644 0014 0F4B     		ldr	r3, .L31
 645 0016 17E0     		b	.L26
 646              	.L25:
 182:/home/fanxinhao/Work/LiteOS_Lab/iot_link/os/liteos/base/ipc/los_queue.c ****     }
 183:/home/fanxinhao/Work/LiteOS_Lab/iot_link/os/liteos/base/ipc/los_queue.c ****     if ((NULL == pBufferAddr) || (NULL == puwBufferSize))
 647              		.loc 2 183 8
 648 0018 BB68     		ldr	r3, [r7, #8]
 649 001a 002B     		cmp	r3, #0
 650 001c 02D0     		beq	.L27
 651              		.loc 2 183 31 discriminator 1
 652 001e 7B68     		ldr	r3, [r7, #4]
 653 0020 002B     		cmp	r3, #0
 654 0022 01D1     		bne	.L28
 655              	.L27:
 184:/home/fanxinhao/Work/LiteOS_Lab/iot_link/os/liteos/base/ipc/los_queue.c ****     {
 185:/home/fanxinhao/Work/LiteOS_Lab/iot_link/os/liteos/base/ipc/los_queue.c ****         return LOS_ERRNO_QUEUE_READ_PTR_NULL;
 656              		.loc 2 185 16
 657 0024 0C4B     		ldr	r3, .L31+4
 658 0026 0FE0     		b	.L26
 659              	.L28:
 186:/home/fanxinhao/Work/LiteOS_Lab/iot_link/os/liteos/base/ipc/los_queue.c ****     }
 187:/home/fanxinhao/Work/LiteOS_Lab/iot_link/os/liteos/base/ipc/los_queue.c **** 
 188:/home/fanxinhao/Work/LiteOS_Lab/iot_link/os/liteos/base/ipc/los_queue.c ****     if (0 == *puwBufferSize)
 660              		.loc 2 188 14
 661 0028 7B68     		ldr	r3, [r7, #4]
 662 002a 1B68     		ldr	r3, [r3]
 663              		.loc 2 188 8
 664 002c 002B     		cmp	r3, #0
 665 002e 01D1     		bne	.L29
 189:/home/fanxinhao/Work/LiteOS_Lab/iot_link/os/liteos/base/ipc/los_queue.c ****     {
 190:/home/fanxinhao/Work/LiteOS_Lab/iot_link/os/liteos/base/ipc/los_queue.c ****         return LOS_ERRNO_QUEUE_READSIZE_ISZERO;
 666              		.loc 2 190 16
 667 0030 0A4B     		ldr	r3, .L31+8
 668 0032 09E0     		b	.L26
 669              	.L29:
 191:/home/fanxinhao/Work/LiteOS_Lab/iot_link/os/liteos/base/ipc/los_queue.c ****     }
 192:/home/fanxinhao/Work/LiteOS_Lab/iot_link/os/liteos/base/ipc/los_queue.c **** 
 193:/home/fanxinhao/Work/LiteOS_Lab/iot_link/os/liteos/base/ipc/los_queue.c ****     if (LOS_NO_WAIT != uwTimeOut)
 670              		.loc 2 193 8
 671 0034 3B68     		ldr	r3, [r7]
 672 0036 002B     		cmp	r3, #0
 673 0038 05D0     		beq	.L30
 194:/home/fanxinhao/Work/LiteOS_Lab/iot_link/os/liteos/base/ipc/los_queue.c ****     {
 195:/home/fanxinhao/Work/LiteOS_Lab/iot_link/os/liteos/base/ipc/los_queue.c ****         if (OS_INT_ACTIVE)
 674              		.loc 2 195 13
 675 003a 094B     		ldr	r3, .L31+12
 676 003c 1B68     		ldr	r3, [r3]
 677              		.loc 2 195 12
 678 003e 002B     		cmp	r3, #0
 679 0040 01D0     		beq	.L30
 196:/home/fanxinhao/Work/LiteOS_Lab/iot_link/os/liteos/base/ipc/los_queue.c ****         {
 197:/home/fanxinhao/Work/LiteOS_Lab/iot_link/os/liteos/base/ipc/los_queue.c ****             return LOS_ERRNO_QUEUE_READ_IN_INTERRUPT;
 680              		.loc 2 197 20
 681 0042 084B     		ldr	r3, .L31+16
 682 0044 00E0     		b	.L26
 683              	.L30:
ARM GAS  /tmp/ccK7oid1.s 			page 20


 198:/home/fanxinhao/Work/LiteOS_Lab/iot_link/os/liteos/base/ipc/los_queue.c ****         }
 199:/home/fanxinhao/Work/LiteOS_Lab/iot_link/os/liteos/base/ipc/los_queue.c ****     }
 200:/home/fanxinhao/Work/LiteOS_Lab/iot_link/os/liteos/base/ipc/los_queue.c ****     return LOS_OK;
 684              		.loc 2 200 12
 685 0046 0023     		movs	r3, #0
 686              	.L26:
 201:/home/fanxinhao/Work/LiteOS_Lab/iot_link/os/liteos/base/ipc/los_queue.c **** }
 687              		.loc 2 201 1
 688 0048 1846     		mov	r0, r3
 689 004a 1437     		adds	r7, r7, #20
 690              	.LCFI42:
 691              		.cfi_def_cfa_offset 4
 692 004c BD46     		mov	sp, r7
 693              	.LCFI43:
 694              		.cfi_def_cfa_register 13
 695              		@ sp needed
 696 004e 5DF8047B 		ldr	r7, [sp], #4
 697              	.LCFI44:
 698              		.cfi_restore 7
 699              		.cfi_def_cfa_offset 0
 700 0052 7047     		bx	lr
 701              	.L32:
 702              		.align	2
 703              	.L31:
 704 0054 0E060002 		.word	33555982
 705 0058 0F060002 		.word	33555983
 706 005c 10060002 		.word	33555984
 707 0060 00000000 		.word	g_vuwIntCount
 708 0064 18060002 		.word	33555992
 709              		.cfi_endproc
 710              	.LFE135:
 712              		.section	.text.osQueueWriteParameterCheck,"ax",%progbits
 713              		.align	1
 714              		.syntax unified
 715              		.thumb
 716              		.thumb_func
 717              		.fpu fpv4-sp-d16
 719              	osQueueWriteParameterCheck:
 720              	.LFB136:
 202:/home/fanxinhao/Work/LiteOS_Lab/iot_link/os/liteos/base/ipc/los_queue.c **** 
 203:/home/fanxinhao/Work/LiteOS_Lab/iot_link/os/liteos/base/ipc/los_queue.c **** 
 204:/home/fanxinhao/Work/LiteOS_Lab/iot_link/os/liteos/base/ipc/los_queue.c **** LITE_OS_SEC_TEXT static INLINE UINT32 osQueueWriteParameterCheck(UINT32 uwQueueID, VOID *pBufferAdd
 205:/home/fanxinhao/Work/LiteOS_Lab/iot_link/os/liteos/base/ipc/los_queue.c **** {
 721              		.loc 2 205 1
 722              		.cfi_startproc
 723              		@ args = 0, pretend = 0, frame = 16
 724              		@ frame_needed = 1, uses_anonymous_args = 0
 725              		@ link register save eliminated.
 726 0000 80B4     		push	{r7}
 727              	.LCFI45:
 728              		.cfi_def_cfa_offset 4
 729              		.cfi_offset 7, -4
 730 0002 85B0     		sub	sp, sp, #20
 731              	.LCFI46:
 732              		.cfi_def_cfa_offset 24
 733 0004 00AF     		add	r7, sp, #0
 734              	.LCFI47:
ARM GAS  /tmp/ccK7oid1.s 			page 21


 735              		.cfi_def_cfa_register 7
 736 0006 F860     		str	r0, [r7, #12]
 737 0008 B960     		str	r1, [r7, #8]
 738 000a 7A60     		str	r2, [r7, #4]
 739 000c 3B60     		str	r3, [r7]
 206:/home/fanxinhao/Work/LiteOS_Lab/iot_link/os/liteos/base/ipc/los_queue.c ****     if (uwQueueID >= LOSCFG_BASE_IPC_QUEUE_LIMIT)
 740              		.loc 2 206 8
 741 000e FB68     		ldr	r3, [r7, #12]
 742 0010 092B     		cmp	r3, #9
 743 0012 01D9     		bls	.L34
 207:/home/fanxinhao/Work/LiteOS_Lab/iot_link/os/liteos/base/ipc/los_queue.c ****     {
 208:/home/fanxinhao/Work/LiteOS_Lab/iot_link/os/liteos/base/ipc/los_queue.c ****         return LOS_ERRNO_QUEUE_INVALID;
 744              		.loc 2 208 16
 745 0014 0E4B     		ldr	r3, .L39
 746 0016 14E0     		b	.L35
 747              	.L34:
 209:/home/fanxinhao/Work/LiteOS_Lab/iot_link/os/liteos/base/ipc/los_queue.c ****     }
 210:/home/fanxinhao/Work/LiteOS_Lab/iot_link/os/liteos/base/ipc/los_queue.c **** 
 211:/home/fanxinhao/Work/LiteOS_Lab/iot_link/os/liteos/base/ipc/los_queue.c ****     if (NULL == pBufferAddr)
 748              		.loc 2 211 8
 749 0018 BB68     		ldr	r3, [r7, #8]
 750 001a 002B     		cmp	r3, #0
 751 001c 01D1     		bne	.L36
 212:/home/fanxinhao/Work/LiteOS_Lab/iot_link/os/liteos/base/ipc/los_queue.c ****     {
 213:/home/fanxinhao/Work/LiteOS_Lab/iot_link/os/liteos/base/ipc/los_queue.c ****         return LOS_ERRNO_QUEUE_WRITE_PTR_NULL;
 752              		.loc 2 213 16
 753 001e 0D4B     		ldr	r3, .L39+4
 754 0020 0FE0     		b	.L35
 755              	.L36:
 214:/home/fanxinhao/Work/LiteOS_Lab/iot_link/os/liteos/base/ipc/los_queue.c ****     }
 215:/home/fanxinhao/Work/LiteOS_Lab/iot_link/os/liteos/base/ipc/los_queue.c **** 
 216:/home/fanxinhao/Work/LiteOS_Lab/iot_link/os/liteos/base/ipc/los_queue.c ****     if (0 == *puwBufferSize)
 756              		.loc 2 216 14
 757 0022 7B68     		ldr	r3, [r7, #4]
 758 0024 1B68     		ldr	r3, [r3]
 759              		.loc 2 216 8
 760 0026 002B     		cmp	r3, #0
 761 0028 01D1     		bne	.L37
 217:/home/fanxinhao/Work/LiteOS_Lab/iot_link/os/liteos/base/ipc/los_queue.c ****     {
 218:/home/fanxinhao/Work/LiteOS_Lab/iot_link/os/liteos/base/ipc/los_queue.c ****         return LOS_ERRNO_QUEUE_WRITESIZE_ISZERO;
 762              		.loc 2 218 16
 763 002a 0B4B     		ldr	r3, .L39+8
 764 002c 09E0     		b	.L35
 765              	.L37:
 219:/home/fanxinhao/Work/LiteOS_Lab/iot_link/os/liteos/base/ipc/los_queue.c ****     }
 220:/home/fanxinhao/Work/LiteOS_Lab/iot_link/os/liteos/base/ipc/los_queue.c **** 
 221:/home/fanxinhao/Work/LiteOS_Lab/iot_link/os/liteos/base/ipc/los_queue.c ****     if (LOS_NO_WAIT != uwTimeOut)
 766              		.loc 2 221 8
 767 002e 3B68     		ldr	r3, [r7]
 768 0030 002B     		cmp	r3, #0
 769 0032 05D0     		beq	.L38
 222:/home/fanxinhao/Work/LiteOS_Lab/iot_link/os/liteos/base/ipc/los_queue.c ****     {
 223:/home/fanxinhao/Work/LiteOS_Lab/iot_link/os/liteos/base/ipc/los_queue.c ****         if (OS_INT_ACTIVE)
 770              		.loc 2 223 13
 771 0034 094B     		ldr	r3, .L39+12
 772 0036 1B68     		ldr	r3, [r3]
 773              		.loc 2 223 12
ARM GAS  /tmp/ccK7oid1.s 			page 22


 774 0038 002B     		cmp	r3, #0
 775 003a 01D0     		beq	.L38
 224:/home/fanxinhao/Work/LiteOS_Lab/iot_link/os/liteos/base/ipc/los_queue.c ****         {
 225:/home/fanxinhao/Work/LiteOS_Lab/iot_link/os/liteos/base/ipc/los_queue.c ****             return LOS_ERRNO_QUEUE_WRITE_IN_INTERRUPT;
 776              		.loc 2 225 20
 777 003c 084B     		ldr	r3, .L39+16
 778 003e 00E0     		b	.L35
 779              	.L38:
 226:/home/fanxinhao/Work/LiteOS_Lab/iot_link/os/liteos/base/ipc/los_queue.c ****         }
 227:/home/fanxinhao/Work/LiteOS_Lab/iot_link/os/liteos/base/ipc/los_queue.c ****     }
 228:/home/fanxinhao/Work/LiteOS_Lab/iot_link/os/liteos/base/ipc/los_queue.c ****     return LOS_OK;
 780              		.loc 2 228 12
 781 0040 0023     		movs	r3, #0
 782              	.L35:
 229:/home/fanxinhao/Work/LiteOS_Lab/iot_link/os/liteos/base/ipc/los_queue.c **** }
 783              		.loc 2 229 1
 784 0042 1846     		mov	r0, r3
 785 0044 1437     		adds	r7, r7, #20
 786              	.LCFI48:
 787              		.cfi_def_cfa_offset 4
 788 0046 BD46     		mov	sp, r7
 789              	.LCFI49:
 790              		.cfi_def_cfa_register 13
 791              		@ sp needed
 792 0048 5DF8047B 		ldr	r7, [sp], #4
 793              	.LCFI50:
 794              		.cfi_restore 7
 795              		.cfi_def_cfa_offset 0
 796 004c 7047     		bx	lr
 797              	.L40:
 798 004e 00BF     		.align	2
 799              	.L39:
 800 0050 0E060002 		.word	33555982
 801 0054 12060002 		.word	33555986
 802 0058 13060002 		.word	33555987
 803 005c 00000000 		.word	g_vuwIntCount
 804 0060 09060002 		.word	33555977
 805              		.cfi_endproc
 806              	.LFE136:
 808              		.section	.rodata
 809              		.align	2
 810              	.LC0:
 811 0000 5B455252 		.ascii	"[ERR] \000"
 811      5D2000
 812 0007 00       		.align	2
 813              	.LC1:
 814 0008 696E7661 		.ascii	"invalid queue operate type!\000"
 814      6C696420 
 814      71756575 
 814      65206F70 
 814      65726174 
 815              		.section	.text.osQueueBufferOperate,"ax",%progbits
 816              		.align	1
 817              		.syntax unified
 818              		.thumb
 819              		.thumb_func
 820              		.fpu fpv4-sp-d16
ARM GAS  /tmp/ccK7oid1.s 			page 23


 822              	osQueueBufferOperate:
 823              	.LFB137:
 230:/home/fanxinhao/Work/LiteOS_Lab/iot_link/os/liteos/base/ipc/los_queue.c **** 
 231:/home/fanxinhao/Work/LiteOS_Lab/iot_link/os/liteos/base/ipc/los_queue.c **** LITE_OS_SEC_TEXT static INLINE VOID osQueueBufferOperate(QUEUE_CB_S *pstQueueCB, UINT32 uwOperateTy
 232:/home/fanxinhao/Work/LiteOS_Lab/iot_link/os/liteos/base/ipc/los_queue.c **** {
 824              		.loc 2 232 1
 825              		.cfi_startproc
 826              		@ args = 0, pretend = 0, frame = 32
 827              		@ frame_needed = 1, uses_anonymous_args = 0
 828 0000 80B5     		push	{r7, lr}
 829              	.LCFI51:
 830              		.cfi_def_cfa_offset 8
 831              		.cfi_offset 7, -8
 832              		.cfi_offset 14, -4
 833 0002 88B0     		sub	sp, sp, #32
 834              	.LCFI52:
 835              		.cfi_def_cfa_offset 40
 836 0004 00AF     		add	r7, sp, #0
 837              	.LCFI53:
 838              		.cfi_def_cfa_register 7
 839 0006 F860     		str	r0, [r7, #12]
 840 0008 B960     		str	r1, [r7, #8]
 841 000a 7A60     		str	r2, [r7, #4]
 842 000c 3B60     		str	r3, [r7]
 233:/home/fanxinhao/Work/LiteOS_Lab/iot_link/os/liteos/base/ipc/los_queue.c ****     UINT8        *pucQueueNode;
 234:/home/fanxinhao/Work/LiteOS_Lab/iot_link/os/liteos/base/ipc/los_queue.c ****     UINT32       uwMsgDataSize = 0;
 843              		.loc 2 234 18
 844 000e 0023     		movs	r3, #0
 845 0010 7B61     		str	r3, [r7, #20]
 235:/home/fanxinhao/Work/LiteOS_Lab/iot_link/os/liteos/base/ipc/los_queue.c ****     UINT16      usQueuePosion = 0;
 846              		.loc 2 235 17
 847 0012 0023     		movs	r3, #0
 848 0014 FB83     		strh	r3, [r7, #30]	@ movhi
 236:/home/fanxinhao/Work/LiteOS_Lab/iot_link/os/liteos/base/ipc/los_queue.c **** 
 237:/home/fanxinhao/Work/LiteOS_Lab/iot_link/os/liteos/base/ipc/los_queue.c ****     /* get the queue position */
 238:/home/fanxinhao/Work/LiteOS_Lab/iot_link/os/liteos/base/ipc/los_queue.c ****     switch (OS_QUEUE_OPERATE_GET(uwOperateType))
 849              		.loc 2 238 13
 850 0016 BB68     		ldr	r3, [r7, #8]
 851 0018 03F00303 		and	r3, r3, #3
 852              		.loc 2 238 5
 853 001c 032B     		cmp	r3, #3
 854 001e 30D0     		beq	.L42
 855 0020 032B     		cmp	r3, #3
 856 0022 43D8     		bhi	.L43
 857 0024 002B     		cmp	r3, #0
 858 0026 02D0     		beq	.L44
 859 0028 012B     		cmp	r3, #1
 860 002a 15D0     		beq	.L45
 861 002c 3EE0     		b	.L43
 862              	.L44:
 239:/home/fanxinhao/Work/LiteOS_Lab/iot_link/os/liteos/base/ipc/los_queue.c ****     {
 240:/home/fanxinhao/Work/LiteOS_Lab/iot_link/os/liteos/base/ipc/los_queue.c ****         case OS_QUEUE_READ_HEAD:
 241:/home/fanxinhao/Work/LiteOS_Lab/iot_link/os/liteos/base/ipc/los_queue.c ****             usQueuePosion = pstQueueCB->usQueueHead;
 863              		.loc 2 241 27
 864 002e FB68     		ldr	r3, [r7, #12]
 865 0030 9B89     		ldrh	r3, [r3, #12]	@ movhi
 866 0032 FB83     		strh	r3, [r7, #30]	@ movhi
ARM GAS  /tmp/ccK7oid1.s 			page 24


 242:/home/fanxinhao/Work/LiteOS_Lab/iot_link/os/liteos/base/ipc/los_queue.c ****             (pstQueueCB->usQueueHead + 1 == pstQueueCB->usQueueLen) ? (pstQueueCB->usQueueHead = 0)
 867              		.loc 2 242 24
 868 0034 FB68     		ldr	r3, [r7, #12]
 869 0036 9B89     		ldrh	r3, [r3, #12]
 870              		.loc 2 242 38
 871 0038 0133     		adds	r3, r3, #1
 872              		.loc 2 242 55
 873 003a FA68     		ldr	r2, [r7, #12]
 874 003c D288     		ldrh	r2, [r2, #6]
 875              		.loc 2 242 101
 876 003e 9342     		cmp	r3, r2
 877 0040 03D1     		bne	.L46
 878              		.loc 2 242 96 discriminator 1
 879 0042 FB68     		ldr	r3, [r7, #12]
 880 0044 0022     		movs	r2, #0
 881 0046 9A81     		strh	r2, [r3, #12]	@ movhi
 243:/home/fanxinhao/Work/LiteOS_Lab/iot_link/os/liteos/base/ipc/los_queue.c ****             break;
 882              		.loc 2 243 13 discriminator 1
 883 0048 37E0     		b	.L48
 884              	.L46:
 242:/home/fanxinhao/Work/LiteOS_Lab/iot_link/os/liteos/base/ipc/los_queue.c ****             (pstQueueCB->usQueueHead + 1 == pstQueueCB->usQueueLen) ? (pstQueueCB->usQueueHead = 0)
 885              		.loc 2 242 114 discriminator 2
 886 004a FB68     		ldr	r3, [r7, #12]
 887 004c 9B89     		ldrh	r3, [r3, #12]
 242:/home/fanxinhao/Work/LiteOS_Lab/iot_link/os/liteos/base/ipc/los_queue.c ****             (pstQueueCB->usQueueHead + 1 == pstQueueCB->usQueueLen) ? (pstQueueCB->usQueueHead = 0)
 888              		.loc 2 242 127 discriminator 2
 889 004e 0133     		adds	r3, r3, #1
 890 0050 9AB2     		uxth	r2, r3
 891 0052 FB68     		ldr	r3, [r7, #12]
 892 0054 9A81     		strh	r2, [r3, #12]	@ movhi
 893              		.loc 2 243 13 discriminator 2
 894 0056 30E0     		b	.L48
 895              	.L45:
 244:/home/fanxinhao/Work/LiteOS_Lab/iot_link/os/liteos/base/ipc/los_queue.c **** 
 245:/home/fanxinhao/Work/LiteOS_Lab/iot_link/os/liteos/base/ipc/los_queue.c ****         case OS_QUEUE_WRITE_HEAD:
 246:/home/fanxinhao/Work/LiteOS_Lab/iot_link/os/liteos/base/ipc/los_queue.c ****             (0 == pstQueueCB->usQueueHead) ? (pstQueueCB->usQueueHead = pstQueueCB->usQueueLen - 1)
 896              		.loc 2 246 29
 897 0058 FB68     		ldr	r3, [r7, #12]
 898 005a 9B89     		ldrh	r3, [r3, #12]
 899              		.loc 2 246 101
 900 005c 002B     		cmp	r3, #0
 901 005e 06D1     		bne	.L49
 902              		.loc 2 246 83 discriminator 1
 903 0060 FB68     		ldr	r3, [r7, #12]
 904 0062 DB88     		ldrh	r3, [r3, #6]
 905              		.loc 2 246 96 discriminator 1
 906 0064 013B     		subs	r3, r3, #1
 907 0066 9AB2     		uxth	r2, r3
 908              		.loc 2 246 71 discriminator 1
 909 0068 FB68     		ldr	r3, [r7, #12]
 910 006a 9A81     		strh	r2, [r3, #12]	@ movhi
 911 006c 05E0     		b	.L50
 912              	.L49:
 913              		.loc 2 246 116 discriminator 2
 914 006e FB68     		ldr	r3, [r7, #12]
 915 0070 9B89     		ldrh	r3, [r3, #12]
 916              		.loc 2 246 104 discriminator 2
ARM GAS  /tmp/ccK7oid1.s 			page 25


 917 0072 013B     		subs	r3, r3, #1
 918 0074 9AB2     		uxth	r2, r3
 919              		.loc 2 246 101 discriminator 2
 920 0076 FB68     		ldr	r3, [r7, #12]
 921 0078 9A81     		strh	r2, [r3, #12]	@ movhi
 922              	.L50:
 247:/home/fanxinhao/Work/LiteOS_Lab/iot_link/os/liteos/base/ipc/los_queue.c ****             usQueuePosion = pstQueueCB->usQueueHead;
 923              		.loc 2 247 27
 924 007a FB68     		ldr	r3, [r7, #12]
 925 007c 9B89     		ldrh	r3, [r3, #12]	@ movhi
 926 007e FB83     		strh	r3, [r7, #30]	@ movhi
 248:/home/fanxinhao/Work/LiteOS_Lab/iot_link/os/liteos/base/ipc/los_queue.c ****             break;
 927              		.loc 2 248 13
 928 0080 1BE0     		b	.L48
 929              	.L42:
 249:/home/fanxinhao/Work/LiteOS_Lab/iot_link/os/liteos/base/ipc/los_queue.c **** 
 250:/home/fanxinhao/Work/LiteOS_Lab/iot_link/os/liteos/base/ipc/los_queue.c ****         case OS_QUEUE_WRITE_TAIL :
 251:/home/fanxinhao/Work/LiteOS_Lab/iot_link/os/liteos/base/ipc/los_queue.c ****             usQueuePosion = pstQueueCB->usQueueTail;
 930              		.loc 2 251 27
 931 0082 FB68     		ldr	r3, [r7, #12]
 932 0084 DB89     		ldrh	r3, [r3, #14]	@ movhi
 933 0086 FB83     		strh	r3, [r7, #30]	@ movhi
 252:/home/fanxinhao/Work/LiteOS_Lab/iot_link/os/liteos/base/ipc/los_queue.c ****             (pstQueueCB->usQueueTail + 1 == pstQueueCB->usQueueLen) ? (pstQueueCB->usQueueTail = 0)
 934              		.loc 2 252 24
 935 0088 FB68     		ldr	r3, [r7, #12]
 936 008a DB89     		ldrh	r3, [r3, #14]
 937              		.loc 2 252 38
 938 008c 0133     		adds	r3, r3, #1
 939              		.loc 2 252 55
 940 008e FA68     		ldr	r2, [r7, #12]
 941 0090 D288     		ldrh	r2, [r2, #6]
 942              		.loc 2 252 101
 943 0092 9342     		cmp	r3, r2
 944 0094 03D1     		bne	.L51
 945              		.loc 2 252 96 discriminator 1
 946 0096 FB68     		ldr	r3, [r7, #12]
 947 0098 0022     		movs	r2, #0
 948 009a DA81     		strh	r2, [r3, #14]	@ movhi
 253:/home/fanxinhao/Work/LiteOS_Lab/iot_link/os/liteos/base/ipc/los_queue.c ****             break;
 949              		.loc 2 253 13 discriminator 1
 950 009c 0DE0     		b	.L48
 951              	.L51:
 252:/home/fanxinhao/Work/LiteOS_Lab/iot_link/os/liteos/base/ipc/los_queue.c ****             (pstQueueCB->usQueueTail + 1 == pstQueueCB->usQueueLen) ? (pstQueueCB->usQueueTail = 0)
 952              		.loc 2 252 114 discriminator 2
 953 009e FB68     		ldr	r3, [r7, #12]
 954 00a0 DB89     		ldrh	r3, [r3, #14]
 252:/home/fanxinhao/Work/LiteOS_Lab/iot_link/os/liteos/base/ipc/los_queue.c ****             (pstQueueCB->usQueueTail + 1 == pstQueueCB->usQueueLen) ? (pstQueueCB->usQueueTail = 0)
 955              		.loc 2 252 127 discriminator 2
 956 00a2 0133     		adds	r3, r3, #1
 957 00a4 9AB2     		uxth	r2, r3
 958 00a6 FB68     		ldr	r3, [r7, #12]
 959 00a8 DA81     		strh	r2, [r3, #14]	@ movhi
 960              		.loc 2 253 13 discriminator 2
 961 00aa 06E0     		b	.L48
 962              	.L43:
 254:/home/fanxinhao/Work/LiteOS_Lab/iot_link/os/liteos/base/ipc/los_queue.c **** 
 255:/home/fanxinhao/Work/LiteOS_Lab/iot_link/os/liteos/base/ipc/los_queue.c ****         default: //read tail , reserved.
ARM GAS  /tmp/ccK7oid1.s 			page 26


 256:/home/fanxinhao/Work/LiteOS_Lab/iot_link/os/liteos/base/ipc/los_queue.c ****             PRINT_ERR("invalid queue operate type!\n");
 963              		.loc 2 256 13
 964 00ac 2548     		ldr	r0, .L58
 965 00ae FFF7FEFF 		bl	printf
 966 00b2 2548     		ldr	r0, .L58+4
 967 00b4 FFF7FEFF 		bl	puts
 968 00b8 41E0     		b	.L41
 969              	.L48:
 257:/home/fanxinhao/Work/LiteOS_Lab/iot_link/os/liteos/base/ipc/los_queue.c ****             return;
 258:/home/fanxinhao/Work/LiteOS_Lab/iot_link/os/liteos/base/ipc/los_queue.c ****     }
 259:/home/fanxinhao/Work/LiteOS_Lab/iot_link/os/liteos/base/ipc/los_queue.c **** 
 260:/home/fanxinhao/Work/LiteOS_Lab/iot_link/os/liteos/base/ipc/los_queue.c ****     pucQueueNode = &(pstQueueCB->pucQueue[(usQueuePosion * (pstQueueCB->usQueueSize))]);
 970              		.loc 2 260 32
 971 00ba FB68     		ldr	r3, [r7, #12]
 972 00bc 1B68     		ldr	r3, [r3]
 973              		.loc 2 260 58
 974 00be FA8B     		ldrh	r2, [r7, #30]
 975              		.loc 2 260 71
 976 00c0 F968     		ldr	r1, [r7, #12]
 977 00c2 0989     		ldrh	r1, [r1, #8]
 978              		.loc 2 260 58
 979 00c4 01FB02F2 		mul	r2, r1, r2
 980              		.loc 2 260 18
 981 00c8 1344     		add	r3, r3, r2
 982 00ca BB61     		str	r3, [r7, #24]
 261:/home/fanxinhao/Work/LiteOS_Lab/iot_link/os/liteos/base/ipc/los_queue.c **** 
 262:/home/fanxinhao/Work/LiteOS_Lab/iot_link/os/liteos/base/ipc/los_queue.c ****     if(OS_QUEUE_IS_POINT(uwOperateType))
 983              		.loc 2 262 8
 984 00cc BB68     		ldr	r3, [r7, #8]
 985 00ce 03F00403 		and	r3, r3, #4
 986              		.loc 2 262 7
 987 00d2 002B     		cmp	r3, #0
 988 00d4 0ED0     		beq	.L54
 263:/home/fanxinhao/Work/LiteOS_Lab/iot_link/os/liteos/base/ipc/los_queue.c ****     {
 264:/home/fanxinhao/Work/LiteOS_Lab/iot_link/os/liteos/base/ipc/los_queue.c ****         if(OS_QUEUE_IS_READ(uwOperateType))
 989              		.loc 2 264 12
 990 00d6 BB68     		ldr	r3, [r7, #8]
 991 00d8 03F00103 		and	r3, r3, #1
 992              		.loc 2 264 11
 993 00dc 002B     		cmp	r3, #0
 994 00de 04D1     		bne	.L55
 265:/home/fanxinhao/Work/LiteOS_Lab/iot_link/os/liteos/base/ipc/los_queue.c ****         {
 266:/home/fanxinhao/Work/LiteOS_Lab/iot_link/os/liteos/base/ipc/los_queue.c ****             *(UINT32 *)pBufferAddr = *(UINT32 *)pucQueueNode;
 995              		.loc 2 266 38
 996 00e0 BB69     		ldr	r3, [r7, #24]
 997 00e2 1A68     		ldr	r2, [r3]
 998              		.loc 2 266 36
 999 00e4 7B68     		ldr	r3, [r7, #4]
 1000 00e6 1A60     		str	r2, [r3]
 1001 00e8 29E0     		b	.L41
 1002              	.L55:
 267:/home/fanxinhao/Work/LiteOS_Lab/iot_link/os/liteos/base/ipc/los_queue.c ****         }
 268:/home/fanxinhao/Work/LiteOS_Lab/iot_link/os/liteos/base/ipc/los_queue.c ****         else
 269:/home/fanxinhao/Work/LiteOS_Lab/iot_link/os/liteos/base/ipc/los_queue.c ****         {
 270:/home/fanxinhao/Work/LiteOS_Lab/iot_link/os/liteos/base/ipc/los_queue.c ****             *(UINT32 *)pucQueueNode = *(UINT32 *)pBufferAddr;//change to pp when calling osQueueOpe
 1003              		.loc 2 270 39
 1004 00ea 7B68     		ldr	r3, [r7, #4]
ARM GAS  /tmp/ccK7oid1.s 			page 27


 1005 00ec 1A68     		ldr	r2, [r3]
 1006              		.loc 2 270 37
 1007 00ee BB69     		ldr	r3, [r7, #24]
 1008 00f0 1A60     		str	r2, [r3]
 1009 00f2 24E0     		b	.L41
 1010              	.L54:
 271:/home/fanxinhao/Work/LiteOS_Lab/iot_link/os/liteos/base/ipc/los_queue.c ****         }
 272:/home/fanxinhao/Work/LiteOS_Lab/iot_link/os/liteos/base/ipc/los_queue.c ****     }
 273:/home/fanxinhao/Work/LiteOS_Lab/iot_link/os/liteos/base/ipc/los_queue.c ****     else
 274:/home/fanxinhao/Work/LiteOS_Lab/iot_link/os/liteos/base/ipc/los_queue.c ****     {
 275:/home/fanxinhao/Work/LiteOS_Lab/iot_link/os/liteos/base/ipc/los_queue.c ****         if(OS_QUEUE_IS_READ(uwOperateType))
 1011              		.loc 2 275 12
 1012 00f4 BB68     		ldr	r3, [r7, #8]
 1013 00f6 03F00103 		and	r3, r3, #1
 1014              		.loc 2 275 11
 1015 00fa 002B     		cmp	r3, #0
 1016 00fc 10D1     		bne	.L57
 276:/home/fanxinhao/Work/LiteOS_Lab/iot_link/os/liteos/base/ipc/los_queue.c ****         {
 277:/home/fanxinhao/Work/LiteOS_Lab/iot_link/os/liteos/base/ipc/los_queue.c ****             memcpy((VOID *)&uwMsgDataSize, (VOID *)(pucQueueNode + pstQueueCB->usQueueSize - sizeof
 1017              		.loc 2 277 78
 1018 00fe FB68     		ldr	r3, [r7, #12]
 1019 0100 1B89     		ldrh	r3, [r3, #8]
 1020              		.loc 2 277 92
 1021 0102 043B     		subs	r3, r3, #4
 1022 0104 BA69     		ldr	r2, [r7, #24]
 1023 0106 1344     		add	r3, r3, r2
 1024 0108 1B68     		ldr	r3, [r3]	@ unaligned
 1025              		.loc 2 277 13
 1026 010a 7B61     		str	r3, [r7, #20]
 278:/home/fanxinhao/Work/LiteOS_Lab/iot_link/os/liteos/base/ipc/los_queue.c ****             memcpy((VOID *)pBufferAddr, (VOID *)pucQueueNode, uwMsgDataSize);
 1027              		.loc 2 278 13
 1028 010c 7B69     		ldr	r3, [r7, #20]
 1029 010e 1A46     		mov	r2, r3
 1030 0110 B969     		ldr	r1, [r7, #24]
 1031 0112 7868     		ldr	r0, [r7, #4]
 1032 0114 FFF7FEFF 		bl	memcpy
 279:/home/fanxinhao/Work/LiteOS_Lab/iot_link/os/liteos/base/ipc/los_queue.c ****             *puwBufferSize = uwMsgDataSize;
 1033              		.loc 2 279 28
 1034 0118 7A69     		ldr	r2, [r7, #20]
 1035 011a 3B68     		ldr	r3, [r7]
 1036 011c 1A60     		str	r2, [r3]
 1037 011e 0EE0     		b	.L41
 1038              	.L57:
 280:/home/fanxinhao/Work/LiteOS_Lab/iot_link/os/liteos/base/ipc/los_queue.c ****         }
 281:/home/fanxinhao/Work/LiteOS_Lab/iot_link/os/liteos/base/ipc/los_queue.c ****         else
 282:/home/fanxinhao/Work/LiteOS_Lab/iot_link/os/liteos/base/ipc/los_queue.c ****         {
 283:/home/fanxinhao/Work/LiteOS_Lab/iot_link/os/liteos/base/ipc/los_queue.c ****             memcpy((VOID *)pucQueueNode, (VOID *)pBufferAddr, *puwBufferSize);
 1039              		.loc 2 283 13
 1040 0120 3B68     		ldr	r3, [r7]
 1041 0122 1B68     		ldr	r3, [r3]
 1042 0124 1A46     		mov	r2, r3
 1043 0126 7968     		ldr	r1, [r7, #4]
 1044 0128 B869     		ldr	r0, [r7, #24]
 1045 012a FFF7FEFF 		bl	memcpy
 284:/home/fanxinhao/Work/LiteOS_Lab/iot_link/os/liteos/base/ipc/los_queue.c ****             memcpy((VOID *)(pucQueueNode + pstQueueCB->usQueueSize - sizeof(UINT32)), puwBufferSize
 1046              		.loc 2 284 54
 1047 012e FB68     		ldr	r3, [r7, #12]
ARM GAS  /tmp/ccK7oid1.s 			page 28


 1048 0130 1B89     		ldrh	r3, [r3, #8]
 1049              		.loc 2 284 68
 1050 0132 043B     		subs	r3, r3, #4
 1051 0134 BA69     		ldr	r2, [r7, #24]
 1052 0136 1344     		add	r3, r3, r2
 1053 0138 3A68     		ldr	r2, [r7]
 1054 013a 1268     		ldr	r2, [r2]	@ unaligned
 1055              		.loc 2 284 13
 1056 013c 1A60     		str	r2, [r3]	@ unaligned
 1057              	.L41:
 285:/home/fanxinhao/Work/LiteOS_Lab/iot_link/os/liteos/base/ipc/los_queue.c ****         }
 286:/home/fanxinhao/Work/LiteOS_Lab/iot_link/os/liteos/base/ipc/los_queue.c ****     }
 287:/home/fanxinhao/Work/LiteOS_Lab/iot_link/os/liteos/base/ipc/los_queue.c **** }
 1058              		.loc 2 287 1
 1059 013e 2037     		adds	r7, r7, #32
 1060              	.LCFI54:
 1061              		.cfi_def_cfa_offset 8
 1062 0140 BD46     		mov	sp, r7
 1063              	.LCFI55:
 1064              		.cfi_def_cfa_register 13
 1065              		@ sp needed
 1066 0142 80BD     		pop	{r7, pc}
 1067              	.L59:
 1068              		.align	2
 1069              	.L58:
 1070 0144 00000000 		.word	.LC0
 1071 0148 08000000 		.word	.LC1
 1072              		.cfi_endproc
 1073              	.LFE137:
 1075              		.section	.text.osQueueOperate,"ax",%progbits
 1076              		.align	1
 1077              		.global	osQueueOperate
 1078              		.syntax unified
 1079              		.thumb
 1080              		.thumb_func
 1081              		.fpu fpv4-sp-d16
 1083              	osQueueOperate:
 1084              	.LFB138:
 288:/home/fanxinhao/Work/LiteOS_Lab/iot_link/os/liteos/base/ipc/los_queue.c **** 
 289:/home/fanxinhao/Work/LiteOS_Lab/iot_link/os/liteos/base/ipc/los_queue.c **** 
 290:/home/fanxinhao/Work/LiteOS_Lab/iot_link/os/liteos/base/ipc/los_queue.c **** LITE_OS_SEC_TEXT UINT32 osQueueOperate(UINT32 uwQueueID, UINT32 uwOperateType, VOID *pBufferAddr, U
 291:/home/fanxinhao/Work/LiteOS_Lab/iot_link/os/liteos/base/ipc/los_queue.c **** {
 1085              		.loc 2 291 1
 1086              		.cfi_startproc
 1087              		@ args = 4, pretend = 0, frame = 40
 1088              		@ frame_needed = 1, uses_anonymous_args = 0
 1089 0000 80B5     		push	{r7, lr}
 1090              	.LCFI56:
 1091              		.cfi_def_cfa_offset 8
 1092              		.cfi_offset 7, -8
 1093              		.cfi_offset 14, -4
 1094 0002 8AB0     		sub	sp, sp, #40
 1095              	.LCFI57:
 1096              		.cfi_def_cfa_offset 48
 1097 0004 00AF     		add	r7, sp, #0
 1098              	.LCFI58:
 1099              		.cfi_def_cfa_register 7
ARM GAS  /tmp/ccK7oid1.s 			page 29


 1100 0006 F860     		str	r0, [r7, #12]
 1101 0008 B960     		str	r1, [r7, #8]
 1102 000a 7A60     		str	r2, [r7, #4]
 1103 000c 3B60     		str	r3, [r7]
 292:/home/fanxinhao/Work/LiteOS_Lab/iot_link/os/liteos/base/ipc/los_queue.c ****     QUEUE_CB_S *pstQueueCB;
 293:/home/fanxinhao/Work/LiteOS_Lab/iot_link/os/liteos/base/ipc/los_queue.c ****     LOS_TASK_CB  *pstRunTsk;
 294:/home/fanxinhao/Work/LiteOS_Lab/iot_link/os/liteos/base/ipc/los_queue.c ****     UINTPTR      uvIntSave;
 295:/home/fanxinhao/Work/LiteOS_Lab/iot_link/os/liteos/base/ipc/los_queue.c ****     LOS_TASK_CB  *pstResumedTask;
 296:/home/fanxinhao/Work/LiteOS_Lab/iot_link/os/liteos/base/ipc/los_queue.c ****     UINT32       uwRet = LOS_OK;
 1104              		.loc 2 296 18
 1105 000e 0023     		movs	r3, #0
 1106 0010 3B62     		str	r3, [r7, #32]
 297:/home/fanxinhao/Work/LiteOS_Lab/iot_link/os/liteos/base/ipc/los_queue.c ****     UINT32       uwReadWrite = OS_QUEUE_READ_WRITE_GET(uwOperateType);
 1107              		.loc 2 297 18
 1108 0012 BB68     		ldr	r3, [r7, #8]
 1109 0014 03F00103 		and	r3, r3, #1
 1110 0018 FB61     		str	r3, [r7, #28]
 298:/home/fanxinhao/Work/LiteOS_Lab/iot_link/os/liteos/base/ipc/los_queue.c **** 
 299:/home/fanxinhao/Work/LiteOS_Lab/iot_link/os/liteos/base/ipc/los_queue.c ****     uvIntSave = LOS_IntLock();
 1111              		.loc 2 299 17
 1112 001a FFF7FEFF 		bl	LOS_IntLock
 1113 001e 7862     		str	r0, [r7, #36]
 300:/home/fanxinhao/Work/LiteOS_Lab/iot_link/os/liteos/base/ipc/los_queue.c **** 
 301:/home/fanxinhao/Work/LiteOS_Lab/iot_link/os/liteos/base/ipc/los_queue.c ****     pstQueueCB = (QUEUE_CB_S *)GET_QUEUE_HANDLE(uwQueueID);
 1114              		.loc 2 301 18
 1115 0020 614B     		ldr	r3, .L73
 1116 0022 1A68     		ldr	r2, [r3]
 1117              		.loc 2 301 32
 1118 0024 FB68     		ldr	r3, [r7, #12]
 1119 0026 2C21     		movs	r1, #44
 1120 0028 01FB03F3 		mul	r3, r1, r3
 1121              		.loc 2 301 16
 1122 002c 1344     		add	r3, r3, r2
 1123 002e BB61     		str	r3, [r7, #24]
 302:/home/fanxinhao/Work/LiteOS_Lab/iot_link/os/liteos/base/ipc/los_queue.c ****     if (OS_QUEUE_UNUSED == pstQueueCB->usQueueState)
 1124              		.loc 2 302 38
 1125 0030 BB69     		ldr	r3, [r7, #24]
 1126 0032 9B88     		ldrh	r3, [r3, #4]
 1127              		.loc 2 302 8
 1128 0034 002B     		cmp	r3, #0
 1129 0036 02D1     		bne	.L61
 303:/home/fanxinhao/Work/LiteOS_Lab/iot_link/os/liteos/base/ipc/los_queue.c ****     {
 304:/home/fanxinhao/Work/LiteOS_Lab/iot_link/os/liteos/base/ipc/los_queue.c ****         uwRet = LOS_ERRNO_QUEUE_NOT_CREATE;
 1130              		.loc 2 304 15
 1131 0038 5C4B     		ldr	r3, .L73+4
 1132 003a 3B62     		str	r3, [r7, #32]
 305:/home/fanxinhao/Work/LiteOS_Lab/iot_link/os/liteos/base/ipc/los_queue.c ****         goto QUEUE_END;
 1133              		.loc 2 305 9
 1134 003c ACE0     		b	.L62
 1135              	.L61:
 306:/home/fanxinhao/Work/LiteOS_Lab/iot_link/os/liteos/base/ipc/los_queue.c **** 
 307:/home/fanxinhao/Work/LiteOS_Lab/iot_link/os/liteos/base/ipc/los_queue.c ****     }
 308:/home/fanxinhao/Work/LiteOS_Lab/iot_link/os/liteos/base/ipc/los_queue.c **** 
 309:/home/fanxinhao/Work/LiteOS_Lab/iot_link/os/liteos/base/ipc/los_queue.c ****     if(OS_QUEUE_IS_READ(uwOperateType) && (*puwBufferSize < pstQueueCB->usQueueSize - sizeof(UINT32
 1136              		.loc 2 309 8
 1137 003e BB68     		ldr	r3, [r7, #8]
 1138 0040 03F00103 		and	r3, r3, #1
ARM GAS  /tmp/ccK7oid1.s 			page 30


 1139              		.loc 2 309 7
 1140 0044 002B     		cmp	r3, #0
 1141 0046 09D1     		bne	.L63
 1142              		.loc 2 309 44 discriminator 1
 1143 0048 3B68     		ldr	r3, [r7]
 1144 004a 1A68     		ldr	r2, [r3]
 1145              		.loc 2 309 71 discriminator 1
 1146 004c BB69     		ldr	r3, [r7, #24]
 1147 004e 1B89     		ldrh	r3, [r3, #8]
 1148              		.loc 2 309 85 discriminator 1
 1149 0050 043B     		subs	r3, r3, #4
 1150              		.loc 2 309 40 discriminator 1
 1151 0052 9A42     		cmp	r2, r3
 1152 0054 02D2     		bcs	.L63
 310:/home/fanxinhao/Work/LiteOS_Lab/iot_link/os/liteos/base/ipc/los_queue.c ****     {
 311:/home/fanxinhao/Work/LiteOS_Lab/iot_link/os/liteos/base/ipc/los_queue.c ****         uwRet = LOS_ERRNO_QUEUE_READ_SIZE_TOO_SMALL;
 1153              		.loc 2 311 15
 1154 0056 564B     		ldr	r3, .L73+8
 1155 0058 3B62     		str	r3, [r7, #32]
 312:/home/fanxinhao/Work/LiteOS_Lab/iot_link/os/liteos/base/ipc/los_queue.c ****         goto QUEUE_END;
 1156              		.loc 2 312 9
 1157 005a 9DE0     		b	.L62
 1158              	.L63:
 313:/home/fanxinhao/Work/LiteOS_Lab/iot_link/os/liteos/base/ipc/los_queue.c ****     }
 314:/home/fanxinhao/Work/LiteOS_Lab/iot_link/os/liteos/base/ipc/los_queue.c ****     else if(OS_QUEUE_IS_WRITE(uwOperateType) && (*puwBufferSize > pstQueueCB->usQueueSize - sizeof(
 1159              		.loc 2 314 13
 1160 005c BB68     		ldr	r3, [r7, #8]
 1161 005e 03F00103 		and	r3, r3, #1
 1162              		.loc 2 314 12
 1163 0062 002B     		cmp	r3, #0
 1164 0064 09D0     		beq	.L64
 1165              		.loc 2 314 50 discriminator 1
 1166 0066 3B68     		ldr	r3, [r7]
 1167 0068 1A68     		ldr	r2, [r3]
 1168              		.loc 2 314 77 discriminator 1
 1169 006a BB69     		ldr	r3, [r7, #24]
 1170 006c 1B89     		ldrh	r3, [r3, #8]
 1171              		.loc 2 314 91 discriminator 1
 1172 006e 043B     		subs	r3, r3, #4
 1173              		.loc 2 314 46 discriminator 1
 1174 0070 9A42     		cmp	r2, r3
 1175 0072 02D9     		bls	.L64
 315:/home/fanxinhao/Work/LiteOS_Lab/iot_link/os/liteos/base/ipc/los_queue.c ****     {
 316:/home/fanxinhao/Work/LiteOS_Lab/iot_link/os/liteos/base/ipc/los_queue.c ****         uwRet = LOS_ERRNO_QUEUE_WRITE_SIZE_TOO_BIG;
 1176              		.loc 2 316 15
 1177 0074 4F4B     		ldr	r3, .L73+12
 1178 0076 3B62     		str	r3, [r7, #32]
 317:/home/fanxinhao/Work/LiteOS_Lab/iot_link/os/liteos/base/ipc/los_queue.c ****         goto QUEUE_END;
 1179              		.loc 2 317 9
 1180 0078 8EE0     		b	.L62
 1181              	.L64:
 318:/home/fanxinhao/Work/LiteOS_Lab/iot_link/os/liteos/base/ipc/los_queue.c ****     }
 319:/home/fanxinhao/Work/LiteOS_Lab/iot_link/os/liteos/base/ipc/los_queue.c **** 
 320:/home/fanxinhao/Work/LiteOS_Lab/iot_link/os/liteos/base/ipc/los_queue.c ****     if (0 == pstQueueCB->usReadWriteableCnt[uwReadWrite])
 1182              		.loc 2 320 44
 1183 007a BB69     		ldr	r3, [r7, #24]
 1184 007c FA69     		ldr	r2, [r7, #28]
ARM GAS  /tmp/ccK7oid1.s 			page 31


 1185 007e 0832     		adds	r2, r2, #8
 1186 0080 33F81230 		ldrh	r3, [r3, r2, lsl #1]
 1187              		.loc 2 320 8
 1188 0084 002B     		cmp	r3, #0
 1189 0086 3AD1     		bne	.L65
 321:/home/fanxinhao/Work/LiteOS_Lab/iot_link/os/liteos/base/ipc/los_queue.c ****     {
 322:/home/fanxinhao/Work/LiteOS_Lab/iot_link/os/liteos/base/ipc/los_queue.c ****         if (LOS_NO_WAIT == uwTimeOut)
 1190              		.loc 2 322 12
 1191 0088 3B6B     		ldr	r3, [r7, #48]
 1192 008a 002B     		cmp	r3, #0
 1193 008c 09D1     		bne	.L66
 323:/home/fanxinhao/Work/LiteOS_Lab/iot_link/os/liteos/base/ipc/los_queue.c ****         {
 324:/home/fanxinhao/Work/LiteOS_Lab/iot_link/os/liteos/base/ipc/los_queue.c ****             uwRet = OS_QUEUE_IS_READ(uwOperateType) ? LOS_ERRNO_QUEUE_ISEMPTY : LOS_ERRNO_QUEUE_ISF
 1194              		.loc 2 324 21
 1195 008e BB68     		ldr	r3, [r7, #8]
 1196 0090 03F00103 		and	r3, r3, #1
 1197              		.loc 2 324 79
 1198 0094 002B     		cmp	r3, #0
 1199 0096 01D1     		bne	.L67
 1200              		.loc 2 324 79 is_stmt 0 discriminator 1
 1201 0098 474B     		ldr	r3, .L73+16
 1202 009a 00E0     		b	.L68
 1203              	.L67:
 1204              		.loc 2 324 79 discriminator 2
 1205 009c 474B     		ldr	r3, .L73+20
 1206              	.L68:
 1207              		.loc 2 324 19 is_stmt 1 discriminator 4
 1208 009e 3B62     		str	r3, [r7, #32]
 325:/home/fanxinhao/Work/LiteOS_Lab/iot_link/os/liteos/base/ipc/los_queue.c ****             goto QUEUE_END;
 1209              		.loc 2 325 13 discriminator 4
 1210 00a0 7AE0     		b	.L62
 1211              	.L66:
 326:/home/fanxinhao/Work/LiteOS_Lab/iot_link/os/liteos/base/ipc/los_queue.c ****         }
 327:/home/fanxinhao/Work/LiteOS_Lab/iot_link/os/liteos/base/ipc/los_queue.c **** 
 328:/home/fanxinhao/Work/LiteOS_Lab/iot_link/os/liteos/base/ipc/los_queue.c ****         if (g_usLosTaskLock)
 1212              		.loc 2 328 13
 1213 00a2 474B     		ldr	r3, .L73+24
 1214 00a4 1B88     		ldrh	r3, [r3]
 1215              		.loc 2 328 12
 1216 00a6 002B     		cmp	r3, #0
 1217 00a8 02D0     		beq	.L69
 329:/home/fanxinhao/Work/LiteOS_Lab/iot_link/os/liteos/base/ipc/los_queue.c ****         {
 330:/home/fanxinhao/Work/LiteOS_Lab/iot_link/os/liteos/base/ipc/los_queue.c ****             uwRet = LOS_ERRNO_QUEUE_PEND_IN_LOCK;
 1218              		.loc 2 330 19
 1219 00aa 464B     		ldr	r3, .L73+28
 1220 00ac 3B62     		str	r3, [r7, #32]
 331:/home/fanxinhao/Work/LiteOS_Lab/iot_link/os/liteos/base/ipc/los_queue.c ****             goto QUEUE_END;
 1221              		.loc 2 331 13
 1222 00ae 73E0     		b	.L62
 1223              	.L69:
 332:/home/fanxinhao/Work/LiteOS_Lab/iot_link/os/liteos/base/ipc/los_queue.c ****         }
 333:/home/fanxinhao/Work/LiteOS_Lab/iot_link/os/liteos/base/ipc/los_queue.c **** 
 334:/home/fanxinhao/Work/LiteOS_Lab/iot_link/os/liteos/base/ipc/los_queue.c ****         pstRunTsk = (LOS_TASK_CB *)g_stLosTask.pstRunTask;
 1224              		.loc 2 334 19
 1225 00b0 454B     		ldr	r3, .L73+32
 1226 00b2 1B68     		ldr	r3, [r3]
 1227 00b4 7B61     		str	r3, [r7, #20]
ARM GAS  /tmp/ccK7oid1.s 			page 32


 335:/home/fanxinhao/Work/LiteOS_Lab/iot_link/os/liteos/base/ipc/los_queue.c ****         osTaskWait(&pstQueueCB->stReadWriteList[uwReadWrite], OS_TASK_STATUS_PEND_QUEUE, uwTimeOut)
 1228              		.loc 2 335 9
 1229 00b6 FB69     		ldr	r3, [r7, #28]
 1230 00b8 0233     		adds	r3, r3, #2
 1231 00ba DB00     		lsls	r3, r3, #3
 1232 00bc BA69     		ldr	r2, [r7, #24]
 1233 00be 1344     		add	r3, r3, r2
 1234 00c0 0433     		adds	r3, r3, #4
 1235 00c2 3A6B     		ldr	r2, [r7, #48]
 1236 00c4 4FF40051 		mov	r1, #8192
 1237 00c8 1846     		mov	r0, r3
 1238 00ca FFF7FEFF 		bl	osTaskWait
 336:/home/fanxinhao/Work/LiteOS_Lab/iot_link/os/liteos/base/ipc/los_queue.c ****         LOS_IntRestore(uvIntSave);
 1239              		.loc 2 336 9
 1240 00ce 786A     		ldr	r0, [r7, #36]
 1241 00d0 FFF7FEFF 		bl	LOS_IntRestore
 337:/home/fanxinhao/Work/LiteOS_Lab/iot_link/os/liteos/base/ipc/los_queue.c ****         LOS_Schedule();
 1242              		.loc 2 337 9
 1243 00d4 FFF7FEFF 		bl	LOS_Schedule
 338:/home/fanxinhao/Work/LiteOS_Lab/iot_link/os/liteos/base/ipc/los_queue.c **** 
 339:/home/fanxinhao/Work/LiteOS_Lab/iot_link/os/liteos/base/ipc/los_queue.c ****         uvIntSave = LOS_IntLock();
 1244              		.loc 2 339 21
 1245 00d8 FFF7FEFF 		bl	LOS_IntLock
 1246 00dc 7862     		str	r0, [r7, #36]
 340:/home/fanxinhao/Work/LiteOS_Lab/iot_link/os/liteos/base/ipc/los_queue.c **** 
 341:/home/fanxinhao/Work/LiteOS_Lab/iot_link/os/liteos/base/ipc/los_queue.c ****         if (pstRunTsk->usTaskStatus & OS_TASK_STATUS_TIMEOUT)
 1247              		.loc 2 341 22
 1248 00de 7B69     		ldr	r3, [r7, #20]
 1249 00e0 9B88     		ldrh	r3, [r3, #4]
 1250              		.loc 2 341 37
 1251 00e2 03F04003 		and	r3, r3, #64
 1252              		.loc 2 341 12
 1253 00e6 002B     		cmp	r3, #0
 1254 00e8 15D0     		beq	.L70
 342:/home/fanxinhao/Work/LiteOS_Lab/iot_link/os/liteos/base/ipc/los_queue.c ****         {
 343:/home/fanxinhao/Work/LiteOS_Lab/iot_link/os/liteos/base/ipc/los_queue.c ****             pstRunTsk->usTaskStatus &= (~OS_TASK_STATUS_TIMEOUT);
 1255              		.loc 2 343 37
 1256 00ea 7B69     		ldr	r3, [r7, #20]
 1257 00ec 9B88     		ldrh	r3, [r3, #4]
 1258 00ee 23F04003 		bic	r3, r3, #64
 1259 00f2 9AB2     		uxth	r2, r3
 1260 00f4 7B69     		ldr	r3, [r7, #20]
 1261 00f6 9A80     		strh	r2, [r3, #4]	@ movhi
 344:/home/fanxinhao/Work/LiteOS_Lab/iot_link/os/liteos/base/ipc/los_queue.c ****             uwRet = LOS_ERRNO_QUEUE_TIMEOUT;
 1262              		.loc 2 344 19
 1263 00f8 344B     		ldr	r3, .L73+36
 1264 00fa 3B62     		str	r3, [r7, #32]
 345:/home/fanxinhao/Work/LiteOS_Lab/iot_link/os/liteos/base/ipc/los_queue.c ****             goto QUEUE_END;
 1265              		.loc 2 345 13
 1266 00fc 4CE0     		b	.L62
 1267              	.L65:
 346:/home/fanxinhao/Work/LiteOS_Lab/iot_link/os/liteos/base/ipc/los_queue.c ****         }
 347:/home/fanxinhao/Work/LiteOS_Lab/iot_link/os/liteos/base/ipc/los_queue.c ****     }
 348:/home/fanxinhao/Work/LiteOS_Lab/iot_link/os/liteos/base/ipc/los_queue.c ****     else
 349:/home/fanxinhao/Work/LiteOS_Lab/iot_link/os/liteos/base/ipc/los_queue.c ****     {
 350:/home/fanxinhao/Work/LiteOS_Lab/iot_link/os/liteos/base/ipc/los_queue.c ****         pstQueueCB->usReadWriteableCnt[uwReadWrite]--;
 1268              		.loc 2 350 39
ARM GAS  /tmp/ccK7oid1.s 			page 33


 1269 00fe BB69     		ldr	r3, [r7, #24]
 1270 0100 FA69     		ldr	r2, [r7, #28]
 1271 0102 0832     		adds	r2, r2, #8
 1272 0104 33F81230 		ldrh	r3, [r3, r2, lsl #1]
 1273              		.loc 2 350 52
 1274 0108 013B     		subs	r3, r3, #1
 1275 010a 99B2     		uxth	r1, r3
 1276 010c BB69     		ldr	r3, [r7, #24]
 1277 010e FA69     		ldr	r2, [r7, #28]
 1278 0110 0832     		adds	r2, r2, #8
 1279 0112 23F81210 		strh	r1, [r3, r2, lsl #1]	@ movhi
 1280              	.L70:
 351:/home/fanxinhao/Work/LiteOS_Lab/iot_link/os/liteos/base/ipc/los_queue.c ****     }
 352:/home/fanxinhao/Work/LiteOS_Lab/iot_link/os/liteos/base/ipc/los_queue.c **** 
 353:/home/fanxinhao/Work/LiteOS_Lab/iot_link/os/liteos/base/ipc/los_queue.c ****     osQueueBufferOperate(pstQueueCB, uwOperateType, pBufferAddr, puwBufferSize);
 1281              		.loc 2 353 5
 1282 0116 3B68     		ldr	r3, [r7]
 1283 0118 7A68     		ldr	r2, [r7, #4]
 1284 011a B968     		ldr	r1, [r7, #8]
 1285 011c B869     		ldr	r0, [r7, #24]
 1286 011e FFF7FEFF 		bl	osQueueBufferOperate
 354:/home/fanxinhao/Work/LiteOS_Lab/iot_link/os/liteos/base/ipc/los_queue.c **** 
 355:/home/fanxinhao/Work/LiteOS_Lab/iot_link/os/liteos/base/ipc/los_queue.c ****     if (!LOS_ListEmpty(&pstQueueCB->stReadWriteList[!uwReadWrite])) /*lint !e514*/
 1287              		.loc 2 355 53
 1288 0122 FB69     		ldr	r3, [r7, #28]
 1289 0124 002B     		cmp	r3, #0
 1290 0126 0CBF     		ite	eq
 1291 0128 0123     		moveq	r3, #1
 1292 012a 0023     		movne	r3, #0
 1293 012c DBB2     		uxtb	r3, r3
 1294              		.loc 2 355 10
 1295 012e 0233     		adds	r3, r3, #2
 1296 0130 DB00     		lsls	r3, r3, #3
 1297 0132 BA69     		ldr	r2, [r7, #24]
 1298 0134 1344     		add	r3, r3, r2
 1299 0136 0433     		adds	r3, r3, #4
 1300 0138 1846     		mov	r0, r3
 1301 013a FFF7FEFF 		bl	LOS_ListEmpty
 1302 013e 0346     		mov	r3, r0
 1303              		.loc 2 355 8
 1304 0140 002B     		cmp	r3, #0
 1305 0142 18D1     		bne	.L71
 356:/home/fanxinhao/Work/LiteOS_Lab/iot_link/os/liteos/base/ipc/los_queue.c ****     {
 357:/home/fanxinhao/Work/LiteOS_Lab/iot_link/os/liteos/base/ipc/los_queue.c ****         pstResumedTask = OS_TCB_FROM_PENDLIST(LOS_DL_LIST_FIRST(&pstQueueCB->stReadWriteList[!uwRea
 1306              		.loc 2 357 26
 1307 0144 FB69     		ldr	r3, [r7, #28]
 1308 0146 002B     		cmp	r3, #0
 1309 0148 0CBF     		ite	eq
 1310 014a 0123     		moveq	r3, #1
 1311 014c 0023     		movne	r3, #0
 1312 014e DBB2     		uxtb	r3, r3
 1313 0150 BA69     		ldr	r2, [r7, #24]
 1314 0152 0233     		adds	r3, r3, #2
 1315 0154 DB00     		lsls	r3, r3, #3
 1316 0156 1344     		add	r3, r3, r2
 1317 0158 9B68     		ldr	r3, [r3, #8]
 1318              		.loc 2 357 24
ARM GAS  /tmp/ccK7oid1.s 			page 34


 1319 015a 283B     		subs	r3, r3, #40
 1320 015c 3B61     		str	r3, [r7, #16]
 358:/home/fanxinhao/Work/LiteOS_Lab/iot_link/os/liteos/base/ipc/los_queue.c ****         osTaskWake(pstResumedTask, OS_TASK_STATUS_PEND_QUEUE);
 1321              		.loc 2 358 9
 1322 015e 4FF40051 		mov	r1, #8192
 1323 0162 3869     		ldr	r0, [r7, #16]
 1324 0164 FFF7FEFF 		bl	osTaskWake
 359:/home/fanxinhao/Work/LiteOS_Lab/iot_link/os/liteos/base/ipc/los_queue.c ****         LOS_IntRestore(uvIntSave);
 1325              		.loc 2 359 9
 1326 0168 786A     		ldr	r0, [r7, #36]
 1327 016a FFF7FEFF 		bl	LOS_IntRestore
 360:/home/fanxinhao/Work/LiteOS_Lab/iot_link/os/liteos/base/ipc/los_queue.c ****         LOS_Schedule();
 1328              		.loc 2 360 9
 1329 016e FFF7FEFF 		bl	LOS_Schedule
 361:/home/fanxinhao/Work/LiteOS_Lab/iot_link/os/liteos/base/ipc/los_queue.c ****         return LOS_OK;
 1330              		.loc 2 361 16
 1331 0172 0023     		movs	r3, #0
 1332 0174 14E0     		b	.L72
 1333              	.L71:
 362:/home/fanxinhao/Work/LiteOS_Lab/iot_link/os/liteos/base/ipc/los_queue.c ****     }
 363:/home/fanxinhao/Work/LiteOS_Lab/iot_link/os/liteos/base/ipc/los_queue.c ****     else
 364:/home/fanxinhao/Work/LiteOS_Lab/iot_link/os/liteos/base/ipc/los_queue.c ****     {
 365:/home/fanxinhao/Work/LiteOS_Lab/iot_link/os/liteos/base/ipc/los_queue.c ****         pstQueueCB->usReadWriteableCnt[!uwReadWrite]++; /*lint !e514*/
 1334              		.loc 2 365 40
 1335 0176 FB69     		ldr	r3, [r7, #28]
 1336 0178 002B     		cmp	r3, #0
 1337 017a 0CBF     		ite	eq
 1338 017c 0123     		moveq	r3, #1
 1339 017e 0023     		movne	r3, #0
 1340 0180 DBB2     		uxtb	r3, r3
 1341              		.loc 2 365 39
 1342 0182 BA69     		ldr	r2, [r7, #24]
 1343 0184 03F10801 		add	r1, r3, #8
 1344 0188 32F81120 		ldrh	r2, [r2, r1, lsl #1]
 1345              		.loc 2 365 53
 1346 018c 0132     		adds	r2, r2, #1
 1347 018e 91B2     		uxth	r1, r2
 1348 0190 BA69     		ldr	r2, [r7, #24]
 1349 0192 0833     		adds	r3, r3, #8
 1350 0194 22F81310 		strh	r1, [r2, r3, lsl #1]	@ movhi
 1351              	.L62:
 366:/home/fanxinhao/Work/LiteOS_Lab/iot_link/os/liteos/base/ipc/los_queue.c ****     }
 367:/home/fanxinhao/Work/LiteOS_Lab/iot_link/os/liteos/base/ipc/los_queue.c **** 
 368:/home/fanxinhao/Work/LiteOS_Lab/iot_link/os/liteos/base/ipc/los_queue.c **** QUEUE_END:
 369:/home/fanxinhao/Work/LiteOS_Lab/iot_link/os/liteos/base/ipc/los_queue.c ****     LOS_IntRestore(uvIntSave);
 1352              		.loc 2 369 5
 1353 0198 786A     		ldr	r0, [r7, #36]
 1354 019a FFF7FEFF 		bl	LOS_IntRestore
 370:/home/fanxinhao/Work/LiteOS_Lab/iot_link/os/liteos/base/ipc/los_queue.c ****     return uwRet;
 1355              		.loc 2 370 12
 1356 019e 3B6A     		ldr	r3, [r7, #32]
 1357              	.L72:
 371:/home/fanxinhao/Work/LiteOS_Lab/iot_link/os/liteos/base/ipc/los_queue.c **** }
 1358              		.loc 2 371 1
 1359 01a0 1846     		mov	r0, r3
 1360 01a2 2837     		adds	r7, r7, #40
 1361              	.LCFI59:
ARM GAS  /tmp/ccK7oid1.s 			page 35


 1362              		.cfi_def_cfa_offset 8
 1363 01a4 BD46     		mov	sp, r7
 1364              	.LCFI60:
 1365              		.cfi_def_cfa_register 13
 1366              		@ sp needed
 1367 01a6 80BD     		pop	{r7, pc}
 1368              	.L74:
 1369              		.align	2
 1370              	.L73:
 1371 01a8 00000000 		.word	g_pstAllQueue
 1372 01ac 0A060002 		.word	33555978
 1373 01b0 1F060002 		.word	33555999
 1374 01b4 15060002 		.word	33555989
 1375 01b8 1D060002 		.word	33555997
 1376 01bc 16060002 		.word	33555990
 1377 01c0 00000000 		.word	g_usLosTaskLock
 1378 01c4 06060002 		.word	33555974
 1379 01c8 00000000 		.word	g_stLosTask
 1380 01cc 07060002 		.word	33555975
 1381              		.cfi_endproc
 1382              	.LFE138:
 1384              		.section	.text.LOS_QueueReadCopy,"ax",%progbits
 1385              		.align	1
 1386              		.global	LOS_QueueReadCopy
 1387              		.syntax unified
 1388              		.thumb
 1389              		.thumb_func
 1390              		.fpu fpv4-sp-d16
 1392              	LOS_QueueReadCopy:
 1393              	.LFB139:
 372:/home/fanxinhao/Work/LiteOS_Lab/iot_link/os/liteos/base/ipc/los_queue.c **** 
 373:/home/fanxinhao/Work/LiteOS_Lab/iot_link/os/liteos/base/ipc/los_queue.c **** /*****************************************************************************
 374:/home/fanxinhao/Work/LiteOS_Lab/iot_link/os/liteos/base/ipc/los_queue.c ****  Function    : LOS_QueueReadCopy
 375:/home/fanxinhao/Work/LiteOS_Lab/iot_link/os/liteos/base/ipc/los_queue.c ****  Description : Read queue
 376:/home/fanxinhao/Work/LiteOS_Lab/iot_link/os/liteos/base/ipc/los_queue.c ****  Input       : uwQueueID
 377:/home/fanxinhao/Work/LiteOS_Lab/iot_link/os/liteos/base/ipc/los_queue.c ****                puwBufferSize
 378:/home/fanxinhao/Work/LiteOS_Lab/iot_link/os/liteos/base/ipc/los_queue.c ****                uwTimeOut
 379:/home/fanxinhao/Work/LiteOS_Lab/iot_link/os/liteos/base/ipc/los_queue.c ****  Output      : pBufferAddr
 380:/home/fanxinhao/Work/LiteOS_Lab/iot_link/os/liteos/base/ipc/los_queue.c ****                puwBufferSize
 381:/home/fanxinhao/Work/LiteOS_Lab/iot_link/os/liteos/base/ipc/los_queue.c ****  Return      : LOS_OK on success or error code on failure
 382:/home/fanxinhao/Work/LiteOS_Lab/iot_link/os/liteos/base/ipc/los_queue.c ****  *****************************************************************************/
 383:/home/fanxinhao/Work/LiteOS_Lab/iot_link/os/liteos/base/ipc/los_queue.c **** LITE_OS_SEC_TEXT UINT32 LOS_QueueReadCopy(UINT32  uwQueueID,
 384:/home/fanxinhao/Work/LiteOS_Lab/iot_link/os/liteos/base/ipc/los_queue.c ****                     VOID *  pBufferAddr,
 385:/home/fanxinhao/Work/LiteOS_Lab/iot_link/os/liteos/base/ipc/los_queue.c ****                     UINT32 * puwBufferSize,
 386:/home/fanxinhao/Work/LiteOS_Lab/iot_link/os/liteos/base/ipc/los_queue.c ****                     UINT32  uwTimeOut)
 387:/home/fanxinhao/Work/LiteOS_Lab/iot_link/os/liteos/base/ipc/los_queue.c **** {
 1394              		.loc 2 387 1
 1395              		.cfi_startproc
 1396              		@ args = 0, pretend = 0, frame = 24
 1397              		@ frame_needed = 1, uses_anonymous_args = 0
 1398 0000 80B5     		push	{r7, lr}
 1399              	.LCFI61:
 1400              		.cfi_def_cfa_offset 8
 1401              		.cfi_offset 7, -8
 1402              		.cfi_offset 14, -4
 1403 0002 88B0     		sub	sp, sp, #32
 1404              	.LCFI62:
ARM GAS  /tmp/ccK7oid1.s 			page 36


 1405              		.cfi_def_cfa_offset 40
 1406 0004 02AF     		add	r7, sp, #8
 1407              	.LCFI63:
 1408              		.cfi_def_cfa 7, 32
 1409 0006 F860     		str	r0, [r7, #12]
 1410 0008 B960     		str	r1, [r7, #8]
 1411 000a 7A60     		str	r2, [r7, #4]
 1412 000c 3B60     		str	r3, [r7]
 388:/home/fanxinhao/Work/LiteOS_Lab/iot_link/os/liteos/base/ipc/los_queue.c ****     UINT32 uwRet;
 389:/home/fanxinhao/Work/LiteOS_Lab/iot_link/os/liteos/base/ipc/los_queue.c ****     UINT32 uwOperateType;
 390:/home/fanxinhao/Work/LiteOS_Lab/iot_link/os/liteos/base/ipc/los_queue.c **** 
 391:/home/fanxinhao/Work/LiteOS_Lab/iot_link/os/liteos/base/ipc/los_queue.c ****     uwRet = osQueueReadParameterCheck(uwQueueID, pBufferAddr, puwBufferSize, uwTimeOut);
 1413              		.loc 2 391 13
 1414 000e 3B68     		ldr	r3, [r7]
 1415 0010 7A68     		ldr	r2, [r7, #4]
 1416 0012 B968     		ldr	r1, [r7, #8]
 1417 0014 F868     		ldr	r0, [r7, #12]
 1418 0016 FFF7FEFF 		bl	osQueueReadParameterCheck
 1419 001a 7861     		str	r0, [r7, #20]
 392:/home/fanxinhao/Work/LiteOS_Lab/iot_link/os/liteos/base/ipc/los_queue.c ****     if(uwRet != LOS_OK)
 1420              		.loc 2 392 7
 1421 001c 7B69     		ldr	r3, [r7, #20]
 1422 001e 002B     		cmp	r3, #0
 1423 0020 01D0     		beq	.L76
 393:/home/fanxinhao/Work/LiteOS_Lab/iot_link/os/liteos/base/ipc/los_queue.c ****     {
 394:/home/fanxinhao/Work/LiteOS_Lab/iot_link/os/liteos/base/ipc/los_queue.c ****         return uwRet;
 1424              		.loc 2 394 16
 1425 0022 7B69     		ldr	r3, [r7, #20]
 1426 0024 0AE0     		b	.L77
 1427              	.L76:
 395:/home/fanxinhao/Work/LiteOS_Lab/iot_link/os/liteos/base/ipc/los_queue.c ****     }
 396:/home/fanxinhao/Work/LiteOS_Lab/iot_link/os/liteos/base/ipc/los_queue.c **** 
 397:/home/fanxinhao/Work/LiteOS_Lab/iot_link/os/liteos/base/ipc/los_queue.c ****     uwOperateType = OS_QUEUE_OPERATE_TYPE(OS_QUEUE_READ, OS_QUEUE_HEAD,OS_QUEUE_NOT_POINT);
 1428              		.loc 2 397 19
 1429 0026 0023     		movs	r3, #0
 1430 0028 3B61     		str	r3, [r7, #16]
 398:/home/fanxinhao/Work/LiteOS_Lab/iot_link/os/liteos/base/ipc/los_queue.c ****     return osQueueOperate(uwQueueID, uwOperateType, pBufferAddr, puwBufferSize, uwTimeOut);
 1431              		.loc 2 398 12
 1432 002a 3B68     		ldr	r3, [r7]
 1433 002c 0093     		str	r3, [sp]
 1434 002e 7B68     		ldr	r3, [r7, #4]
 1435 0030 BA68     		ldr	r2, [r7, #8]
 1436 0032 3969     		ldr	r1, [r7, #16]
 1437 0034 F868     		ldr	r0, [r7, #12]
 1438 0036 FFF7FEFF 		bl	osQueueOperate
 1439 003a 0346     		mov	r3, r0
 1440              	.L77:
 399:/home/fanxinhao/Work/LiteOS_Lab/iot_link/os/liteos/base/ipc/los_queue.c **** }
 1441              		.loc 2 399 1
 1442 003c 1846     		mov	r0, r3
 1443 003e 1837     		adds	r7, r7, #24
 1444              	.LCFI64:
 1445              		.cfi_def_cfa_offset 8
 1446 0040 BD46     		mov	sp, r7
 1447              	.LCFI65:
 1448              		.cfi_def_cfa_register 13
 1449              		@ sp needed
ARM GAS  /tmp/ccK7oid1.s 			page 37


 1450 0042 80BD     		pop	{r7, pc}
 1451              		.cfi_endproc
 1452              	.LFE139:
 1454              		.section	.text.LOS_QueueWriteHeadCopy,"ax",%progbits
 1455              		.align	1
 1456              		.global	LOS_QueueWriteHeadCopy
 1457              		.syntax unified
 1458              		.thumb
 1459              		.thumb_func
 1460              		.fpu fpv4-sp-d16
 1462              	LOS_QueueWriteHeadCopy:
 1463              	.LFB140:
 400:/home/fanxinhao/Work/LiteOS_Lab/iot_link/os/liteos/base/ipc/los_queue.c **** 
 401:/home/fanxinhao/Work/LiteOS_Lab/iot_link/os/liteos/base/ipc/los_queue.c **** /*****************************************************************************
 402:/home/fanxinhao/Work/LiteOS_Lab/iot_link/os/liteos/base/ipc/los_queue.c ****  Function    : LOS_QueueWriteHeadCopy
 403:/home/fanxinhao/Work/LiteOS_Lab/iot_link/os/liteos/base/ipc/los_queue.c ****  Description : Write queue head
 404:/home/fanxinhao/Work/LiteOS_Lab/iot_link/os/liteos/base/ipc/los_queue.c ****  Input       : uwQueueID
 405:/home/fanxinhao/Work/LiteOS_Lab/iot_link/os/liteos/base/ipc/los_queue.c ****                pBufferAddr
 406:/home/fanxinhao/Work/LiteOS_Lab/iot_link/os/liteos/base/ipc/los_queue.c ****                uwBufferSize
 407:/home/fanxinhao/Work/LiteOS_Lab/iot_link/os/liteos/base/ipc/los_queue.c ****                uwTimeOut
 408:/home/fanxinhao/Work/LiteOS_Lab/iot_link/os/liteos/base/ipc/los_queue.c ****  Output      : None
 409:/home/fanxinhao/Work/LiteOS_Lab/iot_link/os/liteos/base/ipc/los_queue.c ****  Return      : LOS_OK on success or error code on failure
 410:/home/fanxinhao/Work/LiteOS_Lab/iot_link/os/liteos/base/ipc/los_queue.c ****  *****************************************************************************/
 411:/home/fanxinhao/Work/LiteOS_Lab/iot_link/os/liteos/base/ipc/los_queue.c **** LITE_OS_SEC_TEXT UINT32 LOS_QueueWriteHeadCopy(UINT32 uwQueueID,
 412:/home/fanxinhao/Work/LiteOS_Lab/iot_link/os/liteos/base/ipc/los_queue.c ****                                      VOID * pBufferAddr,
 413:/home/fanxinhao/Work/LiteOS_Lab/iot_link/os/liteos/base/ipc/los_queue.c ****                                      UINT32 uwBufferSize,
 414:/home/fanxinhao/Work/LiteOS_Lab/iot_link/os/liteos/base/ipc/los_queue.c ****                                      UINT32 uwTimeOut )
 415:/home/fanxinhao/Work/LiteOS_Lab/iot_link/os/liteos/base/ipc/los_queue.c **** {
 1464              		.loc 2 415 1
 1465              		.cfi_startproc
 1466              		@ args = 0, pretend = 0, frame = 24
 1467              		@ frame_needed = 1, uses_anonymous_args = 0
 1468 0000 80B5     		push	{r7, lr}
 1469              	.LCFI66:
 1470              		.cfi_def_cfa_offset 8
 1471              		.cfi_offset 7, -8
 1472              		.cfi_offset 14, -4
 1473 0002 88B0     		sub	sp, sp, #32
 1474              	.LCFI67:
 1475              		.cfi_def_cfa_offset 40
 1476 0004 02AF     		add	r7, sp, #8
 1477              	.LCFI68:
 1478              		.cfi_def_cfa 7, 32
 1479 0006 F860     		str	r0, [r7, #12]
 1480 0008 B960     		str	r1, [r7, #8]
 1481 000a 7A60     		str	r2, [r7, #4]
 1482 000c 3B60     		str	r3, [r7]
 416:/home/fanxinhao/Work/LiteOS_Lab/iot_link/os/liteos/base/ipc/los_queue.c ****     UINT32 uwRet;
 417:/home/fanxinhao/Work/LiteOS_Lab/iot_link/os/liteos/base/ipc/los_queue.c ****     UINT32 uwOperateType;
 418:/home/fanxinhao/Work/LiteOS_Lab/iot_link/os/liteos/base/ipc/los_queue.c **** 
 419:/home/fanxinhao/Work/LiteOS_Lab/iot_link/os/liteos/base/ipc/los_queue.c ****     uwRet = osQueueWriteParameterCheck(uwQueueID, pBufferAddr, &uwBufferSize, uwTimeOut);
 1483              		.loc 2 419 13
 1484 000e 3A1D     		adds	r2, r7, #4
 1485 0010 3B68     		ldr	r3, [r7]
 1486 0012 B968     		ldr	r1, [r7, #8]
 1487 0014 F868     		ldr	r0, [r7, #12]
 1488 0016 FFF7FEFF 		bl	osQueueWriteParameterCheck
ARM GAS  /tmp/ccK7oid1.s 			page 38


 1489 001a 7861     		str	r0, [r7, #20]
 420:/home/fanxinhao/Work/LiteOS_Lab/iot_link/os/liteos/base/ipc/los_queue.c ****     if(uwRet != LOS_OK)
 1490              		.loc 2 420 7
 1491 001c 7B69     		ldr	r3, [r7, #20]
 1492 001e 002B     		cmp	r3, #0
 1493 0020 01D0     		beq	.L79
 421:/home/fanxinhao/Work/LiteOS_Lab/iot_link/os/liteos/base/ipc/los_queue.c ****     {
 422:/home/fanxinhao/Work/LiteOS_Lab/iot_link/os/liteos/base/ipc/los_queue.c ****         return uwRet;
 1494              		.loc 2 422 16
 1495 0022 7B69     		ldr	r3, [r7, #20]
 1496 0024 0BE0     		b	.L80
 1497              	.L79:
 423:/home/fanxinhao/Work/LiteOS_Lab/iot_link/os/liteos/base/ipc/los_queue.c ****     }
 424:/home/fanxinhao/Work/LiteOS_Lab/iot_link/os/liteos/base/ipc/los_queue.c **** 
 425:/home/fanxinhao/Work/LiteOS_Lab/iot_link/os/liteos/base/ipc/los_queue.c ****     uwOperateType = OS_QUEUE_OPERATE_TYPE(OS_QUEUE_WRITE, OS_QUEUE_HEAD,OS_QUEUE_NOT_POINT);
 1498              		.loc 2 425 19
 1499 0026 0123     		movs	r3, #1
 1500 0028 3B61     		str	r3, [r7, #16]
 426:/home/fanxinhao/Work/LiteOS_Lab/iot_link/os/liteos/base/ipc/los_queue.c ****     return osQueueOperate(uwQueueID, uwOperateType, pBufferAddr, &uwBufferSize, uwTimeOut);
 1501              		.loc 2 426 12
 1502 002a 3A1D     		adds	r2, r7, #4
 1503 002c 3B68     		ldr	r3, [r7]
 1504 002e 0093     		str	r3, [sp]
 1505 0030 1346     		mov	r3, r2
 1506 0032 BA68     		ldr	r2, [r7, #8]
 1507 0034 3969     		ldr	r1, [r7, #16]
 1508 0036 F868     		ldr	r0, [r7, #12]
 1509 0038 FFF7FEFF 		bl	osQueueOperate
 1510 003c 0346     		mov	r3, r0
 1511              	.L80:
 427:/home/fanxinhao/Work/LiteOS_Lab/iot_link/os/liteos/base/ipc/los_queue.c **** }
 1512              		.loc 2 427 1
 1513 003e 1846     		mov	r0, r3
 1514 0040 1837     		adds	r7, r7, #24
 1515              	.LCFI69:
 1516              		.cfi_def_cfa_offset 8
 1517 0042 BD46     		mov	sp, r7
 1518              	.LCFI70:
 1519              		.cfi_def_cfa_register 13
 1520              		@ sp needed
 1521 0044 80BD     		pop	{r7, pc}
 1522              		.cfi_endproc
 1523              	.LFE140:
 1525              		.section	.text.LOS_QueueWriteCopy,"ax",%progbits
 1526              		.align	1
 1527              		.global	LOS_QueueWriteCopy
 1528              		.syntax unified
 1529              		.thumb
 1530              		.thumb_func
 1531              		.fpu fpv4-sp-d16
 1533              	LOS_QueueWriteCopy:
 1534              	.LFB141:
 428:/home/fanxinhao/Work/LiteOS_Lab/iot_link/os/liteos/base/ipc/los_queue.c **** 
 429:/home/fanxinhao/Work/LiteOS_Lab/iot_link/os/liteos/base/ipc/los_queue.c **** /*****************************************************************************
 430:/home/fanxinhao/Work/LiteOS_Lab/iot_link/os/liteos/base/ipc/los_queue.c ****  Function    : LOS_QueueWriteCopy
 431:/home/fanxinhao/Work/LiteOS_Lab/iot_link/os/liteos/base/ipc/los_queue.c ****  Description : Write queue tail
 432:/home/fanxinhao/Work/LiteOS_Lab/iot_link/os/liteos/base/ipc/los_queue.c ****  Input       : uwQueueID
ARM GAS  /tmp/ccK7oid1.s 			page 39


 433:/home/fanxinhao/Work/LiteOS_Lab/iot_link/os/liteos/base/ipc/los_queue.c ****                pBufferAddr
 434:/home/fanxinhao/Work/LiteOS_Lab/iot_link/os/liteos/base/ipc/los_queue.c ****                uwBufferSize
 435:/home/fanxinhao/Work/LiteOS_Lab/iot_link/os/liteos/base/ipc/los_queue.c ****                uwTimeOut
 436:/home/fanxinhao/Work/LiteOS_Lab/iot_link/os/liteos/base/ipc/los_queue.c ****  Output      : None
 437:/home/fanxinhao/Work/LiteOS_Lab/iot_link/os/liteos/base/ipc/los_queue.c ****  Return      : LOS_OK on success or error code on failure
 438:/home/fanxinhao/Work/LiteOS_Lab/iot_link/os/liteos/base/ipc/los_queue.c ****  *****************************************************************************/
 439:/home/fanxinhao/Work/LiteOS_Lab/iot_link/os/liteos/base/ipc/los_queue.c **** LITE_OS_SEC_TEXT UINT32 LOS_QueueWriteCopy( UINT32 uwQueueID,
 440:/home/fanxinhao/Work/LiteOS_Lab/iot_link/os/liteos/base/ipc/los_queue.c ****                                      VOID * pBufferAddr,
 441:/home/fanxinhao/Work/LiteOS_Lab/iot_link/os/liteos/base/ipc/los_queue.c ****                                      UINT32 uwBufferSize,
 442:/home/fanxinhao/Work/LiteOS_Lab/iot_link/os/liteos/base/ipc/los_queue.c ****                                      UINT32 uwTimeOut )
 443:/home/fanxinhao/Work/LiteOS_Lab/iot_link/os/liteos/base/ipc/los_queue.c **** {
 1535              		.loc 2 443 1
 1536              		.cfi_startproc
 1537              		@ args = 0, pretend = 0, frame = 24
 1538              		@ frame_needed = 1, uses_anonymous_args = 0
 1539 0000 80B5     		push	{r7, lr}
 1540              	.LCFI71:
 1541              		.cfi_def_cfa_offset 8
 1542              		.cfi_offset 7, -8
 1543              		.cfi_offset 14, -4
 1544 0002 88B0     		sub	sp, sp, #32
 1545              	.LCFI72:
 1546              		.cfi_def_cfa_offset 40
 1547 0004 02AF     		add	r7, sp, #8
 1548              	.LCFI73:
 1549              		.cfi_def_cfa 7, 32
 1550 0006 F860     		str	r0, [r7, #12]
 1551 0008 B960     		str	r1, [r7, #8]
 1552 000a 7A60     		str	r2, [r7, #4]
 1553 000c 3B60     		str	r3, [r7]
 444:/home/fanxinhao/Work/LiteOS_Lab/iot_link/os/liteos/base/ipc/los_queue.c ****     UINT32 uwRet;
 445:/home/fanxinhao/Work/LiteOS_Lab/iot_link/os/liteos/base/ipc/los_queue.c ****     UINT32 uwOperateType;
 446:/home/fanxinhao/Work/LiteOS_Lab/iot_link/os/liteos/base/ipc/los_queue.c **** 
 447:/home/fanxinhao/Work/LiteOS_Lab/iot_link/os/liteos/base/ipc/los_queue.c ****     uwRet = osQueueWriteParameterCheck(uwQueueID, pBufferAddr, &uwBufferSize, uwTimeOut);
 1554              		.loc 2 447 13
 1555 000e 3A1D     		adds	r2, r7, #4
 1556 0010 3B68     		ldr	r3, [r7]
 1557 0012 B968     		ldr	r1, [r7, #8]
 1558 0014 F868     		ldr	r0, [r7, #12]
 1559 0016 FFF7FEFF 		bl	osQueueWriteParameterCheck
 1560 001a 7861     		str	r0, [r7, #20]
 448:/home/fanxinhao/Work/LiteOS_Lab/iot_link/os/liteos/base/ipc/los_queue.c ****     if(uwRet != LOS_OK)
 1561              		.loc 2 448 7
 1562 001c 7B69     		ldr	r3, [r7, #20]
 1563 001e 002B     		cmp	r3, #0
 1564 0020 01D0     		beq	.L82
 449:/home/fanxinhao/Work/LiteOS_Lab/iot_link/os/liteos/base/ipc/los_queue.c ****     {
 450:/home/fanxinhao/Work/LiteOS_Lab/iot_link/os/liteos/base/ipc/los_queue.c ****         return uwRet;
 1565              		.loc 2 450 16
 1566 0022 7B69     		ldr	r3, [r7, #20]
 1567 0024 0BE0     		b	.L83
 1568              	.L82:
 451:/home/fanxinhao/Work/LiteOS_Lab/iot_link/os/liteos/base/ipc/los_queue.c ****     }
 452:/home/fanxinhao/Work/LiteOS_Lab/iot_link/os/liteos/base/ipc/los_queue.c **** 
 453:/home/fanxinhao/Work/LiteOS_Lab/iot_link/os/liteos/base/ipc/los_queue.c ****     uwOperateType = OS_QUEUE_OPERATE_TYPE(OS_QUEUE_WRITE, OS_QUEUE_TAIL, OS_QUEUE_NOT_POINT);
 1569              		.loc 2 453 19
 1570 0026 0323     		movs	r3, #3
ARM GAS  /tmp/ccK7oid1.s 			page 40


 1571 0028 3B61     		str	r3, [r7, #16]
 454:/home/fanxinhao/Work/LiteOS_Lab/iot_link/os/liteos/base/ipc/los_queue.c ****     return osQueueOperate(uwQueueID, uwOperateType, pBufferAddr, &uwBufferSize, uwTimeOut);
 1572              		.loc 2 454 12
 1573 002a 3A1D     		adds	r2, r7, #4
 1574 002c 3B68     		ldr	r3, [r7]
 1575 002e 0093     		str	r3, [sp]
 1576 0030 1346     		mov	r3, r2
 1577 0032 BA68     		ldr	r2, [r7, #8]
 1578 0034 3969     		ldr	r1, [r7, #16]
 1579 0036 F868     		ldr	r0, [r7, #12]
 1580 0038 FFF7FEFF 		bl	osQueueOperate
 1581 003c 0346     		mov	r3, r0
 1582              	.L83:
 455:/home/fanxinhao/Work/LiteOS_Lab/iot_link/os/liteos/base/ipc/los_queue.c **** }
 1583              		.loc 2 455 1
 1584 003e 1846     		mov	r0, r3
 1585 0040 1837     		adds	r7, r7, #24
 1586              	.LCFI74:
 1587              		.cfi_def_cfa_offset 8
 1588 0042 BD46     		mov	sp, r7
 1589              	.LCFI75:
 1590              		.cfi_def_cfa_register 13
 1591              		@ sp needed
 1592 0044 80BD     		pop	{r7, pc}
 1593              		.cfi_endproc
 1594              	.LFE141:
 1596              		.section	.text.LOS_QueueRead,"ax",%progbits
 1597              		.align	1
 1598              		.global	LOS_QueueRead
 1599              		.syntax unified
 1600              		.thumb
 1601              		.thumb_func
 1602              		.fpu fpv4-sp-d16
 1604              	LOS_QueueRead:
 1605              	.LFB142:
 456:/home/fanxinhao/Work/LiteOS_Lab/iot_link/os/liteos/base/ipc/los_queue.c **** 
 457:/home/fanxinhao/Work/LiteOS_Lab/iot_link/os/liteos/base/ipc/los_queue.c **** /*****************************************************************************
 458:/home/fanxinhao/Work/LiteOS_Lab/iot_link/os/liteos/base/ipc/los_queue.c ****  Function    : LOS_QueueRead
 459:/home/fanxinhao/Work/LiteOS_Lab/iot_link/os/liteos/base/ipc/los_queue.c ****  Description : read queue
 460:/home/fanxinhao/Work/LiteOS_Lab/iot_link/os/liteos/base/ipc/los_queue.c ****  Input       : uwQueueID
 461:/home/fanxinhao/Work/LiteOS_Lab/iot_link/os/liteos/base/ipc/los_queue.c ****                uwBufferSize
 462:/home/fanxinhao/Work/LiteOS_Lab/iot_link/os/liteos/base/ipc/los_queue.c ****                uwTimeOut
 463:/home/fanxinhao/Work/LiteOS_Lab/iot_link/os/liteos/base/ipc/los_queue.c ****  Output      : pBufferAddr
 464:/home/fanxinhao/Work/LiteOS_Lab/iot_link/os/liteos/base/ipc/los_queue.c ****  Return      : LOS_OK on success or error code on failure
 465:/home/fanxinhao/Work/LiteOS_Lab/iot_link/os/liteos/base/ipc/los_queue.c ****  *****************************************************************************/
 466:/home/fanxinhao/Work/LiteOS_Lab/iot_link/os/liteos/base/ipc/los_queue.c **** LITE_OS_SEC_TEXT UINT32 LOS_QueueRead(UINT32  uwQueueID, VOID *pBufferAddr, UINT32 uwBufferSize, UI
 467:/home/fanxinhao/Work/LiteOS_Lab/iot_link/os/liteos/base/ipc/los_queue.c **** {
 1606              		.loc 2 467 1
 1607              		.cfi_startproc
 1608              		@ args = 0, pretend = 0, frame = 24
 1609              		@ frame_needed = 1, uses_anonymous_args = 0
 1610 0000 80B5     		push	{r7, lr}
 1611              	.LCFI76:
 1612              		.cfi_def_cfa_offset 8
 1613              		.cfi_offset 7, -8
 1614              		.cfi_offset 14, -4
 1615 0002 88B0     		sub	sp, sp, #32
ARM GAS  /tmp/ccK7oid1.s 			page 41


 1616              	.LCFI77:
 1617              		.cfi_def_cfa_offset 40
 1618 0004 02AF     		add	r7, sp, #8
 1619              	.LCFI78:
 1620              		.cfi_def_cfa 7, 32
 1621 0006 F860     		str	r0, [r7, #12]
 1622 0008 B960     		str	r1, [r7, #8]
 1623 000a 7A60     		str	r2, [r7, #4]
 1624 000c 3B60     		str	r3, [r7]
 468:/home/fanxinhao/Work/LiteOS_Lab/iot_link/os/liteos/base/ipc/los_queue.c ****     UINT32 uwRet;
 469:/home/fanxinhao/Work/LiteOS_Lab/iot_link/os/liteos/base/ipc/los_queue.c ****     UINT32 uwOperateType;
 470:/home/fanxinhao/Work/LiteOS_Lab/iot_link/os/liteos/base/ipc/los_queue.c **** 
 471:/home/fanxinhao/Work/LiteOS_Lab/iot_link/os/liteos/base/ipc/los_queue.c ****     uwRet = osQueueReadParameterCheck(uwQueueID, pBufferAddr, &uwBufferSize, uwTimeOut);
 1625              		.loc 2 471 13
 1626 000e 3A1D     		adds	r2, r7, #4
 1627 0010 3B68     		ldr	r3, [r7]
 1628 0012 B968     		ldr	r1, [r7, #8]
 1629 0014 F868     		ldr	r0, [r7, #12]
 1630 0016 FFF7FEFF 		bl	osQueueReadParameterCheck
 1631 001a 7861     		str	r0, [r7, #20]
 472:/home/fanxinhao/Work/LiteOS_Lab/iot_link/os/liteos/base/ipc/los_queue.c ****     if(uwRet != LOS_OK)
 1632              		.loc 2 472 7
 1633 001c 7B69     		ldr	r3, [r7, #20]
 1634 001e 002B     		cmp	r3, #0
 1635 0020 01D0     		beq	.L85
 473:/home/fanxinhao/Work/LiteOS_Lab/iot_link/os/liteos/base/ipc/los_queue.c ****     {
 474:/home/fanxinhao/Work/LiteOS_Lab/iot_link/os/liteos/base/ipc/los_queue.c ****         return uwRet;
 1636              		.loc 2 474 16
 1637 0022 7B69     		ldr	r3, [r7, #20]
 1638 0024 0BE0     		b	.L86
 1639              	.L85:
 475:/home/fanxinhao/Work/LiteOS_Lab/iot_link/os/liteos/base/ipc/los_queue.c ****     }
 476:/home/fanxinhao/Work/LiteOS_Lab/iot_link/os/liteos/base/ipc/los_queue.c **** 
 477:/home/fanxinhao/Work/LiteOS_Lab/iot_link/os/liteos/base/ipc/los_queue.c ****     uwOperateType = OS_QUEUE_OPERATE_TYPE(OS_QUEUE_READ, OS_QUEUE_HEAD, OS_QUEUE_POINT);
 1640              		.loc 2 477 19
 1641 0026 0423     		movs	r3, #4
 1642 0028 3B61     		str	r3, [r7, #16]
 478:/home/fanxinhao/Work/LiteOS_Lab/iot_link/os/liteos/base/ipc/los_queue.c ****     return osQueueOperate(uwQueueID, uwOperateType, pBufferAddr, &uwBufferSize, uwTimeOut);
 1643              		.loc 2 478 12
 1644 002a 3A1D     		adds	r2, r7, #4
 1645 002c 3B68     		ldr	r3, [r7]
 1646 002e 0093     		str	r3, [sp]
 1647 0030 1346     		mov	r3, r2
 1648 0032 BA68     		ldr	r2, [r7, #8]
 1649 0034 3969     		ldr	r1, [r7, #16]
 1650 0036 F868     		ldr	r0, [r7, #12]
 1651 0038 FFF7FEFF 		bl	osQueueOperate
 1652 003c 0346     		mov	r3, r0
 1653              	.L86:
 479:/home/fanxinhao/Work/LiteOS_Lab/iot_link/os/liteos/base/ipc/los_queue.c **** }
 1654              		.loc 2 479 1
 1655 003e 1846     		mov	r0, r3
 1656 0040 1837     		adds	r7, r7, #24
 1657              	.LCFI79:
 1658              		.cfi_def_cfa_offset 8
 1659 0042 BD46     		mov	sp, r7
 1660              	.LCFI80:
ARM GAS  /tmp/ccK7oid1.s 			page 42


 1661              		.cfi_def_cfa_register 13
 1662              		@ sp needed
 1663 0044 80BD     		pop	{r7, pc}
 1664              		.cfi_endproc
 1665              	.LFE142:
 1667              		.section	.text.LOS_QueueWrite,"ax",%progbits
 1668              		.align	1
 1669              		.global	LOS_QueueWrite
 1670              		.syntax unified
 1671              		.thumb
 1672              		.thumb_func
 1673              		.fpu fpv4-sp-d16
 1675              	LOS_QueueWrite:
 1676              	.LFB143:
 480:/home/fanxinhao/Work/LiteOS_Lab/iot_link/os/liteos/base/ipc/los_queue.c **** 
 481:/home/fanxinhao/Work/LiteOS_Lab/iot_link/os/liteos/base/ipc/los_queue.c **** /*****************************************************************************
 482:/home/fanxinhao/Work/LiteOS_Lab/iot_link/os/liteos/base/ipc/los_queue.c ****  Function    : LOS_QueueWrite
 483:/home/fanxinhao/Work/LiteOS_Lab/iot_link/os/liteos/base/ipc/los_queue.c ****  Description : Write queue tail
 484:/home/fanxinhao/Work/LiteOS_Lab/iot_link/os/liteos/base/ipc/los_queue.c ****  Input       : uwQueueID
 485:/home/fanxinhao/Work/LiteOS_Lab/iot_link/os/liteos/base/ipc/los_queue.c ****                pBufferAddr
 486:/home/fanxinhao/Work/LiteOS_Lab/iot_link/os/liteos/base/ipc/los_queue.c ****                uwBufferSize
 487:/home/fanxinhao/Work/LiteOS_Lab/iot_link/os/liteos/base/ipc/los_queue.c ****                uwTimeOut
 488:/home/fanxinhao/Work/LiteOS_Lab/iot_link/os/liteos/base/ipc/los_queue.c ****  Output      : None
 489:/home/fanxinhao/Work/LiteOS_Lab/iot_link/os/liteos/base/ipc/los_queue.c ****  Return      : LOS_OK on success or error code on failure
 490:/home/fanxinhao/Work/LiteOS_Lab/iot_link/os/liteos/base/ipc/los_queue.c ****  *****************************************************************************/
 491:/home/fanxinhao/Work/LiteOS_Lab/iot_link/os/liteos/base/ipc/los_queue.c **** LITE_OS_SEC_TEXT UINT32 LOS_QueueWrite(UINT32 uwQueueID, VOID *pBufferAddr, UINT32 uwBufferSize, UI
 492:/home/fanxinhao/Work/LiteOS_Lab/iot_link/os/liteos/base/ipc/los_queue.c **** {
 1677              		.loc 2 492 1
 1678              		.cfi_startproc
 1679              		@ args = 0, pretend = 0, frame = 24
 1680              		@ frame_needed = 1, uses_anonymous_args = 0
 1681 0000 80B5     		push	{r7, lr}
 1682              	.LCFI81:
 1683              		.cfi_def_cfa_offset 8
 1684              		.cfi_offset 7, -8
 1685              		.cfi_offset 14, -4
 1686 0002 88B0     		sub	sp, sp, #32
 1687              	.LCFI82:
 1688              		.cfi_def_cfa_offset 40
 1689 0004 02AF     		add	r7, sp, #8
 1690              	.LCFI83:
 1691              		.cfi_def_cfa 7, 32
 1692 0006 F860     		str	r0, [r7, #12]
 1693 0008 B960     		str	r1, [r7, #8]
 1694 000a 7A60     		str	r2, [r7, #4]
 1695 000c 3B60     		str	r3, [r7]
 493:/home/fanxinhao/Work/LiteOS_Lab/iot_link/os/liteos/base/ipc/los_queue.c ****     UINT32 uwRet;
 494:/home/fanxinhao/Work/LiteOS_Lab/iot_link/os/liteos/base/ipc/los_queue.c ****     UINT32 uwOperateType;
 495:/home/fanxinhao/Work/LiteOS_Lab/iot_link/os/liteos/base/ipc/los_queue.c **** 
 496:/home/fanxinhao/Work/LiteOS_Lab/iot_link/os/liteos/base/ipc/los_queue.c ****     uwBufferSize = sizeof(UINT32*);
 1696              		.loc 2 496 18
 1697 000e 0423     		movs	r3, #4
 1698 0010 7B60     		str	r3, [r7, #4]
 497:/home/fanxinhao/Work/LiteOS_Lab/iot_link/os/liteos/base/ipc/los_queue.c **** 
 498:/home/fanxinhao/Work/LiteOS_Lab/iot_link/os/liteos/base/ipc/los_queue.c ****     uwRet = osQueueWriteParameterCheck(uwQueueID, pBufferAddr, &uwBufferSize, uwTimeOut);
 1699              		.loc 2 498 13
 1700 0012 B968     		ldr	r1, [r7, #8]
ARM GAS  /tmp/ccK7oid1.s 			page 43


 1701 0014 3A1D     		adds	r2, r7, #4
 1702 0016 3B68     		ldr	r3, [r7]
 1703 0018 F868     		ldr	r0, [r7, #12]
 1704 001a FFF7FEFF 		bl	osQueueWriteParameterCheck
 1705 001e 7861     		str	r0, [r7, #20]
 499:/home/fanxinhao/Work/LiteOS_Lab/iot_link/os/liteos/base/ipc/los_queue.c ****     if(uwRet != LOS_OK)
 1706              		.loc 2 499 7
 1707 0020 7B69     		ldr	r3, [r7, #20]
 1708 0022 002B     		cmp	r3, #0
 1709 0024 01D0     		beq	.L88
 500:/home/fanxinhao/Work/LiteOS_Lab/iot_link/os/liteos/base/ipc/los_queue.c ****     {
 501:/home/fanxinhao/Work/LiteOS_Lab/iot_link/os/liteos/base/ipc/los_queue.c ****         return uwRet;
 1710              		.loc 2 501 16
 1711 0026 7B69     		ldr	r3, [r7, #20]
 1712 0028 0CE0     		b	.L89
 1713              	.L88:
 502:/home/fanxinhao/Work/LiteOS_Lab/iot_link/os/liteos/base/ipc/los_queue.c ****     }
 503:/home/fanxinhao/Work/LiteOS_Lab/iot_link/os/liteos/base/ipc/los_queue.c **** 
 504:/home/fanxinhao/Work/LiteOS_Lab/iot_link/os/liteos/base/ipc/los_queue.c ****     uwOperateType = OS_QUEUE_OPERATE_TYPE(OS_QUEUE_WRITE, OS_QUEUE_TAIL, OS_QUEUE_POINT);
 1714              		.loc 2 504 19
 1715 002a 0723     		movs	r3, #7
 1716 002c 3B61     		str	r3, [r7, #16]
 505:/home/fanxinhao/Work/LiteOS_Lab/iot_link/os/liteos/base/ipc/los_queue.c ****     return osQueueOperate(uwQueueID, uwOperateType, &pBufferAddr, &uwBufferSize, uwTimeOut);
 1717              		.loc 2 505 12
 1718 002e 391D     		adds	r1, r7, #4
 1719 0030 07F10802 		add	r2, r7, #8
 1720 0034 3B68     		ldr	r3, [r7]
 1721 0036 0093     		str	r3, [sp]
 1722 0038 0B46     		mov	r3, r1
 1723 003a 3969     		ldr	r1, [r7, #16]
 1724 003c F868     		ldr	r0, [r7, #12]
 1725 003e FFF7FEFF 		bl	osQueueOperate
 1726 0042 0346     		mov	r3, r0
 1727              	.L89:
 506:/home/fanxinhao/Work/LiteOS_Lab/iot_link/os/liteos/base/ipc/los_queue.c **** }
 1728              		.loc 2 506 1
 1729 0044 1846     		mov	r0, r3
 1730 0046 1837     		adds	r7, r7, #24
 1731              	.LCFI84:
 1732              		.cfi_def_cfa_offset 8
 1733 0048 BD46     		mov	sp, r7
 1734              	.LCFI85:
 1735              		.cfi_def_cfa_register 13
 1736              		@ sp needed
 1737 004a 80BD     		pop	{r7, pc}
 1738              		.cfi_endproc
 1739              	.LFE143:
 1741              		.section	.text.LOS_QueueWriteHead,"ax",%progbits
 1742              		.align	1
 1743              		.global	LOS_QueueWriteHead
 1744              		.syntax unified
 1745              		.thumb
 1746              		.thumb_func
 1747              		.fpu fpv4-sp-d16
 1749              	LOS_QueueWriteHead:
 1750              	.LFB144:
 507:/home/fanxinhao/Work/LiteOS_Lab/iot_link/os/liteos/base/ipc/los_queue.c **** 
ARM GAS  /tmp/ccK7oid1.s 			page 44


 508:/home/fanxinhao/Work/LiteOS_Lab/iot_link/os/liteos/base/ipc/los_queue.c **** /*****************************************************************************
 509:/home/fanxinhao/Work/LiteOS_Lab/iot_link/os/liteos/base/ipc/los_queue.c ****  Function    : LOS_QueueWriteHead
 510:/home/fanxinhao/Work/LiteOS_Lab/iot_link/os/liteos/base/ipc/los_queue.c ****  Description : write queue head
 511:/home/fanxinhao/Work/LiteOS_Lab/iot_link/os/liteos/base/ipc/los_queue.c ****  Input       : uwQueueID
 512:/home/fanxinhao/Work/LiteOS_Lab/iot_link/os/liteos/base/ipc/los_queue.c ****                pBufferAddr
 513:/home/fanxinhao/Work/LiteOS_Lab/iot_link/os/liteos/base/ipc/los_queue.c ****                uwBufferSize
 514:/home/fanxinhao/Work/LiteOS_Lab/iot_link/os/liteos/base/ipc/los_queue.c ****                uwTimeOut
 515:/home/fanxinhao/Work/LiteOS_Lab/iot_link/os/liteos/base/ipc/los_queue.c ****  Output      : None
 516:/home/fanxinhao/Work/LiteOS_Lab/iot_link/os/liteos/base/ipc/los_queue.c ****  Return      : LOS_OK on success or error code on failure
 517:/home/fanxinhao/Work/LiteOS_Lab/iot_link/os/liteos/base/ipc/los_queue.c ****  *****************************************************************************/
 518:/home/fanxinhao/Work/LiteOS_Lab/iot_link/os/liteos/base/ipc/los_queue.c **** LITE_OS_SEC_TEXT UINT32 LOS_QueueWriteHead( UINT32 uwQueueID,
 519:/home/fanxinhao/Work/LiteOS_Lab/iot_link/os/liteos/base/ipc/los_queue.c ****                                      VOID * pBufferAddr,
 520:/home/fanxinhao/Work/LiteOS_Lab/iot_link/os/liteos/base/ipc/los_queue.c ****                                      UINT32 uwBufferSize,
 521:/home/fanxinhao/Work/LiteOS_Lab/iot_link/os/liteos/base/ipc/los_queue.c ****                                      UINT32 uwTimeOut )
 522:/home/fanxinhao/Work/LiteOS_Lab/iot_link/os/liteos/base/ipc/los_queue.c **** {
 1751              		.loc 2 522 1
 1752              		.cfi_startproc
 1753              		@ args = 0, pretend = 0, frame = 16
 1754              		@ frame_needed = 1, uses_anonymous_args = 0
 1755 0000 80B5     		push	{r7, lr}
 1756              	.LCFI86:
 1757              		.cfi_def_cfa_offset 8
 1758              		.cfi_offset 7, -8
 1759              		.cfi_offset 14, -4
 1760 0002 84B0     		sub	sp, sp, #16
 1761              	.LCFI87:
 1762              		.cfi_def_cfa_offset 24
 1763 0004 00AF     		add	r7, sp, #0
 1764              	.LCFI88:
 1765              		.cfi_def_cfa_register 7
 1766 0006 F860     		str	r0, [r7, #12]
 1767 0008 B960     		str	r1, [r7, #8]
 1768 000a 7A60     		str	r2, [r7, #4]
 1769 000c 3B60     		str	r3, [r7]
 523:/home/fanxinhao/Work/LiteOS_Lab/iot_link/os/liteos/base/ipc/los_queue.c ****     if(pBufferAddr == NULL)
 1770              		.loc 2 523 20
 1771 000e BB68     		ldr	r3, [r7, #8]
 1772              		.loc 2 523 7
 1773 0010 002B     		cmp	r3, #0
 1774 0012 01D1     		bne	.L91
 524:/home/fanxinhao/Work/LiteOS_Lab/iot_link/os/liteos/base/ipc/los_queue.c ****     {
 525:/home/fanxinhao/Work/LiteOS_Lab/iot_link/os/liteos/base/ipc/los_queue.c ****         return LOS_ERRNO_QUEUE_WRITE_PTR_NULL;
 1775              		.loc 2 525 16
 1776 0014 074B     		ldr	r3, .L93
 1777 0016 09E0     		b	.L92
 1778              	.L91:
 526:/home/fanxinhao/Work/LiteOS_Lab/iot_link/os/liteos/base/ipc/los_queue.c ****     }
 527:/home/fanxinhao/Work/LiteOS_Lab/iot_link/os/liteos/base/ipc/los_queue.c ****     uwBufferSize = sizeof(UINT32*);
 1779              		.loc 2 527 18
 1780 0018 0423     		movs	r3, #4
 1781 001a 7B60     		str	r3, [r7, #4]
 528:/home/fanxinhao/Work/LiteOS_Lab/iot_link/os/liteos/base/ipc/los_queue.c ****     return LOS_QueueWriteHeadCopy(uwQueueID, &pBufferAddr, uwBufferSize, uwTimeOut);
 1782              		.loc 2 528 12
 1783 001c 07F10801 		add	r1, r7, #8
 1784 0020 3B68     		ldr	r3, [r7]
 1785 0022 7A68     		ldr	r2, [r7, #4]
 1786 0024 F868     		ldr	r0, [r7, #12]
ARM GAS  /tmp/ccK7oid1.s 			page 45


 1787 0026 FFF7FEFF 		bl	LOS_QueueWriteHeadCopy
 1788 002a 0346     		mov	r3, r0
 1789              	.L92:
 529:/home/fanxinhao/Work/LiteOS_Lab/iot_link/os/liteos/base/ipc/los_queue.c **** }
 1790              		.loc 2 529 1
 1791 002c 1846     		mov	r0, r3
 1792 002e 1037     		adds	r7, r7, #16
 1793              	.LCFI89:
 1794              		.cfi_def_cfa_offset 8
 1795 0030 BD46     		mov	sp, r7
 1796              	.LCFI90:
 1797              		.cfi_def_cfa_register 13
 1798              		@ sp needed
 1799 0032 80BD     		pop	{r7, pc}
 1800              	.L94:
 1801              		.align	2
 1802              	.L93:
 1803 0034 12060002 		.word	33555986
 1804              		.cfi_endproc
 1805              	.LFE144:
 1807              		.section	.text.osQueueMailAlloc,"ax",%progbits
 1808              		.align	1
 1809              		.global	osQueueMailAlloc
 1810              		.syntax unified
 1811              		.thumb
 1812              		.thumb_func
 1813              		.fpu fpv4-sp-d16
 1815              	osQueueMailAlloc:
 1816              	.LFB145:
 530:/home/fanxinhao/Work/LiteOS_Lab/iot_link/os/liteos/base/ipc/los_queue.c **** 
 531:/home/fanxinhao/Work/LiteOS_Lab/iot_link/os/liteos/base/ipc/los_queue.c **** /*****************************************************************************
 532:/home/fanxinhao/Work/LiteOS_Lab/iot_link/os/liteos/base/ipc/los_queue.c ****  Function    : osQueueMailAlloc
 533:/home/fanxinhao/Work/LiteOS_Lab/iot_link/os/liteos/base/ipc/los_queue.c ****  Description : Mail allocate memory
 534:/home/fanxinhao/Work/LiteOS_Lab/iot_link/os/liteos/base/ipc/los_queue.c ****  Input       : uwQueueID   --- QueueID
 535:/home/fanxinhao/Work/LiteOS_Lab/iot_link/os/liteos/base/ipc/los_queue.c ****              : pMailPool   --- MailPool
 536:/home/fanxinhao/Work/LiteOS_Lab/iot_link/os/liteos/base/ipc/los_queue.c ****              : uwTimeOut   --- TimeOut
 537:/home/fanxinhao/Work/LiteOS_Lab/iot_link/os/liteos/base/ipc/los_queue.c ****  Output      : None
 538:/home/fanxinhao/Work/LiteOS_Lab/iot_link/os/liteos/base/ipc/los_queue.c ****  Return      : pointer if success otherwise NULL
 539:/home/fanxinhao/Work/LiteOS_Lab/iot_link/os/liteos/base/ipc/los_queue.c ****  *****************************************************************************/
 540:/home/fanxinhao/Work/LiteOS_Lab/iot_link/os/liteos/base/ipc/los_queue.c **** LITE_OS_SEC_TEXT VOID *osQueueMailAlloc(UINT32  uwQueueID, VOID* pMailPool, UINT32 uwTimeOut)
 541:/home/fanxinhao/Work/LiteOS_Lab/iot_link/os/liteos/base/ipc/los_queue.c **** {
 1817              		.loc 2 541 1
 1818              		.cfi_startproc
 1819              		@ args = 0, pretend = 0, frame = 32
 1820              		@ frame_needed = 1, uses_anonymous_args = 0
 1821 0000 80B5     		push	{r7, lr}
 1822              	.LCFI91:
 1823              		.cfi_def_cfa_offset 8
 1824              		.cfi_offset 7, -8
 1825              		.cfi_offset 14, -4
 1826 0002 88B0     		sub	sp, sp, #32
 1827              	.LCFI92:
 1828              		.cfi_def_cfa_offset 40
 1829 0004 00AF     		add	r7, sp, #0
 1830              	.LCFI93:
 1831              		.cfi_def_cfa_register 7
 1832 0006 F860     		str	r0, [r7, #12]
ARM GAS  /tmp/ccK7oid1.s 			page 46


 1833 0008 B960     		str	r1, [r7, #8]
 1834 000a 7A60     		str	r2, [r7, #4]
 542:/home/fanxinhao/Work/LiteOS_Lab/iot_link/os/liteos/base/ipc/los_queue.c ****     VOID *pMem = (VOID *)NULL;
 1835              		.loc 2 542 11
 1836 000c 0023     		movs	r3, #0
 1837 000e FB61     		str	r3, [r7, #28]
 543:/home/fanxinhao/Work/LiteOS_Lab/iot_link/os/liteos/base/ipc/los_queue.c ****     UINTPTR uvIntSave;
 544:/home/fanxinhao/Work/LiteOS_Lab/iot_link/os/liteos/base/ipc/los_queue.c ****     QUEUE_CB_S *pstQueueCB = (QUEUE_CB_S *)NULL;
 1838              		.loc 2 544 17
 1839 0010 0023     		movs	r3, #0
 1840 0012 7B61     		str	r3, [r7, #20]
 545:/home/fanxinhao/Work/LiteOS_Lab/iot_link/os/liteos/base/ipc/los_queue.c ****     LOS_TASK_CB *pstRunTsk = (LOS_TASK_CB *)NULL;
 1841              		.loc 2 545 18
 1842 0014 0023     		movs	r3, #0
 1843 0016 3B61     		str	r3, [r7, #16]
 546:/home/fanxinhao/Work/LiteOS_Lab/iot_link/os/liteos/base/ipc/los_queue.c **** 
 547:/home/fanxinhao/Work/LiteOS_Lab/iot_link/os/liteos/base/ipc/los_queue.c ****     if (uwQueueID >= LOSCFG_BASE_IPC_QUEUE_LIMIT)
 1844              		.loc 2 547 8
 1845 0018 FB68     		ldr	r3, [r7, #12]
 1846 001a 092B     		cmp	r3, #9
 1847 001c 01D9     		bls	.L96
 548:/home/fanxinhao/Work/LiteOS_Lab/iot_link/os/liteos/base/ipc/los_queue.c ****     {
 549:/home/fanxinhao/Work/LiteOS_Lab/iot_link/os/liteos/base/ipc/los_queue.c ****         return NULL;
 1848              		.loc 2 549 16
 1849 001e 0023     		movs	r3, #0
 1850 0020 57E0     		b	.L97
 1851              	.L96:
 550:/home/fanxinhao/Work/LiteOS_Lab/iot_link/os/liteos/base/ipc/los_queue.c ****     }
 551:/home/fanxinhao/Work/LiteOS_Lab/iot_link/os/liteos/base/ipc/los_queue.c **** 
 552:/home/fanxinhao/Work/LiteOS_Lab/iot_link/os/liteos/base/ipc/los_queue.c ****     if (pMailPool == NULL)
 1852              		.loc 2 552 8
 1853 0022 BB68     		ldr	r3, [r7, #8]
 1854 0024 002B     		cmp	r3, #0
 1855 0026 01D1     		bne	.L98
 553:/home/fanxinhao/Work/LiteOS_Lab/iot_link/os/liteos/base/ipc/los_queue.c ****     {
 554:/home/fanxinhao/Work/LiteOS_Lab/iot_link/os/liteos/base/ipc/los_queue.c ****         return NULL;
 1856              		.loc 2 554 16
 1857 0028 0023     		movs	r3, #0
 1858 002a 52E0     		b	.L97
 1859              	.L98:
 555:/home/fanxinhao/Work/LiteOS_Lab/iot_link/os/liteos/base/ipc/los_queue.c ****     }
 556:/home/fanxinhao/Work/LiteOS_Lab/iot_link/os/liteos/base/ipc/los_queue.c **** 
 557:/home/fanxinhao/Work/LiteOS_Lab/iot_link/os/liteos/base/ipc/los_queue.c ****     if (LOS_NO_WAIT != uwTimeOut)
 1860              		.loc 2 557 8
 1861 002c 7B68     		ldr	r3, [r7, #4]
 1862 002e 002B     		cmp	r3, #0
 1863 0030 05D0     		beq	.L99
 558:/home/fanxinhao/Work/LiteOS_Lab/iot_link/os/liteos/base/ipc/los_queue.c ****     {
 559:/home/fanxinhao/Work/LiteOS_Lab/iot_link/os/liteos/base/ipc/los_queue.c ****         if (OS_INT_ACTIVE)
 1864              		.loc 2 559 13
 1865 0032 2A4B     		ldr	r3, .L107
 1866 0034 1B68     		ldr	r3, [r3]
 1867              		.loc 2 559 12
 1868 0036 002B     		cmp	r3, #0
 1869 0038 01D0     		beq	.L99
 560:/home/fanxinhao/Work/LiteOS_Lab/iot_link/os/liteos/base/ipc/los_queue.c ****         {
 561:/home/fanxinhao/Work/LiteOS_Lab/iot_link/os/liteos/base/ipc/los_queue.c ****             return NULL;
ARM GAS  /tmp/ccK7oid1.s 			page 47


 1870              		.loc 2 561 20
 1871 003a 0023     		movs	r3, #0
 1872 003c 49E0     		b	.L97
 1873              	.L99:
 562:/home/fanxinhao/Work/LiteOS_Lab/iot_link/os/liteos/base/ipc/los_queue.c ****         }
 563:/home/fanxinhao/Work/LiteOS_Lab/iot_link/os/liteos/base/ipc/los_queue.c ****     }
 564:/home/fanxinhao/Work/LiteOS_Lab/iot_link/os/liteos/base/ipc/los_queue.c **** 
 565:/home/fanxinhao/Work/LiteOS_Lab/iot_link/os/liteos/base/ipc/los_queue.c ****     uvIntSave = LOS_IntLock();
 1874              		.loc 2 565 17
 1875 003e FFF7FEFF 		bl	LOS_IntLock
 1876 0042 B861     		str	r0, [r7, #24]
 566:/home/fanxinhao/Work/LiteOS_Lab/iot_link/os/liteos/base/ipc/los_queue.c ****     pstQueueCB = GET_QUEUE_HANDLE(uwQueueID);
 1877              		.loc 2 566 18
 1878 0044 264B     		ldr	r3, .L107+4
 1879 0046 1A68     		ldr	r2, [r3]
 1880 0048 FB68     		ldr	r3, [r7, #12]
 1881 004a 2C21     		movs	r1, #44
 1882 004c 01FB03F3 		mul	r3, r1, r3
 1883              		.loc 2 566 16
 1884 0050 1344     		add	r3, r3, r2
 1885 0052 7B61     		str	r3, [r7, #20]
 567:/home/fanxinhao/Work/LiteOS_Lab/iot_link/os/liteos/base/ipc/los_queue.c ****     if (OS_QUEUE_UNUSED == pstQueueCB->usQueueState)
 1886              		.loc 2 567 38
 1887 0054 7B69     		ldr	r3, [r7, #20]
 1888 0056 9B88     		ldrh	r3, [r3, #4]
 1889              		.loc 2 567 8
 1890 0058 002B     		cmp	r3, #0
 1891 005a 31D0     		beq	.L104
 568:/home/fanxinhao/Work/LiteOS_Lab/iot_link/os/liteos/base/ipc/los_queue.c ****     {
 569:/home/fanxinhao/Work/LiteOS_Lab/iot_link/os/liteos/base/ipc/los_queue.c ****         goto END;
 570:/home/fanxinhao/Work/LiteOS_Lab/iot_link/os/liteos/base/ipc/los_queue.c ****     }
 571:/home/fanxinhao/Work/LiteOS_Lab/iot_link/os/liteos/base/ipc/los_queue.c **** 
 572:/home/fanxinhao/Work/LiteOS_Lab/iot_link/os/liteos/base/ipc/los_queue.c ****     pMem = LOS_MemboxAlloc(pMailPool);
 1892              		.loc 2 572 12
 1893 005c B868     		ldr	r0, [r7, #8]
 1894 005e FFF7FEFF 		bl	LOS_MemboxAlloc
 1895 0062 F861     		str	r0, [r7, #28]
 573:/home/fanxinhao/Work/LiteOS_Lab/iot_link/os/liteos/base/ipc/los_queue.c ****     if (NULL == pMem)
 1896              		.loc 2 573 8
 1897 0064 FB69     		ldr	r3, [r7, #28]
 1898 0066 002B     		cmp	r3, #0
 1899 0068 2CD1     		bne	.L105
 574:/home/fanxinhao/Work/LiteOS_Lab/iot_link/os/liteos/base/ipc/los_queue.c ****     {
 575:/home/fanxinhao/Work/LiteOS_Lab/iot_link/os/liteos/base/ipc/los_queue.c ****         if (uwTimeOut == LOS_NO_WAIT)
 1900              		.loc 2 575 12
 1901 006a 7B68     		ldr	r3, [r7, #4]
 1902 006c 002B     		cmp	r3, #0
 1903 006e 2BD0     		beq	.L106
 576:/home/fanxinhao/Work/LiteOS_Lab/iot_link/os/liteos/base/ipc/los_queue.c ****         {
 577:/home/fanxinhao/Work/LiteOS_Lab/iot_link/os/liteos/base/ipc/los_queue.c ****             goto END;
 578:/home/fanxinhao/Work/LiteOS_Lab/iot_link/os/liteos/base/ipc/los_queue.c ****         }
 579:/home/fanxinhao/Work/LiteOS_Lab/iot_link/os/liteos/base/ipc/los_queue.c **** 
 580:/home/fanxinhao/Work/LiteOS_Lab/iot_link/os/liteos/base/ipc/los_queue.c ****         pstRunTsk = (LOS_TASK_CB *)g_stLosTask.pstRunTask;
 1904              		.loc 2 580 19
 1905 0070 1C4B     		ldr	r3, .L107+8
 1906 0072 1B68     		ldr	r3, [r3]
 1907 0074 3B61     		str	r3, [r7, #16]
ARM GAS  /tmp/ccK7oid1.s 			page 48


 581:/home/fanxinhao/Work/LiteOS_Lab/iot_link/os/liteos/base/ipc/los_queue.c ****         osTaskWait(&pstQueueCB->stMemList, OS_TASK_STATUS_PEND_QUEUE, uwTimeOut);
 1908              		.loc 2 581 9
 1909 0076 7B69     		ldr	r3, [r7, #20]
 1910 0078 2433     		adds	r3, r3, #36
 1911 007a 7A68     		ldr	r2, [r7, #4]
 1912 007c 4FF40051 		mov	r1, #8192
 1913 0080 1846     		mov	r0, r3
 1914 0082 FFF7FEFF 		bl	osTaskWait
 582:/home/fanxinhao/Work/LiteOS_Lab/iot_link/os/liteos/base/ipc/los_queue.c ****         LOS_IntRestore(uvIntSave);
 1915              		.loc 2 582 9
 1916 0086 B869     		ldr	r0, [r7, #24]
 1917 0088 FFF7FEFF 		bl	LOS_IntRestore
 583:/home/fanxinhao/Work/LiteOS_Lab/iot_link/os/liteos/base/ipc/los_queue.c ****         LOS_Schedule();
 1918              		.loc 2 583 9
 1919 008c FFF7FEFF 		bl	LOS_Schedule
 584:/home/fanxinhao/Work/LiteOS_Lab/iot_link/os/liteos/base/ipc/los_queue.c **** 
 585:/home/fanxinhao/Work/LiteOS_Lab/iot_link/os/liteos/base/ipc/los_queue.c ****         uvIntSave = LOS_IntLock();
 1920              		.loc 2 585 21
 1921 0090 FFF7FEFF 		bl	LOS_IntLock
 1922 0094 B861     		str	r0, [r7, #24]
 586:/home/fanxinhao/Work/LiteOS_Lab/iot_link/os/liteos/base/ipc/los_queue.c ****         if (pstRunTsk->usTaskStatus & OS_TASK_STATUS_TIMEOUT)
 1923              		.loc 2 586 22
 1924 0096 3B69     		ldr	r3, [r7, #16]
 1925 0098 9B88     		ldrh	r3, [r3, #4]
 1926              		.loc 2 586 37
 1927 009a 03F04003 		and	r3, r3, #64
 1928              		.loc 2 586 12
 1929 009e 002B     		cmp	r3, #0
 1930 00a0 07D0     		beq	.L103
 587:/home/fanxinhao/Work/LiteOS_Lab/iot_link/os/liteos/base/ipc/los_queue.c ****         {
 588:/home/fanxinhao/Work/LiteOS_Lab/iot_link/os/liteos/base/ipc/los_queue.c ****             pstRunTsk->usTaskStatus &= (~OS_TASK_STATUS_TIMEOUT);
 1931              		.loc 2 588 37
 1932 00a2 3B69     		ldr	r3, [r7, #16]
 1933 00a4 9B88     		ldrh	r3, [r3, #4]
 1934 00a6 23F04003 		bic	r3, r3, #64
 1935 00aa 9AB2     		uxth	r2, r3
 1936 00ac 3B69     		ldr	r3, [r7, #16]
 1937 00ae 9A80     		strh	r2, [r3, #4]	@ movhi
 589:/home/fanxinhao/Work/LiteOS_Lab/iot_link/os/liteos/base/ipc/los_queue.c ****             goto END;
 1938              		.loc 2 589 13
 1939 00b0 0BE0     		b	.L101
 1940              	.L103:
 590:/home/fanxinhao/Work/LiteOS_Lab/iot_link/os/liteos/base/ipc/los_queue.c ****         }
 591:/home/fanxinhao/Work/LiteOS_Lab/iot_link/os/liteos/base/ipc/los_queue.c ****         else
 592:/home/fanxinhao/Work/LiteOS_Lab/iot_link/os/liteos/base/ipc/los_queue.c ****         {
 593:/home/fanxinhao/Work/LiteOS_Lab/iot_link/os/liteos/base/ipc/los_queue.c ****             /* When enters the current branch, means the current task already got a available membo
 594:/home/fanxinhao/Work/LiteOS_Lab/iot_link/os/liteos/base/ipc/los_queue.c ****              * so the pstRunTsk->puwMsg can not be NULL.
 595:/home/fanxinhao/Work/LiteOS_Lab/iot_link/os/liteos/base/ipc/los_queue.c ****              */
 596:/home/fanxinhao/Work/LiteOS_Lab/iot_link/os/liteos/base/ipc/los_queue.c ****             pMem = pstRunTsk->puwMsg;
 1941              		.loc 2 596 18
 1942 00b2 3B69     		ldr	r3, [r7, #16]
 1943 00b4 1B6D     		ldr	r3, [r3, #80]
 1944 00b6 FB61     		str	r3, [r7, #28]
 597:/home/fanxinhao/Work/LiteOS_Lab/iot_link/os/liteos/base/ipc/los_queue.c ****             pstRunTsk->puwMsg = NULL;
 1945              		.loc 2 597 31
 1946 00b8 3B69     		ldr	r3, [r7, #16]
 1947 00ba 0022     		movs	r2, #0
ARM GAS  /tmp/ccK7oid1.s 			page 49


 1948 00bc 1A65     		str	r2, [r3, #80]
 1949 00be 04E0     		b	.L101
 1950              	.L104:
 569:/home/fanxinhao/Work/LiteOS_Lab/iot_link/os/liteos/base/ipc/los_queue.c ****     }
 1951              		.loc 2 569 9
 1952 00c0 00BF     		nop
 1953 00c2 02E0     		b	.L101
 1954              	.L105:
 598:/home/fanxinhao/Work/LiteOS_Lab/iot_link/os/liteos/base/ipc/los_queue.c ****         }
 599:/home/fanxinhao/Work/LiteOS_Lab/iot_link/os/liteos/base/ipc/los_queue.c ****     }
 600:/home/fanxinhao/Work/LiteOS_Lab/iot_link/os/liteos/base/ipc/los_queue.c **** 
 601:/home/fanxinhao/Work/LiteOS_Lab/iot_link/os/liteos/base/ipc/los_queue.c **** END:
 1955              		.loc 2 601 1
 1956 00c4 00BF     		nop
 1957 00c6 00E0     		b	.L101
 1958              	.L106:
 577:/home/fanxinhao/Work/LiteOS_Lab/iot_link/os/liteos/base/ipc/los_queue.c ****         }
 1959              		.loc 2 577 13
 1960 00c8 00BF     		nop
 1961              	.L101:
 602:/home/fanxinhao/Work/LiteOS_Lab/iot_link/os/liteos/base/ipc/los_queue.c ****     LOS_IntRestore(uvIntSave);
 1962              		.loc 2 602 5
 1963 00ca B869     		ldr	r0, [r7, #24]
 1964 00cc FFF7FEFF 		bl	LOS_IntRestore
 603:/home/fanxinhao/Work/LiteOS_Lab/iot_link/os/liteos/base/ipc/los_queue.c ****     return pMem;
 1965              		.loc 2 603 12
 1966 00d0 FB69     		ldr	r3, [r7, #28]
 1967              	.L97:
 604:/home/fanxinhao/Work/LiteOS_Lab/iot_link/os/liteos/base/ipc/los_queue.c **** }
 1968              		.loc 2 604 1
 1969 00d2 1846     		mov	r0, r3
 1970 00d4 2037     		adds	r7, r7, #32
 1971              	.LCFI94:
 1972              		.cfi_def_cfa_offset 8
 1973 00d6 BD46     		mov	sp, r7
 1974              	.LCFI95:
 1975              		.cfi_def_cfa_register 13
 1976              		@ sp needed
 1977 00d8 80BD     		pop	{r7, pc}
 1978              	.L108:
 1979 00da 00BF     		.align	2
 1980              	.L107:
 1981 00dc 00000000 		.word	g_vuwIntCount
 1982 00e0 00000000 		.word	g_pstAllQueue
 1983 00e4 00000000 		.word	g_stLosTask
 1984              		.cfi_endproc
 1985              	.LFE145:
 1987              		.section	.text.osQueueMailFree,"ax",%progbits
 1988              		.align	1
 1989              		.global	osQueueMailFree
 1990              		.syntax unified
 1991              		.thumb
 1992              		.thumb_func
 1993              		.fpu fpv4-sp-d16
 1995              	osQueueMailFree:
 1996              	.LFB146:
 605:/home/fanxinhao/Work/LiteOS_Lab/iot_link/os/liteos/base/ipc/los_queue.c **** 
ARM GAS  /tmp/ccK7oid1.s 			page 50


 606:/home/fanxinhao/Work/LiteOS_Lab/iot_link/os/liteos/base/ipc/los_queue.c **** /*****************************************************************************
 607:/home/fanxinhao/Work/LiteOS_Lab/iot_link/os/liteos/base/ipc/los_queue.c ****  Function    : osQueueMailFree
 608:/home/fanxinhao/Work/LiteOS_Lab/iot_link/os/liteos/base/ipc/los_queue.c ****  Description : Mail free memory
 609:/home/fanxinhao/Work/LiteOS_Lab/iot_link/os/liteos/base/ipc/los_queue.c ****  Input       : uwQueueID   --- QueueID
 610:/home/fanxinhao/Work/LiteOS_Lab/iot_link/os/liteos/base/ipc/los_queue.c ****              : pMailPool   --- MailPool
 611:/home/fanxinhao/Work/LiteOS_Lab/iot_link/os/liteos/base/ipc/los_queue.c ****  Output      : None
 612:/home/fanxinhao/Work/LiteOS_Lab/iot_link/os/liteos/base/ipc/los_queue.c ****  Return      : LOS_OK on success or error code on failure
 613:/home/fanxinhao/Work/LiteOS_Lab/iot_link/os/liteos/base/ipc/los_queue.c ****  *****************************************************************************/
 614:/home/fanxinhao/Work/LiteOS_Lab/iot_link/os/liteos/base/ipc/los_queue.c **** LITE_OS_SEC_TEXT UINT32 osQueueMailFree(UINT32  uwQueueID, VOID* pMailPool, VOID* pMailMem)
 615:/home/fanxinhao/Work/LiteOS_Lab/iot_link/os/liteos/base/ipc/los_queue.c **** {
 1997              		.loc 2 615 1
 1998              		.cfi_startproc
 1999              		@ args = 0, pretend = 0, frame = 32
 2000              		@ frame_needed = 1, uses_anonymous_args = 0
 2001 0000 80B5     		push	{r7, lr}
 2002              	.LCFI96:
 2003              		.cfi_def_cfa_offset 8
 2004              		.cfi_offset 7, -8
 2005              		.cfi_offset 14, -4
 2006 0002 88B0     		sub	sp, sp, #32
 2007              	.LCFI97:
 2008              		.cfi_def_cfa_offset 40
 2009 0004 00AF     		add	r7, sp, #0
 2010              	.LCFI98:
 2011              		.cfi_def_cfa_register 7
 2012 0006 F860     		str	r0, [r7, #12]
 2013 0008 B960     		str	r1, [r7, #8]
 2014 000a 7A60     		str	r2, [r7, #4]
 616:/home/fanxinhao/Work/LiteOS_Lab/iot_link/os/liteos/base/ipc/los_queue.c ****     VOID *pMem = (VOID *)NULL;
 2015              		.loc 2 616 11
 2016 000c 0023     		movs	r3, #0
 2017 000e FB61     		str	r3, [r7, #28]
 617:/home/fanxinhao/Work/LiteOS_Lab/iot_link/os/liteos/base/ipc/los_queue.c ****     UINTPTR uvIntSave;
 618:/home/fanxinhao/Work/LiteOS_Lab/iot_link/os/liteos/base/ipc/los_queue.c ****     QUEUE_CB_S *pstQueueCB = (QUEUE_CB_S *)NULL;
 2018              		.loc 2 618 17
 2019 0010 0023     		movs	r3, #0
 2020 0012 BB61     		str	r3, [r7, #24]
 619:/home/fanxinhao/Work/LiteOS_Lab/iot_link/os/liteos/base/ipc/los_queue.c ****     LOS_TASK_CB *pstResumedTask = (LOS_TASK_CB *)NULL;
 2021              		.loc 2 619 18
 2022 0014 0023     		movs	r3, #0
 2023 0016 7B61     		str	r3, [r7, #20]
 620:/home/fanxinhao/Work/LiteOS_Lab/iot_link/os/liteos/base/ipc/los_queue.c **** 
 621:/home/fanxinhao/Work/LiteOS_Lab/iot_link/os/liteos/base/ipc/los_queue.c ****     if (uwQueueID >= LOSCFG_BASE_IPC_QUEUE_LIMIT)
 2024              		.loc 2 621 8
 2025 0018 FB68     		ldr	r3, [r7, #12]
 2026 001a 092B     		cmp	r3, #9
 2027 001c 01D9     		bls	.L110
 622:/home/fanxinhao/Work/LiteOS_Lab/iot_link/os/liteos/base/ipc/los_queue.c ****     {
 623:/home/fanxinhao/Work/LiteOS_Lab/iot_link/os/liteos/base/ipc/los_queue.c ****         return LOS_ERRNO_QUEUE_MAIL_HANDLE_INVALID;
 2028              		.loc 2 623 16
 2029 001e 264B     		ldr	r3, .L117
 2030 0020 46E0     		b	.L111
 2031              	.L110:
 624:/home/fanxinhao/Work/LiteOS_Lab/iot_link/os/liteos/base/ipc/los_queue.c ****     }
 625:/home/fanxinhao/Work/LiteOS_Lab/iot_link/os/liteos/base/ipc/los_queue.c **** 
 626:/home/fanxinhao/Work/LiteOS_Lab/iot_link/os/liteos/base/ipc/los_queue.c ****     if (pMailPool == NULL)
 2032              		.loc 2 626 8
ARM GAS  /tmp/ccK7oid1.s 			page 51


 2033 0022 BB68     		ldr	r3, [r7, #8]
 2034 0024 002B     		cmp	r3, #0
 2035 0026 01D1     		bne	.L112
 627:/home/fanxinhao/Work/LiteOS_Lab/iot_link/os/liteos/base/ipc/los_queue.c ****     {
 628:/home/fanxinhao/Work/LiteOS_Lab/iot_link/os/liteos/base/ipc/los_queue.c ****         return LOS_ERRNO_QUEUE_MAIL_PTR_INVALID;
 2036              		.loc 2 628 16
 2037 0028 244B     		ldr	r3, .L117+4
 2038 002a 41E0     		b	.L111
 2039              	.L112:
 629:/home/fanxinhao/Work/LiteOS_Lab/iot_link/os/liteos/base/ipc/los_queue.c ****     }
 630:/home/fanxinhao/Work/LiteOS_Lab/iot_link/os/liteos/base/ipc/los_queue.c **** 
 631:/home/fanxinhao/Work/LiteOS_Lab/iot_link/os/liteos/base/ipc/los_queue.c ****     uvIntSave = LOS_IntLock();
 2040              		.loc 2 631 17
 2041 002c FFF7FEFF 		bl	LOS_IntLock
 2042 0030 3861     		str	r0, [r7, #16]
 632:/home/fanxinhao/Work/LiteOS_Lab/iot_link/os/liteos/base/ipc/los_queue.c **** 
 633:/home/fanxinhao/Work/LiteOS_Lab/iot_link/os/liteos/base/ipc/los_queue.c ****     if (LOS_MemboxFree(pMailPool, pMailMem))
 2043              		.loc 2 633 9
 2044 0032 7968     		ldr	r1, [r7, #4]
 2045 0034 B868     		ldr	r0, [r7, #8]
 2046 0036 FFF7FEFF 		bl	LOS_MemboxFree
 2047 003a 0346     		mov	r3, r0
 2048              		.loc 2 633 8
 2049 003c 002B     		cmp	r3, #0
 2050 003e 04D0     		beq	.L113
 634:/home/fanxinhao/Work/LiteOS_Lab/iot_link/os/liteos/base/ipc/los_queue.c ****     {
 635:/home/fanxinhao/Work/LiteOS_Lab/iot_link/os/liteos/base/ipc/los_queue.c ****         LOS_IntRestore(uvIntSave);
 2051              		.loc 2 635 9
 2052 0040 3869     		ldr	r0, [r7, #16]
 2053 0042 FFF7FEFF 		bl	LOS_IntRestore
 636:/home/fanxinhao/Work/LiteOS_Lab/iot_link/os/liteos/base/ipc/los_queue.c ****         return LOS_ERRNO_QUEUE_MAIL_FREE_ERROR;
 2054              		.loc 2 636 16
 2055 0046 1E4B     		ldr	r3, .L117+8
 2056 0048 32E0     		b	.L111
 2057              	.L113:
 637:/home/fanxinhao/Work/LiteOS_Lab/iot_link/os/liteos/base/ipc/los_queue.c ****     }
 638:/home/fanxinhao/Work/LiteOS_Lab/iot_link/os/liteos/base/ipc/los_queue.c **** 
 639:/home/fanxinhao/Work/LiteOS_Lab/iot_link/os/liteos/base/ipc/los_queue.c ****     pstQueueCB = GET_QUEUE_HANDLE(uwQueueID);
 2058              		.loc 2 639 18
 2059 004a 1E4B     		ldr	r3, .L117+12
 2060 004c 1A68     		ldr	r2, [r3]
 2061 004e FB68     		ldr	r3, [r7, #12]
 2062 0050 2C21     		movs	r1, #44
 2063 0052 01FB03F3 		mul	r3, r1, r3
 2064              		.loc 2 639 16
 2065 0056 1344     		add	r3, r3, r2
 2066 0058 BB61     		str	r3, [r7, #24]
 640:/home/fanxinhao/Work/LiteOS_Lab/iot_link/os/liteos/base/ipc/los_queue.c ****     if (OS_QUEUE_UNUSED == pstQueueCB->usQueueState)
 2067              		.loc 2 640 38
 2068 005a BB69     		ldr	r3, [r7, #24]
 2069 005c 9B88     		ldrh	r3, [r3, #4]
 2070              		.loc 2 640 8
 2071 005e 002B     		cmp	r3, #0
 2072 0060 04D1     		bne	.L114
 641:/home/fanxinhao/Work/LiteOS_Lab/iot_link/os/liteos/base/ipc/los_queue.c ****     {
 642:/home/fanxinhao/Work/LiteOS_Lab/iot_link/os/liteos/base/ipc/los_queue.c ****         LOS_IntRestore(uvIntSave);
 2073              		.loc 2 642 9
ARM GAS  /tmp/ccK7oid1.s 			page 52


 2074 0062 3869     		ldr	r0, [r7, #16]
 2075 0064 FFF7FEFF 		bl	LOS_IntRestore
 643:/home/fanxinhao/Work/LiteOS_Lab/iot_link/os/liteos/base/ipc/los_queue.c ****         return LOS_ERRNO_QUEUE_NOT_CREATE;
 2076              		.loc 2 643 16
 2077 0068 174B     		ldr	r3, .L117+16
 2078 006a 21E0     		b	.L111
 2079              	.L114:
 644:/home/fanxinhao/Work/LiteOS_Lab/iot_link/os/liteos/base/ipc/los_queue.c ****     }
 645:/home/fanxinhao/Work/LiteOS_Lab/iot_link/os/liteos/base/ipc/los_queue.c **** 
 646:/home/fanxinhao/Work/LiteOS_Lab/iot_link/os/liteos/base/ipc/los_queue.c ****     if (!LOS_ListEmpty(&pstQueueCB->stMemList))
 2080              		.loc 2 646 10
 2081 006c BB69     		ldr	r3, [r7, #24]
 2082 006e 2433     		adds	r3, r3, #36
 2083 0070 1846     		mov	r0, r3
 2084 0072 FFF7FEFF 		bl	LOS_ListEmpty
 2085 0076 0346     		mov	r3, r0
 2086              		.loc 2 646 8
 2087 0078 002B     		cmp	r3, #0
 2088 007a 15D1     		bne	.L115
 647:/home/fanxinhao/Work/LiteOS_Lab/iot_link/os/liteos/base/ipc/los_queue.c ****     {
 648:/home/fanxinhao/Work/LiteOS_Lab/iot_link/os/liteos/base/ipc/los_queue.c ****         pstResumedTask = OS_TCB_FROM_PENDLIST(LOS_DL_LIST_FIRST(&pstQueueCB->stMemList)); /*lint !e
 2089              		.loc 2 648 26
 2090 007c BB69     		ldr	r3, [r7, #24]
 2091 007e 9B6A     		ldr	r3, [r3, #40]
 2092              		.loc 2 648 24
 2093 0080 283B     		subs	r3, r3, #40
 2094 0082 7B61     		str	r3, [r7, #20]
 649:/home/fanxinhao/Work/LiteOS_Lab/iot_link/os/liteos/base/ipc/los_queue.c ****         osTaskWake(pstResumedTask, OS_TASK_STATUS_PEND_QUEUE);
 2095              		.loc 2 649 9
 2096 0084 4FF40051 		mov	r1, #8192
 2097 0088 7869     		ldr	r0, [r7, #20]
 2098 008a FFF7FEFF 		bl	osTaskWake
 650:/home/fanxinhao/Work/LiteOS_Lab/iot_link/os/liteos/base/ipc/los_queue.c ****         pMem = LOS_MemboxAlloc(pMailPool);
 2099              		.loc 2 650 16
 2100 008e B868     		ldr	r0, [r7, #8]
 2101 0090 FFF7FEFF 		bl	LOS_MemboxAlloc
 2102 0094 F861     		str	r0, [r7, #28]
 651:/home/fanxinhao/Work/LiteOS_Lab/iot_link/os/liteos/base/ipc/los_queue.c ****         /* At the state of LOS_IntLock, the allocation can not be failed after releasing succefully
 652:/home/fanxinhao/Work/LiteOS_Lab/iot_link/os/liteos/base/ipc/los_queue.c **** 
 653:/home/fanxinhao/Work/LiteOS_Lab/iot_link/os/liteos/base/ipc/los_queue.c ****         pstResumedTask->puwMsg = pMem;
 2103              		.loc 2 653 32
 2104 0096 7B69     		ldr	r3, [r7, #20]
 2105 0098 FA69     		ldr	r2, [r7, #28]
 2106 009a 1A65     		str	r2, [r3, #80]
 654:/home/fanxinhao/Work/LiteOS_Lab/iot_link/os/liteos/base/ipc/los_queue.c ****         LOS_IntRestore(uvIntSave);
 2107              		.loc 2 654 9
 2108 009c 3869     		ldr	r0, [r7, #16]
 2109 009e FFF7FEFF 		bl	LOS_IntRestore
 655:/home/fanxinhao/Work/LiteOS_Lab/iot_link/os/liteos/base/ipc/los_queue.c ****         LOS_Schedule();
 2110              		.loc 2 655 9
 2111 00a2 FFF7FEFF 		bl	LOS_Schedule
 2112 00a6 02E0     		b	.L116
 2113              	.L115:
 656:/home/fanxinhao/Work/LiteOS_Lab/iot_link/os/liteos/base/ipc/los_queue.c ****     }
 657:/home/fanxinhao/Work/LiteOS_Lab/iot_link/os/liteos/base/ipc/los_queue.c ****     else
 658:/home/fanxinhao/Work/LiteOS_Lab/iot_link/os/liteos/base/ipc/los_queue.c ****     {
 659:/home/fanxinhao/Work/LiteOS_Lab/iot_link/os/liteos/base/ipc/los_queue.c ****         LOS_IntRestore(uvIntSave);
ARM GAS  /tmp/ccK7oid1.s 			page 53


 2114              		.loc 2 659 9
 2115 00a8 3869     		ldr	r0, [r7, #16]
 2116 00aa FFF7FEFF 		bl	LOS_IntRestore
 2117              	.L116:
 660:/home/fanxinhao/Work/LiteOS_Lab/iot_link/os/liteos/base/ipc/los_queue.c ****     }
 661:/home/fanxinhao/Work/LiteOS_Lab/iot_link/os/liteos/base/ipc/los_queue.c ****     return LOS_OK;
 2118              		.loc 2 661 12
 2119 00ae 0023     		movs	r3, #0
 2120              	.L111:
 662:/home/fanxinhao/Work/LiteOS_Lab/iot_link/os/liteos/base/ipc/los_queue.c **** }
 2121              		.loc 2 662 1
 2122 00b0 1846     		mov	r0, r3
 2123 00b2 2037     		adds	r7, r7, #32
 2124              	.LCFI99:
 2125              		.cfi_def_cfa_offset 8
 2126 00b4 BD46     		mov	sp, r7
 2127              	.LCFI100:
 2128              		.cfi_def_cfa_register 13
 2129              		@ sp needed
 2130 00b6 80BD     		pop	{r7, pc}
 2131              	.L118:
 2132              		.align	2
 2133              	.L117:
 2134 00b8 19060002 		.word	33555993
 2135 00bc 1A060002 		.word	33555994
 2136 00c0 1B060002 		.word	33555995
 2137 00c4 00000000 		.word	g_pstAllQueue
 2138 00c8 0A060002 		.word	33555978
 2139              		.cfi_endproc
 2140              	.LFE146:
 2142              		.section	.text.LOS_QueueDelete,"ax",%progbits
 2143              		.align	1
 2144              		.global	LOS_QueueDelete
 2145              		.syntax unified
 2146              		.thumb
 2147              		.thumb_func
 2148              		.fpu fpv4-sp-d16
 2150              	LOS_QueueDelete:
 2151              	.LFB147:
 663:/home/fanxinhao/Work/LiteOS_Lab/iot_link/os/liteos/base/ipc/los_queue.c **** 
 664:/home/fanxinhao/Work/LiteOS_Lab/iot_link/os/liteos/base/ipc/los_queue.c **** /*****************************************************************************
 665:/home/fanxinhao/Work/LiteOS_Lab/iot_link/os/liteos/base/ipc/los_queue.c ****  Function    : LOS_QueueDelete
 666:/home/fanxinhao/Work/LiteOS_Lab/iot_link/os/liteos/base/ipc/los_queue.c ****  Description : Delete a queue
 667:/home/fanxinhao/Work/LiteOS_Lab/iot_link/os/liteos/base/ipc/los_queue.c ****  Input       : puwQueueID   --- QueueID
 668:/home/fanxinhao/Work/LiteOS_Lab/iot_link/os/liteos/base/ipc/los_queue.c ****  Output      : None
 669:/home/fanxinhao/Work/LiteOS_Lab/iot_link/os/liteos/base/ipc/los_queue.c ****  Return      : LOS_OK on success or error code on failure
 670:/home/fanxinhao/Work/LiteOS_Lab/iot_link/os/liteos/base/ipc/los_queue.c ****  *****************************************************************************/
 671:/home/fanxinhao/Work/LiteOS_Lab/iot_link/os/liteos/base/ipc/los_queue.c **** LITE_OS_SEC_TEXT_INIT UINT32 LOS_QueueDelete(UINT32 uwQueueID)
 672:/home/fanxinhao/Work/LiteOS_Lab/iot_link/os/liteos/base/ipc/los_queue.c **** {
 2152              		.loc 2 672 1
 2153              		.cfi_startproc
 2154              		@ args = 0, pretend = 0, frame = 24
 2155              		@ frame_needed = 1, uses_anonymous_args = 0
 2156 0000 80B5     		push	{r7, lr}
 2157              	.LCFI101:
 2158              		.cfi_def_cfa_offset 8
 2159              		.cfi_offset 7, -8
ARM GAS  /tmp/ccK7oid1.s 			page 54


 2160              		.cfi_offset 14, -4
 2161 0002 86B0     		sub	sp, sp, #24
 2162              	.LCFI102:
 2163              		.cfi_def_cfa_offset 32
 2164 0004 00AF     		add	r7, sp, #0
 2165              	.LCFI103:
 2166              		.cfi_def_cfa_register 7
 2167 0006 7860     		str	r0, [r7, #4]
 673:/home/fanxinhao/Work/LiteOS_Lab/iot_link/os/liteos/base/ipc/los_queue.c ****     QUEUE_CB_S *pstQueueCB;
 674:/home/fanxinhao/Work/LiteOS_Lab/iot_link/os/liteos/base/ipc/los_queue.c ****     UINT8 *pucQueue = NULL;
 2168              		.loc 2 674 12
 2169 0008 0023     		movs	r3, #0
 2170 000a 3B61     		str	r3, [r7, #16]
 675:/home/fanxinhao/Work/LiteOS_Lab/iot_link/os/liteos/base/ipc/los_queue.c ****     UINTPTR  uvIntSave;
 676:/home/fanxinhao/Work/LiteOS_Lab/iot_link/os/liteos/base/ipc/los_queue.c ****     UINT32 uwRet;
 677:/home/fanxinhao/Work/LiteOS_Lab/iot_link/os/liteos/base/ipc/los_queue.c **** 
 678:/home/fanxinhao/Work/LiteOS_Lab/iot_link/os/liteos/base/ipc/los_queue.c ****     if (uwQueueID >= LOSCFG_BASE_IPC_QUEUE_LIMIT)
 2171              		.loc 2 678 8
 2172 000c 7B68     		ldr	r3, [r7, #4]
 2173 000e 092B     		cmp	r3, #9
 2174 0010 01D9     		bls	.L120
 679:/home/fanxinhao/Work/LiteOS_Lab/iot_link/os/liteos/base/ipc/los_queue.c ****     {
 680:/home/fanxinhao/Work/LiteOS_Lab/iot_link/os/liteos/base/ipc/los_queue.c ****         return LOS_ERRNO_QUEUE_NOT_FOUND;
 2175              		.loc 2 680 16
 2176 0012 324B     		ldr	r3, .L128
 2177 0014 5EE0     		b	.L121
 2178              	.L120:
 681:/home/fanxinhao/Work/LiteOS_Lab/iot_link/os/liteos/base/ipc/los_queue.c ****     }
 682:/home/fanxinhao/Work/LiteOS_Lab/iot_link/os/liteos/base/ipc/los_queue.c **** 
 683:/home/fanxinhao/Work/LiteOS_Lab/iot_link/os/liteos/base/ipc/los_queue.c ****     uvIntSave = LOS_IntLock();
 2179              		.loc 2 683 17
 2180 0016 FFF7FEFF 		bl	LOS_IntLock
 2181 001a F860     		str	r0, [r7, #12]
 684:/home/fanxinhao/Work/LiteOS_Lab/iot_link/os/liteos/base/ipc/los_queue.c ****     pstQueueCB = (QUEUE_CB_S *)GET_QUEUE_HANDLE(uwQueueID);
 2182              		.loc 2 684 18
 2183 001c 304B     		ldr	r3, .L128+4
 2184 001e 1A68     		ldr	r2, [r3]
 2185              		.loc 2 684 32
 2186 0020 7B68     		ldr	r3, [r7, #4]
 2187 0022 2C21     		movs	r1, #44
 2188 0024 01FB03F3 		mul	r3, r1, r3
 2189              		.loc 2 684 16
 2190 0028 1344     		add	r3, r3, r2
 2191 002a BB60     		str	r3, [r7, #8]
 685:/home/fanxinhao/Work/LiteOS_Lab/iot_link/os/liteos/base/ipc/los_queue.c ****     if (OS_QUEUE_UNUSED == pstQueueCB->usQueueState)
 2192              		.loc 2 685 38
 2193 002c BB68     		ldr	r3, [r7, #8]
 2194 002e 9B88     		ldrh	r3, [r3, #4]
 2195              		.loc 2 685 8
 2196 0030 002B     		cmp	r3, #0
 2197 0032 02D1     		bne	.L122
 686:/home/fanxinhao/Work/LiteOS_Lab/iot_link/os/liteos/base/ipc/los_queue.c ****     {
 687:/home/fanxinhao/Work/LiteOS_Lab/iot_link/os/liteos/base/ipc/los_queue.c ****         uwRet = LOS_ERRNO_QUEUE_NOT_CREATE;
 2198              		.loc 2 687 15
 2199 0034 2B4B     		ldr	r3, .L128+8
 2200 0036 7B61     		str	r3, [r7, #20]
 688:/home/fanxinhao/Work/LiteOS_Lab/iot_link/os/liteos/base/ipc/los_queue.c ****         goto QUEUE_END;
ARM GAS  /tmp/ccK7oid1.s 			page 55


 2201              		.loc 2 688 9
 2202 0038 48E0     		b	.L123
 2203              	.L122:
 689:/home/fanxinhao/Work/LiteOS_Lab/iot_link/os/liteos/base/ipc/los_queue.c ****     }
 690:/home/fanxinhao/Work/LiteOS_Lab/iot_link/os/liteos/base/ipc/los_queue.c **** 
 691:/home/fanxinhao/Work/LiteOS_Lab/iot_link/os/liteos/base/ipc/los_queue.c ****     if (!LOS_ListEmpty(&pstQueueCB->stReadWriteList[OS_QUEUE_READ]))
 2204              		.loc 2 691 10
 2205 003a BB68     		ldr	r3, [r7, #8]
 2206 003c 1433     		adds	r3, r3, #20
 2207 003e 1846     		mov	r0, r3
 2208 0040 FFF7FEFF 		bl	LOS_ListEmpty
 2209 0044 0346     		mov	r3, r0
 2210              		.loc 2 691 8
 2211 0046 002B     		cmp	r3, #0
 2212 0048 02D1     		bne	.L124
 692:/home/fanxinhao/Work/LiteOS_Lab/iot_link/os/liteos/base/ipc/los_queue.c ****     {
 693:/home/fanxinhao/Work/LiteOS_Lab/iot_link/os/liteos/base/ipc/los_queue.c ****         uwRet = LOS_ERRNO_QUEUE_IN_TSKUSE;
 2213              		.loc 2 693 15
 2214 004a 274B     		ldr	r3, .L128+12
 2215 004c 7B61     		str	r3, [r7, #20]
 694:/home/fanxinhao/Work/LiteOS_Lab/iot_link/os/liteos/base/ipc/los_queue.c ****         goto QUEUE_END;
 2216              		.loc 2 694 9
 2217 004e 3DE0     		b	.L123
 2218              	.L124:
 695:/home/fanxinhao/Work/LiteOS_Lab/iot_link/os/liteos/base/ipc/los_queue.c ****     }
 696:/home/fanxinhao/Work/LiteOS_Lab/iot_link/os/liteos/base/ipc/los_queue.c **** 
 697:/home/fanxinhao/Work/LiteOS_Lab/iot_link/os/liteos/base/ipc/los_queue.c ****     if (!LOS_ListEmpty(&pstQueueCB->stReadWriteList[OS_QUEUE_WRITE]))
 2219              		.loc 2 697 10
 2220 0050 BB68     		ldr	r3, [r7, #8]
 2221 0052 1C33     		adds	r3, r3, #28
 2222 0054 1846     		mov	r0, r3
 2223 0056 FFF7FEFF 		bl	LOS_ListEmpty
 2224 005a 0346     		mov	r3, r0
 2225              		.loc 2 697 8
 2226 005c 002B     		cmp	r3, #0
 2227 005e 02D1     		bne	.L125
 698:/home/fanxinhao/Work/LiteOS_Lab/iot_link/os/liteos/base/ipc/los_queue.c ****     {
 699:/home/fanxinhao/Work/LiteOS_Lab/iot_link/os/liteos/base/ipc/los_queue.c ****         uwRet = LOS_ERRNO_QUEUE_IN_TSKUSE;
 2228              		.loc 2 699 15
 2229 0060 214B     		ldr	r3, .L128+12
 2230 0062 7B61     		str	r3, [r7, #20]
 700:/home/fanxinhao/Work/LiteOS_Lab/iot_link/os/liteos/base/ipc/los_queue.c ****         goto QUEUE_END;
 2231              		.loc 2 700 9
 2232 0064 32E0     		b	.L123
 2233              	.L125:
 701:/home/fanxinhao/Work/LiteOS_Lab/iot_link/os/liteos/base/ipc/los_queue.c ****     }
 702:/home/fanxinhao/Work/LiteOS_Lab/iot_link/os/liteos/base/ipc/los_queue.c **** 
 703:/home/fanxinhao/Work/LiteOS_Lab/iot_link/os/liteos/base/ipc/los_queue.c ****     if (!LOS_ListEmpty(&pstQueueCB->stMemList))
 2234              		.loc 2 703 10
 2235 0066 BB68     		ldr	r3, [r7, #8]
 2236 0068 2433     		adds	r3, r3, #36
 2237 006a 1846     		mov	r0, r3
 2238 006c FFF7FEFF 		bl	LOS_ListEmpty
 2239 0070 0346     		mov	r3, r0
 2240              		.loc 2 703 8
 2241 0072 002B     		cmp	r3, #0
 2242 0074 02D1     		bne	.L126
ARM GAS  /tmp/ccK7oid1.s 			page 56


 704:/home/fanxinhao/Work/LiteOS_Lab/iot_link/os/liteos/base/ipc/los_queue.c ****     {
 705:/home/fanxinhao/Work/LiteOS_Lab/iot_link/os/liteos/base/ipc/los_queue.c ****         uwRet = LOS_ERRNO_QUEUE_IN_TSKUSE;
 2243              		.loc 2 705 15
 2244 0076 1C4B     		ldr	r3, .L128+12
 2245 0078 7B61     		str	r3, [r7, #20]
 706:/home/fanxinhao/Work/LiteOS_Lab/iot_link/os/liteos/base/ipc/los_queue.c ****         goto QUEUE_END;
 2246              		.loc 2 706 9
 2247 007a 27E0     		b	.L123
 2248              	.L126:
 707:/home/fanxinhao/Work/LiteOS_Lab/iot_link/os/liteos/base/ipc/los_queue.c ****     }
 708:/home/fanxinhao/Work/LiteOS_Lab/iot_link/os/liteos/base/ipc/los_queue.c **** 
 709:/home/fanxinhao/Work/LiteOS_Lab/iot_link/os/liteos/base/ipc/los_queue.c ****     if ((pstQueueCB->usReadWriteableCnt[OS_QUEUE_WRITE] + pstQueueCB->usReadWriteableCnt[OS_QUEUE_R
 2249              		.loc 2 709 40
 2250 007c BB68     		ldr	r3, [r7, #8]
 2251 007e 5B8A     		ldrh	r3, [r3, #18]
 2252 0080 1A46     		mov	r2, r3
 2253              		.loc 2 709 89
 2254 0082 BB68     		ldr	r3, [r7, #8]
 2255 0084 1B8A     		ldrh	r3, [r3, #16]
 2256              		.loc 2 709 57
 2257 0086 1344     		add	r3, r3, r2
 2258              		.loc 2 709 119
 2259 0088 BA68     		ldr	r2, [r7, #8]
 2260 008a D288     		ldrh	r2, [r2, #6]
 2261              		.loc 2 709 8
 2262 008c 9342     		cmp	r3, r2
 2263 008e 02D0     		beq	.L127
 710:/home/fanxinhao/Work/LiteOS_Lab/iot_link/os/liteos/base/ipc/los_queue.c ****     {
 711:/home/fanxinhao/Work/LiteOS_Lab/iot_link/os/liteos/base/ipc/los_queue.c ****         uwRet = LOS_ERRNO_QUEUE_IN_TSKWRITE;
 2264              		.loc 2 711 15
 2265 0090 164B     		ldr	r3, .L128+16
 2266 0092 7B61     		str	r3, [r7, #20]
 712:/home/fanxinhao/Work/LiteOS_Lab/iot_link/os/liteos/base/ipc/los_queue.c ****         goto QUEUE_END;
 2267              		.loc 2 712 9
 2268 0094 1AE0     		b	.L123
 2269              	.L127:
 713:/home/fanxinhao/Work/LiteOS_Lab/iot_link/os/liteos/base/ipc/los_queue.c ****     }
 714:/home/fanxinhao/Work/LiteOS_Lab/iot_link/os/liteos/base/ipc/los_queue.c **** 
 715:/home/fanxinhao/Work/LiteOS_Lab/iot_link/os/liteos/base/ipc/los_queue.c ****     pucQueue = pstQueueCB->pucQueue;
 2270              		.loc 2 715 14
 2271 0096 BB68     		ldr	r3, [r7, #8]
 2272 0098 1B68     		ldr	r3, [r3]
 2273 009a 3B61     		str	r3, [r7, #16]
 716:/home/fanxinhao/Work/LiteOS_Lab/iot_link/os/liteos/base/ipc/los_queue.c ****     pstQueueCB->pucQueue = (UINT8 *)NULL;
 2274              		.loc 2 716 26
 2275 009c BB68     		ldr	r3, [r7, #8]
 2276 009e 0022     		movs	r2, #0
 2277 00a0 1A60     		str	r2, [r3]
 717:/home/fanxinhao/Work/LiteOS_Lab/iot_link/os/liteos/base/ipc/los_queue.c ****     pstQueueCB->usQueueState = OS_QUEUE_UNUSED;
 2278              		.loc 2 717 30
 2279 00a2 BB68     		ldr	r3, [r7, #8]
 2280 00a4 0022     		movs	r2, #0
 2281 00a6 9A80     		strh	r2, [r3, #4]	@ movhi
 718:/home/fanxinhao/Work/LiteOS_Lab/iot_link/os/liteos/base/ipc/los_queue.c ****     LOS_ListAdd(&g_stFreeQueueList, &pstQueueCB->stReadWriteList[OS_QUEUE_WRITE]);
 2282              		.loc 2 718 5
 2283 00a8 BB68     		ldr	r3, [r7, #8]
 2284 00aa 1C33     		adds	r3, r3, #28
ARM GAS  /tmp/ccK7oid1.s 			page 57


 2285 00ac 1946     		mov	r1, r3
 2286 00ae 1048     		ldr	r0, .L128+20
 2287 00b0 FFF7FEFF 		bl	LOS_ListAdd
 719:/home/fanxinhao/Work/LiteOS_Lab/iot_link/os/liteos/base/ipc/los_queue.c ****     LOS_IntRestore(uvIntSave);
 2288              		.loc 2 719 5
 2289 00b4 F868     		ldr	r0, [r7, #12]
 2290 00b6 FFF7FEFF 		bl	LOS_IntRestore
 720:/home/fanxinhao/Work/LiteOS_Lab/iot_link/os/liteos/base/ipc/los_queue.c **** 
 721:/home/fanxinhao/Work/LiteOS_Lab/iot_link/os/liteos/base/ipc/los_queue.c ****     uwRet = LOS_MemFree(m_aucSysMem0, (VOID *)pucQueue);
 2291              		.loc 2 721 13
 2292 00ba 0E4B     		ldr	r3, .L128+24
 2293 00bc 1B68     		ldr	r3, [r3]
 2294 00be 3969     		ldr	r1, [r7, #16]
 2295 00c0 1846     		mov	r0, r3
 2296 00c2 FFF7FEFF 		bl	LOS_MemFree
 2297 00c6 7861     		str	r0, [r7, #20]
 722:/home/fanxinhao/Work/LiteOS_Lab/iot_link/os/liteos/base/ipc/los_queue.c ****     return uwRet;
 2298              		.loc 2 722 12
 2299 00c8 7B69     		ldr	r3, [r7, #20]
 2300 00ca 03E0     		b	.L121
 2301              	.L123:
 723:/home/fanxinhao/Work/LiteOS_Lab/iot_link/os/liteos/base/ipc/los_queue.c **** 
 724:/home/fanxinhao/Work/LiteOS_Lab/iot_link/os/liteos/base/ipc/los_queue.c **** QUEUE_END:
 725:/home/fanxinhao/Work/LiteOS_Lab/iot_link/os/liteos/base/ipc/los_queue.c ****     LOS_IntRestore(uvIntSave);
 2302              		.loc 2 725 5
 2303 00cc F868     		ldr	r0, [r7, #12]
 2304 00ce FFF7FEFF 		bl	LOS_IntRestore
 726:/home/fanxinhao/Work/LiteOS_Lab/iot_link/os/liteos/base/ipc/los_queue.c ****     return uwRet;
 2305              		.loc 2 726 12
 2306 00d2 7B69     		ldr	r3, [r7, #20]
 2307              	.L121:
 727:/home/fanxinhao/Work/LiteOS_Lab/iot_link/os/liteos/base/ipc/los_queue.c **** }
 2308              		.loc 2 727 1
 2309 00d4 1846     		mov	r0, r3
 2310 00d6 1837     		adds	r7, r7, #24
 2311              	.LCFI104:
 2312              		.cfi_def_cfa_offset 8
 2313 00d8 BD46     		mov	sp, r7
 2314              	.LCFI105:
 2315              		.cfi_def_cfa_register 13
 2316              		@ sp needed
 2317 00da 80BD     		pop	{r7, pc}
 2318              	.L129:
 2319              		.align	2
 2320              	.L128:
 2321 00dc 05060002 		.word	33555973
 2322 00e0 00000000 		.word	g_pstAllQueue
 2323 00e4 0A060002 		.word	33555978
 2324 00e8 08060002 		.word	33555976
 2325 00ec 0B060002 		.word	33555979
 2326 00f0 00000000 		.word	g_stFreeQueueList
 2327 00f4 00000000 		.word	m_aucSysMem0
 2328              		.cfi_endproc
 2329              	.LFE147:
 2331              		.section	.text.LOS_QueueInfoGet,"ax",%progbits
 2332              		.align	1
 2333              		.global	LOS_QueueInfoGet
ARM GAS  /tmp/ccK7oid1.s 			page 58


 2334              		.syntax unified
 2335              		.thumb
 2336              		.thumb_func
 2337              		.fpu fpv4-sp-d16
 2339              	LOS_QueueInfoGet:
 2340              	.LFB148:
 728:/home/fanxinhao/Work/LiteOS_Lab/iot_link/os/liteos/base/ipc/los_queue.c **** 
 729:/home/fanxinhao/Work/LiteOS_Lab/iot_link/os/liteos/base/ipc/los_queue.c **** /*****************************************************************************
 730:/home/fanxinhao/Work/LiteOS_Lab/iot_link/os/liteos/base/ipc/los_queue.c ****  Function    : LOS_QueueInfoGet
 731:/home/fanxinhao/Work/LiteOS_Lab/iot_link/os/liteos/base/ipc/los_queue.c ****  Description : Get queue infomation
 732:/home/fanxinhao/Work/LiteOS_Lab/iot_link/os/liteos/base/ipc/los_queue.c ****  Input       : puwQueueID   --- QueueID
 733:/home/fanxinhao/Work/LiteOS_Lab/iot_link/os/liteos/base/ipc/los_queue.c ****  Output      : pstQueueInfo
 734:/home/fanxinhao/Work/LiteOS_Lab/iot_link/os/liteos/base/ipc/los_queue.c ****  Return      : LOS_OK on success or error code on failure
 735:/home/fanxinhao/Work/LiteOS_Lab/iot_link/os/liteos/base/ipc/los_queue.c ****  *****************************************************************************/
 736:/home/fanxinhao/Work/LiteOS_Lab/iot_link/os/liteos/base/ipc/los_queue.c **** LITE_OS_SEC_TEXT_MINOR UINT32 LOS_QueueInfoGet(UINT32 uwQueueID, QUEUE_INFO_S *pstQueueInfo)
 737:/home/fanxinhao/Work/LiteOS_Lab/iot_link/os/liteos/base/ipc/los_queue.c **** {
 2341              		.loc 2 737 1
 2342              		.cfi_startproc
 2343              		@ args = 0, pretend = 0, frame = 24
 2344              		@ frame_needed = 1, uses_anonymous_args = 0
 2345 0000 80B5     		push	{r7, lr}
 2346              	.LCFI106:
 2347              		.cfi_def_cfa_offset 8
 2348              		.cfi_offset 7, -8
 2349              		.cfi_offset 14, -4
 2350 0002 86B0     		sub	sp, sp, #24
 2351              	.LCFI107:
 2352              		.cfi_def_cfa_offset 32
 2353 0004 00AF     		add	r7, sp, #0
 2354              	.LCFI108:
 2355              		.cfi_def_cfa_register 7
 2356 0006 7860     		str	r0, [r7, #4]
 2357 0008 3960     		str	r1, [r7]
 738:/home/fanxinhao/Work/LiteOS_Lab/iot_link/os/liteos/base/ipc/los_queue.c ****     UINTPTR uvIntSave;
 739:/home/fanxinhao/Work/LiteOS_Lab/iot_link/os/liteos/base/ipc/los_queue.c ****     UINT32 uwRet = LOS_OK;
 2358              		.loc 2 739 12
 2359 000a 0023     		movs	r3, #0
 2360 000c 7B61     		str	r3, [r7, #20]
 740:/home/fanxinhao/Work/LiteOS_Lab/iot_link/os/liteos/base/ipc/los_queue.c ****     QUEUE_CB_S *pstQueueCB;
 741:/home/fanxinhao/Work/LiteOS_Lab/iot_link/os/liteos/base/ipc/los_queue.c ****     LOS_TASK_CB *pstTskCB;
 742:/home/fanxinhao/Work/LiteOS_Lab/iot_link/os/liteos/base/ipc/los_queue.c **** 
 743:/home/fanxinhao/Work/LiteOS_Lab/iot_link/os/liteos/base/ipc/los_queue.c ****     if (NULL == pstQueueInfo)
 2361              		.loc 2 743 8
 2362 000e 3B68     		ldr	r3, [r7]
 2363 0010 002B     		cmp	r3, #0
 2364 0012 01D1     		bne	.L131
 744:/home/fanxinhao/Work/LiteOS_Lab/iot_link/os/liteos/base/ipc/los_queue.c ****     {
 745:/home/fanxinhao/Work/LiteOS_Lab/iot_link/os/liteos/base/ipc/los_queue.c ****         return LOS_ERRNO_QUEUE_PTR_NULL;
 2365              		.loc 2 745 16
 2366 0014 474B     		ldr	r3, .L142
 2367 0016 89E0     		b	.L132
 2368              	.L131:
 746:/home/fanxinhao/Work/LiteOS_Lab/iot_link/os/liteos/base/ipc/los_queue.c ****     }
 747:/home/fanxinhao/Work/LiteOS_Lab/iot_link/os/liteos/base/ipc/los_queue.c **** 
 748:/home/fanxinhao/Work/LiteOS_Lab/iot_link/os/liteos/base/ipc/los_queue.c ****     if (uwQueueID >= LOSCFG_BASE_IPC_QUEUE_LIMIT)
 2369              		.loc 2 748 8
 2370 0018 7B68     		ldr	r3, [r7, #4]
ARM GAS  /tmp/ccK7oid1.s 			page 59


 2371 001a 092B     		cmp	r3, #9
 2372 001c 01D9     		bls	.L133
 749:/home/fanxinhao/Work/LiteOS_Lab/iot_link/os/liteos/base/ipc/los_queue.c ****     {
 750:/home/fanxinhao/Work/LiteOS_Lab/iot_link/os/liteos/base/ipc/los_queue.c ****         return LOS_ERRNO_QUEUE_INVALID;
 2373              		.loc 2 750 16
 2374 001e 464B     		ldr	r3, .L142+4
 2375 0020 84E0     		b	.L132
 2376              	.L133:
 751:/home/fanxinhao/Work/LiteOS_Lab/iot_link/os/liteos/base/ipc/los_queue.c ****     }
 752:/home/fanxinhao/Work/LiteOS_Lab/iot_link/os/liteos/base/ipc/los_queue.c **** 
 753:/home/fanxinhao/Work/LiteOS_Lab/iot_link/os/liteos/base/ipc/los_queue.c ****     (VOID)memset((VOID *)pstQueueInfo, 0, sizeof(QUEUE_INFO_S));
 2377              		.loc 2 753 11
 2378 0022 1C22     		movs	r2, #28
 2379 0024 0021     		movs	r1, #0
 2380 0026 3868     		ldr	r0, [r7]
 2381 0028 FFF7FEFF 		bl	memset
 754:/home/fanxinhao/Work/LiteOS_Lab/iot_link/os/liteos/base/ipc/los_queue.c ****     uvIntSave = LOS_IntLock();
 2382              		.loc 2 754 17
 2383 002c FFF7FEFF 		bl	LOS_IntLock
 2384 0030 F860     		str	r0, [r7, #12]
 755:/home/fanxinhao/Work/LiteOS_Lab/iot_link/os/liteos/base/ipc/los_queue.c **** 
 756:/home/fanxinhao/Work/LiteOS_Lab/iot_link/os/liteos/base/ipc/los_queue.c ****     pstQueueCB = (QUEUE_CB_S *)GET_QUEUE_HANDLE(uwQueueID);
 2385              		.loc 2 756 18
 2386 0032 424B     		ldr	r3, .L142+8
 2387 0034 1A68     		ldr	r2, [r3]
 2388              		.loc 2 756 32
 2389 0036 7B68     		ldr	r3, [r7, #4]
 2390 0038 2C21     		movs	r1, #44
 2391 003a 01FB03F3 		mul	r3, r1, r3
 2392              		.loc 2 756 16
 2393 003e 1344     		add	r3, r3, r2
 2394 0040 BB60     		str	r3, [r7, #8]
 757:/home/fanxinhao/Work/LiteOS_Lab/iot_link/os/liteos/base/ipc/los_queue.c **** 
 758:/home/fanxinhao/Work/LiteOS_Lab/iot_link/os/liteos/base/ipc/los_queue.c ****     if (OS_QUEUE_UNUSED == pstQueueCB->usQueueState)
 2395              		.loc 2 758 38
 2396 0042 BB68     		ldr	r3, [r7, #8]
 2397 0044 9B88     		ldrh	r3, [r3, #4]
 2398              		.loc 2 758 8
 2399 0046 002B     		cmp	r3, #0
 2400 0048 02D1     		bne	.L134
 759:/home/fanxinhao/Work/LiteOS_Lab/iot_link/os/liteos/base/ipc/los_queue.c ****     {
 760:/home/fanxinhao/Work/LiteOS_Lab/iot_link/os/liteos/base/ipc/los_queue.c ****         uwRet = LOS_ERRNO_QUEUE_NOT_CREATE;
 2401              		.loc 2 760 15
 2402 004a 3D4B     		ldr	r3, .L142+12
 2403 004c 7B61     		str	r3, [r7, #20]
 761:/home/fanxinhao/Work/LiteOS_Lab/iot_link/os/liteos/base/ipc/los_queue.c ****         goto QUEUE_END;
 2404              		.loc 2 761 9
 2405 004e 69E0     		b	.L135
 2406              	.L134:
 762:/home/fanxinhao/Work/LiteOS_Lab/iot_link/os/liteos/base/ipc/los_queue.c ****     }
 763:/home/fanxinhao/Work/LiteOS_Lab/iot_link/os/liteos/base/ipc/los_queue.c **** 
 764:/home/fanxinhao/Work/LiteOS_Lab/iot_link/os/liteos/base/ipc/los_queue.c ****     pstQueueInfo->uwQueueID = uwQueueID;
 2407              		.loc 2 764 29
 2408 0050 3B68     		ldr	r3, [r7]
 2409 0052 7A68     		ldr	r2, [r7, #4]
 2410 0054 1A60     		str	r2, [r3]
 765:/home/fanxinhao/Work/LiteOS_Lab/iot_link/os/liteos/base/ipc/los_queue.c ****     pstQueueInfo->usQueueLen = pstQueueCB->usQueueLen;
ARM GAS  /tmp/ccK7oid1.s 			page 60


 2411              		.loc 2 765 42
 2412 0056 BB68     		ldr	r3, [r7, #8]
 2413 0058 DA88     		ldrh	r2, [r3, #6]
 2414              		.loc 2 765 30
 2415 005a 3B68     		ldr	r3, [r7]
 2416 005c 9A80     		strh	r2, [r3, #4]	@ movhi
 766:/home/fanxinhao/Work/LiteOS_Lab/iot_link/os/liteos/base/ipc/los_queue.c ****     pstQueueInfo->usQueueSize = pstQueueCB->usQueueSize;
 2417              		.loc 2 766 43
 2418 005e BB68     		ldr	r3, [r7, #8]
 2419 0060 1A89     		ldrh	r2, [r3, #8]
 2420              		.loc 2 766 31
 2421 0062 3B68     		ldr	r3, [r7]
 2422 0064 DA80     		strh	r2, [r3, #6]	@ movhi
 767:/home/fanxinhao/Work/LiteOS_Lab/iot_link/os/liteos/base/ipc/los_queue.c ****     pstQueueInfo->usQueueHead = pstQueueCB->usQueueHead;
 2423              		.loc 2 767 43
 2424 0066 BB68     		ldr	r3, [r7, #8]
 2425 0068 9A89     		ldrh	r2, [r3, #12]
 2426              		.loc 2 767 31
 2427 006a 3B68     		ldr	r3, [r7]
 2428 006c 1A81     		strh	r2, [r3, #8]	@ movhi
 768:/home/fanxinhao/Work/LiteOS_Lab/iot_link/os/liteos/base/ipc/los_queue.c ****     pstQueueInfo->usQueueTail = pstQueueCB->usQueueTail;
 2429              		.loc 2 768 43
 2430 006e BB68     		ldr	r3, [r7, #8]
 2431 0070 DA89     		ldrh	r2, [r3, #14]
 2432              		.loc 2 768 31
 2433 0072 3B68     		ldr	r3, [r7]
 2434 0074 5A81     		strh	r2, [r3, #10]	@ movhi
 769:/home/fanxinhao/Work/LiteOS_Lab/iot_link/os/liteos/base/ipc/los_queue.c ****     pstQueueInfo->usReadableCnt = pstQueueCB->usReadWriteableCnt[OS_QUEUE_READ];
 2435              		.loc 2 769 65
 2436 0076 BB68     		ldr	r3, [r7, #8]
 2437 0078 1A8A     		ldrh	r2, [r3, #16]
 2438              		.loc 2 769 33
 2439 007a 3B68     		ldr	r3, [r7]
 2440 007c DA81     		strh	r2, [r3, #14]	@ movhi
 770:/home/fanxinhao/Work/LiteOS_Lab/iot_link/os/liteos/base/ipc/los_queue.c ****     pstQueueInfo->usWritableCnt = pstQueueCB->usReadWriteableCnt[OS_QUEUE_WRITE];
 2441              		.loc 2 770 65
 2442 007e BB68     		ldr	r3, [r7, #8]
 2443 0080 5A8A     		ldrh	r2, [r3, #18]
 2444              		.loc 2 770 33
 2445 0082 3B68     		ldr	r3, [r7]
 2446 0084 9A81     		strh	r2, [r3, #12]	@ movhi
 771:/home/fanxinhao/Work/LiteOS_Lab/iot_link/os/liteos/base/ipc/los_queue.c **** 
 772:/home/fanxinhao/Work/LiteOS_Lab/iot_link/os/liteos/base/ipc/los_queue.c ****     LOS_DL_LIST_FOR_EACH_ENTRY(pstTskCB, &pstQueueCB->stReadWriteList[OS_QUEUE_READ], LOS_TASK_CB, 
 2447              		.loc 2 772 5
 2448 0086 BB68     		ldr	r3, [r7, #8]
 2449 0088 9B69     		ldr	r3, [r3, #24]
 2450 008a 283B     		subs	r3, r3, #40
 2451 008c 3B61     		str	r3, [r7, #16]
 2452 008e 0DE0     		b	.L136
 2453              	.L137:
 773:/home/fanxinhao/Work/LiteOS_Lab/iot_link/os/liteos/base/ipc/los_queue.c ****     {
 774:/home/fanxinhao/Work/LiteOS_Lab/iot_link/os/liteos/base/ipc/los_queue.c ****         pstQueueInfo->uwWaitReadTask |= (1 << pstTskCB->uwTaskID);
 2454              		.loc 2 774 38 discriminator 3
 2455 0090 3B68     		ldr	r3, [r7]
 2456 0092 1B69     		ldr	r3, [r3, #16]
 2457              		.loc 2 774 55 discriminator 3
 2458 0094 3A69     		ldr	r2, [r7, #16]
ARM GAS  /tmp/ccK7oid1.s 			page 61


 2459 0096 1269     		ldr	r2, [r2, #16]
 2460              		.loc 2 774 44 discriminator 3
 2461 0098 0121     		movs	r1, #1
 2462 009a 01FA02F2 		lsl	r2, r1, r2
 2463              		.loc 2 774 38 discriminator 3
 2464 009e 1A43     		orrs	r2, r2, r3
 2465 00a0 3B68     		ldr	r3, [r7]
 2466 00a2 1A61     		str	r2, [r3, #16]
 772:/home/fanxinhao/Work/LiteOS_Lab/iot_link/os/liteos/base/ipc/los_queue.c ****     {
 2467              		.loc 2 772 5 discriminator 3
 2468 00a4 3B69     		ldr	r3, [r7, #16]
 2469 00a6 DB6A     		ldr	r3, [r3, #44]
 2470 00a8 283B     		subs	r3, r3, #40
 2471 00aa 3B61     		str	r3, [r7, #16]
 2472              	.L136:
 772:/home/fanxinhao/Work/LiteOS_Lab/iot_link/os/liteos/base/ipc/los_queue.c ****     {
 2473              		.loc 2 772 5 is_stmt 0 discriminator 1
 2474 00ac 3B69     		ldr	r3, [r7, #16]
 2475 00ae 03F12802 		add	r2, r3, #40
 2476 00b2 BB68     		ldr	r3, [r7, #8]
 2477 00b4 1433     		adds	r3, r3, #20
 2478 00b6 9A42     		cmp	r2, r3
 2479 00b8 EAD1     		bne	.L137
 775:/home/fanxinhao/Work/LiteOS_Lab/iot_link/os/liteos/base/ipc/los_queue.c ****     }
 776:/home/fanxinhao/Work/LiteOS_Lab/iot_link/os/liteos/base/ipc/los_queue.c **** 
 777:/home/fanxinhao/Work/LiteOS_Lab/iot_link/os/liteos/base/ipc/los_queue.c ****     LOS_DL_LIST_FOR_EACH_ENTRY(pstTskCB, &pstQueueCB->stReadWriteList[OS_QUEUE_WRITE], LOS_TASK_CB,
 2480              		.loc 2 777 5 is_stmt 1
 2481 00ba BB68     		ldr	r3, [r7, #8]
 2482 00bc 1B6A     		ldr	r3, [r3, #32]
 2483 00be 283B     		subs	r3, r3, #40
 2484 00c0 3B61     		str	r3, [r7, #16]
 2485 00c2 0DE0     		b	.L138
 2486              	.L139:
 778:/home/fanxinhao/Work/LiteOS_Lab/iot_link/os/liteos/base/ipc/los_queue.c ****     {
 779:/home/fanxinhao/Work/LiteOS_Lab/iot_link/os/liteos/base/ipc/los_queue.c ****         pstQueueInfo->uwWaitWriteTask |= (1 << pstTskCB->uwTaskID);
 2487              		.loc 2 779 39 discriminator 3
 2488 00c4 3B68     		ldr	r3, [r7]
 2489 00c6 5B69     		ldr	r3, [r3, #20]
 2490              		.loc 2 779 56 discriminator 3
 2491 00c8 3A69     		ldr	r2, [r7, #16]
 2492 00ca 1269     		ldr	r2, [r2, #16]
 2493              		.loc 2 779 45 discriminator 3
 2494 00cc 0121     		movs	r1, #1
 2495 00ce 01FA02F2 		lsl	r2, r1, r2
 2496              		.loc 2 779 39 discriminator 3
 2497 00d2 1A43     		orrs	r2, r2, r3
 2498 00d4 3B68     		ldr	r3, [r7]
 2499 00d6 5A61     		str	r2, [r3, #20]
 777:/home/fanxinhao/Work/LiteOS_Lab/iot_link/os/liteos/base/ipc/los_queue.c ****     {
 2500              		.loc 2 777 5 discriminator 3
 2501 00d8 3B69     		ldr	r3, [r7, #16]
 2502 00da DB6A     		ldr	r3, [r3, #44]
 2503 00dc 283B     		subs	r3, r3, #40
 2504 00de 3B61     		str	r3, [r7, #16]
 2505              	.L138:
 777:/home/fanxinhao/Work/LiteOS_Lab/iot_link/os/liteos/base/ipc/los_queue.c ****     {
 2506              		.loc 2 777 5 is_stmt 0 discriminator 1
ARM GAS  /tmp/ccK7oid1.s 			page 62


 2507 00e0 3B69     		ldr	r3, [r7, #16]
 2508 00e2 03F12802 		add	r2, r3, #40
 2509 00e6 BB68     		ldr	r3, [r7, #8]
 2510 00e8 1C33     		adds	r3, r3, #28
 2511 00ea 9A42     		cmp	r2, r3
 2512 00ec EAD1     		bne	.L139
 780:/home/fanxinhao/Work/LiteOS_Lab/iot_link/os/liteos/base/ipc/los_queue.c ****     }
 781:/home/fanxinhao/Work/LiteOS_Lab/iot_link/os/liteos/base/ipc/los_queue.c **** 
 782:/home/fanxinhao/Work/LiteOS_Lab/iot_link/os/liteos/base/ipc/los_queue.c ****     LOS_DL_LIST_FOR_EACH_ENTRY(pstTskCB, &pstQueueCB->stMemList, LOS_TASK_CB, stPendList) /*lint !e
 2513              		.loc 2 782 5 is_stmt 1
 2514 00ee BB68     		ldr	r3, [r7, #8]
 2515 00f0 9B6A     		ldr	r3, [r3, #40]
 2516 00f2 283B     		subs	r3, r3, #40
 2517 00f4 3B61     		str	r3, [r7, #16]
 2518 00f6 0DE0     		b	.L140
 2519              	.L141:
 783:/home/fanxinhao/Work/LiteOS_Lab/iot_link/os/liteos/base/ipc/los_queue.c ****     {
 784:/home/fanxinhao/Work/LiteOS_Lab/iot_link/os/liteos/base/ipc/los_queue.c ****         pstQueueInfo->uwWaitMemTask |= (1 << pstTskCB->uwTaskID);
 2520              		.loc 2 784 37 discriminator 3
 2521 00f8 3B68     		ldr	r3, [r7]
 2522 00fa 9B69     		ldr	r3, [r3, #24]
 2523              		.loc 2 784 54 discriminator 3
 2524 00fc 3A69     		ldr	r2, [r7, #16]
 2525 00fe 1269     		ldr	r2, [r2, #16]
 2526              		.loc 2 784 43 discriminator 3
 2527 0100 0121     		movs	r1, #1
 2528 0102 01FA02F2 		lsl	r2, r1, r2
 2529              		.loc 2 784 37 discriminator 3
 2530 0106 1A43     		orrs	r2, r2, r3
 2531 0108 3B68     		ldr	r3, [r7]
 2532 010a 9A61     		str	r2, [r3, #24]
 782:/home/fanxinhao/Work/LiteOS_Lab/iot_link/os/liteos/base/ipc/los_queue.c ****     {
 2533              		.loc 2 782 5 discriminator 3
 2534 010c 3B69     		ldr	r3, [r7, #16]
 2535 010e DB6A     		ldr	r3, [r3, #44]
 2536 0110 283B     		subs	r3, r3, #40
 2537 0112 3B61     		str	r3, [r7, #16]
 2538              	.L140:
 782:/home/fanxinhao/Work/LiteOS_Lab/iot_link/os/liteos/base/ipc/los_queue.c ****     {
 2539              		.loc 2 782 5 is_stmt 0 discriminator 1
 2540 0114 3B69     		ldr	r3, [r7, #16]
 2541 0116 03F12802 		add	r2, r3, #40
 2542 011a BB68     		ldr	r3, [r7, #8]
 2543 011c 2433     		adds	r3, r3, #36
 2544 011e 9A42     		cmp	r2, r3
 2545 0120 EAD1     		bne	.L141
 785:/home/fanxinhao/Work/LiteOS_Lab/iot_link/os/liteos/base/ipc/los_queue.c ****     }
 786:/home/fanxinhao/Work/LiteOS_Lab/iot_link/os/liteos/base/ipc/los_queue.c **** 
 787:/home/fanxinhao/Work/LiteOS_Lab/iot_link/os/liteos/base/ipc/los_queue.c **** QUEUE_END:
 2546              		.loc 2 787 1 is_stmt 1
 2547 0122 00BF     		nop
 2548              	.L135:
 788:/home/fanxinhao/Work/LiteOS_Lab/iot_link/os/liteos/base/ipc/los_queue.c ****     LOS_IntRestore(uvIntSave);
 2549              		.loc 2 788 5
 2550 0124 F868     		ldr	r0, [r7, #12]
 2551 0126 FFF7FEFF 		bl	LOS_IntRestore
 789:/home/fanxinhao/Work/LiteOS_Lab/iot_link/os/liteos/base/ipc/los_queue.c ****     return uwRet;
ARM GAS  /tmp/ccK7oid1.s 			page 63


 2552              		.loc 2 789 12
 2553 012a 7B69     		ldr	r3, [r7, #20]
 2554              	.L132:
 790:/home/fanxinhao/Work/LiteOS_Lab/iot_link/os/liteos/base/ipc/los_queue.c **** }
 2555              		.loc 2 790 1
 2556 012c 1846     		mov	r0, r3
 2557 012e 1837     		adds	r7, r7, #24
 2558              	.LCFI109:
 2559              		.cfi_def_cfa_offset 8
 2560 0130 BD46     		mov	sp, r7
 2561              	.LCFI110:
 2562              		.cfi_def_cfa_register 13
 2563              		@ sp needed
 2564 0132 80BD     		pop	{r7, pc}
 2565              	.L143:
 2566              		.align	2
 2567              	.L142:
 2568 0134 17060002 		.word	33555991
 2569 0138 0E060002 		.word	33555982
 2570 013c 00000000 		.word	g_pstAllQueue
 2571 0140 0A060002 		.word	33555978
 2572              		.cfi_endproc
 2573              	.LFE148:
 2575              		.text
 2576              	.Letext0:
 2577              		.file 3 "/home/fanxinhao/toolchain/gcc-arm-none-eabi-9-2019-q4-major/arm-none-eabi/include/machine
 2578              		.file 4 "/home/fanxinhao/toolchain/gcc-arm-none-eabi-9-2019-q4-major/arm-none-eabi/include/sys/loc
 2579              		.file 5 "/home/fanxinhao/toolchain/gcc-arm-none-eabi-9-2019-q4-major/arm-none-eabi/include/sys/_ty
 2580              		.file 6 "/home/fanxinhao/toolchain/gcc-arm-none-eabi-9-2019-q4-major/lib/gcc/arm-none-eabi/9.2.1/i
 2581              		.file 7 "/home/fanxinhao/toolchain/gcc-arm-none-eabi-9-2019-q4-major/arm-none-eabi/include/sys/ree
 2582              		.file 8 "/home/fanxinhao/Work/LiteOS_Lab/iot_link/os/liteos/include/los_typedef.h"
 2583              		.file 9 "/home/fanxinhao/toolchain/gcc-arm-none-eabi-9-2019-q4-major/arm-none-eabi/include/sys/_st
 2584              		.file 10 "/home/fanxinhao/Work/LiteOS_Lab/iot_link/os/liteos/arch/arm/common/cmsis/core_cm4.h"
 2585              		.file 11 "/home/fanxinhao/Work/LiteOS_Lab/targets/STM32L476RG_NB476/Inc/system_stm32l4xx.h"
 2586              		.file 12 "/home/fanxinhao/Work/LiteOS_Lab/iot_link/os/liteos/include/los_config.h"
 2587              		.file 13 "/home/fanxinhao/Work/LiteOS_Lab/iot_link/os/liteos/include/los_err.h"
 2588              		.file 14 "/home/fanxinhao/Work/LiteOS_Lab/iot_link/os/liteos/include/los_queue.h"
 2589              		.file 15 "/home/fanxinhao/Work/LiteOS_Lab/iot_link/os/liteos/base/include/los_queue.ph"
 2590              		.file 16 "/home/fanxinhao/Work/LiteOS_Lab/iot_link/os/liteos/include/los_memory.h"
 2591              		.file 17 "/home/fanxinhao/Work/LiteOS_Lab/iot_link/os/liteos/arch/arm/arm-m/include/los_hwi.h"
 2592              		.file 18 "/home/fanxinhao/Work/LiteOS_Lab/iot_link/os/liteos/include/los_tick.h"
 2593              		.file 19 "/home/fanxinhao/Work/LiteOS_Lab/iot_link/os/liteos/include/los_event.h"
 2594              		.file 20 "/home/fanxinhao/Work/LiteOS_Lab/iot_link/os/liteos/include/los_task.h"
 2595              		.file 21 "/home/fanxinhao/Work/LiteOS_Lab/iot_link/os/liteos/base/include/los_task.ph"
ARM GAS  /tmp/ccK7oid1.s 			page 64

