GAS LISTING /tmp/ccl3wM2z.s 			page 1


   1              		.file	"oc_mqtt_at.c"
   2              		.text
   3              	.Ltext0:
   4              		.section	.bss.s_server_ca,"aw",@nobits
   5              		.align 8
   8              	s_server_ca:
   9 0000 00000000 		.zero	8
   9      00000000 
  10              		.section	.bss.s_client_ca,"aw",@nobits
  11              		.align 8
  14              	s_client_ca:
  15 0000 00000000 		.zero	8
  15      00000000 
  16              		.section	.bss.s_client_pk,"aw",@nobits
  17              		.align 8
  20              	s_client_pk:
  21 0000 00000000 		.zero	8
  21      00000000 
  22              		.section	.bss.s_client_pk_pwd,"aw",@nobits
  23              		.align 8
  26              	s_client_pk_pwd:
  27 0000 00000000 		.zero	8
  27      00000000 
  28              		.section	.rodata
  29              		.align 8
  30              	.LC0:
  31 0000 5B25735D 		.string	"[%s][%u][%s] %s:specified topic message\n\r\r\n"
  31      5B25755D 
  31      5B25735D 
  31      2025733A 
  31      73706563 
  32              		.section	.text.hwoc_mqtt_recvpub,"ax",@progbits
  33              		.weak	hwoc_mqtt_recvpub
  35              	hwoc_mqtt_recvpub:
  36              	.LFB6:
  37              		.file 1 "/home/xingli/share/LiteOS_Lab/oc/oc_mqtt/oc_mqtt_al/oc_mqtt_at.c"
   1:/home/xingli/share/LiteOS_Lab/oc/oc_mqtt/oc_mqtt_al/oc_mqtt_at.c **** /* ----------------------------------------------------------------------------
   2:/home/xingli/share/LiteOS_Lab/oc/oc_mqtt/oc_mqtt_al/oc_mqtt_at.c ****  * Copyright (c) <2016-2019>, <Huawei Technologies Co., Ltd>
   3:/home/xingli/share/LiteOS_Lab/oc/oc_mqtt/oc_mqtt_al/oc_mqtt_at.c ****  * All rights reserved.
   4:/home/xingli/share/LiteOS_Lab/oc/oc_mqtt/oc_mqtt_al/oc_mqtt_at.c ****  * Redistribution and use in source and binary forms, with or without modification,
   5:/home/xingli/share/LiteOS_Lab/oc/oc_mqtt/oc_mqtt_al/oc_mqtt_at.c ****  * are permitted provided that the following conditions are met:
   6:/home/xingli/share/LiteOS_Lab/oc/oc_mqtt/oc_mqtt_al/oc_mqtt_at.c ****  * 1. Redistributions of source code must retain the above copyright notice, this list of
   7:/home/xingli/share/LiteOS_Lab/oc/oc_mqtt/oc_mqtt_al/oc_mqtt_at.c ****  * conditions and the following disclaimer.
   8:/home/xingli/share/LiteOS_Lab/oc/oc_mqtt/oc_mqtt_al/oc_mqtt_at.c ****  * 2. Redistributions in binary form must reproduce the above copyright notice, this list
   9:/home/xingli/share/LiteOS_Lab/oc/oc_mqtt/oc_mqtt_al/oc_mqtt_at.c ****  * of conditions and the following disclaimer in the documentation and/or other materials
  10:/home/xingli/share/LiteOS_Lab/oc/oc_mqtt/oc_mqtt_al/oc_mqtt_at.c ****  * provided with the distribution.
  11:/home/xingli/share/LiteOS_Lab/oc/oc_mqtt/oc_mqtt_al/oc_mqtt_at.c ****  * 3. Neither the name of the copyright holder nor the names of its contributors may be used
  12:/home/xingli/share/LiteOS_Lab/oc/oc_mqtt/oc_mqtt_al/oc_mqtt_at.c ****  * to endorse or promote products derived from this software without specific prior written
  13:/home/xingli/share/LiteOS_Lab/oc/oc_mqtt/oc_mqtt_al/oc_mqtt_at.c ****  * permission.
  14:/home/xingli/share/LiteOS_Lab/oc/oc_mqtt/oc_mqtt_al/oc_mqtt_at.c ****  * THIS SOFTWARE IS PROVIDED BY THE COPYRIGHT HOLDERS AND CONTRIBUTORS
  15:/home/xingli/share/LiteOS_Lab/oc/oc_mqtt/oc_mqtt_al/oc_mqtt_at.c ****  * "AS IS" AND ANY EXPRESS OR IMPLIED WARRANTIES, INCLUDING, BUT NOT LIMITED TO,
  16:/home/xingli/share/LiteOS_Lab/oc/oc_mqtt/oc_mqtt_al/oc_mqtt_at.c ****  * THE IMPLIED WARRANTIES OF MERCHANTABILITY AND FITNESS FOR A PARTICULAR
  17:/home/xingli/share/LiteOS_Lab/oc/oc_mqtt/oc_mqtt_al/oc_mqtt_at.c ****  * PURPOSE ARE DISCLAIMED. IN NO EVENT SHALL THE COPYRIGHT HOLDER OR
  18:/home/xingli/share/LiteOS_Lab/oc/oc_mqtt/oc_mqtt_al/oc_mqtt_at.c ****  * CONTRIBUTORS BE LIABLE FOR ANY DIRECT, INDIRECT, INCIDENTAL, SPECIAL,
  19:/home/xingli/share/LiteOS_Lab/oc/oc_mqtt/oc_mqtt_al/oc_mqtt_at.c ****  * EXEMPLARY, OR CONSEQUENTIAL DAMAGES (INCLUDING, BUT NOT LIMITED TO,
  20:/home/xingli/share/LiteOS_Lab/oc/oc_mqtt/oc_mqtt_al/oc_mqtt_at.c ****  * PROCUREMENT OF SUBSTITUTE GOODS OR SERVICES; LOSS OF USE, DATA, OR PROFITS;
  21:/home/xingli/share/LiteOS_Lab/oc/oc_mqtt/oc_mqtt_al/oc_mqtt_at.c ****  * OR BUSINESS INTERRUPTION) HOWEVER CAUSED AND ON ANY THEORY OF LIABILITY,
GAS LISTING /tmp/ccl3wM2z.s 			page 2


  22:/home/xingli/share/LiteOS_Lab/oc/oc_mqtt/oc_mqtt_al/oc_mqtt_at.c ****  * WHETHER IN CONTRACT, STRICT LIABILITY, OR TORT (INCLUDING NEGLIGENCE OR
  23:/home/xingli/share/LiteOS_Lab/oc/oc_mqtt/oc_mqtt_al/oc_mqtt_at.c ****  * OTHERWISE) ARISING IN ANY WAY OUT OF THE USE OF THIS SOFTWARE, EVEN IF
  24:/home/xingli/share/LiteOS_Lab/oc/oc_mqtt/oc_mqtt_al/oc_mqtt_at.c ****  * ADVISED OF THE POSSIBILITY OF SUCH DAMAGE.
  25:/home/xingli/share/LiteOS_Lab/oc/oc_mqtt/oc_mqtt_al/oc_mqtt_at.c ****  * --------------------------------------------------------------------------- */
  26:/home/xingli/share/LiteOS_Lab/oc/oc_mqtt/oc_mqtt_al/oc_mqtt_at.c **** /* ----------------------------------------------------------------------------
  27:/home/xingli/share/LiteOS_Lab/oc/oc_mqtt/oc_mqtt_al/oc_mqtt_at.c ****  * Notice of Export Control Law
  28:/home/xingli/share/LiteOS_Lab/oc/oc_mqtt/oc_mqtt_al/oc_mqtt_at.c ****  * ===============================================
  29:/home/xingli/share/LiteOS_Lab/oc/oc_mqtt/oc_mqtt_al/oc_mqtt_at.c ****  * Huawei LiteOS may be subject to applicable export control laws and regulations, which might
  30:/home/xingli/share/LiteOS_Lab/oc/oc_mqtt/oc_mqtt_al/oc_mqtt_at.c ****  * include those applicable to Huawei LiteOS of U.S. and the country in which you are located.
  31:/home/xingli/share/LiteOS_Lab/oc/oc_mqtt/oc_mqtt_al/oc_mqtt_at.c ****  * Import, export and usage of Huawei LiteOS in any manner by you shall be in compliance with such
  32:/home/xingli/share/LiteOS_Lab/oc/oc_mqtt/oc_mqtt_al/oc_mqtt_at.c ****  * applicable export control laws and regulations.
  33:/home/xingli/share/LiteOS_Lab/oc/oc_mqtt/oc_mqtt_al/oc_mqtt_at.c ****  * --------------------------------------------------------------------------- */
  34:/home/xingli/share/LiteOS_Lab/oc/oc_mqtt/oc_mqtt_al/oc_mqtt_at.c **** 
  35:/home/xingli/share/LiteOS_Lab/oc/oc_mqtt/oc_mqtt_al/oc_mqtt_at.c **** #include <stdio.h>
  36:/home/xingli/share/LiteOS_Lab/oc/oc_mqtt/oc_mqtt_al/oc_mqtt_at.c **** #include <string.h>
  37:/home/xingli/share/LiteOS_Lab/oc/oc_mqtt/oc_mqtt_al/oc_mqtt_at.c **** #include <stdlib.h>
  38:/home/xingli/share/LiteOS_Lab/oc/oc_mqtt/oc_mqtt_al/oc_mqtt_at.c **** 
  39:/home/xingli/share/LiteOS_Lab/oc/oc_mqtt/oc_mqtt_al/oc_mqtt_at.c **** #include "oc_mqtt_at.h"
  40:/home/xingli/share/LiteOS_Lab/oc/oc_mqtt/oc_mqtt_al/oc_mqtt_at.c **** #include "osal.h"
  41:/home/xingli/share/LiteOS_Lab/oc/oc_mqtt/oc_mqtt_al/oc_mqtt_at.c **** #include "oc_mqtt_al.h"
  42:/home/xingli/share/LiteOS_Lab/oc/oc_mqtt/oc_mqtt_al/oc_mqtt_at.c **** 
  43:/home/xingli/share/LiteOS_Lab/oc/oc_mqtt/oc_mqtt_al/oc_mqtt_at.c **** extern int link_main(void *args);
  44:/home/xingli/share/LiteOS_Lab/oc/oc_mqtt/oc_mqtt_al/oc_mqtt_at.c **** 
  45:/home/xingli/share/LiteOS_Lab/oc/oc_mqtt/oc_mqtt_al/oc_mqtt_at.c **** static char *s_server_ca = NULL;     // /< used to storage the server ca
  46:/home/xingli/share/LiteOS_Lab/oc/oc_mqtt/oc_mqtt_al/oc_mqtt_at.c **** static char *s_client_ca = NULL;     // /< used to storage the client ca
  47:/home/xingli/share/LiteOS_Lab/oc/oc_mqtt/oc_mqtt_al/oc_mqtt_at.c **** static char *s_client_pk = NULL;     // /< used to storage the client pk
  48:/home/xingli/share/LiteOS_Lab/oc/oc_mqtt/oc_mqtt_al/oc_mqtt_at.c **** static char *s_client_pk_pwd = NULL; // /< used to strorage the pwd for the pk
  49:/home/xingli/share/LiteOS_Lab/oc/oc_mqtt/oc_mqtt_al/oc_mqtt_at.c **** 
  50:/home/xingli/share/LiteOS_Lab/oc/oc_mqtt/oc_mqtt_al/oc_mqtt_at.c **** // /< when receive any information from hw, then it call this function,THIS IS A URC imformation
  51:/home/xingli/share/LiteOS_Lab/oc/oc_mqtt/oc_mqtt_al/oc_mqtt_at.c **** // /< ATCOMMAND:    +HMPUB:"HELLOTOPC",2,0010
  52:/home/xingli/share/LiteOS_Lab/oc/oc_mqtt/oc_mqtt_al/oc_mqtt_at.c **** // /< make sure that the topic and payload may not be ended with '\0', so you should not use strcpy
  53:/home/xingli/share/LiteOS_Lab/oc/oc_mqtt/oc_mqtt_al/oc_mqtt_at.c **** __attribute__((weak)) void hwoc_mqtt_recvpub(const char *topic, int topiclen, uint8_t *payload, int
  54:/home/xingli/share/LiteOS_Lab/oc/oc_mqtt/oc_mqtt_al/oc_mqtt_at.c **** {
  38              		.loc 1 54 1
  39              		.cfi_startproc
  40 0000 F30F1EFA 		endbr64
  41 0004 55       		pushq	%rbp
  42              	.LCFI0:
  43              		.cfi_def_cfa_offset 16
  44              		.cfi_offset 6, -16
  45 0005 4889E5   		movq	%rsp, %rbp
  46              	.LCFI1:
  47              		.cfi_def_cfa_register 6
  48 0008 53       		pushq	%rbx
  49 0009 4883EC38 		subq	$56, %rsp
  50              		.cfi_offset 3, -24
  51 000d 48897DD8 		movq	%rdi, -40(%rbp)
  52 0011 8975D4   		movl	%esi, -44(%rbp)
  53 0014 488955C8 		movq	%rdx, -56(%rbp)
  54 0018 894DD0   		movl	%ecx, -48(%rbp)
  55              		.loc 1 54 1
  56 001b 64488B04 		movq	%fs:40, %rax
  56      25280000 
  56      00
  57 0024 488945E8 		movq	%rax, -24(%rbp)
  58 0028 31C0     		xorl	%eax, %eax
  55:/home/xingli/share/LiteOS_Lab/oc/oc_mqtt/oc_mqtt_al/oc_mqtt_at.c ****     LINK_LOG_DEBUG("%s:specified topic message\n\r", __FUNCTION__);
GAS LISTING /tmp/ccl3wM2z.s 			page 3


  59              		.loc 1 55 5
  60 002a E8000000 		call	link_log_level_get@PLT
  60      00
  61 002f 83F801   		cmpl	$1, %eax
  62 0032 7745     		ja	.L5
  63              		.loc 1 55 5 is_stmt 0 discriminator 1
  64 0034 E8000000 		call	osal_sys_time@PLT
  64      00
  65 0039 89C3     		movl	%eax, %ebx
  66 003b BF010000 		movl	$1, %edi
  66      00
  67 0040 E8000000 		call	link_log_level_name@PLT
  67      00
  68 0045 4C8D0500 		leaq	__FUNCTION__.3559(%rip), %r8
  68      000000
  69 004c 488D0D00 		leaq	__FUNCTION__.3559(%rip), %rcx
  69      000000
  70 0053 89DA     		movl	%ebx, %edx
  71 0055 4889C6   		movq	%rax, %rsi
  72 0058 488D3D00 		leaq	.LC0(%rip), %rdi
  72      000000
  73 005f B8000000 		movl	$0, %eax
  73      00
  74 0064 E8000000 		call	printf@PLT
  74      00
  75 0069 488B0500 		movq	stdout(%rip), %rax
  75      000000
  76 0070 4889C7   		movq	%rax, %rdi
  77 0073 E8000000 		call	fflush@PLT
  77      00
  56:/home/xingli/share/LiteOS_Lab/oc/oc_mqtt/oc_mqtt_al/oc_mqtt_at.c ****     // /< PLEASE USE THE AT PIPE TO OUTPUT THE INFORMATION
  57:/home/xingli/share/LiteOS_Lab/oc/oc_mqtt/oc_mqtt_al/oc_mqtt_at.c ****     return;
  78              		.loc 1 57 5 is_stmt 1 discriminator 1
  79 0078 90       		nop
  80              	.L5:
  81              		.loc 1 57 5 is_stmt 0
  82 0079 90       		nop
  58:/home/xingli/share/LiteOS_Lab/oc/oc_mqtt/oc_mqtt_al/oc_mqtt_at.c **** }
  83              		.loc 1 58 1 is_stmt 1
  84 007a 488B45E8 		movq	-24(%rbp), %rax
  85 007e 64483304 		xorq	%fs:40, %rax
  85      25280000 
  85      00
  86 0087 7405     		je	.L4
  87 0089 E8000000 		call	__stack_chk_fail@PLT
  87      00
  88              	.L4:
  89 008e 4883C438 		addq	$56, %rsp
  90 0092 5B       		popq	%rbx
  91 0093 5D       		popq	%rbp
  92              	.LCFI2:
  93              		.cfi_def_cfa 7, 8
  94 0094 C3       		ret
  95              		.cfi_endproc
  96              	.LFE6:
  98              		.section	.rodata
  99              	.LC1:
GAS LISTING /tmp/ccl3wM2z.s 			page 4


 100 002c 5B25735D 		.string	"[%s][%u][%s] connected %d\n\r\r\n"
 100      5B25755D 
 100      5B25735D 
 100      20636F6E 
 100      6E656374 
 101 004a 00000000 		.align 8
 101      0000
 102              	.LC2:
 103 0050 5B25735D 		.string	"[%s][%u][%s] disconnected %d\n\r\r\n"
 103      5B25755D 
 103      5B25735D 
 103      20646973 
 103      636F6E6E 
 104              		.section	.text.hwoc_mqtt_log,"ax",@progbits
 105              		.weak	hwoc_mqtt_log
 107              	hwoc_mqtt_log:
 108              	.LFB7:
  59:/home/xingli/share/LiteOS_Lab/oc/oc_mqtt/oc_mqtt_al/oc_mqtt_at.c **** 
  60:/home/xingli/share/LiteOS_Lab/oc/oc_mqtt/oc_mqtt_al/oc_mqtt_at.c **** // /<ATCOMMAND:
  61:/home/xingli/share/LiteOS_Lab/oc/oc_mqtt/oc_mqtt_al/oc_mqtt_at.c **** __attribute__((weak)) void hwoc_mqtt_log(en_oc_mqtt_log_t logtype)
  62:/home/xingli/share/LiteOS_Lab/oc/oc_mqtt/oc_mqtt_al/oc_mqtt_at.c **** {
 109              		.loc 1 62 1
 110              		.cfi_startproc
 111 0000 F30F1EFA 		endbr64
 112 0004 55       		pushq	%rbp
 113              	.LCFI3:
 114              		.cfi_def_cfa_offset 16
 115              		.cfi_offset 6, -16
 116 0005 4889E5   		movq	%rsp, %rbp
 117              	.LCFI4:
 118              		.cfi_def_cfa_register 6
 119 0008 4154     		pushq	%r12
 120 000a 53       		pushq	%rbx
 121 000b 4883EC20 		subq	$32, %rsp
 122              		.cfi_offset 12, -24
 123              		.cfi_offset 3, -32
 124 000f 897DDC   		movl	%edi, -36(%rbp)
 125              		.loc 1 62 1
 126 0012 64488B04 		movq	%fs:40, %rax
 126      25280000 
 126      00
 127 001b 488945E8 		movq	%rax, -24(%rbp)
 128 001f 31C0     		xorl	%eax, %eax
  63:/home/xingli/share/LiteOS_Lab/oc/oc_mqtt/oc_mqtt_al/oc_mqtt_at.c ****     if (logtype == en_oc_mqtt_log_connected) {
 129              		.loc 1 63 8
 130 0021 837DDC00 		cmpl	$0, -36(%rbp)
 131 0025 7555     		jne	.L7
  64:/home/xingli/share/LiteOS_Lab/oc/oc_mqtt/oc_mqtt_al/oc_mqtt_at.c ****         LINK_LOG_DEBUG("connected %d\n\r", (int)logtype);
 132              		.loc 1 64 9
 133 0027 E8000000 		call	link_log_level_get@PLT
 133      00
 134 002c 83F801   		cmpl	$1, %eax
 135 002f 0F879700 		ja	.L11
 135      0000
 136              		.loc 1 64 9 is_stmt 0 discriminator 1
 137 0035 8B5DDC   		movl	-36(%rbp), %ebx
 138 0038 E8000000 		call	osal_sys_time@PLT
GAS LISTING /tmp/ccl3wM2z.s 			page 5


 138      00
 139 003d 4189C4   		movl	%eax, %r12d
 140 0040 BF010000 		movl	$1, %edi
 140      00
 141 0045 E8000000 		call	link_log_level_name@PLT
 141      00
 142 004a 4189D8   		movl	%ebx, %r8d
 143 004d 488D0D00 		leaq	__FUNCTION__.3563(%rip), %rcx
 143      000000
 144 0054 4489E2   		movl	%r12d, %edx
 145 0057 4889C6   		movq	%rax, %rsi
 146 005a 488D3D00 		leaq	.LC1(%rip), %rdi
 146      000000
 147 0061 B8000000 		movl	$0, %eax
 147      00
 148 0066 E8000000 		call	printf@PLT
 148      00
 149 006b 488B0500 		movq	stdout(%rip), %rax
 149      000000
 150 0072 4889C7   		movq	%rax, %rdi
 151 0075 E8000000 		call	fflush@PLT
 151      00
  65:/home/xingli/share/LiteOS_Lab/oc/oc_mqtt/oc_mqtt_al/oc_mqtt_at.c ****     } else {
  66:/home/xingli/share/LiteOS_Lab/oc/oc_mqtt/oc_mqtt_al/oc_mqtt_at.c ****         LINK_LOG_DEBUG("disconnected %d\n\r", (int)logtype);
  67:/home/xingli/share/LiteOS_Lab/oc/oc_mqtt/oc_mqtt_al/oc_mqtt_at.c ****     }
  68:/home/xingli/share/LiteOS_Lab/oc/oc_mqtt/oc_mqtt_al/oc_mqtt_at.c **** 
  69:/home/xingli/share/LiteOS_Lab/oc/oc_mqtt/oc_mqtt_al/oc_mqtt_at.c ****     return;
 152              		.loc 1 69 5 is_stmt 1 discriminator 1
 153 007a EB50     		jmp	.L11
 154              	.L7:
  66:/home/xingli/share/LiteOS_Lab/oc/oc_mqtt/oc_mqtt_al/oc_mqtt_at.c ****     }
 155              		.loc 1 66 9
 156 007c E8000000 		call	link_log_level_get@PLT
 156      00
 157 0081 83F801   		cmpl	$1, %eax
 158 0084 7746     		ja	.L11
  66:/home/xingli/share/LiteOS_Lab/oc/oc_mqtt/oc_mqtt_al/oc_mqtt_at.c ****     }
 159              		.loc 1 66 9 is_stmt 0 discriminator 1
 160 0086 8B5DDC   		movl	-36(%rbp), %ebx
 161 0089 E8000000 		call	osal_sys_time@PLT
 161      00
 162 008e 4189C4   		movl	%eax, %r12d
 163 0091 BF010000 		movl	$1, %edi
 163      00
 164 0096 E8000000 		call	link_log_level_name@PLT
 164      00
 165 009b 4189D8   		movl	%ebx, %r8d
 166 009e 488D0D00 		leaq	__FUNCTION__.3563(%rip), %rcx
 166      000000
 167 00a5 4489E2   		movl	%r12d, %edx
 168 00a8 4889C6   		movq	%rax, %rsi
 169 00ab 488D3D00 		leaq	.LC2(%rip), %rdi
 169      000000
 170 00b2 B8000000 		movl	$0, %eax
 170      00
 171 00b7 E8000000 		call	printf@PLT
 171      00
GAS LISTING /tmp/ccl3wM2z.s 			page 6


 172 00bc 488B0500 		movq	stdout(%rip), %rax
 172      000000
 173 00c3 4889C7   		movq	%rax, %rdi
 174 00c6 E8000000 		call	fflush@PLT
 174      00
 175              		.loc 1 69 5 is_stmt 1 discriminator 1
 176 00cb 90       		nop
 177              	.L11:
 178              		.loc 1 69 5 is_stmt 0
 179 00cc 90       		nop
  70:/home/xingli/share/LiteOS_Lab/oc/oc_mqtt/oc_mqtt_al/oc_mqtt_at.c **** }
 180              		.loc 1 70 1 is_stmt 1
 181 00cd 488B45E8 		movq	-24(%rbp), %rax
 182 00d1 64483304 		xorq	%fs:40, %rax
 182      25280000 
 182      00
 183 00da 7405     		je	.L10
 184 00dc E8000000 		call	__stack_chk_fail@PLT
 184      00
 185              	.L10:
 186 00e1 4883C420 		addq	$32, %rsp
 187 00e5 5B       		popq	%rbx
 188 00e6 415C     		popq	%r12
 189 00e8 5D       		popq	%rbp
 190              	.LCFI5:
 191              		.cfi_def_cfa 7, 8
 192 00e9 C3       		ret
 193              		.cfi_endproc
 194              	.LFE7:
 196              		.section	.rodata
 197 0071 00000000 		.align 8
 197      000000
 198              	.LC3:
 199 0078 5B25735D 		.string	"[%s][%u][%s] qos:%d dup:%d topiclen:%d msglen:%d\n\r\r\n"
 199      5B25755D 
 199      5B25735D 
 199      20716F73 
 199      3A256420 
 200              		.section	.text.app_msg_deal,"ax",@progbits
 202              	app_msg_deal:
 203              	.LFB8:
  71:/home/xingli/share/LiteOS_Lab/oc/oc_mqtt/oc_mqtt_al/oc_mqtt_at.c **** 
  72:/home/xingli/share/LiteOS_Lab/oc/oc_mqtt/oc_mqtt_al/oc_mqtt_at.c **** // use this function to push all the message to the buffer
  73:/home/xingli/share/LiteOS_Lab/oc/oc_mqtt/oc_mqtt_al/oc_mqtt_at.c **** static int app_msg_deal(void *arg, mqtt_al_msgrcv_t *msg)
  74:/home/xingli/share/LiteOS_Lab/oc/oc_mqtt/oc_mqtt_al/oc_mqtt_at.c **** {
 204              		.loc 1 74 1
 205              		.cfi_startproc
 206 0000 F30F1EFA 		endbr64
 207 0004 55       		pushq	%rbp
 208              	.LCFI6:
 209              		.cfi_def_cfa_offset 16
 210              		.cfi_offset 6, -16
 211 0005 4889E5   		movq	%rsp, %rbp
 212              	.LCFI7:
 213              		.cfi_def_cfa_register 6
 214 0008 4157     		pushq	%r15
 215 000a 4156     		pushq	%r14
GAS LISTING /tmp/ccl3wM2z.s 			page 7


 216 000c 4155     		pushq	%r13
 217 000e 4154     		pushq	%r12
 218 0010 53       		pushq	%rbx
 219 0011 4883EC28 		subq	$40, %rsp
 220              		.cfi_offset 15, -24
 221              		.cfi_offset 14, -32
 222              		.cfi_offset 13, -40
 223              		.cfi_offset 12, -48
 224              		.cfi_offset 3, -56
 225 0015 48897DB8 		movq	%rdi, -72(%rbp)
 226 0019 488975B0 		movq	%rsi, -80(%rbp)
 227              		.loc 1 74 1
 228 001d 64488B04 		movq	%fs:40, %rax
 228      25280000 
 228      00
 229 0026 488945C8 		movq	%rax, -56(%rbp)
 230 002a 31C0     		xorl	%eax, %eax
  75:/home/xingli/share/LiteOS_Lab/oc/oc_mqtt/oc_mqtt_al/oc_mqtt_at.c ****     int ret = -1;
 231              		.loc 1 75 9
 232 002c C745C4FF 		movl	$-1, -60(%rbp)
 232      FFFFFF
  76:/home/xingli/share/LiteOS_Lab/oc/oc_mqtt/oc_mqtt_al/oc_mqtt_at.c **** 
  77:/home/xingli/share/LiteOS_Lab/oc/oc_mqtt/oc_mqtt_al/oc_mqtt_at.c ****     LINK_LOG_DEBUG("qos:%d dup:%d topiclen:%d msglen:%d\n\r", (int)msg->qos, msg->dup, msg->topic.l
 233              		.loc 1 77 5
 234 0033 E8000000 		call	link_log_level_get@PLT
 234      00
 235 0038 83F801   		cmpl	$1, %eax
 236 003b 776D     		ja	.L13
 237              		.loc 1 77 5 is_stmt 0 discriminator 1
 238 003d 488B45B0 		movq	-80(%rbp), %rax
 239 0041 448B6018 		movl	24(%rax), %r12d
 240 0045 488B45B0 		movq	-80(%rbp), %rax
 241 0049 8B5808   		movl	8(%rax), %ebx
 242 004c 488B45B0 		movq	-80(%rbp), %rax
 243 0050 448B6824 		movl	36(%rax), %r13d
 244 0054 488B45B0 		movq	-80(%rbp), %rax
 245 0058 8B4020   		movl	32(%rax), %eax
 246 005b 4189C7   		movl	%eax, %r15d
 247 005e E8000000 		call	osal_sys_time@PLT
 247      00
 248 0063 4189C6   		movl	%eax, %r14d
 249 0066 BF010000 		movl	$1, %edi
 249      00
 250 006b E8000000 		call	link_log_level_name@PLT
 250      00
 251 0070 4154     		pushq	%r12
 252 0072 53       		pushq	%rbx
 253 0073 4589E9   		movl	%r13d, %r9d
 254 0076 4589F8   		movl	%r15d, %r8d
 255 0079 488D0D00 		leaq	__FUNCTION__.3569(%rip), %rcx
 255      000000
 256 0080 4489F2   		movl	%r14d, %edx
 257 0083 4889C6   		movq	%rax, %rsi
 258 0086 488D3D00 		leaq	.LC3(%rip), %rdi
 258      000000
 259 008d B8000000 		movl	$0, %eax
 259      00
GAS LISTING /tmp/ccl3wM2z.s 			page 8


 260 0092 E8000000 		call	printf@PLT
 260      00
 261 0097 4883C410 		addq	$16, %rsp
 262 009b 488B0500 		movq	stdout(%rip), %rax
 262      000000
 263 00a2 4889C7   		movq	%rax, %rdi
 264 00a5 E8000000 		call	fflush@PLT
 264      00
 265              	.L13:
  78:/home/xingli/share/LiteOS_Lab/oc/oc_mqtt/oc_mqtt_al/oc_mqtt_at.c ****     if ((NULL != msg->topic.data) && (msg->topic.len > 0)) {
 266              		.loc 1 78 28 is_stmt 1
 267 00aa 488B45B0 		movq	-80(%rbp), %rax
 268 00ae 488B00   		movq	(%rax), %rax
 269              		.loc 1 78 8
 270 00b1 4885C0   		testq	%rax, %rax
 271 00b4 7430     		je	.L14
 272              		.loc 1 78 49 discriminator 1
 273 00b6 488B45B0 		movq	-80(%rbp), %rax
 274 00ba 8B4008   		movl	8(%rax), %eax
 275              		.loc 1 78 35 discriminator 1
 276 00bd 85C0     		testl	%eax, %eax
 277 00bf 7E25     		jle	.L14
  79:/home/xingli/share/LiteOS_Lab/oc/oc_mqtt/oc_mqtt_al/oc_mqtt_at.c ****         hwoc_mqtt_recvpub(msg->topic.data, msg->topic.len, (uint8_t *)msg->msg.data, msg->msg.len);
 278              		.loc 1 79 9
 279 00c1 488B45B0 		movq	-80(%rbp), %rax
 280 00c5 8B4818   		movl	24(%rax), %ecx
 281              		.loc 1 79 79
 282 00c8 488B45B0 		movq	-80(%rbp), %rax
 283 00cc 488B5010 		movq	16(%rax), %rdx
 284              		.loc 1 79 9
 285 00d0 488B45B0 		movq	-80(%rbp), %rax
 286 00d4 8B7008   		movl	8(%rax), %esi
 287              		.loc 1 79 37
 288 00d7 488B45B0 		movq	-80(%rbp), %rax
 289 00db 488B00   		movq	(%rax), %rax
 290              		.loc 1 79 9
 291 00de 4889C7   		movq	%rax, %rdi
 292 00e1 E8000000 		call	hwoc_mqtt_recvpub
 292      00
 293              	.L14:
  80:/home/xingli/share/LiteOS_Lab/oc/oc_mqtt/oc_mqtt_al/oc_mqtt_at.c ****     }
  81:/home/xingli/share/LiteOS_Lab/oc/oc_mqtt/oc_mqtt_al/oc_mqtt_at.c **** 
  82:/home/xingli/share/LiteOS_Lab/oc/oc_mqtt/oc_mqtt_al/oc_mqtt_at.c ****     return ret;
 294              		.loc 1 82 12
 295 00e6 8B45C4   		movl	-60(%rbp), %eax
  83:/home/xingli/share/LiteOS_Lab/oc/oc_mqtt/oc_mqtt_al/oc_mqtt_at.c **** }
 296              		.loc 1 83 1
 297 00e9 488B5DC8 		movq	-56(%rbp), %rbx
 298 00ed 6448331C 		xorq	%fs:40, %rbx
 298      25280000 
 298      00
 299 00f6 7405     		je	.L16
 300 00f8 E8000000 		call	__stack_chk_fail@PLT
 300      00
 301              	.L16:
 302 00fd 488D65D8 		leaq	-40(%rbp), %rsp
 303 0101 5B       		popq	%rbx
GAS LISTING /tmp/ccl3wM2z.s 			page 9


 304 0102 415C     		popq	%r12
 305 0104 415D     		popq	%r13
 306 0106 415E     		popq	%r14
 307 0108 415F     		popq	%r15
 308 010a 5D       		popq	%rbp
 309              	.LCFI8:
 310              		.cfi_def_cfa 7, 8
 311 010b C3       		ret
 312              		.cfi_endproc
 313              	.LFE8:
 315              		.section	.text.hwoc_mqtt_publish,"ax",@progbits
 316              		.globl	hwoc_mqtt_publish
 318              	hwoc_mqtt_publish:
 319              	.LFB9:
  84:/home/xingli/share/LiteOS_Lab/oc/oc_mqtt/oc_mqtt_al/oc_mqtt_at.c **** 
  85:/home/xingli/share/LiteOS_Lab/oc/oc_mqtt/oc_mqtt_al/oc_mqtt_at.c **** // /< when the at pipe want to send some message to the hw,then it call this function,
  86:/home/xingli/share/LiteOS_Lab/oc/oc_mqtt/oc_mqtt_al/oc_mqtt_at.c **** // /< if the topic is NULL, then it will send to the default topic
  87:/home/xingli/share/LiteOS_Lab/oc/oc_mqtt/oc_mqtt_al/oc_mqtt_at.c **** // /< ATCOMMAND:    AT+HWOCMQTTPUBLISH=1,"PUBTOPIC",3,001020
  88:/home/xingli/share/LiteOS_Lab/oc/oc_mqtt/oc_mqtt_al/oc_mqtt_at.c **** // /< ATRESPONSE:   +PUBLISH OK when success
  89:/home/xingli/share/LiteOS_Lab/oc/oc_mqtt/oc_mqtt_al/oc_mqtt_at.c **** // <                +PUBLISH ERR:code
  90:/home/xingli/share/LiteOS_Lab/oc/oc_mqtt/oc_mqtt_al/oc_mqtt_at.c **** // /<               code:reference to en_oc_mqtt_err_code_t defines
  91:/home/xingli/share/LiteOS_Lab/oc/oc_mqtt/oc_mqtt_al/oc_mqtt_at.c **** int hwoc_mqtt_publish(int qos, char *topic, uint8_t *payload, int len)
  92:/home/xingli/share/LiteOS_Lab/oc/oc_mqtt/oc_mqtt_al/oc_mqtt_at.c **** {
 320              		.loc 1 92 1
 321              		.cfi_startproc
 322 0000 F30F1EFA 		endbr64
 323 0004 55       		pushq	%rbp
 324              	.LCFI9:
 325              		.cfi_def_cfa_offset 16
 326              		.cfi_offset 6, -16
 327 0005 4889E5   		movq	%rsp, %rbp
 328              	.LCFI10:
 329              		.cfi_def_cfa_register 6
 330 0008 4883EC30 		subq	$48, %rsp
 331 000c 897DEC   		movl	%edi, -20(%rbp)
 332 000f 488975E0 		movq	%rsi, -32(%rbp)
 333 0013 488955D8 		movq	%rdx, -40(%rbp)
 334 0017 894DE8   		movl	%ecx, -24(%rbp)
 335              		.loc 1 92 1
 336 001a 64488B04 		movq	%fs:40, %rax
 336      25280000 
 336      00
 337 0023 488945F8 		movq	%rax, -8(%rbp)
 338 0027 31C0     		xorl	%eax, %eax
  93:/home/xingli/share/LiteOS_Lab/oc/oc_mqtt/oc_mqtt_al/oc_mqtt_at.c ****     (void)link_main(NULL);
 339              		.loc 1 93 11
 340 0029 BF000000 		movl	$0, %edi
 340      00
 341 002e E8000000 		call	link_main@PLT
 341      00
  94:/home/xingli/share/LiteOS_Lab/oc/oc_mqtt/oc_mqtt_al/oc_mqtt_at.c ****     return oc_mqtt_publish(topic, payload, len, qos);
 342              		.loc 1 94 12
 343 0033 8B4DEC   		movl	-20(%rbp), %ecx
 344 0036 8B55E8   		movl	-24(%rbp), %edx
 345 0039 488B75D8 		movq	-40(%rbp), %rsi
 346 003d 488B45E0 		movq	-32(%rbp), %rax
 347 0041 4889C7   		movq	%rax, %rdi
GAS LISTING /tmp/ccl3wM2z.s 			page 10


 348 0044 E8000000 		call	oc_mqtt_publish@PLT
 348      00
  95:/home/xingli/share/LiteOS_Lab/oc/oc_mqtt/oc_mqtt_al/oc_mqtt_at.c **** }
 349              		.loc 1 95 1
 350 0049 488B7DF8 		movq	-8(%rbp), %rdi
 351 004d 6448333C 		xorq	%fs:40, %rdi
 351      25280000 
 351      00
 352 0056 7405     		je	.L19
 353 0058 E8000000 		call	__stack_chk_fail@PLT
 353      00
 354              	.L19:
 355 005d C9       		leave
 356              	.LCFI11:
 357              		.cfi_def_cfa 7, 8
 358 005e C3       		ret
 359              		.cfi_endproc
 360              	.LFE9:
 362              		.section	.rodata
 363              	.LC4:
 364 00ad 38383833 		.string	"8883"
 364      00
 365              	.LC5:
 366 00b2 31383833 		.string	"1883"
 366      00
 367              		.section	.text.hwoc_mqtt_connect,"ax",@progbits
 368              		.globl	hwoc_mqtt_connect
 370              	hwoc_mqtt_connect:
 371              	.LFB10:
  96:/home/xingli/share/LiteOS_Lab/oc/oc_mqtt/oc_mqtt_al/oc_mqtt_at.c **** 
  97:/home/xingli/share/LiteOS_Lab/oc/oc_mqtt/oc_mqtt_al/oc_mqtt_at.c **** // /< when you want to connect to the hw,then call this function
  98:/home/xingli/share/LiteOS_Lab/oc/oc_mqtt/oc_mqtt_al/oc_mqtt_at.c **** // /< ATCOMMAND:    AT+HWOCMQTTCONNECT=1,10,"192.168.1.20","8883","DEVICEID","DEVICEPWD"
  99:/home/xingli/share/LiteOS_Lab/oc/oc_mqtt/oc_mqtt_al/oc_mqtt_at.c **** // /< ATRESPONSE:   +CONNECTED OK when success
 100:/home/xingli/share/LiteOS_Lab/oc/oc_mqtt/oc_mqtt_al/oc_mqtt_at.c **** // /<               +CONNECTED ERR:code
 101:/home/xingli/share/LiteOS_Lab/oc/oc_mqtt/oc_mqtt_al/oc_mqtt_at.c **** // /<               code:reference to en_oc_mqtt_err_code_t defines
 102:/home/xingli/share/LiteOS_Lab/oc/oc_mqtt/oc_mqtt_al/oc_mqtt_at.c **** 
 103:/home/xingli/share/LiteOS_Lab/oc/oc_mqtt/oc_mqtt_al/oc_mqtt_at.c **** #define CN_CONNECT_TIMESPACE 2000 // /< unit:ms
 104:/home/xingli/share/LiteOS_Lab/oc/oc_mqtt/oc_mqtt_al/oc_mqtt_at.c **** #define CN_TLS_DEFAULT_PORT "8883"
 105:/home/xingli/share/LiteOS_Lab/oc/oc_mqtt/oc_mqtt_al/oc_mqtt_at.c **** #define CN_NOTLS_PORT "1883"
 106:/home/xingli/share/LiteOS_Lab/oc/oc_mqtt/oc_mqtt_al/oc_mqtt_at.c **** 
 107:/home/xingli/share/LiteOS_Lab/oc/oc_mqtt/oc_mqtt_al/oc_mqtt_at.c **** int hwoc_mqtt_connect(int bsmode, unsigned short lifetime, const char *ip, const char *port, const 
 108:/home/xingli/share/LiteOS_Lab/oc/oc_mqtt/oc_mqtt_al/oc_mqtt_at.c ****     const char *devicepasswd)
 109:/home/xingli/share/LiteOS_Lab/oc/oc_mqtt/oc_mqtt_al/oc_mqtt_at.c **** {
 372              		.loc 1 109 1
 373              		.cfi_startproc
 374 0000 F30F1EFA 		endbr64
 375 0004 55       		pushq	%rbp
 376              	.LCFI12:
 377              		.cfi_def_cfa_offset 16
 378              		.cfi_offset 6, -16
 379 0005 4889E5   		movq	%rsp, %rbp
 380              	.LCFI13:
 381              		.cfi_def_cfa_register 6
 382 0008 4881ECD0 		subq	$208, %rsp
 382      000000
 383 000f 89BD5CFF 		movl	%edi, -164(%rbp)
 383      FFFF
GAS LISTING /tmp/ccl3wM2z.s 			page 11


 384 0015 89F0     		movl	%esi, %eax
 385 0017 48899550 		movq	%rdx, -176(%rbp)
 385      FFFFFF
 386 001e 48898D48 		movq	%rcx, -184(%rbp)
 386      FFFFFF
 387 0025 4C898540 		movq	%r8, -192(%rbp)
 387      FFFFFF
 388 002c 4C898D38 		movq	%r9, -200(%rbp)
 388      FFFFFF
 389 0033 66898558 		movw	%ax, -168(%rbp)
 389      FFFFFF
 390              		.loc 1 109 1
 391 003a 64488B04 		movq	%fs:40, %rax
 391      25280000 
 391      00
 392 0043 488945F8 		movq	%rax, -8(%rbp)
 393 0047 31C0     		xorl	%eax, %eax
 110:/home/xingli/share/LiteOS_Lab/oc/oc_mqtt/oc_mqtt_al/oc_mqtt_at.c ****     int ret = (int)en_oc_mqtt_err_parafmt;
 394              		.loc 1 110 9
 395 0049 C78564FF 		movl	$1, -156(%rbp)
 395      FFFF0100 
 395      0000
 111:/home/xingli/share/LiteOS_Lab/oc/oc_mqtt/oc_mqtt_al/oc_mqtt_at.c ****     static unsigned long long time_last = 0;
 112:/home/xingli/share/LiteOS_Lab/oc/oc_mqtt/oc_mqtt_al/oc_mqtt_at.c ****     unsigned long long time_now;
 113:/home/xingli/share/LiteOS_Lab/oc/oc_mqtt/oc_mqtt_al/oc_mqtt_at.c **** 
 114:/home/xingli/share/LiteOS_Lab/oc/oc_mqtt/oc_mqtt_al/oc_mqtt_at.c ****     oc_mqtt_config_t config;
 115:/home/xingli/share/LiteOS_Lab/oc/oc_mqtt/oc_mqtt_al/oc_mqtt_at.c ****     (void)link_main(NULL);
 396              		.loc 1 115 11
 397 0053 BF000000 		movl	$0, %edi
 397      00
 398 0058 E8000000 		call	link_main@PLT
 398      00
 116:/home/xingli/share/LiteOS_Lab/oc/oc_mqtt/oc_mqtt_al/oc_mqtt_at.c ****     (void)memset(&config, 0, sizeof(config));
 399              		.loc 1 116 11
 400 005d 488D8570 		leaq	-144(%rbp), %rax
 400      FFFFFF
 401 0064 BA880000 		movl	$136, %edx
 401      00
 402 0069 BE000000 		movl	$0, %esi
 402      00
 403 006e 4889C7   		movq	%rax, %rdi
 404 0071 E8000000 		call	memset@PLT
 404      00
 117:/home/xingli/share/LiteOS_Lab/oc/oc_mqtt/oc_mqtt_al/oc_mqtt_at.c **** 
 118:/home/xingli/share/LiteOS_Lab/oc/oc_mqtt/oc_mqtt_al/oc_mqtt_at.c ****     time_now = osal_sys_time();
 405              		.loc 1 118 16
 406 0076 E8000000 		call	osal_sys_time@PLT
 406      00
 407 007b 48898568 		movq	%rax, -152(%rbp)
 407      FFFFFF
 119:/home/xingli/share/LiteOS_Lab/oc/oc_mqtt/oc_mqtt_al/oc_mqtt_at.c ****     if ((time_now - time_last) < CN_CONNECT_TIMESPACE) {
 408              		.loc 1 119 19
 409 0082 488B0500 		movq	time_last.3585(%rip), %rax
 409      000000
 410 0089 488B9568 		movq	-152(%rbp), %rdx
 410      FFFFFF
 411 0090 4829C2   		subq	%rax, %rdx
GAS LISTING /tmp/ccl3wM2z.s 			page 12


 412 0093 4889D0   		movq	%rdx, %rax
 413              		.loc 1 119 8
 414 0096 483DCF07 		cmpq	$1999, %rax
 414      0000
 415 009c 770B     		ja	.L21
 120:/home/xingli/share/LiteOS_Lab/oc/oc_mqtt/oc_mqtt_al/oc_mqtt_at.c ****         return ret;
 416              		.loc 1 120 16
 417 009e 8B8564FF 		movl	-156(%rbp), %eax
 417      FFFF
 418 00a4 E9900100 		jmp	.L29
 418      00
 419              	.L21:
 121:/home/xingli/share/LiteOS_Lab/oc/oc_mqtt/oc_mqtt_al/oc_mqtt_at.c ****     }
 122:/home/xingli/share/LiteOS_Lab/oc/oc_mqtt/oc_mqtt_al/oc_mqtt_at.c ****     time_last = time_now;
 420              		.loc 1 122 15
 421 00a9 488B8568 		movq	-152(%rbp), %rax
 421      FFFFFF
 422 00b0 48890500 		movq	%rax, time_last.3585(%rip)
 422      000000
 123:/home/xingli/share/LiteOS_Lab/oc/oc_mqtt/oc_mqtt_al/oc_mqtt_at.c **** 
 124:/home/xingli/share/LiteOS_Lab/oc/oc_mqtt/oc_mqtt_al/oc_mqtt_at.c ****     if (bsmode) {
 423              		.loc 1 124 8
 424 00b7 83BD5CFF 		cmpl	$0, -164(%rbp)
 424      FFFF00
 425 00be 740C     		je	.L23
 125:/home/xingli/share/LiteOS_Lab/oc/oc_mqtt/oc_mqtt_al/oc_mqtt_at.c ****         config.boot_mode = en_oc_mqtt_mode_bs_static_nodeid_hmacsha256_notimecheck_json;
 426              		.loc 1 125 26
 427 00c0 C78570FF 		movl	$0, -144(%rbp)
 427      FFFF0000 
 427      0000
 428 00ca EB0A     		jmp	.L24
 429              	.L23:
 126:/home/xingli/share/LiteOS_Lab/oc/oc_mqtt/oc_mqtt_al/oc_mqtt_at.c ****     } else {
 127:/home/xingli/share/LiteOS_Lab/oc/oc_mqtt/oc_mqtt_al/oc_mqtt_at.c ****         config.boot_mode = en_oc_mqtt_mode_nobs_static_nodeid_hmacsha256_notimecheck_json;
 430              		.loc 1 127 26
 431 00cc C78570FF 		movl	$1, -144(%rbp)
 431      FFFF0100 
 431      0000
 432              	.L24:
 128:/home/xingli/share/LiteOS_Lab/oc/oc_mqtt/oc_mqtt_al/oc_mqtt_at.c ****     }
 129:/home/xingli/share/LiteOS_Lab/oc/oc_mqtt/oc_mqtt_al/oc_mqtt_at.c ****     config.server_addr = (char *)ip;
 433              		.loc 1 129 24
 434 00d6 488B8550 		movq	-176(%rbp), %rax
 434      FFFFFF
 435 00dd 48898578 		movq	%rax, -136(%rbp)
 435      FFFFFF
 130:/home/xingli/share/LiteOS_Lab/oc/oc_mqtt/oc_mqtt_al/oc_mqtt_at.c ****     if (NULL == port) {
 436              		.loc 1 130 8
 437 00e4 4883BD48 		cmpq	$0, -184(%rbp)
 437      FFFFFF00 
 438 00ec 750E     		jne	.L25
 131:/home/xingli/share/LiteOS_Lab/oc/oc_mqtt/oc_mqtt_al/oc_mqtt_at.c ****         port = CN_TLS_DEFAULT_PORT;
 439              		.loc 1 131 14
 440 00ee 488D0500 		leaq	.LC4(%rip), %rax
 440      000000
 441 00f5 48898548 		movq	%rax, -184(%rbp)
 441      FFFFFF
GAS LISTING /tmp/ccl3wM2z.s 			page 13


 442              	.L25:
 132:/home/xingli/share/LiteOS_Lab/oc/oc_mqtt/oc_mqtt_al/oc_mqtt_at.c ****     }
 133:/home/xingli/share/LiteOS_Lab/oc/oc_mqtt/oc_mqtt_al/oc_mqtt_at.c ****     config.server_port = (char *)port;
 443              		.loc 1 133 24
 444 00fc 488B8548 		movq	-184(%rbp), %rax
 444      FFFFFF
 445 0103 48894580 		movq	%rax, -128(%rbp)
 134:/home/xingli/share/LiteOS_Lab/oc/oc_mqtt/oc_mqtt_al/oc_mqtt_at.c ****     config.lifetime = lifetime;
 446              		.loc 1 134 21
 447 0107 0FB78558 		movzwl	-168(%rbp), %eax
 447      FFFFFF
 448 010e 66898574 		movw	%ax, -140(%rbp)
 448      FFFFFF
 135:/home/xingli/share/LiteOS_Lab/oc/oc_mqtt/oc_mqtt_al/oc_mqtt_at.c ****     config.msg_deal = app_msg_deal;
 449              		.loc 1 135 21
 450 0115 488D0500 		leaq	app_msg_deal(%rip), %rax
 450      000000
 451 011c 488945E0 		movq	%rax, -32(%rbp)
 136:/home/xingli/share/LiteOS_Lab/oc/oc_mqtt/oc_mqtt_al/oc_mqtt_at.c ****     config.msg_deal_arg = NULL;
 452              		.loc 1 136 25
 453 0120 48C745E8 		movq	$0, -24(%rbp)
 453      00000000 
 137:/home/xingli/share/LiteOS_Lab/oc/oc_mqtt/oc_mqtt_al/oc_mqtt_at.c ****     config.id = (char *)deviceid;
 454              		.loc 1 137 15
 455 0128 488B8540 		movq	-192(%rbp), %rax
 455      FFFFFF
 456 012f 488945C8 		movq	%rax, -56(%rbp)
 138:/home/xingli/share/LiteOS_Lab/oc/oc_mqtt/oc_mqtt_al/oc_mqtt_at.c ****     config.pwd = (char *)devicepasswd;
 457              		.loc 1 138 16
 458 0133 488B8538 		movq	-200(%rbp), %rax
 458      FFFFFF
 459 013a 488945D0 		movq	%rax, -48(%rbp)
 139:/home/xingli/share/LiteOS_Lab/oc/oc_mqtt/oc_mqtt_al/oc_mqtt_at.c ****     config.log_dealer = hwoc_mqtt_log;
 460              		.loc 1 139 23
 461 013e 488D0500 		leaq	hwoc_mqtt_log(%rip), %rax
 461      000000
 462 0145 488945F0 		movq	%rax, -16(%rbp)
 140:/home/xingli/share/LiteOS_Lab/oc/oc_mqtt/oc_mqtt_al/oc_mqtt_at.c ****     config.security.type = EN_DTLS_AL_SECURITY_TYPE_CERT;
 463              		.loc 1 140 26
 464 0149 C7458802 		movl	$2, -120(%rbp)
 464      000000
 141:/home/xingli/share/LiteOS_Lab/oc/oc_mqtt/oc_mqtt_al/oc_mqtt_at.c ****     if (NULL != s_server_ca) {
 465              		.loc 1 141 14
 466 0150 488B0500 		movq	s_server_ca(%rip), %rax
 466      000000
 467              		.loc 1 141 8
 468 0157 4885C0   		testq	%rax, %rax
 469 015a 7420     		je	.L26
 142:/home/xingli/share/LiteOS_Lab/oc/oc_mqtt/oc_mqtt_al/oc_mqtt_at.c ****         config.security.u.cert.server_ca = (uint8_t *)s_server_ca;
 470              		.loc 1 142 42
 471 015c 488B0500 		movq	s_server_ca(%rip), %rax
 471      000000
 472 0163 48894590 		movq	%rax, -112(%rbp)
 143:/home/xingli/share/LiteOS_Lab/oc/oc_mqtt/oc_mqtt_al/oc_mqtt_at.c ****         config.security.u.cert.server_ca_len = strlen(s_server_ca) + 1; // /< must include the '\0'
 473              		.loc 1 143 48
 474 0167 488B0500 		movq	s_server_ca(%rip), %rax
 474      000000
GAS LISTING /tmp/ccl3wM2z.s 			page 14


 475 016e 4889C7   		movq	%rax, %rdi
 476 0171 E8000000 		call	strlen@PLT
 476      00
 477              		.loc 1 143 68
 478 0176 83C001   		addl	$1, %eax
 479              		.loc 1 143 46
 480 0179 8945B0   		movl	%eax, -80(%rbp)
 481              	.L26:
 144:/home/xingli/share/LiteOS_Lab/oc/oc_mqtt/oc_mqtt_al/oc_mqtt_at.c ****     }
 145:/home/xingli/share/LiteOS_Lab/oc/oc_mqtt/oc_mqtt_al/oc_mqtt_at.c **** 
 146:/home/xingli/share/LiteOS_Lab/oc/oc_mqtt/oc_mqtt_al/oc_mqtt_at.c ****     if ((NULL != s_client_ca) && ((NULL != s_client_pk))) {
 482              		.loc 1 146 15
 483 017c 488B0500 		movq	s_client_ca(%rip), %rax
 483      000000
 484              		.loc 1 146 8
 485 0183 4885C0   		testq	%rax, %rax
 486 0186 7475     		je	.L27
 487              		.loc 1 146 41 discriminator 1
 488 0188 488B0500 		movq	s_client_pk(%rip), %rax
 488      000000
 489              		.loc 1 146 31 discriminator 1
 490 018f 4885C0   		testq	%rax, %rax
 491 0192 7469     		je	.L27
 147:/home/xingli/share/LiteOS_Lab/oc/oc_mqtt/oc_mqtt_al/oc_mqtt_at.c ****         config.security.u.cert.client_ca = (uint8_t *)s_client_ca;
 492              		.loc 1 147 42
 493 0194 488B0500 		movq	s_client_ca(%rip), %rax
 493      000000
 494 019b 48894598 		movq	%rax, -104(%rbp)
 148:/home/xingli/share/LiteOS_Lab/oc/oc_mqtt/oc_mqtt_al/oc_mqtt_at.c ****         config.security.u.cert.client_ca_len = strlen(s_client_ca) + 1; // /< must include the '\0'
 495              		.loc 1 148 48
 496 019f 488B0500 		movq	s_client_ca(%rip), %rax
 496      000000
 497 01a6 4889C7   		movq	%rax, %rdi
 498 01a9 E8000000 		call	strlen@PLT
 498      00
 499              		.loc 1 148 68
 500 01ae 83C001   		addl	$1, %eax
 501              		.loc 1 148 46
 502 01b1 8945B4   		movl	%eax, -76(%rbp)
 149:/home/xingli/share/LiteOS_Lab/oc/oc_mqtt/oc_mqtt_al/oc_mqtt_at.c **** 
 150:/home/xingli/share/LiteOS_Lab/oc/oc_mqtt/oc_mqtt_al/oc_mqtt_at.c ****         config.security.u.cert.client_pk = (uint8_t *)s_client_pk;
 503              		.loc 1 150 42
 504 01b4 488B0500 		movq	s_client_pk(%rip), %rax
 504      000000
 505 01bb 488945A0 		movq	%rax, -96(%rbp)
 151:/home/xingli/share/LiteOS_Lab/oc/oc_mqtt/oc_mqtt_al/oc_mqtt_at.c ****         config.security.u.cert.client_pk_len = strlen(s_client_pk) + 1;
 506              		.loc 1 151 48
 507 01bf 488B0500 		movq	s_client_pk(%rip), %rax
 507      000000
 508 01c6 4889C7   		movq	%rax, %rdi
 509 01c9 E8000000 		call	strlen@PLT
 509      00
 510              		.loc 1 151 68
 511 01ce 83C001   		addl	$1, %eax
 512              		.loc 1 151 46
 513 01d1 8945B8   		movl	%eax, -72(%rbp)
 152:/home/xingli/share/LiteOS_Lab/oc/oc_mqtt/oc_mqtt_al/oc_mqtt_at.c **** 
GAS LISTING /tmp/ccl3wM2z.s 			page 15


 153:/home/xingli/share/LiteOS_Lab/oc/oc_mqtt/oc_mqtt_al/oc_mqtt_at.c ****         config.security.u.cert.client_pk_pwd = (uint8_t *)s_client_pk_pwd;
 514              		.loc 1 153 46
 515 01d4 488B0500 		movq	s_client_pk_pwd(%rip), %rax
 515      000000
 516 01db 488945A8 		movq	%rax, -88(%rbp)
 154:/home/xingli/share/LiteOS_Lab/oc/oc_mqtt/oc_mqtt_al/oc_mqtt_at.c ****         if (NULL != s_client_pk_pwd) {
 517              		.loc 1 154 18
 518 01df 488B0500 		movq	s_client_pk_pwd(%rip), %rax
 518      000000
 519              		.loc 1 154 12
 520 01e6 4885C0   		testq	%rax, %rax
 521 01e9 7412     		je	.L27
 155:/home/xingli/share/LiteOS_Lab/oc/oc_mqtt/oc_mqtt_al/oc_mqtt_at.c ****             config.security.u.cert.client_pk_pwd_len = strlen(s_client_pk_pwd);
 522              		.loc 1 155 56
 523 01eb 488B0500 		movq	s_client_pk_pwd(%rip), %rax
 523      000000
 524 01f2 4889C7   		movq	%rax, %rdi
 525 01f5 E8000000 		call	strlen@PLT
 525      00
 526              		.loc 1 155 54
 527 01fa 8945BC   		movl	%eax, -68(%rbp)
 528              	.L27:
 156:/home/xingli/share/LiteOS_Lab/oc/oc_mqtt/oc_mqtt_al/oc_mqtt_at.c ****         }
 157:/home/xingli/share/LiteOS_Lab/oc/oc_mqtt/oc_mqtt_al/oc_mqtt_at.c ****     }
 158:/home/xingli/share/LiteOS_Lab/oc/oc_mqtt/oc_mqtt_al/oc_mqtt_at.c **** 
 159:/home/xingli/share/LiteOS_Lab/oc/oc_mqtt/oc_mqtt_al/oc_mqtt_at.c ****     if (0 == strcmp(port, CN_NOTLS_PORT)) {
 529              		.loc 1 159 14
 530 01fd 488B8548 		movq	-184(%rbp), %rax
 530      FFFFFF
 531 0204 488D3500 		leaq	.LC5(%rip), %rsi
 531      000000
 532 020b 4889C7   		movq	%rax, %rdi
 533 020e E8000000 		call	strcmp@PLT
 533      00
 534              		.loc 1 159 8
 535 0213 85C0     		testl	%eax, %eax
 536 0215 7507     		jne	.L28
 160:/home/xingli/share/LiteOS_Lab/oc/oc_mqtt/oc_mqtt_al/oc_mqtt_at.c ****         config.security.type = EN_DTLS_AL_SECURITY_TYPE_NONE;
 537              		.loc 1 160 30
 538 0217 C7458800 		movl	$0, -120(%rbp)
 538      000000
 539              	.L28:
 161:/home/xingli/share/LiteOS_Lab/oc/oc_mqtt/oc_mqtt_al/oc_mqtt_at.c ****     }
 162:/home/xingli/share/LiteOS_Lab/oc/oc_mqtt/oc_mqtt_al/oc_mqtt_at.c **** 
 163:/home/xingli/share/LiteOS_Lab/oc/oc_mqtt/oc_mqtt_al/oc_mqtt_at.c ****     ret = oc_mqtt_config(&config);
 540              		.loc 1 163 11
 541 021e 488D8570 		leaq	-144(%rbp), %rax
 541      FFFFFF
 542 0225 4889C7   		movq	%rax, %rdi
 543 0228 E8000000 		call	oc_mqtt_config@PLT
 543      00
 544 022d 898564FF 		movl	%eax, -156(%rbp)
 544      FFFF
 164:/home/xingli/share/LiteOS_Lab/oc/oc_mqtt/oc_mqtt_al/oc_mqtt_at.c **** 
 165:/home/xingli/share/LiteOS_Lab/oc/oc_mqtt/oc_mqtt_al/oc_mqtt_at.c ****     return ret;
 545              		.loc 1 165 12
 546 0233 8B8564FF 		movl	-156(%rbp), %eax
GAS LISTING /tmp/ccl3wM2z.s 			page 16


 546      FFFF
 547              	.L29:
 166:/home/xingli/share/LiteOS_Lab/oc/oc_mqtt/oc_mqtt_al/oc_mqtt_at.c **** }
 548              		.loc 1 166 1 discriminator 1
 549 0239 488B4DF8 		movq	-8(%rbp), %rcx
 550 023d 6448330C 		xorq	%fs:40, %rcx
 550      25280000 
 550      00
 551 0246 7405     		je	.L30
 552              		.loc 1 166 1 is_stmt 0
 553 0248 E8000000 		call	__stack_chk_fail@PLT
 553      00
 554              	.L30:
 555 024d C9       		leave
 556              	.LCFI14:
 557              		.cfi_def_cfa 7, 8
 558 024e C3       		ret
 559              		.cfi_endproc
 560              	.LFE10:
 562              		.section	.text.hwoc_mqtt_disconnect,"ax",@progbits
 563              		.globl	hwoc_mqtt_disconnect
 565              	hwoc_mqtt_disconnect:
 566              	.LFB11:
 167:/home/xingli/share/LiteOS_Lab/oc/oc_mqtt/oc_mqtt_al/oc_mqtt_at.c **** 
 168:/home/xingli/share/LiteOS_Lab/oc/oc_mqtt/oc_mqtt_al/oc_mqtt_at.c **** // /< WHEN YOU WANT TO DISCONNECT FROM THE HW,THEN YOU CALL THIS FUNCTION
 169:/home/xingli/share/LiteOS_Lab/oc/oc_mqtt/oc_mqtt_al/oc_mqtt_at.c **** // /< ATCOMMAND:    AT+HWOCMQTTDISCONNECT
 170:/home/xingli/share/LiteOS_Lab/oc/oc_mqtt/oc_mqtt_al/oc_mqtt_at.c **** // /< ATRESPONSE:   +DISCONNECT OK  when succes
 171:/home/xingli/share/LiteOS_Lab/oc/oc_mqtt/oc_mqtt_al/oc_mqtt_at.c **** // /                +DISCONNECT ERR:code  when succes
 172:/home/xingli/share/LiteOS_Lab/oc/oc_mqtt/oc_mqtt_al/oc_mqtt_at.c **** // /<               code:reference to en_oc_mqtt_err_code_t defines
 173:/home/xingli/share/LiteOS_Lab/oc/oc_mqtt/oc_mqtt_al/oc_mqtt_at.c **** 
 174:/home/xingli/share/LiteOS_Lab/oc/oc_mqtt/oc_mqtt_al/oc_mqtt_at.c **** int hwoc_mqtt_disconnect(void)
 175:/home/xingli/share/LiteOS_Lab/oc/oc_mqtt/oc_mqtt_al/oc_mqtt_at.c **** {
 567              		.loc 1 175 1 is_stmt 1
 568              		.cfi_startproc
 569 0000 F30F1EFA 		endbr64
 570 0004 55       		pushq	%rbp
 571              	.LCFI15:
 572              		.cfi_def_cfa_offset 16
 573              		.cfi_offset 6, -16
 574 0005 4889E5   		movq	%rsp, %rbp
 575              	.LCFI16:
 576              		.cfi_def_cfa_register 6
 577 0008 4883EC10 		subq	$16, %rsp
 578              		.loc 1 175 1
 579 000c 64488B04 		movq	%fs:40, %rax
 579      25280000 
 579      00
 580 0015 488945F8 		movq	%rax, -8(%rbp)
 581 0019 31C0     		xorl	%eax, %eax
 176:/home/xingli/share/LiteOS_Lab/oc/oc_mqtt/oc_mqtt_al/oc_mqtt_at.c ****     int ret = -1;
 582              		.loc 1 176 9
 583 001b C745F4FF 		movl	$-1, -12(%rbp)
 583      FFFFFF
 177:/home/xingli/share/LiteOS_Lab/oc/oc_mqtt/oc_mqtt_al/oc_mqtt_at.c **** 
 178:/home/xingli/share/LiteOS_Lab/oc/oc_mqtt/oc_mqtt_al/oc_mqtt_at.c ****     (void)link_main(NULL);
 584              		.loc 1 178 11
 585 0022 BF000000 		movl	$0, %edi
GAS LISTING /tmp/ccl3wM2z.s 			page 17


 585      00
 586 0027 E8000000 		call	link_main@PLT
 586      00
 179:/home/xingli/share/LiteOS_Lab/oc/oc_mqtt/oc_mqtt_al/oc_mqtt_at.c ****     ret = oc_mqtt_deconfig();
 587              		.loc 1 179 11
 588 002c E8000000 		call	oc_mqtt_deconfig@PLT
 588      00
 589 0031 8945F4   		movl	%eax, -12(%rbp)
 180:/home/xingli/share/LiteOS_Lab/oc/oc_mqtt/oc_mqtt_al/oc_mqtt_at.c **** 
 181:/home/xingli/share/LiteOS_Lab/oc/oc_mqtt/oc_mqtt_al/oc_mqtt_at.c ****     return ret;
 590              		.loc 1 181 12
 591 0034 8B45F4   		movl	-12(%rbp), %eax
 182:/home/xingli/share/LiteOS_Lab/oc/oc_mqtt/oc_mqtt_al/oc_mqtt_at.c **** }
 592              		.loc 1 182 1
 593 0037 488B55F8 		movq	-8(%rbp), %rdx
 594 003b 64483314 		xorq	%fs:40, %rdx
 594      25280000 
 594      00
 595 0044 7405     		je	.L33
 596 0046 E8000000 		call	__stack_chk_fail@PLT
 596      00
 597              	.L33:
 598 004b C9       		leave
 599              	.LCFI17:
 600              		.cfi_def_cfa 7, 8
 601 004c C3       		ret
 602              		.cfi_endproc
 603              	.LFE11:
 605              		.section	.text.hwoc_mqtt_subscribe,"ax",@progbits
 606              		.globl	hwoc_mqtt_subscribe
 608              	hwoc_mqtt_subscribe:
 609              	.LFB12:
 183:/home/xingli/share/LiteOS_Lab/oc/oc_mqtt/oc_mqtt_al/oc_mqtt_at.c **** 
 184:/home/xingli/share/LiteOS_Lab/oc/oc_mqtt/oc_mqtt_al/oc_mqtt_at.c **** // /< WHEN YOU WANT TO SUBSCRIBE A SELFTOPIC
 185:/home/xingli/share/LiteOS_Lab/oc/oc_mqtt/oc_mqtt_al/oc_mqtt_at.c **** // /< ATCOMMAND:    AT+HWOCMQTTSUBSCRIBE=qos,topic
 186:/home/xingli/share/LiteOS_Lab/oc/oc_mqtt/oc_mqtt_al/oc_mqtt_at.c **** // /<               AT+HWOCMQTTSUBSCRIBE=0,"$oc/devices/54f107da-f251-436c-af4c-624f33b7d7b6/user/d
 187:/home/xingli/share/LiteOS_Lab/oc/oc_mqtt/oc_mqtt_al/oc_mqtt_at.c **** // /< ATRESPONSE:   +SUBSCRIBE OK  when succes
 188:/home/xingli/share/LiteOS_Lab/oc/oc_mqtt/oc_mqtt_al/oc_mqtt_at.c **** // /                +SUBSCRIBE ERR:code  when failed
 189:/home/xingli/share/LiteOS_Lab/oc/oc_mqtt/oc_mqtt_al/oc_mqtt_at.c **** // /<               code:reference to en_oc_mqtt_err_code_t defines
 190:/home/xingli/share/LiteOS_Lab/oc/oc_mqtt/oc_mqtt_al/oc_mqtt_at.c **** int hwoc_mqtt_subscribe(int qos, char *topic)
 191:/home/xingli/share/LiteOS_Lab/oc/oc_mqtt/oc_mqtt_al/oc_mqtt_at.c **** {
 610              		.loc 1 191 1
 611              		.cfi_startproc
 612 0000 F30F1EFA 		endbr64
 613 0004 55       		pushq	%rbp
 614              	.LCFI18:
 615              		.cfi_def_cfa_offset 16
 616              		.cfi_offset 6, -16
 617 0005 4889E5   		movq	%rsp, %rbp
 618              	.LCFI19:
 619              		.cfi_def_cfa_register 6
 620 0008 4883EC20 		subq	$32, %rsp
 621 000c 897DEC   		movl	%edi, -20(%rbp)
 622 000f 488975E0 		movq	%rsi, -32(%rbp)
 623              		.loc 1 191 1
 624 0013 64488B04 		movq	%fs:40, %rax
 624      25280000 
GAS LISTING /tmp/ccl3wM2z.s 			page 18


 624      00
 625 001c 488945F8 		movq	%rax, -8(%rbp)
 626 0020 31C0     		xorl	%eax, %eax
 192:/home/xingli/share/LiteOS_Lab/oc/oc_mqtt/oc_mqtt_al/oc_mqtt_at.c ****     int ret = -1;
 627              		.loc 1 192 9
 628 0022 C745F4FF 		movl	$-1, -12(%rbp)
 628      FFFFFF
 193:/home/xingli/share/LiteOS_Lab/oc/oc_mqtt/oc_mqtt_al/oc_mqtt_at.c **** 
 194:/home/xingli/share/LiteOS_Lab/oc/oc_mqtt/oc_mqtt_al/oc_mqtt_at.c ****     (void)link_main(NULL);
 629              		.loc 1 194 11
 630 0029 BF000000 		movl	$0, %edi
 630      00
 631 002e E8000000 		call	link_main@PLT
 631      00
 195:/home/xingli/share/LiteOS_Lab/oc/oc_mqtt/oc_mqtt_al/oc_mqtt_at.c ****     ret = oc_mqtt_subscribe(topic, qos);
 632              		.loc 1 195 11
 633 0033 8B55EC   		movl	-20(%rbp), %edx
 634 0036 488B45E0 		movq	-32(%rbp), %rax
 635 003a 89D6     		movl	%edx, %esi
 636 003c 4889C7   		movq	%rax, %rdi
 637 003f E8000000 		call	oc_mqtt_subscribe@PLT
 637      00
 638 0044 8945F4   		movl	%eax, -12(%rbp)
 196:/home/xingli/share/LiteOS_Lab/oc/oc_mqtt/oc_mqtt_al/oc_mqtt_at.c **** 
 197:/home/xingli/share/LiteOS_Lab/oc/oc_mqtt/oc_mqtt_al/oc_mqtt_at.c ****     return ret;
 639              		.loc 1 197 12
 640 0047 8B45F4   		movl	-12(%rbp), %eax
 198:/home/xingli/share/LiteOS_Lab/oc/oc_mqtt/oc_mqtt_al/oc_mqtt_at.c **** }
 641              		.loc 1 198 1
 642 004a 488B4DF8 		movq	-8(%rbp), %rcx
 643 004e 6448330C 		xorq	%fs:40, %rcx
 643      25280000 
 643      00
 644 0057 7405     		je	.L36
 645 0059 E8000000 		call	__stack_chk_fail@PLT
 645      00
 646              	.L36:
 647 005e C9       		leave
 648              	.LCFI20:
 649              		.cfi_def_cfa 7, 8
 650 005f C3       		ret
 651              		.cfi_endproc
 652              	.LFE12:
 654              		.section	.text.hwoc_mqtt_unsubscribe,"ax",@progbits
 655              		.globl	hwoc_mqtt_unsubscribe
 657              	hwoc_mqtt_unsubscribe:
 658              	.LFB13:
 199:/home/xingli/share/LiteOS_Lab/oc/oc_mqtt/oc_mqtt_al/oc_mqtt_at.c **** 
 200:/home/xingli/share/LiteOS_Lab/oc/oc_mqtt/oc_mqtt_al/oc_mqtt_at.c **** // /< WHEN YOU WANT TO UNSUBSCRIBE A SELFTOPIC
 201:/home/xingli/share/LiteOS_Lab/oc/oc_mqtt/oc_mqtt_al/oc_mqtt_at.c **** // /< ATCOMMAND:    AT+HWOCMQTTUNSUBSCRIBE=topic
 202:/home/xingli/share/LiteOS_Lab/oc/oc_mqtt/oc_mqtt_al/oc_mqtt_at.c **** // /<               AT+HWOCMQTTUNSUBSCRIBE="$oc/devices/54f107da-f251-436c-af4c-624f33b7d7b6/user/d
 203:/home/xingli/share/LiteOS_Lab/oc/oc_mqtt/oc_mqtt_al/oc_mqtt_at.c **** // /< ATRESPONSE:   +UNSUBSCRIBE OK  when succes
 204:/home/xingli/share/LiteOS_Lab/oc/oc_mqtt/oc_mqtt_al/oc_mqtt_at.c **** // /                +UNSUBSCRIBE ERR:code  when failed
 205:/home/xingli/share/LiteOS_Lab/oc/oc_mqtt/oc_mqtt_al/oc_mqtt_at.c **** // /<               code:reference to en_oc_mqtt_err_code_t defines
 206:/home/xingli/share/LiteOS_Lab/oc/oc_mqtt/oc_mqtt_al/oc_mqtt_at.c **** int hwoc_mqtt_unsubscribe(char *topic)
 207:/home/xingli/share/LiteOS_Lab/oc/oc_mqtt/oc_mqtt_al/oc_mqtt_at.c **** {
 659              		.loc 1 207 1
GAS LISTING /tmp/ccl3wM2z.s 			page 19


 660              		.cfi_startproc
 661 0000 F30F1EFA 		endbr64
 662 0004 55       		pushq	%rbp
 663              	.LCFI21:
 664              		.cfi_def_cfa_offset 16
 665              		.cfi_offset 6, -16
 666 0005 4889E5   		movq	%rsp, %rbp
 667              	.LCFI22:
 668              		.cfi_def_cfa_register 6
 669 0008 4883EC20 		subq	$32, %rsp
 670 000c 48897DE8 		movq	%rdi, -24(%rbp)
 671              		.loc 1 207 1
 672 0010 64488B04 		movq	%fs:40, %rax
 672      25280000 
 672      00
 673 0019 488945F8 		movq	%rax, -8(%rbp)
 674 001d 31C0     		xorl	%eax, %eax
 208:/home/xingli/share/LiteOS_Lab/oc/oc_mqtt/oc_mqtt_al/oc_mqtt_at.c ****     int ret = -1;
 675              		.loc 1 208 9
 676 001f C745F4FF 		movl	$-1, -12(%rbp)
 676      FFFFFF
 209:/home/xingli/share/LiteOS_Lab/oc/oc_mqtt/oc_mqtt_al/oc_mqtt_at.c **** 
 210:/home/xingli/share/LiteOS_Lab/oc/oc_mqtt/oc_mqtt_al/oc_mqtt_at.c ****     (void)link_main(NULL);
 677              		.loc 1 210 11
 678 0026 BF000000 		movl	$0, %edi
 678      00
 679 002b E8000000 		call	link_main@PLT
 679      00
 211:/home/xingli/share/LiteOS_Lab/oc/oc_mqtt/oc_mqtt_al/oc_mqtt_at.c ****     ret = oc_mqtt_unsubscribe(topic);
 680              		.loc 1 211 11
 681 0030 488B45E8 		movq	-24(%rbp), %rax
 682 0034 4889C7   		movq	%rax, %rdi
 683 0037 E8000000 		call	oc_mqtt_unsubscribe@PLT
 683      00
 684 003c 8945F4   		movl	%eax, -12(%rbp)
 212:/home/xingli/share/LiteOS_Lab/oc/oc_mqtt/oc_mqtt_al/oc_mqtt_at.c **** 
 213:/home/xingli/share/LiteOS_Lab/oc/oc_mqtt/oc_mqtt_al/oc_mqtt_at.c ****     return ret;
 685              		.loc 1 213 12
 686 003f 8B45F4   		movl	-12(%rbp), %eax
 214:/home/xingli/share/LiteOS_Lab/oc/oc_mqtt/oc_mqtt_al/oc_mqtt_at.c **** }
 687              		.loc 1 214 1
 688 0042 488B55F8 		movq	-8(%rbp), %rdx
 689 0046 64483314 		xorq	%fs:40, %rdx
 689      25280000 
 689      00
 690 004f 7405     		je	.L39
 691 0051 E8000000 		call	__stack_chk_fail@PLT
 691      00
 692              	.L39:
 693 0056 C9       		leave
 694              	.LCFI23:
 695              		.cfi_def_cfa 7, 8
 696 0057 C3       		ret
 697              		.cfi_endproc
 698              	.LFE13:
 700              		.section	.text.hwoc_mqtt_version,"ax",@progbits
 701              		.globl	hwoc_mqtt_version
GAS LISTING /tmp/ccl3wM2z.s 			page 20


 703              	hwoc_mqtt_version:
 704              	.LFB14:
 215:/home/xingli/share/LiteOS_Lab/oc/oc_mqtt/oc_mqtt_al/oc_mqtt_at.c **** 
 216:/home/xingli/share/LiteOS_Lab/oc/oc_mqtt/oc_mqtt_al/oc_mqtt_at.c **** // /< WHEN YOU WANT TO KNOW WHICH VERSION YOU USE
 217:/home/xingli/share/LiteOS_Lab/oc/oc_mqtt/oc_mqtt_al/oc_mqtt_at.c **** // /< ATCOMMAND: AT+HWOCMQTTVERSION
 218:/home/xingli/share/LiteOS_Lab/oc/oc_mqtt/oc_mqtt_al/oc_mqtt_at.c **** // /< ATRESPONSE: +HWOCMQTTVERSION:vx.x.x AT XXXXXX ON XXXXX
 219:/home/xingli/share/LiteOS_Lab/oc/oc_mqtt/oc_mqtt_al/oc_mqtt_at.c **** char *hwoc_mqtt_version(void)
 220:/home/xingli/share/LiteOS_Lab/oc/oc_mqtt/oc_mqtt_al/oc_mqtt_at.c **** {
 705              		.loc 1 220 1
 706              		.cfi_startproc
 707 0000 F30F1EFA 		endbr64
 708 0004 55       		pushq	%rbp
 709              	.LCFI24:
 710              		.cfi_def_cfa_offset 16
 711              		.cfi_offset 6, -16
 712 0005 4889E5   		movq	%rsp, %rbp
 713              	.LCFI25:
 714              		.cfi_def_cfa_register 6
 715 0008 4883EC10 		subq	$16, %rsp
 716              		.loc 1 220 1
 717 000c 64488B04 		movq	%fs:40, %rax
 717      25280000 
 717      00
 718 0015 488945F8 		movq	%rax, -8(%rbp)
 719 0019 31C0     		xorl	%eax, %eax
 221:/home/xingli/share/LiteOS_Lab/oc/oc_mqtt/oc_mqtt_al/oc_mqtt_at.c ****     extern char *linkmain_version();
 222:/home/xingli/share/LiteOS_Lab/oc/oc_mqtt/oc_mqtt_al/oc_mqtt_at.c **** 
 223:/home/xingli/share/LiteOS_Lab/oc/oc_mqtt/oc_mqtt_al/oc_mqtt_at.c ****     return linkmain_version();
 720              		.loc 1 223 12
 721 001b B8000000 		movl	$0, %eax
 721      00
 722 0020 E8000000 		call	linkmain_version@PLT
 722      00
 224:/home/xingli/share/LiteOS_Lab/oc/oc_mqtt/oc_mqtt_al/oc_mqtt_at.c **** }
 723              		.loc 1 224 1
 724 0025 488B55F8 		movq	-8(%rbp), %rdx
 725 0029 64483314 		xorq	%fs:40, %rdx
 725      25280000 
 725      00
 726 0032 7405     		je	.L42
 727 0034 E8000000 		call	__stack_chk_fail@PLT
 727      00
 728              	.L42:
 729 0039 C9       		leave
 730              	.LCFI26:
 731              		.cfi_def_cfa 7, 8
 732 003a C3       		ret
 733              		.cfi_endproc
 734              	.LFE14:
 736              		.section	.text.hwoc_mqtt_serverca,"ax",@progbits
 737              		.globl	hwoc_mqtt_serverca
 739              	hwoc_mqtt_serverca:
 740              	.LFB15:
 225:/home/xingli/share/LiteOS_Lab/oc/oc_mqtt/oc_mqtt_al/oc_mqtt_at.c **** 
 226:/home/xingli/share/LiteOS_Lab/oc/oc_mqtt/oc_mqtt_al/oc_mqtt_at.c **** // /< IF YOU WANT TO SET THE SERVER CA
 227:/home/xingli/share/LiteOS_Lab/oc/oc_mqtt/oc_mqtt_al/oc_mqtt_at.c **** // /< ATCOMMAND: AT+HWOCMQTTSERVERCA = "nnnds=="  and  "" means clear it
 228:/home/xingli/share/LiteOS_Lab/oc/oc_mqtt/oc_mqtt_al/oc_mqtt_at.c **** // /< ATRESPONSE: +HWOCMQTTSERVERCA OK
GAS LISTING /tmp/ccl3wM2z.s 			page 21


 229:/home/xingli/share/LiteOS_Lab/oc/oc_mqtt/oc_mqtt_al/oc_mqtt_at.c **** // /<             +HWOCMQTTSERVERCA ERR:CODE
 230:/home/xingli/share/LiteOS_Lab/oc/oc_mqtt/oc_mqtt_al/oc_mqtt_at.c **** int hwoc_mqtt_serverca(const char *server_ca)
 231:/home/xingli/share/LiteOS_Lab/oc/oc_mqtt/oc_mqtt_al/oc_mqtt_at.c **** {
 741              		.loc 1 231 1
 742              		.cfi_startproc
 743 0000 F30F1EFA 		endbr64
 744 0004 55       		pushq	%rbp
 745              	.LCFI27:
 746              		.cfi_def_cfa_offset 16
 747              		.cfi_offset 6, -16
 748 0005 4889E5   		movq	%rsp, %rbp
 749              	.LCFI28:
 750              		.cfi_def_cfa_register 6
 751 0008 4883EC20 		subq	$32, %rsp
 752 000c 48897DE8 		movq	%rdi, -24(%rbp)
 753              		.loc 1 231 1
 754 0010 64488B04 		movq	%fs:40, %rax
 754      25280000 
 754      00
 755 0019 488945F8 		movq	%rax, -8(%rbp)
 756 001d 31C0     		xorl	%eax, %eax
 232:/home/xingli/share/LiteOS_Lab/oc/oc_mqtt/oc_mqtt_al/oc_mqtt_at.c ****     int ret = (int)en_oc_mqtt_err_ok;
 757              		.loc 1 232 9
 758 001f C745F400 		movl	$0, -12(%rbp)
 758      000000
 233:/home/xingli/share/LiteOS_Lab/oc/oc_mqtt/oc_mqtt_al/oc_mqtt_at.c ****     (void)link_main(NULL);
 759              		.loc 1 233 11
 760 0026 BF000000 		movl	$0, %edi
 760      00
 761 002b E8000000 		call	link_main@PLT
 761      00
 234:/home/xingli/share/LiteOS_Lab/oc/oc_mqtt/oc_mqtt_al/oc_mqtt_at.c **** 
 235:/home/xingli/share/LiteOS_Lab/oc/oc_mqtt/oc_mqtt_al/oc_mqtt_at.c ****     if (NULL != s_server_ca) {
 762              		.loc 1 235 14
 763 0030 488B0500 		movq	s_server_ca(%rip), %rax
 763      000000
 764              		.loc 1 235 8
 765 0037 4885C0   		testq	%rax, %rax
 766 003a 741A     		je	.L44
 236:/home/xingli/share/LiteOS_Lab/oc/oc_mqtt/oc_mqtt_al/oc_mqtt_at.c ****         osal_free(s_server_ca);
 767              		.loc 1 236 9
 768 003c 488B0500 		movq	s_server_ca(%rip), %rax
 768      000000
 769 0043 4889C7   		movq	%rax, %rdi
 770 0046 E8000000 		call	osal_free@PLT
 770      00
 237:/home/xingli/share/LiteOS_Lab/oc/oc_mqtt/oc_mqtt_al/oc_mqtt_at.c ****         s_server_ca = NULL;
 771              		.loc 1 237 21
 772 004b 48C70500 		movq	$0, s_server_ca(%rip)
 772      00000000 
 772      000000
 773              	.L44:
 238:/home/xingli/share/LiteOS_Lab/oc/oc_mqtt/oc_mqtt_al/oc_mqtt_at.c ****     }
 239:/home/xingli/share/LiteOS_Lab/oc/oc_mqtt/oc_mqtt_al/oc_mqtt_at.c **** 
 240:/home/xingli/share/LiteOS_Lab/oc/oc_mqtt/oc_mqtt_al/oc_mqtt_at.c ****     if (NULL != server_ca) {
 774              		.loc 1 240 8
 775 0056 48837DE8 		cmpq	$0, -24(%rbp)
GAS LISTING /tmp/ccl3wM2z.s 			page 22


 775      00
 776 005b 7426     		je	.L45
 241:/home/xingli/share/LiteOS_Lab/oc/oc_mqtt/oc_mqtt_al/oc_mqtt_at.c ****         s_server_ca = osal_strdup(server_ca);
 777              		.loc 1 241 23
 778 005d 488B45E8 		movq	-24(%rbp), %rax
 779 0061 4889C7   		movq	%rax, %rdi
 780 0064 E8000000 		call	osal_strdup@PLT
 780      00
 781              		.loc 1 241 21
 782 0069 48890500 		movq	%rax, s_server_ca(%rip)
 782      000000
 242:/home/xingli/share/LiteOS_Lab/oc/oc_mqtt/oc_mqtt_al/oc_mqtt_at.c ****         if (NULL == s_server_ca) {
 783              		.loc 1 242 18
 784 0070 488B0500 		movq	s_server_ca(%rip), %rax
 784      000000
 785              		.loc 1 242 12
 786 0077 4885C0   		testq	%rax, %rax
 787 007a 7507     		jne	.L45
 243:/home/xingli/share/LiteOS_Lab/oc/oc_mqtt/oc_mqtt_al/oc_mqtt_at.c ****             ret = (int)en_oc_mqtt_err_sysmem;
 788              		.loc 1 243 17
 789 007c C745F40F 		movl	$15, -12(%rbp)
 789      000000
 790              	.L45:
 244:/home/xingli/share/LiteOS_Lab/oc/oc_mqtt/oc_mqtt_al/oc_mqtt_at.c ****         }
 245:/home/xingli/share/LiteOS_Lab/oc/oc_mqtt/oc_mqtt_al/oc_mqtt_at.c ****     }
 246:/home/xingli/share/LiteOS_Lab/oc/oc_mqtt/oc_mqtt_al/oc_mqtt_at.c ****     return ret;
 791              		.loc 1 246 12
 792 0083 8B45F4   		movl	-12(%rbp), %eax
 247:/home/xingli/share/LiteOS_Lab/oc/oc_mqtt/oc_mqtt_al/oc_mqtt_at.c **** }
 793              		.loc 1 247 1
 794 0086 488B55F8 		movq	-8(%rbp), %rdx
 795 008a 64483314 		xorq	%fs:40, %rdx
 795      25280000 
 795      00
 796 0093 7405     		je	.L47
 797 0095 E8000000 		call	__stack_chk_fail@PLT
 797      00
 798              	.L47:
 799 009a C9       		leave
 800              	.LCFI29:
 801              		.cfi_def_cfa 7, 8
 802 009b C3       		ret
 803              		.cfi_endproc
 804              	.LFE15:
 806              		.section	.text.hwoc_mqtt_clientca,"ax",@progbits
 807              		.globl	hwoc_mqtt_clientca
 809              	hwoc_mqtt_clientca:
 810              	.LFB16:
 248:/home/xingli/share/LiteOS_Lab/oc/oc_mqtt/oc_mqtt_al/oc_mqtt_at.c **** 
 249:/home/xingli/share/LiteOS_Lab/oc/oc_mqtt/oc_mqtt_al/oc_mqtt_at.c **** // /< IF YOU WANT TO SET THE CLIENT CA
 250:/home/xingli/share/LiteOS_Lab/oc/oc_mqtt/oc_mqtt_al/oc_mqtt_at.c **** // /< ATCOMMAND: AT+HWOCMQTTCLIENTCA = "nnnds=="  and  "" means clear it
 251:/home/xingli/share/LiteOS_Lab/oc/oc_mqtt/oc_mqtt_al/oc_mqtt_at.c **** // /< ATRESPONSE:  +HWOCMQTTCLIENTCA OK
 252:/home/xingli/share/LiteOS_Lab/oc/oc_mqtt/oc_mqtt_al/oc_mqtt_at.c **** // /<              +HWOCMQTTCLIENTCA ERR:CODE
 253:/home/xingli/share/LiteOS_Lab/oc/oc_mqtt/oc_mqtt_al/oc_mqtt_at.c **** 
 254:/home/xingli/share/LiteOS_Lab/oc/oc_mqtt/oc_mqtt_al/oc_mqtt_at.c **** int hwoc_mqtt_clientca(const char *client_ca)
 255:/home/xingli/share/LiteOS_Lab/oc/oc_mqtt/oc_mqtt_al/oc_mqtt_at.c **** {
 811              		.loc 1 255 1
GAS LISTING /tmp/ccl3wM2z.s 			page 23


 812              		.cfi_startproc
 813 0000 F30F1EFA 		endbr64
 814 0004 55       		pushq	%rbp
 815              	.LCFI30:
 816              		.cfi_def_cfa_offset 16
 817              		.cfi_offset 6, -16
 818 0005 4889E5   		movq	%rsp, %rbp
 819              	.LCFI31:
 820              		.cfi_def_cfa_register 6
 821 0008 4883EC20 		subq	$32, %rsp
 822 000c 48897DE8 		movq	%rdi, -24(%rbp)
 823              		.loc 1 255 1
 824 0010 64488B04 		movq	%fs:40, %rax
 824      25280000 
 824      00
 825 0019 488945F8 		movq	%rax, -8(%rbp)
 826 001d 31C0     		xorl	%eax, %eax
 256:/home/xingli/share/LiteOS_Lab/oc/oc_mqtt/oc_mqtt_al/oc_mqtt_at.c ****     int ret = (int)en_oc_mqtt_err_ok;
 827              		.loc 1 256 9
 828 001f C745F400 		movl	$0, -12(%rbp)
 828      000000
 257:/home/xingli/share/LiteOS_Lab/oc/oc_mqtt/oc_mqtt_al/oc_mqtt_at.c ****     (void)link_main(NULL);
 829              		.loc 1 257 11
 830 0026 BF000000 		movl	$0, %edi
 830      00
 831 002b E8000000 		call	link_main@PLT
 831      00
 258:/home/xingli/share/LiteOS_Lab/oc/oc_mqtt/oc_mqtt_al/oc_mqtt_at.c **** 
 259:/home/xingli/share/LiteOS_Lab/oc/oc_mqtt/oc_mqtt_al/oc_mqtt_at.c ****     if (NULL != s_client_ca) {
 832              		.loc 1 259 14
 833 0030 488B0500 		movq	s_client_ca(%rip), %rax
 833      000000
 834              		.loc 1 259 8
 835 0037 4885C0   		testq	%rax, %rax
 836 003a 741A     		je	.L49
 260:/home/xingli/share/LiteOS_Lab/oc/oc_mqtt/oc_mqtt_al/oc_mqtt_at.c ****         osal_free(s_client_ca);
 837              		.loc 1 260 9
 838 003c 488B0500 		movq	s_client_ca(%rip), %rax
 838      000000
 839 0043 4889C7   		movq	%rax, %rdi
 840 0046 E8000000 		call	osal_free@PLT
 840      00
 261:/home/xingli/share/LiteOS_Lab/oc/oc_mqtt/oc_mqtt_al/oc_mqtt_at.c ****         s_client_ca = NULL;
 841              		.loc 1 261 21
 842 004b 48C70500 		movq	$0, s_client_ca(%rip)
 842      00000000 
 842      000000
 843              	.L49:
 262:/home/xingli/share/LiteOS_Lab/oc/oc_mqtt/oc_mqtt_al/oc_mqtt_at.c ****     }
 263:/home/xingli/share/LiteOS_Lab/oc/oc_mqtt/oc_mqtt_al/oc_mqtt_at.c **** 
 264:/home/xingli/share/LiteOS_Lab/oc/oc_mqtt/oc_mqtt_al/oc_mqtt_at.c ****     if (NULL != client_ca) {
 844              		.loc 1 264 8
 845 0056 48837DE8 		cmpq	$0, -24(%rbp)
 845      00
 846 005b 7426     		je	.L50
 265:/home/xingli/share/LiteOS_Lab/oc/oc_mqtt/oc_mqtt_al/oc_mqtt_at.c ****         s_client_ca = osal_strdup(client_ca);
 847              		.loc 1 265 23
GAS LISTING /tmp/ccl3wM2z.s 			page 24


 848 005d 488B45E8 		movq	-24(%rbp), %rax
 849 0061 4889C7   		movq	%rax, %rdi
 850 0064 E8000000 		call	osal_strdup@PLT
 850      00
 851              		.loc 1 265 21
 852 0069 48890500 		movq	%rax, s_client_ca(%rip)
 852      000000
 266:/home/xingli/share/LiteOS_Lab/oc/oc_mqtt/oc_mqtt_al/oc_mqtt_at.c ****         if (NULL == s_client_ca) {
 853              		.loc 1 266 18
 854 0070 488B0500 		movq	s_client_ca(%rip), %rax
 854      000000
 855              		.loc 1 266 12
 856 0077 4885C0   		testq	%rax, %rax
 857 007a 7507     		jne	.L50
 267:/home/xingli/share/LiteOS_Lab/oc/oc_mqtt/oc_mqtt_al/oc_mqtt_at.c ****             ret = (int)en_oc_mqtt_err_sysmem;
 858              		.loc 1 267 17
 859 007c C745F40F 		movl	$15, -12(%rbp)
 859      000000
 860              	.L50:
 268:/home/xingli/share/LiteOS_Lab/oc/oc_mqtt/oc_mqtt_al/oc_mqtt_at.c ****         }
 269:/home/xingli/share/LiteOS_Lab/oc/oc_mqtt/oc_mqtt_al/oc_mqtt_at.c ****     }
 270:/home/xingli/share/LiteOS_Lab/oc/oc_mqtt/oc_mqtt_al/oc_mqtt_at.c **** 
 271:/home/xingli/share/LiteOS_Lab/oc/oc_mqtt/oc_mqtt_al/oc_mqtt_at.c ****     return ret;
 861              		.loc 1 271 12
 862 0083 8B45F4   		movl	-12(%rbp), %eax
 272:/home/xingli/share/LiteOS_Lab/oc/oc_mqtt/oc_mqtt_al/oc_mqtt_at.c **** }
 863              		.loc 1 272 1
 864 0086 488B55F8 		movq	-8(%rbp), %rdx
 865 008a 64483314 		xorq	%fs:40, %rdx
 865      25280000 
 865      00
 866 0093 7405     		je	.L52
 867 0095 E8000000 		call	__stack_chk_fail@PLT
 867      00
 868              	.L52:
 869 009a C9       		leave
 870              	.LCFI32:
 871              		.cfi_def_cfa 7, 8
 872 009b C3       		ret
 873              		.cfi_endproc
 874              	.LFE16:
 876              		.section	.text.hwoc_mqtt_clientpk,"ax",@progbits
 877              		.globl	hwoc_mqtt_clientpk
 879              	hwoc_mqtt_clientpk:
 880              	.LFB17:
 273:/home/xingli/share/LiteOS_Lab/oc/oc_mqtt/oc_mqtt_al/oc_mqtt_at.c **** 
 274:/home/xingli/share/LiteOS_Lab/oc/oc_mqtt/oc_mqtt_al/oc_mqtt_at.c **** // /< IF YOU WANT TO SET THE CLIENT PK and pwd
 275:/home/xingli/share/LiteOS_Lab/oc/oc_mqtt/oc_mqtt_al/oc_mqtt_at.c **** // /< ATCOMMAND: AT+HWOCMQTTCLIENTPK = "nnnds==","pwd"  and  "" means clear it
 276:/home/xingli/share/LiteOS_Lab/oc/oc_mqtt/oc_mqtt_al/oc_mqtt_at.c **** // /< ATRESPONSE:  +HWOCMQTTCLIENTPK OK
 277:/home/xingli/share/LiteOS_Lab/oc/oc_mqtt/oc_mqtt_al/oc_mqtt_at.c **** // /<              +HWOCMQTTCLIENTPK ERR:CODE
 278:/home/xingli/share/LiteOS_Lab/oc/oc_mqtt/oc_mqtt_al/oc_mqtt_at.c **** 
 279:/home/xingli/share/LiteOS_Lab/oc/oc_mqtt/oc_mqtt_al/oc_mqtt_at.c **** int hwoc_mqtt_clientpk(const char *client_pk, const char *client_pk_pwd)
 280:/home/xingli/share/LiteOS_Lab/oc/oc_mqtt/oc_mqtt_al/oc_mqtt_at.c **** {
 881              		.loc 1 280 1
 882              		.cfi_startproc
 883 0000 F30F1EFA 		endbr64
 884 0004 55       		pushq	%rbp
GAS LISTING /tmp/ccl3wM2z.s 			page 25


 885              	.LCFI33:
 886              		.cfi_def_cfa_offset 16
 887              		.cfi_offset 6, -16
 888 0005 4889E5   		movq	%rsp, %rbp
 889              	.LCFI34:
 890              		.cfi_def_cfa_register 6
 891 0008 4883EC20 		subq	$32, %rsp
 892 000c 48897DE8 		movq	%rdi, -24(%rbp)
 893 0010 488975E0 		movq	%rsi, -32(%rbp)
 894              		.loc 1 280 1
 895 0014 64488B04 		movq	%fs:40, %rax
 895      25280000 
 895      00
 896 001d 488945F8 		movq	%rax, -8(%rbp)
 897 0021 31C0     		xorl	%eax, %eax
 281:/home/xingli/share/LiteOS_Lab/oc/oc_mqtt/oc_mqtt_al/oc_mqtt_at.c ****     int ret = (int)en_oc_mqtt_err_ok;
 898              		.loc 1 281 9
 899 0023 C745F400 		movl	$0, -12(%rbp)
 899      000000
 282:/home/xingli/share/LiteOS_Lab/oc/oc_mqtt/oc_mqtt_al/oc_mqtt_at.c ****     (void)link_main(NULL);
 900              		.loc 1 282 11
 901 002a BF000000 		movl	$0, %edi
 901      00
 902 002f E8000000 		call	link_main@PLT
 902      00
 283:/home/xingli/share/LiteOS_Lab/oc/oc_mqtt/oc_mqtt_al/oc_mqtt_at.c **** 
 284:/home/xingli/share/LiteOS_Lab/oc/oc_mqtt/oc_mqtt_al/oc_mqtt_at.c ****     if (NULL != s_client_pk) {
 903              		.loc 1 284 14
 904 0034 488B0500 		movq	s_client_pk(%rip), %rax
 904      000000
 905              		.loc 1 284 8
 906 003b 4885C0   		testq	%rax, %rax
 907 003e 741A     		je	.L54
 285:/home/xingli/share/LiteOS_Lab/oc/oc_mqtt/oc_mqtt_al/oc_mqtt_at.c ****         osal_free(s_client_pk);
 908              		.loc 1 285 9
 909 0040 488B0500 		movq	s_client_pk(%rip), %rax
 909      000000
 910 0047 4889C7   		movq	%rax, %rdi
 911 004a E8000000 		call	osal_free@PLT
 911      00
 286:/home/xingli/share/LiteOS_Lab/oc/oc_mqtt/oc_mqtt_al/oc_mqtt_at.c ****         s_client_pk = NULL;
 912              		.loc 1 286 21
 913 004f 48C70500 		movq	$0, s_client_pk(%rip)
 913      00000000 
 913      000000
 914              	.L54:
 287:/home/xingli/share/LiteOS_Lab/oc/oc_mqtt/oc_mqtt_al/oc_mqtt_at.c ****     }
 288:/home/xingli/share/LiteOS_Lab/oc/oc_mqtt/oc_mqtt_al/oc_mqtt_at.c **** 
 289:/home/xingli/share/LiteOS_Lab/oc/oc_mqtt/oc_mqtt_al/oc_mqtt_at.c ****     if (NULL != s_client_pk_pwd) {
 915              		.loc 1 289 14
 916 005a 488B0500 		movq	s_client_pk_pwd(%rip), %rax
 916      000000
 917              		.loc 1 289 8
 918 0061 4885C0   		testq	%rax, %rax
 919 0064 741A     		je	.L55
 290:/home/xingli/share/LiteOS_Lab/oc/oc_mqtt/oc_mqtt_al/oc_mqtt_at.c ****         osal_free(s_client_pk_pwd);
 920              		.loc 1 290 9
GAS LISTING /tmp/ccl3wM2z.s 			page 26


 921 0066 488B0500 		movq	s_client_pk_pwd(%rip), %rax
 921      000000
 922 006d 4889C7   		movq	%rax, %rdi
 923 0070 E8000000 		call	osal_free@PLT
 923      00
 291:/home/xingli/share/LiteOS_Lab/oc/oc_mqtt/oc_mqtt_al/oc_mqtt_at.c ****         s_client_pk_pwd = NULL;
 924              		.loc 1 291 25
 925 0075 48C70500 		movq	$0, s_client_pk_pwd(%rip)
 925      00000000 
 925      000000
 926              	.L55:
 292:/home/xingli/share/LiteOS_Lab/oc/oc_mqtt/oc_mqtt_al/oc_mqtt_at.c ****     }
 293:/home/xingli/share/LiteOS_Lab/oc/oc_mqtt/oc_mqtt_al/oc_mqtt_at.c **** 
 294:/home/xingli/share/LiteOS_Lab/oc/oc_mqtt/oc_mqtt_al/oc_mqtt_at.c ****     if (NULL != client_pk) {
 927              		.loc 1 294 8
 928 0080 48837DE8 		cmpq	$0, -24(%rbp)
 928      00
 929 0085 7477     		je	.L56
 295:/home/xingli/share/LiteOS_Lab/oc/oc_mqtt/oc_mqtt_al/oc_mqtt_at.c ****         s_client_pk = osal_strdup(client_pk);
 930              		.loc 1 295 23
 931 0087 488B45E8 		movq	-24(%rbp), %rax
 932 008b 4889C7   		movq	%rax, %rdi
 933 008e E8000000 		call	osal_strdup@PLT
 933      00
 934              		.loc 1 295 21
 935 0093 48890500 		movq	%rax, s_client_pk(%rip)
 935      000000
 296:/home/xingli/share/LiteOS_Lab/oc/oc_mqtt/oc_mqtt_al/oc_mqtt_at.c ****         if (NULL == s_client_pk) {
 936              		.loc 1 296 18
 937 009a 488B0500 		movq	s_client_pk(%rip), %rax
 937      000000
 938              		.loc 1 296 12
 939 00a1 4885C0   		testq	%rax, %rax
 940 00a4 750C     		jne	.L57
 297:/home/xingli/share/LiteOS_Lab/oc/oc_mqtt/oc_mqtt_al/oc_mqtt_at.c ****             ret = (int)en_oc_mqtt_err_sysmem;
 941              		.loc 1 297 17
 942 00a6 C745F40F 		movl	$15, -12(%rbp)
 942      000000
 298:/home/xingli/share/LiteOS_Lab/oc/oc_mqtt/oc_mqtt_al/oc_mqtt_at.c ****             return ret;
 943              		.loc 1 298 20
 944 00ad 8B45F4   		movl	-12(%rbp), %eax
 945 00b0 EB4F     		jmp	.L58
 946              	.L57:
 299:/home/xingli/share/LiteOS_Lab/oc/oc_mqtt/oc_mqtt_al/oc_mqtt_at.c ****         }
 300:/home/xingli/share/LiteOS_Lab/oc/oc_mqtt/oc_mqtt_al/oc_mqtt_at.c **** 
 301:/home/xingli/share/LiteOS_Lab/oc/oc_mqtt/oc_mqtt_al/oc_mqtt_at.c ****         if (NULL != client_pk_pwd) {
 947              		.loc 1 301 12
 948 00b2 48837DE0 		cmpq	$0, -32(%rbp)
 948      00
 949 00b7 7445     		je	.L56
 302:/home/xingli/share/LiteOS_Lab/oc/oc_mqtt/oc_mqtt_al/oc_mqtt_at.c ****             s_client_pk_pwd = osal_strdup(client_pk_pwd);
 950              		.loc 1 302 31
 951 00b9 488B45E0 		movq	-32(%rbp), %rax
 952 00bd 4889C7   		movq	%rax, %rdi
 953 00c0 E8000000 		call	osal_strdup@PLT
 953      00
 954              		.loc 1 302 29
GAS LISTING /tmp/ccl3wM2z.s 			page 27


 955 00c5 48890500 		movq	%rax, s_client_pk_pwd(%rip)
 955      000000
 303:/home/xingli/share/LiteOS_Lab/oc/oc_mqtt/oc_mqtt_al/oc_mqtt_at.c ****             if (NULL == s_client_pk_pwd) {
 956              		.loc 1 303 22
 957 00cc 488B0500 		movq	s_client_pk_pwd(%rip), %rax
 957      000000
 958              		.loc 1 303 16
 959 00d3 4885C0   		testq	%rax, %rax
 960 00d6 7526     		jne	.L56
 304:/home/xingli/share/LiteOS_Lab/oc/oc_mqtt/oc_mqtt_al/oc_mqtt_at.c ****                 osal_free(s_client_pk);
 961              		.loc 1 304 17
 962 00d8 488B0500 		movq	s_client_pk(%rip), %rax
 962      000000
 963 00df 4889C7   		movq	%rax, %rdi
 964 00e2 E8000000 		call	osal_free@PLT
 964      00
 305:/home/xingli/share/LiteOS_Lab/oc/oc_mqtt/oc_mqtt_al/oc_mqtt_at.c ****                 s_client_pk = NULL;
 965              		.loc 1 305 29
 966 00e7 48C70500 		movq	$0, s_client_pk(%rip)
 966      00000000 
 966      000000
 306:/home/xingli/share/LiteOS_Lab/oc/oc_mqtt/oc_mqtt_al/oc_mqtt_at.c **** 
 307:/home/xingli/share/LiteOS_Lab/oc/oc_mqtt/oc_mqtt_al/oc_mqtt_at.c ****                 ret = (int)en_oc_mqtt_err_sysmem;
 967              		.loc 1 307 21
 968 00f2 C745F40F 		movl	$15, -12(%rbp)
 968      000000
 308:/home/xingli/share/LiteOS_Lab/oc/oc_mqtt/oc_mqtt_al/oc_mqtt_at.c ****                 return ret;
 969              		.loc 1 308 24
 970 00f9 8B45F4   		movl	-12(%rbp), %eax
 971 00fc EB03     		jmp	.L58
 972              	.L56:
 309:/home/xingli/share/LiteOS_Lab/oc/oc_mqtt/oc_mqtt_al/oc_mqtt_at.c ****             }
 310:/home/xingli/share/LiteOS_Lab/oc/oc_mqtt/oc_mqtt_al/oc_mqtt_at.c ****         }
 311:/home/xingli/share/LiteOS_Lab/oc/oc_mqtt/oc_mqtt_al/oc_mqtt_at.c ****     }
 312:/home/xingli/share/LiteOS_Lab/oc/oc_mqtt/oc_mqtt_al/oc_mqtt_at.c **** 
 313:/home/xingli/share/LiteOS_Lab/oc/oc_mqtt/oc_mqtt_al/oc_mqtt_at.c ****     return ret;
 973              		.loc 1 313 12
 974 00fe 8B45F4   		movl	-12(%rbp), %eax
 975              	.L58:
 314:/home/xingli/share/LiteOS_Lab/oc/oc_mqtt/oc_mqtt_al/oc_mqtt_at.c **** }
 976              		.loc 1 314 1
 977 0101 488B55F8 		movq	-8(%rbp), %rdx
 978 0105 64483314 		xorq	%fs:40, %rdx
 978      25280000 
 978      00
 979 010e 7405     		je	.L59
 980 0110 E8000000 		call	__stack_chk_fail@PLT
 980      00
 981              	.L59:
 982 0115 C9       		leave
 983              	.LCFI35:
 984              		.cfi_def_cfa 7, 8
 985 0116 C3       		ret
 986              		.cfi_endproc
 987              	.LFE17:
 989              		.section	.rodata.__FUNCTION__.3559,"a"
 990              		.align 16
GAS LISTING /tmp/ccl3wM2z.s 			page 28


 993              	__FUNCTION__.3559:
 994 0000 68776F63 		.string	"hwoc_mqtt_recvpub"
 994      5F6D7174 
 994      745F7265 
 994      63767075 
 994      6200
 995              		.section	.rodata.__FUNCTION__.3563,"a"
 996              		.align 8
 999              	__FUNCTION__.3563:
 1000 0000 68776F63 		.string	"hwoc_mqtt_log"
 1000      5F6D7174 
 1000      745F6C6F 
 1000      6700
 1001              		.section	.rodata.__FUNCTION__.3569,"a"
 1002              		.align 8
 1005              	__FUNCTION__.3569:
 1006 0000 6170705F 		.string	"app_msg_deal"
 1006      6D73675F 
 1006      6465616C 
 1006      00
 1007              		.section	.bss.time_last.3585,"aw",@nobits
 1008              		.align 8
 1011              	time_last.3585:
 1012 0000 00000000 		.zero	8
 1012      00000000 
 1013              		.text
 1014              	.Letext0:
 1015              		.file 2 "/usr/lib/gcc/x86_64-linux-gnu/9/include/stddef.h"
 1016              		.file 3 "/usr/include/x86_64-linux-gnu/bits/types.h"
 1017              		.file 4 "/usr/include/x86_64-linux-gnu/bits/types/struct_FILE.h"
 1018              		.file 5 "/usr/include/x86_64-linux-gnu/bits/types/FILE.h"
 1019              		.file 6 "/usr/include/stdio.h"
 1020              		.file 7 "/usr/include/x86_64-linux-gnu/bits/sys_errlist.h"
 1021              		.file 8 "/usr/include/x86_64-linux-gnu/bits/stdint-uintn.h"
 1022              		.file 9 "/home/xingli/share/LiteOS_Lab/inc/link_log.h"
 1023              		.file 10 "/home/xingli/share/LiteOS_Lab/inc/dtls_al.h"
 1024              		.file 11 "/home/xingli/share/LiteOS_Lab/inc/mqtt_al.h"
 1025              		.file 12 "/home/xingli/share/LiteOS_Lab/oc/oc_mqtt/oc_mqtt_al/oc_mqtt_al.h"
 3950              		.section	.note.gnu.property,"a"
 3951              		.align 8
 3952 0000 04000000 		.long	 1f - 0f
 3953 0004 10000000 		.long	 4f - 1f
 3954 0008 05000000 		.long	 5
 3955              	0:
 3956 000c 474E5500 		.string	 "GNU"
 3957              	1:
 3958              		.align 8
 3959 0010 020000C0 		.long	 0xc0000002
 3960 0014 04000000 		.long	 3f - 2f
 3961              	2:
 3962 0018 03000000 		.long	 0x3
 3963              	3:
 3964 001c 00000000 		.align 8
 3965              	4:
GAS LISTING /tmp/ccl3wM2z.s 			page 29


DEFINED SYMBOLS
                            *ABS*:0000000000000000 oc_mqtt_at.c
     /tmp/ccl3wM2z.s:8      .bss.s_server_ca:0000000000000000 s_server_ca
     /tmp/ccl3wM2z.s:14     .bss.s_client_ca:0000000000000000 s_client_ca
     /tmp/ccl3wM2z.s:20     .bss.s_client_pk:0000000000000000 s_client_pk
     /tmp/ccl3wM2z.s:26     .bss.s_client_pk_pwd:0000000000000000 s_client_pk_pwd
     /tmp/ccl3wM2z.s:35     .text.hwoc_mqtt_recvpub:0000000000000000 hwoc_mqtt_recvpub
     /tmp/ccl3wM2z.s:993    .rodata.__FUNCTION__.3559:0000000000000000 __FUNCTION__.3559
     /tmp/ccl3wM2z.s:107    .text.hwoc_mqtt_log:0000000000000000 hwoc_mqtt_log
     /tmp/ccl3wM2z.s:999    .rodata.__FUNCTION__.3563:0000000000000000 __FUNCTION__.3563
     /tmp/ccl3wM2z.s:202    .text.app_msg_deal:0000000000000000 app_msg_deal
     /tmp/ccl3wM2z.s:1005   .rodata.__FUNCTION__.3569:0000000000000000 __FUNCTION__.3569
     /tmp/ccl3wM2z.s:318    .text.hwoc_mqtt_publish:0000000000000000 hwoc_mqtt_publish
     /tmp/ccl3wM2z.s:370    .text.hwoc_mqtt_connect:0000000000000000 hwoc_mqtt_connect
     /tmp/ccl3wM2z.s:1011   .bss.time_last.3585:0000000000000000 time_last.3585
     /tmp/ccl3wM2z.s:565    .text.hwoc_mqtt_disconnect:0000000000000000 hwoc_mqtt_disconnect
     /tmp/ccl3wM2z.s:608    .text.hwoc_mqtt_subscribe:0000000000000000 hwoc_mqtt_subscribe
     /tmp/ccl3wM2z.s:657    .text.hwoc_mqtt_unsubscribe:0000000000000000 hwoc_mqtt_unsubscribe
     /tmp/ccl3wM2z.s:703    .text.hwoc_mqtt_version:0000000000000000 hwoc_mqtt_version
     /tmp/ccl3wM2z.s:739    .text.hwoc_mqtt_serverca:0000000000000000 hwoc_mqtt_serverca
     /tmp/ccl3wM2z.s:809    .text.hwoc_mqtt_clientca:0000000000000000 hwoc_mqtt_clientca
     /tmp/ccl3wM2z.s:879    .text.hwoc_mqtt_clientpk:0000000000000000 hwoc_mqtt_clientpk

UNDEFINED SYMBOLS
_GLOBAL_OFFSET_TABLE_
link_log_level_get
osal_sys_time
link_log_level_name
printf
stdout
fflush
__stack_chk_fail
link_main
oc_mqtt_publish
memset
strlen
strcmp
oc_mqtt_config
oc_mqtt_deconfig
oc_mqtt_subscribe
oc_mqtt_unsubscribe
linkmain_version
osal_free
osal_strdup
