GAS LISTING /tmp/ccXUIBQd.s 			page 1


   1              		.file	"mqtt_al.c"
   2              		.text
   3              	.Ltext0:
   4              		.section	.bss.s_mqtt_al_op_cb,"aw",@nobits
   5              		.align 32
   8              	s_mqtt_al_op_cb:
   9 0000 00000000 		.zero	56
   9      00000000 
   9      00000000 
   9      00000000 
   9      00000000 
  10              		.section	.text.mqtt_al_install,"ax",@progbits
  11              		.globl	mqtt_al_install
  13              	mqtt_al_install:
  14              	.LFB0:
  15              		.file 1 "/home/xingli/share/LiteOS_Lab/network/mqtt/mqtt_al/mqtt_al.c"
   1:/home/xingli/share/LiteOS_Lab/network/mqtt/mqtt_al/mqtt_al.c **** /* ----------------------------------------------------------------------------
   2:/home/xingli/share/LiteOS_Lab/network/mqtt/mqtt_al/mqtt_al.c ****  * Copyright (c) <2018>, <Huawei Technologies Co., Ltd>
   3:/home/xingli/share/LiteOS_Lab/network/mqtt/mqtt_al/mqtt_al.c ****  * All rights reserved.
   4:/home/xingli/share/LiteOS_Lab/network/mqtt/mqtt_al/mqtt_al.c ****  * Redistributopsn and use in source and binary forms, with or without modificatopsn,
   5:/home/xingli/share/LiteOS_Lab/network/mqtt/mqtt_al/mqtt_al.c ****  * are permitted provided that the following conditopsns are met:
   6:/home/xingli/share/LiteOS_Lab/network/mqtt/mqtt_al/mqtt_al.c ****  * 1. Redistributopsns of source code must retain the above copyright notice, this list of
   7:/home/xingli/share/LiteOS_Lab/network/mqtt/mqtt_al/mqtt_al.c ****  * conditopsns and the following disclaimer.
   8:/home/xingli/share/LiteOS_Lab/network/mqtt/mqtt_al/mqtt_al.c ****  * 2. Redistributopsns in binary form must reproduce the above copyright notice, this list
   9:/home/xingli/share/LiteOS_Lab/network/mqtt/mqtt_al/mqtt_al.c ****  * of conditopsns and the following disclaimer in the documentatopsn and/or other materials
  10:/home/xingli/share/LiteOS_Lab/network/mqtt/mqtt_al/mqtt_al.c ****  * provided with the distributopsn.
  11:/home/xingli/share/LiteOS_Lab/network/mqtt/mqtt_al/mqtt_al.c ****  * 3. Neither the name of the copyright holder nor the names of its contributors may be used
  12:/home/xingli/share/LiteOS_Lab/network/mqtt/mqtt_al/mqtt_al.c ****  * to endorse or promote products derived from this software without specific propsr written
  13:/home/xingli/share/LiteOS_Lab/network/mqtt/mqtt_al/mqtt_al.c ****  * permissopsn.
  14:/home/xingli/share/LiteOS_Lab/network/mqtt/mqtt_al/mqtt_al.c ****  * THIS SOFTWARE IS PROVIDED BY THE COPYRIGHT HOLDERS AND CONTRIBUTORS
  15:/home/xingli/share/LiteOS_Lab/network/mqtt/mqtt_al/mqtt_al.c ****  * "AS IS" AND ANY EXPRESS OR IMPLIED WARRANTIES, INCLUDING, BUT NOT LIMITED TO,
  16:/home/xingli/share/LiteOS_Lab/network/mqtt/mqtt_al/mqtt_al.c ****  * THE IMPLIED WARRANTIES OF MERCHANTABILITY AND FITNESS FOR A PARTICULAR
  17:/home/xingli/share/LiteOS_Lab/network/mqtt/mqtt_al/mqtt_al.c ****  * PURPOSE ARE DISCLAIMED. IN NO EVENT SHALL THE COPYRIGHT HOLDER OR
  18:/home/xingli/share/LiteOS_Lab/network/mqtt/mqtt_al/mqtt_al.c ****  * CONTRIBUTORS BE LIABLE FOR ANY DIRECT, INDIRECT, INCIDENTAL, SPECIAL,
  19:/home/xingli/share/LiteOS_Lab/network/mqtt/mqtt_al/mqtt_al.c ****  * EXEMPLARY, OR CONSEQUENTIAL DAMAGES (INCLUDING, BUT NOT LIMITED TO,
  20:/home/xingli/share/LiteOS_Lab/network/mqtt/mqtt_al/mqtt_al.c ****  * PROCUREMENT OF SUBSTITUTE GOODS OR SERVICES; LOSS OF USE, DATA, OR PROFITS;
  21:/home/xingli/share/LiteOS_Lab/network/mqtt/mqtt_al/mqtt_al.c ****  * OR BUSINESS INTERRUPTopsN) HOWEVER CAUSED AND ON ANY THEORY OF LIABILITY,
  22:/home/xingli/share/LiteOS_Lab/network/mqtt/mqtt_al/mqtt_al.c ****  * WHETHER IN CONTRACT, STRICT LIABILITY, OR TORT (INCLUDING NEGLIGENCE OR
  23:/home/xingli/share/LiteOS_Lab/network/mqtt/mqtt_al/mqtt_al.c ****  * OTHERWISE) ARISING IN ANY WAY OUT OF THE USE OF THIS SOFTWARE, EVEN IF
  24:/home/xingli/share/LiteOS_Lab/network/mqtt/mqtt_al/mqtt_al.c ****  * ADVISED OF THE POSSIBILITY OF SUCH DAMAGE.
  25:/home/xingli/share/LiteOS_Lab/network/mqtt/mqtt_al/mqtt_al.c ****  * --------------------------------------------------------------------------- */
  26:/home/xingli/share/LiteOS_Lab/network/mqtt/mqtt_al/mqtt_al.c **** /* ----------------------------------------------------------------------------
  27:/home/xingli/share/LiteOS_Lab/network/mqtt/mqtt_al/mqtt_al.c ****  * Notice of Export Control Law
  28:/home/xingli/share/LiteOS_Lab/network/mqtt/mqtt_al/mqtt_al.c ****  * ===============================================
  29:/home/xingli/share/LiteOS_Lab/network/mqtt/mqtt_al/mqtt_al.c ****  * Huawei LiteOS may be subject to applicable export control laws and regulatopsns, which might
  30:/home/xingli/share/LiteOS_Lab/network/mqtt/mqtt_al/mqtt_al.c ****  * include those applicable to Huawei LiteOS of U.S. and the country in which you are located.
  31:/home/xingli/share/LiteOS_Lab/network/mqtt/mqtt_al/mqtt_al.c ****  * Import, export and usage of Huawei LiteOS in any manner by you shall be in compliance with such
  32:/home/xingli/share/LiteOS_Lab/network/mqtt/mqtt_al/mqtt_al.c ****  * applicable export control laws and regulatopsns.
  33:/home/xingli/share/LiteOS_Lab/network/mqtt/mqtt_al/mqtt_al.c ****  * --------------------------------------------------------------------------- */
  34:/home/xingli/share/LiteOS_Lab/network/mqtt/mqtt_al/mqtt_al.c **** 
  35:/home/xingli/share/LiteOS_Lab/network/mqtt/mqtt_al/mqtt_al.c **** #include <stdint.h>
  36:/home/xingli/share/LiteOS_Lab/network/mqtt/mqtt_al/mqtt_al.c **** #include <stddef.h>
  37:/home/xingli/share/LiteOS_Lab/network/mqtt/mqtt_al/mqtt_al.c **** #include "link_log.h"
  38:/home/xingli/share/LiteOS_Lab/network/mqtt/mqtt_al/mqtt_al.c **** #include "paho_mqtt_port.h"
  39:/home/xingli/share/LiteOS_Lab/network/mqtt/mqtt_al/mqtt_al.c **** 
  40:/home/xingli/share/LiteOS_Lab/network/mqtt/mqtt_al/mqtt_al.c **** #ifdef __cplusplus
  41:/home/xingli/share/LiteOS_Lab/network/mqtt/mqtt_al/mqtt_al.c **** #if __cplusplus
GAS LISTING /tmp/ccXUIBQd.s 			page 2


  42:/home/xingli/share/LiteOS_Lab/network/mqtt/mqtt_al/mqtt_al.c **** extern "C" {
  43:/home/xingli/share/LiteOS_Lab/network/mqtt/mqtt_al/mqtt_al.c **** #endif /* __cplusplus */
  44:/home/xingli/share/LiteOS_Lab/network/mqtt/mqtt_al/mqtt_al.c **** #endif /* __cplusplus */
  45:/home/xingli/share/LiteOS_Lab/network/mqtt/mqtt_al/mqtt_al.c **** 
  46:/home/xingli/share/LiteOS_Lab/network/mqtt/mqtt_al/mqtt_al.c **** #include "mqtt_al.h"
  47:/home/xingli/share/LiteOS_Lab/network/mqtt/mqtt_al/mqtt_al.c **** 
  48:/home/xingli/share/LiteOS_Lab/network/mqtt/mqtt_al/mqtt_al.c **** typedef struct {
  49:/home/xingli/share/LiteOS_Lab/network/mqtt/mqtt_al/mqtt_al.c ****     mqtt_al_op_t    *ops;
  50:/home/xingli/share/LiteOS_Lab/network/mqtt/mqtt_al/mqtt_al.c ****     mqtt_al_op_t    mem;
  51:/home/xingli/share/LiteOS_Lab/network/mqtt/mqtt_al/mqtt_al.c **** } mqtt_al_op_cb_t;
  52:/home/xingli/share/LiteOS_Lab/network/mqtt/mqtt_al/mqtt_al.c **** 
  53:/home/xingli/share/LiteOS_Lab/network/mqtt/mqtt_al/mqtt_al.c **** static mqtt_al_op_cb_t s_mqtt_al_op_cb;
  54:/home/xingli/share/LiteOS_Lab/network/mqtt/mqtt_al/mqtt_al.c **** 
  55:/home/xingli/share/LiteOS_Lab/network/mqtt/mqtt_al/mqtt_al.c **** // ///////////////CREATE THE API FOR THE MQTT LIB////////////////////////////////
  56:/home/xingli/share/LiteOS_Lab/network/mqtt/mqtt_al/mqtt_al.c **** int mqtt_al_install(mqtt_al_op_t *op)
  57:/home/xingli/share/LiteOS_Lab/network/mqtt/mqtt_al/mqtt_al.c **** {
  16              		.loc 1 57 1
  17              		.cfi_startproc
  18 0000 F30F1EFA 		endbr64
  19 0004 55       		pushq	%rbp
  20              	.LCFI0:
  21              		.cfi_def_cfa_offset 16
  22              		.cfi_offset 6, -16
  23 0005 4889E5   		movq	%rsp, %rbp
  24              	.LCFI1:
  25              		.cfi_def_cfa_register 6
  26 0008 53       		pushq	%rbx
  27 0009 4883EC28 		subq	$40, %rsp
  28              		.cfi_offset 3, -24
  29 000d 48897DD8 		movq	%rdi, -40(%rbp)
  30              		.loc 1 57 1
  31 0011 64488B04 		movq	%fs:40, %rax
  31      25280000 
  31      00
  32 001a 488945E8 		movq	%rax, -24(%rbp)
  33 001e 31C0     		xorl	%eax, %eax
  58:/home/xingli/share/LiteOS_Lab/network/mqtt/mqtt_al/mqtt_al.c ****     int ret = -1;
  34              		.loc 1 58 9
  35 0020 C745E4FF 		movl	$-1, -28(%rbp)
  35      FFFFFF
  59:/home/xingli/share/LiteOS_Lab/network/mqtt/mqtt_al/mqtt_al.c ****     if ((NULL != op) && (NULL == s_mqtt_al_op_cb.ops)) {
  36              		.loc 1 59 8
  37 0027 48837DD8 		cmpq	$0, -40(%rbp)
  37      00
  38 002c 7466     		je	.L2
  39              		.loc 1 59 49 discriminator 1
  40 002e 488B0500 		movq	s_mqtt_al_op_cb(%rip), %rax
  40      000000
  41              		.loc 1 59 22 discriminator 1
  42 0035 4885C0   		testq	%rax, %rax
  43 0038 755A     		jne	.L2
  60:/home/xingli/share/LiteOS_Lab/network/mqtt/mqtt_al/mqtt_al.c ****         s_mqtt_al_op_cb.mem = *op;
  44              		.loc 1 60 29
  45 003a 488B45D8 		movq	-40(%rbp), %rax
  46 003e 488B08   		movq	(%rax), %rcx
  47 0041 488B5808 		movq	8(%rax), %rbx
  48 0045 48890D00 		movq	%rcx, 8+s_mqtt_al_op_cb(%rip)
GAS LISTING /tmp/ccXUIBQd.s 			page 3


  48      000000
  49 004c 48891D00 		movq	%rbx, 16+s_mqtt_al_op_cb(%rip)
  49      000000
  50 0053 488B4810 		movq	16(%rax), %rcx
  51 0057 488B5818 		movq	24(%rax), %rbx
  52 005b 48890D00 		movq	%rcx, 24+s_mqtt_al_op_cb(%rip)
  52      000000
  53 0062 48891D00 		movq	%rbx, 32+s_mqtt_al_op_cb(%rip)
  53      000000
  54 0069 488B5028 		movq	40(%rax), %rdx
  55 006d 488B4020 		movq	32(%rax), %rax
  56 0071 48890500 		movq	%rax, 40+s_mqtt_al_op_cb(%rip)
  56      000000
  57 0078 48891500 		movq	%rdx, 48+s_mqtt_al_op_cb(%rip)
  57      000000
  61:/home/xingli/share/LiteOS_Lab/network/mqtt/mqtt_al/mqtt_al.c ****         s_mqtt_al_op_cb.ops = &s_mqtt_al_op_cb.mem;
  58              		.loc 1 61 29
  59 007f 488D0500 		leaq	8+s_mqtt_al_op_cb(%rip), %rax
  59      000000
  60 0086 48890500 		movq	%rax, s_mqtt_al_op_cb(%rip)
  60      000000
  62:/home/xingli/share/LiteOS_Lab/network/mqtt/mqtt_al/mqtt_al.c ****         ret = 0;
  61              		.loc 1 62 13
  62 008d C745E400 		movl	$0, -28(%rbp)
  62      000000
  63              	.L2:
  63:/home/xingli/share/LiteOS_Lab/network/mqtt/mqtt_al/mqtt_al.c ****     }
  64:/home/xingli/share/LiteOS_Lab/network/mqtt/mqtt_al/mqtt_al.c **** 
  65:/home/xingli/share/LiteOS_Lab/network/mqtt/mqtt_al/mqtt_al.c ****     return ret;
  64              		.loc 1 65 12
  65 0094 8B45E4   		movl	-28(%rbp), %eax
  66:/home/xingli/share/LiteOS_Lab/network/mqtt/mqtt_al/mqtt_al.c **** }
  66              		.loc 1 66 1
  67 0097 488B55E8 		movq	-24(%rbp), %rdx
  68 009b 64483314 		xorq	%fs:40, %rdx
  68      25280000 
  68      00
  69 00a4 7405     		je	.L4
  70 00a6 E8000000 		call	__stack_chk_fail@PLT
  70      00
  71              	.L4:
  72 00ab 4883C428 		addq	$40, %rsp
  73 00af 5B       		popq	%rbx
  74 00b0 5D       		popq	%rbp
  75              	.LCFI2:
  76              		.cfi_def_cfa 7, 8
  77 00b1 C3       		ret
  78              		.cfi_endproc
  79              	.LFE0:
  81              		.section	.text.mqtt_al_uninstall,"ax",@progbits
  82              		.globl	mqtt_al_uninstall
  84              	mqtt_al_uninstall:
  85              	.LFB1:
  67:/home/xingli/share/LiteOS_Lab/network/mqtt/mqtt_al/mqtt_al.c **** 
  68:/home/xingli/share/LiteOS_Lab/network/mqtt/mqtt_al/mqtt_al.c **** int mqtt_al_uninstall(void)
  69:/home/xingli/share/LiteOS_Lab/network/mqtt/mqtt_al/mqtt_al.c **** {
  86              		.loc 1 69 1
GAS LISTING /tmp/ccXUIBQd.s 			page 4


  87              		.cfi_startproc
  88 0000 F30F1EFA 		endbr64
  89 0004 55       		pushq	%rbp
  90              	.LCFI3:
  91              		.cfi_def_cfa_offset 16
  92              		.cfi_offset 6, -16
  93 0005 4889E5   		movq	%rsp, %rbp
  94              	.LCFI4:
  95              		.cfi_def_cfa_register 6
  96 0008 4883EC10 		subq	$16, %rsp
  97              		.loc 1 69 1
  98 000c 64488B04 		movq	%fs:40, %rax
  98      25280000 
  98      00
  99 0015 488945F8 		movq	%rax, -8(%rbp)
 100 0019 31C0     		xorl	%eax, %eax
  70:/home/xingli/share/LiteOS_Lab/network/mqtt/mqtt_al/mqtt_al.c ****     int ret = -1;
 101              		.loc 1 70 9
 102 001b C745F4FF 		movl	$-1, -12(%rbp)
 102      FFFFFF
  71:/home/xingli/share/LiteOS_Lab/network/mqtt/mqtt_al/mqtt_al.c ****     if (NULL != s_mqtt_al_op_cb.ops) {
 103              		.loc 1 71 32
 104 0022 488B0500 		movq	s_mqtt_al_op_cb(%rip), %rax
 104      000000
 105              		.loc 1 71 8
 106 0029 4885C0   		testq	%rax, %rax
 107 002c 7412     		je	.L6
  72:/home/xingli/share/LiteOS_Lab/network/mqtt/mqtt_al/mqtt_al.c ****         s_mqtt_al_op_cb.ops = NULL;
 108              		.loc 1 72 29
 109 002e 48C70500 		movq	$0, s_mqtt_al_op_cb(%rip)
 109      00000000 
 109      000000
  73:/home/xingli/share/LiteOS_Lab/network/mqtt/mqtt_al/mqtt_al.c **** 
  74:/home/xingli/share/LiteOS_Lab/network/mqtt/mqtt_al/mqtt_al.c ****         ret = 0;
 110              		.loc 1 74 13
 111 0039 C745F400 		movl	$0, -12(%rbp)
 111      000000
 112              	.L6:
  75:/home/xingli/share/LiteOS_Lab/network/mqtt/mqtt_al/mqtt_al.c ****     }
  76:/home/xingli/share/LiteOS_Lab/network/mqtt/mqtt_al/mqtt_al.c **** 
  77:/home/xingli/share/LiteOS_Lab/network/mqtt/mqtt_al/mqtt_al.c ****     return ret;
 113              		.loc 1 77 12
 114 0040 8B45F4   		movl	-12(%rbp), %eax
  78:/home/xingli/share/LiteOS_Lab/network/mqtt/mqtt_al/mqtt_al.c **** }
 115              		.loc 1 78 1
 116 0043 488B55F8 		movq	-8(%rbp), %rdx
 117 0047 64483314 		xorq	%fs:40, %rdx
 117      25280000 
 117      00
 118 0050 7405     		je	.L8
 119 0052 E8000000 		call	__stack_chk_fail@PLT
 119      00
 120              	.L8:
 121 0057 C9       		leave
 122              	.LCFI5:
 123              		.cfi_def_cfa 7, 8
 124 0058 C3       		ret
GAS LISTING /tmp/ccXUIBQd.s 			page 5


 125              		.cfi_endproc
 126              	.LFE1:
 128              		.section	.rodata
 129              		.align 8
 130              	.LC0:
 131 0000 5B25735D 		.string	"[%s][%u][%s] %s:###please implement mqtt by yourself####\r\n"
 131      5B25755D 
 131      5B25735D 
 131      2025733A 
 131      23232370 
 132              		.section	.text.mqtt_imp_init,"ax",@progbits
 133              		.weak	mqtt_imp_init
 135              	mqtt_imp_init:
 136              	.LFB2:
  79:/home/xingli/share/LiteOS_Lab/network/mqtt/mqtt_al/mqtt_al.c **** 
  80:/home/xingli/share/LiteOS_Lab/network/mqtt/mqtt_al/mqtt_al.c **** // ////////////////////////CREATE THE API FOR THE MQTT APPLICATopsN///////////////
  81:/home/xingli/share/LiteOS_Lab/network/mqtt/mqtt_al/mqtt_al.c **** 
  82:/home/xingli/share/LiteOS_Lab/network/mqtt/mqtt_al/mqtt_al.c **** __attribute__((weak)) int mqtt_imp_init(void)
  83:/home/xingli/share/LiteOS_Lab/network/mqtt/mqtt_al/mqtt_al.c **** {
 137              		.loc 1 83 1
 138              		.cfi_startproc
 139 0000 F30F1EFA 		endbr64
 140 0004 55       		pushq	%rbp
 141              	.LCFI6:
 142              		.cfi_def_cfa_offset 16
 143              		.cfi_offset 6, -16
 144 0005 4889E5   		movq	%rsp, %rbp
 145              	.LCFI7:
 146              		.cfi_def_cfa_register 6
 147 0008 53       		pushq	%rbx
 148 0009 4883EC18 		subq	$24, %rsp
 149              		.cfi_offset 3, -24
 150              		.loc 1 83 1
 151 000d 64488B04 		movq	%fs:40, %rax
 151      25280000 
 151      00
 152 0016 488945E8 		movq	%rax, -24(%rbp)
 153 001a 31C0     		xorl	%eax, %eax
  84:/home/xingli/share/LiteOS_Lab/network/mqtt/mqtt_al/mqtt_al.c ****     LINK_LOG_DEBUG("%s:###please implement mqtt by yourself####", __FUNCTION__);
 154              		.loc 1 84 5
 155 001c E8000000 		call	link_log_level_get@PLT
 155      00
 156 0021 83F801   		cmpl	$1, %eax
 157 0024 7744     		ja	.L10
 158              		.loc 1 84 5 is_stmt 0 discriminator 1
 159 0026 E8000000 		call	osal_sys_time@PLT
 159      00
 160 002b 89C3     		movl	%eax, %ebx
 161 002d BF010000 		movl	$1, %edi
 161      00
 162 0032 E8000000 		call	link_log_level_name@PLT
 162      00
 163 0037 4C8D0500 		leaq	__FUNCTION__.2592(%rip), %r8
 163      000000
 164 003e 488D0D00 		leaq	__FUNCTION__.2592(%rip), %rcx
 164      000000
 165 0045 89DA     		movl	%ebx, %edx
GAS LISTING /tmp/ccXUIBQd.s 			page 6


 166 0047 4889C6   		movq	%rax, %rsi
 167 004a 488D3D00 		leaq	.LC0(%rip), %rdi
 167      000000
 168 0051 B8000000 		movl	$0, %eax
 168      00
 169 0056 E8000000 		call	printf@PLT
 169      00
 170 005b 488B0500 		movq	stdout(%rip), %rax
 170      000000
 171 0062 4889C7   		movq	%rax, %rdi
 172 0065 E8000000 		call	fflush@PLT
 172      00
 173              	.L10:
  85:/home/xingli/share/LiteOS_Lab/network/mqtt/mqtt_al/mqtt_al.c ****     return -1;
 174              		.loc 1 85 12 is_stmt 1
 175 006a B8FFFFFF 		movl	$-1, %eax
 175      FF
  86:/home/xingli/share/LiteOS_Lab/network/mqtt/mqtt_al/mqtt_al.c **** }
 176              		.loc 1 86 1
 177 006f 488B55E8 		movq	-24(%rbp), %rdx
 178 0073 64483314 		xorq	%fs:40, %rdx
 178      25280000 
 178      00
 179 007c 7405     		je	.L12
 180 007e E8000000 		call	__stack_chk_fail@PLT
 180      00
 181              	.L12:
 182 0083 4883C418 		addq	$24, %rsp
 183 0087 5B       		popq	%rbx
 184 0088 5D       		popq	%rbp
 185              	.LCFI8:
 186              		.cfi_def_cfa 7, 8
 187 0089 C3       		ret
 188              		.cfi_endproc
 189              	.LFE2:
 191              		.section	.rodata
 192 003b 00000000 		.align 8
 192      00
 193              	.LC1:
 194 0040 5B25735D 		.string	"[%s][%u][%s] IOT_LINK:DO MQTT LOAD-IMPLEMENT RET:%d\r\n"
 194      5B25755D 
 194      5B25735D 
 194      20494F54 
 194      5F4C494E 
 195              		.section	.text.mqtt_al_init,"ax",@progbits
 196              		.globl	mqtt_al_init
 198              	mqtt_al_init:
 199              	.LFB3:
  87:/home/xingli/share/LiteOS_Lab/network/mqtt/mqtt_al/mqtt_al.c **** 
  88:/home/xingli/share/LiteOS_Lab/network/mqtt/mqtt_al/mqtt_al.c **** int mqtt_al_init(void)
  89:/home/xingli/share/LiteOS_Lab/network/mqtt/mqtt_al/mqtt_al.c **** {
 200              		.loc 1 89 1
 201              		.cfi_startproc
 202 0000 F30F1EFA 		endbr64
 203 0004 55       		pushq	%rbp
 204              	.LCFI9:
 205              		.cfi_def_cfa_offset 16
GAS LISTING /tmp/ccXUIBQd.s 			page 7


 206              		.cfi_offset 6, -16
 207 0005 4889E5   		movq	%rsp, %rbp
 208              	.LCFI10:
 209              		.cfi_def_cfa_register 6
 210 0008 53       		pushq	%rbx
 211 0009 4883EC18 		subq	$24, %rsp
 212              		.cfi_offset 3, -24
 213              		.loc 1 89 1
 214 000d 64488B04 		movq	%fs:40, %rax
 214      25280000 
 214      00
 215 0016 488945E8 		movq	%rax, -24(%rbp)
 216 001a 31C0     		xorl	%eax, %eax
  90:/home/xingli/share/LiteOS_Lab/network/mqtt/mqtt_al/mqtt_al.c ****     int ret;
  91:/home/xingli/share/LiteOS_Lab/network/mqtt/mqtt_al/mqtt_al.c **** 
  92:/home/xingli/share/LiteOS_Lab/network/mqtt/mqtt_al/mqtt_al.c ****     ret = mqtt_imp_init();
 217              		.loc 1 92 11
 218 001c E8000000 		call	mqtt_imp_init
 218      00
 219 0021 8945E4   		movl	%eax, -28(%rbp)
  93:/home/xingli/share/LiteOS_Lab/network/mqtt/mqtt_al/mqtt_al.c ****     LINK_LOG_DEBUG("IOT_LINK:DO MQTT LOAD-IMPLEMENT RET:%d", ret);
 220              		.loc 1 93 5
 221 0024 E8000000 		call	link_log_level_get@PLT
 221      00
 222 0029 83F801   		cmpl	$1, %eax
 223 002c 7743     		ja	.L14
 224              		.loc 1 93 5 is_stmt 0 discriminator 1
 225 002e E8000000 		call	osal_sys_time@PLT
 225      00
 226 0033 89C3     		movl	%eax, %ebx
 227 0035 BF010000 		movl	$1, %edi
 227      00
 228 003a E8000000 		call	link_log_level_name@PLT
 228      00
 229 003f 8B55E4   		movl	-28(%rbp), %edx
 230 0042 4189D0   		movl	%edx, %r8d
 231 0045 488D0D00 		leaq	__FUNCTION__.2597(%rip), %rcx
 231      000000
 232 004c 89DA     		movl	%ebx, %edx
 233 004e 4889C6   		movq	%rax, %rsi
 234 0051 488D3D00 		leaq	.LC1(%rip), %rdi
 234      000000
 235 0058 B8000000 		movl	$0, %eax
 235      00
 236 005d E8000000 		call	printf@PLT
 236      00
 237 0062 488B0500 		movq	stdout(%rip), %rax
 237      000000
 238 0069 4889C7   		movq	%rax, %rdi
 239 006c E8000000 		call	fflush@PLT
 239      00
 240              	.L14:
  94:/home/xingli/share/LiteOS_Lab/network/mqtt/mqtt_al/mqtt_al.c **** 
  95:/home/xingli/share/LiteOS_Lab/network/mqtt/mqtt_al/mqtt_al.c ****     return ret;
 241              		.loc 1 95 12 is_stmt 1
 242 0071 8B45E4   		movl	-28(%rbp), %eax
  96:/home/xingli/share/LiteOS_Lab/network/mqtt/mqtt_al/mqtt_al.c **** }
GAS LISTING /tmp/ccXUIBQd.s 			page 8


 243              		.loc 1 96 1
 244 0074 488B4DE8 		movq	-24(%rbp), %rcx
 245 0078 6448330C 		xorq	%fs:40, %rcx
 245      25280000 
 245      00
 246 0081 7405     		je	.L16
 247 0083 E8000000 		call	__stack_chk_fail@PLT
 247      00
 248              	.L16:
 249 0088 4883C418 		addq	$24, %rsp
 250 008c 5B       		popq	%rbx
 251 008d 5D       		popq	%rbp
 252              	.LCFI11:
 253              		.cfi_def_cfa 7, 8
 254 008e C3       		ret
 255              		.cfi_endproc
 256              	.LFE3:
 258              		.section	.text.mqtt_al_deinit,"ax",@progbits
 259              		.globl	mqtt_al_deinit
 261              	mqtt_al_deinit:
 262              	.LFB4:
  97:/home/xingli/share/LiteOS_Lab/network/mqtt/mqtt_al/mqtt_al.c **** 
  98:/home/xingli/share/LiteOS_Lab/network/mqtt/mqtt_al/mqtt_al.c **** int mqtt_al_deinit(void)
  99:/home/xingli/share/LiteOS_Lab/network/mqtt/mqtt_al/mqtt_al.c **** {
 263              		.loc 1 99 1
 264              		.cfi_startproc
 265 0000 F30F1EFA 		endbr64
 266 0004 55       		pushq	%rbp
 267              	.LCFI12:
 268              		.cfi_def_cfa_offset 16
 269              		.cfi_offset 6, -16
 270 0005 4889E5   		movq	%rsp, %rbp
 271              	.LCFI13:
 272              		.cfi_def_cfa_register 6
 273 0008 4883EC10 		subq	$16, %rsp
 274              		.loc 1 99 1
 275 000c 64488B04 		movq	%fs:40, %rax
 275      25280000 
 275      00
 276 0015 488945F8 		movq	%rax, -8(%rbp)
 277 0019 31C0     		xorl	%eax, %eax
 100:/home/xingli/share/LiteOS_Lab/network/mqtt/mqtt_al/mqtt_al.c ****     int ret = 0;
 278              		.loc 1 100 9
 279 001b C745F400 		movl	$0, -12(%rbp)
 279      000000
 101:/home/xingli/share/LiteOS_Lab/network/mqtt/mqtt_al/mqtt_al.c **** 
 102:/home/xingli/share/LiteOS_Lab/network/mqtt/mqtt_al/mqtt_al.c ****     // maybe need special code here
 103:/home/xingli/share/LiteOS_Lab/network/mqtt/mqtt_al/mqtt_al.c **** 
 104:/home/xingli/share/LiteOS_Lab/network/mqtt/mqtt_al/mqtt_al.c ****     return ret;
 280              		.loc 1 104 12
 281 0022 8B45F4   		movl	-12(%rbp), %eax
 105:/home/xingli/share/LiteOS_Lab/network/mqtt/mqtt_al/mqtt_al.c **** }
 282              		.loc 1 105 1
 283 0025 488B55F8 		movq	-8(%rbp), %rdx
 284 0029 64483314 		xorq	%fs:40, %rdx
 284      25280000 
 284      00
GAS LISTING /tmp/ccXUIBQd.s 			page 9


 285 0032 7405     		je	.L19
 286 0034 E8000000 		call	__stack_chk_fail@PLT
 286      00
 287              	.L19:
 288 0039 C9       		leave
 289              	.LCFI14:
 290              		.cfi_def_cfa 7, 8
 291 003a C3       		ret
 292              		.cfi_endproc
 293              	.LFE4:
 295              		.section	.text.mqtt_al_connect,"ax",@progbits
 296              		.globl	mqtt_al_connect
 298              	mqtt_al_connect:
 299              	.LFB5:
 106:/home/xingli/share/LiteOS_Lab/network/mqtt/mqtt_al/mqtt_al.c **** 
 107:/home/xingli/share/LiteOS_Lab/network/mqtt/mqtt_al/mqtt_al.c **** void *mqtt_al_connect(mqtt_al_conpara_t *conpara)
 108:/home/xingli/share/LiteOS_Lab/network/mqtt/mqtt_al/mqtt_al.c **** {
 300              		.loc 1 108 1
 301              		.cfi_startproc
 302 0000 F30F1EFA 		endbr64
 303 0004 55       		pushq	%rbp
 304              	.LCFI15:
 305              		.cfi_def_cfa_offset 16
 306              		.cfi_offset 6, -16
 307 0005 4889E5   		movq	%rsp, %rbp
 308              	.LCFI16:
 309              		.cfi_def_cfa_register 6
 310 0008 4883EC20 		subq	$32, %rsp
 311 000c 48897DE8 		movq	%rdi, -24(%rbp)
 312              		.loc 1 108 1
 313 0010 64488B04 		movq	%fs:40, %rax
 313      25280000 
 313      00
 314 0019 488945F8 		movq	%rax, -8(%rbp)
 315 001d 31C0     		xorl	%eax, %eax
 109:/home/xingli/share/LiteOS_Lab/network/mqtt/mqtt_al/mqtt_al.c ****     void *ret = NULL;
 316              		.loc 1 109 11
 317 001f 48C745F0 		movq	$0, -16(%rbp)
 317      00000000 
 110:/home/xingli/share/LiteOS_Lab/network/mqtt/mqtt_al/mqtt_al.c **** 
 111:/home/xingli/share/LiteOS_Lab/network/mqtt/mqtt_al/mqtt_al.c ****     if ((NULL != conpara) && (NULL != s_mqtt_al_op_cb.ops) && (NULL != s_mqtt_al_op_cb.ops->connect
 318              		.loc 1 111 8
 319 0027 48837DE8 		cmpq	$0, -24(%rbp)
 319      00
 320 002c 7432     		je	.L21
 321              		.loc 1 111 54 discriminator 1
 322 002e 488B0500 		movq	s_mqtt_al_op_cb(%rip), %rax
 322      000000
 323              		.loc 1 111 27 discriminator 1
 324 0035 4885C0   		testq	%rax, %rax
 325 0038 7426     		je	.L21
 326              		.loc 1 111 87 discriminator 2
 327 003a 488B0500 		movq	s_mqtt_al_op_cb(%rip), %rax
 327      000000
 328              		.loc 1 111 91 discriminator 2
 329 0041 488B00   		movq	(%rax), %rax
 330              		.loc 1 111 60 discriminator 2
GAS LISTING /tmp/ccXUIBQd.s 			page 10


 331 0044 4885C0   		testq	%rax, %rax
 332 0047 7417     		je	.L21
 112:/home/xingli/share/LiteOS_Lab/network/mqtt/mqtt_al/mqtt_al.c ****         ret = s_mqtt_al_op_cb.ops->connect(conpara);
 333              		.loc 1 112 30
 334 0049 488B0500 		movq	s_mqtt_al_op_cb(%rip), %rax
 334      000000
 335              		.loc 1 112 34
 336 0050 488B10   		movq	(%rax), %rdx
 337              		.loc 1 112 15
 338 0053 488B45E8 		movq	-24(%rbp), %rax
 339 0057 4889C7   		movq	%rax, %rdi
 340 005a FFD2     		call	*%rdx
 341              	.LVL0:
 342 005c 488945F0 		movq	%rax, -16(%rbp)
 343              	.L21:
 113:/home/xingli/share/LiteOS_Lab/network/mqtt/mqtt_al/mqtt_al.c ****     }
 114:/home/xingli/share/LiteOS_Lab/network/mqtt/mqtt_al/mqtt_al.c **** 
 115:/home/xingli/share/LiteOS_Lab/network/mqtt/mqtt_al/mqtt_al.c ****     return ret;
 344              		.loc 1 115 12
 345 0060 488B45F0 		movq	-16(%rbp), %rax
 116:/home/xingli/share/LiteOS_Lab/network/mqtt/mqtt_al/mqtt_al.c **** }
 346              		.loc 1 116 1
 347 0064 488B4DF8 		movq	-8(%rbp), %rcx
 348 0068 6448330C 		xorq	%fs:40, %rcx
 348      25280000 
 348      00
 349 0071 7405     		je	.L23
 350 0073 E8000000 		call	__stack_chk_fail@PLT
 350      00
 351              	.L23:
 352 0078 C9       		leave
 353              	.LCFI17:
 354              		.cfi_def_cfa 7, 8
 355 0079 C3       		ret
 356              		.cfi_endproc
 357              	.LFE5:
 359              		.section	.text.mqtt_al_disconnect,"ax",@progbits
 360              		.globl	mqtt_al_disconnect
 362              	mqtt_al_disconnect:
 363              	.LFB6:
 117:/home/xingli/share/LiteOS_Lab/network/mqtt/mqtt_al/mqtt_al.c **** 
 118:/home/xingli/share/LiteOS_Lab/network/mqtt/mqtt_al/mqtt_al.c **** int mqtt_al_disconnect(void *handle)
 119:/home/xingli/share/LiteOS_Lab/network/mqtt/mqtt_al/mqtt_al.c **** {
 364              		.loc 1 119 1
 365              		.cfi_startproc
 366 0000 F30F1EFA 		endbr64
 367 0004 55       		pushq	%rbp
 368              	.LCFI18:
 369              		.cfi_def_cfa_offset 16
 370              		.cfi_offset 6, -16
 371 0005 4889E5   		movq	%rsp, %rbp
 372              	.LCFI19:
 373              		.cfi_def_cfa_register 6
 374 0008 4883EC20 		subq	$32, %rsp
 375 000c 48897DE8 		movq	%rdi, -24(%rbp)
 376              		.loc 1 119 1
 377 0010 64488B04 		movq	%fs:40, %rax
GAS LISTING /tmp/ccXUIBQd.s 			page 11


 377      25280000 
 377      00
 378 0019 488945F8 		movq	%rax, -8(%rbp)
 379 001d 31C0     		xorl	%eax, %eax
 120:/home/xingli/share/LiteOS_Lab/network/mqtt/mqtt_al/mqtt_al.c ****     int ret = -1;
 380              		.loc 1 120 9
 381 001f C745F4FF 		movl	$-1, -12(%rbp)
 381      FFFFFF
 121:/home/xingli/share/LiteOS_Lab/network/mqtt/mqtt_al/mqtt_al.c **** 
 122:/home/xingli/share/LiteOS_Lab/network/mqtt/mqtt_al/mqtt_al.c ****     if ((NULL != handle) && (NULL != s_mqtt_al_op_cb.ops) && (NULL != s_mqtt_al_op_cb.ops->disconne
 382              		.loc 1 122 8
 383 0026 48837DE8 		cmpq	$0, -24(%rbp)
 383      00
 384 002b 7433     		je	.L25
 385              		.loc 1 122 53 discriminator 1
 386 002d 488B0500 		movq	s_mqtt_al_op_cb(%rip), %rax
 386      000000
 387              		.loc 1 122 26 discriminator 1
 388 0034 4885C0   		testq	%rax, %rax
 389 0037 7427     		je	.L25
 390              		.loc 1 122 86 discriminator 2
 391 0039 488B0500 		movq	s_mqtt_al_op_cb(%rip), %rax
 391      000000
 392              		.loc 1 122 90 discriminator 2
 393 0040 488B4008 		movq	8(%rax), %rax
 394              		.loc 1 122 59 discriminator 2
 395 0044 4885C0   		testq	%rax, %rax
 396 0047 7417     		je	.L25
 123:/home/xingli/share/LiteOS_Lab/network/mqtt/mqtt_al/mqtt_al.c ****         ret = s_mqtt_al_op_cb.ops->disconnect(handle);
 397              		.loc 1 123 30
 398 0049 488B0500 		movq	s_mqtt_al_op_cb(%rip), %rax
 398      000000
 399              		.loc 1 123 34
 400 0050 488B5008 		movq	8(%rax), %rdx
 401              		.loc 1 123 15
 402 0054 488B45E8 		movq	-24(%rbp), %rax
 403 0058 4889C7   		movq	%rax, %rdi
 404 005b FFD2     		call	*%rdx
 405              	.LVL1:
 406 005d 8945F4   		movl	%eax, -12(%rbp)
 407              	.L25:
 124:/home/xingli/share/LiteOS_Lab/network/mqtt/mqtt_al/mqtt_al.c ****     }
 125:/home/xingli/share/LiteOS_Lab/network/mqtt/mqtt_al/mqtt_al.c **** 
 126:/home/xingli/share/LiteOS_Lab/network/mqtt/mqtt_al/mqtt_al.c ****     return ret;
 408              		.loc 1 126 12
 409 0060 8B45F4   		movl	-12(%rbp), %eax
 127:/home/xingli/share/LiteOS_Lab/network/mqtt/mqtt_al/mqtt_al.c **** }
 410              		.loc 1 127 1
 411 0063 488B4DF8 		movq	-8(%rbp), %rcx
 412 0067 6448330C 		xorq	%fs:40, %rcx
 412      25280000 
 412      00
 413 0070 7405     		je	.L27
 414 0072 E8000000 		call	__stack_chk_fail@PLT
 414      00
 415              	.L27:
 416 0077 C9       		leave
GAS LISTING /tmp/ccXUIBQd.s 			page 12


 417              	.LCFI20:
 418              		.cfi_def_cfa 7, 8
 419 0078 C3       		ret
 420              		.cfi_endproc
 421              	.LFE6:
 423              		.section	.text.mqtt_al_publish,"ax",@progbits
 424              		.globl	mqtt_al_publish
 426              	mqtt_al_publish:
 427              	.LFB7:
 128:/home/xingli/share/LiteOS_Lab/network/mqtt/mqtt_al/mqtt_al.c **** 
 129:/home/xingli/share/LiteOS_Lab/network/mqtt/mqtt_al/mqtt_al.c **** int mqtt_al_publish(void *handle, mqtt_al_pubpara_t *pubpara)
 130:/home/xingli/share/LiteOS_Lab/network/mqtt/mqtt_al/mqtt_al.c **** {
 428              		.loc 1 130 1
 429              		.cfi_startproc
 430 0000 F30F1EFA 		endbr64
 431 0004 55       		pushq	%rbp
 432              	.LCFI21:
 433              		.cfi_def_cfa_offset 16
 434              		.cfi_offset 6, -16
 435 0005 4889E5   		movq	%rsp, %rbp
 436              	.LCFI22:
 437              		.cfi_def_cfa_register 6
 438 0008 4883EC20 		subq	$32, %rsp
 439 000c 48897DE8 		movq	%rdi, -24(%rbp)
 440 0010 488975E0 		movq	%rsi, -32(%rbp)
 441              		.loc 1 130 1
 442 0014 64488B04 		movq	%fs:40, %rax
 442      25280000 
 442      00
 443 001d 488945F8 		movq	%rax, -8(%rbp)
 444 0021 31C0     		xorl	%eax, %eax
 131:/home/xingli/share/LiteOS_Lab/network/mqtt/mqtt_al/mqtt_al.c ****     int ret = -1;
 445              		.loc 1 131 9
 446 0023 C745F4FF 		movl	$-1, -12(%rbp)
 446      FFFFFF
 132:/home/xingli/share/LiteOS_Lab/network/mqtt/mqtt_al/mqtt_al.c **** 
 133:/home/xingli/share/LiteOS_Lab/network/mqtt/mqtt_al/mqtt_al.c ****     if ((NULL != handle) && (NULL != pubpara) && (NULL != s_mqtt_al_op_cb.ops) &&
 447              		.loc 1 133 8
 448 002a 48837DE8 		cmpq	$0, -24(%rbp)
 448      00
 449 002f 7441     		je	.L29
 450              		.loc 1 133 26 discriminator 1
 451 0031 48837DE0 		cmpq	$0, -32(%rbp)
 451      00
 452 0036 743A     		je	.L29
 453              		.loc 1 133 74 discriminator 2
 454 0038 488B0500 		movq	s_mqtt_al_op_cb(%rip), %rax
 454      000000
 455              		.loc 1 133 47 discriminator 2
 456 003f 4885C0   		testq	%rax, %rax
 457 0042 742E     		je	.L29
 134:/home/xingli/share/LiteOS_Lab/network/mqtt/mqtt_al/mqtt_al.c ****         (NULL != s_mqtt_al_op_cb.ops->publish)) {
 458              		.loc 1 134 33 discriminator 3
 459 0044 488B0500 		movq	s_mqtt_al_op_cb(%rip), %rax
 459      000000
 460              		.loc 1 134 37 discriminator 3
 461 004b 488B4010 		movq	16(%rax), %rax
GAS LISTING /tmp/ccXUIBQd.s 			page 13


 133:/home/xingli/share/LiteOS_Lab/network/mqtt/mqtt_al/mqtt_al.c ****         (NULL != s_mqtt_al_op_cb.ops->publish)) {
 462              		.loc 1 133 80 discriminator 3
 463 004f 4885C0   		testq	%rax, %rax
 464 0052 741E     		je	.L29
 135:/home/xingli/share/LiteOS_Lab/network/mqtt/mqtt_al/mqtt_al.c ****         ret = s_mqtt_al_op_cb.ops->publish(handle, pubpara);
 465              		.loc 1 135 30
 466 0054 488B0500 		movq	s_mqtt_al_op_cb(%rip), %rax
 466      000000
 467              		.loc 1 135 34
 468 005b 488B4810 		movq	16(%rax), %rcx
 469              		.loc 1 135 15
 470 005f 488B55E0 		movq	-32(%rbp), %rdx
 471 0063 488B45E8 		movq	-24(%rbp), %rax
 472 0067 4889D6   		movq	%rdx, %rsi
 473 006a 4889C7   		movq	%rax, %rdi
 474 006d FFD1     		call	*%rcx
 475              	.LVL2:
 476 006f 8945F4   		movl	%eax, -12(%rbp)
 477              	.L29:
 136:/home/xingli/share/LiteOS_Lab/network/mqtt/mqtt_al/mqtt_al.c ****     }
 137:/home/xingli/share/LiteOS_Lab/network/mqtt/mqtt_al/mqtt_al.c **** 
 138:/home/xingli/share/LiteOS_Lab/network/mqtt/mqtt_al/mqtt_al.c ****     return ret;
 478              		.loc 1 138 12
 479 0072 8B45F4   		movl	-12(%rbp), %eax
 139:/home/xingli/share/LiteOS_Lab/network/mqtt/mqtt_al/mqtt_al.c **** }
 480              		.loc 1 139 1
 481 0075 488B55F8 		movq	-8(%rbp), %rdx
 482 0079 64483314 		xorq	%fs:40, %rdx
 482      25280000 
 482      00
 483 0082 7405     		je	.L31
 484 0084 E8000000 		call	__stack_chk_fail@PLT
 484      00
 485              	.L31:
 486 0089 C9       		leave
 487              	.LCFI23:
 488              		.cfi_def_cfa 7, 8
 489 008a C3       		ret
 490              		.cfi_endproc
 491              	.LFE7:
 493              		.section	.text.mqtt_al_subscribe,"ax",@progbits
 494              		.globl	mqtt_al_subscribe
 496              	mqtt_al_subscribe:
 497              	.LFB8:
 140:/home/xingli/share/LiteOS_Lab/network/mqtt/mqtt_al/mqtt_al.c **** 
 141:/home/xingli/share/LiteOS_Lab/network/mqtt/mqtt_al/mqtt_al.c **** int mqtt_al_subscribe(void *handle, mqtt_al_subpara_t *subpara)
 142:/home/xingli/share/LiteOS_Lab/network/mqtt/mqtt_al/mqtt_al.c **** {
 498              		.loc 1 142 1
 499              		.cfi_startproc
 500 0000 F30F1EFA 		endbr64
 501 0004 55       		pushq	%rbp
 502              	.LCFI24:
 503              		.cfi_def_cfa_offset 16
 504              		.cfi_offset 6, -16
 505 0005 4889E5   		movq	%rsp, %rbp
 506              	.LCFI25:
 507              		.cfi_def_cfa_register 6
GAS LISTING /tmp/ccXUIBQd.s 			page 14


 508 0008 4883EC20 		subq	$32, %rsp
 509 000c 48897DE8 		movq	%rdi, -24(%rbp)
 510 0010 488975E0 		movq	%rsi, -32(%rbp)
 511              		.loc 1 142 1
 512 0014 64488B04 		movq	%fs:40, %rax
 512      25280000 
 512      00
 513 001d 488945F8 		movq	%rax, -8(%rbp)
 514 0021 31C0     		xorl	%eax, %eax
 143:/home/xingli/share/LiteOS_Lab/network/mqtt/mqtt_al/mqtt_al.c ****     int ret = -1;
 515              		.loc 1 143 9
 516 0023 C745F4FF 		movl	$-1, -12(%rbp)
 516      FFFFFF
 144:/home/xingli/share/LiteOS_Lab/network/mqtt/mqtt_al/mqtt_al.c **** 
 145:/home/xingli/share/LiteOS_Lab/network/mqtt/mqtt_al/mqtt_al.c ****     if ((NULL != handle) && (NULL != subpara) && (NULL != s_mqtt_al_op_cb.ops) &&
 517              		.loc 1 145 8
 518 002a 48837DE8 		cmpq	$0, -24(%rbp)
 518      00
 519 002f 7441     		je	.L33
 520              		.loc 1 145 26 discriminator 1
 521 0031 48837DE0 		cmpq	$0, -32(%rbp)
 521      00
 522 0036 743A     		je	.L33
 523              		.loc 1 145 74 discriminator 2
 524 0038 488B0500 		movq	s_mqtt_al_op_cb(%rip), %rax
 524      000000
 525              		.loc 1 145 47 discriminator 2
 526 003f 4885C0   		testq	%rax, %rax
 527 0042 742E     		je	.L33
 146:/home/xingli/share/LiteOS_Lab/network/mqtt/mqtt_al/mqtt_al.c ****         (NULL != s_mqtt_al_op_cb.ops->subscribe)) {
 528              		.loc 1 146 33 discriminator 3
 529 0044 488B0500 		movq	s_mqtt_al_op_cb(%rip), %rax
 529      000000
 530              		.loc 1 146 37 discriminator 3
 531 004b 488B4018 		movq	24(%rax), %rax
 145:/home/xingli/share/LiteOS_Lab/network/mqtt/mqtt_al/mqtt_al.c ****         (NULL != s_mqtt_al_op_cb.ops->subscribe)) {
 532              		.loc 1 145 80 discriminator 3
 533 004f 4885C0   		testq	%rax, %rax
 534 0052 741E     		je	.L33
 147:/home/xingli/share/LiteOS_Lab/network/mqtt/mqtt_al/mqtt_al.c ****         ret = s_mqtt_al_op_cb.ops->subscribe(handle, subpara);
 535              		.loc 1 147 30
 536 0054 488B0500 		movq	s_mqtt_al_op_cb(%rip), %rax
 536      000000
 537              		.loc 1 147 34
 538 005b 488B4818 		movq	24(%rax), %rcx
 539              		.loc 1 147 15
 540 005f 488B55E0 		movq	-32(%rbp), %rdx
 541 0063 488B45E8 		movq	-24(%rbp), %rax
 542 0067 4889D6   		movq	%rdx, %rsi
 543 006a 4889C7   		movq	%rax, %rdi
 544 006d FFD1     		call	*%rcx
 545              	.LVL3:
 546 006f 8945F4   		movl	%eax, -12(%rbp)
 547              	.L33:
 148:/home/xingli/share/LiteOS_Lab/network/mqtt/mqtt_al/mqtt_al.c ****     }
 149:/home/xingli/share/LiteOS_Lab/network/mqtt/mqtt_al/mqtt_al.c **** 
 150:/home/xingli/share/LiteOS_Lab/network/mqtt/mqtt_al/mqtt_al.c ****     return ret;
GAS LISTING /tmp/ccXUIBQd.s 			page 15


 548              		.loc 1 150 12
 549 0072 8B45F4   		movl	-12(%rbp), %eax
 151:/home/xingli/share/LiteOS_Lab/network/mqtt/mqtt_al/mqtt_al.c **** }
 550              		.loc 1 151 1
 551 0075 488B55F8 		movq	-8(%rbp), %rdx
 552 0079 64483314 		xorq	%fs:40, %rdx
 552      25280000 
 552      00
 553 0082 7405     		je	.L35
 554 0084 E8000000 		call	__stack_chk_fail@PLT
 554      00
 555              	.L35:
 556 0089 C9       		leave
 557              	.LCFI26:
 558              		.cfi_def_cfa 7, 8
 559 008a C3       		ret
 560              		.cfi_endproc
 561              	.LFE8:
 563              		.section	.text.mqtt_al_unsubscribe,"ax",@progbits
 564              		.globl	mqtt_al_unsubscribe
 566              	mqtt_al_unsubscribe:
 567              	.LFB9:
 152:/home/xingli/share/LiteOS_Lab/network/mqtt/mqtt_al/mqtt_al.c **** 
 153:/home/xingli/share/LiteOS_Lab/network/mqtt/mqtt_al/mqtt_al.c **** int mqtt_al_unsubscribe(void *handle, mqtt_al_unsubpara_t *unsubpara)
 154:/home/xingli/share/LiteOS_Lab/network/mqtt/mqtt_al/mqtt_al.c **** {
 568              		.loc 1 154 1
 569              		.cfi_startproc
 570 0000 F30F1EFA 		endbr64
 571 0004 55       		pushq	%rbp
 572              	.LCFI27:
 573              		.cfi_def_cfa_offset 16
 574              		.cfi_offset 6, -16
 575 0005 4889E5   		movq	%rsp, %rbp
 576              	.LCFI28:
 577              		.cfi_def_cfa_register 6
 578 0008 4883EC20 		subq	$32, %rsp
 579 000c 48897DE8 		movq	%rdi, -24(%rbp)
 580 0010 488975E0 		movq	%rsi, -32(%rbp)
 581              		.loc 1 154 1
 582 0014 64488B04 		movq	%fs:40, %rax
 582      25280000 
 582      00
 583 001d 488945F8 		movq	%rax, -8(%rbp)
 584 0021 31C0     		xorl	%eax, %eax
 155:/home/xingli/share/LiteOS_Lab/network/mqtt/mqtt_al/mqtt_al.c ****     int ret = -1;
 585              		.loc 1 155 9
 586 0023 C745F4FF 		movl	$-1, -12(%rbp)
 586      FFFFFF
 156:/home/xingli/share/LiteOS_Lab/network/mqtt/mqtt_al/mqtt_al.c **** 
 157:/home/xingli/share/LiteOS_Lab/network/mqtt/mqtt_al/mqtt_al.c ****     if ((NULL != handle) && (NULL != unsubpara) && (NULL != s_mqtt_al_op_cb.ops) &&
 587              		.loc 1 157 8
 588 002a 48837DE8 		cmpq	$0, -24(%rbp)
 588      00
 589 002f 7441     		je	.L37
 590              		.loc 1 157 26 discriminator 1
 591 0031 48837DE0 		cmpq	$0, -32(%rbp)
 591      00
GAS LISTING /tmp/ccXUIBQd.s 			page 16


 592 0036 743A     		je	.L37
 593              		.loc 1 157 76 discriminator 2
 594 0038 488B0500 		movq	s_mqtt_al_op_cb(%rip), %rax
 594      000000
 595              		.loc 1 157 49 discriminator 2
 596 003f 4885C0   		testq	%rax, %rax
 597 0042 742E     		je	.L37
 158:/home/xingli/share/LiteOS_Lab/network/mqtt/mqtt_al/mqtt_al.c ****         (NULL != s_mqtt_al_op_cb.ops->unsubscribe)) {
 598              		.loc 1 158 33 discriminator 3
 599 0044 488B0500 		movq	s_mqtt_al_op_cb(%rip), %rax
 599      000000
 600              		.loc 1 158 37 discriminator 3
 601 004b 488B4020 		movq	32(%rax), %rax
 157:/home/xingli/share/LiteOS_Lab/network/mqtt/mqtt_al/mqtt_al.c ****         (NULL != s_mqtt_al_op_cb.ops->unsubscribe)) {
 602              		.loc 1 157 82 discriminator 3
 603 004f 4885C0   		testq	%rax, %rax
 604 0052 741E     		je	.L37
 159:/home/xingli/share/LiteOS_Lab/network/mqtt/mqtt_al/mqtt_al.c ****         ret = s_mqtt_al_op_cb.ops->unsubscribe(handle, unsubpara);
 605              		.loc 1 159 30
 606 0054 488B0500 		movq	s_mqtt_al_op_cb(%rip), %rax
 606      000000
 607              		.loc 1 159 34
 608 005b 488B4820 		movq	32(%rax), %rcx
 609              		.loc 1 159 15
 610 005f 488B55E0 		movq	-32(%rbp), %rdx
 611 0063 488B45E8 		movq	-24(%rbp), %rax
 612 0067 4889D6   		movq	%rdx, %rsi
 613 006a 4889C7   		movq	%rax, %rdi
 614 006d FFD1     		call	*%rcx
 615              	.LVL4:
 616 006f 8945F4   		movl	%eax, -12(%rbp)
 617              	.L37:
 160:/home/xingli/share/LiteOS_Lab/network/mqtt/mqtt_al/mqtt_al.c ****     }
 161:/home/xingli/share/LiteOS_Lab/network/mqtt/mqtt_al/mqtt_al.c **** 
 162:/home/xingli/share/LiteOS_Lab/network/mqtt/mqtt_al/mqtt_al.c ****     return ret;
 618              		.loc 1 162 12
 619 0072 8B45F4   		movl	-12(%rbp), %eax
 163:/home/xingli/share/LiteOS_Lab/network/mqtt/mqtt_al/mqtt_al.c **** }
 620              		.loc 1 163 1
 621 0075 488B55F8 		movq	-8(%rbp), %rdx
 622 0079 64483314 		xorq	%fs:40, %rdx
 622      25280000 
 622      00
 623 0082 7405     		je	.L39
 624 0084 E8000000 		call	__stack_chk_fail@PLT
 624      00
 625              	.L39:
 626 0089 C9       		leave
 627              	.LCFI29:
 628              		.cfi_def_cfa 7, 8
 629 008a C3       		ret
 630              		.cfi_endproc
 631              	.LFE9:
 633              		.section	.text.mqtt_al_check_status,"ax",@progbits
 634              		.globl	mqtt_al_check_status
 636              	mqtt_al_check_status:
 637              	.LFB10:
GAS LISTING /tmp/ccXUIBQd.s 			page 17


 164:/home/xingli/share/LiteOS_Lab/network/mqtt/mqtt_al/mqtt_al.c **** 
 165:/home/xingli/share/LiteOS_Lab/network/mqtt/mqtt_al/mqtt_al.c **** en_mqtt_al_connect_state mqtt_al_check_status(void *handle)
 166:/home/xingli/share/LiteOS_Lab/network/mqtt/mqtt_al/mqtt_al.c **** {
 638              		.loc 1 166 1
 639              		.cfi_startproc
 640 0000 F30F1EFA 		endbr64
 641 0004 55       		pushq	%rbp
 642              	.LCFI30:
 643              		.cfi_def_cfa_offset 16
 644              		.cfi_offset 6, -16
 645 0005 4889E5   		movq	%rsp, %rbp
 646              	.LCFI31:
 647              		.cfi_def_cfa_register 6
 648 0008 4883EC20 		subq	$32, %rsp
 649 000c 48897DE8 		movq	%rdi, -24(%rbp)
 650              		.loc 1 166 1
 651 0010 64488B04 		movq	%fs:40, %rax
 651      25280000 
 651      00
 652 0019 488945F8 		movq	%rax, -8(%rbp)
 653 001d 31C0     		xorl	%eax, %eax
 167:/home/xingli/share/LiteOS_Lab/network/mqtt/mqtt_al/mqtt_al.c ****     en_mqtt_al_connect_state ret = en_mqtt_al_connect_err;
 654              		.loc 1 167 30
 655 001f C745F401 		movl	$1, -12(%rbp)
 655      000000
 168:/home/xingli/share/LiteOS_Lab/network/mqtt/mqtt_al/mqtt_al.c **** 
 169:/home/xingli/share/LiteOS_Lab/network/mqtt/mqtt_al/mqtt_al.c ****     if ((NULL != handle) && (NULL != s_mqtt_al_op_cb.ops) && (NULL != s_mqtt_al_op_cb.ops->check_st
 656              		.loc 1 169 8
 657 0026 48837DE8 		cmpq	$0, -24(%rbp)
 657      00
 658 002b 7433     		je	.L41
 659              		.loc 1 169 53 discriminator 1
 660 002d 488B0500 		movq	s_mqtt_al_op_cb(%rip), %rax
 660      000000
 661              		.loc 1 169 26 discriminator 1
 662 0034 4885C0   		testq	%rax, %rax
 663 0037 7427     		je	.L41
 664              		.loc 1 169 86 discriminator 2
 665 0039 488B0500 		movq	s_mqtt_al_op_cb(%rip), %rax
 665      000000
 666              		.loc 1 169 90 discriminator 2
 667 0040 488B4028 		movq	40(%rax), %rax
 668              		.loc 1 169 59 discriminator 2
 669 0044 4885C0   		testq	%rax, %rax
 670 0047 7417     		je	.L41
 170:/home/xingli/share/LiteOS_Lab/network/mqtt/mqtt_al/mqtt_al.c ****         ret = s_mqtt_al_op_cb.ops->check_status(handle);
 671              		.loc 1 170 30
 672 0049 488B0500 		movq	s_mqtt_al_op_cb(%rip), %rax
 672      000000
 673              		.loc 1 170 34
 674 0050 488B5028 		movq	40(%rax), %rdx
 675              		.loc 1 170 15
 676 0054 488B45E8 		movq	-24(%rbp), %rax
 677 0058 4889C7   		movq	%rax, %rdi
 678 005b FFD2     		call	*%rdx
 679              	.LVL5:
 680 005d 8945F4   		movl	%eax, -12(%rbp)
GAS LISTING /tmp/ccXUIBQd.s 			page 18


 681              	.L41:
 171:/home/xingli/share/LiteOS_Lab/network/mqtt/mqtt_al/mqtt_al.c ****     }
 172:/home/xingli/share/LiteOS_Lab/network/mqtt/mqtt_al/mqtt_al.c **** 
 173:/home/xingli/share/LiteOS_Lab/network/mqtt/mqtt_al/mqtt_al.c ****     return ret;
 682              		.loc 1 173 12
 683 0060 8B45F4   		movl	-12(%rbp), %eax
 174:/home/xingli/share/LiteOS_Lab/network/mqtt/mqtt_al/mqtt_al.c **** }
 684              		.loc 1 174 1
 685 0063 488B4DF8 		movq	-8(%rbp), %rcx
 686 0067 6448330C 		xorq	%fs:40, %rcx
 686      25280000 
 686      00
 687 0070 7405     		je	.L43
 688 0072 E8000000 		call	__stack_chk_fail@PLT
 688      00
 689              	.L43:
 690 0077 C9       		leave
 691              	.LCFI32:
 692              		.cfi_def_cfa 7, 8
 693 0078 C3       		ret
 694              		.cfi_endproc
 695              	.LFE10:
 697              		.section	.rodata.__FUNCTION__.2592,"a"
 698              		.align 8
 701              	__FUNCTION__.2592:
 702 0000 6D717474 		.string	"mqtt_imp_init"
 702      5F696D70 
 702      5F696E69 
 702      7400
 703              		.section	.rodata.__FUNCTION__.2597,"a"
 704              		.align 8
 707              	__FUNCTION__.2597:
 708 0000 6D717474 		.string	"mqtt_al_init"
 708      5F616C5F 
 708      696E6974 
 708      00
 709              		.text
 710              	.Letext0:
 711              		.file 2 "/usr/include/x86_64-linux-gnu/bits/types.h"
 712              		.file 3 "/usr/include/x86_64-linux-gnu/bits/stdint-uintn.h"
 713              		.file 4 "/usr/lib/gcc/x86_64-linux-gnu/9/include/stddef.h"
 714              		.file 5 "/usr/include/x86_64-linux-gnu/bits/types/struct_FILE.h"
 715              		.file 6 "/usr/include/x86_64-linux-gnu/bits/types/FILE.h"
 716              		.file 7 "/usr/include/stdio.h"
 717              		.file 8 "/usr/include/x86_64-linux-gnu/bits/sys_errlist.h"
 718              		.file 9 "/home/xingli/share/LiteOS_Lab/inc/link_log.h"
 719              		.file 10 "/home/xingli/share/LiteOS_Lab/inc/dtls_al.h"
 720              		.file 11 "/home/xingli/share/LiteOS_Lab/inc/mqtt_al.h"
 3587              		.section	.note.gnu.property,"a"
 3588              		.align 8
 3589 0000 04000000 		.long	 1f - 0f
 3590 0004 10000000 		.long	 4f - 1f
 3591 0008 05000000 		.long	 5
 3592              	0:
 3593 000c 474E5500 		.string	 "GNU"
 3594              	1:
 3595              		.align 8
GAS LISTING /tmp/ccXUIBQd.s 			page 19


 3596 0010 020000C0 		.long	 0xc0000002
 3597 0014 04000000 		.long	 3f - 2f
 3598              	2:
 3599 0018 03000000 		.long	 0x3
 3600              	3:
 3601 001c 00000000 		.align 8
 3602              	4:
GAS LISTING /tmp/ccXUIBQd.s 			page 20

