ARM GAS  C:\Users\ADMINI~1\AppData\Local\Temp\ccCHwVqd.s 			page 1


   1              		.cpu cortex-m4
   2              		.eabi_attribute 27, 1
   3              		.eabi_attribute 28, 1
   4              		.eabi_attribute 20, 1
   5              		.eabi_attribute 21, 1
   6              		.eabi_attribute 23, 3
   7              		.eabi_attribute 24, 1
   8              		.eabi_attribute 25, 1
   9              		.eabi_attribute 26, 1
  10              		.eabi_attribute 30, 6
  11              		.eabi_attribute 34, 1
  12              		.eabi_attribute 18, 4
  13              		.file	"hal_rng.c"
  14              		.text
  15              	.Ltext0:
  16              		.cfi_sections	.debug_frame
  17              		.comm	g_rng_handle,12,4
  18              		.section	.text.hal_rng_config,"ax",%progbits
  19              		.align	1
  20              		.global	hal_rng_config
  21              		.arch armv7e-m
  22              		.syntax unified
  23              		.thumb
  24              		.thumb_func
  25              		.fpu fpv4-sp-d16
  27              	hal_rng_config:
  28              	.LFB287:
  29              		.file 1 "d:/LiteOS_Lab/targets/STM32L431VCT6_Bossay/Hardware/Src/hal_rng.c"
   1:d:/LiteOS_Lab/targets/STM32L431VCT6_Bossay/Hardware/Src\hal_rng.c **** /*----------------------------------------------------------------------------
   2:d:/LiteOS_Lab/targets/STM32L431VCT6_Bossay/Hardware/Src\hal_rng.c ****  * Copyright (c) <2016-2018>, <Huawei Technologies Co., Ltd>
   3:d:/LiteOS_Lab/targets/STM32L431VCT6_Bossay/Hardware/Src\hal_rng.c ****  * All rights reserved.
   4:d:/LiteOS_Lab/targets/STM32L431VCT6_Bossay/Hardware/Src\hal_rng.c ****  * Redistribution and use in source and binary forms, with or without modification,
   5:d:/LiteOS_Lab/targets/STM32L431VCT6_Bossay/Hardware/Src\hal_rng.c ****  * are permitted provided that the following conditions are met:
   6:d:/LiteOS_Lab/targets/STM32L431VCT6_Bossay/Hardware/Src\hal_rng.c ****  * 1. Redistributions of source code must retain the above copyright notice, this list of
   7:d:/LiteOS_Lab/targets/STM32L431VCT6_Bossay/Hardware/Src\hal_rng.c ****  * conditions and the following disclaimer.
   8:d:/LiteOS_Lab/targets/STM32L431VCT6_Bossay/Hardware/Src\hal_rng.c ****  * 2. Redistributions in binary form must reproduce the above copyright notice, this list
   9:d:/LiteOS_Lab/targets/STM32L431VCT6_Bossay/Hardware/Src\hal_rng.c ****  * of conditions and the following disclaimer in the documentation and/or other materials
  10:d:/LiteOS_Lab/targets/STM32L431VCT6_Bossay/Hardware/Src\hal_rng.c ****  * provided with the distribution.
  11:d:/LiteOS_Lab/targets/STM32L431VCT6_Bossay/Hardware/Src\hal_rng.c ****  * 3. Neither the name of the copyright holder nor the names of its contributors may be used
  12:d:/LiteOS_Lab/targets/STM32L431VCT6_Bossay/Hardware/Src\hal_rng.c ****  * to endorse or promote products derived from this software without specific prior written
  13:d:/LiteOS_Lab/targets/STM32L431VCT6_Bossay/Hardware/Src\hal_rng.c ****  * permission.
  14:d:/LiteOS_Lab/targets/STM32L431VCT6_Bossay/Hardware/Src\hal_rng.c ****  * THIS SOFTWARE IS PROVIDED BY THE COPYRIGHT HOLDERS AND CONTRIBUTORS
  15:d:/LiteOS_Lab/targets/STM32L431VCT6_Bossay/Hardware/Src\hal_rng.c ****  * "AS IS" AND ANY EXPRESS OR IMPLIED WARRANTIES, INCLUDING, BUT NOT LIMITED TO,
  16:d:/LiteOS_Lab/targets/STM32L431VCT6_Bossay/Hardware/Src\hal_rng.c ****  * THE IMPLIED WARRANTIES OF MERCHANTABILITY AND FITNESS FOR A PARTICULAR
  17:d:/LiteOS_Lab/targets/STM32L431VCT6_Bossay/Hardware/Src\hal_rng.c ****  * PURPOSE ARE DISCLAIMED. IN NO EVENT SHALL THE COPYRIGHT HOLDER OR
  18:d:/LiteOS_Lab/targets/STM32L431VCT6_Bossay/Hardware/Src\hal_rng.c ****  * CONTRIBUTORS BE LIABLE FOR ANY DIRECT, INDIRECT, INCIDENTAL, SPECIAL,
  19:d:/LiteOS_Lab/targets/STM32L431VCT6_Bossay/Hardware/Src\hal_rng.c ****  * EXEMPLARY, OR CONSEQUENTIAL DAMAGES (INCLUDING, BUT NOT LIMITED TO,
  20:d:/LiteOS_Lab/targets/STM32L431VCT6_Bossay/Hardware/Src\hal_rng.c ****  * PROCUREMENT OF SUBSTITUTE GOODS OR SERVICES; LOSS OF USE, DATA, OR PROFITS;
  21:d:/LiteOS_Lab/targets/STM32L431VCT6_Bossay/Hardware/Src\hal_rng.c ****  * OR BUSINESS INTERRUPTION) HOWEVER CAUSED AND ON ANY THEORY OF LIABILITY,
  22:d:/LiteOS_Lab/targets/STM32L431VCT6_Bossay/Hardware/Src\hal_rng.c ****  * WHETHER IN CONTRACT, STRICT LIABILITY, OR TORT (INCLUDING NEGLIGENCE OR
  23:d:/LiteOS_Lab/targets/STM32L431VCT6_Bossay/Hardware/Src\hal_rng.c ****  * OTHERWISE) ARISING IN ANY WAY OUT OF THE USE OF THIS SOFTWARE, EVEN IF
  24:d:/LiteOS_Lab/targets/STM32L431VCT6_Bossay/Hardware/Src\hal_rng.c ****  * ADVISED OF THE POSSIBILITY OF SUCH DAMAGE.
  25:d:/LiteOS_Lab/targets/STM32L431VCT6_Bossay/Hardware/Src\hal_rng.c ****  *---------------------------------------------------------------------------*/
  26:d:/LiteOS_Lab/targets/STM32L431VCT6_Bossay/Hardware/Src\hal_rng.c **** /*----------------------------------------------------------------------------
  27:d:/LiteOS_Lab/targets/STM32L431VCT6_Bossay/Hardware/Src\hal_rng.c ****  * Notice of Export Control Law
  28:d:/LiteOS_Lab/targets/STM32L431VCT6_Bossay/Hardware/Src\hal_rng.c ****  * ===============================================
  29:d:/LiteOS_Lab/targets/STM32L431VCT6_Bossay/Hardware/Src\hal_rng.c ****  * Huawei LiteOS may be subject to applicable export control laws and regulations, which might
ARM GAS  C:\Users\ADMINI~1\AppData\Local\Temp\ccCHwVqd.s 			page 2


  30:d:/LiteOS_Lab/targets/STM32L431VCT6_Bossay/Hardware/Src\hal_rng.c ****  * include those applicable to Huawei LiteOS of U.S. and the country in which you are located.
  31:d:/LiteOS_Lab/targets/STM32L431VCT6_Bossay/Hardware/Src\hal_rng.c ****  * Import, export and usage of Huawei LiteOS in any manner by you shall be in compliance with such
  32:d:/LiteOS_Lab/targets/STM32L431VCT6_Bossay/Hardware/Src\hal_rng.c ****  * applicable export control laws and regulations.
  33:d:/LiteOS_Lab/targets/STM32L431VCT6_Bossay/Hardware/Src\hal_rng.c ****  *---------------------------------------------------------------------------*/
  34:d:/LiteOS_Lab/targets/STM32L431VCT6_Bossay/Hardware/Src\hal_rng.c **** 
  35:d:/LiteOS_Lab/targets/STM32L431VCT6_Bossay/Hardware/Src\hal_rng.c **** #include <string.h>
  36:d:/LiteOS_Lab/targets/STM32L431VCT6_Bossay/Hardware/Src\hal_rng.c **** #include "hal_rng.h"
  37:d:/LiteOS_Lab/targets/STM32L431VCT6_Bossay/Hardware/Src\hal_rng.c **** #include "stm32l4xx.h"
  38:d:/LiteOS_Lab/targets/STM32L431VCT6_Bossay/Hardware/Src\hal_rng.c **** #include "stm32l4xx_hal_rng.h"
  39:d:/LiteOS_Lab/targets/STM32L431VCT6_Bossay/Hardware/Src\hal_rng.c **** 
  40:d:/LiteOS_Lab/targets/STM32L431VCT6_Bossay/Hardware/Src\hal_rng.c **** #ifdef HAL_RNG_MODULE_ENABLED
  41:d:/LiteOS_Lab/targets/STM32L431VCT6_Bossay/Hardware/Src\hal_rng.c **** 
  42:d:/LiteOS_Lab/targets/STM32L431VCT6_Bossay/Hardware/Src\hal_rng.c **** RNG_HandleTypeDef g_rng_handle;
  43:d:/LiteOS_Lab/targets/STM32L431VCT6_Bossay/Hardware/Src\hal_rng.c **** 
  44:d:/LiteOS_Lab/targets/STM32L431VCT6_Bossay/Hardware/Src\hal_rng.c **** void hal_rng_config(void)
  45:d:/LiteOS_Lab/targets/STM32L431VCT6_Bossay/Hardware/Src\hal_rng.c **** {
  30              		.loc 1 45 1
  31              		.cfi_startproc
  32              		@ args = 0, pretend = 0, frame = 8
  33              		@ frame_needed = 1, uses_anonymous_args = 0
  34 0000 80B5     		push	{r7, lr}
  35              	.LCFI0:
  36              		.cfi_def_cfa_offset 8
  37              		.cfi_offset 7, -8
  38              		.cfi_offset 14, -4
  39 0002 82B0     		sub	sp, sp, #8
  40              	.LCFI1:
  41              		.cfi_def_cfa_offset 16
  42 0004 00AF     		add	r7, sp, #0
  43              	.LCFI2:
  44              		.cfi_def_cfa_register 7
  45              	.LBB2:
  46:d:/LiteOS_Lab/targets/STM32L431VCT6_Bossay/Hardware/Src\hal_rng.c ****     __HAL_RCC_RNG_CLK_ENABLE();
  46              		.loc 1 46 5
  47 0006 0B4B     		ldr	r3, .L2
  48 0008 DB6C     		ldr	r3, [r3, #76]
  49 000a 0A4A     		ldr	r2, .L2
  50 000c 43F48023 		orr	r3, r3, #262144
  51 0010 D364     		str	r3, [r2, #76]
  52 0012 084B     		ldr	r3, .L2
  53 0014 DB6C     		ldr	r3, [r3, #76]
  54 0016 03F48023 		and	r3, r3, #262144
  55 001a 7B60     		str	r3, [r7, #4]
  56 001c 7B68     		ldr	r3, [r7, #4]
  57              	.LBE2:
  47:d:/LiteOS_Lab/targets/STM32L431VCT6_Bossay/Hardware/Src\hal_rng.c ****     g_rng_handle.Instance = RNG;
  58              		.loc 1 47 27
  59 001e 064B     		ldr	r3, .L2+4
  60 0020 064A     		ldr	r2, .L2+8
  61 0022 1A60     		str	r2, [r3]
  48:d:/LiteOS_Lab/targets/STM32L431VCT6_Bossay/Hardware/Src\hal_rng.c ****     (void)HAL_RNG_Init(&g_rng_handle);
  62              		.loc 1 48 11
  63 0024 0448     		ldr	r0, .L2+4
  64 0026 FFF7FEFF 		bl	HAL_RNG_Init
  49:d:/LiteOS_Lab/targets/STM32L431VCT6_Bossay/Hardware/Src\hal_rng.c **** }
  65              		.loc 1 49 1
  66 002a 00BF     		nop
ARM GAS  C:\Users\ADMINI~1\AppData\Local\Temp\ccCHwVqd.s 			page 3


  67 002c 0837     		adds	r7, r7, #8
  68              	.LCFI3:
  69              		.cfi_def_cfa_offset 8
  70 002e BD46     		mov	sp, r7
  71              	.LCFI4:
  72              		.cfi_def_cfa_register 13
  73              		@ sp needed
  74 0030 80BD     		pop	{r7, pc}
  75              	.L3:
  76 0032 00BF     		.align	2
  77              	.L2:
  78 0034 00100240 		.word	1073876992
  79 0038 00000000 		.word	g_rng_handle
  80 003c 00080650 		.word	1342572544
  81              		.cfi_endproc
  82              	.LFE287:
  84              		.section	.text.hal_rng_generate_number,"ax",%progbits
  85              		.align	1
  86              		.global	hal_rng_generate_number
  87              		.syntax unified
  88              		.thumb
  89              		.thumb_func
  90              		.fpu fpv4-sp-d16
  92              	hal_rng_generate_number:
  93              	.LFB288:
  50:d:/LiteOS_Lab/targets/STM32L431VCT6_Bossay/Hardware/Src\hal_rng.c **** 
  51:d:/LiteOS_Lab/targets/STM32L431VCT6_Bossay/Hardware/Src\hal_rng.c **** int hal_rng_generate_number()
  52:d:/LiteOS_Lab/targets/STM32L431VCT6_Bossay/Hardware/Src\hal_rng.c **** {
  94              		.loc 1 52 1
  95              		.cfi_startproc
  96              		@ args = 0, pretend = 0, frame = 8
  97              		@ frame_needed = 1, uses_anonymous_args = 0
  98 0000 80B5     		push	{r7, lr}
  99              	.LCFI5:
 100              		.cfi_def_cfa_offset 8
 101              		.cfi_offset 7, -8
 102              		.cfi_offset 14, -4
 103 0002 82B0     		sub	sp, sp, #8
 104              	.LCFI6:
 105              		.cfi_def_cfa_offset 16
 106 0004 00AF     		add	r7, sp, #0
 107              	.LCFI7:
 108              		.cfi_def_cfa_register 7
  53:d:/LiteOS_Lab/targets/STM32L431VCT6_Bossay/Hardware/Src\hal_rng.c ****     uint32_t random_number;
  54:d:/LiteOS_Lab/targets/STM32L431VCT6_Bossay/Hardware/Src\hal_rng.c **** 
  55:d:/LiteOS_Lab/targets/STM32L431VCT6_Bossay/Hardware/Src\hal_rng.c ****     if (HAL_RNG_GenerateRandomNumber(&g_rng_handle, &random_number) != HAL_OK)
 109              		.loc 1 55 9
 110 0006 3B1D     		adds	r3, r7, #4
 111 0008 1946     		mov	r1, r3
 112 000a 0648     		ldr	r0, .L8
 113 000c FFF7FEFF 		bl	HAL_RNG_GenerateRandomNumber
 114 0010 0346     		mov	r3, r0
 115              		.loc 1 55 8
 116 0012 002B     		cmp	r3, #0
 117 0014 01D0     		beq	.L5
  56:d:/LiteOS_Lab/targets/STM32L431VCT6_Bossay/Hardware/Src\hal_rng.c ****     {
  57:d:/LiteOS_Lab/targets/STM32L431VCT6_Bossay/Hardware/Src\hal_rng.c ****         return 0U;
ARM GAS  C:\Users\ADMINI~1\AppData\Local\Temp\ccCHwVqd.s 			page 4


 118              		.loc 1 57 16
 119 0016 0023     		movs	r3, #0
 120 0018 00E0     		b	.L7
 121              	.L5:
  58:d:/LiteOS_Lab/targets/STM32L431VCT6_Bossay/Hardware/Src\hal_rng.c ****     }
  59:d:/LiteOS_Lab/targets/STM32L431VCT6_Bossay/Hardware/Src\hal_rng.c **** 
  60:d:/LiteOS_Lab/targets/STM32L431VCT6_Bossay/Hardware/Src\hal_rng.c ****     return (int)random_number;
 122              		.loc 1 60 12
 123 001a 7B68     		ldr	r3, [r7, #4]
 124              	.L7:
  61:d:/LiteOS_Lab/targets/STM32L431VCT6_Bossay/Hardware/Src\hal_rng.c **** }
 125              		.loc 1 61 1 discriminator 1
 126 001c 1846     		mov	r0, r3
 127 001e 0837     		adds	r7, r7, #8
 128              	.LCFI8:
 129              		.cfi_def_cfa_offset 8
 130 0020 BD46     		mov	sp, r7
 131              	.LCFI9:
 132              		.cfi_def_cfa_register 13
 133              		@ sp needed
 134 0022 80BD     		pop	{r7, pc}
 135              	.L9:
 136              		.align	2
 137              	.L8:
 138 0024 00000000 		.word	g_rng_handle
 139              		.cfi_endproc
 140              	.LFE288:
 142              		.section	.text.hal_rng_generate_buffer,"ax",%progbits
 143              		.align	1
 144              		.global	hal_rng_generate_buffer
 145              		.syntax unified
 146              		.thumb
 147              		.thumb_func
 148              		.fpu fpv4-sp-d16
 150              	hal_rng_generate_buffer:
 151              	.LFB289:
  62:d:/LiteOS_Lab/targets/STM32L431VCT6_Bossay/Hardware/Src\hal_rng.c **** 
  63:d:/LiteOS_Lab/targets/STM32L431VCT6_Bossay/Hardware/Src\hal_rng.c **** int hal_rng_generate_buffer(void* buf, size_t len)
  64:d:/LiteOS_Lab/targets/STM32L431VCT6_Bossay/Hardware/Src\hal_rng.c **** {
 152              		.loc 1 64 1
 153              		.cfi_startproc
 154              		@ args = 0, pretend = 0, frame = 24
 155              		@ frame_needed = 1, uses_anonymous_args = 0
 156 0000 80B5     		push	{r7, lr}
 157              	.LCFI10:
 158              		.cfi_def_cfa_offset 8
 159              		.cfi_offset 7, -8
 160              		.cfi_offset 14, -4
 161 0002 86B0     		sub	sp, sp, #24
 162              	.LCFI11:
 163              		.cfi_def_cfa_offset 32
 164 0004 00AF     		add	r7, sp, #0
 165              	.LCFI12:
 166              		.cfi_def_cfa_register 7
 167 0006 7860     		str	r0, [r7, #4]
 168 0008 3960     		str	r1, [r7]
  65:d:/LiteOS_Lab/targets/STM32L431VCT6_Bossay/Hardware/Src\hal_rng.c ****     size_t i;
ARM GAS  C:\Users\ADMINI~1\AppData\Local\Temp\ccCHwVqd.s 			page 5


  66:d:/LiteOS_Lab/targets/STM32L431VCT6_Bossay/Hardware/Src\hal_rng.c ****     uint32_t random_number;
  67:d:/LiteOS_Lab/targets/STM32L431VCT6_Bossay/Hardware/Src\hal_rng.c ****     uint8_t* pbuf;
  68:d:/LiteOS_Lab/targets/STM32L431VCT6_Bossay/Hardware/Src\hal_rng.c **** 
  69:d:/LiteOS_Lab/targets/STM32L431VCT6_Bossay/Hardware/Src\hal_rng.c ****     if (NULL == buf)
 169              		.loc 1 69 8
 170 000a 7B68     		ldr	r3, [r7, #4]
 171 000c 002B     		cmp	r3, #0
 172 000e 02D1     		bne	.L11
  70:d:/LiteOS_Lab/targets/STM32L431VCT6_Bossay/Hardware/Src\hal_rng.c ****     {
  71:d:/LiteOS_Lab/targets/STM32L431VCT6_Bossay/Hardware/Src\hal_rng.c ****         return -1;
 173              		.loc 1 71 16
 174 0010 4FF0FF33 		mov	r3, #-1
 175 0014 27E0     		b	.L16
 176              	.L11:
  72:d:/LiteOS_Lab/targets/STM32L431VCT6_Bossay/Hardware/Src\hal_rng.c ****     }
  73:d:/LiteOS_Lab/targets/STM32L431VCT6_Bossay/Hardware/Src\hal_rng.c **** 
  74:d:/LiteOS_Lab/targets/STM32L431VCT6_Bossay/Hardware/Src\hal_rng.c ****     pbuf = (uint8_t*)buf;
 177              		.loc 1 74 10
 178 0016 7B68     		ldr	r3, [r7, #4]
 179 0018 3B61     		str	r3, [r7, #16]
  75:d:/LiteOS_Lab/targets/STM32L431VCT6_Bossay/Hardware/Src\hal_rng.c **** 
  76:d:/LiteOS_Lab/targets/STM32L431VCT6_Bossay/Hardware/Src\hal_rng.c ****     for (i = 0; i < len; i += sizeof(uint32_t))
 180              		.loc 1 76 12
 181 001a 0023     		movs	r3, #0
 182 001c 7B61     		str	r3, [r7, #20]
 183              		.loc 1 76 5
 184 001e 1DE0     		b	.L13
 185              	.L15:
  77:d:/LiteOS_Lab/targets/STM32L431VCT6_Bossay/Hardware/Src\hal_rng.c ****     {
  78:d:/LiteOS_Lab/targets/STM32L431VCT6_Bossay/Hardware/Src\hal_rng.c ****         if (HAL_RNG_GenerateRandomNumber(&g_rng_handle, &random_number) != HAL_OK)
 186              		.loc 1 78 13
 187 0020 07F10C03 		add	r3, r7, #12
 188 0024 1946     		mov	r1, r3
 189 0026 1248     		ldr	r0, .L17
 190 0028 FFF7FEFF 		bl	HAL_RNG_GenerateRandomNumber
 191 002c 0346     		mov	r3, r0
 192              		.loc 1 78 12
 193 002e 002B     		cmp	r3, #0
 194 0030 02D0     		beq	.L14
  79:d:/LiteOS_Lab/targets/STM32L431VCT6_Bossay/Hardware/Src\hal_rng.c ****         {
  80:d:/LiteOS_Lab/targets/STM32L431VCT6_Bossay/Hardware/Src\hal_rng.c ****             return -1;
 195              		.loc 1 80 20
 196 0032 4FF0FF33 		mov	r3, #-1
 197 0036 16E0     		b	.L16
 198              	.L14:
  81:d:/LiteOS_Lab/targets/STM32L431VCT6_Bossay/Hardware/Src\hal_rng.c ****         }
  82:d:/LiteOS_Lab/targets/STM32L431VCT6_Bossay/Hardware/Src\hal_rng.c ****         memcpy(pbuf + i, &random_number,
 199              		.loc 1 82 21 discriminator 2
 200 0038 3A69     		ldr	r2, [r7, #16]
 201 003a 7B69     		ldr	r3, [r7, #20]
 202 003c D018     		adds	r0, r2, r3
  83:d:/LiteOS_Lab/targets/STM32L431VCT6_Bossay/Hardware/Src\hal_rng.c ****                sizeof(uint32_t) > len - i ? len - i : sizeof(uint32_t));
 203              		.loc 1 83 39 discriminator 2
 204 003e 3A68     		ldr	r2, [r7]
 205 0040 7B69     		ldr	r3, [r7, #20]
 206 0042 D31A     		subs	r3, r2, r3
 207              		.loc 1 83 53 discriminator 2
ARM GAS  C:\Users\ADMINI~1\AppData\Local\Temp\ccCHwVqd.s 			page 6


 208 0044 042B     		cmp	r3, #4
 209 0046 28BF     		it	cs
 210 0048 0423     		movcs	r3, #4
 211 004a 1A46     		mov	r2, r3
  82:d:/LiteOS_Lab/targets/STM32L431VCT6_Bossay/Hardware/Src\hal_rng.c ****                sizeof(uint32_t) > len - i ? len - i : sizeof(uint32_t));
 212              		.loc 1 82 9 discriminator 2
 213 004c 07F10C03 		add	r3, r7, #12
 214 0050 1946     		mov	r1, r3
 215 0052 FFF7FEFF 		bl	memcpy
  76:d:/LiteOS_Lab/targets/STM32L431VCT6_Bossay/Hardware/Src\hal_rng.c ****     {
 216              		.loc 1 76 28 discriminator 2
 217 0056 7B69     		ldr	r3, [r7, #20]
 218 0058 0433     		adds	r3, r3, #4
 219 005a 7B61     		str	r3, [r7, #20]
 220              	.L13:
  76:d:/LiteOS_Lab/targets/STM32L431VCT6_Bossay/Hardware/Src\hal_rng.c ****     {
 221              		.loc 1 76 5 discriminator 1
 222 005c 7A69     		ldr	r2, [r7, #20]
 223 005e 3B68     		ldr	r3, [r7]
 224 0060 9A42     		cmp	r2, r3
 225 0062 DDD3     		bcc	.L15
  84:d:/LiteOS_Lab/targets/STM32L431VCT6_Bossay/Hardware/Src\hal_rng.c ****     }
  85:d:/LiteOS_Lab/targets/STM32L431VCT6_Bossay/Hardware/Src\hal_rng.c **** 
  86:d:/LiteOS_Lab/targets/STM32L431VCT6_Bossay/Hardware/Src\hal_rng.c ****     return 0;
 226              		.loc 1 86 12
 227 0064 0023     		movs	r3, #0
 228              	.L16:
  87:d:/LiteOS_Lab/targets/STM32L431VCT6_Bossay/Hardware/Src\hal_rng.c **** }
 229              		.loc 1 87 1 discriminator 1
 230 0066 1846     		mov	r0, r3
 231 0068 1837     		adds	r7, r7, #24
 232              	.LCFI13:
 233              		.cfi_def_cfa_offset 8
 234 006a BD46     		mov	sp, r7
 235              	.LCFI14:
 236              		.cfi_def_cfa_register 13
 237              		@ sp needed
 238 006c 80BD     		pop	{r7, pc}
 239              	.L18:
 240 006e 00BF     		.align	2
 241              	.L17:
 242 0070 00000000 		.word	g_rng_handle
 243              		.cfi_endproc
 244              	.LFE289:
 246              		.text
 247              	.Letext0:
 248              		.file 2 "c:\\users\\administrator\\.huawei-liteos-studio\\tools\\arm-none-eabi\\lib\\gcc\\arm-none
 249              		.file 3 "c:\\users\\administrator\\.huawei-liteos-studio\\tools\\arm-none-eabi\\arm-none-eabi\\inc
 250              		.file 4 "c:\\users\\administrator\\.huawei-liteos-studio\\tools\\arm-none-eabi\\arm-none-eabi\\inc
 251              		.file 5 "c:\\users\\administrator\\.huawei-liteos-studio\\tools\\arm-none-eabi\\arm-none-eabi\\inc
 252              		.file 6 "c:\\users\\administrator\\.huawei-liteos-studio\\tools\\arm-none-eabi\\arm-none-eabi\\inc
 253              		.file 7 "c:\\users\\administrator\\.huawei-liteos-studio\\tools\\arm-none-eabi\\arm-none-eabi\\inc
 254              		.file 8 "d:/LiteOS_Lab/iot_link/os/liteos/arch/arm/common/cmsis/core_cm4.h"
 255              		.file 9 "d:/LiteOS_Lab/targets/STM32L431VCT6_Bossay/Inc/system_stm32l4xx.h"
 256              		.file 10 "d:/LiteOS_Lab/targets/STM32L431VCT6_Bossay/Inc/stm32l431xx.h"
 257              		.file 11 "d:/LiteOS_Lab/iot_link/os/liteos/include/los_typedef.h"
 258              		.file 12 "d:/LiteOS_Lab/iot_link/os/liteos/include/los_config.h"
ARM GAS  C:\Users\ADMINI~1\AppData\Local\Temp\ccCHwVqd.s 			page 7


 259              		.file 13 "d:/LiteOS_Lab/iot_link/os/liteos/include/los_err.h"
 260              		.file 14 "d:/LiteOS_Lab/iot_link/os/liteos/arch/arm/arm-m/include/los_hwi.h"
 261              		.file 15 "d:/LiteOS_Lab/drivers/third_party/ST/STM32L4xx_HAL_Driver/Inc/stm32l4xx_hal_def.h"
 262              		.file 16 "d:/LiteOS_Lab/drivers/third_party/ST/STM32L4xx_HAL_Driver/Inc/stm32l4xx_hal_rng.h"
ARM GAS  C:\Users\ADMINI~1\AppData\Local\Temp\ccCHwVqd.s 			page 8

