ARM GAS  C:\Users\ADMINI~1\AppData\Local\Temp\ccinuMnV.s 			page 1


   1              		.cpu cortex-m4
   2              		.eabi_attribute 27, 1
   3              		.eabi_attribute 28, 1
   4              		.eabi_attribute 20, 1
   5              		.eabi_attribute 21, 1
   6              		.eabi_attribute 23, 3
   7              		.eabi_attribute 24, 1
   8              		.eabi_attribute 25, 1
   9              		.eabi_attribute 26, 1
  10              		.eabi_attribute 30, 6
  11              		.eabi_attribute 34, 1
  12              		.eabi_attribute 18, 4
  13              		.file	"stm32l4xx_hal_gpio.c"
  14              		.text
  15              	.Ltext0:
  16              		.cfi_sections	.debug_frame
  17              		.section	.text.HAL_GPIO_Init,"ax",%progbits
  18              		.align	1
  19              		.global	HAL_GPIO_Init
  20              		.arch armv7e-m
  21              		.syntax unified
  22              		.thumb
  23              		.thumb_func
  24              		.fpu fpv4-sp-d16
  26              	HAL_GPIO_Init:
  27              	.LFB287:
  28              		.file 1 "d:/LiteOS_Lab/drivers/third_party/ST/STM32L4xx_HAL_Driver/Src/stm32l4xx_hal_gpio.c"
   1:d:/LiteOS_Lab/drivers/third_party/ST/STM32L4xx_HAL_Driver/Src\stm32l4xx_hal_gpio.c **** /**
   2:d:/LiteOS_Lab/drivers/third_party/ST/STM32L4xx_HAL_Driver/Src\stm32l4xx_hal_gpio.c ****   ******************************************************************************
   3:d:/LiteOS_Lab/drivers/third_party/ST/STM32L4xx_HAL_Driver/Src\stm32l4xx_hal_gpio.c ****   * @file    stm32l4xx_hal_gpio.c
   4:d:/LiteOS_Lab/drivers/third_party/ST/STM32L4xx_HAL_Driver/Src\stm32l4xx_hal_gpio.c ****   * @author  MCD Application Team
   5:d:/LiteOS_Lab/drivers/third_party/ST/STM32L4xx_HAL_Driver/Src\stm32l4xx_hal_gpio.c ****   * @brief   GPIO HAL module driver.
   6:d:/LiteOS_Lab/drivers/third_party/ST/STM32L4xx_HAL_Driver/Src\stm32l4xx_hal_gpio.c ****   *          This file provides firmware functions to manage the following
   7:d:/LiteOS_Lab/drivers/third_party/ST/STM32L4xx_HAL_Driver/Src\stm32l4xx_hal_gpio.c ****   *          functionalities of the General Purpose Input/Output (GPIO) peripheral:
   8:d:/LiteOS_Lab/drivers/third_party/ST/STM32L4xx_HAL_Driver/Src\stm32l4xx_hal_gpio.c ****   *           + Initialization and de-initialization functions
   9:d:/LiteOS_Lab/drivers/third_party/ST/STM32L4xx_HAL_Driver/Src\stm32l4xx_hal_gpio.c ****   *           + IO operation functions
  10:d:/LiteOS_Lab/drivers/third_party/ST/STM32L4xx_HAL_Driver/Src\stm32l4xx_hal_gpio.c ****   *
  11:d:/LiteOS_Lab/drivers/third_party/ST/STM32L4xx_HAL_Driver/Src\stm32l4xx_hal_gpio.c ****   @verbatim
  12:d:/LiteOS_Lab/drivers/third_party/ST/STM32L4xx_HAL_Driver/Src\stm32l4xx_hal_gpio.c ****   ==============================================================================
  13:d:/LiteOS_Lab/drivers/third_party/ST/STM32L4xx_HAL_Driver/Src\stm32l4xx_hal_gpio.c ****                     ##### GPIO Peripheral features #####
  14:d:/LiteOS_Lab/drivers/third_party/ST/STM32L4xx_HAL_Driver/Src\stm32l4xx_hal_gpio.c ****   ==============================================================================
  15:d:/LiteOS_Lab/drivers/third_party/ST/STM32L4xx_HAL_Driver/Src\stm32l4xx_hal_gpio.c ****   [..]
  16:d:/LiteOS_Lab/drivers/third_party/ST/STM32L4xx_HAL_Driver/Src\stm32l4xx_hal_gpio.c ****     (+) Each port bit of the general-purpose I/O (GPIO) ports can be individually
  17:d:/LiteOS_Lab/drivers/third_party/ST/STM32L4xx_HAL_Driver/Src\stm32l4xx_hal_gpio.c ****         configured by software in several modes:
  18:d:/LiteOS_Lab/drivers/third_party/ST/STM32L4xx_HAL_Driver/Src\stm32l4xx_hal_gpio.c ****         (++) Input mode
  19:d:/LiteOS_Lab/drivers/third_party/ST/STM32L4xx_HAL_Driver/Src\stm32l4xx_hal_gpio.c ****         (++) Analog mode
  20:d:/LiteOS_Lab/drivers/third_party/ST/STM32L4xx_HAL_Driver/Src\stm32l4xx_hal_gpio.c ****         (++) Output mode
  21:d:/LiteOS_Lab/drivers/third_party/ST/STM32L4xx_HAL_Driver/Src\stm32l4xx_hal_gpio.c ****         (++) Alternate function mode
  22:d:/LiteOS_Lab/drivers/third_party/ST/STM32L4xx_HAL_Driver/Src\stm32l4xx_hal_gpio.c ****         (++) External interrupt/event lines
  23:d:/LiteOS_Lab/drivers/third_party/ST/STM32L4xx_HAL_Driver/Src\stm32l4xx_hal_gpio.c **** 
  24:d:/LiteOS_Lab/drivers/third_party/ST/STM32L4xx_HAL_Driver/Src\stm32l4xx_hal_gpio.c ****     (+) During and just after reset, the alternate functions and external interrupt
  25:d:/LiteOS_Lab/drivers/third_party/ST/STM32L4xx_HAL_Driver/Src\stm32l4xx_hal_gpio.c ****         lines are not active and the I/O ports are configured in input floating mode.
  26:d:/LiteOS_Lab/drivers/third_party/ST/STM32L4xx_HAL_Driver/Src\stm32l4xx_hal_gpio.c **** 
  27:d:/LiteOS_Lab/drivers/third_party/ST/STM32L4xx_HAL_Driver/Src\stm32l4xx_hal_gpio.c ****     (+) All GPIO pins have weak internal pull-up and pull-down resistors, which can be
  28:d:/LiteOS_Lab/drivers/third_party/ST/STM32L4xx_HAL_Driver/Src\stm32l4xx_hal_gpio.c ****         activated or not.
  29:d:/LiteOS_Lab/drivers/third_party/ST/STM32L4xx_HAL_Driver/Src\stm32l4xx_hal_gpio.c **** 
  30:d:/LiteOS_Lab/drivers/third_party/ST/STM32L4xx_HAL_Driver/Src\stm32l4xx_hal_gpio.c ****     (+) In Output or Alternate mode, each IO can be configured on open-drain or push-pull
ARM GAS  C:\Users\ADMINI~1\AppData\Local\Temp\ccinuMnV.s 			page 2


  31:d:/LiteOS_Lab/drivers/third_party/ST/STM32L4xx_HAL_Driver/Src\stm32l4xx_hal_gpio.c ****         type and the IO speed can be selected depending on the VDD value.
  32:d:/LiteOS_Lab/drivers/third_party/ST/STM32L4xx_HAL_Driver/Src\stm32l4xx_hal_gpio.c **** 
  33:d:/LiteOS_Lab/drivers/third_party/ST/STM32L4xx_HAL_Driver/Src\stm32l4xx_hal_gpio.c ****     (+) The microcontroller IO pins are connected to onboard peripherals/modules through a
  34:d:/LiteOS_Lab/drivers/third_party/ST/STM32L4xx_HAL_Driver/Src\stm32l4xx_hal_gpio.c ****         multiplexer that allows only one peripheral alternate function (AF) connected
  35:d:/LiteOS_Lab/drivers/third_party/ST/STM32L4xx_HAL_Driver/Src\stm32l4xx_hal_gpio.c ****        to an IO pin at a time. In this way, there can be no conflict between peripherals
  36:d:/LiteOS_Lab/drivers/third_party/ST/STM32L4xx_HAL_Driver/Src\stm32l4xx_hal_gpio.c ****        sharing the same IO pin.
  37:d:/LiteOS_Lab/drivers/third_party/ST/STM32L4xx_HAL_Driver/Src\stm32l4xx_hal_gpio.c **** 
  38:d:/LiteOS_Lab/drivers/third_party/ST/STM32L4xx_HAL_Driver/Src\stm32l4xx_hal_gpio.c ****     (+) All ports have external interrupt/event capability. To use external interrupt
  39:d:/LiteOS_Lab/drivers/third_party/ST/STM32L4xx_HAL_Driver/Src\stm32l4xx_hal_gpio.c ****         lines, the port must be configured in input mode. All available GPIO pins are
  40:d:/LiteOS_Lab/drivers/third_party/ST/STM32L4xx_HAL_Driver/Src\stm32l4xx_hal_gpio.c ****         connected to the 16 external interrupt/event lines from EXTI0 to EXTI15.
  41:d:/LiteOS_Lab/drivers/third_party/ST/STM32L4xx_HAL_Driver/Src\stm32l4xx_hal_gpio.c **** 
  42:d:/LiteOS_Lab/drivers/third_party/ST/STM32L4xx_HAL_Driver/Src\stm32l4xx_hal_gpio.c ****     (+) The external interrupt/event controller consists of up to 39 edge detectors
  43:d:/LiteOS_Lab/drivers/third_party/ST/STM32L4xx_HAL_Driver/Src\stm32l4xx_hal_gpio.c ****         (16 lines are connected to GPIO) for generating event/interrupt requests (each
  44:d:/LiteOS_Lab/drivers/third_party/ST/STM32L4xx_HAL_Driver/Src\stm32l4xx_hal_gpio.c ****         input line can be independently configured to select the type (interrupt or event)
  45:d:/LiteOS_Lab/drivers/third_party/ST/STM32L4xx_HAL_Driver/Src\stm32l4xx_hal_gpio.c ****         and the corresponding trigger event (rising or falling or both). Each line can
  46:d:/LiteOS_Lab/drivers/third_party/ST/STM32L4xx_HAL_Driver/Src\stm32l4xx_hal_gpio.c ****         also be masked independently.
  47:d:/LiteOS_Lab/drivers/third_party/ST/STM32L4xx_HAL_Driver/Src\stm32l4xx_hal_gpio.c **** 
  48:d:/LiteOS_Lab/drivers/third_party/ST/STM32L4xx_HAL_Driver/Src\stm32l4xx_hal_gpio.c ****                      ##### How to use this driver #####
  49:d:/LiteOS_Lab/drivers/third_party/ST/STM32L4xx_HAL_Driver/Src\stm32l4xx_hal_gpio.c ****   ==============================================================================
  50:d:/LiteOS_Lab/drivers/third_party/ST/STM32L4xx_HAL_Driver/Src\stm32l4xx_hal_gpio.c ****   [..]
  51:d:/LiteOS_Lab/drivers/third_party/ST/STM32L4xx_HAL_Driver/Src\stm32l4xx_hal_gpio.c ****     (#) Enable the GPIO AHB clock using the following function: __HAL_RCC_GPIOx_CLK_ENABLE().
  52:d:/LiteOS_Lab/drivers/third_party/ST/STM32L4xx_HAL_Driver/Src\stm32l4xx_hal_gpio.c **** 
  53:d:/LiteOS_Lab/drivers/third_party/ST/STM32L4xx_HAL_Driver/Src\stm32l4xx_hal_gpio.c ****     (#) Configure the GPIO pin(s) using HAL_GPIO_Init().
  54:d:/LiteOS_Lab/drivers/third_party/ST/STM32L4xx_HAL_Driver/Src\stm32l4xx_hal_gpio.c ****         (++) Configure the IO mode using "Mode" member from GPIO_InitTypeDef structure
  55:d:/LiteOS_Lab/drivers/third_party/ST/STM32L4xx_HAL_Driver/Src\stm32l4xx_hal_gpio.c ****         (++) Activate Pull-up, Pull-down resistor using "Pull" member from GPIO_InitTypeDef
  56:d:/LiteOS_Lab/drivers/third_party/ST/STM32L4xx_HAL_Driver/Src\stm32l4xx_hal_gpio.c ****              structure.
  57:d:/LiteOS_Lab/drivers/third_party/ST/STM32L4xx_HAL_Driver/Src\stm32l4xx_hal_gpio.c ****         (++) In case of Output or alternate function mode selection: the speed is
  58:d:/LiteOS_Lab/drivers/third_party/ST/STM32L4xx_HAL_Driver/Src\stm32l4xx_hal_gpio.c ****              configured through "Speed" member from GPIO_InitTypeDef structure.
  59:d:/LiteOS_Lab/drivers/third_party/ST/STM32L4xx_HAL_Driver/Src\stm32l4xx_hal_gpio.c ****         (++) In alternate mode is selection, the alternate function connected to the IO
  60:d:/LiteOS_Lab/drivers/third_party/ST/STM32L4xx_HAL_Driver/Src\stm32l4xx_hal_gpio.c ****              is configured through "Alternate" member from GPIO_InitTypeDef structure.
  61:d:/LiteOS_Lab/drivers/third_party/ST/STM32L4xx_HAL_Driver/Src\stm32l4xx_hal_gpio.c ****         (++) Analog mode is required when a pin is to be used as ADC channel
  62:d:/LiteOS_Lab/drivers/third_party/ST/STM32L4xx_HAL_Driver/Src\stm32l4xx_hal_gpio.c ****              or DAC output.
  63:d:/LiteOS_Lab/drivers/third_party/ST/STM32L4xx_HAL_Driver/Src\stm32l4xx_hal_gpio.c ****         (++) In case of external interrupt/event selection the "Mode" member from
  64:d:/LiteOS_Lab/drivers/third_party/ST/STM32L4xx_HAL_Driver/Src\stm32l4xx_hal_gpio.c ****              GPIO_InitTypeDef structure select the type (interrupt or event) and
  65:d:/LiteOS_Lab/drivers/third_party/ST/STM32L4xx_HAL_Driver/Src\stm32l4xx_hal_gpio.c ****              the corresponding trigger event (rising or falling or both).
  66:d:/LiteOS_Lab/drivers/third_party/ST/STM32L4xx_HAL_Driver/Src\stm32l4xx_hal_gpio.c **** 
  67:d:/LiteOS_Lab/drivers/third_party/ST/STM32L4xx_HAL_Driver/Src\stm32l4xx_hal_gpio.c ****     (#) In case of external interrupt/event mode selection, configure NVIC IRQ priority
  68:d:/LiteOS_Lab/drivers/third_party/ST/STM32L4xx_HAL_Driver/Src\stm32l4xx_hal_gpio.c ****         mapped to the EXTI line using HAL_NVIC_SetPriority() and enable it using
  69:d:/LiteOS_Lab/drivers/third_party/ST/STM32L4xx_HAL_Driver/Src\stm32l4xx_hal_gpio.c ****         HAL_NVIC_EnableIRQ().
  70:d:/LiteOS_Lab/drivers/third_party/ST/STM32L4xx_HAL_Driver/Src\stm32l4xx_hal_gpio.c **** 
  71:d:/LiteOS_Lab/drivers/third_party/ST/STM32L4xx_HAL_Driver/Src\stm32l4xx_hal_gpio.c ****     (#) To get the level of a pin configured in input mode use HAL_GPIO_ReadPin().
  72:d:/LiteOS_Lab/drivers/third_party/ST/STM32L4xx_HAL_Driver/Src\stm32l4xx_hal_gpio.c **** 
  73:d:/LiteOS_Lab/drivers/third_party/ST/STM32L4xx_HAL_Driver/Src\stm32l4xx_hal_gpio.c ****     (#) To set/reset the level of a pin configured in output mode use
  74:d:/LiteOS_Lab/drivers/third_party/ST/STM32L4xx_HAL_Driver/Src\stm32l4xx_hal_gpio.c ****         HAL_GPIO_WritePin()/HAL_GPIO_TogglePin().
  75:d:/LiteOS_Lab/drivers/third_party/ST/STM32L4xx_HAL_Driver/Src\stm32l4xx_hal_gpio.c **** 
  76:d:/LiteOS_Lab/drivers/third_party/ST/STM32L4xx_HAL_Driver/Src\stm32l4xx_hal_gpio.c ****    (#) To lock pin configuration until next reset use HAL_GPIO_LockPin().
  77:d:/LiteOS_Lab/drivers/third_party/ST/STM32L4xx_HAL_Driver/Src\stm32l4xx_hal_gpio.c ****   
  78:d:/LiteOS_Lab/drivers/third_party/ST/STM32L4xx_HAL_Driver/Src\stm32l4xx_hal_gpio.c ****     (#) During and just after reset, the alternate functions are not
  79:d:/LiteOS_Lab/drivers/third_party/ST/STM32L4xx_HAL_Driver/Src\stm32l4xx_hal_gpio.c ****         active and the GPIO pins are configured in input floating mode (except JTAG
  80:d:/LiteOS_Lab/drivers/third_party/ST/STM32L4xx_HAL_Driver/Src\stm32l4xx_hal_gpio.c ****         pins).
  81:d:/LiteOS_Lab/drivers/third_party/ST/STM32L4xx_HAL_Driver/Src\stm32l4xx_hal_gpio.c **** 
  82:d:/LiteOS_Lab/drivers/third_party/ST/STM32L4xx_HAL_Driver/Src\stm32l4xx_hal_gpio.c ****     (#) The LSE oscillator pins OSC32_IN and OSC32_OUT can be used as general purpose
  83:d:/LiteOS_Lab/drivers/third_party/ST/STM32L4xx_HAL_Driver/Src\stm32l4xx_hal_gpio.c ****         (PC14 and PC15, respectively) when the LSE oscillator is off. The LSE has
  84:d:/LiteOS_Lab/drivers/third_party/ST/STM32L4xx_HAL_Driver/Src\stm32l4xx_hal_gpio.c ****         priority over the GPIO function.
  85:d:/LiteOS_Lab/drivers/third_party/ST/STM32L4xx_HAL_Driver/Src\stm32l4xx_hal_gpio.c **** 
  86:d:/LiteOS_Lab/drivers/third_party/ST/STM32L4xx_HAL_Driver/Src\stm32l4xx_hal_gpio.c ****     (#) The HSE oscillator pins OSC_IN/OSC_OUT can be used as
  87:d:/LiteOS_Lab/drivers/third_party/ST/STM32L4xx_HAL_Driver/Src\stm32l4xx_hal_gpio.c ****         general purpose PH0 and PH1, respectively, when the HSE oscillator is off.
ARM GAS  C:\Users\ADMINI~1\AppData\Local\Temp\ccinuMnV.s 			page 3


  88:d:/LiteOS_Lab/drivers/third_party/ST/STM32L4xx_HAL_Driver/Src\stm32l4xx_hal_gpio.c ****         The HSE has priority over the GPIO function.
  89:d:/LiteOS_Lab/drivers/third_party/ST/STM32L4xx_HAL_Driver/Src\stm32l4xx_hal_gpio.c **** 
  90:d:/LiteOS_Lab/drivers/third_party/ST/STM32L4xx_HAL_Driver/Src\stm32l4xx_hal_gpio.c ****   @endverbatim
  91:d:/LiteOS_Lab/drivers/third_party/ST/STM32L4xx_HAL_Driver/Src\stm32l4xx_hal_gpio.c ****   ******************************************************************************
  92:d:/LiteOS_Lab/drivers/third_party/ST/STM32L4xx_HAL_Driver/Src\stm32l4xx_hal_gpio.c ****   * @attention
  93:d:/LiteOS_Lab/drivers/third_party/ST/STM32L4xx_HAL_Driver/Src\stm32l4xx_hal_gpio.c ****   *
  94:d:/LiteOS_Lab/drivers/third_party/ST/STM32L4xx_HAL_Driver/Src\stm32l4xx_hal_gpio.c ****   * <h2><center>&copy; COPYRIGHT(c) 2017 STMicroelectronics</center></h2>
  95:d:/LiteOS_Lab/drivers/third_party/ST/STM32L4xx_HAL_Driver/Src\stm32l4xx_hal_gpio.c ****   *
  96:d:/LiteOS_Lab/drivers/third_party/ST/STM32L4xx_HAL_Driver/Src\stm32l4xx_hal_gpio.c ****   * Redistribution and use in source and binary forms, with or without modification,
  97:d:/LiteOS_Lab/drivers/third_party/ST/STM32L4xx_HAL_Driver/Src\stm32l4xx_hal_gpio.c ****   * are permitted provided that the following conditions are met:
  98:d:/LiteOS_Lab/drivers/third_party/ST/STM32L4xx_HAL_Driver/Src\stm32l4xx_hal_gpio.c ****   *   1. Redistributions of source code must retain the above copyright notice,
  99:d:/LiteOS_Lab/drivers/third_party/ST/STM32L4xx_HAL_Driver/Src\stm32l4xx_hal_gpio.c ****   *      this list of conditions and the following disclaimer.
 100:d:/LiteOS_Lab/drivers/third_party/ST/STM32L4xx_HAL_Driver/Src\stm32l4xx_hal_gpio.c ****   *   2. Redistributions in binary form must reproduce the above copyright notice,
 101:d:/LiteOS_Lab/drivers/third_party/ST/STM32L4xx_HAL_Driver/Src\stm32l4xx_hal_gpio.c ****   *      this list of conditions and the following disclaimer in the documentation
 102:d:/LiteOS_Lab/drivers/third_party/ST/STM32L4xx_HAL_Driver/Src\stm32l4xx_hal_gpio.c ****   *      and/or other materials provided with the distribution.
 103:d:/LiteOS_Lab/drivers/third_party/ST/STM32L4xx_HAL_Driver/Src\stm32l4xx_hal_gpio.c ****   *   3. Neither the name of STMicroelectronics nor the names of its contributors
 104:d:/LiteOS_Lab/drivers/third_party/ST/STM32L4xx_HAL_Driver/Src\stm32l4xx_hal_gpio.c ****   *      may be used to endorse or promote products derived from this software
 105:d:/LiteOS_Lab/drivers/third_party/ST/STM32L4xx_HAL_Driver/Src\stm32l4xx_hal_gpio.c ****   *      without specific prior written permission.
 106:d:/LiteOS_Lab/drivers/third_party/ST/STM32L4xx_HAL_Driver/Src\stm32l4xx_hal_gpio.c ****   *
 107:d:/LiteOS_Lab/drivers/third_party/ST/STM32L4xx_HAL_Driver/Src\stm32l4xx_hal_gpio.c ****   * THIS SOFTWARE IS PROVIDED BY THE COPYRIGHT HOLDERS AND CONTRIBUTORS "AS IS"
 108:d:/LiteOS_Lab/drivers/third_party/ST/STM32L4xx_HAL_Driver/Src\stm32l4xx_hal_gpio.c ****   * AND ANY EXPRESS OR IMPLIED WARRANTIES, INCLUDING, BUT NOT LIMITED TO, THE
 109:d:/LiteOS_Lab/drivers/third_party/ST/STM32L4xx_HAL_Driver/Src\stm32l4xx_hal_gpio.c ****   * IMPLIED WARRANTIES OF MERCHANTABILITY AND FITNESS FOR A PARTICULAR PURPOSE ARE
 110:d:/LiteOS_Lab/drivers/third_party/ST/STM32L4xx_HAL_Driver/Src\stm32l4xx_hal_gpio.c ****   * DISCLAIMED. IN NO EVENT SHALL THE COPYRIGHT HOLDER OR CONTRIBUTORS BE LIABLE
 111:d:/LiteOS_Lab/drivers/third_party/ST/STM32L4xx_HAL_Driver/Src\stm32l4xx_hal_gpio.c ****   * FOR ANY DIRECT, INDIRECT, INCIDENTAL, SPECIAL, EXEMPLARY, OR CONSEQUENTIAL
 112:d:/LiteOS_Lab/drivers/third_party/ST/STM32L4xx_HAL_Driver/Src\stm32l4xx_hal_gpio.c ****   * DAMAGES (INCLUDING, BUT NOT LIMITED TO, PROCUREMENT OF SUBSTITUTE GOODS OR
 113:d:/LiteOS_Lab/drivers/third_party/ST/STM32L4xx_HAL_Driver/Src\stm32l4xx_hal_gpio.c ****   * SERVICES; LOSS OF USE, DATA, OR PROFITS; OR BUSINESS INTERRUPTION) HOWEVER
 114:d:/LiteOS_Lab/drivers/third_party/ST/STM32L4xx_HAL_Driver/Src\stm32l4xx_hal_gpio.c ****   * CAUSED AND ON ANY THEORY OF LIABILITY, WHETHER IN CONTRACT, STRICT LIABILITY,
 115:d:/LiteOS_Lab/drivers/third_party/ST/STM32L4xx_HAL_Driver/Src\stm32l4xx_hal_gpio.c ****   * OR TORT (INCLUDING NEGLIGENCE OR OTHERWISE) ARISING IN ANY WAY OUT OF THE USE
 116:d:/LiteOS_Lab/drivers/third_party/ST/STM32L4xx_HAL_Driver/Src\stm32l4xx_hal_gpio.c ****   * OF THIS SOFTWARE, EVEN IF ADVISED OF THE POSSIBILITY OF SUCH DAMAGE.
 117:d:/LiteOS_Lab/drivers/third_party/ST/STM32L4xx_HAL_Driver/Src\stm32l4xx_hal_gpio.c ****   *
 118:d:/LiteOS_Lab/drivers/third_party/ST/STM32L4xx_HAL_Driver/Src\stm32l4xx_hal_gpio.c ****   ******************************************************************************
 119:d:/LiteOS_Lab/drivers/third_party/ST/STM32L4xx_HAL_Driver/Src\stm32l4xx_hal_gpio.c ****   */
 120:d:/LiteOS_Lab/drivers/third_party/ST/STM32L4xx_HAL_Driver/Src\stm32l4xx_hal_gpio.c **** 
 121:d:/LiteOS_Lab/drivers/third_party/ST/STM32L4xx_HAL_Driver/Src\stm32l4xx_hal_gpio.c **** /* Includes ------------------------------------------------------------------*/
 122:d:/LiteOS_Lab/drivers/third_party/ST/STM32L4xx_HAL_Driver/Src\stm32l4xx_hal_gpio.c **** #include "stm32l4xx_hal.h"
 123:d:/LiteOS_Lab/drivers/third_party/ST/STM32L4xx_HAL_Driver/Src\stm32l4xx_hal_gpio.c **** 
 124:d:/LiteOS_Lab/drivers/third_party/ST/STM32L4xx_HAL_Driver/Src\stm32l4xx_hal_gpio.c **** /** @addtogroup STM32L4xx_HAL_Driver
 125:d:/LiteOS_Lab/drivers/third_party/ST/STM32L4xx_HAL_Driver/Src\stm32l4xx_hal_gpio.c ****   * @{
 126:d:/LiteOS_Lab/drivers/third_party/ST/STM32L4xx_HAL_Driver/Src\stm32l4xx_hal_gpio.c ****   */
 127:d:/LiteOS_Lab/drivers/third_party/ST/STM32L4xx_HAL_Driver/Src\stm32l4xx_hal_gpio.c **** 
 128:d:/LiteOS_Lab/drivers/third_party/ST/STM32L4xx_HAL_Driver/Src\stm32l4xx_hal_gpio.c **** /** @defgroup GPIO GPIO
 129:d:/LiteOS_Lab/drivers/third_party/ST/STM32L4xx_HAL_Driver/Src\stm32l4xx_hal_gpio.c ****   * @brief GPIO HAL module driver
 130:d:/LiteOS_Lab/drivers/third_party/ST/STM32L4xx_HAL_Driver/Src\stm32l4xx_hal_gpio.c ****   * @{
 131:d:/LiteOS_Lab/drivers/third_party/ST/STM32L4xx_HAL_Driver/Src\stm32l4xx_hal_gpio.c ****   */
 132:d:/LiteOS_Lab/drivers/third_party/ST/STM32L4xx_HAL_Driver/Src\stm32l4xx_hal_gpio.c **** 
 133:d:/LiteOS_Lab/drivers/third_party/ST/STM32L4xx_HAL_Driver/Src\stm32l4xx_hal_gpio.c **** #ifdef HAL_GPIO_MODULE_ENABLED
 134:d:/LiteOS_Lab/drivers/third_party/ST/STM32L4xx_HAL_Driver/Src\stm32l4xx_hal_gpio.c **** 
 135:d:/LiteOS_Lab/drivers/third_party/ST/STM32L4xx_HAL_Driver/Src\stm32l4xx_hal_gpio.c **** /* Private typedef -----------------------------------------------------------*/
 136:d:/LiteOS_Lab/drivers/third_party/ST/STM32L4xx_HAL_Driver/Src\stm32l4xx_hal_gpio.c **** /* Private defines -----------------------------------------------------------*/
 137:d:/LiteOS_Lab/drivers/third_party/ST/STM32L4xx_HAL_Driver/Src\stm32l4xx_hal_gpio.c **** /** @defgroup GPIO_Private_Defines GPIO Private Defines
 138:d:/LiteOS_Lab/drivers/third_party/ST/STM32L4xx_HAL_Driver/Src\stm32l4xx_hal_gpio.c ****   * @{
 139:d:/LiteOS_Lab/drivers/third_party/ST/STM32L4xx_HAL_Driver/Src\stm32l4xx_hal_gpio.c ****   */
 140:d:/LiteOS_Lab/drivers/third_party/ST/STM32L4xx_HAL_Driver/Src\stm32l4xx_hal_gpio.c **** #define GPIO_MODE             ((uint32_t)0x00000003)
 141:d:/LiteOS_Lab/drivers/third_party/ST/STM32L4xx_HAL_Driver/Src\stm32l4xx_hal_gpio.c **** #define ANALOG_MODE           ((uint32_t)0x00000008)
 142:d:/LiteOS_Lab/drivers/third_party/ST/STM32L4xx_HAL_Driver/Src\stm32l4xx_hal_gpio.c **** #define EXTI_MODE             ((uint32_t)0x10000000)
 143:d:/LiteOS_Lab/drivers/third_party/ST/STM32L4xx_HAL_Driver/Src\stm32l4xx_hal_gpio.c **** #define GPIO_MODE_IT          ((uint32_t)0x00010000)
 144:d:/LiteOS_Lab/drivers/third_party/ST/STM32L4xx_HAL_Driver/Src\stm32l4xx_hal_gpio.c **** #define GPIO_MODE_EVT         ((uint32_t)0x00020000)
ARM GAS  C:\Users\ADMINI~1\AppData\Local\Temp\ccinuMnV.s 			page 4


 145:d:/LiteOS_Lab/drivers/third_party/ST/STM32L4xx_HAL_Driver/Src\stm32l4xx_hal_gpio.c **** #define RISING_EDGE           ((uint32_t)0x00100000)
 146:d:/LiteOS_Lab/drivers/third_party/ST/STM32L4xx_HAL_Driver/Src\stm32l4xx_hal_gpio.c **** #define FALLING_EDGE          ((uint32_t)0x00200000)
 147:d:/LiteOS_Lab/drivers/third_party/ST/STM32L4xx_HAL_Driver/Src\stm32l4xx_hal_gpio.c **** #define GPIO_OUTPUT_TYPE      ((uint32_t)0x00000010)
 148:d:/LiteOS_Lab/drivers/third_party/ST/STM32L4xx_HAL_Driver/Src\stm32l4xx_hal_gpio.c **** 
 149:d:/LiteOS_Lab/drivers/third_party/ST/STM32L4xx_HAL_Driver/Src\stm32l4xx_hal_gpio.c **** #define GPIO_NUMBER           ((uint32_t)16)
 150:d:/LiteOS_Lab/drivers/third_party/ST/STM32L4xx_HAL_Driver/Src\stm32l4xx_hal_gpio.c **** /**
 151:d:/LiteOS_Lab/drivers/third_party/ST/STM32L4xx_HAL_Driver/Src\stm32l4xx_hal_gpio.c ****   * @}
 152:d:/LiteOS_Lab/drivers/third_party/ST/STM32L4xx_HAL_Driver/Src\stm32l4xx_hal_gpio.c ****   */
 153:d:/LiteOS_Lab/drivers/third_party/ST/STM32L4xx_HAL_Driver/Src\stm32l4xx_hal_gpio.c ****   
 154:d:/LiteOS_Lab/drivers/third_party/ST/STM32L4xx_HAL_Driver/Src\stm32l4xx_hal_gpio.c **** /* Private macros ------------------------------------------------------------*/
 155:d:/LiteOS_Lab/drivers/third_party/ST/STM32L4xx_HAL_Driver/Src\stm32l4xx_hal_gpio.c **** /* Private macros ------------------------------------------------------------*/
 156:d:/LiteOS_Lab/drivers/third_party/ST/STM32L4xx_HAL_Driver/Src\stm32l4xx_hal_gpio.c **** /** @defgroup GPIO_Private_Macros GPIO Private Macros
 157:d:/LiteOS_Lab/drivers/third_party/ST/STM32L4xx_HAL_Driver/Src\stm32l4xx_hal_gpio.c ****   * @{
 158:d:/LiteOS_Lab/drivers/third_party/ST/STM32L4xx_HAL_Driver/Src\stm32l4xx_hal_gpio.c ****   */
 159:d:/LiteOS_Lab/drivers/third_party/ST/STM32L4xx_HAL_Driver/Src\stm32l4xx_hal_gpio.c **** /**
 160:d:/LiteOS_Lab/drivers/third_party/ST/STM32L4xx_HAL_Driver/Src\stm32l4xx_hal_gpio.c ****   * @}
 161:d:/LiteOS_Lab/drivers/third_party/ST/STM32L4xx_HAL_Driver/Src\stm32l4xx_hal_gpio.c ****   */
 162:d:/LiteOS_Lab/drivers/third_party/ST/STM32L4xx_HAL_Driver/Src\stm32l4xx_hal_gpio.c **** /* Private variables ---------------------------------------------------------*/
 163:d:/LiteOS_Lab/drivers/third_party/ST/STM32L4xx_HAL_Driver/Src\stm32l4xx_hal_gpio.c **** /* Private function prototypes -----------------------------------------------*/
 164:d:/LiteOS_Lab/drivers/third_party/ST/STM32L4xx_HAL_Driver/Src\stm32l4xx_hal_gpio.c **** /* Exported functions --------------------------------------------------------*/
 165:d:/LiteOS_Lab/drivers/third_party/ST/STM32L4xx_HAL_Driver/Src\stm32l4xx_hal_gpio.c **** 
 166:d:/LiteOS_Lab/drivers/third_party/ST/STM32L4xx_HAL_Driver/Src\stm32l4xx_hal_gpio.c **** /** @defgroup GPIO_Exported_Functions GPIO Exported Functions
 167:d:/LiteOS_Lab/drivers/third_party/ST/STM32L4xx_HAL_Driver/Src\stm32l4xx_hal_gpio.c ****   * @{
 168:d:/LiteOS_Lab/drivers/third_party/ST/STM32L4xx_HAL_Driver/Src\stm32l4xx_hal_gpio.c ****   */
 169:d:/LiteOS_Lab/drivers/third_party/ST/STM32L4xx_HAL_Driver/Src\stm32l4xx_hal_gpio.c **** 
 170:d:/LiteOS_Lab/drivers/third_party/ST/STM32L4xx_HAL_Driver/Src\stm32l4xx_hal_gpio.c **** /** @defgroup GPIO_Exported_Functions_Group1 Initialization/de-initialization functions 
 171:d:/LiteOS_Lab/drivers/third_party/ST/STM32L4xx_HAL_Driver/Src\stm32l4xx_hal_gpio.c ****  *  @brief    Initialization and Configuration functions
 172:d:/LiteOS_Lab/drivers/third_party/ST/STM32L4xx_HAL_Driver/Src\stm32l4xx_hal_gpio.c ****  *
 173:d:/LiteOS_Lab/drivers/third_party/ST/STM32L4xx_HAL_Driver/Src\stm32l4xx_hal_gpio.c **** @verbatim
 174:d:/LiteOS_Lab/drivers/third_party/ST/STM32L4xx_HAL_Driver/Src\stm32l4xx_hal_gpio.c ****  ===============================================================================
 175:d:/LiteOS_Lab/drivers/third_party/ST/STM32L4xx_HAL_Driver/Src\stm32l4xx_hal_gpio.c ****               ##### Initialization and de-initialization functions #####
 176:d:/LiteOS_Lab/drivers/third_party/ST/STM32L4xx_HAL_Driver/Src\stm32l4xx_hal_gpio.c ****  ===============================================================================
 177:d:/LiteOS_Lab/drivers/third_party/ST/STM32L4xx_HAL_Driver/Src\stm32l4xx_hal_gpio.c **** 
 178:d:/LiteOS_Lab/drivers/third_party/ST/STM32L4xx_HAL_Driver/Src\stm32l4xx_hal_gpio.c **** @endverbatim
 179:d:/LiteOS_Lab/drivers/third_party/ST/STM32L4xx_HAL_Driver/Src\stm32l4xx_hal_gpio.c ****   * @{
 180:d:/LiteOS_Lab/drivers/third_party/ST/STM32L4xx_HAL_Driver/Src\stm32l4xx_hal_gpio.c ****   */
 181:d:/LiteOS_Lab/drivers/third_party/ST/STM32L4xx_HAL_Driver/Src\stm32l4xx_hal_gpio.c **** 
 182:d:/LiteOS_Lab/drivers/third_party/ST/STM32L4xx_HAL_Driver/Src\stm32l4xx_hal_gpio.c **** /**
 183:d:/LiteOS_Lab/drivers/third_party/ST/STM32L4xx_HAL_Driver/Src\stm32l4xx_hal_gpio.c ****   * @brief  Initialize the GPIOx peripheral according to the specified parameters in the GPIO_Init.
 184:d:/LiteOS_Lab/drivers/third_party/ST/STM32L4xx_HAL_Driver/Src\stm32l4xx_hal_gpio.c ****   * @param  GPIOx: where x can be (A..H) to select the GPIO peripheral for STM32L4 family
 185:d:/LiteOS_Lab/drivers/third_party/ST/STM32L4xx_HAL_Driver/Src\stm32l4xx_hal_gpio.c ****   * @param  GPIO_Init: pointer to a GPIO_InitTypeDef structure that contains
 186:d:/LiteOS_Lab/drivers/third_party/ST/STM32L4xx_HAL_Driver/Src\stm32l4xx_hal_gpio.c ****   *         the configuration information for the specified GPIO peripheral.
 187:d:/LiteOS_Lab/drivers/third_party/ST/STM32L4xx_HAL_Driver/Src\stm32l4xx_hal_gpio.c ****   * @retval None
 188:d:/LiteOS_Lab/drivers/third_party/ST/STM32L4xx_HAL_Driver/Src\stm32l4xx_hal_gpio.c ****   */
 189:d:/LiteOS_Lab/drivers/third_party/ST/STM32L4xx_HAL_Driver/Src\stm32l4xx_hal_gpio.c **** void HAL_GPIO_Init(GPIO_TypeDef  *GPIOx, GPIO_InitTypeDef *GPIO_Init)
 190:d:/LiteOS_Lab/drivers/third_party/ST/STM32L4xx_HAL_Driver/Src\stm32l4xx_hal_gpio.c **** {
  29              		.loc 1 190 1
  30              		.cfi_startproc
  31              		@ args = 0, pretend = 0, frame = 24
  32              		@ frame_needed = 1, uses_anonymous_args = 0
  33              		@ link register save eliminated.
  34 0000 80B4     		push	{r7}
  35              	.LCFI0:
  36              		.cfi_def_cfa_offset 4
  37              		.cfi_offset 7, -4
  38 0002 87B0     		sub	sp, sp, #28
  39              	.LCFI1:
ARM GAS  C:\Users\ADMINI~1\AppData\Local\Temp\ccinuMnV.s 			page 5


  40              		.cfi_def_cfa_offset 32
  41 0004 00AF     		add	r7, sp, #0
  42              	.LCFI2:
  43              		.cfi_def_cfa_register 7
  44 0006 7860     		str	r0, [r7, #4]
  45 0008 3960     		str	r1, [r7]
 191:d:/LiteOS_Lab/drivers/third_party/ST/STM32L4xx_HAL_Driver/Src\stm32l4xx_hal_gpio.c ****   uint32_t position = 0x00;
  46              		.loc 1 191 12
  47 000a 0023     		movs	r3, #0
  48 000c 7B61     		str	r3, [r7, #20]
 192:d:/LiteOS_Lab/drivers/third_party/ST/STM32L4xx_HAL_Driver/Src\stm32l4xx_hal_gpio.c ****   uint32_t iocurrent = 0x00;
  49              		.loc 1 192 12
  50 000e 0023     		movs	r3, #0
  51 0010 FB60     		str	r3, [r7, #12]
 193:d:/LiteOS_Lab/drivers/third_party/ST/STM32L4xx_HAL_Driver/Src\stm32l4xx_hal_gpio.c ****   uint32_t temp = 0x00;
  52              		.loc 1 193 12
  53 0012 0023     		movs	r3, #0
  54 0014 3B61     		str	r3, [r7, #16]
 194:d:/LiteOS_Lab/drivers/third_party/ST/STM32L4xx_HAL_Driver/Src\stm32l4xx_hal_gpio.c **** 
 195:d:/LiteOS_Lab/drivers/third_party/ST/STM32L4xx_HAL_Driver/Src\stm32l4xx_hal_gpio.c ****   /* Check the parameters */
 196:d:/LiteOS_Lab/drivers/third_party/ST/STM32L4xx_HAL_Driver/Src\stm32l4xx_hal_gpio.c ****   assert_param(IS_GPIO_ALL_INSTANCE(GPIOx));
 197:d:/LiteOS_Lab/drivers/third_party/ST/STM32L4xx_HAL_Driver/Src\stm32l4xx_hal_gpio.c ****   assert_param(IS_GPIO_PIN(GPIO_Init->Pin));
 198:d:/LiteOS_Lab/drivers/third_party/ST/STM32L4xx_HAL_Driver/Src\stm32l4xx_hal_gpio.c ****   assert_param(IS_GPIO_MODE(GPIO_Init->Mode));
 199:d:/LiteOS_Lab/drivers/third_party/ST/STM32L4xx_HAL_Driver/Src\stm32l4xx_hal_gpio.c ****   assert_param(IS_GPIO_PULL(GPIO_Init->Pull));
 200:d:/LiteOS_Lab/drivers/third_party/ST/STM32L4xx_HAL_Driver/Src\stm32l4xx_hal_gpio.c **** 
 201:d:/LiteOS_Lab/drivers/third_party/ST/STM32L4xx_HAL_Driver/Src\stm32l4xx_hal_gpio.c ****   /* Configure the port pins */
 202:d:/LiteOS_Lab/drivers/third_party/ST/STM32L4xx_HAL_Driver/Src\stm32l4xx_hal_gpio.c ****   while (((GPIO_Init->Pin) >> position) != RESET)
  55              		.loc 1 202 9
  56 0016 54E1     		b	.L2
  57              	.L22:
 203:d:/LiteOS_Lab/drivers/third_party/ST/STM32L4xx_HAL_Driver/Src\stm32l4xx_hal_gpio.c ****   {
 204:d:/LiteOS_Lab/drivers/third_party/ST/STM32L4xx_HAL_Driver/Src\stm32l4xx_hal_gpio.c ****     /* Get current io position */
 205:d:/LiteOS_Lab/drivers/third_party/ST/STM32L4xx_HAL_Driver/Src\stm32l4xx_hal_gpio.c ****     iocurrent = (GPIO_Init->Pin) & (1U << position);
  58              		.loc 1 205 27
  59 0018 3B68     		ldr	r3, [r7]
  60 001a 1A68     		ldr	r2, [r3]
  61              		.loc 1 205 40
  62 001c 0121     		movs	r1, #1
  63 001e 7B69     		ldr	r3, [r7, #20]
  64 0020 01FA03F3 		lsl	r3, r1, r3
  65              		.loc 1 205 15
  66 0024 1340     		ands	r3, r3, r2
  67 0026 FB60     		str	r3, [r7, #12]
 206:d:/LiteOS_Lab/drivers/third_party/ST/STM32L4xx_HAL_Driver/Src\stm32l4xx_hal_gpio.c **** 
 207:d:/LiteOS_Lab/drivers/third_party/ST/STM32L4xx_HAL_Driver/Src\stm32l4xx_hal_gpio.c ****     if(iocurrent)
  68              		.loc 1 207 7
  69 0028 FB68     		ldr	r3, [r7, #12]
  70 002a 002B     		cmp	r3, #0
  71 002c 00F04681 		beq	.L3
 208:d:/LiteOS_Lab/drivers/third_party/ST/STM32L4xx_HAL_Driver/Src\stm32l4xx_hal_gpio.c ****     {
 209:d:/LiteOS_Lab/drivers/third_party/ST/STM32L4xx_HAL_Driver/Src\stm32l4xx_hal_gpio.c ****       /*--------------------- GPIO Mode Configuration ------------------------*/
 210:d:/LiteOS_Lab/drivers/third_party/ST/STM32L4xx_HAL_Driver/Src\stm32l4xx_hal_gpio.c ****       /* In case of Alternate function mode selection */
 211:d:/LiteOS_Lab/drivers/third_party/ST/STM32L4xx_HAL_Driver/Src\stm32l4xx_hal_gpio.c ****       if((GPIO_Init->Mode == GPIO_MODE_AF_PP) || (GPIO_Init->Mode == GPIO_MODE_AF_OD))
  72              		.loc 1 211 20
  73 0030 3B68     		ldr	r3, [r7]
  74 0032 5B68     		ldr	r3, [r3, #4]
  75              		.loc 1 211 9
ARM GAS  C:\Users\ADMINI~1\AppData\Local\Temp\ccinuMnV.s 			page 6


  76 0034 022B     		cmp	r3, #2
  77 0036 03D0     		beq	.L4
  78              		.loc 1 211 60 discriminator 1
  79 0038 3B68     		ldr	r3, [r7]
  80 003a 5B68     		ldr	r3, [r3, #4]
  81              		.loc 1 211 47 discriminator 1
  82 003c 122B     		cmp	r3, #18
  83 003e 23D1     		bne	.L5
  84              	.L4:
 212:d:/LiteOS_Lab/drivers/third_party/ST/STM32L4xx_HAL_Driver/Src\stm32l4xx_hal_gpio.c ****       {
 213:d:/LiteOS_Lab/drivers/third_party/ST/STM32L4xx_HAL_Driver/Src\stm32l4xx_hal_gpio.c ****         /* Check the Alternate function parameters */
 214:d:/LiteOS_Lab/drivers/third_party/ST/STM32L4xx_HAL_Driver/Src\stm32l4xx_hal_gpio.c ****         assert_param(IS_GPIO_AF_INSTANCE(GPIOx));
 215:d:/LiteOS_Lab/drivers/third_party/ST/STM32L4xx_HAL_Driver/Src\stm32l4xx_hal_gpio.c ****         assert_param(IS_GPIO_AF(GPIO_Init->Alternate));
 216:d:/LiteOS_Lab/drivers/third_party/ST/STM32L4xx_HAL_Driver/Src\stm32l4xx_hal_gpio.c ****         
 217:d:/LiteOS_Lab/drivers/third_party/ST/STM32L4xx_HAL_Driver/Src\stm32l4xx_hal_gpio.c ****         /* Configure Alternate function mapped with the current IO */
 218:d:/LiteOS_Lab/drivers/third_party/ST/STM32L4xx_HAL_Driver/Src\stm32l4xx_hal_gpio.c ****         temp = GPIOx->AFR[position >> 3];
  85              		.loc 1 218 36
  86 0040 7B69     		ldr	r3, [r7, #20]
  87 0042 DA08     		lsrs	r2, r3, #3
  88              		.loc 1 218 14
  89 0044 7B68     		ldr	r3, [r7, #4]
  90 0046 0832     		adds	r2, r2, #8
  91 0048 53F82230 		ldr	r3, [r3, r2, lsl #2]
  92 004c 3B61     		str	r3, [r7, #16]
 219:d:/LiteOS_Lab/drivers/third_party/ST/STM32L4xx_HAL_Driver/Src\stm32l4xx_hal_gpio.c ****         temp &= ~((uint32_t)0xF << ((uint32_t)(position & (uint32_t)0x07) * 4)) ;
  93              		.loc 1 219 37
  94 004e 7B69     		ldr	r3, [r7, #20]
  95 0050 03F00703 		and	r3, r3, #7
  96              		.loc 1 219 75
  97 0054 9B00     		lsls	r3, r3, #2
  98              		.loc 1 219 33
  99 0056 0F22     		movs	r2, #15
 100 0058 02FA03F3 		lsl	r3, r2, r3
 101              		.loc 1 219 17
 102 005c DB43     		mvns	r3, r3
 103              		.loc 1 219 14
 104 005e 3A69     		ldr	r2, [r7, #16]
 105 0060 1340     		ands	r3, r3, r2
 106 0062 3B61     		str	r3, [r7, #16]
 220:d:/LiteOS_Lab/drivers/third_party/ST/STM32L4xx_HAL_Driver/Src\stm32l4xx_hal_gpio.c ****         temp |= ((uint32_t)(GPIO_Init->Alternate) << (((uint32_t)position & (uint32_t)0x07) * 4));
 107              		.loc 1 220 38
 108 0064 3B68     		ldr	r3, [r7]
 109 0066 1A69     		ldr	r2, [r3, #16]
 110              		.loc 1 220 75
 111 0068 7B69     		ldr	r3, [r7, #20]
 112 006a 03F00703 		and	r3, r3, #7
 113              		.loc 1 220 93
 114 006e 9B00     		lsls	r3, r3, #2
 115              		.loc 1 220 51
 116 0070 02FA03F3 		lsl	r3, r2, r3
 117              		.loc 1 220 14
 118 0074 3A69     		ldr	r2, [r7, #16]
 119 0076 1343     		orrs	r3, r3, r2
 120 0078 3B61     		str	r3, [r7, #16]
 221:d:/LiteOS_Lab/drivers/third_party/ST/STM32L4xx_HAL_Driver/Src\stm32l4xx_hal_gpio.c ****         GPIOx->AFR[position >> 3] = temp;
 121              		.loc 1 221 29
 122 007a 7B69     		ldr	r3, [r7, #20]
ARM GAS  C:\Users\ADMINI~1\AppData\Local\Temp\ccinuMnV.s 			page 7


 123 007c DA08     		lsrs	r2, r3, #3
 124              		.loc 1 221 35
 125 007e 7B68     		ldr	r3, [r7, #4]
 126 0080 0832     		adds	r2, r2, #8
 127 0082 3969     		ldr	r1, [r7, #16]
 128 0084 43F82210 		str	r1, [r3, r2, lsl #2]
 129              	.L5:
 222:d:/LiteOS_Lab/drivers/third_party/ST/STM32L4xx_HAL_Driver/Src\stm32l4xx_hal_gpio.c ****       }
 223:d:/LiteOS_Lab/drivers/third_party/ST/STM32L4xx_HAL_Driver/Src\stm32l4xx_hal_gpio.c **** 
 224:d:/LiteOS_Lab/drivers/third_party/ST/STM32L4xx_HAL_Driver/Src\stm32l4xx_hal_gpio.c ****       /* Configure IO Direction mode (Input, Output, Alternate or Analog) */
 225:d:/LiteOS_Lab/drivers/third_party/ST/STM32L4xx_HAL_Driver/Src\stm32l4xx_hal_gpio.c ****       temp = GPIOx->MODER;
 130              		.loc 1 225 12
 131 0088 7B68     		ldr	r3, [r7, #4]
 132 008a 1B68     		ldr	r3, [r3]
 133 008c 3B61     		str	r3, [r7, #16]
 226:d:/LiteOS_Lab/drivers/third_party/ST/STM32L4xx_HAL_Driver/Src\stm32l4xx_hal_gpio.c ****       temp &= ~(GPIO_MODER_MODE0 << (position * 2));
 134              		.loc 1 226 47
 135 008e 7B69     		ldr	r3, [r7, #20]
 136 0090 5B00     		lsls	r3, r3, #1
 137              		.loc 1 226 34
 138 0092 0322     		movs	r2, #3
 139 0094 02FA03F3 		lsl	r3, r2, r3
 140              		.loc 1 226 15
 141 0098 DB43     		mvns	r3, r3
 142              		.loc 1 226 12
 143 009a 3A69     		ldr	r2, [r7, #16]
 144 009c 1340     		ands	r3, r3, r2
 145 009e 3B61     		str	r3, [r7, #16]
 227:d:/LiteOS_Lab/drivers/third_party/ST/STM32L4xx_HAL_Driver/Src\stm32l4xx_hal_gpio.c ****       temp |= ((GPIO_Init->Mode & GPIO_MODE) << (position * 2));
 146              		.loc 1 227 26
 147 00a0 3B68     		ldr	r3, [r7]
 148 00a2 5B68     		ldr	r3, [r3, #4]
 149              		.loc 1 227 33
 150 00a4 03F00302 		and	r2, r3, #3
 151              		.loc 1 227 59
 152 00a8 7B69     		ldr	r3, [r7, #20]
 153 00aa 5B00     		lsls	r3, r3, #1
 154              		.loc 1 227 46
 155 00ac 02FA03F3 		lsl	r3, r2, r3
 156              		.loc 1 227 12
 157 00b0 3A69     		ldr	r2, [r7, #16]
 158 00b2 1343     		orrs	r3, r3, r2
 159 00b4 3B61     		str	r3, [r7, #16]
 228:d:/LiteOS_Lab/drivers/third_party/ST/STM32L4xx_HAL_Driver/Src\stm32l4xx_hal_gpio.c ****       GPIOx->MODER = temp;
 160              		.loc 1 228 20
 161 00b6 7B68     		ldr	r3, [r7, #4]
 162 00b8 3A69     		ldr	r2, [r7, #16]
 163 00ba 1A60     		str	r2, [r3]
 229:d:/LiteOS_Lab/drivers/third_party/ST/STM32L4xx_HAL_Driver/Src\stm32l4xx_hal_gpio.c **** 
 230:d:/LiteOS_Lab/drivers/third_party/ST/STM32L4xx_HAL_Driver/Src\stm32l4xx_hal_gpio.c ****       /* In case of Output or Alternate function mode selection */
 231:d:/LiteOS_Lab/drivers/third_party/ST/STM32L4xx_HAL_Driver/Src\stm32l4xx_hal_gpio.c ****       if((GPIO_Init->Mode == GPIO_MODE_OUTPUT_PP) || (GPIO_Init->Mode == GPIO_MODE_AF_PP) ||
 164              		.loc 1 231 20
 165 00bc 3B68     		ldr	r3, [r7]
 166 00be 5B68     		ldr	r3, [r3, #4]
 167              		.loc 1 231 9
 168 00c0 012B     		cmp	r3, #1
 169 00c2 0BD0     		beq	.L6
ARM GAS  C:\Users\ADMINI~1\AppData\Local\Temp\ccinuMnV.s 			page 8


 170              		.loc 1 231 64 discriminator 1
 171 00c4 3B68     		ldr	r3, [r7]
 172 00c6 5B68     		ldr	r3, [r3, #4]
 173              		.loc 1 231 51 discriminator 1
 174 00c8 022B     		cmp	r3, #2
 175 00ca 07D0     		beq	.L6
 232:d:/LiteOS_Lab/drivers/third_party/ST/STM32L4xx_HAL_Driver/Src\stm32l4xx_hal_gpio.c ****          (GPIO_Init->Mode == GPIO_MODE_OUTPUT_OD) || (GPIO_Init->Mode == GPIO_MODE_AF_OD))
 176              		.loc 1 232 20 discriminator 2
 177 00cc 3B68     		ldr	r3, [r7]
 178 00ce 5B68     		ldr	r3, [r3, #4]
 231:d:/LiteOS_Lab/drivers/third_party/ST/STM32L4xx_HAL_Driver/Src\stm32l4xx_hal_gpio.c ****          (GPIO_Init->Mode == GPIO_MODE_OUTPUT_OD) || (GPIO_Init->Mode == GPIO_MODE_AF_OD))
 179              		.loc 1 231 91 discriminator 2
 180 00d0 112B     		cmp	r3, #17
 181 00d2 03D0     		beq	.L6
 182              		.loc 1 232 64
 183 00d4 3B68     		ldr	r3, [r7]
 184 00d6 5B68     		ldr	r3, [r3, #4]
 185              		.loc 1 232 51
 186 00d8 122B     		cmp	r3, #18
 187 00da 30D1     		bne	.L7
 188              	.L6:
 233:d:/LiteOS_Lab/drivers/third_party/ST/STM32L4xx_HAL_Driver/Src\stm32l4xx_hal_gpio.c ****       {
 234:d:/LiteOS_Lab/drivers/third_party/ST/STM32L4xx_HAL_Driver/Src\stm32l4xx_hal_gpio.c ****         /* Check the Speed parameter */
 235:d:/LiteOS_Lab/drivers/third_party/ST/STM32L4xx_HAL_Driver/Src\stm32l4xx_hal_gpio.c ****         assert_param(IS_GPIO_SPEED(GPIO_Init->Speed));
 236:d:/LiteOS_Lab/drivers/third_party/ST/STM32L4xx_HAL_Driver/Src\stm32l4xx_hal_gpio.c ****         /* Configure the IO Speed */
 237:d:/LiteOS_Lab/drivers/third_party/ST/STM32L4xx_HAL_Driver/Src\stm32l4xx_hal_gpio.c ****         temp = GPIOx->OSPEEDR;
 189              		.loc 1 237 14
 190 00dc 7B68     		ldr	r3, [r7, #4]
 191 00de 9B68     		ldr	r3, [r3, #8]
 192 00e0 3B61     		str	r3, [r7, #16]
 238:d:/LiteOS_Lab/drivers/third_party/ST/STM32L4xx_HAL_Driver/Src\stm32l4xx_hal_gpio.c ****         temp &= ~(GPIO_OSPEEDR_OSPEED0 << (position * 2));
 193              		.loc 1 238 53
 194 00e2 7B69     		ldr	r3, [r7, #20]
 195 00e4 5B00     		lsls	r3, r3, #1
 196              		.loc 1 238 40
 197 00e6 0322     		movs	r2, #3
 198 00e8 02FA03F3 		lsl	r3, r2, r3
 199              		.loc 1 238 17
 200 00ec DB43     		mvns	r3, r3
 201              		.loc 1 238 14
 202 00ee 3A69     		ldr	r2, [r7, #16]
 203 00f0 1340     		ands	r3, r3, r2
 204 00f2 3B61     		str	r3, [r7, #16]
 239:d:/LiteOS_Lab/drivers/third_party/ST/STM32L4xx_HAL_Driver/Src\stm32l4xx_hal_gpio.c ****         temp |= (GPIO_Init->Speed << (position * 2));
 205              		.loc 1 239 27
 206 00f4 3B68     		ldr	r3, [r7]
 207 00f6 DA68     		ldr	r2, [r3, #12]
 208              		.loc 1 239 48
 209 00f8 7B69     		ldr	r3, [r7, #20]
 210 00fa 5B00     		lsls	r3, r3, #1
 211              		.loc 1 239 35
 212 00fc 02FA03F3 		lsl	r3, r2, r3
 213              		.loc 1 239 14
 214 0100 3A69     		ldr	r2, [r7, #16]
 215 0102 1343     		orrs	r3, r3, r2
 216 0104 3B61     		str	r3, [r7, #16]
 240:d:/LiteOS_Lab/drivers/third_party/ST/STM32L4xx_HAL_Driver/Src\stm32l4xx_hal_gpio.c ****         GPIOx->OSPEEDR = temp;
ARM GAS  C:\Users\ADMINI~1\AppData\Local\Temp\ccinuMnV.s 			page 9


 217              		.loc 1 240 24
 218 0106 7B68     		ldr	r3, [r7, #4]
 219 0108 3A69     		ldr	r2, [r7, #16]
 220 010a 9A60     		str	r2, [r3, #8]
 241:d:/LiteOS_Lab/drivers/third_party/ST/STM32L4xx_HAL_Driver/Src\stm32l4xx_hal_gpio.c **** 
 242:d:/LiteOS_Lab/drivers/third_party/ST/STM32L4xx_HAL_Driver/Src\stm32l4xx_hal_gpio.c ****         /* Configure the IO Output Type */
 243:d:/LiteOS_Lab/drivers/third_party/ST/STM32L4xx_HAL_Driver/Src\stm32l4xx_hal_gpio.c ****         temp = GPIOx->OTYPER;
 221              		.loc 1 243 14
 222 010c 7B68     		ldr	r3, [r7, #4]
 223 010e 5B68     		ldr	r3, [r3, #4]
 224 0110 3B61     		str	r3, [r7, #16]
 244:d:/LiteOS_Lab/drivers/third_party/ST/STM32L4xx_HAL_Driver/Src\stm32l4xx_hal_gpio.c ****         temp &= ~(GPIO_OTYPER_OT0 << position) ;
 225              		.loc 1 244 35
 226 0112 0122     		movs	r2, #1
 227 0114 7B69     		ldr	r3, [r7, #20]
 228 0116 02FA03F3 		lsl	r3, r2, r3
 229              		.loc 1 244 17
 230 011a DB43     		mvns	r3, r3
 231              		.loc 1 244 14
 232 011c 3A69     		ldr	r2, [r7, #16]
 233 011e 1340     		ands	r3, r3, r2
 234 0120 3B61     		str	r3, [r7, #16]
 245:d:/LiteOS_Lab/drivers/third_party/ST/STM32L4xx_HAL_Driver/Src\stm32l4xx_hal_gpio.c ****         temp |= (((GPIO_Init->Mode & GPIO_OUTPUT_TYPE) >> 4) << position);
 235              		.loc 1 245 29
 236 0122 3B68     		ldr	r3, [r7]
 237 0124 5B68     		ldr	r3, [r3, #4]
 238              		.loc 1 245 56
 239 0126 1B09     		lsrs	r3, r3, #4
 240 0128 03F00102 		and	r2, r3, #1
 241              		.loc 1 245 62
 242 012c 7B69     		ldr	r3, [r7, #20]
 243 012e 02FA03F3 		lsl	r3, r2, r3
 244              		.loc 1 245 14
 245 0132 3A69     		ldr	r2, [r7, #16]
 246 0134 1343     		orrs	r3, r3, r2
 247 0136 3B61     		str	r3, [r7, #16]
 246:d:/LiteOS_Lab/drivers/third_party/ST/STM32L4xx_HAL_Driver/Src\stm32l4xx_hal_gpio.c ****         GPIOx->OTYPER = temp;
 248              		.loc 1 246 23
 249 0138 7B68     		ldr	r3, [r7, #4]
 250 013a 3A69     		ldr	r2, [r7, #16]
 251 013c 5A60     		str	r2, [r3, #4]
 252              	.L7:
 247:d:/LiteOS_Lab/drivers/third_party/ST/STM32L4xx_HAL_Driver/Src\stm32l4xx_hal_gpio.c ****       }
 248:d:/LiteOS_Lab/drivers/third_party/ST/STM32L4xx_HAL_Driver/Src\stm32l4xx_hal_gpio.c **** 
 249:d:/LiteOS_Lab/drivers/third_party/ST/STM32L4xx_HAL_Driver/Src\stm32l4xx_hal_gpio.c **** #if defined(STM32L471xx) || defined(STM32L475xx) || defined(STM32L476xx) || defined(STM32L485xx) ||
 250:d:/LiteOS_Lab/drivers/third_party/ST/STM32L4xx_HAL_Driver/Src\stm32l4xx_hal_gpio.c **** 
 251:d:/LiteOS_Lab/drivers/third_party/ST/STM32L4xx_HAL_Driver/Src\stm32l4xx_hal_gpio.c ****       /* In case of Analog mode, check if ADC control mode is selected */
 252:d:/LiteOS_Lab/drivers/third_party/ST/STM32L4xx_HAL_Driver/Src\stm32l4xx_hal_gpio.c ****       if((GPIO_Init->Mode & GPIO_MODE_ANALOG) == GPIO_MODE_ANALOG)
 253:d:/LiteOS_Lab/drivers/third_party/ST/STM32L4xx_HAL_Driver/Src\stm32l4xx_hal_gpio.c ****       {
 254:d:/LiteOS_Lab/drivers/third_party/ST/STM32L4xx_HAL_Driver/Src\stm32l4xx_hal_gpio.c ****         /* Configure the IO Output Type */
 255:d:/LiteOS_Lab/drivers/third_party/ST/STM32L4xx_HAL_Driver/Src\stm32l4xx_hal_gpio.c ****         temp = GPIOx->ASCR;
 256:d:/LiteOS_Lab/drivers/third_party/ST/STM32L4xx_HAL_Driver/Src\stm32l4xx_hal_gpio.c ****         temp &= ~(GPIO_ASCR_ASC0 << position) ;
 257:d:/LiteOS_Lab/drivers/third_party/ST/STM32L4xx_HAL_Driver/Src\stm32l4xx_hal_gpio.c ****         temp |= (((GPIO_Init->Mode & ANALOG_MODE) >> 3) << position);
 258:d:/LiteOS_Lab/drivers/third_party/ST/STM32L4xx_HAL_Driver/Src\stm32l4xx_hal_gpio.c ****         GPIOx->ASCR = temp;
 259:d:/LiteOS_Lab/drivers/third_party/ST/STM32L4xx_HAL_Driver/Src\stm32l4xx_hal_gpio.c ****       }
 260:d:/LiteOS_Lab/drivers/third_party/ST/STM32L4xx_HAL_Driver/Src\stm32l4xx_hal_gpio.c **** 
 261:d:/LiteOS_Lab/drivers/third_party/ST/STM32L4xx_HAL_Driver/Src\stm32l4xx_hal_gpio.c **** #endif /* STM32L471xx || STM32L475xx || STM32L476xx || STM32L485xx || STM32L486xx */
ARM GAS  C:\Users\ADMINI~1\AppData\Local\Temp\ccinuMnV.s 			page 10


 262:d:/LiteOS_Lab/drivers/third_party/ST/STM32L4xx_HAL_Driver/Src\stm32l4xx_hal_gpio.c **** 
 263:d:/LiteOS_Lab/drivers/third_party/ST/STM32L4xx_HAL_Driver/Src\stm32l4xx_hal_gpio.c ****       /* Activate the Pull-up or Pull down resistor for the current IO */
 264:d:/LiteOS_Lab/drivers/third_party/ST/STM32L4xx_HAL_Driver/Src\stm32l4xx_hal_gpio.c ****       temp = GPIOx->PUPDR;
 253              		.loc 1 264 12
 254 013e 7B68     		ldr	r3, [r7, #4]
 255 0140 DB68     		ldr	r3, [r3, #12]
 256 0142 3B61     		str	r3, [r7, #16]
 265:d:/LiteOS_Lab/drivers/third_party/ST/STM32L4xx_HAL_Driver/Src\stm32l4xx_hal_gpio.c ****       temp &= ~(GPIO_PUPDR_PUPD0 << (position * 2));
 257              		.loc 1 265 47
 258 0144 7B69     		ldr	r3, [r7, #20]
 259 0146 5B00     		lsls	r3, r3, #1
 260              		.loc 1 265 34
 261 0148 0322     		movs	r2, #3
 262 014a 02FA03F3 		lsl	r3, r2, r3
 263              		.loc 1 265 15
 264 014e DB43     		mvns	r3, r3
 265              		.loc 1 265 12
 266 0150 3A69     		ldr	r2, [r7, #16]
 267 0152 1340     		ands	r3, r3, r2
 268 0154 3B61     		str	r3, [r7, #16]
 266:d:/LiteOS_Lab/drivers/third_party/ST/STM32L4xx_HAL_Driver/Src\stm32l4xx_hal_gpio.c ****       temp |= ((GPIO_Init->Pull) << (position * 2));
 269              		.loc 1 266 26
 270 0156 3B68     		ldr	r3, [r7]
 271 0158 9A68     		ldr	r2, [r3, #8]
 272              		.loc 1 266 47
 273 015a 7B69     		ldr	r3, [r7, #20]
 274 015c 5B00     		lsls	r3, r3, #1
 275              		.loc 1 266 34
 276 015e 02FA03F3 		lsl	r3, r2, r3
 277              		.loc 1 266 12
 278 0162 3A69     		ldr	r2, [r7, #16]
 279 0164 1343     		orrs	r3, r3, r2
 280 0166 3B61     		str	r3, [r7, #16]
 267:d:/LiteOS_Lab/drivers/third_party/ST/STM32L4xx_HAL_Driver/Src\stm32l4xx_hal_gpio.c ****       GPIOx->PUPDR = temp;
 281              		.loc 1 267 20
 282 0168 7B68     		ldr	r3, [r7, #4]
 283 016a 3A69     		ldr	r2, [r7, #16]
 284 016c DA60     		str	r2, [r3, #12]
 268:d:/LiteOS_Lab/drivers/third_party/ST/STM32L4xx_HAL_Driver/Src\stm32l4xx_hal_gpio.c **** 
 269:d:/LiteOS_Lab/drivers/third_party/ST/STM32L4xx_HAL_Driver/Src\stm32l4xx_hal_gpio.c ****       /*--------------------- EXTI Mode Configuration ------------------------*/
 270:d:/LiteOS_Lab/drivers/third_party/ST/STM32L4xx_HAL_Driver/Src\stm32l4xx_hal_gpio.c ****       /* Configure the External Interrupt or event for the current IO */
 271:d:/LiteOS_Lab/drivers/third_party/ST/STM32L4xx_HAL_Driver/Src\stm32l4xx_hal_gpio.c ****       if((GPIO_Init->Mode & EXTI_MODE) == EXTI_MODE)
 285              		.loc 1 271 20
 286 016e 3B68     		ldr	r3, [r7]
 287 0170 5B68     		ldr	r3, [r3, #4]
 288              		.loc 1 271 27
 289 0172 03F08053 		and	r3, r3, #268435456
 290              		.loc 1 271 9
 291 0176 002B     		cmp	r3, #0
 292 0178 00F0A080 		beq	.L3
 293              	.LBB2:
 272:d:/LiteOS_Lab/drivers/third_party/ST/STM32L4xx_HAL_Driver/Src\stm32l4xx_hal_gpio.c ****       {
 273:d:/LiteOS_Lab/drivers/third_party/ST/STM32L4xx_HAL_Driver/Src\stm32l4xx_hal_gpio.c ****         /* Enable SYSCFG Clock */
 274:d:/LiteOS_Lab/drivers/third_party/ST/STM32L4xx_HAL_Driver/Src\stm32l4xx_hal_gpio.c ****         __HAL_RCC_SYSCFG_CLK_ENABLE();
 294              		.loc 1 274 9
 295 017c 584B     		ldr	r3, .L23
 296 017e 1B6E     		ldr	r3, [r3, #96]
ARM GAS  C:\Users\ADMINI~1\AppData\Local\Temp\ccinuMnV.s 			page 11


 297 0180 574A     		ldr	r2, .L23
 298 0182 43F00103 		orr	r3, r3, #1
 299 0186 1366     		str	r3, [r2, #96]
 300 0188 554B     		ldr	r3, .L23
 301 018a 1B6E     		ldr	r3, [r3, #96]
 302 018c 03F00103 		and	r3, r3, #1
 303 0190 BB60     		str	r3, [r7, #8]
 304 0192 BB68     		ldr	r3, [r7, #8]
 305              	.LBE2:
 275:d:/LiteOS_Lab/drivers/third_party/ST/STM32L4xx_HAL_Driver/Src\stm32l4xx_hal_gpio.c **** 
 276:d:/LiteOS_Lab/drivers/third_party/ST/STM32L4xx_HAL_Driver/Src\stm32l4xx_hal_gpio.c ****         temp = SYSCFG->EXTICR[position >> 2];
 306              		.loc 1 276 22
 307 0194 534A     		ldr	r2, .L23+4
 308              		.loc 1 276 40
 309 0196 7B69     		ldr	r3, [r7, #20]
 310 0198 9B08     		lsrs	r3, r3, #2
 311              		.loc 1 276 14
 312 019a 0233     		adds	r3, r3, #2
 313 019c 52F82330 		ldr	r3, [r2, r3, lsl #2]
 314 01a0 3B61     		str	r3, [r7, #16]
 277:d:/LiteOS_Lab/drivers/third_party/ST/STM32L4xx_HAL_Driver/Src\stm32l4xx_hal_gpio.c ****         temp &= ~(((uint32_t)0x0F) << (4 * (position & 0x03)));
 315              		.loc 1 277 54
 316 01a2 7B69     		ldr	r3, [r7, #20]
 317 01a4 03F00303 		and	r3, r3, #3
 318              		.loc 1 277 42
 319 01a8 9B00     		lsls	r3, r3, #2
 320              		.loc 1 277 36
 321 01aa 0F22     		movs	r2, #15
 322 01ac 02FA03F3 		lsl	r3, r2, r3
 323              		.loc 1 277 17
 324 01b0 DB43     		mvns	r3, r3
 325              		.loc 1 277 14
 326 01b2 3A69     		ldr	r2, [r7, #16]
 327 01b4 1340     		ands	r3, r3, r2
 328 01b6 3B61     		str	r3, [r7, #16]
 278:d:/LiteOS_Lab/drivers/third_party/ST/STM32L4xx_HAL_Driver/Src\stm32l4xx_hal_gpio.c ****         temp |= (GPIO_GET_INDEX(GPIOx) << (4 * (position & 0x03)));
 329              		.loc 1 278 18
 330 01b8 7B68     		ldr	r3, [r7, #4]
 331 01ba B3F1904F 		cmp	r3, #1207959552
 332 01be 19D0     		beq	.L8
 333              		.loc 1 278 18 is_stmt 0 discriminator 1
 334 01c0 7B68     		ldr	r3, [r7, #4]
 335 01c2 494A     		ldr	r2, .L23+8
 336 01c4 9342     		cmp	r3, r2
 337 01c6 13D0     		beq	.L9
 338              		.loc 1 278 18 discriminator 3
 339 01c8 7B68     		ldr	r3, [r7, #4]
 340 01ca 484A     		ldr	r2, .L23+12
 341 01cc 9342     		cmp	r3, r2
 342 01ce 0DD0     		beq	.L10
 343              		.loc 1 278 18 discriminator 5
 344 01d0 7B68     		ldr	r3, [r7, #4]
 345 01d2 474A     		ldr	r2, .L23+16
 346 01d4 9342     		cmp	r3, r2
 347 01d6 07D0     		beq	.L11
 348              		.loc 1 278 18 discriminator 7
 349 01d8 7B68     		ldr	r3, [r7, #4]
ARM GAS  C:\Users\ADMINI~1\AppData\Local\Temp\ccinuMnV.s 			page 12


 350 01da 464A     		ldr	r2, .L23+20
 351 01dc 9342     		cmp	r3, r2
 352 01de 01D1     		bne	.L12
 353              		.loc 1 278 18 discriminator 9
 354 01e0 0423     		movs	r3, #4
 355 01e2 08E0     		b	.L17
 356              	.L12:
 357              		.loc 1 278 18 discriminator 10
 358 01e4 0723     		movs	r3, #7
 359 01e6 06E0     		b	.L17
 360              	.L11:
 361              		.loc 1 278 18 discriminator 8
 362 01e8 0323     		movs	r3, #3
 363 01ea 04E0     		b	.L17
 364              	.L10:
 365              		.loc 1 278 18 discriminator 6
 366 01ec 0223     		movs	r3, #2
 367 01ee 02E0     		b	.L17
 368              	.L9:
 369              		.loc 1 278 18 discriminator 4
 370 01f0 0123     		movs	r3, #1
 371 01f2 00E0     		b	.L17
 372              	.L8:
 373              		.loc 1 278 18 discriminator 2
 374 01f4 0023     		movs	r3, #0
 375              	.L17:
 376              		.loc 1 278 58 is_stmt 1 discriminator 20
 377 01f6 7A69     		ldr	r2, [r7, #20]
 378 01f8 02F00302 		and	r2, r2, #3
 379              		.loc 1 278 46 discriminator 20
 380 01fc 9200     		lsls	r2, r2, #2
 381              		.loc 1 278 40 discriminator 20
 382 01fe 9340     		lsls	r3, r3, r2
 383              		.loc 1 278 14 discriminator 20
 384 0200 3A69     		ldr	r2, [r7, #16]
 385 0202 1343     		orrs	r3, r3, r2
 386 0204 3B61     		str	r3, [r7, #16]
 279:d:/LiteOS_Lab/drivers/third_party/ST/STM32L4xx_HAL_Driver/Src\stm32l4xx_hal_gpio.c ****         SYSCFG->EXTICR[position >> 2] = temp;
 387              		.loc 1 279 15 discriminator 20
 388 0206 3749     		ldr	r1, .L23+4
 389              		.loc 1 279 33 discriminator 20
 390 0208 7B69     		ldr	r3, [r7, #20]
 391 020a 9B08     		lsrs	r3, r3, #2
 392              		.loc 1 279 39 discriminator 20
 393 020c 0233     		adds	r3, r3, #2
 394 020e 3A69     		ldr	r2, [r7, #16]
 395 0210 41F82320 		str	r2, [r1, r3, lsl #2]
 280:d:/LiteOS_Lab/drivers/third_party/ST/STM32L4xx_HAL_Driver/Src\stm32l4xx_hal_gpio.c **** 
 281:d:/LiteOS_Lab/drivers/third_party/ST/STM32L4xx_HAL_Driver/Src\stm32l4xx_hal_gpio.c ****         /* Clear EXTI line configuration */
 282:d:/LiteOS_Lab/drivers/third_party/ST/STM32L4xx_HAL_Driver/Src\stm32l4xx_hal_gpio.c ****         temp = EXTI->IMR1;
 396              		.loc 1 282 20 discriminator 20
 397 0214 384B     		ldr	r3, .L23+24
 398              		.loc 1 282 14 discriminator 20
 399 0216 1B68     		ldr	r3, [r3]
 400 0218 3B61     		str	r3, [r7, #16]
 283:d:/LiteOS_Lab/drivers/third_party/ST/STM32L4xx_HAL_Driver/Src\stm32l4xx_hal_gpio.c ****         temp &= ~((uint32_t)iocurrent);
 401              		.loc 1 283 17 discriminator 20
ARM GAS  C:\Users\ADMINI~1\AppData\Local\Temp\ccinuMnV.s 			page 13


 402 021a FB68     		ldr	r3, [r7, #12]
 403 021c DB43     		mvns	r3, r3
 404              		.loc 1 283 14 discriminator 20
 405 021e 3A69     		ldr	r2, [r7, #16]
 406 0220 1340     		ands	r3, r3, r2
 407 0222 3B61     		str	r3, [r7, #16]
 284:d:/LiteOS_Lab/drivers/third_party/ST/STM32L4xx_HAL_Driver/Src\stm32l4xx_hal_gpio.c ****         if((GPIO_Init->Mode & GPIO_MODE_IT) == GPIO_MODE_IT)
 408              		.loc 1 284 22 discriminator 20
 409 0224 3B68     		ldr	r3, [r7]
 410 0226 5B68     		ldr	r3, [r3, #4]
 411              		.loc 1 284 29 discriminator 20
 412 0228 03F48033 		and	r3, r3, #65536
 413              		.loc 1 284 11 discriminator 20
 414 022c 002B     		cmp	r3, #0
 415 022e 03D0     		beq	.L18
 285:d:/LiteOS_Lab/drivers/third_party/ST/STM32L4xx_HAL_Driver/Src\stm32l4xx_hal_gpio.c ****         {
 286:d:/LiteOS_Lab/drivers/third_party/ST/STM32L4xx_HAL_Driver/Src\stm32l4xx_hal_gpio.c ****           temp |= iocurrent;
 416              		.loc 1 286 16
 417 0230 3A69     		ldr	r2, [r7, #16]
 418 0232 FB68     		ldr	r3, [r7, #12]
 419 0234 1343     		orrs	r3, r3, r2
 420 0236 3B61     		str	r3, [r7, #16]
 421              	.L18:
 287:d:/LiteOS_Lab/drivers/third_party/ST/STM32L4xx_HAL_Driver/Src\stm32l4xx_hal_gpio.c ****         }
 288:d:/LiteOS_Lab/drivers/third_party/ST/STM32L4xx_HAL_Driver/Src\stm32l4xx_hal_gpio.c ****         EXTI->IMR1 = temp;
 422              		.loc 1 288 13
 423 0238 2F4A     		ldr	r2, .L23+24
 424              		.loc 1 288 20
 425 023a 3B69     		ldr	r3, [r7, #16]
 426 023c 1360     		str	r3, [r2]
 289:d:/LiteOS_Lab/drivers/third_party/ST/STM32L4xx_HAL_Driver/Src\stm32l4xx_hal_gpio.c **** 
 290:d:/LiteOS_Lab/drivers/third_party/ST/STM32L4xx_HAL_Driver/Src\stm32l4xx_hal_gpio.c ****         temp = EXTI->EMR1;
 427              		.loc 1 290 20
 428 023e 2E4B     		ldr	r3, .L23+24
 429              		.loc 1 290 14
 430 0240 5B68     		ldr	r3, [r3, #4]
 431 0242 3B61     		str	r3, [r7, #16]
 291:d:/LiteOS_Lab/drivers/third_party/ST/STM32L4xx_HAL_Driver/Src\stm32l4xx_hal_gpio.c ****         temp &= ~((uint32_t)iocurrent);
 432              		.loc 1 291 17
 433 0244 FB68     		ldr	r3, [r7, #12]
 434 0246 DB43     		mvns	r3, r3
 435              		.loc 1 291 14
 436 0248 3A69     		ldr	r2, [r7, #16]
 437 024a 1340     		ands	r3, r3, r2
 438 024c 3B61     		str	r3, [r7, #16]
 292:d:/LiteOS_Lab/drivers/third_party/ST/STM32L4xx_HAL_Driver/Src\stm32l4xx_hal_gpio.c ****         if((GPIO_Init->Mode & GPIO_MODE_EVT) == GPIO_MODE_EVT)
 439              		.loc 1 292 22
 440 024e 3B68     		ldr	r3, [r7]
 441 0250 5B68     		ldr	r3, [r3, #4]
 442              		.loc 1 292 29
 443 0252 03F40033 		and	r3, r3, #131072
 444              		.loc 1 292 11
 445 0256 002B     		cmp	r3, #0
 446 0258 03D0     		beq	.L19
 293:d:/LiteOS_Lab/drivers/third_party/ST/STM32L4xx_HAL_Driver/Src\stm32l4xx_hal_gpio.c ****         {
 294:d:/LiteOS_Lab/drivers/third_party/ST/STM32L4xx_HAL_Driver/Src\stm32l4xx_hal_gpio.c ****           temp |= iocurrent;
 447              		.loc 1 294 16
ARM GAS  C:\Users\ADMINI~1\AppData\Local\Temp\ccinuMnV.s 			page 14


 448 025a 3A69     		ldr	r2, [r7, #16]
 449 025c FB68     		ldr	r3, [r7, #12]
 450 025e 1343     		orrs	r3, r3, r2
 451 0260 3B61     		str	r3, [r7, #16]
 452              	.L19:
 295:d:/LiteOS_Lab/drivers/third_party/ST/STM32L4xx_HAL_Driver/Src\stm32l4xx_hal_gpio.c ****         }
 296:d:/LiteOS_Lab/drivers/third_party/ST/STM32L4xx_HAL_Driver/Src\stm32l4xx_hal_gpio.c ****         EXTI->EMR1 = temp;
 453              		.loc 1 296 13
 454 0262 254A     		ldr	r2, .L23+24
 455              		.loc 1 296 20
 456 0264 3B69     		ldr	r3, [r7, #16]
 457 0266 5360     		str	r3, [r2, #4]
 297:d:/LiteOS_Lab/drivers/third_party/ST/STM32L4xx_HAL_Driver/Src\stm32l4xx_hal_gpio.c **** 
 298:d:/LiteOS_Lab/drivers/third_party/ST/STM32L4xx_HAL_Driver/Src\stm32l4xx_hal_gpio.c ****         /* Clear Rising Falling edge configuration */
 299:d:/LiteOS_Lab/drivers/third_party/ST/STM32L4xx_HAL_Driver/Src\stm32l4xx_hal_gpio.c ****         temp = EXTI->RTSR1;
 458              		.loc 1 299 20
 459 0268 234B     		ldr	r3, .L23+24
 460              		.loc 1 299 14
 461 026a 9B68     		ldr	r3, [r3, #8]
 462 026c 3B61     		str	r3, [r7, #16]
 300:d:/LiteOS_Lab/drivers/third_party/ST/STM32L4xx_HAL_Driver/Src\stm32l4xx_hal_gpio.c ****         temp &= ~((uint32_t)iocurrent);
 463              		.loc 1 300 17
 464 026e FB68     		ldr	r3, [r7, #12]
 465 0270 DB43     		mvns	r3, r3
 466              		.loc 1 300 14
 467 0272 3A69     		ldr	r2, [r7, #16]
 468 0274 1340     		ands	r3, r3, r2
 469 0276 3B61     		str	r3, [r7, #16]
 301:d:/LiteOS_Lab/drivers/third_party/ST/STM32L4xx_HAL_Driver/Src\stm32l4xx_hal_gpio.c ****         if((GPIO_Init->Mode & RISING_EDGE) == RISING_EDGE)
 470              		.loc 1 301 22
 471 0278 3B68     		ldr	r3, [r7]
 472 027a 5B68     		ldr	r3, [r3, #4]
 473              		.loc 1 301 29
 474 027c 03F48013 		and	r3, r3, #1048576
 475              		.loc 1 301 11
 476 0280 002B     		cmp	r3, #0
 477 0282 03D0     		beq	.L20
 302:d:/LiteOS_Lab/drivers/third_party/ST/STM32L4xx_HAL_Driver/Src\stm32l4xx_hal_gpio.c ****         {
 303:d:/LiteOS_Lab/drivers/third_party/ST/STM32L4xx_HAL_Driver/Src\stm32l4xx_hal_gpio.c ****           temp |= iocurrent;
 478              		.loc 1 303 16
 479 0284 3A69     		ldr	r2, [r7, #16]
 480 0286 FB68     		ldr	r3, [r7, #12]
 481 0288 1343     		orrs	r3, r3, r2
 482 028a 3B61     		str	r3, [r7, #16]
 483              	.L20:
 304:d:/LiteOS_Lab/drivers/third_party/ST/STM32L4xx_HAL_Driver/Src\stm32l4xx_hal_gpio.c ****         }
 305:d:/LiteOS_Lab/drivers/third_party/ST/STM32L4xx_HAL_Driver/Src\stm32l4xx_hal_gpio.c ****         EXTI->RTSR1 = temp;
 484              		.loc 1 305 13
 485 028c 1A4A     		ldr	r2, .L23+24
 486              		.loc 1 305 21
 487 028e 3B69     		ldr	r3, [r7, #16]
 488 0290 9360     		str	r3, [r2, #8]
 306:d:/LiteOS_Lab/drivers/third_party/ST/STM32L4xx_HAL_Driver/Src\stm32l4xx_hal_gpio.c **** 
 307:d:/LiteOS_Lab/drivers/third_party/ST/STM32L4xx_HAL_Driver/Src\stm32l4xx_hal_gpio.c ****         temp = EXTI->FTSR1;
 489              		.loc 1 307 20
 490 0292 194B     		ldr	r3, .L23+24
 491              		.loc 1 307 14
ARM GAS  C:\Users\ADMINI~1\AppData\Local\Temp\ccinuMnV.s 			page 15


 492 0294 DB68     		ldr	r3, [r3, #12]
 493 0296 3B61     		str	r3, [r7, #16]
 308:d:/LiteOS_Lab/drivers/third_party/ST/STM32L4xx_HAL_Driver/Src\stm32l4xx_hal_gpio.c ****         temp &= ~((uint32_t)iocurrent);
 494              		.loc 1 308 17
 495 0298 FB68     		ldr	r3, [r7, #12]
 496 029a DB43     		mvns	r3, r3
 497              		.loc 1 308 14
 498 029c 3A69     		ldr	r2, [r7, #16]
 499 029e 1340     		ands	r3, r3, r2
 500 02a0 3B61     		str	r3, [r7, #16]
 309:d:/LiteOS_Lab/drivers/third_party/ST/STM32L4xx_HAL_Driver/Src\stm32l4xx_hal_gpio.c ****         if((GPIO_Init->Mode & FALLING_EDGE) == FALLING_EDGE)
 501              		.loc 1 309 22
 502 02a2 3B68     		ldr	r3, [r7]
 503 02a4 5B68     		ldr	r3, [r3, #4]
 504              		.loc 1 309 29
 505 02a6 03F40013 		and	r3, r3, #2097152
 506              		.loc 1 309 11
 507 02aa 002B     		cmp	r3, #0
 508 02ac 03D0     		beq	.L21
 310:d:/LiteOS_Lab/drivers/third_party/ST/STM32L4xx_HAL_Driver/Src\stm32l4xx_hal_gpio.c ****         {
 311:d:/LiteOS_Lab/drivers/third_party/ST/STM32L4xx_HAL_Driver/Src\stm32l4xx_hal_gpio.c ****           temp |= iocurrent;
 509              		.loc 1 311 16
 510 02ae 3A69     		ldr	r2, [r7, #16]
 511 02b0 FB68     		ldr	r3, [r7, #12]
 512 02b2 1343     		orrs	r3, r3, r2
 513 02b4 3B61     		str	r3, [r7, #16]
 514              	.L21:
 312:d:/LiteOS_Lab/drivers/third_party/ST/STM32L4xx_HAL_Driver/Src\stm32l4xx_hal_gpio.c ****         }
 313:d:/LiteOS_Lab/drivers/third_party/ST/STM32L4xx_HAL_Driver/Src\stm32l4xx_hal_gpio.c ****         EXTI->FTSR1 = temp;
 515              		.loc 1 313 13
 516 02b6 104A     		ldr	r2, .L23+24
 517              		.loc 1 313 21
 518 02b8 3B69     		ldr	r3, [r7, #16]
 519 02ba D360     		str	r3, [r2, #12]
 520              	.L3:
 314:d:/LiteOS_Lab/drivers/third_party/ST/STM32L4xx_HAL_Driver/Src\stm32l4xx_hal_gpio.c ****       }
 315:d:/LiteOS_Lab/drivers/third_party/ST/STM32L4xx_HAL_Driver/Src\stm32l4xx_hal_gpio.c ****     }
 316:d:/LiteOS_Lab/drivers/third_party/ST/STM32L4xx_HAL_Driver/Src\stm32l4xx_hal_gpio.c ****     
 317:d:/LiteOS_Lab/drivers/third_party/ST/STM32L4xx_HAL_Driver/Src\stm32l4xx_hal_gpio.c ****     position++;
 521              		.loc 1 317 13
 522 02bc 7B69     		ldr	r3, [r7, #20]
 523 02be 0133     		adds	r3, r3, #1
 524 02c0 7B61     		str	r3, [r7, #20]
 525              	.L2:
 202:d:/LiteOS_Lab/drivers/third_party/ST/STM32L4xx_HAL_Driver/Src\stm32l4xx_hal_gpio.c ****   {
 526              		.loc 1 202 21
 527 02c2 3B68     		ldr	r3, [r7]
 528 02c4 1A68     		ldr	r2, [r3]
 202:d:/LiteOS_Lab/drivers/third_party/ST/STM32L4xx_HAL_Driver/Src\stm32l4xx_hal_gpio.c ****   {
 529              		.loc 1 202 28
 530 02c6 7B69     		ldr	r3, [r7, #20]
 531 02c8 22FA03F3 		lsr	r3, r2, r3
 202:d:/LiteOS_Lab/drivers/third_party/ST/STM32L4xx_HAL_Driver/Src\stm32l4xx_hal_gpio.c ****   {
 532              		.loc 1 202 9
 533 02cc 002B     		cmp	r3, #0
 534 02ce 7FF4A3AE 		bne	.L22
 318:d:/LiteOS_Lab/drivers/third_party/ST/STM32L4xx_HAL_Driver/Src\stm32l4xx_hal_gpio.c ****   }
ARM GAS  C:\Users\ADMINI~1\AppData\Local\Temp\ccinuMnV.s 			page 16


 319:d:/LiteOS_Lab/drivers/third_party/ST/STM32L4xx_HAL_Driver/Src\stm32l4xx_hal_gpio.c **** }
 535              		.loc 1 319 1
 536 02d2 00BF     		nop
 537 02d4 00BF     		nop
 538 02d6 1C37     		adds	r7, r7, #28
 539              	.LCFI3:
 540              		.cfi_def_cfa_offset 4
 541 02d8 BD46     		mov	sp, r7
 542              	.LCFI4:
 543              		.cfi_def_cfa_register 13
 544              		@ sp needed
 545 02da 5DF8047B 		ldr	r7, [sp], #4
 546              	.LCFI5:
 547              		.cfi_restore 7
 548              		.cfi_def_cfa_offset 0
 549 02de 7047     		bx	lr
 550              	.L24:
 551              		.align	2
 552              	.L23:
 553 02e0 00100240 		.word	1073876992
 554 02e4 00000140 		.word	1073807360
 555 02e8 00040048 		.word	1207960576
 556 02ec 00080048 		.word	1207961600
 557 02f0 000C0048 		.word	1207962624
 558 02f4 00100048 		.word	1207963648
 559 02f8 00040140 		.word	1073808384
 560              		.cfi_endproc
 561              	.LFE287:
 563              		.section	.text.HAL_GPIO_DeInit,"ax",%progbits
 564              		.align	1
 565              		.global	HAL_GPIO_DeInit
 566              		.syntax unified
 567              		.thumb
 568              		.thumb_func
 569              		.fpu fpv4-sp-d16
 571              	HAL_GPIO_DeInit:
 572              	.LFB288:
 320:d:/LiteOS_Lab/drivers/third_party/ST/STM32L4xx_HAL_Driver/Src\stm32l4xx_hal_gpio.c **** 
 321:d:/LiteOS_Lab/drivers/third_party/ST/STM32L4xx_HAL_Driver/Src\stm32l4xx_hal_gpio.c **** /**
 322:d:/LiteOS_Lab/drivers/third_party/ST/STM32L4xx_HAL_Driver/Src\stm32l4xx_hal_gpio.c ****   * @brief  De-initialize the GPIOx peripheral registers to their default reset values.
 323:d:/LiteOS_Lab/drivers/third_party/ST/STM32L4xx_HAL_Driver/Src\stm32l4xx_hal_gpio.c ****   * @param  GPIOx: where x can be (A..H) to select the GPIO peripheral for STM32L4 family
 324:d:/LiteOS_Lab/drivers/third_party/ST/STM32L4xx_HAL_Driver/Src\stm32l4xx_hal_gpio.c ****   * @param  GPIO_Pin: specifies the port bit to be written.
 325:d:/LiteOS_Lab/drivers/third_party/ST/STM32L4xx_HAL_Driver/Src\stm32l4xx_hal_gpio.c ****   *         This parameter can be one of GPIO_PIN_x where x can be (0..15).
 326:d:/LiteOS_Lab/drivers/third_party/ST/STM32L4xx_HAL_Driver/Src\stm32l4xx_hal_gpio.c ****   * @retval None
 327:d:/LiteOS_Lab/drivers/third_party/ST/STM32L4xx_HAL_Driver/Src\stm32l4xx_hal_gpio.c ****   */
 328:d:/LiteOS_Lab/drivers/third_party/ST/STM32L4xx_HAL_Driver/Src\stm32l4xx_hal_gpio.c **** void HAL_GPIO_DeInit(GPIO_TypeDef  *GPIOx, uint32_t GPIO_Pin)
 329:d:/LiteOS_Lab/drivers/third_party/ST/STM32L4xx_HAL_Driver/Src\stm32l4xx_hal_gpio.c **** {
 573              		.loc 1 329 1
 574              		.cfi_startproc
 575              		@ args = 0, pretend = 0, frame = 24
 576              		@ frame_needed = 1, uses_anonymous_args = 0
 577              		@ link register save eliminated.
 578 0000 80B4     		push	{r7}
 579              	.LCFI6:
 580              		.cfi_def_cfa_offset 4
 581              		.cfi_offset 7, -4
 582 0002 87B0     		sub	sp, sp, #28
ARM GAS  C:\Users\ADMINI~1\AppData\Local\Temp\ccinuMnV.s 			page 17


 583              	.LCFI7:
 584              		.cfi_def_cfa_offset 32
 585 0004 00AF     		add	r7, sp, #0
 586              	.LCFI8:
 587              		.cfi_def_cfa_register 7
 588 0006 7860     		str	r0, [r7, #4]
 589 0008 3960     		str	r1, [r7]
 330:d:/LiteOS_Lab/drivers/third_party/ST/STM32L4xx_HAL_Driver/Src\stm32l4xx_hal_gpio.c ****   uint32_t position = 0x00;
 590              		.loc 1 330 12
 591 000a 0023     		movs	r3, #0
 592 000c 7B61     		str	r3, [r7, #20]
 331:d:/LiteOS_Lab/drivers/third_party/ST/STM32L4xx_HAL_Driver/Src\stm32l4xx_hal_gpio.c ****   uint32_t iocurrent = 0x00;
 593              		.loc 1 331 12
 594 000e 0023     		movs	r3, #0
 595 0010 3B61     		str	r3, [r7, #16]
 332:d:/LiteOS_Lab/drivers/third_party/ST/STM32L4xx_HAL_Driver/Src\stm32l4xx_hal_gpio.c ****   uint32_t tmp = 0x00;
 596              		.loc 1 332 12
 597 0012 0023     		movs	r3, #0
 598 0014 FB60     		str	r3, [r7, #12]
 333:d:/LiteOS_Lab/drivers/third_party/ST/STM32L4xx_HAL_Driver/Src\stm32l4xx_hal_gpio.c **** 
 334:d:/LiteOS_Lab/drivers/third_party/ST/STM32L4xx_HAL_Driver/Src\stm32l4xx_hal_gpio.c ****   /* Check the parameters */
 335:d:/LiteOS_Lab/drivers/third_party/ST/STM32L4xx_HAL_Driver/Src\stm32l4xx_hal_gpio.c ****   assert_param(IS_GPIO_ALL_INSTANCE(GPIOx));
 336:d:/LiteOS_Lab/drivers/third_party/ST/STM32L4xx_HAL_Driver/Src\stm32l4xx_hal_gpio.c ****   assert_param(IS_GPIO_PIN(GPIO_Pin));
 337:d:/LiteOS_Lab/drivers/third_party/ST/STM32L4xx_HAL_Driver/Src\stm32l4xx_hal_gpio.c **** 
 338:d:/LiteOS_Lab/drivers/third_party/ST/STM32L4xx_HAL_Driver/Src\stm32l4xx_hal_gpio.c ****   /* Configure the port pins */
 339:d:/LiteOS_Lab/drivers/third_party/ST/STM32L4xx_HAL_Driver/Src\stm32l4xx_hal_gpio.c ****   while ((GPIO_Pin >> position) != RESET)
 599              		.loc 1 339 9
 600 0016 B7E0     		b	.L26
 601              	.L38:
 340:d:/LiteOS_Lab/drivers/third_party/ST/STM32L4xx_HAL_Driver/Src\stm32l4xx_hal_gpio.c ****   {
 341:d:/LiteOS_Lab/drivers/third_party/ST/STM32L4xx_HAL_Driver/Src\stm32l4xx_hal_gpio.c ****     /* Get current io position */
 342:d:/LiteOS_Lab/drivers/third_party/ST/STM32L4xx_HAL_Driver/Src\stm32l4xx_hal_gpio.c ****     iocurrent = (GPIO_Pin) & (1U << position);
 602              		.loc 1 342 34
 603 0018 0122     		movs	r2, #1
 604 001a 7B69     		ldr	r3, [r7, #20]
 605 001c 02FA03F3 		lsl	r3, r2, r3
 606              		.loc 1 342 15
 607 0020 3A68     		ldr	r2, [r7]
 608 0022 1340     		ands	r3, r3, r2
 609 0024 3B61     		str	r3, [r7, #16]
 343:d:/LiteOS_Lab/drivers/third_party/ST/STM32L4xx_HAL_Driver/Src\stm32l4xx_hal_gpio.c **** 
 344:d:/LiteOS_Lab/drivers/third_party/ST/STM32L4xx_HAL_Driver/Src\stm32l4xx_hal_gpio.c ****     if (iocurrent)
 610              		.loc 1 344 8
 611 0026 3B69     		ldr	r3, [r7, #16]
 612 0028 002B     		cmp	r3, #0
 613 002a 00F0AA80 		beq	.L27
 345:d:/LiteOS_Lab/drivers/third_party/ST/STM32L4xx_HAL_Driver/Src\stm32l4xx_hal_gpio.c ****     {
 346:d:/LiteOS_Lab/drivers/third_party/ST/STM32L4xx_HAL_Driver/Src\stm32l4xx_hal_gpio.c ****       /*------------------------- GPIO Mode Configuration --------------------*/
 347:d:/LiteOS_Lab/drivers/third_party/ST/STM32L4xx_HAL_Driver/Src\stm32l4xx_hal_gpio.c ****       /* Configure IO in Analog Mode */
 348:d:/LiteOS_Lab/drivers/third_party/ST/STM32L4xx_HAL_Driver/Src\stm32l4xx_hal_gpio.c ****       GPIOx->MODER |= (GPIO_MODER_MODE0 << (position * 2));
 614              		.loc 1 348 20
 615 002e 7B68     		ldr	r3, [r7, #4]
 616 0030 1A68     		ldr	r2, [r3]
 617              		.loc 1 348 54
 618 0032 7B69     		ldr	r3, [r7, #20]
 619 0034 5B00     		lsls	r3, r3, #1
 620              		.loc 1 348 41
ARM GAS  C:\Users\ADMINI~1\AppData\Local\Temp\ccinuMnV.s 			page 18


 621 0036 0321     		movs	r1, #3
 622 0038 01FA03F3 		lsl	r3, r1, r3
 623              		.loc 1 348 20
 624 003c 1A43     		orrs	r2, r2, r3
 625 003e 7B68     		ldr	r3, [r7, #4]
 626 0040 1A60     		str	r2, [r3]
 349:d:/LiteOS_Lab/drivers/third_party/ST/STM32L4xx_HAL_Driver/Src\stm32l4xx_hal_gpio.c **** 
 350:d:/LiteOS_Lab/drivers/third_party/ST/STM32L4xx_HAL_Driver/Src\stm32l4xx_hal_gpio.c ****       /* Configure the default Alternate Function in current IO */
 351:d:/LiteOS_Lab/drivers/third_party/ST/STM32L4xx_HAL_Driver/Src\stm32l4xx_hal_gpio.c ****       GPIOx->AFR[position >> 3] &= ~((uint32_t)0xF << ((uint32_t)(position & (uint32_t)0x07) * 4)) 
 627              		.loc 1 351 33
 628 0042 7B69     		ldr	r3, [r7, #20]
 629 0044 DA08     		lsrs	r2, r3, #3
 630 0046 7B68     		ldr	r3, [r7, #4]
 631 0048 0832     		adds	r2, r2, #8
 632 004a 53F82210 		ldr	r1, [r3, r2, lsl #2]
 633              		.loc 1 351 56
 634 004e 7B69     		ldr	r3, [r7, #20]
 635 0050 03F00703 		and	r3, r3, #7
 636              		.loc 1 351 94
 637 0054 9B00     		lsls	r3, r3, #2
 638              		.loc 1 351 52
 639 0056 0F22     		movs	r2, #15
 640 0058 02FA03F3 		lsl	r3, r2, r3
 641              		.loc 1 351 36
 642 005c DB43     		mvns	r3, r3
 643              		.loc 1 351 33
 644 005e 7A69     		ldr	r2, [r7, #20]
 645 0060 D208     		lsrs	r2, r2, #3
 646 0062 1940     		ands	r1, r1, r3
 647 0064 7B68     		ldr	r3, [r7, #4]
 648 0066 0832     		adds	r2, r2, #8
 649 0068 43F82210 		str	r1, [r3, r2, lsl #2]
 352:d:/LiteOS_Lab/drivers/third_party/ST/STM32L4xx_HAL_Driver/Src\stm32l4xx_hal_gpio.c **** 
 353:d:/LiteOS_Lab/drivers/third_party/ST/STM32L4xx_HAL_Driver/Src\stm32l4xx_hal_gpio.c ****       /* Configure the default value for IO Speed */
 354:d:/LiteOS_Lab/drivers/third_party/ST/STM32L4xx_HAL_Driver/Src\stm32l4xx_hal_gpio.c ****       GPIOx->OSPEEDR &= ~(GPIO_OSPEEDR_OSPEED0 << (position * 2));
 650              		.loc 1 354 22
 651 006c 7B68     		ldr	r3, [r7, #4]
 652 006e 9A68     		ldr	r2, [r3, #8]
 653              		.loc 1 354 61
 654 0070 7B69     		ldr	r3, [r7, #20]
 655 0072 5B00     		lsls	r3, r3, #1
 656              		.loc 1 354 48
 657 0074 0321     		movs	r1, #3
 658 0076 01FA03F3 		lsl	r3, r1, r3
 659              		.loc 1 354 25
 660 007a DB43     		mvns	r3, r3
 661              		.loc 1 354 22
 662 007c 1A40     		ands	r2, r2, r3
 663 007e 7B68     		ldr	r3, [r7, #4]
 664 0080 9A60     		str	r2, [r3, #8]
 355:d:/LiteOS_Lab/drivers/third_party/ST/STM32L4xx_HAL_Driver/Src\stm32l4xx_hal_gpio.c **** 
 356:d:/LiteOS_Lab/drivers/third_party/ST/STM32L4xx_HAL_Driver/Src\stm32l4xx_hal_gpio.c ****       /* Configure the default value IO Output Type */
 357:d:/LiteOS_Lab/drivers/third_party/ST/STM32L4xx_HAL_Driver/Src\stm32l4xx_hal_gpio.c ****       GPIOx->OTYPER  &= ~(GPIO_OTYPER_OT0 << position) ;
 665              		.loc 1 357 22
 666 0082 7B68     		ldr	r3, [r7, #4]
 667 0084 5A68     		ldr	r2, [r3, #4]
 668              		.loc 1 357 43
ARM GAS  C:\Users\ADMINI~1\AppData\Local\Temp\ccinuMnV.s 			page 19


 669 0086 0121     		movs	r1, #1
 670 0088 7B69     		ldr	r3, [r7, #20]
 671 008a 01FA03F3 		lsl	r3, r1, r3
 672              		.loc 1 357 25
 673 008e DB43     		mvns	r3, r3
 674              		.loc 1 357 22
 675 0090 1A40     		ands	r2, r2, r3
 676 0092 7B68     		ldr	r3, [r7, #4]
 677 0094 5A60     		str	r2, [r3, #4]
 358:d:/LiteOS_Lab/drivers/third_party/ST/STM32L4xx_HAL_Driver/Src\stm32l4xx_hal_gpio.c **** 
 359:d:/LiteOS_Lab/drivers/third_party/ST/STM32L4xx_HAL_Driver/Src\stm32l4xx_hal_gpio.c ****       /* Deactivate the Pull-up and Pull-down resistor for the current IO */
 360:d:/LiteOS_Lab/drivers/third_party/ST/STM32L4xx_HAL_Driver/Src\stm32l4xx_hal_gpio.c ****       GPIOx->PUPDR &= ~(GPIO_PUPDR_PUPD0 << (position * 2));
 678              		.loc 1 360 20
 679 0096 7B68     		ldr	r3, [r7, #4]
 680 0098 DA68     		ldr	r2, [r3, #12]
 681              		.loc 1 360 55
 682 009a 7B69     		ldr	r3, [r7, #20]
 683 009c 5B00     		lsls	r3, r3, #1
 684              		.loc 1 360 42
 685 009e 0321     		movs	r1, #3
 686 00a0 01FA03F3 		lsl	r3, r1, r3
 687              		.loc 1 360 23
 688 00a4 DB43     		mvns	r3, r3
 689              		.loc 1 360 20
 690 00a6 1A40     		ands	r2, r2, r3
 691 00a8 7B68     		ldr	r3, [r7, #4]
 692 00aa DA60     		str	r2, [r3, #12]
 361:d:/LiteOS_Lab/drivers/third_party/ST/STM32L4xx_HAL_Driver/Src\stm32l4xx_hal_gpio.c **** 
 362:d:/LiteOS_Lab/drivers/third_party/ST/STM32L4xx_HAL_Driver/Src\stm32l4xx_hal_gpio.c **** #if defined(STM32L471xx) || defined(STM32L475xx) || defined(STM32L476xx) || defined(STM32L485xx) ||
 363:d:/LiteOS_Lab/drivers/third_party/ST/STM32L4xx_HAL_Driver/Src\stm32l4xx_hal_gpio.c **** 
 364:d:/LiteOS_Lab/drivers/third_party/ST/STM32L4xx_HAL_Driver/Src\stm32l4xx_hal_gpio.c ****       /* Deactivate the Control bit of Analog mode for the current IO */
 365:d:/LiteOS_Lab/drivers/third_party/ST/STM32L4xx_HAL_Driver/Src\stm32l4xx_hal_gpio.c ****       GPIOx->ASCR &= ~(GPIO_ASCR_ASC0<< position);
 366:d:/LiteOS_Lab/drivers/third_party/ST/STM32L4xx_HAL_Driver/Src\stm32l4xx_hal_gpio.c **** 
 367:d:/LiteOS_Lab/drivers/third_party/ST/STM32L4xx_HAL_Driver/Src\stm32l4xx_hal_gpio.c **** #endif /* STM32L471xx || STM32L475xx || STM32L476xx || STM32L485xx || STM32L486xx */
 368:d:/LiteOS_Lab/drivers/third_party/ST/STM32L4xx_HAL_Driver/Src\stm32l4xx_hal_gpio.c **** 
 369:d:/LiteOS_Lab/drivers/third_party/ST/STM32L4xx_HAL_Driver/Src\stm32l4xx_hal_gpio.c ****       /*------------------------- EXTI Mode Configuration --------------------*/
 370:d:/LiteOS_Lab/drivers/third_party/ST/STM32L4xx_HAL_Driver/Src\stm32l4xx_hal_gpio.c ****       /* Clear the External Interrupt or Event for the current IO */
 371:d:/LiteOS_Lab/drivers/third_party/ST/STM32L4xx_HAL_Driver/Src\stm32l4xx_hal_gpio.c ****       
 372:d:/LiteOS_Lab/drivers/third_party/ST/STM32L4xx_HAL_Driver/Src\stm32l4xx_hal_gpio.c ****       tmp = SYSCFG->EXTICR[position >> 2];
 693              		.loc 1 372 19
 694 00ac 3D4A     		ldr	r2, .L39
 695              		.loc 1 372 37
 696 00ae 7B69     		ldr	r3, [r7, #20]
 697 00b0 9B08     		lsrs	r3, r3, #2
 698              		.loc 1 372 11
 699 00b2 0233     		adds	r3, r3, #2
 700 00b4 52F82330 		ldr	r3, [r2, r3, lsl #2]
 701 00b8 FB60     		str	r3, [r7, #12]
 373:d:/LiteOS_Lab/drivers/third_party/ST/STM32L4xx_HAL_Driver/Src\stm32l4xx_hal_gpio.c ****       tmp &= (((uint32_t)0x0F) << (4 * (position & 0x03)));
 702              		.loc 1 373 50
 703 00ba 7B69     		ldr	r3, [r7, #20]
 704 00bc 03F00303 		and	r3, r3, #3
 705              		.loc 1 373 38
 706 00c0 9B00     		lsls	r3, r3, #2
 707              		.loc 1 373 32
 708 00c2 0F22     		movs	r2, #15
 709 00c4 02FA03F3 		lsl	r3, r2, r3
ARM GAS  C:\Users\ADMINI~1\AppData\Local\Temp\ccinuMnV.s 			page 20


 710              		.loc 1 373 11
 711 00c8 FA68     		ldr	r2, [r7, #12]
 712 00ca 1340     		ands	r3, r3, r2
 713 00cc FB60     		str	r3, [r7, #12]
 374:d:/LiteOS_Lab/drivers/third_party/ST/STM32L4xx_HAL_Driver/Src\stm32l4xx_hal_gpio.c ****       if(tmp == (GPIO_GET_INDEX(GPIOx) << (4 * (position & 0x03))))
 714              		.loc 1 374 18
 715 00ce 7B68     		ldr	r3, [r7, #4]
 716 00d0 B3F1904F 		cmp	r3, #1207959552
 717 00d4 19D0     		beq	.L28
 718              		.loc 1 374 18 is_stmt 0 discriminator 1
 719 00d6 7B68     		ldr	r3, [r7, #4]
 720 00d8 334A     		ldr	r2, .L39+4
 721 00da 9342     		cmp	r3, r2
 722 00dc 13D0     		beq	.L29
 723              		.loc 1 374 18 discriminator 3
 724 00de 7B68     		ldr	r3, [r7, #4]
 725 00e0 324A     		ldr	r2, .L39+8
 726 00e2 9342     		cmp	r3, r2
 727 00e4 0DD0     		beq	.L30
 728              		.loc 1 374 18 discriminator 5
 729 00e6 7B68     		ldr	r3, [r7, #4]
 730 00e8 314A     		ldr	r2, .L39+12
 731 00ea 9342     		cmp	r3, r2
 732 00ec 07D0     		beq	.L31
 733              		.loc 1 374 18 discriminator 7
 734 00ee 7B68     		ldr	r3, [r7, #4]
 735 00f0 304A     		ldr	r2, .L39+16
 736 00f2 9342     		cmp	r3, r2
 737 00f4 01D1     		bne	.L32
 738              		.loc 1 374 18 discriminator 9
 739 00f6 0423     		movs	r3, #4
 740 00f8 08E0     		b	.L37
 741              	.L32:
 742              		.loc 1 374 18 discriminator 10
 743 00fa 0723     		movs	r3, #7
 744 00fc 06E0     		b	.L37
 745              	.L31:
 746              		.loc 1 374 18 discriminator 8
 747 00fe 0323     		movs	r3, #3
 748 0100 04E0     		b	.L37
 749              	.L30:
 750              		.loc 1 374 18 discriminator 6
 751 0102 0223     		movs	r3, #2
 752 0104 02E0     		b	.L37
 753              	.L29:
 754              		.loc 1 374 18 discriminator 4
 755 0106 0123     		movs	r3, #1
 756 0108 00E0     		b	.L37
 757              	.L28:
 758              		.loc 1 374 18 discriminator 2
 759 010a 0023     		movs	r3, #0
 760              	.L37:
 761              		.loc 1 374 58 is_stmt 1 discriminator 20
 762 010c 7A69     		ldr	r2, [r7, #20]
 763 010e 02F00302 		and	r2, r2, #3
 764              		.loc 1 374 46 discriminator 20
 765 0112 9200     		lsls	r2, r2, #2
ARM GAS  C:\Users\ADMINI~1\AppData\Local\Temp\ccinuMnV.s 			page 21


 766              		.loc 1 374 40 discriminator 20
 767 0114 9340     		lsls	r3, r3, r2
 768              		.loc 1 374 9 discriminator 20
 769 0116 FA68     		ldr	r2, [r7, #12]
 770 0118 9A42     		cmp	r2, r3
 771 011a 32D1     		bne	.L27
 375:d:/LiteOS_Lab/drivers/third_party/ST/STM32L4xx_HAL_Driver/Src\stm32l4xx_hal_gpio.c ****       {
 376:d:/LiteOS_Lab/drivers/third_party/ST/STM32L4xx_HAL_Driver/Src\stm32l4xx_hal_gpio.c ****         tmp = ((uint32_t)0x0F) << (4 * (position & 0x03));
 772              		.loc 1 376 50
 773 011c 7B69     		ldr	r3, [r7, #20]
 774 011e 03F00303 		and	r3, r3, #3
 775              		.loc 1 376 38
 776 0122 9B00     		lsls	r3, r3, #2
 777              		.loc 1 376 13
 778 0124 0F22     		movs	r2, #15
 779 0126 02FA03F3 		lsl	r3, r2, r3
 780 012a FB60     		str	r3, [r7, #12]
 377:d:/LiteOS_Lab/drivers/third_party/ST/STM32L4xx_HAL_Driver/Src\stm32l4xx_hal_gpio.c ****         SYSCFG->EXTICR[position >> 2] &= ~tmp;
 781              		.loc 1 377 39
 782 012c 1D4A     		ldr	r2, .L39
 783 012e 7B69     		ldr	r3, [r7, #20]
 784 0130 9B08     		lsrs	r3, r3, #2
 785 0132 0233     		adds	r3, r3, #2
 786 0134 52F82310 		ldr	r1, [r2, r3, lsl #2]
 787              		.loc 1 377 42
 788 0138 FB68     		ldr	r3, [r7, #12]
 789 013a DA43     		mvns	r2, r3
 790              		.loc 1 377 39
 791 013c 1948     		ldr	r0, .L39
 792 013e 7B69     		ldr	r3, [r7, #20]
 793 0140 9B08     		lsrs	r3, r3, #2
 794 0142 0A40     		ands	r2, r2, r1
 795 0144 0233     		adds	r3, r3, #2
 796 0146 40F82320 		str	r2, [r0, r3, lsl #2]
 378:d:/LiteOS_Lab/drivers/third_party/ST/STM32L4xx_HAL_Driver/Src\stm32l4xx_hal_gpio.c **** 
 379:d:/LiteOS_Lab/drivers/third_party/ST/STM32L4xx_HAL_Driver/Src\stm32l4xx_hal_gpio.c ****         /* Clear EXTI line configuration */
 380:d:/LiteOS_Lab/drivers/third_party/ST/STM32L4xx_HAL_Driver/Src\stm32l4xx_hal_gpio.c ****         EXTI->IMR1 &= ~((uint32_t)iocurrent);
 797              		.loc 1 380 20
 798 014a 1B4B     		ldr	r3, .L39+20
 799 014c 1A68     		ldr	r2, [r3]
 800              		.loc 1 380 23
 801 014e 3B69     		ldr	r3, [r7, #16]
 802 0150 DB43     		mvns	r3, r3
 803              		.loc 1 380 20
 804 0152 1949     		ldr	r1, .L39+20
 805 0154 1340     		ands	r3, r3, r2
 806 0156 0B60     		str	r3, [r1]
 381:d:/LiteOS_Lab/drivers/third_party/ST/STM32L4xx_HAL_Driver/Src\stm32l4xx_hal_gpio.c ****         EXTI->EMR1 &= ~((uint32_t)iocurrent);
 807              		.loc 1 381 20
 808 0158 174B     		ldr	r3, .L39+20
 809 015a 5A68     		ldr	r2, [r3, #4]
 810              		.loc 1 381 23
 811 015c 3B69     		ldr	r3, [r7, #16]
 812 015e DB43     		mvns	r3, r3
 813              		.loc 1 381 20
 814 0160 1549     		ldr	r1, .L39+20
 815 0162 1340     		ands	r3, r3, r2
ARM GAS  C:\Users\ADMINI~1\AppData\Local\Temp\ccinuMnV.s 			page 22


 816 0164 4B60     		str	r3, [r1, #4]
 382:d:/LiteOS_Lab/drivers/third_party/ST/STM32L4xx_HAL_Driver/Src\stm32l4xx_hal_gpio.c **** 
 383:d:/LiteOS_Lab/drivers/third_party/ST/STM32L4xx_HAL_Driver/Src\stm32l4xx_hal_gpio.c ****         /* Clear Rising Falling edge configuration */
 384:d:/LiteOS_Lab/drivers/third_party/ST/STM32L4xx_HAL_Driver/Src\stm32l4xx_hal_gpio.c ****         EXTI->RTSR1 &= ~((uint32_t)iocurrent);
 817              		.loc 1 384 21
 818 0166 144B     		ldr	r3, .L39+20
 819 0168 9A68     		ldr	r2, [r3, #8]
 820              		.loc 1 384 24
 821 016a 3B69     		ldr	r3, [r7, #16]
 822 016c DB43     		mvns	r3, r3
 823              		.loc 1 384 21
 824 016e 1249     		ldr	r1, .L39+20
 825 0170 1340     		ands	r3, r3, r2
 826 0172 8B60     		str	r3, [r1, #8]
 385:d:/LiteOS_Lab/drivers/third_party/ST/STM32L4xx_HAL_Driver/Src\stm32l4xx_hal_gpio.c ****         EXTI->FTSR1 &= ~((uint32_t)iocurrent);
 827              		.loc 1 385 21
 828 0174 104B     		ldr	r3, .L39+20
 829 0176 DA68     		ldr	r2, [r3, #12]
 830              		.loc 1 385 24
 831 0178 3B69     		ldr	r3, [r7, #16]
 832 017a DB43     		mvns	r3, r3
 833              		.loc 1 385 21
 834 017c 0E49     		ldr	r1, .L39+20
 835 017e 1340     		ands	r3, r3, r2
 836 0180 CB60     		str	r3, [r1, #12]
 837              	.L27:
 386:d:/LiteOS_Lab/drivers/third_party/ST/STM32L4xx_HAL_Driver/Src\stm32l4xx_hal_gpio.c ****       }
 387:d:/LiteOS_Lab/drivers/third_party/ST/STM32L4xx_HAL_Driver/Src\stm32l4xx_hal_gpio.c ****     }
 388:d:/LiteOS_Lab/drivers/third_party/ST/STM32L4xx_HAL_Driver/Src\stm32l4xx_hal_gpio.c ****     
 389:d:/LiteOS_Lab/drivers/third_party/ST/STM32L4xx_HAL_Driver/Src\stm32l4xx_hal_gpio.c ****     position++;
 838              		.loc 1 389 13
 839 0182 7B69     		ldr	r3, [r7, #20]
 840 0184 0133     		adds	r3, r3, #1
 841 0186 7B61     		str	r3, [r7, #20]
 842              	.L26:
 339:d:/LiteOS_Lab/drivers/third_party/ST/STM32L4xx_HAL_Driver/Src\stm32l4xx_hal_gpio.c ****   {
 843              		.loc 1 339 20
 844 0188 3A68     		ldr	r2, [r7]
 845 018a 7B69     		ldr	r3, [r7, #20]
 846 018c 22FA03F3 		lsr	r3, r2, r3
 339:d:/LiteOS_Lab/drivers/third_party/ST/STM32L4xx_HAL_Driver/Src\stm32l4xx_hal_gpio.c ****   {
 847              		.loc 1 339 9
 848 0190 002B     		cmp	r3, #0
 849 0192 7FF441AF 		bne	.L38
 390:d:/LiteOS_Lab/drivers/third_party/ST/STM32L4xx_HAL_Driver/Src\stm32l4xx_hal_gpio.c ****   }
 391:d:/LiteOS_Lab/drivers/third_party/ST/STM32L4xx_HAL_Driver/Src\stm32l4xx_hal_gpio.c **** }
 850              		.loc 1 391 1
 851 0196 00BF     		nop
 852 0198 00BF     		nop
 853 019a 1C37     		adds	r7, r7, #28
 854              	.LCFI9:
 855              		.cfi_def_cfa_offset 4
 856 019c BD46     		mov	sp, r7
 857              	.LCFI10:
 858              		.cfi_def_cfa_register 13
 859              		@ sp needed
 860 019e 5DF8047B 		ldr	r7, [sp], #4
ARM GAS  C:\Users\ADMINI~1\AppData\Local\Temp\ccinuMnV.s 			page 23


 861              	.LCFI11:
 862              		.cfi_restore 7
 863              		.cfi_def_cfa_offset 0
 864 01a2 7047     		bx	lr
 865              	.L40:
 866              		.align	2
 867              	.L39:
 868 01a4 00000140 		.word	1073807360
 869 01a8 00040048 		.word	1207960576
 870 01ac 00080048 		.word	1207961600
 871 01b0 000C0048 		.word	1207962624
 872 01b4 00100048 		.word	1207963648
 873 01b8 00040140 		.word	1073808384
 874              		.cfi_endproc
 875              	.LFE288:
 877              		.section	.text.HAL_GPIO_ReadPin,"ax",%progbits
 878              		.align	1
 879              		.global	HAL_GPIO_ReadPin
 880              		.syntax unified
 881              		.thumb
 882              		.thumb_func
 883              		.fpu fpv4-sp-d16
 885              	HAL_GPIO_ReadPin:
 886              	.LFB289:
 392:d:/LiteOS_Lab/drivers/third_party/ST/STM32L4xx_HAL_Driver/Src\stm32l4xx_hal_gpio.c **** 
 393:d:/LiteOS_Lab/drivers/third_party/ST/STM32L4xx_HAL_Driver/Src\stm32l4xx_hal_gpio.c **** /**
 394:d:/LiteOS_Lab/drivers/third_party/ST/STM32L4xx_HAL_Driver/Src\stm32l4xx_hal_gpio.c ****   * @}
 395:d:/LiteOS_Lab/drivers/third_party/ST/STM32L4xx_HAL_Driver/Src\stm32l4xx_hal_gpio.c ****   */
 396:d:/LiteOS_Lab/drivers/third_party/ST/STM32L4xx_HAL_Driver/Src\stm32l4xx_hal_gpio.c **** 
 397:d:/LiteOS_Lab/drivers/third_party/ST/STM32L4xx_HAL_Driver/Src\stm32l4xx_hal_gpio.c **** /** @defgroup GPIO_Exported_Functions_Group2 IO operation functions 
 398:d:/LiteOS_Lab/drivers/third_party/ST/STM32L4xx_HAL_Driver/Src\stm32l4xx_hal_gpio.c ****  *  @brief GPIO Read, Write, Toggle, Lock and EXTI management functions.
 399:d:/LiteOS_Lab/drivers/third_party/ST/STM32L4xx_HAL_Driver/Src\stm32l4xx_hal_gpio.c ****  *
 400:d:/LiteOS_Lab/drivers/third_party/ST/STM32L4xx_HAL_Driver/Src\stm32l4xx_hal_gpio.c **** @verbatim
 401:d:/LiteOS_Lab/drivers/third_party/ST/STM32L4xx_HAL_Driver/Src\stm32l4xx_hal_gpio.c ****  ===============================================================================
 402:d:/LiteOS_Lab/drivers/third_party/ST/STM32L4xx_HAL_Driver/Src\stm32l4xx_hal_gpio.c ****                        ##### IO operation functions #####
 403:d:/LiteOS_Lab/drivers/third_party/ST/STM32L4xx_HAL_Driver/Src\stm32l4xx_hal_gpio.c ****  ===============================================================================
 404:d:/LiteOS_Lab/drivers/third_party/ST/STM32L4xx_HAL_Driver/Src\stm32l4xx_hal_gpio.c **** 
 405:d:/LiteOS_Lab/drivers/third_party/ST/STM32L4xx_HAL_Driver/Src\stm32l4xx_hal_gpio.c **** @endverbatim
 406:d:/LiteOS_Lab/drivers/third_party/ST/STM32L4xx_HAL_Driver/Src\stm32l4xx_hal_gpio.c ****   * @{
 407:d:/LiteOS_Lab/drivers/third_party/ST/STM32L4xx_HAL_Driver/Src\stm32l4xx_hal_gpio.c ****   */
 408:d:/LiteOS_Lab/drivers/third_party/ST/STM32L4xx_HAL_Driver/Src\stm32l4xx_hal_gpio.c **** 
 409:d:/LiteOS_Lab/drivers/third_party/ST/STM32L4xx_HAL_Driver/Src\stm32l4xx_hal_gpio.c **** /**
 410:d:/LiteOS_Lab/drivers/third_party/ST/STM32L4xx_HAL_Driver/Src\stm32l4xx_hal_gpio.c ****   * @brief  Read the specified input port pin.
 411:d:/LiteOS_Lab/drivers/third_party/ST/STM32L4xx_HAL_Driver/Src\stm32l4xx_hal_gpio.c ****   * @param  GPIOx: where x can be (A..H) to select the GPIO peripheral for STM32L4 family
 412:d:/LiteOS_Lab/drivers/third_party/ST/STM32L4xx_HAL_Driver/Src\stm32l4xx_hal_gpio.c ****   * @param  GPIO_Pin: specifies the port bit to read.
 413:d:/LiteOS_Lab/drivers/third_party/ST/STM32L4xx_HAL_Driver/Src\stm32l4xx_hal_gpio.c ****   *         This parameter can be GPIO_PIN_x where x can be (0..15).
 414:d:/LiteOS_Lab/drivers/third_party/ST/STM32L4xx_HAL_Driver/Src\stm32l4xx_hal_gpio.c ****   * @retval The input port pin value.
 415:d:/LiteOS_Lab/drivers/third_party/ST/STM32L4xx_HAL_Driver/Src\stm32l4xx_hal_gpio.c ****   */
 416:d:/LiteOS_Lab/drivers/third_party/ST/STM32L4xx_HAL_Driver/Src\stm32l4xx_hal_gpio.c **** GPIO_PinState HAL_GPIO_ReadPin(GPIO_TypeDef* GPIOx, uint16_t GPIO_Pin)
 417:d:/LiteOS_Lab/drivers/third_party/ST/STM32L4xx_HAL_Driver/Src\stm32l4xx_hal_gpio.c **** {
 887              		.loc 1 417 1
 888              		.cfi_startproc
 889              		@ args = 0, pretend = 0, frame = 16
 890              		@ frame_needed = 1, uses_anonymous_args = 0
 891              		@ link register save eliminated.
 892 0000 80B4     		push	{r7}
 893              	.LCFI12:
ARM GAS  C:\Users\ADMINI~1\AppData\Local\Temp\ccinuMnV.s 			page 24


 894              		.cfi_def_cfa_offset 4
 895              		.cfi_offset 7, -4
 896 0002 85B0     		sub	sp, sp, #20
 897              	.LCFI13:
 898              		.cfi_def_cfa_offset 24
 899 0004 00AF     		add	r7, sp, #0
 900              	.LCFI14:
 901              		.cfi_def_cfa_register 7
 902 0006 7860     		str	r0, [r7, #4]
 903 0008 0B46     		mov	r3, r1
 904 000a 7B80     		strh	r3, [r7, #2]	@ movhi
 418:d:/LiteOS_Lab/drivers/third_party/ST/STM32L4xx_HAL_Driver/Src\stm32l4xx_hal_gpio.c ****   GPIO_PinState bitstatus;
 419:d:/LiteOS_Lab/drivers/third_party/ST/STM32L4xx_HAL_Driver/Src\stm32l4xx_hal_gpio.c **** 
 420:d:/LiteOS_Lab/drivers/third_party/ST/STM32L4xx_HAL_Driver/Src\stm32l4xx_hal_gpio.c ****   /* Check the parameters */
 421:d:/LiteOS_Lab/drivers/third_party/ST/STM32L4xx_HAL_Driver/Src\stm32l4xx_hal_gpio.c ****   assert_param(IS_GPIO_PIN(GPIO_Pin));
 422:d:/LiteOS_Lab/drivers/third_party/ST/STM32L4xx_HAL_Driver/Src\stm32l4xx_hal_gpio.c **** 
 423:d:/LiteOS_Lab/drivers/third_party/ST/STM32L4xx_HAL_Driver/Src\stm32l4xx_hal_gpio.c ****   if((GPIOx->IDR & GPIO_Pin) != (uint32_t)GPIO_PIN_RESET)
 905              		.loc 1 423 12
 906 000c 7B68     		ldr	r3, [r7, #4]
 907 000e 1A69     		ldr	r2, [r3, #16]
 908              		.loc 1 423 18
 909 0010 7B88     		ldrh	r3, [r7, #2]
 910 0012 1340     		ands	r3, r3, r2
 911              		.loc 1 423 5
 912 0014 002B     		cmp	r3, #0
 913 0016 02D0     		beq	.L42
 424:d:/LiteOS_Lab/drivers/third_party/ST/STM32L4xx_HAL_Driver/Src\stm32l4xx_hal_gpio.c ****   {
 425:d:/LiteOS_Lab/drivers/third_party/ST/STM32L4xx_HAL_Driver/Src\stm32l4xx_hal_gpio.c ****     bitstatus = GPIO_PIN_SET;
 914              		.loc 1 425 15
 915 0018 0123     		movs	r3, #1
 916 001a FB73     		strb	r3, [r7, #15]
 917 001c 01E0     		b	.L43
 918              	.L42:
 426:d:/LiteOS_Lab/drivers/third_party/ST/STM32L4xx_HAL_Driver/Src\stm32l4xx_hal_gpio.c ****   }
 427:d:/LiteOS_Lab/drivers/third_party/ST/STM32L4xx_HAL_Driver/Src\stm32l4xx_hal_gpio.c ****   else
 428:d:/LiteOS_Lab/drivers/third_party/ST/STM32L4xx_HAL_Driver/Src\stm32l4xx_hal_gpio.c ****   {
 429:d:/LiteOS_Lab/drivers/third_party/ST/STM32L4xx_HAL_Driver/Src\stm32l4xx_hal_gpio.c ****     bitstatus = GPIO_PIN_RESET;
 919              		.loc 1 429 15
 920 001e 0023     		movs	r3, #0
 921 0020 FB73     		strb	r3, [r7, #15]
 922              	.L43:
 430:d:/LiteOS_Lab/drivers/third_party/ST/STM32L4xx_HAL_Driver/Src\stm32l4xx_hal_gpio.c ****   }
 431:d:/LiteOS_Lab/drivers/third_party/ST/STM32L4xx_HAL_Driver/Src\stm32l4xx_hal_gpio.c ****   return bitstatus;
 923              		.loc 1 431 10
 924 0022 FB7B     		ldrb	r3, [r7, #15]	@ zero_extendqisi2
 432:d:/LiteOS_Lab/drivers/third_party/ST/STM32L4xx_HAL_Driver/Src\stm32l4xx_hal_gpio.c **** }
 925              		.loc 1 432 1
 926 0024 1846     		mov	r0, r3
 927 0026 1437     		adds	r7, r7, #20
 928              	.LCFI15:
 929              		.cfi_def_cfa_offset 4
 930 0028 BD46     		mov	sp, r7
 931              	.LCFI16:
 932              		.cfi_def_cfa_register 13
 933              		@ sp needed
 934 002a 5DF8047B 		ldr	r7, [sp], #4
 935              	.LCFI17:
ARM GAS  C:\Users\ADMINI~1\AppData\Local\Temp\ccinuMnV.s 			page 25


 936              		.cfi_restore 7
 937              		.cfi_def_cfa_offset 0
 938 002e 7047     		bx	lr
 939              		.cfi_endproc
 940              	.LFE289:
 942              		.section	.text.HAL_GPIO_WritePin,"ax",%progbits
 943              		.align	1
 944              		.global	HAL_GPIO_WritePin
 945              		.syntax unified
 946              		.thumb
 947              		.thumb_func
 948              		.fpu fpv4-sp-d16
 950              	HAL_GPIO_WritePin:
 951              	.LFB290:
 433:d:/LiteOS_Lab/drivers/third_party/ST/STM32L4xx_HAL_Driver/Src\stm32l4xx_hal_gpio.c **** 
 434:d:/LiteOS_Lab/drivers/third_party/ST/STM32L4xx_HAL_Driver/Src\stm32l4xx_hal_gpio.c **** /**
 435:d:/LiteOS_Lab/drivers/third_party/ST/STM32L4xx_HAL_Driver/Src\stm32l4xx_hal_gpio.c ****   * @brief  Set or clear the selected data port bit.
 436:d:/LiteOS_Lab/drivers/third_party/ST/STM32L4xx_HAL_Driver/Src\stm32l4xx_hal_gpio.c ****   *
 437:d:/LiteOS_Lab/drivers/third_party/ST/STM32L4xx_HAL_Driver/Src\stm32l4xx_hal_gpio.c ****   * @note   This function uses GPIOx_BSRR and GPIOx_BRR registers to allow atomic read/modify
 438:d:/LiteOS_Lab/drivers/third_party/ST/STM32L4xx_HAL_Driver/Src\stm32l4xx_hal_gpio.c ****   *         accesses. In this way, there is no risk of an IRQ occurring between
 439:d:/LiteOS_Lab/drivers/third_party/ST/STM32L4xx_HAL_Driver/Src\stm32l4xx_hal_gpio.c ****   *         the read and the modify access.
 440:d:/LiteOS_Lab/drivers/third_party/ST/STM32L4xx_HAL_Driver/Src\stm32l4xx_hal_gpio.c ****   *
 441:d:/LiteOS_Lab/drivers/third_party/ST/STM32L4xx_HAL_Driver/Src\stm32l4xx_hal_gpio.c ****   * @param  GPIOx: where x can be (A..H) to select the GPIO peripheral for STM32L4 family
 442:d:/LiteOS_Lab/drivers/third_party/ST/STM32L4xx_HAL_Driver/Src\stm32l4xx_hal_gpio.c ****   * @param  GPIO_Pin: specifies the port bit to be written.
 443:d:/LiteOS_Lab/drivers/third_party/ST/STM32L4xx_HAL_Driver/Src\stm32l4xx_hal_gpio.c ****   *         This parameter can be one of GPIO_PIN_x where x can be (0..15).
 444:d:/LiteOS_Lab/drivers/third_party/ST/STM32L4xx_HAL_Driver/Src\stm32l4xx_hal_gpio.c ****   * @param  PinState: specifies the value to be written to the selected bit.
 445:d:/LiteOS_Lab/drivers/third_party/ST/STM32L4xx_HAL_Driver/Src\stm32l4xx_hal_gpio.c ****   *         This parameter can be one of the GPIO_PinState enum values:
 446:d:/LiteOS_Lab/drivers/third_party/ST/STM32L4xx_HAL_Driver/Src\stm32l4xx_hal_gpio.c ****   *            @arg GPIO_PIN_RESET: to clear the port pin
 447:d:/LiteOS_Lab/drivers/third_party/ST/STM32L4xx_HAL_Driver/Src\stm32l4xx_hal_gpio.c ****   *            @arg GPIO_PIN_SET: to set the port pin
 448:d:/LiteOS_Lab/drivers/third_party/ST/STM32L4xx_HAL_Driver/Src\stm32l4xx_hal_gpio.c ****   * @retval None
 449:d:/LiteOS_Lab/drivers/third_party/ST/STM32L4xx_HAL_Driver/Src\stm32l4xx_hal_gpio.c ****   */
 450:d:/LiteOS_Lab/drivers/third_party/ST/STM32L4xx_HAL_Driver/Src\stm32l4xx_hal_gpio.c **** void HAL_GPIO_WritePin(GPIO_TypeDef* GPIOx, uint16_t GPIO_Pin, GPIO_PinState PinState)
 451:d:/LiteOS_Lab/drivers/third_party/ST/STM32L4xx_HAL_Driver/Src\stm32l4xx_hal_gpio.c **** {
 952              		.loc 1 451 1
 953              		.cfi_startproc
 954              		@ args = 0, pretend = 0, frame = 8
 955              		@ frame_needed = 1, uses_anonymous_args = 0
 956              		@ link register save eliminated.
 957 0000 80B4     		push	{r7}
 958              	.LCFI18:
 959              		.cfi_def_cfa_offset 4
 960              		.cfi_offset 7, -4
 961 0002 83B0     		sub	sp, sp, #12
 962              	.LCFI19:
 963              		.cfi_def_cfa_offset 16
 964 0004 00AF     		add	r7, sp, #0
 965              	.LCFI20:
 966              		.cfi_def_cfa_register 7
 967 0006 7860     		str	r0, [r7, #4]
 968 0008 0B46     		mov	r3, r1
 969 000a 7B80     		strh	r3, [r7, #2]	@ movhi
 970 000c 1346     		mov	r3, r2
 971 000e 7B70     		strb	r3, [r7, #1]
 452:d:/LiteOS_Lab/drivers/third_party/ST/STM32L4xx_HAL_Driver/Src\stm32l4xx_hal_gpio.c ****   /* Check the parameters */
 453:d:/LiteOS_Lab/drivers/third_party/ST/STM32L4xx_HAL_Driver/Src\stm32l4xx_hal_gpio.c ****   assert_param(IS_GPIO_PIN(GPIO_Pin));
 454:d:/LiteOS_Lab/drivers/third_party/ST/STM32L4xx_HAL_Driver/Src\stm32l4xx_hal_gpio.c ****   assert_param(IS_GPIO_PIN_ACTION(PinState));
 455:d:/LiteOS_Lab/drivers/third_party/ST/STM32L4xx_HAL_Driver/Src\stm32l4xx_hal_gpio.c **** 
ARM GAS  C:\Users\ADMINI~1\AppData\Local\Temp\ccinuMnV.s 			page 26


 456:d:/LiteOS_Lab/drivers/third_party/ST/STM32L4xx_HAL_Driver/Src\stm32l4xx_hal_gpio.c ****   if(PinState != GPIO_PIN_RESET)
 972              		.loc 1 456 5
 973 0010 7B78     		ldrb	r3, [r7, #1]	@ zero_extendqisi2
 974 0012 002B     		cmp	r3, #0
 975 0014 03D0     		beq	.L46
 457:d:/LiteOS_Lab/drivers/third_party/ST/STM32L4xx_HAL_Driver/Src\stm32l4xx_hal_gpio.c ****   {
 458:d:/LiteOS_Lab/drivers/third_party/ST/STM32L4xx_HAL_Driver/Src\stm32l4xx_hal_gpio.c ****     GPIOx->BSRR = (uint32_t)GPIO_Pin;
 976              		.loc 1 458 19
 977 0016 7A88     		ldrh	r2, [r7, #2]
 978              		.loc 1 458 17
 979 0018 7B68     		ldr	r3, [r7, #4]
 980 001a 9A61     		str	r2, [r3, #24]
 459:d:/LiteOS_Lab/drivers/third_party/ST/STM32L4xx_HAL_Driver/Src\stm32l4xx_hal_gpio.c ****   }
 460:d:/LiteOS_Lab/drivers/third_party/ST/STM32L4xx_HAL_Driver/Src\stm32l4xx_hal_gpio.c ****   else
 461:d:/LiteOS_Lab/drivers/third_party/ST/STM32L4xx_HAL_Driver/Src\stm32l4xx_hal_gpio.c ****   {
 462:d:/LiteOS_Lab/drivers/third_party/ST/STM32L4xx_HAL_Driver/Src\stm32l4xx_hal_gpio.c ****     GPIOx->BRR = (uint32_t)GPIO_Pin;
 463:d:/LiteOS_Lab/drivers/third_party/ST/STM32L4xx_HAL_Driver/Src\stm32l4xx_hal_gpio.c ****   }
 464:d:/LiteOS_Lab/drivers/third_party/ST/STM32L4xx_HAL_Driver/Src\stm32l4xx_hal_gpio.c **** }
 981              		.loc 1 464 1
 982 001c 02E0     		b	.L48
 983              	.L46:
 462:d:/LiteOS_Lab/drivers/third_party/ST/STM32L4xx_HAL_Driver/Src\stm32l4xx_hal_gpio.c ****   }
 984              		.loc 1 462 18
 985 001e 7A88     		ldrh	r2, [r7, #2]
 462:d:/LiteOS_Lab/drivers/third_party/ST/STM32L4xx_HAL_Driver/Src\stm32l4xx_hal_gpio.c ****   }
 986              		.loc 1 462 16
 987 0020 7B68     		ldr	r3, [r7, #4]
 988 0022 9A62     		str	r2, [r3, #40]
 989              	.L48:
 990              		.loc 1 464 1
 991 0024 00BF     		nop
 992 0026 0C37     		adds	r7, r7, #12
 993              	.LCFI21:
 994              		.cfi_def_cfa_offset 4
 995 0028 BD46     		mov	sp, r7
 996              	.LCFI22:
 997              		.cfi_def_cfa_register 13
 998              		@ sp needed
 999 002a 5DF8047B 		ldr	r7, [sp], #4
 1000              	.LCFI23:
 1001              		.cfi_restore 7
 1002              		.cfi_def_cfa_offset 0
 1003 002e 7047     		bx	lr
 1004              		.cfi_endproc
 1005              	.LFE290:
 1007              		.section	.text.HAL_GPIO_TogglePin,"ax",%progbits
 1008              		.align	1
 1009              		.global	HAL_GPIO_TogglePin
 1010              		.syntax unified
 1011              		.thumb
 1012              		.thumb_func
 1013              		.fpu fpv4-sp-d16
 1015              	HAL_GPIO_TogglePin:
 1016              	.LFB291:
 465:d:/LiteOS_Lab/drivers/third_party/ST/STM32L4xx_HAL_Driver/Src\stm32l4xx_hal_gpio.c **** 
 466:d:/LiteOS_Lab/drivers/third_party/ST/STM32L4xx_HAL_Driver/Src\stm32l4xx_hal_gpio.c **** /**
 467:d:/LiteOS_Lab/drivers/third_party/ST/STM32L4xx_HAL_Driver/Src\stm32l4xx_hal_gpio.c ****   * @brief  Toggle the specified GPIO pin.
ARM GAS  C:\Users\ADMINI~1\AppData\Local\Temp\ccinuMnV.s 			page 27


 468:d:/LiteOS_Lab/drivers/third_party/ST/STM32L4xx_HAL_Driver/Src\stm32l4xx_hal_gpio.c ****   * @param  GPIOx: where x can be (A..H) to select the GPIO peripheral for STM32L4 family
 469:d:/LiteOS_Lab/drivers/third_party/ST/STM32L4xx_HAL_Driver/Src\stm32l4xx_hal_gpio.c ****   * @param  GPIO_Pin: specifies the pin to be toggled.
 470:d:/LiteOS_Lab/drivers/third_party/ST/STM32L4xx_HAL_Driver/Src\stm32l4xx_hal_gpio.c ****   * @retval None
 471:d:/LiteOS_Lab/drivers/third_party/ST/STM32L4xx_HAL_Driver/Src\stm32l4xx_hal_gpio.c ****   */
 472:d:/LiteOS_Lab/drivers/third_party/ST/STM32L4xx_HAL_Driver/Src\stm32l4xx_hal_gpio.c **** void HAL_GPIO_TogglePin(GPIO_TypeDef* GPIOx, uint16_t GPIO_Pin)
 473:d:/LiteOS_Lab/drivers/third_party/ST/STM32L4xx_HAL_Driver/Src\stm32l4xx_hal_gpio.c **** {
 1017              		.loc 1 473 1
 1018              		.cfi_startproc
 1019              		@ args = 0, pretend = 0, frame = 8
 1020              		@ frame_needed = 1, uses_anonymous_args = 0
 1021              		@ link register save eliminated.
 1022 0000 80B4     		push	{r7}
 1023              	.LCFI24:
 1024              		.cfi_def_cfa_offset 4
 1025              		.cfi_offset 7, -4
 1026 0002 83B0     		sub	sp, sp, #12
 1027              	.LCFI25:
 1028              		.cfi_def_cfa_offset 16
 1029 0004 00AF     		add	r7, sp, #0
 1030              	.LCFI26:
 1031              		.cfi_def_cfa_register 7
 1032 0006 7860     		str	r0, [r7, #4]
 1033 0008 0B46     		mov	r3, r1
 1034 000a 7B80     		strh	r3, [r7, #2]	@ movhi
 474:d:/LiteOS_Lab/drivers/third_party/ST/STM32L4xx_HAL_Driver/Src\stm32l4xx_hal_gpio.c ****   /* Check the parameters */
 475:d:/LiteOS_Lab/drivers/third_party/ST/STM32L4xx_HAL_Driver/Src\stm32l4xx_hal_gpio.c ****   assert_param(IS_GPIO_PIN(GPIO_Pin));
 476:d:/LiteOS_Lab/drivers/third_party/ST/STM32L4xx_HAL_Driver/Src\stm32l4xx_hal_gpio.c **** 
 477:d:/LiteOS_Lab/drivers/third_party/ST/STM32L4xx_HAL_Driver/Src\stm32l4xx_hal_gpio.c ****   GPIOx->ODR ^= GPIO_Pin;
 1035              		.loc 1 477 14
 1036 000c 7B68     		ldr	r3, [r7, #4]
 1037 000e 5A69     		ldr	r2, [r3, #20]
 1038 0010 7B88     		ldrh	r3, [r7, #2]
 1039 0012 5A40     		eors	r2, r2, r3
 1040 0014 7B68     		ldr	r3, [r7, #4]
 1041 0016 5A61     		str	r2, [r3, #20]
 478:d:/LiteOS_Lab/drivers/third_party/ST/STM32L4xx_HAL_Driver/Src\stm32l4xx_hal_gpio.c **** }
 1042              		.loc 1 478 1
 1043 0018 00BF     		nop
 1044 001a 0C37     		adds	r7, r7, #12
 1045              	.LCFI27:
 1046              		.cfi_def_cfa_offset 4
 1047 001c BD46     		mov	sp, r7
 1048              	.LCFI28:
 1049              		.cfi_def_cfa_register 13
 1050              		@ sp needed
 1051 001e 5DF8047B 		ldr	r7, [sp], #4
 1052              	.LCFI29:
 1053              		.cfi_restore 7
 1054              		.cfi_def_cfa_offset 0
 1055 0022 7047     		bx	lr
 1056              		.cfi_endproc
 1057              	.LFE291:
 1059              		.section	.text.HAL_GPIO_LockPin,"ax",%progbits
 1060              		.align	1
 1061              		.global	HAL_GPIO_LockPin
 1062              		.syntax unified
 1063              		.thumb
ARM GAS  C:\Users\ADMINI~1\AppData\Local\Temp\ccinuMnV.s 			page 28


 1064              		.thumb_func
 1065              		.fpu fpv4-sp-d16
 1067              	HAL_GPIO_LockPin:
 1068              	.LFB292:
 479:d:/LiteOS_Lab/drivers/third_party/ST/STM32L4xx_HAL_Driver/Src\stm32l4xx_hal_gpio.c **** 
 480:d:/LiteOS_Lab/drivers/third_party/ST/STM32L4xx_HAL_Driver/Src\stm32l4xx_hal_gpio.c **** /**
 481:d:/LiteOS_Lab/drivers/third_party/ST/STM32L4xx_HAL_Driver/Src\stm32l4xx_hal_gpio.c **** * @brief  Lock GPIO Pins configuration registers.
 482:d:/LiteOS_Lab/drivers/third_party/ST/STM32L4xx_HAL_Driver/Src\stm32l4xx_hal_gpio.c ****   * @note   The locked registers are GPIOx_MODER, GPIOx_OTYPER, GPIOx_OSPEEDR,
 483:d:/LiteOS_Lab/drivers/third_party/ST/STM32L4xx_HAL_Driver/Src\stm32l4xx_hal_gpio.c ****   *         GPIOx_PUPDR, GPIOx_AFRL and GPIOx_AFRH.
 484:d:/LiteOS_Lab/drivers/third_party/ST/STM32L4xx_HAL_Driver/Src\stm32l4xx_hal_gpio.c ****   * @note   The configuration of the locked GPIO pins can no longer be modified
 485:d:/LiteOS_Lab/drivers/third_party/ST/STM32L4xx_HAL_Driver/Src\stm32l4xx_hal_gpio.c ****   *         until the next reset.
 486:d:/LiteOS_Lab/drivers/third_party/ST/STM32L4xx_HAL_Driver/Src\stm32l4xx_hal_gpio.c ****   * @param  GPIOx: where x can be (A..H) to select the GPIO peripheral for STM32L4 family
 487:d:/LiteOS_Lab/drivers/third_party/ST/STM32L4xx_HAL_Driver/Src\stm32l4xx_hal_gpio.c ****   * @param  GPIO_Pin: specifies the port bits to be locked.
 488:d:/LiteOS_Lab/drivers/third_party/ST/STM32L4xx_HAL_Driver/Src\stm32l4xx_hal_gpio.c ****   *         This parameter can be any combination of GPIO_Pin_x where x can be (0..15).
 489:d:/LiteOS_Lab/drivers/third_party/ST/STM32L4xx_HAL_Driver/Src\stm32l4xx_hal_gpio.c ****   * @retval None
 490:d:/LiteOS_Lab/drivers/third_party/ST/STM32L4xx_HAL_Driver/Src\stm32l4xx_hal_gpio.c ****   */
 491:d:/LiteOS_Lab/drivers/third_party/ST/STM32L4xx_HAL_Driver/Src\stm32l4xx_hal_gpio.c **** HAL_StatusTypeDef HAL_GPIO_LockPin(GPIO_TypeDef* GPIOx, uint16_t GPIO_Pin)
 492:d:/LiteOS_Lab/drivers/third_party/ST/STM32L4xx_HAL_Driver/Src\stm32l4xx_hal_gpio.c **** {
 1069              		.loc 1 492 1
 1070              		.cfi_startproc
 1071              		@ args = 0, pretend = 0, frame = 16
 1072              		@ frame_needed = 1, uses_anonymous_args = 0
 1073              		@ link register save eliminated.
 1074 0000 80B4     		push	{r7}
 1075              	.LCFI30:
 1076              		.cfi_def_cfa_offset 4
 1077              		.cfi_offset 7, -4
 1078 0002 85B0     		sub	sp, sp, #20
 1079              	.LCFI31:
 1080              		.cfi_def_cfa_offset 24
 1081 0004 00AF     		add	r7, sp, #0
 1082              	.LCFI32:
 1083              		.cfi_def_cfa_register 7
 1084 0006 7860     		str	r0, [r7, #4]
 1085 0008 0B46     		mov	r3, r1
 1086 000a 7B80     		strh	r3, [r7, #2]	@ movhi
 493:d:/LiteOS_Lab/drivers/third_party/ST/STM32L4xx_HAL_Driver/Src\stm32l4xx_hal_gpio.c ****   __IO uint32_t tmp = GPIO_LCKR_LCKK;
 1087              		.loc 1 493 17
 1088 000c 4FF48033 		mov	r3, #65536
 1089 0010 FB60     		str	r3, [r7, #12]
 494:d:/LiteOS_Lab/drivers/third_party/ST/STM32L4xx_HAL_Driver/Src\stm32l4xx_hal_gpio.c **** 
 495:d:/LiteOS_Lab/drivers/third_party/ST/STM32L4xx_HAL_Driver/Src\stm32l4xx_hal_gpio.c ****   /* Check the parameters */
 496:d:/LiteOS_Lab/drivers/third_party/ST/STM32L4xx_HAL_Driver/Src\stm32l4xx_hal_gpio.c ****   assert_param(IS_GPIO_LOCK_INSTANCE(GPIOx));
 497:d:/LiteOS_Lab/drivers/third_party/ST/STM32L4xx_HAL_Driver/Src\stm32l4xx_hal_gpio.c ****   assert_param(IS_GPIO_PIN(GPIO_Pin));
 498:d:/LiteOS_Lab/drivers/third_party/ST/STM32L4xx_HAL_Driver/Src\stm32l4xx_hal_gpio.c **** 
 499:d:/LiteOS_Lab/drivers/third_party/ST/STM32L4xx_HAL_Driver/Src\stm32l4xx_hal_gpio.c ****   /* Apply lock key write sequence */
 500:d:/LiteOS_Lab/drivers/third_party/ST/STM32L4xx_HAL_Driver/Src\stm32l4xx_hal_gpio.c ****   tmp |= GPIO_Pin;
 1090              		.loc 1 500 7
 1091 0012 7A88     		ldrh	r2, [r7, #2]
 1092 0014 FB68     		ldr	r3, [r7, #12]
 1093 0016 1343     		orrs	r3, r3, r2
 1094 0018 FB60     		str	r3, [r7, #12]
 501:d:/LiteOS_Lab/drivers/third_party/ST/STM32L4xx_HAL_Driver/Src\stm32l4xx_hal_gpio.c ****   /* Set LCKx bit(s): LCKK='1' + LCK[15-0] */
 502:d:/LiteOS_Lab/drivers/third_party/ST/STM32L4xx_HAL_Driver/Src\stm32l4xx_hal_gpio.c ****   GPIOx->LCKR = tmp;
 1095              		.loc 1 502 15
 1096 001a FA68     		ldr	r2, [r7, #12]
 1097 001c 7B68     		ldr	r3, [r7, #4]
ARM GAS  C:\Users\ADMINI~1\AppData\Local\Temp\ccinuMnV.s 			page 29


 1098 001e DA61     		str	r2, [r3, #28]
 503:d:/LiteOS_Lab/drivers/third_party/ST/STM32L4xx_HAL_Driver/Src\stm32l4xx_hal_gpio.c ****   /* Reset LCKx bit(s): LCKK='0' + LCK[15-0] */
 504:d:/LiteOS_Lab/drivers/third_party/ST/STM32L4xx_HAL_Driver/Src\stm32l4xx_hal_gpio.c ****   GPIOx->LCKR = GPIO_Pin;
 1099              		.loc 1 504 15
 1100 0020 7A88     		ldrh	r2, [r7, #2]
 1101 0022 7B68     		ldr	r3, [r7, #4]
 1102 0024 DA61     		str	r2, [r3, #28]
 505:d:/LiteOS_Lab/drivers/third_party/ST/STM32L4xx_HAL_Driver/Src\stm32l4xx_hal_gpio.c ****   /* Set LCKx bit(s): LCKK='1' + LCK[15-0] */
 506:d:/LiteOS_Lab/drivers/third_party/ST/STM32L4xx_HAL_Driver/Src\stm32l4xx_hal_gpio.c ****   GPIOx->LCKR = tmp;
 1103              		.loc 1 506 15
 1104 0026 FA68     		ldr	r2, [r7, #12]
 1105 0028 7B68     		ldr	r3, [r7, #4]
 1106 002a DA61     		str	r2, [r3, #28]
 507:d:/LiteOS_Lab/drivers/third_party/ST/STM32L4xx_HAL_Driver/Src\stm32l4xx_hal_gpio.c ****   /* Read LCKK bit*/
 508:d:/LiteOS_Lab/drivers/third_party/ST/STM32L4xx_HAL_Driver/Src\stm32l4xx_hal_gpio.c ****   tmp = GPIOx->LCKR;
 1107              		.loc 1 508 14
 1108 002c 7B68     		ldr	r3, [r7, #4]
 1109 002e DB69     		ldr	r3, [r3, #28]
 1110              		.loc 1 508 7
 1111 0030 FB60     		str	r3, [r7, #12]
 509:d:/LiteOS_Lab/drivers/third_party/ST/STM32L4xx_HAL_Driver/Src\stm32l4xx_hal_gpio.c **** 
 510:d:/LiteOS_Lab/drivers/third_party/ST/STM32L4xx_HAL_Driver/Src\stm32l4xx_hal_gpio.c ****   if((GPIOx->LCKR & GPIO_LCKR_LCKK) != RESET)
 1112              		.loc 1 510 12
 1113 0032 7B68     		ldr	r3, [r7, #4]
 1114 0034 DB69     		ldr	r3, [r3, #28]
 1115              		.loc 1 510 19
 1116 0036 03F48033 		and	r3, r3, #65536
 1117              		.loc 1 510 5
 1118 003a 002B     		cmp	r3, #0
 1119 003c 01D0     		beq	.L51
 511:d:/LiteOS_Lab/drivers/third_party/ST/STM32L4xx_HAL_Driver/Src\stm32l4xx_hal_gpio.c ****   {
 512:d:/LiteOS_Lab/drivers/third_party/ST/STM32L4xx_HAL_Driver/Src\stm32l4xx_hal_gpio.c ****     return HAL_OK;
 1120              		.loc 1 512 12
 1121 003e 0023     		movs	r3, #0
 1122 0040 00E0     		b	.L52
 1123              	.L51:
 513:d:/LiteOS_Lab/drivers/third_party/ST/STM32L4xx_HAL_Driver/Src\stm32l4xx_hal_gpio.c ****   }
 514:d:/LiteOS_Lab/drivers/third_party/ST/STM32L4xx_HAL_Driver/Src\stm32l4xx_hal_gpio.c ****   else
 515:d:/LiteOS_Lab/drivers/third_party/ST/STM32L4xx_HAL_Driver/Src\stm32l4xx_hal_gpio.c ****   {
 516:d:/LiteOS_Lab/drivers/third_party/ST/STM32L4xx_HAL_Driver/Src\stm32l4xx_hal_gpio.c ****     return HAL_ERROR;
 1124              		.loc 1 516 12
 1125 0042 0123     		movs	r3, #1
 1126              	.L52:
 517:d:/LiteOS_Lab/drivers/third_party/ST/STM32L4xx_HAL_Driver/Src\stm32l4xx_hal_gpio.c ****   }
 518:d:/LiteOS_Lab/drivers/third_party/ST/STM32L4xx_HAL_Driver/Src\stm32l4xx_hal_gpio.c **** }
 1127              		.loc 1 518 1
 1128 0044 1846     		mov	r0, r3
 1129 0046 1437     		adds	r7, r7, #20
 1130              	.LCFI33:
 1131              		.cfi_def_cfa_offset 4
 1132 0048 BD46     		mov	sp, r7
 1133              	.LCFI34:
 1134              		.cfi_def_cfa_register 13
 1135              		@ sp needed
 1136 004a 5DF8047B 		ldr	r7, [sp], #4
 1137              	.LCFI35:
 1138              		.cfi_restore 7
ARM GAS  C:\Users\ADMINI~1\AppData\Local\Temp\ccinuMnV.s 			page 30


 1139              		.cfi_def_cfa_offset 0
 1140 004e 7047     		bx	lr
 1141              		.cfi_endproc
 1142              	.LFE292:
 1144              		.section	.text.HAL_GPIO_EXTI_IRQHandler,"ax",%progbits
 1145              		.align	1
 1146              		.global	HAL_GPIO_EXTI_IRQHandler
 1147              		.syntax unified
 1148              		.thumb
 1149              		.thumb_func
 1150              		.fpu fpv4-sp-d16
 1152              	HAL_GPIO_EXTI_IRQHandler:
 1153              	.LFB293:
 519:d:/LiteOS_Lab/drivers/third_party/ST/STM32L4xx_HAL_Driver/Src\stm32l4xx_hal_gpio.c **** 
 520:d:/LiteOS_Lab/drivers/third_party/ST/STM32L4xx_HAL_Driver/Src\stm32l4xx_hal_gpio.c **** /**
 521:d:/LiteOS_Lab/drivers/third_party/ST/STM32L4xx_HAL_Driver/Src\stm32l4xx_hal_gpio.c ****   * @brief  Handle EXTI interrupt request.
 522:d:/LiteOS_Lab/drivers/third_party/ST/STM32L4xx_HAL_Driver/Src\stm32l4xx_hal_gpio.c ****   * @param  GPIO_Pin: Specifies the port pin connected to corresponding EXTI line.
 523:d:/LiteOS_Lab/drivers/third_party/ST/STM32L4xx_HAL_Driver/Src\stm32l4xx_hal_gpio.c ****   * @retval None
 524:d:/LiteOS_Lab/drivers/third_party/ST/STM32L4xx_HAL_Driver/Src\stm32l4xx_hal_gpio.c ****   */
 525:d:/LiteOS_Lab/drivers/third_party/ST/STM32L4xx_HAL_Driver/Src\stm32l4xx_hal_gpio.c **** void HAL_GPIO_EXTI_IRQHandler(uint16_t GPIO_Pin)
 526:d:/LiteOS_Lab/drivers/third_party/ST/STM32L4xx_HAL_Driver/Src\stm32l4xx_hal_gpio.c **** {
 1154              		.loc 1 526 1
 1155              		.cfi_startproc
 1156              		@ args = 0, pretend = 0, frame = 8
 1157              		@ frame_needed = 1, uses_anonymous_args = 0
 1158 0000 80B5     		push	{r7, lr}
 1159              	.LCFI36:
 1160              		.cfi_def_cfa_offset 8
 1161              		.cfi_offset 7, -8
 1162              		.cfi_offset 14, -4
 1163 0002 82B0     		sub	sp, sp, #8
 1164              	.LCFI37:
 1165              		.cfi_def_cfa_offset 16
 1166 0004 00AF     		add	r7, sp, #0
 1167              	.LCFI38:
 1168              		.cfi_def_cfa_register 7
 1169 0006 0346     		mov	r3, r0
 1170 0008 FB80     		strh	r3, [r7, #6]	@ movhi
 527:d:/LiteOS_Lab/drivers/third_party/ST/STM32L4xx_HAL_Driver/Src\stm32l4xx_hal_gpio.c ****   /* EXTI line interrupt detected */
 528:d:/LiteOS_Lab/drivers/third_party/ST/STM32L4xx_HAL_Driver/Src\stm32l4xx_hal_gpio.c ****   if(__HAL_GPIO_EXTI_GET_IT(GPIO_Pin) != RESET)
 1171              		.loc 1 528 6
 1172 000a 084B     		ldr	r3, .L56
 1173 000c 5A69     		ldr	r2, [r3, #20]
 1174 000e FB88     		ldrh	r3, [r7, #6]
 1175 0010 1340     		ands	r3, r3, r2
 1176              		.loc 1 528 5
 1177 0012 002B     		cmp	r3, #0
 1178 0014 06D0     		beq	.L55
 529:d:/LiteOS_Lab/drivers/third_party/ST/STM32L4xx_HAL_Driver/Src\stm32l4xx_hal_gpio.c ****   {
 530:d:/LiteOS_Lab/drivers/third_party/ST/STM32L4xx_HAL_Driver/Src\stm32l4xx_hal_gpio.c ****     __HAL_GPIO_EXTI_CLEAR_IT(GPIO_Pin);
 1179              		.loc 1 530 5
 1180 0016 054A     		ldr	r2, .L56
 1181 0018 FB88     		ldrh	r3, [r7, #6]
 1182 001a 5361     		str	r3, [r2, #20]
 531:d:/LiteOS_Lab/drivers/third_party/ST/STM32L4xx_HAL_Driver/Src\stm32l4xx_hal_gpio.c ****     HAL_GPIO_EXTI_Callback(GPIO_Pin);
 1183              		.loc 1 531 5
 1184 001c FB88     		ldrh	r3, [r7, #6]
ARM GAS  C:\Users\ADMINI~1\AppData\Local\Temp\ccinuMnV.s 			page 31


 1185 001e 1846     		mov	r0, r3
 1186 0020 FFF7FEFF 		bl	HAL_GPIO_EXTI_Callback
 1187              	.L55:
 532:d:/LiteOS_Lab/drivers/third_party/ST/STM32L4xx_HAL_Driver/Src\stm32l4xx_hal_gpio.c ****   }
 533:d:/LiteOS_Lab/drivers/third_party/ST/STM32L4xx_HAL_Driver/Src\stm32l4xx_hal_gpio.c **** }
 1188              		.loc 1 533 1
 1189 0024 00BF     		nop
 1190 0026 0837     		adds	r7, r7, #8
 1191              	.LCFI39:
 1192              		.cfi_def_cfa_offset 8
 1193 0028 BD46     		mov	sp, r7
 1194              	.LCFI40:
 1195              		.cfi_def_cfa_register 13
 1196              		@ sp needed
 1197 002a 80BD     		pop	{r7, pc}
 1198              	.L57:
 1199              		.align	2
 1200              	.L56:
 1201 002c 00040140 		.word	1073808384
 1202              		.cfi_endproc
 1203              	.LFE293:
 1205              		.section	.text.HAL_GPIO_EXTI_Callback,"ax",%progbits
 1206              		.align	1
 1207              		.weak	HAL_GPIO_EXTI_Callback
 1208              		.syntax unified
 1209              		.thumb
 1210              		.thumb_func
 1211              		.fpu fpv4-sp-d16
 1213              	HAL_GPIO_EXTI_Callback:
 1214              	.LFB294:
 534:d:/LiteOS_Lab/drivers/third_party/ST/STM32L4xx_HAL_Driver/Src\stm32l4xx_hal_gpio.c **** 
 535:d:/LiteOS_Lab/drivers/third_party/ST/STM32L4xx_HAL_Driver/Src\stm32l4xx_hal_gpio.c **** /**
 536:d:/LiteOS_Lab/drivers/third_party/ST/STM32L4xx_HAL_Driver/Src\stm32l4xx_hal_gpio.c ****   * @brief  EXTI line detection callback.
 537:d:/LiteOS_Lab/drivers/third_party/ST/STM32L4xx_HAL_Driver/Src\stm32l4xx_hal_gpio.c ****   * @param  GPIO_Pin: Specifies the port pin connected to corresponding EXTI line.
 538:d:/LiteOS_Lab/drivers/third_party/ST/STM32L4xx_HAL_Driver/Src\stm32l4xx_hal_gpio.c ****   * @retval None
 539:d:/LiteOS_Lab/drivers/third_party/ST/STM32L4xx_HAL_Driver/Src\stm32l4xx_hal_gpio.c ****   */
 540:d:/LiteOS_Lab/drivers/third_party/ST/STM32L4xx_HAL_Driver/Src\stm32l4xx_hal_gpio.c **** __weak void HAL_GPIO_EXTI_Callback(uint16_t GPIO_Pin)
 541:d:/LiteOS_Lab/drivers/third_party/ST/STM32L4xx_HAL_Driver/Src\stm32l4xx_hal_gpio.c **** {
 1215              		.loc 1 541 1
 1216              		.cfi_startproc
 1217              		@ args = 0, pretend = 0, frame = 8
 1218              		@ frame_needed = 1, uses_anonymous_args = 0
 1219              		@ link register save eliminated.
 1220 0000 80B4     		push	{r7}
 1221              	.LCFI41:
 1222              		.cfi_def_cfa_offset 4
 1223              		.cfi_offset 7, -4
 1224 0002 83B0     		sub	sp, sp, #12
 1225              	.LCFI42:
 1226              		.cfi_def_cfa_offset 16
 1227 0004 00AF     		add	r7, sp, #0
 1228              	.LCFI43:
 1229              		.cfi_def_cfa_register 7
 1230 0006 0346     		mov	r3, r0
 1231 0008 FB80     		strh	r3, [r7, #6]	@ movhi
 542:d:/LiteOS_Lab/drivers/third_party/ST/STM32L4xx_HAL_Driver/Src\stm32l4xx_hal_gpio.c ****   /* Prevent unused argument(s) compilation warning */
 543:d:/LiteOS_Lab/drivers/third_party/ST/STM32L4xx_HAL_Driver/Src\stm32l4xx_hal_gpio.c ****   UNUSED(GPIO_Pin);
ARM GAS  C:\Users\ADMINI~1\AppData\Local\Temp\ccinuMnV.s 			page 32


 544:d:/LiteOS_Lab/drivers/third_party/ST/STM32L4xx_HAL_Driver/Src\stm32l4xx_hal_gpio.c **** 
 545:d:/LiteOS_Lab/drivers/third_party/ST/STM32L4xx_HAL_Driver/Src\stm32l4xx_hal_gpio.c ****   /* NOTE: This function should not be modified, when the callback is needed,
 546:d:/LiteOS_Lab/drivers/third_party/ST/STM32L4xx_HAL_Driver/Src\stm32l4xx_hal_gpio.c ****            the HAL_GPIO_EXTI_Callback could be implemented in the user file
 547:d:/LiteOS_Lab/drivers/third_party/ST/STM32L4xx_HAL_Driver/Src\stm32l4xx_hal_gpio.c ****    */
 548:d:/LiteOS_Lab/drivers/third_party/ST/STM32L4xx_HAL_Driver/Src\stm32l4xx_hal_gpio.c **** }
 1232              		.loc 1 548 1
 1233 000a 00BF     		nop
 1234 000c 0C37     		adds	r7, r7, #12
 1235              	.LCFI44:
 1236              		.cfi_def_cfa_offset 4
 1237 000e BD46     		mov	sp, r7
 1238              	.LCFI45:
 1239              		.cfi_def_cfa_register 13
 1240              		@ sp needed
 1241 0010 5DF8047B 		ldr	r7, [sp], #4
 1242              	.LCFI46:
 1243              		.cfi_restore 7
 1244              		.cfi_def_cfa_offset 0
 1245 0014 7047     		bx	lr
 1246              		.cfi_endproc
 1247              	.LFE294:
 1249              		.text
 1250              	.Letext0:
 1251              		.file 2 "c:\\users\\administrator\\.huawei-liteos-studio\\tools\\arm-none-eabi\\arm-none-eabi\\inc
 1252              		.file 3 "c:\\users\\administrator\\.huawei-liteos-studio\\tools\\arm-none-eabi\\arm-none-eabi\\inc
 1253              		.file 4 "c:\\users\\administrator\\.huawei-liteos-studio\\tools\\arm-none-eabi\\arm-none-eabi\\inc
 1254              		.file 5 "c:\\users\\administrator\\.huawei-liteos-studio\\tools\\arm-none-eabi\\lib\\gcc\\arm-none
 1255              		.file 6 "c:\\users\\administrator\\.huawei-liteos-studio\\tools\\arm-none-eabi\\arm-none-eabi\\inc
 1256              		.file 7 "d:/LiteOS_Lab/iot_link/os/liteos/include/los_typedef.h"
 1257              		.file 8 "c:\\users\\administrator\\.huawei-liteos-studio\\tools\\arm-none-eabi\\arm-none-eabi\\inc
 1258              		.file 9 "d:/LiteOS_Lab/iot_link/os/liteos/arch/arm/common/cmsis/core_cm4.h"
 1259              		.file 10 "d:/LiteOS_Lab/targets/STM32L431VCT6_Bossay/Inc/system_stm32l4xx.h"
 1260              		.file 11 "d:/LiteOS_Lab/targets/STM32L431VCT6_Bossay/Inc/stm32l431xx.h"
 1261              		.file 12 "d:/LiteOS_Lab/iot_link/os/liteos/include/los_config.h"
 1262              		.file 13 "d:/LiteOS_Lab/iot_link/os/liteos/include/los_err.h"
 1263              		.file 14 "d:/LiteOS_Lab/iot_link/os/liteos/arch/arm/arm-m/include/los_hwi.h"
 1264              		.file 15 "d:/LiteOS_Lab/targets/STM32L431VCT6_Bossay/Inc/stm32l4xx.h"
 1265              		.file 16 "d:/LiteOS_Lab/drivers/third_party/ST/STM32L4xx_HAL_Driver/Inc/stm32l4xx_hal_def.h"
 1266              		.file 17 "d:/LiteOS_Lab/drivers/third_party/ST/STM32L4xx_HAL_Driver/Inc/stm32l4xx_hal_gpio.h"
ARM GAS  C:\Users\ADMINI~1\AppData\Local\Temp\ccinuMnV.s 			page 33

