ARM GAS  C:\Users\ADMINI~1\AppData\Local\Temp\ccHDbRvY.s 			page 1


   1              		.cpu cortex-m4
   2              		.eabi_attribute 27, 1
   3              		.eabi_attribute 28, 1
   4              		.eabi_attribute 20, 1
   5              		.eabi_attribute 21, 1
   6              		.eabi_attribute 23, 3
   7              		.eabi_attribute 24, 1
   8              		.eabi_attribute 25, 1
   9              		.eabi_attribute 26, 1
  10              		.eabi_attribute 30, 6
  11              		.eabi_attribute 34, 1
  12              		.eabi_attribute 18, 4
  13              		.file	"stm32l4xx_hal_uart.c"
  14              		.text
  15              	.Ltext0:
  16              		.cfi_sections	.debug_frame
  17              		.section	.text.HAL_UART_Init,"ax",%progbits
  18              		.align	1
  19              		.global	HAL_UART_Init
  20              		.arch armv7e-m
  21              		.syntax unified
  22              		.thumb
  23              		.thumb_func
  24              		.fpu fpv4-sp-d16
  26              	HAL_UART_Init:
  27              	.LFB287:
  28              		.file 1 "d:/LiteOS_Lab/drivers/third_party/ST/STM32L4xx_HAL_Driver/Src/stm32l4xx_hal_uart.c"
   1:d:/LiteOS_Lab/drivers/third_party/ST/STM32L4xx_HAL_Driver/Src\stm32l4xx_hal_uart.c **** /**
   2:d:/LiteOS_Lab/drivers/third_party/ST/STM32L4xx_HAL_Driver/Src\stm32l4xx_hal_uart.c ****   ******************************************************************************
   3:d:/LiteOS_Lab/drivers/third_party/ST/STM32L4xx_HAL_Driver/Src\stm32l4xx_hal_uart.c ****   * @file    stm32l4xx_hal_uart.c
   4:d:/LiteOS_Lab/drivers/third_party/ST/STM32L4xx_HAL_Driver/Src\stm32l4xx_hal_uart.c ****   * @author  MCD Application Team
   5:d:/LiteOS_Lab/drivers/third_party/ST/STM32L4xx_HAL_Driver/Src\stm32l4xx_hal_uart.c ****   * @version V1.7.2
   6:d:/LiteOS_Lab/drivers/third_party/ST/STM32L4xx_HAL_Driver/Src\stm32l4xx_hal_uart.c ****   * @date    16-June-2017
   7:d:/LiteOS_Lab/drivers/third_party/ST/STM32L4xx_HAL_Driver/Src\stm32l4xx_hal_uart.c ****   * @brief   UART HAL module driver.
   8:d:/LiteOS_Lab/drivers/third_party/ST/STM32L4xx_HAL_Driver/Src\stm32l4xx_hal_uart.c ****   *          This file provides firmware functions to manage the following
   9:d:/LiteOS_Lab/drivers/third_party/ST/STM32L4xx_HAL_Driver/Src\stm32l4xx_hal_uart.c ****   *          functionalities of the Universal Asynchronous Receiver Transmitter Peripheral (UART).
  10:d:/LiteOS_Lab/drivers/third_party/ST/STM32L4xx_HAL_Driver/Src\stm32l4xx_hal_uart.c ****   *           + Initialization and de-initialization functions
  11:d:/LiteOS_Lab/drivers/third_party/ST/STM32L4xx_HAL_Driver/Src\stm32l4xx_hal_uart.c ****   *           + IO operation functions
  12:d:/LiteOS_Lab/drivers/third_party/ST/STM32L4xx_HAL_Driver/Src\stm32l4xx_hal_uart.c ****   *           + Peripheral Control functions
  13:d:/LiteOS_Lab/drivers/third_party/ST/STM32L4xx_HAL_Driver/Src\stm32l4xx_hal_uart.c ****   *
  14:d:/LiteOS_Lab/drivers/third_party/ST/STM32L4xx_HAL_Driver/Src\stm32l4xx_hal_uart.c ****   *
  15:d:/LiteOS_Lab/drivers/third_party/ST/STM32L4xx_HAL_Driver/Src\stm32l4xx_hal_uart.c ****   @verbatim
  16:d:/LiteOS_Lab/drivers/third_party/ST/STM32L4xx_HAL_Driver/Src\stm32l4xx_hal_uart.c ****  ===============================================================================
  17:d:/LiteOS_Lab/drivers/third_party/ST/STM32L4xx_HAL_Driver/Src\stm32l4xx_hal_uart.c ****                         ##### How to use this driver #####
  18:d:/LiteOS_Lab/drivers/third_party/ST/STM32L4xx_HAL_Driver/Src\stm32l4xx_hal_uart.c ****  ===============================================================================
  19:d:/LiteOS_Lab/drivers/third_party/ST/STM32L4xx_HAL_Driver/Src\stm32l4xx_hal_uart.c ****   [..]
  20:d:/LiteOS_Lab/drivers/third_party/ST/STM32L4xx_HAL_Driver/Src\stm32l4xx_hal_uart.c ****     The UART HAL driver can be used as follows:
  21:d:/LiteOS_Lab/drivers/third_party/ST/STM32L4xx_HAL_Driver/Src\stm32l4xx_hal_uart.c **** 
  22:d:/LiteOS_Lab/drivers/third_party/ST/STM32L4xx_HAL_Driver/Src\stm32l4xx_hal_uart.c ****     (#) Declare a UART_HandleTypeDef handle structure (eg. UART_HandleTypeDef huart).
  23:d:/LiteOS_Lab/drivers/third_party/ST/STM32L4xx_HAL_Driver/Src\stm32l4xx_hal_uart.c ****     (#) Initialize the UART low level resources by implementing the HAL_UART_MspInit() API:
  24:d:/LiteOS_Lab/drivers/third_party/ST/STM32L4xx_HAL_Driver/Src\stm32l4xx_hal_uart.c ****         (++) Enable the USARTx interface clock.
  25:d:/LiteOS_Lab/drivers/third_party/ST/STM32L4xx_HAL_Driver/Src\stm32l4xx_hal_uart.c ****         (++) UART pins configuration:
  26:d:/LiteOS_Lab/drivers/third_party/ST/STM32L4xx_HAL_Driver/Src\stm32l4xx_hal_uart.c ****             (+++) Enable the clock for the UART GPIOs.
  27:d:/LiteOS_Lab/drivers/third_party/ST/STM32L4xx_HAL_Driver/Src\stm32l4xx_hal_uart.c ****             (+++) Configure these UART pins as alternate function pull-up.
  28:d:/LiteOS_Lab/drivers/third_party/ST/STM32L4xx_HAL_Driver/Src\stm32l4xx_hal_uart.c ****         (++) NVIC configuration if you need to use interrupt process (HAL_UART_Transmit_IT()
  29:d:/LiteOS_Lab/drivers/third_party/ST/STM32L4xx_HAL_Driver/Src\stm32l4xx_hal_uart.c ****              and HAL_UART_Receive_IT() APIs):
  30:d:/LiteOS_Lab/drivers/third_party/ST/STM32L4xx_HAL_Driver/Src\stm32l4xx_hal_uart.c ****             (+++) Configure the USARTx interrupt priority.
ARM GAS  C:\Users\ADMINI~1\AppData\Local\Temp\ccHDbRvY.s 			page 2


  31:d:/LiteOS_Lab/drivers/third_party/ST/STM32L4xx_HAL_Driver/Src\stm32l4xx_hal_uart.c ****             (+++) Enable the NVIC USART IRQ handle.
  32:d:/LiteOS_Lab/drivers/third_party/ST/STM32L4xx_HAL_Driver/Src\stm32l4xx_hal_uart.c ****         (++) UART interrupts handling:
  33:d:/LiteOS_Lab/drivers/third_party/ST/STM32L4xx_HAL_Driver/Src\stm32l4xx_hal_uart.c ****               -@@-  The specific UART interrupts (Transmission complete interrupt,
  34:d:/LiteOS_Lab/drivers/third_party/ST/STM32L4xx_HAL_Driver/Src\stm32l4xx_hal_uart.c ****                 RXNE interrupt and Error Interrupts) are managed using the macros
  35:d:/LiteOS_Lab/drivers/third_party/ST/STM32L4xx_HAL_Driver/Src\stm32l4xx_hal_uart.c ****                 __HAL_UART_ENABLE_IT() and __HAL_UART_DISABLE_IT() inside the transmit and receive 
  36:d:/LiteOS_Lab/drivers/third_party/ST/STM32L4xx_HAL_Driver/Src\stm32l4xx_hal_uart.c ****         (++) DMA Configuration if you need to use DMA process (HAL_UART_Transmit_DMA()
  37:d:/LiteOS_Lab/drivers/third_party/ST/STM32L4xx_HAL_Driver/Src\stm32l4xx_hal_uart.c ****              and HAL_UART_Receive_DMA() APIs):
  38:d:/LiteOS_Lab/drivers/third_party/ST/STM32L4xx_HAL_Driver/Src\stm32l4xx_hal_uart.c ****             (+++) Declare a DMA handle structure for the Tx/Rx channel.
  39:d:/LiteOS_Lab/drivers/third_party/ST/STM32L4xx_HAL_Driver/Src\stm32l4xx_hal_uart.c ****             (+++) Enable the DMAx interface clock.
  40:d:/LiteOS_Lab/drivers/third_party/ST/STM32L4xx_HAL_Driver/Src\stm32l4xx_hal_uart.c ****             (+++) Configure the declared DMA handle structure with the required Tx/Rx parameters.
  41:d:/LiteOS_Lab/drivers/third_party/ST/STM32L4xx_HAL_Driver/Src\stm32l4xx_hal_uart.c ****             (+++) Configure the DMA Tx/Rx channel.
  42:d:/LiteOS_Lab/drivers/third_party/ST/STM32L4xx_HAL_Driver/Src\stm32l4xx_hal_uart.c ****             (+++) Associate the initialized DMA handle to the UART DMA Tx/Rx handle.
  43:d:/LiteOS_Lab/drivers/third_party/ST/STM32L4xx_HAL_Driver/Src\stm32l4xx_hal_uart.c ****             (+++) Configure the priority and enable the NVIC for the transfer complete interrupt on
  44:d:/LiteOS_Lab/drivers/third_party/ST/STM32L4xx_HAL_Driver/Src\stm32l4xx_hal_uart.c **** 
  45:d:/LiteOS_Lab/drivers/third_party/ST/STM32L4xx_HAL_Driver/Src\stm32l4xx_hal_uart.c ****     (#) Program the Baud Rate, Word Length, Stop Bit, Parity, Hardware
  46:d:/LiteOS_Lab/drivers/third_party/ST/STM32L4xx_HAL_Driver/Src\stm32l4xx_hal_uart.c ****         flow control and Mode (Receiver/Transmitter) in the huart handle Init structure.
  47:d:/LiteOS_Lab/drivers/third_party/ST/STM32L4xx_HAL_Driver/Src\stm32l4xx_hal_uart.c **** 
  48:d:/LiteOS_Lab/drivers/third_party/ST/STM32L4xx_HAL_Driver/Src\stm32l4xx_hal_uart.c ****     (#) If required, program UART advanced features (TX/RX pins swap, auto Baud rate detection,...)
  49:d:/LiteOS_Lab/drivers/third_party/ST/STM32L4xx_HAL_Driver/Src\stm32l4xx_hal_uart.c ****         in the huart handle AdvancedInit structure.
  50:d:/LiteOS_Lab/drivers/third_party/ST/STM32L4xx_HAL_Driver/Src\stm32l4xx_hal_uart.c **** 
  51:d:/LiteOS_Lab/drivers/third_party/ST/STM32L4xx_HAL_Driver/Src\stm32l4xx_hal_uart.c ****     (#) For the UART asynchronous mode, initialize the UART registers by calling
  52:d:/LiteOS_Lab/drivers/third_party/ST/STM32L4xx_HAL_Driver/Src\stm32l4xx_hal_uart.c ****         the HAL_UART_Init() API.
  53:d:/LiteOS_Lab/drivers/third_party/ST/STM32L4xx_HAL_Driver/Src\stm32l4xx_hal_uart.c **** 
  54:d:/LiteOS_Lab/drivers/third_party/ST/STM32L4xx_HAL_Driver/Src\stm32l4xx_hal_uart.c ****     (#) For the UART Half duplex mode, initialize the UART registers by calling
  55:d:/LiteOS_Lab/drivers/third_party/ST/STM32L4xx_HAL_Driver/Src\stm32l4xx_hal_uart.c ****         the HAL_HalfDuplex_Init() API.
  56:d:/LiteOS_Lab/drivers/third_party/ST/STM32L4xx_HAL_Driver/Src\stm32l4xx_hal_uart.c **** 
  57:d:/LiteOS_Lab/drivers/third_party/ST/STM32L4xx_HAL_Driver/Src\stm32l4xx_hal_uart.c ****     (#) For the UART LIN (Local Interconnection Network) mode, initialize the UART registers
  58:d:/LiteOS_Lab/drivers/third_party/ST/STM32L4xx_HAL_Driver/Src\stm32l4xx_hal_uart.c ****         by calling the HAL_LIN_Init() API.
  59:d:/LiteOS_Lab/drivers/third_party/ST/STM32L4xx_HAL_Driver/Src\stm32l4xx_hal_uart.c **** 
  60:d:/LiteOS_Lab/drivers/third_party/ST/STM32L4xx_HAL_Driver/Src\stm32l4xx_hal_uart.c ****     (#) For the UART Multiprocessor mode, initialize the UART registers
  61:d:/LiteOS_Lab/drivers/third_party/ST/STM32L4xx_HAL_Driver/Src\stm32l4xx_hal_uart.c ****         by calling the HAL_MultiProcessor_Init() API.
  62:d:/LiteOS_Lab/drivers/third_party/ST/STM32L4xx_HAL_Driver/Src\stm32l4xx_hal_uart.c **** 
  63:d:/LiteOS_Lab/drivers/third_party/ST/STM32L4xx_HAL_Driver/Src\stm32l4xx_hal_uart.c ****     (#) For the UART RS485 Driver Enabled mode, initialize the UART registers
  64:d:/LiteOS_Lab/drivers/third_party/ST/STM32L4xx_HAL_Driver/Src\stm32l4xx_hal_uart.c ****         by calling the HAL_RS485Ex_Init() API.
  65:d:/LiteOS_Lab/drivers/third_party/ST/STM32L4xx_HAL_Driver/Src\stm32l4xx_hal_uart.c **** 
  66:d:/LiteOS_Lab/drivers/third_party/ST/STM32L4xx_HAL_Driver/Src\stm32l4xx_hal_uart.c ****     [..]
  67:d:/LiteOS_Lab/drivers/third_party/ST/STM32L4xx_HAL_Driver/Src\stm32l4xx_hal_uart.c ****     (@) These API's (HAL_UART_Init(), HAL_HalfDuplex_Init(), HAL_LIN_Init(), HAL_MultiProcessor_Ini
  68:d:/LiteOS_Lab/drivers/third_party/ST/STM32L4xx_HAL_Driver/Src\stm32l4xx_hal_uart.c ****         also configure the low level Hardware GPIO, CLOCK, CORTEX...etc) by
  69:d:/LiteOS_Lab/drivers/third_party/ST/STM32L4xx_HAL_Driver/Src\stm32l4xx_hal_uart.c ****         calling the customized HAL_UART_MspInit() API.
  70:d:/LiteOS_Lab/drivers/third_party/ST/STM32L4xx_HAL_Driver/Src\stm32l4xx_hal_uart.c **** 
  71:d:/LiteOS_Lab/drivers/third_party/ST/STM32L4xx_HAL_Driver/Src\stm32l4xx_hal_uart.c ****   @endverbatim
  72:d:/LiteOS_Lab/drivers/third_party/ST/STM32L4xx_HAL_Driver/Src\stm32l4xx_hal_uart.c ****   ******************************************************************************
  73:d:/LiteOS_Lab/drivers/third_party/ST/STM32L4xx_HAL_Driver/Src\stm32l4xx_hal_uart.c ****   * @attention
  74:d:/LiteOS_Lab/drivers/third_party/ST/STM32L4xx_HAL_Driver/Src\stm32l4xx_hal_uart.c ****   *
  75:d:/LiteOS_Lab/drivers/third_party/ST/STM32L4xx_HAL_Driver/Src\stm32l4xx_hal_uart.c ****   * <h2><center>&copy; COPYRIGHT(c) 2017 STMicroelectronics</center></h2>
  76:d:/LiteOS_Lab/drivers/third_party/ST/STM32L4xx_HAL_Driver/Src\stm32l4xx_hal_uart.c ****   *
  77:d:/LiteOS_Lab/drivers/third_party/ST/STM32L4xx_HAL_Driver/Src\stm32l4xx_hal_uart.c ****   * Redistribution and use in source and binary forms, with or without modification,
  78:d:/LiteOS_Lab/drivers/third_party/ST/STM32L4xx_HAL_Driver/Src\stm32l4xx_hal_uart.c ****   * are permitted provided that the following conditions are met:
  79:d:/LiteOS_Lab/drivers/third_party/ST/STM32L4xx_HAL_Driver/Src\stm32l4xx_hal_uart.c ****   *   1. Redistributions of source code must retain the above copyright notice,
  80:d:/LiteOS_Lab/drivers/third_party/ST/STM32L4xx_HAL_Driver/Src\stm32l4xx_hal_uart.c ****   *      this list of conditions and the following disclaimer.
  81:d:/LiteOS_Lab/drivers/third_party/ST/STM32L4xx_HAL_Driver/Src\stm32l4xx_hal_uart.c ****   *   2. Redistributions in binary form must reproduce the above copyright notice,
  82:d:/LiteOS_Lab/drivers/third_party/ST/STM32L4xx_HAL_Driver/Src\stm32l4xx_hal_uart.c ****   *      this list of conditions and the following disclaimer in the documentation
  83:d:/LiteOS_Lab/drivers/third_party/ST/STM32L4xx_HAL_Driver/Src\stm32l4xx_hal_uart.c ****   *      and/or other materials provided with the distribution.
  84:d:/LiteOS_Lab/drivers/third_party/ST/STM32L4xx_HAL_Driver/Src\stm32l4xx_hal_uart.c ****   *   3. Neither the name of STMicroelectronics nor the names of its contributors
  85:d:/LiteOS_Lab/drivers/third_party/ST/STM32L4xx_HAL_Driver/Src\stm32l4xx_hal_uart.c ****   *      may be used to endorse or promote products derived from this software
  86:d:/LiteOS_Lab/drivers/third_party/ST/STM32L4xx_HAL_Driver/Src\stm32l4xx_hal_uart.c ****   *      without specific prior written permission.
  87:d:/LiteOS_Lab/drivers/third_party/ST/STM32L4xx_HAL_Driver/Src\stm32l4xx_hal_uart.c ****   *
ARM GAS  C:\Users\ADMINI~1\AppData\Local\Temp\ccHDbRvY.s 			page 3


  88:d:/LiteOS_Lab/drivers/third_party/ST/STM32L4xx_HAL_Driver/Src\stm32l4xx_hal_uart.c ****   * THIS SOFTWARE IS PROVIDED BY THE COPYRIGHT HOLDERS AND CONTRIBUTORS "AS IS"
  89:d:/LiteOS_Lab/drivers/third_party/ST/STM32L4xx_HAL_Driver/Src\stm32l4xx_hal_uart.c ****   * AND ANY EXPRESS OR IMPLIED WARRANTIES, INCLUDING, BUT NOT LIMITED TO, THE
  90:d:/LiteOS_Lab/drivers/third_party/ST/STM32L4xx_HAL_Driver/Src\stm32l4xx_hal_uart.c ****   * IMPLIED WARRANTIES OF MERCHANTABILITY AND FITNESS FOR A PARTICULAR PURPOSE ARE
  91:d:/LiteOS_Lab/drivers/third_party/ST/STM32L4xx_HAL_Driver/Src\stm32l4xx_hal_uart.c ****   * DISCLAIMED. IN NO EVENT SHALL THE COPYRIGHT HOLDER OR CONTRIBUTORS BE LIABLE
  92:d:/LiteOS_Lab/drivers/third_party/ST/STM32L4xx_HAL_Driver/Src\stm32l4xx_hal_uart.c ****   * FOR ANY DIRECT, INDIRECT, INCIDENTAL, SPECIAL, EXEMPLARY, OR CONSEQUENTIAL
  93:d:/LiteOS_Lab/drivers/third_party/ST/STM32L4xx_HAL_Driver/Src\stm32l4xx_hal_uart.c ****   * DAMAGES (INCLUDING, BUT NOT LIMITED TO, PROCUREMENT OF SUBSTITUTE GOODS OR
  94:d:/LiteOS_Lab/drivers/third_party/ST/STM32L4xx_HAL_Driver/Src\stm32l4xx_hal_uart.c ****   * SERVICES; LOSS OF USE, DATA, OR PROFITS; OR BUSINESS INTERRUPTION) HOWEVER
  95:d:/LiteOS_Lab/drivers/third_party/ST/STM32L4xx_HAL_Driver/Src\stm32l4xx_hal_uart.c ****   * CAUSED AND ON ANY THEORY OF LIABILITY, WHETHER IN CONTRACT, STRICT LIABILITY,
  96:d:/LiteOS_Lab/drivers/third_party/ST/STM32L4xx_HAL_Driver/Src\stm32l4xx_hal_uart.c ****   * OR TORT (INCLUDING NEGLIGENCE OR OTHERWISE) ARISING IN ANY WAY OUT OF THE USE
  97:d:/LiteOS_Lab/drivers/third_party/ST/STM32L4xx_HAL_Driver/Src\stm32l4xx_hal_uart.c ****   * OF THIS SOFTWARE, EVEN IF ADVISED OF THE POSSIBILITY OF SUCH DAMAGE.
  98:d:/LiteOS_Lab/drivers/third_party/ST/STM32L4xx_HAL_Driver/Src\stm32l4xx_hal_uart.c ****   *
  99:d:/LiteOS_Lab/drivers/third_party/ST/STM32L4xx_HAL_Driver/Src\stm32l4xx_hal_uart.c ****   ******************************************************************************
 100:d:/LiteOS_Lab/drivers/third_party/ST/STM32L4xx_HAL_Driver/Src\stm32l4xx_hal_uart.c ****   */
 101:d:/LiteOS_Lab/drivers/third_party/ST/STM32L4xx_HAL_Driver/Src\stm32l4xx_hal_uart.c **** 
 102:d:/LiteOS_Lab/drivers/third_party/ST/STM32L4xx_HAL_Driver/Src\stm32l4xx_hal_uart.c **** /* Includes ------------------------------------------------------------------*/
 103:d:/LiteOS_Lab/drivers/third_party/ST/STM32L4xx_HAL_Driver/Src\stm32l4xx_hal_uart.c **** #include "stm32l4xx_hal.h"
 104:d:/LiteOS_Lab/drivers/third_party/ST/STM32L4xx_HAL_Driver/Src\stm32l4xx_hal_uart.c **** 
 105:d:/LiteOS_Lab/drivers/third_party/ST/STM32L4xx_HAL_Driver/Src\stm32l4xx_hal_uart.c **** /** @addtogroup STM32L4xx_HAL_Driver
 106:d:/LiteOS_Lab/drivers/third_party/ST/STM32L4xx_HAL_Driver/Src\stm32l4xx_hal_uart.c ****   * @{
 107:d:/LiteOS_Lab/drivers/third_party/ST/STM32L4xx_HAL_Driver/Src\stm32l4xx_hal_uart.c ****   */
 108:d:/LiteOS_Lab/drivers/third_party/ST/STM32L4xx_HAL_Driver/Src\stm32l4xx_hal_uart.c **** 
 109:d:/LiteOS_Lab/drivers/third_party/ST/STM32L4xx_HAL_Driver/Src\stm32l4xx_hal_uart.c **** /** @defgroup UART UART
 110:d:/LiteOS_Lab/drivers/third_party/ST/STM32L4xx_HAL_Driver/Src\stm32l4xx_hal_uart.c ****   * @brief HAL UART module driver
 111:d:/LiteOS_Lab/drivers/third_party/ST/STM32L4xx_HAL_Driver/Src\stm32l4xx_hal_uart.c ****   * @{
 112:d:/LiteOS_Lab/drivers/third_party/ST/STM32L4xx_HAL_Driver/Src\stm32l4xx_hal_uart.c ****   */
 113:d:/LiteOS_Lab/drivers/third_party/ST/STM32L4xx_HAL_Driver/Src\stm32l4xx_hal_uart.c **** 
 114:d:/LiteOS_Lab/drivers/third_party/ST/STM32L4xx_HAL_Driver/Src\stm32l4xx_hal_uart.c **** #ifdef HAL_UART_MODULE_ENABLED
 115:d:/LiteOS_Lab/drivers/third_party/ST/STM32L4xx_HAL_Driver/Src\stm32l4xx_hal_uart.c **** 
 116:d:/LiteOS_Lab/drivers/third_party/ST/STM32L4xx_HAL_Driver/Src\stm32l4xx_hal_uart.c **** /* Private typedef -----------------------------------------------------------*/
 117:d:/LiteOS_Lab/drivers/third_party/ST/STM32L4xx_HAL_Driver/Src\stm32l4xx_hal_uart.c **** /* Private define ------------------------------------------------------------*/
 118:d:/LiteOS_Lab/drivers/third_party/ST/STM32L4xx_HAL_Driver/Src\stm32l4xx_hal_uart.c **** /** @defgroup UART_Private_Constants UART Private Constants
 119:d:/LiteOS_Lab/drivers/third_party/ST/STM32L4xx_HAL_Driver/Src\stm32l4xx_hal_uart.c ****   * @{
 120:d:/LiteOS_Lab/drivers/third_party/ST/STM32L4xx_HAL_Driver/Src\stm32l4xx_hal_uart.c ****   */
 121:d:/LiteOS_Lab/drivers/third_party/ST/STM32L4xx_HAL_Driver/Src\stm32l4xx_hal_uart.c **** #define UART_CR1_FIELDS  ((uint32_t)(USART_CR1_M | USART_CR1_PCE | USART_CR1_PS | \
 122:d:/LiteOS_Lab/drivers/third_party/ST/STM32L4xx_HAL_Driver/Src\stm32l4xx_hal_uart.c ****                                      USART_CR1_TE | USART_CR1_RE | USART_CR1_OVER8)) /*!< UART or U
 123:d:/LiteOS_Lab/drivers/third_party/ST/STM32L4xx_HAL_Driver/Src\stm32l4xx_hal_uart.c **** 
 124:d:/LiteOS_Lab/drivers/third_party/ST/STM32L4xx_HAL_Driver/Src\stm32l4xx_hal_uart.c **** #define UART_LPUART_BRR_MIN           ((uint32_t)0x00000300)  /* LPUART BRR minimum authorized valu
 125:d:/LiteOS_Lab/drivers/third_party/ST/STM32L4xx_HAL_Driver/Src\stm32l4xx_hal_uart.c **** #define UART_LPUART_BRR_MAX           ((uint32_t)0x000FFFFF)  /* LPUART BRR maximum authorized valu
 126:d:/LiteOS_Lab/drivers/third_party/ST/STM32L4xx_HAL_Driver/Src\stm32l4xx_hal_uart.c **** /**
 127:d:/LiteOS_Lab/drivers/third_party/ST/STM32L4xx_HAL_Driver/Src\stm32l4xx_hal_uart.c ****   * @}
 128:d:/LiteOS_Lab/drivers/third_party/ST/STM32L4xx_HAL_Driver/Src\stm32l4xx_hal_uart.c ****   */
 129:d:/LiteOS_Lab/drivers/third_party/ST/STM32L4xx_HAL_Driver/Src\stm32l4xx_hal_uart.c **** 
 130:d:/LiteOS_Lab/drivers/third_party/ST/STM32L4xx_HAL_Driver/Src\stm32l4xx_hal_uart.c **** /* Private macros ------------------------------------------------------------*/
 131:d:/LiteOS_Lab/drivers/third_party/ST/STM32L4xx_HAL_Driver/Src\stm32l4xx_hal_uart.c **** /* Private variables ---------------------------------------------------------*/
 132:d:/LiteOS_Lab/drivers/third_party/ST/STM32L4xx_HAL_Driver/Src\stm32l4xx_hal_uart.c **** /* Private function prototypes -----------------------------------------------*/
 133:d:/LiteOS_Lab/drivers/third_party/ST/STM32L4xx_HAL_Driver/Src\stm32l4xx_hal_uart.c **** /** @addtogroup UART_Private_Functions
 134:d:/LiteOS_Lab/drivers/third_party/ST/STM32L4xx_HAL_Driver/Src\stm32l4xx_hal_uart.c ****   * @{
 135:d:/LiteOS_Lab/drivers/third_party/ST/STM32L4xx_HAL_Driver/Src\stm32l4xx_hal_uart.c ****   */
 136:d:/LiteOS_Lab/drivers/third_party/ST/STM32L4xx_HAL_Driver/Src\stm32l4xx_hal_uart.c **** static void UART_EndTxTransfer(UART_HandleTypeDef *huart);
 137:d:/LiteOS_Lab/drivers/third_party/ST/STM32L4xx_HAL_Driver/Src\stm32l4xx_hal_uart.c **** static void UART_EndRxTransfer(UART_HandleTypeDef *huart);
 138:d:/LiteOS_Lab/drivers/third_party/ST/STM32L4xx_HAL_Driver/Src\stm32l4xx_hal_uart.c **** static void UART_DMATransmitCplt(DMA_HandleTypeDef *hdma);
 139:d:/LiteOS_Lab/drivers/third_party/ST/STM32L4xx_HAL_Driver/Src\stm32l4xx_hal_uart.c **** static void UART_DMAReceiveCplt(DMA_HandleTypeDef *hdma);
 140:d:/LiteOS_Lab/drivers/third_party/ST/STM32L4xx_HAL_Driver/Src\stm32l4xx_hal_uart.c **** static void UART_DMARxHalfCplt(DMA_HandleTypeDef *hdma);
 141:d:/LiteOS_Lab/drivers/third_party/ST/STM32L4xx_HAL_Driver/Src\stm32l4xx_hal_uart.c **** static void UART_DMATxHalfCplt(DMA_HandleTypeDef *hdma);
 142:d:/LiteOS_Lab/drivers/third_party/ST/STM32L4xx_HAL_Driver/Src\stm32l4xx_hal_uart.c **** static void UART_DMAError(DMA_HandleTypeDef *hdma);
 143:d:/LiteOS_Lab/drivers/third_party/ST/STM32L4xx_HAL_Driver/Src\stm32l4xx_hal_uart.c **** static void UART_DMAAbortOnError(DMA_HandleTypeDef *hdma);
 144:d:/LiteOS_Lab/drivers/third_party/ST/STM32L4xx_HAL_Driver/Src\stm32l4xx_hal_uart.c **** static void UART_DMATxAbortCallback(DMA_HandleTypeDef *hdma);
ARM GAS  C:\Users\ADMINI~1\AppData\Local\Temp\ccHDbRvY.s 			page 4


 145:d:/LiteOS_Lab/drivers/third_party/ST/STM32L4xx_HAL_Driver/Src\stm32l4xx_hal_uart.c **** static void UART_DMARxAbortCallback(DMA_HandleTypeDef *hdma);
 146:d:/LiteOS_Lab/drivers/third_party/ST/STM32L4xx_HAL_Driver/Src\stm32l4xx_hal_uart.c **** static void UART_DMATxOnlyAbortCallback(DMA_HandleTypeDef *hdma);
 147:d:/LiteOS_Lab/drivers/third_party/ST/STM32L4xx_HAL_Driver/Src\stm32l4xx_hal_uart.c **** static void UART_DMARxOnlyAbortCallback(DMA_HandleTypeDef *hdma);
 148:d:/LiteOS_Lab/drivers/third_party/ST/STM32L4xx_HAL_Driver/Src\stm32l4xx_hal_uart.c **** HAL_StatusTypeDef UART_Transmit_IT(UART_HandleTypeDef *huart);
 149:d:/LiteOS_Lab/drivers/third_party/ST/STM32L4xx_HAL_Driver/Src\stm32l4xx_hal_uart.c **** HAL_StatusTypeDef UART_EndTransmit_IT(UART_HandleTypeDef *huart);
 150:d:/LiteOS_Lab/drivers/third_party/ST/STM32L4xx_HAL_Driver/Src\stm32l4xx_hal_uart.c **** static HAL_StatusTypeDef UART_Receive_IT(UART_HandleTypeDef *huart);
 151:d:/LiteOS_Lab/drivers/third_party/ST/STM32L4xx_HAL_Driver/Src\stm32l4xx_hal_uart.c **** /**
 152:d:/LiteOS_Lab/drivers/third_party/ST/STM32L4xx_HAL_Driver/Src\stm32l4xx_hal_uart.c ****   * @}
 153:d:/LiteOS_Lab/drivers/third_party/ST/STM32L4xx_HAL_Driver/Src\stm32l4xx_hal_uart.c ****   */
 154:d:/LiteOS_Lab/drivers/third_party/ST/STM32L4xx_HAL_Driver/Src\stm32l4xx_hal_uart.c **** 
 155:d:/LiteOS_Lab/drivers/third_party/ST/STM32L4xx_HAL_Driver/Src\stm32l4xx_hal_uart.c **** /* Exported functions --------------------------------------------------------*/
 156:d:/LiteOS_Lab/drivers/third_party/ST/STM32L4xx_HAL_Driver/Src\stm32l4xx_hal_uart.c **** 
 157:d:/LiteOS_Lab/drivers/third_party/ST/STM32L4xx_HAL_Driver/Src\stm32l4xx_hal_uart.c **** /** @defgroup UART_Exported_Functions UART Exported Functions
 158:d:/LiteOS_Lab/drivers/third_party/ST/STM32L4xx_HAL_Driver/Src\stm32l4xx_hal_uart.c ****   * @{
 159:d:/LiteOS_Lab/drivers/third_party/ST/STM32L4xx_HAL_Driver/Src\stm32l4xx_hal_uart.c ****   */
 160:d:/LiteOS_Lab/drivers/third_party/ST/STM32L4xx_HAL_Driver/Src\stm32l4xx_hal_uart.c **** 
 161:d:/LiteOS_Lab/drivers/third_party/ST/STM32L4xx_HAL_Driver/Src\stm32l4xx_hal_uart.c **** /** @defgroup UART_Exported_Functions_Group1 Initialization and de-initialization functions
 162:d:/LiteOS_Lab/drivers/third_party/ST/STM32L4xx_HAL_Driver/Src\stm32l4xx_hal_uart.c ****   *  @brief    Initialization and Configuration functions
 163:d:/LiteOS_Lab/drivers/third_party/ST/STM32L4xx_HAL_Driver/Src\stm32l4xx_hal_uart.c ****   *
 164:d:/LiteOS_Lab/drivers/third_party/ST/STM32L4xx_HAL_Driver/Src\stm32l4xx_hal_uart.c **** @verbatim
 165:d:/LiteOS_Lab/drivers/third_party/ST/STM32L4xx_HAL_Driver/Src\stm32l4xx_hal_uart.c **** ===============================================================================
 166:d:/LiteOS_Lab/drivers/third_party/ST/STM32L4xx_HAL_Driver/Src\stm32l4xx_hal_uart.c ****             ##### Initialization and Configuration functions #####
 167:d:/LiteOS_Lab/drivers/third_party/ST/STM32L4xx_HAL_Driver/Src\stm32l4xx_hal_uart.c ****  ===============================================================================
 168:d:/LiteOS_Lab/drivers/third_party/ST/STM32L4xx_HAL_Driver/Src\stm32l4xx_hal_uart.c ****     [..]
 169:d:/LiteOS_Lab/drivers/third_party/ST/STM32L4xx_HAL_Driver/Src\stm32l4xx_hal_uart.c ****     This subsection provides a set of functions allowing to initialize the USARTx or the UARTy
 170:d:/LiteOS_Lab/drivers/third_party/ST/STM32L4xx_HAL_Driver/Src\stm32l4xx_hal_uart.c ****     in asynchronous mode.
 171:d:/LiteOS_Lab/drivers/third_party/ST/STM32L4xx_HAL_Driver/Src\stm32l4xx_hal_uart.c ****       (+) For the asynchronous mode the parameters below can be configured:
 172:d:/LiteOS_Lab/drivers/third_party/ST/STM32L4xx_HAL_Driver/Src\stm32l4xx_hal_uart.c ****         (++) Baud Rate
 173:d:/LiteOS_Lab/drivers/third_party/ST/STM32L4xx_HAL_Driver/Src\stm32l4xx_hal_uart.c ****         (++) Word Length
 174:d:/LiteOS_Lab/drivers/third_party/ST/STM32L4xx_HAL_Driver/Src\stm32l4xx_hal_uart.c ****         (++) Stop Bit
 175:d:/LiteOS_Lab/drivers/third_party/ST/STM32L4xx_HAL_Driver/Src\stm32l4xx_hal_uart.c ****         (++) Parity: If the parity is enabled, then the MSB bit of the data written
 176:d:/LiteOS_Lab/drivers/third_party/ST/STM32L4xx_HAL_Driver/Src\stm32l4xx_hal_uart.c ****              in the data register is transmitted but is changed by the parity bit.
 177:d:/LiteOS_Lab/drivers/third_party/ST/STM32L4xx_HAL_Driver/Src\stm32l4xx_hal_uart.c ****         (++) Hardware flow control
 178:d:/LiteOS_Lab/drivers/third_party/ST/STM32L4xx_HAL_Driver/Src\stm32l4xx_hal_uart.c ****         (++) Receiver/transmitter modes
 179:d:/LiteOS_Lab/drivers/third_party/ST/STM32L4xx_HAL_Driver/Src\stm32l4xx_hal_uart.c ****         (++) Over Sampling Method
 180:d:/LiteOS_Lab/drivers/third_party/ST/STM32L4xx_HAL_Driver/Src\stm32l4xx_hal_uart.c ****         (++) One-Bit Sampling Method
 181:d:/LiteOS_Lab/drivers/third_party/ST/STM32L4xx_HAL_Driver/Src\stm32l4xx_hal_uart.c ****       (+) For the asynchronous mode, the following advanced features can be configured as well:
 182:d:/LiteOS_Lab/drivers/third_party/ST/STM32L4xx_HAL_Driver/Src\stm32l4xx_hal_uart.c ****         (++) TX and/or RX pin level inversion
 183:d:/LiteOS_Lab/drivers/third_party/ST/STM32L4xx_HAL_Driver/Src\stm32l4xx_hal_uart.c ****         (++) data logical level inversion
 184:d:/LiteOS_Lab/drivers/third_party/ST/STM32L4xx_HAL_Driver/Src\stm32l4xx_hal_uart.c ****         (++) RX and TX pins swap
 185:d:/LiteOS_Lab/drivers/third_party/ST/STM32L4xx_HAL_Driver/Src\stm32l4xx_hal_uart.c ****         (++) RX overrun detection disabling
 186:d:/LiteOS_Lab/drivers/third_party/ST/STM32L4xx_HAL_Driver/Src\stm32l4xx_hal_uart.c ****         (++) DMA disabling on RX error
 187:d:/LiteOS_Lab/drivers/third_party/ST/STM32L4xx_HAL_Driver/Src\stm32l4xx_hal_uart.c ****         (++) MSB first on communication line
 188:d:/LiteOS_Lab/drivers/third_party/ST/STM32L4xx_HAL_Driver/Src\stm32l4xx_hal_uart.c ****         (++) auto Baud rate detection
 189:d:/LiteOS_Lab/drivers/third_party/ST/STM32L4xx_HAL_Driver/Src\stm32l4xx_hal_uart.c ****     [..]
 190:d:/LiteOS_Lab/drivers/third_party/ST/STM32L4xx_HAL_Driver/Src\stm32l4xx_hal_uart.c ****     The HAL_UART_Init(), HAL_HalfDuplex_Init(), HAL_LIN_Init()and HAL_MultiProcessor_Init()API
 191:d:/LiteOS_Lab/drivers/third_party/ST/STM32L4xx_HAL_Driver/Src\stm32l4xx_hal_uart.c ****     follow respectively the UART asynchronous, UART Half duplex, UART LIN mode
 192:d:/LiteOS_Lab/drivers/third_party/ST/STM32L4xx_HAL_Driver/Src\stm32l4xx_hal_uart.c ****     and UART multiprocessor mode configuration procedures (details for the procedures
 193:d:/LiteOS_Lab/drivers/third_party/ST/STM32L4xx_HAL_Driver/Src\stm32l4xx_hal_uart.c ****     are available in reference manual).
 194:d:/LiteOS_Lab/drivers/third_party/ST/STM32L4xx_HAL_Driver/Src\stm32l4xx_hal_uart.c **** 
 195:d:/LiteOS_Lab/drivers/third_party/ST/STM32L4xx_HAL_Driver/Src\stm32l4xx_hal_uart.c **** @endverbatim
 196:d:/LiteOS_Lab/drivers/third_party/ST/STM32L4xx_HAL_Driver/Src\stm32l4xx_hal_uart.c **** 
 197:d:/LiteOS_Lab/drivers/third_party/ST/STM32L4xx_HAL_Driver/Src\stm32l4xx_hal_uart.c ****   Depending on the frame length defined by the M1 and M0 bits (7-bit, 
 198:d:/LiteOS_Lab/drivers/third_party/ST/STM32L4xx_HAL_Driver/Src\stm32l4xx_hal_uart.c ****   8-bit or 9-bit), the possible UART formats are listed in the 
 199:d:/LiteOS_Lab/drivers/third_party/ST/STM32L4xx_HAL_Driver/Src\stm32l4xx_hal_uart.c ****   following table.
 200:d:/LiteOS_Lab/drivers/third_party/ST/STM32L4xx_HAL_Driver/Src\stm32l4xx_hal_uart.c ****   
 201:d:/LiteOS_Lab/drivers/third_party/ST/STM32L4xx_HAL_Driver/Src\stm32l4xx_hal_uart.c ****   Table 1. UART frame format.
ARM GAS  C:\Users\ADMINI~1\AppData\Local\Temp\ccHDbRvY.s 			page 5


 202:d:/LiteOS_Lab/drivers/third_party/ST/STM32L4xx_HAL_Driver/Src\stm32l4xx_hal_uart.c ****     +-----------------------------------------------------------------------+
 203:d:/LiteOS_Lab/drivers/third_party/ST/STM32L4xx_HAL_Driver/Src\stm32l4xx_hal_uart.c ****     |  M1 bit |  M0 bit |  PCE bit  |             UART frame                |
 204:d:/LiteOS_Lab/drivers/third_party/ST/STM32L4xx_HAL_Driver/Src\stm32l4xx_hal_uart.c ****     |---------|---------|-----------|---------------------------------------|
 205:d:/LiteOS_Lab/drivers/third_party/ST/STM32L4xx_HAL_Driver/Src\stm32l4xx_hal_uart.c ****     |    0    |    0    |    0      |    | SB |    8 bit data   | STB |     |
 206:d:/LiteOS_Lab/drivers/third_party/ST/STM32L4xx_HAL_Driver/Src\stm32l4xx_hal_uart.c ****     |---------|---------|-----------|---------------------------------------|
 207:d:/LiteOS_Lab/drivers/third_party/ST/STM32L4xx_HAL_Driver/Src\stm32l4xx_hal_uart.c ****     |    0    |    0    |    1      |    | SB | 7 bit data | PB | STB |     |
 208:d:/LiteOS_Lab/drivers/third_party/ST/STM32L4xx_HAL_Driver/Src\stm32l4xx_hal_uart.c ****     |---------|---------|-----------|---------------------------------------|
 209:d:/LiteOS_Lab/drivers/third_party/ST/STM32L4xx_HAL_Driver/Src\stm32l4xx_hal_uart.c ****     |    0    |    1    |    0      |    | SB |    9 bit data   | STB |     |
 210:d:/LiteOS_Lab/drivers/third_party/ST/STM32L4xx_HAL_Driver/Src\stm32l4xx_hal_uart.c ****     |---------|---------|-----------|---------------------------------------|
 211:d:/LiteOS_Lab/drivers/third_party/ST/STM32L4xx_HAL_Driver/Src\stm32l4xx_hal_uart.c ****     |    0    |    1    |    1      |    | SB | 8 bit data | PB | STB |     |
 212:d:/LiteOS_Lab/drivers/third_party/ST/STM32L4xx_HAL_Driver/Src\stm32l4xx_hal_uart.c ****     |---------|---------|-----------|---------------------------------------|
 213:d:/LiteOS_Lab/drivers/third_party/ST/STM32L4xx_HAL_Driver/Src\stm32l4xx_hal_uart.c ****     |    1    |    0    |    0      |    | SB |    7 bit data   | STB |     |
 214:d:/LiteOS_Lab/drivers/third_party/ST/STM32L4xx_HAL_Driver/Src\stm32l4xx_hal_uart.c ****     |---------|---------|-----------|---------------------------------------|
 215:d:/LiteOS_Lab/drivers/third_party/ST/STM32L4xx_HAL_Driver/Src\stm32l4xx_hal_uart.c ****     |    1    |    0    |    1      |    | SB | 6 bit data | PB | STB |     |
 216:d:/LiteOS_Lab/drivers/third_party/ST/STM32L4xx_HAL_Driver/Src\stm32l4xx_hal_uart.c ****     +-----------------------------------------------------------------------+
 217:d:/LiteOS_Lab/drivers/third_party/ST/STM32L4xx_HAL_Driver/Src\stm32l4xx_hal_uart.c **** 
 218:d:/LiteOS_Lab/drivers/third_party/ST/STM32L4xx_HAL_Driver/Src\stm32l4xx_hal_uart.c ****   * @{
 219:d:/LiteOS_Lab/drivers/third_party/ST/STM32L4xx_HAL_Driver/Src\stm32l4xx_hal_uart.c ****   */
 220:d:/LiteOS_Lab/drivers/third_party/ST/STM32L4xx_HAL_Driver/Src\stm32l4xx_hal_uart.c **** 
 221:d:/LiteOS_Lab/drivers/third_party/ST/STM32L4xx_HAL_Driver/Src\stm32l4xx_hal_uart.c **** /**
 222:d:/LiteOS_Lab/drivers/third_party/ST/STM32L4xx_HAL_Driver/Src\stm32l4xx_hal_uart.c ****   * @brief Initialize the UART mode according to the specified
 223:d:/LiteOS_Lab/drivers/third_party/ST/STM32L4xx_HAL_Driver/Src\stm32l4xx_hal_uart.c ****   *        parameters in the UART_InitTypeDef and initialize the associated handle.
 224:d:/LiteOS_Lab/drivers/third_party/ST/STM32L4xx_HAL_Driver/Src\stm32l4xx_hal_uart.c ****   * @param huart: UART handle.
 225:d:/LiteOS_Lab/drivers/third_party/ST/STM32L4xx_HAL_Driver/Src\stm32l4xx_hal_uart.c ****   * @retval HAL status
 226:d:/LiteOS_Lab/drivers/third_party/ST/STM32L4xx_HAL_Driver/Src\stm32l4xx_hal_uart.c ****   */
 227:d:/LiteOS_Lab/drivers/third_party/ST/STM32L4xx_HAL_Driver/Src\stm32l4xx_hal_uart.c **** HAL_StatusTypeDef HAL_UART_Init(UART_HandleTypeDef *huart)
 228:d:/LiteOS_Lab/drivers/third_party/ST/STM32L4xx_HAL_Driver/Src\stm32l4xx_hal_uart.c **** {
  29              		.loc 1 228 1
  30              		.cfi_startproc
  31              		@ args = 0, pretend = 0, frame = 8
  32              		@ frame_needed = 1, uses_anonymous_args = 0
  33 0000 80B5     		push	{r7, lr}
  34              	.LCFI0:
  35              		.cfi_def_cfa_offset 8
  36              		.cfi_offset 7, -8
  37              		.cfi_offset 14, -4
  38 0002 82B0     		sub	sp, sp, #8
  39              	.LCFI1:
  40              		.cfi_def_cfa_offset 16
  41 0004 00AF     		add	r7, sp, #0
  42              	.LCFI2:
  43              		.cfi_def_cfa_register 7
  44 0006 7860     		str	r0, [r7, #4]
 229:d:/LiteOS_Lab/drivers/third_party/ST/STM32L4xx_HAL_Driver/Src\stm32l4xx_hal_uart.c ****   /* Check the UART handle allocation */
 230:d:/LiteOS_Lab/drivers/third_party/ST/STM32L4xx_HAL_Driver/Src\stm32l4xx_hal_uart.c ****   if(huart == NULL)
  45              		.loc 1 230 5
  46 0008 7B68     		ldr	r3, [r7, #4]
  47 000a 002B     		cmp	r3, #0
  48 000c 01D1     		bne	.L2
 231:d:/LiteOS_Lab/drivers/third_party/ST/STM32L4xx_HAL_Driver/Src\stm32l4xx_hal_uart.c ****   {
 232:d:/LiteOS_Lab/drivers/third_party/ST/STM32L4xx_HAL_Driver/Src\stm32l4xx_hal_uart.c ****     return HAL_ERROR;
  49              		.loc 1 232 12
  50 000e 0123     		movs	r3, #1
  51 0010 43E0     		b	.L3
  52              	.L2:
 233:d:/LiteOS_Lab/drivers/third_party/ST/STM32L4xx_HAL_Driver/Src\stm32l4xx_hal_uart.c ****   }
 234:d:/LiteOS_Lab/drivers/third_party/ST/STM32L4xx_HAL_Driver/Src\stm32l4xx_hal_uart.c **** 
ARM GAS  C:\Users\ADMINI~1\AppData\Local\Temp\ccHDbRvY.s 			page 6


 235:d:/LiteOS_Lab/drivers/third_party/ST/STM32L4xx_HAL_Driver/Src\stm32l4xx_hal_uart.c ****   if(huart->Init.HwFlowCtl != UART_HWCONTROL_NONE)
 236:d:/LiteOS_Lab/drivers/third_party/ST/STM32L4xx_HAL_Driver/Src\stm32l4xx_hal_uart.c ****   {
 237:d:/LiteOS_Lab/drivers/third_party/ST/STM32L4xx_HAL_Driver/Src\stm32l4xx_hal_uart.c ****     /* Check the parameters */
 238:d:/LiteOS_Lab/drivers/third_party/ST/STM32L4xx_HAL_Driver/Src\stm32l4xx_hal_uart.c ****     assert_param(IS_UART_HWFLOW_INSTANCE(huart->Instance));
 239:d:/LiteOS_Lab/drivers/third_party/ST/STM32L4xx_HAL_Driver/Src\stm32l4xx_hal_uart.c ****   }
 240:d:/LiteOS_Lab/drivers/third_party/ST/STM32L4xx_HAL_Driver/Src\stm32l4xx_hal_uart.c ****   else
 241:d:/LiteOS_Lab/drivers/third_party/ST/STM32L4xx_HAL_Driver/Src\stm32l4xx_hal_uart.c ****   {
 242:d:/LiteOS_Lab/drivers/third_party/ST/STM32L4xx_HAL_Driver/Src\stm32l4xx_hal_uart.c ****     /* Check the parameters */
 243:d:/LiteOS_Lab/drivers/third_party/ST/STM32L4xx_HAL_Driver/Src\stm32l4xx_hal_uart.c ****     assert_param((IS_UART_INSTANCE(huart->Instance)) || (IS_LPUART_INSTANCE(huart->Instance)));
 244:d:/LiteOS_Lab/drivers/third_party/ST/STM32L4xx_HAL_Driver/Src\stm32l4xx_hal_uart.c ****   }
 245:d:/LiteOS_Lab/drivers/third_party/ST/STM32L4xx_HAL_Driver/Src\stm32l4xx_hal_uart.c **** 
 246:d:/LiteOS_Lab/drivers/third_party/ST/STM32L4xx_HAL_Driver/Src\stm32l4xx_hal_uart.c ****   if(huart->gState == HAL_UART_STATE_RESET)
  53              		.loc 1 246 11
  54 0012 7B68     		ldr	r3, [r7, #4]
  55 0014 93F87130 		ldrb	r3, [r3, #113]
  56 0018 DBB2     		uxtb	r3, r3
  57              		.loc 1 246 5
  58 001a 002B     		cmp	r3, #0
  59 001c 06D1     		bne	.L4
 247:d:/LiteOS_Lab/drivers/third_party/ST/STM32L4xx_HAL_Driver/Src\stm32l4xx_hal_uart.c ****   {
 248:d:/LiteOS_Lab/drivers/third_party/ST/STM32L4xx_HAL_Driver/Src\stm32l4xx_hal_uart.c ****     /* Allocate lock resource and initialize it */
 249:d:/LiteOS_Lab/drivers/third_party/ST/STM32L4xx_HAL_Driver/Src\stm32l4xx_hal_uart.c ****     huart->Lock = HAL_UNLOCKED;
  60              		.loc 1 249 17
  61 001e 7B68     		ldr	r3, [r7, #4]
  62 0020 0022     		movs	r2, #0
  63 0022 83F87020 		strb	r2, [r3, #112]
 250:d:/LiteOS_Lab/drivers/third_party/ST/STM32L4xx_HAL_Driver/Src\stm32l4xx_hal_uart.c **** 
 251:d:/LiteOS_Lab/drivers/third_party/ST/STM32L4xx_HAL_Driver/Src\stm32l4xx_hal_uart.c ****     /* Init the low level hardware : GPIO, CLOCK */
 252:d:/LiteOS_Lab/drivers/third_party/ST/STM32L4xx_HAL_Driver/Src\stm32l4xx_hal_uart.c ****     HAL_UART_MspInit(huart);
  64              		.loc 1 252 5
  65 0026 7868     		ldr	r0, [r7, #4]
  66 0028 FFF7FEFF 		bl	HAL_UART_MspInit
  67              	.L4:
 253:d:/LiteOS_Lab/drivers/third_party/ST/STM32L4xx_HAL_Driver/Src\stm32l4xx_hal_uart.c ****   }
 254:d:/LiteOS_Lab/drivers/third_party/ST/STM32L4xx_HAL_Driver/Src\stm32l4xx_hal_uart.c **** 
 255:d:/LiteOS_Lab/drivers/third_party/ST/STM32L4xx_HAL_Driver/Src\stm32l4xx_hal_uart.c ****   huart->gState = HAL_UART_STATE_BUSY;
  68              		.loc 1 255 17
  69 002c 7B68     		ldr	r3, [r7, #4]
  70 002e 2422     		movs	r2, #36
  71 0030 83F87120 		strb	r2, [r3, #113]
 256:d:/LiteOS_Lab/drivers/third_party/ST/STM32L4xx_HAL_Driver/Src\stm32l4xx_hal_uart.c **** 
 257:d:/LiteOS_Lab/drivers/third_party/ST/STM32L4xx_HAL_Driver/Src\stm32l4xx_hal_uart.c ****   /* Disable the Peripheral */
 258:d:/LiteOS_Lab/drivers/third_party/ST/STM32L4xx_HAL_Driver/Src\stm32l4xx_hal_uart.c ****   __HAL_UART_DISABLE(huart);
  72              		.loc 1 258 3
  73 0034 7B68     		ldr	r3, [r7, #4]
  74 0036 1B68     		ldr	r3, [r3]
  75 0038 1A68     		ldr	r2, [r3]
  76 003a 7B68     		ldr	r3, [r7, #4]
  77 003c 1B68     		ldr	r3, [r3]
  78 003e 22F00102 		bic	r2, r2, #1
  79 0042 1A60     		str	r2, [r3]
 259:d:/LiteOS_Lab/drivers/third_party/ST/STM32L4xx_HAL_Driver/Src\stm32l4xx_hal_uart.c **** 
 260:d:/LiteOS_Lab/drivers/third_party/ST/STM32L4xx_HAL_Driver/Src\stm32l4xx_hal_uart.c ****   /* Set the UART Communication parameters */
 261:d:/LiteOS_Lab/drivers/third_party/ST/STM32L4xx_HAL_Driver/Src\stm32l4xx_hal_uart.c ****   if (UART_SetConfig(huart) == HAL_ERROR)
  80              		.loc 1 261 7
  81 0044 7868     		ldr	r0, [r7, #4]
  82 0046 FFF7FEFF 		bl	UART_SetConfig
ARM GAS  C:\Users\ADMINI~1\AppData\Local\Temp\ccHDbRvY.s 			page 7


  83 004a 0346     		mov	r3, r0
  84              		.loc 1 261 6
  85 004c 012B     		cmp	r3, #1
  86 004e 01D1     		bne	.L5
 262:d:/LiteOS_Lab/drivers/third_party/ST/STM32L4xx_HAL_Driver/Src\stm32l4xx_hal_uart.c ****   {
 263:d:/LiteOS_Lab/drivers/third_party/ST/STM32L4xx_HAL_Driver/Src\stm32l4xx_hal_uart.c ****     return HAL_ERROR;
  87              		.loc 1 263 12
  88 0050 0123     		movs	r3, #1
  89 0052 22E0     		b	.L3
  90              	.L5:
 264:d:/LiteOS_Lab/drivers/third_party/ST/STM32L4xx_HAL_Driver/Src\stm32l4xx_hal_uart.c ****   }
 265:d:/LiteOS_Lab/drivers/third_party/ST/STM32L4xx_HAL_Driver/Src\stm32l4xx_hal_uart.c **** 
 266:d:/LiteOS_Lab/drivers/third_party/ST/STM32L4xx_HAL_Driver/Src\stm32l4xx_hal_uart.c ****   if (huart->AdvancedInit.AdvFeatureInit != UART_ADVFEATURE_NO_INIT)
  91              		.loc 1 266 26
  92 0054 7B68     		ldr	r3, [r7, #4]
  93 0056 5B6A     		ldr	r3, [r3, #36]
  94              		.loc 1 266 6
  95 0058 002B     		cmp	r3, #0
  96 005a 02D0     		beq	.L6
 267:d:/LiteOS_Lab/drivers/third_party/ST/STM32L4xx_HAL_Driver/Src\stm32l4xx_hal_uart.c ****   {
 268:d:/LiteOS_Lab/drivers/third_party/ST/STM32L4xx_HAL_Driver/Src\stm32l4xx_hal_uart.c ****     UART_AdvFeatureConfig(huart);
  97              		.loc 1 268 5
  98 005c 7868     		ldr	r0, [r7, #4]
  99 005e FFF7FEFF 		bl	UART_AdvFeatureConfig
 100              	.L6:
 269:d:/LiteOS_Lab/drivers/third_party/ST/STM32L4xx_HAL_Driver/Src\stm32l4xx_hal_uart.c ****   }
 270:d:/LiteOS_Lab/drivers/third_party/ST/STM32L4xx_HAL_Driver/Src\stm32l4xx_hal_uart.c **** 
 271:d:/LiteOS_Lab/drivers/third_party/ST/STM32L4xx_HAL_Driver/Src\stm32l4xx_hal_uart.c ****   /* In asynchronous mode, the following bits must be kept cleared:
 272:d:/LiteOS_Lab/drivers/third_party/ST/STM32L4xx_HAL_Driver/Src\stm32l4xx_hal_uart.c ****   - LINEN and CLKEN bits in the USART_CR2 register,
 273:d:/LiteOS_Lab/drivers/third_party/ST/STM32L4xx_HAL_Driver/Src\stm32l4xx_hal_uart.c ****   - SCEN, HDSEL and IREN  bits in the USART_CR3 register.*/
 274:d:/LiteOS_Lab/drivers/third_party/ST/STM32L4xx_HAL_Driver/Src\stm32l4xx_hal_uart.c ****   CLEAR_BIT(huart->Instance->CR2, (USART_CR2_LINEN | USART_CR2_CLKEN));
 101              		.loc 1 274 3
 102 0062 7B68     		ldr	r3, [r7, #4]
 103 0064 1B68     		ldr	r3, [r3]
 104 0066 5A68     		ldr	r2, [r3, #4]
 105 0068 7B68     		ldr	r3, [r7, #4]
 106 006a 1B68     		ldr	r3, [r3]
 107 006c 22F49042 		bic	r2, r2, #18432
 108 0070 5A60     		str	r2, [r3, #4]
 275:d:/LiteOS_Lab/drivers/third_party/ST/STM32L4xx_HAL_Driver/Src\stm32l4xx_hal_uart.c ****   CLEAR_BIT(huart->Instance->CR3, (USART_CR3_SCEN | USART_CR3_HDSEL | USART_CR3_IREN));
 109              		.loc 1 275 3
 110 0072 7B68     		ldr	r3, [r7, #4]
 111 0074 1B68     		ldr	r3, [r3]
 112 0076 9A68     		ldr	r2, [r3, #8]
 113 0078 7B68     		ldr	r3, [r7, #4]
 114 007a 1B68     		ldr	r3, [r3]
 115 007c 22F02A02 		bic	r2, r2, #42
 116 0080 9A60     		str	r2, [r3, #8]
 276:d:/LiteOS_Lab/drivers/third_party/ST/STM32L4xx_HAL_Driver/Src\stm32l4xx_hal_uart.c **** 
 277:d:/LiteOS_Lab/drivers/third_party/ST/STM32L4xx_HAL_Driver/Src\stm32l4xx_hal_uart.c ****   /* Enable the Peripheral */
 278:d:/LiteOS_Lab/drivers/third_party/ST/STM32L4xx_HAL_Driver/Src\stm32l4xx_hal_uart.c ****   __HAL_UART_ENABLE(huart);
 117              		.loc 1 278 3
 118 0082 7B68     		ldr	r3, [r7, #4]
 119 0084 1B68     		ldr	r3, [r3]
 120 0086 1A68     		ldr	r2, [r3]
 121 0088 7B68     		ldr	r3, [r7, #4]
 122 008a 1B68     		ldr	r3, [r3]
ARM GAS  C:\Users\ADMINI~1\AppData\Local\Temp\ccHDbRvY.s 			page 8


 123 008c 42F00102 		orr	r2, r2, #1
 124 0090 1A60     		str	r2, [r3]
 279:d:/LiteOS_Lab/drivers/third_party/ST/STM32L4xx_HAL_Driver/Src\stm32l4xx_hal_uart.c **** 
 280:d:/LiteOS_Lab/drivers/third_party/ST/STM32L4xx_HAL_Driver/Src\stm32l4xx_hal_uart.c ****   /* TEACK and/or REACK to check before moving huart->gState and huart->RxState to Ready */
 281:d:/LiteOS_Lab/drivers/third_party/ST/STM32L4xx_HAL_Driver/Src\stm32l4xx_hal_uart.c ****   return (UART_CheckIdleState(huart));
 125              		.loc 1 281 11
 126 0092 7868     		ldr	r0, [r7, #4]
 127 0094 FFF7FEFF 		bl	UART_CheckIdleState
 128 0098 0346     		mov	r3, r0
 129              	.L3:
 282:d:/LiteOS_Lab/drivers/third_party/ST/STM32L4xx_HAL_Driver/Src\stm32l4xx_hal_uart.c **** }
 130              		.loc 1 282 1
 131 009a 1846     		mov	r0, r3
 132 009c 0837     		adds	r7, r7, #8
 133              	.LCFI3:
 134              		.cfi_def_cfa_offset 8
 135 009e BD46     		mov	sp, r7
 136              	.LCFI4:
 137              		.cfi_def_cfa_register 13
 138              		@ sp needed
 139 00a0 80BD     		pop	{r7, pc}
 140              		.cfi_endproc
 141              	.LFE287:
 143              		.section	.text.HAL_HalfDuplex_Init,"ax",%progbits
 144              		.align	1
 145              		.global	HAL_HalfDuplex_Init
 146              		.syntax unified
 147              		.thumb
 148              		.thumb_func
 149              		.fpu fpv4-sp-d16
 151              	HAL_HalfDuplex_Init:
 152              	.LFB288:
 283:d:/LiteOS_Lab/drivers/third_party/ST/STM32L4xx_HAL_Driver/Src\stm32l4xx_hal_uart.c **** 
 284:d:/LiteOS_Lab/drivers/third_party/ST/STM32L4xx_HAL_Driver/Src\stm32l4xx_hal_uart.c **** /**
 285:d:/LiteOS_Lab/drivers/third_party/ST/STM32L4xx_HAL_Driver/Src\stm32l4xx_hal_uart.c ****   * @brief Initialize the half-duplex mode according to the specified
 286:d:/LiteOS_Lab/drivers/third_party/ST/STM32L4xx_HAL_Driver/Src\stm32l4xx_hal_uart.c ****   *        parameters in the UART_InitTypeDef and creates the associated handle.
 287:d:/LiteOS_Lab/drivers/third_party/ST/STM32L4xx_HAL_Driver/Src\stm32l4xx_hal_uart.c ****   * @param huart: UART handle.
 288:d:/LiteOS_Lab/drivers/third_party/ST/STM32L4xx_HAL_Driver/Src\stm32l4xx_hal_uart.c ****   * @retval HAL status
 289:d:/LiteOS_Lab/drivers/third_party/ST/STM32L4xx_HAL_Driver/Src\stm32l4xx_hal_uart.c ****   */
 290:d:/LiteOS_Lab/drivers/third_party/ST/STM32L4xx_HAL_Driver/Src\stm32l4xx_hal_uart.c **** HAL_StatusTypeDef HAL_HalfDuplex_Init(UART_HandleTypeDef *huart)
 291:d:/LiteOS_Lab/drivers/third_party/ST/STM32L4xx_HAL_Driver/Src\stm32l4xx_hal_uart.c **** {
 153              		.loc 1 291 1
 154              		.cfi_startproc
 155              		@ args = 0, pretend = 0, frame = 8
 156              		@ frame_needed = 1, uses_anonymous_args = 0
 157 0000 80B5     		push	{r7, lr}
 158              	.LCFI5:
 159              		.cfi_def_cfa_offset 8
 160              		.cfi_offset 7, -8
 161              		.cfi_offset 14, -4
 162 0002 82B0     		sub	sp, sp, #8
 163              	.LCFI6:
 164              		.cfi_def_cfa_offset 16
 165 0004 00AF     		add	r7, sp, #0
 166              	.LCFI7:
 167              		.cfi_def_cfa_register 7
 168 0006 7860     		str	r0, [r7, #4]
ARM GAS  C:\Users\ADMINI~1\AppData\Local\Temp\ccHDbRvY.s 			page 9


 292:d:/LiteOS_Lab/drivers/third_party/ST/STM32L4xx_HAL_Driver/Src\stm32l4xx_hal_uart.c ****   /* Check the UART handle allocation */
 293:d:/LiteOS_Lab/drivers/third_party/ST/STM32L4xx_HAL_Driver/Src\stm32l4xx_hal_uart.c ****   if(huart == NULL)
 169              		.loc 1 293 5
 170 0008 7B68     		ldr	r3, [r7, #4]
 171 000a 002B     		cmp	r3, #0
 172 000c 01D1     		bne	.L8
 294:d:/LiteOS_Lab/drivers/third_party/ST/STM32L4xx_HAL_Driver/Src\stm32l4xx_hal_uart.c ****   {
 295:d:/LiteOS_Lab/drivers/third_party/ST/STM32L4xx_HAL_Driver/Src\stm32l4xx_hal_uart.c ****     return HAL_ERROR;
 173              		.loc 1 295 12
 174 000e 0123     		movs	r3, #1
 175 0010 4BE0     		b	.L9
 176              	.L8:
 296:d:/LiteOS_Lab/drivers/third_party/ST/STM32L4xx_HAL_Driver/Src\stm32l4xx_hal_uart.c ****   }
 297:d:/LiteOS_Lab/drivers/third_party/ST/STM32L4xx_HAL_Driver/Src\stm32l4xx_hal_uart.c **** 
 298:d:/LiteOS_Lab/drivers/third_party/ST/STM32L4xx_HAL_Driver/Src\stm32l4xx_hal_uart.c ****   /* Check UART instance */
 299:d:/LiteOS_Lab/drivers/third_party/ST/STM32L4xx_HAL_Driver/Src\stm32l4xx_hal_uart.c ****   assert_param(IS_UART_HALFDUPLEX_INSTANCE(huart->Instance));
 300:d:/LiteOS_Lab/drivers/third_party/ST/STM32L4xx_HAL_Driver/Src\stm32l4xx_hal_uart.c **** 
 301:d:/LiteOS_Lab/drivers/third_party/ST/STM32L4xx_HAL_Driver/Src\stm32l4xx_hal_uart.c ****   if(huart->gState == HAL_UART_STATE_RESET)
 177              		.loc 1 301 11
 178 0012 7B68     		ldr	r3, [r7, #4]
 179 0014 93F87130 		ldrb	r3, [r3, #113]
 180 0018 DBB2     		uxtb	r3, r3
 181              		.loc 1 301 5
 182 001a 002B     		cmp	r3, #0
 183 001c 06D1     		bne	.L10
 302:d:/LiteOS_Lab/drivers/third_party/ST/STM32L4xx_HAL_Driver/Src\stm32l4xx_hal_uart.c ****   {
 303:d:/LiteOS_Lab/drivers/third_party/ST/STM32L4xx_HAL_Driver/Src\stm32l4xx_hal_uart.c ****     /* Allocate lock resource and initialize it */
 304:d:/LiteOS_Lab/drivers/third_party/ST/STM32L4xx_HAL_Driver/Src\stm32l4xx_hal_uart.c ****     huart->Lock = HAL_UNLOCKED;
 184              		.loc 1 304 17
 185 001e 7B68     		ldr	r3, [r7, #4]
 186 0020 0022     		movs	r2, #0
 187 0022 83F87020 		strb	r2, [r3, #112]
 305:d:/LiteOS_Lab/drivers/third_party/ST/STM32L4xx_HAL_Driver/Src\stm32l4xx_hal_uart.c **** 
 306:d:/LiteOS_Lab/drivers/third_party/ST/STM32L4xx_HAL_Driver/Src\stm32l4xx_hal_uart.c ****     /* Init the low level hardware : GPIO, CLOCK */
 307:d:/LiteOS_Lab/drivers/third_party/ST/STM32L4xx_HAL_Driver/Src\stm32l4xx_hal_uart.c ****     HAL_UART_MspInit(huart);
 188              		.loc 1 307 5
 189 0026 7868     		ldr	r0, [r7, #4]
 190 0028 FFF7FEFF 		bl	HAL_UART_MspInit
 191              	.L10:
 308:d:/LiteOS_Lab/drivers/third_party/ST/STM32L4xx_HAL_Driver/Src\stm32l4xx_hal_uart.c ****   }
 309:d:/LiteOS_Lab/drivers/third_party/ST/STM32L4xx_HAL_Driver/Src\stm32l4xx_hal_uart.c **** 
 310:d:/LiteOS_Lab/drivers/third_party/ST/STM32L4xx_HAL_Driver/Src\stm32l4xx_hal_uart.c ****   huart->gState = HAL_UART_STATE_BUSY;
 192              		.loc 1 310 17
 193 002c 7B68     		ldr	r3, [r7, #4]
 194 002e 2422     		movs	r2, #36
 195 0030 83F87120 		strb	r2, [r3, #113]
 311:d:/LiteOS_Lab/drivers/third_party/ST/STM32L4xx_HAL_Driver/Src\stm32l4xx_hal_uart.c **** 
 312:d:/LiteOS_Lab/drivers/third_party/ST/STM32L4xx_HAL_Driver/Src\stm32l4xx_hal_uart.c ****   /* Disable the Peripheral */
 313:d:/LiteOS_Lab/drivers/third_party/ST/STM32L4xx_HAL_Driver/Src\stm32l4xx_hal_uart.c ****   __HAL_UART_DISABLE(huart);
 196              		.loc 1 313 3
 197 0034 7B68     		ldr	r3, [r7, #4]
 198 0036 1B68     		ldr	r3, [r3]
 199 0038 1A68     		ldr	r2, [r3]
 200 003a 7B68     		ldr	r3, [r7, #4]
 201 003c 1B68     		ldr	r3, [r3]
 202 003e 22F00102 		bic	r2, r2, #1
 203 0042 1A60     		str	r2, [r3]
ARM GAS  C:\Users\ADMINI~1\AppData\Local\Temp\ccHDbRvY.s 			page 10


 314:d:/LiteOS_Lab/drivers/third_party/ST/STM32L4xx_HAL_Driver/Src\stm32l4xx_hal_uart.c **** 
 315:d:/LiteOS_Lab/drivers/third_party/ST/STM32L4xx_HAL_Driver/Src\stm32l4xx_hal_uart.c ****   /* Set the UART Communication parameters */
 316:d:/LiteOS_Lab/drivers/third_party/ST/STM32L4xx_HAL_Driver/Src\stm32l4xx_hal_uart.c ****   if (UART_SetConfig(huart) == HAL_ERROR)
 204              		.loc 1 316 7
 205 0044 7868     		ldr	r0, [r7, #4]
 206 0046 FFF7FEFF 		bl	UART_SetConfig
 207 004a 0346     		mov	r3, r0
 208              		.loc 1 316 6
 209 004c 012B     		cmp	r3, #1
 210 004e 01D1     		bne	.L11
 317:d:/LiteOS_Lab/drivers/third_party/ST/STM32L4xx_HAL_Driver/Src\stm32l4xx_hal_uart.c ****   {
 318:d:/LiteOS_Lab/drivers/third_party/ST/STM32L4xx_HAL_Driver/Src\stm32l4xx_hal_uart.c ****     return HAL_ERROR;
 211              		.loc 1 318 12
 212 0050 0123     		movs	r3, #1
 213 0052 2AE0     		b	.L9
 214              	.L11:
 319:d:/LiteOS_Lab/drivers/third_party/ST/STM32L4xx_HAL_Driver/Src\stm32l4xx_hal_uart.c ****   }
 320:d:/LiteOS_Lab/drivers/third_party/ST/STM32L4xx_HAL_Driver/Src\stm32l4xx_hal_uart.c **** 
 321:d:/LiteOS_Lab/drivers/third_party/ST/STM32L4xx_HAL_Driver/Src\stm32l4xx_hal_uart.c ****   if (huart->AdvancedInit.AdvFeatureInit != UART_ADVFEATURE_NO_INIT)
 215              		.loc 1 321 26
 216 0054 7B68     		ldr	r3, [r7, #4]
 217 0056 5B6A     		ldr	r3, [r3, #36]
 218              		.loc 1 321 6
 219 0058 002B     		cmp	r3, #0
 220 005a 02D0     		beq	.L12
 322:d:/LiteOS_Lab/drivers/third_party/ST/STM32L4xx_HAL_Driver/Src\stm32l4xx_hal_uart.c ****   {
 323:d:/LiteOS_Lab/drivers/third_party/ST/STM32L4xx_HAL_Driver/Src\stm32l4xx_hal_uart.c ****     UART_AdvFeatureConfig(huart);
 221              		.loc 1 323 5
 222 005c 7868     		ldr	r0, [r7, #4]
 223 005e FFF7FEFF 		bl	UART_AdvFeatureConfig
 224              	.L12:
 324:d:/LiteOS_Lab/drivers/third_party/ST/STM32L4xx_HAL_Driver/Src\stm32l4xx_hal_uart.c ****   }
 325:d:/LiteOS_Lab/drivers/third_party/ST/STM32L4xx_HAL_Driver/Src\stm32l4xx_hal_uart.c **** 
 326:d:/LiteOS_Lab/drivers/third_party/ST/STM32L4xx_HAL_Driver/Src\stm32l4xx_hal_uart.c ****   /* In half-duplex mode, the following bits must be kept cleared:
 327:d:/LiteOS_Lab/drivers/third_party/ST/STM32L4xx_HAL_Driver/Src\stm32l4xx_hal_uart.c ****   - LINEN and CLKEN bits in the USART_CR2 register,
 328:d:/LiteOS_Lab/drivers/third_party/ST/STM32L4xx_HAL_Driver/Src\stm32l4xx_hal_uart.c ****   - SCEN and IREN bits in the USART_CR3 register.*/
 329:d:/LiteOS_Lab/drivers/third_party/ST/STM32L4xx_HAL_Driver/Src\stm32l4xx_hal_uart.c ****   CLEAR_BIT(huart->Instance->CR2, (USART_CR2_LINEN | USART_CR2_CLKEN));
 225              		.loc 1 329 3
 226 0062 7B68     		ldr	r3, [r7, #4]
 227 0064 1B68     		ldr	r3, [r3]
 228 0066 5A68     		ldr	r2, [r3, #4]
 229 0068 7B68     		ldr	r3, [r7, #4]
 230 006a 1B68     		ldr	r3, [r3]
 231 006c 22F49042 		bic	r2, r2, #18432
 232 0070 5A60     		str	r2, [r3, #4]
 330:d:/LiteOS_Lab/drivers/third_party/ST/STM32L4xx_HAL_Driver/Src\stm32l4xx_hal_uart.c ****   CLEAR_BIT(huart->Instance->CR3, (USART_CR3_IREN | USART_CR3_SCEN));
 233              		.loc 1 330 3
 234 0072 7B68     		ldr	r3, [r7, #4]
 235 0074 1B68     		ldr	r3, [r3]
 236 0076 9A68     		ldr	r2, [r3, #8]
 237 0078 7B68     		ldr	r3, [r7, #4]
 238 007a 1B68     		ldr	r3, [r3]
 239 007c 22F02202 		bic	r2, r2, #34
 240 0080 9A60     		str	r2, [r3, #8]
 331:d:/LiteOS_Lab/drivers/third_party/ST/STM32L4xx_HAL_Driver/Src\stm32l4xx_hal_uart.c **** 
 332:d:/LiteOS_Lab/drivers/third_party/ST/STM32L4xx_HAL_Driver/Src\stm32l4xx_hal_uart.c ****   /* Enable the Half-Duplex mode by setting the HDSEL bit in the CR3 register */
 333:d:/LiteOS_Lab/drivers/third_party/ST/STM32L4xx_HAL_Driver/Src\stm32l4xx_hal_uart.c ****   SET_BIT(huart->Instance->CR3, USART_CR3_HDSEL);
ARM GAS  C:\Users\ADMINI~1\AppData\Local\Temp\ccHDbRvY.s 			page 11


 241              		.loc 1 333 3
 242 0082 7B68     		ldr	r3, [r7, #4]
 243 0084 1B68     		ldr	r3, [r3]
 244 0086 9A68     		ldr	r2, [r3, #8]
 245 0088 7B68     		ldr	r3, [r7, #4]
 246 008a 1B68     		ldr	r3, [r3]
 247 008c 42F00802 		orr	r2, r2, #8
 248 0090 9A60     		str	r2, [r3, #8]
 334:d:/LiteOS_Lab/drivers/third_party/ST/STM32L4xx_HAL_Driver/Src\stm32l4xx_hal_uart.c **** 
 335:d:/LiteOS_Lab/drivers/third_party/ST/STM32L4xx_HAL_Driver/Src\stm32l4xx_hal_uart.c ****   /* Enable the Peripheral */
 336:d:/LiteOS_Lab/drivers/third_party/ST/STM32L4xx_HAL_Driver/Src\stm32l4xx_hal_uart.c ****   __HAL_UART_ENABLE(huart);
 249              		.loc 1 336 3
 250 0092 7B68     		ldr	r3, [r7, #4]
 251 0094 1B68     		ldr	r3, [r3]
 252 0096 1A68     		ldr	r2, [r3]
 253 0098 7B68     		ldr	r3, [r7, #4]
 254 009a 1B68     		ldr	r3, [r3]
 255 009c 42F00102 		orr	r2, r2, #1
 256 00a0 1A60     		str	r2, [r3]
 337:d:/LiteOS_Lab/drivers/third_party/ST/STM32L4xx_HAL_Driver/Src\stm32l4xx_hal_uart.c **** 
 338:d:/LiteOS_Lab/drivers/third_party/ST/STM32L4xx_HAL_Driver/Src\stm32l4xx_hal_uart.c ****   /* TEACK and/or REACK to check before moving huart->gState and huart->RxState to Ready */
 339:d:/LiteOS_Lab/drivers/third_party/ST/STM32L4xx_HAL_Driver/Src\stm32l4xx_hal_uart.c ****   return (UART_CheckIdleState(huart));
 257              		.loc 1 339 11
 258 00a2 7868     		ldr	r0, [r7, #4]
 259 00a4 FFF7FEFF 		bl	UART_CheckIdleState
 260 00a8 0346     		mov	r3, r0
 261              	.L9:
 340:d:/LiteOS_Lab/drivers/third_party/ST/STM32L4xx_HAL_Driver/Src\stm32l4xx_hal_uart.c **** }
 262              		.loc 1 340 1
 263 00aa 1846     		mov	r0, r3
 264 00ac 0837     		adds	r7, r7, #8
 265              	.LCFI8:
 266              		.cfi_def_cfa_offset 8
 267 00ae BD46     		mov	sp, r7
 268              	.LCFI9:
 269              		.cfi_def_cfa_register 13
 270              		@ sp needed
 271 00b0 80BD     		pop	{r7, pc}
 272              		.cfi_endproc
 273              	.LFE288:
 275              		.section	.text.HAL_LIN_Init,"ax",%progbits
 276              		.align	1
 277              		.global	HAL_LIN_Init
 278              		.syntax unified
 279              		.thumb
 280              		.thumb_func
 281              		.fpu fpv4-sp-d16
 283              	HAL_LIN_Init:
 284              	.LFB289:
 341:d:/LiteOS_Lab/drivers/third_party/ST/STM32L4xx_HAL_Driver/Src\stm32l4xx_hal_uart.c **** 
 342:d:/LiteOS_Lab/drivers/third_party/ST/STM32L4xx_HAL_Driver/Src\stm32l4xx_hal_uart.c **** 
 343:d:/LiteOS_Lab/drivers/third_party/ST/STM32L4xx_HAL_Driver/Src\stm32l4xx_hal_uart.c **** /**
 344:d:/LiteOS_Lab/drivers/third_party/ST/STM32L4xx_HAL_Driver/Src\stm32l4xx_hal_uart.c ****   * @brief Initialize the LIN mode according to the specified
 345:d:/LiteOS_Lab/drivers/third_party/ST/STM32L4xx_HAL_Driver/Src\stm32l4xx_hal_uart.c ****   *        parameters in the UART_InitTypeDef and creates the associated handle .
 346:d:/LiteOS_Lab/drivers/third_party/ST/STM32L4xx_HAL_Driver/Src\stm32l4xx_hal_uart.c ****   * @param huart: UART handle.
 347:d:/LiteOS_Lab/drivers/third_party/ST/STM32L4xx_HAL_Driver/Src\stm32l4xx_hal_uart.c ****   * @param BreakDetectLength: specifies the LIN break detection length.
 348:d:/LiteOS_Lab/drivers/third_party/ST/STM32L4xx_HAL_Driver/Src\stm32l4xx_hal_uart.c ****   *        This parameter can be one of the following values:
ARM GAS  C:\Users\ADMINI~1\AppData\Local\Temp\ccHDbRvY.s 			page 12


 349:d:/LiteOS_Lab/drivers/third_party/ST/STM32L4xx_HAL_Driver/Src\stm32l4xx_hal_uart.c ****   *          @arg @ref UART_LINBREAKDETECTLENGTH_10B 10-bit break detection
 350:d:/LiteOS_Lab/drivers/third_party/ST/STM32L4xx_HAL_Driver/Src\stm32l4xx_hal_uart.c ****   *          @arg @ref UART_LINBREAKDETECTLENGTH_11B 11-bit break detection
 351:d:/LiteOS_Lab/drivers/third_party/ST/STM32L4xx_HAL_Driver/Src\stm32l4xx_hal_uart.c ****   * @retval HAL status
 352:d:/LiteOS_Lab/drivers/third_party/ST/STM32L4xx_HAL_Driver/Src\stm32l4xx_hal_uart.c ****   */
 353:d:/LiteOS_Lab/drivers/third_party/ST/STM32L4xx_HAL_Driver/Src\stm32l4xx_hal_uart.c **** HAL_StatusTypeDef HAL_LIN_Init(UART_HandleTypeDef *huart, uint32_t BreakDetectLength)
 354:d:/LiteOS_Lab/drivers/third_party/ST/STM32L4xx_HAL_Driver/Src\stm32l4xx_hal_uart.c **** {
 285              		.loc 1 354 1
 286              		.cfi_startproc
 287              		@ args = 0, pretend = 0, frame = 8
 288              		@ frame_needed = 1, uses_anonymous_args = 0
 289 0000 80B5     		push	{r7, lr}
 290              	.LCFI10:
 291              		.cfi_def_cfa_offset 8
 292              		.cfi_offset 7, -8
 293              		.cfi_offset 14, -4
 294 0002 82B0     		sub	sp, sp, #8
 295              	.LCFI11:
 296              		.cfi_def_cfa_offset 16
 297 0004 00AF     		add	r7, sp, #0
 298              	.LCFI12:
 299              		.cfi_def_cfa_register 7
 300 0006 7860     		str	r0, [r7, #4]
 301 0008 3960     		str	r1, [r7]
 355:d:/LiteOS_Lab/drivers/third_party/ST/STM32L4xx_HAL_Driver/Src\stm32l4xx_hal_uart.c ****   /* Check the UART handle allocation */
 356:d:/LiteOS_Lab/drivers/third_party/ST/STM32L4xx_HAL_Driver/Src\stm32l4xx_hal_uart.c ****   if(huart == NULL)
 302              		.loc 1 356 5
 303 000a 7B68     		ldr	r3, [r7, #4]
 304 000c 002B     		cmp	r3, #0
 305 000e 01D1     		bne	.L14
 357:d:/LiteOS_Lab/drivers/third_party/ST/STM32L4xx_HAL_Driver/Src\stm32l4xx_hal_uart.c ****   {
 358:d:/LiteOS_Lab/drivers/third_party/ST/STM32L4xx_HAL_Driver/Src\stm32l4xx_hal_uart.c ****     return HAL_ERROR;
 306              		.loc 1 358 12
 307 0010 0123     		movs	r3, #1
 308 0012 62E0     		b	.L15
 309              	.L14:
 359:d:/LiteOS_Lab/drivers/third_party/ST/STM32L4xx_HAL_Driver/Src\stm32l4xx_hal_uart.c ****   }
 360:d:/LiteOS_Lab/drivers/third_party/ST/STM32L4xx_HAL_Driver/Src\stm32l4xx_hal_uart.c **** 
 361:d:/LiteOS_Lab/drivers/third_party/ST/STM32L4xx_HAL_Driver/Src\stm32l4xx_hal_uart.c ****   /* Check the LIN UART instance */
 362:d:/LiteOS_Lab/drivers/third_party/ST/STM32L4xx_HAL_Driver/Src\stm32l4xx_hal_uart.c ****   assert_param(IS_UART_LIN_INSTANCE(huart->Instance));
 363:d:/LiteOS_Lab/drivers/third_party/ST/STM32L4xx_HAL_Driver/Src\stm32l4xx_hal_uart.c ****   /* Check the Break detection length parameter */
 364:d:/LiteOS_Lab/drivers/third_party/ST/STM32L4xx_HAL_Driver/Src\stm32l4xx_hal_uart.c ****   assert_param(IS_UART_LIN_BREAK_DETECT_LENGTH(BreakDetectLength));
 365:d:/LiteOS_Lab/drivers/third_party/ST/STM32L4xx_HAL_Driver/Src\stm32l4xx_hal_uart.c **** 
 366:d:/LiteOS_Lab/drivers/third_party/ST/STM32L4xx_HAL_Driver/Src\stm32l4xx_hal_uart.c ****   /* LIN mode limited to 16-bit oversampling only */
 367:d:/LiteOS_Lab/drivers/third_party/ST/STM32L4xx_HAL_Driver/Src\stm32l4xx_hal_uart.c ****   if(huart->Init.OverSampling == UART_OVERSAMPLING_8)
 310              		.loc 1 367 17
 311 0014 7B68     		ldr	r3, [r7, #4]
 312 0016 DB69     		ldr	r3, [r3, #28]
 313              		.loc 1 367 5
 314 0018 B3F5004F 		cmp	r3, #32768
 315 001c 01D1     		bne	.L16
 368:d:/LiteOS_Lab/drivers/third_party/ST/STM32L4xx_HAL_Driver/Src\stm32l4xx_hal_uart.c ****   {
 369:d:/LiteOS_Lab/drivers/third_party/ST/STM32L4xx_HAL_Driver/Src\stm32l4xx_hal_uart.c ****     return HAL_ERROR;
 316              		.loc 1 369 12
 317 001e 0123     		movs	r3, #1
 318 0020 5BE0     		b	.L15
 319              	.L16:
 370:d:/LiteOS_Lab/drivers/third_party/ST/STM32L4xx_HAL_Driver/Src\stm32l4xx_hal_uart.c ****   }
ARM GAS  C:\Users\ADMINI~1\AppData\Local\Temp\ccHDbRvY.s 			page 13


 371:d:/LiteOS_Lab/drivers/third_party/ST/STM32L4xx_HAL_Driver/Src\stm32l4xx_hal_uart.c ****   /* LIN mode limited to 8-bit data length */
 372:d:/LiteOS_Lab/drivers/third_party/ST/STM32L4xx_HAL_Driver/Src\stm32l4xx_hal_uart.c ****   if(huart->Init.WordLength != UART_WORDLENGTH_8B)
 320              		.loc 1 372 17
 321 0022 7B68     		ldr	r3, [r7, #4]
 322 0024 9B68     		ldr	r3, [r3, #8]
 323              		.loc 1 372 5
 324 0026 002B     		cmp	r3, #0
 325 0028 01D0     		beq	.L17
 373:d:/LiteOS_Lab/drivers/third_party/ST/STM32L4xx_HAL_Driver/Src\stm32l4xx_hal_uart.c ****   {
 374:d:/LiteOS_Lab/drivers/third_party/ST/STM32L4xx_HAL_Driver/Src\stm32l4xx_hal_uart.c ****     return HAL_ERROR;
 326              		.loc 1 374 12
 327 002a 0123     		movs	r3, #1
 328 002c 55E0     		b	.L15
 329              	.L17:
 375:d:/LiteOS_Lab/drivers/third_party/ST/STM32L4xx_HAL_Driver/Src\stm32l4xx_hal_uart.c ****   }
 376:d:/LiteOS_Lab/drivers/third_party/ST/STM32L4xx_HAL_Driver/Src\stm32l4xx_hal_uart.c **** 
 377:d:/LiteOS_Lab/drivers/third_party/ST/STM32L4xx_HAL_Driver/Src\stm32l4xx_hal_uart.c ****   if(huart->gState == HAL_UART_STATE_RESET)
 330              		.loc 1 377 11
 331 002e 7B68     		ldr	r3, [r7, #4]
 332 0030 93F87130 		ldrb	r3, [r3, #113]
 333 0034 DBB2     		uxtb	r3, r3
 334              		.loc 1 377 5
 335 0036 002B     		cmp	r3, #0
 336 0038 06D1     		bne	.L18
 378:d:/LiteOS_Lab/drivers/third_party/ST/STM32L4xx_HAL_Driver/Src\stm32l4xx_hal_uart.c ****   {
 379:d:/LiteOS_Lab/drivers/third_party/ST/STM32L4xx_HAL_Driver/Src\stm32l4xx_hal_uart.c ****     /* Allocate lock resource and initialize it */
 380:d:/LiteOS_Lab/drivers/third_party/ST/STM32L4xx_HAL_Driver/Src\stm32l4xx_hal_uart.c ****     huart->Lock = HAL_UNLOCKED;
 337              		.loc 1 380 17
 338 003a 7B68     		ldr	r3, [r7, #4]
 339 003c 0022     		movs	r2, #0
 340 003e 83F87020 		strb	r2, [r3, #112]
 381:d:/LiteOS_Lab/drivers/third_party/ST/STM32L4xx_HAL_Driver/Src\stm32l4xx_hal_uart.c **** 
 382:d:/LiteOS_Lab/drivers/third_party/ST/STM32L4xx_HAL_Driver/Src\stm32l4xx_hal_uart.c ****     /* Init the low level hardware : GPIO, CLOCK */
 383:d:/LiteOS_Lab/drivers/third_party/ST/STM32L4xx_HAL_Driver/Src\stm32l4xx_hal_uart.c ****     HAL_UART_MspInit(huart);
 341              		.loc 1 383 5
 342 0042 7868     		ldr	r0, [r7, #4]
 343 0044 FFF7FEFF 		bl	HAL_UART_MspInit
 344              	.L18:
 384:d:/LiteOS_Lab/drivers/third_party/ST/STM32L4xx_HAL_Driver/Src\stm32l4xx_hal_uart.c ****   }
 385:d:/LiteOS_Lab/drivers/third_party/ST/STM32L4xx_HAL_Driver/Src\stm32l4xx_hal_uart.c **** 
 386:d:/LiteOS_Lab/drivers/third_party/ST/STM32L4xx_HAL_Driver/Src\stm32l4xx_hal_uart.c ****   huart->gState = HAL_UART_STATE_BUSY;
 345              		.loc 1 386 17
 346 0048 7B68     		ldr	r3, [r7, #4]
 347 004a 2422     		movs	r2, #36
 348 004c 83F87120 		strb	r2, [r3, #113]
 387:d:/LiteOS_Lab/drivers/third_party/ST/STM32L4xx_HAL_Driver/Src\stm32l4xx_hal_uart.c **** 
 388:d:/LiteOS_Lab/drivers/third_party/ST/STM32L4xx_HAL_Driver/Src\stm32l4xx_hal_uart.c ****   /* Disable the Peripheral */
 389:d:/LiteOS_Lab/drivers/third_party/ST/STM32L4xx_HAL_Driver/Src\stm32l4xx_hal_uart.c ****   __HAL_UART_DISABLE(huart);
 349              		.loc 1 389 3
 350 0050 7B68     		ldr	r3, [r7, #4]
 351 0052 1B68     		ldr	r3, [r3]
 352 0054 1A68     		ldr	r2, [r3]
 353 0056 7B68     		ldr	r3, [r7, #4]
 354 0058 1B68     		ldr	r3, [r3]
 355 005a 22F00102 		bic	r2, r2, #1
 356 005e 1A60     		str	r2, [r3]
 390:d:/LiteOS_Lab/drivers/third_party/ST/STM32L4xx_HAL_Driver/Src\stm32l4xx_hal_uart.c **** 
ARM GAS  C:\Users\ADMINI~1\AppData\Local\Temp\ccHDbRvY.s 			page 14


 391:d:/LiteOS_Lab/drivers/third_party/ST/STM32L4xx_HAL_Driver/Src\stm32l4xx_hal_uart.c ****   /* Set the UART Communication parameters */
 392:d:/LiteOS_Lab/drivers/third_party/ST/STM32L4xx_HAL_Driver/Src\stm32l4xx_hal_uart.c ****   if (UART_SetConfig(huart) == HAL_ERROR)
 357              		.loc 1 392 7
 358 0060 7868     		ldr	r0, [r7, #4]
 359 0062 FFF7FEFF 		bl	UART_SetConfig
 360 0066 0346     		mov	r3, r0
 361              		.loc 1 392 6
 362 0068 012B     		cmp	r3, #1
 363 006a 01D1     		bne	.L19
 393:d:/LiteOS_Lab/drivers/third_party/ST/STM32L4xx_HAL_Driver/Src\stm32l4xx_hal_uart.c ****   {
 394:d:/LiteOS_Lab/drivers/third_party/ST/STM32L4xx_HAL_Driver/Src\stm32l4xx_hal_uart.c ****     return HAL_ERROR;
 364              		.loc 1 394 12
 365 006c 0123     		movs	r3, #1
 366 006e 34E0     		b	.L15
 367              	.L19:
 395:d:/LiteOS_Lab/drivers/third_party/ST/STM32L4xx_HAL_Driver/Src\stm32l4xx_hal_uart.c ****   }
 396:d:/LiteOS_Lab/drivers/third_party/ST/STM32L4xx_HAL_Driver/Src\stm32l4xx_hal_uart.c **** 
 397:d:/LiteOS_Lab/drivers/third_party/ST/STM32L4xx_HAL_Driver/Src\stm32l4xx_hal_uart.c ****   if (huart->AdvancedInit.AdvFeatureInit != UART_ADVFEATURE_NO_INIT)
 368              		.loc 1 397 26
 369 0070 7B68     		ldr	r3, [r7, #4]
 370 0072 5B6A     		ldr	r3, [r3, #36]
 371              		.loc 1 397 6
 372 0074 002B     		cmp	r3, #0
 373 0076 02D0     		beq	.L20
 398:d:/LiteOS_Lab/drivers/third_party/ST/STM32L4xx_HAL_Driver/Src\stm32l4xx_hal_uart.c ****   {
 399:d:/LiteOS_Lab/drivers/third_party/ST/STM32L4xx_HAL_Driver/Src\stm32l4xx_hal_uart.c ****     UART_AdvFeatureConfig(huart);
 374              		.loc 1 399 5
 375 0078 7868     		ldr	r0, [r7, #4]
 376 007a FFF7FEFF 		bl	UART_AdvFeatureConfig
 377              	.L20:
 400:d:/LiteOS_Lab/drivers/third_party/ST/STM32L4xx_HAL_Driver/Src\stm32l4xx_hal_uart.c ****   }
 401:d:/LiteOS_Lab/drivers/third_party/ST/STM32L4xx_HAL_Driver/Src\stm32l4xx_hal_uart.c **** 
 402:d:/LiteOS_Lab/drivers/third_party/ST/STM32L4xx_HAL_Driver/Src\stm32l4xx_hal_uart.c ****   /* In LIN mode, the following bits must be kept cleared:
 403:d:/LiteOS_Lab/drivers/third_party/ST/STM32L4xx_HAL_Driver/Src\stm32l4xx_hal_uart.c ****   - LINEN and CLKEN bits in the USART_CR2 register,
 404:d:/LiteOS_Lab/drivers/third_party/ST/STM32L4xx_HAL_Driver/Src\stm32l4xx_hal_uart.c ****   - SCEN and IREN bits in the USART_CR3 register.*/
 405:d:/LiteOS_Lab/drivers/third_party/ST/STM32L4xx_HAL_Driver/Src\stm32l4xx_hal_uart.c ****   CLEAR_BIT(huart->Instance->CR2, USART_CR2_CLKEN);
 378              		.loc 1 405 3
 379 007e 7B68     		ldr	r3, [r7, #4]
 380 0080 1B68     		ldr	r3, [r3]
 381 0082 5A68     		ldr	r2, [r3, #4]
 382 0084 7B68     		ldr	r3, [r7, #4]
 383 0086 1B68     		ldr	r3, [r3]
 384 0088 22F40062 		bic	r2, r2, #2048
 385 008c 5A60     		str	r2, [r3, #4]
 406:d:/LiteOS_Lab/drivers/third_party/ST/STM32L4xx_HAL_Driver/Src\stm32l4xx_hal_uart.c ****   CLEAR_BIT(huart->Instance->CR3, (USART_CR3_HDSEL | USART_CR3_IREN | USART_CR3_SCEN));
 386              		.loc 1 406 3
 387 008e 7B68     		ldr	r3, [r7, #4]
 388 0090 1B68     		ldr	r3, [r3]
 389 0092 9A68     		ldr	r2, [r3, #8]
 390 0094 7B68     		ldr	r3, [r7, #4]
 391 0096 1B68     		ldr	r3, [r3]
 392 0098 22F02A02 		bic	r2, r2, #42
 393 009c 9A60     		str	r2, [r3, #8]
 407:d:/LiteOS_Lab/drivers/third_party/ST/STM32L4xx_HAL_Driver/Src\stm32l4xx_hal_uart.c **** 
 408:d:/LiteOS_Lab/drivers/third_party/ST/STM32L4xx_HAL_Driver/Src\stm32l4xx_hal_uart.c ****   /* Enable the LIN mode by setting the LINEN bit in the CR2 register */
 409:d:/LiteOS_Lab/drivers/third_party/ST/STM32L4xx_HAL_Driver/Src\stm32l4xx_hal_uart.c ****   SET_BIT(huart->Instance->CR2, USART_CR2_LINEN);
 394              		.loc 1 409 3
ARM GAS  C:\Users\ADMINI~1\AppData\Local\Temp\ccHDbRvY.s 			page 15


 395 009e 7B68     		ldr	r3, [r7, #4]
 396 00a0 1B68     		ldr	r3, [r3]
 397 00a2 5A68     		ldr	r2, [r3, #4]
 398 00a4 7B68     		ldr	r3, [r7, #4]
 399 00a6 1B68     		ldr	r3, [r3]
 400 00a8 42F48042 		orr	r2, r2, #16384
 401 00ac 5A60     		str	r2, [r3, #4]
 410:d:/LiteOS_Lab/drivers/third_party/ST/STM32L4xx_HAL_Driver/Src\stm32l4xx_hal_uart.c **** 
 411:d:/LiteOS_Lab/drivers/third_party/ST/STM32L4xx_HAL_Driver/Src\stm32l4xx_hal_uart.c ****   /* Set the USART LIN Break detection length. */
 412:d:/LiteOS_Lab/drivers/third_party/ST/STM32L4xx_HAL_Driver/Src\stm32l4xx_hal_uart.c ****   MODIFY_REG(huart->Instance->CR2, USART_CR2_LBDL, BreakDetectLength);
 402              		.loc 1 412 3
 403 00ae 7B68     		ldr	r3, [r7, #4]
 404 00b0 1B68     		ldr	r3, [r3]
 405 00b2 5B68     		ldr	r3, [r3, #4]
 406 00b4 23F02001 		bic	r1, r3, #32
 407 00b8 7B68     		ldr	r3, [r7, #4]
 408 00ba 1B68     		ldr	r3, [r3]
 409 00bc 3A68     		ldr	r2, [r7]
 410 00be 0A43     		orrs	r2, r2, r1
 411 00c0 5A60     		str	r2, [r3, #4]
 413:d:/LiteOS_Lab/drivers/third_party/ST/STM32L4xx_HAL_Driver/Src\stm32l4xx_hal_uart.c **** 
 414:d:/LiteOS_Lab/drivers/third_party/ST/STM32L4xx_HAL_Driver/Src\stm32l4xx_hal_uart.c ****   /* Enable the Peripheral */
 415:d:/LiteOS_Lab/drivers/third_party/ST/STM32L4xx_HAL_Driver/Src\stm32l4xx_hal_uart.c ****   __HAL_UART_ENABLE(huart);
 412              		.loc 1 415 3
 413 00c2 7B68     		ldr	r3, [r7, #4]
 414 00c4 1B68     		ldr	r3, [r3]
 415 00c6 1A68     		ldr	r2, [r3]
 416 00c8 7B68     		ldr	r3, [r7, #4]
 417 00ca 1B68     		ldr	r3, [r3]
 418 00cc 42F00102 		orr	r2, r2, #1
 419 00d0 1A60     		str	r2, [r3]
 416:d:/LiteOS_Lab/drivers/third_party/ST/STM32L4xx_HAL_Driver/Src\stm32l4xx_hal_uart.c **** 
 417:d:/LiteOS_Lab/drivers/third_party/ST/STM32L4xx_HAL_Driver/Src\stm32l4xx_hal_uart.c ****   /* TEACK and/or REACK to check before moving huart->gState and huart->RxState to Ready */
 418:d:/LiteOS_Lab/drivers/third_party/ST/STM32L4xx_HAL_Driver/Src\stm32l4xx_hal_uart.c ****   return (UART_CheckIdleState(huart));
 420              		.loc 1 418 11
 421 00d2 7868     		ldr	r0, [r7, #4]
 422 00d4 FFF7FEFF 		bl	UART_CheckIdleState
 423 00d8 0346     		mov	r3, r0
 424              	.L15:
 419:d:/LiteOS_Lab/drivers/third_party/ST/STM32L4xx_HAL_Driver/Src\stm32l4xx_hal_uart.c **** }
 425              		.loc 1 419 1
 426 00da 1846     		mov	r0, r3
 427 00dc 0837     		adds	r7, r7, #8
 428              	.LCFI13:
 429              		.cfi_def_cfa_offset 8
 430 00de BD46     		mov	sp, r7
 431              	.LCFI14:
 432              		.cfi_def_cfa_register 13
 433              		@ sp needed
 434 00e0 80BD     		pop	{r7, pc}
 435              		.cfi_endproc
 436              	.LFE289:
 438              		.section	.text.HAL_MultiProcessor_Init,"ax",%progbits
 439              		.align	1
 440              		.global	HAL_MultiProcessor_Init
 441              		.syntax unified
 442              		.thumb
ARM GAS  C:\Users\ADMINI~1\AppData\Local\Temp\ccHDbRvY.s 			page 16


 443              		.thumb_func
 444              		.fpu fpv4-sp-d16
 446              	HAL_MultiProcessor_Init:
 447              	.LFB290:
 420:d:/LiteOS_Lab/drivers/third_party/ST/STM32L4xx_HAL_Driver/Src\stm32l4xx_hal_uart.c **** 
 421:d:/LiteOS_Lab/drivers/third_party/ST/STM32L4xx_HAL_Driver/Src\stm32l4xx_hal_uart.c **** 
 422:d:/LiteOS_Lab/drivers/third_party/ST/STM32L4xx_HAL_Driver/Src\stm32l4xx_hal_uart.c **** /**
 423:d:/LiteOS_Lab/drivers/third_party/ST/STM32L4xx_HAL_Driver/Src\stm32l4xx_hal_uart.c ****   * @brief Initialize the multiprocessor mode according to the specified
 424:d:/LiteOS_Lab/drivers/third_party/ST/STM32L4xx_HAL_Driver/Src\stm32l4xx_hal_uart.c ****   *        parameters in the UART_InitTypeDef and initialize the associated handle.
 425:d:/LiteOS_Lab/drivers/third_party/ST/STM32L4xx_HAL_Driver/Src\stm32l4xx_hal_uart.c ****   * @param huart: UART handle.
 426:d:/LiteOS_Lab/drivers/third_party/ST/STM32L4xx_HAL_Driver/Src\stm32l4xx_hal_uart.c ****   * @param Address: UART node address (4-, 6-, 7- or 8-bit long).
 427:d:/LiteOS_Lab/drivers/third_party/ST/STM32L4xx_HAL_Driver/Src\stm32l4xx_hal_uart.c ****   * @param WakeUpMethod: specifies the UART wakeup method.
 428:d:/LiteOS_Lab/drivers/third_party/ST/STM32L4xx_HAL_Driver/Src\stm32l4xx_hal_uart.c ****   *        This parameter can be one of the following values:
 429:d:/LiteOS_Lab/drivers/third_party/ST/STM32L4xx_HAL_Driver/Src\stm32l4xx_hal_uart.c ****   *          @arg @ref UART_WAKEUPMETHOD_IDLELINE WakeUp by an idle line detection
 430:d:/LiteOS_Lab/drivers/third_party/ST/STM32L4xx_HAL_Driver/Src\stm32l4xx_hal_uart.c ****   *          @arg @ref UART_WAKEUPMETHOD_ADDRESSMARK WakeUp by an address mark
 431:d:/LiteOS_Lab/drivers/third_party/ST/STM32L4xx_HAL_Driver/Src\stm32l4xx_hal_uart.c ****   * @note  If the user resorts to idle line detection wake up, the Address parameter
 432:d:/LiteOS_Lab/drivers/third_party/ST/STM32L4xx_HAL_Driver/Src\stm32l4xx_hal_uart.c ****   *        is useless and ignored by the initialization function.
 433:d:/LiteOS_Lab/drivers/third_party/ST/STM32L4xx_HAL_Driver/Src\stm32l4xx_hal_uart.c ****   * @note  If the user resorts to address mark wake up, the address length detection
 434:d:/LiteOS_Lab/drivers/third_party/ST/STM32L4xx_HAL_Driver/Src\stm32l4xx_hal_uart.c ****   *        is configured by default to 4 bits only. For the UART to be able to
 435:d:/LiteOS_Lab/drivers/third_party/ST/STM32L4xx_HAL_Driver/Src\stm32l4xx_hal_uart.c ****   *        manage 6-, 7- or 8-bit long addresses detection, the API
 436:d:/LiteOS_Lab/drivers/third_party/ST/STM32L4xx_HAL_Driver/Src\stm32l4xx_hal_uart.c ****   *        HAL_MultiProcessorEx_AddressLength_Set() must be called after
 437:d:/LiteOS_Lab/drivers/third_party/ST/STM32L4xx_HAL_Driver/Src\stm32l4xx_hal_uart.c ****   *        HAL_MultiProcessor_Init().
 438:d:/LiteOS_Lab/drivers/third_party/ST/STM32L4xx_HAL_Driver/Src\stm32l4xx_hal_uart.c ****   * @retval HAL status
 439:d:/LiteOS_Lab/drivers/third_party/ST/STM32L4xx_HAL_Driver/Src\stm32l4xx_hal_uart.c ****   */
 440:d:/LiteOS_Lab/drivers/third_party/ST/STM32L4xx_HAL_Driver/Src\stm32l4xx_hal_uart.c **** HAL_StatusTypeDef HAL_MultiProcessor_Init(UART_HandleTypeDef *huart, uint8_t Address, uint32_t Wake
 441:d:/LiteOS_Lab/drivers/third_party/ST/STM32L4xx_HAL_Driver/Src\stm32l4xx_hal_uart.c **** {
 448              		.loc 1 441 1
 449              		.cfi_startproc
 450              		@ args = 0, pretend = 0, frame = 16
 451              		@ frame_needed = 1, uses_anonymous_args = 0
 452 0000 80B5     		push	{r7, lr}
 453              	.LCFI15:
 454              		.cfi_def_cfa_offset 8
 455              		.cfi_offset 7, -8
 456              		.cfi_offset 14, -4
 457 0002 84B0     		sub	sp, sp, #16
 458              	.LCFI16:
 459              		.cfi_def_cfa_offset 24
 460 0004 00AF     		add	r7, sp, #0
 461              	.LCFI17:
 462              		.cfi_def_cfa_register 7
 463 0006 F860     		str	r0, [r7, #12]
 464 0008 0B46     		mov	r3, r1
 465 000a 7A60     		str	r2, [r7, #4]
 466 000c FB72     		strb	r3, [r7, #11]
 442:d:/LiteOS_Lab/drivers/third_party/ST/STM32L4xx_HAL_Driver/Src\stm32l4xx_hal_uart.c ****   /* Check the UART handle allocation */
 443:d:/LiteOS_Lab/drivers/third_party/ST/STM32L4xx_HAL_Driver/Src\stm32l4xx_hal_uart.c ****   if(huart == NULL)
 467              		.loc 1 443 5
 468 000e FB68     		ldr	r3, [r7, #12]
 469 0010 002B     		cmp	r3, #0
 470 0012 01D1     		bne	.L22
 444:d:/LiteOS_Lab/drivers/third_party/ST/STM32L4xx_HAL_Driver/Src\stm32l4xx_hal_uart.c ****   {
 445:d:/LiteOS_Lab/drivers/third_party/ST/STM32L4xx_HAL_Driver/Src\stm32l4xx_hal_uart.c ****     return HAL_ERROR;
 471              		.loc 1 445 12
 472 0014 0123     		movs	r3, #1
 473 0016 5CE0     		b	.L23
 474              	.L22:
ARM GAS  C:\Users\ADMINI~1\AppData\Local\Temp\ccHDbRvY.s 			page 17


 446:d:/LiteOS_Lab/drivers/third_party/ST/STM32L4xx_HAL_Driver/Src\stm32l4xx_hal_uart.c ****   }
 447:d:/LiteOS_Lab/drivers/third_party/ST/STM32L4xx_HAL_Driver/Src\stm32l4xx_hal_uart.c **** 
 448:d:/LiteOS_Lab/drivers/third_party/ST/STM32L4xx_HAL_Driver/Src\stm32l4xx_hal_uart.c ****   /* Check the wake up method parameter */
 449:d:/LiteOS_Lab/drivers/third_party/ST/STM32L4xx_HAL_Driver/Src\stm32l4xx_hal_uart.c ****   assert_param(IS_UART_WAKEUPMETHOD(WakeUpMethod));
 450:d:/LiteOS_Lab/drivers/third_party/ST/STM32L4xx_HAL_Driver/Src\stm32l4xx_hal_uart.c **** 
 451:d:/LiteOS_Lab/drivers/third_party/ST/STM32L4xx_HAL_Driver/Src\stm32l4xx_hal_uart.c ****   if(huart->gState == HAL_UART_STATE_RESET)
 475              		.loc 1 451 11
 476 0018 FB68     		ldr	r3, [r7, #12]
 477 001a 93F87130 		ldrb	r3, [r3, #113]
 478 001e DBB2     		uxtb	r3, r3
 479              		.loc 1 451 5
 480 0020 002B     		cmp	r3, #0
 481 0022 06D1     		bne	.L24
 452:d:/LiteOS_Lab/drivers/third_party/ST/STM32L4xx_HAL_Driver/Src\stm32l4xx_hal_uart.c ****   {
 453:d:/LiteOS_Lab/drivers/third_party/ST/STM32L4xx_HAL_Driver/Src\stm32l4xx_hal_uart.c ****     /* Allocate lock resource and initialize it */
 454:d:/LiteOS_Lab/drivers/third_party/ST/STM32L4xx_HAL_Driver/Src\stm32l4xx_hal_uart.c ****     huart->Lock = HAL_UNLOCKED;
 482              		.loc 1 454 17
 483 0024 FB68     		ldr	r3, [r7, #12]
 484 0026 0022     		movs	r2, #0
 485 0028 83F87020 		strb	r2, [r3, #112]
 455:d:/LiteOS_Lab/drivers/third_party/ST/STM32L4xx_HAL_Driver/Src\stm32l4xx_hal_uart.c **** 
 456:d:/LiteOS_Lab/drivers/third_party/ST/STM32L4xx_HAL_Driver/Src\stm32l4xx_hal_uart.c ****     /* Init the low level hardware : GPIO, CLOCK */
 457:d:/LiteOS_Lab/drivers/third_party/ST/STM32L4xx_HAL_Driver/Src\stm32l4xx_hal_uart.c ****     HAL_UART_MspInit(huart);
 486              		.loc 1 457 5
 487 002c F868     		ldr	r0, [r7, #12]
 488 002e FFF7FEFF 		bl	HAL_UART_MspInit
 489              	.L24:
 458:d:/LiteOS_Lab/drivers/third_party/ST/STM32L4xx_HAL_Driver/Src\stm32l4xx_hal_uart.c ****   }
 459:d:/LiteOS_Lab/drivers/third_party/ST/STM32L4xx_HAL_Driver/Src\stm32l4xx_hal_uart.c **** 
 460:d:/LiteOS_Lab/drivers/third_party/ST/STM32L4xx_HAL_Driver/Src\stm32l4xx_hal_uart.c ****   huart->gState = HAL_UART_STATE_BUSY;
 490              		.loc 1 460 17
 491 0032 FB68     		ldr	r3, [r7, #12]
 492 0034 2422     		movs	r2, #36
 493 0036 83F87120 		strb	r2, [r3, #113]
 461:d:/LiteOS_Lab/drivers/third_party/ST/STM32L4xx_HAL_Driver/Src\stm32l4xx_hal_uart.c **** 
 462:d:/LiteOS_Lab/drivers/third_party/ST/STM32L4xx_HAL_Driver/Src\stm32l4xx_hal_uart.c ****   /* Disable the Peripheral */
 463:d:/LiteOS_Lab/drivers/third_party/ST/STM32L4xx_HAL_Driver/Src\stm32l4xx_hal_uart.c ****   __HAL_UART_DISABLE(huart);
 494              		.loc 1 463 3
 495 003a FB68     		ldr	r3, [r7, #12]
 496 003c 1B68     		ldr	r3, [r3]
 497 003e 1A68     		ldr	r2, [r3]
 498 0040 FB68     		ldr	r3, [r7, #12]
 499 0042 1B68     		ldr	r3, [r3]
 500 0044 22F00102 		bic	r2, r2, #1
 501 0048 1A60     		str	r2, [r3]
 464:d:/LiteOS_Lab/drivers/third_party/ST/STM32L4xx_HAL_Driver/Src\stm32l4xx_hal_uart.c **** 
 465:d:/LiteOS_Lab/drivers/third_party/ST/STM32L4xx_HAL_Driver/Src\stm32l4xx_hal_uart.c ****   /* Set the UART Communication parameters */
 466:d:/LiteOS_Lab/drivers/third_party/ST/STM32L4xx_HAL_Driver/Src\stm32l4xx_hal_uart.c ****   if (UART_SetConfig(huart) == HAL_ERROR)
 502              		.loc 1 466 7
 503 004a F868     		ldr	r0, [r7, #12]
 504 004c FFF7FEFF 		bl	UART_SetConfig
 505 0050 0346     		mov	r3, r0
 506              		.loc 1 466 6
 507 0052 012B     		cmp	r3, #1
 508 0054 01D1     		bne	.L25
 467:d:/LiteOS_Lab/drivers/third_party/ST/STM32L4xx_HAL_Driver/Src\stm32l4xx_hal_uart.c ****   {
 468:d:/LiteOS_Lab/drivers/third_party/ST/STM32L4xx_HAL_Driver/Src\stm32l4xx_hal_uart.c ****     return HAL_ERROR;
ARM GAS  C:\Users\ADMINI~1\AppData\Local\Temp\ccHDbRvY.s 			page 18


 509              		.loc 1 468 12
 510 0056 0123     		movs	r3, #1
 511 0058 3BE0     		b	.L23
 512              	.L25:
 469:d:/LiteOS_Lab/drivers/third_party/ST/STM32L4xx_HAL_Driver/Src\stm32l4xx_hal_uart.c ****   }
 470:d:/LiteOS_Lab/drivers/third_party/ST/STM32L4xx_HAL_Driver/Src\stm32l4xx_hal_uart.c **** 
 471:d:/LiteOS_Lab/drivers/third_party/ST/STM32L4xx_HAL_Driver/Src\stm32l4xx_hal_uart.c ****   if (huart->AdvancedInit.AdvFeatureInit != UART_ADVFEATURE_NO_INIT)
 513              		.loc 1 471 26
 514 005a FB68     		ldr	r3, [r7, #12]
 515 005c 5B6A     		ldr	r3, [r3, #36]
 516              		.loc 1 471 6
 517 005e 002B     		cmp	r3, #0
 518 0060 02D0     		beq	.L26
 472:d:/LiteOS_Lab/drivers/third_party/ST/STM32L4xx_HAL_Driver/Src\stm32l4xx_hal_uart.c ****   {
 473:d:/LiteOS_Lab/drivers/third_party/ST/STM32L4xx_HAL_Driver/Src\stm32l4xx_hal_uart.c ****     UART_AdvFeatureConfig(huart);
 519              		.loc 1 473 5
 520 0062 F868     		ldr	r0, [r7, #12]
 521 0064 FFF7FEFF 		bl	UART_AdvFeatureConfig
 522              	.L26:
 474:d:/LiteOS_Lab/drivers/third_party/ST/STM32L4xx_HAL_Driver/Src\stm32l4xx_hal_uart.c ****   }
 475:d:/LiteOS_Lab/drivers/third_party/ST/STM32L4xx_HAL_Driver/Src\stm32l4xx_hal_uart.c **** 
 476:d:/LiteOS_Lab/drivers/third_party/ST/STM32L4xx_HAL_Driver/Src\stm32l4xx_hal_uart.c ****   /* In multiprocessor mode, the following bits must be kept cleared:
 477:d:/LiteOS_Lab/drivers/third_party/ST/STM32L4xx_HAL_Driver/Src\stm32l4xx_hal_uart.c ****   - LINEN and CLKEN bits in the USART_CR2 register,
 478:d:/LiteOS_Lab/drivers/third_party/ST/STM32L4xx_HAL_Driver/Src\stm32l4xx_hal_uart.c ****   - SCEN, HDSEL and IREN  bits in the USART_CR3 register. */
 479:d:/LiteOS_Lab/drivers/third_party/ST/STM32L4xx_HAL_Driver/Src\stm32l4xx_hal_uart.c ****   CLEAR_BIT(huart->Instance->CR2, (USART_CR2_LINEN | USART_CR2_CLKEN));
 523              		.loc 1 479 3
 524 0068 FB68     		ldr	r3, [r7, #12]
 525 006a 1B68     		ldr	r3, [r3]
 526 006c 5A68     		ldr	r2, [r3, #4]
 527 006e FB68     		ldr	r3, [r7, #12]
 528 0070 1B68     		ldr	r3, [r3]
 529 0072 22F49042 		bic	r2, r2, #18432
 530 0076 5A60     		str	r2, [r3, #4]
 480:d:/LiteOS_Lab/drivers/third_party/ST/STM32L4xx_HAL_Driver/Src\stm32l4xx_hal_uart.c ****   CLEAR_BIT(huart->Instance->CR3, (USART_CR3_SCEN | USART_CR3_HDSEL | USART_CR3_IREN));
 531              		.loc 1 480 3
 532 0078 FB68     		ldr	r3, [r7, #12]
 533 007a 1B68     		ldr	r3, [r3]
 534 007c 9A68     		ldr	r2, [r3, #8]
 535 007e FB68     		ldr	r3, [r7, #12]
 536 0080 1B68     		ldr	r3, [r3]
 537 0082 22F02A02 		bic	r2, r2, #42
 538 0086 9A60     		str	r2, [r3, #8]
 481:d:/LiteOS_Lab/drivers/third_party/ST/STM32L4xx_HAL_Driver/Src\stm32l4xx_hal_uart.c **** 
 482:d:/LiteOS_Lab/drivers/third_party/ST/STM32L4xx_HAL_Driver/Src\stm32l4xx_hal_uart.c ****   if (WakeUpMethod == UART_WAKEUPMETHOD_ADDRESSMARK)
 539              		.loc 1 482 6
 540 0088 7B68     		ldr	r3, [r7, #4]
 541 008a B3F5006F 		cmp	r3, #2048
 542 008e 0AD1     		bne	.L27
 483:d:/LiteOS_Lab/drivers/third_party/ST/STM32L4xx_HAL_Driver/Src\stm32l4xx_hal_uart.c ****   {
 484:d:/LiteOS_Lab/drivers/third_party/ST/STM32L4xx_HAL_Driver/Src\stm32l4xx_hal_uart.c ****     /* If address mark wake up method is chosen, set the USART address node */
 485:d:/LiteOS_Lab/drivers/third_party/ST/STM32L4xx_HAL_Driver/Src\stm32l4xx_hal_uart.c ****     MODIFY_REG(huart->Instance->CR2, USART_CR2_ADD, ((uint32_t)Address << UART_CR2_ADDRESS_LSB_POS)
 543              		.loc 1 485 5
 544 0090 FB68     		ldr	r3, [r7, #12]
 545 0092 1B68     		ldr	r3, [r3]
 546 0094 5B68     		ldr	r3, [r3, #4]
 547 0096 23F07F41 		bic	r1, r3, #-16777216
 548 009a FB7A     		ldrb	r3, [r7, #11]	@ zero_extendqisi2
ARM GAS  C:\Users\ADMINI~1\AppData\Local\Temp\ccHDbRvY.s 			page 19


 549 009c 1A06     		lsls	r2, r3, #24
 550 009e FB68     		ldr	r3, [r7, #12]
 551 00a0 1B68     		ldr	r3, [r3]
 552 00a2 0A43     		orrs	r2, r2, r1
 553 00a4 5A60     		str	r2, [r3, #4]
 554              	.L27:
 486:d:/LiteOS_Lab/drivers/third_party/ST/STM32L4xx_HAL_Driver/Src\stm32l4xx_hal_uart.c ****   }
 487:d:/LiteOS_Lab/drivers/third_party/ST/STM32L4xx_HAL_Driver/Src\stm32l4xx_hal_uart.c **** 
 488:d:/LiteOS_Lab/drivers/third_party/ST/STM32L4xx_HAL_Driver/Src\stm32l4xx_hal_uart.c ****   /* Set the wake up method by setting the WAKE bit in the CR1 register */
 489:d:/LiteOS_Lab/drivers/third_party/ST/STM32L4xx_HAL_Driver/Src\stm32l4xx_hal_uart.c ****   MODIFY_REG(huart->Instance->CR1, USART_CR1_WAKE, WakeUpMethod);
 555              		.loc 1 489 3
 556 00a6 FB68     		ldr	r3, [r7, #12]
 557 00a8 1B68     		ldr	r3, [r3]
 558 00aa 1B68     		ldr	r3, [r3]
 559 00ac 23F40061 		bic	r1, r3, #2048
 560 00b0 FB68     		ldr	r3, [r7, #12]
 561 00b2 1B68     		ldr	r3, [r3]
 562 00b4 7A68     		ldr	r2, [r7, #4]
 563 00b6 0A43     		orrs	r2, r2, r1
 564 00b8 1A60     		str	r2, [r3]
 490:d:/LiteOS_Lab/drivers/third_party/ST/STM32L4xx_HAL_Driver/Src\stm32l4xx_hal_uart.c **** 
 491:d:/LiteOS_Lab/drivers/third_party/ST/STM32L4xx_HAL_Driver/Src\stm32l4xx_hal_uart.c ****   /* Enable the Peripheral */
 492:d:/LiteOS_Lab/drivers/third_party/ST/STM32L4xx_HAL_Driver/Src\stm32l4xx_hal_uart.c ****   __HAL_UART_ENABLE(huart);
 565              		.loc 1 492 3
 566 00ba FB68     		ldr	r3, [r7, #12]
 567 00bc 1B68     		ldr	r3, [r3]
 568 00be 1A68     		ldr	r2, [r3]
 569 00c0 FB68     		ldr	r3, [r7, #12]
 570 00c2 1B68     		ldr	r3, [r3]
 571 00c4 42F00102 		orr	r2, r2, #1
 572 00c8 1A60     		str	r2, [r3]
 493:d:/LiteOS_Lab/drivers/third_party/ST/STM32L4xx_HAL_Driver/Src\stm32l4xx_hal_uart.c **** 
 494:d:/LiteOS_Lab/drivers/third_party/ST/STM32L4xx_HAL_Driver/Src\stm32l4xx_hal_uart.c ****   /* TEACK and/or REACK to check before moving huart->gState and huart->RxState to Ready */
 495:d:/LiteOS_Lab/drivers/third_party/ST/STM32L4xx_HAL_Driver/Src\stm32l4xx_hal_uart.c ****   return (UART_CheckIdleState(huart));
 573              		.loc 1 495 11
 574 00ca F868     		ldr	r0, [r7, #12]
 575 00cc FFF7FEFF 		bl	UART_CheckIdleState
 576 00d0 0346     		mov	r3, r0
 577              	.L23:
 496:d:/LiteOS_Lab/drivers/third_party/ST/STM32L4xx_HAL_Driver/Src\stm32l4xx_hal_uart.c **** }
 578              		.loc 1 496 1
 579 00d2 1846     		mov	r0, r3
 580 00d4 1037     		adds	r7, r7, #16
 581              	.LCFI18:
 582              		.cfi_def_cfa_offset 8
 583 00d6 BD46     		mov	sp, r7
 584              	.LCFI19:
 585              		.cfi_def_cfa_register 13
 586              		@ sp needed
 587 00d8 80BD     		pop	{r7, pc}
 588              		.cfi_endproc
 589              	.LFE290:
 591              		.section	.text.HAL_UART_DeInit,"ax",%progbits
 592              		.align	1
 593              		.global	HAL_UART_DeInit
 594              		.syntax unified
 595              		.thumb
ARM GAS  C:\Users\ADMINI~1\AppData\Local\Temp\ccHDbRvY.s 			page 20


 596              		.thumb_func
 597              		.fpu fpv4-sp-d16
 599              	HAL_UART_DeInit:
 600              	.LFB291:
 497:d:/LiteOS_Lab/drivers/third_party/ST/STM32L4xx_HAL_Driver/Src\stm32l4xx_hal_uart.c **** 
 498:d:/LiteOS_Lab/drivers/third_party/ST/STM32L4xx_HAL_Driver/Src\stm32l4xx_hal_uart.c **** 
 499:d:/LiteOS_Lab/drivers/third_party/ST/STM32L4xx_HAL_Driver/Src\stm32l4xx_hal_uart.c **** /**
 500:d:/LiteOS_Lab/drivers/third_party/ST/STM32L4xx_HAL_Driver/Src\stm32l4xx_hal_uart.c ****   * @brief DeInitialize the UART peripheral.
 501:d:/LiteOS_Lab/drivers/third_party/ST/STM32L4xx_HAL_Driver/Src\stm32l4xx_hal_uart.c ****   * @param huart: UART handle.
 502:d:/LiteOS_Lab/drivers/third_party/ST/STM32L4xx_HAL_Driver/Src\stm32l4xx_hal_uart.c ****   * @retval HAL status
 503:d:/LiteOS_Lab/drivers/third_party/ST/STM32L4xx_HAL_Driver/Src\stm32l4xx_hal_uart.c ****   */
 504:d:/LiteOS_Lab/drivers/third_party/ST/STM32L4xx_HAL_Driver/Src\stm32l4xx_hal_uart.c **** HAL_StatusTypeDef HAL_UART_DeInit(UART_HandleTypeDef *huart)
 505:d:/LiteOS_Lab/drivers/third_party/ST/STM32L4xx_HAL_Driver/Src\stm32l4xx_hal_uart.c **** {
 601              		.loc 1 505 1
 602              		.cfi_startproc
 603              		@ args = 0, pretend = 0, frame = 8
 604              		@ frame_needed = 1, uses_anonymous_args = 0
 605 0000 80B5     		push	{r7, lr}
 606              	.LCFI20:
 607              		.cfi_def_cfa_offset 8
 608              		.cfi_offset 7, -8
 609              		.cfi_offset 14, -4
 610 0002 82B0     		sub	sp, sp, #8
 611              	.LCFI21:
 612              		.cfi_def_cfa_offset 16
 613 0004 00AF     		add	r7, sp, #0
 614              	.LCFI22:
 615              		.cfi_def_cfa_register 7
 616 0006 7860     		str	r0, [r7, #4]
 506:d:/LiteOS_Lab/drivers/third_party/ST/STM32L4xx_HAL_Driver/Src\stm32l4xx_hal_uart.c ****   /* Check the UART handle allocation */
 507:d:/LiteOS_Lab/drivers/third_party/ST/STM32L4xx_HAL_Driver/Src\stm32l4xx_hal_uart.c ****   if(huart == NULL)
 617              		.loc 1 507 5
 618 0008 7B68     		ldr	r3, [r7, #4]
 619 000a 002B     		cmp	r3, #0
 620 000c 01D1     		bne	.L29
 508:d:/LiteOS_Lab/drivers/third_party/ST/STM32L4xx_HAL_Driver/Src\stm32l4xx_hal_uart.c ****   {
 509:d:/LiteOS_Lab/drivers/third_party/ST/STM32L4xx_HAL_Driver/Src\stm32l4xx_hal_uart.c ****     return HAL_ERROR;
 621              		.loc 1 509 12
 622 000e 0123     		movs	r3, #1
 623 0010 2AE0     		b	.L30
 624              	.L29:
 510:d:/LiteOS_Lab/drivers/third_party/ST/STM32L4xx_HAL_Driver/Src\stm32l4xx_hal_uart.c ****   }
 511:d:/LiteOS_Lab/drivers/third_party/ST/STM32L4xx_HAL_Driver/Src\stm32l4xx_hal_uart.c **** 
 512:d:/LiteOS_Lab/drivers/third_party/ST/STM32L4xx_HAL_Driver/Src\stm32l4xx_hal_uart.c ****   /* Check the parameters */
 513:d:/LiteOS_Lab/drivers/third_party/ST/STM32L4xx_HAL_Driver/Src\stm32l4xx_hal_uart.c ****   assert_param((IS_UART_INSTANCE(huart->Instance)) || (IS_LPUART_INSTANCE(huart->Instance)));
 514:d:/LiteOS_Lab/drivers/third_party/ST/STM32L4xx_HAL_Driver/Src\stm32l4xx_hal_uart.c **** 
 515:d:/LiteOS_Lab/drivers/third_party/ST/STM32L4xx_HAL_Driver/Src\stm32l4xx_hal_uart.c ****   huart->gState = HAL_UART_STATE_BUSY;
 625              		.loc 1 515 17
 626 0012 7B68     		ldr	r3, [r7, #4]
 627 0014 2422     		movs	r2, #36
 628 0016 83F87120 		strb	r2, [r3, #113]
 516:d:/LiteOS_Lab/drivers/third_party/ST/STM32L4xx_HAL_Driver/Src\stm32l4xx_hal_uart.c **** 
 517:d:/LiteOS_Lab/drivers/third_party/ST/STM32L4xx_HAL_Driver/Src\stm32l4xx_hal_uart.c ****   /* Disable the Peripheral */
 518:d:/LiteOS_Lab/drivers/third_party/ST/STM32L4xx_HAL_Driver/Src\stm32l4xx_hal_uart.c ****   __HAL_UART_DISABLE(huart);
 629              		.loc 1 518 3
 630 001a 7B68     		ldr	r3, [r7, #4]
 631 001c 1B68     		ldr	r3, [r3]
ARM GAS  C:\Users\ADMINI~1\AppData\Local\Temp\ccHDbRvY.s 			page 21


 632 001e 1A68     		ldr	r2, [r3]
 633 0020 7B68     		ldr	r3, [r7, #4]
 634 0022 1B68     		ldr	r3, [r3]
 635 0024 22F00102 		bic	r2, r2, #1
 636 0028 1A60     		str	r2, [r3]
 519:d:/LiteOS_Lab/drivers/third_party/ST/STM32L4xx_HAL_Driver/Src\stm32l4xx_hal_uart.c **** 
 520:d:/LiteOS_Lab/drivers/third_party/ST/STM32L4xx_HAL_Driver/Src\stm32l4xx_hal_uart.c ****   huart->Instance->CR1 = 0x0;
 637              		.loc 1 520 8
 638 002a 7B68     		ldr	r3, [r7, #4]
 639 002c 1B68     		ldr	r3, [r3]
 640              		.loc 1 520 24
 641 002e 0022     		movs	r2, #0
 642 0030 1A60     		str	r2, [r3]
 521:d:/LiteOS_Lab/drivers/third_party/ST/STM32L4xx_HAL_Driver/Src\stm32l4xx_hal_uart.c ****   huart->Instance->CR2 = 0x0;
 643              		.loc 1 521 8
 644 0032 7B68     		ldr	r3, [r7, #4]
 645 0034 1B68     		ldr	r3, [r3]
 646              		.loc 1 521 24
 647 0036 0022     		movs	r2, #0
 648 0038 5A60     		str	r2, [r3, #4]
 522:d:/LiteOS_Lab/drivers/third_party/ST/STM32L4xx_HAL_Driver/Src\stm32l4xx_hal_uart.c ****   huart->Instance->CR3 = 0x0;
 649              		.loc 1 522 8
 650 003a 7B68     		ldr	r3, [r7, #4]
 651 003c 1B68     		ldr	r3, [r3]
 652              		.loc 1 522 24
 653 003e 0022     		movs	r2, #0
 654 0040 9A60     		str	r2, [r3, #8]
 523:d:/LiteOS_Lab/drivers/third_party/ST/STM32L4xx_HAL_Driver/Src\stm32l4xx_hal_uart.c **** 
 524:d:/LiteOS_Lab/drivers/third_party/ST/STM32L4xx_HAL_Driver/Src\stm32l4xx_hal_uart.c ****   /* DeInit the low level hardware */
 525:d:/LiteOS_Lab/drivers/third_party/ST/STM32L4xx_HAL_Driver/Src\stm32l4xx_hal_uart.c ****   HAL_UART_MspDeInit(huart);
 655              		.loc 1 525 3
 656 0042 7868     		ldr	r0, [r7, #4]
 657 0044 FFF7FEFF 		bl	HAL_UART_MspDeInit
 526:d:/LiteOS_Lab/drivers/third_party/ST/STM32L4xx_HAL_Driver/Src\stm32l4xx_hal_uart.c **** 
 527:d:/LiteOS_Lab/drivers/third_party/ST/STM32L4xx_HAL_Driver/Src\stm32l4xx_hal_uart.c ****   huart->ErrorCode = HAL_UART_ERROR_NONE;
 658              		.loc 1 527 20
 659 0048 7B68     		ldr	r3, [r7, #4]
 660 004a 0022     		movs	r2, #0
 661 004c 5A67     		str	r2, [r3, #116]
 528:d:/LiteOS_Lab/drivers/third_party/ST/STM32L4xx_HAL_Driver/Src\stm32l4xx_hal_uart.c ****   huart->gState    = HAL_UART_STATE_RESET;
 662              		.loc 1 528 20
 663 004e 7B68     		ldr	r3, [r7, #4]
 664 0050 0022     		movs	r2, #0
 665 0052 83F87120 		strb	r2, [r3, #113]
 529:d:/LiteOS_Lab/drivers/third_party/ST/STM32L4xx_HAL_Driver/Src\stm32l4xx_hal_uart.c ****   huart->RxState   = HAL_UART_STATE_RESET;
 666              		.loc 1 529 20
 667 0056 7B68     		ldr	r3, [r7, #4]
 668 0058 0022     		movs	r2, #0
 669 005a 83F87220 		strb	r2, [r3, #114]
 530:d:/LiteOS_Lab/drivers/third_party/ST/STM32L4xx_HAL_Driver/Src\stm32l4xx_hal_uart.c **** 
 531:d:/LiteOS_Lab/drivers/third_party/ST/STM32L4xx_HAL_Driver/Src\stm32l4xx_hal_uart.c ****   /* Process Unlock */
 532:d:/LiteOS_Lab/drivers/third_party/ST/STM32L4xx_HAL_Driver/Src\stm32l4xx_hal_uart.c ****   __HAL_UNLOCK(huart);
 670              		.loc 1 532 3
 671 005e 7B68     		ldr	r3, [r7, #4]
 672 0060 0022     		movs	r2, #0
 673 0062 83F87020 		strb	r2, [r3, #112]
 533:d:/LiteOS_Lab/drivers/third_party/ST/STM32L4xx_HAL_Driver/Src\stm32l4xx_hal_uart.c **** 
ARM GAS  C:\Users\ADMINI~1\AppData\Local\Temp\ccHDbRvY.s 			page 22


 534:d:/LiteOS_Lab/drivers/third_party/ST/STM32L4xx_HAL_Driver/Src\stm32l4xx_hal_uart.c ****   return HAL_OK;
 674              		.loc 1 534 10
 675 0066 0023     		movs	r3, #0
 676              	.L30:
 535:d:/LiteOS_Lab/drivers/third_party/ST/STM32L4xx_HAL_Driver/Src\stm32l4xx_hal_uart.c **** }
 677              		.loc 1 535 1
 678 0068 1846     		mov	r0, r3
 679 006a 0837     		adds	r7, r7, #8
 680              	.LCFI23:
 681              		.cfi_def_cfa_offset 8
 682 006c BD46     		mov	sp, r7
 683              	.LCFI24:
 684              		.cfi_def_cfa_register 13
 685              		@ sp needed
 686 006e 80BD     		pop	{r7, pc}
 687              		.cfi_endproc
 688              	.LFE291:
 690              		.section	.text.HAL_UART_MspInit,"ax",%progbits
 691              		.align	1
 692              		.weak	HAL_UART_MspInit
 693              		.syntax unified
 694              		.thumb
 695              		.thumb_func
 696              		.fpu fpv4-sp-d16
 698              	HAL_UART_MspInit:
 699              	.LFB292:
 536:d:/LiteOS_Lab/drivers/third_party/ST/STM32L4xx_HAL_Driver/Src\stm32l4xx_hal_uart.c **** 
 537:d:/LiteOS_Lab/drivers/third_party/ST/STM32L4xx_HAL_Driver/Src\stm32l4xx_hal_uart.c **** /**
 538:d:/LiteOS_Lab/drivers/third_party/ST/STM32L4xx_HAL_Driver/Src\stm32l4xx_hal_uart.c ****   * @brief Initialize the UART MSP.
 539:d:/LiteOS_Lab/drivers/third_party/ST/STM32L4xx_HAL_Driver/Src\stm32l4xx_hal_uart.c ****   * @param huart: UART handle.
 540:d:/LiteOS_Lab/drivers/third_party/ST/STM32L4xx_HAL_Driver/Src\stm32l4xx_hal_uart.c ****   * @retval None
 541:d:/LiteOS_Lab/drivers/third_party/ST/STM32L4xx_HAL_Driver/Src\stm32l4xx_hal_uart.c ****   */
 542:d:/LiteOS_Lab/drivers/third_party/ST/STM32L4xx_HAL_Driver/Src\stm32l4xx_hal_uart.c **** __weak void HAL_UART_MspInit(UART_HandleTypeDef *huart)
 543:d:/LiteOS_Lab/drivers/third_party/ST/STM32L4xx_HAL_Driver/Src\stm32l4xx_hal_uart.c **** {
 700              		.loc 1 543 1
 701              		.cfi_startproc
 702              		@ args = 0, pretend = 0, frame = 8
 703              		@ frame_needed = 1, uses_anonymous_args = 0
 704              		@ link register save eliminated.
 705 0000 80B4     		push	{r7}
 706              	.LCFI25:
 707              		.cfi_def_cfa_offset 4
 708              		.cfi_offset 7, -4
 709 0002 83B0     		sub	sp, sp, #12
 710              	.LCFI26:
 711              		.cfi_def_cfa_offset 16
 712 0004 00AF     		add	r7, sp, #0
 713              	.LCFI27:
 714              		.cfi_def_cfa_register 7
 715 0006 7860     		str	r0, [r7, #4]
 544:d:/LiteOS_Lab/drivers/third_party/ST/STM32L4xx_HAL_Driver/Src\stm32l4xx_hal_uart.c ****   /* Prevent unused argument(s) compilation warning */
 545:d:/LiteOS_Lab/drivers/third_party/ST/STM32L4xx_HAL_Driver/Src\stm32l4xx_hal_uart.c ****   UNUSED(huart);
 546:d:/LiteOS_Lab/drivers/third_party/ST/STM32L4xx_HAL_Driver/Src\stm32l4xx_hal_uart.c **** 
 547:d:/LiteOS_Lab/drivers/third_party/ST/STM32L4xx_HAL_Driver/Src\stm32l4xx_hal_uart.c ****   /* NOTE : This function should not be modified, when the callback is needed,
 548:d:/LiteOS_Lab/drivers/third_party/ST/STM32L4xx_HAL_Driver/Src\stm32l4xx_hal_uart.c ****             the HAL_UART_MspInit can be implemented in the user file
 549:d:/LiteOS_Lab/drivers/third_party/ST/STM32L4xx_HAL_Driver/Src\stm32l4xx_hal_uart.c ****    */
 550:d:/LiteOS_Lab/drivers/third_party/ST/STM32L4xx_HAL_Driver/Src\stm32l4xx_hal_uart.c **** }
ARM GAS  C:\Users\ADMINI~1\AppData\Local\Temp\ccHDbRvY.s 			page 23


 716              		.loc 1 550 1
 717 0008 00BF     		nop
 718 000a 0C37     		adds	r7, r7, #12
 719              	.LCFI28:
 720              		.cfi_def_cfa_offset 4
 721 000c BD46     		mov	sp, r7
 722              	.LCFI29:
 723              		.cfi_def_cfa_register 13
 724              		@ sp needed
 725 000e 5DF8047B 		ldr	r7, [sp], #4
 726              	.LCFI30:
 727              		.cfi_restore 7
 728              		.cfi_def_cfa_offset 0
 729 0012 7047     		bx	lr
 730              		.cfi_endproc
 731              	.LFE292:
 733              		.section	.text.HAL_UART_MspDeInit,"ax",%progbits
 734              		.align	1
 735              		.weak	HAL_UART_MspDeInit
 736              		.syntax unified
 737              		.thumb
 738              		.thumb_func
 739              		.fpu fpv4-sp-d16
 741              	HAL_UART_MspDeInit:
 742              	.LFB293:
 551:d:/LiteOS_Lab/drivers/third_party/ST/STM32L4xx_HAL_Driver/Src\stm32l4xx_hal_uart.c **** 
 552:d:/LiteOS_Lab/drivers/third_party/ST/STM32L4xx_HAL_Driver/Src\stm32l4xx_hal_uart.c **** /**
 553:d:/LiteOS_Lab/drivers/third_party/ST/STM32L4xx_HAL_Driver/Src\stm32l4xx_hal_uart.c ****   * @brief DeInitialize the UART MSP.
 554:d:/LiteOS_Lab/drivers/third_party/ST/STM32L4xx_HAL_Driver/Src\stm32l4xx_hal_uart.c ****   * @param huart: UART handle.
 555:d:/LiteOS_Lab/drivers/third_party/ST/STM32L4xx_HAL_Driver/Src\stm32l4xx_hal_uart.c ****   * @retval None
 556:d:/LiteOS_Lab/drivers/third_party/ST/STM32L4xx_HAL_Driver/Src\stm32l4xx_hal_uart.c ****   */
 557:d:/LiteOS_Lab/drivers/third_party/ST/STM32L4xx_HAL_Driver/Src\stm32l4xx_hal_uart.c **** __weak void HAL_UART_MspDeInit(UART_HandleTypeDef *huart)
 558:d:/LiteOS_Lab/drivers/third_party/ST/STM32L4xx_HAL_Driver/Src\stm32l4xx_hal_uart.c **** {
 743              		.loc 1 558 1
 744              		.cfi_startproc
 745              		@ args = 0, pretend = 0, frame = 8
 746              		@ frame_needed = 1, uses_anonymous_args = 0
 747              		@ link register save eliminated.
 748 0000 80B4     		push	{r7}
 749              	.LCFI31:
 750              		.cfi_def_cfa_offset 4
 751              		.cfi_offset 7, -4
 752 0002 83B0     		sub	sp, sp, #12
 753              	.LCFI32:
 754              		.cfi_def_cfa_offset 16
 755 0004 00AF     		add	r7, sp, #0
 756              	.LCFI33:
 757              		.cfi_def_cfa_register 7
 758 0006 7860     		str	r0, [r7, #4]
 559:d:/LiteOS_Lab/drivers/third_party/ST/STM32L4xx_HAL_Driver/Src\stm32l4xx_hal_uart.c ****   /* Prevent unused argument(s) compilation warning */
 560:d:/LiteOS_Lab/drivers/third_party/ST/STM32L4xx_HAL_Driver/Src\stm32l4xx_hal_uart.c ****   UNUSED(huart);
 561:d:/LiteOS_Lab/drivers/third_party/ST/STM32L4xx_HAL_Driver/Src\stm32l4xx_hal_uart.c **** 
 562:d:/LiteOS_Lab/drivers/third_party/ST/STM32L4xx_HAL_Driver/Src\stm32l4xx_hal_uart.c ****   /* NOTE : This function should not be modified, when the callback is needed,
 563:d:/LiteOS_Lab/drivers/third_party/ST/STM32L4xx_HAL_Driver/Src\stm32l4xx_hal_uart.c ****             the HAL_UART_MspDeInit can be implemented in the user file
 564:d:/LiteOS_Lab/drivers/third_party/ST/STM32L4xx_HAL_Driver/Src\stm32l4xx_hal_uart.c ****    */
 565:d:/LiteOS_Lab/drivers/third_party/ST/STM32L4xx_HAL_Driver/Src\stm32l4xx_hal_uart.c **** }
 759              		.loc 1 565 1
ARM GAS  C:\Users\ADMINI~1\AppData\Local\Temp\ccHDbRvY.s 			page 24


 760 0008 00BF     		nop
 761 000a 0C37     		adds	r7, r7, #12
 762              	.LCFI34:
 763              		.cfi_def_cfa_offset 4
 764 000c BD46     		mov	sp, r7
 765              	.LCFI35:
 766              		.cfi_def_cfa_register 13
 767              		@ sp needed
 768 000e 5DF8047B 		ldr	r7, [sp], #4
 769              	.LCFI36:
 770              		.cfi_restore 7
 771              		.cfi_def_cfa_offset 0
 772 0012 7047     		bx	lr
 773              		.cfi_endproc
 774              	.LFE293:
 776              		.section	.text.HAL_UART_Transmit,"ax",%progbits
 777              		.align	1
 778              		.global	HAL_UART_Transmit
 779              		.syntax unified
 780              		.thumb
 781              		.thumb_func
 782              		.fpu fpv4-sp-d16
 784              	HAL_UART_Transmit:
 785              	.LFB294:
 566:d:/LiteOS_Lab/drivers/third_party/ST/STM32L4xx_HAL_Driver/Src\stm32l4xx_hal_uart.c **** 
 567:d:/LiteOS_Lab/drivers/third_party/ST/STM32L4xx_HAL_Driver/Src\stm32l4xx_hal_uart.c **** /**
 568:d:/LiteOS_Lab/drivers/third_party/ST/STM32L4xx_HAL_Driver/Src\stm32l4xx_hal_uart.c ****   * @}
 569:d:/LiteOS_Lab/drivers/third_party/ST/STM32L4xx_HAL_Driver/Src\stm32l4xx_hal_uart.c ****   */
 570:d:/LiteOS_Lab/drivers/third_party/ST/STM32L4xx_HAL_Driver/Src\stm32l4xx_hal_uart.c **** 
 571:d:/LiteOS_Lab/drivers/third_party/ST/STM32L4xx_HAL_Driver/Src\stm32l4xx_hal_uart.c **** /** @defgroup UART_Exported_Functions_Group2 IO operation functions
 572:d:/LiteOS_Lab/drivers/third_party/ST/STM32L4xx_HAL_Driver/Src\stm32l4xx_hal_uart.c ****   * @brief UART Transmit/Receive functions
 573:d:/LiteOS_Lab/drivers/third_party/ST/STM32L4xx_HAL_Driver/Src\stm32l4xx_hal_uart.c ****   *
 574:d:/LiteOS_Lab/drivers/third_party/ST/STM32L4xx_HAL_Driver/Src\stm32l4xx_hal_uart.c **** @verbatim
 575:d:/LiteOS_Lab/drivers/third_party/ST/STM32L4xx_HAL_Driver/Src\stm32l4xx_hal_uart.c ****  ===============================================================================
 576:d:/LiteOS_Lab/drivers/third_party/ST/STM32L4xx_HAL_Driver/Src\stm32l4xx_hal_uart.c ****                       ##### IO operation functions #####
 577:d:/LiteOS_Lab/drivers/third_party/ST/STM32L4xx_HAL_Driver/Src\stm32l4xx_hal_uart.c ****  ===============================================================================
 578:d:/LiteOS_Lab/drivers/third_party/ST/STM32L4xx_HAL_Driver/Src\stm32l4xx_hal_uart.c ****     This subsection provides a set of functions allowing to manage the UART asynchronous
 579:d:/LiteOS_Lab/drivers/third_party/ST/STM32L4xx_HAL_Driver/Src\stm32l4xx_hal_uart.c ****     and Half duplex data transfers.
 580:d:/LiteOS_Lab/drivers/third_party/ST/STM32L4xx_HAL_Driver/Src\stm32l4xx_hal_uart.c **** 
 581:d:/LiteOS_Lab/drivers/third_party/ST/STM32L4xx_HAL_Driver/Src\stm32l4xx_hal_uart.c ****     (#) There are two mode of transfer:
 582:d:/LiteOS_Lab/drivers/third_party/ST/STM32L4xx_HAL_Driver/Src\stm32l4xx_hal_uart.c ****        (+) Blocking mode: The communication is performed in polling mode.
 583:d:/LiteOS_Lab/drivers/third_party/ST/STM32L4xx_HAL_Driver/Src\stm32l4xx_hal_uart.c ****            The HAL status of all data processing is returned by the same function
 584:d:/LiteOS_Lab/drivers/third_party/ST/STM32L4xx_HAL_Driver/Src\stm32l4xx_hal_uart.c ****            after finishing transfer.
 585:d:/LiteOS_Lab/drivers/third_party/ST/STM32L4xx_HAL_Driver/Src\stm32l4xx_hal_uart.c ****        (+) Non-Blocking mode: The communication is performed using Interrupts
 586:d:/LiteOS_Lab/drivers/third_party/ST/STM32L4xx_HAL_Driver/Src\stm32l4xx_hal_uart.c ****            or DMA, These API's return the HAL status.
 587:d:/LiteOS_Lab/drivers/third_party/ST/STM32L4xx_HAL_Driver/Src\stm32l4xx_hal_uart.c ****            The end of the data processing will be indicated through the
 588:d:/LiteOS_Lab/drivers/third_party/ST/STM32L4xx_HAL_Driver/Src\stm32l4xx_hal_uart.c ****            dedicated UART IRQ when using Interrupt mode or the DMA IRQ when
 589:d:/LiteOS_Lab/drivers/third_party/ST/STM32L4xx_HAL_Driver/Src\stm32l4xx_hal_uart.c ****            using DMA mode.
 590:d:/LiteOS_Lab/drivers/third_party/ST/STM32L4xx_HAL_Driver/Src\stm32l4xx_hal_uart.c ****            The HAL_UART_TxCpltCallback(), HAL_UART_RxCpltCallback() user callbacks
 591:d:/LiteOS_Lab/drivers/third_party/ST/STM32L4xx_HAL_Driver/Src\stm32l4xx_hal_uart.c ****            will be executed respectively at the end of the transmit or Receive process
 592:d:/LiteOS_Lab/drivers/third_party/ST/STM32L4xx_HAL_Driver/Src\stm32l4xx_hal_uart.c ****            The HAL_UART_ErrorCallback()user callback will be executed when a communication error is
 593:d:/LiteOS_Lab/drivers/third_party/ST/STM32L4xx_HAL_Driver/Src\stm32l4xx_hal_uart.c **** 
 594:d:/LiteOS_Lab/drivers/third_party/ST/STM32L4xx_HAL_Driver/Src\stm32l4xx_hal_uart.c ****     (#) Blocking mode API's are :
 595:d:/LiteOS_Lab/drivers/third_party/ST/STM32L4xx_HAL_Driver/Src\stm32l4xx_hal_uart.c ****         (+) HAL_UART_Transmit()
 596:d:/LiteOS_Lab/drivers/third_party/ST/STM32L4xx_HAL_Driver/Src\stm32l4xx_hal_uart.c ****         (+) HAL_UART_Receive()
 597:d:/LiteOS_Lab/drivers/third_party/ST/STM32L4xx_HAL_Driver/Src\stm32l4xx_hal_uart.c **** 
 598:d:/LiteOS_Lab/drivers/third_party/ST/STM32L4xx_HAL_Driver/Src\stm32l4xx_hal_uart.c ****     (#) Non-Blocking mode API's with Interrupt are :
ARM GAS  C:\Users\ADMINI~1\AppData\Local\Temp\ccHDbRvY.s 			page 25


 599:d:/LiteOS_Lab/drivers/third_party/ST/STM32L4xx_HAL_Driver/Src\stm32l4xx_hal_uart.c ****         (+) HAL_UART_Transmit_IT()
 600:d:/LiteOS_Lab/drivers/third_party/ST/STM32L4xx_HAL_Driver/Src\stm32l4xx_hal_uart.c ****         (+) HAL_UART_Receive_IT()
 601:d:/LiteOS_Lab/drivers/third_party/ST/STM32L4xx_HAL_Driver/Src\stm32l4xx_hal_uart.c ****         (+) HAL_UART_IRQHandler()
 602:d:/LiteOS_Lab/drivers/third_party/ST/STM32L4xx_HAL_Driver/Src\stm32l4xx_hal_uart.c **** 
 603:d:/LiteOS_Lab/drivers/third_party/ST/STM32L4xx_HAL_Driver/Src\stm32l4xx_hal_uart.c ****     (#) Non-Blocking mode API's with DMA are :
 604:d:/LiteOS_Lab/drivers/third_party/ST/STM32L4xx_HAL_Driver/Src\stm32l4xx_hal_uart.c ****         (+) HAL_UART_Transmit_DMA()
 605:d:/LiteOS_Lab/drivers/third_party/ST/STM32L4xx_HAL_Driver/Src\stm32l4xx_hal_uart.c ****         (+) HAL_UART_Receive_DMA()
 606:d:/LiteOS_Lab/drivers/third_party/ST/STM32L4xx_HAL_Driver/Src\stm32l4xx_hal_uart.c ****         (+) HAL_UART_DMAPause()
 607:d:/LiteOS_Lab/drivers/third_party/ST/STM32L4xx_HAL_Driver/Src\stm32l4xx_hal_uart.c ****         (+) HAL_UART_DMAResume()
 608:d:/LiteOS_Lab/drivers/third_party/ST/STM32L4xx_HAL_Driver/Src\stm32l4xx_hal_uart.c ****         (+) HAL_UART_DMAStop()
 609:d:/LiteOS_Lab/drivers/third_party/ST/STM32L4xx_HAL_Driver/Src\stm32l4xx_hal_uart.c **** 
 610:d:/LiteOS_Lab/drivers/third_party/ST/STM32L4xx_HAL_Driver/Src\stm32l4xx_hal_uart.c ****     (#) A set of Transfer Complete Callbacks are provided in Non_Blocking mode:
 611:d:/LiteOS_Lab/drivers/third_party/ST/STM32L4xx_HAL_Driver/Src\stm32l4xx_hal_uart.c ****         (+) HAL_UART_TxHalfCpltCallback()
 612:d:/LiteOS_Lab/drivers/third_party/ST/STM32L4xx_HAL_Driver/Src\stm32l4xx_hal_uart.c ****         (+) HAL_UART_TxCpltCallback()
 613:d:/LiteOS_Lab/drivers/third_party/ST/STM32L4xx_HAL_Driver/Src\stm32l4xx_hal_uart.c ****         (+) HAL_UART_RxHalfCpltCallback()
 614:d:/LiteOS_Lab/drivers/third_party/ST/STM32L4xx_HAL_Driver/Src\stm32l4xx_hal_uart.c ****         (+) HAL_UART_RxCpltCallback()
 615:d:/LiteOS_Lab/drivers/third_party/ST/STM32L4xx_HAL_Driver/Src\stm32l4xx_hal_uart.c ****         (+) HAL_UART_ErrorCallback()
 616:d:/LiteOS_Lab/drivers/third_party/ST/STM32L4xx_HAL_Driver/Src\stm32l4xx_hal_uart.c **** 
 617:d:/LiteOS_Lab/drivers/third_party/ST/STM32L4xx_HAL_Driver/Src\stm32l4xx_hal_uart.c ****     (#) Non-Blocking mode transfers could be aborted using Abort API's :
 618:d:/LiteOS_Lab/drivers/third_party/ST/STM32L4xx_HAL_Driver/Src\stm32l4xx_hal_uart.c ****         (+) HAL_UART_Abort()
 619:d:/LiteOS_Lab/drivers/third_party/ST/STM32L4xx_HAL_Driver/Src\stm32l4xx_hal_uart.c ****         (+) HAL_UART_AbortTransmit()
 620:d:/LiteOS_Lab/drivers/third_party/ST/STM32L4xx_HAL_Driver/Src\stm32l4xx_hal_uart.c ****         (+) HAL_UART_AbortReceive()
 621:d:/LiteOS_Lab/drivers/third_party/ST/STM32L4xx_HAL_Driver/Src\stm32l4xx_hal_uart.c ****         (+) HAL_UART_Abort_IT()
 622:d:/LiteOS_Lab/drivers/third_party/ST/STM32L4xx_HAL_Driver/Src\stm32l4xx_hal_uart.c ****         (+) HAL_UART_AbortTransmit_IT()
 623:d:/LiteOS_Lab/drivers/third_party/ST/STM32L4xx_HAL_Driver/Src\stm32l4xx_hal_uart.c ****         (+) HAL_UART_AbortReceive_IT()
 624:d:/LiteOS_Lab/drivers/third_party/ST/STM32L4xx_HAL_Driver/Src\stm32l4xx_hal_uart.c **** 
 625:d:/LiteOS_Lab/drivers/third_party/ST/STM32L4xx_HAL_Driver/Src\stm32l4xx_hal_uart.c ****     (#) For Abort services based on interrupts (HAL_UART_Abortxxx_IT), a set of Abort Complete Call
 626:d:/LiteOS_Lab/drivers/third_party/ST/STM32L4xx_HAL_Driver/Src\stm32l4xx_hal_uart.c ****         (+) HAL_UART_AbortCpltCallback()
 627:d:/LiteOS_Lab/drivers/third_party/ST/STM32L4xx_HAL_Driver/Src\stm32l4xx_hal_uart.c ****         (+) HAL_UART_AbortTransmitCpltCallback()
 628:d:/LiteOS_Lab/drivers/third_party/ST/STM32L4xx_HAL_Driver/Src\stm32l4xx_hal_uart.c ****         (+) HAL_UART_AbortReceiveCpltCallback()
 629:d:/LiteOS_Lab/drivers/third_party/ST/STM32L4xx_HAL_Driver/Src\stm32l4xx_hal_uart.c **** 
 630:d:/LiteOS_Lab/drivers/third_party/ST/STM32L4xx_HAL_Driver/Src\stm32l4xx_hal_uart.c ****     (#) In Non-Blocking mode transfers, possible errors are split into 2 categories.
 631:d:/LiteOS_Lab/drivers/third_party/ST/STM32L4xx_HAL_Driver/Src\stm32l4xx_hal_uart.c ****         Errors are handled as follows :
 632:d:/LiteOS_Lab/drivers/third_party/ST/STM32L4xx_HAL_Driver/Src\stm32l4xx_hal_uart.c ****        (+) Error is considered as Recoverable and non blocking : Transfer could go till end, but er
 633:d:/LiteOS_Lab/drivers/third_party/ST/STM32L4xx_HAL_Driver/Src\stm32l4xx_hal_uart.c ****            to be evaluated by user : this concerns Frame Error, Parity Error or Noise Error in Inte
 634:d:/LiteOS_Lab/drivers/third_party/ST/STM32L4xx_HAL_Driver/Src\stm32l4xx_hal_uart.c ****            Received character is then retrieved and stored in Rx buffer, Error code is set to allow
 635:d:/LiteOS_Lab/drivers/third_party/ST/STM32L4xx_HAL_Driver/Src\stm32l4xx_hal_uart.c ****            and HAL_UART_ErrorCallback() user callback is executed. Transfer is kept ongoing on UART
 636:d:/LiteOS_Lab/drivers/third_party/ST/STM32L4xx_HAL_Driver/Src\stm32l4xx_hal_uart.c ****            If user wants to abort it, Abort services should be called by user.
 637:d:/LiteOS_Lab/drivers/third_party/ST/STM32L4xx_HAL_Driver/Src\stm32l4xx_hal_uart.c ****        (+) Error is considered as Blocking : Transfer could not be completed properly and is aborte
 638:d:/LiteOS_Lab/drivers/third_party/ST/STM32L4xx_HAL_Driver/Src\stm32l4xx_hal_uart.c ****            This concerns Overrun Error In Interrupt mode reception and all errors in DMA mode.
 639:d:/LiteOS_Lab/drivers/third_party/ST/STM32L4xx_HAL_Driver/Src\stm32l4xx_hal_uart.c ****            Error code is set to allow user to identify error type, and HAL_UART_ErrorCallback() use
 640:d:/LiteOS_Lab/drivers/third_party/ST/STM32L4xx_HAL_Driver/Src\stm32l4xx_hal_uart.c **** 
 641:d:/LiteOS_Lab/drivers/third_party/ST/STM32L4xx_HAL_Driver/Src\stm32l4xx_hal_uart.c ****     -@- In the Half duplex communication, it is forbidden to run the transmit
 642:d:/LiteOS_Lab/drivers/third_party/ST/STM32L4xx_HAL_Driver/Src\stm32l4xx_hal_uart.c ****         and receive process in parallel, the UART state HAL_UART_STATE_BUSY_TX_RX can't be useful.
 643:d:/LiteOS_Lab/drivers/third_party/ST/STM32L4xx_HAL_Driver/Src\stm32l4xx_hal_uart.c **** 
 644:d:/LiteOS_Lab/drivers/third_party/ST/STM32L4xx_HAL_Driver/Src\stm32l4xx_hal_uart.c **** @endverbatim
 645:d:/LiteOS_Lab/drivers/third_party/ST/STM32L4xx_HAL_Driver/Src\stm32l4xx_hal_uart.c ****   * @{
 646:d:/LiteOS_Lab/drivers/third_party/ST/STM32L4xx_HAL_Driver/Src\stm32l4xx_hal_uart.c ****   */
 647:d:/LiteOS_Lab/drivers/third_party/ST/STM32L4xx_HAL_Driver/Src\stm32l4xx_hal_uart.c **** 
 648:d:/LiteOS_Lab/drivers/third_party/ST/STM32L4xx_HAL_Driver/Src\stm32l4xx_hal_uart.c **** /**
 649:d:/LiteOS_Lab/drivers/third_party/ST/STM32L4xx_HAL_Driver/Src\stm32l4xx_hal_uart.c ****   * @brief Send an amount of data in blocking mode.
 650:d:/LiteOS_Lab/drivers/third_party/ST/STM32L4xx_HAL_Driver/Src\stm32l4xx_hal_uart.c ****   * @param huart: UART handle.
 651:d:/LiteOS_Lab/drivers/third_party/ST/STM32L4xx_HAL_Driver/Src\stm32l4xx_hal_uart.c ****   * @param pData: Pointer to data buffer.
 652:d:/LiteOS_Lab/drivers/third_party/ST/STM32L4xx_HAL_Driver/Src\stm32l4xx_hal_uart.c ****   * @param Size: Amount of data to be sent.
 653:d:/LiteOS_Lab/drivers/third_party/ST/STM32L4xx_HAL_Driver/Src\stm32l4xx_hal_uart.c ****   * @param Timeout: Timeout duration.
 654:d:/LiteOS_Lab/drivers/third_party/ST/STM32L4xx_HAL_Driver/Src\stm32l4xx_hal_uart.c ****   * @retval HAL status
 655:d:/LiteOS_Lab/drivers/third_party/ST/STM32L4xx_HAL_Driver/Src\stm32l4xx_hal_uart.c ****   */
ARM GAS  C:\Users\ADMINI~1\AppData\Local\Temp\ccHDbRvY.s 			page 26


 656:d:/LiteOS_Lab/drivers/third_party/ST/STM32L4xx_HAL_Driver/Src\stm32l4xx_hal_uart.c **** HAL_StatusTypeDef HAL_UART_Transmit(UART_HandleTypeDef *huart, uint8_t *pData, uint16_t Size, uint3
 657:d:/LiteOS_Lab/drivers/third_party/ST/STM32L4xx_HAL_Driver/Src\stm32l4xx_hal_uart.c **** {
 786              		.loc 1 657 1
 787              		.cfi_startproc
 788              		@ args = 0, pretend = 0, frame = 24
 789              		@ frame_needed = 1, uses_anonymous_args = 0
 790 0000 80B5     		push	{r7, lr}
 791              	.LCFI37:
 792              		.cfi_def_cfa_offset 8
 793              		.cfi_offset 7, -8
 794              		.cfi_offset 14, -4
 795 0002 88B0     		sub	sp, sp, #32
 796              	.LCFI38:
 797              		.cfi_def_cfa_offset 40
 798 0004 02AF     		add	r7, sp, #8
 799              	.LCFI39:
 800              		.cfi_def_cfa 7, 32
 801 0006 F860     		str	r0, [r7, #12]
 802 0008 B960     		str	r1, [r7, #8]
 803 000a 3B60     		str	r3, [r7]
 804 000c 1346     		mov	r3, r2	@ movhi
 805 000e FB80     		strh	r3, [r7, #6]	@ movhi
 658:d:/LiteOS_Lab/drivers/third_party/ST/STM32L4xx_HAL_Driver/Src\stm32l4xx_hal_uart.c ****   uint16_t* tmp;
 659:d:/LiteOS_Lab/drivers/third_party/ST/STM32L4xx_HAL_Driver/Src\stm32l4xx_hal_uart.c ****   uint32_t tickstart = 0;
 806              		.loc 1 659 12
 807 0010 0023     		movs	r3, #0
 808 0012 7B61     		str	r3, [r7, #20]
 660:d:/LiteOS_Lab/drivers/third_party/ST/STM32L4xx_HAL_Driver/Src\stm32l4xx_hal_uart.c **** 
 661:d:/LiteOS_Lab/drivers/third_party/ST/STM32L4xx_HAL_Driver/Src\stm32l4xx_hal_uart.c ****   /* Check that a Tx process is not already ongoing */
 662:d:/LiteOS_Lab/drivers/third_party/ST/STM32L4xx_HAL_Driver/Src\stm32l4xx_hal_uart.c ****   if(huart->gState == HAL_UART_STATE_READY || huart->gState == HAL_UART_STATE_BUSY_RX)
 809              		.loc 1 662 11
 810 0014 FB68     		ldr	r3, [r7, #12]
 811 0016 93F87130 		ldrb	r3, [r3, #113]
 812 001a DBB2     		uxtb	r3, r3
 813              		.loc 1 662 5
 814 001c 202B     		cmp	r3, #32
 815 001e 06D0     		beq	.L34
 816              		.loc 1 662 52 discriminator 1
 817 0020 FB68     		ldr	r3, [r7, #12]
 818 0022 93F87130 		ldrb	r3, [r3, #113]
 819 0026 DBB2     		uxtb	r3, r3
 820              		.loc 1 662 44 discriminator 1
 821 0028 222B     		cmp	r3, #34
 822 002a 40F08E80 		bne	.L35
 823              	.L34:
 663:d:/LiteOS_Lab/drivers/third_party/ST/STM32L4xx_HAL_Driver/Src\stm32l4xx_hal_uart.c ****   {
 664:d:/LiteOS_Lab/drivers/third_party/ST/STM32L4xx_HAL_Driver/Src\stm32l4xx_hal_uart.c ****     if((pData == NULL ) || (Size == 0))
 824              		.loc 1 664 7
 825 002e BB68     		ldr	r3, [r7, #8]
 826 0030 002B     		cmp	r3, #0
 827 0032 02D0     		beq	.L36
 828              		.loc 1 664 25 discriminator 1
 829 0034 FB88     		ldrh	r3, [r7, #6]
 830 0036 002B     		cmp	r3, #0
 831 0038 01D1     		bne	.L37
 832              	.L36:
 665:d:/LiteOS_Lab/drivers/third_party/ST/STM32L4xx_HAL_Driver/Src\stm32l4xx_hal_uart.c ****     {
ARM GAS  C:\Users\ADMINI~1\AppData\Local\Temp\ccHDbRvY.s 			page 27


 666:d:/LiteOS_Lab/drivers/third_party/ST/STM32L4xx_HAL_Driver/Src\stm32l4xx_hal_uart.c ****       return  HAL_ERROR;
 833              		.loc 1 666 15
 834 003a 0123     		movs	r3, #1
 835 003c 86E0     		b	.L38
 836              	.L37:
 667:d:/LiteOS_Lab/drivers/third_party/ST/STM32L4xx_HAL_Driver/Src\stm32l4xx_hal_uart.c ****     }
 668:d:/LiteOS_Lab/drivers/third_party/ST/STM32L4xx_HAL_Driver/Src\stm32l4xx_hal_uart.c **** 
 669:d:/LiteOS_Lab/drivers/third_party/ST/STM32L4xx_HAL_Driver/Src\stm32l4xx_hal_uart.c ****     /* Process Locked */
 670:d:/LiteOS_Lab/drivers/third_party/ST/STM32L4xx_HAL_Driver/Src\stm32l4xx_hal_uart.c ****     __HAL_LOCK(huart);
 837              		.loc 1 670 5
 838 003e FB68     		ldr	r3, [r7, #12]
 839 0040 93F87030 		ldrb	r3, [r3, #112]	@ zero_extendqisi2
 840 0044 012B     		cmp	r3, #1
 841 0046 01D1     		bne	.L39
 842              		.loc 1 670 5 is_stmt 0 discriminator 1
 843 0048 0223     		movs	r3, #2
 844 004a 7FE0     		b	.L38
 845              	.L39:
 846              		.loc 1 670 5 discriminator 2
 847 004c FB68     		ldr	r3, [r7, #12]
 848 004e 0122     		movs	r2, #1
 849 0050 83F87020 		strb	r2, [r3, #112]
 671:d:/LiteOS_Lab/drivers/third_party/ST/STM32L4xx_HAL_Driver/Src\stm32l4xx_hal_uart.c **** 
 672:d:/LiteOS_Lab/drivers/third_party/ST/STM32L4xx_HAL_Driver/Src\stm32l4xx_hal_uart.c ****     huart->ErrorCode = HAL_UART_ERROR_NONE;
 850              		.loc 1 672 22 is_stmt 1 discriminator 2
 851 0054 FB68     		ldr	r3, [r7, #12]
 852 0056 0022     		movs	r2, #0
 853 0058 5A67     		str	r2, [r3, #116]
 673:d:/LiteOS_Lab/drivers/third_party/ST/STM32L4xx_HAL_Driver/Src\stm32l4xx_hal_uart.c ****     
 674:d:/LiteOS_Lab/drivers/third_party/ST/STM32L4xx_HAL_Driver/Src\stm32l4xx_hal_uart.c ****     //huart->gState = HAL_UART_STATE_BUSY_TX;
 675:d:/LiteOS_Lab/drivers/third_party/ST/STM32L4xx_HAL_Driver/Src\stm32l4xx_hal_uart.c ****     if(huart->gState == HAL_UART_STATE_BUSY_RX)
 854              		.loc 1 675 13 discriminator 2
 855 005a FB68     		ldr	r3, [r7, #12]
 856 005c 93F87130 		ldrb	r3, [r3, #113]
 857 0060 DBB2     		uxtb	r3, r3
 858              		.loc 1 675 7 discriminator 2
 859 0062 222B     		cmp	r3, #34
 860 0064 04D1     		bne	.L40
 676:d:/LiteOS_Lab/drivers/third_party/ST/STM32L4xx_HAL_Driver/Src\stm32l4xx_hal_uart.c ****     {
 677:d:/LiteOS_Lab/drivers/third_party/ST/STM32L4xx_HAL_Driver/Src\stm32l4xx_hal_uart.c ****         huart->gState = HAL_UART_STATE_BUSY_TX_RX;
 861              		.loc 1 677 23
 862 0066 FB68     		ldr	r3, [r7, #12]
 863 0068 2322     		movs	r2, #35
 864 006a 83F87120 		strb	r2, [r3, #113]
 865 006e 03E0     		b	.L41
 866              	.L40:
 678:d:/LiteOS_Lab/drivers/third_party/ST/STM32L4xx_HAL_Driver/Src\stm32l4xx_hal_uart.c ****     }
 679:d:/LiteOS_Lab/drivers/third_party/ST/STM32L4xx_HAL_Driver/Src\stm32l4xx_hal_uart.c ****     else
 680:d:/LiteOS_Lab/drivers/third_party/ST/STM32L4xx_HAL_Driver/Src\stm32l4xx_hal_uart.c ****     {
 681:d:/LiteOS_Lab/drivers/third_party/ST/STM32L4xx_HAL_Driver/Src\stm32l4xx_hal_uart.c ****         huart->gState = HAL_UART_STATE_BUSY_TX;
 867              		.loc 1 681 23
 868 0070 FB68     		ldr	r3, [r7, #12]
 869 0072 2122     		movs	r2, #33
 870 0074 83F87120 		strb	r2, [r3, #113]
 871              	.L41:
 682:d:/LiteOS_Lab/drivers/third_party/ST/STM32L4xx_HAL_Driver/Src\stm32l4xx_hal_uart.c ****     }
 683:d:/LiteOS_Lab/drivers/third_party/ST/STM32L4xx_HAL_Driver/Src\stm32l4xx_hal_uart.c ****     
ARM GAS  C:\Users\ADMINI~1\AppData\Local\Temp\ccHDbRvY.s 			page 28


 684:d:/LiteOS_Lab/drivers/third_party/ST/STM32L4xx_HAL_Driver/Src\stm32l4xx_hal_uart.c ****     /* Init tickstart for timeout managment*/
 685:d:/LiteOS_Lab/drivers/third_party/ST/STM32L4xx_HAL_Driver/Src\stm32l4xx_hal_uart.c ****     tickstart = HAL_GetTick();
 872              		.loc 1 685 17
 873 0078 FFF7FEFF 		bl	HAL_GetTick
 874 007c 7861     		str	r0, [r7, #20]
 686:d:/LiteOS_Lab/drivers/third_party/ST/STM32L4xx_HAL_Driver/Src\stm32l4xx_hal_uart.c **** 
 687:d:/LiteOS_Lab/drivers/third_party/ST/STM32L4xx_HAL_Driver/Src\stm32l4xx_hal_uart.c ****     huart->TxXferSize = Size;
 875              		.loc 1 687 23
 876 007e FB68     		ldr	r3, [r7, #12]
 877 0080 FA88     		ldrh	r2, [r7, #6]	@ movhi
 878 0082 A3F85020 		strh	r2, [r3, #80]	@ movhi
 688:d:/LiteOS_Lab/drivers/third_party/ST/STM32L4xx_HAL_Driver/Src\stm32l4xx_hal_uart.c ****     huart->TxXferCount = Size;
 879              		.loc 1 688 24
 880 0086 FB68     		ldr	r3, [r7, #12]
 881 0088 FA88     		ldrh	r2, [r7, #6]	@ movhi
 882 008a A3F85220 		strh	r2, [r3, #82]	@ movhi
 689:d:/LiteOS_Lab/drivers/third_party/ST/STM32L4xx_HAL_Driver/Src\stm32l4xx_hal_uart.c ****     while(huart->TxXferCount > 0)
 883              		.loc 1 689 10
 884 008e 34E0     		b	.L42
 885              	.L45:
 690:d:/LiteOS_Lab/drivers/third_party/ST/STM32L4xx_HAL_Driver/Src\stm32l4xx_hal_uart.c ****     {
 691:d:/LiteOS_Lab/drivers/third_party/ST/STM32L4xx_HAL_Driver/Src\stm32l4xx_hal_uart.c ****       huart->TxXferCount--;
 886              		.loc 1 691 12
 887 0090 FB68     		ldr	r3, [r7, #12]
 888 0092 B3F85230 		ldrh	r3, [r3, #82]	@ movhi
 889 0096 9BB2     		uxth	r3, r3
 890              		.loc 1 691 25
 891 0098 013B     		subs	r3, r3, #1
 892 009a 9AB2     		uxth	r2, r3
 893 009c FB68     		ldr	r3, [r7, #12]
 894 009e A3F85220 		strh	r2, [r3, #82]	@ movhi
 692:d:/LiteOS_Lab/drivers/third_party/ST/STM32L4xx_HAL_Driver/Src\stm32l4xx_hal_uart.c ****       if(UART_WaitOnFlagUntilTimeout(huart, UART_FLAG_TXE, RESET, tickstart, Timeout) != HAL_OK)
 895              		.loc 1 692 10
 896 00a2 3B68     		ldr	r3, [r7]
 897 00a4 0093     		str	r3, [sp]
 898 00a6 7B69     		ldr	r3, [r7, #20]
 899 00a8 0022     		movs	r2, #0
 900 00aa 8021     		movs	r1, #128
 901 00ac F868     		ldr	r0, [r7, #12]
 902 00ae FFF7FEFF 		bl	UART_WaitOnFlagUntilTimeout
 903 00b2 0346     		mov	r3, r0
 904              		.loc 1 692 9
 905 00b4 002B     		cmp	r3, #0
 906 00b6 01D0     		beq	.L43
 693:d:/LiteOS_Lab/drivers/third_party/ST/STM32L4xx_HAL_Driver/Src\stm32l4xx_hal_uart.c ****       {
 694:d:/LiteOS_Lab/drivers/third_party/ST/STM32L4xx_HAL_Driver/Src\stm32l4xx_hal_uart.c ****         return HAL_TIMEOUT;
 907              		.loc 1 694 16
 908 00b8 0323     		movs	r3, #3
 909 00ba 47E0     		b	.L38
 910              	.L43:
 695:d:/LiteOS_Lab/drivers/third_party/ST/STM32L4xx_HAL_Driver/Src\stm32l4xx_hal_uart.c ****       }
 696:d:/LiteOS_Lab/drivers/third_party/ST/STM32L4xx_HAL_Driver/Src\stm32l4xx_hal_uart.c ****       if ((huart->Init.WordLength == UART_WORDLENGTH_9B) && (huart->Init.Parity == UART_PARITY_NONE
 911              		.loc 1 696 23
 912 00bc FB68     		ldr	r3, [r7, #12]
 913 00be 9B68     		ldr	r3, [r3, #8]
 914              		.loc 1 696 10
 915 00c0 B3F5805F 		cmp	r3, #4096
ARM GAS  C:\Users\ADMINI~1\AppData\Local\Temp\ccHDbRvY.s 			page 29


 916 00c4 11D1     		bne	.L44
 917              		.loc 1 696 73 discriminator 1
 918 00c6 FB68     		ldr	r3, [r7, #12]
 919 00c8 1B69     		ldr	r3, [r3, #16]
 920              		.loc 1 696 58 discriminator 1
 921 00ca 002B     		cmp	r3, #0
 922 00cc 0DD1     		bne	.L44
 697:d:/LiteOS_Lab/drivers/third_party/ST/STM32L4xx_HAL_Driver/Src\stm32l4xx_hal_uart.c ****       {
 698:d:/LiteOS_Lab/drivers/third_party/ST/STM32L4xx_HAL_Driver/Src\stm32l4xx_hal_uart.c ****         tmp = (uint16_t*) pData;
 923              		.loc 1 698 13
 924 00ce BB68     		ldr	r3, [r7, #8]
 925 00d0 3B61     		str	r3, [r7, #16]
 699:d:/LiteOS_Lab/drivers/third_party/ST/STM32L4xx_HAL_Driver/Src\stm32l4xx_hal_uart.c ****         huart->Instance->TDR = (*tmp & (uint16_t)0x01FF);
 926              		.loc 1 699 38
 927 00d2 3B69     		ldr	r3, [r7, #16]
 928 00d4 1A88     		ldrh	r2, [r3]
 929              		.loc 1 699 14
 930 00d6 FB68     		ldr	r3, [r7, #12]
 931 00d8 1B68     		ldr	r3, [r3]
 932              		.loc 1 699 38
 933 00da C2F30802 		ubfx	r2, r2, #0, #9
 934 00de 92B2     		uxth	r2, r2
 935              		.loc 1 699 30
 936 00e0 1A85     		strh	r2, [r3, #40]	@ movhi
 700:d:/LiteOS_Lab/drivers/third_party/ST/STM32L4xx_HAL_Driver/Src\stm32l4xx_hal_uart.c ****         pData += 2;
 937              		.loc 1 700 15
 938 00e2 BB68     		ldr	r3, [r7, #8]
 939 00e4 0233     		adds	r3, r3, #2
 940 00e6 BB60     		str	r3, [r7, #8]
 941 00e8 07E0     		b	.L42
 942              	.L44:
 701:d:/LiteOS_Lab/drivers/third_party/ST/STM32L4xx_HAL_Driver/Src\stm32l4xx_hal_uart.c ****       }
 702:d:/LiteOS_Lab/drivers/third_party/ST/STM32L4xx_HAL_Driver/Src\stm32l4xx_hal_uart.c ****       else
 703:d:/LiteOS_Lab/drivers/third_party/ST/STM32L4xx_HAL_Driver/Src\stm32l4xx_hal_uart.c ****       {
 704:d:/LiteOS_Lab/drivers/third_party/ST/STM32L4xx_HAL_Driver/Src\stm32l4xx_hal_uart.c ****         huart->Instance->TDR = (*pData++ & (uint8_t)0xFF);
 943              		.loc 1 704 39
 944 00ea BB68     		ldr	r3, [r7, #8]
 945 00ec 5A1C     		adds	r2, r3, #1
 946 00ee BA60     		str	r2, [r7, #8]
 947              		.loc 1 704 33
 948 00f0 1A78     		ldrb	r2, [r3]	@ zero_extendqisi2
 949              		.loc 1 704 14
 950 00f2 FB68     		ldr	r3, [r7, #12]
 951 00f4 1B68     		ldr	r3, [r3]
 952              		.loc 1 704 33
 953 00f6 92B2     		uxth	r2, r2
 954              		.loc 1 704 30
 955 00f8 1A85     		strh	r2, [r3, #40]	@ movhi
 956              	.L42:
 689:d:/LiteOS_Lab/drivers/third_party/ST/STM32L4xx_HAL_Driver/Src\stm32l4xx_hal_uart.c ****     {
 957              		.loc 1 689 16
 958 00fa FB68     		ldr	r3, [r7, #12]
 959 00fc B3F85230 		ldrh	r3, [r3, #82]	@ movhi
 960 0100 9BB2     		uxth	r3, r3
 689:d:/LiteOS_Lab/drivers/third_party/ST/STM32L4xx_HAL_Driver/Src\stm32l4xx_hal_uart.c ****     {
 961              		.loc 1 689 10
 962 0102 002B     		cmp	r3, #0
ARM GAS  C:\Users\ADMINI~1\AppData\Local\Temp\ccHDbRvY.s 			page 30


 963 0104 C4D1     		bne	.L45
 705:d:/LiteOS_Lab/drivers/third_party/ST/STM32L4xx_HAL_Driver/Src\stm32l4xx_hal_uart.c ****       }
 706:d:/LiteOS_Lab/drivers/third_party/ST/STM32L4xx_HAL_Driver/Src\stm32l4xx_hal_uart.c ****     }
 707:d:/LiteOS_Lab/drivers/third_party/ST/STM32L4xx_HAL_Driver/Src\stm32l4xx_hal_uart.c ****     if(UART_WaitOnFlagUntilTimeout(huart, UART_FLAG_TC, RESET, tickstart, Timeout) != HAL_OK)
 964              		.loc 1 707 8
 965 0106 3B68     		ldr	r3, [r7]
 966 0108 0093     		str	r3, [sp]
 967 010a 7B69     		ldr	r3, [r7, #20]
 968 010c 0022     		movs	r2, #0
 969 010e 4021     		movs	r1, #64
 970 0110 F868     		ldr	r0, [r7, #12]
 971 0112 FFF7FEFF 		bl	UART_WaitOnFlagUntilTimeout
 972 0116 0346     		mov	r3, r0
 973              		.loc 1 707 7
 974 0118 002B     		cmp	r3, #0
 975 011a 01D0     		beq	.L46
 708:d:/LiteOS_Lab/drivers/third_party/ST/STM32L4xx_HAL_Driver/Src\stm32l4xx_hal_uart.c ****     {
 709:d:/LiteOS_Lab/drivers/third_party/ST/STM32L4xx_HAL_Driver/Src\stm32l4xx_hal_uart.c ****       return HAL_TIMEOUT;
 976              		.loc 1 709 14
 977 011c 0323     		movs	r3, #3
 978 011e 15E0     		b	.L38
 979              	.L46:
 710:d:/LiteOS_Lab/drivers/third_party/ST/STM32L4xx_HAL_Driver/Src\stm32l4xx_hal_uart.c ****     }
 711:d:/LiteOS_Lab/drivers/third_party/ST/STM32L4xx_HAL_Driver/Src\stm32l4xx_hal_uart.c **** 
 712:d:/LiteOS_Lab/drivers/third_party/ST/STM32L4xx_HAL_Driver/Src\stm32l4xx_hal_uart.c ****     /* At end of Tx process, restore huart->gState to Ready */
 713:d:/LiteOS_Lab/drivers/third_party/ST/STM32L4xx_HAL_Driver/Src\stm32l4xx_hal_uart.c ****     if(huart->gState == HAL_UART_STATE_BUSY_TX_RX)
 980              		.loc 1 713 13
 981 0120 FB68     		ldr	r3, [r7, #12]
 982 0122 93F87130 		ldrb	r3, [r3, #113]
 983 0126 DBB2     		uxtb	r3, r3
 984              		.loc 1 713 7
 985 0128 232B     		cmp	r3, #35
 986 012a 04D1     		bne	.L47
 714:d:/LiteOS_Lab/drivers/third_party/ST/STM32L4xx_HAL_Driver/Src\stm32l4xx_hal_uart.c ****     {
 715:d:/LiteOS_Lab/drivers/third_party/ST/STM32L4xx_HAL_Driver/Src\stm32l4xx_hal_uart.c ****         huart->gState = HAL_UART_STATE_BUSY_RX;
 987              		.loc 1 715 23
 988 012c FB68     		ldr	r3, [r7, #12]
 989 012e 2222     		movs	r2, #34
 990 0130 83F87120 		strb	r2, [r3, #113]
 991 0134 03E0     		b	.L48
 992              	.L47:
 716:d:/LiteOS_Lab/drivers/third_party/ST/STM32L4xx_HAL_Driver/Src\stm32l4xx_hal_uart.c ****     }
 717:d:/LiteOS_Lab/drivers/third_party/ST/STM32L4xx_HAL_Driver/Src\stm32l4xx_hal_uart.c ****     else
 718:d:/LiteOS_Lab/drivers/third_party/ST/STM32L4xx_HAL_Driver/Src\stm32l4xx_hal_uart.c ****     {
 719:d:/LiteOS_Lab/drivers/third_party/ST/STM32L4xx_HAL_Driver/Src\stm32l4xx_hal_uart.c ****         huart->gState = HAL_UART_STATE_READY;
 993              		.loc 1 719 23
 994 0136 FB68     		ldr	r3, [r7, #12]
 995 0138 2022     		movs	r2, #32
 996 013a 83F87120 		strb	r2, [r3, #113]
 997              	.L48:
 720:d:/LiteOS_Lab/drivers/third_party/ST/STM32L4xx_HAL_Driver/Src\stm32l4xx_hal_uart.c ****     }
 721:d:/LiteOS_Lab/drivers/third_party/ST/STM32L4xx_HAL_Driver/Src\stm32l4xx_hal_uart.c **** 
 722:d:/LiteOS_Lab/drivers/third_party/ST/STM32L4xx_HAL_Driver/Src\stm32l4xx_hal_uart.c ****     /* Process Unlocked */
 723:d:/LiteOS_Lab/drivers/third_party/ST/STM32L4xx_HAL_Driver/Src\stm32l4xx_hal_uart.c ****     __HAL_UNLOCK(huart);
 998              		.loc 1 723 5
 999 013e FB68     		ldr	r3, [r7, #12]
 1000 0140 0022     		movs	r2, #0
ARM GAS  C:\Users\ADMINI~1\AppData\Local\Temp\ccHDbRvY.s 			page 31


 1001 0142 83F87020 		strb	r2, [r3, #112]
 724:d:/LiteOS_Lab/drivers/third_party/ST/STM32L4xx_HAL_Driver/Src\stm32l4xx_hal_uart.c **** 
 725:d:/LiteOS_Lab/drivers/third_party/ST/STM32L4xx_HAL_Driver/Src\stm32l4xx_hal_uart.c ****     return HAL_OK;
 1002              		.loc 1 725 12
 1003 0146 0023     		movs	r3, #0
 1004 0148 00E0     		b	.L38
 1005              	.L35:
 726:d:/LiteOS_Lab/drivers/third_party/ST/STM32L4xx_HAL_Driver/Src\stm32l4xx_hal_uart.c ****   }
 727:d:/LiteOS_Lab/drivers/third_party/ST/STM32L4xx_HAL_Driver/Src\stm32l4xx_hal_uart.c ****   else
 728:d:/LiteOS_Lab/drivers/third_party/ST/STM32L4xx_HAL_Driver/Src\stm32l4xx_hal_uart.c ****   {
 729:d:/LiteOS_Lab/drivers/third_party/ST/STM32L4xx_HAL_Driver/Src\stm32l4xx_hal_uart.c ****     return HAL_BUSY;
 1006              		.loc 1 729 12
 1007 014a 0223     		movs	r3, #2
 1008              	.L38:
 730:d:/LiteOS_Lab/drivers/third_party/ST/STM32L4xx_HAL_Driver/Src\stm32l4xx_hal_uart.c ****   }
 731:d:/LiteOS_Lab/drivers/third_party/ST/STM32L4xx_HAL_Driver/Src\stm32l4xx_hal_uart.c **** }
 1009              		.loc 1 731 1
 1010 014c 1846     		mov	r0, r3
 1011 014e 1837     		adds	r7, r7, #24
 1012              	.LCFI40:
 1013              		.cfi_def_cfa_offset 8
 1014 0150 BD46     		mov	sp, r7
 1015              	.LCFI41:
 1016              		.cfi_def_cfa_register 13
 1017              		@ sp needed
 1018 0152 80BD     		pop	{r7, pc}
 1019              		.cfi_endproc
 1020              	.LFE294:
 1022              		.section	.text.HAL_UART_Receive,"ax",%progbits
 1023              		.align	1
 1024              		.global	HAL_UART_Receive
 1025              		.syntax unified
 1026              		.thumb
 1027              		.thumb_func
 1028              		.fpu fpv4-sp-d16
 1030              	HAL_UART_Receive:
 1031              	.LFB295:
 732:d:/LiteOS_Lab/drivers/third_party/ST/STM32L4xx_HAL_Driver/Src\stm32l4xx_hal_uart.c **** 
 733:d:/LiteOS_Lab/drivers/third_party/ST/STM32L4xx_HAL_Driver/Src\stm32l4xx_hal_uart.c **** /**
 734:d:/LiteOS_Lab/drivers/third_party/ST/STM32L4xx_HAL_Driver/Src\stm32l4xx_hal_uart.c ****   * @brief Receive an amount of data in blocking mode.
 735:d:/LiteOS_Lab/drivers/third_party/ST/STM32L4xx_HAL_Driver/Src\stm32l4xx_hal_uart.c ****   * @param huart: UART handle.
 736:d:/LiteOS_Lab/drivers/third_party/ST/STM32L4xx_HAL_Driver/Src\stm32l4xx_hal_uart.c ****   * @param pData: pointer to data buffer.
 737:d:/LiteOS_Lab/drivers/third_party/ST/STM32L4xx_HAL_Driver/Src\stm32l4xx_hal_uart.c ****   * @param Size: amount of data to be received.
 738:d:/LiteOS_Lab/drivers/third_party/ST/STM32L4xx_HAL_Driver/Src\stm32l4xx_hal_uart.c ****   * @param Timeout: Timeout duration.
 739:d:/LiteOS_Lab/drivers/third_party/ST/STM32L4xx_HAL_Driver/Src\stm32l4xx_hal_uart.c ****   * @retval HAL status
 740:d:/LiteOS_Lab/drivers/third_party/ST/STM32L4xx_HAL_Driver/Src\stm32l4xx_hal_uart.c ****   */
 741:d:/LiteOS_Lab/drivers/third_party/ST/STM32L4xx_HAL_Driver/Src\stm32l4xx_hal_uart.c **** HAL_StatusTypeDef HAL_UART_Receive(UART_HandleTypeDef *huart, uint8_t *pData, uint16_t Size, uint32
 742:d:/LiteOS_Lab/drivers/third_party/ST/STM32L4xx_HAL_Driver/Src\stm32l4xx_hal_uart.c **** {
 1032              		.loc 1 742 1
 1033              		.cfi_startproc
 1034              		@ args = 0, pretend = 0, frame = 32
 1035              		@ frame_needed = 1, uses_anonymous_args = 0
 1036 0000 80B5     		push	{r7, lr}
 1037              	.LCFI42:
 1038              		.cfi_def_cfa_offset 8
 1039              		.cfi_offset 7, -8
 1040              		.cfi_offset 14, -4
ARM GAS  C:\Users\ADMINI~1\AppData\Local\Temp\ccHDbRvY.s 			page 32


 1041 0002 8AB0     		sub	sp, sp, #40
 1042              	.LCFI43:
 1043              		.cfi_def_cfa_offset 48
 1044 0004 02AF     		add	r7, sp, #8
 1045              	.LCFI44:
 1046              		.cfi_def_cfa 7, 40
 1047 0006 F860     		str	r0, [r7, #12]
 1048 0008 B960     		str	r1, [r7, #8]
 1049 000a 3B60     		str	r3, [r7]
 1050 000c 1346     		mov	r3, r2	@ movhi
 1051 000e FB80     		strh	r3, [r7, #6]	@ movhi
 743:d:/LiteOS_Lab/drivers/third_party/ST/STM32L4xx_HAL_Driver/Src\stm32l4xx_hal_uart.c ****   uint16_t* tmp;
 744:d:/LiteOS_Lab/drivers/third_party/ST/STM32L4xx_HAL_Driver/Src\stm32l4xx_hal_uart.c ****   uint16_t uhMask;
 745:d:/LiteOS_Lab/drivers/third_party/ST/STM32L4xx_HAL_Driver/Src\stm32l4xx_hal_uart.c ****   uint32_t tickstart = 0;
 1052              		.loc 1 745 12
 1053 0010 0023     		movs	r3, #0
 1054 0012 FB61     		str	r3, [r7, #28]
 746:d:/LiteOS_Lab/drivers/third_party/ST/STM32L4xx_HAL_Driver/Src\stm32l4xx_hal_uart.c **** 
 747:d:/LiteOS_Lab/drivers/third_party/ST/STM32L4xx_HAL_Driver/Src\stm32l4xx_hal_uart.c ****   /* Check that a Rx process is not already ongoing */
 748:d:/LiteOS_Lab/drivers/third_party/ST/STM32L4xx_HAL_Driver/Src\stm32l4xx_hal_uart.c ****   if(huart->RxState == HAL_UART_STATE_READY)
 1055              		.loc 1 748 11
 1056 0014 FB68     		ldr	r3, [r7, #12]
 1057 0016 93F87230 		ldrb	r3, [r3, #114]
 1058 001a DBB2     		uxtb	r3, r3
 1059              		.loc 1 748 5
 1060 001c 202B     		cmp	r3, #32
 1061 001e 40F0AD80 		bne	.L50
 749:d:/LiteOS_Lab/drivers/third_party/ST/STM32L4xx_HAL_Driver/Src\stm32l4xx_hal_uart.c ****   {
 750:d:/LiteOS_Lab/drivers/third_party/ST/STM32L4xx_HAL_Driver/Src\stm32l4xx_hal_uart.c ****     if((pData == NULL ) || (Size == 0))
 1062              		.loc 1 750 7
 1063 0022 BB68     		ldr	r3, [r7, #8]
 1064 0024 002B     		cmp	r3, #0
 1065 0026 02D0     		beq	.L51
 1066              		.loc 1 750 25 discriminator 1
 1067 0028 FB88     		ldrh	r3, [r7, #6]
 1068 002a 002B     		cmp	r3, #0
 1069 002c 01D1     		bne	.L52
 1070              	.L51:
 751:d:/LiteOS_Lab/drivers/third_party/ST/STM32L4xx_HAL_Driver/Src\stm32l4xx_hal_uart.c ****     {
 752:d:/LiteOS_Lab/drivers/third_party/ST/STM32L4xx_HAL_Driver/Src\stm32l4xx_hal_uart.c ****       return  HAL_ERROR;
 1071              		.loc 1 752 15
 1072 002e 0123     		movs	r3, #1
 1073 0030 A5E0     		b	.L53
 1074              	.L52:
 753:d:/LiteOS_Lab/drivers/third_party/ST/STM32L4xx_HAL_Driver/Src\stm32l4xx_hal_uart.c ****     }
 754:d:/LiteOS_Lab/drivers/third_party/ST/STM32L4xx_HAL_Driver/Src\stm32l4xx_hal_uart.c **** 
 755:d:/LiteOS_Lab/drivers/third_party/ST/STM32L4xx_HAL_Driver/Src\stm32l4xx_hal_uart.c ****     /* Process Locked */
 756:d:/LiteOS_Lab/drivers/third_party/ST/STM32L4xx_HAL_Driver/Src\stm32l4xx_hal_uart.c ****     __HAL_LOCK(huart);
 1075              		.loc 1 756 5
 1076 0032 FB68     		ldr	r3, [r7, #12]
 1077 0034 93F87030 		ldrb	r3, [r3, #112]	@ zero_extendqisi2
 1078 0038 012B     		cmp	r3, #1
 1079 003a 01D1     		bne	.L54
 1080              		.loc 1 756 5 is_stmt 0 discriminator 1
 1081 003c 0223     		movs	r3, #2
 1082 003e 9EE0     		b	.L53
 1083              	.L54:
ARM GAS  C:\Users\ADMINI~1\AppData\Local\Temp\ccHDbRvY.s 			page 33


 1084              		.loc 1 756 5 discriminator 2
 1085 0040 FB68     		ldr	r3, [r7, #12]
 1086 0042 0122     		movs	r2, #1
 1087 0044 83F87020 		strb	r2, [r3, #112]
 757:d:/LiteOS_Lab/drivers/third_party/ST/STM32L4xx_HAL_Driver/Src\stm32l4xx_hal_uart.c **** 
 758:d:/LiteOS_Lab/drivers/third_party/ST/STM32L4xx_HAL_Driver/Src\stm32l4xx_hal_uart.c ****     huart->ErrorCode = HAL_UART_ERROR_NONE;
 1088              		.loc 1 758 22 is_stmt 1 discriminator 2
 1089 0048 FB68     		ldr	r3, [r7, #12]
 1090 004a 0022     		movs	r2, #0
 1091 004c 5A67     		str	r2, [r3, #116]
 759:d:/LiteOS_Lab/drivers/third_party/ST/STM32L4xx_HAL_Driver/Src\stm32l4xx_hal_uart.c ****     huart->RxState = HAL_UART_STATE_BUSY_RX;
 1092              		.loc 1 759 20 discriminator 2
 1093 004e FB68     		ldr	r3, [r7, #12]
 1094 0050 2222     		movs	r2, #34
 1095 0052 83F87220 		strb	r2, [r3, #114]
 760:d:/LiteOS_Lab/drivers/third_party/ST/STM32L4xx_HAL_Driver/Src\stm32l4xx_hal_uart.c **** 
 761:d:/LiteOS_Lab/drivers/third_party/ST/STM32L4xx_HAL_Driver/Src\stm32l4xx_hal_uart.c ****     /* Init tickstart for timeout managment*/
 762:d:/LiteOS_Lab/drivers/third_party/ST/STM32L4xx_HAL_Driver/Src\stm32l4xx_hal_uart.c ****     tickstart = HAL_GetTick();
 1096              		.loc 1 762 17 discriminator 2
 1097 0056 FFF7FEFF 		bl	HAL_GetTick
 1098 005a F861     		str	r0, [r7, #28]
 763:d:/LiteOS_Lab/drivers/third_party/ST/STM32L4xx_HAL_Driver/Src\stm32l4xx_hal_uart.c **** 
 764:d:/LiteOS_Lab/drivers/third_party/ST/STM32L4xx_HAL_Driver/Src\stm32l4xx_hal_uart.c ****     huart->RxXferSize = Size;
 1099              		.loc 1 764 23 discriminator 2
 1100 005c FB68     		ldr	r3, [r7, #12]
 1101 005e FA88     		ldrh	r2, [r7, #6]	@ movhi
 1102 0060 A3F85820 		strh	r2, [r3, #88]	@ movhi
 765:d:/LiteOS_Lab/drivers/third_party/ST/STM32L4xx_HAL_Driver/Src\stm32l4xx_hal_uart.c ****     huart->RxXferCount = Size;
 1103              		.loc 1 765 24 discriminator 2
 1104 0064 FB68     		ldr	r3, [r7, #12]
 1105 0066 FA88     		ldrh	r2, [r7, #6]	@ movhi
 1106 0068 A3F85A20 		strh	r2, [r3, #90]	@ movhi
 766:d:/LiteOS_Lab/drivers/third_party/ST/STM32L4xx_HAL_Driver/Src\stm32l4xx_hal_uart.c **** 
 767:d:/LiteOS_Lab/drivers/third_party/ST/STM32L4xx_HAL_Driver/Src\stm32l4xx_hal_uart.c ****     /* Computation of UART mask to apply to RDR register */
 768:d:/LiteOS_Lab/drivers/third_party/ST/STM32L4xx_HAL_Driver/Src\stm32l4xx_hal_uart.c ****     UART_MASK_COMPUTATION(huart);
 1107              		.loc 1 768 5 discriminator 2
 1108 006c FB68     		ldr	r3, [r7, #12]
 1109 006e 9B68     		ldr	r3, [r3, #8]
 1110 0070 B3F5805F 		cmp	r3, #4096
 1111 0074 0ED1     		bne	.L55
 1112              		.loc 1 768 5 is_stmt 0 discriminator 1
 1113 0076 FB68     		ldr	r3, [r7, #12]
 1114 0078 1B69     		ldr	r3, [r3, #16]
 1115 007a 002B     		cmp	r3, #0
 1116 007c 05D1     		bne	.L56
 1117              		.loc 1 768 5 discriminator 3
 1118 007e FB68     		ldr	r3, [r7, #12]
 1119 0080 40F2FF12 		movw	r2, #511
 1120 0084 A3F85C20 		strh	r2, [r3, #92]	@ movhi
 1121 0088 28E0     		b	.L57
 1122              	.L56:
 1123              		.loc 1 768 5 discriminator 4
 1124 008a FB68     		ldr	r3, [r7, #12]
 1125 008c FF22     		movs	r2, #255
 1126 008e A3F85C20 		strh	r2, [r3, #92]	@ movhi
 1127 0092 23E0     		b	.L57
 1128              	.L55:
ARM GAS  C:\Users\ADMINI~1\AppData\Local\Temp\ccHDbRvY.s 			page 34


 1129              		.loc 1 768 5 discriminator 2
 1130 0094 FB68     		ldr	r3, [r7, #12]
 1131 0096 9B68     		ldr	r3, [r3, #8]
 1132 0098 002B     		cmp	r3, #0
 1133 009a 0DD1     		bne	.L58
 1134              		.loc 1 768 5 discriminator 5
 1135 009c FB68     		ldr	r3, [r7, #12]
 1136 009e 1B69     		ldr	r3, [r3, #16]
 1137 00a0 002B     		cmp	r3, #0
 1138 00a2 04D1     		bne	.L59
 1139              		.loc 1 768 5 discriminator 7
 1140 00a4 FB68     		ldr	r3, [r7, #12]
 1141 00a6 FF22     		movs	r2, #255
 1142 00a8 A3F85C20 		strh	r2, [r3, #92]	@ movhi
 1143 00ac 16E0     		b	.L57
 1144              	.L59:
 1145              		.loc 1 768 5 discriminator 8
 1146 00ae FB68     		ldr	r3, [r7, #12]
 1147 00b0 7F22     		movs	r2, #127
 1148 00b2 A3F85C20 		strh	r2, [r3, #92]	@ movhi
 1149 00b6 11E0     		b	.L57
 1150              	.L58:
 1151              		.loc 1 768 5 discriminator 6
 1152 00b8 FB68     		ldr	r3, [r7, #12]
 1153 00ba 9B68     		ldr	r3, [r3, #8]
 1154 00bc B3F1805F 		cmp	r3, #268435456
 1155 00c0 0CD1     		bne	.L57
 1156              		.loc 1 768 5 discriminator 9
 1157 00c2 FB68     		ldr	r3, [r7, #12]
 1158 00c4 1B69     		ldr	r3, [r3, #16]
 1159 00c6 002B     		cmp	r3, #0
 1160 00c8 04D1     		bne	.L60
 1161              		.loc 1 768 5 discriminator 10
 1162 00ca FB68     		ldr	r3, [r7, #12]
 1163 00cc 7F22     		movs	r2, #127
 1164 00ce A3F85C20 		strh	r2, [r3, #92]	@ movhi
 1165 00d2 03E0     		b	.L57
 1166              	.L60:
 1167              		.loc 1 768 5 discriminator 11
 1168 00d4 FB68     		ldr	r3, [r7, #12]
 1169 00d6 3F22     		movs	r2, #63
 1170 00d8 A3F85C20 		strh	r2, [r3, #92]	@ movhi
 1171              	.L57:
 769:d:/LiteOS_Lab/drivers/third_party/ST/STM32L4xx_HAL_Driver/Src\stm32l4xx_hal_uart.c ****     uhMask = huart->Mask;
 1172              		.loc 1 769 12 is_stmt 1
 1173 00dc FB68     		ldr	r3, [r7, #12]
 1174 00de B3F85C30 		ldrh	r3, [r3, #92]	@ movhi
 1175 00e2 7B83     		strh	r3, [r7, #26]	@ movhi
 770:d:/LiteOS_Lab/drivers/third_party/ST/STM32L4xx_HAL_Driver/Src\stm32l4xx_hal_uart.c **** 
 771:d:/LiteOS_Lab/drivers/third_party/ST/STM32L4xx_HAL_Driver/Src\stm32l4xx_hal_uart.c ****     /* as long as data have to be received */
 772:d:/LiteOS_Lab/drivers/third_party/ST/STM32L4xx_HAL_Driver/Src\stm32l4xx_hal_uart.c ****     while(huart->RxXferCount > 0)
 1176              		.loc 1 772 10
 1177 00e4 3AE0     		b	.L61
 1178              	.L64:
 773:d:/LiteOS_Lab/drivers/third_party/ST/STM32L4xx_HAL_Driver/Src\stm32l4xx_hal_uart.c ****     {
 774:d:/LiteOS_Lab/drivers/third_party/ST/STM32L4xx_HAL_Driver/Src\stm32l4xx_hal_uart.c ****       huart->RxXferCount--;
 1179              		.loc 1 774 12
ARM GAS  C:\Users\ADMINI~1\AppData\Local\Temp\ccHDbRvY.s 			page 35


 1180 00e6 FB68     		ldr	r3, [r7, #12]
 1181 00e8 B3F85A30 		ldrh	r3, [r3, #90]	@ movhi
 1182 00ec 9BB2     		uxth	r3, r3
 1183              		.loc 1 774 25
 1184 00ee 013B     		subs	r3, r3, #1
 1185 00f0 9AB2     		uxth	r2, r3
 1186 00f2 FB68     		ldr	r3, [r7, #12]
 1187 00f4 A3F85A20 		strh	r2, [r3, #90]	@ movhi
 775:d:/LiteOS_Lab/drivers/third_party/ST/STM32L4xx_HAL_Driver/Src\stm32l4xx_hal_uart.c ****       if(UART_WaitOnFlagUntilTimeout(huart, UART_FLAG_RXNE, RESET, tickstart, Timeout) != HAL_OK)
 1188              		.loc 1 775 10
 1189 00f8 3B68     		ldr	r3, [r7]
 1190 00fa 0093     		str	r3, [sp]
 1191 00fc FB69     		ldr	r3, [r7, #28]
 1192 00fe 0022     		movs	r2, #0
 1193 0100 2021     		movs	r1, #32
 1194 0102 F868     		ldr	r0, [r7, #12]
 1195 0104 FFF7FEFF 		bl	UART_WaitOnFlagUntilTimeout
 1196 0108 0346     		mov	r3, r0
 1197              		.loc 1 775 9
 1198 010a 002B     		cmp	r3, #0
 1199 010c 01D0     		beq	.L62
 776:d:/LiteOS_Lab/drivers/third_party/ST/STM32L4xx_HAL_Driver/Src\stm32l4xx_hal_uart.c ****       {
 777:d:/LiteOS_Lab/drivers/third_party/ST/STM32L4xx_HAL_Driver/Src\stm32l4xx_hal_uart.c ****         return HAL_TIMEOUT;
 1200              		.loc 1 777 16
 1201 010e 0323     		movs	r3, #3
 1202 0110 35E0     		b	.L53
 1203              	.L62:
 778:d:/LiteOS_Lab/drivers/third_party/ST/STM32L4xx_HAL_Driver/Src\stm32l4xx_hal_uart.c ****       }
 779:d:/LiteOS_Lab/drivers/third_party/ST/STM32L4xx_HAL_Driver/Src\stm32l4xx_hal_uart.c ****       if ((huart->Init.WordLength == UART_WORDLENGTH_9B) && (huart->Init.Parity == UART_PARITY_NONE
 1204              		.loc 1 779 23
 1205 0112 FB68     		ldr	r3, [r7, #12]
 1206 0114 9B68     		ldr	r3, [r3, #8]
 1207              		.loc 1 779 10
 1208 0116 B3F5805F 		cmp	r3, #4096
 1209 011a 12D1     		bne	.L63
 1210              		.loc 1 779 73 discriminator 1
 1211 011c FB68     		ldr	r3, [r7, #12]
 1212 011e 1B69     		ldr	r3, [r3, #16]
 1213              		.loc 1 779 58 discriminator 1
 1214 0120 002B     		cmp	r3, #0
 1215 0122 0ED1     		bne	.L63
 780:d:/LiteOS_Lab/drivers/third_party/ST/STM32L4xx_HAL_Driver/Src\stm32l4xx_hal_uart.c ****       {
 781:d:/LiteOS_Lab/drivers/third_party/ST/STM32L4xx_HAL_Driver/Src\stm32l4xx_hal_uart.c ****         tmp = (uint16_t*) pData ;
 1216              		.loc 1 781 13
 1217 0124 BB68     		ldr	r3, [r7, #8]
 1218 0126 7B61     		str	r3, [r7, #20]
 782:d:/LiteOS_Lab/drivers/third_party/ST/STM32L4xx_HAL_Driver/Src\stm32l4xx_hal_uart.c ****         *tmp = (uint16_t)(huart->Instance->RDR & uhMask);
 1219              		.loc 1 782 32
 1220 0128 FB68     		ldr	r3, [r7, #12]
 1221 012a 1B68     		ldr	r3, [r3]
 1222              		.loc 1 782 42
 1223 012c 9B8C     		ldrh	r3, [r3, #36]	@ movhi
 1224 012e 9AB2     		uxth	r2, r3
 1225              		.loc 1 782 16
 1226 0130 7B8B     		ldrh	r3, [r7, #26]	@ movhi
 1227 0132 1340     		ands	r3, r3, r2
 1228 0134 9AB2     		uxth	r2, r3
ARM GAS  C:\Users\ADMINI~1\AppData\Local\Temp\ccHDbRvY.s 			page 36


 1229              		.loc 1 782 14
 1230 0136 7B69     		ldr	r3, [r7, #20]
 1231 0138 1A80     		strh	r2, [r3]	@ movhi
 783:d:/LiteOS_Lab/drivers/third_party/ST/STM32L4xx_HAL_Driver/Src\stm32l4xx_hal_uart.c ****         pData +=2;
 1232              		.loc 1 783 15
 1233 013a BB68     		ldr	r3, [r7, #8]
 1234 013c 0233     		adds	r3, r3, #2
 1235 013e BB60     		str	r3, [r7, #8]
 1236 0140 0CE0     		b	.L61
 1237              	.L63:
 784:d:/LiteOS_Lab/drivers/third_party/ST/STM32L4xx_HAL_Driver/Src\stm32l4xx_hal_uart.c ****       }
 785:d:/LiteOS_Lab/drivers/third_party/ST/STM32L4xx_HAL_Driver/Src\stm32l4xx_hal_uart.c ****       else
 786:d:/LiteOS_Lab/drivers/third_party/ST/STM32L4xx_HAL_Driver/Src\stm32l4xx_hal_uart.c ****       {
 787:d:/LiteOS_Lab/drivers/third_party/ST/STM32L4xx_HAL_Driver/Src\stm32l4xx_hal_uart.c ****         *pData++ = (uint8_t)(huart->Instance->RDR & (uint8_t)uhMask);
 1238              		.loc 1 787 35
 1239 0142 FB68     		ldr	r3, [r7, #12]
 1240 0144 1B68     		ldr	r3, [r3]
 1241              		.loc 1 787 45
 1242 0146 9B8C     		ldrh	r3, [r3, #36]	@ movhi
 1243 0148 9BB2     		uxth	r3, r3
 1244              		.loc 1 787 20
 1245 014a D9B2     		uxtb	r1, r3
 1246              		.loc 1 787 53
 1247 014c 7B8B     		ldrh	r3, [r7, #26]	@ movhi
 1248 014e DAB2     		uxtb	r2, r3
 1249              		.loc 1 787 15
 1250 0150 BB68     		ldr	r3, [r7, #8]
 1251 0152 581C     		adds	r0, r3, #1
 1252 0154 B860     		str	r0, [r7, #8]
 1253              		.loc 1 787 20
 1254 0156 0A40     		ands	r2, r2, r1
 1255 0158 D2B2     		uxtb	r2, r2
 1256              		.loc 1 787 18
 1257 015a 1A70     		strb	r2, [r3]
 1258              	.L61:
 772:d:/LiteOS_Lab/drivers/third_party/ST/STM32L4xx_HAL_Driver/Src\stm32l4xx_hal_uart.c ****     {
 1259              		.loc 1 772 16
 1260 015c FB68     		ldr	r3, [r7, #12]
 1261 015e B3F85A30 		ldrh	r3, [r3, #90]	@ movhi
 1262 0162 9BB2     		uxth	r3, r3
 772:d:/LiteOS_Lab/drivers/third_party/ST/STM32L4xx_HAL_Driver/Src\stm32l4xx_hal_uart.c ****     {
 1263              		.loc 1 772 10
 1264 0164 002B     		cmp	r3, #0
 1265 0166 BED1     		bne	.L64
 788:d:/LiteOS_Lab/drivers/third_party/ST/STM32L4xx_HAL_Driver/Src\stm32l4xx_hal_uart.c ****       }
 789:d:/LiteOS_Lab/drivers/third_party/ST/STM32L4xx_HAL_Driver/Src\stm32l4xx_hal_uart.c ****     }
 790:d:/LiteOS_Lab/drivers/third_party/ST/STM32L4xx_HAL_Driver/Src\stm32l4xx_hal_uart.c **** 
 791:d:/LiteOS_Lab/drivers/third_party/ST/STM32L4xx_HAL_Driver/Src\stm32l4xx_hal_uart.c ****     /* At end of Rx process, restore huart->RxState to Ready */
 792:d:/LiteOS_Lab/drivers/third_party/ST/STM32L4xx_HAL_Driver/Src\stm32l4xx_hal_uart.c ****     huart->RxState = HAL_UART_STATE_READY;
 1266              		.loc 1 792 20
 1267 0168 FB68     		ldr	r3, [r7, #12]
 1268 016a 2022     		movs	r2, #32
 1269 016c 83F87220 		strb	r2, [r3, #114]
 793:d:/LiteOS_Lab/drivers/third_party/ST/STM32L4xx_HAL_Driver/Src\stm32l4xx_hal_uart.c **** 
 794:d:/LiteOS_Lab/drivers/third_party/ST/STM32L4xx_HAL_Driver/Src\stm32l4xx_hal_uart.c ****     /* Process Unlocked */
 795:d:/LiteOS_Lab/drivers/third_party/ST/STM32L4xx_HAL_Driver/Src\stm32l4xx_hal_uart.c ****     __HAL_UNLOCK(huart);
 1270              		.loc 1 795 5
ARM GAS  C:\Users\ADMINI~1\AppData\Local\Temp\ccHDbRvY.s 			page 37


 1271 0170 FB68     		ldr	r3, [r7, #12]
 1272 0172 0022     		movs	r2, #0
 1273 0174 83F87020 		strb	r2, [r3, #112]
 796:d:/LiteOS_Lab/drivers/third_party/ST/STM32L4xx_HAL_Driver/Src\stm32l4xx_hal_uart.c **** 
 797:d:/LiteOS_Lab/drivers/third_party/ST/STM32L4xx_HAL_Driver/Src\stm32l4xx_hal_uart.c ****     return HAL_OK;
 1274              		.loc 1 797 12
 1275 0178 0023     		movs	r3, #0
 1276 017a 00E0     		b	.L53
 1277              	.L50:
 798:d:/LiteOS_Lab/drivers/third_party/ST/STM32L4xx_HAL_Driver/Src\stm32l4xx_hal_uart.c ****   }
 799:d:/LiteOS_Lab/drivers/third_party/ST/STM32L4xx_HAL_Driver/Src\stm32l4xx_hal_uart.c ****   else
 800:d:/LiteOS_Lab/drivers/third_party/ST/STM32L4xx_HAL_Driver/Src\stm32l4xx_hal_uart.c ****   {
 801:d:/LiteOS_Lab/drivers/third_party/ST/STM32L4xx_HAL_Driver/Src\stm32l4xx_hal_uart.c ****     return HAL_BUSY;
 1278              		.loc 1 801 12
 1279 017c 0223     		movs	r3, #2
 1280              	.L53:
 802:d:/LiteOS_Lab/drivers/third_party/ST/STM32L4xx_HAL_Driver/Src\stm32l4xx_hal_uart.c ****   }
 803:d:/LiteOS_Lab/drivers/third_party/ST/STM32L4xx_HAL_Driver/Src\stm32l4xx_hal_uart.c **** }
 1281              		.loc 1 803 1
 1282 017e 1846     		mov	r0, r3
 1283 0180 2037     		adds	r7, r7, #32
 1284              	.LCFI45:
 1285              		.cfi_def_cfa_offset 8
 1286 0182 BD46     		mov	sp, r7
 1287              	.LCFI46:
 1288              		.cfi_def_cfa_register 13
 1289              		@ sp needed
 1290 0184 80BD     		pop	{r7, pc}
 1291              		.cfi_endproc
 1292              	.LFE295:
 1294              		.section	.text.HAL_UART_Transmit_IT,"ax",%progbits
 1295              		.align	1
 1296              		.global	HAL_UART_Transmit_IT
 1297              		.syntax unified
 1298              		.thumb
 1299              		.thumb_func
 1300              		.fpu fpv4-sp-d16
 1302              	HAL_UART_Transmit_IT:
 1303              	.LFB296:
 804:d:/LiteOS_Lab/drivers/third_party/ST/STM32L4xx_HAL_Driver/Src\stm32l4xx_hal_uart.c **** 
 805:d:/LiteOS_Lab/drivers/third_party/ST/STM32L4xx_HAL_Driver/Src\stm32l4xx_hal_uart.c **** /**
 806:d:/LiteOS_Lab/drivers/third_party/ST/STM32L4xx_HAL_Driver/Src\stm32l4xx_hal_uart.c ****   * @brief Send an amount of data in interrupt mode.
 807:d:/LiteOS_Lab/drivers/third_party/ST/STM32L4xx_HAL_Driver/Src\stm32l4xx_hal_uart.c ****   * @param huart: UART handle.
 808:d:/LiteOS_Lab/drivers/third_party/ST/STM32L4xx_HAL_Driver/Src\stm32l4xx_hal_uart.c ****   * @param pData: pointer to data buffer.
 809:d:/LiteOS_Lab/drivers/third_party/ST/STM32L4xx_HAL_Driver/Src\stm32l4xx_hal_uart.c ****   * @param Size: amount of data to be sent.
 810:d:/LiteOS_Lab/drivers/third_party/ST/STM32L4xx_HAL_Driver/Src\stm32l4xx_hal_uart.c ****   * @retval HAL status
 811:d:/LiteOS_Lab/drivers/third_party/ST/STM32L4xx_HAL_Driver/Src\stm32l4xx_hal_uart.c ****   */
 812:d:/LiteOS_Lab/drivers/third_party/ST/STM32L4xx_HAL_Driver/Src\stm32l4xx_hal_uart.c **** HAL_StatusTypeDef HAL_UART_Transmit_IT(UART_HandleTypeDef *huart, uint8_t *pData, uint16_t Size)
 813:d:/LiteOS_Lab/drivers/third_party/ST/STM32L4xx_HAL_Driver/Src\stm32l4xx_hal_uart.c **** {
 1304              		.loc 1 813 1
 1305              		.cfi_startproc
 1306              		@ args = 0, pretend = 0, frame = 16
 1307              		@ frame_needed = 1, uses_anonymous_args = 0
 1308              		@ link register save eliminated.
 1309 0000 80B4     		push	{r7}
 1310              	.LCFI47:
 1311              		.cfi_def_cfa_offset 4
ARM GAS  C:\Users\ADMINI~1\AppData\Local\Temp\ccHDbRvY.s 			page 38


 1312              		.cfi_offset 7, -4
 1313 0002 85B0     		sub	sp, sp, #20
 1314              	.LCFI48:
 1315              		.cfi_def_cfa_offset 24
 1316 0004 00AF     		add	r7, sp, #0
 1317              	.LCFI49:
 1318              		.cfi_def_cfa_register 7
 1319 0006 F860     		str	r0, [r7, #12]
 1320 0008 B960     		str	r1, [r7, #8]
 1321 000a 1346     		mov	r3, r2
 1322 000c FB80     		strh	r3, [r7, #6]	@ movhi
 814:d:/LiteOS_Lab/drivers/third_party/ST/STM32L4xx_HAL_Driver/Src\stm32l4xx_hal_uart.c ****   /* Check that a Tx process is not already ongoing */
 815:d:/LiteOS_Lab/drivers/third_party/ST/STM32L4xx_HAL_Driver/Src\stm32l4xx_hal_uart.c ****   if(huart->gState == HAL_UART_STATE_READY || huart->gState == HAL_UART_STATE_BUSY_RX)
 1323              		.loc 1 815 11
 1324 000e FB68     		ldr	r3, [r7, #12]
 1325 0010 93F87130 		ldrb	r3, [r3, #113]
 1326 0014 DBB2     		uxtb	r3, r3
 1327              		.loc 1 815 5
 1328 0016 202B     		cmp	r3, #32
 1329 0018 05D0     		beq	.L66
 1330              		.loc 1 815 52 discriminator 1
 1331 001a FB68     		ldr	r3, [r7, #12]
 1332 001c 93F87130 		ldrb	r3, [r3, #113]
 1333 0020 DBB2     		uxtb	r3, r3
 1334              		.loc 1 815 44 discriminator 1
 1335 0022 222B     		cmp	r3, #34
 1336 0024 3DD1     		bne	.L67
 1337              	.L66:
 816:d:/LiteOS_Lab/drivers/third_party/ST/STM32L4xx_HAL_Driver/Src\stm32l4xx_hal_uart.c ****   {
 817:d:/LiteOS_Lab/drivers/third_party/ST/STM32L4xx_HAL_Driver/Src\stm32l4xx_hal_uart.c ****     if((pData == NULL ) || (Size == 0))
 1338              		.loc 1 817 7
 1339 0026 BB68     		ldr	r3, [r7, #8]
 1340 0028 002B     		cmp	r3, #0
 1341 002a 02D0     		beq	.L68
 1342              		.loc 1 817 25 discriminator 1
 1343 002c FB88     		ldrh	r3, [r7, #6]
 1344 002e 002B     		cmp	r3, #0
 1345 0030 01D1     		bne	.L69
 1346              	.L68:
 818:d:/LiteOS_Lab/drivers/third_party/ST/STM32L4xx_HAL_Driver/Src\stm32l4xx_hal_uart.c ****     {
 819:d:/LiteOS_Lab/drivers/third_party/ST/STM32L4xx_HAL_Driver/Src\stm32l4xx_hal_uart.c ****       return HAL_ERROR;
 1347              		.loc 1 819 14
 1348 0032 0123     		movs	r3, #1
 1349 0034 36E0     		b	.L70
 1350              	.L69:
 820:d:/LiteOS_Lab/drivers/third_party/ST/STM32L4xx_HAL_Driver/Src\stm32l4xx_hal_uart.c ****     }
 821:d:/LiteOS_Lab/drivers/third_party/ST/STM32L4xx_HAL_Driver/Src\stm32l4xx_hal_uart.c **** 
 822:d:/LiteOS_Lab/drivers/third_party/ST/STM32L4xx_HAL_Driver/Src\stm32l4xx_hal_uart.c ****     /* Process Locked */
 823:d:/LiteOS_Lab/drivers/third_party/ST/STM32L4xx_HAL_Driver/Src\stm32l4xx_hal_uart.c ****     __HAL_LOCK(huart);
 1351              		.loc 1 823 5
 1352 0036 FB68     		ldr	r3, [r7, #12]
 1353 0038 93F87030 		ldrb	r3, [r3, #112]	@ zero_extendqisi2
 1354 003c 012B     		cmp	r3, #1
 1355 003e 01D1     		bne	.L71
 1356              		.loc 1 823 5 is_stmt 0 discriminator 1
 1357 0040 0223     		movs	r3, #2
 1358 0042 2FE0     		b	.L70
ARM GAS  C:\Users\ADMINI~1\AppData\Local\Temp\ccHDbRvY.s 			page 39


 1359              	.L71:
 1360              		.loc 1 823 5 discriminator 2
 1361 0044 FB68     		ldr	r3, [r7, #12]
 1362 0046 0122     		movs	r2, #1
 1363 0048 83F87020 		strb	r2, [r3, #112]
 824:d:/LiteOS_Lab/drivers/third_party/ST/STM32L4xx_HAL_Driver/Src\stm32l4xx_hal_uart.c **** 
 825:d:/LiteOS_Lab/drivers/third_party/ST/STM32L4xx_HAL_Driver/Src\stm32l4xx_hal_uart.c ****     huart->pTxBuffPtr = pData;
 1364              		.loc 1 825 23 is_stmt 1 discriminator 2
 1365 004c FB68     		ldr	r3, [r7, #12]
 1366 004e BA68     		ldr	r2, [r7, #8]
 1367 0050 DA64     		str	r2, [r3, #76]
 826:d:/LiteOS_Lab/drivers/third_party/ST/STM32L4xx_HAL_Driver/Src\stm32l4xx_hal_uart.c ****     huart->TxXferSize = Size;
 1368              		.loc 1 826 23 discriminator 2
 1369 0052 FB68     		ldr	r3, [r7, #12]
 1370 0054 FA88     		ldrh	r2, [r7, #6]	@ movhi
 1371 0056 A3F85020 		strh	r2, [r3, #80]	@ movhi
 827:d:/LiteOS_Lab/drivers/third_party/ST/STM32L4xx_HAL_Driver/Src\stm32l4xx_hal_uart.c ****     huart->TxXferCount = Size;
 1372              		.loc 1 827 24 discriminator 2
 1373 005a FB68     		ldr	r3, [r7, #12]
 1374 005c FA88     		ldrh	r2, [r7, #6]	@ movhi
 1375 005e A3F85220 		strh	r2, [r3, #82]	@ movhi
 828:d:/LiteOS_Lab/drivers/third_party/ST/STM32L4xx_HAL_Driver/Src\stm32l4xx_hal_uart.c **** 
 829:d:/LiteOS_Lab/drivers/third_party/ST/STM32L4xx_HAL_Driver/Src\stm32l4xx_hal_uart.c ****     huart->ErrorCode = HAL_UART_ERROR_NONE;
 1376              		.loc 1 829 22 discriminator 2
 1377 0062 FB68     		ldr	r3, [r7, #12]
 1378 0064 0022     		movs	r2, #0
 1379 0066 5A67     		str	r2, [r3, #116]
 830:d:/LiteOS_Lab/drivers/third_party/ST/STM32L4xx_HAL_Driver/Src\stm32l4xx_hal_uart.c ****     if (huart->gState == HAL_UART_STATE_BUSY_RX)
 1380              		.loc 1 830 14 discriminator 2
 1381 0068 FB68     		ldr	r3, [r7, #12]
 1382 006a 93F87130 		ldrb	r3, [r3, #113]
 1383 006e DBB2     		uxtb	r3, r3
 1384              		.loc 1 830 8 discriminator 2
 1385 0070 222B     		cmp	r3, #34
 1386 0072 04D1     		bne	.L72
 831:d:/LiteOS_Lab/drivers/third_party/ST/STM32L4xx_HAL_Driver/Src\stm32l4xx_hal_uart.c ****     {
 832:d:/LiteOS_Lab/drivers/third_party/ST/STM32L4xx_HAL_Driver/Src\stm32l4xx_hal_uart.c ****         huart->gState = HAL_UART_STATE_BUSY_TX_RX;
 1387              		.loc 1 832 23
 1388 0074 FB68     		ldr	r3, [r7, #12]
 1389 0076 2322     		movs	r2, #35
 1390 0078 83F87120 		strb	r2, [r3, #113]
 1391 007c 03E0     		b	.L73
 1392              	.L72:
 833:d:/LiteOS_Lab/drivers/third_party/ST/STM32L4xx_HAL_Driver/Src\stm32l4xx_hal_uart.c ****     }
 834:d:/LiteOS_Lab/drivers/third_party/ST/STM32L4xx_HAL_Driver/Src\stm32l4xx_hal_uart.c ****     else
 835:d:/LiteOS_Lab/drivers/third_party/ST/STM32L4xx_HAL_Driver/Src\stm32l4xx_hal_uart.c ****     {
 836:d:/LiteOS_Lab/drivers/third_party/ST/STM32L4xx_HAL_Driver/Src\stm32l4xx_hal_uart.c ****         huart->gState = HAL_UART_STATE_BUSY_TX;
 1393              		.loc 1 836 23
 1394 007e FB68     		ldr	r3, [r7, #12]
 1395 0080 2122     		movs	r2, #33
 1396 0082 83F87120 		strb	r2, [r3, #113]
 1397              	.L73:
 837:d:/LiteOS_Lab/drivers/third_party/ST/STM32L4xx_HAL_Driver/Src\stm32l4xx_hal_uart.c ****     }
 838:d:/LiteOS_Lab/drivers/third_party/ST/STM32L4xx_HAL_Driver/Src\stm32l4xx_hal_uart.c **** 
 839:d:/LiteOS_Lab/drivers/third_party/ST/STM32L4xx_HAL_Driver/Src\stm32l4xx_hal_uart.c ****     /* Process Unlocked */
 840:d:/LiteOS_Lab/drivers/third_party/ST/STM32L4xx_HAL_Driver/Src\stm32l4xx_hal_uart.c ****     __HAL_UNLOCK(huart);
 1398              		.loc 1 840 5
ARM GAS  C:\Users\ADMINI~1\AppData\Local\Temp\ccHDbRvY.s 			page 40


 1399 0086 FB68     		ldr	r3, [r7, #12]
 1400 0088 0022     		movs	r2, #0
 1401 008a 83F87020 		strb	r2, [r3, #112]
 841:d:/LiteOS_Lab/drivers/third_party/ST/STM32L4xx_HAL_Driver/Src\stm32l4xx_hal_uart.c **** 
 842:d:/LiteOS_Lab/drivers/third_party/ST/STM32L4xx_HAL_Driver/Src\stm32l4xx_hal_uart.c ****     /* Enable the UART Transmit Data Register Empty Interrupt */
 843:d:/LiteOS_Lab/drivers/third_party/ST/STM32L4xx_HAL_Driver/Src\stm32l4xx_hal_uart.c ****     SET_BIT(huart->Instance->CR1, USART_CR1_TXEIE);
 1402              		.loc 1 843 5
 1403 008e FB68     		ldr	r3, [r7, #12]
 1404 0090 1B68     		ldr	r3, [r3]
 1405 0092 1A68     		ldr	r2, [r3]
 1406 0094 FB68     		ldr	r3, [r7, #12]
 1407 0096 1B68     		ldr	r3, [r3]
 1408 0098 42F08002 		orr	r2, r2, #128
 1409 009c 1A60     		str	r2, [r3]
 844:d:/LiteOS_Lab/drivers/third_party/ST/STM32L4xx_HAL_Driver/Src\stm32l4xx_hal_uart.c **** 
 845:d:/LiteOS_Lab/drivers/third_party/ST/STM32L4xx_HAL_Driver/Src\stm32l4xx_hal_uart.c ****     return HAL_OK;
 1410              		.loc 1 845 12
 1411 009e 0023     		movs	r3, #0
 1412 00a0 00E0     		b	.L70
 1413              	.L67:
 846:d:/LiteOS_Lab/drivers/third_party/ST/STM32L4xx_HAL_Driver/Src\stm32l4xx_hal_uart.c ****   }
 847:d:/LiteOS_Lab/drivers/third_party/ST/STM32L4xx_HAL_Driver/Src\stm32l4xx_hal_uart.c ****   else
 848:d:/LiteOS_Lab/drivers/third_party/ST/STM32L4xx_HAL_Driver/Src\stm32l4xx_hal_uart.c ****   {
 849:d:/LiteOS_Lab/drivers/third_party/ST/STM32L4xx_HAL_Driver/Src\stm32l4xx_hal_uart.c ****     return HAL_BUSY;
 1414              		.loc 1 849 12
 1415 00a2 0223     		movs	r3, #2
 1416              	.L70:
 850:d:/LiteOS_Lab/drivers/third_party/ST/STM32L4xx_HAL_Driver/Src\stm32l4xx_hal_uart.c ****   }
 851:d:/LiteOS_Lab/drivers/third_party/ST/STM32L4xx_HAL_Driver/Src\stm32l4xx_hal_uart.c **** }
 1417              		.loc 1 851 1
 1418 00a4 1846     		mov	r0, r3
 1419 00a6 1437     		adds	r7, r7, #20
 1420              	.LCFI50:
 1421              		.cfi_def_cfa_offset 4
 1422 00a8 BD46     		mov	sp, r7
 1423              	.LCFI51:
 1424              		.cfi_def_cfa_register 13
 1425              		@ sp needed
 1426 00aa 5DF8047B 		ldr	r7, [sp], #4
 1427              	.LCFI52:
 1428              		.cfi_restore 7
 1429              		.cfi_def_cfa_offset 0
 1430 00ae 7047     		bx	lr
 1431              		.cfi_endproc
 1432              	.LFE296:
 1434              		.section	.text.HAL_UART_Receive_IT,"ax",%progbits
 1435              		.align	1
 1436              		.global	HAL_UART_Receive_IT
 1437              		.syntax unified
 1438              		.thumb
 1439              		.thumb_func
 1440              		.fpu fpv4-sp-d16
 1442              	HAL_UART_Receive_IT:
 1443              	.LFB297:
 852:d:/LiteOS_Lab/drivers/third_party/ST/STM32L4xx_HAL_Driver/Src\stm32l4xx_hal_uart.c **** 
 853:d:/LiteOS_Lab/drivers/third_party/ST/STM32L4xx_HAL_Driver/Src\stm32l4xx_hal_uart.c **** /**
 854:d:/LiteOS_Lab/drivers/third_party/ST/STM32L4xx_HAL_Driver/Src\stm32l4xx_hal_uart.c ****   * @brief Receive an amount of data in interrupt mode.
ARM GAS  C:\Users\ADMINI~1\AppData\Local\Temp\ccHDbRvY.s 			page 41


 855:d:/LiteOS_Lab/drivers/third_party/ST/STM32L4xx_HAL_Driver/Src\stm32l4xx_hal_uart.c ****   * @param huart: UART handle.
 856:d:/LiteOS_Lab/drivers/third_party/ST/STM32L4xx_HAL_Driver/Src\stm32l4xx_hal_uart.c ****   * @param pData: pointer to data buffer.
 857:d:/LiteOS_Lab/drivers/third_party/ST/STM32L4xx_HAL_Driver/Src\stm32l4xx_hal_uart.c ****   * @param Size: amount of data to be received.
 858:d:/LiteOS_Lab/drivers/third_party/ST/STM32L4xx_HAL_Driver/Src\stm32l4xx_hal_uart.c ****   * @retval HAL status
 859:d:/LiteOS_Lab/drivers/third_party/ST/STM32L4xx_HAL_Driver/Src\stm32l4xx_hal_uart.c ****   */
 860:d:/LiteOS_Lab/drivers/third_party/ST/STM32L4xx_HAL_Driver/Src\stm32l4xx_hal_uart.c **** HAL_StatusTypeDef HAL_UART_Receive_IT(UART_HandleTypeDef *huart, uint8_t *pData, uint16_t Size)
 861:d:/LiteOS_Lab/drivers/third_party/ST/STM32L4xx_HAL_Driver/Src\stm32l4xx_hal_uart.c **** {
 1444              		.loc 1 861 1
 1445              		.cfi_startproc
 1446              		@ args = 0, pretend = 0, frame = 16
 1447              		@ frame_needed = 1, uses_anonymous_args = 0
 1448              		@ link register save eliminated.
 1449 0000 80B4     		push	{r7}
 1450              	.LCFI53:
 1451              		.cfi_def_cfa_offset 4
 1452              		.cfi_offset 7, -4
 1453 0002 85B0     		sub	sp, sp, #20
 1454              	.LCFI54:
 1455              		.cfi_def_cfa_offset 24
 1456 0004 00AF     		add	r7, sp, #0
 1457              	.LCFI55:
 1458              		.cfi_def_cfa_register 7
 1459 0006 F860     		str	r0, [r7, #12]
 1460 0008 B960     		str	r1, [r7, #8]
 1461 000a 1346     		mov	r3, r2
 1462 000c FB80     		strh	r3, [r7, #6]	@ movhi
 862:d:/LiteOS_Lab/drivers/third_party/ST/STM32L4xx_HAL_Driver/Src\stm32l4xx_hal_uart.c ****   /* Check that a Rx process is not already ongoing */
 863:d:/LiteOS_Lab/drivers/third_party/ST/STM32L4xx_HAL_Driver/Src\stm32l4xx_hal_uart.c ****   if(huart->RxState == HAL_UART_STATE_READY)
 1463              		.loc 1 863 11
 1464 000e FB68     		ldr	r3, [r7, #12]
 1465 0010 93F87230 		ldrb	r3, [r3, #114]
 1466 0014 DBB2     		uxtb	r3, r3
 1467              		.loc 1 863 5
 1468 0016 202B     		cmp	r3, #32
 1469 0018 72D1     		bne	.L75
 864:d:/LiteOS_Lab/drivers/third_party/ST/STM32L4xx_HAL_Driver/Src\stm32l4xx_hal_uart.c ****   {
 865:d:/LiteOS_Lab/drivers/third_party/ST/STM32L4xx_HAL_Driver/Src\stm32l4xx_hal_uart.c ****     if((pData == NULL ) || (Size == 0))
 1470              		.loc 1 865 7
 1471 001a BB68     		ldr	r3, [r7, #8]
 1472 001c 002B     		cmp	r3, #0
 1473 001e 02D0     		beq	.L76
 1474              		.loc 1 865 25 discriminator 1
 1475 0020 FB88     		ldrh	r3, [r7, #6]
 1476 0022 002B     		cmp	r3, #0
 1477 0024 01D1     		bne	.L77
 1478              	.L76:
 866:d:/LiteOS_Lab/drivers/third_party/ST/STM32L4xx_HAL_Driver/Src\stm32l4xx_hal_uart.c ****     {
 867:d:/LiteOS_Lab/drivers/third_party/ST/STM32L4xx_HAL_Driver/Src\stm32l4xx_hal_uart.c ****       return HAL_ERROR;
 1479              		.loc 1 867 14
 1480 0026 0123     		movs	r3, #1
 1481 0028 6BE0     		b	.L78
 1482              	.L77:
 868:d:/LiteOS_Lab/drivers/third_party/ST/STM32L4xx_HAL_Driver/Src\stm32l4xx_hal_uart.c ****     }
 869:d:/LiteOS_Lab/drivers/third_party/ST/STM32L4xx_HAL_Driver/Src\stm32l4xx_hal_uart.c **** 
 870:d:/LiteOS_Lab/drivers/third_party/ST/STM32L4xx_HAL_Driver/Src\stm32l4xx_hal_uart.c ****     /* Process Locked */
 871:d:/LiteOS_Lab/drivers/third_party/ST/STM32L4xx_HAL_Driver/Src\stm32l4xx_hal_uart.c ****     __HAL_LOCK(huart);
 1483              		.loc 1 871 5
ARM GAS  C:\Users\ADMINI~1\AppData\Local\Temp\ccHDbRvY.s 			page 42


 1484 002a FB68     		ldr	r3, [r7, #12]
 1485 002c 93F87030 		ldrb	r3, [r3, #112]	@ zero_extendqisi2
 1486 0030 012B     		cmp	r3, #1
 1487 0032 01D1     		bne	.L79
 1488              		.loc 1 871 5 is_stmt 0 discriminator 1
 1489 0034 0223     		movs	r3, #2
 1490 0036 64E0     		b	.L78
 1491              	.L79:
 1492              		.loc 1 871 5 discriminator 2
 1493 0038 FB68     		ldr	r3, [r7, #12]
 1494 003a 0122     		movs	r2, #1
 1495 003c 83F87020 		strb	r2, [r3, #112]
 872:d:/LiteOS_Lab/drivers/third_party/ST/STM32L4xx_HAL_Driver/Src\stm32l4xx_hal_uart.c **** 
 873:d:/LiteOS_Lab/drivers/third_party/ST/STM32L4xx_HAL_Driver/Src\stm32l4xx_hal_uart.c ****     huart->pRxBuffPtr = pData;
 1496              		.loc 1 873 23 is_stmt 1 discriminator 2
 1497 0040 FB68     		ldr	r3, [r7, #12]
 1498 0042 BA68     		ldr	r2, [r7, #8]
 1499 0044 5A65     		str	r2, [r3, #84]
 874:d:/LiteOS_Lab/drivers/third_party/ST/STM32L4xx_HAL_Driver/Src\stm32l4xx_hal_uart.c ****     huart->RxXferSize = Size;
 1500              		.loc 1 874 23 discriminator 2
 1501 0046 FB68     		ldr	r3, [r7, #12]
 1502 0048 FA88     		ldrh	r2, [r7, #6]	@ movhi
 1503 004a A3F85820 		strh	r2, [r3, #88]	@ movhi
 875:d:/LiteOS_Lab/drivers/third_party/ST/STM32L4xx_HAL_Driver/Src\stm32l4xx_hal_uart.c ****     huart->RxXferCount = Size;
 1504              		.loc 1 875 24 discriminator 2
 1505 004e FB68     		ldr	r3, [r7, #12]
 1506 0050 FA88     		ldrh	r2, [r7, #6]	@ movhi
 1507 0052 A3F85A20 		strh	r2, [r3, #90]	@ movhi
 876:d:/LiteOS_Lab/drivers/third_party/ST/STM32L4xx_HAL_Driver/Src\stm32l4xx_hal_uart.c **** 
 877:d:/LiteOS_Lab/drivers/third_party/ST/STM32L4xx_HAL_Driver/Src\stm32l4xx_hal_uart.c ****     /* Computation of UART mask to apply to RDR register */
 878:d:/LiteOS_Lab/drivers/third_party/ST/STM32L4xx_HAL_Driver/Src\stm32l4xx_hal_uart.c ****     UART_MASK_COMPUTATION(huart);
 1508              		.loc 1 878 5 discriminator 2
 1509 0056 FB68     		ldr	r3, [r7, #12]
 1510 0058 9B68     		ldr	r3, [r3, #8]
 1511 005a B3F5805F 		cmp	r3, #4096
 1512 005e 0ED1     		bne	.L80
 1513              		.loc 1 878 5 is_stmt 0 discriminator 1
 1514 0060 FB68     		ldr	r3, [r7, #12]
 1515 0062 1B69     		ldr	r3, [r3, #16]
 1516 0064 002B     		cmp	r3, #0
 1517 0066 05D1     		bne	.L81
 1518              		.loc 1 878 5 discriminator 3
 1519 0068 FB68     		ldr	r3, [r7, #12]
 1520 006a 40F2FF12 		movw	r2, #511
 1521 006e A3F85C20 		strh	r2, [r3, #92]	@ movhi
 1522 0072 28E0     		b	.L82
 1523              	.L81:
 1524              		.loc 1 878 5 discriminator 4
 1525 0074 FB68     		ldr	r3, [r7, #12]
 1526 0076 FF22     		movs	r2, #255
 1527 0078 A3F85C20 		strh	r2, [r3, #92]	@ movhi
 1528 007c 23E0     		b	.L82
 1529              	.L80:
 1530              		.loc 1 878 5 discriminator 2
 1531 007e FB68     		ldr	r3, [r7, #12]
 1532 0080 9B68     		ldr	r3, [r3, #8]
 1533 0082 002B     		cmp	r3, #0
ARM GAS  C:\Users\ADMINI~1\AppData\Local\Temp\ccHDbRvY.s 			page 43


 1534 0084 0DD1     		bne	.L83
 1535              		.loc 1 878 5 discriminator 5
 1536 0086 FB68     		ldr	r3, [r7, #12]
 1537 0088 1B69     		ldr	r3, [r3, #16]
 1538 008a 002B     		cmp	r3, #0
 1539 008c 04D1     		bne	.L84
 1540              		.loc 1 878 5 discriminator 7
 1541 008e FB68     		ldr	r3, [r7, #12]
 1542 0090 FF22     		movs	r2, #255
 1543 0092 A3F85C20 		strh	r2, [r3, #92]	@ movhi
 1544 0096 16E0     		b	.L82
 1545              	.L84:
 1546              		.loc 1 878 5 discriminator 8
 1547 0098 FB68     		ldr	r3, [r7, #12]
 1548 009a 7F22     		movs	r2, #127
 1549 009c A3F85C20 		strh	r2, [r3, #92]	@ movhi
 1550 00a0 11E0     		b	.L82
 1551              	.L83:
 1552              		.loc 1 878 5 discriminator 6
 1553 00a2 FB68     		ldr	r3, [r7, #12]
 1554 00a4 9B68     		ldr	r3, [r3, #8]
 1555 00a6 B3F1805F 		cmp	r3, #268435456
 1556 00aa 0CD1     		bne	.L82
 1557              		.loc 1 878 5 discriminator 9
 1558 00ac FB68     		ldr	r3, [r7, #12]
 1559 00ae 1B69     		ldr	r3, [r3, #16]
 1560 00b0 002B     		cmp	r3, #0
 1561 00b2 04D1     		bne	.L85
 1562              		.loc 1 878 5 discriminator 10
 1563 00b4 FB68     		ldr	r3, [r7, #12]
 1564 00b6 7F22     		movs	r2, #127
 1565 00b8 A3F85C20 		strh	r2, [r3, #92]	@ movhi
 1566 00bc 03E0     		b	.L82
 1567              	.L85:
 1568              		.loc 1 878 5 discriminator 11
 1569 00be FB68     		ldr	r3, [r7, #12]
 1570 00c0 3F22     		movs	r2, #63
 1571 00c2 A3F85C20 		strh	r2, [r3, #92]	@ movhi
 1572              	.L82:
 879:d:/LiteOS_Lab/drivers/third_party/ST/STM32L4xx_HAL_Driver/Src\stm32l4xx_hal_uart.c **** 
 880:d:/LiteOS_Lab/drivers/third_party/ST/STM32L4xx_HAL_Driver/Src\stm32l4xx_hal_uart.c ****     huart->ErrorCode = HAL_UART_ERROR_NONE;
 1573              		.loc 1 880 22 is_stmt 1
 1574 00c6 FB68     		ldr	r3, [r7, #12]
 1575 00c8 0022     		movs	r2, #0
 1576 00ca 5A67     		str	r2, [r3, #116]
 881:d:/LiteOS_Lab/drivers/third_party/ST/STM32L4xx_HAL_Driver/Src\stm32l4xx_hal_uart.c ****     huart->RxState = HAL_UART_STATE_BUSY_RX;
 1577              		.loc 1 881 20
 1578 00cc FB68     		ldr	r3, [r7, #12]
 1579 00ce 2222     		movs	r2, #34
 1580 00d0 83F87220 		strb	r2, [r3, #114]
 882:d:/LiteOS_Lab/drivers/third_party/ST/STM32L4xx_HAL_Driver/Src\stm32l4xx_hal_uart.c **** 
 883:d:/LiteOS_Lab/drivers/third_party/ST/STM32L4xx_HAL_Driver/Src\stm32l4xx_hal_uart.c ****     /* Process Unlocked */
 884:d:/LiteOS_Lab/drivers/third_party/ST/STM32L4xx_HAL_Driver/Src\stm32l4xx_hal_uart.c ****     __HAL_UNLOCK(huart);
 1581              		.loc 1 884 5
 1582 00d4 FB68     		ldr	r3, [r7, #12]
 1583 00d6 0022     		movs	r2, #0
 1584 00d8 83F87020 		strb	r2, [r3, #112]
ARM GAS  C:\Users\ADMINI~1\AppData\Local\Temp\ccHDbRvY.s 			page 44


 885:d:/LiteOS_Lab/drivers/third_party/ST/STM32L4xx_HAL_Driver/Src\stm32l4xx_hal_uart.c **** 
 886:d:/LiteOS_Lab/drivers/third_party/ST/STM32L4xx_HAL_Driver/Src\stm32l4xx_hal_uart.c ****     /* Enable the UART Error Interrupt: (Frame error, noise error, overrun error) */
 887:d:/LiteOS_Lab/drivers/third_party/ST/STM32L4xx_HAL_Driver/Src\stm32l4xx_hal_uart.c ****     SET_BIT(huart->Instance->CR3, USART_CR3_EIE);
 1585              		.loc 1 887 5
 1586 00dc FB68     		ldr	r3, [r7, #12]
 1587 00de 1B68     		ldr	r3, [r3]
 1588 00e0 9A68     		ldr	r2, [r3, #8]
 1589 00e2 FB68     		ldr	r3, [r7, #12]
 1590 00e4 1B68     		ldr	r3, [r3]
 1591 00e6 42F00102 		orr	r2, r2, #1
 1592 00ea 9A60     		str	r2, [r3, #8]
 888:d:/LiteOS_Lab/drivers/third_party/ST/STM32L4xx_HAL_Driver/Src\stm32l4xx_hal_uart.c **** 
 889:d:/LiteOS_Lab/drivers/third_party/ST/STM32L4xx_HAL_Driver/Src\stm32l4xx_hal_uart.c ****     /* Enable the UART Parity Error and Data Register not empty Interrupts */
 890:d:/LiteOS_Lab/drivers/third_party/ST/STM32L4xx_HAL_Driver/Src\stm32l4xx_hal_uart.c ****     SET_BIT(huart->Instance->CR1, USART_CR1_PEIE | USART_CR1_RXNEIE);
 1593              		.loc 1 890 5
 1594 00ec FB68     		ldr	r3, [r7, #12]
 1595 00ee 1B68     		ldr	r3, [r3]
 1596 00f0 1A68     		ldr	r2, [r3]
 1597 00f2 FB68     		ldr	r3, [r7, #12]
 1598 00f4 1B68     		ldr	r3, [r3]
 1599 00f6 42F49072 		orr	r2, r2, #288
 1600 00fa 1A60     		str	r2, [r3]
 891:d:/LiteOS_Lab/drivers/third_party/ST/STM32L4xx_HAL_Driver/Src\stm32l4xx_hal_uart.c **** 
 892:d:/LiteOS_Lab/drivers/third_party/ST/STM32L4xx_HAL_Driver/Src\stm32l4xx_hal_uart.c ****     return HAL_OK;
 1601              		.loc 1 892 12
 1602 00fc 0023     		movs	r3, #0
 1603 00fe 00E0     		b	.L78
 1604              	.L75:
 893:d:/LiteOS_Lab/drivers/third_party/ST/STM32L4xx_HAL_Driver/Src\stm32l4xx_hal_uart.c ****   }
 894:d:/LiteOS_Lab/drivers/third_party/ST/STM32L4xx_HAL_Driver/Src\stm32l4xx_hal_uart.c ****   else
 895:d:/LiteOS_Lab/drivers/third_party/ST/STM32L4xx_HAL_Driver/Src\stm32l4xx_hal_uart.c ****   {
 896:d:/LiteOS_Lab/drivers/third_party/ST/STM32L4xx_HAL_Driver/Src\stm32l4xx_hal_uart.c ****     return HAL_BUSY;
 1605              		.loc 1 896 12
 1606 0100 0223     		movs	r3, #2
 1607              	.L78:
 897:d:/LiteOS_Lab/drivers/third_party/ST/STM32L4xx_HAL_Driver/Src\stm32l4xx_hal_uart.c ****   }
 898:d:/LiteOS_Lab/drivers/third_party/ST/STM32L4xx_HAL_Driver/Src\stm32l4xx_hal_uart.c **** }
 1608              		.loc 1 898 1
 1609 0102 1846     		mov	r0, r3
 1610 0104 1437     		adds	r7, r7, #20
 1611              	.LCFI56:
 1612              		.cfi_def_cfa_offset 4
 1613 0106 BD46     		mov	sp, r7
 1614              	.LCFI57:
 1615              		.cfi_def_cfa_register 13
 1616              		@ sp needed
 1617 0108 5DF8047B 		ldr	r7, [sp], #4
 1618              	.LCFI58:
 1619              		.cfi_restore 7
 1620              		.cfi_def_cfa_offset 0
 1621 010c 7047     		bx	lr
 1622              		.cfi_endproc
 1623              	.LFE297:
 1625              		.section	.text.HAL_UART_Transmit_DMA,"ax",%progbits
 1626              		.align	1
 1627              		.global	HAL_UART_Transmit_DMA
 1628              		.syntax unified
ARM GAS  C:\Users\ADMINI~1\AppData\Local\Temp\ccHDbRvY.s 			page 45


 1629              		.thumb
 1630              		.thumb_func
 1631              		.fpu fpv4-sp-d16
 1633              	HAL_UART_Transmit_DMA:
 1634              	.LFB298:
 899:d:/LiteOS_Lab/drivers/third_party/ST/STM32L4xx_HAL_Driver/Src\stm32l4xx_hal_uart.c **** 
 900:d:/LiteOS_Lab/drivers/third_party/ST/STM32L4xx_HAL_Driver/Src\stm32l4xx_hal_uart.c **** /**
 901:d:/LiteOS_Lab/drivers/third_party/ST/STM32L4xx_HAL_Driver/Src\stm32l4xx_hal_uart.c ****   * @brief Send an amount of data in DMA mode.
 902:d:/LiteOS_Lab/drivers/third_party/ST/STM32L4xx_HAL_Driver/Src\stm32l4xx_hal_uart.c ****   * @param huart: UART handle.
 903:d:/LiteOS_Lab/drivers/third_party/ST/STM32L4xx_HAL_Driver/Src\stm32l4xx_hal_uart.c ****   * @param pData: pointer to data buffer.
 904:d:/LiteOS_Lab/drivers/third_party/ST/STM32L4xx_HAL_Driver/Src\stm32l4xx_hal_uart.c ****   * @param Size: amount of data to be sent.
 905:d:/LiteOS_Lab/drivers/third_party/ST/STM32L4xx_HAL_Driver/Src\stm32l4xx_hal_uart.c ****   * @retval HAL status
 906:d:/LiteOS_Lab/drivers/third_party/ST/STM32L4xx_HAL_Driver/Src\stm32l4xx_hal_uart.c ****   */
 907:d:/LiteOS_Lab/drivers/third_party/ST/STM32L4xx_HAL_Driver/Src\stm32l4xx_hal_uart.c **** HAL_StatusTypeDef HAL_UART_Transmit_DMA(UART_HandleTypeDef *huart, uint8_t *pData, uint16_t Size)
 908:d:/LiteOS_Lab/drivers/third_party/ST/STM32L4xx_HAL_Driver/Src\stm32l4xx_hal_uart.c **** {
 1635              		.loc 1 908 1
 1636              		.cfi_startproc
 1637              		@ args = 0, pretend = 0, frame = 16
 1638              		@ frame_needed = 1, uses_anonymous_args = 0
 1639 0000 80B5     		push	{r7, lr}
 1640              	.LCFI59:
 1641              		.cfi_def_cfa_offset 8
 1642              		.cfi_offset 7, -8
 1643              		.cfi_offset 14, -4
 1644 0002 84B0     		sub	sp, sp, #16
 1645              	.LCFI60:
 1646              		.cfi_def_cfa_offset 24
 1647 0004 00AF     		add	r7, sp, #0
 1648              	.LCFI61:
 1649              		.cfi_def_cfa_register 7
 1650 0006 F860     		str	r0, [r7, #12]
 1651 0008 B960     		str	r1, [r7, #8]
 1652 000a 1346     		mov	r3, r2
 1653 000c FB80     		strh	r3, [r7, #6]	@ movhi
 909:d:/LiteOS_Lab/drivers/third_party/ST/STM32L4xx_HAL_Driver/Src\stm32l4xx_hal_uart.c ****   /* Check that a Tx process is not already ongoing */
 910:d:/LiteOS_Lab/drivers/third_party/ST/STM32L4xx_HAL_Driver/Src\stm32l4xx_hal_uart.c ****   if(huart->gState == HAL_UART_STATE_READY)
 1654              		.loc 1 910 11
 1655 000e FB68     		ldr	r3, [r7, #12]
 1656 0010 93F87130 		ldrb	r3, [r3, #113]
 1657 0014 DBB2     		uxtb	r3, r3
 1658              		.loc 1 910 5
 1659 0016 202B     		cmp	r3, #32
 1660 0018 52D1     		bne	.L87
 911:d:/LiteOS_Lab/drivers/third_party/ST/STM32L4xx_HAL_Driver/Src\stm32l4xx_hal_uart.c ****   {
 912:d:/LiteOS_Lab/drivers/third_party/ST/STM32L4xx_HAL_Driver/Src\stm32l4xx_hal_uart.c ****     if((pData == NULL ) || (Size == 0))
 1661              		.loc 1 912 7
 1662 001a BB68     		ldr	r3, [r7, #8]
 1663 001c 002B     		cmp	r3, #0
 1664 001e 02D0     		beq	.L88
 1665              		.loc 1 912 25 discriminator 1
 1666 0020 FB88     		ldrh	r3, [r7, #6]
 1667 0022 002B     		cmp	r3, #0
 1668 0024 01D1     		bne	.L89
 1669              	.L88:
 913:d:/LiteOS_Lab/drivers/third_party/ST/STM32L4xx_HAL_Driver/Src\stm32l4xx_hal_uart.c ****     {
 914:d:/LiteOS_Lab/drivers/third_party/ST/STM32L4xx_HAL_Driver/Src\stm32l4xx_hal_uart.c ****       return HAL_ERROR;
 1670              		.loc 1 914 14
ARM GAS  C:\Users\ADMINI~1\AppData\Local\Temp\ccHDbRvY.s 			page 46


 1671 0026 0123     		movs	r3, #1
 1672 0028 4BE0     		b	.L90
 1673              	.L89:
 915:d:/LiteOS_Lab/drivers/third_party/ST/STM32L4xx_HAL_Driver/Src\stm32l4xx_hal_uart.c ****     }
 916:d:/LiteOS_Lab/drivers/third_party/ST/STM32L4xx_HAL_Driver/Src\stm32l4xx_hal_uart.c **** 
 917:d:/LiteOS_Lab/drivers/third_party/ST/STM32L4xx_HAL_Driver/Src\stm32l4xx_hal_uart.c ****     /* Process Locked */
 918:d:/LiteOS_Lab/drivers/third_party/ST/STM32L4xx_HAL_Driver/Src\stm32l4xx_hal_uart.c ****     __HAL_LOCK(huart);
 1674              		.loc 1 918 5
 1675 002a FB68     		ldr	r3, [r7, #12]
 1676 002c 93F87030 		ldrb	r3, [r3, #112]	@ zero_extendqisi2
 1677 0030 012B     		cmp	r3, #1
 1678 0032 01D1     		bne	.L91
 1679              		.loc 1 918 5 is_stmt 0 discriminator 1
 1680 0034 0223     		movs	r3, #2
 1681 0036 44E0     		b	.L90
 1682              	.L91:
 1683              		.loc 1 918 5 discriminator 2
 1684 0038 FB68     		ldr	r3, [r7, #12]
 1685 003a 0122     		movs	r2, #1
 1686 003c 83F87020 		strb	r2, [r3, #112]
 919:d:/LiteOS_Lab/drivers/third_party/ST/STM32L4xx_HAL_Driver/Src\stm32l4xx_hal_uart.c **** 
 920:d:/LiteOS_Lab/drivers/third_party/ST/STM32L4xx_HAL_Driver/Src\stm32l4xx_hal_uart.c ****     huart->pTxBuffPtr = pData;
 1687              		.loc 1 920 23 is_stmt 1 discriminator 2
 1688 0040 FB68     		ldr	r3, [r7, #12]
 1689 0042 BA68     		ldr	r2, [r7, #8]
 1690 0044 DA64     		str	r2, [r3, #76]
 921:d:/LiteOS_Lab/drivers/third_party/ST/STM32L4xx_HAL_Driver/Src\stm32l4xx_hal_uart.c ****     huart->TxXferSize = Size;
 1691              		.loc 1 921 23 discriminator 2
 1692 0046 FB68     		ldr	r3, [r7, #12]
 1693 0048 FA88     		ldrh	r2, [r7, #6]	@ movhi
 1694 004a A3F85020 		strh	r2, [r3, #80]	@ movhi
 922:d:/LiteOS_Lab/drivers/third_party/ST/STM32L4xx_HAL_Driver/Src\stm32l4xx_hal_uart.c ****     huart->TxXferCount = Size;
 1695              		.loc 1 922 24 discriminator 2
 1696 004e FB68     		ldr	r3, [r7, #12]
 1697 0050 FA88     		ldrh	r2, [r7, #6]	@ movhi
 1698 0052 A3F85220 		strh	r2, [r3, #82]	@ movhi
 923:d:/LiteOS_Lab/drivers/third_party/ST/STM32L4xx_HAL_Driver/Src\stm32l4xx_hal_uart.c **** 
 924:d:/LiteOS_Lab/drivers/third_party/ST/STM32L4xx_HAL_Driver/Src\stm32l4xx_hal_uart.c ****     huart->ErrorCode = HAL_UART_ERROR_NONE;
 1699              		.loc 1 924 22 discriminator 2
 1700 0056 FB68     		ldr	r3, [r7, #12]
 1701 0058 0022     		movs	r2, #0
 1702 005a 5A67     		str	r2, [r3, #116]
 925:d:/LiteOS_Lab/drivers/third_party/ST/STM32L4xx_HAL_Driver/Src\stm32l4xx_hal_uart.c ****     huart->gState = HAL_UART_STATE_BUSY_TX;
 1703              		.loc 1 925 19 discriminator 2
 1704 005c FB68     		ldr	r3, [r7, #12]
 1705 005e 2122     		movs	r2, #33
 1706 0060 83F87120 		strb	r2, [r3, #113]
 926:d:/LiteOS_Lab/drivers/third_party/ST/STM32L4xx_HAL_Driver/Src\stm32l4xx_hal_uart.c **** 
 927:d:/LiteOS_Lab/drivers/third_party/ST/STM32L4xx_HAL_Driver/Src\stm32l4xx_hal_uart.c ****     /* Set the UART DMA transfer complete callback */
 928:d:/LiteOS_Lab/drivers/third_party/ST/STM32L4xx_HAL_Driver/Src\stm32l4xx_hal_uart.c ****     huart->hdmatx->XferCpltCallback = UART_DMATransmitCplt;
 1707              		.loc 1 928 10 discriminator 2
 1708 0064 FB68     		ldr	r3, [r7, #12]
 1709 0066 9B6E     		ldr	r3, [r3, #104]
 1710              		.loc 1 928 37 discriminator 2
 1711 0068 184A     		ldr	r2, .L92
 1712 006a DA62     		str	r2, [r3, #44]
 929:d:/LiteOS_Lab/drivers/third_party/ST/STM32L4xx_HAL_Driver/Src\stm32l4xx_hal_uart.c **** 
ARM GAS  C:\Users\ADMINI~1\AppData\Local\Temp\ccHDbRvY.s 			page 47


 930:d:/LiteOS_Lab/drivers/third_party/ST/STM32L4xx_HAL_Driver/Src\stm32l4xx_hal_uart.c ****     /* Set the UART DMA Half transfer complete callback */
 931:d:/LiteOS_Lab/drivers/third_party/ST/STM32L4xx_HAL_Driver/Src\stm32l4xx_hal_uart.c ****     huart->hdmatx->XferHalfCpltCallback = UART_DMATxHalfCplt;
 1713              		.loc 1 931 10 discriminator 2
 1714 006c FB68     		ldr	r3, [r7, #12]
 1715 006e 9B6E     		ldr	r3, [r3, #104]
 1716              		.loc 1 931 41 discriminator 2
 1717 0070 174A     		ldr	r2, .L92+4
 1718 0072 1A63     		str	r2, [r3, #48]
 932:d:/LiteOS_Lab/drivers/third_party/ST/STM32L4xx_HAL_Driver/Src\stm32l4xx_hal_uart.c **** 
 933:d:/LiteOS_Lab/drivers/third_party/ST/STM32L4xx_HAL_Driver/Src\stm32l4xx_hal_uart.c ****     /* Set the DMA error callback */
 934:d:/LiteOS_Lab/drivers/third_party/ST/STM32L4xx_HAL_Driver/Src\stm32l4xx_hal_uart.c ****     huart->hdmatx->XferErrorCallback = UART_DMAError;
 1719              		.loc 1 934 10 discriminator 2
 1720 0074 FB68     		ldr	r3, [r7, #12]
 1721 0076 9B6E     		ldr	r3, [r3, #104]
 1722              		.loc 1 934 38 discriminator 2
 1723 0078 164A     		ldr	r2, .L92+8
 1724 007a 5A63     		str	r2, [r3, #52]
 935:d:/LiteOS_Lab/drivers/third_party/ST/STM32L4xx_HAL_Driver/Src\stm32l4xx_hal_uart.c **** 
 936:d:/LiteOS_Lab/drivers/third_party/ST/STM32L4xx_HAL_Driver/Src\stm32l4xx_hal_uart.c ****     /* Set the DMA abort callback */
 937:d:/LiteOS_Lab/drivers/third_party/ST/STM32L4xx_HAL_Driver/Src\stm32l4xx_hal_uart.c ****     huart->hdmatx->XferAbortCallback = NULL;
 1725              		.loc 1 937 10 discriminator 2
 1726 007c FB68     		ldr	r3, [r7, #12]
 1727 007e 9B6E     		ldr	r3, [r3, #104]
 1728              		.loc 1 937 38 discriminator 2
 1729 0080 0022     		movs	r2, #0
 1730 0082 9A63     		str	r2, [r3, #56]
 938:d:/LiteOS_Lab/drivers/third_party/ST/STM32L4xx_HAL_Driver/Src\stm32l4xx_hal_uart.c **** 
 939:d:/LiteOS_Lab/drivers/third_party/ST/STM32L4xx_HAL_Driver/Src\stm32l4xx_hal_uart.c ****     /* Enable the UART transmit DMA channel */
 940:d:/LiteOS_Lab/drivers/third_party/ST/STM32L4xx_HAL_Driver/Src\stm32l4xx_hal_uart.c ****     HAL_DMA_Start_IT(huart->hdmatx, (uint32_t)huart->pTxBuffPtr, (uint32_t)&huart->Instance->TDR, S
 1731              		.loc 1 940 5 discriminator 2
 1732 0084 FB68     		ldr	r3, [r7, #12]
 1733 0086 986E     		ldr	r0, [r3, #104]
 1734              		.loc 1 940 52 discriminator 2
 1735 0088 FB68     		ldr	r3, [r7, #12]
 1736 008a DB6C     		ldr	r3, [r3, #76]
 1737              		.loc 1 940 5 discriminator 2
 1738 008c 1946     		mov	r1, r3
 1739              		.loc 1 940 82 discriminator 2
 1740 008e FB68     		ldr	r3, [r7, #12]
 1741 0090 1B68     		ldr	r3, [r3]
 1742              		.loc 1 940 76 discriminator 2
 1743 0092 2833     		adds	r3, r3, #40
 1744              		.loc 1 940 5 discriminator 2
 1745 0094 1A46     		mov	r2, r3
 1746 0096 FB88     		ldrh	r3, [r7, #6]
 1747 0098 FFF7FEFF 		bl	HAL_DMA_Start_IT
 941:d:/LiteOS_Lab/drivers/third_party/ST/STM32L4xx_HAL_Driver/Src\stm32l4xx_hal_uart.c **** 
 942:d:/LiteOS_Lab/drivers/third_party/ST/STM32L4xx_HAL_Driver/Src\stm32l4xx_hal_uart.c ****     /* Clear the TC flag in the ICR register */
 943:d:/LiteOS_Lab/drivers/third_party/ST/STM32L4xx_HAL_Driver/Src\stm32l4xx_hal_uart.c ****     __HAL_UART_CLEAR_FLAG(huart, UART_CLEAR_TCF);
 1748              		.loc 1 943 5 discriminator 2
 1749 009c FB68     		ldr	r3, [r7, #12]
 1750 009e 1B68     		ldr	r3, [r3]
 1751 00a0 4022     		movs	r2, #64
 1752 00a2 1A62     		str	r2, [r3, #32]
 944:d:/LiteOS_Lab/drivers/third_party/ST/STM32L4xx_HAL_Driver/Src\stm32l4xx_hal_uart.c **** 
 945:d:/LiteOS_Lab/drivers/third_party/ST/STM32L4xx_HAL_Driver/Src\stm32l4xx_hal_uart.c ****     /* Process Unlocked */
 946:d:/LiteOS_Lab/drivers/third_party/ST/STM32L4xx_HAL_Driver/Src\stm32l4xx_hal_uart.c ****     __HAL_UNLOCK(huart);
ARM GAS  C:\Users\ADMINI~1\AppData\Local\Temp\ccHDbRvY.s 			page 48


 1753              		.loc 1 946 5 discriminator 2
 1754 00a4 FB68     		ldr	r3, [r7, #12]
 1755 00a6 0022     		movs	r2, #0
 1756 00a8 83F87020 		strb	r2, [r3, #112]
 947:d:/LiteOS_Lab/drivers/third_party/ST/STM32L4xx_HAL_Driver/Src\stm32l4xx_hal_uart.c **** 
 948:d:/LiteOS_Lab/drivers/third_party/ST/STM32L4xx_HAL_Driver/Src\stm32l4xx_hal_uart.c ****     /* Enable the DMA transfer for transmit request by setting the DMAT bit
 949:d:/LiteOS_Lab/drivers/third_party/ST/STM32L4xx_HAL_Driver/Src\stm32l4xx_hal_uart.c ****        in the UART CR3 register */
 950:d:/LiteOS_Lab/drivers/third_party/ST/STM32L4xx_HAL_Driver/Src\stm32l4xx_hal_uart.c ****     SET_BIT(huart->Instance->CR3, USART_CR3_DMAT);
 1757              		.loc 1 950 5 discriminator 2
 1758 00ac FB68     		ldr	r3, [r7, #12]
 1759 00ae 1B68     		ldr	r3, [r3]
 1760 00b0 9A68     		ldr	r2, [r3, #8]
 1761 00b2 FB68     		ldr	r3, [r7, #12]
 1762 00b4 1B68     		ldr	r3, [r3]
 1763 00b6 42F08002 		orr	r2, r2, #128
 1764 00ba 9A60     		str	r2, [r3, #8]
 951:d:/LiteOS_Lab/drivers/third_party/ST/STM32L4xx_HAL_Driver/Src\stm32l4xx_hal_uart.c **** 
 952:d:/LiteOS_Lab/drivers/third_party/ST/STM32L4xx_HAL_Driver/Src\stm32l4xx_hal_uart.c ****     return HAL_OK;
 1765              		.loc 1 952 12 discriminator 2
 1766 00bc 0023     		movs	r3, #0
 1767 00be 00E0     		b	.L90
 1768              	.L87:
 953:d:/LiteOS_Lab/drivers/third_party/ST/STM32L4xx_HAL_Driver/Src\stm32l4xx_hal_uart.c ****   }
 954:d:/LiteOS_Lab/drivers/third_party/ST/STM32L4xx_HAL_Driver/Src\stm32l4xx_hal_uart.c ****   else
 955:d:/LiteOS_Lab/drivers/third_party/ST/STM32L4xx_HAL_Driver/Src\stm32l4xx_hal_uart.c ****   {
 956:d:/LiteOS_Lab/drivers/third_party/ST/STM32L4xx_HAL_Driver/Src\stm32l4xx_hal_uart.c ****     return HAL_BUSY;
 1769              		.loc 1 956 12
 1770 00c0 0223     		movs	r3, #2
 1771              	.L90:
 957:d:/LiteOS_Lab/drivers/third_party/ST/STM32L4xx_HAL_Driver/Src\stm32l4xx_hal_uart.c ****   }
 958:d:/LiteOS_Lab/drivers/third_party/ST/STM32L4xx_HAL_Driver/Src\stm32l4xx_hal_uart.c **** }
 1772              		.loc 1 958 1
 1773 00c2 1846     		mov	r0, r3
 1774 00c4 1037     		adds	r7, r7, #16
 1775              	.LCFI62:
 1776              		.cfi_def_cfa_offset 8
 1777 00c6 BD46     		mov	sp, r7
 1778              	.LCFI63:
 1779              		.cfi_def_cfa_register 13
 1780              		@ sp needed
 1781 00c8 80BD     		pop	{r7, pc}
 1782              	.L93:
 1783 00ca 00BF     		.align	2
 1784              	.L92:
 1785 00cc 00000000 		.word	UART_DMATransmitCplt
 1786 00d0 00000000 		.word	UART_DMATxHalfCplt
 1787 00d4 00000000 		.word	UART_DMAError
 1788              		.cfi_endproc
 1789              	.LFE298:
 1791              		.section	.text.HAL_UART_Receive_DMA,"ax",%progbits
 1792              		.align	1
 1793              		.global	HAL_UART_Receive_DMA
 1794              		.syntax unified
 1795              		.thumb
 1796              		.thumb_func
 1797              		.fpu fpv4-sp-d16
 1799              	HAL_UART_Receive_DMA:
ARM GAS  C:\Users\ADMINI~1\AppData\Local\Temp\ccHDbRvY.s 			page 49


 1800              	.LFB299:
 959:d:/LiteOS_Lab/drivers/third_party/ST/STM32L4xx_HAL_Driver/Src\stm32l4xx_hal_uart.c **** 
 960:d:/LiteOS_Lab/drivers/third_party/ST/STM32L4xx_HAL_Driver/Src\stm32l4xx_hal_uart.c **** /**
 961:d:/LiteOS_Lab/drivers/third_party/ST/STM32L4xx_HAL_Driver/Src\stm32l4xx_hal_uart.c ****   * @brief Receive an amount of data in DMA mode.
 962:d:/LiteOS_Lab/drivers/third_party/ST/STM32L4xx_HAL_Driver/Src\stm32l4xx_hal_uart.c ****   * @param huart: UART handle.
 963:d:/LiteOS_Lab/drivers/third_party/ST/STM32L4xx_HAL_Driver/Src\stm32l4xx_hal_uart.c ****   * @param pData: pointer to data buffer.
 964:d:/LiteOS_Lab/drivers/third_party/ST/STM32L4xx_HAL_Driver/Src\stm32l4xx_hal_uart.c ****   * @param Size: amount of data to be received.
 965:d:/LiteOS_Lab/drivers/third_party/ST/STM32L4xx_HAL_Driver/Src\stm32l4xx_hal_uart.c ****   * @note   When the UART parity is enabled (PCE = 1), the received data contain
 966:d:/LiteOS_Lab/drivers/third_party/ST/STM32L4xx_HAL_Driver/Src\stm32l4xx_hal_uart.c ****   *         the parity bit (MSB position).
 967:d:/LiteOS_Lab/drivers/third_party/ST/STM32L4xx_HAL_Driver/Src\stm32l4xx_hal_uart.c ****   * @retval HAL status
 968:d:/LiteOS_Lab/drivers/third_party/ST/STM32L4xx_HAL_Driver/Src\stm32l4xx_hal_uart.c ****   */
 969:d:/LiteOS_Lab/drivers/third_party/ST/STM32L4xx_HAL_Driver/Src\stm32l4xx_hal_uart.c **** HAL_StatusTypeDef HAL_UART_Receive_DMA(UART_HandleTypeDef *huart, uint8_t *pData, uint16_t Size)
 970:d:/LiteOS_Lab/drivers/third_party/ST/STM32L4xx_HAL_Driver/Src\stm32l4xx_hal_uart.c **** {
 1801              		.loc 1 970 1
 1802              		.cfi_startproc
 1803              		@ args = 0, pretend = 0, frame = 16
 1804              		@ frame_needed = 1, uses_anonymous_args = 0
 1805 0000 80B5     		push	{r7, lr}
 1806              	.LCFI64:
 1807              		.cfi_def_cfa_offset 8
 1808              		.cfi_offset 7, -8
 1809              		.cfi_offset 14, -4
 1810 0002 84B0     		sub	sp, sp, #16
 1811              	.LCFI65:
 1812              		.cfi_def_cfa_offset 24
 1813 0004 00AF     		add	r7, sp, #0
 1814              	.LCFI66:
 1815              		.cfi_def_cfa_register 7
 1816 0006 F860     		str	r0, [r7, #12]
 1817 0008 B960     		str	r1, [r7, #8]
 1818 000a 1346     		mov	r3, r2
 1819 000c FB80     		strh	r3, [r7, #6]	@ movhi
 971:d:/LiteOS_Lab/drivers/third_party/ST/STM32L4xx_HAL_Driver/Src\stm32l4xx_hal_uart.c ****   /* Check that a Rx process is not already ongoing */
 972:d:/LiteOS_Lab/drivers/third_party/ST/STM32L4xx_HAL_Driver/Src\stm32l4xx_hal_uart.c ****   if(huart->RxState == HAL_UART_STATE_READY)
 1820              		.loc 1 972 11
 1821 000e FB68     		ldr	r3, [r7, #12]
 1822 0010 93F87230 		ldrb	r3, [r3, #114]
 1823 0014 DBB2     		uxtb	r3, r3
 1824              		.loc 1 972 5
 1825 0016 202B     		cmp	r3, #32
 1826 0018 5AD1     		bne	.L95
 973:d:/LiteOS_Lab/drivers/third_party/ST/STM32L4xx_HAL_Driver/Src\stm32l4xx_hal_uart.c ****   {
 974:d:/LiteOS_Lab/drivers/third_party/ST/STM32L4xx_HAL_Driver/Src\stm32l4xx_hal_uart.c ****     if((pData == NULL ) || (Size == 0))
 1827              		.loc 1 974 7
 1828 001a BB68     		ldr	r3, [r7, #8]
 1829 001c 002B     		cmp	r3, #0
 1830 001e 02D0     		beq	.L96
 1831              		.loc 1 974 25 discriminator 1
 1832 0020 FB88     		ldrh	r3, [r7, #6]
 1833 0022 002B     		cmp	r3, #0
 1834 0024 01D1     		bne	.L97
 1835              	.L96:
 975:d:/LiteOS_Lab/drivers/third_party/ST/STM32L4xx_HAL_Driver/Src\stm32l4xx_hal_uart.c ****     {
 976:d:/LiteOS_Lab/drivers/third_party/ST/STM32L4xx_HAL_Driver/Src\stm32l4xx_hal_uart.c ****       return HAL_ERROR;
 1836              		.loc 1 976 14
 1837 0026 0123     		movs	r3, #1
 1838 0028 53E0     		b	.L98
ARM GAS  C:\Users\ADMINI~1\AppData\Local\Temp\ccHDbRvY.s 			page 50


 1839              	.L97:
 977:d:/LiteOS_Lab/drivers/third_party/ST/STM32L4xx_HAL_Driver/Src\stm32l4xx_hal_uart.c ****     }
 978:d:/LiteOS_Lab/drivers/third_party/ST/STM32L4xx_HAL_Driver/Src\stm32l4xx_hal_uart.c **** 
 979:d:/LiteOS_Lab/drivers/third_party/ST/STM32L4xx_HAL_Driver/Src\stm32l4xx_hal_uart.c ****     /* Process Locked */
 980:d:/LiteOS_Lab/drivers/third_party/ST/STM32L4xx_HAL_Driver/Src\stm32l4xx_hal_uart.c ****     __HAL_LOCK(huart);
 1840              		.loc 1 980 5
 1841 002a FB68     		ldr	r3, [r7, #12]
 1842 002c 93F87030 		ldrb	r3, [r3, #112]	@ zero_extendqisi2
 1843 0030 012B     		cmp	r3, #1
 1844 0032 01D1     		bne	.L99
 1845              		.loc 1 980 5 is_stmt 0 discriminator 1
 1846 0034 0223     		movs	r3, #2
 1847 0036 4CE0     		b	.L98
 1848              	.L99:
 1849              		.loc 1 980 5 discriminator 2
 1850 0038 FB68     		ldr	r3, [r7, #12]
 1851 003a 0122     		movs	r2, #1
 1852 003c 83F87020 		strb	r2, [r3, #112]
 981:d:/LiteOS_Lab/drivers/third_party/ST/STM32L4xx_HAL_Driver/Src\stm32l4xx_hal_uart.c **** 
 982:d:/LiteOS_Lab/drivers/third_party/ST/STM32L4xx_HAL_Driver/Src\stm32l4xx_hal_uart.c ****     huart->pRxBuffPtr = pData;
 1853              		.loc 1 982 23 is_stmt 1 discriminator 2
 1854 0040 FB68     		ldr	r3, [r7, #12]
 1855 0042 BA68     		ldr	r2, [r7, #8]
 1856 0044 5A65     		str	r2, [r3, #84]
 983:d:/LiteOS_Lab/drivers/third_party/ST/STM32L4xx_HAL_Driver/Src\stm32l4xx_hal_uart.c ****     huart->RxXferSize = Size;
 1857              		.loc 1 983 23 discriminator 2
 1858 0046 FB68     		ldr	r3, [r7, #12]
 1859 0048 FA88     		ldrh	r2, [r7, #6]	@ movhi
 1860 004a A3F85820 		strh	r2, [r3, #88]	@ movhi
 984:d:/LiteOS_Lab/drivers/third_party/ST/STM32L4xx_HAL_Driver/Src\stm32l4xx_hal_uart.c **** 
 985:d:/LiteOS_Lab/drivers/third_party/ST/STM32L4xx_HAL_Driver/Src\stm32l4xx_hal_uart.c ****     huart->ErrorCode = HAL_UART_ERROR_NONE;
 1861              		.loc 1 985 22 discriminator 2
 1862 004e FB68     		ldr	r3, [r7, #12]
 1863 0050 0022     		movs	r2, #0
 1864 0052 5A67     		str	r2, [r3, #116]
 986:d:/LiteOS_Lab/drivers/third_party/ST/STM32L4xx_HAL_Driver/Src\stm32l4xx_hal_uart.c ****     huart->RxState = HAL_UART_STATE_BUSY_RX;
 1865              		.loc 1 986 20 discriminator 2
 1866 0054 FB68     		ldr	r3, [r7, #12]
 1867 0056 2222     		movs	r2, #34
 1868 0058 83F87220 		strb	r2, [r3, #114]
 987:d:/LiteOS_Lab/drivers/third_party/ST/STM32L4xx_HAL_Driver/Src\stm32l4xx_hal_uart.c **** 
 988:d:/LiteOS_Lab/drivers/third_party/ST/STM32L4xx_HAL_Driver/Src\stm32l4xx_hal_uart.c ****     /* Set the UART DMA transfer complete callback */
 989:d:/LiteOS_Lab/drivers/third_party/ST/STM32L4xx_HAL_Driver/Src\stm32l4xx_hal_uart.c ****     huart->hdmarx->XferCpltCallback = UART_DMAReceiveCplt;
 1869              		.loc 1 989 10 discriminator 2
 1870 005c FB68     		ldr	r3, [r7, #12]
 1871 005e DB6E     		ldr	r3, [r3, #108]
 1872              		.loc 1 989 37 discriminator 2
 1873 0060 1E4A     		ldr	r2, .L100
 1874 0062 DA62     		str	r2, [r3, #44]
 990:d:/LiteOS_Lab/drivers/third_party/ST/STM32L4xx_HAL_Driver/Src\stm32l4xx_hal_uart.c **** 
 991:d:/LiteOS_Lab/drivers/third_party/ST/STM32L4xx_HAL_Driver/Src\stm32l4xx_hal_uart.c ****     /* Set the UART DMA Half transfer complete callback */
 992:d:/LiteOS_Lab/drivers/third_party/ST/STM32L4xx_HAL_Driver/Src\stm32l4xx_hal_uart.c ****     huart->hdmarx->XferHalfCpltCallback = UART_DMARxHalfCplt;
 1875              		.loc 1 992 10 discriminator 2
 1876 0064 FB68     		ldr	r3, [r7, #12]
 1877 0066 DB6E     		ldr	r3, [r3, #108]
 1878              		.loc 1 992 41 discriminator 2
 1879 0068 1D4A     		ldr	r2, .L100+4
ARM GAS  C:\Users\ADMINI~1\AppData\Local\Temp\ccHDbRvY.s 			page 51


 1880 006a 1A63     		str	r2, [r3, #48]
 993:d:/LiteOS_Lab/drivers/third_party/ST/STM32L4xx_HAL_Driver/Src\stm32l4xx_hal_uart.c **** 
 994:d:/LiteOS_Lab/drivers/third_party/ST/STM32L4xx_HAL_Driver/Src\stm32l4xx_hal_uart.c ****     /* Set the DMA error callback */
 995:d:/LiteOS_Lab/drivers/third_party/ST/STM32L4xx_HAL_Driver/Src\stm32l4xx_hal_uart.c ****     huart->hdmarx->XferErrorCallback = UART_DMAError;
 1881              		.loc 1 995 10 discriminator 2
 1882 006c FB68     		ldr	r3, [r7, #12]
 1883 006e DB6E     		ldr	r3, [r3, #108]
 1884              		.loc 1 995 38 discriminator 2
 1885 0070 1C4A     		ldr	r2, .L100+8
 1886 0072 5A63     		str	r2, [r3, #52]
 996:d:/LiteOS_Lab/drivers/third_party/ST/STM32L4xx_HAL_Driver/Src\stm32l4xx_hal_uart.c **** 
 997:d:/LiteOS_Lab/drivers/third_party/ST/STM32L4xx_HAL_Driver/Src\stm32l4xx_hal_uart.c ****     /* Set the DMA abort callback */
 998:d:/LiteOS_Lab/drivers/third_party/ST/STM32L4xx_HAL_Driver/Src\stm32l4xx_hal_uart.c ****     huart->hdmarx->XferAbortCallback = NULL;
 1887              		.loc 1 998 10 discriminator 2
 1888 0074 FB68     		ldr	r3, [r7, #12]
 1889 0076 DB6E     		ldr	r3, [r3, #108]
 1890              		.loc 1 998 38 discriminator 2
 1891 0078 0022     		movs	r2, #0
 1892 007a 9A63     		str	r2, [r3, #56]
 999:d:/LiteOS_Lab/drivers/third_party/ST/STM32L4xx_HAL_Driver/Src\stm32l4xx_hal_uart.c **** 
1000:d:/LiteOS_Lab/drivers/third_party/ST/STM32L4xx_HAL_Driver/Src\stm32l4xx_hal_uart.c ****     /* Enable the DMA channel */
1001:d:/LiteOS_Lab/drivers/third_party/ST/STM32L4xx_HAL_Driver/Src\stm32l4xx_hal_uart.c ****     HAL_DMA_Start_IT(huart->hdmarx, (uint32_t)&huart->Instance->RDR, (uint32_t)huart->pRxBuffPtr, S
 1893              		.loc 1 1001 5 discriminator 2
 1894 007c FB68     		ldr	r3, [r7, #12]
 1895 007e D86E     		ldr	r0, [r3, #108]
 1896              		.loc 1 1001 53 discriminator 2
 1897 0080 FB68     		ldr	r3, [r7, #12]
 1898 0082 1B68     		ldr	r3, [r3]
 1899              		.loc 1 1001 47 discriminator 2
 1900 0084 2433     		adds	r3, r3, #36
 1901              		.loc 1 1001 5 discriminator 2
 1902 0086 1946     		mov	r1, r3
 1903              		.loc 1 1001 85 discriminator 2
 1904 0088 FB68     		ldr	r3, [r7, #12]
 1905 008a 5B6D     		ldr	r3, [r3, #84]
 1906              		.loc 1 1001 5 discriminator 2
 1907 008c 1A46     		mov	r2, r3
 1908 008e FB88     		ldrh	r3, [r7, #6]
 1909 0090 FFF7FEFF 		bl	HAL_DMA_Start_IT
1002:d:/LiteOS_Lab/drivers/third_party/ST/STM32L4xx_HAL_Driver/Src\stm32l4xx_hal_uart.c **** 
1003:d:/LiteOS_Lab/drivers/third_party/ST/STM32L4xx_HAL_Driver/Src\stm32l4xx_hal_uart.c ****     /* Process Unlocked */
1004:d:/LiteOS_Lab/drivers/third_party/ST/STM32L4xx_HAL_Driver/Src\stm32l4xx_hal_uart.c ****     __HAL_UNLOCK(huart);
 1910              		.loc 1 1004 5 discriminator 2
 1911 0094 FB68     		ldr	r3, [r7, #12]
 1912 0096 0022     		movs	r2, #0
 1913 0098 83F87020 		strb	r2, [r3, #112]
1005:d:/LiteOS_Lab/drivers/third_party/ST/STM32L4xx_HAL_Driver/Src\stm32l4xx_hal_uart.c **** 
1006:d:/LiteOS_Lab/drivers/third_party/ST/STM32L4xx_HAL_Driver/Src\stm32l4xx_hal_uart.c ****     /* Enable the UART Parity Error Interrupt */
1007:d:/LiteOS_Lab/drivers/third_party/ST/STM32L4xx_HAL_Driver/Src\stm32l4xx_hal_uart.c ****     SET_BIT(huart->Instance->CR1, USART_CR1_PEIE);
 1914              		.loc 1 1007 5 discriminator 2
 1915 009c FB68     		ldr	r3, [r7, #12]
 1916 009e 1B68     		ldr	r3, [r3]
 1917 00a0 1A68     		ldr	r2, [r3]
 1918 00a2 FB68     		ldr	r3, [r7, #12]
 1919 00a4 1B68     		ldr	r3, [r3]
 1920 00a6 42F48072 		orr	r2, r2, #256
 1921 00aa 1A60     		str	r2, [r3]
ARM GAS  C:\Users\ADMINI~1\AppData\Local\Temp\ccHDbRvY.s 			page 52


1008:d:/LiteOS_Lab/drivers/third_party/ST/STM32L4xx_HAL_Driver/Src\stm32l4xx_hal_uart.c **** 
1009:d:/LiteOS_Lab/drivers/third_party/ST/STM32L4xx_HAL_Driver/Src\stm32l4xx_hal_uart.c ****     /* Enable the UART Error Interrupt: (Frame error, noise error, overrun error) */
1010:d:/LiteOS_Lab/drivers/third_party/ST/STM32L4xx_HAL_Driver/Src\stm32l4xx_hal_uart.c ****     SET_BIT(huart->Instance->CR3, USART_CR3_EIE);
 1922              		.loc 1 1010 5 discriminator 2
 1923 00ac FB68     		ldr	r3, [r7, #12]
 1924 00ae 1B68     		ldr	r3, [r3]
 1925 00b0 9A68     		ldr	r2, [r3, #8]
 1926 00b2 FB68     		ldr	r3, [r7, #12]
 1927 00b4 1B68     		ldr	r3, [r3]
 1928 00b6 42F00102 		orr	r2, r2, #1
 1929 00ba 9A60     		str	r2, [r3, #8]
1011:d:/LiteOS_Lab/drivers/third_party/ST/STM32L4xx_HAL_Driver/Src\stm32l4xx_hal_uart.c **** 
1012:d:/LiteOS_Lab/drivers/third_party/ST/STM32L4xx_HAL_Driver/Src\stm32l4xx_hal_uart.c ****     /* Enable the DMA transfer for the receiver request by setting the DMAR bit
1013:d:/LiteOS_Lab/drivers/third_party/ST/STM32L4xx_HAL_Driver/Src\stm32l4xx_hal_uart.c ****        in the UART CR3 register */
1014:d:/LiteOS_Lab/drivers/third_party/ST/STM32L4xx_HAL_Driver/Src\stm32l4xx_hal_uart.c ****     SET_BIT(huart->Instance->CR3, USART_CR3_DMAR);
 1930              		.loc 1 1014 5 discriminator 2
 1931 00bc FB68     		ldr	r3, [r7, #12]
 1932 00be 1B68     		ldr	r3, [r3]
 1933 00c0 9A68     		ldr	r2, [r3, #8]
 1934 00c2 FB68     		ldr	r3, [r7, #12]
 1935 00c4 1B68     		ldr	r3, [r3]
 1936 00c6 42F04002 		orr	r2, r2, #64
 1937 00ca 9A60     		str	r2, [r3, #8]
1015:d:/LiteOS_Lab/drivers/third_party/ST/STM32L4xx_HAL_Driver/Src\stm32l4xx_hal_uart.c **** 
1016:d:/LiteOS_Lab/drivers/third_party/ST/STM32L4xx_HAL_Driver/Src\stm32l4xx_hal_uart.c ****     return HAL_OK;
 1938              		.loc 1 1016 12 discriminator 2
 1939 00cc 0023     		movs	r3, #0
 1940 00ce 00E0     		b	.L98
 1941              	.L95:
1017:d:/LiteOS_Lab/drivers/third_party/ST/STM32L4xx_HAL_Driver/Src\stm32l4xx_hal_uart.c ****   }
1018:d:/LiteOS_Lab/drivers/third_party/ST/STM32L4xx_HAL_Driver/Src\stm32l4xx_hal_uart.c ****   else
1019:d:/LiteOS_Lab/drivers/third_party/ST/STM32L4xx_HAL_Driver/Src\stm32l4xx_hal_uart.c ****   {
1020:d:/LiteOS_Lab/drivers/third_party/ST/STM32L4xx_HAL_Driver/Src\stm32l4xx_hal_uart.c ****     return HAL_BUSY;
 1942              		.loc 1 1020 12
 1943 00d0 0223     		movs	r3, #2
 1944              	.L98:
1021:d:/LiteOS_Lab/drivers/third_party/ST/STM32L4xx_HAL_Driver/Src\stm32l4xx_hal_uart.c ****   }
1022:d:/LiteOS_Lab/drivers/third_party/ST/STM32L4xx_HAL_Driver/Src\stm32l4xx_hal_uart.c **** }
 1945              		.loc 1 1022 1
 1946 00d2 1846     		mov	r0, r3
 1947 00d4 1037     		adds	r7, r7, #16
 1948              	.LCFI67:
 1949              		.cfi_def_cfa_offset 8
 1950 00d6 BD46     		mov	sp, r7
 1951              	.LCFI68:
 1952              		.cfi_def_cfa_register 13
 1953              		@ sp needed
 1954 00d8 80BD     		pop	{r7, pc}
 1955              	.L101:
 1956 00da 00BF     		.align	2
 1957              	.L100:
 1958 00dc 00000000 		.word	UART_DMAReceiveCplt
 1959 00e0 00000000 		.word	UART_DMARxHalfCplt
 1960 00e4 00000000 		.word	UART_DMAError
 1961              		.cfi_endproc
 1962              	.LFE299:
 1964              		.section	.text.HAL_UART_DMAPause,"ax",%progbits
ARM GAS  C:\Users\ADMINI~1\AppData\Local\Temp\ccHDbRvY.s 			page 53


 1965              		.align	1
 1966              		.global	HAL_UART_DMAPause
 1967              		.syntax unified
 1968              		.thumb
 1969              		.thumb_func
 1970              		.fpu fpv4-sp-d16
 1972              	HAL_UART_DMAPause:
 1973              	.LFB300:
1023:d:/LiteOS_Lab/drivers/third_party/ST/STM32L4xx_HAL_Driver/Src\stm32l4xx_hal_uart.c **** 
1024:d:/LiteOS_Lab/drivers/third_party/ST/STM32L4xx_HAL_Driver/Src\stm32l4xx_hal_uart.c **** /**
1025:d:/LiteOS_Lab/drivers/third_party/ST/STM32L4xx_HAL_Driver/Src\stm32l4xx_hal_uart.c ****   * @brief Pause the DMA Transfer.
1026:d:/LiteOS_Lab/drivers/third_party/ST/STM32L4xx_HAL_Driver/Src\stm32l4xx_hal_uart.c ****   * @param huart: UART handle.
1027:d:/LiteOS_Lab/drivers/third_party/ST/STM32L4xx_HAL_Driver/Src\stm32l4xx_hal_uart.c ****   * @retval HAL status
1028:d:/LiteOS_Lab/drivers/third_party/ST/STM32L4xx_HAL_Driver/Src\stm32l4xx_hal_uart.c ****   */
1029:d:/LiteOS_Lab/drivers/third_party/ST/STM32L4xx_HAL_Driver/Src\stm32l4xx_hal_uart.c **** HAL_StatusTypeDef HAL_UART_DMAPause(UART_HandleTypeDef *huart)
1030:d:/LiteOS_Lab/drivers/third_party/ST/STM32L4xx_HAL_Driver/Src\stm32l4xx_hal_uart.c **** {
 1974              		.loc 1 1030 1
 1975              		.cfi_startproc
 1976              		@ args = 0, pretend = 0, frame = 8
 1977              		@ frame_needed = 1, uses_anonymous_args = 0
 1978              		@ link register save eliminated.
 1979 0000 80B4     		push	{r7}
 1980              	.LCFI69:
 1981              		.cfi_def_cfa_offset 4
 1982              		.cfi_offset 7, -4
 1983 0002 83B0     		sub	sp, sp, #12
 1984              	.LCFI70:
 1985              		.cfi_def_cfa_offset 16
 1986 0004 00AF     		add	r7, sp, #0
 1987              	.LCFI71:
 1988              		.cfi_def_cfa_register 7
 1989 0006 7860     		str	r0, [r7, #4]
1031:d:/LiteOS_Lab/drivers/third_party/ST/STM32L4xx_HAL_Driver/Src\stm32l4xx_hal_uart.c ****   /* Process Locked */
1032:d:/LiteOS_Lab/drivers/third_party/ST/STM32L4xx_HAL_Driver/Src\stm32l4xx_hal_uart.c ****   __HAL_LOCK(huart);
 1990              		.loc 1 1032 3
 1991 0008 7B68     		ldr	r3, [r7, #4]
 1992 000a 93F87030 		ldrb	r3, [r3, #112]	@ zero_extendqisi2
 1993 000e 012B     		cmp	r3, #1
 1994 0010 01D1     		bne	.L103
 1995              		.loc 1 1032 3 is_stmt 0 discriminator 1
 1996 0012 0223     		movs	r3, #2
 1997 0014 42E0     		b	.L104
 1998              	.L103:
 1999              		.loc 1 1032 3 discriminator 2
 2000 0016 7B68     		ldr	r3, [r7, #4]
 2001 0018 0122     		movs	r2, #1
 2002 001a 83F87020 		strb	r2, [r3, #112]
1033:d:/LiteOS_Lab/drivers/third_party/ST/STM32L4xx_HAL_Driver/Src\stm32l4xx_hal_uart.c **** 
1034:d:/LiteOS_Lab/drivers/third_party/ST/STM32L4xx_HAL_Driver/Src\stm32l4xx_hal_uart.c ****   if ((huart->gState == HAL_UART_STATE_BUSY_TX) &&
 2003              		.loc 1 1034 13 is_stmt 1 discriminator 2
 2004 001e 7B68     		ldr	r3, [r7, #4]
 2005 0020 93F87130 		ldrb	r3, [r3, #113]
 2006 0024 DBB2     		uxtb	r3, r3
 2007              		.loc 1 1034 6 discriminator 2
 2008 0026 212B     		cmp	r3, #33
 2009 0028 0ED1     		bne	.L105
1035:d:/LiteOS_Lab/drivers/third_party/ST/STM32L4xx_HAL_Driver/Src\stm32l4xx_hal_uart.c ****       (HAL_IS_BIT_SET(huart->Instance->CR3, USART_CR3_DMAT)))
ARM GAS  C:\Users\ADMINI~1\AppData\Local\Temp\ccHDbRvY.s 			page 54


 2010              		.loc 1 1035 8 discriminator 1
 2011 002a 7B68     		ldr	r3, [r7, #4]
 2012 002c 1B68     		ldr	r3, [r3]
 2013 002e 9B68     		ldr	r3, [r3, #8]
 2014 0030 03F08003 		and	r3, r3, #128
1034:d:/LiteOS_Lab/drivers/third_party/ST/STM32L4xx_HAL_Driver/Src\stm32l4xx_hal_uart.c ****       (HAL_IS_BIT_SET(huart->Instance->CR3, USART_CR3_DMAT)))
 2015              		.loc 1 1034 49 discriminator 1
 2016 0034 802B     		cmp	r3, #128
 2017 0036 07D1     		bne	.L105
1036:d:/LiteOS_Lab/drivers/third_party/ST/STM32L4xx_HAL_Driver/Src\stm32l4xx_hal_uart.c ****   {
1037:d:/LiteOS_Lab/drivers/third_party/ST/STM32L4xx_HAL_Driver/Src\stm32l4xx_hal_uart.c ****     /* Disable the UART DMA Tx request */
1038:d:/LiteOS_Lab/drivers/third_party/ST/STM32L4xx_HAL_Driver/Src\stm32l4xx_hal_uart.c ****     CLEAR_BIT(huart->Instance->CR3, USART_CR3_DMAT);
 2018              		.loc 1 1038 5
 2019 0038 7B68     		ldr	r3, [r7, #4]
 2020 003a 1B68     		ldr	r3, [r3]
 2021 003c 9A68     		ldr	r2, [r3, #8]
 2022 003e 7B68     		ldr	r3, [r7, #4]
 2023 0040 1B68     		ldr	r3, [r3]
 2024 0042 22F08002 		bic	r2, r2, #128
 2025 0046 9A60     		str	r2, [r3, #8]
 2026              	.L105:
1039:d:/LiteOS_Lab/drivers/third_party/ST/STM32L4xx_HAL_Driver/Src\stm32l4xx_hal_uart.c ****   }
1040:d:/LiteOS_Lab/drivers/third_party/ST/STM32L4xx_HAL_Driver/Src\stm32l4xx_hal_uart.c ****   if ((huart->RxState == HAL_UART_STATE_BUSY_RX) &&
 2027              		.loc 1 1040 13
 2028 0048 7B68     		ldr	r3, [r7, #4]
 2029 004a 93F87230 		ldrb	r3, [r3, #114]
 2030 004e DBB2     		uxtb	r3, r3
 2031              		.loc 1 1040 6
 2032 0050 222B     		cmp	r3, #34
 2033 0052 1ED1     		bne	.L106
1041:d:/LiteOS_Lab/drivers/third_party/ST/STM32L4xx_HAL_Driver/Src\stm32l4xx_hal_uart.c ****       (HAL_IS_BIT_SET(huart->Instance->CR3, USART_CR3_DMAR)))
 2034              		.loc 1 1041 8 discriminator 1
 2035 0054 7B68     		ldr	r3, [r7, #4]
 2036 0056 1B68     		ldr	r3, [r3]
 2037 0058 9B68     		ldr	r3, [r3, #8]
 2038 005a 03F04003 		and	r3, r3, #64
1040:d:/LiteOS_Lab/drivers/third_party/ST/STM32L4xx_HAL_Driver/Src\stm32l4xx_hal_uart.c ****       (HAL_IS_BIT_SET(huart->Instance->CR3, USART_CR3_DMAR)))
 2039              		.loc 1 1040 50 discriminator 1
 2040 005e 402B     		cmp	r3, #64
 2041 0060 17D1     		bne	.L106
1042:d:/LiteOS_Lab/drivers/third_party/ST/STM32L4xx_HAL_Driver/Src\stm32l4xx_hal_uart.c ****   {
1043:d:/LiteOS_Lab/drivers/third_party/ST/STM32L4xx_HAL_Driver/Src\stm32l4xx_hal_uart.c ****     /* Disable PE and ERR (Frame error, noise error, overrun error) interrupts */
1044:d:/LiteOS_Lab/drivers/third_party/ST/STM32L4xx_HAL_Driver/Src\stm32l4xx_hal_uart.c ****     CLEAR_BIT(huart->Instance->CR1, USART_CR1_PEIE);
 2042              		.loc 1 1044 5
 2043 0062 7B68     		ldr	r3, [r7, #4]
 2044 0064 1B68     		ldr	r3, [r3]
 2045 0066 1A68     		ldr	r2, [r3]
 2046 0068 7B68     		ldr	r3, [r7, #4]
 2047 006a 1B68     		ldr	r3, [r3]
 2048 006c 22F48072 		bic	r2, r2, #256
 2049 0070 1A60     		str	r2, [r3]
1045:d:/LiteOS_Lab/drivers/third_party/ST/STM32L4xx_HAL_Driver/Src\stm32l4xx_hal_uart.c ****     CLEAR_BIT(huart->Instance->CR3, USART_CR3_EIE);
 2050              		.loc 1 1045 5
 2051 0072 7B68     		ldr	r3, [r7, #4]
 2052 0074 1B68     		ldr	r3, [r3]
 2053 0076 9A68     		ldr	r2, [r3, #8]
 2054 0078 7B68     		ldr	r3, [r7, #4]
ARM GAS  C:\Users\ADMINI~1\AppData\Local\Temp\ccHDbRvY.s 			page 55


 2055 007a 1B68     		ldr	r3, [r3]
 2056 007c 22F00102 		bic	r2, r2, #1
 2057 0080 9A60     		str	r2, [r3, #8]
1046:d:/LiteOS_Lab/drivers/third_party/ST/STM32L4xx_HAL_Driver/Src\stm32l4xx_hal_uart.c **** 
1047:d:/LiteOS_Lab/drivers/third_party/ST/STM32L4xx_HAL_Driver/Src\stm32l4xx_hal_uart.c ****     /* Disable the UART DMA Rx request */
1048:d:/LiteOS_Lab/drivers/third_party/ST/STM32L4xx_HAL_Driver/Src\stm32l4xx_hal_uart.c ****     CLEAR_BIT(huart->Instance->CR3, USART_CR3_DMAR);
 2058              		.loc 1 1048 5
 2059 0082 7B68     		ldr	r3, [r7, #4]
 2060 0084 1B68     		ldr	r3, [r3]
 2061 0086 9A68     		ldr	r2, [r3, #8]
 2062 0088 7B68     		ldr	r3, [r7, #4]
 2063 008a 1B68     		ldr	r3, [r3]
 2064 008c 22F04002 		bic	r2, r2, #64
 2065 0090 9A60     		str	r2, [r3, #8]
 2066              	.L106:
1049:d:/LiteOS_Lab/drivers/third_party/ST/STM32L4xx_HAL_Driver/Src\stm32l4xx_hal_uart.c ****   }
1050:d:/LiteOS_Lab/drivers/third_party/ST/STM32L4xx_HAL_Driver/Src\stm32l4xx_hal_uart.c **** 
1051:d:/LiteOS_Lab/drivers/third_party/ST/STM32L4xx_HAL_Driver/Src\stm32l4xx_hal_uart.c ****   /* Process Unlocked */
1052:d:/LiteOS_Lab/drivers/third_party/ST/STM32L4xx_HAL_Driver/Src\stm32l4xx_hal_uart.c ****   __HAL_UNLOCK(huart);
 2067              		.loc 1 1052 3
 2068 0092 7B68     		ldr	r3, [r7, #4]
 2069 0094 0022     		movs	r2, #0
 2070 0096 83F87020 		strb	r2, [r3, #112]
1053:d:/LiteOS_Lab/drivers/third_party/ST/STM32L4xx_HAL_Driver/Src\stm32l4xx_hal_uart.c **** 
1054:d:/LiteOS_Lab/drivers/third_party/ST/STM32L4xx_HAL_Driver/Src\stm32l4xx_hal_uart.c ****   return HAL_OK;
 2071              		.loc 1 1054 10
 2072 009a 0023     		movs	r3, #0
 2073              	.L104:
1055:d:/LiteOS_Lab/drivers/third_party/ST/STM32L4xx_HAL_Driver/Src\stm32l4xx_hal_uart.c **** }
 2074              		.loc 1 1055 1
 2075 009c 1846     		mov	r0, r3
 2076 009e 0C37     		adds	r7, r7, #12
 2077              	.LCFI72:
 2078              		.cfi_def_cfa_offset 4
 2079 00a0 BD46     		mov	sp, r7
 2080              	.LCFI73:
 2081              		.cfi_def_cfa_register 13
 2082              		@ sp needed
 2083 00a2 5DF8047B 		ldr	r7, [sp], #4
 2084              	.LCFI74:
 2085              		.cfi_restore 7
 2086              		.cfi_def_cfa_offset 0
 2087 00a6 7047     		bx	lr
 2088              		.cfi_endproc
 2089              	.LFE300:
 2091              		.section	.text.HAL_UART_DMAResume,"ax",%progbits
 2092              		.align	1
 2093              		.global	HAL_UART_DMAResume
 2094              		.syntax unified
 2095              		.thumb
 2096              		.thumb_func
 2097              		.fpu fpv4-sp-d16
 2099              	HAL_UART_DMAResume:
 2100              	.LFB301:
1056:d:/LiteOS_Lab/drivers/third_party/ST/STM32L4xx_HAL_Driver/Src\stm32l4xx_hal_uart.c **** 
1057:d:/LiteOS_Lab/drivers/third_party/ST/STM32L4xx_HAL_Driver/Src\stm32l4xx_hal_uart.c **** /**
1058:d:/LiteOS_Lab/drivers/third_party/ST/STM32L4xx_HAL_Driver/Src\stm32l4xx_hal_uart.c ****   * @brief Resume the DMA Transfer.
ARM GAS  C:\Users\ADMINI~1\AppData\Local\Temp\ccHDbRvY.s 			page 56


1059:d:/LiteOS_Lab/drivers/third_party/ST/STM32L4xx_HAL_Driver/Src\stm32l4xx_hal_uart.c ****   * @param huart: UART handle.
1060:d:/LiteOS_Lab/drivers/third_party/ST/STM32L4xx_HAL_Driver/Src\stm32l4xx_hal_uart.c ****   * @retval HAL status
1061:d:/LiteOS_Lab/drivers/third_party/ST/STM32L4xx_HAL_Driver/Src\stm32l4xx_hal_uart.c ****   */
1062:d:/LiteOS_Lab/drivers/third_party/ST/STM32L4xx_HAL_Driver/Src\stm32l4xx_hal_uart.c **** HAL_StatusTypeDef HAL_UART_DMAResume(UART_HandleTypeDef *huart)
1063:d:/LiteOS_Lab/drivers/third_party/ST/STM32L4xx_HAL_Driver/Src\stm32l4xx_hal_uart.c **** {
 2101              		.loc 1 1063 1
 2102              		.cfi_startproc
 2103              		@ args = 0, pretend = 0, frame = 8
 2104              		@ frame_needed = 1, uses_anonymous_args = 0
 2105              		@ link register save eliminated.
 2106 0000 80B4     		push	{r7}
 2107              	.LCFI75:
 2108              		.cfi_def_cfa_offset 4
 2109              		.cfi_offset 7, -4
 2110 0002 83B0     		sub	sp, sp, #12
 2111              	.LCFI76:
 2112              		.cfi_def_cfa_offset 16
 2113 0004 00AF     		add	r7, sp, #0
 2114              	.LCFI77:
 2115              		.cfi_def_cfa_register 7
 2116 0006 7860     		str	r0, [r7, #4]
1064:d:/LiteOS_Lab/drivers/third_party/ST/STM32L4xx_HAL_Driver/Src\stm32l4xx_hal_uart.c ****   /* Process Locked */
1065:d:/LiteOS_Lab/drivers/third_party/ST/STM32L4xx_HAL_Driver/Src\stm32l4xx_hal_uart.c ****   __HAL_LOCK(huart);
 2117              		.loc 1 1065 3
 2118 0008 7B68     		ldr	r3, [r7, #4]
 2119 000a 93F87030 		ldrb	r3, [r3, #112]	@ zero_extendqisi2
 2120 000e 012B     		cmp	r3, #1
 2121 0010 01D1     		bne	.L108
 2122              		.loc 1 1065 3 is_stmt 0 discriminator 1
 2123 0012 0223     		movs	r3, #2
 2124 0014 38E0     		b	.L109
 2125              	.L108:
 2126              		.loc 1 1065 3 discriminator 2
 2127 0016 7B68     		ldr	r3, [r7, #4]
 2128 0018 0122     		movs	r2, #1
 2129 001a 83F87020 		strb	r2, [r3, #112]
1066:d:/LiteOS_Lab/drivers/third_party/ST/STM32L4xx_HAL_Driver/Src\stm32l4xx_hal_uart.c **** 
1067:d:/LiteOS_Lab/drivers/third_party/ST/STM32L4xx_HAL_Driver/Src\stm32l4xx_hal_uart.c ****   if(huart->gState == HAL_UART_STATE_BUSY_TX)
 2130              		.loc 1 1067 11 is_stmt 1 discriminator 2
 2131 001e 7B68     		ldr	r3, [r7, #4]
 2132 0020 93F87130 		ldrb	r3, [r3, #113]
 2133 0024 DBB2     		uxtb	r3, r3
 2134              		.loc 1 1067 5 discriminator 2
 2135 0026 212B     		cmp	r3, #33
 2136 0028 07D1     		bne	.L110
1068:d:/LiteOS_Lab/drivers/third_party/ST/STM32L4xx_HAL_Driver/Src\stm32l4xx_hal_uart.c ****   {
1069:d:/LiteOS_Lab/drivers/third_party/ST/STM32L4xx_HAL_Driver/Src\stm32l4xx_hal_uart.c ****     /* Enable the UART DMA Tx request */
1070:d:/LiteOS_Lab/drivers/third_party/ST/STM32L4xx_HAL_Driver/Src\stm32l4xx_hal_uart.c ****     SET_BIT(huart->Instance->CR3, USART_CR3_DMAT);
 2137              		.loc 1 1070 5
 2138 002a 7B68     		ldr	r3, [r7, #4]
 2139 002c 1B68     		ldr	r3, [r3]
 2140 002e 9A68     		ldr	r2, [r3, #8]
 2141 0030 7B68     		ldr	r3, [r7, #4]
 2142 0032 1B68     		ldr	r3, [r3]
 2143 0034 42F08002 		orr	r2, r2, #128
 2144 0038 9A60     		str	r2, [r3, #8]
 2145              	.L110:
ARM GAS  C:\Users\ADMINI~1\AppData\Local\Temp\ccHDbRvY.s 			page 57


1071:d:/LiteOS_Lab/drivers/third_party/ST/STM32L4xx_HAL_Driver/Src\stm32l4xx_hal_uart.c ****   }
1072:d:/LiteOS_Lab/drivers/third_party/ST/STM32L4xx_HAL_Driver/Src\stm32l4xx_hal_uart.c ****   if(huart->RxState == HAL_UART_STATE_BUSY_RX)
 2146              		.loc 1 1072 11
 2147 003a 7B68     		ldr	r3, [r7, #4]
 2148 003c 93F87230 		ldrb	r3, [r3, #114]
 2149 0040 DBB2     		uxtb	r3, r3
 2150              		.loc 1 1072 5
 2151 0042 222B     		cmp	r3, #34
 2152 0044 1BD1     		bne	.L111
1073:d:/LiteOS_Lab/drivers/third_party/ST/STM32L4xx_HAL_Driver/Src\stm32l4xx_hal_uart.c ****   {
1074:d:/LiteOS_Lab/drivers/third_party/ST/STM32L4xx_HAL_Driver/Src\stm32l4xx_hal_uart.c ****     /* Clear the Overrun flag before resuming the Rx transfer */
1075:d:/LiteOS_Lab/drivers/third_party/ST/STM32L4xx_HAL_Driver/Src\stm32l4xx_hal_uart.c ****     __HAL_UART_CLEAR_FLAG(huart, UART_CLEAR_OREF);
 2153              		.loc 1 1075 5
 2154 0046 7B68     		ldr	r3, [r7, #4]
 2155 0048 1B68     		ldr	r3, [r3]
 2156 004a 0822     		movs	r2, #8
 2157 004c 1A62     		str	r2, [r3, #32]
1076:d:/LiteOS_Lab/drivers/third_party/ST/STM32L4xx_HAL_Driver/Src\stm32l4xx_hal_uart.c **** 
1077:d:/LiteOS_Lab/drivers/third_party/ST/STM32L4xx_HAL_Driver/Src\stm32l4xx_hal_uart.c ****     /* Reenable PE and ERR (Frame error, noise error, overrun error) interrupts */
1078:d:/LiteOS_Lab/drivers/third_party/ST/STM32L4xx_HAL_Driver/Src\stm32l4xx_hal_uart.c ****     SET_BIT(huart->Instance->CR1, USART_CR1_PEIE);
 2158              		.loc 1 1078 5
 2159 004e 7B68     		ldr	r3, [r7, #4]
 2160 0050 1B68     		ldr	r3, [r3]
 2161 0052 1A68     		ldr	r2, [r3]
 2162 0054 7B68     		ldr	r3, [r7, #4]
 2163 0056 1B68     		ldr	r3, [r3]
 2164 0058 42F48072 		orr	r2, r2, #256
 2165 005c 1A60     		str	r2, [r3]
1079:d:/LiteOS_Lab/drivers/third_party/ST/STM32L4xx_HAL_Driver/Src\stm32l4xx_hal_uart.c ****     SET_BIT(huart->Instance->CR3, USART_CR3_EIE);
 2166              		.loc 1 1079 5
 2167 005e 7B68     		ldr	r3, [r7, #4]
 2168 0060 1B68     		ldr	r3, [r3]
 2169 0062 9A68     		ldr	r2, [r3, #8]
 2170 0064 7B68     		ldr	r3, [r7, #4]
 2171 0066 1B68     		ldr	r3, [r3]
 2172 0068 42F00102 		orr	r2, r2, #1
 2173 006c 9A60     		str	r2, [r3, #8]
1080:d:/LiteOS_Lab/drivers/third_party/ST/STM32L4xx_HAL_Driver/Src\stm32l4xx_hal_uart.c **** 
1081:d:/LiteOS_Lab/drivers/third_party/ST/STM32L4xx_HAL_Driver/Src\stm32l4xx_hal_uart.c ****     /* Enable the UART DMA Rx request */
1082:d:/LiteOS_Lab/drivers/third_party/ST/STM32L4xx_HAL_Driver/Src\stm32l4xx_hal_uart.c ****     SET_BIT(huart->Instance->CR3, USART_CR3_DMAR);
 2174              		.loc 1 1082 5
 2175 006e 7B68     		ldr	r3, [r7, #4]
 2176 0070 1B68     		ldr	r3, [r3]
 2177 0072 9A68     		ldr	r2, [r3, #8]
 2178 0074 7B68     		ldr	r3, [r7, #4]
 2179 0076 1B68     		ldr	r3, [r3]
 2180 0078 42F04002 		orr	r2, r2, #64
 2181 007c 9A60     		str	r2, [r3, #8]
 2182              	.L111:
1083:d:/LiteOS_Lab/drivers/third_party/ST/STM32L4xx_HAL_Driver/Src\stm32l4xx_hal_uart.c ****   }
1084:d:/LiteOS_Lab/drivers/third_party/ST/STM32L4xx_HAL_Driver/Src\stm32l4xx_hal_uart.c **** 
1085:d:/LiteOS_Lab/drivers/third_party/ST/STM32L4xx_HAL_Driver/Src\stm32l4xx_hal_uart.c ****   /* Process Unlocked */
1086:d:/LiteOS_Lab/drivers/third_party/ST/STM32L4xx_HAL_Driver/Src\stm32l4xx_hal_uart.c ****   __HAL_UNLOCK(huart);
 2183              		.loc 1 1086 3
 2184 007e 7B68     		ldr	r3, [r7, #4]
 2185 0080 0022     		movs	r2, #0
 2186 0082 83F87020 		strb	r2, [r3, #112]
ARM GAS  C:\Users\ADMINI~1\AppData\Local\Temp\ccHDbRvY.s 			page 58


1087:d:/LiteOS_Lab/drivers/third_party/ST/STM32L4xx_HAL_Driver/Src\stm32l4xx_hal_uart.c **** 
1088:d:/LiteOS_Lab/drivers/third_party/ST/STM32L4xx_HAL_Driver/Src\stm32l4xx_hal_uart.c ****   return HAL_OK;
 2187              		.loc 1 1088 10
 2188 0086 0023     		movs	r3, #0
 2189              	.L109:
1089:d:/LiteOS_Lab/drivers/third_party/ST/STM32L4xx_HAL_Driver/Src\stm32l4xx_hal_uart.c **** }
 2190              		.loc 1 1089 1
 2191 0088 1846     		mov	r0, r3
 2192 008a 0C37     		adds	r7, r7, #12
 2193              	.LCFI78:
 2194              		.cfi_def_cfa_offset 4
 2195 008c BD46     		mov	sp, r7
 2196              	.LCFI79:
 2197              		.cfi_def_cfa_register 13
 2198              		@ sp needed
 2199 008e 5DF8047B 		ldr	r7, [sp], #4
 2200              	.LCFI80:
 2201              		.cfi_restore 7
 2202              		.cfi_def_cfa_offset 0
 2203 0092 7047     		bx	lr
 2204              		.cfi_endproc
 2205              	.LFE301:
 2207              		.section	.text.HAL_UART_DMAStop,"ax",%progbits
 2208              		.align	1
 2209              		.global	HAL_UART_DMAStop
 2210              		.syntax unified
 2211              		.thumb
 2212              		.thumb_func
 2213              		.fpu fpv4-sp-d16
 2215              	HAL_UART_DMAStop:
 2216              	.LFB302:
1090:d:/LiteOS_Lab/drivers/third_party/ST/STM32L4xx_HAL_Driver/Src\stm32l4xx_hal_uart.c **** 
1091:d:/LiteOS_Lab/drivers/third_party/ST/STM32L4xx_HAL_Driver/Src\stm32l4xx_hal_uart.c **** /**
1092:d:/LiteOS_Lab/drivers/third_party/ST/STM32L4xx_HAL_Driver/Src\stm32l4xx_hal_uart.c ****   * @brief Stop the DMA Transfer.
1093:d:/LiteOS_Lab/drivers/third_party/ST/STM32L4xx_HAL_Driver/Src\stm32l4xx_hal_uart.c ****   * @param huart: UART handle.
1094:d:/LiteOS_Lab/drivers/third_party/ST/STM32L4xx_HAL_Driver/Src\stm32l4xx_hal_uart.c ****   * @retval HAL status
1095:d:/LiteOS_Lab/drivers/third_party/ST/STM32L4xx_HAL_Driver/Src\stm32l4xx_hal_uart.c ****   */
1096:d:/LiteOS_Lab/drivers/third_party/ST/STM32L4xx_HAL_Driver/Src\stm32l4xx_hal_uart.c **** HAL_StatusTypeDef HAL_UART_DMAStop(UART_HandleTypeDef *huart)
1097:d:/LiteOS_Lab/drivers/third_party/ST/STM32L4xx_HAL_Driver/Src\stm32l4xx_hal_uart.c **** {
 2217              		.loc 1 1097 1
 2218              		.cfi_startproc
 2219              		@ args = 0, pretend = 0, frame = 8
 2220              		@ frame_needed = 1, uses_anonymous_args = 0
 2221 0000 80B5     		push	{r7, lr}
 2222              	.LCFI81:
 2223              		.cfi_def_cfa_offset 8
 2224              		.cfi_offset 7, -8
 2225              		.cfi_offset 14, -4
 2226 0002 82B0     		sub	sp, sp, #8
 2227              	.LCFI82:
 2228              		.cfi_def_cfa_offset 16
 2229 0004 00AF     		add	r7, sp, #0
 2230              	.LCFI83:
 2231              		.cfi_def_cfa_register 7
 2232 0006 7860     		str	r0, [r7, #4]
1098:d:/LiteOS_Lab/drivers/third_party/ST/STM32L4xx_HAL_Driver/Src\stm32l4xx_hal_uart.c ****   /* The Lock is not implemented on this API to allow the user application
1099:d:/LiteOS_Lab/drivers/third_party/ST/STM32L4xx_HAL_Driver/Src\stm32l4xx_hal_uart.c ****      to call the HAL UART API under callbacks HAL_UART_TxCpltCallback() / HAL_UART_RxCpltCallback()
ARM GAS  C:\Users\ADMINI~1\AppData\Local\Temp\ccHDbRvY.s 			page 59


1100:d:/LiteOS_Lab/drivers/third_party/ST/STM32L4xx_HAL_Driver/Src\stm32l4xx_hal_uart.c ****      HAL_UART_TxHalfCpltCallback / HAL_UART_RxHalfCpltCallback: 
1101:d:/LiteOS_Lab/drivers/third_party/ST/STM32L4xx_HAL_Driver/Src\stm32l4xx_hal_uart.c ****      indeed, when HAL_DMA_Abort() API is called, the DMA TX/RX Transfer or Half Transfer complete  
1102:d:/LiteOS_Lab/drivers/third_party/ST/STM32L4xx_HAL_Driver/Src\stm32l4xx_hal_uart.c ****      interrupt is generated if the DMA transfer interruption occurs at the middle or at the end of 
1103:d:/LiteOS_Lab/drivers/third_party/ST/STM32L4xx_HAL_Driver/Src\stm32l4xx_hal_uart.c ****      the stream and the corresponding call back is executed. */
1104:d:/LiteOS_Lab/drivers/third_party/ST/STM32L4xx_HAL_Driver/Src\stm32l4xx_hal_uart.c **** 
1105:d:/LiteOS_Lab/drivers/third_party/ST/STM32L4xx_HAL_Driver/Src\stm32l4xx_hal_uart.c ****   /* Stop UART DMA Tx request if ongoing */
1106:d:/LiteOS_Lab/drivers/third_party/ST/STM32L4xx_HAL_Driver/Src\stm32l4xx_hal_uart.c ****   if ((huart->gState == HAL_UART_STATE_BUSY_TX) &&
 2233              		.loc 1 1106 13
 2234 0008 7B68     		ldr	r3, [r7, #4]
 2235 000a 93F87130 		ldrb	r3, [r3, #113]
 2236 000e DBB2     		uxtb	r3, r3
 2237              		.loc 1 1106 6
 2238 0010 212B     		cmp	r3, #33
 2239 0012 1AD1     		bne	.L113
1107:d:/LiteOS_Lab/drivers/third_party/ST/STM32L4xx_HAL_Driver/Src\stm32l4xx_hal_uart.c ****       (HAL_IS_BIT_SET(huart->Instance->CR3, USART_CR3_DMAT)))
 2240              		.loc 1 1107 8 discriminator 1
 2241 0014 7B68     		ldr	r3, [r7, #4]
 2242 0016 1B68     		ldr	r3, [r3]
 2243 0018 9B68     		ldr	r3, [r3, #8]
 2244 001a 03F08003 		and	r3, r3, #128
1106:d:/LiteOS_Lab/drivers/third_party/ST/STM32L4xx_HAL_Driver/Src\stm32l4xx_hal_uart.c ****       (HAL_IS_BIT_SET(huart->Instance->CR3, USART_CR3_DMAT)))
 2245              		.loc 1 1106 49 discriminator 1
 2246 001e 802B     		cmp	r3, #128
 2247 0020 13D1     		bne	.L113
1108:d:/LiteOS_Lab/drivers/third_party/ST/STM32L4xx_HAL_Driver/Src\stm32l4xx_hal_uart.c ****   {
1109:d:/LiteOS_Lab/drivers/third_party/ST/STM32L4xx_HAL_Driver/Src\stm32l4xx_hal_uart.c ****     CLEAR_BIT(huart->Instance->CR3, USART_CR3_DMAT);
 2248              		.loc 1 1109 5
 2249 0022 7B68     		ldr	r3, [r7, #4]
 2250 0024 1B68     		ldr	r3, [r3]
 2251 0026 9A68     		ldr	r2, [r3, #8]
 2252 0028 7B68     		ldr	r3, [r7, #4]
 2253 002a 1B68     		ldr	r3, [r3]
 2254 002c 22F08002 		bic	r2, r2, #128
 2255 0030 9A60     		str	r2, [r3, #8]
1110:d:/LiteOS_Lab/drivers/third_party/ST/STM32L4xx_HAL_Driver/Src\stm32l4xx_hal_uart.c **** 
1111:d:/LiteOS_Lab/drivers/third_party/ST/STM32L4xx_HAL_Driver/Src\stm32l4xx_hal_uart.c ****     /* Abort the UART DMA Tx channel */
1112:d:/LiteOS_Lab/drivers/third_party/ST/STM32L4xx_HAL_Driver/Src\stm32l4xx_hal_uart.c ****     if(huart->hdmatx != NULL)
 2256              		.loc 1 1112 13
 2257 0032 7B68     		ldr	r3, [r7, #4]
 2258 0034 9B6E     		ldr	r3, [r3, #104]
 2259              		.loc 1 1112 7
 2260 0036 002B     		cmp	r3, #0
 2261 0038 04D0     		beq	.L114
1113:d:/LiteOS_Lab/drivers/third_party/ST/STM32L4xx_HAL_Driver/Src\stm32l4xx_hal_uart.c ****     {
1114:d:/LiteOS_Lab/drivers/third_party/ST/STM32L4xx_HAL_Driver/Src\stm32l4xx_hal_uart.c ****       HAL_DMA_Abort(huart->hdmatx);
 2262              		.loc 1 1114 7
 2263 003a 7B68     		ldr	r3, [r7, #4]
 2264 003c 9B6E     		ldr	r3, [r3, #104]
 2265 003e 1846     		mov	r0, r3
 2266 0040 FFF7FEFF 		bl	HAL_DMA_Abort
 2267              	.L114:
1115:d:/LiteOS_Lab/drivers/third_party/ST/STM32L4xx_HAL_Driver/Src\stm32l4xx_hal_uart.c ****     }
1116:d:/LiteOS_Lab/drivers/third_party/ST/STM32L4xx_HAL_Driver/Src\stm32l4xx_hal_uart.c **** 
1117:d:/LiteOS_Lab/drivers/third_party/ST/STM32L4xx_HAL_Driver/Src\stm32l4xx_hal_uart.c ****     UART_EndTxTransfer(huart);
 2268              		.loc 1 1117 5
 2269 0044 7868     		ldr	r0, [r7, #4]
 2270 0046 FFF7FEFF 		bl	UART_EndTxTransfer
ARM GAS  C:\Users\ADMINI~1\AppData\Local\Temp\ccHDbRvY.s 			page 60


 2271              	.L113:
1118:d:/LiteOS_Lab/drivers/third_party/ST/STM32L4xx_HAL_Driver/Src\stm32l4xx_hal_uart.c ****   }
1119:d:/LiteOS_Lab/drivers/third_party/ST/STM32L4xx_HAL_Driver/Src\stm32l4xx_hal_uart.c **** 
1120:d:/LiteOS_Lab/drivers/third_party/ST/STM32L4xx_HAL_Driver/Src\stm32l4xx_hal_uart.c ****   /* Stop UART DMA Rx request if ongoing */
1121:d:/LiteOS_Lab/drivers/third_party/ST/STM32L4xx_HAL_Driver/Src\stm32l4xx_hal_uart.c ****   if ((huart->RxState == HAL_UART_STATE_BUSY_RX) &&
 2272              		.loc 1 1121 13
 2273 004a 7B68     		ldr	r3, [r7, #4]
 2274 004c 93F87230 		ldrb	r3, [r3, #114]
 2275 0050 DBB2     		uxtb	r3, r3
 2276              		.loc 1 1121 6
 2277 0052 222B     		cmp	r3, #34
 2278 0054 1AD1     		bne	.L115
1122:d:/LiteOS_Lab/drivers/third_party/ST/STM32L4xx_HAL_Driver/Src\stm32l4xx_hal_uart.c ****       (HAL_IS_BIT_SET(huart->Instance->CR3, USART_CR3_DMAR)))
 2279              		.loc 1 1122 8 discriminator 1
 2280 0056 7B68     		ldr	r3, [r7, #4]
 2281 0058 1B68     		ldr	r3, [r3]
 2282 005a 9B68     		ldr	r3, [r3, #8]
 2283 005c 03F04003 		and	r3, r3, #64
1121:d:/LiteOS_Lab/drivers/third_party/ST/STM32L4xx_HAL_Driver/Src\stm32l4xx_hal_uart.c ****       (HAL_IS_BIT_SET(huart->Instance->CR3, USART_CR3_DMAR)))
 2284              		.loc 1 1121 50 discriminator 1
 2285 0060 402B     		cmp	r3, #64
 2286 0062 13D1     		bne	.L115
1123:d:/LiteOS_Lab/drivers/third_party/ST/STM32L4xx_HAL_Driver/Src\stm32l4xx_hal_uart.c ****   {
1124:d:/LiteOS_Lab/drivers/third_party/ST/STM32L4xx_HAL_Driver/Src\stm32l4xx_hal_uart.c ****     CLEAR_BIT(huart->Instance->CR3, USART_CR3_DMAR);
 2287              		.loc 1 1124 5
 2288 0064 7B68     		ldr	r3, [r7, #4]
 2289 0066 1B68     		ldr	r3, [r3]
 2290 0068 9A68     		ldr	r2, [r3, #8]
 2291 006a 7B68     		ldr	r3, [r7, #4]
 2292 006c 1B68     		ldr	r3, [r3]
 2293 006e 22F04002 		bic	r2, r2, #64
 2294 0072 9A60     		str	r2, [r3, #8]
1125:d:/LiteOS_Lab/drivers/third_party/ST/STM32L4xx_HAL_Driver/Src\stm32l4xx_hal_uart.c **** 
1126:d:/LiteOS_Lab/drivers/third_party/ST/STM32L4xx_HAL_Driver/Src\stm32l4xx_hal_uart.c ****     /* Abort the UART DMA Rx channel */
1127:d:/LiteOS_Lab/drivers/third_party/ST/STM32L4xx_HAL_Driver/Src\stm32l4xx_hal_uart.c ****     if(huart->hdmarx != NULL)
 2295              		.loc 1 1127 13
 2296 0074 7B68     		ldr	r3, [r7, #4]
 2297 0076 DB6E     		ldr	r3, [r3, #108]
 2298              		.loc 1 1127 7
 2299 0078 002B     		cmp	r3, #0
 2300 007a 04D0     		beq	.L116
1128:d:/LiteOS_Lab/drivers/third_party/ST/STM32L4xx_HAL_Driver/Src\stm32l4xx_hal_uart.c ****     {
1129:d:/LiteOS_Lab/drivers/third_party/ST/STM32L4xx_HAL_Driver/Src\stm32l4xx_hal_uart.c ****       HAL_DMA_Abort(huart->hdmarx);
 2301              		.loc 1 1129 7
 2302 007c 7B68     		ldr	r3, [r7, #4]
 2303 007e DB6E     		ldr	r3, [r3, #108]
 2304 0080 1846     		mov	r0, r3
 2305 0082 FFF7FEFF 		bl	HAL_DMA_Abort
 2306              	.L116:
1130:d:/LiteOS_Lab/drivers/third_party/ST/STM32L4xx_HAL_Driver/Src\stm32l4xx_hal_uart.c ****     }
1131:d:/LiteOS_Lab/drivers/third_party/ST/STM32L4xx_HAL_Driver/Src\stm32l4xx_hal_uart.c **** 
1132:d:/LiteOS_Lab/drivers/third_party/ST/STM32L4xx_HAL_Driver/Src\stm32l4xx_hal_uart.c ****     UART_EndRxTransfer(huart);
 2307              		.loc 1 1132 5
 2308 0086 7868     		ldr	r0, [r7, #4]
 2309 0088 FFF7FEFF 		bl	UART_EndRxTransfer
 2310              	.L115:
1133:d:/LiteOS_Lab/drivers/third_party/ST/STM32L4xx_HAL_Driver/Src\stm32l4xx_hal_uart.c ****   }
ARM GAS  C:\Users\ADMINI~1\AppData\Local\Temp\ccHDbRvY.s 			page 61


1134:d:/LiteOS_Lab/drivers/third_party/ST/STM32L4xx_HAL_Driver/Src\stm32l4xx_hal_uart.c **** 
1135:d:/LiteOS_Lab/drivers/third_party/ST/STM32L4xx_HAL_Driver/Src\stm32l4xx_hal_uart.c ****   return HAL_OK;
 2311              		.loc 1 1135 10
 2312 008c 0023     		movs	r3, #0
1136:d:/LiteOS_Lab/drivers/third_party/ST/STM32L4xx_HAL_Driver/Src\stm32l4xx_hal_uart.c **** }
 2313              		.loc 1 1136 1
 2314 008e 1846     		mov	r0, r3
 2315 0090 0837     		adds	r7, r7, #8
 2316              	.LCFI84:
 2317              		.cfi_def_cfa_offset 8
 2318 0092 BD46     		mov	sp, r7
 2319              	.LCFI85:
 2320              		.cfi_def_cfa_register 13
 2321              		@ sp needed
 2322 0094 80BD     		pop	{r7, pc}
 2323              		.cfi_endproc
 2324              	.LFE302:
 2326              		.section	.text.HAL_UART_Abort,"ax",%progbits
 2327              		.align	1
 2328              		.global	HAL_UART_Abort
 2329              		.syntax unified
 2330              		.thumb
 2331              		.thumb_func
 2332              		.fpu fpv4-sp-d16
 2334              	HAL_UART_Abort:
 2335              	.LFB303:
1137:d:/LiteOS_Lab/drivers/third_party/ST/STM32L4xx_HAL_Driver/Src\stm32l4xx_hal_uart.c **** 
1138:d:/LiteOS_Lab/drivers/third_party/ST/STM32L4xx_HAL_Driver/Src\stm32l4xx_hal_uart.c **** /**
1139:d:/LiteOS_Lab/drivers/third_party/ST/STM32L4xx_HAL_Driver/Src\stm32l4xx_hal_uart.c ****   * @brief  Abort ongoing transfers (blocking mode).
1140:d:/LiteOS_Lab/drivers/third_party/ST/STM32L4xx_HAL_Driver/Src\stm32l4xx_hal_uart.c ****   * @param  huart UART handle.
1141:d:/LiteOS_Lab/drivers/third_party/ST/STM32L4xx_HAL_Driver/Src\stm32l4xx_hal_uart.c ****   * @note   This procedure could be used for aborting any ongoing transfer started in Interrupt or 
1142:d:/LiteOS_Lab/drivers/third_party/ST/STM32L4xx_HAL_Driver/Src\stm32l4xx_hal_uart.c ****   *         This procedure performs following operations :
1143:d:/LiteOS_Lab/drivers/third_party/ST/STM32L4xx_HAL_Driver/Src\stm32l4xx_hal_uart.c ****   *           - Disable UART Interrupts (Tx and Rx)
1144:d:/LiteOS_Lab/drivers/third_party/ST/STM32L4xx_HAL_Driver/Src\stm32l4xx_hal_uart.c ****   *           - Disable the DMA transfer in the peripheral register (if enabled)
1145:d:/LiteOS_Lab/drivers/third_party/ST/STM32L4xx_HAL_Driver/Src\stm32l4xx_hal_uart.c ****   *           - Abort DMA transfer by calling HAL_DMA_Abort (in case of transfer in DMA mode)
1146:d:/LiteOS_Lab/drivers/third_party/ST/STM32L4xx_HAL_Driver/Src\stm32l4xx_hal_uart.c ****   *           - Set handle State to READY
1147:d:/LiteOS_Lab/drivers/third_party/ST/STM32L4xx_HAL_Driver/Src\stm32l4xx_hal_uart.c ****   * @note   This procedure is executed in blocking mode : when exiting function, Abort is considere
1148:d:/LiteOS_Lab/drivers/third_party/ST/STM32L4xx_HAL_Driver/Src\stm32l4xx_hal_uart.c ****   * @retval HAL status
1149:d:/LiteOS_Lab/drivers/third_party/ST/STM32L4xx_HAL_Driver/Src\stm32l4xx_hal_uart.c **** */
1150:d:/LiteOS_Lab/drivers/third_party/ST/STM32L4xx_HAL_Driver/Src\stm32l4xx_hal_uart.c **** HAL_StatusTypeDef HAL_UART_Abort(UART_HandleTypeDef *huart)
1151:d:/LiteOS_Lab/drivers/third_party/ST/STM32L4xx_HAL_Driver/Src\stm32l4xx_hal_uart.c **** {
 2336              		.loc 1 1151 1
 2337              		.cfi_startproc
 2338              		@ args = 0, pretend = 0, frame = 8
 2339              		@ frame_needed = 1, uses_anonymous_args = 0
 2340 0000 80B5     		push	{r7, lr}
 2341              	.LCFI86:
 2342              		.cfi_def_cfa_offset 8
 2343              		.cfi_offset 7, -8
 2344              		.cfi_offset 14, -4
 2345 0002 82B0     		sub	sp, sp, #8
 2346              	.LCFI87:
 2347              		.cfi_def_cfa_offset 16
 2348 0004 00AF     		add	r7, sp, #0
 2349              	.LCFI88:
 2350              		.cfi_def_cfa_register 7
 2351 0006 7860     		str	r0, [r7, #4]
ARM GAS  C:\Users\ADMINI~1\AppData\Local\Temp\ccHDbRvY.s 			page 62


1152:d:/LiteOS_Lab/drivers/third_party/ST/STM32L4xx_HAL_Driver/Src\stm32l4xx_hal_uart.c ****   /* Disable TXEIE, TCIE, RXNE, PE and ERR (Frame error, noise error, overrun error) interrupts */
1153:d:/LiteOS_Lab/drivers/third_party/ST/STM32L4xx_HAL_Driver/Src\stm32l4xx_hal_uart.c ****   CLEAR_BIT(huart->Instance->CR1, (USART_CR1_RXNEIE | USART_CR1_PEIE | USART_CR1_TXEIE | USART_CR1_
 2352              		.loc 1 1153 3
 2353 0008 7B68     		ldr	r3, [r7, #4]
 2354 000a 1B68     		ldr	r3, [r3]
 2355 000c 1A68     		ldr	r2, [r3]
 2356 000e 7B68     		ldr	r3, [r7, #4]
 2357 0010 1B68     		ldr	r3, [r3]
 2358 0012 22F4F072 		bic	r2, r2, #480
 2359 0016 1A60     		str	r2, [r3]
1154:d:/LiteOS_Lab/drivers/third_party/ST/STM32L4xx_HAL_Driver/Src\stm32l4xx_hal_uart.c ****   CLEAR_BIT(huart->Instance->CR3, USART_CR3_EIE);
 2360              		.loc 1 1154 3
 2361 0018 7B68     		ldr	r3, [r7, #4]
 2362 001a 1B68     		ldr	r3, [r3]
 2363 001c 9A68     		ldr	r2, [r3, #8]
 2364 001e 7B68     		ldr	r3, [r7, #4]
 2365 0020 1B68     		ldr	r3, [r3]
 2366 0022 22F00102 		bic	r2, r2, #1
 2367 0026 9A60     		str	r2, [r3, #8]
1155:d:/LiteOS_Lab/drivers/third_party/ST/STM32L4xx_HAL_Driver/Src\stm32l4xx_hal_uart.c **** 
1156:d:/LiteOS_Lab/drivers/third_party/ST/STM32L4xx_HAL_Driver/Src\stm32l4xx_hal_uart.c ****   /* Disable the UART DMA Tx request if enabled */
1157:d:/LiteOS_Lab/drivers/third_party/ST/STM32L4xx_HAL_Driver/Src\stm32l4xx_hal_uart.c ****   if (HAL_IS_BIT_SET(huart->Instance->CR3, USART_CR3_DMAT))
 2368              		.loc 1 1157 7
 2369 0028 7B68     		ldr	r3, [r7, #4]
 2370 002a 1B68     		ldr	r3, [r3]
 2371 002c 9B68     		ldr	r3, [r3, #8]
 2372 002e 03F08003 		and	r3, r3, #128
 2373              		.loc 1 1157 6
 2374 0032 802B     		cmp	r3, #128
 2375 0034 14D1     		bne	.L119
1158:d:/LiteOS_Lab/drivers/third_party/ST/STM32L4xx_HAL_Driver/Src\stm32l4xx_hal_uart.c ****   {
1159:d:/LiteOS_Lab/drivers/third_party/ST/STM32L4xx_HAL_Driver/Src\stm32l4xx_hal_uart.c ****     CLEAR_BIT(huart->Instance->CR3, USART_CR3_DMAT);
 2376              		.loc 1 1159 5
 2377 0036 7B68     		ldr	r3, [r7, #4]
 2378 0038 1B68     		ldr	r3, [r3]
 2379 003a 9A68     		ldr	r2, [r3, #8]
 2380 003c 7B68     		ldr	r3, [r7, #4]
 2381 003e 1B68     		ldr	r3, [r3]
 2382 0040 22F08002 		bic	r2, r2, #128
 2383 0044 9A60     		str	r2, [r3, #8]
1160:d:/LiteOS_Lab/drivers/third_party/ST/STM32L4xx_HAL_Driver/Src\stm32l4xx_hal_uart.c **** 
1161:d:/LiteOS_Lab/drivers/third_party/ST/STM32L4xx_HAL_Driver/Src\stm32l4xx_hal_uart.c ****     /* Abort the UART DMA Tx channel : use blocking DMA Abort API (no callback) */
1162:d:/LiteOS_Lab/drivers/third_party/ST/STM32L4xx_HAL_Driver/Src\stm32l4xx_hal_uart.c ****     if(huart->hdmatx != NULL)
 2384              		.loc 1 1162 13
 2385 0046 7B68     		ldr	r3, [r7, #4]
 2386 0048 9B6E     		ldr	r3, [r3, #104]
 2387              		.loc 1 1162 7
 2388 004a 002B     		cmp	r3, #0
 2389 004c 08D0     		beq	.L119
1163:d:/LiteOS_Lab/drivers/third_party/ST/STM32L4xx_HAL_Driver/Src\stm32l4xx_hal_uart.c ****     {
1164:d:/LiteOS_Lab/drivers/third_party/ST/STM32L4xx_HAL_Driver/Src\stm32l4xx_hal_uart.c ****       /* Set the UART DMA Abort callback to Null. 
1165:d:/LiteOS_Lab/drivers/third_party/ST/STM32L4xx_HAL_Driver/Src\stm32l4xx_hal_uart.c ****          No call back execution at end of DMA abort procedure */
1166:d:/LiteOS_Lab/drivers/third_party/ST/STM32L4xx_HAL_Driver/Src\stm32l4xx_hal_uart.c ****       huart->hdmatx->XferAbortCallback = NULL;
 2390              		.loc 1 1166 12
 2391 004e 7B68     		ldr	r3, [r7, #4]
 2392 0050 9B6E     		ldr	r3, [r3, #104]
 2393              		.loc 1 1166 40
ARM GAS  C:\Users\ADMINI~1\AppData\Local\Temp\ccHDbRvY.s 			page 63


 2394 0052 0022     		movs	r2, #0
 2395 0054 9A63     		str	r2, [r3, #56]
1167:d:/LiteOS_Lab/drivers/third_party/ST/STM32L4xx_HAL_Driver/Src\stm32l4xx_hal_uart.c **** 
1168:d:/LiteOS_Lab/drivers/third_party/ST/STM32L4xx_HAL_Driver/Src\stm32l4xx_hal_uart.c ****       HAL_DMA_Abort(huart->hdmatx);
 2396              		.loc 1 1168 7
 2397 0056 7B68     		ldr	r3, [r7, #4]
 2398 0058 9B6E     		ldr	r3, [r3, #104]
 2399 005a 1846     		mov	r0, r3
 2400 005c FFF7FEFF 		bl	HAL_DMA_Abort
 2401              	.L119:
1169:d:/LiteOS_Lab/drivers/third_party/ST/STM32L4xx_HAL_Driver/Src\stm32l4xx_hal_uart.c ****     }
1170:d:/LiteOS_Lab/drivers/third_party/ST/STM32L4xx_HAL_Driver/Src\stm32l4xx_hal_uart.c ****   }
1171:d:/LiteOS_Lab/drivers/third_party/ST/STM32L4xx_HAL_Driver/Src\stm32l4xx_hal_uart.c **** 
1172:d:/LiteOS_Lab/drivers/third_party/ST/STM32L4xx_HAL_Driver/Src\stm32l4xx_hal_uart.c ****   /* Disable the UART DMA Rx request if enabled */
1173:d:/LiteOS_Lab/drivers/third_party/ST/STM32L4xx_HAL_Driver/Src\stm32l4xx_hal_uart.c ****   if (HAL_IS_BIT_SET(huart->Instance->CR3, USART_CR3_DMAR))
 2402              		.loc 1 1173 7
 2403 0060 7B68     		ldr	r3, [r7, #4]
 2404 0062 1B68     		ldr	r3, [r3]
 2405 0064 9B68     		ldr	r3, [r3, #8]
 2406 0066 03F04003 		and	r3, r3, #64
 2407              		.loc 1 1173 6
 2408 006a 402B     		cmp	r3, #64
 2409 006c 14D1     		bne	.L120
1174:d:/LiteOS_Lab/drivers/third_party/ST/STM32L4xx_HAL_Driver/Src\stm32l4xx_hal_uart.c ****   {
1175:d:/LiteOS_Lab/drivers/third_party/ST/STM32L4xx_HAL_Driver/Src\stm32l4xx_hal_uart.c ****     CLEAR_BIT(huart->Instance->CR3, USART_CR3_DMAR);
 2410              		.loc 1 1175 5
 2411 006e 7B68     		ldr	r3, [r7, #4]
 2412 0070 1B68     		ldr	r3, [r3]
 2413 0072 9A68     		ldr	r2, [r3, #8]
 2414 0074 7B68     		ldr	r3, [r7, #4]
 2415 0076 1B68     		ldr	r3, [r3]
 2416 0078 22F04002 		bic	r2, r2, #64
 2417 007c 9A60     		str	r2, [r3, #8]
1176:d:/LiteOS_Lab/drivers/third_party/ST/STM32L4xx_HAL_Driver/Src\stm32l4xx_hal_uart.c **** 
1177:d:/LiteOS_Lab/drivers/third_party/ST/STM32L4xx_HAL_Driver/Src\stm32l4xx_hal_uart.c ****     /* Abort the UART DMA Rx channel : use blocking DMA Abort API (no callback) */
1178:d:/LiteOS_Lab/drivers/third_party/ST/STM32L4xx_HAL_Driver/Src\stm32l4xx_hal_uart.c ****     if(huart->hdmarx != NULL)
 2418              		.loc 1 1178 13
 2419 007e 7B68     		ldr	r3, [r7, #4]
 2420 0080 DB6E     		ldr	r3, [r3, #108]
 2421              		.loc 1 1178 7
 2422 0082 002B     		cmp	r3, #0
 2423 0084 08D0     		beq	.L120
1179:d:/LiteOS_Lab/drivers/third_party/ST/STM32L4xx_HAL_Driver/Src\stm32l4xx_hal_uart.c ****     {
1180:d:/LiteOS_Lab/drivers/third_party/ST/STM32L4xx_HAL_Driver/Src\stm32l4xx_hal_uart.c ****       /* Set the UART DMA Abort callback to Null. 
1181:d:/LiteOS_Lab/drivers/third_party/ST/STM32L4xx_HAL_Driver/Src\stm32l4xx_hal_uart.c ****          No call back execution at end of DMA abort procedure */
1182:d:/LiteOS_Lab/drivers/third_party/ST/STM32L4xx_HAL_Driver/Src\stm32l4xx_hal_uart.c ****       huart->hdmarx->XferAbortCallback = NULL;
 2424              		.loc 1 1182 12
 2425 0086 7B68     		ldr	r3, [r7, #4]
 2426 0088 DB6E     		ldr	r3, [r3, #108]
 2427              		.loc 1 1182 40
 2428 008a 0022     		movs	r2, #0
 2429 008c 9A63     		str	r2, [r3, #56]
1183:d:/LiteOS_Lab/drivers/third_party/ST/STM32L4xx_HAL_Driver/Src\stm32l4xx_hal_uart.c **** 
1184:d:/LiteOS_Lab/drivers/third_party/ST/STM32L4xx_HAL_Driver/Src\stm32l4xx_hal_uart.c ****       HAL_DMA_Abort(huart->hdmarx);
 2430              		.loc 1 1184 7
 2431 008e 7B68     		ldr	r3, [r7, #4]
 2432 0090 DB6E     		ldr	r3, [r3, #108]
ARM GAS  C:\Users\ADMINI~1\AppData\Local\Temp\ccHDbRvY.s 			page 64


 2433 0092 1846     		mov	r0, r3
 2434 0094 FFF7FEFF 		bl	HAL_DMA_Abort
 2435              	.L120:
1185:d:/LiteOS_Lab/drivers/third_party/ST/STM32L4xx_HAL_Driver/Src\stm32l4xx_hal_uart.c ****     }
1186:d:/LiteOS_Lab/drivers/third_party/ST/STM32L4xx_HAL_Driver/Src\stm32l4xx_hal_uart.c ****   }
1187:d:/LiteOS_Lab/drivers/third_party/ST/STM32L4xx_HAL_Driver/Src\stm32l4xx_hal_uart.c **** 
1188:d:/LiteOS_Lab/drivers/third_party/ST/STM32L4xx_HAL_Driver/Src\stm32l4xx_hal_uart.c ****   /* Reset Tx and Rx transfer counters */
1189:d:/LiteOS_Lab/drivers/third_party/ST/STM32L4xx_HAL_Driver/Src\stm32l4xx_hal_uart.c ****   huart->TxXferCount = 0; 
 2436              		.loc 1 1189 22
 2437 0098 7B68     		ldr	r3, [r7, #4]
 2438 009a 0022     		movs	r2, #0
 2439 009c A3F85220 		strh	r2, [r3, #82]	@ movhi
1190:d:/LiteOS_Lab/drivers/third_party/ST/STM32L4xx_HAL_Driver/Src\stm32l4xx_hal_uart.c ****   huart->RxXferCount = 0; 
 2440              		.loc 1 1190 22
 2441 00a0 7B68     		ldr	r3, [r7, #4]
 2442 00a2 0022     		movs	r2, #0
 2443 00a4 A3F85A20 		strh	r2, [r3, #90]	@ movhi
1191:d:/LiteOS_Lab/drivers/third_party/ST/STM32L4xx_HAL_Driver/Src\stm32l4xx_hal_uart.c **** 
1192:d:/LiteOS_Lab/drivers/third_party/ST/STM32L4xx_HAL_Driver/Src\stm32l4xx_hal_uart.c ****   /* Clear the Error flags in the ICR register */
1193:d:/LiteOS_Lab/drivers/third_party/ST/STM32L4xx_HAL_Driver/Src\stm32l4xx_hal_uart.c ****   __HAL_UART_CLEAR_FLAG(huart, UART_CLEAR_OREF | UART_CLEAR_NEF | UART_CLEAR_PEF | UART_CLEAR_FEF);
 2444              		.loc 1 1193 3
 2445 00a8 7B68     		ldr	r3, [r7, #4]
 2446 00aa 1B68     		ldr	r3, [r3]
 2447 00ac 0F22     		movs	r2, #15
 2448 00ae 1A62     		str	r2, [r3, #32]
1194:d:/LiteOS_Lab/drivers/third_party/ST/STM32L4xx_HAL_Driver/Src\stm32l4xx_hal_uart.c **** 
1195:d:/LiteOS_Lab/drivers/third_party/ST/STM32L4xx_HAL_Driver/Src\stm32l4xx_hal_uart.c ****   /* Restore huart->gState and huart->RxState to Ready */
1196:d:/LiteOS_Lab/drivers/third_party/ST/STM32L4xx_HAL_Driver/Src\stm32l4xx_hal_uart.c ****   huart->gState  = HAL_UART_STATE_READY;
 2449              		.loc 1 1196 18
 2450 00b0 7B68     		ldr	r3, [r7, #4]
 2451 00b2 2022     		movs	r2, #32
 2452 00b4 83F87120 		strb	r2, [r3, #113]
1197:d:/LiteOS_Lab/drivers/third_party/ST/STM32L4xx_HAL_Driver/Src\stm32l4xx_hal_uart.c ****   huart->RxState = HAL_UART_STATE_READY;
 2453              		.loc 1 1197 18
 2454 00b8 7B68     		ldr	r3, [r7, #4]
 2455 00ba 2022     		movs	r2, #32
 2456 00bc 83F87220 		strb	r2, [r3, #114]
1198:d:/LiteOS_Lab/drivers/third_party/ST/STM32L4xx_HAL_Driver/Src\stm32l4xx_hal_uart.c **** 
1199:d:/LiteOS_Lab/drivers/third_party/ST/STM32L4xx_HAL_Driver/Src\stm32l4xx_hal_uart.c ****   /* Reset Handle ErrorCode to No Error */
1200:d:/LiteOS_Lab/drivers/third_party/ST/STM32L4xx_HAL_Driver/Src\stm32l4xx_hal_uart.c ****   huart->ErrorCode = HAL_UART_ERROR_NONE;
 2457              		.loc 1 1200 20
 2458 00c0 7B68     		ldr	r3, [r7, #4]
 2459 00c2 0022     		movs	r2, #0
 2460 00c4 5A67     		str	r2, [r3, #116]
1201:d:/LiteOS_Lab/drivers/third_party/ST/STM32L4xx_HAL_Driver/Src\stm32l4xx_hal_uart.c **** 
1202:d:/LiteOS_Lab/drivers/third_party/ST/STM32L4xx_HAL_Driver/Src\stm32l4xx_hal_uart.c ****   return HAL_OK;
 2461              		.loc 1 1202 10
 2462 00c6 0023     		movs	r3, #0
1203:d:/LiteOS_Lab/drivers/third_party/ST/STM32L4xx_HAL_Driver/Src\stm32l4xx_hal_uart.c **** }
 2463              		.loc 1 1203 1
 2464 00c8 1846     		mov	r0, r3
 2465 00ca 0837     		adds	r7, r7, #8
 2466              	.LCFI89:
 2467              		.cfi_def_cfa_offset 8
 2468 00cc BD46     		mov	sp, r7
 2469              	.LCFI90:
 2470              		.cfi_def_cfa_register 13
ARM GAS  C:\Users\ADMINI~1\AppData\Local\Temp\ccHDbRvY.s 			page 65


 2471              		@ sp needed
 2472 00ce 80BD     		pop	{r7, pc}
 2473              		.cfi_endproc
 2474              	.LFE303:
 2476              		.section	.text.HAL_UART_AbortTransmit,"ax",%progbits
 2477              		.align	1
 2478              		.global	HAL_UART_AbortTransmit
 2479              		.syntax unified
 2480              		.thumb
 2481              		.thumb_func
 2482              		.fpu fpv4-sp-d16
 2484              	HAL_UART_AbortTransmit:
 2485              	.LFB304:
1204:d:/LiteOS_Lab/drivers/third_party/ST/STM32L4xx_HAL_Driver/Src\stm32l4xx_hal_uart.c **** 
1205:d:/LiteOS_Lab/drivers/third_party/ST/STM32L4xx_HAL_Driver/Src\stm32l4xx_hal_uart.c **** /**
1206:d:/LiteOS_Lab/drivers/third_party/ST/STM32L4xx_HAL_Driver/Src\stm32l4xx_hal_uart.c ****   * @brief  Abort ongoing Transmit transfer (blocking mode).
1207:d:/LiteOS_Lab/drivers/third_party/ST/STM32L4xx_HAL_Driver/Src\stm32l4xx_hal_uart.c ****   * @param  huart UART handle.
1208:d:/LiteOS_Lab/drivers/third_party/ST/STM32L4xx_HAL_Driver/Src\stm32l4xx_hal_uart.c ****   * @note   This procedure could be used for aborting any ongoing Tx transfer started in Interrupt 
1209:d:/LiteOS_Lab/drivers/third_party/ST/STM32L4xx_HAL_Driver/Src\stm32l4xx_hal_uart.c ****   *         This procedure performs following operations :
1210:d:/LiteOS_Lab/drivers/third_party/ST/STM32L4xx_HAL_Driver/Src\stm32l4xx_hal_uart.c ****   *           - Disable UART Interrupts (Tx)
1211:d:/LiteOS_Lab/drivers/third_party/ST/STM32L4xx_HAL_Driver/Src\stm32l4xx_hal_uart.c ****   *           - Disable the DMA transfer in the peripheral register (if enabled)
1212:d:/LiteOS_Lab/drivers/third_party/ST/STM32L4xx_HAL_Driver/Src\stm32l4xx_hal_uart.c ****   *           - Abort DMA transfer by calling HAL_DMA_Abort (in case of transfer in DMA mode)
1213:d:/LiteOS_Lab/drivers/third_party/ST/STM32L4xx_HAL_Driver/Src\stm32l4xx_hal_uart.c ****   *           - Set handle State to READY
1214:d:/LiteOS_Lab/drivers/third_party/ST/STM32L4xx_HAL_Driver/Src\stm32l4xx_hal_uart.c ****   * @note   This procedure is executed in blocking mode : when exiting function, Abort is considere
1215:d:/LiteOS_Lab/drivers/third_party/ST/STM32L4xx_HAL_Driver/Src\stm32l4xx_hal_uart.c ****   * @retval HAL status
1216:d:/LiteOS_Lab/drivers/third_party/ST/STM32L4xx_HAL_Driver/Src\stm32l4xx_hal_uart.c **** */
1217:d:/LiteOS_Lab/drivers/third_party/ST/STM32L4xx_HAL_Driver/Src\stm32l4xx_hal_uart.c **** HAL_StatusTypeDef HAL_UART_AbortTransmit(UART_HandleTypeDef *huart)
1218:d:/LiteOS_Lab/drivers/third_party/ST/STM32L4xx_HAL_Driver/Src\stm32l4xx_hal_uart.c **** {
 2486              		.loc 1 1218 1
 2487              		.cfi_startproc
 2488              		@ args = 0, pretend = 0, frame = 8
 2489              		@ frame_needed = 1, uses_anonymous_args = 0
 2490 0000 80B5     		push	{r7, lr}
 2491              	.LCFI91:
 2492              		.cfi_def_cfa_offset 8
 2493              		.cfi_offset 7, -8
 2494              		.cfi_offset 14, -4
 2495 0002 82B0     		sub	sp, sp, #8
 2496              	.LCFI92:
 2497              		.cfi_def_cfa_offset 16
 2498 0004 00AF     		add	r7, sp, #0
 2499              	.LCFI93:
 2500              		.cfi_def_cfa_register 7
 2501 0006 7860     		str	r0, [r7, #4]
1219:d:/LiteOS_Lab/drivers/third_party/ST/STM32L4xx_HAL_Driver/Src\stm32l4xx_hal_uart.c ****   /* Disable TXEIE and TCIE interrupts */
1220:d:/LiteOS_Lab/drivers/third_party/ST/STM32L4xx_HAL_Driver/Src\stm32l4xx_hal_uart.c ****   CLEAR_BIT(huart->Instance->CR1, (USART_CR1_TXEIE | USART_CR1_TCIE));
 2502              		.loc 1 1220 3
 2503 0008 7B68     		ldr	r3, [r7, #4]
 2504 000a 1B68     		ldr	r3, [r3]
 2505 000c 1A68     		ldr	r2, [r3]
 2506 000e 7B68     		ldr	r3, [r7, #4]
 2507 0010 1B68     		ldr	r3, [r3]
 2508 0012 22F0C002 		bic	r2, r2, #192
 2509 0016 1A60     		str	r2, [r3]
1221:d:/LiteOS_Lab/drivers/third_party/ST/STM32L4xx_HAL_Driver/Src\stm32l4xx_hal_uart.c **** 
1222:d:/LiteOS_Lab/drivers/third_party/ST/STM32L4xx_HAL_Driver/Src\stm32l4xx_hal_uart.c ****   /* Disable the UART DMA Tx request if enabled */
1223:d:/LiteOS_Lab/drivers/third_party/ST/STM32L4xx_HAL_Driver/Src\stm32l4xx_hal_uart.c ****   if (HAL_IS_BIT_SET(huart->Instance->CR3, USART_CR3_DMAT))
ARM GAS  C:\Users\ADMINI~1\AppData\Local\Temp\ccHDbRvY.s 			page 66


 2510              		.loc 1 1223 7
 2511 0018 7B68     		ldr	r3, [r7, #4]
 2512 001a 1B68     		ldr	r3, [r3]
 2513 001c 9B68     		ldr	r3, [r3, #8]
 2514 001e 03F08003 		and	r3, r3, #128
 2515              		.loc 1 1223 6
 2516 0022 802B     		cmp	r3, #128
 2517 0024 14D1     		bne	.L123
1224:d:/LiteOS_Lab/drivers/third_party/ST/STM32L4xx_HAL_Driver/Src\stm32l4xx_hal_uart.c ****   {
1225:d:/LiteOS_Lab/drivers/third_party/ST/STM32L4xx_HAL_Driver/Src\stm32l4xx_hal_uart.c ****     CLEAR_BIT(huart->Instance->CR3, USART_CR3_DMAT);
 2518              		.loc 1 1225 5
 2519 0026 7B68     		ldr	r3, [r7, #4]
 2520 0028 1B68     		ldr	r3, [r3]
 2521 002a 9A68     		ldr	r2, [r3, #8]
 2522 002c 7B68     		ldr	r3, [r7, #4]
 2523 002e 1B68     		ldr	r3, [r3]
 2524 0030 22F08002 		bic	r2, r2, #128
 2525 0034 9A60     		str	r2, [r3, #8]
1226:d:/LiteOS_Lab/drivers/third_party/ST/STM32L4xx_HAL_Driver/Src\stm32l4xx_hal_uart.c **** 
1227:d:/LiteOS_Lab/drivers/third_party/ST/STM32L4xx_HAL_Driver/Src\stm32l4xx_hal_uart.c ****     /* Abort the UART DMA Tx channel : use blocking DMA Abort API (no callback) */
1228:d:/LiteOS_Lab/drivers/third_party/ST/STM32L4xx_HAL_Driver/Src\stm32l4xx_hal_uart.c ****     if(huart->hdmatx != NULL)
 2526              		.loc 1 1228 13
 2527 0036 7B68     		ldr	r3, [r7, #4]
 2528 0038 9B6E     		ldr	r3, [r3, #104]
 2529              		.loc 1 1228 7
 2530 003a 002B     		cmp	r3, #0
 2531 003c 08D0     		beq	.L123
1229:d:/LiteOS_Lab/drivers/third_party/ST/STM32L4xx_HAL_Driver/Src\stm32l4xx_hal_uart.c ****     {
1230:d:/LiteOS_Lab/drivers/third_party/ST/STM32L4xx_HAL_Driver/Src\stm32l4xx_hal_uart.c ****       /* Set the UART DMA Abort callback to Null. 
1231:d:/LiteOS_Lab/drivers/third_party/ST/STM32L4xx_HAL_Driver/Src\stm32l4xx_hal_uart.c ****          No call back execution at end of DMA abort procedure */
1232:d:/LiteOS_Lab/drivers/third_party/ST/STM32L4xx_HAL_Driver/Src\stm32l4xx_hal_uart.c ****       huart->hdmatx->XferAbortCallback = NULL;
 2532              		.loc 1 1232 12
 2533 003e 7B68     		ldr	r3, [r7, #4]
 2534 0040 9B6E     		ldr	r3, [r3, #104]
 2535              		.loc 1 1232 40
 2536 0042 0022     		movs	r2, #0
 2537 0044 9A63     		str	r2, [r3, #56]
1233:d:/LiteOS_Lab/drivers/third_party/ST/STM32L4xx_HAL_Driver/Src\stm32l4xx_hal_uart.c **** 
1234:d:/LiteOS_Lab/drivers/third_party/ST/STM32L4xx_HAL_Driver/Src\stm32l4xx_hal_uart.c ****       HAL_DMA_Abort(huart->hdmatx);
 2538              		.loc 1 1234 7
 2539 0046 7B68     		ldr	r3, [r7, #4]
 2540 0048 9B6E     		ldr	r3, [r3, #104]
 2541 004a 1846     		mov	r0, r3
 2542 004c FFF7FEFF 		bl	HAL_DMA_Abort
 2543              	.L123:
1235:d:/LiteOS_Lab/drivers/third_party/ST/STM32L4xx_HAL_Driver/Src\stm32l4xx_hal_uart.c ****     }
1236:d:/LiteOS_Lab/drivers/third_party/ST/STM32L4xx_HAL_Driver/Src\stm32l4xx_hal_uart.c ****   }
1237:d:/LiteOS_Lab/drivers/third_party/ST/STM32L4xx_HAL_Driver/Src\stm32l4xx_hal_uart.c **** 
1238:d:/LiteOS_Lab/drivers/third_party/ST/STM32L4xx_HAL_Driver/Src\stm32l4xx_hal_uart.c ****   /* Reset Tx transfer counter */
1239:d:/LiteOS_Lab/drivers/third_party/ST/STM32L4xx_HAL_Driver/Src\stm32l4xx_hal_uart.c ****   huart->TxXferCount = 0; 
 2544              		.loc 1 1239 22
 2545 0050 7B68     		ldr	r3, [r7, #4]
 2546 0052 0022     		movs	r2, #0
 2547 0054 A3F85220 		strh	r2, [r3, #82]	@ movhi
1240:d:/LiteOS_Lab/drivers/third_party/ST/STM32L4xx_HAL_Driver/Src\stm32l4xx_hal_uart.c **** 
1241:d:/LiteOS_Lab/drivers/third_party/ST/STM32L4xx_HAL_Driver/Src\stm32l4xx_hal_uart.c ****   /* Restore huart->gState to Ready */
1242:d:/LiteOS_Lab/drivers/third_party/ST/STM32L4xx_HAL_Driver/Src\stm32l4xx_hal_uart.c ****   huart->gState = HAL_UART_STATE_READY;
ARM GAS  C:\Users\ADMINI~1\AppData\Local\Temp\ccHDbRvY.s 			page 67


 2548              		.loc 1 1242 17
 2549 0058 7B68     		ldr	r3, [r7, #4]
 2550 005a 2022     		movs	r2, #32
 2551 005c 83F87120 		strb	r2, [r3, #113]
1243:d:/LiteOS_Lab/drivers/third_party/ST/STM32L4xx_HAL_Driver/Src\stm32l4xx_hal_uart.c **** 
1244:d:/LiteOS_Lab/drivers/third_party/ST/STM32L4xx_HAL_Driver/Src\stm32l4xx_hal_uart.c ****   return HAL_OK;
 2552              		.loc 1 1244 10
 2553 0060 0023     		movs	r3, #0
1245:d:/LiteOS_Lab/drivers/third_party/ST/STM32L4xx_HAL_Driver/Src\stm32l4xx_hal_uart.c **** }
 2554              		.loc 1 1245 1
 2555 0062 1846     		mov	r0, r3
 2556 0064 0837     		adds	r7, r7, #8
 2557              	.LCFI94:
 2558              		.cfi_def_cfa_offset 8
 2559 0066 BD46     		mov	sp, r7
 2560              	.LCFI95:
 2561              		.cfi_def_cfa_register 13
 2562              		@ sp needed
 2563 0068 80BD     		pop	{r7, pc}
 2564              		.cfi_endproc
 2565              	.LFE304:
 2567              		.section	.text.HAL_UART_AbortReceive,"ax",%progbits
 2568              		.align	1
 2569              		.global	HAL_UART_AbortReceive
 2570              		.syntax unified
 2571              		.thumb
 2572              		.thumb_func
 2573              		.fpu fpv4-sp-d16
 2575              	HAL_UART_AbortReceive:
 2576              	.LFB305:
1246:d:/LiteOS_Lab/drivers/third_party/ST/STM32L4xx_HAL_Driver/Src\stm32l4xx_hal_uart.c **** 
1247:d:/LiteOS_Lab/drivers/third_party/ST/STM32L4xx_HAL_Driver/Src\stm32l4xx_hal_uart.c **** /**
1248:d:/LiteOS_Lab/drivers/third_party/ST/STM32L4xx_HAL_Driver/Src\stm32l4xx_hal_uart.c ****   * @brief  Abort ongoing Receive transfer (blocking mode).
1249:d:/LiteOS_Lab/drivers/third_party/ST/STM32L4xx_HAL_Driver/Src\stm32l4xx_hal_uart.c ****   * @param  huart UART handle.
1250:d:/LiteOS_Lab/drivers/third_party/ST/STM32L4xx_HAL_Driver/Src\stm32l4xx_hal_uart.c ****   * @note   This procedure could be used for aborting any ongoing Rx transfer started in Interrupt 
1251:d:/LiteOS_Lab/drivers/third_party/ST/STM32L4xx_HAL_Driver/Src\stm32l4xx_hal_uart.c ****   *         This procedure performs following operations :
1252:d:/LiteOS_Lab/drivers/third_party/ST/STM32L4xx_HAL_Driver/Src\stm32l4xx_hal_uart.c ****   *           - Disable UART Interrupts (Rx)
1253:d:/LiteOS_Lab/drivers/third_party/ST/STM32L4xx_HAL_Driver/Src\stm32l4xx_hal_uart.c ****   *           - Disable the DMA transfer in the peripheral register (if enabled)
1254:d:/LiteOS_Lab/drivers/third_party/ST/STM32L4xx_HAL_Driver/Src\stm32l4xx_hal_uart.c ****   *           - Abort DMA transfer by calling HAL_DMA_Abort (in case of transfer in DMA mode)
1255:d:/LiteOS_Lab/drivers/third_party/ST/STM32L4xx_HAL_Driver/Src\stm32l4xx_hal_uart.c ****   *           - Set handle State to READY
1256:d:/LiteOS_Lab/drivers/third_party/ST/STM32L4xx_HAL_Driver/Src\stm32l4xx_hal_uart.c ****   * @note   This procedure is executed in blocking mode : when exiting function, Abort is considere
1257:d:/LiteOS_Lab/drivers/third_party/ST/STM32L4xx_HAL_Driver/Src\stm32l4xx_hal_uart.c ****   * @retval HAL status
1258:d:/LiteOS_Lab/drivers/third_party/ST/STM32L4xx_HAL_Driver/Src\stm32l4xx_hal_uart.c **** */
1259:d:/LiteOS_Lab/drivers/third_party/ST/STM32L4xx_HAL_Driver/Src\stm32l4xx_hal_uart.c **** HAL_StatusTypeDef HAL_UART_AbortReceive(UART_HandleTypeDef *huart)
1260:d:/LiteOS_Lab/drivers/third_party/ST/STM32L4xx_HAL_Driver/Src\stm32l4xx_hal_uart.c **** {
 2577              		.loc 1 1260 1
 2578              		.cfi_startproc
 2579              		@ args = 0, pretend = 0, frame = 8
 2580              		@ frame_needed = 1, uses_anonymous_args = 0
 2581 0000 80B5     		push	{r7, lr}
 2582              	.LCFI96:
 2583              		.cfi_def_cfa_offset 8
 2584              		.cfi_offset 7, -8
 2585              		.cfi_offset 14, -4
 2586 0002 82B0     		sub	sp, sp, #8
 2587              	.LCFI97:
 2588              		.cfi_def_cfa_offset 16
ARM GAS  C:\Users\ADMINI~1\AppData\Local\Temp\ccHDbRvY.s 			page 68


 2589 0004 00AF     		add	r7, sp, #0
 2590              	.LCFI98:
 2591              		.cfi_def_cfa_register 7
 2592 0006 7860     		str	r0, [r7, #4]
1261:d:/LiteOS_Lab/drivers/third_party/ST/STM32L4xx_HAL_Driver/Src\stm32l4xx_hal_uart.c ****   /* Disable RXNE, PE and ERR (Frame error, noise error, overrun error) interrupts */
1262:d:/LiteOS_Lab/drivers/third_party/ST/STM32L4xx_HAL_Driver/Src\stm32l4xx_hal_uart.c ****   CLEAR_BIT(huart->Instance->CR1, (USART_CR1_RXNEIE | USART_CR1_PEIE));
 2593              		.loc 1 1262 3
 2594 0008 7B68     		ldr	r3, [r7, #4]
 2595 000a 1B68     		ldr	r3, [r3]
 2596 000c 1A68     		ldr	r2, [r3]
 2597 000e 7B68     		ldr	r3, [r7, #4]
 2598 0010 1B68     		ldr	r3, [r3]
 2599 0012 22F49072 		bic	r2, r2, #288
 2600 0016 1A60     		str	r2, [r3]
1263:d:/LiteOS_Lab/drivers/third_party/ST/STM32L4xx_HAL_Driver/Src\stm32l4xx_hal_uart.c ****   CLEAR_BIT(huart->Instance->CR3, USART_CR3_EIE);
 2601              		.loc 1 1263 3
 2602 0018 7B68     		ldr	r3, [r7, #4]
 2603 001a 1B68     		ldr	r3, [r3]
 2604 001c 9A68     		ldr	r2, [r3, #8]
 2605 001e 7B68     		ldr	r3, [r7, #4]
 2606 0020 1B68     		ldr	r3, [r3]
 2607 0022 22F00102 		bic	r2, r2, #1
 2608 0026 9A60     		str	r2, [r3, #8]
1264:d:/LiteOS_Lab/drivers/third_party/ST/STM32L4xx_HAL_Driver/Src\stm32l4xx_hal_uart.c **** 
1265:d:/LiteOS_Lab/drivers/third_party/ST/STM32L4xx_HAL_Driver/Src\stm32l4xx_hal_uart.c ****   /* Disable the UART DMA Rx request if enabled */
1266:d:/LiteOS_Lab/drivers/third_party/ST/STM32L4xx_HAL_Driver/Src\stm32l4xx_hal_uart.c ****   if (HAL_IS_BIT_SET(huart->Instance->CR3, USART_CR3_DMAR))
 2609              		.loc 1 1266 7
 2610 0028 7B68     		ldr	r3, [r7, #4]
 2611 002a 1B68     		ldr	r3, [r3]
 2612 002c 9B68     		ldr	r3, [r3, #8]
 2613 002e 03F04003 		and	r3, r3, #64
 2614              		.loc 1 1266 6
 2615 0032 402B     		cmp	r3, #64
 2616 0034 14D1     		bne	.L126
1267:d:/LiteOS_Lab/drivers/third_party/ST/STM32L4xx_HAL_Driver/Src\stm32l4xx_hal_uart.c ****   {
1268:d:/LiteOS_Lab/drivers/third_party/ST/STM32L4xx_HAL_Driver/Src\stm32l4xx_hal_uart.c ****     CLEAR_BIT(huart->Instance->CR3, USART_CR3_DMAR);
 2617              		.loc 1 1268 5
 2618 0036 7B68     		ldr	r3, [r7, #4]
 2619 0038 1B68     		ldr	r3, [r3]
 2620 003a 9A68     		ldr	r2, [r3, #8]
 2621 003c 7B68     		ldr	r3, [r7, #4]
 2622 003e 1B68     		ldr	r3, [r3]
 2623 0040 22F04002 		bic	r2, r2, #64
 2624 0044 9A60     		str	r2, [r3, #8]
1269:d:/LiteOS_Lab/drivers/third_party/ST/STM32L4xx_HAL_Driver/Src\stm32l4xx_hal_uart.c **** 
1270:d:/LiteOS_Lab/drivers/third_party/ST/STM32L4xx_HAL_Driver/Src\stm32l4xx_hal_uart.c ****     /* Abort the UART DMA Rx channel : use blocking DMA Abort API (no callback) */
1271:d:/LiteOS_Lab/drivers/third_party/ST/STM32L4xx_HAL_Driver/Src\stm32l4xx_hal_uart.c ****     if(huart->hdmarx != NULL)
 2625              		.loc 1 1271 13
 2626 0046 7B68     		ldr	r3, [r7, #4]
 2627 0048 DB6E     		ldr	r3, [r3, #108]
 2628              		.loc 1 1271 7
 2629 004a 002B     		cmp	r3, #0
 2630 004c 08D0     		beq	.L126
1272:d:/LiteOS_Lab/drivers/third_party/ST/STM32L4xx_HAL_Driver/Src\stm32l4xx_hal_uart.c ****     {
1273:d:/LiteOS_Lab/drivers/third_party/ST/STM32L4xx_HAL_Driver/Src\stm32l4xx_hal_uart.c ****       /* Set the UART DMA Abort callback to Null. 
1274:d:/LiteOS_Lab/drivers/third_party/ST/STM32L4xx_HAL_Driver/Src\stm32l4xx_hal_uart.c ****          No call back execution at end of DMA abort procedure */
1275:d:/LiteOS_Lab/drivers/third_party/ST/STM32L4xx_HAL_Driver/Src\stm32l4xx_hal_uart.c ****       huart->hdmarx->XferAbortCallback = NULL;
ARM GAS  C:\Users\ADMINI~1\AppData\Local\Temp\ccHDbRvY.s 			page 69


 2631              		.loc 1 1275 12
 2632 004e 7B68     		ldr	r3, [r7, #4]
 2633 0050 DB6E     		ldr	r3, [r3, #108]
 2634              		.loc 1 1275 40
 2635 0052 0022     		movs	r2, #0
 2636 0054 9A63     		str	r2, [r3, #56]
1276:d:/LiteOS_Lab/drivers/third_party/ST/STM32L4xx_HAL_Driver/Src\stm32l4xx_hal_uart.c **** 
1277:d:/LiteOS_Lab/drivers/third_party/ST/STM32L4xx_HAL_Driver/Src\stm32l4xx_hal_uart.c ****       HAL_DMA_Abort(huart->hdmarx);
 2637              		.loc 1 1277 7
 2638 0056 7B68     		ldr	r3, [r7, #4]
 2639 0058 DB6E     		ldr	r3, [r3, #108]
 2640 005a 1846     		mov	r0, r3
 2641 005c FFF7FEFF 		bl	HAL_DMA_Abort
 2642              	.L126:
1278:d:/LiteOS_Lab/drivers/third_party/ST/STM32L4xx_HAL_Driver/Src\stm32l4xx_hal_uart.c ****     }
1279:d:/LiteOS_Lab/drivers/third_party/ST/STM32L4xx_HAL_Driver/Src\stm32l4xx_hal_uart.c ****   }
1280:d:/LiteOS_Lab/drivers/third_party/ST/STM32L4xx_HAL_Driver/Src\stm32l4xx_hal_uart.c **** 
1281:d:/LiteOS_Lab/drivers/third_party/ST/STM32L4xx_HAL_Driver/Src\stm32l4xx_hal_uart.c ****   /* Reset Rx transfer counter */
1282:d:/LiteOS_Lab/drivers/third_party/ST/STM32L4xx_HAL_Driver/Src\stm32l4xx_hal_uart.c ****   huart->RxXferCount = 0; 
 2643              		.loc 1 1282 22
 2644 0060 7B68     		ldr	r3, [r7, #4]
 2645 0062 0022     		movs	r2, #0
 2646 0064 A3F85A20 		strh	r2, [r3, #90]	@ movhi
1283:d:/LiteOS_Lab/drivers/third_party/ST/STM32L4xx_HAL_Driver/Src\stm32l4xx_hal_uart.c **** 
1284:d:/LiteOS_Lab/drivers/third_party/ST/STM32L4xx_HAL_Driver/Src\stm32l4xx_hal_uart.c ****   /* Clear the Error flags in the ICR register */
1285:d:/LiteOS_Lab/drivers/third_party/ST/STM32L4xx_HAL_Driver/Src\stm32l4xx_hal_uart.c ****   __HAL_UART_CLEAR_FLAG(huart, UART_CLEAR_OREF | UART_CLEAR_NEF | UART_CLEAR_PEF | UART_CLEAR_FEF);
 2647              		.loc 1 1285 3
 2648 0068 7B68     		ldr	r3, [r7, #4]
 2649 006a 1B68     		ldr	r3, [r3]
 2650 006c 0F22     		movs	r2, #15
 2651 006e 1A62     		str	r2, [r3, #32]
1286:d:/LiteOS_Lab/drivers/third_party/ST/STM32L4xx_HAL_Driver/Src\stm32l4xx_hal_uart.c **** 
1287:d:/LiteOS_Lab/drivers/third_party/ST/STM32L4xx_HAL_Driver/Src\stm32l4xx_hal_uart.c ****   /* Restore huart->RxState to Ready */
1288:d:/LiteOS_Lab/drivers/third_party/ST/STM32L4xx_HAL_Driver/Src\stm32l4xx_hal_uart.c ****   huart->RxState = HAL_UART_STATE_READY;
 2652              		.loc 1 1288 18
 2653 0070 7B68     		ldr	r3, [r7, #4]
 2654 0072 2022     		movs	r2, #32
 2655 0074 83F87220 		strb	r2, [r3, #114]
1289:d:/LiteOS_Lab/drivers/third_party/ST/STM32L4xx_HAL_Driver/Src\stm32l4xx_hal_uart.c **** 
1290:d:/LiteOS_Lab/drivers/third_party/ST/STM32L4xx_HAL_Driver/Src\stm32l4xx_hal_uart.c ****   return HAL_OK;
 2656              		.loc 1 1290 10
 2657 0078 0023     		movs	r3, #0
1291:d:/LiteOS_Lab/drivers/third_party/ST/STM32L4xx_HAL_Driver/Src\stm32l4xx_hal_uart.c **** }
 2658              		.loc 1 1291 1
 2659 007a 1846     		mov	r0, r3
 2660 007c 0837     		adds	r7, r7, #8
 2661              	.LCFI99:
 2662              		.cfi_def_cfa_offset 8
 2663 007e BD46     		mov	sp, r7
 2664              	.LCFI100:
 2665              		.cfi_def_cfa_register 13
 2666              		@ sp needed
 2667 0080 80BD     		pop	{r7, pc}
 2668              		.cfi_endproc
 2669              	.LFE305:
 2671              		.section	.text.HAL_UART_Abort_IT,"ax",%progbits
 2672              		.align	1
ARM GAS  C:\Users\ADMINI~1\AppData\Local\Temp\ccHDbRvY.s 			page 70


 2673              		.global	HAL_UART_Abort_IT
 2674              		.syntax unified
 2675              		.thumb
 2676              		.thumb_func
 2677              		.fpu fpv4-sp-d16
 2679              	HAL_UART_Abort_IT:
 2680              	.LFB306:
1292:d:/LiteOS_Lab/drivers/third_party/ST/STM32L4xx_HAL_Driver/Src\stm32l4xx_hal_uart.c **** 
1293:d:/LiteOS_Lab/drivers/third_party/ST/STM32L4xx_HAL_Driver/Src\stm32l4xx_hal_uart.c **** /**
1294:d:/LiteOS_Lab/drivers/third_party/ST/STM32L4xx_HAL_Driver/Src\stm32l4xx_hal_uart.c ****   * @brief  Abort ongoing transfers (Interrupt mode).
1295:d:/LiteOS_Lab/drivers/third_party/ST/STM32L4xx_HAL_Driver/Src\stm32l4xx_hal_uart.c ****   * @param  huart UART handle.
1296:d:/LiteOS_Lab/drivers/third_party/ST/STM32L4xx_HAL_Driver/Src\stm32l4xx_hal_uart.c ****   * @note   This procedure could be used for aborting any ongoing transfer started in Interrupt or 
1297:d:/LiteOS_Lab/drivers/third_party/ST/STM32L4xx_HAL_Driver/Src\stm32l4xx_hal_uart.c ****   *         This procedure performs following operations :
1298:d:/LiteOS_Lab/drivers/third_party/ST/STM32L4xx_HAL_Driver/Src\stm32l4xx_hal_uart.c ****   *           - Disable UART Interrupts (Tx and Rx)
1299:d:/LiteOS_Lab/drivers/third_party/ST/STM32L4xx_HAL_Driver/Src\stm32l4xx_hal_uart.c ****   *           - Disable the DMA transfer in the peripheral register (if enabled)
1300:d:/LiteOS_Lab/drivers/third_party/ST/STM32L4xx_HAL_Driver/Src\stm32l4xx_hal_uart.c ****   *           - Abort DMA transfer by calling HAL_DMA_Abort_IT (in case of transfer in DMA mode)
1301:d:/LiteOS_Lab/drivers/third_party/ST/STM32L4xx_HAL_Driver/Src\stm32l4xx_hal_uart.c ****   *           - Set handle State to READY
1302:d:/LiteOS_Lab/drivers/third_party/ST/STM32L4xx_HAL_Driver/Src\stm32l4xx_hal_uart.c ****   *           - At abort completion, call user abort complete callback
1303:d:/LiteOS_Lab/drivers/third_party/ST/STM32L4xx_HAL_Driver/Src\stm32l4xx_hal_uart.c ****   * @note   This procedure is executed in Interrupt mode, meaning that abort procedure could be
1304:d:/LiteOS_Lab/drivers/third_party/ST/STM32L4xx_HAL_Driver/Src\stm32l4xx_hal_uart.c ****   *         considered as completed only when user abort complete callback is executed (not when ex
1305:d:/LiteOS_Lab/drivers/third_party/ST/STM32L4xx_HAL_Driver/Src\stm32l4xx_hal_uart.c ****   * @retval HAL status
1306:d:/LiteOS_Lab/drivers/third_party/ST/STM32L4xx_HAL_Driver/Src\stm32l4xx_hal_uart.c **** */
1307:d:/LiteOS_Lab/drivers/third_party/ST/STM32L4xx_HAL_Driver/Src\stm32l4xx_hal_uart.c **** HAL_StatusTypeDef HAL_UART_Abort_IT(UART_HandleTypeDef *huart)
1308:d:/LiteOS_Lab/drivers/third_party/ST/STM32L4xx_HAL_Driver/Src\stm32l4xx_hal_uart.c **** {
 2681              		.loc 1 1308 1
 2682              		.cfi_startproc
 2683              		@ args = 0, pretend = 0, frame = 16
 2684              		@ frame_needed = 1, uses_anonymous_args = 0
 2685 0000 80B5     		push	{r7, lr}
 2686              	.LCFI101:
 2687              		.cfi_def_cfa_offset 8
 2688              		.cfi_offset 7, -8
 2689              		.cfi_offset 14, -4
 2690 0002 84B0     		sub	sp, sp, #16
 2691              	.LCFI102:
 2692              		.cfi_def_cfa_offset 24
 2693 0004 00AF     		add	r7, sp, #0
 2694              	.LCFI103:
 2695              		.cfi_def_cfa_register 7
 2696 0006 7860     		str	r0, [r7, #4]
1309:d:/LiteOS_Lab/drivers/third_party/ST/STM32L4xx_HAL_Driver/Src\stm32l4xx_hal_uart.c ****   uint32_t abortcplt = 1;
 2697              		.loc 1 1309 12
 2698 0008 0123     		movs	r3, #1
 2699 000a FB60     		str	r3, [r7, #12]
1310:d:/LiteOS_Lab/drivers/third_party/ST/STM32L4xx_HAL_Driver/Src\stm32l4xx_hal_uart.c ****   
1311:d:/LiteOS_Lab/drivers/third_party/ST/STM32L4xx_HAL_Driver/Src\stm32l4xx_hal_uart.c ****   /* Disable TXEIE, TCIE, RXNE, PE and ERR (Frame error, noise error, overrun error) interrupts */
1312:d:/LiteOS_Lab/drivers/third_party/ST/STM32L4xx_HAL_Driver/Src\stm32l4xx_hal_uart.c ****   CLEAR_BIT(huart->Instance->CR1, (USART_CR1_RXNEIE | USART_CR1_PEIE | USART_CR1_TXEIE | USART_CR1_
 2700              		.loc 1 1312 3
 2701 000c 7B68     		ldr	r3, [r7, #4]
 2702 000e 1B68     		ldr	r3, [r3]
 2703 0010 1A68     		ldr	r2, [r3]
 2704 0012 7B68     		ldr	r3, [r7, #4]
 2705 0014 1B68     		ldr	r3, [r3]
 2706 0016 22F4F072 		bic	r2, r2, #480
 2707 001a 1A60     		str	r2, [r3]
1313:d:/LiteOS_Lab/drivers/third_party/ST/STM32L4xx_HAL_Driver/Src\stm32l4xx_hal_uart.c ****   CLEAR_BIT(huart->Instance->CR3, USART_CR3_EIE);
 2708              		.loc 1 1313 3
ARM GAS  C:\Users\ADMINI~1\AppData\Local\Temp\ccHDbRvY.s 			page 71


 2709 001c 7B68     		ldr	r3, [r7, #4]
 2710 001e 1B68     		ldr	r3, [r3]
 2711 0020 9A68     		ldr	r2, [r3, #8]
 2712 0022 7B68     		ldr	r3, [r7, #4]
 2713 0024 1B68     		ldr	r3, [r3]
 2714 0026 22F00102 		bic	r2, r2, #1
 2715 002a 9A60     		str	r2, [r3, #8]
1314:d:/LiteOS_Lab/drivers/third_party/ST/STM32L4xx_HAL_Driver/Src\stm32l4xx_hal_uart.c **** 
1315:d:/LiteOS_Lab/drivers/third_party/ST/STM32L4xx_HAL_Driver/Src\stm32l4xx_hal_uart.c ****   /* If DMA Tx and/or DMA Rx Handles are associated to UART Handle, DMA Abort complete callbacks sh
1316:d:/LiteOS_Lab/drivers/third_party/ST/STM32L4xx_HAL_Driver/Src\stm32l4xx_hal_uart.c ****      before any call to DMA Abort functions */
1317:d:/LiteOS_Lab/drivers/third_party/ST/STM32L4xx_HAL_Driver/Src\stm32l4xx_hal_uart.c ****   /* DMA Tx Handle is valid */
1318:d:/LiteOS_Lab/drivers/third_party/ST/STM32L4xx_HAL_Driver/Src\stm32l4xx_hal_uart.c ****   if(huart->hdmatx != NULL)
 2716              		.loc 1 1318 11
 2717 002c 7B68     		ldr	r3, [r7, #4]
 2718 002e 9B6E     		ldr	r3, [r3, #104]
 2719              		.loc 1 1318 5
 2720 0030 002B     		cmp	r3, #0
 2721 0032 0FD0     		beq	.L129
1319:d:/LiteOS_Lab/drivers/third_party/ST/STM32L4xx_HAL_Driver/Src\stm32l4xx_hal_uart.c ****   {
1320:d:/LiteOS_Lab/drivers/third_party/ST/STM32L4xx_HAL_Driver/Src\stm32l4xx_hal_uart.c ****     /* Set DMA Abort Complete callback if UART DMA Tx request if enabled.
1321:d:/LiteOS_Lab/drivers/third_party/ST/STM32L4xx_HAL_Driver/Src\stm32l4xx_hal_uart.c ****        Otherwise, set it to NULL */
1322:d:/LiteOS_Lab/drivers/third_party/ST/STM32L4xx_HAL_Driver/Src\stm32l4xx_hal_uart.c ****     if(HAL_IS_BIT_SET(huart->Instance->CR3, USART_CR3_DMAT))
 2722              		.loc 1 1322 8
 2723 0034 7B68     		ldr	r3, [r7, #4]
 2724 0036 1B68     		ldr	r3, [r3]
 2725 0038 9B68     		ldr	r3, [r3, #8]
 2726 003a 03F08003 		and	r3, r3, #128
 2727              		.loc 1 1322 7
 2728 003e 802B     		cmp	r3, #128
 2729 0040 04D1     		bne	.L130
1323:d:/LiteOS_Lab/drivers/third_party/ST/STM32L4xx_HAL_Driver/Src\stm32l4xx_hal_uart.c ****     {
1324:d:/LiteOS_Lab/drivers/third_party/ST/STM32L4xx_HAL_Driver/Src\stm32l4xx_hal_uart.c ****       huart->hdmatx->XferAbortCallback = UART_DMATxAbortCallback;
 2730              		.loc 1 1324 12
 2731 0042 7B68     		ldr	r3, [r7, #4]
 2732 0044 9B6E     		ldr	r3, [r3, #104]
 2733              		.loc 1 1324 40
 2734 0046 414A     		ldr	r2, .L139
 2735 0048 9A63     		str	r2, [r3, #56]
 2736 004a 03E0     		b	.L129
 2737              	.L130:
1325:d:/LiteOS_Lab/drivers/third_party/ST/STM32L4xx_HAL_Driver/Src\stm32l4xx_hal_uart.c ****     }
1326:d:/LiteOS_Lab/drivers/third_party/ST/STM32L4xx_HAL_Driver/Src\stm32l4xx_hal_uart.c ****     else
1327:d:/LiteOS_Lab/drivers/third_party/ST/STM32L4xx_HAL_Driver/Src\stm32l4xx_hal_uart.c ****     {
1328:d:/LiteOS_Lab/drivers/third_party/ST/STM32L4xx_HAL_Driver/Src\stm32l4xx_hal_uart.c ****       huart->hdmatx->XferAbortCallback = NULL;
 2738              		.loc 1 1328 12
 2739 004c 7B68     		ldr	r3, [r7, #4]
 2740 004e 9B6E     		ldr	r3, [r3, #104]
 2741              		.loc 1 1328 40
 2742 0050 0022     		movs	r2, #0
 2743 0052 9A63     		str	r2, [r3, #56]
 2744              	.L129:
1329:d:/LiteOS_Lab/drivers/third_party/ST/STM32L4xx_HAL_Driver/Src\stm32l4xx_hal_uart.c ****     }
1330:d:/LiteOS_Lab/drivers/third_party/ST/STM32L4xx_HAL_Driver/Src\stm32l4xx_hal_uart.c ****   }
1331:d:/LiteOS_Lab/drivers/third_party/ST/STM32L4xx_HAL_Driver/Src\stm32l4xx_hal_uart.c ****   /* DMA Rx Handle is valid */
1332:d:/LiteOS_Lab/drivers/third_party/ST/STM32L4xx_HAL_Driver/Src\stm32l4xx_hal_uart.c ****   if(huart->hdmarx != NULL)
 2745              		.loc 1 1332 11
 2746 0054 7B68     		ldr	r3, [r7, #4]
ARM GAS  C:\Users\ADMINI~1\AppData\Local\Temp\ccHDbRvY.s 			page 72


 2747 0056 DB6E     		ldr	r3, [r3, #108]
 2748              		.loc 1 1332 5
 2749 0058 002B     		cmp	r3, #0
 2750 005a 0FD0     		beq	.L131
1333:d:/LiteOS_Lab/drivers/third_party/ST/STM32L4xx_HAL_Driver/Src\stm32l4xx_hal_uart.c ****   {
1334:d:/LiteOS_Lab/drivers/third_party/ST/STM32L4xx_HAL_Driver/Src\stm32l4xx_hal_uart.c ****     /* Set DMA Abort Complete callback if UART DMA Rx request if enabled.
1335:d:/LiteOS_Lab/drivers/third_party/ST/STM32L4xx_HAL_Driver/Src\stm32l4xx_hal_uart.c ****        Otherwise, set it to NULL */
1336:d:/LiteOS_Lab/drivers/third_party/ST/STM32L4xx_HAL_Driver/Src\stm32l4xx_hal_uart.c ****     if(HAL_IS_BIT_SET(huart->Instance->CR3, USART_CR3_DMAR))
 2751              		.loc 1 1336 8
 2752 005c 7B68     		ldr	r3, [r7, #4]
 2753 005e 1B68     		ldr	r3, [r3]
 2754 0060 9B68     		ldr	r3, [r3, #8]
 2755 0062 03F04003 		and	r3, r3, #64
 2756              		.loc 1 1336 7
 2757 0066 402B     		cmp	r3, #64
 2758 0068 04D1     		bne	.L132
1337:d:/LiteOS_Lab/drivers/third_party/ST/STM32L4xx_HAL_Driver/Src\stm32l4xx_hal_uart.c ****     {
1338:d:/LiteOS_Lab/drivers/third_party/ST/STM32L4xx_HAL_Driver/Src\stm32l4xx_hal_uart.c ****       huart->hdmarx->XferAbortCallback = UART_DMARxAbortCallback;
 2759              		.loc 1 1338 12
 2760 006a 7B68     		ldr	r3, [r7, #4]
 2761 006c DB6E     		ldr	r3, [r3, #108]
 2762              		.loc 1 1338 40
 2763 006e 384A     		ldr	r2, .L139+4
 2764 0070 9A63     		str	r2, [r3, #56]
 2765 0072 03E0     		b	.L131
 2766              	.L132:
1339:d:/LiteOS_Lab/drivers/third_party/ST/STM32L4xx_HAL_Driver/Src\stm32l4xx_hal_uart.c ****     }
1340:d:/LiteOS_Lab/drivers/third_party/ST/STM32L4xx_HAL_Driver/Src\stm32l4xx_hal_uart.c ****     else
1341:d:/LiteOS_Lab/drivers/third_party/ST/STM32L4xx_HAL_Driver/Src\stm32l4xx_hal_uart.c ****     {
1342:d:/LiteOS_Lab/drivers/third_party/ST/STM32L4xx_HAL_Driver/Src\stm32l4xx_hal_uart.c ****       huart->hdmarx->XferAbortCallback = NULL;
 2767              		.loc 1 1342 12
 2768 0074 7B68     		ldr	r3, [r7, #4]
 2769 0076 DB6E     		ldr	r3, [r3, #108]
 2770              		.loc 1 1342 40
 2771 0078 0022     		movs	r2, #0
 2772 007a 9A63     		str	r2, [r3, #56]
 2773              	.L131:
1343:d:/LiteOS_Lab/drivers/third_party/ST/STM32L4xx_HAL_Driver/Src\stm32l4xx_hal_uart.c ****     }
1344:d:/LiteOS_Lab/drivers/third_party/ST/STM32L4xx_HAL_Driver/Src\stm32l4xx_hal_uart.c ****   }
1345:d:/LiteOS_Lab/drivers/third_party/ST/STM32L4xx_HAL_Driver/Src\stm32l4xx_hal_uart.c ****   
1346:d:/LiteOS_Lab/drivers/third_party/ST/STM32L4xx_HAL_Driver/Src\stm32l4xx_hal_uart.c ****   /* Disable the UART DMA Tx request if enabled */
1347:d:/LiteOS_Lab/drivers/third_party/ST/STM32L4xx_HAL_Driver/Src\stm32l4xx_hal_uart.c ****   if(HAL_IS_BIT_SET(huart->Instance->CR3, USART_CR3_DMAT))
 2774              		.loc 1 1347 6
 2775 007c 7B68     		ldr	r3, [r7, #4]
 2776 007e 1B68     		ldr	r3, [r3]
 2777 0080 9B68     		ldr	r3, [r3, #8]
 2778 0082 03F08003 		and	r3, r3, #128
 2779              		.loc 1 1347 5
 2780 0086 802B     		cmp	r3, #128
 2781 0088 1AD1     		bne	.L133
1348:d:/LiteOS_Lab/drivers/third_party/ST/STM32L4xx_HAL_Driver/Src\stm32l4xx_hal_uart.c ****   {
1349:d:/LiteOS_Lab/drivers/third_party/ST/STM32L4xx_HAL_Driver/Src\stm32l4xx_hal_uart.c ****     /* Disable DMA Tx at UART level */
1350:d:/LiteOS_Lab/drivers/third_party/ST/STM32L4xx_HAL_Driver/Src\stm32l4xx_hal_uart.c ****     CLEAR_BIT(huart->Instance->CR3, USART_CR3_DMAT);
 2782              		.loc 1 1350 5
 2783 008a 7B68     		ldr	r3, [r7, #4]
 2784 008c 1B68     		ldr	r3, [r3]
 2785 008e 9A68     		ldr	r2, [r3, #8]
ARM GAS  C:\Users\ADMINI~1\AppData\Local\Temp\ccHDbRvY.s 			page 73


 2786 0090 7B68     		ldr	r3, [r7, #4]
 2787 0092 1B68     		ldr	r3, [r3]
 2788 0094 22F08002 		bic	r2, r2, #128
 2789 0098 9A60     		str	r2, [r3, #8]
1351:d:/LiteOS_Lab/drivers/third_party/ST/STM32L4xx_HAL_Driver/Src\stm32l4xx_hal_uart.c **** 
1352:d:/LiteOS_Lab/drivers/third_party/ST/STM32L4xx_HAL_Driver/Src\stm32l4xx_hal_uart.c ****     /* Abort the UART DMA Tx channel : use non blocking DMA Abort API (callback) */
1353:d:/LiteOS_Lab/drivers/third_party/ST/STM32L4xx_HAL_Driver/Src\stm32l4xx_hal_uart.c ****     if(huart->hdmatx != NULL)
 2790              		.loc 1 1353 13
 2791 009a 7B68     		ldr	r3, [r7, #4]
 2792 009c 9B6E     		ldr	r3, [r3, #104]
 2793              		.loc 1 1353 7
 2794 009e 002B     		cmp	r3, #0
 2795 00a0 0ED0     		beq	.L133
1354:d:/LiteOS_Lab/drivers/third_party/ST/STM32L4xx_HAL_Driver/Src\stm32l4xx_hal_uart.c ****     {
1355:d:/LiteOS_Lab/drivers/third_party/ST/STM32L4xx_HAL_Driver/Src\stm32l4xx_hal_uart.c ****       /* UART Tx DMA Abort callback has already been initialised : 
1356:d:/LiteOS_Lab/drivers/third_party/ST/STM32L4xx_HAL_Driver/Src\stm32l4xx_hal_uart.c ****          will lead to call HAL_UART_AbortCpltCallback() at end of DMA abort procedure */
1357:d:/LiteOS_Lab/drivers/third_party/ST/STM32L4xx_HAL_Driver/Src\stm32l4xx_hal_uart.c **** 
1358:d:/LiteOS_Lab/drivers/third_party/ST/STM32L4xx_HAL_Driver/Src\stm32l4xx_hal_uart.c ****       /* Abort DMA TX */
1359:d:/LiteOS_Lab/drivers/third_party/ST/STM32L4xx_HAL_Driver/Src\stm32l4xx_hal_uart.c ****       if(HAL_DMA_Abort_IT(huart->hdmatx) != HAL_OK)
 2796              		.loc 1 1359 10
 2797 00a2 7B68     		ldr	r3, [r7, #4]
 2798 00a4 9B6E     		ldr	r3, [r3, #104]
 2799 00a6 1846     		mov	r0, r3
 2800 00a8 FFF7FEFF 		bl	HAL_DMA_Abort_IT
 2801 00ac 0346     		mov	r3, r0
 2802              		.loc 1 1359 9
 2803 00ae 002B     		cmp	r3, #0
 2804 00b0 04D0     		beq	.L134
1360:d:/LiteOS_Lab/drivers/third_party/ST/STM32L4xx_HAL_Driver/Src\stm32l4xx_hal_uart.c ****       {
1361:d:/LiteOS_Lab/drivers/third_party/ST/STM32L4xx_HAL_Driver/Src\stm32l4xx_hal_uart.c ****         huart->hdmatx->XferAbortCallback = NULL;
 2805              		.loc 1 1361 14
 2806 00b2 7B68     		ldr	r3, [r7, #4]
 2807 00b4 9B6E     		ldr	r3, [r3, #104]
 2808              		.loc 1 1361 42
 2809 00b6 0022     		movs	r2, #0
 2810 00b8 9A63     		str	r2, [r3, #56]
 2811 00ba 01E0     		b	.L133
 2812              	.L134:
1362:d:/LiteOS_Lab/drivers/third_party/ST/STM32L4xx_HAL_Driver/Src\stm32l4xx_hal_uart.c ****       }
1363:d:/LiteOS_Lab/drivers/third_party/ST/STM32L4xx_HAL_Driver/Src\stm32l4xx_hal_uart.c ****       else
1364:d:/LiteOS_Lab/drivers/third_party/ST/STM32L4xx_HAL_Driver/Src\stm32l4xx_hal_uart.c ****       {
1365:d:/LiteOS_Lab/drivers/third_party/ST/STM32L4xx_HAL_Driver/Src\stm32l4xx_hal_uart.c ****         abortcplt = 0;
 2813              		.loc 1 1365 19
 2814 00bc 0023     		movs	r3, #0
 2815 00be FB60     		str	r3, [r7, #12]
 2816              	.L133:
1366:d:/LiteOS_Lab/drivers/third_party/ST/STM32L4xx_HAL_Driver/Src\stm32l4xx_hal_uart.c ****       }
1367:d:/LiteOS_Lab/drivers/third_party/ST/STM32L4xx_HAL_Driver/Src\stm32l4xx_hal_uart.c ****     }
1368:d:/LiteOS_Lab/drivers/third_party/ST/STM32L4xx_HAL_Driver/Src\stm32l4xx_hal_uart.c ****   }
1369:d:/LiteOS_Lab/drivers/third_party/ST/STM32L4xx_HAL_Driver/Src\stm32l4xx_hal_uart.c **** 
1370:d:/LiteOS_Lab/drivers/third_party/ST/STM32L4xx_HAL_Driver/Src\stm32l4xx_hal_uart.c ****   /* Disable the UART DMA Rx request if enabled */
1371:d:/LiteOS_Lab/drivers/third_party/ST/STM32L4xx_HAL_Driver/Src\stm32l4xx_hal_uart.c ****   if (HAL_IS_BIT_SET(huart->Instance->CR3, USART_CR3_DMAR))
 2817              		.loc 1 1371 7
 2818 00c0 7B68     		ldr	r3, [r7, #4]
 2819 00c2 1B68     		ldr	r3, [r3]
 2820 00c4 9B68     		ldr	r3, [r3, #8]
 2821 00c6 03F04003 		and	r3, r3, #64
ARM GAS  C:\Users\ADMINI~1\AppData\Local\Temp\ccHDbRvY.s 			page 74


 2822              		.loc 1 1371 6
 2823 00ca 402B     		cmp	r3, #64
 2824 00cc 1CD1     		bne	.L135
1372:d:/LiteOS_Lab/drivers/third_party/ST/STM32L4xx_HAL_Driver/Src\stm32l4xx_hal_uart.c ****   {
1373:d:/LiteOS_Lab/drivers/third_party/ST/STM32L4xx_HAL_Driver/Src\stm32l4xx_hal_uart.c ****     CLEAR_BIT(huart->Instance->CR3, USART_CR3_DMAR);
 2825              		.loc 1 1373 5
 2826 00ce 7B68     		ldr	r3, [r7, #4]
 2827 00d0 1B68     		ldr	r3, [r3]
 2828 00d2 9A68     		ldr	r2, [r3, #8]
 2829 00d4 7B68     		ldr	r3, [r7, #4]
 2830 00d6 1B68     		ldr	r3, [r3]
 2831 00d8 22F04002 		bic	r2, r2, #64
 2832 00dc 9A60     		str	r2, [r3, #8]
1374:d:/LiteOS_Lab/drivers/third_party/ST/STM32L4xx_HAL_Driver/Src\stm32l4xx_hal_uart.c **** 
1375:d:/LiteOS_Lab/drivers/third_party/ST/STM32L4xx_HAL_Driver/Src\stm32l4xx_hal_uart.c ****     /* Abort the UART DMA Rx channel : use non blocking DMA Abort API (callback) */
1376:d:/LiteOS_Lab/drivers/third_party/ST/STM32L4xx_HAL_Driver/Src\stm32l4xx_hal_uart.c ****     if(huart->hdmarx != NULL)
 2833              		.loc 1 1376 13
 2834 00de 7B68     		ldr	r3, [r7, #4]
 2835 00e0 DB6E     		ldr	r3, [r3, #108]
 2836              		.loc 1 1376 7
 2837 00e2 002B     		cmp	r3, #0
 2838 00e4 10D0     		beq	.L135
1377:d:/LiteOS_Lab/drivers/third_party/ST/STM32L4xx_HAL_Driver/Src\stm32l4xx_hal_uart.c ****     {
1378:d:/LiteOS_Lab/drivers/third_party/ST/STM32L4xx_HAL_Driver/Src\stm32l4xx_hal_uart.c ****       /* UART Rx DMA Abort callback has already been initialised : 
1379:d:/LiteOS_Lab/drivers/third_party/ST/STM32L4xx_HAL_Driver/Src\stm32l4xx_hal_uart.c ****          will lead to call HAL_UART_AbortCpltCallback() at end of DMA abort procedure */
1380:d:/LiteOS_Lab/drivers/third_party/ST/STM32L4xx_HAL_Driver/Src\stm32l4xx_hal_uart.c **** 
1381:d:/LiteOS_Lab/drivers/third_party/ST/STM32L4xx_HAL_Driver/Src\stm32l4xx_hal_uart.c ****       /* Abort DMA RX */
1382:d:/LiteOS_Lab/drivers/third_party/ST/STM32L4xx_HAL_Driver/Src\stm32l4xx_hal_uart.c ****       if(HAL_DMA_Abort_IT(huart->hdmarx) != HAL_OK)
 2839              		.loc 1 1382 10
 2840 00e6 7B68     		ldr	r3, [r7, #4]
 2841 00e8 DB6E     		ldr	r3, [r3, #108]
 2842 00ea 1846     		mov	r0, r3
 2843 00ec FFF7FEFF 		bl	HAL_DMA_Abort_IT
 2844 00f0 0346     		mov	r3, r0
 2845              		.loc 1 1382 9
 2846 00f2 002B     		cmp	r3, #0
 2847 00f4 06D0     		beq	.L136
1383:d:/LiteOS_Lab/drivers/third_party/ST/STM32L4xx_HAL_Driver/Src\stm32l4xx_hal_uart.c ****       {
1384:d:/LiteOS_Lab/drivers/third_party/ST/STM32L4xx_HAL_Driver/Src\stm32l4xx_hal_uart.c ****         huart->hdmarx->XferAbortCallback = NULL;
 2848              		.loc 1 1384 14
 2849 00f6 7B68     		ldr	r3, [r7, #4]
 2850 00f8 DB6E     		ldr	r3, [r3, #108]
 2851              		.loc 1 1384 42
 2852 00fa 0022     		movs	r2, #0
 2853 00fc 9A63     		str	r2, [r3, #56]
1385:d:/LiteOS_Lab/drivers/third_party/ST/STM32L4xx_HAL_Driver/Src\stm32l4xx_hal_uart.c ****         abortcplt = 1;
 2854              		.loc 1 1385 19
 2855 00fe 0123     		movs	r3, #1
 2856 0100 FB60     		str	r3, [r7, #12]
 2857 0102 01E0     		b	.L135
 2858              	.L136:
1386:d:/LiteOS_Lab/drivers/third_party/ST/STM32L4xx_HAL_Driver/Src\stm32l4xx_hal_uart.c ****       }
1387:d:/LiteOS_Lab/drivers/third_party/ST/STM32L4xx_HAL_Driver/Src\stm32l4xx_hal_uart.c ****       else
1388:d:/LiteOS_Lab/drivers/third_party/ST/STM32L4xx_HAL_Driver/Src\stm32l4xx_hal_uart.c ****       {
1389:d:/LiteOS_Lab/drivers/third_party/ST/STM32L4xx_HAL_Driver/Src\stm32l4xx_hal_uart.c ****         abortcplt = 0;
 2859              		.loc 1 1389 19
 2860 0104 0023     		movs	r3, #0
ARM GAS  C:\Users\ADMINI~1\AppData\Local\Temp\ccHDbRvY.s 			page 75


 2861 0106 FB60     		str	r3, [r7, #12]
 2862              	.L135:
1390:d:/LiteOS_Lab/drivers/third_party/ST/STM32L4xx_HAL_Driver/Src\stm32l4xx_hal_uart.c ****       }
1391:d:/LiteOS_Lab/drivers/third_party/ST/STM32L4xx_HAL_Driver/Src\stm32l4xx_hal_uart.c ****     }
1392:d:/LiteOS_Lab/drivers/third_party/ST/STM32L4xx_HAL_Driver/Src\stm32l4xx_hal_uart.c ****   }
1393:d:/LiteOS_Lab/drivers/third_party/ST/STM32L4xx_HAL_Driver/Src\stm32l4xx_hal_uart.c **** 
1394:d:/LiteOS_Lab/drivers/third_party/ST/STM32L4xx_HAL_Driver/Src\stm32l4xx_hal_uart.c ****   /* if no DMA abort complete callback execution is required => call user Abort Complete callback *
1395:d:/LiteOS_Lab/drivers/third_party/ST/STM32L4xx_HAL_Driver/Src\stm32l4xx_hal_uart.c ****   if (abortcplt == 1)
 2863              		.loc 1 1395 6
 2864 0108 FB68     		ldr	r3, [r7, #12]
 2865 010a 012B     		cmp	r3, #1
 2866 010c 19D1     		bne	.L137
1396:d:/LiteOS_Lab/drivers/third_party/ST/STM32L4xx_HAL_Driver/Src\stm32l4xx_hal_uart.c ****   {
1397:d:/LiteOS_Lab/drivers/third_party/ST/STM32L4xx_HAL_Driver/Src\stm32l4xx_hal_uart.c ****     /* Reset Tx and Rx transfer counters */
1398:d:/LiteOS_Lab/drivers/third_party/ST/STM32L4xx_HAL_Driver/Src\stm32l4xx_hal_uart.c ****     huart->TxXferCount = 0; 
 2867              		.loc 1 1398 24
 2868 010e 7B68     		ldr	r3, [r7, #4]
 2869 0110 0022     		movs	r2, #0
 2870 0112 A3F85220 		strh	r2, [r3, #82]	@ movhi
1399:d:/LiteOS_Lab/drivers/third_party/ST/STM32L4xx_HAL_Driver/Src\stm32l4xx_hal_uart.c ****     huart->RxXferCount = 0;
 2871              		.loc 1 1399 24
 2872 0116 7B68     		ldr	r3, [r7, #4]
 2873 0118 0022     		movs	r2, #0
 2874 011a A3F85A20 		strh	r2, [r3, #90]	@ movhi
1400:d:/LiteOS_Lab/drivers/third_party/ST/STM32L4xx_HAL_Driver/Src\stm32l4xx_hal_uart.c **** 
1401:d:/LiteOS_Lab/drivers/third_party/ST/STM32L4xx_HAL_Driver/Src\stm32l4xx_hal_uart.c ****     /* Reset errorCode */
1402:d:/LiteOS_Lab/drivers/third_party/ST/STM32L4xx_HAL_Driver/Src\stm32l4xx_hal_uart.c ****     huart->ErrorCode = HAL_UART_ERROR_NONE;
 2875              		.loc 1 1402 22
 2876 011e 7B68     		ldr	r3, [r7, #4]
 2877 0120 0022     		movs	r2, #0
 2878 0122 5A67     		str	r2, [r3, #116]
1403:d:/LiteOS_Lab/drivers/third_party/ST/STM32L4xx_HAL_Driver/Src\stm32l4xx_hal_uart.c **** 
1404:d:/LiteOS_Lab/drivers/third_party/ST/STM32L4xx_HAL_Driver/Src\stm32l4xx_hal_uart.c ****     /* Clear the Error flags in the ICR register */
1405:d:/LiteOS_Lab/drivers/third_party/ST/STM32L4xx_HAL_Driver/Src\stm32l4xx_hal_uart.c ****     __HAL_UART_CLEAR_FLAG(huart, UART_CLEAR_OREF | UART_CLEAR_NEF | UART_CLEAR_PEF | UART_CLEAR_FEF
 2879              		.loc 1 1405 5
 2880 0124 7B68     		ldr	r3, [r7, #4]
 2881 0126 1B68     		ldr	r3, [r3]
 2882 0128 0F22     		movs	r2, #15
 2883 012a 1A62     		str	r2, [r3, #32]
1406:d:/LiteOS_Lab/drivers/third_party/ST/STM32L4xx_HAL_Driver/Src\stm32l4xx_hal_uart.c **** 
1407:d:/LiteOS_Lab/drivers/third_party/ST/STM32L4xx_HAL_Driver/Src\stm32l4xx_hal_uart.c ****     /* Restore huart->gState and huart->RxState to Ready */
1408:d:/LiteOS_Lab/drivers/third_party/ST/STM32L4xx_HAL_Driver/Src\stm32l4xx_hal_uart.c ****     huart->gState  = HAL_UART_STATE_READY;
 2884              		.loc 1 1408 20
 2885 012c 7B68     		ldr	r3, [r7, #4]
 2886 012e 2022     		movs	r2, #32
 2887 0130 83F87120 		strb	r2, [r3, #113]
1409:d:/LiteOS_Lab/drivers/third_party/ST/STM32L4xx_HAL_Driver/Src\stm32l4xx_hal_uart.c ****     huart->RxState = HAL_UART_STATE_READY;
 2888              		.loc 1 1409 20
 2889 0134 7B68     		ldr	r3, [r7, #4]
 2890 0136 2022     		movs	r2, #32
 2891 0138 83F87220 		strb	r2, [r3, #114]
1410:d:/LiteOS_Lab/drivers/third_party/ST/STM32L4xx_HAL_Driver/Src\stm32l4xx_hal_uart.c **** 
1411:d:/LiteOS_Lab/drivers/third_party/ST/STM32L4xx_HAL_Driver/Src\stm32l4xx_hal_uart.c ****     /* As no DMA to be aborted, call directly user Abort complete callback */
1412:d:/LiteOS_Lab/drivers/third_party/ST/STM32L4xx_HAL_Driver/Src\stm32l4xx_hal_uart.c ****     HAL_UART_AbortCpltCallback(huart);
 2892              		.loc 1 1412 5
 2893 013c 7868     		ldr	r0, [r7, #4]
 2894 013e FFF7FEFF 		bl	HAL_UART_AbortCpltCallback
ARM GAS  C:\Users\ADMINI~1\AppData\Local\Temp\ccHDbRvY.s 			page 76


 2895              	.L137:
1413:d:/LiteOS_Lab/drivers/third_party/ST/STM32L4xx_HAL_Driver/Src\stm32l4xx_hal_uart.c ****   }
1414:d:/LiteOS_Lab/drivers/third_party/ST/STM32L4xx_HAL_Driver/Src\stm32l4xx_hal_uart.c **** 
1415:d:/LiteOS_Lab/drivers/third_party/ST/STM32L4xx_HAL_Driver/Src\stm32l4xx_hal_uart.c ****   return HAL_OK;
 2896              		.loc 1 1415 10
 2897 0142 0023     		movs	r3, #0
1416:d:/LiteOS_Lab/drivers/third_party/ST/STM32L4xx_HAL_Driver/Src\stm32l4xx_hal_uart.c **** }
 2898              		.loc 1 1416 1
 2899 0144 1846     		mov	r0, r3
 2900 0146 1037     		adds	r7, r7, #16
 2901              	.LCFI104:
 2902              		.cfi_def_cfa_offset 8
 2903 0148 BD46     		mov	sp, r7
 2904              	.LCFI105:
 2905              		.cfi_def_cfa_register 13
 2906              		@ sp needed
 2907 014a 80BD     		pop	{r7, pc}
 2908              	.L140:
 2909              		.align	2
 2910              	.L139:
 2911 014c 00000000 		.word	UART_DMATxAbortCallback
 2912 0150 00000000 		.word	UART_DMARxAbortCallback
 2913              		.cfi_endproc
 2914              	.LFE306:
 2916              		.section	.text.HAL_UART_AbortTransmit_IT,"ax",%progbits
 2917              		.align	1
 2918              		.global	HAL_UART_AbortTransmit_IT
 2919              		.syntax unified
 2920              		.thumb
 2921              		.thumb_func
 2922              		.fpu fpv4-sp-d16
 2924              	HAL_UART_AbortTransmit_IT:
 2925              	.LFB307:
1417:d:/LiteOS_Lab/drivers/third_party/ST/STM32L4xx_HAL_Driver/Src\stm32l4xx_hal_uart.c **** 
1418:d:/LiteOS_Lab/drivers/third_party/ST/STM32L4xx_HAL_Driver/Src\stm32l4xx_hal_uart.c **** /**
1419:d:/LiteOS_Lab/drivers/third_party/ST/STM32L4xx_HAL_Driver/Src\stm32l4xx_hal_uart.c ****   * @brief  Abort ongoing Transmit transfer (Interrupt mode).
1420:d:/LiteOS_Lab/drivers/third_party/ST/STM32L4xx_HAL_Driver/Src\stm32l4xx_hal_uart.c ****   * @param  huart UART handle.
1421:d:/LiteOS_Lab/drivers/third_party/ST/STM32L4xx_HAL_Driver/Src\stm32l4xx_hal_uart.c ****   * @note   This procedure could be used for aborting any ongoing Tx transfer started in Interrupt 
1422:d:/LiteOS_Lab/drivers/third_party/ST/STM32L4xx_HAL_Driver/Src\stm32l4xx_hal_uart.c ****   *         This procedure performs following operations :
1423:d:/LiteOS_Lab/drivers/third_party/ST/STM32L4xx_HAL_Driver/Src\stm32l4xx_hal_uart.c ****   *           - Disable UART Interrupts (Tx)
1424:d:/LiteOS_Lab/drivers/third_party/ST/STM32L4xx_HAL_Driver/Src\stm32l4xx_hal_uart.c ****   *           - Disable the DMA transfer in the peripheral register (if enabled)
1425:d:/LiteOS_Lab/drivers/third_party/ST/STM32L4xx_HAL_Driver/Src\stm32l4xx_hal_uart.c ****   *           - Abort DMA transfer by calling HAL_DMA_Abort_IT (in case of transfer in DMA mode)
1426:d:/LiteOS_Lab/drivers/third_party/ST/STM32L4xx_HAL_Driver/Src\stm32l4xx_hal_uart.c ****   *           - Set handle State to READY
1427:d:/LiteOS_Lab/drivers/third_party/ST/STM32L4xx_HAL_Driver/Src\stm32l4xx_hal_uart.c ****   *           - At abort completion, call user abort complete callback
1428:d:/LiteOS_Lab/drivers/third_party/ST/STM32L4xx_HAL_Driver/Src\stm32l4xx_hal_uart.c ****   * @note   This procedure is executed in Interrupt mode, meaning that abort procedure could be
1429:d:/LiteOS_Lab/drivers/third_party/ST/STM32L4xx_HAL_Driver/Src\stm32l4xx_hal_uart.c ****   *         considered as completed only when user abort complete callback is executed (not when ex
1430:d:/LiteOS_Lab/drivers/third_party/ST/STM32L4xx_HAL_Driver/Src\stm32l4xx_hal_uart.c ****   * @retval HAL status
1431:d:/LiteOS_Lab/drivers/third_party/ST/STM32L4xx_HAL_Driver/Src\stm32l4xx_hal_uart.c **** */
1432:d:/LiteOS_Lab/drivers/third_party/ST/STM32L4xx_HAL_Driver/Src\stm32l4xx_hal_uart.c **** HAL_StatusTypeDef HAL_UART_AbortTransmit_IT(UART_HandleTypeDef *huart)
1433:d:/LiteOS_Lab/drivers/third_party/ST/STM32L4xx_HAL_Driver/Src\stm32l4xx_hal_uart.c **** {
 2926              		.loc 1 1433 1
 2927              		.cfi_startproc
 2928              		@ args = 0, pretend = 0, frame = 8
 2929              		@ frame_needed = 1, uses_anonymous_args = 0
 2930 0000 80B5     		push	{r7, lr}
 2931              	.LCFI106:
 2932              		.cfi_def_cfa_offset 8
ARM GAS  C:\Users\ADMINI~1\AppData\Local\Temp\ccHDbRvY.s 			page 77


 2933              		.cfi_offset 7, -8
 2934              		.cfi_offset 14, -4
 2935 0002 82B0     		sub	sp, sp, #8
 2936              	.LCFI107:
 2937              		.cfi_def_cfa_offset 16
 2938 0004 00AF     		add	r7, sp, #0
 2939              	.LCFI108:
 2940              		.cfi_def_cfa_register 7
 2941 0006 7860     		str	r0, [r7, #4]
1434:d:/LiteOS_Lab/drivers/third_party/ST/STM32L4xx_HAL_Driver/Src\stm32l4xx_hal_uart.c ****   /* Disable TXEIE and TCIE interrupts */
1435:d:/LiteOS_Lab/drivers/third_party/ST/STM32L4xx_HAL_Driver/Src\stm32l4xx_hal_uart.c ****   CLEAR_BIT(huart->Instance->CR1, (USART_CR1_TXEIE | USART_CR1_TCIE));
 2942              		.loc 1 1435 3
 2943 0008 7B68     		ldr	r3, [r7, #4]
 2944 000a 1B68     		ldr	r3, [r3]
 2945 000c 1A68     		ldr	r2, [r3]
 2946 000e 7B68     		ldr	r3, [r7, #4]
 2947 0010 1B68     		ldr	r3, [r3]
 2948 0012 22F0C002 		bic	r2, r2, #192
 2949 0016 1A60     		str	r2, [r3]
1436:d:/LiteOS_Lab/drivers/third_party/ST/STM32L4xx_HAL_Driver/Src\stm32l4xx_hal_uart.c **** 
1437:d:/LiteOS_Lab/drivers/third_party/ST/STM32L4xx_HAL_Driver/Src\stm32l4xx_hal_uart.c ****   /* Disable the UART DMA Tx request if enabled */
1438:d:/LiteOS_Lab/drivers/third_party/ST/STM32L4xx_HAL_Driver/Src\stm32l4xx_hal_uart.c ****   if (HAL_IS_BIT_SET(huart->Instance->CR3, USART_CR3_DMAT))
 2950              		.loc 1 1438 7
 2951 0018 7B68     		ldr	r3, [r7, #4]
 2952 001a 1B68     		ldr	r3, [r3]
 2953 001c 9B68     		ldr	r3, [r3, #8]
 2954 001e 03F08003 		and	r3, r3, #128
 2955              		.loc 1 1438 6
 2956 0022 802B     		cmp	r3, #128
 2957 0024 2BD1     		bne	.L142
1439:d:/LiteOS_Lab/drivers/third_party/ST/STM32L4xx_HAL_Driver/Src\stm32l4xx_hal_uart.c ****   {
1440:d:/LiteOS_Lab/drivers/third_party/ST/STM32L4xx_HAL_Driver/Src\stm32l4xx_hal_uart.c ****     CLEAR_BIT(huart->Instance->CR3, USART_CR3_DMAT);
 2958              		.loc 1 1440 5
 2959 0026 7B68     		ldr	r3, [r7, #4]
 2960 0028 1B68     		ldr	r3, [r3]
 2961 002a 9A68     		ldr	r2, [r3, #8]
 2962 002c 7B68     		ldr	r3, [r7, #4]
 2963 002e 1B68     		ldr	r3, [r3]
 2964 0030 22F08002 		bic	r2, r2, #128
 2965 0034 9A60     		str	r2, [r3, #8]
1441:d:/LiteOS_Lab/drivers/third_party/ST/STM32L4xx_HAL_Driver/Src\stm32l4xx_hal_uart.c **** 
1442:d:/LiteOS_Lab/drivers/third_party/ST/STM32L4xx_HAL_Driver/Src\stm32l4xx_hal_uart.c ****     /* Abort the UART DMA Tx channel : use non blocking DMA Abort API (callback) */
1443:d:/LiteOS_Lab/drivers/third_party/ST/STM32L4xx_HAL_Driver/Src\stm32l4xx_hal_uart.c ****     if(huart->hdmatx != NULL)
 2966              		.loc 1 1443 13
 2967 0036 7B68     		ldr	r3, [r7, #4]
 2968 0038 9B6E     		ldr	r3, [r3, #104]
 2969              		.loc 1 1443 7
 2970 003a 002B     		cmp	r3, #0
 2971 003c 13D0     		beq	.L143
1444:d:/LiteOS_Lab/drivers/third_party/ST/STM32L4xx_HAL_Driver/Src\stm32l4xx_hal_uart.c ****     {
1445:d:/LiteOS_Lab/drivers/third_party/ST/STM32L4xx_HAL_Driver/Src\stm32l4xx_hal_uart.c ****       /* Set the UART DMA Abort callback : 
1446:d:/LiteOS_Lab/drivers/third_party/ST/STM32L4xx_HAL_Driver/Src\stm32l4xx_hal_uart.c ****          will lead to call HAL_UART_AbortCpltCallback() at end of DMA abort procedure */
1447:d:/LiteOS_Lab/drivers/third_party/ST/STM32L4xx_HAL_Driver/Src\stm32l4xx_hal_uart.c ****       huart->hdmatx->XferAbortCallback = UART_DMATxOnlyAbortCallback;
 2972              		.loc 1 1447 12
 2973 003e 7B68     		ldr	r3, [r7, #4]
 2974 0040 9B6E     		ldr	r3, [r3, #104]
 2975              		.loc 1 1447 40
ARM GAS  C:\Users\ADMINI~1\AppData\Local\Temp\ccHDbRvY.s 			page 78


 2976 0042 174A     		ldr	r2, .L146
 2977 0044 9A63     		str	r2, [r3, #56]
1448:d:/LiteOS_Lab/drivers/third_party/ST/STM32L4xx_HAL_Driver/Src\stm32l4xx_hal_uart.c **** 
1449:d:/LiteOS_Lab/drivers/third_party/ST/STM32L4xx_HAL_Driver/Src\stm32l4xx_hal_uart.c ****       /* Abort DMA TX */
1450:d:/LiteOS_Lab/drivers/third_party/ST/STM32L4xx_HAL_Driver/Src\stm32l4xx_hal_uart.c ****       if(HAL_DMA_Abort_IT(huart->hdmatx) != HAL_OK)
 2978              		.loc 1 1450 10
 2979 0046 7B68     		ldr	r3, [r7, #4]
 2980 0048 9B6E     		ldr	r3, [r3, #104]
 2981 004a 1846     		mov	r0, r3
 2982 004c FFF7FEFF 		bl	HAL_DMA_Abort_IT
 2983 0050 0346     		mov	r3, r0
 2984              		.loc 1 1450 9
 2985 0052 002B     		cmp	r3, #0
 2986 0054 1ED0     		beq	.L144
1451:d:/LiteOS_Lab/drivers/third_party/ST/STM32L4xx_HAL_Driver/Src\stm32l4xx_hal_uart.c ****       {
1452:d:/LiteOS_Lab/drivers/third_party/ST/STM32L4xx_HAL_Driver/Src\stm32l4xx_hal_uart.c ****         /* Call Directly huart->hdmatx->XferAbortCallback function in case of error */
1453:d:/LiteOS_Lab/drivers/third_party/ST/STM32L4xx_HAL_Driver/Src\stm32l4xx_hal_uart.c ****         huart->hdmatx->XferAbortCallback(huart->hdmatx);
 2987              		.loc 1 1453 14
 2988 0056 7B68     		ldr	r3, [r7, #4]
 2989 0058 9B6E     		ldr	r3, [r3, #104]
 2990              		.loc 1 1453 22
 2991 005a 9B6B     		ldr	r3, [r3, #56]
 2992              		.loc 1 1453 47
 2993 005c 7A68     		ldr	r2, [r7, #4]
 2994 005e 926E     		ldr	r2, [r2, #104]
 2995              		.loc 1 1453 9
 2996 0060 1046     		mov	r0, r2
 2997 0062 9847     		blx	r3
 2998              	.LVL0:
 2999 0064 16E0     		b	.L144
 3000              	.L143:
1454:d:/LiteOS_Lab/drivers/third_party/ST/STM32L4xx_HAL_Driver/Src\stm32l4xx_hal_uart.c ****       }
1455:d:/LiteOS_Lab/drivers/third_party/ST/STM32L4xx_HAL_Driver/Src\stm32l4xx_hal_uart.c ****     }
1456:d:/LiteOS_Lab/drivers/third_party/ST/STM32L4xx_HAL_Driver/Src\stm32l4xx_hal_uart.c ****     else
1457:d:/LiteOS_Lab/drivers/third_party/ST/STM32L4xx_HAL_Driver/Src\stm32l4xx_hal_uart.c ****     {
1458:d:/LiteOS_Lab/drivers/third_party/ST/STM32L4xx_HAL_Driver/Src\stm32l4xx_hal_uart.c ****       /* Reset Tx transfer counter */
1459:d:/LiteOS_Lab/drivers/third_party/ST/STM32L4xx_HAL_Driver/Src\stm32l4xx_hal_uart.c ****       huart->TxXferCount = 0; 
 3001              		.loc 1 1459 26
 3002 0066 7B68     		ldr	r3, [r7, #4]
 3003 0068 0022     		movs	r2, #0
 3004 006a A3F85220 		strh	r2, [r3, #82]	@ movhi
1460:d:/LiteOS_Lab/drivers/third_party/ST/STM32L4xx_HAL_Driver/Src\stm32l4xx_hal_uart.c **** 
1461:d:/LiteOS_Lab/drivers/third_party/ST/STM32L4xx_HAL_Driver/Src\stm32l4xx_hal_uart.c ****       /* Restore huart->gState to Ready */
1462:d:/LiteOS_Lab/drivers/third_party/ST/STM32L4xx_HAL_Driver/Src\stm32l4xx_hal_uart.c ****       huart->gState = HAL_UART_STATE_READY;
 3005              		.loc 1 1462 21
 3006 006e 7B68     		ldr	r3, [r7, #4]
 3007 0070 2022     		movs	r2, #32
 3008 0072 83F87120 		strb	r2, [r3, #113]
1463:d:/LiteOS_Lab/drivers/third_party/ST/STM32L4xx_HAL_Driver/Src\stm32l4xx_hal_uart.c **** 
1464:d:/LiteOS_Lab/drivers/third_party/ST/STM32L4xx_HAL_Driver/Src\stm32l4xx_hal_uart.c ****       /* As no DMA to be aborted, call directly user Abort complete callback */
1465:d:/LiteOS_Lab/drivers/third_party/ST/STM32L4xx_HAL_Driver/Src\stm32l4xx_hal_uart.c ****       HAL_UART_AbortTransmitCpltCallback(huart);
 3009              		.loc 1 1465 7
 3010 0076 7868     		ldr	r0, [r7, #4]
 3011 0078 FFF7FEFF 		bl	HAL_UART_AbortTransmitCpltCallback
 3012 007c 0AE0     		b	.L144
 3013              	.L142:
1466:d:/LiteOS_Lab/drivers/third_party/ST/STM32L4xx_HAL_Driver/Src\stm32l4xx_hal_uart.c ****     }
ARM GAS  C:\Users\ADMINI~1\AppData\Local\Temp\ccHDbRvY.s 			page 79


1467:d:/LiteOS_Lab/drivers/third_party/ST/STM32L4xx_HAL_Driver/Src\stm32l4xx_hal_uart.c ****   }
1468:d:/LiteOS_Lab/drivers/third_party/ST/STM32L4xx_HAL_Driver/Src\stm32l4xx_hal_uart.c ****   else
1469:d:/LiteOS_Lab/drivers/third_party/ST/STM32L4xx_HAL_Driver/Src\stm32l4xx_hal_uart.c ****   {
1470:d:/LiteOS_Lab/drivers/third_party/ST/STM32L4xx_HAL_Driver/Src\stm32l4xx_hal_uart.c ****     /* Reset Tx transfer counter */
1471:d:/LiteOS_Lab/drivers/third_party/ST/STM32L4xx_HAL_Driver/Src\stm32l4xx_hal_uart.c ****     huart->TxXferCount = 0; 
 3014              		.loc 1 1471 24
 3015 007e 7B68     		ldr	r3, [r7, #4]
 3016 0080 0022     		movs	r2, #0
 3017 0082 A3F85220 		strh	r2, [r3, #82]	@ movhi
1472:d:/LiteOS_Lab/drivers/third_party/ST/STM32L4xx_HAL_Driver/Src\stm32l4xx_hal_uart.c **** 
1473:d:/LiteOS_Lab/drivers/third_party/ST/STM32L4xx_HAL_Driver/Src\stm32l4xx_hal_uart.c ****     /* Restore huart->gState to Ready */
1474:d:/LiteOS_Lab/drivers/third_party/ST/STM32L4xx_HAL_Driver/Src\stm32l4xx_hal_uart.c ****     huart->gState = HAL_UART_STATE_READY;
 3018              		.loc 1 1474 19
 3019 0086 7B68     		ldr	r3, [r7, #4]
 3020 0088 2022     		movs	r2, #32
 3021 008a 83F87120 		strb	r2, [r3, #113]
1475:d:/LiteOS_Lab/drivers/third_party/ST/STM32L4xx_HAL_Driver/Src\stm32l4xx_hal_uart.c **** 
1476:d:/LiteOS_Lab/drivers/third_party/ST/STM32L4xx_HAL_Driver/Src\stm32l4xx_hal_uart.c ****     /* As no DMA to be aborted, call directly user Abort complete callback */
1477:d:/LiteOS_Lab/drivers/third_party/ST/STM32L4xx_HAL_Driver/Src\stm32l4xx_hal_uart.c ****     HAL_UART_AbortTransmitCpltCallback(huart);
 3022              		.loc 1 1477 5
 3023 008e 7868     		ldr	r0, [r7, #4]
 3024 0090 FFF7FEFF 		bl	HAL_UART_AbortTransmitCpltCallback
 3025              	.L144:
1478:d:/LiteOS_Lab/drivers/third_party/ST/STM32L4xx_HAL_Driver/Src\stm32l4xx_hal_uart.c ****   }
1479:d:/LiteOS_Lab/drivers/third_party/ST/STM32L4xx_HAL_Driver/Src\stm32l4xx_hal_uart.c **** 
1480:d:/LiteOS_Lab/drivers/third_party/ST/STM32L4xx_HAL_Driver/Src\stm32l4xx_hal_uart.c ****   return HAL_OK;
 3026              		.loc 1 1480 10
 3027 0094 0023     		movs	r3, #0
1481:d:/LiteOS_Lab/drivers/third_party/ST/STM32L4xx_HAL_Driver/Src\stm32l4xx_hal_uart.c **** }
 3028              		.loc 1 1481 1
 3029 0096 1846     		mov	r0, r3
 3030 0098 0837     		adds	r7, r7, #8
 3031              	.LCFI109:
 3032              		.cfi_def_cfa_offset 8
 3033 009a BD46     		mov	sp, r7
 3034              	.LCFI110:
 3035              		.cfi_def_cfa_register 13
 3036              		@ sp needed
 3037 009c 80BD     		pop	{r7, pc}
 3038              	.L147:
 3039 009e 00BF     		.align	2
 3040              	.L146:
 3041 00a0 00000000 		.word	UART_DMATxOnlyAbortCallback
 3042              		.cfi_endproc
 3043              	.LFE307:
 3045              		.section	.text.HAL_UART_AbortReceive_IT,"ax",%progbits
 3046              		.align	1
 3047              		.global	HAL_UART_AbortReceive_IT
 3048              		.syntax unified
 3049              		.thumb
 3050              		.thumb_func
 3051              		.fpu fpv4-sp-d16
 3053              	HAL_UART_AbortReceive_IT:
 3054              	.LFB308:
1482:d:/LiteOS_Lab/drivers/third_party/ST/STM32L4xx_HAL_Driver/Src\stm32l4xx_hal_uart.c **** 
1483:d:/LiteOS_Lab/drivers/third_party/ST/STM32L4xx_HAL_Driver/Src\stm32l4xx_hal_uart.c **** /**
1484:d:/LiteOS_Lab/drivers/third_party/ST/STM32L4xx_HAL_Driver/Src\stm32l4xx_hal_uart.c ****   * @brief  Abort ongoing Receive transfer (Interrupt mode).
ARM GAS  C:\Users\ADMINI~1\AppData\Local\Temp\ccHDbRvY.s 			page 80


1485:d:/LiteOS_Lab/drivers/third_party/ST/STM32L4xx_HAL_Driver/Src\stm32l4xx_hal_uart.c ****   * @param  huart UART handle.
1486:d:/LiteOS_Lab/drivers/third_party/ST/STM32L4xx_HAL_Driver/Src\stm32l4xx_hal_uart.c ****   * @note   This procedure could be used for aborting any ongoing Rx transfer started in Interrupt 
1487:d:/LiteOS_Lab/drivers/third_party/ST/STM32L4xx_HAL_Driver/Src\stm32l4xx_hal_uart.c ****   *         This procedure performs following operations :
1488:d:/LiteOS_Lab/drivers/third_party/ST/STM32L4xx_HAL_Driver/Src\stm32l4xx_hal_uart.c ****   *           - Disable UART Interrupts (Rx)
1489:d:/LiteOS_Lab/drivers/third_party/ST/STM32L4xx_HAL_Driver/Src\stm32l4xx_hal_uart.c ****   *           - Disable the DMA transfer in the peripheral register (if enabled)
1490:d:/LiteOS_Lab/drivers/third_party/ST/STM32L4xx_HAL_Driver/Src\stm32l4xx_hal_uart.c ****   *           - Abort DMA transfer by calling HAL_DMA_Abort_IT (in case of transfer in DMA mode)
1491:d:/LiteOS_Lab/drivers/third_party/ST/STM32L4xx_HAL_Driver/Src\stm32l4xx_hal_uart.c ****   *           - Set handle State to READY
1492:d:/LiteOS_Lab/drivers/third_party/ST/STM32L4xx_HAL_Driver/Src\stm32l4xx_hal_uart.c ****   *           - At abort completion, call user abort complete callback
1493:d:/LiteOS_Lab/drivers/third_party/ST/STM32L4xx_HAL_Driver/Src\stm32l4xx_hal_uart.c ****   * @note   This procedure is executed in Interrupt mode, meaning that abort procedure could be
1494:d:/LiteOS_Lab/drivers/third_party/ST/STM32L4xx_HAL_Driver/Src\stm32l4xx_hal_uart.c ****   *         considered as completed only when user abort complete callback is executed (not when ex
1495:d:/LiteOS_Lab/drivers/third_party/ST/STM32L4xx_HAL_Driver/Src\stm32l4xx_hal_uart.c ****   * @retval HAL status
1496:d:/LiteOS_Lab/drivers/third_party/ST/STM32L4xx_HAL_Driver/Src\stm32l4xx_hal_uart.c **** */
1497:d:/LiteOS_Lab/drivers/third_party/ST/STM32L4xx_HAL_Driver/Src\stm32l4xx_hal_uart.c **** HAL_StatusTypeDef HAL_UART_AbortReceive_IT(UART_HandleTypeDef *huart)
1498:d:/LiteOS_Lab/drivers/third_party/ST/STM32L4xx_HAL_Driver/Src\stm32l4xx_hal_uart.c **** {
 3055              		.loc 1 1498 1
 3056              		.cfi_startproc
 3057              		@ args = 0, pretend = 0, frame = 8
 3058              		@ frame_needed = 1, uses_anonymous_args = 0
 3059 0000 80B5     		push	{r7, lr}
 3060              	.LCFI111:
 3061              		.cfi_def_cfa_offset 8
 3062              		.cfi_offset 7, -8
 3063              		.cfi_offset 14, -4
 3064 0002 82B0     		sub	sp, sp, #8
 3065              	.LCFI112:
 3066              		.cfi_def_cfa_offset 16
 3067 0004 00AF     		add	r7, sp, #0
 3068              	.LCFI113:
 3069              		.cfi_def_cfa_register 7
 3070 0006 7860     		str	r0, [r7, #4]
1499:d:/LiteOS_Lab/drivers/third_party/ST/STM32L4xx_HAL_Driver/Src\stm32l4xx_hal_uart.c ****   /* Disable RXNE, PE and ERR (Frame error, noise error, overrun error) interrupts */
1500:d:/LiteOS_Lab/drivers/third_party/ST/STM32L4xx_HAL_Driver/Src\stm32l4xx_hal_uart.c ****   CLEAR_BIT(huart->Instance->CR1, (USART_CR1_RXNEIE | USART_CR1_PEIE));
 3071              		.loc 1 1500 3
 3072 0008 7B68     		ldr	r3, [r7, #4]
 3073 000a 1B68     		ldr	r3, [r3]
 3074 000c 1A68     		ldr	r2, [r3]
 3075 000e 7B68     		ldr	r3, [r7, #4]
 3076 0010 1B68     		ldr	r3, [r3]
 3077 0012 22F49072 		bic	r2, r2, #288
 3078 0016 1A60     		str	r2, [r3]
1501:d:/LiteOS_Lab/drivers/third_party/ST/STM32L4xx_HAL_Driver/Src\stm32l4xx_hal_uart.c ****   CLEAR_BIT(huart->Instance->CR3, USART_CR3_EIE);
 3079              		.loc 1 1501 3
 3080 0018 7B68     		ldr	r3, [r7, #4]
 3081 001a 1B68     		ldr	r3, [r3]
 3082 001c 9A68     		ldr	r2, [r3, #8]
 3083 001e 7B68     		ldr	r3, [r7, #4]
 3084 0020 1B68     		ldr	r3, [r3]
 3085 0022 22F00102 		bic	r2, r2, #1
 3086 0026 9A60     		str	r2, [r3, #8]
1502:d:/LiteOS_Lab/drivers/third_party/ST/STM32L4xx_HAL_Driver/Src\stm32l4xx_hal_uart.c **** 
1503:d:/LiteOS_Lab/drivers/third_party/ST/STM32L4xx_HAL_Driver/Src\stm32l4xx_hal_uart.c ****   /* Disable the UART DMA Rx request if enabled */
1504:d:/LiteOS_Lab/drivers/third_party/ST/STM32L4xx_HAL_Driver/Src\stm32l4xx_hal_uart.c ****   if (HAL_IS_BIT_SET(huart->Instance->CR3, USART_CR3_DMAR))
 3087              		.loc 1 1504 7
 3088 0028 7B68     		ldr	r3, [r7, #4]
 3089 002a 1B68     		ldr	r3, [r3]
 3090 002c 9B68     		ldr	r3, [r3, #8]
 3091 002e 03F04003 		and	r3, r3, #64
ARM GAS  C:\Users\ADMINI~1\AppData\Local\Temp\ccHDbRvY.s 			page 81


 3092              		.loc 1 1504 6
 3093 0032 402B     		cmp	r3, #64
 3094 0034 2FD1     		bne	.L149
1505:d:/LiteOS_Lab/drivers/third_party/ST/STM32L4xx_HAL_Driver/Src\stm32l4xx_hal_uart.c ****   {
1506:d:/LiteOS_Lab/drivers/third_party/ST/STM32L4xx_HAL_Driver/Src\stm32l4xx_hal_uart.c ****     CLEAR_BIT(huart->Instance->CR3, USART_CR3_DMAR);
 3095              		.loc 1 1506 5
 3096 0036 7B68     		ldr	r3, [r7, #4]
 3097 0038 1B68     		ldr	r3, [r3]
 3098 003a 9A68     		ldr	r2, [r3, #8]
 3099 003c 7B68     		ldr	r3, [r7, #4]
 3100 003e 1B68     		ldr	r3, [r3]
 3101 0040 22F04002 		bic	r2, r2, #64
 3102 0044 9A60     		str	r2, [r3, #8]
1507:d:/LiteOS_Lab/drivers/third_party/ST/STM32L4xx_HAL_Driver/Src\stm32l4xx_hal_uart.c **** 
1508:d:/LiteOS_Lab/drivers/third_party/ST/STM32L4xx_HAL_Driver/Src\stm32l4xx_hal_uart.c ****     /* Abort the UART DMA Rx channel : use non blocking DMA Abort API (callback) */
1509:d:/LiteOS_Lab/drivers/third_party/ST/STM32L4xx_HAL_Driver/Src\stm32l4xx_hal_uart.c ****     if(huart->hdmarx != NULL)
 3103              		.loc 1 1509 13
 3104 0046 7B68     		ldr	r3, [r7, #4]
 3105 0048 DB6E     		ldr	r3, [r3, #108]
 3106              		.loc 1 1509 7
 3107 004a 002B     		cmp	r3, #0
 3108 004c 13D0     		beq	.L150
1510:d:/LiteOS_Lab/drivers/third_party/ST/STM32L4xx_HAL_Driver/Src\stm32l4xx_hal_uart.c ****     {
1511:d:/LiteOS_Lab/drivers/third_party/ST/STM32L4xx_HAL_Driver/Src\stm32l4xx_hal_uart.c ****       /* Set the UART DMA Abort callback : 
1512:d:/LiteOS_Lab/drivers/third_party/ST/STM32L4xx_HAL_Driver/Src\stm32l4xx_hal_uart.c ****          will lead to call HAL_UART_AbortCpltCallback() at end of DMA abort procedure */
1513:d:/LiteOS_Lab/drivers/third_party/ST/STM32L4xx_HAL_Driver/Src\stm32l4xx_hal_uart.c ****       huart->hdmarx->XferAbortCallback = UART_DMARxOnlyAbortCallback;
 3109              		.loc 1 1513 12
 3110 004e 7B68     		ldr	r3, [r7, #4]
 3111 0050 DB6E     		ldr	r3, [r3, #108]
 3112              		.loc 1 1513 40
 3113 0052 1B4A     		ldr	r2, .L153
 3114 0054 9A63     		str	r2, [r3, #56]
1514:d:/LiteOS_Lab/drivers/third_party/ST/STM32L4xx_HAL_Driver/Src\stm32l4xx_hal_uart.c **** 
1515:d:/LiteOS_Lab/drivers/third_party/ST/STM32L4xx_HAL_Driver/Src\stm32l4xx_hal_uart.c ****       /* Abort DMA RX */
1516:d:/LiteOS_Lab/drivers/third_party/ST/STM32L4xx_HAL_Driver/Src\stm32l4xx_hal_uart.c ****       if(HAL_DMA_Abort_IT(huart->hdmarx) != HAL_OK)
 3115              		.loc 1 1516 10
 3116 0056 7B68     		ldr	r3, [r7, #4]
 3117 0058 DB6E     		ldr	r3, [r3, #108]
 3118 005a 1846     		mov	r0, r3
 3119 005c FFF7FEFF 		bl	HAL_DMA_Abort_IT
 3120 0060 0346     		mov	r3, r0
 3121              		.loc 1 1516 9
 3122 0062 002B     		cmp	r3, #0
 3123 0064 26D0     		beq	.L151
1517:d:/LiteOS_Lab/drivers/third_party/ST/STM32L4xx_HAL_Driver/Src\stm32l4xx_hal_uart.c ****       {
1518:d:/LiteOS_Lab/drivers/third_party/ST/STM32L4xx_HAL_Driver/Src\stm32l4xx_hal_uart.c ****         /* Call Directly huart->hdmarx->XferAbortCallback function in case of error */
1519:d:/LiteOS_Lab/drivers/third_party/ST/STM32L4xx_HAL_Driver/Src\stm32l4xx_hal_uart.c ****         huart->hdmarx->XferAbortCallback(huart->hdmarx);
 3124              		.loc 1 1519 14
 3125 0066 7B68     		ldr	r3, [r7, #4]
 3126 0068 DB6E     		ldr	r3, [r3, #108]
 3127              		.loc 1 1519 22
 3128 006a 9B6B     		ldr	r3, [r3, #56]
 3129              		.loc 1 1519 47
 3130 006c 7A68     		ldr	r2, [r7, #4]
 3131 006e D26E     		ldr	r2, [r2, #108]
 3132              		.loc 1 1519 9
 3133 0070 1046     		mov	r0, r2
ARM GAS  C:\Users\ADMINI~1\AppData\Local\Temp\ccHDbRvY.s 			page 82


 3134 0072 9847     		blx	r3
 3135              	.LVL1:
 3136 0074 1EE0     		b	.L151
 3137              	.L150:
1520:d:/LiteOS_Lab/drivers/third_party/ST/STM32L4xx_HAL_Driver/Src\stm32l4xx_hal_uart.c ****       }
1521:d:/LiteOS_Lab/drivers/third_party/ST/STM32L4xx_HAL_Driver/Src\stm32l4xx_hal_uart.c ****     }
1522:d:/LiteOS_Lab/drivers/third_party/ST/STM32L4xx_HAL_Driver/Src\stm32l4xx_hal_uart.c ****     else
1523:d:/LiteOS_Lab/drivers/third_party/ST/STM32L4xx_HAL_Driver/Src\stm32l4xx_hal_uart.c ****     {
1524:d:/LiteOS_Lab/drivers/third_party/ST/STM32L4xx_HAL_Driver/Src\stm32l4xx_hal_uart.c ****       /* Reset Rx transfer counter */
1525:d:/LiteOS_Lab/drivers/third_party/ST/STM32L4xx_HAL_Driver/Src\stm32l4xx_hal_uart.c ****       huart->RxXferCount = 0; 
 3138              		.loc 1 1525 26
 3139 0076 7B68     		ldr	r3, [r7, #4]
 3140 0078 0022     		movs	r2, #0
 3141 007a A3F85A20 		strh	r2, [r3, #90]	@ movhi
1526:d:/LiteOS_Lab/drivers/third_party/ST/STM32L4xx_HAL_Driver/Src\stm32l4xx_hal_uart.c **** 
1527:d:/LiteOS_Lab/drivers/third_party/ST/STM32L4xx_HAL_Driver/Src\stm32l4xx_hal_uart.c ****       /* Clear the Error flags in the ICR register */
1528:d:/LiteOS_Lab/drivers/third_party/ST/STM32L4xx_HAL_Driver/Src\stm32l4xx_hal_uart.c ****       __HAL_UART_CLEAR_FLAG(huart, UART_CLEAR_OREF | UART_CLEAR_NEF | UART_CLEAR_PEF | UART_CLEAR_F
 3142              		.loc 1 1528 7
 3143 007e 7B68     		ldr	r3, [r7, #4]
 3144 0080 1B68     		ldr	r3, [r3]
 3145 0082 0F22     		movs	r2, #15
 3146 0084 1A62     		str	r2, [r3, #32]
1529:d:/LiteOS_Lab/drivers/third_party/ST/STM32L4xx_HAL_Driver/Src\stm32l4xx_hal_uart.c **** 
1530:d:/LiteOS_Lab/drivers/third_party/ST/STM32L4xx_HAL_Driver/Src\stm32l4xx_hal_uart.c ****       /* Restore huart->RxState to Ready */
1531:d:/LiteOS_Lab/drivers/third_party/ST/STM32L4xx_HAL_Driver/Src\stm32l4xx_hal_uart.c ****       huart->RxState = HAL_UART_STATE_READY;
 3147              		.loc 1 1531 22
 3148 0086 7B68     		ldr	r3, [r7, #4]
 3149 0088 2022     		movs	r2, #32
 3150 008a 83F87220 		strb	r2, [r3, #114]
1532:d:/LiteOS_Lab/drivers/third_party/ST/STM32L4xx_HAL_Driver/Src\stm32l4xx_hal_uart.c **** 
1533:d:/LiteOS_Lab/drivers/third_party/ST/STM32L4xx_HAL_Driver/Src\stm32l4xx_hal_uart.c ****       /* As no DMA to be aborted, call directly user Abort complete callback */
1534:d:/LiteOS_Lab/drivers/third_party/ST/STM32L4xx_HAL_Driver/Src\stm32l4xx_hal_uart.c ****       HAL_UART_AbortReceiveCpltCallback(huart);
 3151              		.loc 1 1534 7
 3152 008e 7868     		ldr	r0, [r7, #4]
 3153 0090 FFF7FEFF 		bl	HAL_UART_AbortReceiveCpltCallback
 3154 0094 0EE0     		b	.L151
 3155              	.L149:
1535:d:/LiteOS_Lab/drivers/third_party/ST/STM32L4xx_HAL_Driver/Src\stm32l4xx_hal_uart.c ****     }
1536:d:/LiteOS_Lab/drivers/third_party/ST/STM32L4xx_HAL_Driver/Src\stm32l4xx_hal_uart.c ****   }
1537:d:/LiteOS_Lab/drivers/third_party/ST/STM32L4xx_HAL_Driver/Src\stm32l4xx_hal_uart.c ****   else
1538:d:/LiteOS_Lab/drivers/third_party/ST/STM32L4xx_HAL_Driver/Src\stm32l4xx_hal_uart.c ****   {
1539:d:/LiteOS_Lab/drivers/third_party/ST/STM32L4xx_HAL_Driver/Src\stm32l4xx_hal_uart.c ****     /* Reset Rx transfer counter */
1540:d:/LiteOS_Lab/drivers/third_party/ST/STM32L4xx_HAL_Driver/Src\stm32l4xx_hal_uart.c ****     huart->RxXferCount = 0; 
 3156              		.loc 1 1540 24
 3157 0096 7B68     		ldr	r3, [r7, #4]
 3158 0098 0022     		movs	r2, #0
 3159 009a A3F85A20 		strh	r2, [r3, #90]	@ movhi
1541:d:/LiteOS_Lab/drivers/third_party/ST/STM32L4xx_HAL_Driver/Src\stm32l4xx_hal_uart.c **** 
1542:d:/LiteOS_Lab/drivers/third_party/ST/STM32L4xx_HAL_Driver/Src\stm32l4xx_hal_uart.c ****     /* Clear the Error flags in the ICR register */
1543:d:/LiteOS_Lab/drivers/third_party/ST/STM32L4xx_HAL_Driver/Src\stm32l4xx_hal_uart.c ****     __HAL_UART_CLEAR_FLAG(huart, UART_CLEAR_OREF | UART_CLEAR_NEF | UART_CLEAR_PEF | UART_CLEAR_FEF
 3160              		.loc 1 1543 5
 3161 009e 7B68     		ldr	r3, [r7, #4]
 3162 00a0 1B68     		ldr	r3, [r3]
 3163 00a2 0F22     		movs	r2, #15
 3164 00a4 1A62     		str	r2, [r3, #32]
1544:d:/LiteOS_Lab/drivers/third_party/ST/STM32L4xx_HAL_Driver/Src\stm32l4xx_hal_uart.c **** 
1545:d:/LiteOS_Lab/drivers/third_party/ST/STM32L4xx_HAL_Driver/Src\stm32l4xx_hal_uart.c ****     /* Restore huart->RxState to Ready */
ARM GAS  C:\Users\ADMINI~1\AppData\Local\Temp\ccHDbRvY.s 			page 83


1546:d:/LiteOS_Lab/drivers/third_party/ST/STM32L4xx_HAL_Driver/Src\stm32l4xx_hal_uart.c ****     huart->RxState = HAL_UART_STATE_READY;
 3165              		.loc 1 1546 20
 3166 00a6 7B68     		ldr	r3, [r7, #4]
 3167 00a8 2022     		movs	r2, #32
 3168 00aa 83F87220 		strb	r2, [r3, #114]
1547:d:/LiteOS_Lab/drivers/third_party/ST/STM32L4xx_HAL_Driver/Src\stm32l4xx_hal_uart.c **** 
1548:d:/LiteOS_Lab/drivers/third_party/ST/STM32L4xx_HAL_Driver/Src\stm32l4xx_hal_uart.c ****     /* As no DMA to be aborted, call directly user Abort complete callback */
1549:d:/LiteOS_Lab/drivers/third_party/ST/STM32L4xx_HAL_Driver/Src\stm32l4xx_hal_uart.c ****     HAL_UART_AbortReceiveCpltCallback(huart);
 3169              		.loc 1 1549 5
 3170 00ae 7868     		ldr	r0, [r7, #4]
 3171 00b0 FFF7FEFF 		bl	HAL_UART_AbortReceiveCpltCallback
 3172              	.L151:
1550:d:/LiteOS_Lab/drivers/third_party/ST/STM32L4xx_HAL_Driver/Src\stm32l4xx_hal_uart.c ****   }
1551:d:/LiteOS_Lab/drivers/third_party/ST/STM32L4xx_HAL_Driver/Src\stm32l4xx_hal_uart.c **** 
1552:d:/LiteOS_Lab/drivers/third_party/ST/STM32L4xx_HAL_Driver/Src\stm32l4xx_hal_uart.c ****   return HAL_OK;
 3173              		.loc 1 1552 10
 3174 00b4 0023     		movs	r3, #0
1553:d:/LiteOS_Lab/drivers/third_party/ST/STM32L4xx_HAL_Driver/Src\stm32l4xx_hal_uart.c **** }
 3175              		.loc 1 1553 1
 3176 00b6 1846     		mov	r0, r3
 3177 00b8 0837     		adds	r7, r7, #8
 3178              	.LCFI114:
 3179              		.cfi_def_cfa_offset 8
 3180 00ba BD46     		mov	sp, r7
 3181              	.LCFI115:
 3182              		.cfi_def_cfa_register 13
 3183              		@ sp needed
 3184 00bc 80BD     		pop	{r7, pc}
 3185              	.L154:
 3186 00be 00BF     		.align	2
 3187              	.L153:
 3188 00c0 00000000 		.word	UART_DMARxOnlyAbortCallback
 3189              		.cfi_endproc
 3190              	.LFE308:
 3192              		.section	.text.HAL_UART_IRQHandler,"ax",%progbits
 3193              		.align	1
 3194              		.global	HAL_UART_IRQHandler
 3195              		.syntax unified
 3196              		.thumb
 3197              		.thumb_func
 3198              		.fpu fpv4-sp-d16
 3200              	HAL_UART_IRQHandler:
 3201              	.LFB309:
1554:d:/LiteOS_Lab/drivers/third_party/ST/STM32L4xx_HAL_Driver/Src\stm32l4xx_hal_uart.c **** 
1555:d:/LiteOS_Lab/drivers/third_party/ST/STM32L4xx_HAL_Driver/Src\stm32l4xx_hal_uart.c **** /**
1556:d:/LiteOS_Lab/drivers/third_party/ST/STM32L4xx_HAL_Driver/Src\stm32l4xx_hal_uart.c ****   * @brief Handle UART interrupt request.
1557:d:/LiteOS_Lab/drivers/third_party/ST/STM32L4xx_HAL_Driver/Src\stm32l4xx_hal_uart.c ****   * @param huart: UART handle.
1558:d:/LiteOS_Lab/drivers/third_party/ST/STM32L4xx_HAL_Driver/Src\stm32l4xx_hal_uart.c ****   * @retval None
1559:d:/LiteOS_Lab/drivers/third_party/ST/STM32L4xx_HAL_Driver/Src\stm32l4xx_hal_uart.c ****   */
1560:d:/LiteOS_Lab/drivers/third_party/ST/STM32L4xx_HAL_Driver/Src\stm32l4xx_hal_uart.c **** void HAL_UART_IRQHandler(UART_HandleTypeDef *huart)
1561:d:/LiteOS_Lab/drivers/third_party/ST/STM32L4xx_HAL_Driver/Src\stm32l4xx_hal_uart.c **** {
 3202              		.loc 1 1561 1
 3203              		.cfi_startproc
 3204              		@ args = 0, pretend = 0, frame = 24
 3205              		@ frame_needed = 1, uses_anonymous_args = 0
 3206 0000 80B5     		push	{r7, lr}
 3207              	.LCFI116:
ARM GAS  C:\Users\ADMINI~1\AppData\Local\Temp\ccHDbRvY.s 			page 84


 3208              		.cfi_def_cfa_offset 8
 3209              		.cfi_offset 7, -8
 3210              		.cfi_offset 14, -4
 3211 0002 86B0     		sub	sp, sp, #24
 3212              	.LCFI117:
 3213              		.cfi_def_cfa_offset 32
 3214 0004 00AF     		add	r7, sp, #0
 3215              	.LCFI118:
 3216              		.cfi_def_cfa_register 7
 3217 0006 7860     		str	r0, [r7, #4]
1562:d:/LiteOS_Lab/drivers/third_party/ST/STM32L4xx_HAL_Driver/Src\stm32l4xx_hal_uart.c ****   uint32_t isrflags   = READ_REG(huart->Instance->ISR);
 3218              		.loc 1 1562 25
 3219 0008 7B68     		ldr	r3, [r7, #4]
 3220 000a 1B68     		ldr	r3, [r3]
 3221              		.loc 1 1562 12
 3222 000c DB69     		ldr	r3, [r3, #28]
 3223 000e 7B61     		str	r3, [r7, #20]
1563:d:/LiteOS_Lab/drivers/third_party/ST/STM32L4xx_HAL_Driver/Src\stm32l4xx_hal_uart.c ****   uint32_t cr1its     = READ_REG(huart->Instance->CR1);
 3224              		.loc 1 1563 25
 3225 0010 7B68     		ldr	r3, [r7, #4]
 3226 0012 1B68     		ldr	r3, [r3]
 3227              		.loc 1 1563 12
 3228 0014 1B68     		ldr	r3, [r3]
 3229 0016 3B61     		str	r3, [r7, #16]
1564:d:/LiteOS_Lab/drivers/third_party/ST/STM32L4xx_HAL_Driver/Src\stm32l4xx_hal_uart.c ****   uint32_t cr3its;
1565:d:/LiteOS_Lab/drivers/third_party/ST/STM32L4xx_HAL_Driver/Src\stm32l4xx_hal_uart.c ****   uint32_t errorflags;
1566:d:/LiteOS_Lab/drivers/third_party/ST/STM32L4xx_HAL_Driver/Src\stm32l4xx_hal_uart.c **** 
1567:d:/LiteOS_Lab/drivers/third_party/ST/STM32L4xx_HAL_Driver/Src\stm32l4xx_hal_uart.c ****   /* If no error occurs */
1568:d:/LiteOS_Lab/drivers/third_party/ST/STM32L4xx_HAL_Driver/Src\stm32l4xx_hal_uart.c ****   errorflags = (isrflags & (uint32_t)(USART_ISR_PE | USART_ISR_FE | USART_ISR_ORE | USART_ISR_NE));
 3230              		.loc 1 1568 14
 3231 0018 7B69     		ldr	r3, [r7, #20]
 3232 001a 03F00F03 		and	r3, r3, #15
 3233 001e FB60     		str	r3, [r7, #12]
1569:d:/LiteOS_Lab/drivers/third_party/ST/STM32L4xx_HAL_Driver/Src\stm32l4xx_hal_uart.c ****   if (errorflags == RESET)
 3234              		.loc 1 1569 6
 3235 0020 FB68     		ldr	r3, [r7, #12]
 3236 0022 002B     		cmp	r3, #0
 3237 0024 0DD1     		bne	.L156
1570:d:/LiteOS_Lab/drivers/third_party/ST/STM32L4xx_HAL_Driver/Src\stm32l4xx_hal_uart.c ****   {
1571:d:/LiteOS_Lab/drivers/third_party/ST/STM32L4xx_HAL_Driver/Src\stm32l4xx_hal_uart.c ****     /* UART in mode Receiver ---------------------------------------------------*/
1572:d:/LiteOS_Lab/drivers/third_party/ST/STM32L4xx_HAL_Driver/Src\stm32l4xx_hal_uart.c ****     if(((isrflags & USART_ISR_RXNE) != RESET) && ((cr1its & USART_CR1_RXNEIE) != RESET))
 3238              		.loc 1 1572 19
 3239 0026 7B69     		ldr	r3, [r7, #20]
 3240 0028 03F02003 		and	r3, r3, #32
 3241              		.loc 1 1572 7
 3242 002c 002B     		cmp	r3, #0
 3243 002e 08D0     		beq	.L156
 3244              		.loc 1 1572 59 discriminator 1
 3245 0030 3B69     		ldr	r3, [r7, #16]
 3246 0032 03F02003 		and	r3, r3, #32
 3247              		.loc 1 1572 47 discriminator 1
 3248 0036 002B     		cmp	r3, #0
 3249 0038 03D0     		beq	.L156
1573:d:/LiteOS_Lab/drivers/third_party/ST/STM32L4xx_HAL_Driver/Src\stm32l4xx_hal_uart.c ****     {
1574:d:/LiteOS_Lab/drivers/third_party/ST/STM32L4xx_HAL_Driver/Src\stm32l4xx_hal_uart.c ****       UART_Receive_IT(huart);
 3250              		.loc 1 1574 7
 3251 003a 7868     		ldr	r0, [r7, #4]
ARM GAS  C:\Users\ADMINI~1\AppData\Local\Temp\ccHDbRvY.s 			page 85


 3252 003c FFF7FEFF 		bl	UART_Receive_IT
1575:d:/LiteOS_Lab/drivers/third_party/ST/STM32L4xx_HAL_Driver/Src\stm32l4xx_hal_uart.c ****       return;
 3253              		.loc 1 1575 7
 3254 0040 FDE0     		b	.L155
 3255              	.L156:
1576:d:/LiteOS_Lab/drivers/third_party/ST/STM32L4xx_HAL_Driver/Src\stm32l4xx_hal_uart.c ****     }
1577:d:/LiteOS_Lab/drivers/third_party/ST/STM32L4xx_HAL_Driver/Src\stm32l4xx_hal_uart.c ****   }  
1578:d:/LiteOS_Lab/drivers/third_party/ST/STM32L4xx_HAL_Driver/Src\stm32l4xx_hal_uart.c **** 
1579:d:/LiteOS_Lab/drivers/third_party/ST/STM32L4xx_HAL_Driver/Src\stm32l4xx_hal_uart.c ****   /* If some errors occur */
1580:d:/LiteOS_Lab/drivers/third_party/ST/STM32L4xx_HAL_Driver/Src\stm32l4xx_hal_uart.c ****   cr3its = READ_REG(huart->Instance->CR3);
 3256              		.loc 1 1580 12
 3257 0042 7B68     		ldr	r3, [r7, #4]
 3258 0044 1B68     		ldr	r3, [r3]
 3259              		.loc 1 1580 10
 3260 0046 9B68     		ldr	r3, [r3, #8]
 3261 0048 BB60     		str	r3, [r7, #8]
1581:d:/LiteOS_Lab/drivers/third_party/ST/STM32L4xx_HAL_Driver/Src\stm32l4xx_hal_uart.c ****   if(   (errorflags != RESET)
 3262              		.loc 1 1581 5
 3263 004a FB68     		ldr	r3, [r7, #12]
 3264 004c 002B     		cmp	r3, #0
 3265 004e 00F0BA80 		beq	.L158
1582:d:/LiteOS_Lab/drivers/third_party/ST/STM32L4xx_HAL_Driver/Src\stm32l4xx_hal_uart.c ****      && (   ((cr3its & USART_CR3_EIE) != RESET)
 3266              		.loc 1 1582 22
 3267 0052 BB68     		ldr	r3, [r7, #8]
 3268 0054 03F00103 		and	r3, r3, #1
 3269              		.loc 1 1582 6
 3270 0058 002B     		cmp	r3, #0
 3271 005a 05D1     		bne	.L159
1583:d:/LiteOS_Lab/drivers/third_party/ST/STM32L4xx_HAL_Driver/Src\stm32l4xx_hal_uart.c ****          || ((cr1its & (USART_CR1_RXNEIE | USART_CR1_PEIE)) != RESET)) )
 3272              		.loc 1 1583 22
 3273 005c 3B69     		ldr	r3, [r7, #16]
 3274 005e 03F49073 		and	r3, r3, #288
 3275              		.loc 1 1583 10
 3276 0062 002B     		cmp	r3, #0
 3277 0064 00F0AF80 		beq	.L158
 3278              	.L159:
1584:d:/LiteOS_Lab/drivers/third_party/ST/STM32L4xx_HAL_Driver/Src\stm32l4xx_hal_uart.c ****   {
1585:d:/LiteOS_Lab/drivers/third_party/ST/STM32L4xx_HAL_Driver/Src\stm32l4xx_hal_uart.c ****     /* UART parity error interrupt occurred -------------------------------------*/
1586:d:/LiteOS_Lab/drivers/third_party/ST/STM32L4xx_HAL_Driver/Src\stm32l4xx_hal_uart.c ****     if(((isrflags & USART_ISR_PE) != RESET) && ((cr1its & USART_CR1_PEIE) != RESET))
 3279              		.loc 1 1586 19
 3280 0068 7B69     		ldr	r3, [r7, #20]
 3281 006a 03F00103 		and	r3, r3, #1
 3282              		.loc 1 1586 7
 3283 006e 002B     		cmp	r3, #0
 3284 0070 0ED0     		beq	.L160
 3285              		.loc 1 1586 57 discriminator 1
 3286 0072 3B69     		ldr	r3, [r7, #16]
 3287 0074 03F48073 		and	r3, r3, #256
 3288              		.loc 1 1586 45 discriminator 1
 3289 0078 002B     		cmp	r3, #0
 3290 007a 09D0     		beq	.L160
1587:d:/LiteOS_Lab/drivers/third_party/ST/STM32L4xx_HAL_Driver/Src\stm32l4xx_hal_uart.c ****     {
1588:d:/LiteOS_Lab/drivers/third_party/ST/STM32L4xx_HAL_Driver/Src\stm32l4xx_hal_uart.c ****       __HAL_UART_CLEAR_IT(huart, UART_CLEAR_PEF);
 3291              		.loc 1 1588 7
 3292 007c 7B68     		ldr	r3, [r7, #4]
 3293 007e 1B68     		ldr	r3, [r3]
 3294 0080 0122     		movs	r2, #1
ARM GAS  C:\Users\ADMINI~1\AppData\Local\Temp\ccHDbRvY.s 			page 86


 3295 0082 1A62     		str	r2, [r3, #32]
1589:d:/LiteOS_Lab/drivers/third_party/ST/STM32L4xx_HAL_Driver/Src\stm32l4xx_hal_uart.c **** 
1590:d:/LiteOS_Lab/drivers/third_party/ST/STM32L4xx_HAL_Driver/Src\stm32l4xx_hal_uart.c ****       huart->ErrorCode |= HAL_UART_ERROR_PE;
 3296              		.loc 1 1590 24
 3297 0084 7B68     		ldr	r3, [r7, #4]
 3298 0086 5B6F     		ldr	r3, [r3, #116]
 3299 0088 43F00102 		orr	r2, r3, #1
 3300 008c 7B68     		ldr	r3, [r7, #4]
 3301 008e 5A67     		str	r2, [r3, #116]
 3302              	.L160:
1591:d:/LiteOS_Lab/drivers/third_party/ST/STM32L4xx_HAL_Driver/Src\stm32l4xx_hal_uart.c ****     }
1592:d:/LiteOS_Lab/drivers/third_party/ST/STM32L4xx_HAL_Driver/Src\stm32l4xx_hal_uart.c **** 
1593:d:/LiteOS_Lab/drivers/third_party/ST/STM32L4xx_HAL_Driver/Src\stm32l4xx_hal_uart.c ****     /* UART frame error interrupt occurred --------------------------------------*/
1594:d:/LiteOS_Lab/drivers/third_party/ST/STM32L4xx_HAL_Driver/Src\stm32l4xx_hal_uart.c ****     if(((isrflags & USART_ISR_FE) != RESET) && ((cr3its & USART_CR3_EIE) != RESET))
 3303              		.loc 1 1594 19
 3304 0090 7B69     		ldr	r3, [r7, #20]
 3305 0092 03F00203 		and	r3, r3, #2
 3306              		.loc 1 1594 7
 3307 0096 002B     		cmp	r3, #0
 3308 0098 0ED0     		beq	.L161
 3309              		.loc 1 1594 57 discriminator 1
 3310 009a BB68     		ldr	r3, [r7, #8]
 3311 009c 03F00103 		and	r3, r3, #1
 3312              		.loc 1 1594 45 discriminator 1
 3313 00a0 002B     		cmp	r3, #0
 3314 00a2 09D0     		beq	.L161
1595:d:/LiteOS_Lab/drivers/third_party/ST/STM32L4xx_HAL_Driver/Src\stm32l4xx_hal_uart.c ****     {
1596:d:/LiteOS_Lab/drivers/third_party/ST/STM32L4xx_HAL_Driver/Src\stm32l4xx_hal_uart.c ****       __HAL_UART_CLEAR_IT(huart, UART_CLEAR_FEF);
 3315              		.loc 1 1596 7
 3316 00a4 7B68     		ldr	r3, [r7, #4]
 3317 00a6 1B68     		ldr	r3, [r3]
 3318 00a8 0222     		movs	r2, #2
 3319 00aa 1A62     		str	r2, [r3, #32]
1597:d:/LiteOS_Lab/drivers/third_party/ST/STM32L4xx_HAL_Driver/Src\stm32l4xx_hal_uart.c **** 
1598:d:/LiteOS_Lab/drivers/third_party/ST/STM32L4xx_HAL_Driver/Src\stm32l4xx_hal_uart.c ****       huart->ErrorCode |= HAL_UART_ERROR_FE;
 3320              		.loc 1 1598 24
 3321 00ac 7B68     		ldr	r3, [r7, #4]
 3322 00ae 5B6F     		ldr	r3, [r3, #116]
 3323 00b0 43F00402 		orr	r2, r3, #4
 3324 00b4 7B68     		ldr	r3, [r7, #4]
 3325 00b6 5A67     		str	r2, [r3, #116]
 3326              	.L161:
1599:d:/LiteOS_Lab/drivers/third_party/ST/STM32L4xx_HAL_Driver/Src\stm32l4xx_hal_uart.c ****     }
1600:d:/LiteOS_Lab/drivers/third_party/ST/STM32L4xx_HAL_Driver/Src\stm32l4xx_hal_uart.c **** 
1601:d:/LiteOS_Lab/drivers/third_party/ST/STM32L4xx_HAL_Driver/Src\stm32l4xx_hal_uart.c ****     /* UART noise error interrupt occurred --------------------------------------*/
1602:d:/LiteOS_Lab/drivers/third_party/ST/STM32L4xx_HAL_Driver/Src\stm32l4xx_hal_uart.c ****     if(((isrflags & USART_ISR_NE) != RESET) && ((cr3its & USART_CR3_EIE) != RESET))
 3327              		.loc 1 1602 19
 3328 00b8 7B69     		ldr	r3, [r7, #20]
 3329 00ba 03F00403 		and	r3, r3, #4
 3330              		.loc 1 1602 7
 3331 00be 002B     		cmp	r3, #0
 3332 00c0 0ED0     		beq	.L162
 3333              		.loc 1 1602 57 discriminator 1
 3334 00c2 BB68     		ldr	r3, [r7, #8]
 3335 00c4 03F00103 		and	r3, r3, #1
 3336              		.loc 1 1602 45 discriminator 1
 3337 00c8 002B     		cmp	r3, #0
ARM GAS  C:\Users\ADMINI~1\AppData\Local\Temp\ccHDbRvY.s 			page 87


 3338 00ca 09D0     		beq	.L162
1603:d:/LiteOS_Lab/drivers/third_party/ST/STM32L4xx_HAL_Driver/Src\stm32l4xx_hal_uart.c ****     {
1604:d:/LiteOS_Lab/drivers/third_party/ST/STM32L4xx_HAL_Driver/Src\stm32l4xx_hal_uart.c ****       __HAL_UART_CLEAR_IT(huart, UART_CLEAR_NEF);
 3339              		.loc 1 1604 7
 3340 00cc 7B68     		ldr	r3, [r7, #4]
 3341 00ce 1B68     		ldr	r3, [r3]
 3342 00d0 0422     		movs	r2, #4
 3343 00d2 1A62     		str	r2, [r3, #32]
1605:d:/LiteOS_Lab/drivers/third_party/ST/STM32L4xx_HAL_Driver/Src\stm32l4xx_hal_uart.c **** 
1606:d:/LiteOS_Lab/drivers/third_party/ST/STM32L4xx_HAL_Driver/Src\stm32l4xx_hal_uart.c ****       huart->ErrorCode |= HAL_UART_ERROR_NE;
 3344              		.loc 1 1606 24
 3345 00d4 7B68     		ldr	r3, [r7, #4]
 3346 00d6 5B6F     		ldr	r3, [r3, #116]
 3347 00d8 43F00202 		orr	r2, r3, #2
 3348 00dc 7B68     		ldr	r3, [r7, #4]
 3349 00de 5A67     		str	r2, [r3, #116]
 3350              	.L162:
1607:d:/LiteOS_Lab/drivers/third_party/ST/STM32L4xx_HAL_Driver/Src\stm32l4xx_hal_uart.c ****     }
1608:d:/LiteOS_Lab/drivers/third_party/ST/STM32L4xx_HAL_Driver/Src\stm32l4xx_hal_uart.c ****     
1609:d:/LiteOS_Lab/drivers/third_party/ST/STM32L4xx_HAL_Driver/Src\stm32l4xx_hal_uart.c ****     /* UART Over-Run interrupt occurred -----------------------------------------*/
1610:d:/LiteOS_Lab/drivers/third_party/ST/STM32L4xx_HAL_Driver/Src\stm32l4xx_hal_uart.c ****     if(((isrflags & USART_ISR_ORE) != RESET) &&
 3351              		.loc 1 1610 19
 3352 00e0 7B69     		ldr	r3, [r7, #20]
 3353 00e2 03F00803 		and	r3, r3, #8
 3354              		.loc 1 1610 7
 3355 00e6 002B     		cmp	r3, #0
 3356 00e8 13D0     		beq	.L163
1611:d:/LiteOS_Lab/drivers/third_party/ST/STM32L4xx_HAL_Driver/Src\stm32l4xx_hal_uart.c ****        (((cr1its & USART_CR1_RXNEIE) != RESET) || ((cr3its & USART_CR3_EIE) != RESET)))
 3357              		.loc 1 1611 18 discriminator 1
 3358 00ea 3B69     		ldr	r3, [r7, #16]
 3359 00ec 03F02003 		and	r3, r3, #32
1610:d:/LiteOS_Lab/drivers/third_party/ST/STM32L4xx_HAL_Driver/Src\stm32l4xx_hal_uart.c ****        (((cr1its & USART_CR1_RXNEIE) != RESET) || ((cr3its & USART_CR3_EIE) != RESET)))
 3360              		.loc 1 1610 46 discriminator 1
 3361 00f0 002B     		cmp	r3, #0
 3362 00f2 04D1     		bne	.L164
 3363              		.loc 1 1611 60
 3364 00f4 BB68     		ldr	r3, [r7, #8]
 3365 00f6 03F00103 		and	r3, r3, #1
 3366              		.loc 1 1611 48
 3367 00fa 002B     		cmp	r3, #0
 3368 00fc 09D0     		beq	.L163
 3369              	.L164:
1612:d:/LiteOS_Lab/drivers/third_party/ST/STM32L4xx_HAL_Driver/Src\stm32l4xx_hal_uart.c ****     {
1613:d:/LiteOS_Lab/drivers/third_party/ST/STM32L4xx_HAL_Driver/Src\stm32l4xx_hal_uart.c ****       __HAL_UART_CLEAR_IT(huart, UART_CLEAR_OREF);
 3370              		.loc 1 1613 7
 3371 00fe 7B68     		ldr	r3, [r7, #4]
 3372 0100 1B68     		ldr	r3, [r3]
 3373 0102 0822     		movs	r2, #8
 3374 0104 1A62     		str	r2, [r3, #32]
1614:d:/LiteOS_Lab/drivers/third_party/ST/STM32L4xx_HAL_Driver/Src\stm32l4xx_hal_uart.c **** 
1615:d:/LiteOS_Lab/drivers/third_party/ST/STM32L4xx_HAL_Driver/Src\stm32l4xx_hal_uart.c ****       huart->ErrorCode |= HAL_UART_ERROR_ORE;
 3375              		.loc 1 1615 24
 3376 0106 7B68     		ldr	r3, [r7, #4]
 3377 0108 5B6F     		ldr	r3, [r3, #116]
 3378 010a 43F00802 		orr	r2, r3, #8
 3379 010e 7B68     		ldr	r3, [r7, #4]
 3380 0110 5A67     		str	r2, [r3, #116]
ARM GAS  C:\Users\ADMINI~1\AppData\Local\Temp\ccHDbRvY.s 			page 88


 3381              	.L163:
1616:d:/LiteOS_Lab/drivers/third_party/ST/STM32L4xx_HAL_Driver/Src\stm32l4xx_hal_uart.c ****     }
1617:d:/LiteOS_Lab/drivers/third_party/ST/STM32L4xx_HAL_Driver/Src\stm32l4xx_hal_uart.c **** 
1618:d:/LiteOS_Lab/drivers/third_party/ST/STM32L4xx_HAL_Driver/Src\stm32l4xx_hal_uart.c ****     /* Call UART Error Call back function if need be --------------------------*/
1619:d:/LiteOS_Lab/drivers/third_party/ST/STM32L4xx_HAL_Driver/Src\stm32l4xx_hal_uart.c ****     if(huart->ErrorCode != HAL_UART_ERROR_NONE)
 3382              		.loc 1 1619 13
 3383 0112 7B68     		ldr	r3, [r7, #4]
 3384 0114 5B6F     		ldr	r3, [r3, #116]
 3385              		.loc 1 1619 7
 3386 0116 002B     		cmp	r3, #0
 3387 0118 00F09080 		beq	.L174
1620:d:/LiteOS_Lab/drivers/third_party/ST/STM32L4xx_HAL_Driver/Src\stm32l4xx_hal_uart.c ****     {
1621:d:/LiteOS_Lab/drivers/third_party/ST/STM32L4xx_HAL_Driver/Src\stm32l4xx_hal_uart.c ****       /* UART in mode Receiver ---------------------------------------------------*/
1622:d:/LiteOS_Lab/drivers/third_party/ST/STM32L4xx_HAL_Driver/Src\stm32l4xx_hal_uart.c ****       if(((isrflags & USART_ISR_RXNE) != RESET) && ((cr1its & USART_CR1_RXNEIE) != RESET))
 3388              		.loc 1 1622 21
 3389 011c 7B69     		ldr	r3, [r7, #20]
 3390 011e 03F02003 		and	r3, r3, #32
 3391              		.loc 1 1622 9
 3392 0122 002B     		cmp	r3, #0
 3393 0124 07D0     		beq	.L166
 3394              		.loc 1 1622 61 discriminator 1
 3395 0126 3B69     		ldr	r3, [r7, #16]
 3396 0128 03F02003 		and	r3, r3, #32
 3397              		.loc 1 1622 49 discriminator 1
 3398 012c 002B     		cmp	r3, #0
 3399 012e 02D0     		beq	.L166
1623:d:/LiteOS_Lab/drivers/third_party/ST/STM32L4xx_HAL_Driver/Src\stm32l4xx_hal_uart.c ****       {
1624:d:/LiteOS_Lab/drivers/third_party/ST/STM32L4xx_HAL_Driver/Src\stm32l4xx_hal_uart.c ****         UART_Receive_IT(huart);
 3400              		.loc 1 1624 9
 3401 0130 7868     		ldr	r0, [r7, #4]
 3402 0132 FFF7FEFF 		bl	UART_Receive_IT
 3403              	.L166:
1625:d:/LiteOS_Lab/drivers/third_party/ST/STM32L4xx_HAL_Driver/Src\stm32l4xx_hal_uart.c ****       }
1626:d:/LiteOS_Lab/drivers/third_party/ST/STM32L4xx_HAL_Driver/Src\stm32l4xx_hal_uart.c **** 
1627:d:/LiteOS_Lab/drivers/third_party/ST/STM32L4xx_HAL_Driver/Src\stm32l4xx_hal_uart.c ****       /* If Overrun error occurs, or if any error occurs in DMA mode reception,
1628:d:/LiteOS_Lab/drivers/third_party/ST/STM32L4xx_HAL_Driver/Src\stm32l4xx_hal_uart.c ****          consider error as blocking */
1629:d:/LiteOS_Lab/drivers/third_party/ST/STM32L4xx_HAL_Driver/Src\stm32l4xx_hal_uart.c ****       if (((huart->ErrorCode & HAL_UART_ERROR_ORE) != RESET) ||
 3404              		.loc 1 1629 18
 3405 0136 7B68     		ldr	r3, [r7, #4]
 3406 0138 5B6F     		ldr	r3, [r3, #116]
 3407              		.loc 1 1629 30
 3408 013a 03F00803 		and	r3, r3, #8
 3409              		.loc 1 1629 10
 3410 013e 002B     		cmp	r3, #0
 3411 0140 06D1     		bne	.L167
1630:d:/LiteOS_Lab/drivers/third_party/ST/STM32L4xx_HAL_Driver/Src\stm32l4xx_hal_uart.c ****           (HAL_IS_BIT_SET(huart->Instance->CR3, USART_CR3_DMAR)))
 3412              		.loc 1 1630 12 discriminator 1
 3413 0142 7B68     		ldr	r3, [r7, #4]
 3414 0144 1B68     		ldr	r3, [r3]
 3415 0146 9B68     		ldr	r3, [r3, #8]
 3416 0148 03F04003 		and	r3, r3, #64
1629:d:/LiteOS_Lab/drivers/third_party/ST/STM32L4xx_HAL_Driver/Src\stm32l4xx_hal_uart.c ****           (HAL_IS_BIT_SET(huart->Instance->CR3, USART_CR3_DMAR)))
 3417              		.loc 1 1629 62 discriminator 1
 3418 014c 402B     		cmp	r3, #64
 3419 014e 31D1     		bne	.L168
 3420              	.L167:
1631:d:/LiteOS_Lab/drivers/third_party/ST/STM32L4xx_HAL_Driver/Src\stm32l4xx_hal_uart.c ****       {  
ARM GAS  C:\Users\ADMINI~1\AppData\Local\Temp\ccHDbRvY.s 			page 89


1632:d:/LiteOS_Lab/drivers/third_party/ST/STM32L4xx_HAL_Driver/Src\stm32l4xx_hal_uart.c ****         /* Blocking error : transfer is aborted
1633:d:/LiteOS_Lab/drivers/third_party/ST/STM32L4xx_HAL_Driver/Src\stm32l4xx_hal_uart.c ****            Set the UART state ready to be able to start again the process,
1634:d:/LiteOS_Lab/drivers/third_party/ST/STM32L4xx_HAL_Driver/Src\stm32l4xx_hal_uart.c ****            Disable Rx Interrupts, and disable Rx DMA request, if ongoing */
1635:d:/LiteOS_Lab/drivers/third_party/ST/STM32L4xx_HAL_Driver/Src\stm32l4xx_hal_uart.c ****         UART_EndRxTransfer(huart);
 3421              		.loc 1 1635 9
 3422 0150 7868     		ldr	r0, [r7, #4]
 3423 0152 FFF7FEFF 		bl	UART_EndRxTransfer
1636:d:/LiteOS_Lab/drivers/third_party/ST/STM32L4xx_HAL_Driver/Src\stm32l4xx_hal_uart.c **** 
1637:d:/LiteOS_Lab/drivers/third_party/ST/STM32L4xx_HAL_Driver/Src\stm32l4xx_hal_uart.c ****         /* Disable the UART DMA Rx request if enabled */
1638:d:/LiteOS_Lab/drivers/third_party/ST/STM32L4xx_HAL_Driver/Src\stm32l4xx_hal_uart.c ****         if (HAL_IS_BIT_SET(huart->Instance->CR3, USART_CR3_DMAR))
 3424              		.loc 1 1638 13
 3425 0156 7B68     		ldr	r3, [r7, #4]
 3426 0158 1B68     		ldr	r3, [r3]
 3427 015a 9B68     		ldr	r3, [r3, #8]
 3428 015c 03F04003 		and	r3, r3, #64
 3429              		.loc 1 1638 12
 3430 0160 402B     		cmp	r3, #64
 3431 0162 23D1     		bne	.L169
1639:d:/LiteOS_Lab/drivers/third_party/ST/STM32L4xx_HAL_Driver/Src\stm32l4xx_hal_uart.c ****         {
1640:d:/LiteOS_Lab/drivers/third_party/ST/STM32L4xx_HAL_Driver/Src\stm32l4xx_hal_uart.c ****           CLEAR_BIT(huart->Instance->CR3, USART_CR3_DMAR);
 3432              		.loc 1 1640 11
 3433 0164 7B68     		ldr	r3, [r7, #4]
 3434 0166 1B68     		ldr	r3, [r3]
 3435 0168 9A68     		ldr	r2, [r3, #8]
 3436 016a 7B68     		ldr	r3, [r7, #4]
 3437 016c 1B68     		ldr	r3, [r3]
 3438 016e 22F04002 		bic	r2, r2, #64
 3439 0172 9A60     		str	r2, [r3, #8]
1641:d:/LiteOS_Lab/drivers/third_party/ST/STM32L4xx_HAL_Driver/Src\stm32l4xx_hal_uart.c **** 
1642:d:/LiteOS_Lab/drivers/third_party/ST/STM32L4xx_HAL_Driver/Src\stm32l4xx_hal_uart.c ****           /* Abort the UART DMA Rx channel */
1643:d:/LiteOS_Lab/drivers/third_party/ST/STM32L4xx_HAL_Driver/Src\stm32l4xx_hal_uart.c ****           if(huart->hdmarx != NULL)
 3440              		.loc 1 1643 19
 3441 0174 7B68     		ldr	r3, [r7, #4]
 3442 0176 DB6E     		ldr	r3, [r3, #108]
 3443              		.loc 1 1643 13
 3444 0178 002B     		cmp	r3, #0
 3445 017a 13D0     		beq	.L170
1644:d:/LiteOS_Lab/drivers/third_party/ST/STM32L4xx_HAL_Driver/Src\stm32l4xx_hal_uart.c ****           {
1645:d:/LiteOS_Lab/drivers/third_party/ST/STM32L4xx_HAL_Driver/Src\stm32l4xx_hal_uart.c ****             /* Set the UART DMA Abort callback : 
1646:d:/LiteOS_Lab/drivers/third_party/ST/STM32L4xx_HAL_Driver/Src\stm32l4xx_hal_uart.c ****                will lead to call HAL_UART_ErrorCallback() at end of DMA abort procedure */
1647:d:/LiteOS_Lab/drivers/third_party/ST/STM32L4xx_HAL_Driver/Src\stm32l4xx_hal_uart.c ****             huart->hdmarx->XferAbortCallback = UART_DMAAbortOnError;
 3446              		.loc 1 1647 18
 3447 017c 7B68     		ldr	r3, [r7, #4]
 3448 017e DB6E     		ldr	r3, [r3, #108]
 3449              		.loc 1 1647 46
 3450 0180 304A     		ldr	r2, .L176
 3451 0182 9A63     		str	r2, [r3, #56]
1648:d:/LiteOS_Lab/drivers/third_party/ST/STM32L4xx_HAL_Driver/Src\stm32l4xx_hal_uart.c **** 
1649:d:/LiteOS_Lab/drivers/third_party/ST/STM32L4xx_HAL_Driver/Src\stm32l4xx_hal_uart.c ****             /* Abort DMA RX */
1650:d:/LiteOS_Lab/drivers/third_party/ST/STM32L4xx_HAL_Driver/Src\stm32l4xx_hal_uart.c ****             if(HAL_DMA_Abort_IT(huart->hdmarx) != HAL_OK)
 3452              		.loc 1 1650 16
 3453 0184 7B68     		ldr	r3, [r7, #4]
 3454 0186 DB6E     		ldr	r3, [r3, #108]
 3455 0188 1846     		mov	r0, r3
 3456 018a FFF7FEFF 		bl	HAL_DMA_Abort_IT
 3457 018e 0346     		mov	r3, r0
 3458              		.loc 1 1650 15
ARM GAS  C:\Users\ADMINI~1\AppData\Local\Temp\ccHDbRvY.s 			page 90


 3459 0190 002B     		cmp	r3, #0
 3460 0192 16D0     		beq	.L175
1651:d:/LiteOS_Lab/drivers/third_party/ST/STM32L4xx_HAL_Driver/Src\stm32l4xx_hal_uart.c ****             {
1652:d:/LiteOS_Lab/drivers/third_party/ST/STM32L4xx_HAL_Driver/Src\stm32l4xx_hal_uart.c ****               /* Call Directly huart->hdmarx->XferAbortCallback function in case of error */
1653:d:/LiteOS_Lab/drivers/third_party/ST/STM32L4xx_HAL_Driver/Src\stm32l4xx_hal_uart.c ****               huart->hdmarx->XferAbortCallback(huart->hdmarx);
 3461              		.loc 1 1653 20
 3462 0194 7B68     		ldr	r3, [r7, #4]
 3463 0196 DB6E     		ldr	r3, [r3, #108]
 3464              		.loc 1 1653 28
 3465 0198 9B6B     		ldr	r3, [r3, #56]
 3466              		.loc 1 1653 53
 3467 019a 7A68     		ldr	r2, [r7, #4]
 3468 019c D26E     		ldr	r2, [r2, #108]
 3469              		.loc 1 1653 15
 3470 019e 1046     		mov	r0, r2
 3471 01a0 9847     		blx	r3
 3472              	.LVL2:
1638:d:/LiteOS_Lab/drivers/third_party/ST/STM32L4xx_HAL_Driver/Src\stm32l4xx_hal_uart.c ****         {
 3473              		.loc 1 1638 12
 3474 01a2 0EE0     		b	.L175
 3475              	.L170:
1654:d:/LiteOS_Lab/drivers/third_party/ST/STM32L4xx_HAL_Driver/Src\stm32l4xx_hal_uart.c ****             }
1655:d:/LiteOS_Lab/drivers/third_party/ST/STM32L4xx_HAL_Driver/Src\stm32l4xx_hal_uart.c ****           }
1656:d:/LiteOS_Lab/drivers/third_party/ST/STM32L4xx_HAL_Driver/Src\stm32l4xx_hal_uart.c ****           else
1657:d:/LiteOS_Lab/drivers/third_party/ST/STM32L4xx_HAL_Driver/Src\stm32l4xx_hal_uart.c ****           {
1658:d:/LiteOS_Lab/drivers/third_party/ST/STM32L4xx_HAL_Driver/Src\stm32l4xx_hal_uart.c ****             /* Call user error callback */
1659:d:/LiteOS_Lab/drivers/third_party/ST/STM32L4xx_HAL_Driver/Src\stm32l4xx_hal_uart.c ****             HAL_UART_ErrorCallback(huart);
 3476              		.loc 1 1659 13
 3477 01a4 7868     		ldr	r0, [r7, #4]
 3478 01a6 FFF7FEFF 		bl	HAL_UART_ErrorCallback
1638:d:/LiteOS_Lab/drivers/third_party/ST/STM32L4xx_HAL_Driver/Src\stm32l4xx_hal_uart.c ****         {
 3479              		.loc 1 1638 12
 3480 01aa 0AE0     		b	.L175
 3481              	.L169:
1660:d:/LiteOS_Lab/drivers/third_party/ST/STM32L4xx_HAL_Driver/Src\stm32l4xx_hal_uart.c ****           }
1661:d:/LiteOS_Lab/drivers/third_party/ST/STM32L4xx_HAL_Driver/Src\stm32l4xx_hal_uart.c ****         }
1662:d:/LiteOS_Lab/drivers/third_party/ST/STM32L4xx_HAL_Driver/Src\stm32l4xx_hal_uart.c ****         else
1663:d:/LiteOS_Lab/drivers/third_party/ST/STM32L4xx_HAL_Driver/Src\stm32l4xx_hal_uart.c ****         {
1664:d:/LiteOS_Lab/drivers/third_party/ST/STM32L4xx_HAL_Driver/Src\stm32l4xx_hal_uart.c ****           /* Call user error callback */
1665:d:/LiteOS_Lab/drivers/third_party/ST/STM32L4xx_HAL_Driver/Src\stm32l4xx_hal_uart.c ****           HAL_UART_ErrorCallback(huart);
 3482              		.loc 1 1665 11
 3483 01ac 7868     		ldr	r0, [r7, #4]
 3484 01ae FFF7FEFF 		bl	HAL_UART_ErrorCallback
1638:d:/LiteOS_Lab/drivers/third_party/ST/STM32L4xx_HAL_Driver/Src\stm32l4xx_hal_uart.c ****         {
 3485              		.loc 1 1638 12
 3486 01b2 06E0     		b	.L175
 3487              	.L168:
1666:d:/LiteOS_Lab/drivers/third_party/ST/STM32L4xx_HAL_Driver/Src\stm32l4xx_hal_uart.c ****         }
1667:d:/LiteOS_Lab/drivers/third_party/ST/STM32L4xx_HAL_Driver/Src\stm32l4xx_hal_uart.c ****       }
1668:d:/LiteOS_Lab/drivers/third_party/ST/STM32L4xx_HAL_Driver/Src\stm32l4xx_hal_uart.c ****       else
1669:d:/LiteOS_Lab/drivers/third_party/ST/STM32L4xx_HAL_Driver/Src\stm32l4xx_hal_uart.c ****       {
1670:d:/LiteOS_Lab/drivers/third_party/ST/STM32L4xx_HAL_Driver/Src\stm32l4xx_hal_uart.c ****         /* Non Blocking error : transfer could go on. 
1671:d:/LiteOS_Lab/drivers/third_party/ST/STM32L4xx_HAL_Driver/Src\stm32l4xx_hal_uart.c ****            Error is notified to user through user error callback */
1672:d:/LiteOS_Lab/drivers/third_party/ST/STM32L4xx_HAL_Driver/Src\stm32l4xx_hal_uart.c ****         HAL_UART_ErrorCallback(huart);
 3488              		.loc 1 1672 9
 3489 01b4 7868     		ldr	r0, [r7, #4]
 3490 01b6 FFF7FEFF 		bl	HAL_UART_ErrorCallback
ARM GAS  C:\Users\ADMINI~1\AppData\Local\Temp\ccHDbRvY.s 			page 91


1673:d:/LiteOS_Lab/drivers/third_party/ST/STM32L4xx_HAL_Driver/Src\stm32l4xx_hal_uart.c ****         huart->ErrorCode = HAL_UART_ERROR_NONE;
 3491              		.loc 1 1673 26
 3492 01ba 7B68     		ldr	r3, [r7, #4]
 3493 01bc 0022     		movs	r2, #0
 3494 01be 5A67     		str	r2, [r3, #116]
1674:d:/LiteOS_Lab/drivers/third_party/ST/STM32L4xx_HAL_Driver/Src\stm32l4xx_hal_uart.c ****       }
1675:d:/LiteOS_Lab/drivers/third_party/ST/STM32L4xx_HAL_Driver/Src\stm32l4xx_hal_uart.c ****     }
1676:d:/LiteOS_Lab/drivers/third_party/ST/STM32L4xx_HAL_Driver/Src\stm32l4xx_hal_uart.c ****     return;
 3495              		.loc 1 1676 5
 3496 01c0 3CE0     		b	.L174
 3497              	.L175:
1638:d:/LiteOS_Lab/drivers/third_party/ST/STM32L4xx_HAL_Driver/Src\stm32l4xx_hal_uart.c ****         {
 3498              		.loc 1 1638 12
 3499 01c2 00BF     		nop
 3500              		.loc 1 1676 5
 3501 01c4 3AE0     		b	.L174
 3502              	.L158:
1677:d:/LiteOS_Lab/drivers/third_party/ST/STM32L4xx_HAL_Driver/Src\stm32l4xx_hal_uart.c **** 
1678:d:/LiteOS_Lab/drivers/third_party/ST/STM32L4xx_HAL_Driver/Src\stm32l4xx_hal_uart.c ****   } /* End if some error occurs */
1679:d:/LiteOS_Lab/drivers/third_party/ST/STM32L4xx_HAL_Driver/Src\stm32l4xx_hal_uart.c **** 
1680:d:/LiteOS_Lab/drivers/third_party/ST/STM32L4xx_HAL_Driver/Src\stm32l4xx_hal_uart.c ****   /* UART wakeup from Stop mode interrupt occurred ---------------------------*/
1681:d:/LiteOS_Lab/drivers/third_party/ST/STM32L4xx_HAL_Driver/Src\stm32l4xx_hal_uart.c ****   cr3its = READ_REG(huart->Instance->CR3);
 3503              		.loc 1 1681 12
 3504 01c6 7B68     		ldr	r3, [r7, #4]
 3505 01c8 1B68     		ldr	r3, [r3]
 3506              		.loc 1 1681 10
 3507 01ca 9B68     		ldr	r3, [r3, #8]
 3508 01cc BB60     		str	r3, [r7, #8]
1682:d:/LiteOS_Lab/drivers/third_party/ST/STM32L4xx_HAL_Driver/Src\stm32l4xx_hal_uart.c ****   if(((isrflags & USART_ISR_WUF) != RESET) && ((cr3its & USART_CR3_WUFIE) != RESET))
 3509              		.loc 1 1682 17
 3510 01ce 7B69     		ldr	r3, [r7, #20]
 3511 01d0 03F48013 		and	r3, r3, #1048576
 3512              		.loc 1 1682 5
 3513 01d4 002B     		cmp	r3, #0
 3514 01d6 15D0     		beq	.L172
 3515              		.loc 1 1682 56 discriminator 1
 3516 01d8 BB68     		ldr	r3, [r7, #8]
 3517 01da 03F48003 		and	r3, r3, #4194304
 3518              		.loc 1 1682 44 discriminator 1
 3519 01de 002B     		cmp	r3, #0
 3520 01e0 10D0     		beq	.L172
1683:d:/LiteOS_Lab/drivers/third_party/ST/STM32L4xx_HAL_Driver/Src\stm32l4xx_hal_uart.c ****   {
1684:d:/LiteOS_Lab/drivers/third_party/ST/STM32L4xx_HAL_Driver/Src\stm32l4xx_hal_uart.c ****     __HAL_UART_CLEAR_IT(huart, UART_CLEAR_WUF);
 3521              		.loc 1 1684 5
 3522 01e2 7B68     		ldr	r3, [r7, #4]
 3523 01e4 1B68     		ldr	r3, [r3]
 3524 01e6 4FF48012 		mov	r2, #1048576
 3525 01ea 1A62     		str	r2, [r3, #32]
1685:d:/LiteOS_Lab/drivers/third_party/ST/STM32L4xx_HAL_Driver/Src\stm32l4xx_hal_uart.c ****     /* Set the UART state ready to be able to start again the process */
1686:d:/LiteOS_Lab/drivers/third_party/ST/STM32L4xx_HAL_Driver/Src\stm32l4xx_hal_uart.c ****     huart->gState  = HAL_UART_STATE_READY;
 3526              		.loc 1 1686 20
 3527 01ec 7B68     		ldr	r3, [r7, #4]
 3528 01ee 2022     		movs	r2, #32
 3529 01f0 83F87120 		strb	r2, [r3, #113]
1687:d:/LiteOS_Lab/drivers/third_party/ST/STM32L4xx_HAL_Driver/Src\stm32l4xx_hal_uart.c ****     huart->RxState = HAL_UART_STATE_READY;
 3530              		.loc 1 1687 20
 3531 01f4 7B68     		ldr	r3, [r7, #4]
ARM GAS  C:\Users\ADMINI~1\AppData\Local\Temp\ccHDbRvY.s 			page 92


 3532 01f6 2022     		movs	r2, #32
 3533 01f8 83F87220 		strb	r2, [r3, #114]
1688:d:/LiteOS_Lab/drivers/third_party/ST/STM32L4xx_HAL_Driver/Src\stm32l4xx_hal_uart.c ****     HAL_UARTEx_WakeupCallback(huart);
 3534              		.loc 1 1688 5
 3535 01fc 7868     		ldr	r0, [r7, #4]
 3536 01fe FFF7FEFF 		bl	HAL_UARTEx_WakeupCallback
1689:d:/LiteOS_Lab/drivers/third_party/ST/STM32L4xx_HAL_Driver/Src\stm32l4xx_hal_uart.c ****     return;
 3537              		.loc 1 1689 5
 3538 0202 1CE0     		b	.L155
 3539              	.L172:
1690:d:/LiteOS_Lab/drivers/third_party/ST/STM32L4xx_HAL_Driver/Src\stm32l4xx_hal_uart.c ****   }
1691:d:/LiteOS_Lab/drivers/third_party/ST/STM32L4xx_HAL_Driver/Src\stm32l4xx_hal_uart.c **** 
1692:d:/LiteOS_Lab/drivers/third_party/ST/STM32L4xx_HAL_Driver/Src\stm32l4xx_hal_uart.c ****   /* UART in mode Transmitter ------------------------------------------------*/
1693:d:/LiteOS_Lab/drivers/third_party/ST/STM32L4xx_HAL_Driver/Src\stm32l4xx_hal_uart.c ****   if(((isrflags & USART_ISR_TXE) != RESET) && ((cr1its & USART_CR1_TXEIE) != RESET))
 3540              		.loc 1 1693 17
 3541 0204 7B69     		ldr	r3, [r7, #20]
 3542 0206 03F08003 		and	r3, r3, #128
 3543              		.loc 1 1693 5
 3544 020a 002B     		cmp	r3, #0
 3545 020c 08D0     		beq	.L173
 3546              		.loc 1 1693 56 discriminator 1
 3547 020e 3B69     		ldr	r3, [r7, #16]
 3548 0210 03F08003 		and	r3, r3, #128
 3549              		.loc 1 1693 44 discriminator 1
 3550 0214 002B     		cmp	r3, #0
 3551 0216 03D0     		beq	.L173
1694:d:/LiteOS_Lab/drivers/third_party/ST/STM32L4xx_HAL_Driver/Src\stm32l4xx_hal_uart.c ****   {
1695:d:/LiteOS_Lab/drivers/third_party/ST/STM32L4xx_HAL_Driver/Src\stm32l4xx_hal_uart.c ****     UART_Transmit_IT(huart);
 3552              		.loc 1 1695 5
 3553 0218 7868     		ldr	r0, [r7, #4]
 3554 021a FFF7FEFF 		bl	UART_Transmit_IT
1696:d:/LiteOS_Lab/drivers/third_party/ST/STM32L4xx_HAL_Driver/Src\stm32l4xx_hal_uart.c ****     return;
 3555              		.loc 1 1696 5
 3556 021e 0EE0     		b	.L155
 3557              	.L173:
1697:d:/LiteOS_Lab/drivers/third_party/ST/STM32L4xx_HAL_Driver/Src\stm32l4xx_hal_uart.c ****   }
1698:d:/LiteOS_Lab/drivers/third_party/ST/STM32L4xx_HAL_Driver/Src\stm32l4xx_hal_uart.c **** 
1699:d:/LiteOS_Lab/drivers/third_party/ST/STM32L4xx_HAL_Driver/Src\stm32l4xx_hal_uart.c ****   /* UART in mode Transmitter (transmission end) -----------------------------*/
1700:d:/LiteOS_Lab/drivers/third_party/ST/STM32L4xx_HAL_Driver/Src\stm32l4xx_hal_uart.c ****   if(((isrflags & USART_ISR_TC) != RESET) && ((cr1its & USART_CR1_TCIE) != RESET))
 3558              		.loc 1 1700 17
 3559 0220 7B69     		ldr	r3, [r7, #20]
 3560 0222 03F04003 		and	r3, r3, #64
 3561              		.loc 1 1700 5
 3562 0226 002B     		cmp	r3, #0
 3563 0228 09D0     		beq	.L155
 3564              		.loc 1 1700 55 discriminator 1
 3565 022a 3B69     		ldr	r3, [r7, #16]
 3566 022c 03F04003 		and	r3, r3, #64
 3567              		.loc 1 1700 43 discriminator 1
 3568 0230 002B     		cmp	r3, #0
 3569 0232 04D0     		beq	.L155
1701:d:/LiteOS_Lab/drivers/third_party/ST/STM32L4xx_HAL_Driver/Src\stm32l4xx_hal_uart.c ****   {
1702:d:/LiteOS_Lab/drivers/third_party/ST/STM32L4xx_HAL_Driver/Src\stm32l4xx_hal_uart.c ****     UART_EndTransmit_IT(huart);
 3570              		.loc 1 1702 5
 3571 0234 7868     		ldr	r0, [r7, #4]
 3572 0236 FFF7FEFF 		bl	UART_EndTransmit_IT
1703:d:/LiteOS_Lab/drivers/third_party/ST/STM32L4xx_HAL_Driver/Src\stm32l4xx_hal_uart.c ****     return;
ARM GAS  C:\Users\ADMINI~1\AppData\Local\Temp\ccHDbRvY.s 			page 93


 3573              		.loc 1 1703 5
 3574 023a 00E0     		b	.L155
 3575              	.L174:
1676:d:/LiteOS_Lab/drivers/third_party/ST/STM32L4xx_HAL_Driver/Src\stm32l4xx_hal_uart.c **** 
 3576              		.loc 1 1676 5
 3577 023c 00BF     		nop
 3578              	.L155:
1704:d:/LiteOS_Lab/drivers/third_party/ST/STM32L4xx_HAL_Driver/Src\stm32l4xx_hal_uart.c ****   }
1705:d:/LiteOS_Lab/drivers/third_party/ST/STM32L4xx_HAL_Driver/Src\stm32l4xx_hal_uart.c **** 
1706:d:/LiteOS_Lab/drivers/third_party/ST/STM32L4xx_HAL_Driver/Src\stm32l4xx_hal_uart.c **** }
 3579              		.loc 1 1706 1
 3580 023e 1837     		adds	r7, r7, #24
 3581              	.LCFI119:
 3582              		.cfi_def_cfa_offset 8
 3583 0240 BD46     		mov	sp, r7
 3584              	.LCFI120:
 3585              		.cfi_def_cfa_register 13
 3586              		@ sp needed
 3587 0242 80BD     		pop	{r7, pc}
 3588              	.L177:
 3589              		.align	2
 3590              	.L176:
 3591 0244 00000000 		.word	UART_DMAAbortOnError
 3592              		.cfi_endproc
 3593              	.LFE309:
 3595              		.section	.text.HAL_UART_TxCpltCallback,"ax",%progbits
 3596              		.align	1
 3597              		.weak	HAL_UART_TxCpltCallback
 3598              		.syntax unified
 3599              		.thumb
 3600              		.thumb_func
 3601              		.fpu fpv4-sp-d16
 3603              	HAL_UART_TxCpltCallback:
 3604              	.LFB310:
1707:d:/LiteOS_Lab/drivers/third_party/ST/STM32L4xx_HAL_Driver/Src\stm32l4xx_hal_uart.c **** 
1708:d:/LiteOS_Lab/drivers/third_party/ST/STM32L4xx_HAL_Driver/Src\stm32l4xx_hal_uart.c **** /**
1709:d:/LiteOS_Lab/drivers/third_party/ST/STM32L4xx_HAL_Driver/Src\stm32l4xx_hal_uart.c ****   * @brief Tx Transfer completed callback.
1710:d:/LiteOS_Lab/drivers/third_party/ST/STM32L4xx_HAL_Driver/Src\stm32l4xx_hal_uart.c ****   * @param huart: UART handle.
1711:d:/LiteOS_Lab/drivers/third_party/ST/STM32L4xx_HAL_Driver/Src\stm32l4xx_hal_uart.c ****   * @retval None
1712:d:/LiteOS_Lab/drivers/third_party/ST/STM32L4xx_HAL_Driver/Src\stm32l4xx_hal_uart.c ****   */
1713:d:/LiteOS_Lab/drivers/third_party/ST/STM32L4xx_HAL_Driver/Src\stm32l4xx_hal_uart.c **** __weak void HAL_UART_TxCpltCallback(UART_HandleTypeDef *huart)
1714:d:/LiteOS_Lab/drivers/third_party/ST/STM32L4xx_HAL_Driver/Src\stm32l4xx_hal_uart.c **** {
 3605              		.loc 1 1714 1
 3606              		.cfi_startproc
 3607              		@ args = 0, pretend = 0, frame = 8
 3608              		@ frame_needed = 1, uses_anonymous_args = 0
 3609              		@ link register save eliminated.
 3610 0000 80B4     		push	{r7}
 3611              	.LCFI121:
 3612              		.cfi_def_cfa_offset 4
 3613              		.cfi_offset 7, -4
 3614 0002 83B0     		sub	sp, sp, #12
 3615              	.LCFI122:
 3616              		.cfi_def_cfa_offset 16
 3617 0004 00AF     		add	r7, sp, #0
 3618              	.LCFI123:
 3619              		.cfi_def_cfa_register 7
ARM GAS  C:\Users\ADMINI~1\AppData\Local\Temp\ccHDbRvY.s 			page 94


 3620 0006 7860     		str	r0, [r7, #4]
1715:d:/LiteOS_Lab/drivers/third_party/ST/STM32L4xx_HAL_Driver/Src\stm32l4xx_hal_uart.c ****   /* Prevent unused argument(s) compilation warning */
1716:d:/LiteOS_Lab/drivers/third_party/ST/STM32L4xx_HAL_Driver/Src\stm32l4xx_hal_uart.c ****   UNUSED(huart);
1717:d:/LiteOS_Lab/drivers/third_party/ST/STM32L4xx_HAL_Driver/Src\stm32l4xx_hal_uart.c **** 
1718:d:/LiteOS_Lab/drivers/third_party/ST/STM32L4xx_HAL_Driver/Src\stm32l4xx_hal_uart.c ****   /* NOTE : This function should not be modified, when the callback is needed,
1719:d:/LiteOS_Lab/drivers/third_party/ST/STM32L4xx_HAL_Driver/Src\stm32l4xx_hal_uart.c ****             the HAL_UART_TxCpltCallback can be implemented in the user file.
1720:d:/LiteOS_Lab/drivers/third_party/ST/STM32L4xx_HAL_Driver/Src\stm32l4xx_hal_uart.c ****    */
1721:d:/LiteOS_Lab/drivers/third_party/ST/STM32L4xx_HAL_Driver/Src\stm32l4xx_hal_uart.c **** }
 3621              		.loc 1 1721 1
 3622 0008 00BF     		nop
 3623 000a 0C37     		adds	r7, r7, #12
 3624              	.LCFI124:
 3625              		.cfi_def_cfa_offset 4
 3626 000c BD46     		mov	sp, r7
 3627              	.LCFI125:
 3628              		.cfi_def_cfa_register 13
 3629              		@ sp needed
 3630 000e 5DF8047B 		ldr	r7, [sp], #4
 3631              	.LCFI126:
 3632              		.cfi_restore 7
 3633              		.cfi_def_cfa_offset 0
 3634 0012 7047     		bx	lr
 3635              		.cfi_endproc
 3636              	.LFE310:
 3638              		.section	.text.HAL_UART_TxHalfCpltCallback,"ax",%progbits
 3639              		.align	1
 3640              		.weak	HAL_UART_TxHalfCpltCallback
 3641              		.syntax unified
 3642              		.thumb
 3643              		.thumb_func
 3644              		.fpu fpv4-sp-d16
 3646              	HAL_UART_TxHalfCpltCallback:
 3647              	.LFB311:
1722:d:/LiteOS_Lab/drivers/third_party/ST/STM32L4xx_HAL_Driver/Src\stm32l4xx_hal_uart.c **** 
1723:d:/LiteOS_Lab/drivers/third_party/ST/STM32L4xx_HAL_Driver/Src\stm32l4xx_hal_uart.c **** /**
1724:d:/LiteOS_Lab/drivers/third_party/ST/STM32L4xx_HAL_Driver/Src\stm32l4xx_hal_uart.c ****   * @brief  Tx Half Transfer completed callback.
1725:d:/LiteOS_Lab/drivers/third_party/ST/STM32L4xx_HAL_Driver/Src\stm32l4xx_hal_uart.c ****   * @param  huart: UART handle.
1726:d:/LiteOS_Lab/drivers/third_party/ST/STM32L4xx_HAL_Driver/Src\stm32l4xx_hal_uart.c ****   * @retval None
1727:d:/LiteOS_Lab/drivers/third_party/ST/STM32L4xx_HAL_Driver/Src\stm32l4xx_hal_uart.c ****   */
1728:d:/LiteOS_Lab/drivers/third_party/ST/STM32L4xx_HAL_Driver/Src\stm32l4xx_hal_uart.c **** __weak void HAL_UART_TxHalfCpltCallback(UART_HandleTypeDef *huart)
1729:d:/LiteOS_Lab/drivers/third_party/ST/STM32L4xx_HAL_Driver/Src\stm32l4xx_hal_uart.c **** {
 3648              		.loc 1 1729 1
 3649              		.cfi_startproc
 3650              		@ args = 0, pretend = 0, frame = 8
 3651              		@ frame_needed = 1, uses_anonymous_args = 0
 3652              		@ link register save eliminated.
 3653 0000 80B4     		push	{r7}
 3654              	.LCFI127:
 3655              		.cfi_def_cfa_offset 4
 3656              		.cfi_offset 7, -4
 3657 0002 83B0     		sub	sp, sp, #12
 3658              	.LCFI128:
 3659              		.cfi_def_cfa_offset 16
 3660 0004 00AF     		add	r7, sp, #0
 3661              	.LCFI129:
 3662              		.cfi_def_cfa_register 7
 3663 0006 7860     		str	r0, [r7, #4]
ARM GAS  C:\Users\ADMINI~1\AppData\Local\Temp\ccHDbRvY.s 			page 95


1730:d:/LiteOS_Lab/drivers/third_party/ST/STM32L4xx_HAL_Driver/Src\stm32l4xx_hal_uart.c ****   /* Prevent unused argument(s) compilation warning */
1731:d:/LiteOS_Lab/drivers/third_party/ST/STM32L4xx_HAL_Driver/Src\stm32l4xx_hal_uart.c ****   UNUSED(huart);
1732:d:/LiteOS_Lab/drivers/third_party/ST/STM32L4xx_HAL_Driver/Src\stm32l4xx_hal_uart.c **** 
1733:d:/LiteOS_Lab/drivers/third_party/ST/STM32L4xx_HAL_Driver/Src\stm32l4xx_hal_uart.c ****   /* NOTE: This function should not be modified, when the callback is needed,
1734:d:/LiteOS_Lab/drivers/third_party/ST/STM32L4xx_HAL_Driver/Src\stm32l4xx_hal_uart.c ****            the HAL_UART_TxHalfCpltCallback can be implemented in the user file.
1735:d:/LiteOS_Lab/drivers/third_party/ST/STM32L4xx_HAL_Driver/Src\stm32l4xx_hal_uart.c ****    */
1736:d:/LiteOS_Lab/drivers/third_party/ST/STM32L4xx_HAL_Driver/Src\stm32l4xx_hal_uart.c **** }
 3664              		.loc 1 1736 1
 3665 0008 00BF     		nop
 3666 000a 0C37     		adds	r7, r7, #12
 3667              	.LCFI130:
 3668              		.cfi_def_cfa_offset 4
 3669 000c BD46     		mov	sp, r7
 3670              	.LCFI131:
 3671              		.cfi_def_cfa_register 13
 3672              		@ sp needed
 3673 000e 5DF8047B 		ldr	r7, [sp], #4
 3674              	.LCFI132:
 3675              		.cfi_restore 7
 3676              		.cfi_def_cfa_offset 0
 3677 0012 7047     		bx	lr
 3678              		.cfi_endproc
 3679              	.LFE311:
 3681              		.section	.text.HAL_UART_RxCpltCallback,"ax",%progbits
 3682              		.align	1
 3683              		.weak	HAL_UART_RxCpltCallback
 3684              		.syntax unified
 3685              		.thumb
 3686              		.thumb_func
 3687              		.fpu fpv4-sp-d16
 3689              	HAL_UART_RxCpltCallback:
 3690              	.LFB312:
1737:d:/LiteOS_Lab/drivers/third_party/ST/STM32L4xx_HAL_Driver/Src\stm32l4xx_hal_uart.c **** 
1738:d:/LiteOS_Lab/drivers/third_party/ST/STM32L4xx_HAL_Driver/Src\stm32l4xx_hal_uart.c **** /**
1739:d:/LiteOS_Lab/drivers/third_party/ST/STM32L4xx_HAL_Driver/Src\stm32l4xx_hal_uart.c ****   * @brief Rx Transfer completed callback.
1740:d:/LiteOS_Lab/drivers/third_party/ST/STM32L4xx_HAL_Driver/Src\stm32l4xx_hal_uart.c ****   * @param huart: UART handle.
1741:d:/LiteOS_Lab/drivers/third_party/ST/STM32L4xx_HAL_Driver/Src\stm32l4xx_hal_uart.c ****   * @retval None
1742:d:/LiteOS_Lab/drivers/third_party/ST/STM32L4xx_HAL_Driver/Src\stm32l4xx_hal_uart.c ****   */
1743:d:/LiteOS_Lab/drivers/third_party/ST/STM32L4xx_HAL_Driver/Src\stm32l4xx_hal_uart.c **** __weak void HAL_UART_RxCpltCallback(UART_HandleTypeDef *huart)
1744:d:/LiteOS_Lab/drivers/third_party/ST/STM32L4xx_HAL_Driver/Src\stm32l4xx_hal_uart.c **** {
 3691              		.loc 1 1744 1
 3692              		.cfi_startproc
 3693              		@ args = 0, pretend = 0, frame = 8
 3694              		@ frame_needed = 1, uses_anonymous_args = 0
 3695              		@ link register save eliminated.
 3696 0000 80B4     		push	{r7}
 3697              	.LCFI133:
 3698              		.cfi_def_cfa_offset 4
 3699              		.cfi_offset 7, -4
 3700 0002 83B0     		sub	sp, sp, #12
 3701              	.LCFI134:
 3702              		.cfi_def_cfa_offset 16
 3703 0004 00AF     		add	r7, sp, #0
 3704              	.LCFI135:
 3705              		.cfi_def_cfa_register 7
 3706 0006 7860     		str	r0, [r7, #4]
1745:d:/LiteOS_Lab/drivers/third_party/ST/STM32L4xx_HAL_Driver/Src\stm32l4xx_hal_uart.c ****   /* Prevent unused argument(s) compilation warning */
ARM GAS  C:\Users\ADMINI~1\AppData\Local\Temp\ccHDbRvY.s 			page 96


1746:d:/LiteOS_Lab/drivers/third_party/ST/STM32L4xx_HAL_Driver/Src\stm32l4xx_hal_uart.c ****   UNUSED(huart);
1747:d:/LiteOS_Lab/drivers/third_party/ST/STM32L4xx_HAL_Driver/Src\stm32l4xx_hal_uart.c **** 
1748:d:/LiteOS_Lab/drivers/third_party/ST/STM32L4xx_HAL_Driver/Src\stm32l4xx_hal_uart.c ****   /* NOTE : This function should not be modified, when the callback is needed,
1749:d:/LiteOS_Lab/drivers/third_party/ST/STM32L4xx_HAL_Driver/Src\stm32l4xx_hal_uart.c ****             the HAL_UART_RxCpltCallback can be implemented in the user file.
1750:d:/LiteOS_Lab/drivers/third_party/ST/STM32L4xx_HAL_Driver/Src\stm32l4xx_hal_uart.c ****    */
1751:d:/LiteOS_Lab/drivers/third_party/ST/STM32L4xx_HAL_Driver/Src\stm32l4xx_hal_uart.c **** }
 3707              		.loc 1 1751 1
 3708 0008 00BF     		nop
 3709 000a 0C37     		adds	r7, r7, #12
 3710              	.LCFI136:
 3711              		.cfi_def_cfa_offset 4
 3712 000c BD46     		mov	sp, r7
 3713              	.LCFI137:
 3714              		.cfi_def_cfa_register 13
 3715              		@ sp needed
 3716 000e 5DF8047B 		ldr	r7, [sp], #4
 3717              	.LCFI138:
 3718              		.cfi_restore 7
 3719              		.cfi_def_cfa_offset 0
 3720 0012 7047     		bx	lr
 3721              		.cfi_endproc
 3722              	.LFE312:
 3724              		.section	.text.HAL_UART_RxHalfCpltCallback,"ax",%progbits
 3725              		.align	1
 3726              		.weak	HAL_UART_RxHalfCpltCallback
 3727              		.syntax unified
 3728              		.thumb
 3729              		.thumb_func
 3730              		.fpu fpv4-sp-d16
 3732              	HAL_UART_RxHalfCpltCallback:
 3733              	.LFB313:
1752:d:/LiteOS_Lab/drivers/third_party/ST/STM32L4xx_HAL_Driver/Src\stm32l4xx_hal_uart.c **** 
1753:d:/LiteOS_Lab/drivers/third_party/ST/STM32L4xx_HAL_Driver/Src\stm32l4xx_hal_uart.c **** /**
1754:d:/LiteOS_Lab/drivers/third_party/ST/STM32L4xx_HAL_Driver/Src\stm32l4xx_hal_uart.c ****   * @brief  Rx Half Transfer completed callback.
1755:d:/LiteOS_Lab/drivers/third_party/ST/STM32L4xx_HAL_Driver/Src\stm32l4xx_hal_uart.c ****   * @param  huart: UART handle.
1756:d:/LiteOS_Lab/drivers/third_party/ST/STM32L4xx_HAL_Driver/Src\stm32l4xx_hal_uart.c ****   * @retval None
1757:d:/LiteOS_Lab/drivers/third_party/ST/STM32L4xx_HAL_Driver/Src\stm32l4xx_hal_uart.c ****   */
1758:d:/LiteOS_Lab/drivers/third_party/ST/STM32L4xx_HAL_Driver/Src\stm32l4xx_hal_uart.c **** __weak void HAL_UART_RxHalfCpltCallback(UART_HandleTypeDef *huart)
1759:d:/LiteOS_Lab/drivers/third_party/ST/STM32L4xx_HAL_Driver/Src\stm32l4xx_hal_uart.c **** {
 3734              		.loc 1 1759 1
 3735              		.cfi_startproc
 3736              		@ args = 0, pretend = 0, frame = 8
 3737              		@ frame_needed = 1, uses_anonymous_args = 0
 3738              		@ link register save eliminated.
 3739 0000 80B4     		push	{r7}
 3740              	.LCFI139:
 3741              		.cfi_def_cfa_offset 4
 3742              		.cfi_offset 7, -4
 3743 0002 83B0     		sub	sp, sp, #12
 3744              	.LCFI140:
 3745              		.cfi_def_cfa_offset 16
 3746 0004 00AF     		add	r7, sp, #0
 3747              	.LCFI141:
 3748              		.cfi_def_cfa_register 7
 3749 0006 7860     		str	r0, [r7, #4]
1760:d:/LiteOS_Lab/drivers/third_party/ST/STM32L4xx_HAL_Driver/Src\stm32l4xx_hal_uart.c ****   /* Prevent unused argument(s) compilation warning */
1761:d:/LiteOS_Lab/drivers/third_party/ST/STM32L4xx_HAL_Driver/Src\stm32l4xx_hal_uart.c ****   UNUSED(huart);
ARM GAS  C:\Users\ADMINI~1\AppData\Local\Temp\ccHDbRvY.s 			page 97


1762:d:/LiteOS_Lab/drivers/third_party/ST/STM32L4xx_HAL_Driver/Src\stm32l4xx_hal_uart.c **** 
1763:d:/LiteOS_Lab/drivers/third_party/ST/STM32L4xx_HAL_Driver/Src\stm32l4xx_hal_uart.c ****   /* NOTE: This function should not be modified, when the callback is needed,
1764:d:/LiteOS_Lab/drivers/third_party/ST/STM32L4xx_HAL_Driver/Src\stm32l4xx_hal_uart.c ****            the HAL_UART_RxHalfCpltCallback can be implemented in the user file.
1765:d:/LiteOS_Lab/drivers/third_party/ST/STM32L4xx_HAL_Driver/Src\stm32l4xx_hal_uart.c ****    */
1766:d:/LiteOS_Lab/drivers/third_party/ST/STM32L4xx_HAL_Driver/Src\stm32l4xx_hal_uart.c **** }
 3750              		.loc 1 1766 1
 3751 0008 00BF     		nop
 3752 000a 0C37     		adds	r7, r7, #12
 3753              	.LCFI142:
 3754              		.cfi_def_cfa_offset 4
 3755 000c BD46     		mov	sp, r7
 3756              	.LCFI143:
 3757              		.cfi_def_cfa_register 13
 3758              		@ sp needed
 3759 000e 5DF8047B 		ldr	r7, [sp], #4
 3760              	.LCFI144:
 3761              		.cfi_restore 7
 3762              		.cfi_def_cfa_offset 0
 3763 0012 7047     		bx	lr
 3764              		.cfi_endproc
 3765              	.LFE313:
 3767              		.section	.text.HAL_UART_ErrorCallback,"ax",%progbits
 3768              		.align	1
 3769              		.weak	HAL_UART_ErrorCallback
 3770              		.syntax unified
 3771              		.thumb
 3772              		.thumb_func
 3773              		.fpu fpv4-sp-d16
 3775              	HAL_UART_ErrorCallback:
 3776              	.LFB314:
1767:d:/LiteOS_Lab/drivers/third_party/ST/STM32L4xx_HAL_Driver/Src\stm32l4xx_hal_uart.c **** 
1768:d:/LiteOS_Lab/drivers/third_party/ST/STM32L4xx_HAL_Driver/Src\stm32l4xx_hal_uart.c **** /**
1769:d:/LiteOS_Lab/drivers/third_party/ST/STM32L4xx_HAL_Driver/Src\stm32l4xx_hal_uart.c ****   * @brief UART error callback.
1770:d:/LiteOS_Lab/drivers/third_party/ST/STM32L4xx_HAL_Driver/Src\stm32l4xx_hal_uart.c ****   * @param huart: UART handle.
1771:d:/LiteOS_Lab/drivers/third_party/ST/STM32L4xx_HAL_Driver/Src\stm32l4xx_hal_uart.c ****   * @retval None
1772:d:/LiteOS_Lab/drivers/third_party/ST/STM32L4xx_HAL_Driver/Src\stm32l4xx_hal_uart.c ****   */
1773:d:/LiteOS_Lab/drivers/third_party/ST/STM32L4xx_HAL_Driver/Src\stm32l4xx_hal_uart.c **** __weak void HAL_UART_ErrorCallback(UART_HandleTypeDef *huart)
1774:d:/LiteOS_Lab/drivers/third_party/ST/STM32L4xx_HAL_Driver/Src\stm32l4xx_hal_uart.c **** {
 3777              		.loc 1 1774 1
 3778              		.cfi_startproc
 3779              		@ args = 0, pretend = 0, frame = 8
 3780              		@ frame_needed = 1, uses_anonymous_args = 0
 3781              		@ link register save eliminated.
 3782 0000 80B4     		push	{r7}
 3783              	.LCFI145:
 3784              		.cfi_def_cfa_offset 4
 3785              		.cfi_offset 7, -4
 3786 0002 83B0     		sub	sp, sp, #12
 3787              	.LCFI146:
 3788              		.cfi_def_cfa_offset 16
 3789 0004 00AF     		add	r7, sp, #0
 3790              	.LCFI147:
 3791              		.cfi_def_cfa_register 7
 3792 0006 7860     		str	r0, [r7, #4]
1775:d:/LiteOS_Lab/drivers/third_party/ST/STM32L4xx_HAL_Driver/Src\stm32l4xx_hal_uart.c ****   /* Prevent unused argument(s) compilation warning */
1776:d:/LiteOS_Lab/drivers/third_party/ST/STM32L4xx_HAL_Driver/Src\stm32l4xx_hal_uart.c ****   UNUSED(huart);
1777:d:/LiteOS_Lab/drivers/third_party/ST/STM32L4xx_HAL_Driver/Src\stm32l4xx_hal_uart.c **** 
ARM GAS  C:\Users\ADMINI~1\AppData\Local\Temp\ccHDbRvY.s 			page 98


1778:d:/LiteOS_Lab/drivers/third_party/ST/STM32L4xx_HAL_Driver/Src\stm32l4xx_hal_uart.c ****   /* NOTE : This function should not be modified, when the callback is needed,
1779:d:/LiteOS_Lab/drivers/third_party/ST/STM32L4xx_HAL_Driver/Src\stm32l4xx_hal_uart.c ****             the HAL_UART_ErrorCallback can be implemented in the user file.
1780:d:/LiteOS_Lab/drivers/third_party/ST/STM32L4xx_HAL_Driver/Src\stm32l4xx_hal_uart.c ****    */
1781:d:/LiteOS_Lab/drivers/third_party/ST/STM32L4xx_HAL_Driver/Src\stm32l4xx_hal_uart.c **** }
 3793              		.loc 1 1781 1
 3794 0008 00BF     		nop
 3795 000a 0C37     		adds	r7, r7, #12
 3796              	.LCFI148:
 3797              		.cfi_def_cfa_offset 4
 3798 000c BD46     		mov	sp, r7
 3799              	.LCFI149:
 3800              		.cfi_def_cfa_register 13
 3801              		@ sp needed
 3802 000e 5DF8047B 		ldr	r7, [sp], #4
 3803              	.LCFI150:
 3804              		.cfi_restore 7
 3805              		.cfi_def_cfa_offset 0
 3806 0012 7047     		bx	lr
 3807              		.cfi_endproc
 3808              	.LFE314:
 3810              		.section	.text.HAL_UART_AbortCpltCallback,"ax",%progbits
 3811              		.align	1
 3812              		.weak	HAL_UART_AbortCpltCallback
 3813              		.syntax unified
 3814              		.thumb
 3815              		.thumb_func
 3816              		.fpu fpv4-sp-d16
 3818              	HAL_UART_AbortCpltCallback:
 3819              	.LFB315:
1782:d:/LiteOS_Lab/drivers/third_party/ST/STM32L4xx_HAL_Driver/Src\stm32l4xx_hal_uart.c **** 
1783:d:/LiteOS_Lab/drivers/third_party/ST/STM32L4xx_HAL_Driver/Src\stm32l4xx_hal_uart.c **** /**
1784:d:/LiteOS_Lab/drivers/third_party/ST/STM32L4xx_HAL_Driver/Src\stm32l4xx_hal_uart.c ****   * @brief  UART Abort Complete callback.
1785:d:/LiteOS_Lab/drivers/third_party/ST/STM32L4xx_HAL_Driver/Src\stm32l4xx_hal_uart.c ****   * @param  huart UART handle.
1786:d:/LiteOS_Lab/drivers/third_party/ST/STM32L4xx_HAL_Driver/Src\stm32l4xx_hal_uart.c ****   * @retval None
1787:d:/LiteOS_Lab/drivers/third_party/ST/STM32L4xx_HAL_Driver/Src\stm32l4xx_hal_uart.c ****   */
1788:d:/LiteOS_Lab/drivers/third_party/ST/STM32L4xx_HAL_Driver/Src\stm32l4xx_hal_uart.c **** __weak void HAL_UART_AbortCpltCallback (UART_HandleTypeDef *huart)
1789:d:/LiteOS_Lab/drivers/third_party/ST/STM32L4xx_HAL_Driver/Src\stm32l4xx_hal_uart.c **** {
 3820              		.loc 1 1789 1
 3821              		.cfi_startproc
 3822              		@ args = 0, pretend = 0, frame = 8
 3823              		@ frame_needed = 1, uses_anonymous_args = 0
 3824              		@ link register save eliminated.
 3825 0000 80B4     		push	{r7}
 3826              	.LCFI151:
 3827              		.cfi_def_cfa_offset 4
 3828              		.cfi_offset 7, -4
 3829 0002 83B0     		sub	sp, sp, #12
 3830              	.LCFI152:
 3831              		.cfi_def_cfa_offset 16
 3832 0004 00AF     		add	r7, sp, #0
 3833              	.LCFI153:
 3834              		.cfi_def_cfa_register 7
 3835 0006 7860     		str	r0, [r7, #4]
1790:d:/LiteOS_Lab/drivers/third_party/ST/STM32L4xx_HAL_Driver/Src\stm32l4xx_hal_uart.c ****   /* Prevent unused argument(s) compilation warning */
1791:d:/LiteOS_Lab/drivers/third_party/ST/STM32L4xx_HAL_Driver/Src\stm32l4xx_hal_uart.c ****   UNUSED(huart);
1792:d:/LiteOS_Lab/drivers/third_party/ST/STM32L4xx_HAL_Driver/Src\stm32l4xx_hal_uart.c **** 
1793:d:/LiteOS_Lab/drivers/third_party/ST/STM32L4xx_HAL_Driver/Src\stm32l4xx_hal_uart.c ****   /* NOTE : This function should not be modified, when the callback is needed,
ARM GAS  C:\Users\ADMINI~1\AppData\Local\Temp\ccHDbRvY.s 			page 99


1794:d:/LiteOS_Lab/drivers/third_party/ST/STM32L4xx_HAL_Driver/Src\stm32l4xx_hal_uart.c ****             the HAL_UART_AbortCpltCallback can be implemented in the user file.
1795:d:/LiteOS_Lab/drivers/third_party/ST/STM32L4xx_HAL_Driver/Src\stm32l4xx_hal_uart.c ****    */
1796:d:/LiteOS_Lab/drivers/third_party/ST/STM32L4xx_HAL_Driver/Src\stm32l4xx_hal_uart.c **** }
 3836              		.loc 1 1796 1
 3837 0008 00BF     		nop
 3838 000a 0C37     		adds	r7, r7, #12
 3839              	.LCFI154:
 3840              		.cfi_def_cfa_offset 4
 3841 000c BD46     		mov	sp, r7
 3842              	.LCFI155:
 3843              		.cfi_def_cfa_register 13
 3844              		@ sp needed
 3845 000e 5DF8047B 		ldr	r7, [sp], #4
 3846              	.LCFI156:
 3847              		.cfi_restore 7
 3848              		.cfi_def_cfa_offset 0
 3849 0012 7047     		bx	lr
 3850              		.cfi_endproc
 3851              	.LFE315:
 3853              		.section	.text.HAL_UART_AbortTransmitCpltCallback,"ax",%progbits
 3854              		.align	1
 3855              		.weak	HAL_UART_AbortTransmitCpltCallback
 3856              		.syntax unified
 3857              		.thumb
 3858              		.thumb_func
 3859              		.fpu fpv4-sp-d16
 3861              	HAL_UART_AbortTransmitCpltCallback:
 3862              	.LFB316:
1797:d:/LiteOS_Lab/drivers/third_party/ST/STM32L4xx_HAL_Driver/Src\stm32l4xx_hal_uart.c **** 
1798:d:/LiteOS_Lab/drivers/third_party/ST/STM32L4xx_HAL_Driver/Src\stm32l4xx_hal_uart.c **** /**
1799:d:/LiteOS_Lab/drivers/third_party/ST/STM32L4xx_HAL_Driver/Src\stm32l4xx_hal_uart.c ****   * @brief  UART Abort Complete callback.
1800:d:/LiteOS_Lab/drivers/third_party/ST/STM32L4xx_HAL_Driver/Src\stm32l4xx_hal_uart.c ****   * @param  huart UART handle.
1801:d:/LiteOS_Lab/drivers/third_party/ST/STM32L4xx_HAL_Driver/Src\stm32l4xx_hal_uart.c ****   * @retval None
1802:d:/LiteOS_Lab/drivers/third_party/ST/STM32L4xx_HAL_Driver/Src\stm32l4xx_hal_uart.c ****   */
1803:d:/LiteOS_Lab/drivers/third_party/ST/STM32L4xx_HAL_Driver/Src\stm32l4xx_hal_uart.c **** __weak void HAL_UART_AbortTransmitCpltCallback (UART_HandleTypeDef *huart)
1804:d:/LiteOS_Lab/drivers/third_party/ST/STM32L4xx_HAL_Driver/Src\stm32l4xx_hal_uart.c **** {
 3863              		.loc 1 1804 1
 3864              		.cfi_startproc
 3865              		@ args = 0, pretend = 0, frame = 8
 3866              		@ frame_needed = 1, uses_anonymous_args = 0
 3867              		@ link register save eliminated.
 3868 0000 80B4     		push	{r7}
 3869              	.LCFI157:
 3870              		.cfi_def_cfa_offset 4
 3871              		.cfi_offset 7, -4
 3872 0002 83B0     		sub	sp, sp, #12
 3873              	.LCFI158:
 3874              		.cfi_def_cfa_offset 16
 3875 0004 00AF     		add	r7, sp, #0
 3876              	.LCFI159:
 3877              		.cfi_def_cfa_register 7
 3878 0006 7860     		str	r0, [r7, #4]
1805:d:/LiteOS_Lab/drivers/third_party/ST/STM32L4xx_HAL_Driver/Src\stm32l4xx_hal_uart.c ****   /* Prevent unused argument(s) compilation warning */
1806:d:/LiteOS_Lab/drivers/third_party/ST/STM32L4xx_HAL_Driver/Src\stm32l4xx_hal_uart.c ****   UNUSED(huart);
1807:d:/LiteOS_Lab/drivers/third_party/ST/STM32L4xx_HAL_Driver/Src\stm32l4xx_hal_uart.c **** 
1808:d:/LiteOS_Lab/drivers/third_party/ST/STM32L4xx_HAL_Driver/Src\stm32l4xx_hal_uart.c ****   /* NOTE : This function should not be modified, when the callback is needed,
1809:d:/LiteOS_Lab/drivers/third_party/ST/STM32L4xx_HAL_Driver/Src\stm32l4xx_hal_uart.c ****             the HAL_UART_AbortTransmitCpltCallback can be implemented in the user file.
ARM GAS  C:\Users\ADMINI~1\AppData\Local\Temp\ccHDbRvY.s 			page 100


1810:d:/LiteOS_Lab/drivers/third_party/ST/STM32L4xx_HAL_Driver/Src\stm32l4xx_hal_uart.c ****    */
1811:d:/LiteOS_Lab/drivers/third_party/ST/STM32L4xx_HAL_Driver/Src\stm32l4xx_hal_uart.c **** }
 3879              		.loc 1 1811 1
 3880 0008 00BF     		nop
 3881 000a 0C37     		adds	r7, r7, #12
 3882              	.LCFI160:
 3883              		.cfi_def_cfa_offset 4
 3884 000c BD46     		mov	sp, r7
 3885              	.LCFI161:
 3886              		.cfi_def_cfa_register 13
 3887              		@ sp needed
 3888 000e 5DF8047B 		ldr	r7, [sp], #4
 3889              	.LCFI162:
 3890              		.cfi_restore 7
 3891              		.cfi_def_cfa_offset 0
 3892 0012 7047     		bx	lr
 3893              		.cfi_endproc
 3894              	.LFE316:
 3896              		.section	.text.HAL_UART_AbortReceiveCpltCallback,"ax",%progbits
 3897              		.align	1
 3898              		.weak	HAL_UART_AbortReceiveCpltCallback
 3899              		.syntax unified
 3900              		.thumb
 3901              		.thumb_func
 3902              		.fpu fpv4-sp-d16
 3904              	HAL_UART_AbortReceiveCpltCallback:
 3905              	.LFB317:
1812:d:/LiteOS_Lab/drivers/third_party/ST/STM32L4xx_HAL_Driver/Src\stm32l4xx_hal_uart.c **** 
1813:d:/LiteOS_Lab/drivers/third_party/ST/STM32L4xx_HAL_Driver/Src\stm32l4xx_hal_uart.c **** /**
1814:d:/LiteOS_Lab/drivers/third_party/ST/STM32L4xx_HAL_Driver/Src\stm32l4xx_hal_uart.c ****   * @brief  UART Abort Receive Complete callback.
1815:d:/LiteOS_Lab/drivers/third_party/ST/STM32L4xx_HAL_Driver/Src\stm32l4xx_hal_uart.c ****   * @param  huart UART handle.
1816:d:/LiteOS_Lab/drivers/third_party/ST/STM32L4xx_HAL_Driver/Src\stm32l4xx_hal_uart.c ****   * @retval None
1817:d:/LiteOS_Lab/drivers/third_party/ST/STM32L4xx_HAL_Driver/Src\stm32l4xx_hal_uart.c ****   */
1818:d:/LiteOS_Lab/drivers/third_party/ST/STM32L4xx_HAL_Driver/Src\stm32l4xx_hal_uart.c **** __weak void HAL_UART_AbortReceiveCpltCallback (UART_HandleTypeDef *huart)
1819:d:/LiteOS_Lab/drivers/third_party/ST/STM32L4xx_HAL_Driver/Src\stm32l4xx_hal_uart.c **** {
 3906              		.loc 1 1819 1
 3907              		.cfi_startproc
 3908              		@ args = 0, pretend = 0, frame = 8
 3909              		@ frame_needed = 1, uses_anonymous_args = 0
 3910              		@ link register save eliminated.
 3911 0000 80B4     		push	{r7}
 3912              	.LCFI163:
 3913              		.cfi_def_cfa_offset 4
 3914              		.cfi_offset 7, -4
 3915 0002 83B0     		sub	sp, sp, #12
 3916              	.LCFI164:
 3917              		.cfi_def_cfa_offset 16
 3918 0004 00AF     		add	r7, sp, #0
 3919              	.LCFI165:
 3920              		.cfi_def_cfa_register 7
 3921 0006 7860     		str	r0, [r7, #4]
1820:d:/LiteOS_Lab/drivers/third_party/ST/STM32L4xx_HAL_Driver/Src\stm32l4xx_hal_uart.c ****   /* Prevent unused argument(s) compilation warning */
1821:d:/LiteOS_Lab/drivers/third_party/ST/STM32L4xx_HAL_Driver/Src\stm32l4xx_hal_uart.c ****   UNUSED(huart);
1822:d:/LiteOS_Lab/drivers/third_party/ST/STM32L4xx_HAL_Driver/Src\stm32l4xx_hal_uart.c **** 
1823:d:/LiteOS_Lab/drivers/third_party/ST/STM32L4xx_HAL_Driver/Src\stm32l4xx_hal_uart.c ****   /* NOTE : This function should not be modified, when the callback is needed,
1824:d:/LiteOS_Lab/drivers/third_party/ST/STM32L4xx_HAL_Driver/Src\stm32l4xx_hal_uart.c ****             the HAL_UART_AbortReceiveCpltCallback can be implemented in the user file.
1825:d:/LiteOS_Lab/drivers/third_party/ST/STM32L4xx_HAL_Driver/Src\stm32l4xx_hal_uart.c ****    */
ARM GAS  C:\Users\ADMINI~1\AppData\Local\Temp\ccHDbRvY.s 			page 101


1826:d:/LiteOS_Lab/drivers/third_party/ST/STM32L4xx_HAL_Driver/Src\stm32l4xx_hal_uart.c **** }
 3922              		.loc 1 1826 1
 3923 0008 00BF     		nop
 3924 000a 0C37     		adds	r7, r7, #12
 3925              	.LCFI166:
 3926              		.cfi_def_cfa_offset 4
 3927 000c BD46     		mov	sp, r7
 3928              	.LCFI167:
 3929              		.cfi_def_cfa_register 13
 3930              		@ sp needed
 3931 000e 5DF8047B 		ldr	r7, [sp], #4
 3932              	.LCFI168:
 3933              		.cfi_restore 7
 3934              		.cfi_def_cfa_offset 0
 3935 0012 7047     		bx	lr
 3936              		.cfi_endproc
 3937              	.LFE317:
 3939              		.section	.text.HAL_MultiProcessor_EnableMuteMode,"ax",%progbits
 3940              		.align	1
 3941              		.global	HAL_MultiProcessor_EnableMuteMode
 3942              		.syntax unified
 3943              		.thumb
 3944              		.thumb_func
 3945              		.fpu fpv4-sp-d16
 3947              	HAL_MultiProcessor_EnableMuteMode:
 3948              	.LFB318:
1827:d:/LiteOS_Lab/drivers/third_party/ST/STM32L4xx_HAL_Driver/Src\stm32l4xx_hal_uart.c **** 
1828:d:/LiteOS_Lab/drivers/third_party/ST/STM32L4xx_HAL_Driver/Src\stm32l4xx_hal_uart.c **** /**
1829:d:/LiteOS_Lab/drivers/third_party/ST/STM32L4xx_HAL_Driver/Src\stm32l4xx_hal_uart.c ****   * @}
1830:d:/LiteOS_Lab/drivers/third_party/ST/STM32L4xx_HAL_Driver/Src\stm32l4xx_hal_uart.c ****   */
1831:d:/LiteOS_Lab/drivers/third_party/ST/STM32L4xx_HAL_Driver/Src\stm32l4xx_hal_uart.c **** 
1832:d:/LiteOS_Lab/drivers/third_party/ST/STM32L4xx_HAL_Driver/Src\stm32l4xx_hal_uart.c **** /** @defgroup UART_Exported_Functions_Group3 Peripheral Control functions
1833:d:/LiteOS_Lab/drivers/third_party/ST/STM32L4xx_HAL_Driver/Src\stm32l4xx_hal_uart.c ****   *  @brief   UART control functions
1834:d:/LiteOS_Lab/drivers/third_party/ST/STM32L4xx_HAL_Driver/Src\stm32l4xx_hal_uart.c ****   *
1835:d:/LiteOS_Lab/drivers/third_party/ST/STM32L4xx_HAL_Driver/Src\stm32l4xx_hal_uart.c **** @verbatim
1836:d:/LiteOS_Lab/drivers/third_party/ST/STM32L4xx_HAL_Driver/Src\stm32l4xx_hal_uart.c ****  ===============================================================================
1837:d:/LiteOS_Lab/drivers/third_party/ST/STM32L4xx_HAL_Driver/Src\stm32l4xx_hal_uart.c ****                       ##### Peripheral Control functions #####
1838:d:/LiteOS_Lab/drivers/third_party/ST/STM32L4xx_HAL_Driver/Src\stm32l4xx_hal_uart.c ****  ===============================================================================
1839:d:/LiteOS_Lab/drivers/third_party/ST/STM32L4xx_HAL_Driver/Src\stm32l4xx_hal_uart.c ****     [..]
1840:d:/LiteOS_Lab/drivers/third_party/ST/STM32L4xx_HAL_Driver/Src\stm32l4xx_hal_uart.c ****     This subsection provides a set of functions allowing to control the UART.
1841:d:/LiteOS_Lab/drivers/third_party/ST/STM32L4xx_HAL_Driver/Src\stm32l4xx_hal_uart.c ****      (+) HAL_MultiProcessor_EnableMuteMode() API enables mute mode
1842:d:/LiteOS_Lab/drivers/third_party/ST/STM32L4xx_HAL_Driver/Src\stm32l4xx_hal_uart.c ****      (+) HAL_MultiProcessor_DisableMuteMode() API disables mute mode
1843:d:/LiteOS_Lab/drivers/third_party/ST/STM32L4xx_HAL_Driver/Src\stm32l4xx_hal_uart.c ****      (+) HAL_MultiProcessor_EnterMuteMode() API enters mute mode
1844:d:/LiteOS_Lab/drivers/third_party/ST/STM32L4xx_HAL_Driver/Src\stm32l4xx_hal_uart.c ****      (+) UART_SetConfig() API configures the UART peripheral
1845:d:/LiteOS_Lab/drivers/third_party/ST/STM32L4xx_HAL_Driver/Src\stm32l4xx_hal_uart.c ****      (+) UART_AdvFeatureConfig() API optionally configures the UART advanced features
1846:d:/LiteOS_Lab/drivers/third_party/ST/STM32L4xx_HAL_Driver/Src\stm32l4xx_hal_uart.c ****      (+) UART_CheckIdleState() API ensures that TEACK and/or REACK are set after initialization
1847:d:/LiteOS_Lab/drivers/third_party/ST/STM32L4xx_HAL_Driver/Src\stm32l4xx_hal_uart.c ****      (+) HAL_HalfDuplex_EnableTransmitter() API disables receiver and enables transmitter
1848:d:/LiteOS_Lab/drivers/third_party/ST/STM32L4xx_HAL_Driver/Src\stm32l4xx_hal_uart.c ****      (+) HAL_HalfDuplex_EnableReceiver() API disables transmitter and enables receiver
1849:d:/LiteOS_Lab/drivers/third_party/ST/STM32L4xx_HAL_Driver/Src\stm32l4xx_hal_uart.c ****      (+) HAL_LIN_SendBreak() API transmits the break characters
1850:d:/LiteOS_Lab/drivers/third_party/ST/STM32L4xx_HAL_Driver/Src\stm32l4xx_hal_uart.c **** @endverbatim
1851:d:/LiteOS_Lab/drivers/third_party/ST/STM32L4xx_HAL_Driver/Src\stm32l4xx_hal_uart.c ****   * @{
1852:d:/LiteOS_Lab/drivers/third_party/ST/STM32L4xx_HAL_Driver/Src\stm32l4xx_hal_uart.c ****   */
1853:d:/LiteOS_Lab/drivers/third_party/ST/STM32L4xx_HAL_Driver/Src\stm32l4xx_hal_uart.c **** 
1854:d:/LiteOS_Lab/drivers/third_party/ST/STM32L4xx_HAL_Driver/Src\stm32l4xx_hal_uart.c **** /**
1855:d:/LiteOS_Lab/drivers/third_party/ST/STM32L4xx_HAL_Driver/Src\stm32l4xx_hal_uart.c ****   * @brief Enable UART in mute mode (does not mean UART enters mute mode;
1856:d:/LiteOS_Lab/drivers/third_party/ST/STM32L4xx_HAL_Driver/Src\stm32l4xx_hal_uart.c ****   * to enter mute mode, HAL_MultiProcessor_EnterMuteMode() API must be called).
1857:d:/LiteOS_Lab/drivers/third_party/ST/STM32L4xx_HAL_Driver/Src\stm32l4xx_hal_uart.c ****   * @param huart: UART handle.
ARM GAS  C:\Users\ADMINI~1\AppData\Local\Temp\ccHDbRvY.s 			page 102


1858:d:/LiteOS_Lab/drivers/third_party/ST/STM32L4xx_HAL_Driver/Src\stm32l4xx_hal_uart.c ****   * @retval HAL status
1859:d:/LiteOS_Lab/drivers/third_party/ST/STM32L4xx_HAL_Driver/Src\stm32l4xx_hal_uart.c ****   */
1860:d:/LiteOS_Lab/drivers/third_party/ST/STM32L4xx_HAL_Driver/Src\stm32l4xx_hal_uart.c **** HAL_StatusTypeDef HAL_MultiProcessor_EnableMuteMode(UART_HandleTypeDef *huart)
1861:d:/LiteOS_Lab/drivers/third_party/ST/STM32L4xx_HAL_Driver/Src\stm32l4xx_hal_uart.c **** {
 3949              		.loc 1 1861 1
 3950              		.cfi_startproc
 3951              		@ args = 0, pretend = 0, frame = 8
 3952              		@ frame_needed = 1, uses_anonymous_args = 0
 3953 0000 80B5     		push	{r7, lr}
 3954              	.LCFI169:
 3955              		.cfi_def_cfa_offset 8
 3956              		.cfi_offset 7, -8
 3957              		.cfi_offset 14, -4
 3958 0002 82B0     		sub	sp, sp, #8
 3959              	.LCFI170:
 3960              		.cfi_def_cfa_offset 16
 3961 0004 00AF     		add	r7, sp, #0
 3962              	.LCFI171:
 3963              		.cfi_def_cfa_register 7
 3964 0006 7860     		str	r0, [r7, #4]
1862:d:/LiteOS_Lab/drivers/third_party/ST/STM32L4xx_HAL_Driver/Src\stm32l4xx_hal_uart.c ****   /* Process Locked */
1863:d:/LiteOS_Lab/drivers/third_party/ST/STM32L4xx_HAL_Driver/Src\stm32l4xx_hal_uart.c ****   __HAL_LOCK(huart);
 3965              		.loc 1 1863 3
 3966 0008 7B68     		ldr	r3, [r7, #4]
 3967 000a 93F87030 		ldrb	r3, [r3, #112]	@ zero_extendqisi2
 3968 000e 012B     		cmp	r3, #1
 3969 0010 01D1     		bne	.L187
 3970              		.loc 1 1863 3 is_stmt 0 discriminator 1
 3971 0012 0223     		movs	r3, #2
 3972 0014 17E0     		b	.L188
 3973              	.L187:
 3974              		.loc 1 1863 3 discriminator 2
 3975 0016 7B68     		ldr	r3, [r7, #4]
 3976 0018 0122     		movs	r2, #1
 3977 001a 83F87020 		strb	r2, [r3, #112]
1864:d:/LiteOS_Lab/drivers/third_party/ST/STM32L4xx_HAL_Driver/Src\stm32l4xx_hal_uart.c **** 
1865:d:/LiteOS_Lab/drivers/third_party/ST/STM32L4xx_HAL_Driver/Src\stm32l4xx_hal_uart.c ****   huart->gState = HAL_UART_STATE_BUSY;
 3978              		.loc 1 1865 17 is_stmt 1 discriminator 2
 3979 001e 7B68     		ldr	r3, [r7, #4]
 3980 0020 2422     		movs	r2, #36
 3981 0022 83F87120 		strb	r2, [r3, #113]
1866:d:/LiteOS_Lab/drivers/third_party/ST/STM32L4xx_HAL_Driver/Src\stm32l4xx_hal_uart.c **** 
1867:d:/LiteOS_Lab/drivers/third_party/ST/STM32L4xx_HAL_Driver/Src\stm32l4xx_hal_uart.c ****   /* Enable USART mute mode by setting the MME bit in the CR1 register */
1868:d:/LiteOS_Lab/drivers/third_party/ST/STM32L4xx_HAL_Driver/Src\stm32l4xx_hal_uart.c ****   SET_BIT(huart->Instance->CR1, USART_CR1_MME);
 3982              		.loc 1 1868 3 discriminator 2
 3983 0026 7B68     		ldr	r3, [r7, #4]
 3984 0028 1B68     		ldr	r3, [r3]
 3985 002a 1A68     		ldr	r2, [r3]
 3986 002c 7B68     		ldr	r3, [r7, #4]
 3987 002e 1B68     		ldr	r3, [r3]
 3988 0030 42F40052 		orr	r2, r2, #8192
 3989 0034 1A60     		str	r2, [r3]
1869:d:/LiteOS_Lab/drivers/third_party/ST/STM32L4xx_HAL_Driver/Src\stm32l4xx_hal_uart.c **** 
1870:d:/LiteOS_Lab/drivers/third_party/ST/STM32L4xx_HAL_Driver/Src\stm32l4xx_hal_uart.c ****   huart->gState = HAL_UART_STATE_READY;
 3990              		.loc 1 1870 17 discriminator 2
 3991 0036 7B68     		ldr	r3, [r7, #4]
 3992 0038 2022     		movs	r2, #32
ARM GAS  C:\Users\ADMINI~1\AppData\Local\Temp\ccHDbRvY.s 			page 103


 3993 003a 83F87120 		strb	r2, [r3, #113]
1871:d:/LiteOS_Lab/drivers/third_party/ST/STM32L4xx_HAL_Driver/Src\stm32l4xx_hal_uart.c **** 
1872:d:/LiteOS_Lab/drivers/third_party/ST/STM32L4xx_HAL_Driver/Src\stm32l4xx_hal_uart.c ****   return (UART_CheckIdleState(huart));
 3994              		.loc 1 1872 11 discriminator 2
 3995 003e 7868     		ldr	r0, [r7, #4]
 3996 0040 FFF7FEFF 		bl	UART_CheckIdleState
 3997 0044 0346     		mov	r3, r0
 3998              	.L188:
1873:d:/LiteOS_Lab/drivers/third_party/ST/STM32L4xx_HAL_Driver/Src\stm32l4xx_hal_uart.c **** }
 3999              		.loc 1 1873 1
 4000 0046 1846     		mov	r0, r3
 4001 0048 0837     		adds	r7, r7, #8
 4002              	.LCFI172:
 4003              		.cfi_def_cfa_offset 8
 4004 004a BD46     		mov	sp, r7
 4005              	.LCFI173:
 4006              		.cfi_def_cfa_register 13
 4007              		@ sp needed
 4008 004c 80BD     		pop	{r7, pc}
 4009              		.cfi_endproc
 4010              	.LFE318:
 4012              		.section	.text.HAL_MultiProcessor_DisableMuteMode,"ax",%progbits
 4013              		.align	1
 4014              		.global	HAL_MultiProcessor_DisableMuteMode
 4015              		.syntax unified
 4016              		.thumb
 4017              		.thumb_func
 4018              		.fpu fpv4-sp-d16
 4020              	HAL_MultiProcessor_DisableMuteMode:
 4021              	.LFB319:
1874:d:/LiteOS_Lab/drivers/third_party/ST/STM32L4xx_HAL_Driver/Src\stm32l4xx_hal_uart.c **** 
1875:d:/LiteOS_Lab/drivers/third_party/ST/STM32L4xx_HAL_Driver/Src\stm32l4xx_hal_uart.c **** /**
1876:d:/LiteOS_Lab/drivers/third_party/ST/STM32L4xx_HAL_Driver/Src\stm32l4xx_hal_uart.c ****   * @brief  Disable UART mute mode (does not mean the UART actually exits mute mode
1877:d:/LiteOS_Lab/drivers/third_party/ST/STM32L4xx_HAL_Driver/Src\stm32l4xx_hal_uart.c ****   *         as it may not have been in mute mode at this very moment).
1878:d:/LiteOS_Lab/drivers/third_party/ST/STM32L4xx_HAL_Driver/Src\stm32l4xx_hal_uart.c ****   * @param  huart: UART handle.
1879:d:/LiteOS_Lab/drivers/third_party/ST/STM32L4xx_HAL_Driver/Src\stm32l4xx_hal_uart.c ****   * @retval HAL status
1880:d:/LiteOS_Lab/drivers/third_party/ST/STM32L4xx_HAL_Driver/Src\stm32l4xx_hal_uart.c ****   */
1881:d:/LiteOS_Lab/drivers/third_party/ST/STM32L4xx_HAL_Driver/Src\stm32l4xx_hal_uart.c **** HAL_StatusTypeDef HAL_MultiProcessor_DisableMuteMode(UART_HandleTypeDef *huart)
1882:d:/LiteOS_Lab/drivers/third_party/ST/STM32L4xx_HAL_Driver/Src\stm32l4xx_hal_uart.c **** {
 4022              		.loc 1 1882 1
 4023              		.cfi_startproc
 4024              		@ args = 0, pretend = 0, frame = 8
 4025              		@ frame_needed = 1, uses_anonymous_args = 0
 4026 0000 80B5     		push	{r7, lr}
 4027              	.LCFI174:
 4028              		.cfi_def_cfa_offset 8
 4029              		.cfi_offset 7, -8
 4030              		.cfi_offset 14, -4
 4031 0002 82B0     		sub	sp, sp, #8
 4032              	.LCFI175:
 4033              		.cfi_def_cfa_offset 16
 4034 0004 00AF     		add	r7, sp, #0
 4035              	.LCFI176:
 4036              		.cfi_def_cfa_register 7
 4037 0006 7860     		str	r0, [r7, #4]
1883:d:/LiteOS_Lab/drivers/third_party/ST/STM32L4xx_HAL_Driver/Src\stm32l4xx_hal_uart.c ****   /* Process Locked */
1884:d:/LiteOS_Lab/drivers/third_party/ST/STM32L4xx_HAL_Driver/Src\stm32l4xx_hal_uart.c ****   __HAL_LOCK(huart);
ARM GAS  C:\Users\ADMINI~1\AppData\Local\Temp\ccHDbRvY.s 			page 104


 4038              		.loc 1 1884 3
 4039 0008 7B68     		ldr	r3, [r7, #4]
 4040 000a 93F87030 		ldrb	r3, [r3, #112]	@ zero_extendqisi2
 4041 000e 012B     		cmp	r3, #1
 4042 0010 01D1     		bne	.L190
 4043              		.loc 1 1884 3 is_stmt 0 discriminator 1
 4044 0012 0223     		movs	r3, #2
 4045 0014 17E0     		b	.L191
 4046              	.L190:
 4047              		.loc 1 1884 3 discriminator 2
 4048 0016 7B68     		ldr	r3, [r7, #4]
 4049 0018 0122     		movs	r2, #1
 4050 001a 83F87020 		strb	r2, [r3, #112]
1885:d:/LiteOS_Lab/drivers/third_party/ST/STM32L4xx_HAL_Driver/Src\stm32l4xx_hal_uart.c **** 
1886:d:/LiteOS_Lab/drivers/third_party/ST/STM32L4xx_HAL_Driver/Src\stm32l4xx_hal_uart.c ****   huart->gState = HAL_UART_STATE_BUSY;
 4051              		.loc 1 1886 17 is_stmt 1 discriminator 2
 4052 001e 7B68     		ldr	r3, [r7, #4]
 4053 0020 2422     		movs	r2, #36
 4054 0022 83F87120 		strb	r2, [r3, #113]
1887:d:/LiteOS_Lab/drivers/third_party/ST/STM32L4xx_HAL_Driver/Src\stm32l4xx_hal_uart.c **** 
1888:d:/LiteOS_Lab/drivers/third_party/ST/STM32L4xx_HAL_Driver/Src\stm32l4xx_hal_uart.c ****    /* Disable USART mute mode by clearing the MME bit in the CR1 register */
1889:d:/LiteOS_Lab/drivers/third_party/ST/STM32L4xx_HAL_Driver/Src\stm32l4xx_hal_uart.c ****   CLEAR_BIT(huart->Instance->CR1, USART_CR1_MME);
 4055              		.loc 1 1889 3 discriminator 2
 4056 0026 7B68     		ldr	r3, [r7, #4]
 4057 0028 1B68     		ldr	r3, [r3]
 4058 002a 1A68     		ldr	r2, [r3]
 4059 002c 7B68     		ldr	r3, [r7, #4]
 4060 002e 1B68     		ldr	r3, [r3]
 4061 0030 22F40052 		bic	r2, r2, #8192
 4062 0034 1A60     		str	r2, [r3]
1890:d:/LiteOS_Lab/drivers/third_party/ST/STM32L4xx_HAL_Driver/Src\stm32l4xx_hal_uart.c **** 
1891:d:/LiteOS_Lab/drivers/third_party/ST/STM32L4xx_HAL_Driver/Src\stm32l4xx_hal_uart.c ****   huart->gState = HAL_UART_STATE_READY;
 4063              		.loc 1 1891 17 discriminator 2
 4064 0036 7B68     		ldr	r3, [r7, #4]
 4065 0038 2022     		movs	r2, #32
 4066 003a 83F87120 		strb	r2, [r3, #113]
1892:d:/LiteOS_Lab/drivers/third_party/ST/STM32L4xx_HAL_Driver/Src\stm32l4xx_hal_uart.c **** 
1893:d:/LiteOS_Lab/drivers/third_party/ST/STM32L4xx_HAL_Driver/Src\stm32l4xx_hal_uart.c ****   return (UART_CheckIdleState(huart));
 4067              		.loc 1 1893 11 discriminator 2
 4068 003e 7868     		ldr	r0, [r7, #4]
 4069 0040 FFF7FEFF 		bl	UART_CheckIdleState
 4070 0044 0346     		mov	r3, r0
 4071              	.L191:
1894:d:/LiteOS_Lab/drivers/third_party/ST/STM32L4xx_HAL_Driver/Src\stm32l4xx_hal_uart.c **** }
 4072              		.loc 1 1894 1
 4073 0046 1846     		mov	r0, r3
 4074 0048 0837     		adds	r7, r7, #8
 4075              	.LCFI177:
 4076              		.cfi_def_cfa_offset 8
 4077 004a BD46     		mov	sp, r7
 4078              	.LCFI178:
 4079              		.cfi_def_cfa_register 13
 4080              		@ sp needed
 4081 004c 80BD     		pop	{r7, pc}
 4082              		.cfi_endproc
 4083              	.LFE319:
 4085              		.section	.text.HAL_MultiProcessor_EnterMuteMode,"ax",%progbits
ARM GAS  C:\Users\ADMINI~1\AppData\Local\Temp\ccHDbRvY.s 			page 105


 4086              		.align	1
 4087              		.global	HAL_MultiProcessor_EnterMuteMode
 4088              		.syntax unified
 4089              		.thumb
 4090              		.thumb_func
 4091              		.fpu fpv4-sp-d16
 4093              	HAL_MultiProcessor_EnterMuteMode:
 4094              	.LFB320:
1895:d:/LiteOS_Lab/drivers/third_party/ST/STM32L4xx_HAL_Driver/Src\stm32l4xx_hal_uart.c **** 
1896:d:/LiteOS_Lab/drivers/third_party/ST/STM32L4xx_HAL_Driver/Src\stm32l4xx_hal_uart.c **** /**
1897:d:/LiteOS_Lab/drivers/third_party/ST/STM32L4xx_HAL_Driver/Src\stm32l4xx_hal_uart.c ****   * @brief Enter UART mute mode (means UART actually enters mute mode).
1898:d:/LiteOS_Lab/drivers/third_party/ST/STM32L4xx_HAL_Driver/Src\stm32l4xx_hal_uart.c ****   * @note  To exit from mute mode, HAL_MultiProcessor_DisableMuteMode() API must be called.
1899:d:/LiteOS_Lab/drivers/third_party/ST/STM32L4xx_HAL_Driver/Src\stm32l4xx_hal_uart.c ****   * @param huart: UART handle.
1900:d:/LiteOS_Lab/drivers/third_party/ST/STM32L4xx_HAL_Driver/Src\stm32l4xx_hal_uart.c ****   * @retval None
1901:d:/LiteOS_Lab/drivers/third_party/ST/STM32L4xx_HAL_Driver/Src\stm32l4xx_hal_uart.c ****   */
1902:d:/LiteOS_Lab/drivers/third_party/ST/STM32L4xx_HAL_Driver/Src\stm32l4xx_hal_uart.c **** void HAL_MultiProcessor_EnterMuteMode(UART_HandleTypeDef *huart)
1903:d:/LiteOS_Lab/drivers/third_party/ST/STM32L4xx_HAL_Driver/Src\stm32l4xx_hal_uart.c **** {
 4095              		.loc 1 1903 1
 4096              		.cfi_startproc
 4097              		@ args = 0, pretend = 0, frame = 8
 4098              		@ frame_needed = 1, uses_anonymous_args = 0
 4099              		@ link register save eliminated.
 4100 0000 80B4     		push	{r7}
 4101              	.LCFI179:
 4102              		.cfi_def_cfa_offset 4
 4103              		.cfi_offset 7, -4
 4104 0002 83B0     		sub	sp, sp, #12
 4105              	.LCFI180:
 4106              		.cfi_def_cfa_offset 16
 4107 0004 00AF     		add	r7, sp, #0
 4108              	.LCFI181:
 4109              		.cfi_def_cfa_register 7
 4110 0006 7860     		str	r0, [r7, #4]
1904:d:/LiteOS_Lab/drivers/third_party/ST/STM32L4xx_HAL_Driver/Src\stm32l4xx_hal_uart.c ****   __HAL_UART_SEND_REQ(huart, UART_MUTE_MODE_REQUEST);
 4111              		.loc 1 1904 3
 4112 0008 7B68     		ldr	r3, [r7, #4]
 4113 000a 1B68     		ldr	r3, [r3]
 4114 000c 1B8B     		ldrh	r3, [r3, #24]	@ movhi
 4115 000e 9AB2     		uxth	r2, r3
 4116 0010 7B68     		ldr	r3, [r7, #4]
 4117 0012 1B68     		ldr	r3, [r3]
 4118 0014 42F00402 		orr	r2, r2, #4
 4119 0018 92B2     		uxth	r2, r2
 4120 001a 1A83     		strh	r2, [r3, #24]	@ movhi
1905:d:/LiteOS_Lab/drivers/third_party/ST/STM32L4xx_HAL_Driver/Src\stm32l4xx_hal_uart.c **** }
 4121              		.loc 1 1905 1
 4122 001c 00BF     		nop
 4123 001e 0C37     		adds	r7, r7, #12
 4124              	.LCFI182:
 4125              		.cfi_def_cfa_offset 4
 4126 0020 BD46     		mov	sp, r7
 4127              	.LCFI183:
 4128              		.cfi_def_cfa_register 13
 4129              		@ sp needed
 4130 0022 5DF8047B 		ldr	r7, [sp], #4
 4131              	.LCFI184:
 4132              		.cfi_restore 7
ARM GAS  C:\Users\ADMINI~1\AppData\Local\Temp\ccHDbRvY.s 			page 106


 4133              		.cfi_def_cfa_offset 0
 4134 0026 7047     		bx	lr
 4135              		.cfi_endproc
 4136              	.LFE320:
 4138              		.section	.text.HAL_HalfDuplex_EnableTransmitter,"ax",%progbits
 4139              		.align	1
 4140              		.global	HAL_HalfDuplex_EnableTransmitter
 4141              		.syntax unified
 4142              		.thumb
 4143              		.thumb_func
 4144              		.fpu fpv4-sp-d16
 4146              	HAL_HalfDuplex_EnableTransmitter:
 4147              	.LFB321:
1906:d:/LiteOS_Lab/drivers/third_party/ST/STM32L4xx_HAL_Driver/Src\stm32l4xx_hal_uart.c **** 
1907:d:/LiteOS_Lab/drivers/third_party/ST/STM32L4xx_HAL_Driver/Src\stm32l4xx_hal_uart.c **** /**
1908:d:/LiteOS_Lab/drivers/third_party/ST/STM32L4xx_HAL_Driver/Src\stm32l4xx_hal_uart.c ****   * @brief  Enable the UART transmitter and disable the UART receiver.
1909:d:/LiteOS_Lab/drivers/third_party/ST/STM32L4xx_HAL_Driver/Src\stm32l4xx_hal_uart.c ****   * @param  huart: UART handle.
1910:d:/LiteOS_Lab/drivers/third_party/ST/STM32L4xx_HAL_Driver/Src\stm32l4xx_hal_uart.c ****   * @retval HAL status
1911:d:/LiteOS_Lab/drivers/third_party/ST/STM32L4xx_HAL_Driver/Src\stm32l4xx_hal_uart.c ****   */
1912:d:/LiteOS_Lab/drivers/third_party/ST/STM32L4xx_HAL_Driver/Src\stm32l4xx_hal_uart.c **** HAL_StatusTypeDef HAL_HalfDuplex_EnableTransmitter(UART_HandleTypeDef *huart)
1913:d:/LiteOS_Lab/drivers/third_party/ST/STM32L4xx_HAL_Driver/Src\stm32l4xx_hal_uart.c **** {
 4148              		.loc 1 1913 1
 4149              		.cfi_startproc
 4150              		@ args = 0, pretend = 0, frame = 8
 4151              		@ frame_needed = 1, uses_anonymous_args = 0
 4152              		@ link register save eliminated.
 4153 0000 80B4     		push	{r7}
 4154              	.LCFI185:
 4155              		.cfi_def_cfa_offset 4
 4156              		.cfi_offset 7, -4
 4157 0002 83B0     		sub	sp, sp, #12
 4158              	.LCFI186:
 4159              		.cfi_def_cfa_offset 16
 4160 0004 00AF     		add	r7, sp, #0
 4161              	.LCFI187:
 4162              		.cfi_def_cfa_register 7
 4163 0006 7860     		str	r0, [r7, #4]
1914:d:/LiteOS_Lab/drivers/third_party/ST/STM32L4xx_HAL_Driver/Src\stm32l4xx_hal_uart.c ****   /* Process Locked */
1915:d:/LiteOS_Lab/drivers/third_party/ST/STM32L4xx_HAL_Driver/Src\stm32l4xx_hal_uart.c ****   __HAL_LOCK(huart);
 4164              		.loc 1 1915 3
 4165 0008 7B68     		ldr	r3, [r7, #4]
 4166 000a 93F87030 		ldrb	r3, [r3, #112]	@ zero_extendqisi2
 4167 000e 012B     		cmp	r3, #1
 4168 0010 01D1     		bne	.L194
 4169              		.loc 1 1915 3 is_stmt 0 discriminator 1
 4170 0012 0223     		movs	r3, #2
 4171 0014 20E0     		b	.L195
 4172              	.L194:
 4173              		.loc 1 1915 3 discriminator 2
 4174 0016 7B68     		ldr	r3, [r7, #4]
 4175 0018 0122     		movs	r2, #1
 4176 001a 83F87020 		strb	r2, [r3, #112]
1916:d:/LiteOS_Lab/drivers/third_party/ST/STM32L4xx_HAL_Driver/Src\stm32l4xx_hal_uart.c ****   huart->gState = HAL_UART_STATE_BUSY;
 4177              		.loc 1 1916 17 is_stmt 1 discriminator 2
 4178 001e 7B68     		ldr	r3, [r7, #4]
 4179 0020 2422     		movs	r2, #36
 4180 0022 83F87120 		strb	r2, [r3, #113]
ARM GAS  C:\Users\ADMINI~1\AppData\Local\Temp\ccHDbRvY.s 			page 107


1917:d:/LiteOS_Lab/drivers/third_party/ST/STM32L4xx_HAL_Driver/Src\stm32l4xx_hal_uart.c **** 
1918:d:/LiteOS_Lab/drivers/third_party/ST/STM32L4xx_HAL_Driver/Src\stm32l4xx_hal_uart.c ****   /* Clear TE and RE bits */
1919:d:/LiteOS_Lab/drivers/third_party/ST/STM32L4xx_HAL_Driver/Src\stm32l4xx_hal_uart.c ****   CLEAR_BIT(huart->Instance->CR1, (USART_CR1_TE | USART_CR1_RE));
 4181              		.loc 1 1919 3 discriminator 2
 4182 0026 7B68     		ldr	r3, [r7, #4]
 4183 0028 1B68     		ldr	r3, [r3]
 4184 002a 1A68     		ldr	r2, [r3]
 4185 002c 7B68     		ldr	r3, [r7, #4]
 4186 002e 1B68     		ldr	r3, [r3]
 4187 0030 22F00C02 		bic	r2, r2, #12
 4188 0034 1A60     		str	r2, [r3]
1920:d:/LiteOS_Lab/drivers/third_party/ST/STM32L4xx_HAL_Driver/Src\stm32l4xx_hal_uart.c ****   /* Enable the USART's transmit interface by setting the TE bit in the USART CR1 register */
1921:d:/LiteOS_Lab/drivers/third_party/ST/STM32L4xx_HAL_Driver/Src\stm32l4xx_hal_uart.c ****   SET_BIT(huart->Instance->CR1, USART_CR1_TE);
 4189              		.loc 1 1921 3 discriminator 2
 4190 0036 7B68     		ldr	r3, [r7, #4]
 4191 0038 1B68     		ldr	r3, [r3]
 4192 003a 1A68     		ldr	r2, [r3]
 4193 003c 7B68     		ldr	r3, [r7, #4]
 4194 003e 1B68     		ldr	r3, [r3]
 4195 0040 42F00802 		orr	r2, r2, #8
 4196 0044 1A60     		str	r2, [r3]
1922:d:/LiteOS_Lab/drivers/third_party/ST/STM32L4xx_HAL_Driver/Src\stm32l4xx_hal_uart.c **** 
1923:d:/LiteOS_Lab/drivers/third_party/ST/STM32L4xx_HAL_Driver/Src\stm32l4xx_hal_uart.c ****   huart->gState = HAL_UART_STATE_READY;
 4197              		.loc 1 1923 17 discriminator 2
 4198 0046 7B68     		ldr	r3, [r7, #4]
 4199 0048 2022     		movs	r2, #32
 4200 004a 83F87120 		strb	r2, [r3, #113]
1924:d:/LiteOS_Lab/drivers/third_party/ST/STM32L4xx_HAL_Driver/Src\stm32l4xx_hal_uart.c **** 
1925:d:/LiteOS_Lab/drivers/third_party/ST/STM32L4xx_HAL_Driver/Src\stm32l4xx_hal_uart.c ****   /* Process Unlocked */
1926:d:/LiteOS_Lab/drivers/third_party/ST/STM32L4xx_HAL_Driver/Src\stm32l4xx_hal_uart.c ****   __HAL_UNLOCK(huart);
 4201              		.loc 1 1926 3 discriminator 2
 4202 004e 7B68     		ldr	r3, [r7, #4]
 4203 0050 0022     		movs	r2, #0
 4204 0052 83F87020 		strb	r2, [r3, #112]
1927:d:/LiteOS_Lab/drivers/third_party/ST/STM32L4xx_HAL_Driver/Src\stm32l4xx_hal_uart.c **** 
1928:d:/LiteOS_Lab/drivers/third_party/ST/STM32L4xx_HAL_Driver/Src\stm32l4xx_hal_uart.c ****   return HAL_OK;
 4205              		.loc 1 1928 10 discriminator 2
 4206 0056 0023     		movs	r3, #0
 4207              	.L195:
1929:d:/LiteOS_Lab/drivers/third_party/ST/STM32L4xx_HAL_Driver/Src\stm32l4xx_hal_uart.c **** }
 4208              		.loc 1 1929 1
 4209 0058 1846     		mov	r0, r3
 4210 005a 0C37     		adds	r7, r7, #12
 4211              	.LCFI188:
 4212              		.cfi_def_cfa_offset 4
 4213 005c BD46     		mov	sp, r7
 4214              	.LCFI189:
 4215              		.cfi_def_cfa_register 13
 4216              		@ sp needed
 4217 005e 5DF8047B 		ldr	r7, [sp], #4
 4218              	.LCFI190:
 4219              		.cfi_restore 7
 4220              		.cfi_def_cfa_offset 0
 4221 0062 7047     		bx	lr
 4222              		.cfi_endproc
 4223              	.LFE321:
 4225              		.section	.text.HAL_HalfDuplex_EnableReceiver,"ax",%progbits
ARM GAS  C:\Users\ADMINI~1\AppData\Local\Temp\ccHDbRvY.s 			page 108


 4226              		.align	1
 4227              		.global	HAL_HalfDuplex_EnableReceiver
 4228              		.syntax unified
 4229              		.thumb
 4230              		.thumb_func
 4231              		.fpu fpv4-sp-d16
 4233              	HAL_HalfDuplex_EnableReceiver:
 4234              	.LFB322:
1930:d:/LiteOS_Lab/drivers/third_party/ST/STM32L4xx_HAL_Driver/Src\stm32l4xx_hal_uart.c **** 
1931:d:/LiteOS_Lab/drivers/third_party/ST/STM32L4xx_HAL_Driver/Src\stm32l4xx_hal_uart.c **** /**
1932:d:/LiteOS_Lab/drivers/third_party/ST/STM32L4xx_HAL_Driver/Src\stm32l4xx_hal_uart.c ****   * @brief  Enable the UART receiver and disable the UART transmitter.
1933:d:/LiteOS_Lab/drivers/third_party/ST/STM32L4xx_HAL_Driver/Src\stm32l4xx_hal_uart.c ****   * @param  huart: UART handle.
1934:d:/LiteOS_Lab/drivers/third_party/ST/STM32L4xx_HAL_Driver/Src\stm32l4xx_hal_uart.c ****   * @retval HAL status.
1935:d:/LiteOS_Lab/drivers/third_party/ST/STM32L4xx_HAL_Driver/Src\stm32l4xx_hal_uart.c ****   */
1936:d:/LiteOS_Lab/drivers/third_party/ST/STM32L4xx_HAL_Driver/Src\stm32l4xx_hal_uart.c **** HAL_StatusTypeDef HAL_HalfDuplex_EnableReceiver(UART_HandleTypeDef *huart)
1937:d:/LiteOS_Lab/drivers/third_party/ST/STM32L4xx_HAL_Driver/Src\stm32l4xx_hal_uart.c **** {
 4235              		.loc 1 1937 1
 4236              		.cfi_startproc
 4237              		@ args = 0, pretend = 0, frame = 8
 4238              		@ frame_needed = 1, uses_anonymous_args = 0
 4239              		@ link register save eliminated.
 4240 0000 80B4     		push	{r7}
 4241              	.LCFI191:
 4242              		.cfi_def_cfa_offset 4
 4243              		.cfi_offset 7, -4
 4244 0002 83B0     		sub	sp, sp, #12
 4245              	.LCFI192:
 4246              		.cfi_def_cfa_offset 16
 4247 0004 00AF     		add	r7, sp, #0
 4248              	.LCFI193:
 4249              		.cfi_def_cfa_register 7
 4250 0006 7860     		str	r0, [r7, #4]
1938:d:/LiteOS_Lab/drivers/third_party/ST/STM32L4xx_HAL_Driver/Src\stm32l4xx_hal_uart.c ****   /* Process Locked */
1939:d:/LiteOS_Lab/drivers/third_party/ST/STM32L4xx_HAL_Driver/Src\stm32l4xx_hal_uart.c ****   __HAL_LOCK(huart);
 4251              		.loc 1 1939 3
 4252 0008 7B68     		ldr	r3, [r7, #4]
 4253 000a 93F87030 		ldrb	r3, [r3, #112]	@ zero_extendqisi2
 4254 000e 012B     		cmp	r3, #1
 4255 0010 01D1     		bne	.L197
 4256              		.loc 1 1939 3 is_stmt 0 discriminator 1
 4257 0012 0223     		movs	r3, #2
 4258 0014 20E0     		b	.L198
 4259              	.L197:
 4260              		.loc 1 1939 3 discriminator 2
 4261 0016 7B68     		ldr	r3, [r7, #4]
 4262 0018 0122     		movs	r2, #1
 4263 001a 83F87020 		strb	r2, [r3, #112]
1940:d:/LiteOS_Lab/drivers/third_party/ST/STM32L4xx_HAL_Driver/Src\stm32l4xx_hal_uart.c ****   huart->gState = HAL_UART_STATE_BUSY;
 4264              		.loc 1 1940 17 is_stmt 1 discriminator 2
 4265 001e 7B68     		ldr	r3, [r7, #4]
 4266 0020 2422     		movs	r2, #36
 4267 0022 83F87120 		strb	r2, [r3, #113]
1941:d:/LiteOS_Lab/drivers/third_party/ST/STM32L4xx_HAL_Driver/Src\stm32l4xx_hal_uart.c **** 
1942:d:/LiteOS_Lab/drivers/third_party/ST/STM32L4xx_HAL_Driver/Src\stm32l4xx_hal_uart.c ****   /* Clear TE and RE bits */
1943:d:/LiteOS_Lab/drivers/third_party/ST/STM32L4xx_HAL_Driver/Src\stm32l4xx_hal_uart.c ****   CLEAR_BIT(huart->Instance->CR1, (USART_CR1_TE | USART_CR1_RE));
 4268              		.loc 1 1943 3 discriminator 2
 4269 0026 7B68     		ldr	r3, [r7, #4]
ARM GAS  C:\Users\ADMINI~1\AppData\Local\Temp\ccHDbRvY.s 			page 109


 4270 0028 1B68     		ldr	r3, [r3]
 4271 002a 1A68     		ldr	r2, [r3]
 4272 002c 7B68     		ldr	r3, [r7, #4]
 4273 002e 1B68     		ldr	r3, [r3]
 4274 0030 22F00C02 		bic	r2, r2, #12
 4275 0034 1A60     		str	r2, [r3]
1944:d:/LiteOS_Lab/drivers/third_party/ST/STM32L4xx_HAL_Driver/Src\stm32l4xx_hal_uart.c ****   /* Enable the USART's receive interface by setting the RE bit in the USART CR1 register */
1945:d:/LiteOS_Lab/drivers/third_party/ST/STM32L4xx_HAL_Driver/Src\stm32l4xx_hal_uart.c ****   SET_BIT(huart->Instance->CR1, USART_CR1_RE);
 4276              		.loc 1 1945 3 discriminator 2
 4277 0036 7B68     		ldr	r3, [r7, #4]
 4278 0038 1B68     		ldr	r3, [r3]
 4279 003a 1A68     		ldr	r2, [r3]
 4280 003c 7B68     		ldr	r3, [r7, #4]
 4281 003e 1B68     		ldr	r3, [r3]
 4282 0040 42F00402 		orr	r2, r2, #4
 4283 0044 1A60     		str	r2, [r3]
1946:d:/LiteOS_Lab/drivers/third_party/ST/STM32L4xx_HAL_Driver/Src\stm32l4xx_hal_uart.c **** 
1947:d:/LiteOS_Lab/drivers/third_party/ST/STM32L4xx_HAL_Driver/Src\stm32l4xx_hal_uart.c ****   huart->gState = HAL_UART_STATE_READY;
 4284              		.loc 1 1947 17 discriminator 2
 4285 0046 7B68     		ldr	r3, [r7, #4]
 4286 0048 2022     		movs	r2, #32
 4287 004a 83F87120 		strb	r2, [r3, #113]
1948:d:/LiteOS_Lab/drivers/third_party/ST/STM32L4xx_HAL_Driver/Src\stm32l4xx_hal_uart.c ****   /* Process Unlocked */
1949:d:/LiteOS_Lab/drivers/third_party/ST/STM32L4xx_HAL_Driver/Src\stm32l4xx_hal_uart.c ****   __HAL_UNLOCK(huart);
 4288              		.loc 1 1949 3 discriminator 2
 4289 004e 7B68     		ldr	r3, [r7, #4]
 4290 0050 0022     		movs	r2, #0
 4291 0052 83F87020 		strb	r2, [r3, #112]
1950:d:/LiteOS_Lab/drivers/third_party/ST/STM32L4xx_HAL_Driver/Src\stm32l4xx_hal_uart.c **** 
1951:d:/LiteOS_Lab/drivers/third_party/ST/STM32L4xx_HAL_Driver/Src\stm32l4xx_hal_uart.c ****   return HAL_OK;
 4292              		.loc 1 1951 10 discriminator 2
 4293 0056 0023     		movs	r3, #0
 4294              	.L198:
1952:d:/LiteOS_Lab/drivers/third_party/ST/STM32L4xx_HAL_Driver/Src\stm32l4xx_hal_uart.c **** }
 4295              		.loc 1 1952 1
 4296 0058 1846     		mov	r0, r3
 4297 005a 0C37     		adds	r7, r7, #12
 4298              	.LCFI194:
 4299              		.cfi_def_cfa_offset 4
 4300 005c BD46     		mov	sp, r7
 4301              	.LCFI195:
 4302              		.cfi_def_cfa_register 13
 4303              		@ sp needed
 4304 005e 5DF8047B 		ldr	r7, [sp], #4
 4305              	.LCFI196:
 4306              		.cfi_restore 7
 4307              		.cfi_def_cfa_offset 0
 4308 0062 7047     		bx	lr
 4309              		.cfi_endproc
 4310              	.LFE322:
 4312              		.section	.text.HAL_LIN_SendBreak,"ax",%progbits
 4313              		.align	1
 4314              		.global	HAL_LIN_SendBreak
 4315              		.syntax unified
 4316              		.thumb
 4317              		.thumb_func
 4318              		.fpu fpv4-sp-d16
ARM GAS  C:\Users\ADMINI~1\AppData\Local\Temp\ccHDbRvY.s 			page 110


 4320              	HAL_LIN_SendBreak:
 4321              	.LFB323:
1953:d:/LiteOS_Lab/drivers/third_party/ST/STM32L4xx_HAL_Driver/Src\stm32l4xx_hal_uart.c **** 
1954:d:/LiteOS_Lab/drivers/third_party/ST/STM32L4xx_HAL_Driver/Src\stm32l4xx_hal_uart.c **** 
1955:d:/LiteOS_Lab/drivers/third_party/ST/STM32L4xx_HAL_Driver/Src\stm32l4xx_hal_uart.c **** /**
1956:d:/LiteOS_Lab/drivers/third_party/ST/STM32L4xx_HAL_Driver/Src\stm32l4xx_hal_uart.c ****   * @brief  Transmit break characters.
1957:d:/LiteOS_Lab/drivers/third_party/ST/STM32L4xx_HAL_Driver/Src\stm32l4xx_hal_uart.c ****   * @param  huart: UART handle.
1958:d:/LiteOS_Lab/drivers/third_party/ST/STM32L4xx_HAL_Driver/Src\stm32l4xx_hal_uart.c ****   * @retval HAL status
1959:d:/LiteOS_Lab/drivers/third_party/ST/STM32L4xx_HAL_Driver/Src\stm32l4xx_hal_uart.c ****   */
1960:d:/LiteOS_Lab/drivers/third_party/ST/STM32L4xx_HAL_Driver/Src\stm32l4xx_hal_uart.c **** HAL_StatusTypeDef HAL_LIN_SendBreak(UART_HandleTypeDef *huart)
1961:d:/LiteOS_Lab/drivers/third_party/ST/STM32L4xx_HAL_Driver/Src\stm32l4xx_hal_uart.c **** {
 4322              		.loc 1 1961 1
 4323              		.cfi_startproc
 4324              		@ args = 0, pretend = 0, frame = 8
 4325              		@ frame_needed = 1, uses_anonymous_args = 0
 4326              		@ link register save eliminated.
 4327 0000 80B4     		push	{r7}
 4328              	.LCFI197:
 4329              		.cfi_def_cfa_offset 4
 4330              		.cfi_offset 7, -4
 4331 0002 83B0     		sub	sp, sp, #12
 4332              	.LCFI198:
 4333              		.cfi_def_cfa_offset 16
 4334 0004 00AF     		add	r7, sp, #0
 4335              	.LCFI199:
 4336              		.cfi_def_cfa_register 7
 4337 0006 7860     		str	r0, [r7, #4]
1962:d:/LiteOS_Lab/drivers/third_party/ST/STM32L4xx_HAL_Driver/Src\stm32l4xx_hal_uart.c ****   /* Check the parameters */
1963:d:/LiteOS_Lab/drivers/third_party/ST/STM32L4xx_HAL_Driver/Src\stm32l4xx_hal_uart.c ****   assert_param(IS_UART_LIN_INSTANCE(huart->Instance));
1964:d:/LiteOS_Lab/drivers/third_party/ST/STM32L4xx_HAL_Driver/Src\stm32l4xx_hal_uart.c **** 
1965:d:/LiteOS_Lab/drivers/third_party/ST/STM32L4xx_HAL_Driver/Src\stm32l4xx_hal_uart.c ****   /* Process Locked */
1966:d:/LiteOS_Lab/drivers/third_party/ST/STM32L4xx_HAL_Driver/Src\stm32l4xx_hal_uart.c ****   __HAL_LOCK(huart);
 4338              		.loc 1 1966 3
 4339 0008 7B68     		ldr	r3, [r7, #4]
 4340 000a 93F87030 		ldrb	r3, [r3, #112]	@ zero_extendqisi2
 4341 000e 012B     		cmp	r3, #1
 4342 0010 01D1     		bne	.L200
 4343              		.loc 1 1966 3 is_stmt 0 discriminator 1
 4344 0012 0223     		movs	r3, #2
 4345 0014 1AE0     		b	.L201
 4346              	.L200:
 4347              		.loc 1 1966 3 discriminator 2
 4348 0016 7B68     		ldr	r3, [r7, #4]
 4349 0018 0122     		movs	r2, #1
 4350 001a 83F87020 		strb	r2, [r3, #112]
1967:d:/LiteOS_Lab/drivers/third_party/ST/STM32L4xx_HAL_Driver/Src\stm32l4xx_hal_uart.c **** 
1968:d:/LiteOS_Lab/drivers/third_party/ST/STM32L4xx_HAL_Driver/Src\stm32l4xx_hal_uart.c ****   huart->gState = HAL_UART_STATE_BUSY;
 4351              		.loc 1 1968 17 is_stmt 1 discriminator 2
 4352 001e 7B68     		ldr	r3, [r7, #4]
 4353 0020 2422     		movs	r2, #36
 4354 0022 83F87120 		strb	r2, [r3, #113]
1969:d:/LiteOS_Lab/drivers/third_party/ST/STM32L4xx_HAL_Driver/Src\stm32l4xx_hal_uart.c **** 
1970:d:/LiteOS_Lab/drivers/third_party/ST/STM32L4xx_HAL_Driver/Src\stm32l4xx_hal_uart.c ****   /* Send break characters */
1971:d:/LiteOS_Lab/drivers/third_party/ST/STM32L4xx_HAL_Driver/Src\stm32l4xx_hal_uart.c ****   huart->Instance->RQR |= UART_SENDBREAK_REQUEST;
 4355              		.loc 1 1971 8 discriminator 2
 4356 0026 7B68     		ldr	r3, [r7, #4]
 4357 0028 1B68     		ldr	r3, [r3]
ARM GAS  C:\Users\ADMINI~1\AppData\Local\Temp\ccHDbRvY.s 			page 111


 4358              		.loc 1 1971 24 discriminator 2
 4359 002a 1B8B     		ldrh	r3, [r3, #24]	@ movhi
 4360 002c 9AB2     		uxth	r2, r3
 4361              		.loc 1 1971 8 discriminator 2
 4362 002e 7B68     		ldr	r3, [r7, #4]
 4363 0030 1B68     		ldr	r3, [r3]
 4364              		.loc 1 1971 24 discriminator 2
 4365 0032 42F00202 		orr	r2, r2, #2
 4366 0036 92B2     		uxth	r2, r2
 4367 0038 1A83     		strh	r2, [r3, #24]	@ movhi
1972:d:/LiteOS_Lab/drivers/third_party/ST/STM32L4xx_HAL_Driver/Src\stm32l4xx_hal_uart.c **** 
1973:d:/LiteOS_Lab/drivers/third_party/ST/STM32L4xx_HAL_Driver/Src\stm32l4xx_hal_uart.c ****   huart->gState = HAL_UART_STATE_READY;
 4368              		.loc 1 1973 17 discriminator 2
 4369 003a 7B68     		ldr	r3, [r7, #4]
 4370 003c 2022     		movs	r2, #32
 4371 003e 83F87120 		strb	r2, [r3, #113]
1974:d:/LiteOS_Lab/drivers/third_party/ST/STM32L4xx_HAL_Driver/Src\stm32l4xx_hal_uart.c **** 
1975:d:/LiteOS_Lab/drivers/third_party/ST/STM32L4xx_HAL_Driver/Src\stm32l4xx_hal_uart.c ****   /* Process Unlocked */
1976:d:/LiteOS_Lab/drivers/third_party/ST/STM32L4xx_HAL_Driver/Src\stm32l4xx_hal_uart.c ****   __HAL_UNLOCK(huart);
 4372              		.loc 1 1976 3 discriminator 2
 4373 0042 7B68     		ldr	r3, [r7, #4]
 4374 0044 0022     		movs	r2, #0
 4375 0046 83F87020 		strb	r2, [r3, #112]
1977:d:/LiteOS_Lab/drivers/third_party/ST/STM32L4xx_HAL_Driver/Src\stm32l4xx_hal_uart.c **** 
1978:d:/LiteOS_Lab/drivers/third_party/ST/STM32L4xx_HAL_Driver/Src\stm32l4xx_hal_uart.c ****   return HAL_OK;
 4376              		.loc 1 1978 10 discriminator 2
 4377 004a 0023     		movs	r3, #0
 4378              	.L201:
1979:d:/LiteOS_Lab/drivers/third_party/ST/STM32L4xx_HAL_Driver/Src\stm32l4xx_hal_uart.c **** }
 4379              		.loc 1 1979 1
 4380 004c 1846     		mov	r0, r3
 4381 004e 0C37     		adds	r7, r7, #12
 4382              	.LCFI200:
 4383              		.cfi_def_cfa_offset 4
 4384 0050 BD46     		mov	sp, r7
 4385              	.LCFI201:
 4386              		.cfi_def_cfa_register 13
 4387              		@ sp needed
 4388 0052 5DF8047B 		ldr	r7, [sp], #4
 4389              	.LCFI202:
 4390              		.cfi_restore 7
 4391              		.cfi_def_cfa_offset 0
 4392 0056 7047     		bx	lr
 4393              		.cfi_endproc
 4394              	.LFE323:
 4396              		.section	.text.HAL_UART_GetState,"ax",%progbits
 4397              		.align	1
 4398              		.global	HAL_UART_GetState
 4399              		.syntax unified
 4400              		.thumb
 4401              		.thumb_func
 4402              		.fpu fpv4-sp-d16
 4404              	HAL_UART_GetState:
 4405              	.LFB324:
1980:d:/LiteOS_Lab/drivers/third_party/ST/STM32L4xx_HAL_Driver/Src\stm32l4xx_hal_uart.c **** 
1981:d:/LiteOS_Lab/drivers/third_party/ST/STM32L4xx_HAL_Driver/Src\stm32l4xx_hal_uart.c **** 
1982:d:/LiteOS_Lab/drivers/third_party/ST/STM32L4xx_HAL_Driver/Src\stm32l4xx_hal_uart.c **** /**
ARM GAS  C:\Users\ADMINI~1\AppData\Local\Temp\ccHDbRvY.s 			page 112


1983:d:/LiteOS_Lab/drivers/third_party/ST/STM32L4xx_HAL_Driver/Src\stm32l4xx_hal_uart.c ****   * @}
1984:d:/LiteOS_Lab/drivers/third_party/ST/STM32L4xx_HAL_Driver/Src\stm32l4xx_hal_uart.c ****   */
1985:d:/LiteOS_Lab/drivers/third_party/ST/STM32L4xx_HAL_Driver/Src\stm32l4xx_hal_uart.c **** 
1986:d:/LiteOS_Lab/drivers/third_party/ST/STM32L4xx_HAL_Driver/Src\stm32l4xx_hal_uart.c **** /** @defgroup UART_Exported_Functions_Group4 Peripheral State and Error functions
1987:d:/LiteOS_Lab/drivers/third_party/ST/STM32L4xx_HAL_Driver/Src\stm32l4xx_hal_uart.c ****  *  @brief   UART Peripheral State functions
1988:d:/LiteOS_Lab/drivers/third_party/ST/STM32L4xx_HAL_Driver/Src\stm32l4xx_hal_uart.c ****  *
1989:d:/LiteOS_Lab/drivers/third_party/ST/STM32L4xx_HAL_Driver/Src\stm32l4xx_hal_uart.c **** @verbatim
1990:d:/LiteOS_Lab/drivers/third_party/ST/STM32L4xx_HAL_Driver/Src\stm32l4xx_hal_uart.c ****   ==============================================================================
1991:d:/LiteOS_Lab/drivers/third_party/ST/STM32L4xx_HAL_Driver/Src\stm32l4xx_hal_uart.c ****             ##### Peripheral State and Error functions #####
1992:d:/LiteOS_Lab/drivers/third_party/ST/STM32L4xx_HAL_Driver/Src\stm32l4xx_hal_uart.c ****   ==============================================================================
1993:d:/LiteOS_Lab/drivers/third_party/ST/STM32L4xx_HAL_Driver/Src\stm32l4xx_hal_uart.c ****     [..]
1994:d:/LiteOS_Lab/drivers/third_party/ST/STM32L4xx_HAL_Driver/Src\stm32l4xx_hal_uart.c ****     This subsection provides functions allowing to :
1995:d:/LiteOS_Lab/drivers/third_party/ST/STM32L4xx_HAL_Driver/Src\stm32l4xx_hal_uart.c ****       (+) Return the UART handle state.
1996:d:/LiteOS_Lab/drivers/third_party/ST/STM32L4xx_HAL_Driver/Src\stm32l4xx_hal_uart.c ****       (+) Return the UART handle error code
1997:d:/LiteOS_Lab/drivers/third_party/ST/STM32L4xx_HAL_Driver/Src\stm32l4xx_hal_uart.c **** 
1998:d:/LiteOS_Lab/drivers/third_party/ST/STM32L4xx_HAL_Driver/Src\stm32l4xx_hal_uart.c **** @endverbatim
1999:d:/LiteOS_Lab/drivers/third_party/ST/STM32L4xx_HAL_Driver/Src\stm32l4xx_hal_uart.c ****   * @{
2000:d:/LiteOS_Lab/drivers/third_party/ST/STM32L4xx_HAL_Driver/Src\stm32l4xx_hal_uart.c ****   */
2001:d:/LiteOS_Lab/drivers/third_party/ST/STM32L4xx_HAL_Driver/Src\stm32l4xx_hal_uart.c **** 
2002:d:/LiteOS_Lab/drivers/third_party/ST/STM32L4xx_HAL_Driver/Src\stm32l4xx_hal_uart.c **** /**
2003:d:/LiteOS_Lab/drivers/third_party/ST/STM32L4xx_HAL_Driver/Src\stm32l4xx_hal_uart.c ****   * @brief  Return the UART handle state.
2004:d:/LiteOS_Lab/drivers/third_party/ST/STM32L4xx_HAL_Driver/Src\stm32l4xx_hal_uart.c ****   * @param  huart Pointer to a UART_HandleTypeDef structure that contains
2005:d:/LiteOS_Lab/drivers/third_party/ST/STM32L4xx_HAL_Driver/Src\stm32l4xx_hal_uart.c ****   *               the configuration information for the specified UART.
2006:d:/LiteOS_Lab/drivers/third_party/ST/STM32L4xx_HAL_Driver/Src\stm32l4xx_hal_uart.c ****   * @retval HAL state
2007:d:/LiteOS_Lab/drivers/third_party/ST/STM32L4xx_HAL_Driver/Src\stm32l4xx_hal_uart.c ****   */
2008:d:/LiteOS_Lab/drivers/third_party/ST/STM32L4xx_HAL_Driver/Src\stm32l4xx_hal_uart.c **** HAL_UART_StateTypeDef HAL_UART_GetState(UART_HandleTypeDef *huart)
2009:d:/LiteOS_Lab/drivers/third_party/ST/STM32L4xx_HAL_Driver/Src\stm32l4xx_hal_uart.c **** {
 4406              		.loc 1 2009 1
 4407              		.cfi_startproc
 4408              		@ args = 0, pretend = 0, frame = 16
 4409              		@ frame_needed = 1, uses_anonymous_args = 0
 4410              		@ link register save eliminated.
 4411 0000 80B4     		push	{r7}
 4412              	.LCFI203:
 4413              		.cfi_def_cfa_offset 4
 4414              		.cfi_offset 7, -4
 4415 0002 85B0     		sub	sp, sp, #20
 4416              	.LCFI204:
 4417              		.cfi_def_cfa_offset 24
 4418 0004 00AF     		add	r7, sp, #0
 4419              	.LCFI205:
 4420              		.cfi_def_cfa_register 7
 4421 0006 7860     		str	r0, [r7, #4]
2010:d:/LiteOS_Lab/drivers/third_party/ST/STM32L4xx_HAL_Driver/Src\stm32l4xx_hal_uart.c ****   uint32_t temp1= 0x00, temp2 = 0x00;
 4422              		.loc 1 2010 12
 4423 0008 0023     		movs	r3, #0
 4424 000a FB60     		str	r3, [r7, #12]
 4425              		.loc 1 2010 25
 4426 000c 0023     		movs	r3, #0
 4427 000e BB60     		str	r3, [r7, #8]
2011:d:/LiteOS_Lab/drivers/third_party/ST/STM32L4xx_HAL_Driver/Src\stm32l4xx_hal_uart.c ****   temp1 = huart->gState;
 4428              		.loc 1 2011 16
 4429 0010 7B68     		ldr	r3, [r7, #4]
 4430 0012 93F87130 		ldrb	r3, [r3, #113]
 4431 0016 DBB2     		uxtb	r3, r3
 4432              		.loc 1 2011 9
 4433 0018 FB60     		str	r3, [r7, #12]
ARM GAS  C:\Users\ADMINI~1\AppData\Local\Temp\ccHDbRvY.s 			page 113


2012:d:/LiteOS_Lab/drivers/third_party/ST/STM32L4xx_HAL_Driver/Src\stm32l4xx_hal_uart.c ****   temp2 = huart->RxState;
 4434              		.loc 1 2012 16
 4435 001a 7B68     		ldr	r3, [r7, #4]
 4436 001c 93F87230 		ldrb	r3, [r3, #114]
 4437 0020 DBB2     		uxtb	r3, r3
 4438              		.loc 1 2012 9
 4439 0022 BB60     		str	r3, [r7, #8]
2013:d:/LiteOS_Lab/drivers/third_party/ST/STM32L4xx_HAL_Driver/Src\stm32l4xx_hal_uart.c **** 
2014:d:/LiteOS_Lab/drivers/third_party/ST/STM32L4xx_HAL_Driver/Src\stm32l4xx_hal_uart.c ****   return (HAL_UART_StateTypeDef)(temp1 | temp2);
 4440              		.loc 1 2014 10
 4441 0024 FB68     		ldr	r3, [r7, #12]
 4442 0026 DAB2     		uxtb	r2, r3
 4443 0028 BB68     		ldr	r3, [r7, #8]
 4444 002a DBB2     		uxtb	r3, r3
 4445 002c 1343     		orrs	r3, r3, r2
 4446 002e DBB2     		uxtb	r3, r3
2015:d:/LiteOS_Lab/drivers/third_party/ST/STM32L4xx_HAL_Driver/Src\stm32l4xx_hal_uart.c **** }
 4447              		.loc 1 2015 1
 4448 0030 1846     		mov	r0, r3
 4449 0032 1437     		adds	r7, r7, #20
 4450              	.LCFI206:
 4451              		.cfi_def_cfa_offset 4
 4452 0034 BD46     		mov	sp, r7
 4453              	.LCFI207:
 4454              		.cfi_def_cfa_register 13
 4455              		@ sp needed
 4456 0036 5DF8047B 		ldr	r7, [sp], #4
 4457              	.LCFI208:
 4458              		.cfi_restore 7
 4459              		.cfi_def_cfa_offset 0
 4460 003a 7047     		bx	lr
 4461              		.cfi_endproc
 4462              	.LFE324:
 4464              		.section	.text.HAL_UART_GetError,"ax",%progbits
 4465              		.align	1
 4466              		.global	HAL_UART_GetError
 4467              		.syntax unified
 4468              		.thumb
 4469              		.thumb_func
 4470              		.fpu fpv4-sp-d16
 4472              	HAL_UART_GetError:
 4473              	.LFB325:
2016:d:/LiteOS_Lab/drivers/third_party/ST/STM32L4xx_HAL_Driver/Src\stm32l4xx_hal_uart.c **** 
2017:d:/LiteOS_Lab/drivers/third_party/ST/STM32L4xx_HAL_Driver/Src\stm32l4xx_hal_uart.c **** /**
2018:d:/LiteOS_Lab/drivers/third_party/ST/STM32L4xx_HAL_Driver/Src\stm32l4xx_hal_uart.c ****   * @brief  Return the UART handle error code.
2019:d:/LiteOS_Lab/drivers/third_party/ST/STM32L4xx_HAL_Driver/Src\stm32l4xx_hal_uart.c ****   * @param  huart Pointer to a UART_HandleTypeDef structure that contains
2020:d:/LiteOS_Lab/drivers/third_party/ST/STM32L4xx_HAL_Driver/Src\stm32l4xx_hal_uart.c ****   *               the configuration information for the specified UART.
2021:d:/LiteOS_Lab/drivers/third_party/ST/STM32L4xx_HAL_Driver/Src\stm32l4xx_hal_uart.c ****   * @retval UART Error Code
2022:d:/LiteOS_Lab/drivers/third_party/ST/STM32L4xx_HAL_Driver/Src\stm32l4xx_hal_uart.c **** */
2023:d:/LiteOS_Lab/drivers/third_party/ST/STM32L4xx_HAL_Driver/Src\stm32l4xx_hal_uart.c **** uint32_t HAL_UART_GetError(UART_HandleTypeDef *huart)
2024:d:/LiteOS_Lab/drivers/third_party/ST/STM32L4xx_HAL_Driver/Src\stm32l4xx_hal_uart.c **** {
 4474              		.loc 1 2024 1
 4475              		.cfi_startproc
 4476              		@ args = 0, pretend = 0, frame = 8
 4477              		@ frame_needed = 1, uses_anonymous_args = 0
 4478              		@ link register save eliminated.
 4479 0000 80B4     		push	{r7}
ARM GAS  C:\Users\ADMINI~1\AppData\Local\Temp\ccHDbRvY.s 			page 114


 4480              	.LCFI209:
 4481              		.cfi_def_cfa_offset 4
 4482              		.cfi_offset 7, -4
 4483 0002 83B0     		sub	sp, sp, #12
 4484              	.LCFI210:
 4485              		.cfi_def_cfa_offset 16
 4486 0004 00AF     		add	r7, sp, #0
 4487              	.LCFI211:
 4488              		.cfi_def_cfa_register 7
 4489 0006 7860     		str	r0, [r7, #4]
2025:d:/LiteOS_Lab/drivers/third_party/ST/STM32L4xx_HAL_Driver/Src\stm32l4xx_hal_uart.c ****   return huart->ErrorCode;
 4490              		.loc 1 2025 15
 4491 0008 7B68     		ldr	r3, [r7, #4]
 4492 000a 5B6F     		ldr	r3, [r3, #116]
2026:d:/LiteOS_Lab/drivers/third_party/ST/STM32L4xx_HAL_Driver/Src\stm32l4xx_hal_uart.c **** }
 4493              		.loc 1 2026 1
 4494 000c 1846     		mov	r0, r3
 4495 000e 0C37     		adds	r7, r7, #12
 4496              	.LCFI212:
 4497              		.cfi_def_cfa_offset 4
 4498 0010 BD46     		mov	sp, r7
 4499              	.LCFI213:
 4500              		.cfi_def_cfa_register 13
 4501              		@ sp needed
 4502 0012 5DF8047B 		ldr	r7, [sp], #4
 4503              	.LCFI214:
 4504              		.cfi_restore 7
 4505              		.cfi_def_cfa_offset 0
 4506 0016 7047     		bx	lr
 4507              		.cfi_endproc
 4508              	.LFE325:
 4510              		.global	__aeabi_uldivmod
 4511              		.section	.text.UART_SetConfig,"ax",%progbits
 4512              		.align	1
 4513              		.global	UART_SetConfig
 4514              		.syntax unified
 4515              		.thumb
 4516              		.thumb_func
 4517              		.fpu fpv4-sp-d16
 4519              	UART_SetConfig:
 4520              	.LFB326:
2027:d:/LiteOS_Lab/drivers/third_party/ST/STM32L4xx_HAL_Driver/Src\stm32l4xx_hal_uart.c **** /**
2028:d:/LiteOS_Lab/drivers/third_party/ST/STM32L4xx_HAL_Driver/Src\stm32l4xx_hal_uart.c ****   * @}
2029:d:/LiteOS_Lab/drivers/third_party/ST/STM32L4xx_HAL_Driver/Src\stm32l4xx_hal_uart.c ****   */
2030:d:/LiteOS_Lab/drivers/third_party/ST/STM32L4xx_HAL_Driver/Src\stm32l4xx_hal_uart.c **** 
2031:d:/LiteOS_Lab/drivers/third_party/ST/STM32L4xx_HAL_Driver/Src\stm32l4xx_hal_uart.c **** /**
2032:d:/LiteOS_Lab/drivers/third_party/ST/STM32L4xx_HAL_Driver/Src\stm32l4xx_hal_uart.c ****   * @}
2033:d:/LiteOS_Lab/drivers/third_party/ST/STM32L4xx_HAL_Driver/Src\stm32l4xx_hal_uart.c ****   */
2034:d:/LiteOS_Lab/drivers/third_party/ST/STM32L4xx_HAL_Driver/Src\stm32l4xx_hal_uart.c **** 
2035:d:/LiteOS_Lab/drivers/third_party/ST/STM32L4xx_HAL_Driver/Src\stm32l4xx_hal_uart.c **** /** @defgroup UART_Private_Functions UART Private Functions
2036:d:/LiteOS_Lab/drivers/third_party/ST/STM32L4xx_HAL_Driver/Src\stm32l4xx_hal_uart.c ****   * @{
2037:d:/LiteOS_Lab/drivers/third_party/ST/STM32L4xx_HAL_Driver/Src\stm32l4xx_hal_uart.c ****   */
2038:d:/LiteOS_Lab/drivers/third_party/ST/STM32L4xx_HAL_Driver/Src\stm32l4xx_hal_uart.c **** 
2039:d:/LiteOS_Lab/drivers/third_party/ST/STM32L4xx_HAL_Driver/Src\stm32l4xx_hal_uart.c **** /**
2040:d:/LiteOS_Lab/drivers/third_party/ST/STM32L4xx_HAL_Driver/Src\stm32l4xx_hal_uart.c ****   * @brief Configure the UART peripheral.
2041:d:/LiteOS_Lab/drivers/third_party/ST/STM32L4xx_HAL_Driver/Src\stm32l4xx_hal_uart.c ****   * @param huart: UART handle.
2042:d:/LiteOS_Lab/drivers/third_party/ST/STM32L4xx_HAL_Driver/Src\stm32l4xx_hal_uart.c ****   * @retval HAL status
ARM GAS  C:\Users\ADMINI~1\AppData\Local\Temp\ccHDbRvY.s 			page 115


2043:d:/LiteOS_Lab/drivers/third_party/ST/STM32L4xx_HAL_Driver/Src\stm32l4xx_hal_uart.c ****   */
2044:d:/LiteOS_Lab/drivers/third_party/ST/STM32L4xx_HAL_Driver/Src\stm32l4xx_hal_uart.c **** HAL_StatusTypeDef UART_SetConfig(UART_HandleTypeDef *huart)
2045:d:/LiteOS_Lab/drivers/third_party/ST/STM32L4xx_HAL_Driver/Src\stm32l4xx_hal_uart.c **** {
 4521              		.loc 1 2045 1
 4522              		.cfi_startproc
 4523              		@ args = 0, pretend = 0, frame = 32
 4524              		@ frame_needed = 1, uses_anonymous_args = 0
 4525 0000 2DE9B04F 		push	{r4, r5, r7, r8, r9, r10, fp, lr}
 4526              	.LCFI215:
 4527              		.cfi_def_cfa_offset 32
 4528              		.cfi_offset 4, -32
 4529              		.cfi_offset 5, -28
 4530              		.cfi_offset 7, -24
 4531              		.cfi_offset 8, -20
 4532              		.cfi_offset 9, -16
 4533              		.cfi_offset 10, -12
 4534              		.cfi_offset 11, -8
 4535              		.cfi_offset 14, -4
 4536 0004 88B0     		sub	sp, sp, #32
 4537              	.LCFI216:
 4538              		.cfi_def_cfa_offset 64
 4539 0006 00AF     		add	r7, sp, #0
 4540              	.LCFI217:
 4541              		.cfi_def_cfa_register 7
 4542 0008 F860     		str	r0, [r7, #12]
2046:d:/LiteOS_Lab/drivers/third_party/ST/STM32L4xx_HAL_Driver/Src\stm32l4xx_hal_uart.c ****   uint32_t tmpreg                     = 0x00000000;
 4543              		.loc 1 2046 12
 4544 000a 0023     		movs	r3, #0
 4545 000c FB61     		str	r3, [r7, #28]
2047:d:/LiteOS_Lab/drivers/third_party/ST/STM32L4xx_HAL_Driver/Src\stm32l4xx_hal_uart.c ****   UART_ClockSourceTypeDef clocksource = UART_CLOCKSOURCE_UNDEFINED;
 4546              		.loc 1 2047 27
 4547 000e 1023     		movs	r3, #16
 4548 0010 FB76     		strb	r3, [r7, #27]
2048:d:/LiteOS_Lab/drivers/third_party/ST/STM32L4xx_HAL_Driver/Src\stm32l4xx_hal_uart.c ****   uint16_t brrtemp                    = 0x0000;
 4549              		.loc 1 2048 12
 4550 0012 0023     		movs	r3, #0
 4551 0014 BB82     		strh	r3, [r7, #20]	@ movhi
2049:d:/LiteOS_Lab/drivers/third_party/ST/STM32L4xx_HAL_Driver/Src\stm32l4xx_hal_uart.c ****   uint16_t usartdiv                   = 0x0000;
 4552              		.loc 1 2049 12
 4553 0016 0023     		movs	r3, #0
 4554 0018 3B83     		strh	r3, [r7, #24]	@ movhi
2050:d:/LiteOS_Lab/drivers/third_party/ST/STM32L4xx_HAL_Driver/Src\stm32l4xx_hal_uart.c ****   HAL_StatusTypeDef ret               = HAL_OK;
 4555              		.loc 1 2050 21
 4556 001a 0023     		movs	r3, #0
 4557 001c FB75     		strb	r3, [r7, #23]
2051:d:/LiteOS_Lab/drivers/third_party/ST/STM32L4xx_HAL_Driver/Src\stm32l4xx_hal_uart.c **** 
2052:d:/LiteOS_Lab/drivers/third_party/ST/STM32L4xx_HAL_Driver/Src\stm32l4xx_hal_uart.c ****   /* Check the parameters */
2053:d:/LiteOS_Lab/drivers/third_party/ST/STM32L4xx_HAL_Driver/Src\stm32l4xx_hal_uart.c ****   assert_param(IS_UART_BAUDRATE(huart->Init.BaudRate));
2054:d:/LiteOS_Lab/drivers/third_party/ST/STM32L4xx_HAL_Driver/Src\stm32l4xx_hal_uart.c ****   assert_param(IS_UART_WORD_LENGTH(huart->Init.WordLength));
2055:d:/LiteOS_Lab/drivers/third_party/ST/STM32L4xx_HAL_Driver/Src\stm32l4xx_hal_uart.c ****   if(UART_INSTANCE_LOWPOWER(huart))
2056:d:/LiteOS_Lab/drivers/third_party/ST/STM32L4xx_HAL_Driver/Src\stm32l4xx_hal_uart.c ****   {
2057:d:/LiteOS_Lab/drivers/third_party/ST/STM32L4xx_HAL_Driver/Src\stm32l4xx_hal_uart.c ****     assert_param(IS_LPUART_STOPBITS(huart->Init.StopBits));
2058:d:/LiteOS_Lab/drivers/third_party/ST/STM32L4xx_HAL_Driver/Src\stm32l4xx_hal_uart.c ****   }
2059:d:/LiteOS_Lab/drivers/third_party/ST/STM32L4xx_HAL_Driver/Src\stm32l4xx_hal_uart.c ****   else
2060:d:/LiteOS_Lab/drivers/third_party/ST/STM32L4xx_HAL_Driver/Src\stm32l4xx_hal_uart.c ****   {
2061:d:/LiteOS_Lab/drivers/third_party/ST/STM32L4xx_HAL_Driver/Src\stm32l4xx_hal_uart.c ****     assert_param(IS_UART_STOPBITS(huart->Init.StopBits));
2062:d:/LiteOS_Lab/drivers/third_party/ST/STM32L4xx_HAL_Driver/Src\stm32l4xx_hal_uart.c ****     assert_param(IS_UART_ONE_BIT_SAMPLE(huart->Init.OneBitSampling));
ARM GAS  C:\Users\ADMINI~1\AppData\Local\Temp\ccHDbRvY.s 			page 116


2063:d:/LiteOS_Lab/drivers/third_party/ST/STM32L4xx_HAL_Driver/Src\stm32l4xx_hal_uart.c ****   }
2064:d:/LiteOS_Lab/drivers/third_party/ST/STM32L4xx_HAL_Driver/Src\stm32l4xx_hal_uart.c **** 
2065:d:/LiteOS_Lab/drivers/third_party/ST/STM32L4xx_HAL_Driver/Src\stm32l4xx_hal_uart.c ****   assert_param(IS_UART_PARITY(huart->Init.Parity));
2066:d:/LiteOS_Lab/drivers/third_party/ST/STM32L4xx_HAL_Driver/Src\stm32l4xx_hal_uart.c ****   assert_param(IS_UART_MODE(huart->Init.Mode));
2067:d:/LiteOS_Lab/drivers/third_party/ST/STM32L4xx_HAL_Driver/Src\stm32l4xx_hal_uart.c ****   assert_param(IS_UART_HARDWARE_FLOW_CONTROL(huart->Init.HwFlowCtl));
2068:d:/LiteOS_Lab/drivers/third_party/ST/STM32L4xx_HAL_Driver/Src\stm32l4xx_hal_uart.c ****   assert_param(IS_UART_OVERSAMPLING(huart->Init.OverSampling));
2069:d:/LiteOS_Lab/drivers/third_party/ST/STM32L4xx_HAL_Driver/Src\stm32l4xx_hal_uart.c **** 
2070:d:/LiteOS_Lab/drivers/third_party/ST/STM32L4xx_HAL_Driver/Src\stm32l4xx_hal_uart.c **** 
2071:d:/LiteOS_Lab/drivers/third_party/ST/STM32L4xx_HAL_Driver/Src\stm32l4xx_hal_uart.c ****   /*-------------------------- USART CR1 Configuration -----------------------*/
2072:d:/LiteOS_Lab/drivers/third_party/ST/STM32L4xx_HAL_Driver/Src\stm32l4xx_hal_uart.c ****   /* Clear M, PCE, PS, TE, RE and OVER8 bits and configure
2073:d:/LiteOS_Lab/drivers/third_party/ST/STM32L4xx_HAL_Driver/Src\stm32l4xx_hal_uart.c ****    *  the UART Word Length, Parity, Mode and oversampling:
2074:d:/LiteOS_Lab/drivers/third_party/ST/STM32L4xx_HAL_Driver/Src\stm32l4xx_hal_uart.c ****    *  set the M bits according to huart->Init.WordLength value
2075:d:/LiteOS_Lab/drivers/third_party/ST/STM32L4xx_HAL_Driver/Src\stm32l4xx_hal_uart.c ****    *  set PCE and PS bits according to huart->Init.Parity value
2076:d:/LiteOS_Lab/drivers/third_party/ST/STM32L4xx_HAL_Driver/Src\stm32l4xx_hal_uart.c ****    *  set TE and RE bits according to huart->Init.Mode value
2077:d:/LiteOS_Lab/drivers/third_party/ST/STM32L4xx_HAL_Driver/Src\stm32l4xx_hal_uart.c ****    *  set OVER8 bit according to huart->Init.OverSampling value */
2078:d:/LiteOS_Lab/drivers/third_party/ST/STM32L4xx_HAL_Driver/Src\stm32l4xx_hal_uart.c ****   tmpreg = (uint32_t)huart->Init.WordLength | huart->Init.Parity | huart->Init.Mode | huart->Init.O
 4558              		.loc 1 2078 33
 4559 001e FB68     		ldr	r3, [r7, #12]
 4560 0020 9A68     		ldr	r2, [r3, #8]
 4561              		.loc 1 2078 58
 4562 0022 FB68     		ldr	r3, [r7, #12]
 4563 0024 1B69     		ldr	r3, [r3, #16]
 4564              		.loc 1 2078 45
 4565 0026 1A43     		orrs	r2, r2, r3
 4566              		.loc 1 2078 79
 4567 0028 FB68     		ldr	r3, [r7, #12]
 4568 002a 5B69     		ldr	r3, [r3, #20]
 4569              		.loc 1 2078 66
 4570 002c 1A43     		orrs	r2, r2, r3
 4571              		.loc 1 2078 98
 4572 002e FB68     		ldr	r3, [r7, #12]
 4573 0030 DB69     		ldr	r3, [r3, #28]
 4574              		.loc 1 2078 10
 4575 0032 1343     		orrs	r3, r3, r2
 4576 0034 FB61     		str	r3, [r7, #28]
2079:d:/LiteOS_Lab/drivers/third_party/ST/STM32L4xx_HAL_Driver/Src\stm32l4xx_hal_uart.c ****   MODIFY_REG(huart->Instance->CR1, UART_CR1_FIELDS, tmpreg);
 4577              		.loc 1 2079 3
 4578 0036 FB68     		ldr	r3, [r7, #12]
 4579 0038 1B68     		ldr	r3, [r3]
 4580 003a 1A68     		ldr	r2, [r3]
 4581 003c AF4B     		ldr	r3, .L275
 4582 003e 1340     		ands	r3, r3, r2
 4583 0040 FA68     		ldr	r2, [r7, #12]
 4584 0042 1268     		ldr	r2, [r2]
 4585 0044 F969     		ldr	r1, [r7, #28]
 4586 0046 0B43     		orrs	r3, r3, r1
 4587 0048 1360     		str	r3, [r2]
2080:d:/LiteOS_Lab/drivers/third_party/ST/STM32L4xx_HAL_Driver/Src\stm32l4xx_hal_uart.c **** 
2081:d:/LiteOS_Lab/drivers/third_party/ST/STM32L4xx_HAL_Driver/Src\stm32l4xx_hal_uart.c ****   /*-------------------------- USART CR2 Configuration -----------------------*/
2082:d:/LiteOS_Lab/drivers/third_party/ST/STM32L4xx_HAL_Driver/Src\stm32l4xx_hal_uart.c ****   /* Configure the UART Stop Bits: Set STOP[13:12] bits according
2083:d:/LiteOS_Lab/drivers/third_party/ST/STM32L4xx_HAL_Driver/Src\stm32l4xx_hal_uart.c ****    * to huart->Init.StopBits value */
2084:d:/LiteOS_Lab/drivers/third_party/ST/STM32L4xx_HAL_Driver/Src\stm32l4xx_hal_uart.c ****   MODIFY_REG(huart->Instance->CR2, USART_CR2_STOP, huart->Init.StopBits);
 4588              		.loc 1 2084 3
 4589 004a FB68     		ldr	r3, [r7, #12]
 4590 004c 1B68     		ldr	r3, [r3]
 4591 004e 5B68     		ldr	r3, [r3, #4]
 4592 0050 23F44051 		bic	r1, r3, #12288
ARM GAS  C:\Users\ADMINI~1\AppData\Local\Temp\ccHDbRvY.s 			page 117


 4593 0054 FB68     		ldr	r3, [r7, #12]
 4594 0056 DA68     		ldr	r2, [r3, #12]
 4595 0058 FB68     		ldr	r3, [r7, #12]
 4596 005a 1B68     		ldr	r3, [r3]
 4597 005c 0A43     		orrs	r2, r2, r1
 4598 005e 5A60     		str	r2, [r3, #4]
2085:d:/LiteOS_Lab/drivers/third_party/ST/STM32L4xx_HAL_Driver/Src\stm32l4xx_hal_uart.c **** 
2086:d:/LiteOS_Lab/drivers/third_party/ST/STM32L4xx_HAL_Driver/Src\stm32l4xx_hal_uart.c ****   /*-------------------------- USART CR3 Configuration -----------------------*/
2087:d:/LiteOS_Lab/drivers/third_party/ST/STM32L4xx_HAL_Driver/Src\stm32l4xx_hal_uart.c ****   /* Configure
2088:d:/LiteOS_Lab/drivers/third_party/ST/STM32L4xx_HAL_Driver/Src\stm32l4xx_hal_uart.c ****    * - UART HardWare Flow Control: set CTSE and RTSE bits according
2089:d:/LiteOS_Lab/drivers/third_party/ST/STM32L4xx_HAL_Driver/Src\stm32l4xx_hal_uart.c ****    *   to huart->Init.HwFlowCtl value
2090:d:/LiteOS_Lab/drivers/third_party/ST/STM32L4xx_HAL_Driver/Src\stm32l4xx_hal_uart.c ****    * - one-bit sampling method versus three samples' majority rule according
2091:d:/LiteOS_Lab/drivers/third_party/ST/STM32L4xx_HAL_Driver/Src\stm32l4xx_hal_uart.c ****    *   to huart->Init.OneBitSampling (not applicable to LPUART) */
2092:d:/LiteOS_Lab/drivers/third_party/ST/STM32L4xx_HAL_Driver/Src\stm32l4xx_hal_uart.c ****   tmpreg = (uint32_t)huart->Init.HwFlowCtl;
 4599              		.loc 1 2092 10
 4600 0060 FB68     		ldr	r3, [r7, #12]
 4601 0062 9B69     		ldr	r3, [r3, #24]
 4602 0064 FB61     		str	r3, [r7, #28]
2093:d:/LiteOS_Lab/drivers/third_party/ST/STM32L4xx_HAL_Driver/Src\stm32l4xx_hal_uart.c ****   if (!(UART_INSTANCE_LOWPOWER(huart)))
 4603              		.loc 1 2093 9
 4604 0066 FB68     		ldr	r3, [r7, #12]
 4605 0068 1B68     		ldr	r3, [r3]
 4606              		.loc 1 2093 6
 4607 006a A54A     		ldr	r2, .L275+4
 4608 006c 9342     		cmp	r3, r2
 4609 006e 04D0     		beq	.L207
2094:d:/LiteOS_Lab/drivers/third_party/ST/STM32L4xx_HAL_Driver/Src\stm32l4xx_hal_uart.c ****   {
2095:d:/LiteOS_Lab/drivers/third_party/ST/STM32L4xx_HAL_Driver/Src\stm32l4xx_hal_uart.c ****     tmpreg |= huart->Init.OneBitSampling;
 4610              		.loc 1 2095 26
 4611 0070 FB68     		ldr	r3, [r7, #12]
 4612 0072 1B6A     		ldr	r3, [r3, #32]
 4613              		.loc 1 2095 12
 4614 0074 FA69     		ldr	r2, [r7, #28]
 4615 0076 1343     		orrs	r3, r3, r2
 4616 0078 FB61     		str	r3, [r7, #28]
 4617              	.L207:
2096:d:/LiteOS_Lab/drivers/third_party/ST/STM32L4xx_HAL_Driver/Src\stm32l4xx_hal_uart.c ****   }
2097:d:/LiteOS_Lab/drivers/third_party/ST/STM32L4xx_HAL_Driver/Src\stm32l4xx_hal_uart.c ****   MODIFY_REG(huart->Instance->CR3, (USART_CR3_RTSE | USART_CR3_CTSE | USART_CR3_ONEBIT), tmpreg);
 4618              		.loc 1 2097 3
 4619 007a FB68     		ldr	r3, [r7, #12]
 4620 007c 1B68     		ldr	r3, [r3]
 4621 007e 9B68     		ldr	r3, [r3, #8]
 4622 0080 23F43061 		bic	r1, r3, #2816
 4623 0084 FB68     		ldr	r3, [r7, #12]
 4624 0086 1B68     		ldr	r3, [r3]
 4625 0088 FA69     		ldr	r2, [r7, #28]
 4626 008a 0A43     		orrs	r2, r2, r1
 4627 008c 9A60     		str	r2, [r3, #8]
2098:d:/LiteOS_Lab/drivers/third_party/ST/STM32L4xx_HAL_Driver/Src\stm32l4xx_hal_uart.c **** 
2099:d:/LiteOS_Lab/drivers/third_party/ST/STM32L4xx_HAL_Driver/Src\stm32l4xx_hal_uart.c ****   /*-------------------------- USART BRR Configuration -----------------------*/
2100:d:/LiteOS_Lab/drivers/third_party/ST/STM32L4xx_HAL_Driver/Src\stm32l4xx_hal_uart.c ****   UART_GETCLOCKSOURCE(huart, clocksource);
 4628              		.loc 1 2100 3
 4629 008e FB68     		ldr	r3, [r7, #12]
 4630 0090 1B68     		ldr	r3, [r3]
 4631 0092 9C4A     		ldr	r2, .L275+8
 4632 0094 9342     		cmp	r3, r2
 4633 0096 20D1     		bne	.L208
ARM GAS  C:\Users\ADMINI~1\AppData\Local\Temp\ccHDbRvY.s 			page 118


 4634              		.loc 1 2100 3 is_stmt 0 discriminator 1
 4635 0098 9B4B     		ldr	r3, .L275+12
 4636 009a D3F88830 		ldr	r3, [r3, #136]
 4637 009e 03F00303 		and	r3, r3, #3
 4638 00a2 032B     		cmp	r3, #3
 4639 00a4 16D8     		bhi	.L209
 4640 00a6 01A2     		adr	r2, .L211
 4641 00a8 52F823F0 		ldr	pc, [r2, r3, lsl #2]
 4642              		.p2align 2
 4643              	.L211:
 4644 00ac BD000000 		.word	.L214+1
 4645 00b0 C9000000 		.word	.L213+1
 4646 00b4 C3000000 		.word	.L212+1
 4647 00b8 CF000000 		.word	.L210+1
 4648              		.p2align 1
 4649              	.L214:
 4650              		.loc 1 2100 3 discriminator 4
 4651 00bc 0123     		movs	r3, #1
 4652 00be FB76     		strb	r3, [r7, #27]
 4653 00c0 95E0     		b	.L216
 4654              	.L212:
 4655              		.loc 1 2100 3 discriminator 6
 4656 00c2 0223     		movs	r3, #2
 4657 00c4 FB76     		strb	r3, [r7, #27]
 4658 00c6 92E0     		b	.L216
 4659              	.L213:
 4660              		.loc 1 2100 3 discriminator 5
 4661 00c8 0423     		movs	r3, #4
 4662 00ca FB76     		strb	r3, [r7, #27]
 4663 00cc 8FE0     		b	.L216
 4664              	.L210:
 4665              		.loc 1 2100 3 discriminator 7
 4666 00ce 0823     		movs	r3, #8
 4667 00d0 FB76     		strb	r3, [r7, #27]
 4668 00d2 8CE0     		b	.L216
 4669              	.L209:
 4670              		.loc 1 2100 3 discriminator 3
 4671 00d4 1023     		movs	r3, #16
 4672 00d6 FB76     		strb	r3, [r7, #27]
 4673 00d8 89E0     		b	.L216
 4674              	.L208:
 4675              		.loc 1 2100 3 discriminator 2
 4676 00da FB68     		ldr	r3, [r7, #12]
 4677 00dc 1B68     		ldr	r3, [r3]
 4678 00de 8B4A     		ldr	r2, .L275+16
 4679 00e0 9342     		cmp	r3, r2
 4680 00e2 32D1     		bne	.L217
 4681              		.loc 1 2100 3 discriminator 13
 4682 00e4 884B     		ldr	r3, .L275+12
 4683 00e6 D3F88830 		ldr	r3, [r3, #136]
 4684 00ea 03F00C03 		and	r3, r3, #12
 4685 00ee 0C2B     		cmp	r3, #12
 4686 00f0 28D8     		bhi	.L218
 4687 00f2 01A2     		adr	r2, .L220
 4688 00f4 52F823F0 		ldr	pc, [r2, r3, lsl #2]
 4689              		.p2align 2
 4690              	.L220:
ARM GAS  C:\Users\ADMINI~1\AppData\Local\Temp\ccHDbRvY.s 			page 119


 4691 00f8 2D010000 		.word	.L223+1
 4692 00fc 45010000 		.word	.L218+1
 4693 0100 45010000 		.word	.L218+1
 4694 0104 45010000 		.word	.L218+1
 4695 0108 39010000 		.word	.L222+1
 4696 010c 45010000 		.word	.L218+1
 4697 0110 45010000 		.word	.L218+1
 4698 0114 45010000 		.word	.L218+1
 4699 0118 33010000 		.word	.L221+1
 4700 011c 45010000 		.word	.L218+1
 4701 0120 45010000 		.word	.L218+1
 4702 0124 45010000 		.word	.L218+1
 4703 0128 3F010000 		.word	.L219+1
 4704              		.p2align 1
 4705              	.L223:
 4706              		.loc 1 2100 3 discriminator 16
 4707 012c 0023     		movs	r3, #0
 4708 012e FB76     		strb	r3, [r7, #27]
 4709 0130 5DE0     		b	.L216
 4710              	.L221:
 4711              		.loc 1 2100 3 discriminator 18
 4712 0132 0223     		movs	r3, #2
 4713 0134 FB76     		strb	r3, [r7, #27]
 4714 0136 5AE0     		b	.L216
 4715              	.L222:
 4716              		.loc 1 2100 3 discriminator 17
 4717 0138 0423     		movs	r3, #4
 4718 013a FB76     		strb	r3, [r7, #27]
 4719 013c 57E0     		b	.L216
 4720              	.L219:
 4721              		.loc 1 2100 3 discriminator 19
 4722 013e 0823     		movs	r3, #8
 4723 0140 FB76     		strb	r3, [r7, #27]
 4724 0142 54E0     		b	.L216
 4725              	.L218:
 4726              		.loc 1 2100 3 discriminator 15
 4727 0144 1023     		movs	r3, #16
 4728 0146 FB76     		strb	r3, [r7, #27]
 4729 0148 51E0     		b	.L216
 4730              	.L217:
 4731              		.loc 1 2100 3 discriminator 14
 4732 014a FB68     		ldr	r3, [r7, #12]
 4733 014c 1B68     		ldr	r3, [r3]
 4734 014e 704A     		ldr	r2, .L275+20
 4735 0150 9342     		cmp	r3, r2
 4736 0152 20D1     		bne	.L225
 4737              		.loc 1 2100 3 discriminator 25
 4738 0154 6C4B     		ldr	r3, .L275+12
 4739 0156 D3F88830 		ldr	r3, [r3, #136]
 4740 015a 03F03003 		and	r3, r3, #48
 4741 015e 302B     		cmp	r3, #48
 4742 0160 13D0     		beq	.L226
 4743              		.loc 1 2100 3
 4744 0162 302B     		cmp	r3, #48
 4745 0164 14D8     		bhi	.L227
 4746 0166 202B     		cmp	r3, #32
 4747 0168 09D0     		beq	.L228
ARM GAS  C:\Users\ADMINI~1\AppData\Local\Temp\ccHDbRvY.s 			page 120


 4748 016a 202B     		cmp	r3, #32
 4749 016c 10D8     		bhi	.L227
 4750 016e 002B     		cmp	r3, #0
 4751 0170 02D0     		beq	.L229
 4752 0172 102B     		cmp	r3, #16
 4753 0174 06D0     		beq	.L230
 4754 0176 0BE0     		b	.L227
 4755              	.L229:
 4756              		.loc 1 2100 3 discriminator 28
 4757 0178 0023     		movs	r3, #0
 4758 017a FB76     		strb	r3, [r7, #27]
 4759 017c 37E0     		b	.L216
 4760              	.L228:
 4761              		.loc 1 2100 3 discriminator 30
 4762 017e 0223     		movs	r3, #2
 4763 0180 FB76     		strb	r3, [r7, #27]
 4764 0182 34E0     		b	.L216
 4765              	.L230:
 4766              		.loc 1 2100 3 discriminator 29
 4767 0184 0423     		movs	r3, #4
 4768 0186 FB76     		strb	r3, [r7, #27]
 4769 0188 31E0     		b	.L216
 4770              	.L226:
 4771              		.loc 1 2100 3 discriminator 31
 4772 018a 0823     		movs	r3, #8
 4773 018c FB76     		strb	r3, [r7, #27]
 4774 018e 2EE0     		b	.L216
 4775              	.L227:
 4776              		.loc 1 2100 3 discriminator 27
 4777 0190 1023     		movs	r3, #16
 4778 0192 FB76     		strb	r3, [r7, #27]
 4779 0194 2BE0     		b	.L216
 4780              	.L225:
 4781              		.loc 1 2100 3 discriminator 26
 4782 0196 FB68     		ldr	r3, [r7, #12]
 4783 0198 1B68     		ldr	r3, [r3]
 4784 019a 594A     		ldr	r2, .L275+4
 4785 019c 9342     		cmp	r3, r2
 4786 019e 25D1     		bne	.L274
 4787              		.loc 1 2100 3 discriminator 37
 4788 01a0 594B     		ldr	r3, .L275+12
 4789 01a2 D3F88830 		ldr	r3, [r3, #136]
 4790 01a6 03F44063 		and	r3, r3, #3072
 4791 01aa B3F5406F 		cmp	r3, #3072
 4792 01ae 17D0     		beq	.L232
 4793              		.loc 1 2100 3
 4794 01b0 B3F5406F 		cmp	r3, #3072
 4795 01b4 17D8     		bhi	.L233
 4796 01b6 B3F5006F 		cmp	r3, #2048
 4797 01ba 0BD0     		beq	.L234
 4798 01bc B3F5006F 		cmp	r3, #2048
 4799 01c0 11D8     		bhi	.L233
 4800 01c2 002B     		cmp	r3, #0
 4801 01c4 03D0     		beq	.L235
 4802 01c6 B3F5806F 		cmp	r3, #1024
 4803 01ca 06D0     		beq	.L236
 4804 01cc 0BE0     		b	.L233
ARM GAS  C:\Users\ADMINI~1\AppData\Local\Temp\ccHDbRvY.s 			page 121


 4805              	.L235:
 4806              		.loc 1 2100 3 discriminator 39
 4807 01ce 0023     		movs	r3, #0
 4808 01d0 FB76     		strb	r3, [r7, #27]
 4809 01d2 0CE0     		b	.L216
 4810              	.L234:
 4811              		.loc 1 2100 3 discriminator 41
 4812 01d4 0223     		movs	r3, #2
 4813 01d6 FB76     		strb	r3, [r7, #27]
 4814 01d8 09E0     		b	.L216
 4815              	.L236:
 4816              		.loc 1 2100 3 discriminator 40
 4817 01da 0423     		movs	r3, #4
 4818 01dc FB76     		strb	r3, [r7, #27]
 4819 01de 06E0     		b	.L216
 4820              	.L232:
 4821              		.loc 1 2100 3 discriminator 42
 4822 01e0 0823     		movs	r3, #8
 4823 01e2 FB76     		strb	r3, [r7, #27]
 4824 01e4 03E0     		b	.L216
 4825              	.L233:
 4826              		.loc 1 2100 3 discriminator 38
 4827 01e6 1023     		movs	r3, #16
 4828 01e8 FB76     		strb	r3, [r7, #27]
 4829 01ea 00E0     		b	.L216
 4830              	.L274:
 4831              		.loc 1 2100 3
 4832 01ec 00BF     		nop
 4833              	.L216:
2101:d:/LiteOS_Lab/drivers/third_party/ST/STM32L4xx_HAL_Driver/Src\stm32l4xx_hal_uart.c **** 
2102:d:/LiteOS_Lab/drivers/third_party/ST/STM32L4xx_HAL_Driver/Src\stm32l4xx_hal_uart.c ****   /* Check LPUART instance */
2103:d:/LiteOS_Lab/drivers/third_party/ST/STM32L4xx_HAL_Driver/Src\stm32l4xx_hal_uart.c ****   if(UART_INSTANCE_LOWPOWER(huart))
 4834              		.loc 1 2103 6 is_stmt 1
 4835 01ee FB68     		ldr	r3, [r7, #12]
 4836 01f0 1B68     		ldr	r3, [r3]
 4837              		.loc 1 2103 5
 4838 01f2 434A     		ldr	r2, .L275+4
 4839 01f4 9342     		cmp	r3, r2
 4840 01f6 40F0FB80 		bne	.L237
2104:d:/LiteOS_Lab/drivers/third_party/ST/STM32L4xx_HAL_Driver/Src\stm32l4xx_hal_uart.c ****   {
2105:d:/LiteOS_Lab/drivers/third_party/ST/STM32L4xx_HAL_Driver/Src\stm32l4xx_hal_uart.c ****     /* Retrieve frequency clock */
2106:d:/LiteOS_Lab/drivers/third_party/ST/STM32L4xx_HAL_Driver/Src\stm32l4xx_hal_uart.c ****     tmpreg = 0;
 4841              		.loc 1 2106 12
 4842 01fa 0023     		movs	r3, #0
 4843 01fc FB61     		str	r3, [r7, #28]
2107:d:/LiteOS_Lab/drivers/third_party/ST/STM32L4xx_HAL_Driver/Src\stm32l4xx_hal_uart.c **** 
2108:d:/LiteOS_Lab/drivers/third_party/ST/STM32L4xx_HAL_Driver/Src\stm32l4xx_hal_uart.c ****     switch (clocksource)
 4844              		.loc 1 2108 5
 4845 01fe FB7E     		ldrb	r3, [r7, #27]	@ zero_extendqisi2
 4846 0200 082B     		cmp	r3, #8
 4847 0202 24D8     		bhi	.L238
 4848 0204 01A2     		adr	r2, .L240
 4849 0206 52F823F0 		ldr	pc, [r2, r3, lsl #2]
 4850 020a 00BF     		.p2align 2
 4851              	.L240:
 4852 020c 31020000 		.word	.L243+1
 4853 0210 4F020000 		.word	.L238+1
ARM GAS  C:\Users\ADMINI~1\AppData\Local\Temp\ccHDbRvY.s 			page 122


 4854 0214 39020000 		.word	.L242+1
 4855 0218 4F020000 		.word	.L238+1
 4856 021c 3F020000 		.word	.L241+1
 4857 0220 4F020000 		.word	.L238+1
 4858 0224 4F020000 		.word	.L238+1
 4859 0228 4F020000 		.word	.L238+1
 4860 022c 47020000 		.word	.L239+1
 4861              		.p2align 1
 4862              	.L243:
2109:d:/LiteOS_Lab/drivers/third_party/ST/STM32L4xx_HAL_Driver/Src\stm32l4xx_hal_uart.c ****     {
2110:d:/LiteOS_Lab/drivers/third_party/ST/STM32L4xx_HAL_Driver/Src\stm32l4xx_hal_uart.c ****     case UART_CLOCKSOURCE_PCLK1:
2111:d:/LiteOS_Lab/drivers/third_party/ST/STM32L4xx_HAL_Driver/Src\stm32l4xx_hal_uart.c ****       tmpreg = HAL_RCC_GetPCLK1Freq();
 4863              		.loc 1 2111 16
 4864 0230 FFF7FEFF 		bl	HAL_RCC_GetPCLK1Freq
 4865 0234 F861     		str	r0, [r7, #28]
2112:d:/LiteOS_Lab/drivers/third_party/ST/STM32L4xx_HAL_Driver/Src\stm32l4xx_hal_uart.c ****       break;
 4866              		.loc 1 2112 7
 4867 0236 0DE0     		b	.L244
 4868              	.L242:
2113:d:/LiteOS_Lab/drivers/third_party/ST/STM32L4xx_HAL_Driver/Src\stm32l4xx_hal_uart.c ****     case UART_CLOCKSOURCE_HSI:
2114:d:/LiteOS_Lab/drivers/third_party/ST/STM32L4xx_HAL_Driver/Src\stm32l4xx_hal_uart.c ****       tmpreg = (uint32_t) HSI_VALUE;
 4869              		.loc 1 2114 14
 4870 0238 364B     		ldr	r3, .L275+24
 4871 023a FB61     		str	r3, [r7, #28]
2115:d:/LiteOS_Lab/drivers/third_party/ST/STM32L4xx_HAL_Driver/Src\stm32l4xx_hal_uart.c ****       break;
 4872              		.loc 1 2115 7
 4873 023c 0AE0     		b	.L244
 4874              	.L241:
2116:d:/LiteOS_Lab/drivers/third_party/ST/STM32L4xx_HAL_Driver/Src\stm32l4xx_hal_uart.c ****     case UART_CLOCKSOURCE_SYSCLK:
2117:d:/LiteOS_Lab/drivers/third_party/ST/STM32L4xx_HAL_Driver/Src\stm32l4xx_hal_uart.c ****       tmpreg = HAL_RCC_GetSysClockFreq();
 4875              		.loc 1 2117 16
 4876 023e FFF7FEFF 		bl	HAL_RCC_GetSysClockFreq
 4877 0242 F861     		str	r0, [r7, #28]
2118:d:/LiteOS_Lab/drivers/third_party/ST/STM32L4xx_HAL_Driver/Src\stm32l4xx_hal_uart.c ****       break;
 4878              		.loc 1 2118 7
 4879 0244 06E0     		b	.L244
 4880              	.L239:
2119:d:/LiteOS_Lab/drivers/third_party/ST/STM32L4xx_HAL_Driver/Src\stm32l4xx_hal_uart.c ****     case UART_CLOCKSOURCE_LSE:
2120:d:/LiteOS_Lab/drivers/third_party/ST/STM32L4xx_HAL_Driver/Src\stm32l4xx_hal_uart.c ****       tmpreg = (uint32_t) LSE_VALUE;
 4881              		.loc 1 2120 14
 4882 0246 4FF40043 		mov	r3, #32768
 4883 024a FB61     		str	r3, [r7, #28]
2121:d:/LiteOS_Lab/drivers/third_party/ST/STM32L4xx_HAL_Driver/Src\stm32l4xx_hal_uart.c ****       break;
 4884              		.loc 1 2121 7
 4885 024c 02E0     		b	.L244
 4886              	.L238:
2122:d:/LiteOS_Lab/drivers/third_party/ST/STM32L4xx_HAL_Driver/Src\stm32l4xx_hal_uart.c ****     case UART_CLOCKSOURCE_UNDEFINED:
2123:d:/LiteOS_Lab/drivers/third_party/ST/STM32L4xx_HAL_Driver/Src\stm32l4xx_hal_uart.c ****     default:
2124:d:/LiteOS_Lab/drivers/third_party/ST/STM32L4xx_HAL_Driver/Src\stm32l4xx_hal_uart.c ****         ret = HAL_ERROR;
 4887              		.loc 1 2124 13
 4888 024e 0123     		movs	r3, #1
 4889 0250 FB75     		strb	r3, [r7, #23]
2125:d:/LiteOS_Lab/drivers/third_party/ST/STM32L4xx_HAL_Driver/Src\stm32l4xx_hal_uart.c ****       break;
 4890              		.loc 1 2125 7
 4891 0252 00BF     		nop
 4892              	.L244:
2126:d:/LiteOS_Lab/drivers/third_party/ST/STM32L4xx_HAL_Driver/Src\stm32l4xx_hal_uart.c ****     }
ARM GAS  C:\Users\ADMINI~1\AppData\Local\Temp\ccHDbRvY.s 			page 123


2127:d:/LiteOS_Lab/drivers/third_party/ST/STM32L4xx_HAL_Driver/Src\stm32l4xx_hal_uart.c **** 
2128:d:/LiteOS_Lab/drivers/third_party/ST/STM32L4xx_HAL_Driver/Src\stm32l4xx_hal_uart.c ****     /* if proper clock source reported */
2129:d:/LiteOS_Lab/drivers/third_party/ST/STM32L4xx_HAL_Driver/Src\stm32l4xx_hal_uart.c ****     if (tmpreg != 0)
 4893              		.loc 1 2129 8
 4894 0254 FB69     		ldr	r3, [r7, #28]
 4895 0256 002B     		cmp	r3, #0
 4896 0258 00F0A981 		beq	.L256
2130:d:/LiteOS_Lab/drivers/third_party/ST/STM32L4xx_HAL_Driver/Src\stm32l4xx_hal_uart.c ****     {
2131:d:/LiteOS_Lab/drivers/third_party/ST/STM32L4xx_HAL_Driver/Src\stm32l4xx_hal_uart.c ****       /* ensure that Frequency clock is in the range [3 * baudrate, 4096 * baudrate] */
2132:d:/LiteOS_Lab/drivers/third_party/ST/STM32L4xx_HAL_Driver/Src\stm32l4xx_hal_uart.c ****       if ( (tmpreg < (3 * huart->Init.BaudRate) ) ||
 4897              		.loc 1 2132 38
 4898 025c FB68     		ldr	r3, [r7, #12]
 4899 025e 5A68     		ldr	r2, [r3, #4]
 4900              		.loc 1 2132 25
 4901 0260 1346     		mov	r3, r2
 4902 0262 5B00     		lsls	r3, r3, #1
 4903 0264 1344     		add	r3, r3, r2
 4904              		.loc 1 2132 10
 4905 0266 FA69     		ldr	r2, [r7, #28]
 4906 0268 9A42     		cmp	r2, r3
 4907 026a 05D3     		bcc	.L246
2133:d:/LiteOS_Lab/drivers/third_party/ST/STM32L4xx_HAL_Driver/Src\stm32l4xx_hal_uart.c ****            (tmpreg > (4096 * huart->Init.BaudRate) ))
 4908              		.loc 1 2133 41 discriminator 1
 4909 026c FB68     		ldr	r3, [r7, #12]
 4910 026e 5B68     		ldr	r3, [r3, #4]
 4911              		.loc 1 2133 28 discriminator 1
 4912 0270 1B03     		lsls	r3, r3, #12
2132:d:/LiteOS_Lab/drivers/third_party/ST/STM32L4xx_HAL_Driver/Src\stm32l4xx_hal_uart.c ****            (tmpreg > (4096 * huart->Init.BaudRate) ))
 4913              		.loc 1 2132 51 discriminator 1
 4914 0272 FA69     		ldr	r2, [r7, #28]
 4915 0274 9A42     		cmp	r2, r3
 4916 0276 02D9     		bls	.L247
 4917              	.L246:
2134:d:/LiteOS_Lab/drivers/third_party/ST/STM32L4xx_HAL_Driver/Src\stm32l4xx_hal_uart.c ****       {
2135:d:/LiteOS_Lab/drivers/third_party/ST/STM32L4xx_HAL_Driver/Src\stm32l4xx_hal_uart.c ****         ret = HAL_ERROR;
 4918              		.loc 1 2135 13
 4919 0278 0123     		movs	r3, #1
 4920 027a FB75     		strb	r3, [r7, #23]
 4921 027c 97E1     		b	.L256
 4922              	.L247:
2136:d:/LiteOS_Lab/drivers/third_party/ST/STM32L4xx_HAL_Driver/Src\stm32l4xx_hal_uart.c ****       }
2137:d:/LiteOS_Lab/drivers/third_party/ST/STM32L4xx_HAL_Driver/Src\stm32l4xx_hal_uart.c ****       else
2138:d:/LiteOS_Lab/drivers/third_party/ST/STM32L4xx_HAL_Driver/Src\stm32l4xx_hal_uart.c ****       {
2139:d:/LiteOS_Lab/drivers/third_party/ST/STM32L4xx_HAL_Driver/Src\stm32l4xx_hal_uart.c ****         switch (clocksource)
 4923              		.loc 1 2139 9
 4924 027e FB7E     		ldrb	r3, [r7, #27]	@ zero_extendqisi2
 4925 0280 082B     		cmp	r3, #8
 4926 0282 00F2A280 		bhi	.L248
 4927 0286 01A2     		adr	r2, .L250
 4928 0288 52F823F0 		ldr	pc, [r2, r3, lsl #2]
 4929              		.p2align 2
 4930              	.L250:
 4931 028c B1020000 		.word	.L253+1
 4932 0290 CB030000 		.word	.L248+1
 4933 0294 19030000 		.word	.L252+1
 4934 0298 CB030000 		.word	.L248+1
 4935 029c 4F030000 		.word	.L251+1
ARM GAS  C:\Users\ADMINI~1\AppData\Local\Temp\ccHDbRvY.s 			page 124


 4936 02a0 CB030000 		.word	.L248+1
 4937 02a4 CB030000 		.word	.L248+1
 4938 02a8 CB030000 		.word	.L248+1
 4939 02ac 9B030000 		.word	.L249+1
 4940              		.p2align 1
 4941              	.L253:
2140:d:/LiteOS_Lab/drivers/third_party/ST/STM32L4xx_HAL_Driver/Src\stm32l4xx_hal_uart.c ****         {
2141:d:/LiteOS_Lab/drivers/third_party/ST/STM32L4xx_HAL_Driver/Src\stm32l4xx_hal_uart.c ****         case UART_CLOCKSOURCE_PCLK1:
2142:d:/LiteOS_Lab/drivers/third_party/ST/STM32L4xx_HAL_Driver/Src\stm32l4xx_hal_uart.c ****           tmpreg = (uint32_t)(UART_DIV_LPUART(HAL_RCC_GetPCLK1Freq(), huart->Init.BaudRate));
 4942              		.loc 1 2142 31
 4943 02b0 FFF7FEFF 		bl	HAL_RCC_GetPCLK1Freq
 4944 02b4 0346     		mov	r3, r0
 4945 02b6 1846     		mov	r0, r3
 4946 02b8 4FF00001 		mov	r1, #0
 4947 02bc 4FF00002 		mov	r2, #0
 4948 02c0 4FF00003 		mov	r3, #0
 4949 02c4 0B02     		lsls	r3, r1, #8
 4950 02c6 43EA1063 		orr	r3, r3, r0, lsr #24
 4951 02ca 0202     		lsls	r2, r0, #8
 4952 02cc F968     		ldr	r1, [r7, #12]
 4953 02ce 4968     		ldr	r1, [r1, #4]
 4954 02d0 4908     		lsrs	r1, r1, #1
 4955 02d2 0846     		mov	r0, r1
 4956 02d4 4FF00001 		mov	r1, #0
 4957 02d8 1418     		adds	r4, r2, r0
 4958 02da 3C60     		str	r4, [r7]
 4959 02dc 4B41     		adcs	r3, r3, r1
 4960 02de 7B60     		str	r3, [r7, #4]
 4961 02e0 FB68     		ldr	r3, [r7, #12]
 4962 02e2 5B68     		ldr	r3, [r3, #4]
 4963 02e4 1A46     		mov	r2, r3
 4964 02e6 4FF00003 		mov	r3, #0
 4965 02ea D7E90001 		ldrd	r0, [r7]
 4966 02ee FFF7FEFF 		bl	__aeabi_uldivmod
 4967              	.LVL3:
 4968 02f2 0246     		mov	r2, r0
 4969 02f4 0B46     		mov	r3, r1
 4970              		.loc 1 2142 18
 4971 02f6 1346     		mov	r3, r2
 4972 02f8 FB61     		str	r3, [r7, #28]
2143:d:/LiteOS_Lab/drivers/third_party/ST/STM32L4xx_HAL_Driver/Src\stm32l4xx_hal_uart.c ****           break;
 4973              		.loc 1 2143 11
 4974 02fa 69E0     		b	.L254
 4975              	.L276:
 4976              		.align	2
 4977              	.L275:
 4978 02fc F369FFEF 		.word	-268473869
 4979 0300 00800040 		.word	1073774592
 4980 0304 00380140 		.word	1073821696
 4981 0308 00100240 		.word	1073876992
 4982 030c 00440040 		.word	1073759232
 4983 0310 00480040 		.word	1073760256
 4984 0314 0024F400 		.word	16000000
 4985              	.L252:
2144:d:/LiteOS_Lab/drivers/third_party/ST/STM32L4xx_HAL_Driver/Src\stm32l4xx_hal_uart.c ****         case UART_CLOCKSOURCE_HSI:
2145:d:/LiteOS_Lab/drivers/third_party/ST/STM32L4xx_HAL_Driver/Src\stm32l4xx_hal_uart.c ****           tmpreg = (uint32_t)(UART_DIV_LPUART(HSI_VALUE, huart->Init.BaudRate));
 4986              		.loc 1 2145 31
ARM GAS  C:\Users\ADMINI~1\AppData\Local\Temp\ccHDbRvY.s 			page 125


 4987 0318 FB68     		ldr	r3, [r7, #12]
 4988 031a 5B68     		ldr	r3, [r3, #4]
 4989 031c 5B08     		lsrs	r3, r3, #1
 4990 031e 1A46     		mov	r2, r3
 4991 0320 4FF00003 		mov	r3, #0
 4992 0324 A548     		ldr	r0, .L277
 4993 0326 4FF00001 		mov	r1, #0
 4994 032a 12EB000A 		adds	r10, r2, r0
 4995 032e 43EB010B 		adc	fp, r3, r1
 4996 0332 FB68     		ldr	r3, [r7, #12]
 4997 0334 5B68     		ldr	r3, [r3, #4]
 4998 0336 1A46     		mov	r2, r3
 4999 0338 4FF00003 		mov	r3, #0
 5000 033c 5046     		mov	r0, r10
 5001 033e 5946     		mov	r1, fp
 5002 0340 FFF7FEFF 		bl	__aeabi_uldivmod
 5003              	.LVL4:
 5004 0344 0246     		mov	r2, r0
 5005 0346 0B46     		mov	r3, r1
 5006              		.loc 1 2145 18
 5007 0348 1346     		mov	r3, r2
 5008 034a FB61     		str	r3, [r7, #28]
2146:d:/LiteOS_Lab/drivers/third_party/ST/STM32L4xx_HAL_Driver/Src\stm32l4xx_hal_uart.c ****           break;
 5009              		.loc 1 2146 11
 5010 034c 40E0     		b	.L254
 5011              	.L251:
2147:d:/LiteOS_Lab/drivers/third_party/ST/STM32L4xx_HAL_Driver/Src\stm32l4xx_hal_uart.c ****         case UART_CLOCKSOURCE_SYSCLK:
2148:d:/LiteOS_Lab/drivers/third_party/ST/STM32L4xx_HAL_Driver/Src\stm32l4xx_hal_uart.c ****           tmpreg = (uint32_t)(UART_DIV_LPUART(HAL_RCC_GetSysClockFreq(), huart->Init.BaudRate));
 5012              		.loc 1 2148 31
 5013 034e FFF7FEFF 		bl	HAL_RCC_GetSysClockFreq
 5014 0352 0346     		mov	r3, r0
 5015 0354 1846     		mov	r0, r3
 5016 0356 4FF00001 		mov	r1, #0
 5017 035a 4FF00002 		mov	r2, #0
 5018 035e 4FF00003 		mov	r3, #0
 5019 0362 0B02     		lsls	r3, r1, #8
 5020 0364 43EA1063 		orr	r3, r3, r0, lsr #24
 5021 0368 0202     		lsls	r2, r0, #8
 5022 036a F968     		ldr	r1, [r7, #12]
 5023 036c 4968     		ldr	r1, [r1, #4]
 5024 036e 4908     		lsrs	r1, r1, #1
 5025 0370 0846     		mov	r0, r1
 5026 0372 4FF00001 		mov	r1, #0
 5027 0376 12EB0008 		adds	r8, r2, r0
 5028 037a 43EB0109 		adc	r9, r3, r1
 5029 037e FB68     		ldr	r3, [r7, #12]
 5030 0380 5B68     		ldr	r3, [r3, #4]
 5031 0382 1A46     		mov	r2, r3
 5032 0384 4FF00003 		mov	r3, #0
 5033 0388 4046     		mov	r0, r8
 5034 038a 4946     		mov	r1, r9
 5035 038c FFF7FEFF 		bl	__aeabi_uldivmod
 5036              	.LVL5:
 5037 0390 0246     		mov	r2, r0
 5038 0392 0B46     		mov	r3, r1
 5039              		.loc 1 2148 18
 5040 0394 1346     		mov	r3, r2
ARM GAS  C:\Users\ADMINI~1\AppData\Local\Temp\ccHDbRvY.s 			page 126


 5041 0396 FB61     		str	r3, [r7, #28]
2149:d:/LiteOS_Lab/drivers/third_party/ST/STM32L4xx_HAL_Driver/Src\stm32l4xx_hal_uart.c ****           break;
 5042              		.loc 1 2149 11
 5043 0398 1AE0     		b	.L254
 5044              	.L249:
2150:d:/LiteOS_Lab/drivers/third_party/ST/STM32L4xx_HAL_Driver/Src\stm32l4xx_hal_uart.c ****         case UART_CLOCKSOURCE_LSE:
2151:d:/LiteOS_Lab/drivers/third_party/ST/STM32L4xx_HAL_Driver/Src\stm32l4xx_hal_uart.c ****           tmpreg = (uint32_t)(UART_DIV_LPUART(LSE_VALUE, huart->Init.BaudRate));
 5045              		.loc 1 2151 31
 5046 039a FB68     		ldr	r3, [r7, #12]
 5047 039c 5B68     		ldr	r3, [r3, #4]
 5048 039e 5B08     		lsrs	r3, r3, #1
 5049 03a0 1A46     		mov	r2, r3
 5050 03a2 4FF00003 		mov	r3, #0
 5051 03a6 12F50004 		adds	r4, r2, #8388608
 5052 03aa 43F10005 		adc	r5, r3, #0
 5053 03ae FB68     		ldr	r3, [r7, #12]
 5054 03b0 5B68     		ldr	r3, [r3, #4]
 5055 03b2 1A46     		mov	r2, r3
 5056 03b4 4FF00003 		mov	r3, #0
 5057 03b8 2046     		mov	r0, r4
 5058 03ba 2946     		mov	r1, r5
 5059 03bc FFF7FEFF 		bl	__aeabi_uldivmod
 5060              	.LVL6:
 5061 03c0 0246     		mov	r2, r0
 5062 03c2 0B46     		mov	r3, r1
 5063              		.loc 1 2151 18
 5064 03c4 1346     		mov	r3, r2
 5065 03c6 FB61     		str	r3, [r7, #28]
2152:d:/LiteOS_Lab/drivers/third_party/ST/STM32L4xx_HAL_Driver/Src\stm32l4xx_hal_uart.c ****           break;
 5066              		.loc 1 2152 11
 5067 03c8 02E0     		b	.L254
 5068              	.L248:
2153:d:/LiteOS_Lab/drivers/third_party/ST/STM32L4xx_HAL_Driver/Src\stm32l4xx_hal_uart.c ****         case UART_CLOCKSOURCE_UNDEFINED:
2154:d:/LiteOS_Lab/drivers/third_party/ST/STM32L4xx_HAL_Driver/Src\stm32l4xx_hal_uart.c ****         default:
2155:d:/LiteOS_Lab/drivers/third_party/ST/STM32L4xx_HAL_Driver/Src\stm32l4xx_hal_uart.c ****           ret = HAL_ERROR;
 5069              		.loc 1 2155 15
 5070 03ca 0123     		movs	r3, #1
 5071 03cc FB75     		strb	r3, [r7, #23]
2156:d:/LiteOS_Lab/drivers/third_party/ST/STM32L4xx_HAL_Driver/Src\stm32l4xx_hal_uart.c ****           break;
 5072              		.loc 1 2156 11
 5073 03ce 00BF     		nop
 5074              	.L254:
2157:d:/LiteOS_Lab/drivers/third_party/ST/STM32L4xx_HAL_Driver/Src\stm32l4xx_hal_uart.c ****         }
2158:d:/LiteOS_Lab/drivers/third_party/ST/STM32L4xx_HAL_Driver/Src\stm32l4xx_hal_uart.c ****    
2159:d:/LiteOS_Lab/drivers/third_party/ST/STM32L4xx_HAL_Driver/Src\stm32l4xx_hal_uart.c ****         if ((tmpreg >= UART_LPUART_BRR_MIN) && (tmpreg <= UART_LPUART_BRR_MAX))
 5075              		.loc 1 2159 12
 5076 03d0 FB69     		ldr	r3, [r7, #28]
 5077 03d2 B3F5407F 		cmp	r3, #768
 5078 03d6 08D3     		bcc	.L255
 5079              		.loc 1 2159 45 discriminator 1
 5080 03d8 FB69     		ldr	r3, [r7, #28]
 5081 03da B3F5801F 		cmp	r3, #1048576
 5082 03de 04D2     		bcs	.L255
2160:d:/LiteOS_Lab/drivers/third_party/ST/STM32L4xx_HAL_Driver/Src\stm32l4xx_hal_uart.c ****         {
2161:d:/LiteOS_Lab/drivers/third_party/ST/STM32L4xx_HAL_Driver/Src\stm32l4xx_hal_uart.c ****            huart->Instance->BRR = tmpreg;
 5083              		.loc 1 2161 17
 5084 03e0 FB68     		ldr	r3, [r7, #12]
ARM GAS  C:\Users\ADMINI~1\AppData\Local\Temp\ccHDbRvY.s 			page 127


 5085 03e2 1B68     		ldr	r3, [r3]
 5086              		.loc 1 2161 33
 5087 03e4 FA69     		ldr	r2, [r7, #28]
 5088 03e6 DA60     		str	r2, [r3, #12]
 5089 03e8 E1E0     		b	.L256
 5090              	.L255:
2162:d:/LiteOS_Lab/drivers/third_party/ST/STM32L4xx_HAL_Driver/Src\stm32l4xx_hal_uart.c ****         }
2163:d:/LiteOS_Lab/drivers/third_party/ST/STM32L4xx_HAL_Driver/Src\stm32l4xx_hal_uart.c ****         else
2164:d:/LiteOS_Lab/drivers/third_party/ST/STM32L4xx_HAL_Driver/Src\stm32l4xx_hal_uart.c ****         {
2165:d:/LiteOS_Lab/drivers/third_party/ST/STM32L4xx_HAL_Driver/Src\stm32l4xx_hal_uart.c ****           ret = HAL_ERROR;
 5091              		.loc 1 2165 15
 5092 03ea 0123     		movs	r3, #1
 5093 03ec FB75     		strb	r3, [r7, #23]
 5094 03ee DEE0     		b	.L256
 5095              	.L237:
2166:d:/LiteOS_Lab/drivers/third_party/ST/STM32L4xx_HAL_Driver/Src\stm32l4xx_hal_uart.c ****         }
2167:d:/LiteOS_Lab/drivers/third_party/ST/STM32L4xx_HAL_Driver/Src\stm32l4xx_hal_uart.c ****       }  /*   if ( (tmpreg < (3 * huart->Init.BaudRate) ) || (tmpreg > (4096 * huart->Init.BaudRate
2168:d:/LiteOS_Lab/drivers/third_party/ST/STM32L4xx_HAL_Driver/Src\stm32l4xx_hal_uart.c ****     } /* if (tmpreg != 0) */
2169:d:/LiteOS_Lab/drivers/third_party/ST/STM32L4xx_HAL_Driver/Src\stm32l4xx_hal_uart.c ****   }
2170:d:/LiteOS_Lab/drivers/third_party/ST/STM32L4xx_HAL_Driver/Src\stm32l4xx_hal_uart.c ****   /* Check UART Over Sampling to set Baud Rate Register */
2171:d:/LiteOS_Lab/drivers/third_party/ST/STM32L4xx_HAL_Driver/Src\stm32l4xx_hal_uart.c ****   else if (huart->Init.OverSampling == UART_OVERSAMPLING_8)
 5096              		.loc 1 2171 23
 5097 03f0 FB68     		ldr	r3, [r7, #12]
 5098 03f2 DB69     		ldr	r3, [r3, #28]
 5099              		.loc 1 2171 11
 5100 03f4 B3F5004F 		cmp	r3, #32768
 5101 03f8 6FD1     		bne	.L257
2172:d:/LiteOS_Lab/drivers/third_party/ST/STM32L4xx_HAL_Driver/Src\stm32l4xx_hal_uart.c ****   {
2173:d:/LiteOS_Lab/drivers/third_party/ST/STM32L4xx_HAL_Driver/Src\stm32l4xx_hal_uart.c ****     switch (clocksource)
 5102              		.loc 1 2173 5
 5103 03fa FB7E     		ldrb	r3, [r7, #27]	@ zero_extendqisi2
 5104 03fc 082B     		cmp	r3, #8
 5105 03fe 57D8     		bhi	.L258
 5106 0400 01A2     		adr	r2, .L260
 5107 0402 52F823F0 		ldr	pc, [r2, r3, lsl #2]
 5108 0406 00BF     		.p2align 2
 5109              	.L260:
 5110 0408 2D040000 		.word	.L264+1
 5111 040c 49040000 		.word	.L263+1
 5112 0410 65040000 		.word	.L262+1
 5113 0414 B1040000 		.word	.L258+1
 5114 0418 7F040000 		.word	.L261+1
 5115 041c B1040000 		.word	.L258+1
 5116 0420 B1040000 		.word	.L258+1
 5117 0424 B1040000 		.word	.L258+1
 5118 0428 9B040000 		.word	.L259+1
 5119              		.p2align 1
 5120              	.L264:
2174:d:/LiteOS_Lab/drivers/third_party/ST/STM32L4xx_HAL_Driver/Src\stm32l4xx_hal_uart.c ****     {
2175:d:/LiteOS_Lab/drivers/third_party/ST/STM32L4xx_HAL_Driver/Src\stm32l4xx_hal_uart.c ****     case UART_CLOCKSOURCE_PCLK1:
2176:d:/LiteOS_Lab/drivers/third_party/ST/STM32L4xx_HAL_Driver/Src\stm32l4xx_hal_uart.c ****       usartdiv = (uint16_t)(UART_DIV_SAMPLING8(HAL_RCC_GetPCLK1Freq(), huart->Init.BaudRate));
 5121              		.loc 1 2176 29
 5122 042c FFF7FEFF 		bl	HAL_RCC_GetPCLK1Freq
 5123 0430 0346     		mov	r3, r0
 5124 0432 5A00     		lsls	r2, r3, #1
 5125 0434 FB68     		ldr	r3, [r7, #12]
 5126 0436 5B68     		ldr	r3, [r3, #4]
ARM GAS  C:\Users\ADMINI~1\AppData\Local\Temp\ccHDbRvY.s 			page 128


 5127 0438 5B08     		lsrs	r3, r3, #1
 5128 043a 1A44     		add	r2, r2, r3
 5129 043c FB68     		ldr	r3, [r7, #12]
 5130 043e 5B68     		ldr	r3, [r3, #4]
 5131 0440 B2FBF3F3 		udiv	r3, r2, r3
 5132              		.loc 1 2176 16
 5133 0444 3B83     		strh	r3, [r7, #24]	@ movhi
2177:d:/LiteOS_Lab/drivers/third_party/ST/STM32L4xx_HAL_Driver/Src\stm32l4xx_hal_uart.c ****       break;
 5134              		.loc 1 2177 7
 5135 0446 36E0     		b	.L265
 5136              	.L263:
2178:d:/LiteOS_Lab/drivers/third_party/ST/STM32L4xx_HAL_Driver/Src\stm32l4xx_hal_uart.c ****     case UART_CLOCKSOURCE_PCLK2:
2179:d:/LiteOS_Lab/drivers/third_party/ST/STM32L4xx_HAL_Driver/Src\stm32l4xx_hal_uart.c ****       usartdiv = (uint16_t)(UART_DIV_SAMPLING8(HAL_RCC_GetPCLK2Freq(), huart->Init.BaudRate));
 5137              		.loc 1 2179 29
 5138 0448 FFF7FEFF 		bl	HAL_RCC_GetPCLK2Freq
 5139 044c 0346     		mov	r3, r0
 5140 044e 5A00     		lsls	r2, r3, #1
 5141 0450 FB68     		ldr	r3, [r7, #12]
 5142 0452 5B68     		ldr	r3, [r3, #4]
 5143 0454 5B08     		lsrs	r3, r3, #1
 5144 0456 1A44     		add	r2, r2, r3
 5145 0458 FB68     		ldr	r3, [r7, #12]
 5146 045a 5B68     		ldr	r3, [r3, #4]
 5147 045c B2FBF3F3 		udiv	r3, r2, r3
 5148              		.loc 1 2179 16
 5149 0460 3B83     		strh	r3, [r7, #24]	@ movhi
2180:d:/LiteOS_Lab/drivers/third_party/ST/STM32L4xx_HAL_Driver/Src\stm32l4xx_hal_uart.c ****       break;
 5150              		.loc 1 2180 7
 5151 0462 28E0     		b	.L265
 5152              	.L262:
2181:d:/LiteOS_Lab/drivers/third_party/ST/STM32L4xx_HAL_Driver/Src\stm32l4xx_hal_uart.c ****     case UART_CLOCKSOURCE_HSI:
2182:d:/LiteOS_Lab/drivers/third_party/ST/STM32L4xx_HAL_Driver/Src\stm32l4xx_hal_uart.c ****       usartdiv = (uint16_t)(UART_DIV_SAMPLING8(HSI_VALUE, huart->Init.BaudRate));
 5153              		.loc 1 2182 29
 5154 0464 FB68     		ldr	r3, [r7, #12]
 5155 0466 5B68     		ldr	r3, [r3, #4]
 5156 0468 5B08     		lsrs	r3, r3, #1
 5157 046a 03F1F473 		add	r3, r3, #31981568
 5158 046e 03F59043 		add	r3, r3, #18432
 5159 0472 FA68     		ldr	r2, [r7, #12]
 5160 0474 5268     		ldr	r2, [r2, #4]
 5161 0476 B3FBF2F3 		udiv	r3, r3, r2
 5162              		.loc 1 2182 16
 5163 047a 3B83     		strh	r3, [r7, #24]	@ movhi
2183:d:/LiteOS_Lab/drivers/third_party/ST/STM32L4xx_HAL_Driver/Src\stm32l4xx_hal_uart.c ****       break;
 5164              		.loc 1 2183 7
 5165 047c 1BE0     		b	.L265
 5166              	.L261:
2184:d:/LiteOS_Lab/drivers/third_party/ST/STM32L4xx_HAL_Driver/Src\stm32l4xx_hal_uart.c ****     case UART_CLOCKSOURCE_SYSCLK:
2185:d:/LiteOS_Lab/drivers/third_party/ST/STM32L4xx_HAL_Driver/Src\stm32l4xx_hal_uart.c ****       usartdiv = (uint16_t)(UART_DIV_SAMPLING8(HAL_RCC_GetSysClockFreq(), huart->Init.BaudRate));
 5167              		.loc 1 2185 29
 5168 047e FFF7FEFF 		bl	HAL_RCC_GetSysClockFreq
 5169 0482 0346     		mov	r3, r0
 5170 0484 5A00     		lsls	r2, r3, #1
 5171 0486 FB68     		ldr	r3, [r7, #12]
 5172 0488 5B68     		ldr	r3, [r3, #4]
 5173 048a 5B08     		lsrs	r3, r3, #1
 5174 048c 1A44     		add	r2, r2, r3
ARM GAS  C:\Users\ADMINI~1\AppData\Local\Temp\ccHDbRvY.s 			page 129


 5175 048e FB68     		ldr	r3, [r7, #12]
 5176 0490 5B68     		ldr	r3, [r3, #4]
 5177 0492 B2FBF3F3 		udiv	r3, r2, r3
 5178              		.loc 1 2185 16
 5179 0496 3B83     		strh	r3, [r7, #24]	@ movhi
2186:d:/LiteOS_Lab/drivers/third_party/ST/STM32L4xx_HAL_Driver/Src\stm32l4xx_hal_uart.c ****       break;
 5180              		.loc 1 2186 7
 5181 0498 0DE0     		b	.L265
 5182              	.L259:
2187:d:/LiteOS_Lab/drivers/third_party/ST/STM32L4xx_HAL_Driver/Src\stm32l4xx_hal_uart.c ****     case UART_CLOCKSOURCE_LSE:
2188:d:/LiteOS_Lab/drivers/third_party/ST/STM32L4xx_HAL_Driver/Src\stm32l4xx_hal_uart.c ****       usartdiv = (uint16_t)(UART_DIV_SAMPLING8(LSE_VALUE, huart->Init.BaudRate));
 5183              		.loc 1 2188 29
 5184 049a FB68     		ldr	r3, [r7, #12]
 5185 049c 5B68     		ldr	r3, [r3, #4]
 5186 049e 5B08     		lsrs	r3, r3, #1
 5187 04a0 03F58032 		add	r2, r3, #65536
 5188 04a4 FB68     		ldr	r3, [r7, #12]
 5189 04a6 5B68     		ldr	r3, [r3, #4]
 5190 04a8 B2FBF3F3 		udiv	r3, r2, r3
 5191              		.loc 1 2188 16
 5192 04ac 3B83     		strh	r3, [r7, #24]	@ movhi
2189:d:/LiteOS_Lab/drivers/third_party/ST/STM32L4xx_HAL_Driver/Src\stm32l4xx_hal_uart.c ****       break;
 5193              		.loc 1 2189 7
 5194 04ae 02E0     		b	.L265
 5195              	.L258:
2190:d:/LiteOS_Lab/drivers/third_party/ST/STM32L4xx_HAL_Driver/Src\stm32l4xx_hal_uart.c ****     case UART_CLOCKSOURCE_UNDEFINED:
2191:d:/LiteOS_Lab/drivers/third_party/ST/STM32L4xx_HAL_Driver/Src\stm32l4xx_hal_uart.c ****     default:
2192:d:/LiteOS_Lab/drivers/third_party/ST/STM32L4xx_HAL_Driver/Src\stm32l4xx_hal_uart.c ****         ret = HAL_ERROR;
 5196              		.loc 1 2192 13
 5197 04b0 0123     		movs	r3, #1
 5198 04b2 FB75     		strb	r3, [r7, #23]
2193:d:/LiteOS_Lab/drivers/third_party/ST/STM32L4xx_HAL_Driver/Src\stm32l4xx_hal_uart.c ****       break;
 5199              		.loc 1 2193 7
 5200 04b4 00BF     		nop
 5201              	.L265:
2194:d:/LiteOS_Lab/drivers/third_party/ST/STM32L4xx_HAL_Driver/Src\stm32l4xx_hal_uart.c ****     }
2195:d:/LiteOS_Lab/drivers/third_party/ST/STM32L4xx_HAL_Driver/Src\stm32l4xx_hal_uart.c **** 
2196:d:/LiteOS_Lab/drivers/third_party/ST/STM32L4xx_HAL_Driver/Src\stm32l4xx_hal_uart.c ****     brrtemp = usartdiv & 0xFFF0;
 5202              		.loc 1 2196 13
 5203 04b6 3B8B     		ldrh	r3, [r7, #24]	@ movhi
 5204 04b8 23F00F03 		bic	r3, r3, #15
 5205 04bc BB82     		strh	r3, [r7, #20]	@ movhi
2197:d:/LiteOS_Lab/drivers/third_party/ST/STM32L4xx_HAL_Driver/Src\stm32l4xx_hal_uart.c ****     brrtemp |= (uint16_t)((usartdiv & (uint16_t)0x000F) >> 1U);
 5206              		.loc 1 2197 57
 5207 04be 3B8B     		ldrh	r3, [r7, #24]
 5208 04c0 5B10     		asrs	r3, r3, #1
 5209              		.loc 1 2197 16
 5210 04c2 9BB2     		uxth	r3, r3
 5211 04c4 03F00703 		and	r3, r3, #7
 5212 04c8 9AB2     		uxth	r2, r3
 5213              		.loc 1 2197 13
 5214 04ca BB8A     		ldrh	r3, [r7, #20]	@ movhi
 5215 04cc 1343     		orrs	r3, r3, r2
 5216 04ce BB82     		strh	r3, [r7, #20]	@ movhi
2198:d:/LiteOS_Lab/drivers/third_party/ST/STM32L4xx_HAL_Driver/Src\stm32l4xx_hal_uart.c ****     huart->Instance->BRR = brrtemp;
 5217              		.loc 1 2198 10
 5218 04d0 FB68     		ldr	r3, [r7, #12]
ARM GAS  C:\Users\ADMINI~1\AppData\Local\Temp\ccHDbRvY.s 			page 130


 5219 04d2 1B68     		ldr	r3, [r3]
 5220              		.loc 1 2198 26
 5221 04d4 BA8A     		ldrh	r2, [r7, #20]
 5222 04d6 DA60     		str	r2, [r3, #12]
 5223 04d8 69E0     		b	.L256
 5224              	.L257:
2199:d:/LiteOS_Lab/drivers/third_party/ST/STM32L4xx_HAL_Driver/Src\stm32l4xx_hal_uart.c ****   }
2200:d:/LiteOS_Lab/drivers/third_party/ST/STM32L4xx_HAL_Driver/Src\stm32l4xx_hal_uart.c ****   else
2201:d:/LiteOS_Lab/drivers/third_party/ST/STM32L4xx_HAL_Driver/Src\stm32l4xx_hal_uart.c ****   {
2202:d:/LiteOS_Lab/drivers/third_party/ST/STM32L4xx_HAL_Driver/Src\stm32l4xx_hal_uart.c ****     switch (clocksource)
 5225              		.loc 1 2202 5
 5226 04da FB7E     		ldrb	r3, [r7, #27]	@ zero_extendqisi2
 5227 04dc 082B     		cmp	r3, #8
 5228 04de 63D8     		bhi	.L266
 5229 04e0 01A2     		adr	r2, .L268
 5230 04e2 52F823F0 		ldr	pc, [r2, r3, lsl #2]
 5231 04e6 00BF     		.p2align 2
 5232              	.L268:
 5233 04e8 0D050000 		.word	.L272+1
 5234 04ec 2D050000 		.word	.L271+1
 5235 04f0 4D050000 		.word	.L270+1
 5236 04f4 A9050000 		.word	.L266+1
 5237 04f8 6D050000 		.word	.L269+1
 5238 04fc A9050000 		.word	.L266+1
 5239 0500 A9050000 		.word	.L266+1
 5240 0504 A9050000 		.word	.L266+1
 5241 0508 8D050000 		.word	.L267+1
 5242              		.p2align 1
 5243              	.L272:
2203:d:/LiteOS_Lab/drivers/third_party/ST/STM32L4xx_HAL_Driver/Src\stm32l4xx_hal_uart.c ****     {
2204:d:/LiteOS_Lab/drivers/third_party/ST/STM32L4xx_HAL_Driver/Src\stm32l4xx_hal_uart.c ****     case UART_CLOCKSOURCE_PCLK1:
2205:d:/LiteOS_Lab/drivers/third_party/ST/STM32L4xx_HAL_Driver/Src\stm32l4xx_hal_uart.c ****       huart->Instance->BRR = (uint16_t)(UART_DIV_SAMPLING16(HAL_RCC_GetPCLK1Freq(), huart->Init.Bau
 5244              		.loc 1 2205 41
 5245 050c FFF7FEFF 		bl	HAL_RCC_GetPCLK1Freq
 5246 0510 0246     		mov	r2, r0
 5247 0512 FB68     		ldr	r3, [r7, #12]
 5248 0514 5B68     		ldr	r3, [r3, #4]
 5249 0516 5B08     		lsrs	r3, r3, #1
 5250 0518 1A44     		add	r2, r2, r3
 5251 051a FB68     		ldr	r3, [r7, #12]
 5252 051c 5B68     		ldr	r3, [r3, #4]
 5253 051e B2FBF3F3 		udiv	r3, r2, r3
 5254              		.loc 1 2205 30
 5255 0522 9AB2     		uxth	r2, r3
 5256              		.loc 1 2205 12
 5257 0524 FB68     		ldr	r3, [r7, #12]
 5258 0526 1B68     		ldr	r3, [r3]
 5259              		.loc 1 2205 28
 5260 0528 DA60     		str	r2, [r3, #12]
2206:d:/LiteOS_Lab/drivers/third_party/ST/STM32L4xx_HAL_Driver/Src\stm32l4xx_hal_uart.c ****       break;
 5261              		.loc 1 2206 7
 5262 052a 40E0     		b	.L256
 5263              	.L271:
2207:d:/LiteOS_Lab/drivers/third_party/ST/STM32L4xx_HAL_Driver/Src\stm32l4xx_hal_uart.c ****     case UART_CLOCKSOURCE_PCLK2:
2208:d:/LiteOS_Lab/drivers/third_party/ST/STM32L4xx_HAL_Driver/Src\stm32l4xx_hal_uart.c ****       huart->Instance->BRR = (uint16_t)(UART_DIV_SAMPLING16(HAL_RCC_GetPCLK2Freq(), huart->Init.Bau
 5264              		.loc 1 2208 41
 5265 052c FFF7FEFF 		bl	HAL_RCC_GetPCLK2Freq
ARM GAS  C:\Users\ADMINI~1\AppData\Local\Temp\ccHDbRvY.s 			page 131


 5266 0530 0246     		mov	r2, r0
 5267 0532 FB68     		ldr	r3, [r7, #12]
 5268 0534 5B68     		ldr	r3, [r3, #4]
 5269 0536 5B08     		lsrs	r3, r3, #1
 5270 0538 1A44     		add	r2, r2, r3
 5271 053a FB68     		ldr	r3, [r7, #12]
 5272 053c 5B68     		ldr	r3, [r3, #4]
 5273 053e B2FBF3F3 		udiv	r3, r2, r3
 5274              		.loc 1 2208 30
 5275 0542 9AB2     		uxth	r2, r3
 5276              		.loc 1 2208 12
 5277 0544 FB68     		ldr	r3, [r7, #12]
 5278 0546 1B68     		ldr	r3, [r3]
 5279              		.loc 1 2208 28
 5280 0548 DA60     		str	r2, [r3, #12]
2209:d:/LiteOS_Lab/drivers/third_party/ST/STM32L4xx_HAL_Driver/Src\stm32l4xx_hal_uart.c ****       break;
 5281              		.loc 1 2209 7
 5282 054a 30E0     		b	.L256
 5283              	.L270:
2210:d:/LiteOS_Lab/drivers/third_party/ST/STM32L4xx_HAL_Driver/Src\stm32l4xx_hal_uart.c ****     case UART_CLOCKSOURCE_HSI:
2211:d:/LiteOS_Lab/drivers/third_party/ST/STM32L4xx_HAL_Driver/Src\stm32l4xx_hal_uart.c ****       huart->Instance->BRR = (uint16_t)(UART_DIV_SAMPLING16(HSI_VALUE, huart->Init.BaudRate));
 5284              		.loc 1 2211 41
 5285 054c FB68     		ldr	r3, [r7, #12]
 5286 054e 5B68     		ldr	r3, [r3, #4]
 5287 0550 5B08     		lsrs	r3, r3, #1
 5288 0552 03F57403 		add	r3, r3, #15990784
 5289 0556 03F51053 		add	r3, r3, #9216
 5290 055a FA68     		ldr	r2, [r7, #12]
 5291 055c 5268     		ldr	r2, [r2, #4]
 5292 055e B3FBF2F3 		udiv	r3, r3, r2
 5293              		.loc 1 2211 30
 5294 0562 9AB2     		uxth	r2, r3
 5295              		.loc 1 2211 12
 5296 0564 FB68     		ldr	r3, [r7, #12]
 5297 0566 1B68     		ldr	r3, [r3]
 5298              		.loc 1 2211 28
 5299 0568 DA60     		str	r2, [r3, #12]
2212:d:/LiteOS_Lab/drivers/third_party/ST/STM32L4xx_HAL_Driver/Src\stm32l4xx_hal_uart.c ****       break;
 5300              		.loc 1 2212 7
 5301 056a 20E0     		b	.L256
 5302              	.L269:
2213:d:/LiteOS_Lab/drivers/third_party/ST/STM32L4xx_HAL_Driver/Src\stm32l4xx_hal_uart.c ****     case UART_CLOCKSOURCE_SYSCLK:
2214:d:/LiteOS_Lab/drivers/third_party/ST/STM32L4xx_HAL_Driver/Src\stm32l4xx_hal_uart.c ****       huart->Instance->BRR = (uint16_t)(UART_DIV_SAMPLING16(HAL_RCC_GetSysClockFreq(), huart->Init.
 5303              		.loc 1 2214 41
 5304 056c FFF7FEFF 		bl	HAL_RCC_GetSysClockFreq
 5305 0570 0246     		mov	r2, r0
 5306 0572 FB68     		ldr	r3, [r7, #12]
 5307 0574 5B68     		ldr	r3, [r3, #4]
 5308 0576 5B08     		lsrs	r3, r3, #1
 5309 0578 1A44     		add	r2, r2, r3
 5310 057a FB68     		ldr	r3, [r7, #12]
 5311 057c 5B68     		ldr	r3, [r3, #4]
 5312 057e B2FBF3F3 		udiv	r3, r2, r3
 5313              		.loc 1 2214 30
 5314 0582 9AB2     		uxth	r2, r3
 5315              		.loc 1 2214 12
 5316 0584 FB68     		ldr	r3, [r7, #12]
ARM GAS  C:\Users\ADMINI~1\AppData\Local\Temp\ccHDbRvY.s 			page 132


 5317 0586 1B68     		ldr	r3, [r3]
 5318              		.loc 1 2214 28
 5319 0588 DA60     		str	r2, [r3, #12]
2215:d:/LiteOS_Lab/drivers/third_party/ST/STM32L4xx_HAL_Driver/Src\stm32l4xx_hal_uart.c ****       break;
 5320              		.loc 1 2215 7
 5321 058a 10E0     		b	.L256
 5322              	.L267:
2216:d:/LiteOS_Lab/drivers/third_party/ST/STM32L4xx_HAL_Driver/Src\stm32l4xx_hal_uart.c ****     case UART_CLOCKSOURCE_LSE:
2217:d:/LiteOS_Lab/drivers/third_party/ST/STM32L4xx_HAL_Driver/Src\stm32l4xx_hal_uart.c ****       huart->Instance->BRR = (uint16_t)(UART_DIV_SAMPLING16(LSE_VALUE, huart->Init.BaudRate));
 5323              		.loc 1 2217 41
 5324 058c FB68     		ldr	r3, [r7, #12]
 5325 058e 5B68     		ldr	r3, [r3, #4]
 5326 0590 5B08     		lsrs	r3, r3, #1
 5327 0592 03F50042 		add	r2, r3, #32768
 5328 0596 FB68     		ldr	r3, [r7, #12]
 5329 0598 5B68     		ldr	r3, [r3, #4]
 5330 059a B2FBF3F3 		udiv	r3, r2, r3
 5331              		.loc 1 2217 30
 5332 059e 9AB2     		uxth	r2, r3
 5333              		.loc 1 2217 12
 5334 05a0 FB68     		ldr	r3, [r7, #12]
 5335 05a2 1B68     		ldr	r3, [r3]
 5336              		.loc 1 2217 28
 5337 05a4 DA60     		str	r2, [r3, #12]
2218:d:/LiteOS_Lab/drivers/third_party/ST/STM32L4xx_HAL_Driver/Src\stm32l4xx_hal_uart.c ****       break;
 5338              		.loc 1 2218 7
 5339 05a6 02E0     		b	.L256
 5340              	.L266:
2219:d:/LiteOS_Lab/drivers/third_party/ST/STM32L4xx_HAL_Driver/Src\stm32l4xx_hal_uart.c ****     case UART_CLOCKSOURCE_UNDEFINED:
2220:d:/LiteOS_Lab/drivers/third_party/ST/STM32L4xx_HAL_Driver/Src\stm32l4xx_hal_uart.c ****     default:
2221:d:/LiteOS_Lab/drivers/third_party/ST/STM32L4xx_HAL_Driver/Src\stm32l4xx_hal_uart.c ****         ret = HAL_ERROR;
 5341              		.loc 1 2221 13
 5342 05a8 0123     		movs	r3, #1
 5343 05aa FB75     		strb	r3, [r7, #23]
2222:d:/LiteOS_Lab/drivers/third_party/ST/STM32L4xx_HAL_Driver/Src\stm32l4xx_hal_uart.c ****       break;
 5344              		.loc 1 2222 7
 5345 05ac 00BF     		nop
 5346              	.L256:
2223:d:/LiteOS_Lab/drivers/third_party/ST/STM32L4xx_HAL_Driver/Src\stm32l4xx_hal_uart.c ****     }
2224:d:/LiteOS_Lab/drivers/third_party/ST/STM32L4xx_HAL_Driver/Src\stm32l4xx_hal_uart.c ****   }
2225:d:/LiteOS_Lab/drivers/third_party/ST/STM32L4xx_HAL_Driver/Src\stm32l4xx_hal_uart.c **** 
2226:d:/LiteOS_Lab/drivers/third_party/ST/STM32L4xx_HAL_Driver/Src\stm32l4xx_hal_uart.c ****   return ret;
 5347              		.loc 1 2226 10
 5348 05ae FB7D     		ldrb	r3, [r7, #23]	@ zero_extendqisi2
2227:d:/LiteOS_Lab/drivers/third_party/ST/STM32L4xx_HAL_Driver/Src\stm32l4xx_hal_uart.c **** 
2228:d:/LiteOS_Lab/drivers/third_party/ST/STM32L4xx_HAL_Driver/Src\stm32l4xx_hal_uart.c **** }
 5349              		.loc 1 2228 1
 5350 05b0 1846     		mov	r0, r3
 5351 05b2 2037     		adds	r7, r7, #32
 5352              	.LCFI218:
 5353              		.cfi_def_cfa_offset 32
 5354 05b4 BD46     		mov	sp, r7
 5355              	.LCFI219:
 5356              		.cfi_def_cfa_register 13
 5357              		@ sp needed
 5358 05b6 BDE8B08F 		pop	{r4, r5, r7, r8, r9, r10, fp, pc}
 5359              	.L278:
ARM GAS  C:\Users\ADMINI~1\AppData\Local\Temp\ccHDbRvY.s 			page 133


 5360 05ba 00BF     		.align	2
 5361              	.L277:
 5362 05bc 000024F4 		.word	-198967296
 5363              		.cfi_endproc
 5364              	.LFE326:
 5366              		.section	.text.UART_AdvFeatureConfig,"ax",%progbits
 5367              		.align	1
 5368              		.global	UART_AdvFeatureConfig
 5369              		.syntax unified
 5370              		.thumb
 5371              		.thumb_func
 5372              		.fpu fpv4-sp-d16
 5374              	UART_AdvFeatureConfig:
 5375              	.LFB327:
2229:d:/LiteOS_Lab/drivers/third_party/ST/STM32L4xx_HAL_Driver/Src\stm32l4xx_hal_uart.c **** 
2230:d:/LiteOS_Lab/drivers/third_party/ST/STM32L4xx_HAL_Driver/Src\stm32l4xx_hal_uart.c **** /**
2231:d:/LiteOS_Lab/drivers/third_party/ST/STM32L4xx_HAL_Driver/Src\stm32l4xx_hal_uart.c ****   * @brief Configure the UART peripheral advanced features.
2232:d:/LiteOS_Lab/drivers/third_party/ST/STM32L4xx_HAL_Driver/Src\stm32l4xx_hal_uart.c ****   * @param huart: UART handle.
2233:d:/LiteOS_Lab/drivers/third_party/ST/STM32L4xx_HAL_Driver/Src\stm32l4xx_hal_uart.c ****   * @retval None
2234:d:/LiteOS_Lab/drivers/third_party/ST/STM32L4xx_HAL_Driver/Src\stm32l4xx_hal_uart.c ****   */
2235:d:/LiteOS_Lab/drivers/third_party/ST/STM32L4xx_HAL_Driver/Src\stm32l4xx_hal_uart.c **** void UART_AdvFeatureConfig(UART_HandleTypeDef *huart)
2236:d:/LiteOS_Lab/drivers/third_party/ST/STM32L4xx_HAL_Driver/Src\stm32l4xx_hal_uart.c **** {
 5376              		.loc 1 2236 1
 5377              		.cfi_startproc
 5378              		@ args = 0, pretend = 0, frame = 8
 5379              		@ frame_needed = 1, uses_anonymous_args = 0
 5380              		@ link register save eliminated.
 5381 0000 80B4     		push	{r7}
 5382              	.LCFI220:
 5383              		.cfi_def_cfa_offset 4
 5384              		.cfi_offset 7, -4
 5385 0002 83B0     		sub	sp, sp, #12
 5386              	.LCFI221:
 5387              		.cfi_def_cfa_offset 16
 5388 0004 00AF     		add	r7, sp, #0
 5389              	.LCFI222:
 5390              		.cfi_def_cfa_register 7
 5391 0006 7860     		str	r0, [r7, #4]
2237:d:/LiteOS_Lab/drivers/third_party/ST/STM32L4xx_HAL_Driver/Src\stm32l4xx_hal_uart.c ****   /* Check whether the set of advanced features to configure is properly set */
2238:d:/LiteOS_Lab/drivers/third_party/ST/STM32L4xx_HAL_Driver/Src\stm32l4xx_hal_uart.c ****   assert_param(IS_UART_ADVFEATURE_INIT(huart->AdvancedInit.AdvFeatureInit));
2239:d:/LiteOS_Lab/drivers/third_party/ST/STM32L4xx_HAL_Driver/Src\stm32l4xx_hal_uart.c **** 
2240:d:/LiteOS_Lab/drivers/third_party/ST/STM32L4xx_HAL_Driver/Src\stm32l4xx_hal_uart.c ****   /* if required, configure TX pin active level inversion */
2241:d:/LiteOS_Lab/drivers/third_party/ST/STM32L4xx_HAL_Driver/Src\stm32l4xx_hal_uart.c ****   if(HAL_IS_BIT_SET(huart->AdvancedInit.AdvFeatureInit, UART_ADVFEATURE_TXINVERT_INIT))
 5392              		.loc 1 2241 6
 5393 0008 7B68     		ldr	r3, [r7, #4]
 5394 000a 5B6A     		ldr	r3, [r3, #36]
 5395 000c 03F00103 		and	r3, r3, #1
 5396              		.loc 1 2241 5
 5397 0010 002B     		cmp	r3, #0
 5398 0012 0AD0     		beq	.L280
2242:d:/LiteOS_Lab/drivers/third_party/ST/STM32L4xx_HAL_Driver/Src\stm32l4xx_hal_uart.c ****   {
2243:d:/LiteOS_Lab/drivers/third_party/ST/STM32L4xx_HAL_Driver/Src\stm32l4xx_hal_uart.c ****     assert_param(IS_UART_ADVFEATURE_TXINV(huart->AdvancedInit.TxPinLevelInvert));
2244:d:/LiteOS_Lab/drivers/third_party/ST/STM32L4xx_HAL_Driver/Src\stm32l4xx_hal_uart.c ****     MODIFY_REG(huart->Instance->CR2, USART_CR2_TXINV, huart->AdvancedInit.TxPinLevelInvert);
 5399              		.loc 1 2244 5
 5400 0014 7B68     		ldr	r3, [r7, #4]
 5401 0016 1B68     		ldr	r3, [r3]
 5402 0018 5B68     		ldr	r3, [r3, #4]
ARM GAS  C:\Users\ADMINI~1\AppData\Local\Temp\ccHDbRvY.s 			page 134


 5403 001a 23F40031 		bic	r1, r3, #131072
 5404 001e 7B68     		ldr	r3, [r7, #4]
 5405 0020 9A6A     		ldr	r2, [r3, #40]
 5406 0022 7B68     		ldr	r3, [r7, #4]
 5407 0024 1B68     		ldr	r3, [r3]
 5408 0026 0A43     		orrs	r2, r2, r1
 5409 0028 5A60     		str	r2, [r3, #4]
 5410              	.L280:
2245:d:/LiteOS_Lab/drivers/third_party/ST/STM32L4xx_HAL_Driver/Src\stm32l4xx_hal_uart.c ****   }
2246:d:/LiteOS_Lab/drivers/third_party/ST/STM32L4xx_HAL_Driver/Src\stm32l4xx_hal_uart.c **** 
2247:d:/LiteOS_Lab/drivers/third_party/ST/STM32L4xx_HAL_Driver/Src\stm32l4xx_hal_uart.c ****   /* if required, configure RX pin active level inversion */
2248:d:/LiteOS_Lab/drivers/third_party/ST/STM32L4xx_HAL_Driver/Src\stm32l4xx_hal_uart.c ****   if(HAL_IS_BIT_SET(huart->AdvancedInit.AdvFeatureInit, UART_ADVFEATURE_RXINVERT_INIT))
 5411              		.loc 1 2248 6
 5412 002a 7B68     		ldr	r3, [r7, #4]
 5413 002c 5B6A     		ldr	r3, [r3, #36]
 5414 002e 03F00203 		and	r3, r3, #2
 5415              		.loc 1 2248 5
 5416 0032 002B     		cmp	r3, #0
 5417 0034 0AD0     		beq	.L281
2249:d:/LiteOS_Lab/drivers/third_party/ST/STM32L4xx_HAL_Driver/Src\stm32l4xx_hal_uart.c ****   {
2250:d:/LiteOS_Lab/drivers/third_party/ST/STM32L4xx_HAL_Driver/Src\stm32l4xx_hal_uart.c ****     assert_param(IS_UART_ADVFEATURE_RXINV(huart->AdvancedInit.RxPinLevelInvert));
2251:d:/LiteOS_Lab/drivers/third_party/ST/STM32L4xx_HAL_Driver/Src\stm32l4xx_hal_uart.c ****     MODIFY_REG(huart->Instance->CR2, USART_CR2_RXINV, huart->AdvancedInit.RxPinLevelInvert);
 5418              		.loc 1 2251 5
 5419 0036 7B68     		ldr	r3, [r7, #4]
 5420 0038 1B68     		ldr	r3, [r3]
 5421 003a 5B68     		ldr	r3, [r3, #4]
 5422 003c 23F48031 		bic	r1, r3, #65536
 5423 0040 7B68     		ldr	r3, [r7, #4]
 5424 0042 DA6A     		ldr	r2, [r3, #44]
 5425 0044 7B68     		ldr	r3, [r7, #4]
 5426 0046 1B68     		ldr	r3, [r3]
 5427 0048 0A43     		orrs	r2, r2, r1
 5428 004a 5A60     		str	r2, [r3, #4]
 5429              	.L281:
2252:d:/LiteOS_Lab/drivers/third_party/ST/STM32L4xx_HAL_Driver/Src\stm32l4xx_hal_uart.c ****   }
2253:d:/LiteOS_Lab/drivers/third_party/ST/STM32L4xx_HAL_Driver/Src\stm32l4xx_hal_uart.c **** 
2254:d:/LiteOS_Lab/drivers/third_party/ST/STM32L4xx_HAL_Driver/Src\stm32l4xx_hal_uart.c ****   /* if required, configure data inversion */
2255:d:/LiteOS_Lab/drivers/third_party/ST/STM32L4xx_HAL_Driver/Src\stm32l4xx_hal_uart.c ****   if(HAL_IS_BIT_SET(huart->AdvancedInit.AdvFeatureInit, UART_ADVFEATURE_DATAINVERT_INIT))
 5430              		.loc 1 2255 6
 5431 004c 7B68     		ldr	r3, [r7, #4]
 5432 004e 5B6A     		ldr	r3, [r3, #36]
 5433 0050 03F00403 		and	r3, r3, #4
 5434              		.loc 1 2255 5
 5435 0054 002B     		cmp	r3, #0
 5436 0056 0AD0     		beq	.L282
2256:d:/LiteOS_Lab/drivers/third_party/ST/STM32L4xx_HAL_Driver/Src\stm32l4xx_hal_uart.c ****   {
2257:d:/LiteOS_Lab/drivers/third_party/ST/STM32L4xx_HAL_Driver/Src\stm32l4xx_hal_uart.c ****     assert_param(IS_UART_ADVFEATURE_DATAINV(huart->AdvancedInit.DataInvert));
2258:d:/LiteOS_Lab/drivers/third_party/ST/STM32L4xx_HAL_Driver/Src\stm32l4xx_hal_uart.c ****     MODIFY_REG(huart->Instance->CR2, USART_CR2_DATAINV, huart->AdvancedInit.DataInvert);
 5437              		.loc 1 2258 5
 5438 0058 7B68     		ldr	r3, [r7, #4]
 5439 005a 1B68     		ldr	r3, [r3]
 5440 005c 5B68     		ldr	r3, [r3, #4]
 5441 005e 23F48021 		bic	r1, r3, #262144
 5442 0062 7B68     		ldr	r3, [r7, #4]
 5443 0064 1A6B     		ldr	r2, [r3, #48]
 5444 0066 7B68     		ldr	r3, [r7, #4]
 5445 0068 1B68     		ldr	r3, [r3]
ARM GAS  C:\Users\ADMINI~1\AppData\Local\Temp\ccHDbRvY.s 			page 135


 5446 006a 0A43     		orrs	r2, r2, r1
 5447 006c 5A60     		str	r2, [r3, #4]
 5448              	.L282:
2259:d:/LiteOS_Lab/drivers/third_party/ST/STM32L4xx_HAL_Driver/Src\stm32l4xx_hal_uart.c ****   }
2260:d:/LiteOS_Lab/drivers/third_party/ST/STM32L4xx_HAL_Driver/Src\stm32l4xx_hal_uart.c **** 
2261:d:/LiteOS_Lab/drivers/third_party/ST/STM32L4xx_HAL_Driver/Src\stm32l4xx_hal_uart.c ****   /* if required, configure RX/TX pins swap */
2262:d:/LiteOS_Lab/drivers/third_party/ST/STM32L4xx_HAL_Driver/Src\stm32l4xx_hal_uart.c ****   if(HAL_IS_BIT_SET(huart->AdvancedInit.AdvFeatureInit, UART_ADVFEATURE_SWAP_INIT))
 5449              		.loc 1 2262 6
 5450 006e 7B68     		ldr	r3, [r7, #4]
 5451 0070 5B6A     		ldr	r3, [r3, #36]
 5452 0072 03F00803 		and	r3, r3, #8
 5453              		.loc 1 2262 5
 5454 0076 002B     		cmp	r3, #0
 5455 0078 0AD0     		beq	.L283
2263:d:/LiteOS_Lab/drivers/third_party/ST/STM32L4xx_HAL_Driver/Src\stm32l4xx_hal_uart.c ****   {
2264:d:/LiteOS_Lab/drivers/third_party/ST/STM32L4xx_HAL_Driver/Src\stm32l4xx_hal_uart.c ****     assert_param(IS_UART_ADVFEATURE_SWAP(huart->AdvancedInit.Swap));
2265:d:/LiteOS_Lab/drivers/third_party/ST/STM32L4xx_HAL_Driver/Src\stm32l4xx_hal_uart.c ****     MODIFY_REG(huart->Instance->CR2, USART_CR2_SWAP, huart->AdvancedInit.Swap);
 5456              		.loc 1 2265 5
 5457 007a 7B68     		ldr	r3, [r7, #4]
 5458 007c 1B68     		ldr	r3, [r3]
 5459 007e 5B68     		ldr	r3, [r3, #4]
 5460 0080 23F40041 		bic	r1, r3, #32768
 5461 0084 7B68     		ldr	r3, [r7, #4]
 5462 0086 5A6B     		ldr	r2, [r3, #52]
 5463 0088 7B68     		ldr	r3, [r7, #4]
 5464 008a 1B68     		ldr	r3, [r3]
 5465 008c 0A43     		orrs	r2, r2, r1
 5466 008e 5A60     		str	r2, [r3, #4]
 5467              	.L283:
2266:d:/LiteOS_Lab/drivers/third_party/ST/STM32L4xx_HAL_Driver/Src\stm32l4xx_hal_uart.c ****   }
2267:d:/LiteOS_Lab/drivers/third_party/ST/STM32L4xx_HAL_Driver/Src\stm32l4xx_hal_uart.c **** 
2268:d:/LiteOS_Lab/drivers/third_party/ST/STM32L4xx_HAL_Driver/Src\stm32l4xx_hal_uart.c ****   /* if required, configure RX overrun detection disabling */
2269:d:/LiteOS_Lab/drivers/third_party/ST/STM32L4xx_HAL_Driver/Src\stm32l4xx_hal_uart.c ****   if(HAL_IS_BIT_SET(huart->AdvancedInit.AdvFeatureInit, UART_ADVFEATURE_RXOVERRUNDISABLE_INIT))
 5468              		.loc 1 2269 6
 5469 0090 7B68     		ldr	r3, [r7, #4]
 5470 0092 5B6A     		ldr	r3, [r3, #36]
 5471 0094 03F01003 		and	r3, r3, #16
 5472              		.loc 1 2269 5
 5473 0098 002B     		cmp	r3, #0
 5474 009a 0AD0     		beq	.L284
2270:d:/LiteOS_Lab/drivers/third_party/ST/STM32L4xx_HAL_Driver/Src\stm32l4xx_hal_uart.c ****   {
2271:d:/LiteOS_Lab/drivers/third_party/ST/STM32L4xx_HAL_Driver/Src\stm32l4xx_hal_uart.c ****     assert_param(IS_UART_OVERRUN(huart->AdvancedInit.OverrunDisable));
2272:d:/LiteOS_Lab/drivers/third_party/ST/STM32L4xx_HAL_Driver/Src\stm32l4xx_hal_uart.c ****     MODIFY_REG(huart->Instance->CR3, USART_CR3_OVRDIS, huart->AdvancedInit.OverrunDisable);
 5475              		.loc 1 2272 5
 5476 009c 7B68     		ldr	r3, [r7, #4]
 5477 009e 1B68     		ldr	r3, [r3]
 5478 00a0 9B68     		ldr	r3, [r3, #8]
 5479 00a2 23F48051 		bic	r1, r3, #4096
 5480 00a6 7B68     		ldr	r3, [r7, #4]
 5481 00a8 9A6B     		ldr	r2, [r3, #56]
 5482 00aa 7B68     		ldr	r3, [r7, #4]
 5483 00ac 1B68     		ldr	r3, [r3]
 5484 00ae 0A43     		orrs	r2, r2, r1
 5485 00b0 9A60     		str	r2, [r3, #8]
 5486              	.L284:
2273:d:/LiteOS_Lab/drivers/third_party/ST/STM32L4xx_HAL_Driver/Src\stm32l4xx_hal_uart.c ****   }
2274:d:/LiteOS_Lab/drivers/third_party/ST/STM32L4xx_HAL_Driver/Src\stm32l4xx_hal_uart.c **** 
ARM GAS  C:\Users\ADMINI~1\AppData\Local\Temp\ccHDbRvY.s 			page 136


2275:d:/LiteOS_Lab/drivers/third_party/ST/STM32L4xx_HAL_Driver/Src\stm32l4xx_hal_uart.c ****   /* if required, configure DMA disabling on reception error */
2276:d:/LiteOS_Lab/drivers/third_party/ST/STM32L4xx_HAL_Driver/Src\stm32l4xx_hal_uart.c ****   if(HAL_IS_BIT_SET(huart->AdvancedInit.AdvFeatureInit, UART_ADVFEATURE_DMADISABLEONERROR_INIT))
 5487              		.loc 1 2276 6
 5488 00b2 7B68     		ldr	r3, [r7, #4]
 5489 00b4 5B6A     		ldr	r3, [r3, #36]
 5490 00b6 03F02003 		and	r3, r3, #32
 5491              		.loc 1 2276 5
 5492 00ba 002B     		cmp	r3, #0
 5493 00bc 0AD0     		beq	.L285
2277:d:/LiteOS_Lab/drivers/third_party/ST/STM32L4xx_HAL_Driver/Src\stm32l4xx_hal_uart.c ****   {
2278:d:/LiteOS_Lab/drivers/third_party/ST/STM32L4xx_HAL_Driver/Src\stm32l4xx_hal_uart.c ****     assert_param(IS_UART_ADVFEATURE_DMAONRXERROR(huart->AdvancedInit.DMADisableonRxError));
2279:d:/LiteOS_Lab/drivers/third_party/ST/STM32L4xx_HAL_Driver/Src\stm32l4xx_hal_uart.c ****     MODIFY_REG(huart->Instance->CR3, USART_CR3_DDRE, huart->AdvancedInit.DMADisableonRxError);
 5494              		.loc 1 2279 5
 5495 00be 7B68     		ldr	r3, [r7, #4]
 5496 00c0 1B68     		ldr	r3, [r3]
 5497 00c2 9B68     		ldr	r3, [r3, #8]
 5498 00c4 23F40051 		bic	r1, r3, #8192
 5499 00c8 7B68     		ldr	r3, [r7, #4]
 5500 00ca DA6B     		ldr	r2, [r3, #60]
 5501 00cc 7B68     		ldr	r3, [r7, #4]
 5502 00ce 1B68     		ldr	r3, [r3]
 5503 00d0 0A43     		orrs	r2, r2, r1
 5504 00d2 9A60     		str	r2, [r3, #8]
 5505              	.L285:
2280:d:/LiteOS_Lab/drivers/third_party/ST/STM32L4xx_HAL_Driver/Src\stm32l4xx_hal_uart.c ****   }
2281:d:/LiteOS_Lab/drivers/third_party/ST/STM32L4xx_HAL_Driver/Src\stm32l4xx_hal_uart.c **** 
2282:d:/LiteOS_Lab/drivers/third_party/ST/STM32L4xx_HAL_Driver/Src\stm32l4xx_hal_uart.c ****   /* if required, configure auto Baud rate detection scheme */
2283:d:/LiteOS_Lab/drivers/third_party/ST/STM32L4xx_HAL_Driver/Src\stm32l4xx_hal_uart.c ****   if(HAL_IS_BIT_SET(huart->AdvancedInit.AdvFeatureInit, UART_ADVFEATURE_AUTOBAUDRATE_INIT))
 5506              		.loc 1 2283 6
 5507 00d4 7B68     		ldr	r3, [r7, #4]
 5508 00d6 5B6A     		ldr	r3, [r3, #36]
 5509 00d8 03F04003 		and	r3, r3, #64
 5510              		.loc 1 2283 5
 5511 00dc 002B     		cmp	r3, #0
 5512 00de 1AD0     		beq	.L286
2284:d:/LiteOS_Lab/drivers/third_party/ST/STM32L4xx_HAL_Driver/Src\stm32l4xx_hal_uart.c ****   {
2285:d:/LiteOS_Lab/drivers/third_party/ST/STM32L4xx_HAL_Driver/Src\stm32l4xx_hal_uart.c ****     assert_param(IS_USART_AUTOBAUDRATE_DETECTION_INSTANCE(huart->Instance));
2286:d:/LiteOS_Lab/drivers/third_party/ST/STM32L4xx_HAL_Driver/Src\stm32l4xx_hal_uart.c ****     assert_param(IS_UART_ADVFEATURE_AUTOBAUDRATE(huart->AdvancedInit.AutoBaudRateEnable));
2287:d:/LiteOS_Lab/drivers/third_party/ST/STM32L4xx_HAL_Driver/Src\stm32l4xx_hal_uart.c ****     MODIFY_REG(huart->Instance->CR2, USART_CR2_ABREN, huart->AdvancedInit.AutoBaudRateEnable);
 5513              		.loc 1 2287 5
 5514 00e0 7B68     		ldr	r3, [r7, #4]
 5515 00e2 1B68     		ldr	r3, [r3]
 5516 00e4 5B68     		ldr	r3, [r3, #4]
 5517 00e6 23F48011 		bic	r1, r3, #1048576
 5518 00ea 7B68     		ldr	r3, [r7, #4]
 5519 00ec 1A6C     		ldr	r2, [r3, #64]
 5520 00ee 7B68     		ldr	r3, [r7, #4]
 5521 00f0 1B68     		ldr	r3, [r3]
 5522 00f2 0A43     		orrs	r2, r2, r1
 5523 00f4 5A60     		str	r2, [r3, #4]
2288:d:/LiteOS_Lab/drivers/third_party/ST/STM32L4xx_HAL_Driver/Src\stm32l4xx_hal_uart.c ****     /* set auto Baudrate detection parameters if detection is enabled */
2289:d:/LiteOS_Lab/drivers/third_party/ST/STM32L4xx_HAL_Driver/Src\stm32l4xx_hal_uart.c ****     if(huart->AdvancedInit.AutoBaudRateEnable == UART_ADVFEATURE_AUTOBAUDRATE_ENABLE)
 5524              		.loc 1 2289 27
 5525 00f6 7B68     		ldr	r3, [r7, #4]
 5526 00f8 1B6C     		ldr	r3, [r3, #64]
 5527              		.loc 1 2289 7
 5528 00fa B3F5801F 		cmp	r3, #1048576
ARM GAS  C:\Users\ADMINI~1\AppData\Local\Temp\ccHDbRvY.s 			page 137


 5529 00fe 0AD1     		bne	.L286
2290:d:/LiteOS_Lab/drivers/third_party/ST/STM32L4xx_HAL_Driver/Src\stm32l4xx_hal_uart.c ****     {
2291:d:/LiteOS_Lab/drivers/third_party/ST/STM32L4xx_HAL_Driver/Src\stm32l4xx_hal_uart.c ****       assert_param(IS_UART_ADVFEATURE_AUTOBAUDRATEMODE(huart->AdvancedInit.AutoBaudRateMode));
2292:d:/LiteOS_Lab/drivers/third_party/ST/STM32L4xx_HAL_Driver/Src\stm32l4xx_hal_uart.c ****       MODIFY_REG(huart->Instance->CR2, USART_CR2_ABRMODE, huart->AdvancedInit.AutoBaudRateMode);
 5530              		.loc 1 2292 7
 5531 0100 7B68     		ldr	r3, [r7, #4]
 5532 0102 1B68     		ldr	r3, [r3]
 5533 0104 5B68     		ldr	r3, [r3, #4]
 5534 0106 23F4C001 		bic	r1, r3, #6291456
 5535 010a 7B68     		ldr	r3, [r7, #4]
 5536 010c 5A6C     		ldr	r2, [r3, #68]
 5537 010e 7B68     		ldr	r3, [r7, #4]
 5538 0110 1B68     		ldr	r3, [r3]
 5539 0112 0A43     		orrs	r2, r2, r1
 5540 0114 5A60     		str	r2, [r3, #4]
 5541              	.L286:
2293:d:/LiteOS_Lab/drivers/third_party/ST/STM32L4xx_HAL_Driver/Src\stm32l4xx_hal_uart.c ****     }
2294:d:/LiteOS_Lab/drivers/third_party/ST/STM32L4xx_HAL_Driver/Src\stm32l4xx_hal_uart.c ****   }
2295:d:/LiteOS_Lab/drivers/third_party/ST/STM32L4xx_HAL_Driver/Src\stm32l4xx_hal_uart.c **** 
2296:d:/LiteOS_Lab/drivers/third_party/ST/STM32L4xx_HAL_Driver/Src\stm32l4xx_hal_uart.c ****   /* if required, configure MSB first on communication line */
2297:d:/LiteOS_Lab/drivers/third_party/ST/STM32L4xx_HAL_Driver/Src\stm32l4xx_hal_uart.c ****   if(HAL_IS_BIT_SET(huart->AdvancedInit.AdvFeatureInit, UART_ADVFEATURE_MSBFIRST_INIT))
 5542              		.loc 1 2297 6
 5543 0116 7B68     		ldr	r3, [r7, #4]
 5544 0118 5B6A     		ldr	r3, [r3, #36]
 5545 011a 03F08003 		and	r3, r3, #128
 5546              		.loc 1 2297 5
 5547 011e 002B     		cmp	r3, #0
 5548 0120 0AD0     		beq	.L288
2298:d:/LiteOS_Lab/drivers/third_party/ST/STM32L4xx_HAL_Driver/Src\stm32l4xx_hal_uart.c ****   {
2299:d:/LiteOS_Lab/drivers/third_party/ST/STM32L4xx_HAL_Driver/Src\stm32l4xx_hal_uart.c ****     assert_param(IS_UART_ADVFEATURE_MSBFIRST(huart->AdvancedInit.MSBFirst));
2300:d:/LiteOS_Lab/drivers/third_party/ST/STM32L4xx_HAL_Driver/Src\stm32l4xx_hal_uart.c ****     MODIFY_REG(huart->Instance->CR2, USART_CR2_MSBFIRST, huart->AdvancedInit.MSBFirst);
 5549              		.loc 1 2300 5
 5550 0122 7B68     		ldr	r3, [r7, #4]
 5551 0124 1B68     		ldr	r3, [r3]
 5552 0126 5B68     		ldr	r3, [r3, #4]
 5553 0128 23F40021 		bic	r1, r3, #524288
 5554 012c 7B68     		ldr	r3, [r7, #4]
 5555 012e 9A6C     		ldr	r2, [r3, #72]
 5556 0130 7B68     		ldr	r3, [r7, #4]
 5557 0132 1B68     		ldr	r3, [r3]
 5558 0134 0A43     		orrs	r2, r2, r1
 5559 0136 5A60     		str	r2, [r3, #4]
 5560              	.L288:
2301:d:/LiteOS_Lab/drivers/third_party/ST/STM32L4xx_HAL_Driver/Src\stm32l4xx_hal_uart.c ****   }
2302:d:/LiteOS_Lab/drivers/third_party/ST/STM32L4xx_HAL_Driver/Src\stm32l4xx_hal_uart.c **** }
 5561              		.loc 1 2302 1
 5562 0138 00BF     		nop
 5563 013a 0C37     		adds	r7, r7, #12
 5564              	.LCFI223:
 5565              		.cfi_def_cfa_offset 4
 5566 013c BD46     		mov	sp, r7
 5567              	.LCFI224:
 5568              		.cfi_def_cfa_register 13
 5569              		@ sp needed
 5570 013e 5DF8047B 		ldr	r7, [sp], #4
 5571              	.LCFI225:
 5572              		.cfi_restore 7
ARM GAS  C:\Users\ADMINI~1\AppData\Local\Temp\ccHDbRvY.s 			page 138


 5573              		.cfi_def_cfa_offset 0
 5574 0142 7047     		bx	lr
 5575              		.cfi_endproc
 5576              	.LFE327:
 5578              		.section	.text.UART_CheckIdleState,"ax",%progbits
 5579              		.align	1
 5580              		.global	UART_CheckIdleState
 5581              		.syntax unified
 5582              		.thumb
 5583              		.thumb_func
 5584              		.fpu fpv4-sp-d16
 5586              	UART_CheckIdleState:
 5587              	.LFB328:
2303:d:/LiteOS_Lab/drivers/third_party/ST/STM32L4xx_HAL_Driver/Src\stm32l4xx_hal_uart.c **** 
2304:d:/LiteOS_Lab/drivers/third_party/ST/STM32L4xx_HAL_Driver/Src\stm32l4xx_hal_uart.c **** /**
2305:d:/LiteOS_Lab/drivers/third_party/ST/STM32L4xx_HAL_Driver/Src\stm32l4xx_hal_uart.c ****   * @brief Check the UART Idle State.
2306:d:/LiteOS_Lab/drivers/third_party/ST/STM32L4xx_HAL_Driver/Src\stm32l4xx_hal_uart.c ****   * @param huart UART handle.
2307:d:/LiteOS_Lab/drivers/third_party/ST/STM32L4xx_HAL_Driver/Src\stm32l4xx_hal_uart.c ****   * @retval HAL status
2308:d:/LiteOS_Lab/drivers/third_party/ST/STM32L4xx_HAL_Driver/Src\stm32l4xx_hal_uart.c ****   */
2309:d:/LiteOS_Lab/drivers/third_party/ST/STM32L4xx_HAL_Driver/Src\stm32l4xx_hal_uart.c **** HAL_StatusTypeDef UART_CheckIdleState(UART_HandleTypeDef *huart)
2310:d:/LiteOS_Lab/drivers/third_party/ST/STM32L4xx_HAL_Driver/Src\stm32l4xx_hal_uart.c **** {
 5588              		.loc 1 2310 1
 5589              		.cfi_startproc
 5590              		@ args = 0, pretend = 0, frame = 16
 5591              		@ frame_needed = 1, uses_anonymous_args = 0
 5592 0000 80B5     		push	{r7, lr}
 5593              	.LCFI226:
 5594              		.cfi_def_cfa_offset 8
 5595              		.cfi_offset 7, -8
 5596              		.cfi_offset 14, -4
 5597 0002 86B0     		sub	sp, sp, #24
 5598              	.LCFI227:
 5599              		.cfi_def_cfa_offset 32
 5600 0004 02AF     		add	r7, sp, #8
 5601              	.LCFI228:
 5602              		.cfi_def_cfa 7, 24
 5603 0006 7860     		str	r0, [r7, #4]
2311:d:/LiteOS_Lab/drivers/third_party/ST/STM32L4xx_HAL_Driver/Src\stm32l4xx_hal_uart.c ****   uint32_t tickstart = 0;
 5604              		.loc 1 2311 12
 5605 0008 0023     		movs	r3, #0
 5606 000a FB60     		str	r3, [r7, #12]
2312:d:/LiteOS_Lab/drivers/third_party/ST/STM32L4xx_HAL_Driver/Src\stm32l4xx_hal_uart.c **** 
2313:d:/LiteOS_Lab/drivers/third_party/ST/STM32L4xx_HAL_Driver/Src\stm32l4xx_hal_uart.c ****   /* Initialize the UART ErrorCode */
2314:d:/LiteOS_Lab/drivers/third_party/ST/STM32L4xx_HAL_Driver/Src\stm32l4xx_hal_uart.c ****   huart->ErrorCode = HAL_UART_ERROR_NONE;
 5607              		.loc 1 2314 20
 5608 000c 7B68     		ldr	r3, [r7, #4]
 5609 000e 0022     		movs	r2, #0
 5610 0010 5A67     		str	r2, [r3, #116]
2315:d:/LiteOS_Lab/drivers/third_party/ST/STM32L4xx_HAL_Driver/Src\stm32l4xx_hal_uart.c **** 
2316:d:/LiteOS_Lab/drivers/third_party/ST/STM32L4xx_HAL_Driver/Src\stm32l4xx_hal_uart.c ****   /* Init tickstart for timeout managment*/
2317:d:/LiteOS_Lab/drivers/third_party/ST/STM32L4xx_HAL_Driver/Src\stm32l4xx_hal_uart.c ****   tickstart = HAL_GetTick();
 5611              		.loc 1 2317 15
 5612 0012 FFF7FEFF 		bl	HAL_GetTick
 5613 0016 F860     		str	r0, [r7, #12]
2318:d:/LiteOS_Lab/drivers/third_party/ST/STM32L4xx_HAL_Driver/Src\stm32l4xx_hal_uart.c **** 
2319:d:/LiteOS_Lab/drivers/third_party/ST/STM32L4xx_HAL_Driver/Src\stm32l4xx_hal_uart.c ****   /* Check if the Transmitter is enabled */
2320:d:/LiteOS_Lab/drivers/third_party/ST/STM32L4xx_HAL_Driver/Src\stm32l4xx_hal_uart.c ****   if((huart->Instance->CR1 & USART_CR1_TE) == USART_CR1_TE)
ARM GAS  C:\Users\ADMINI~1\AppData\Local\Temp\ccHDbRvY.s 			page 139


 5614              		.loc 1 2320 12
 5615 0018 7B68     		ldr	r3, [r7, #4]
 5616 001a 1B68     		ldr	r3, [r3]
 5617              		.loc 1 2320 22
 5618 001c 1B68     		ldr	r3, [r3]
 5619              		.loc 1 2320 28
 5620 001e 03F00803 		and	r3, r3, #8
 5621              		.loc 1 2320 5
 5622 0022 082B     		cmp	r3, #8
 5623 0024 0ED1     		bne	.L290
2321:d:/LiteOS_Lab/drivers/third_party/ST/STM32L4xx_HAL_Driver/Src\stm32l4xx_hal_uart.c ****   {
2322:d:/LiteOS_Lab/drivers/third_party/ST/STM32L4xx_HAL_Driver/Src\stm32l4xx_hal_uart.c ****     /* Wait until TEACK flag is set */
2323:d:/LiteOS_Lab/drivers/third_party/ST/STM32L4xx_HAL_Driver/Src\stm32l4xx_hal_uart.c ****     if(UART_WaitOnFlagUntilTimeout(huart, USART_ISR_TEACK, RESET, tickstart, HAL_UART_TIMEOUT_VALUE
 5624              		.loc 1 2323 8
 5625 0026 6FF07E43 		mvn	r3, #-33554432
 5626 002a 0093     		str	r3, [sp]
 5627 002c FB68     		ldr	r3, [r7, #12]
 5628 002e 0022     		movs	r2, #0
 5629 0030 4FF40011 		mov	r1, #2097152
 5630 0034 7868     		ldr	r0, [r7, #4]
 5631 0036 FFF7FEFF 		bl	UART_WaitOnFlagUntilTimeout
 5632 003a 0346     		mov	r3, r0
 5633              		.loc 1 2323 7
 5634 003c 002B     		cmp	r3, #0
 5635 003e 01D0     		beq	.L290
2324:d:/LiteOS_Lab/drivers/third_party/ST/STM32L4xx_HAL_Driver/Src\stm32l4xx_hal_uart.c ****     {
2325:d:/LiteOS_Lab/drivers/third_party/ST/STM32L4xx_HAL_Driver/Src\stm32l4xx_hal_uart.c ****       /* Timeout occurred */
2326:d:/LiteOS_Lab/drivers/third_party/ST/STM32L4xx_HAL_Driver/Src\stm32l4xx_hal_uart.c ****       return HAL_TIMEOUT;
 5636              		.loc 1 2326 14
 5637 0040 0323     		movs	r3, #3
 5638 0042 22E0     		b	.L291
 5639              	.L290:
2327:d:/LiteOS_Lab/drivers/third_party/ST/STM32L4xx_HAL_Driver/Src\stm32l4xx_hal_uart.c ****     }
2328:d:/LiteOS_Lab/drivers/third_party/ST/STM32L4xx_HAL_Driver/Src\stm32l4xx_hal_uart.c ****   }
2329:d:/LiteOS_Lab/drivers/third_party/ST/STM32L4xx_HAL_Driver/Src\stm32l4xx_hal_uart.c ****   /* Check if the Receiver is enabled */
2330:d:/LiteOS_Lab/drivers/third_party/ST/STM32L4xx_HAL_Driver/Src\stm32l4xx_hal_uart.c ****   if((huart->Instance->CR1 & USART_CR1_RE) == USART_CR1_RE)
 5640              		.loc 1 2330 12
 5641 0044 7B68     		ldr	r3, [r7, #4]
 5642 0046 1B68     		ldr	r3, [r3]
 5643              		.loc 1 2330 22
 5644 0048 1B68     		ldr	r3, [r3]
 5645              		.loc 1 2330 28
 5646 004a 03F00403 		and	r3, r3, #4
 5647              		.loc 1 2330 5
 5648 004e 042B     		cmp	r3, #4
 5649 0050 0ED1     		bne	.L292
2331:d:/LiteOS_Lab/drivers/third_party/ST/STM32L4xx_HAL_Driver/Src\stm32l4xx_hal_uart.c ****   {
2332:d:/LiteOS_Lab/drivers/third_party/ST/STM32L4xx_HAL_Driver/Src\stm32l4xx_hal_uart.c ****     /* Wait until REACK flag is set */
2333:d:/LiteOS_Lab/drivers/third_party/ST/STM32L4xx_HAL_Driver/Src\stm32l4xx_hal_uart.c ****     if(UART_WaitOnFlagUntilTimeout(huart, USART_ISR_REACK, RESET, tickstart, HAL_UART_TIMEOUT_VALUE
 5650              		.loc 1 2333 8
 5651 0052 6FF07E43 		mvn	r3, #-33554432
 5652 0056 0093     		str	r3, [sp]
 5653 0058 FB68     		ldr	r3, [r7, #12]
 5654 005a 0022     		movs	r2, #0
 5655 005c 4FF48001 		mov	r1, #4194304
 5656 0060 7868     		ldr	r0, [r7, #4]
 5657 0062 FFF7FEFF 		bl	UART_WaitOnFlagUntilTimeout
ARM GAS  C:\Users\ADMINI~1\AppData\Local\Temp\ccHDbRvY.s 			page 140


 5658 0066 0346     		mov	r3, r0
 5659              		.loc 1 2333 7
 5660 0068 002B     		cmp	r3, #0
 5661 006a 01D0     		beq	.L292
2334:d:/LiteOS_Lab/drivers/third_party/ST/STM32L4xx_HAL_Driver/Src\stm32l4xx_hal_uart.c ****     {
2335:d:/LiteOS_Lab/drivers/third_party/ST/STM32L4xx_HAL_Driver/Src\stm32l4xx_hal_uart.c ****       /* Timeout occurred */
2336:d:/LiteOS_Lab/drivers/third_party/ST/STM32L4xx_HAL_Driver/Src\stm32l4xx_hal_uart.c ****       return HAL_TIMEOUT;
 5662              		.loc 1 2336 14
 5663 006c 0323     		movs	r3, #3
 5664 006e 0CE0     		b	.L291
 5665              	.L292:
2337:d:/LiteOS_Lab/drivers/third_party/ST/STM32L4xx_HAL_Driver/Src\stm32l4xx_hal_uart.c ****     }
2338:d:/LiteOS_Lab/drivers/third_party/ST/STM32L4xx_HAL_Driver/Src\stm32l4xx_hal_uart.c ****   }
2339:d:/LiteOS_Lab/drivers/third_party/ST/STM32L4xx_HAL_Driver/Src\stm32l4xx_hal_uart.c **** 
2340:d:/LiteOS_Lab/drivers/third_party/ST/STM32L4xx_HAL_Driver/Src\stm32l4xx_hal_uart.c ****   /* Initialize the UART State */
2341:d:/LiteOS_Lab/drivers/third_party/ST/STM32L4xx_HAL_Driver/Src\stm32l4xx_hal_uart.c ****   huart->gState  = HAL_UART_STATE_READY;
 5666              		.loc 1 2341 18
 5667 0070 7B68     		ldr	r3, [r7, #4]
 5668 0072 2022     		movs	r2, #32
 5669 0074 83F87120 		strb	r2, [r3, #113]
2342:d:/LiteOS_Lab/drivers/third_party/ST/STM32L4xx_HAL_Driver/Src\stm32l4xx_hal_uart.c ****   huart->RxState = HAL_UART_STATE_READY;
 5670              		.loc 1 2342 18
 5671 0078 7B68     		ldr	r3, [r7, #4]
 5672 007a 2022     		movs	r2, #32
 5673 007c 83F87220 		strb	r2, [r3, #114]
2343:d:/LiteOS_Lab/drivers/third_party/ST/STM32L4xx_HAL_Driver/Src\stm32l4xx_hal_uart.c **** 
2344:d:/LiteOS_Lab/drivers/third_party/ST/STM32L4xx_HAL_Driver/Src\stm32l4xx_hal_uart.c ****   /* Process Unlocked */
2345:d:/LiteOS_Lab/drivers/third_party/ST/STM32L4xx_HAL_Driver/Src\stm32l4xx_hal_uart.c ****   __HAL_UNLOCK(huart);
 5674              		.loc 1 2345 3
 5675 0080 7B68     		ldr	r3, [r7, #4]
 5676 0082 0022     		movs	r2, #0
 5677 0084 83F87020 		strb	r2, [r3, #112]
2346:d:/LiteOS_Lab/drivers/third_party/ST/STM32L4xx_HAL_Driver/Src\stm32l4xx_hal_uart.c **** 
2347:d:/LiteOS_Lab/drivers/third_party/ST/STM32L4xx_HAL_Driver/Src\stm32l4xx_hal_uart.c ****   return HAL_OK;
 5678              		.loc 1 2347 10
 5679 0088 0023     		movs	r3, #0
 5680              	.L291:
2348:d:/LiteOS_Lab/drivers/third_party/ST/STM32L4xx_HAL_Driver/Src\stm32l4xx_hal_uart.c **** }
 5681              		.loc 1 2348 1
 5682 008a 1846     		mov	r0, r3
 5683 008c 1037     		adds	r7, r7, #16
 5684              	.LCFI229:
 5685              		.cfi_def_cfa_offset 8
 5686 008e BD46     		mov	sp, r7
 5687              	.LCFI230:
 5688              		.cfi_def_cfa_register 13
 5689              		@ sp needed
 5690 0090 80BD     		pop	{r7, pc}
 5691              		.cfi_endproc
 5692              	.LFE328:
 5694              		.section	.text.UART_WaitOnFlagUntilTimeout,"ax",%progbits
 5695              		.align	1
 5696              		.global	UART_WaitOnFlagUntilTimeout
 5697              		.syntax unified
 5698              		.thumb
 5699              		.thumb_func
 5700              		.fpu fpv4-sp-d16
ARM GAS  C:\Users\ADMINI~1\AppData\Local\Temp\ccHDbRvY.s 			page 141


 5702              	UART_WaitOnFlagUntilTimeout:
 5703              	.LFB329:
2349:d:/LiteOS_Lab/drivers/third_party/ST/STM32L4xx_HAL_Driver/Src\stm32l4xx_hal_uart.c **** 
2350:d:/LiteOS_Lab/drivers/third_party/ST/STM32L4xx_HAL_Driver/Src\stm32l4xx_hal_uart.c **** /**
2351:d:/LiteOS_Lab/drivers/third_party/ST/STM32L4xx_HAL_Driver/Src\stm32l4xx_hal_uart.c ****   * @brief  Handle UART Communication Timeout.
2352:d:/LiteOS_Lab/drivers/third_party/ST/STM32L4xx_HAL_Driver/Src\stm32l4xx_hal_uart.c ****   * @param  huart UART handle.
2353:d:/LiteOS_Lab/drivers/third_party/ST/STM32L4xx_HAL_Driver/Src\stm32l4xx_hal_uart.c ****   * @param  Flag Specifies the UART flag to check
2354:d:/LiteOS_Lab/drivers/third_party/ST/STM32L4xx_HAL_Driver/Src\stm32l4xx_hal_uart.c ****   * @param  Status Flag status (SET or RESET)
2355:d:/LiteOS_Lab/drivers/third_party/ST/STM32L4xx_HAL_Driver/Src\stm32l4xx_hal_uart.c ****   * @param  Tickstart Tick start value
2356:d:/LiteOS_Lab/drivers/third_party/ST/STM32L4xx_HAL_Driver/Src\stm32l4xx_hal_uart.c ****   * @param  Timeout Timeout duration
2357:d:/LiteOS_Lab/drivers/third_party/ST/STM32L4xx_HAL_Driver/Src\stm32l4xx_hal_uart.c ****   * @retval HAL status
2358:d:/LiteOS_Lab/drivers/third_party/ST/STM32L4xx_HAL_Driver/Src\stm32l4xx_hal_uart.c ****   */
2359:d:/LiteOS_Lab/drivers/third_party/ST/STM32L4xx_HAL_Driver/Src\stm32l4xx_hal_uart.c **** HAL_StatusTypeDef UART_WaitOnFlagUntilTimeout(UART_HandleTypeDef *huart, uint32_t Flag, FlagStatus 
2360:d:/LiteOS_Lab/drivers/third_party/ST/STM32L4xx_HAL_Driver/Src\stm32l4xx_hal_uart.c **** {
 5704              		.loc 1 2360 1
 5705              		.cfi_startproc
 5706              		@ args = 4, pretend = 0, frame = 16
 5707              		@ frame_needed = 1, uses_anonymous_args = 0
 5708 0000 80B5     		push	{r7, lr}
 5709              	.LCFI231:
 5710              		.cfi_def_cfa_offset 8
 5711              		.cfi_offset 7, -8
 5712              		.cfi_offset 14, -4
 5713 0002 84B0     		sub	sp, sp, #16
 5714              	.LCFI232:
 5715              		.cfi_def_cfa_offset 24
 5716 0004 00AF     		add	r7, sp, #0
 5717              	.LCFI233:
 5718              		.cfi_def_cfa_register 7
 5719 0006 F860     		str	r0, [r7, #12]
 5720 0008 B960     		str	r1, [r7, #8]
 5721 000a 3B60     		str	r3, [r7]
 5722 000c 1346     		mov	r3, r2
 5723 000e FB71     		strb	r3, [r7, #7]
2361:d:/LiteOS_Lab/drivers/third_party/ST/STM32L4xx_HAL_Driver/Src\stm32l4xx_hal_uart.c ****   /* Wait until flag is set */
2362:d:/LiteOS_Lab/drivers/third_party/ST/STM32L4xx_HAL_Driver/Src\stm32l4xx_hal_uart.c ****   while((__HAL_UART_GET_FLAG(huart, Flag) ? SET : RESET) == Status)
 5724              		.loc 1 2362 8
 5725 0010 2CE0     		b	.L294
 5726              	.L297:
2363:d:/LiteOS_Lab/drivers/third_party/ST/STM32L4xx_HAL_Driver/Src\stm32l4xx_hal_uart.c ****   {
2364:d:/LiteOS_Lab/drivers/third_party/ST/STM32L4xx_HAL_Driver/Src\stm32l4xx_hal_uart.c ****     /* Check for the Timeout */
2365:d:/LiteOS_Lab/drivers/third_party/ST/STM32L4xx_HAL_Driver/Src\stm32l4xx_hal_uart.c ****     if(Timeout != HAL_MAX_DELAY)
 5727              		.loc 1 2365 7
 5728 0012 BB69     		ldr	r3, [r7, #24]
 5729 0014 B3F1FF3F 		cmp	r3, #-1
 5730 0018 28D0     		beq	.L294
2366:d:/LiteOS_Lab/drivers/third_party/ST/STM32L4xx_HAL_Driver/Src\stm32l4xx_hal_uart.c ****     {
2367:d:/LiteOS_Lab/drivers/third_party/ST/STM32L4xx_HAL_Driver/Src\stm32l4xx_hal_uart.c ****       if((Timeout == 0) || ((HAL_GetTick()-Tickstart) > Timeout))
 5731              		.loc 1 2367 9
 5732 001a BB69     		ldr	r3, [r7, #24]
 5733 001c 002B     		cmp	r3, #0
 5734 001e 07D0     		beq	.L295
 5735              		.loc 1 2367 30 discriminator 1
 5736 0020 FFF7FEFF 		bl	HAL_GetTick
 5737 0024 0246     		mov	r2, r0
 5738              		.loc 1 2367 43 discriminator 1
 5739 0026 3B68     		ldr	r3, [r7]
ARM GAS  C:\Users\ADMINI~1\AppData\Local\Temp\ccHDbRvY.s 			page 142


 5740 0028 D31A     		subs	r3, r2, r3
 5741              		.loc 1 2367 25 discriminator 1
 5742 002a BA69     		ldr	r2, [r7, #24]
 5743 002c 9A42     		cmp	r2, r3
 5744 002e 1DD2     		bcs	.L294
 5745              	.L295:
2368:d:/LiteOS_Lab/drivers/third_party/ST/STM32L4xx_HAL_Driver/Src\stm32l4xx_hal_uart.c ****       {
2369:d:/LiteOS_Lab/drivers/third_party/ST/STM32L4xx_HAL_Driver/Src\stm32l4xx_hal_uart.c ****         /* Disable TXE, RXNE, PE and ERR (Frame error, noise error, overrun error) interrupts for t
2370:d:/LiteOS_Lab/drivers/third_party/ST/STM32L4xx_HAL_Driver/Src\stm32l4xx_hal_uart.c ****         CLEAR_BIT(huart->Instance->CR1, (USART_CR1_RXNEIE | USART_CR1_PEIE | USART_CR1_TXEIE));
 5746              		.loc 1 2370 9
 5747 0030 FB68     		ldr	r3, [r7, #12]
 5748 0032 1B68     		ldr	r3, [r3]
 5749 0034 1A68     		ldr	r2, [r3]
 5750 0036 FB68     		ldr	r3, [r7, #12]
 5751 0038 1B68     		ldr	r3, [r3]
 5752 003a 22F4D072 		bic	r2, r2, #416
 5753 003e 1A60     		str	r2, [r3]
2371:d:/LiteOS_Lab/drivers/third_party/ST/STM32L4xx_HAL_Driver/Src\stm32l4xx_hal_uart.c ****         CLEAR_BIT(huart->Instance->CR3, USART_CR3_EIE);
 5754              		.loc 1 2371 9
 5755 0040 FB68     		ldr	r3, [r7, #12]
 5756 0042 1B68     		ldr	r3, [r3]
 5757 0044 9A68     		ldr	r2, [r3, #8]
 5758 0046 FB68     		ldr	r3, [r7, #12]
 5759 0048 1B68     		ldr	r3, [r3]
 5760 004a 22F00102 		bic	r2, r2, #1
 5761 004e 9A60     		str	r2, [r3, #8]
2372:d:/LiteOS_Lab/drivers/third_party/ST/STM32L4xx_HAL_Driver/Src\stm32l4xx_hal_uart.c **** 
2373:d:/LiteOS_Lab/drivers/third_party/ST/STM32L4xx_HAL_Driver/Src\stm32l4xx_hal_uart.c ****         huart->gState  = HAL_UART_STATE_READY;
 5762              		.loc 1 2373 24
 5763 0050 FB68     		ldr	r3, [r7, #12]
 5764 0052 2022     		movs	r2, #32
 5765 0054 83F87120 		strb	r2, [r3, #113]
2374:d:/LiteOS_Lab/drivers/third_party/ST/STM32L4xx_HAL_Driver/Src\stm32l4xx_hal_uart.c ****         huart->RxState = HAL_UART_STATE_READY;
 5766              		.loc 1 2374 24
 5767 0058 FB68     		ldr	r3, [r7, #12]
 5768 005a 2022     		movs	r2, #32
 5769 005c 83F87220 		strb	r2, [r3, #114]
2375:d:/LiteOS_Lab/drivers/third_party/ST/STM32L4xx_HAL_Driver/Src\stm32l4xx_hal_uart.c **** 
2376:d:/LiteOS_Lab/drivers/third_party/ST/STM32L4xx_HAL_Driver/Src\stm32l4xx_hal_uart.c ****         /* Process Unlocked */
2377:d:/LiteOS_Lab/drivers/third_party/ST/STM32L4xx_HAL_Driver/Src\stm32l4xx_hal_uart.c ****         __HAL_UNLOCK(huart);
 5770              		.loc 1 2377 9
 5771 0060 FB68     		ldr	r3, [r7, #12]
 5772 0062 0022     		movs	r2, #0
 5773 0064 83F87020 		strb	r2, [r3, #112]
2378:d:/LiteOS_Lab/drivers/third_party/ST/STM32L4xx_HAL_Driver/Src\stm32l4xx_hal_uart.c ****         return HAL_TIMEOUT;
 5774              		.loc 1 2378 16
 5775 0068 0323     		movs	r3, #3
 5776 006a 0FE0     		b	.L296
 5777              	.L294:
2362:d:/LiteOS_Lab/drivers/third_party/ST/STM32L4xx_HAL_Driver/Src\stm32l4xx_hal_uart.c ****   {
 5778              		.loc 1 2362 10
 5779 006c FB68     		ldr	r3, [r7, #12]
 5780 006e 1B68     		ldr	r3, [r3]
 5781 0070 DA69     		ldr	r2, [r3, #28]
 5782 0072 BB68     		ldr	r3, [r7, #8]
 5783 0074 1340     		ands	r3, r3, r2
2362:d:/LiteOS_Lab/drivers/third_party/ST/STM32L4xx_HAL_Driver/Src\stm32l4xx_hal_uart.c ****   {
ARM GAS  C:\Users\ADMINI~1\AppData\Local\Temp\ccHDbRvY.s 			page 143


 5784              		.loc 1 2362 49
 5785 0076 BA68     		ldr	r2, [r7, #8]
 5786 0078 9A42     		cmp	r2, r3
 5787 007a 0CBF     		ite	eq
 5788 007c 0123     		moveq	r3, #1
 5789 007e 0023     		movne	r3, #0
 5790 0080 DBB2     		uxtb	r3, r3
 5791 0082 1A46     		mov	r2, r3
2362:d:/LiteOS_Lab/drivers/third_party/ST/STM32L4xx_HAL_Driver/Src\stm32l4xx_hal_uart.c ****   {
 5792              		.loc 1 2362 58
 5793 0084 FB79     		ldrb	r3, [r7, #7]	@ zero_extendqisi2
2362:d:/LiteOS_Lab/drivers/third_party/ST/STM32L4xx_HAL_Driver/Src\stm32l4xx_hal_uart.c ****   {
 5794              		.loc 1 2362 8
 5795 0086 9A42     		cmp	r2, r3
 5796 0088 C3D0     		beq	.L297
2379:d:/LiteOS_Lab/drivers/third_party/ST/STM32L4xx_HAL_Driver/Src\stm32l4xx_hal_uart.c ****       }
2380:d:/LiteOS_Lab/drivers/third_party/ST/STM32L4xx_HAL_Driver/Src\stm32l4xx_hal_uart.c ****     }
2381:d:/LiteOS_Lab/drivers/third_party/ST/STM32L4xx_HAL_Driver/Src\stm32l4xx_hal_uart.c ****   }
2382:d:/LiteOS_Lab/drivers/third_party/ST/STM32L4xx_HAL_Driver/Src\stm32l4xx_hal_uart.c ****   return HAL_OK;
 5797              		.loc 1 2382 10
 5798 008a 0023     		movs	r3, #0
 5799              	.L296:
2383:d:/LiteOS_Lab/drivers/third_party/ST/STM32L4xx_HAL_Driver/Src\stm32l4xx_hal_uart.c **** }
 5800              		.loc 1 2383 1
 5801 008c 1846     		mov	r0, r3
 5802 008e 1037     		adds	r7, r7, #16
 5803              	.LCFI234:
 5804              		.cfi_def_cfa_offset 8
 5805 0090 BD46     		mov	sp, r7
 5806              	.LCFI235:
 5807              		.cfi_def_cfa_register 13
 5808              		@ sp needed
 5809 0092 80BD     		pop	{r7, pc}
 5810              		.cfi_endproc
 5811              	.LFE329:
 5813              		.section	.text.UART_EndTxTransfer,"ax",%progbits
 5814              		.align	1
 5815              		.syntax unified
 5816              		.thumb
 5817              		.thumb_func
 5818              		.fpu fpv4-sp-d16
 5820              	UART_EndTxTransfer:
 5821              	.LFB330:
2384:d:/LiteOS_Lab/drivers/third_party/ST/STM32L4xx_HAL_Driver/Src\stm32l4xx_hal_uart.c **** 
2385:d:/LiteOS_Lab/drivers/third_party/ST/STM32L4xx_HAL_Driver/Src\stm32l4xx_hal_uart.c **** 
2386:d:/LiteOS_Lab/drivers/third_party/ST/STM32L4xx_HAL_Driver/Src\stm32l4xx_hal_uart.c **** /**
2387:d:/LiteOS_Lab/drivers/third_party/ST/STM32L4xx_HAL_Driver/Src\stm32l4xx_hal_uart.c ****   * @brief  End ongoing Tx transfer on UART peripheral (following error detection or Transmit compl
2388:d:/LiteOS_Lab/drivers/third_party/ST/STM32L4xx_HAL_Driver/Src\stm32l4xx_hal_uart.c ****   * @param  huart UART handle.
2389:d:/LiteOS_Lab/drivers/third_party/ST/STM32L4xx_HAL_Driver/Src\stm32l4xx_hal_uart.c ****   * @retval None
2390:d:/LiteOS_Lab/drivers/third_party/ST/STM32L4xx_HAL_Driver/Src\stm32l4xx_hal_uart.c ****   */
2391:d:/LiteOS_Lab/drivers/third_party/ST/STM32L4xx_HAL_Driver/Src\stm32l4xx_hal_uart.c **** static void UART_EndTxTransfer(UART_HandleTypeDef *huart)
2392:d:/LiteOS_Lab/drivers/third_party/ST/STM32L4xx_HAL_Driver/Src\stm32l4xx_hal_uart.c **** {
 5822              		.loc 1 2392 1
 5823              		.cfi_startproc
 5824              		@ args = 0, pretend = 0, frame = 8
 5825              		@ frame_needed = 1, uses_anonymous_args = 0
 5826              		@ link register save eliminated.
ARM GAS  C:\Users\ADMINI~1\AppData\Local\Temp\ccHDbRvY.s 			page 144


 5827 0000 80B4     		push	{r7}
 5828              	.LCFI236:
 5829              		.cfi_def_cfa_offset 4
 5830              		.cfi_offset 7, -4
 5831 0002 83B0     		sub	sp, sp, #12
 5832              	.LCFI237:
 5833              		.cfi_def_cfa_offset 16
 5834 0004 00AF     		add	r7, sp, #0
 5835              	.LCFI238:
 5836              		.cfi_def_cfa_register 7
 5837 0006 7860     		str	r0, [r7, #4]
2393:d:/LiteOS_Lab/drivers/third_party/ST/STM32L4xx_HAL_Driver/Src\stm32l4xx_hal_uart.c ****   /* Disable TXEIE and TCIE interrupts */
2394:d:/LiteOS_Lab/drivers/third_party/ST/STM32L4xx_HAL_Driver/Src\stm32l4xx_hal_uart.c ****   CLEAR_BIT(huart->Instance->CR1, (USART_CR1_TXEIE | USART_CR1_TCIE));
 5838              		.loc 1 2394 3
 5839 0008 7B68     		ldr	r3, [r7, #4]
 5840 000a 1B68     		ldr	r3, [r3]
 5841 000c 1A68     		ldr	r2, [r3]
 5842 000e 7B68     		ldr	r3, [r7, #4]
 5843 0010 1B68     		ldr	r3, [r3]
 5844 0012 22F0C002 		bic	r2, r2, #192
 5845 0016 1A60     		str	r2, [r3]
2395:d:/LiteOS_Lab/drivers/third_party/ST/STM32L4xx_HAL_Driver/Src\stm32l4xx_hal_uart.c **** 
2396:d:/LiteOS_Lab/drivers/third_party/ST/STM32L4xx_HAL_Driver/Src\stm32l4xx_hal_uart.c ****   /* At end of Tx process, restore huart->gState to Ready */
2397:d:/LiteOS_Lab/drivers/third_party/ST/STM32L4xx_HAL_Driver/Src\stm32l4xx_hal_uart.c ****   huart->gState = HAL_UART_STATE_READY;
 5846              		.loc 1 2397 17
 5847 0018 7B68     		ldr	r3, [r7, #4]
 5848 001a 2022     		movs	r2, #32
 5849 001c 83F87120 		strb	r2, [r3, #113]
2398:d:/LiteOS_Lab/drivers/third_party/ST/STM32L4xx_HAL_Driver/Src\stm32l4xx_hal_uart.c **** }
 5850              		.loc 1 2398 1
 5851 0020 00BF     		nop
 5852 0022 0C37     		adds	r7, r7, #12
 5853              	.LCFI239:
 5854              		.cfi_def_cfa_offset 4
 5855 0024 BD46     		mov	sp, r7
 5856              	.LCFI240:
 5857              		.cfi_def_cfa_register 13
 5858              		@ sp needed
 5859 0026 5DF8047B 		ldr	r7, [sp], #4
 5860              	.LCFI241:
 5861              		.cfi_restore 7
 5862              		.cfi_def_cfa_offset 0
 5863 002a 7047     		bx	lr
 5864              		.cfi_endproc
 5865              	.LFE330:
 5867              		.section	.text.UART_EndRxTransfer,"ax",%progbits
 5868              		.align	1
 5869              		.syntax unified
 5870              		.thumb
 5871              		.thumb_func
 5872              		.fpu fpv4-sp-d16
 5874              	UART_EndRxTransfer:
 5875              	.LFB331:
2399:d:/LiteOS_Lab/drivers/third_party/ST/STM32L4xx_HAL_Driver/Src\stm32l4xx_hal_uart.c **** 
2400:d:/LiteOS_Lab/drivers/third_party/ST/STM32L4xx_HAL_Driver/Src\stm32l4xx_hal_uart.c **** 
2401:d:/LiteOS_Lab/drivers/third_party/ST/STM32L4xx_HAL_Driver/Src\stm32l4xx_hal_uart.c **** /**
2402:d:/LiteOS_Lab/drivers/third_party/ST/STM32L4xx_HAL_Driver/Src\stm32l4xx_hal_uart.c ****   * @brief  End ongoing Rx transfer on UART peripheral (following error detection or Reception comp
ARM GAS  C:\Users\ADMINI~1\AppData\Local\Temp\ccHDbRvY.s 			page 145


2403:d:/LiteOS_Lab/drivers/third_party/ST/STM32L4xx_HAL_Driver/Src\stm32l4xx_hal_uart.c ****   * @param  huart UART handle.
2404:d:/LiteOS_Lab/drivers/third_party/ST/STM32L4xx_HAL_Driver/Src\stm32l4xx_hal_uart.c ****   * @retval None
2405:d:/LiteOS_Lab/drivers/third_party/ST/STM32L4xx_HAL_Driver/Src\stm32l4xx_hal_uart.c ****   */
2406:d:/LiteOS_Lab/drivers/third_party/ST/STM32L4xx_HAL_Driver/Src\stm32l4xx_hal_uart.c **** static void UART_EndRxTransfer(UART_HandleTypeDef *huart)
2407:d:/LiteOS_Lab/drivers/third_party/ST/STM32L4xx_HAL_Driver/Src\stm32l4xx_hal_uart.c **** {
 5876              		.loc 1 2407 1
 5877              		.cfi_startproc
 5878              		@ args = 0, pretend = 0, frame = 8
 5879              		@ frame_needed = 1, uses_anonymous_args = 0
 5880              		@ link register save eliminated.
 5881 0000 80B4     		push	{r7}
 5882              	.LCFI242:
 5883              		.cfi_def_cfa_offset 4
 5884              		.cfi_offset 7, -4
 5885 0002 83B0     		sub	sp, sp, #12
 5886              	.LCFI243:
 5887              		.cfi_def_cfa_offset 16
 5888 0004 00AF     		add	r7, sp, #0
 5889              	.LCFI244:
 5890              		.cfi_def_cfa_register 7
 5891 0006 7860     		str	r0, [r7, #4]
2408:d:/LiteOS_Lab/drivers/third_party/ST/STM32L4xx_HAL_Driver/Src\stm32l4xx_hal_uart.c ****   /* Disable RXNE, PE and ERR (Frame error, noise error, overrun error) interrupts */
2409:d:/LiteOS_Lab/drivers/third_party/ST/STM32L4xx_HAL_Driver/Src\stm32l4xx_hal_uart.c ****   CLEAR_BIT(huart->Instance->CR1, (USART_CR1_RXNEIE | USART_CR1_PEIE));
 5892              		.loc 1 2409 3
 5893 0008 7B68     		ldr	r3, [r7, #4]
 5894 000a 1B68     		ldr	r3, [r3]
 5895 000c 1A68     		ldr	r2, [r3]
 5896 000e 7B68     		ldr	r3, [r7, #4]
 5897 0010 1B68     		ldr	r3, [r3]
 5898 0012 22F49072 		bic	r2, r2, #288
 5899 0016 1A60     		str	r2, [r3]
2410:d:/LiteOS_Lab/drivers/third_party/ST/STM32L4xx_HAL_Driver/Src\stm32l4xx_hal_uart.c ****   CLEAR_BIT(huart->Instance->CR3, USART_CR3_EIE);
 5900              		.loc 1 2410 3
 5901 0018 7B68     		ldr	r3, [r7, #4]
 5902 001a 1B68     		ldr	r3, [r3]
 5903 001c 9A68     		ldr	r2, [r3, #8]
 5904 001e 7B68     		ldr	r3, [r7, #4]
 5905 0020 1B68     		ldr	r3, [r3]
 5906 0022 22F00102 		bic	r2, r2, #1
 5907 0026 9A60     		str	r2, [r3, #8]
2411:d:/LiteOS_Lab/drivers/third_party/ST/STM32L4xx_HAL_Driver/Src\stm32l4xx_hal_uart.c **** 
2412:d:/LiteOS_Lab/drivers/third_party/ST/STM32L4xx_HAL_Driver/Src\stm32l4xx_hal_uart.c ****   /* At end of Rx process, restore huart->RxState to Ready */
2413:d:/LiteOS_Lab/drivers/third_party/ST/STM32L4xx_HAL_Driver/Src\stm32l4xx_hal_uart.c ****   huart->RxState = HAL_UART_STATE_READY;
 5908              		.loc 1 2413 18
 5909 0028 7B68     		ldr	r3, [r7, #4]
 5910 002a 2022     		movs	r2, #32
 5911 002c 83F87220 		strb	r2, [r3, #114]
2414:d:/LiteOS_Lab/drivers/third_party/ST/STM32L4xx_HAL_Driver/Src\stm32l4xx_hal_uart.c **** }
 5912              		.loc 1 2414 1
 5913 0030 00BF     		nop
 5914 0032 0C37     		adds	r7, r7, #12
 5915              	.LCFI245:
 5916              		.cfi_def_cfa_offset 4
 5917 0034 BD46     		mov	sp, r7
 5918              	.LCFI246:
 5919              		.cfi_def_cfa_register 13
 5920              		@ sp needed
ARM GAS  C:\Users\ADMINI~1\AppData\Local\Temp\ccHDbRvY.s 			page 146


 5921 0036 5DF8047B 		ldr	r7, [sp], #4
 5922              	.LCFI247:
 5923              		.cfi_restore 7
 5924              		.cfi_def_cfa_offset 0
 5925 003a 7047     		bx	lr
 5926              		.cfi_endproc
 5927              	.LFE331:
 5929              		.section	.text.UART_DMATransmitCplt,"ax",%progbits
 5930              		.align	1
 5931              		.syntax unified
 5932              		.thumb
 5933              		.thumb_func
 5934              		.fpu fpv4-sp-d16
 5936              	UART_DMATransmitCplt:
 5937              	.LFB332:
2415:d:/LiteOS_Lab/drivers/third_party/ST/STM32L4xx_HAL_Driver/Src\stm32l4xx_hal_uart.c **** 
2416:d:/LiteOS_Lab/drivers/third_party/ST/STM32L4xx_HAL_Driver/Src\stm32l4xx_hal_uart.c **** 
2417:d:/LiteOS_Lab/drivers/third_party/ST/STM32L4xx_HAL_Driver/Src\stm32l4xx_hal_uart.c **** /**
2418:d:/LiteOS_Lab/drivers/third_party/ST/STM32L4xx_HAL_Driver/Src\stm32l4xx_hal_uart.c ****   * @brief DMA UART transmit process complete callback.
2419:d:/LiteOS_Lab/drivers/third_party/ST/STM32L4xx_HAL_Driver/Src\stm32l4xx_hal_uart.c ****   * @param hdma DMA handle.
2420:d:/LiteOS_Lab/drivers/third_party/ST/STM32L4xx_HAL_Driver/Src\stm32l4xx_hal_uart.c ****   * @retval None
2421:d:/LiteOS_Lab/drivers/third_party/ST/STM32L4xx_HAL_Driver/Src\stm32l4xx_hal_uart.c ****   */
2422:d:/LiteOS_Lab/drivers/third_party/ST/STM32L4xx_HAL_Driver/Src\stm32l4xx_hal_uart.c **** static void UART_DMATransmitCplt(DMA_HandleTypeDef *hdma)
2423:d:/LiteOS_Lab/drivers/third_party/ST/STM32L4xx_HAL_Driver/Src\stm32l4xx_hal_uart.c **** {
 5938              		.loc 1 2423 1
 5939              		.cfi_startproc
 5940              		@ args = 0, pretend = 0, frame = 16
 5941              		@ frame_needed = 1, uses_anonymous_args = 0
 5942 0000 80B5     		push	{r7, lr}
 5943              	.LCFI248:
 5944              		.cfi_def_cfa_offset 8
 5945              		.cfi_offset 7, -8
 5946              		.cfi_offset 14, -4
 5947 0002 84B0     		sub	sp, sp, #16
 5948              	.LCFI249:
 5949              		.cfi_def_cfa_offset 24
 5950 0004 00AF     		add	r7, sp, #0
 5951              	.LCFI250:
 5952              		.cfi_def_cfa_register 7
 5953 0006 7860     		str	r0, [r7, #4]
2424:d:/LiteOS_Lab/drivers/third_party/ST/STM32L4xx_HAL_Driver/Src\stm32l4xx_hal_uart.c ****   UART_HandleTypeDef* huart = (UART_HandleTypeDef*)(hdma->Parent);
 5954              		.loc 1 2424 23
 5955 0008 7B68     		ldr	r3, [r7, #4]
 5956 000a 9B6A     		ldr	r3, [r3, #40]
 5957 000c FB60     		str	r3, [r7, #12]
2425:d:/LiteOS_Lab/drivers/third_party/ST/STM32L4xx_HAL_Driver/Src\stm32l4xx_hal_uart.c ****   
2426:d:/LiteOS_Lab/drivers/third_party/ST/STM32L4xx_HAL_Driver/Src\stm32l4xx_hal_uart.c ****   /* DMA Normal mode */
2427:d:/LiteOS_Lab/drivers/third_party/ST/STM32L4xx_HAL_Driver/Src\stm32l4xx_hal_uart.c ****   if ( HAL_IS_BIT_CLR(hdma->Instance->CCR, DMA_CCR_CIRC) )
 5958              		.loc 1 2427 8
 5959 000e 7B68     		ldr	r3, [r7, #4]
 5960 0010 1B68     		ldr	r3, [r3]
 5961 0012 1B68     		ldr	r3, [r3]
 5962 0014 03F02003 		and	r3, r3, #32
 5963              		.loc 1 2427 6
 5964 0018 002B     		cmp	r3, #0
 5965 001a 14D1     		bne	.L301
2428:d:/LiteOS_Lab/drivers/third_party/ST/STM32L4xx_HAL_Driver/Src\stm32l4xx_hal_uart.c ****   {
ARM GAS  C:\Users\ADMINI~1\AppData\Local\Temp\ccHDbRvY.s 			page 147


2429:d:/LiteOS_Lab/drivers/third_party/ST/STM32L4xx_HAL_Driver/Src\stm32l4xx_hal_uart.c ****     huart->TxXferCount = 0;
 5966              		.loc 1 2429 24
 5967 001c FB68     		ldr	r3, [r7, #12]
 5968 001e 0022     		movs	r2, #0
 5969 0020 A3F85220 		strh	r2, [r3, #82]	@ movhi
2430:d:/LiteOS_Lab/drivers/third_party/ST/STM32L4xx_HAL_Driver/Src\stm32l4xx_hal_uart.c **** 
2431:d:/LiteOS_Lab/drivers/third_party/ST/STM32L4xx_HAL_Driver/Src\stm32l4xx_hal_uart.c ****     /* Disable the DMA transfer for transmit request by resetting the DMAT bit
2432:d:/LiteOS_Lab/drivers/third_party/ST/STM32L4xx_HAL_Driver/Src\stm32l4xx_hal_uart.c ****        in the UART CR3 register */
2433:d:/LiteOS_Lab/drivers/third_party/ST/STM32L4xx_HAL_Driver/Src\stm32l4xx_hal_uart.c ****     CLEAR_BIT(huart->Instance->CR3, USART_CR3_DMAT);
 5970              		.loc 1 2433 5
 5971 0024 FB68     		ldr	r3, [r7, #12]
 5972 0026 1B68     		ldr	r3, [r3]
 5973 0028 9A68     		ldr	r2, [r3, #8]
 5974 002a FB68     		ldr	r3, [r7, #12]
 5975 002c 1B68     		ldr	r3, [r3]
 5976 002e 22F08002 		bic	r2, r2, #128
 5977 0032 9A60     		str	r2, [r3, #8]
2434:d:/LiteOS_Lab/drivers/third_party/ST/STM32L4xx_HAL_Driver/Src\stm32l4xx_hal_uart.c **** 
2435:d:/LiteOS_Lab/drivers/third_party/ST/STM32L4xx_HAL_Driver/Src\stm32l4xx_hal_uart.c ****     /* Enable the UART Transmit Complete Interrupt */
2436:d:/LiteOS_Lab/drivers/third_party/ST/STM32L4xx_HAL_Driver/Src\stm32l4xx_hal_uart.c ****     SET_BIT(huart->Instance->CR1, USART_CR1_TCIE);
 5978              		.loc 1 2436 5
 5979 0034 FB68     		ldr	r3, [r7, #12]
 5980 0036 1B68     		ldr	r3, [r3]
 5981 0038 1A68     		ldr	r2, [r3]
 5982 003a FB68     		ldr	r3, [r7, #12]
 5983 003c 1B68     		ldr	r3, [r3]
 5984 003e 42F04002 		orr	r2, r2, #64
 5985 0042 1A60     		str	r2, [r3]
2437:d:/LiteOS_Lab/drivers/third_party/ST/STM32L4xx_HAL_Driver/Src\stm32l4xx_hal_uart.c ****   }
2438:d:/LiteOS_Lab/drivers/third_party/ST/STM32L4xx_HAL_Driver/Src\stm32l4xx_hal_uart.c ****   /* DMA Circular mode */
2439:d:/LiteOS_Lab/drivers/third_party/ST/STM32L4xx_HAL_Driver/Src\stm32l4xx_hal_uart.c ****   else
2440:d:/LiteOS_Lab/drivers/third_party/ST/STM32L4xx_HAL_Driver/Src\stm32l4xx_hal_uart.c ****   {
2441:d:/LiteOS_Lab/drivers/third_party/ST/STM32L4xx_HAL_Driver/Src\stm32l4xx_hal_uart.c ****     HAL_UART_TxCpltCallback(huart);
2442:d:/LiteOS_Lab/drivers/third_party/ST/STM32L4xx_HAL_Driver/Src\stm32l4xx_hal_uart.c ****   }
2443:d:/LiteOS_Lab/drivers/third_party/ST/STM32L4xx_HAL_Driver/Src\stm32l4xx_hal_uart.c **** 
2444:d:/LiteOS_Lab/drivers/third_party/ST/STM32L4xx_HAL_Driver/Src\stm32l4xx_hal_uart.c **** }
 5986              		.loc 1 2444 1
 5987 0044 02E0     		b	.L303
 5988              	.L301:
2441:d:/LiteOS_Lab/drivers/third_party/ST/STM32L4xx_HAL_Driver/Src\stm32l4xx_hal_uart.c ****   }
 5989              		.loc 1 2441 5
 5990 0046 F868     		ldr	r0, [r7, #12]
 5991 0048 FFF7FEFF 		bl	HAL_UART_TxCpltCallback
 5992              	.L303:
 5993              		.loc 1 2444 1
 5994 004c 00BF     		nop
 5995 004e 1037     		adds	r7, r7, #16
 5996              	.LCFI251:
 5997              		.cfi_def_cfa_offset 8
 5998 0050 BD46     		mov	sp, r7
 5999              	.LCFI252:
 6000              		.cfi_def_cfa_register 13
 6001              		@ sp needed
 6002 0052 80BD     		pop	{r7, pc}
 6003              		.cfi_endproc
 6004              	.LFE332:
 6006              		.section	.text.UART_DMATxHalfCplt,"ax",%progbits
ARM GAS  C:\Users\ADMINI~1\AppData\Local\Temp\ccHDbRvY.s 			page 148


 6007              		.align	1
 6008              		.syntax unified
 6009              		.thumb
 6010              		.thumb_func
 6011              		.fpu fpv4-sp-d16
 6013              	UART_DMATxHalfCplt:
 6014              	.LFB333:
2445:d:/LiteOS_Lab/drivers/third_party/ST/STM32L4xx_HAL_Driver/Src\stm32l4xx_hal_uart.c **** 
2446:d:/LiteOS_Lab/drivers/third_party/ST/STM32L4xx_HAL_Driver/Src\stm32l4xx_hal_uart.c **** /**
2447:d:/LiteOS_Lab/drivers/third_party/ST/STM32L4xx_HAL_Driver/Src\stm32l4xx_hal_uart.c ****   * @brief DMA UART transmit process half complete callback.
2448:d:/LiteOS_Lab/drivers/third_party/ST/STM32L4xx_HAL_Driver/Src\stm32l4xx_hal_uart.c ****   * @param hdma DMA handle.
2449:d:/LiteOS_Lab/drivers/third_party/ST/STM32L4xx_HAL_Driver/Src\stm32l4xx_hal_uart.c ****   * @retval None
2450:d:/LiteOS_Lab/drivers/third_party/ST/STM32L4xx_HAL_Driver/Src\stm32l4xx_hal_uart.c ****   */
2451:d:/LiteOS_Lab/drivers/third_party/ST/STM32L4xx_HAL_Driver/Src\stm32l4xx_hal_uart.c **** static void UART_DMATxHalfCplt(DMA_HandleTypeDef *hdma)
2452:d:/LiteOS_Lab/drivers/third_party/ST/STM32L4xx_HAL_Driver/Src\stm32l4xx_hal_uart.c **** {
 6015              		.loc 1 2452 1
 6016              		.cfi_startproc
 6017              		@ args = 0, pretend = 0, frame = 16
 6018              		@ frame_needed = 1, uses_anonymous_args = 0
 6019 0000 80B5     		push	{r7, lr}
 6020              	.LCFI253:
 6021              		.cfi_def_cfa_offset 8
 6022              		.cfi_offset 7, -8
 6023              		.cfi_offset 14, -4
 6024 0002 84B0     		sub	sp, sp, #16
 6025              	.LCFI254:
 6026              		.cfi_def_cfa_offset 24
 6027 0004 00AF     		add	r7, sp, #0
 6028              	.LCFI255:
 6029              		.cfi_def_cfa_register 7
 6030 0006 7860     		str	r0, [r7, #4]
2453:d:/LiteOS_Lab/drivers/third_party/ST/STM32L4xx_HAL_Driver/Src\stm32l4xx_hal_uart.c ****   UART_HandleTypeDef* huart = (UART_HandleTypeDef*)(hdma->Parent);
 6031              		.loc 1 2453 23
 6032 0008 7B68     		ldr	r3, [r7, #4]
 6033 000a 9B6A     		ldr	r3, [r3, #40]
 6034 000c FB60     		str	r3, [r7, #12]
2454:d:/LiteOS_Lab/drivers/third_party/ST/STM32L4xx_HAL_Driver/Src\stm32l4xx_hal_uart.c **** 
2455:d:/LiteOS_Lab/drivers/third_party/ST/STM32L4xx_HAL_Driver/Src\stm32l4xx_hal_uart.c ****   HAL_UART_TxHalfCpltCallback(huart);
 6035              		.loc 1 2455 3
 6036 000e F868     		ldr	r0, [r7, #12]
 6037 0010 FFF7FEFF 		bl	HAL_UART_TxHalfCpltCallback
2456:d:/LiteOS_Lab/drivers/third_party/ST/STM32L4xx_HAL_Driver/Src\stm32l4xx_hal_uart.c **** }
 6038              		.loc 1 2456 1
 6039 0014 00BF     		nop
 6040 0016 1037     		adds	r7, r7, #16
 6041              	.LCFI256:
 6042              		.cfi_def_cfa_offset 8
 6043 0018 BD46     		mov	sp, r7
 6044              	.LCFI257:
 6045              		.cfi_def_cfa_register 13
 6046              		@ sp needed
 6047 001a 80BD     		pop	{r7, pc}
 6048              		.cfi_endproc
 6049              	.LFE333:
 6051              		.section	.text.UART_DMAReceiveCplt,"ax",%progbits
 6052              		.align	1
 6053              		.syntax unified
ARM GAS  C:\Users\ADMINI~1\AppData\Local\Temp\ccHDbRvY.s 			page 149


 6054              		.thumb
 6055              		.thumb_func
 6056              		.fpu fpv4-sp-d16
 6058              	UART_DMAReceiveCplt:
 6059              	.LFB334:
2457:d:/LiteOS_Lab/drivers/third_party/ST/STM32L4xx_HAL_Driver/Src\stm32l4xx_hal_uart.c **** 
2458:d:/LiteOS_Lab/drivers/third_party/ST/STM32L4xx_HAL_Driver/Src\stm32l4xx_hal_uart.c **** /**
2459:d:/LiteOS_Lab/drivers/third_party/ST/STM32L4xx_HAL_Driver/Src\stm32l4xx_hal_uart.c ****   * @brief DMA UART receive process complete callback.
2460:d:/LiteOS_Lab/drivers/third_party/ST/STM32L4xx_HAL_Driver/Src\stm32l4xx_hal_uart.c ****   * @param hdma DMA handle.
2461:d:/LiteOS_Lab/drivers/third_party/ST/STM32L4xx_HAL_Driver/Src\stm32l4xx_hal_uart.c ****   * @retval None
2462:d:/LiteOS_Lab/drivers/third_party/ST/STM32L4xx_HAL_Driver/Src\stm32l4xx_hal_uart.c ****   */
2463:d:/LiteOS_Lab/drivers/third_party/ST/STM32L4xx_HAL_Driver/Src\stm32l4xx_hal_uart.c **** static void UART_DMAReceiveCplt(DMA_HandleTypeDef *hdma)
2464:d:/LiteOS_Lab/drivers/third_party/ST/STM32L4xx_HAL_Driver/Src\stm32l4xx_hal_uart.c **** {
 6060              		.loc 1 2464 1
 6061              		.cfi_startproc
 6062              		@ args = 0, pretend = 0, frame = 16
 6063              		@ frame_needed = 1, uses_anonymous_args = 0
 6064 0000 80B5     		push	{r7, lr}
 6065              	.LCFI258:
 6066              		.cfi_def_cfa_offset 8
 6067              		.cfi_offset 7, -8
 6068              		.cfi_offset 14, -4
 6069 0002 84B0     		sub	sp, sp, #16
 6070              	.LCFI259:
 6071              		.cfi_def_cfa_offset 24
 6072 0004 00AF     		add	r7, sp, #0
 6073              	.LCFI260:
 6074              		.cfi_def_cfa_register 7
 6075 0006 7860     		str	r0, [r7, #4]
2465:d:/LiteOS_Lab/drivers/third_party/ST/STM32L4xx_HAL_Driver/Src\stm32l4xx_hal_uart.c ****   UART_HandleTypeDef* huart = (UART_HandleTypeDef*)(hdma->Parent);
 6076              		.loc 1 2465 23
 6077 0008 7B68     		ldr	r3, [r7, #4]
 6078 000a 9B6A     		ldr	r3, [r3, #40]
 6079 000c FB60     		str	r3, [r7, #12]
2466:d:/LiteOS_Lab/drivers/third_party/ST/STM32L4xx_HAL_Driver/Src\stm32l4xx_hal_uart.c **** 
2467:d:/LiteOS_Lab/drivers/third_party/ST/STM32L4xx_HAL_Driver/Src\stm32l4xx_hal_uart.c ****   /* DMA Normal mode */
2468:d:/LiteOS_Lab/drivers/third_party/ST/STM32L4xx_HAL_Driver/Src\stm32l4xx_hal_uart.c ****   if ( HAL_IS_BIT_CLR(hdma->Instance->CCR, DMA_CCR_CIRC) )
 6080              		.loc 1 2468 8
 6081 000e 7B68     		ldr	r3, [r7, #4]
 6082 0010 1B68     		ldr	r3, [r3]
 6083 0012 1B68     		ldr	r3, [r3]
 6084 0014 03F02003 		and	r3, r3, #32
 6085              		.loc 1 2468 6
 6086 0018 002B     		cmp	r3, #0
 6087 001a 1FD1     		bne	.L306
2469:d:/LiteOS_Lab/drivers/third_party/ST/STM32L4xx_HAL_Driver/Src\stm32l4xx_hal_uart.c ****   {
2470:d:/LiteOS_Lab/drivers/third_party/ST/STM32L4xx_HAL_Driver/Src\stm32l4xx_hal_uart.c ****     huart->RxXferCount = 0;
 6088              		.loc 1 2470 24
 6089 001c FB68     		ldr	r3, [r7, #12]
 6090 001e 0022     		movs	r2, #0
 6091 0020 A3F85A20 		strh	r2, [r3, #90]	@ movhi
2471:d:/LiteOS_Lab/drivers/third_party/ST/STM32L4xx_HAL_Driver/Src\stm32l4xx_hal_uart.c **** 
2472:d:/LiteOS_Lab/drivers/third_party/ST/STM32L4xx_HAL_Driver/Src\stm32l4xx_hal_uart.c ****     /* Disable PE and ERR (Frame error, noise error, overrun error) interrupts */
2473:d:/LiteOS_Lab/drivers/third_party/ST/STM32L4xx_HAL_Driver/Src\stm32l4xx_hal_uart.c ****     CLEAR_BIT(huart->Instance->CR1, USART_CR1_PEIE);
 6092              		.loc 1 2473 5
 6093 0024 FB68     		ldr	r3, [r7, #12]
 6094 0026 1B68     		ldr	r3, [r3]
ARM GAS  C:\Users\ADMINI~1\AppData\Local\Temp\ccHDbRvY.s 			page 150


 6095 0028 1A68     		ldr	r2, [r3]
 6096 002a FB68     		ldr	r3, [r7, #12]
 6097 002c 1B68     		ldr	r3, [r3]
 6098 002e 22F48072 		bic	r2, r2, #256
 6099 0032 1A60     		str	r2, [r3]
2474:d:/LiteOS_Lab/drivers/third_party/ST/STM32L4xx_HAL_Driver/Src\stm32l4xx_hal_uart.c ****     CLEAR_BIT(huart->Instance->CR3, USART_CR3_EIE);
 6100              		.loc 1 2474 5
 6101 0034 FB68     		ldr	r3, [r7, #12]
 6102 0036 1B68     		ldr	r3, [r3]
 6103 0038 9A68     		ldr	r2, [r3, #8]
 6104 003a FB68     		ldr	r3, [r7, #12]
 6105 003c 1B68     		ldr	r3, [r3]
 6106 003e 22F00102 		bic	r2, r2, #1
 6107 0042 9A60     		str	r2, [r3, #8]
2475:d:/LiteOS_Lab/drivers/third_party/ST/STM32L4xx_HAL_Driver/Src\stm32l4xx_hal_uart.c **** 
2476:d:/LiteOS_Lab/drivers/third_party/ST/STM32L4xx_HAL_Driver/Src\stm32l4xx_hal_uart.c ****     /* Disable the DMA transfer for the receiver request by resetting the DMAR bit
2477:d:/LiteOS_Lab/drivers/third_party/ST/STM32L4xx_HAL_Driver/Src\stm32l4xx_hal_uart.c ****        in the UART CR3 register */
2478:d:/LiteOS_Lab/drivers/third_party/ST/STM32L4xx_HAL_Driver/Src\stm32l4xx_hal_uart.c ****     CLEAR_BIT(huart->Instance->CR3, USART_CR3_DMAR);
 6108              		.loc 1 2478 5
 6109 0044 FB68     		ldr	r3, [r7, #12]
 6110 0046 1B68     		ldr	r3, [r3]
 6111 0048 9A68     		ldr	r2, [r3, #8]
 6112 004a FB68     		ldr	r3, [r7, #12]
 6113 004c 1B68     		ldr	r3, [r3]
 6114 004e 22F04002 		bic	r2, r2, #64
 6115 0052 9A60     		str	r2, [r3, #8]
2479:d:/LiteOS_Lab/drivers/third_party/ST/STM32L4xx_HAL_Driver/Src\stm32l4xx_hal_uart.c **** 
2480:d:/LiteOS_Lab/drivers/third_party/ST/STM32L4xx_HAL_Driver/Src\stm32l4xx_hal_uart.c ****     /* At end of Rx process, restore huart->RxState to Ready */
2481:d:/LiteOS_Lab/drivers/third_party/ST/STM32L4xx_HAL_Driver/Src\stm32l4xx_hal_uart.c ****     huart->RxState = HAL_UART_STATE_READY;
 6116              		.loc 1 2481 20
 6117 0054 FB68     		ldr	r3, [r7, #12]
 6118 0056 2022     		movs	r2, #32
 6119 0058 83F87220 		strb	r2, [r3, #114]
 6120              	.L306:
2482:d:/LiteOS_Lab/drivers/third_party/ST/STM32L4xx_HAL_Driver/Src\stm32l4xx_hal_uart.c ****   }
2483:d:/LiteOS_Lab/drivers/third_party/ST/STM32L4xx_HAL_Driver/Src\stm32l4xx_hal_uart.c **** 
2484:d:/LiteOS_Lab/drivers/third_party/ST/STM32L4xx_HAL_Driver/Src\stm32l4xx_hal_uart.c ****   HAL_UART_RxCpltCallback(huart);
 6121              		.loc 1 2484 3
 6122 005c F868     		ldr	r0, [r7, #12]
 6123 005e FFF7FEFF 		bl	HAL_UART_RxCpltCallback
2485:d:/LiteOS_Lab/drivers/third_party/ST/STM32L4xx_HAL_Driver/Src\stm32l4xx_hal_uart.c **** }
 6124              		.loc 1 2485 1
 6125 0062 00BF     		nop
 6126 0064 1037     		adds	r7, r7, #16
 6127              	.LCFI261:
 6128              		.cfi_def_cfa_offset 8
 6129 0066 BD46     		mov	sp, r7
 6130              	.LCFI262:
 6131              		.cfi_def_cfa_register 13
 6132              		@ sp needed
 6133 0068 80BD     		pop	{r7, pc}
 6134              		.cfi_endproc
 6135              	.LFE334:
 6137              		.section	.text.UART_DMARxHalfCplt,"ax",%progbits
 6138              		.align	1
 6139              		.syntax unified
 6140              		.thumb
ARM GAS  C:\Users\ADMINI~1\AppData\Local\Temp\ccHDbRvY.s 			page 151


 6141              		.thumb_func
 6142              		.fpu fpv4-sp-d16
 6144              	UART_DMARxHalfCplt:
 6145              	.LFB335:
2486:d:/LiteOS_Lab/drivers/third_party/ST/STM32L4xx_HAL_Driver/Src\stm32l4xx_hal_uart.c **** 
2487:d:/LiteOS_Lab/drivers/third_party/ST/STM32L4xx_HAL_Driver/Src\stm32l4xx_hal_uart.c **** /**
2488:d:/LiteOS_Lab/drivers/third_party/ST/STM32L4xx_HAL_Driver/Src\stm32l4xx_hal_uart.c ****   * @brief DMA UART receive process half complete callback.
2489:d:/LiteOS_Lab/drivers/third_party/ST/STM32L4xx_HAL_Driver/Src\stm32l4xx_hal_uart.c ****   * @param hdma DMA handle.
2490:d:/LiteOS_Lab/drivers/third_party/ST/STM32L4xx_HAL_Driver/Src\stm32l4xx_hal_uart.c ****   * @retval None
2491:d:/LiteOS_Lab/drivers/third_party/ST/STM32L4xx_HAL_Driver/Src\stm32l4xx_hal_uart.c ****   */
2492:d:/LiteOS_Lab/drivers/third_party/ST/STM32L4xx_HAL_Driver/Src\stm32l4xx_hal_uart.c **** static void UART_DMARxHalfCplt(DMA_HandleTypeDef *hdma)
2493:d:/LiteOS_Lab/drivers/third_party/ST/STM32L4xx_HAL_Driver/Src\stm32l4xx_hal_uart.c **** {
 6146              		.loc 1 2493 1
 6147              		.cfi_startproc
 6148              		@ args = 0, pretend = 0, frame = 16
 6149              		@ frame_needed = 1, uses_anonymous_args = 0
 6150 0000 80B5     		push	{r7, lr}
 6151              	.LCFI263:
 6152              		.cfi_def_cfa_offset 8
 6153              		.cfi_offset 7, -8
 6154              		.cfi_offset 14, -4
 6155 0002 84B0     		sub	sp, sp, #16
 6156              	.LCFI264:
 6157              		.cfi_def_cfa_offset 24
 6158 0004 00AF     		add	r7, sp, #0
 6159              	.LCFI265:
 6160              		.cfi_def_cfa_register 7
 6161 0006 7860     		str	r0, [r7, #4]
2494:d:/LiteOS_Lab/drivers/third_party/ST/STM32L4xx_HAL_Driver/Src\stm32l4xx_hal_uart.c ****   UART_HandleTypeDef* huart = (UART_HandleTypeDef*)(hdma->Parent);
 6162              		.loc 1 2494 23
 6163 0008 7B68     		ldr	r3, [r7, #4]
 6164 000a 9B6A     		ldr	r3, [r3, #40]
 6165 000c FB60     		str	r3, [r7, #12]
2495:d:/LiteOS_Lab/drivers/third_party/ST/STM32L4xx_HAL_Driver/Src\stm32l4xx_hal_uart.c **** 
2496:d:/LiteOS_Lab/drivers/third_party/ST/STM32L4xx_HAL_Driver/Src\stm32l4xx_hal_uart.c ****   HAL_UART_RxHalfCpltCallback(huart);
 6166              		.loc 1 2496 3
 6167 000e F868     		ldr	r0, [r7, #12]
 6168 0010 FFF7FEFF 		bl	HAL_UART_RxHalfCpltCallback
2497:d:/LiteOS_Lab/drivers/third_party/ST/STM32L4xx_HAL_Driver/Src\stm32l4xx_hal_uart.c **** }
 6169              		.loc 1 2497 1
 6170 0014 00BF     		nop
 6171 0016 1037     		adds	r7, r7, #16
 6172              	.LCFI266:
 6173              		.cfi_def_cfa_offset 8
 6174 0018 BD46     		mov	sp, r7
 6175              	.LCFI267:
 6176              		.cfi_def_cfa_register 13
 6177              		@ sp needed
 6178 001a 80BD     		pop	{r7, pc}
 6179              		.cfi_endproc
 6180              	.LFE335:
 6182              		.section	.text.UART_DMAError,"ax",%progbits
 6183              		.align	1
 6184              		.syntax unified
 6185              		.thumb
 6186              		.thumb_func
 6187              		.fpu fpv4-sp-d16
ARM GAS  C:\Users\ADMINI~1\AppData\Local\Temp\ccHDbRvY.s 			page 152


 6189              	UART_DMAError:
 6190              	.LFB336:
2498:d:/LiteOS_Lab/drivers/third_party/ST/STM32L4xx_HAL_Driver/Src\stm32l4xx_hal_uart.c **** 
2499:d:/LiteOS_Lab/drivers/third_party/ST/STM32L4xx_HAL_Driver/Src\stm32l4xx_hal_uart.c **** /**
2500:d:/LiteOS_Lab/drivers/third_party/ST/STM32L4xx_HAL_Driver/Src\stm32l4xx_hal_uart.c ****   * @brief DMA UART communication error callback.
2501:d:/LiteOS_Lab/drivers/third_party/ST/STM32L4xx_HAL_Driver/Src\stm32l4xx_hal_uart.c ****   * @param hdma DMA handle.
2502:d:/LiteOS_Lab/drivers/third_party/ST/STM32L4xx_HAL_Driver/Src\stm32l4xx_hal_uart.c ****   * @retval None
2503:d:/LiteOS_Lab/drivers/third_party/ST/STM32L4xx_HAL_Driver/Src\stm32l4xx_hal_uart.c ****   */
2504:d:/LiteOS_Lab/drivers/third_party/ST/STM32L4xx_HAL_Driver/Src\stm32l4xx_hal_uart.c **** static void UART_DMAError(DMA_HandleTypeDef *hdma)
2505:d:/LiteOS_Lab/drivers/third_party/ST/STM32L4xx_HAL_Driver/Src\stm32l4xx_hal_uart.c **** {
 6191              		.loc 1 2505 1
 6192              		.cfi_startproc
 6193              		@ args = 0, pretend = 0, frame = 16
 6194              		@ frame_needed = 1, uses_anonymous_args = 0
 6195 0000 80B5     		push	{r7, lr}
 6196              	.LCFI268:
 6197              		.cfi_def_cfa_offset 8
 6198              		.cfi_offset 7, -8
 6199              		.cfi_offset 14, -4
 6200 0002 84B0     		sub	sp, sp, #16
 6201              	.LCFI269:
 6202              		.cfi_def_cfa_offset 24
 6203 0004 00AF     		add	r7, sp, #0
 6204              	.LCFI270:
 6205              		.cfi_def_cfa_register 7
 6206 0006 7860     		str	r0, [r7, #4]
2506:d:/LiteOS_Lab/drivers/third_party/ST/STM32L4xx_HAL_Driver/Src\stm32l4xx_hal_uart.c ****   UART_HandleTypeDef* huart = (UART_HandleTypeDef*)(hdma->Parent);
 6207              		.loc 1 2506 23
 6208 0008 7B68     		ldr	r3, [r7, #4]
 6209 000a 9B6A     		ldr	r3, [r3, #40]
 6210 000c FB60     		str	r3, [r7, #12]
2507:d:/LiteOS_Lab/drivers/third_party/ST/STM32L4xx_HAL_Driver/Src\stm32l4xx_hal_uart.c **** 
2508:d:/LiteOS_Lab/drivers/third_party/ST/STM32L4xx_HAL_Driver/Src\stm32l4xx_hal_uart.c ****   /* Stop UART DMA Tx request if ongoing */
2509:d:/LiteOS_Lab/drivers/third_party/ST/STM32L4xx_HAL_Driver/Src\stm32l4xx_hal_uart.c ****   if (  (huart->gState == HAL_UART_STATE_BUSY_TX)
 6211              		.loc 1 2509 15
 6212 000e FB68     		ldr	r3, [r7, #12]
 6213 0010 93F87130 		ldrb	r3, [r3, #113]
 6214 0014 DBB2     		uxtb	r3, r3
 6215              		.loc 1 2509 6
 6216 0016 212B     		cmp	r3, #33
 6217 0018 0DD1     		bne	.L309
2510:d:/LiteOS_Lab/drivers/third_party/ST/STM32L4xx_HAL_Driver/Src\stm32l4xx_hal_uart.c ****       &&(HAL_IS_BIT_SET(huart->Instance->CR3, USART_CR3_DMAT)) )
 6218              		.loc 1 2510 10
 6219 001a FB68     		ldr	r3, [r7, #12]
 6220 001c 1B68     		ldr	r3, [r3]
 6221 001e 9B68     		ldr	r3, [r3, #8]
 6222 0020 03F08003 		and	r3, r3, #128
 6223              		.loc 1 2510 7
 6224 0024 802B     		cmp	r3, #128
 6225 0026 06D1     		bne	.L309
2511:d:/LiteOS_Lab/drivers/third_party/ST/STM32L4xx_HAL_Driver/Src\stm32l4xx_hal_uart.c ****   {
2512:d:/LiteOS_Lab/drivers/third_party/ST/STM32L4xx_HAL_Driver/Src\stm32l4xx_hal_uart.c ****     huart->TxXferCount = 0;
 6226              		.loc 1 2512 24
 6227 0028 FB68     		ldr	r3, [r7, #12]
 6228 002a 0022     		movs	r2, #0
 6229 002c A3F85220 		strh	r2, [r3, #82]	@ movhi
2513:d:/LiteOS_Lab/drivers/third_party/ST/STM32L4xx_HAL_Driver/Src\stm32l4xx_hal_uart.c ****     UART_EndTxTransfer(huart);
ARM GAS  C:\Users\ADMINI~1\AppData\Local\Temp\ccHDbRvY.s 			page 153


 6230              		.loc 1 2513 5
 6231 0030 F868     		ldr	r0, [r7, #12]
 6232 0032 FFF7FEFF 		bl	UART_EndTxTransfer
 6233              	.L309:
2514:d:/LiteOS_Lab/drivers/third_party/ST/STM32L4xx_HAL_Driver/Src\stm32l4xx_hal_uart.c ****   }
2515:d:/LiteOS_Lab/drivers/third_party/ST/STM32L4xx_HAL_Driver/Src\stm32l4xx_hal_uart.c **** 
2516:d:/LiteOS_Lab/drivers/third_party/ST/STM32L4xx_HAL_Driver/Src\stm32l4xx_hal_uart.c ****   /* Stop UART DMA Rx request if ongoing */
2517:d:/LiteOS_Lab/drivers/third_party/ST/STM32L4xx_HAL_Driver/Src\stm32l4xx_hal_uart.c ****   if (  (huart->RxState == HAL_UART_STATE_BUSY_RX)
 6234              		.loc 1 2517 15
 6235 0036 FB68     		ldr	r3, [r7, #12]
 6236 0038 93F87230 		ldrb	r3, [r3, #114]
 6237 003c DBB2     		uxtb	r3, r3
 6238              		.loc 1 2517 6
 6239 003e 222B     		cmp	r3, #34
 6240 0040 0DD1     		bne	.L310
2518:d:/LiteOS_Lab/drivers/third_party/ST/STM32L4xx_HAL_Driver/Src\stm32l4xx_hal_uart.c ****       &&(HAL_IS_BIT_SET(huart->Instance->CR3, USART_CR3_DMAR)) )
 6241              		.loc 1 2518 10
 6242 0042 FB68     		ldr	r3, [r7, #12]
 6243 0044 1B68     		ldr	r3, [r3]
 6244 0046 9B68     		ldr	r3, [r3, #8]
 6245 0048 03F04003 		and	r3, r3, #64
 6246              		.loc 1 2518 7
 6247 004c 402B     		cmp	r3, #64
 6248 004e 06D1     		bne	.L310
2519:d:/LiteOS_Lab/drivers/third_party/ST/STM32L4xx_HAL_Driver/Src\stm32l4xx_hal_uart.c ****   {
2520:d:/LiteOS_Lab/drivers/third_party/ST/STM32L4xx_HAL_Driver/Src\stm32l4xx_hal_uart.c ****     huart->RxXferCount = 0;
 6249              		.loc 1 2520 24
 6250 0050 FB68     		ldr	r3, [r7, #12]
 6251 0052 0022     		movs	r2, #0
 6252 0054 A3F85A20 		strh	r2, [r3, #90]	@ movhi
2521:d:/LiteOS_Lab/drivers/third_party/ST/STM32L4xx_HAL_Driver/Src\stm32l4xx_hal_uart.c ****     UART_EndRxTransfer(huart);
 6253              		.loc 1 2521 5
 6254 0058 F868     		ldr	r0, [r7, #12]
 6255 005a FFF7FEFF 		bl	UART_EndRxTransfer
 6256              	.L310:
2522:d:/LiteOS_Lab/drivers/third_party/ST/STM32L4xx_HAL_Driver/Src\stm32l4xx_hal_uart.c ****   }
2523:d:/LiteOS_Lab/drivers/third_party/ST/STM32L4xx_HAL_Driver/Src\stm32l4xx_hal_uart.c **** 
2524:d:/LiteOS_Lab/drivers/third_party/ST/STM32L4xx_HAL_Driver/Src\stm32l4xx_hal_uart.c ****   huart->ErrorCode |= HAL_UART_ERROR_DMA;
 6257              		.loc 1 2524 20
 6258 005e FB68     		ldr	r3, [r7, #12]
 6259 0060 5B6F     		ldr	r3, [r3, #116]
 6260 0062 43F01002 		orr	r2, r3, #16
 6261 0066 FB68     		ldr	r3, [r7, #12]
 6262 0068 5A67     		str	r2, [r3, #116]
2525:d:/LiteOS_Lab/drivers/third_party/ST/STM32L4xx_HAL_Driver/Src\stm32l4xx_hal_uart.c ****   HAL_UART_ErrorCallback(huart);
 6263              		.loc 1 2525 3
 6264 006a F868     		ldr	r0, [r7, #12]
 6265 006c FFF7FEFF 		bl	HAL_UART_ErrorCallback
2526:d:/LiteOS_Lab/drivers/third_party/ST/STM32L4xx_HAL_Driver/Src\stm32l4xx_hal_uart.c **** }
 6266              		.loc 1 2526 1
 6267 0070 00BF     		nop
 6268 0072 1037     		adds	r7, r7, #16
 6269              	.LCFI271:
 6270              		.cfi_def_cfa_offset 8
 6271 0074 BD46     		mov	sp, r7
 6272              	.LCFI272:
 6273              		.cfi_def_cfa_register 13
ARM GAS  C:\Users\ADMINI~1\AppData\Local\Temp\ccHDbRvY.s 			page 154


 6274              		@ sp needed
 6275 0076 80BD     		pop	{r7, pc}
 6276              		.cfi_endproc
 6277              	.LFE336:
 6279              		.section	.text.UART_DMAAbortOnError,"ax",%progbits
 6280              		.align	1
 6281              		.syntax unified
 6282              		.thumb
 6283              		.thumb_func
 6284              		.fpu fpv4-sp-d16
 6286              	UART_DMAAbortOnError:
 6287              	.LFB337:
2527:d:/LiteOS_Lab/drivers/third_party/ST/STM32L4xx_HAL_Driver/Src\stm32l4xx_hal_uart.c **** 
2528:d:/LiteOS_Lab/drivers/third_party/ST/STM32L4xx_HAL_Driver/Src\stm32l4xx_hal_uart.c **** /**
2529:d:/LiteOS_Lab/drivers/third_party/ST/STM32L4xx_HAL_Driver/Src\stm32l4xx_hal_uart.c ****   * @brief  DMA UART communication abort callback, when initiated by HAL services on Error
2530:d:/LiteOS_Lab/drivers/third_party/ST/STM32L4xx_HAL_Driver/Src\stm32l4xx_hal_uart.c ****   *         (To be called at end of DMA Abort procedure following error occurrence).
2531:d:/LiteOS_Lab/drivers/third_party/ST/STM32L4xx_HAL_Driver/Src\stm32l4xx_hal_uart.c ****   * @param  hdma DMA handle.
2532:d:/LiteOS_Lab/drivers/third_party/ST/STM32L4xx_HAL_Driver/Src\stm32l4xx_hal_uart.c ****   * @retval None
2533:d:/LiteOS_Lab/drivers/third_party/ST/STM32L4xx_HAL_Driver/Src\stm32l4xx_hal_uart.c ****   */
2534:d:/LiteOS_Lab/drivers/third_party/ST/STM32L4xx_HAL_Driver/Src\stm32l4xx_hal_uart.c **** static void UART_DMAAbortOnError(DMA_HandleTypeDef *hdma)
2535:d:/LiteOS_Lab/drivers/third_party/ST/STM32L4xx_HAL_Driver/Src\stm32l4xx_hal_uart.c **** {
 6288              		.loc 1 2535 1
 6289              		.cfi_startproc
 6290              		@ args = 0, pretend = 0, frame = 16
 6291              		@ frame_needed = 1, uses_anonymous_args = 0
 6292 0000 80B5     		push	{r7, lr}
 6293              	.LCFI273:
 6294              		.cfi_def_cfa_offset 8
 6295              		.cfi_offset 7, -8
 6296              		.cfi_offset 14, -4
 6297 0002 84B0     		sub	sp, sp, #16
 6298              	.LCFI274:
 6299              		.cfi_def_cfa_offset 24
 6300 0004 00AF     		add	r7, sp, #0
 6301              	.LCFI275:
 6302              		.cfi_def_cfa_register 7
 6303 0006 7860     		str	r0, [r7, #4]
2536:d:/LiteOS_Lab/drivers/third_party/ST/STM32L4xx_HAL_Driver/Src\stm32l4xx_hal_uart.c ****   UART_HandleTypeDef* huart = (UART_HandleTypeDef*)(hdma->Parent);
 6304              		.loc 1 2536 23
 6305 0008 7B68     		ldr	r3, [r7, #4]
 6306 000a 9B6A     		ldr	r3, [r3, #40]
 6307 000c FB60     		str	r3, [r7, #12]
2537:d:/LiteOS_Lab/drivers/third_party/ST/STM32L4xx_HAL_Driver/Src\stm32l4xx_hal_uart.c ****   huart->RxXferCount = 0;
 6308              		.loc 1 2537 22
 6309 000e FB68     		ldr	r3, [r7, #12]
 6310 0010 0022     		movs	r2, #0
 6311 0012 A3F85A20 		strh	r2, [r3, #90]	@ movhi
2538:d:/LiteOS_Lab/drivers/third_party/ST/STM32L4xx_HAL_Driver/Src\stm32l4xx_hal_uart.c ****   huart->TxXferCount = 0;
 6312              		.loc 1 2538 22
 6313 0016 FB68     		ldr	r3, [r7, #12]
 6314 0018 0022     		movs	r2, #0
 6315 001a A3F85220 		strh	r2, [r3, #82]	@ movhi
2539:d:/LiteOS_Lab/drivers/third_party/ST/STM32L4xx_HAL_Driver/Src\stm32l4xx_hal_uart.c **** 
2540:d:/LiteOS_Lab/drivers/third_party/ST/STM32L4xx_HAL_Driver/Src\stm32l4xx_hal_uart.c ****   HAL_UART_ErrorCallback(huart);
 6316              		.loc 1 2540 3
 6317 001e F868     		ldr	r0, [r7, #12]
 6318 0020 FFF7FEFF 		bl	HAL_UART_ErrorCallback
ARM GAS  C:\Users\ADMINI~1\AppData\Local\Temp\ccHDbRvY.s 			page 155


2541:d:/LiteOS_Lab/drivers/third_party/ST/STM32L4xx_HAL_Driver/Src\stm32l4xx_hal_uart.c **** }
 6319              		.loc 1 2541 1
 6320 0024 00BF     		nop
 6321 0026 1037     		adds	r7, r7, #16
 6322              	.LCFI276:
 6323              		.cfi_def_cfa_offset 8
 6324 0028 BD46     		mov	sp, r7
 6325              	.LCFI277:
 6326              		.cfi_def_cfa_register 13
 6327              		@ sp needed
 6328 002a 80BD     		pop	{r7, pc}
 6329              		.cfi_endproc
 6330              	.LFE337:
 6332              		.section	.text.UART_DMATxAbortCallback,"ax",%progbits
 6333              		.align	1
 6334              		.syntax unified
 6335              		.thumb
 6336              		.thumb_func
 6337              		.fpu fpv4-sp-d16
 6339              	UART_DMATxAbortCallback:
 6340              	.LFB338:
2542:d:/LiteOS_Lab/drivers/third_party/ST/STM32L4xx_HAL_Driver/Src\stm32l4xx_hal_uart.c **** 
2543:d:/LiteOS_Lab/drivers/third_party/ST/STM32L4xx_HAL_Driver/Src\stm32l4xx_hal_uart.c **** /**
2544:d:/LiteOS_Lab/drivers/third_party/ST/STM32L4xx_HAL_Driver/Src\stm32l4xx_hal_uart.c ****   * @brief  DMA UART Tx communication abort callback, when initiated by user
2545:d:/LiteOS_Lab/drivers/third_party/ST/STM32L4xx_HAL_Driver/Src\stm32l4xx_hal_uart.c ****   *         (To be called at end of DMA Tx Abort procedure following user abort request).
2546:d:/LiteOS_Lab/drivers/third_party/ST/STM32L4xx_HAL_Driver/Src\stm32l4xx_hal_uart.c ****   * @note   When this callback is executed, User Abort complete call back is called only if no
2547:d:/LiteOS_Lab/drivers/third_party/ST/STM32L4xx_HAL_Driver/Src\stm32l4xx_hal_uart.c ****   *         Abort still ongoing for Rx DMA Handle.
2548:d:/LiteOS_Lab/drivers/third_party/ST/STM32L4xx_HAL_Driver/Src\stm32l4xx_hal_uart.c ****   * @param  hdma DMA handle.
2549:d:/LiteOS_Lab/drivers/third_party/ST/STM32L4xx_HAL_Driver/Src\stm32l4xx_hal_uart.c ****   * @retval None
2550:d:/LiteOS_Lab/drivers/third_party/ST/STM32L4xx_HAL_Driver/Src\stm32l4xx_hal_uart.c ****   */
2551:d:/LiteOS_Lab/drivers/third_party/ST/STM32L4xx_HAL_Driver/Src\stm32l4xx_hal_uart.c **** static void UART_DMATxAbortCallback(DMA_HandleTypeDef *hdma)
2552:d:/LiteOS_Lab/drivers/third_party/ST/STM32L4xx_HAL_Driver/Src\stm32l4xx_hal_uart.c **** {
 6341              		.loc 1 2552 1
 6342              		.cfi_startproc
 6343              		@ args = 0, pretend = 0, frame = 16
 6344              		@ frame_needed = 1, uses_anonymous_args = 0
 6345 0000 80B5     		push	{r7, lr}
 6346              	.LCFI278:
 6347              		.cfi_def_cfa_offset 8
 6348              		.cfi_offset 7, -8
 6349              		.cfi_offset 14, -4
 6350 0002 84B0     		sub	sp, sp, #16
 6351              	.LCFI279:
 6352              		.cfi_def_cfa_offset 24
 6353 0004 00AF     		add	r7, sp, #0
 6354              	.LCFI280:
 6355              		.cfi_def_cfa_register 7
 6356 0006 7860     		str	r0, [r7, #4]
2553:d:/LiteOS_Lab/drivers/third_party/ST/STM32L4xx_HAL_Driver/Src\stm32l4xx_hal_uart.c ****   UART_HandleTypeDef* huart = (UART_HandleTypeDef* )(hdma->Parent);
 6357              		.loc 1 2553 23
 6358 0008 7B68     		ldr	r3, [r7, #4]
 6359 000a 9B6A     		ldr	r3, [r3, #40]
 6360 000c FB60     		str	r3, [r7, #12]
2554:d:/LiteOS_Lab/drivers/third_party/ST/STM32L4xx_HAL_Driver/Src\stm32l4xx_hal_uart.c ****   
2555:d:/LiteOS_Lab/drivers/third_party/ST/STM32L4xx_HAL_Driver/Src\stm32l4xx_hal_uart.c ****   huart->hdmatx->XferAbortCallback = NULL;
 6361              		.loc 1 2555 8
 6362 000e FB68     		ldr	r3, [r7, #12]
ARM GAS  C:\Users\ADMINI~1\AppData\Local\Temp\ccHDbRvY.s 			page 156


 6363 0010 9B6E     		ldr	r3, [r3, #104]
 6364              		.loc 1 2555 36
 6365 0012 0022     		movs	r2, #0
 6366 0014 9A63     		str	r2, [r3, #56]
2556:d:/LiteOS_Lab/drivers/third_party/ST/STM32L4xx_HAL_Driver/Src\stm32l4xx_hal_uart.c **** 
2557:d:/LiteOS_Lab/drivers/third_party/ST/STM32L4xx_HAL_Driver/Src\stm32l4xx_hal_uart.c ****   /* Check if an Abort process is still ongoing */
2558:d:/LiteOS_Lab/drivers/third_party/ST/STM32L4xx_HAL_Driver/Src\stm32l4xx_hal_uart.c ****   if(huart->hdmarx != NULL)
 6367              		.loc 1 2558 11
 6368 0016 FB68     		ldr	r3, [r7, #12]
 6369 0018 DB6E     		ldr	r3, [r3, #108]
 6370              		.loc 1 2558 5
 6371 001a 002B     		cmp	r3, #0
 6372 001c 04D0     		beq	.L313
2559:d:/LiteOS_Lab/drivers/third_party/ST/STM32L4xx_HAL_Driver/Src\stm32l4xx_hal_uart.c ****   {
2560:d:/LiteOS_Lab/drivers/third_party/ST/STM32L4xx_HAL_Driver/Src\stm32l4xx_hal_uart.c ****     if(huart->hdmarx->XferAbortCallback != NULL)
 6373              		.loc 1 2560 13
 6374 001e FB68     		ldr	r3, [r7, #12]
 6375 0020 DB6E     		ldr	r3, [r3, #108]
 6376              		.loc 1 2560 21
 6377 0022 9B6B     		ldr	r3, [r3, #56]
 6378              		.loc 1 2560 7
 6379 0024 002B     		cmp	r3, #0
 6380 0026 1AD1     		bne	.L315
 6381              	.L313:
2561:d:/LiteOS_Lab/drivers/third_party/ST/STM32L4xx_HAL_Driver/Src\stm32l4xx_hal_uart.c ****     {
2562:d:/LiteOS_Lab/drivers/third_party/ST/STM32L4xx_HAL_Driver/Src\stm32l4xx_hal_uart.c ****       return;
2563:d:/LiteOS_Lab/drivers/third_party/ST/STM32L4xx_HAL_Driver/Src\stm32l4xx_hal_uart.c ****     }
2564:d:/LiteOS_Lab/drivers/third_party/ST/STM32L4xx_HAL_Driver/Src\stm32l4xx_hal_uart.c ****   }
2565:d:/LiteOS_Lab/drivers/third_party/ST/STM32L4xx_HAL_Driver/Src\stm32l4xx_hal_uart.c ****   
2566:d:/LiteOS_Lab/drivers/third_party/ST/STM32L4xx_HAL_Driver/Src\stm32l4xx_hal_uart.c ****   /* No Abort process still ongoing : All DMA channels are aborted, call user Abort Complete callba
2567:d:/LiteOS_Lab/drivers/third_party/ST/STM32L4xx_HAL_Driver/Src\stm32l4xx_hal_uart.c ****   huart->TxXferCount = 0;
 6382              		.loc 1 2567 22
 6383 0028 FB68     		ldr	r3, [r7, #12]
 6384 002a 0022     		movs	r2, #0
 6385 002c A3F85220 		strh	r2, [r3, #82]	@ movhi
2568:d:/LiteOS_Lab/drivers/third_party/ST/STM32L4xx_HAL_Driver/Src\stm32l4xx_hal_uart.c ****   huart->RxXferCount = 0;
 6386              		.loc 1 2568 22
 6387 0030 FB68     		ldr	r3, [r7, #12]
 6388 0032 0022     		movs	r2, #0
 6389 0034 A3F85A20 		strh	r2, [r3, #90]	@ movhi
2569:d:/LiteOS_Lab/drivers/third_party/ST/STM32L4xx_HAL_Driver/Src\stm32l4xx_hal_uart.c **** 
2570:d:/LiteOS_Lab/drivers/third_party/ST/STM32L4xx_HAL_Driver/Src\stm32l4xx_hal_uart.c ****   /* Reset errorCode */
2571:d:/LiteOS_Lab/drivers/third_party/ST/STM32L4xx_HAL_Driver/Src\stm32l4xx_hal_uart.c ****   huart->ErrorCode = HAL_UART_ERROR_NONE;
 6390              		.loc 1 2571 20
 6391 0038 FB68     		ldr	r3, [r7, #12]
 6392 003a 0022     		movs	r2, #0
 6393 003c 5A67     		str	r2, [r3, #116]
2572:d:/LiteOS_Lab/drivers/third_party/ST/STM32L4xx_HAL_Driver/Src\stm32l4xx_hal_uart.c **** 
2573:d:/LiteOS_Lab/drivers/third_party/ST/STM32L4xx_HAL_Driver/Src\stm32l4xx_hal_uart.c ****   /* Clear the Error flags in the ICR register */
2574:d:/LiteOS_Lab/drivers/third_party/ST/STM32L4xx_HAL_Driver/Src\stm32l4xx_hal_uart.c ****   __HAL_UART_CLEAR_FLAG(huart, UART_CLEAR_OREF | UART_CLEAR_NEF | UART_CLEAR_PEF | UART_CLEAR_FEF);
 6394              		.loc 1 2574 3
 6395 003e FB68     		ldr	r3, [r7, #12]
 6396 0040 1B68     		ldr	r3, [r3]
 6397 0042 0F22     		movs	r2, #15
 6398 0044 1A62     		str	r2, [r3, #32]
2575:d:/LiteOS_Lab/drivers/third_party/ST/STM32L4xx_HAL_Driver/Src\stm32l4xx_hal_uart.c **** 
2576:d:/LiteOS_Lab/drivers/third_party/ST/STM32L4xx_HAL_Driver/Src\stm32l4xx_hal_uart.c ****   /* Restore huart->gState and huart->RxState to Ready */
ARM GAS  C:\Users\ADMINI~1\AppData\Local\Temp\ccHDbRvY.s 			page 157


2577:d:/LiteOS_Lab/drivers/third_party/ST/STM32L4xx_HAL_Driver/Src\stm32l4xx_hal_uart.c ****   huart->gState  = HAL_UART_STATE_READY;
 6399              		.loc 1 2577 18
 6400 0046 FB68     		ldr	r3, [r7, #12]
 6401 0048 2022     		movs	r2, #32
 6402 004a 83F87120 		strb	r2, [r3, #113]
2578:d:/LiteOS_Lab/drivers/third_party/ST/STM32L4xx_HAL_Driver/Src\stm32l4xx_hal_uart.c ****   huart->RxState = HAL_UART_STATE_READY;
 6403              		.loc 1 2578 18
 6404 004e FB68     		ldr	r3, [r7, #12]
 6405 0050 2022     		movs	r2, #32
 6406 0052 83F87220 		strb	r2, [r3, #114]
2579:d:/LiteOS_Lab/drivers/third_party/ST/STM32L4xx_HAL_Driver/Src\stm32l4xx_hal_uart.c **** 
2580:d:/LiteOS_Lab/drivers/third_party/ST/STM32L4xx_HAL_Driver/Src\stm32l4xx_hal_uart.c ****   /* Call user Abort complete callback */
2581:d:/LiteOS_Lab/drivers/third_party/ST/STM32L4xx_HAL_Driver/Src\stm32l4xx_hal_uart.c ****   HAL_UART_AbortCpltCallback(huart);
 6407              		.loc 1 2581 3
 6408 0056 F868     		ldr	r0, [r7, #12]
 6409 0058 FFF7FEFF 		bl	HAL_UART_AbortCpltCallback
 6410 005c 00E0     		b	.L312
 6411              	.L315:
2562:d:/LiteOS_Lab/drivers/third_party/ST/STM32L4xx_HAL_Driver/Src\stm32l4xx_hal_uart.c ****     }
 6412              		.loc 1 2562 7
 6413 005e 00BF     		nop
 6414              	.L312:
2582:d:/LiteOS_Lab/drivers/third_party/ST/STM32L4xx_HAL_Driver/Src\stm32l4xx_hal_uart.c **** }
 6415              		.loc 1 2582 1
 6416 0060 1037     		adds	r7, r7, #16
 6417              	.LCFI281:
 6418              		.cfi_def_cfa_offset 8
 6419 0062 BD46     		mov	sp, r7
 6420              	.LCFI282:
 6421              		.cfi_def_cfa_register 13
 6422              		@ sp needed
 6423 0064 80BD     		pop	{r7, pc}
 6424              		.cfi_endproc
 6425              	.LFE338:
 6427              		.section	.text.UART_DMARxAbortCallback,"ax",%progbits
 6428              		.align	1
 6429              		.syntax unified
 6430              		.thumb
 6431              		.thumb_func
 6432              		.fpu fpv4-sp-d16
 6434              	UART_DMARxAbortCallback:
 6435              	.LFB339:
2583:d:/LiteOS_Lab/drivers/third_party/ST/STM32L4xx_HAL_Driver/Src\stm32l4xx_hal_uart.c **** 
2584:d:/LiteOS_Lab/drivers/third_party/ST/STM32L4xx_HAL_Driver/Src\stm32l4xx_hal_uart.c **** 
2585:d:/LiteOS_Lab/drivers/third_party/ST/STM32L4xx_HAL_Driver/Src\stm32l4xx_hal_uart.c **** /**
2586:d:/LiteOS_Lab/drivers/third_party/ST/STM32L4xx_HAL_Driver/Src\stm32l4xx_hal_uart.c ****   * @brief  DMA UART Rx communication abort callback, when initiated by user
2587:d:/LiteOS_Lab/drivers/third_party/ST/STM32L4xx_HAL_Driver/Src\stm32l4xx_hal_uart.c ****   *         (To be called at end of DMA Rx Abort procedure following user abort request).
2588:d:/LiteOS_Lab/drivers/third_party/ST/STM32L4xx_HAL_Driver/Src\stm32l4xx_hal_uart.c ****   * @note   When this callback is executed, User Abort complete call back is called only if no
2589:d:/LiteOS_Lab/drivers/third_party/ST/STM32L4xx_HAL_Driver/Src\stm32l4xx_hal_uart.c ****   *         Abort still ongoing for Tx DMA Handle.
2590:d:/LiteOS_Lab/drivers/third_party/ST/STM32L4xx_HAL_Driver/Src\stm32l4xx_hal_uart.c ****   * @param  hdma DMA handle.
2591:d:/LiteOS_Lab/drivers/third_party/ST/STM32L4xx_HAL_Driver/Src\stm32l4xx_hal_uart.c ****   * @retval None
2592:d:/LiteOS_Lab/drivers/third_party/ST/STM32L4xx_HAL_Driver/Src\stm32l4xx_hal_uart.c ****   */
2593:d:/LiteOS_Lab/drivers/third_party/ST/STM32L4xx_HAL_Driver/Src\stm32l4xx_hal_uart.c **** static void UART_DMARxAbortCallback(DMA_HandleTypeDef *hdma)
2594:d:/LiteOS_Lab/drivers/third_party/ST/STM32L4xx_HAL_Driver/Src\stm32l4xx_hal_uart.c **** {
 6436              		.loc 1 2594 1
 6437              		.cfi_startproc
 6438              		@ args = 0, pretend = 0, frame = 16
ARM GAS  C:\Users\ADMINI~1\AppData\Local\Temp\ccHDbRvY.s 			page 158


 6439              		@ frame_needed = 1, uses_anonymous_args = 0
 6440 0000 80B5     		push	{r7, lr}
 6441              	.LCFI283:
 6442              		.cfi_def_cfa_offset 8
 6443              		.cfi_offset 7, -8
 6444              		.cfi_offset 14, -4
 6445 0002 84B0     		sub	sp, sp, #16
 6446              	.LCFI284:
 6447              		.cfi_def_cfa_offset 24
 6448 0004 00AF     		add	r7, sp, #0
 6449              	.LCFI285:
 6450              		.cfi_def_cfa_register 7
 6451 0006 7860     		str	r0, [r7, #4]
2595:d:/LiteOS_Lab/drivers/third_party/ST/STM32L4xx_HAL_Driver/Src\stm32l4xx_hal_uart.c ****   UART_HandleTypeDef* huart = (UART_HandleTypeDef* )(hdma->Parent);
 6452              		.loc 1 2595 23
 6453 0008 7B68     		ldr	r3, [r7, #4]
 6454 000a 9B6A     		ldr	r3, [r3, #40]
 6455 000c FB60     		str	r3, [r7, #12]
2596:d:/LiteOS_Lab/drivers/third_party/ST/STM32L4xx_HAL_Driver/Src\stm32l4xx_hal_uart.c ****   
2597:d:/LiteOS_Lab/drivers/third_party/ST/STM32L4xx_HAL_Driver/Src\stm32l4xx_hal_uart.c ****   huart->hdmarx->XferAbortCallback = NULL;
 6456              		.loc 1 2597 8
 6457 000e FB68     		ldr	r3, [r7, #12]
 6458 0010 DB6E     		ldr	r3, [r3, #108]
 6459              		.loc 1 2597 36
 6460 0012 0022     		movs	r2, #0
 6461 0014 9A63     		str	r2, [r3, #56]
2598:d:/LiteOS_Lab/drivers/third_party/ST/STM32L4xx_HAL_Driver/Src\stm32l4xx_hal_uart.c **** 
2599:d:/LiteOS_Lab/drivers/third_party/ST/STM32L4xx_HAL_Driver/Src\stm32l4xx_hal_uart.c ****   /* Check if an Abort process is still ongoing */
2600:d:/LiteOS_Lab/drivers/third_party/ST/STM32L4xx_HAL_Driver/Src\stm32l4xx_hal_uart.c ****   if(huart->hdmatx != NULL)
 6462              		.loc 1 2600 11
 6463 0016 FB68     		ldr	r3, [r7, #12]
 6464 0018 9B6E     		ldr	r3, [r3, #104]
 6465              		.loc 1 2600 5
 6466 001a 002B     		cmp	r3, #0
 6467 001c 04D0     		beq	.L317
2601:d:/LiteOS_Lab/drivers/third_party/ST/STM32L4xx_HAL_Driver/Src\stm32l4xx_hal_uart.c ****   {
2602:d:/LiteOS_Lab/drivers/third_party/ST/STM32L4xx_HAL_Driver/Src\stm32l4xx_hal_uart.c ****     if(huart->hdmatx->XferAbortCallback != NULL)
 6468              		.loc 1 2602 13
 6469 001e FB68     		ldr	r3, [r7, #12]
 6470 0020 9B6E     		ldr	r3, [r3, #104]
 6471              		.loc 1 2602 21
 6472 0022 9B6B     		ldr	r3, [r3, #56]
 6473              		.loc 1 2602 7
 6474 0024 002B     		cmp	r3, #0
 6475 0026 1AD1     		bne	.L319
 6476              	.L317:
2603:d:/LiteOS_Lab/drivers/third_party/ST/STM32L4xx_HAL_Driver/Src\stm32l4xx_hal_uart.c ****     {
2604:d:/LiteOS_Lab/drivers/third_party/ST/STM32L4xx_HAL_Driver/Src\stm32l4xx_hal_uart.c ****       return;
2605:d:/LiteOS_Lab/drivers/third_party/ST/STM32L4xx_HAL_Driver/Src\stm32l4xx_hal_uart.c ****     }
2606:d:/LiteOS_Lab/drivers/third_party/ST/STM32L4xx_HAL_Driver/Src\stm32l4xx_hal_uart.c ****   }
2607:d:/LiteOS_Lab/drivers/third_party/ST/STM32L4xx_HAL_Driver/Src\stm32l4xx_hal_uart.c ****   
2608:d:/LiteOS_Lab/drivers/third_party/ST/STM32L4xx_HAL_Driver/Src\stm32l4xx_hal_uart.c ****   /* No Abort process still ongoing : All DMA channels are aborted, call user Abort Complete callba
2609:d:/LiteOS_Lab/drivers/third_party/ST/STM32L4xx_HAL_Driver/Src\stm32l4xx_hal_uart.c ****   huart->TxXferCount = 0;
 6477              		.loc 1 2609 22
 6478 0028 FB68     		ldr	r3, [r7, #12]
 6479 002a 0022     		movs	r2, #0
 6480 002c A3F85220 		strh	r2, [r3, #82]	@ movhi
ARM GAS  C:\Users\ADMINI~1\AppData\Local\Temp\ccHDbRvY.s 			page 159


2610:d:/LiteOS_Lab/drivers/third_party/ST/STM32L4xx_HAL_Driver/Src\stm32l4xx_hal_uart.c ****   huart->RxXferCount = 0;
 6481              		.loc 1 2610 22
 6482 0030 FB68     		ldr	r3, [r7, #12]
 6483 0032 0022     		movs	r2, #0
 6484 0034 A3F85A20 		strh	r2, [r3, #90]	@ movhi
2611:d:/LiteOS_Lab/drivers/third_party/ST/STM32L4xx_HAL_Driver/Src\stm32l4xx_hal_uart.c **** 
2612:d:/LiteOS_Lab/drivers/third_party/ST/STM32L4xx_HAL_Driver/Src\stm32l4xx_hal_uart.c ****   /* Reset errorCode */
2613:d:/LiteOS_Lab/drivers/third_party/ST/STM32L4xx_HAL_Driver/Src\stm32l4xx_hal_uart.c ****   huart->ErrorCode = HAL_UART_ERROR_NONE;
 6485              		.loc 1 2613 20
 6486 0038 FB68     		ldr	r3, [r7, #12]
 6487 003a 0022     		movs	r2, #0
 6488 003c 5A67     		str	r2, [r3, #116]
2614:d:/LiteOS_Lab/drivers/third_party/ST/STM32L4xx_HAL_Driver/Src\stm32l4xx_hal_uart.c **** 
2615:d:/LiteOS_Lab/drivers/third_party/ST/STM32L4xx_HAL_Driver/Src\stm32l4xx_hal_uart.c ****   /* Clear the Error flags in the ICR register */
2616:d:/LiteOS_Lab/drivers/third_party/ST/STM32L4xx_HAL_Driver/Src\stm32l4xx_hal_uart.c ****   __HAL_UART_CLEAR_FLAG(huart, UART_CLEAR_OREF | UART_CLEAR_NEF | UART_CLEAR_PEF | UART_CLEAR_FEF);
 6489              		.loc 1 2616 3
 6490 003e FB68     		ldr	r3, [r7, #12]
 6491 0040 1B68     		ldr	r3, [r3]
 6492 0042 0F22     		movs	r2, #15
 6493 0044 1A62     		str	r2, [r3, #32]
2617:d:/LiteOS_Lab/drivers/third_party/ST/STM32L4xx_HAL_Driver/Src\stm32l4xx_hal_uart.c **** 
2618:d:/LiteOS_Lab/drivers/third_party/ST/STM32L4xx_HAL_Driver/Src\stm32l4xx_hal_uart.c ****   /* Restore huart->gState and huart->RxState to Ready */
2619:d:/LiteOS_Lab/drivers/third_party/ST/STM32L4xx_HAL_Driver/Src\stm32l4xx_hal_uart.c ****   huart->gState  = HAL_UART_STATE_READY;
 6494              		.loc 1 2619 18
 6495 0046 FB68     		ldr	r3, [r7, #12]
 6496 0048 2022     		movs	r2, #32
 6497 004a 83F87120 		strb	r2, [r3, #113]
2620:d:/LiteOS_Lab/drivers/third_party/ST/STM32L4xx_HAL_Driver/Src\stm32l4xx_hal_uart.c ****   huart->RxState = HAL_UART_STATE_READY;
 6498              		.loc 1 2620 18
 6499 004e FB68     		ldr	r3, [r7, #12]
 6500 0050 2022     		movs	r2, #32
 6501 0052 83F87220 		strb	r2, [r3, #114]
2621:d:/LiteOS_Lab/drivers/third_party/ST/STM32L4xx_HAL_Driver/Src\stm32l4xx_hal_uart.c **** 
2622:d:/LiteOS_Lab/drivers/third_party/ST/STM32L4xx_HAL_Driver/Src\stm32l4xx_hal_uart.c ****   /* Call user Abort complete callback */
2623:d:/LiteOS_Lab/drivers/third_party/ST/STM32L4xx_HAL_Driver/Src\stm32l4xx_hal_uart.c ****   HAL_UART_AbortCpltCallback(huart);
 6502              		.loc 1 2623 3
 6503 0056 F868     		ldr	r0, [r7, #12]
 6504 0058 FFF7FEFF 		bl	HAL_UART_AbortCpltCallback
 6505 005c 00E0     		b	.L316
 6506              	.L319:
2604:d:/LiteOS_Lab/drivers/third_party/ST/STM32L4xx_HAL_Driver/Src\stm32l4xx_hal_uart.c ****     }
 6507              		.loc 1 2604 7
 6508 005e 00BF     		nop
 6509              	.L316:
2624:d:/LiteOS_Lab/drivers/third_party/ST/STM32L4xx_HAL_Driver/Src\stm32l4xx_hal_uart.c **** }
 6510              		.loc 1 2624 1
 6511 0060 1037     		adds	r7, r7, #16
 6512              	.LCFI286:
 6513              		.cfi_def_cfa_offset 8
 6514 0062 BD46     		mov	sp, r7
 6515              	.LCFI287:
 6516              		.cfi_def_cfa_register 13
 6517              		@ sp needed
 6518 0064 80BD     		pop	{r7, pc}
 6519              		.cfi_endproc
 6520              	.LFE339:
 6522              		.section	.text.UART_DMATxOnlyAbortCallback,"ax",%progbits
ARM GAS  C:\Users\ADMINI~1\AppData\Local\Temp\ccHDbRvY.s 			page 160


 6523              		.align	1
 6524              		.syntax unified
 6525              		.thumb
 6526              		.thumb_func
 6527              		.fpu fpv4-sp-d16
 6529              	UART_DMATxOnlyAbortCallback:
 6530              	.LFB340:
2625:d:/LiteOS_Lab/drivers/third_party/ST/STM32L4xx_HAL_Driver/Src\stm32l4xx_hal_uart.c **** 
2626:d:/LiteOS_Lab/drivers/third_party/ST/STM32L4xx_HAL_Driver/Src\stm32l4xx_hal_uart.c **** 
2627:d:/LiteOS_Lab/drivers/third_party/ST/STM32L4xx_HAL_Driver/Src\stm32l4xx_hal_uart.c **** /**
2628:d:/LiteOS_Lab/drivers/third_party/ST/STM32L4xx_HAL_Driver/Src\stm32l4xx_hal_uart.c ****   * @brief  DMA UART Tx communication abort callback, when initiated by user by a call to
2629:d:/LiteOS_Lab/drivers/third_party/ST/STM32L4xx_HAL_Driver/Src\stm32l4xx_hal_uart.c ****   *         HAL_UART_AbortTransmit_IT API (Abort only Tx transfer)
2630:d:/LiteOS_Lab/drivers/third_party/ST/STM32L4xx_HAL_Driver/Src\stm32l4xx_hal_uart.c ****   *         (This callback is executed at end of DMA Tx Abort procedure following user abort reques
2631:d:/LiteOS_Lab/drivers/third_party/ST/STM32L4xx_HAL_Driver/Src\stm32l4xx_hal_uart.c ****   *         and leads to user Tx Abort Complete callback execution).
2632:d:/LiteOS_Lab/drivers/third_party/ST/STM32L4xx_HAL_Driver/Src\stm32l4xx_hal_uart.c ****   * @param  hdma DMA handle.
2633:d:/LiteOS_Lab/drivers/third_party/ST/STM32L4xx_HAL_Driver/Src\stm32l4xx_hal_uart.c ****   * @retval None
2634:d:/LiteOS_Lab/drivers/third_party/ST/STM32L4xx_HAL_Driver/Src\stm32l4xx_hal_uart.c ****   */
2635:d:/LiteOS_Lab/drivers/third_party/ST/STM32L4xx_HAL_Driver/Src\stm32l4xx_hal_uart.c **** static void UART_DMATxOnlyAbortCallback(DMA_HandleTypeDef *hdma)
2636:d:/LiteOS_Lab/drivers/third_party/ST/STM32L4xx_HAL_Driver/Src\stm32l4xx_hal_uart.c **** {
 6531              		.loc 1 2636 1
 6532              		.cfi_startproc
 6533              		@ args = 0, pretend = 0, frame = 16
 6534              		@ frame_needed = 1, uses_anonymous_args = 0
 6535 0000 80B5     		push	{r7, lr}
 6536              	.LCFI288:
 6537              		.cfi_def_cfa_offset 8
 6538              		.cfi_offset 7, -8
 6539              		.cfi_offset 14, -4
 6540 0002 84B0     		sub	sp, sp, #16
 6541              	.LCFI289:
 6542              		.cfi_def_cfa_offset 24
 6543 0004 00AF     		add	r7, sp, #0
 6544              	.LCFI290:
 6545              		.cfi_def_cfa_register 7
 6546 0006 7860     		str	r0, [r7, #4]
2637:d:/LiteOS_Lab/drivers/third_party/ST/STM32L4xx_HAL_Driver/Src\stm32l4xx_hal_uart.c ****   UART_HandleTypeDef* huart = (UART_HandleTypeDef*)(hdma->Parent);
 6547              		.loc 1 2637 23
 6548 0008 7B68     		ldr	r3, [r7, #4]
 6549 000a 9B6A     		ldr	r3, [r3, #40]
 6550 000c FB60     		str	r3, [r7, #12]
2638:d:/LiteOS_Lab/drivers/third_party/ST/STM32L4xx_HAL_Driver/Src\stm32l4xx_hal_uart.c **** 
2639:d:/LiteOS_Lab/drivers/third_party/ST/STM32L4xx_HAL_Driver/Src\stm32l4xx_hal_uart.c ****   huart->TxXferCount = 0;
 6551              		.loc 1 2639 22
 6552 000e FB68     		ldr	r3, [r7, #12]
 6553 0010 0022     		movs	r2, #0
 6554 0012 A3F85220 		strh	r2, [r3, #82]	@ movhi
2640:d:/LiteOS_Lab/drivers/third_party/ST/STM32L4xx_HAL_Driver/Src\stm32l4xx_hal_uart.c **** 
2641:d:/LiteOS_Lab/drivers/third_party/ST/STM32L4xx_HAL_Driver/Src\stm32l4xx_hal_uart.c ****   /* Restore huart->gState to Ready */
2642:d:/LiteOS_Lab/drivers/third_party/ST/STM32L4xx_HAL_Driver/Src\stm32l4xx_hal_uart.c ****   huart->gState = HAL_UART_STATE_READY;
 6555              		.loc 1 2642 17
 6556 0016 FB68     		ldr	r3, [r7, #12]
 6557 0018 2022     		movs	r2, #32
 6558 001a 83F87120 		strb	r2, [r3, #113]
2643:d:/LiteOS_Lab/drivers/third_party/ST/STM32L4xx_HAL_Driver/Src\stm32l4xx_hal_uart.c **** 
2644:d:/LiteOS_Lab/drivers/third_party/ST/STM32L4xx_HAL_Driver/Src\stm32l4xx_hal_uart.c ****   /* Call user Abort complete callback */
2645:d:/LiteOS_Lab/drivers/third_party/ST/STM32L4xx_HAL_Driver/Src\stm32l4xx_hal_uart.c ****   HAL_UART_AbortTransmitCpltCallback(huart);
 6559              		.loc 1 2645 3
ARM GAS  C:\Users\ADMINI~1\AppData\Local\Temp\ccHDbRvY.s 			page 161


 6560 001e F868     		ldr	r0, [r7, #12]
 6561 0020 FFF7FEFF 		bl	HAL_UART_AbortTransmitCpltCallback
2646:d:/LiteOS_Lab/drivers/third_party/ST/STM32L4xx_HAL_Driver/Src\stm32l4xx_hal_uart.c **** }
 6562              		.loc 1 2646 1
 6563 0024 00BF     		nop
 6564 0026 1037     		adds	r7, r7, #16
 6565              	.LCFI291:
 6566              		.cfi_def_cfa_offset 8
 6567 0028 BD46     		mov	sp, r7
 6568              	.LCFI292:
 6569              		.cfi_def_cfa_register 13
 6570              		@ sp needed
 6571 002a 80BD     		pop	{r7, pc}
 6572              		.cfi_endproc
 6573              	.LFE340:
 6575              		.section	.text.UART_DMARxOnlyAbortCallback,"ax",%progbits
 6576              		.align	1
 6577              		.syntax unified
 6578              		.thumb
 6579              		.thumb_func
 6580              		.fpu fpv4-sp-d16
 6582              	UART_DMARxOnlyAbortCallback:
 6583              	.LFB341:
2647:d:/LiteOS_Lab/drivers/third_party/ST/STM32L4xx_HAL_Driver/Src\stm32l4xx_hal_uart.c **** 
2648:d:/LiteOS_Lab/drivers/third_party/ST/STM32L4xx_HAL_Driver/Src\stm32l4xx_hal_uart.c **** /**
2649:d:/LiteOS_Lab/drivers/third_party/ST/STM32L4xx_HAL_Driver/Src\stm32l4xx_hal_uart.c ****   * @brief  DMA UART Rx communication abort callback, when initiated by user by a call to
2650:d:/LiteOS_Lab/drivers/third_party/ST/STM32L4xx_HAL_Driver/Src\stm32l4xx_hal_uart.c ****   *         HAL_UART_AbortReceive_IT API (Abort only Rx transfer)
2651:d:/LiteOS_Lab/drivers/third_party/ST/STM32L4xx_HAL_Driver/Src\stm32l4xx_hal_uart.c ****   *         (This callback is executed at end of DMA Rx Abort procedure following user abort reques
2652:d:/LiteOS_Lab/drivers/third_party/ST/STM32L4xx_HAL_Driver/Src\stm32l4xx_hal_uart.c ****   *         and leads to user Rx Abort Complete callback execution).
2653:d:/LiteOS_Lab/drivers/third_party/ST/STM32L4xx_HAL_Driver/Src\stm32l4xx_hal_uart.c ****   * @param  hdma DMA handle.
2654:d:/LiteOS_Lab/drivers/third_party/ST/STM32L4xx_HAL_Driver/Src\stm32l4xx_hal_uart.c ****   * @retval None
2655:d:/LiteOS_Lab/drivers/third_party/ST/STM32L4xx_HAL_Driver/Src\stm32l4xx_hal_uart.c ****   */
2656:d:/LiteOS_Lab/drivers/third_party/ST/STM32L4xx_HAL_Driver/Src\stm32l4xx_hal_uart.c **** static void UART_DMARxOnlyAbortCallback(DMA_HandleTypeDef *hdma)
2657:d:/LiteOS_Lab/drivers/third_party/ST/STM32L4xx_HAL_Driver/Src\stm32l4xx_hal_uart.c **** {
 6584              		.loc 1 2657 1
 6585              		.cfi_startproc
 6586              		@ args = 0, pretend = 0, frame = 16
 6587              		@ frame_needed = 1, uses_anonymous_args = 0
 6588 0000 80B5     		push	{r7, lr}
 6589              	.LCFI293:
 6590              		.cfi_def_cfa_offset 8
 6591              		.cfi_offset 7, -8
 6592              		.cfi_offset 14, -4
 6593 0002 84B0     		sub	sp, sp, #16
 6594              	.LCFI294:
 6595              		.cfi_def_cfa_offset 24
 6596 0004 00AF     		add	r7, sp, #0
 6597              	.LCFI295:
 6598              		.cfi_def_cfa_register 7
 6599 0006 7860     		str	r0, [r7, #4]
2658:d:/LiteOS_Lab/drivers/third_party/ST/STM32L4xx_HAL_Driver/Src\stm32l4xx_hal_uart.c ****   UART_HandleTypeDef* huart = ( UART_HandleTypeDef* )((DMA_HandleTypeDef* )hdma)->Parent;
 6600              		.loc 1 2658 23
 6601 0008 7B68     		ldr	r3, [r7, #4]
 6602 000a 9B6A     		ldr	r3, [r3, #40]
 6603 000c FB60     		str	r3, [r7, #12]
2659:d:/LiteOS_Lab/drivers/third_party/ST/STM32L4xx_HAL_Driver/Src\stm32l4xx_hal_uart.c **** 
2660:d:/LiteOS_Lab/drivers/third_party/ST/STM32L4xx_HAL_Driver/Src\stm32l4xx_hal_uart.c ****   huart->RxXferCount = 0;
ARM GAS  C:\Users\ADMINI~1\AppData\Local\Temp\ccHDbRvY.s 			page 162


 6604              		.loc 1 2660 22
 6605 000e FB68     		ldr	r3, [r7, #12]
 6606 0010 0022     		movs	r2, #0
 6607 0012 A3F85A20 		strh	r2, [r3, #90]	@ movhi
2661:d:/LiteOS_Lab/drivers/third_party/ST/STM32L4xx_HAL_Driver/Src\stm32l4xx_hal_uart.c **** 
2662:d:/LiteOS_Lab/drivers/third_party/ST/STM32L4xx_HAL_Driver/Src\stm32l4xx_hal_uart.c ****   /* Clear the Error flags in the ICR register */
2663:d:/LiteOS_Lab/drivers/third_party/ST/STM32L4xx_HAL_Driver/Src\stm32l4xx_hal_uart.c ****   __HAL_UART_CLEAR_FLAG(huart, UART_CLEAR_OREF | UART_CLEAR_NEF | UART_CLEAR_PEF | UART_CLEAR_FEF);
 6608              		.loc 1 2663 3
 6609 0016 FB68     		ldr	r3, [r7, #12]
 6610 0018 1B68     		ldr	r3, [r3]
 6611 001a 0F22     		movs	r2, #15
 6612 001c 1A62     		str	r2, [r3, #32]
2664:d:/LiteOS_Lab/drivers/third_party/ST/STM32L4xx_HAL_Driver/Src\stm32l4xx_hal_uart.c **** 
2665:d:/LiteOS_Lab/drivers/third_party/ST/STM32L4xx_HAL_Driver/Src\stm32l4xx_hal_uart.c ****   /* Restore huart->RxState to Ready */
2666:d:/LiteOS_Lab/drivers/third_party/ST/STM32L4xx_HAL_Driver/Src\stm32l4xx_hal_uart.c ****   huart->RxState = HAL_UART_STATE_READY;
 6613              		.loc 1 2666 18
 6614 001e FB68     		ldr	r3, [r7, #12]
 6615 0020 2022     		movs	r2, #32
 6616 0022 83F87220 		strb	r2, [r3, #114]
2667:d:/LiteOS_Lab/drivers/third_party/ST/STM32L4xx_HAL_Driver/Src\stm32l4xx_hal_uart.c **** 
2668:d:/LiteOS_Lab/drivers/third_party/ST/STM32L4xx_HAL_Driver/Src\stm32l4xx_hal_uart.c ****   /* Call user Abort complete callback */
2669:d:/LiteOS_Lab/drivers/third_party/ST/STM32L4xx_HAL_Driver/Src\stm32l4xx_hal_uart.c ****   HAL_UART_AbortReceiveCpltCallback(huart);
 6617              		.loc 1 2669 3
 6618 0026 F868     		ldr	r0, [r7, #12]
 6619 0028 FFF7FEFF 		bl	HAL_UART_AbortReceiveCpltCallback
2670:d:/LiteOS_Lab/drivers/third_party/ST/STM32L4xx_HAL_Driver/Src\stm32l4xx_hal_uart.c **** }
 6620              		.loc 1 2670 1
 6621 002c 00BF     		nop
 6622 002e 1037     		adds	r7, r7, #16
 6623              	.LCFI296:
 6624              		.cfi_def_cfa_offset 8
 6625 0030 BD46     		mov	sp, r7
 6626              	.LCFI297:
 6627              		.cfi_def_cfa_register 13
 6628              		@ sp needed
 6629 0032 80BD     		pop	{r7, pc}
 6630              		.cfi_endproc
 6631              	.LFE341:
 6633              		.section	.text.UART_Transmit_IT,"ax",%progbits
 6634              		.align	1
 6635              		.global	UART_Transmit_IT
 6636              		.syntax unified
 6637              		.thumb
 6638              		.thumb_func
 6639              		.fpu fpv4-sp-d16
 6641              	UART_Transmit_IT:
 6642              	.LFB342:
2671:d:/LiteOS_Lab/drivers/third_party/ST/STM32L4xx_HAL_Driver/Src\stm32l4xx_hal_uart.c **** 
2672:d:/LiteOS_Lab/drivers/third_party/ST/STM32L4xx_HAL_Driver/Src\stm32l4xx_hal_uart.c **** /**
2673:d:/LiteOS_Lab/drivers/third_party/ST/STM32L4xx_HAL_Driver/Src\stm32l4xx_hal_uart.c ****   * @brief  Send an amount of data in interrupt mode.
2674:d:/LiteOS_Lab/drivers/third_party/ST/STM32L4xx_HAL_Driver/Src\stm32l4xx_hal_uart.c ****   * @note   Function is called under interruption only, once
2675:d:/LiteOS_Lab/drivers/third_party/ST/STM32L4xx_HAL_Driver/Src\stm32l4xx_hal_uart.c ****   *         interruptions have been enabled by HAL_UART_Transmit_IT().
2676:d:/LiteOS_Lab/drivers/third_party/ST/STM32L4xx_HAL_Driver/Src\stm32l4xx_hal_uart.c ****   * @param  huart UART handle.
2677:d:/LiteOS_Lab/drivers/third_party/ST/STM32L4xx_HAL_Driver/Src\stm32l4xx_hal_uart.c ****   * @retval HAL status
2678:d:/LiteOS_Lab/drivers/third_party/ST/STM32L4xx_HAL_Driver/Src\stm32l4xx_hal_uart.c ****   */
2679:d:/LiteOS_Lab/drivers/third_party/ST/STM32L4xx_HAL_Driver/Src\stm32l4xx_hal_uart.c **** HAL_StatusTypeDef UART_Transmit_IT(UART_HandleTypeDef *huart)
2680:d:/LiteOS_Lab/drivers/third_party/ST/STM32L4xx_HAL_Driver/Src\stm32l4xx_hal_uart.c **** {
ARM GAS  C:\Users\ADMINI~1\AppData\Local\Temp\ccHDbRvY.s 			page 163


 6643              		.loc 1 2680 1
 6644              		.cfi_startproc
 6645              		@ args = 0, pretend = 0, frame = 16
 6646              		@ frame_needed = 1, uses_anonymous_args = 0
 6647              		@ link register save eliminated.
 6648 0000 80B4     		push	{r7}
 6649              	.LCFI298:
 6650              		.cfi_def_cfa_offset 4
 6651              		.cfi_offset 7, -4
 6652 0002 85B0     		sub	sp, sp, #20
 6653              	.LCFI299:
 6654              		.cfi_def_cfa_offset 24
 6655 0004 00AF     		add	r7, sp, #0
 6656              	.LCFI300:
 6657              		.cfi_def_cfa_register 7
 6658 0006 7860     		str	r0, [r7, #4]
2681:d:/LiteOS_Lab/drivers/third_party/ST/STM32L4xx_HAL_Driver/Src\stm32l4xx_hal_uart.c ****   uint16_t* tmp;
2682:d:/LiteOS_Lab/drivers/third_party/ST/STM32L4xx_HAL_Driver/Src\stm32l4xx_hal_uart.c **** 
2683:d:/LiteOS_Lab/drivers/third_party/ST/STM32L4xx_HAL_Driver/Src\stm32l4xx_hal_uart.c ****   /* Check that a Tx process is ongoing */
2684:d:/LiteOS_Lab/drivers/third_party/ST/STM32L4xx_HAL_Driver/Src\stm32l4xx_hal_uart.c ****   if (huart->gState == HAL_UART_STATE_BUSY_TX || huart->gState == HAL_UART_STATE_BUSY_TX_RX)
 6659              		.loc 1 2684 12
 6660 0008 7B68     		ldr	r3, [r7, #4]
 6661 000a 93F87130 		ldrb	r3, [r3, #113]
 6662 000e DBB2     		uxtb	r3, r3
 6663              		.loc 1 2684 6
 6664 0010 212B     		cmp	r3, #33
 6665 0012 05D0     		beq	.L323
 6666              		.loc 1 2684 55 discriminator 1
 6667 0014 7B68     		ldr	r3, [r7, #4]
 6668 0016 93F87130 		ldrb	r3, [r3, #113]
 6669 001a DBB2     		uxtb	r3, r3
 6670              		.loc 1 2684 47 discriminator 1
 6671 001c 232B     		cmp	r3, #35
 6672 001e 46D1     		bne	.L324
 6673              	.L323:
2685:d:/LiteOS_Lab/drivers/third_party/ST/STM32L4xx_HAL_Driver/Src\stm32l4xx_hal_uart.c ****   {
2686:d:/LiteOS_Lab/drivers/third_party/ST/STM32L4xx_HAL_Driver/Src\stm32l4xx_hal_uart.c ****     if(huart->TxXferCount == 0)
 6674              		.loc 1 2686 13
 6675 0020 7B68     		ldr	r3, [r7, #4]
 6676 0022 B3F85230 		ldrh	r3, [r3, #82]	@ movhi
 6677 0026 9BB2     		uxth	r3, r3
 6678              		.loc 1 2686 7
 6679 0028 002B     		cmp	r3, #0
 6680 002a 11D1     		bne	.L325
2687:d:/LiteOS_Lab/drivers/third_party/ST/STM32L4xx_HAL_Driver/Src\stm32l4xx_hal_uart.c ****     {
2688:d:/LiteOS_Lab/drivers/third_party/ST/STM32L4xx_HAL_Driver/Src\stm32l4xx_hal_uart.c ****       /* Disable the UART Transmit Data Register Empty Interrupt */
2689:d:/LiteOS_Lab/drivers/third_party/ST/STM32L4xx_HAL_Driver/Src\stm32l4xx_hal_uart.c ****       CLEAR_BIT(huart->Instance->CR1, USART_CR1_TXEIE);
 6681              		.loc 1 2689 7
 6682 002c 7B68     		ldr	r3, [r7, #4]
 6683 002e 1B68     		ldr	r3, [r3]
 6684 0030 1A68     		ldr	r2, [r3]
 6685 0032 7B68     		ldr	r3, [r7, #4]
 6686 0034 1B68     		ldr	r3, [r3]
 6687 0036 22F08002 		bic	r2, r2, #128
 6688 003a 1A60     		str	r2, [r3]
2690:d:/LiteOS_Lab/drivers/third_party/ST/STM32L4xx_HAL_Driver/Src\stm32l4xx_hal_uart.c **** 
2691:d:/LiteOS_Lab/drivers/third_party/ST/STM32L4xx_HAL_Driver/Src\stm32l4xx_hal_uart.c ****       /* Enable the UART Transmit Complete Interrupt */
ARM GAS  C:\Users\ADMINI~1\AppData\Local\Temp\ccHDbRvY.s 			page 164


2692:d:/LiteOS_Lab/drivers/third_party/ST/STM32L4xx_HAL_Driver/Src\stm32l4xx_hal_uart.c ****       SET_BIT(huart->Instance->CR1, USART_CR1_TCIE);
 6689              		.loc 1 2692 7
 6690 003c 7B68     		ldr	r3, [r7, #4]
 6691 003e 1B68     		ldr	r3, [r3]
 6692 0040 1A68     		ldr	r2, [r3]
 6693 0042 7B68     		ldr	r3, [r7, #4]
 6694 0044 1B68     		ldr	r3, [r3]
 6695 0046 42F04002 		orr	r2, r2, #64
 6696 004a 1A60     		str	r2, [r3]
2693:d:/LiteOS_Lab/drivers/third_party/ST/STM32L4xx_HAL_Driver/Src\stm32l4xx_hal_uart.c **** 
2694:d:/LiteOS_Lab/drivers/third_party/ST/STM32L4xx_HAL_Driver/Src\stm32l4xx_hal_uart.c ****       return HAL_OK;
 6697              		.loc 1 2694 14
 6698 004c 0023     		movs	r3, #0
 6699 004e 2FE0     		b	.L326
 6700              	.L325:
2695:d:/LiteOS_Lab/drivers/third_party/ST/STM32L4xx_HAL_Driver/Src\stm32l4xx_hal_uart.c ****     }
2696:d:/LiteOS_Lab/drivers/third_party/ST/STM32L4xx_HAL_Driver/Src\stm32l4xx_hal_uart.c ****     else
2697:d:/LiteOS_Lab/drivers/third_party/ST/STM32L4xx_HAL_Driver/Src\stm32l4xx_hal_uart.c ****     {
2698:d:/LiteOS_Lab/drivers/third_party/ST/STM32L4xx_HAL_Driver/Src\stm32l4xx_hal_uart.c ****       if ((huart->Init.WordLength == UART_WORDLENGTH_9B) && (huart->Init.Parity == UART_PARITY_NONE
 6701              		.loc 1 2698 23
 6702 0050 7B68     		ldr	r3, [r7, #4]
 6703 0052 9B68     		ldr	r3, [r3, #8]
 6704              		.loc 1 2698 10
 6705 0054 B3F5805F 		cmp	r3, #4096
 6706 0058 14D1     		bne	.L327
 6707              		.loc 1 2698 73 discriminator 1
 6708 005a 7B68     		ldr	r3, [r7, #4]
 6709 005c 1B69     		ldr	r3, [r3, #16]
 6710              		.loc 1 2698 58 discriminator 1
 6711 005e 002B     		cmp	r3, #0
 6712 0060 10D1     		bne	.L327
2699:d:/LiteOS_Lab/drivers/third_party/ST/STM32L4xx_HAL_Driver/Src\stm32l4xx_hal_uart.c ****       {
2700:d:/LiteOS_Lab/drivers/third_party/ST/STM32L4xx_HAL_Driver/Src\stm32l4xx_hal_uart.c ****         tmp = (uint16_t*) huart->pTxBuffPtr;
 6713              		.loc 1 2700 13
 6714 0062 7B68     		ldr	r3, [r7, #4]
 6715 0064 DB6C     		ldr	r3, [r3, #76]
 6716 0066 FB60     		str	r3, [r7, #12]
2701:d:/LiteOS_Lab/drivers/third_party/ST/STM32L4xx_HAL_Driver/Src\stm32l4xx_hal_uart.c ****         huart->Instance->TDR = (*tmp & (uint16_t)0x01FF);
 6717              		.loc 1 2701 38
 6718 0068 FB68     		ldr	r3, [r7, #12]
 6719 006a 1A88     		ldrh	r2, [r3]
 6720              		.loc 1 2701 14
 6721 006c 7B68     		ldr	r3, [r7, #4]
 6722 006e 1B68     		ldr	r3, [r3]
 6723              		.loc 1 2701 38
 6724 0070 C2F30802 		ubfx	r2, r2, #0, #9
 6725 0074 92B2     		uxth	r2, r2
 6726              		.loc 1 2701 30
 6727 0076 1A85     		strh	r2, [r3, #40]	@ movhi
2702:d:/LiteOS_Lab/drivers/third_party/ST/STM32L4xx_HAL_Driver/Src\stm32l4xx_hal_uart.c ****         huart->pTxBuffPtr += 2;
 6728              		.loc 1 2702 27
 6729 0078 7B68     		ldr	r3, [r7, #4]
 6730 007a DB6C     		ldr	r3, [r3, #76]
 6731 007c 9A1C     		adds	r2, r3, #2
 6732 007e 7B68     		ldr	r3, [r7, #4]
 6733 0080 DA64     		str	r2, [r3, #76]
 6734 0082 09E0     		b	.L328
ARM GAS  C:\Users\ADMINI~1\AppData\Local\Temp\ccHDbRvY.s 			page 165


 6735              	.L327:
2703:d:/LiteOS_Lab/drivers/third_party/ST/STM32L4xx_HAL_Driver/Src\stm32l4xx_hal_uart.c ****       }
2704:d:/LiteOS_Lab/drivers/third_party/ST/STM32L4xx_HAL_Driver/Src\stm32l4xx_hal_uart.c ****       else
2705:d:/LiteOS_Lab/drivers/third_party/ST/STM32L4xx_HAL_Driver/Src\stm32l4xx_hal_uart.c ****       {
2706:d:/LiteOS_Lab/drivers/third_party/ST/STM32L4xx_HAL_Driver/Src\stm32l4xx_hal_uart.c ****         huart->Instance->TDR = (uint8_t)(*huart->pTxBuffPtr++ & (uint8_t)0xFF);
 6736              		.loc 1 2706 48
 6737 0084 7B68     		ldr	r3, [r7, #4]
 6738 0086 DB6C     		ldr	r3, [r3, #76]
 6739              		.loc 1 2706 60
 6740 0088 591C     		adds	r1, r3, #1
 6741 008a 7A68     		ldr	r2, [r7, #4]
 6742 008c D164     		str	r1, [r2, #76]
 6743              		.loc 1 2706 42
 6744 008e 1A78     		ldrb	r2, [r3]	@ zero_extendqisi2
 6745              		.loc 1 2706 14
 6746 0090 7B68     		ldr	r3, [r7, #4]
 6747 0092 1B68     		ldr	r3, [r3]
 6748              		.loc 1 2706 32
 6749 0094 92B2     		uxth	r2, r2
 6750              		.loc 1 2706 30
 6751 0096 1A85     		strh	r2, [r3, #40]	@ movhi
 6752              	.L328:
2707:d:/LiteOS_Lab/drivers/third_party/ST/STM32L4xx_HAL_Driver/Src\stm32l4xx_hal_uart.c ****       }
2708:d:/LiteOS_Lab/drivers/third_party/ST/STM32L4xx_HAL_Driver/Src\stm32l4xx_hal_uart.c ****       huart->TxXferCount--;
 6753              		.loc 1 2708 12
 6754 0098 7B68     		ldr	r3, [r7, #4]
 6755 009a B3F85230 		ldrh	r3, [r3, #82]	@ movhi
 6756 009e 9BB2     		uxth	r3, r3
 6757              		.loc 1 2708 25
 6758 00a0 013B     		subs	r3, r3, #1
 6759 00a2 9AB2     		uxth	r2, r3
 6760 00a4 7B68     		ldr	r3, [r7, #4]
 6761 00a6 A3F85220 		strh	r2, [r3, #82]	@ movhi
2709:d:/LiteOS_Lab/drivers/third_party/ST/STM32L4xx_HAL_Driver/Src\stm32l4xx_hal_uart.c **** 
2710:d:/LiteOS_Lab/drivers/third_party/ST/STM32L4xx_HAL_Driver/Src\stm32l4xx_hal_uart.c ****       return HAL_OK;
 6762              		.loc 1 2710 14
 6763 00aa 0023     		movs	r3, #0
 6764 00ac 00E0     		b	.L326
 6765              	.L324:
2711:d:/LiteOS_Lab/drivers/third_party/ST/STM32L4xx_HAL_Driver/Src\stm32l4xx_hal_uart.c ****     }
2712:d:/LiteOS_Lab/drivers/third_party/ST/STM32L4xx_HAL_Driver/Src\stm32l4xx_hal_uart.c ****   }
2713:d:/LiteOS_Lab/drivers/third_party/ST/STM32L4xx_HAL_Driver/Src\stm32l4xx_hal_uart.c ****   else
2714:d:/LiteOS_Lab/drivers/third_party/ST/STM32L4xx_HAL_Driver/Src\stm32l4xx_hal_uart.c ****   {
2715:d:/LiteOS_Lab/drivers/third_party/ST/STM32L4xx_HAL_Driver/Src\stm32l4xx_hal_uart.c ****     return HAL_BUSY;
 6766              		.loc 1 2715 12
 6767 00ae 0223     		movs	r3, #2
 6768              	.L326:
2716:d:/LiteOS_Lab/drivers/third_party/ST/STM32L4xx_HAL_Driver/Src\stm32l4xx_hal_uart.c ****   }
2717:d:/LiteOS_Lab/drivers/third_party/ST/STM32L4xx_HAL_Driver/Src\stm32l4xx_hal_uart.c **** }
 6769              		.loc 1 2717 1
 6770 00b0 1846     		mov	r0, r3
 6771 00b2 1437     		adds	r7, r7, #20
 6772              	.LCFI301:
 6773              		.cfi_def_cfa_offset 4
 6774 00b4 BD46     		mov	sp, r7
 6775              	.LCFI302:
 6776              		.cfi_def_cfa_register 13
ARM GAS  C:\Users\ADMINI~1\AppData\Local\Temp\ccHDbRvY.s 			page 166


 6777              		@ sp needed
 6778 00b6 5DF8047B 		ldr	r7, [sp], #4
 6779              	.LCFI303:
 6780              		.cfi_restore 7
 6781              		.cfi_def_cfa_offset 0
 6782 00ba 7047     		bx	lr
 6783              		.cfi_endproc
 6784              	.LFE342:
 6786              		.section	.text.UART_EndTransmit_IT,"ax",%progbits
 6787              		.align	1
 6788              		.global	UART_EndTransmit_IT
 6789              		.syntax unified
 6790              		.thumb
 6791              		.thumb_func
 6792              		.fpu fpv4-sp-d16
 6794              	UART_EndTransmit_IT:
 6795              	.LFB343:
2718:d:/LiteOS_Lab/drivers/third_party/ST/STM32L4xx_HAL_Driver/Src\stm32l4xx_hal_uart.c **** 
2719:d:/LiteOS_Lab/drivers/third_party/ST/STM32L4xx_HAL_Driver/Src\stm32l4xx_hal_uart.c **** /**
2720:d:/LiteOS_Lab/drivers/third_party/ST/STM32L4xx_HAL_Driver/Src\stm32l4xx_hal_uart.c ****   * @brief  Wrap up transmission in non-blocking mode.
2721:d:/LiteOS_Lab/drivers/third_party/ST/STM32L4xx_HAL_Driver/Src\stm32l4xx_hal_uart.c ****   * @param  huart pointer to a UART_HandleTypeDef structure that contains
2722:d:/LiteOS_Lab/drivers/third_party/ST/STM32L4xx_HAL_Driver/Src\stm32l4xx_hal_uart.c ****   *               the configuration information for the specified UART module.
2723:d:/LiteOS_Lab/drivers/third_party/ST/STM32L4xx_HAL_Driver/Src\stm32l4xx_hal_uart.c ****   * @retval HAL status
2724:d:/LiteOS_Lab/drivers/third_party/ST/STM32L4xx_HAL_Driver/Src\stm32l4xx_hal_uart.c ****   */
2725:d:/LiteOS_Lab/drivers/third_party/ST/STM32L4xx_HAL_Driver/Src\stm32l4xx_hal_uart.c **** HAL_StatusTypeDef UART_EndTransmit_IT(UART_HandleTypeDef *huart)
2726:d:/LiteOS_Lab/drivers/third_party/ST/STM32L4xx_HAL_Driver/Src\stm32l4xx_hal_uart.c **** {
 6796              		.loc 1 2726 1
 6797              		.cfi_startproc
 6798              		@ args = 0, pretend = 0, frame = 8
 6799              		@ frame_needed = 1, uses_anonymous_args = 0
 6800 0000 80B5     		push	{r7, lr}
 6801              	.LCFI304:
 6802              		.cfi_def_cfa_offset 8
 6803              		.cfi_offset 7, -8
 6804              		.cfi_offset 14, -4
 6805 0002 82B0     		sub	sp, sp, #8
 6806              	.LCFI305:
 6807              		.cfi_def_cfa_offset 16
 6808 0004 00AF     		add	r7, sp, #0
 6809              	.LCFI306:
 6810              		.cfi_def_cfa_register 7
 6811 0006 7860     		str	r0, [r7, #4]
2727:d:/LiteOS_Lab/drivers/third_party/ST/STM32L4xx_HAL_Driver/Src\stm32l4xx_hal_uart.c ****   /* Disable the UART Transmit Complete Interrupt */
2728:d:/LiteOS_Lab/drivers/third_party/ST/STM32L4xx_HAL_Driver/Src\stm32l4xx_hal_uart.c ****   CLEAR_BIT(huart->Instance->CR1, USART_CR1_TCIE);
 6812              		.loc 1 2728 3
 6813 0008 7B68     		ldr	r3, [r7, #4]
 6814 000a 1B68     		ldr	r3, [r3]
 6815 000c 1A68     		ldr	r2, [r3]
 6816 000e 7B68     		ldr	r3, [r7, #4]
 6817 0010 1B68     		ldr	r3, [r3]
 6818 0012 22F04002 		bic	r2, r2, #64
 6819 0016 1A60     		str	r2, [r3]
2729:d:/LiteOS_Lab/drivers/third_party/ST/STM32L4xx_HAL_Driver/Src\stm32l4xx_hal_uart.c **** 
2730:d:/LiteOS_Lab/drivers/third_party/ST/STM32L4xx_HAL_Driver/Src\stm32l4xx_hal_uart.c ****   /* Tx process is ended, restore huart->gState to Ready */
2731:d:/LiteOS_Lab/drivers/third_party/ST/STM32L4xx_HAL_Driver/Src\stm32l4xx_hal_uart.c ****   if (huart->gState == HAL_UART_STATE_BUSY_TX_RX)
 6820              		.loc 1 2731 12
 6821 0018 7B68     		ldr	r3, [r7, #4]
ARM GAS  C:\Users\ADMINI~1\AppData\Local\Temp\ccHDbRvY.s 			page 167


 6822 001a 93F87130 		ldrb	r3, [r3, #113]
 6823 001e DBB2     		uxtb	r3, r3
 6824              		.loc 1 2731 6
 6825 0020 232B     		cmp	r3, #35
 6826 0022 04D1     		bne	.L330
2732:d:/LiteOS_Lab/drivers/third_party/ST/STM32L4xx_HAL_Driver/Src\stm32l4xx_hal_uart.c ****   {
2733:d:/LiteOS_Lab/drivers/third_party/ST/STM32L4xx_HAL_Driver/Src\stm32l4xx_hal_uart.c ****       huart->gState = HAL_UART_STATE_BUSY_RX;
 6827              		.loc 1 2733 21
 6828 0024 7B68     		ldr	r3, [r7, #4]
 6829 0026 2222     		movs	r2, #34
 6830 0028 83F87120 		strb	r2, [r3, #113]
 6831 002c 03E0     		b	.L331
 6832              	.L330:
2734:d:/LiteOS_Lab/drivers/third_party/ST/STM32L4xx_HAL_Driver/Src\stm32l4xx_hal_uart.c ****   }
2735:d:/LiteOS_Lab/drivers/third_party/ST/STM32L4xx_HAL_Driver/Src\stm32l4xx_hal_uart.c ****   else
2736:d:/LiteOS_Lab/drivers/third_party/ST/STM32L4xx_HAL_Driver/Src\stm32l4xx_hal_uart.c ****   {
2737:d:/LiteOS_Lab/drivers/third_party/ST/STM32L4xx_HAL_Driver/Src\stm32l4xx_hal_uart.c ****     huart->gState = HAL_UART_STATE_READY;
 6833              		.loc 1 2737 19
 6834 002e 7B68     		ldr	r3, [r7, #4]
 6835 0030 2022     		movs	r2, #32
 6836 0032 83F87120 		strb	r2, [r3, #113]
 6837              	.L331:
2738:d:/LiteOS_Lab/drivers/third_party/ST/STM32L4xx_HAL_Driver/Src\stm32l4xx_hal_uart.c ****   }
2739:d:/LiteOS_Lab/drivers/third_party/ST/STM32L4xx_HAL_Driver/Src\stm32l4xx_hal_uart.c **** 
2740:d:/LiteOS_Lab/drivers/third_party/ST/STM32L4xx_HAL_Driver/Src\stm32l4xx_hal_uart.c ****   HAL_UART_TxCpltCallback(huart);
 6838              		.loc 1 2740 3
 6839 0036 7868     		ldr	r0, [r7, #4]
 6840 0038 FFF7FEFF 		bl	HAL_UART_TxCpltCallback
2741:d:/LiteOS_Lab/drivers/third_party/ST/STM32L4xx_HAL_Driver/Src\stm32l4xx_hal_uart.c **** 
2742:d:/LiteOS_Lab/drivers/third_party/ST/STM32L4xx_HAL_Driver/Src\stm32l4xx_hal_uart.c ****   return HAL_OK;
 6841              		.loc 1 2742 10
 6842 003c 0023     		movs	r3, #0
2743:d:/LiteOS_Lab/drivers/third_party/ST/STM32L4xx_HAL_Driver/Src\stm32l4xx_hal_uart.c **** }
 6843              		.loc 1 2743 1
 6844 003e 1846     		mov	r0, r3
 6845 0040 0837     		adds	r7, r7, #8
 6846              	.LCFI307:
 6847              		.cfi_def_cfa_offset 8
 6848 0042 BD46     		mov	sp, r7
 6849              	.LCFI308:
 6850              		.cfi_def_cfa_register 13
 6851              		@ sp needed
 6852 0044 80BD     		pop	{r7, pc}
 6853              		.cfi_endproc
 6854              	.LFE343:
 6856              		.section	.text.UART_Receive_IT,"ax",%progbits
 6857              		.align	1
 6858              		.syntax unified
 6859              		.thumb
 6860              		.thumb_func
 6861              		.fpu fpv4-sp-d16
 6863              	UART_Receive_IT:
 6864              	.LFB344:
2744:d:/LiteOS_Lab/drivers/third_party/ST/STM32L4xx_HAL_Driver/Src\stm32l4xx_hal_uart.c **** 
2745:d:/LiteOS_Lab/drivers/third_party/ST/STM32L4xx_HAL_Driver/Src\stm32l4xx_hal_uart.c **** /**
2746:d:/LiteOS_Lab/drivers/third_party/ST/STM32L4xx_HAL_Driver/Src\stm32l4xx_hal_uart.c ****   * @brief  Receive an amount of data in interrupt mode.
2747:d:/LiteOS_Lab/drivers/third_party/ST/STM32L4xx_HAL_Driver/Src\stm32l4xx_hal_uart.c ****   * @note   Function is called under interruption only, once
ARM GAS  C:\Users\ADMINI~1\AppData\Local\Temp\ccHDbRvY.s 			page 168


2748:d:/LiteOS_Lab/drivers/third_party/ST/STM32L4xx_HAL_Driver/Src\stm32l4xx_hal_uart.c ****   *         interruptions have been enabled by HAL_UART_Receive_IT()
2749:d:/LiteOS_Lab/drivers/third_party/ST/STM32L4xx_HAL_Driver/Src\stm32l4xx_hal_uart.c ****   * @param  huart UART handle.
2750:d:/LiteOS_Lab/drivers/third_party/ST/STM32L4xx_HAL_Driver/Src\stm32l4xx_hal_uart.c ****   * @retval HAL status
2751:d:/LiteOS_Lab/drivers/third_party/ST/STM32L4xx_HAL_Driver/Src\stm32l4xx_hal_uart.c ****   */
2752:d:/LiteOS_Lab/drivers/third_party/ST/STM32L4xx_HAL_Driver/Src\stm32l4xx_hal_uart.c **** static HAL_StatusTypeDef UART_Receive_IT(UART_HandleTypeDef *huart)
2753:d:/LiteOS_Lab/drivers/third_party/ST/STM32L4xx_HAL_Driver/Src\stm32l4xx_hal_uart.c **** {
 6865              		.loc 1 2753 1
 6866              		.cfi_startproc
 6867              		@ args = 0, pretend = 0, frame = 16
 6868              		@ frame_needed = 1, uses_anonymous_args = 0
 6869 0000 90B5     		push	{r4, r7, lr}
 6870              	.LCFI309:
 6871              		.cfi_def_cfa_offset 12
 6872              		.cfi_offset 4, -12
 6873              		.cfi_offset 7, -8
 6874              		.cfi_offset 14, -4
 6875 0002 85B0     		sub	sp, sp, #20
 6876              	.LCFI310:
 6877              		.cfi_def_cfa_offset 32
 6878 0004 00AF     		add	r7, sp, #0
 6879              	.LCFI311:
 6880              		.cfi_def_cfa_register 7
 6881 0006 7860     		str	r0, [r7, #4]
2754:d:/LiteOS_Lab/drivers/third_party/ST/STM32L4xx_HAL_Driver/Src\stm32l4xx_hal_uart.c ****   uint16_t* tmp;
2755:d:/LiteOS_Lab/drivers/third_party/ST/STM32L4xx_HAL_Driver/Src\stm32l4xx_hal_uart.c ****   uint16_t  uhMask = huart->Mask;
 6882              		.loc 1 2755 13
 6883 0008 7B68     		ldr	r3, [r7, #4]
 6884 000a B3F85C30 		ldrh	r3, [r3, #92]	@ movhi
 6885 000e FB81     		strh	r3, [r7, #14]	@ movhi
2756:d:/LiteOS_Lab/drivers/third_party/ST/STM32L4xx_HAL_Driver/Src\stm32l4xx_hal_uart.c ****   uint16_t  uhdata;
2757:d:/LiteOS_Lab/drivers/third_party/ST/STM32L4xx_HAL_Driver/Src\stm32l4xx_hal_uart.c **** 
2758:d:/LiteOS_Lab/drivers/third_party/ST/STM32L4xx_HAL_Driver/Src\stm32l4xx_hal_uart.c ****   /* Check that a Rx process is ongoing */
2759:d:/LiteOS_Lab/drivers/third_party/ST/STM32L4xx_HAL_Driver/Src\stm32l4xx_hal_uart.c ****   if(huart->RxState == HAL_UART_STATE_BUSY_RX)
 6886              		.loc 1 2759 11
 6887 0010 7B68     		ldr	r3, [r7, #4]
 6888 0012 93F87230 		ldrb	r3, [r3, #114]
 6889 0016 DBB2     		uxtb	r3, r3
 6890              		.loc 1 2759 5
 6891 0018 222B     		cmp	r3, #34
 6892 001a 4ED1     		bne	.L334
2760:d:/LiteOS_Lab/drivers/third_party/ST/STM32L4xx_HAL_Driver/Src\stm32l4xx_hal_uart.c ****   {
2761:d:/LiteOS_Lab/drivers/third_party/ST/STM32L4xx_HAL_Driver/Src\stm32l4xx_hal_uart.c ****     uhdata = (uint16_t) READ_REG(huart->Instance->RDR);
 6893              		.loc 1 2761 25
 6894 001c 7B68     		ldr	r3, [r7, #4]
 6895 001e 1B68     		ldr	r3, [r3]
 6896              		.loc 1 2761 12
 6897 0020 9B8C     		ldrh	r3, [r3, #36]	@ movhi
 6898 0022 BB81     		strh	r3, [r7, #12]	@ movhi
2762:d:/LiteOS_Lab/drivers/third_party/ST/STM32L4xx_HAL_Driver/Src\stm32l4xx_hal_uart.c ****     if ((huart->Init.WordLength == UART_WORDLENGTH_9B) && (huart->Init.Parity == UART_PARITY_NONE))
 6899              		.loc 1 2762 21
 6900 0024 7B68     		ldr	r3, [r7, #4]
 6901 0026 9B68     		ldr	r3, [r3, #8]
 6902              		.loc 1 2762 8
 6903 0028 B3F5805F 		cmp	r3, #4096
 6904 002c 12D1     		bne	.L335
 6905              		.loc 1 2762 71 discriminator 1
 6906 002e 7B68     		ldr	r3, [r7, #4]
ARM GAS  C:\Users\ADMINI~1\AppData\Local\Temp\ccHDbRvY.s 			page 169


 6907 0030 1B69     		ldr	r3, [r3, #16]
 6908              		.loc 1 2762 56 discriminator 1
 6909 0032 002B     		cmp	r3, #0
 6910 0034 0ED1     		bne	.L335
2763:d:/LiteOS_Lab/drivers/third_party/ST/STM32L4xx_HAL_Driver/Src\stm32l4xx_hal_uart.c ****     {
2764:d:/LiteOS_Lab/drivers/third_party/ST/STM32L4xx_HAL_Driver/Src\stm32l4xx_hal_uart.c ****       tmp = (uint16_t*) huart->pRxBuffPtr ;
 6911              		.loc 1 2764 11
 6912 0036 7B68     		ldr	r3, [r7, #4]
 6913 0038 5B6D     		ldr	r3, [r3, #84]
 6914 003a BB60     		str	r3, [r7, #8]
2765:d:/LiteOS_Lab/drivers/third_party/ST/STM32L4xx_HAL_Driver/Src\stm32l4xx_hal_uart.c ****       *tmp = (uint16_t)(uhdata & uhMask);
 6915              		.loc 1 2765 14
 6916 003c BA89     		ldrh	r2, [r7, #12]	@ movhi
 6917 003e FB89     		ldrh	r3, [r7, #14]	@ movhi
 6918 0040 1340     		ands	r3, r3, r2
 6919 0042 9AB2     		uxth	r2, r3
 6920              		.loc 1 2765 12
 6921 0044 BB68     		ldr	r3, [r7, #8]
 6922 0046 1A80     		strh	r2, [r3]	@ movhi
2766:d:/LiteOS_Lab/drivers/third_party/ST/STM32L4xx_HAL_Driver/Src\stm32l4xx_hal_uart.c ****       huart->pRxBuffPtr +=2;
 6923              		.loc 1 2766 25
 6924 0048 7B68     		ldr	r3, [r7, #4]
 6925 004a 5B6D     		ldr	r3, [r3, #84]
 6926 004c 9A1C     		adds	r2, r3, #2
 6927 004e 7B68     		ldr	r3, [r7, #4]
 6928 0050 5A65     		str	r2, [r3, #84]
 6929 0052 0BE0     		b	.L336
 6930              	.L335:
2767:d:/LiteOS_Lab/drivers/third_party/ST/STM32L4xx_HAL_Driver/Src\stm32l4xx_hal_uart.c ****     }
2768:d:/LiteOS_Lab/drivers/third_party/ST/STM32L4xx_HAL_Driver/Src\stm32l4xx_hal_uart.c ****     else
2769:d:/LiteOS_Lab/drivers/third_party/ST/STM32L4xx_HAL_Driver/Src\stm32l4xx_hal_uart.c ****     {
2770:d:/LiteOS_Lab/drivers/third_party/ST/STM32L4xx_HAL_Driver/Src\stm32l4xx_hal_uart.c ****       *huart->pRxBuffPtr++ = (uint8_t)(uhdata & (uint8_t)uhMask);
 6931              		.loc 1 2770 30
 6932 0054 BB89     		ldrh	r3, [r7, #12]	@ movhi
 6933 0056 D9B2     		uxtb	r1, r3
 6934              		.loc 1 2770 49
 6935 0058 FB89     		ldrh	r3, [r7, #14]	@ movhi
 6936 005a DAB2     		uxtb	r2, r3
 6937              		.loc 1 2770 13
 6938 005c 7B68     		ldr	r3, [r7, #4]
 6939 005e 5B6D     		ldr	r3, [r3, #84]
 6940              		.loc 1 2770 25
 6941 0060 5C1C     		adds	r4, r3, #1
 6942 0062 7868     		ldr	r0, [r7, #4]
 6943 0064 4465     		str	r4, [r0, #84]
 6944              		.loc 1 2770 30
 6945 0066 0A40     		ands	r2, r2, r1
 6946 0068 D2B2     		uxtb	r2, r2
 6947              		.loc 1 2770 28
 6948 006a 1A70     		strb	r2, [r3]
 6949              	.L336:
2771:d:/LiteOS_Lab/drivers/third_party/ST/STM32L4xx_HAL_Driver/Src\stm32l4xx_hal_uart.c ****     }
2772:d:/LiteOS_Lab/drivers/third_party/ST/STM32L4xx_HAL_Driver/Src\stm32l4xx_hal_uart.c **** 
2773:d:/LiteOS_Lab/drivers/third_party/ST/STM32L4xx_HAL_Driver/Src\stm32l4xx_hal_uart.c ****     if(--huart->RxXferCount == 0)
 6950              		.loc 1 2773 15
 6951 006c 7B68     		ldr	r3, [r7, #4]
 6952 006e B3F85A30 		ldrh	r3, [r3, #90]	@ movhi
ARM GAS  C:\Users\ADMINI~1\AppData\Local\Temp\ccHDbRvY.s 			page 170


 6953 0072 9BB2     		uxth	r3, r3
 6954              		.loc 1 2773 8
 6955 0074 013B     		subs	r3, r3, #1
 6956 0076 9BB2     		uxth	r3, r3
 6957              		.loc 1 2773 7
 6958 0078 7A68     		ldr	r2, [r7, #4]
 6959 007a 1946     		mov	r1, r3	@ movhi
 6960 007c A2F85A10 		strh	r1, [r2, #90]	@ movhi
 6961 0080 002B     		cmp	r3, #0
 6962 0082 18D1     		bne	.L337
2774:d:/LiteOS_Lab/drivers/third_party/ST/STM32L4xx_HAL_Driver/Src\stm32l4xx_hal_uart.c ****     {
2775:d:/LiteOS_Lab/drivers/third_party/ST/STM32L4xx_HAL_Driver/Src\stm32l4xx_hal_uart.c ****       /* Disable the UART Parity Error Interrupt and RXNE interrupt*/
2776:d:/LiteOS_Lab/drivers/third_party/ST/STM32L4xx_HAL_Driver/Src\stm32l4xx_hal_uart.c ****       CLEAR_BIT(huart->Instance->CR1, (USART_CR1_RXNEIE | USART_CR1_PEIE));
 6963              		.loc 1 2776 7
 6964 0084 7B68     		ldr	r3, [r7, #4]
 6965 0086 1B68     		ldr	r3, [r3]
 6966 0088 1A68     		ldr	r2, [r3]
 6967 008a 7B68     		ldr	r3, [r7, #4]
 6968 008c 1B68     		ldr	r3, [r3]
 6969 008e 22F49072 		bic	r2, r2, #288
 6970 0092 1A60     		str	r2, [r3]
2777:d:/LiteOS_Lab/drivers/third_party/ST/STM32L4xx_HAL_Driver/Src\stm32l4xx_hal_uart.c **** 
2778:d:/LiteOS_Lab/drivers/third_party/ST/STM32L4xx_HAL_Driver/Src\stm32l4xx_hal_uart.c ****       /* Disable the UART Error Interrupt: (Frame error, noise error, overrun error) */
2779:d:/LiteOS_Lab/drivers/third_party/ST/STM32L4xx_HAL_Driver/Src\stm32l4xx_hal_uart.c ****       CLEAR_BIT(huart->Instance->CR3, USART_CR3_EIE);
 6971              		.loc 1 2779 7
 6972 0094 7B68     		ldr	r3, [r7, #4]
 6973 0096 1B68     		ldr	r3, [r3]
 6974 0098 9A68     		ldr	r2, [r3, #8]
 6975 009a 7B68     		ldr	r3, [r7, #4]
 6976 009c 1B68     		ldr	r3, [r3]
 6977 009e 22F00102 		bic	r2, r2, #1
 6978 00a2 9A60     		str	r2, [r3, #8]
2780:d:/LiteOS_Lab/drivers/third_party/ST/STM32L4xx_HAL_Driver/Src\stm32l4xx_hal_uart.c **** 
2781:d:/LiteOS_Lab/drivers/third_party/ST/STM32L4xx_HAL_Driver/Src\stm32l4xx_hal_uart.c ****       /* Rx process is completed, restore huart->RxState to Ready */
2782:d:/LiteOS_Lab/drivers/third_party/ST/STM32L4xx_HAL_Driver/Src\stm32l4xx_hal_uart.c ****       huart->RxState = HAL_UART_STATE_READY;
 6979              		.loc 1 2782 22
 6980 00a4 7B68     		ldr	r3, [r7, #4]
 6981 00a6 2022     		movs	r2, #32
 6982 00a8 83F87220 		strb	r2, [r3, #114]
2783:d:/LiteOS_Lab/drivers/third_party/ST/STM32L4xx_HAL_Driver/Src\stm32l4xx_hal_uart.c **** 
2784:d:/LiteOS_Lab/drivers/third_party/ST/STM32L4xx_HAL_Driver/Src\stm32l4xx_hal_uart.c ****       HAL_UART_RxCpltCallback(huart);
 6983              		.loc 1 2784 7
 6984 00ac 7868     		ldr	r0, [r7, #4]
 6985 00ae FFF7FEFF 		bl	HAL_UART_RxCpltCallback
2785:d:/LiteOS_Lab/drivers/third_party/ST/STM32L4xx_HAL_Driver/Src\stm32l4xx_hal_uart.c **** 
2786:d:/LiteOS_Lab/drivers/third_party/ST/STM32L4xx_HAL_Driver/Src\stm32l4xx_hal_uart.c ****       return HAL_OK;
 6986              		.loc 1 2786 14
 6987 00b2 0023     		movs	r3, #0
 6988 00b4 0CE0     		b	.L338
 6989              	.L337:
2787:d:/LiteOS_Lab/drivers/third_party/ST/STM32L4xx_HAL_Driver/Src\stm32l4xx_hal_uart.c ****     }
2788:d:/LiteOS_Lab/drivers/third_party/ST/STM32L4xx_HAL_Driver/Src\stm32l4xx_hal_uart.c **** 
2789:d:/LiteOS_Lab/drivers/third_party/ST/STM32L4xx_HAL_Driver/Src\stm32l4xx_hal_uart.c ****     return HAL_OK;
 6990              		.loc 1 2789 12
 6991 00b6 0023     		movs	r3, #0
 6992 00b8 0AE0     		b	.L338
 6993              	.L334:
ARM GAS  C:\Users\ADMINI~1\AppData\Local\Temp\ccHDbRvY.s 			page 171


2790:d:/LiteOS_Lab/drivers/third_party/ST/STM32L4xx_HAL_Driver/Src\stm32l4xx_hal_uart.c ****   }
2791:d:/LiteOS_Lab/drivers/third_party/ST/STM32L4xx_HAL_Driver/Src\stm32l4xx_hal_uart.c ****   else
2792:d:/LiteOS_Lab/drivers/third_party/ST/STM32L4xx_HAL_Driver/Src\stm32l4xx_hal_uart.c ****   {
2793:d:/LiteOS_Lab/drivers/third_party/ST/STM32L4xx_HAL_Driver/Src\stm32l4xx_hal_uart.c ****     /* Clear RXNE interrupt flag */
2794:d:/LiteOS_Lab/drivers/third_party/ST/STM32L4xx_HAL_Driver/Src\stm32l4xx_hal_uart.c ****     __HAL_UART_SEND_REQ(huart, UART_RXDATA_FLUSH_REQUEST);
 6994              		.loc 1 2794 5
 6995 00ba 7B68     		ldr	r3, [r7, #4]
 6996 00bc 1B68     		ldr	r3, [r3]
 6997 00be 1B8B     		ldrh	r3, [r3, #24]	@ movhi
 6998 00c0 9AB2     		uxth	r2, r3
 6999 00c2 7B68     		ldr	r3, [r7, #4]
 7000 00c4 1B68     		ldr	r3, [r3]
 7001 00c6 42F00802 		orr	r2, r2, #8
 7002 00ca 92B2     		uxth	r2, r2
 7003 00cc 1A83     		strh	r2, [r3, #24]	@ movhi
2795:d:/LiteOS_Lab/drivers/third_party/ST/STM32L4xx_HAL_Driver/Src\stm32l4xx_hal_uart.c **** 
2796:d:/LiteOS_Lab/drivers/third_party/ST/STM32L4xx_HAL_Driver/Src\stm32l4xx_hal_uart.c ****     return HAL_BUSY;
 7004              		.loc 1 2796 12
 7005 00ce 0223     		movs	r3, #2
 7006              	.L338:
2797:d:/LiteOS_Lab/drivers/third_party/ST/STM32L4xx_HAL_Driver/Src\stm32l4xx_hal_uart.c ****   }
2798:d:/LiteOS_Lab/drivers/third_party/ST/STM32L4xx_HAL_Driver/Src\stm32l4xx_hal_uart.c **** }
 7007              		.loc 1 2798 1
 7008 00d0 1846     		mov	r0, r3
 7009 00d2 1437     		adds	r7, r7, #20
 7010              	.LCFI312:
 7011              		.cfi_def_cfa_offset 12
 7012 00d4 BD46     		mov	sp, r7
 7013              	.LCFI313:
 7014              		.cfi_def_cfa_register 13
 7015              		@ sp needed
 7016 00d6 90BD     		pop	{r4, r7, pc}
 7017              		.cfi_endproc
 7018              	.LFE344:
 7020              		.text
 7021              	.Letext0:
 7022              		.file 2 "c:\\users\\administrator\\.huawei-liteos-studio\\tools\\arm-none-eabi\\arm-none-eabi\\inc
 7023              		.file 3 "c:\\users\\administrator\\.huawei-liteos-studio\\tools\\arm-none-eabi\\arm-none-eabi\\inc
 7024              		.file 4 "c:\\users\\administrator\\.huawei-liteos-studio\\tools\\arm-none-eabi\\arm-none-eabi\\inc
 7025              		.file 5 "c:\\users\\administrator\\.huawei-liteos-studio\\tools\\arm-none-eabi\\lib\\gcc\\arm-none
 7026              		.file 6 "c:\\users\\administrator\\.huawei-liteos-studio\\tools\\arm-none-eabi\\arm-none-eabi\\inc
 7027              		.file 7 "d:/LiteOS_Lab/iot_link/os/liteos/include/los_typedef.h"
 7028              		.file 8 "c:\\users\\administrator\\.huawei-liteos-studio\\tools\\arm-none-eabi\\arm-none-eabi\\inc
 7029              		.file 9 "d:/LiteOS_Lab/iot_link/os/liteos/arch/arm/common/cmsis/core_cm4.h"
 7030              		.file 10 "d:/LiteOS_Lab/targets/STM32L431VCT6_Bossay/Inc/system_stm32l4xx.h"
 7031              		.file 11 "d:/LiteOS_Lab/targets/STM32L431VCT6_Bossay/Inc/stm32l431xx.h"
 7032              		.file 12 "d:/LiteOS_Lab/targets/STM32L431VCT6_Bossay/Inc/stm32l4xx.h"
 7033              		.file 13 "d:/LiteOS_Lab/iot_link/os/liteos/include/los_config.h"
 7034              		.file 14 "d:/LiteOS_Lab/iot_link/os/liteos/include/los_err.h"
 7035              		.file 15 "d:/LiteOS_Lab/iot_link/os/liteos/arch/arm/arm-m/include/los_hwi.h"
 7036              		.file 16 "d:/LiteOS_Lab/drivers/third_party/ST/STM32L4xx_HAL_Driver/Inc/stm32l4xx_hal_def.h"
 7037              		.file 17 "d:/LiteOS_Lab/drivers/third_party/ST/STM32L4xx_HAL_Driver/Inc/stm32l4xx_hal_dma.h"
 7038              		.file 18 "d:/LiteOS_Lab/drivers/third_party/ST/STM32L4xx_HAL_Driver/Inc/stm32l4xx_hal_uart.h"
ARM GAS  C:\Users\ADMINI~1\AppData\Local\Temp\ccHDbRvY.s 			page 172


DEFINED SYMBOLS
                            *ABS*:00000000 stm32l4xx_hal_uart.c
C:\Users\ADMINI~1\AppData\Local\Temp\ccHDbRvY.s:18     .text.HAL_UART_Init:00000000 $t
C:\Users\ADMINI~1\AppData\Local\Temp\ccHDbRvY.s:26     .text.HAL_UART_Init:00000000 HAL_UART_Init
C:\Users\ADMINI~1\AppData\Local\Temp\ccHDbRvY.s:698    .text.HAL_UART_MspInit:00000000 HAL_UART_MspInit
C:\Users\ADMINI~1\AppData\Local\Temp\ccHDbRvY.s:4519   .text.UART_SetConfig:00000000 UART_SetConfig
C:\Users\ADMINI~1\AppData\Local\Temp\ccHDbRvY.s:5374   .text.UART_AdvFeatureConfig:00000000 UART_AdvFeatureConfig
C:\Users\ADMINI~1\AppData\Local\Temp\ccHDbRvY.s:5586   .text.UART_CheckIdleState:00000000 UART_CheckIdleState
C:\Users\ADMINI~1\AppData\Local\Temp\ccHDbRvY.s:144    .text.HAL_HalfDuplex_Init:00000000 $t
C:\Users\ADMINI~1\AppData\Local\Temp\ccHDbRvY.s:151    .text.HAL_HalfDuplex_Init:00000000 HAL_HalfDuplex_Init
C:\Users\ADMINI~1\AppData\Local\Temp\ccHDbRvY.s:276    .text.HAL_LIN_Init:00000000 $t
C:\Users\ADMINI~1\AppData\Local\Temp\ccHDbRvY.s:283    .text.HAL_LIN_Init:00000000 HAL_LIN_Init
C:\Users\ADMINI~1\AppData\Local\Temp\ccHDbRvY.s:439    .text.HAL_MultiProcessor_Init:00000000 $t
C:\Users\ADMINI~1\AppData\Local\Temp\ccHDbRvY.s:446    .text.HAL_MultiProcessor_Init:00000000 HAL_MultiProcessor_Init
C:\Users\ADMINI~1\AppData\Local\Temp\ccHDbRvY.s:592    .text.HAL_UART_DeInit:00000000 $t
C:\Users\ADMINI~1\AppData\Local\Temp\ccHDbRvY.s:599    .text.HAL_UART_DeInit:00000000 HAL_UART_DeInit
C:\Users\ADMINI~1\AppData\Local\Temp\ccHDbRvY.s:741    .text.HAL_UART_MspDeInit:00000000 HAL_UART_MspDeInit
C:\Users\ADMINI~1\AppData\Local\Temp\ccHDbRvY.s:691    .text.HAL_UART_MspInit:00000000 $t
C:\Users\ADMINI~1\AppData\Local\Temp\ccHDbRvY.s:734    .text.HAL_UART_MspDeInit:00000000 $t
C:\Users\ADMINI~1\AppData\Local\Temp\ccHDbRvY.s:777    .text.HAL_UART_Transmit:00000000 $t
C:\Users\ADMINI~1\AppData\Local\Temp\ccHDbRvY.s:784    .text.HAL_UART_Transmit:00000000 HAL_UART_Transmit
C:\Users\ADMINI~1\AppData\Local\Temp\ccHDbRvY.s:5702   .text.UART_WaitOnFlagUntilTimeout:00000000 UART_WaitOnFlagUntilTimeout
C:\Users\ADMINI~1\AppData\Local\Temp\ccHDbRvY.s:1023   .text.HAL_UART_Receive:00000000 $t
C:\Users\ADMINI~1\AppData\Local\Temp\ccHDbRvY.s:1030   .text.HAL_UART_Receive:00000000 HAL_UART_Receive
C:\Users\ADMINI~1\AppData\Local\Temp\ccHDbRvY.s:1295   .text.HAL_UART_Transmit_IT:00000000 $t
C:\Users\ADMINI~1\AppData\Local\Temp\ccHDbRvY.s:1302   .text.HAL_UART_Transmit_IT:00000000 HAL_UART_Transmit_IT
C:\Users\ADMINI~1\AppData\Local\Temp\ccHDbRvY.s:1435   .text.HAL_UART_Receive_IT:00000000 $t
C:\Users\ADMINI~1\AppData\Local\Temp\ccHDbRvY.s:1442   .text.HAL_UART_Receive_IT:00000000 HAL_UART_Receive_IT
C:\Users\ADMINI~1\AppData\Local\Temp\ccHDbRvY.s:1626   .text.HAL_UART_Transmit_DMA:00000000 $t
C:\Users\ADMINI~1\AppData\Local\Temp\ccHDbRvY.s:1633   .text.HAL_UART_Transmit_DMA:00000000 HAL_UART_Transmit_DMA
C:\Users\ADMINI~1\AppData\Local\Temp\ccHDbRvY.s:1785   .text.HAL_UART_Transmit_DMA:000000cc $d
C:\Users\ADMINI~1\AppData\Local\Temp\ccHDbRvY.s:5936   .text.UART_DMATransmitCplt:00000000 UART_DMATransmitCplt
C:\Users\ADMINI~1\AppData\Local\Temp\ccHDbRvY.s:6013   .text.UART_DMATxHalfCplt:00000000 UART_DMATxHalfCplt
C:\Users\ADMINI~1\AppData\Local\Temp\ccHDbRvY.s:6189   .text.UART_DMAError:00000000 UART_DMAError
C:\Users\ADMINI~1\AppData\Local\Temp\ccHDbRvY.s:1792   .text.HAL_UART_Receive_DMA:00000000 $t
C:\Users\ADMINI~1\AppData\Local\Temp\ccHDbRvY.s:1799   .text.HAL_UART_Receive_DMA:00000000 HAL_UART_Receive_DMA
C:\Users\ADMINI~1\AppData\Local\Temp\ccHDbRvY.s:1958   .text.HAL_UART_Receive_DMA:000000dc $d
C:\Users\ADMINI~1\AppData\Local\Temp\ccHDbRvY.s:6058   .text.UART_DMAReceiveCplt:00000000 UART_DMAReceiveCplt
C:\Users\ADMINI~1\AppData\Local\Temp\ccHDbRvY.s:6144   .text.UART_DMARxHalfCplt:00000000 UART_DMARxHalfCplt
C:\Users\ADMINI~1\AppData\Local\Temp\ccHDbRvY.s:1965   .text.HAL_UART_DMAPause:00000000 $t
C:\Users\ADMINI~1\AppData\Local\Temp\ccHDbRvY.s:1972   .text.HAL_UART_DMAPause:00000000 HAL_UART_DMAPause
C:\Users\ADMINI~1\AppData\Local\Temp\ccHDbRvY.s:2092   .text.HAL_UART_DMAResume:00000000 $t
C:\Users\ADMINI~1\AppData\Local\Temp\ccHDbRvY.s:2099   .text.HAL_UART_DMAResume:00000000 HAL_UART_DMAResume
C:\Users\ADMINI~1\AppData\Local\Temp\ccHDbRvY.s:2208   .text.HAL_UART_DMAStop:00000000 $t
C:\Users\ADMINI~1\AppData\Local\Temp\ccHDbRvY.s:2215   .text.HAL_UART_DMAStop:00000000 HAL_UART_DMAStop
C:\Users\ADMINI~1\AppData\Local\Temp\ccHDbRvY.s:5820   .text.UART_EndTxTransfer:00000000 UART_EndTxTransfer
C:\Users\ADMINI~1\AppData\Local\Temp\ccHDbRvY.s:5874   .text.UART_EndRxTransfer:00000000 UART_EndRxTransfer
C:\Users\ADMINI~1\AppData\Local\Temp\ccHDbRvY.s:2327   .text.HAL_UART_Abort:00000000 $t
C:\Users\ADMINI~1\AppData\Local\Temp\ccHDbRvY.s:2334   .text.HAL_UART_Abort:00000000 HAL_UART_Abort
C:\Users\ADMINI~1\AppData\Local\Temp\ccHDbRvY.s:2477   .text.HAL_UART_AbortTransmit:00000000 $t
C:\Users\ADMINI~1\AppData\Local\Temp\ccHDbRvY.s:2484   .text.HAL_UART_AbortTransmit:00000000 HAL_UART_AbortTransmit
C:\Users\ADMINI~1\AppData\Local\Temp\ccHDbRvY.s:2568   .text.HAL_UART_AbortReceive:00000000 $t
C:\Users\ADMINI~1\AppData\Local\Temp\ccHDbRvY.s:2575   .text.HAL_UART_AbortReceive:00000000 HAL_UART_AbortReceive
C:\Users\ADMINI~1\AppData\Local\Temp\ccHDbRvY.s:2672   .text.HAL_UART_Abort_IT:00000000 $t
C:\Users\ADMINI~1\AppData\Local\Temp\ccHDbRvY.s:2679   .text.HAL_UART_Abort_IT:00000000 HAL_UART_Abort_IT
C:\Users\ADMINI~1\AppData\Local\Temp\ccHDbRvY.s:3818   .text.HAL_UART_AbortCpltCallback:00000000 HAL_UART_AbortCpltCallback
C:\Users\ADMINI~1\AppData\Local\Temp\ccHDbRvY.s:2911   .text.HAL_UART_Abort_IT:0000014c $d
ARM GAS  C:\Users\ADMINI~1\AppData\Local\Temp\ccHDbRvY.s 			page 173


C:\Users\ADMINI~1\AppData\Local\Temp\ccHDbRvY.s:6339   .text.UART_DMATxAbortCallback:00000000 UART_DMATxAbortCallback
C:\Users\ADMINI~1\AppData\Local\Temp\ccHDbRvY.s:6434   .text.UART_DMARxAbortCallback:00000000 UART_DMARxAbortCallback
C:\Users\ADMINI~1\AppData\Local\Temp\ccHDbRvY.s:2917   .text.HAL_UART_AbortTransmit_IT:00000000 $t
C:\Users\ADMINI~1\AppData\Local\Temp\ccHDbRvY.s:2924   .text.HAL_UART_AbortTransmit_IT:00000000 HAL_UART_AbortTransmit_IT
C:\Users\ADMINI~1\AppData\Local\Temp\ccHDbRvY.s:3861   .text.HAL_UART_AbortTransmitCpltCallback:00000000 HAL_UART_AbortTransmitCpltCallback
C:\Users\ADMINI~1\AppData\Local\Temp\ccHDbRvY.s:3041   .text.HAL_UART_AbortTransmit_IT:000000a0 $d
C:\Users\ADMINI~1\AppData\Local\Temp\ccHDbRvY.s:6529   .text.UART_DMATxOnlyAbortCallback:00000000 UART_DMATxOnlyAbortCallback
C:\Users\ADMINI~1\AppData\Local\Temp\ccHDbRvY.s:3046   .text.HAL_UART_AbortReceive_IT:00000000 $t
C:\Users\ADMINI~1\AppData\Local\Temp\ccHDbRvY.s:3053   .text.HAL_UART_AbortReceive_IT:00000000 HAL_UART_AbortReceive_IT
C:\Users\ADMINI~1\AppData\Local\Temp\ccHDbRvY.s:3904   .text.HAL_UART_AbortReceiveCpltCallback:00000000 HAL_UART_AbortReceiveCpltCallback
C:\Users\ADMINI~1\AppData\Local\Temp\ccHDbRvY.s:3188   .text.HAL_UART_AbortReceive_IT:000000c0 $d
C:\Users\ADMINI~1\AppData\Local\Temp\ccHDbRvY.s:6582   .text.UART_DMARxOnlyAbortCallback:00000000 UART_DMARxOnlyAbortCallback
C:\Users\ADMINI~1\AppData\Local\Temp\ccHDbRvY.s:3193   .text.HAL_UART_IRQHandler:00000000 $t
C:\Users\ADMINI~1\AppData\Local\Temp\ccHDbRvY.s:3200   .text.HAL_UART_IRQHandler:00000000 HAL_UART_IRQHandler
C:\Users\ADMINI~1\AppData\Local\Temp\ccHDbRvY.s:6863   .text.UART_Receive_IT:00000000 UART_Receive_IT
C:\Users\ADMINI~1\AppData\Local\Temp\ccHDbRvY.s:3775   .text.HAL_UART_ErrorCallback:00000000 HAL_UART_ErrorCallback
C:\Users\ADMINI~1\AppData\Local\Temp\ccHDbRvY.s:6641   .text.UART_Transmit_IT:00000000 UART_Transmit_IT
C:\Users\ADMINI~1\AppData\Local\Temp\ccHDbRvY.s:6794   .text.UART_EndTransmit_IT:00000000 UART_EndTransmit_IT
C:\Users\ADMINI~1\AppData\Local\Temp\ccHDbRvY.s:3591   .text.HAL_UART_IRQHandler:00000244 $d
C:\Users\ADMINI~1\AppData\Local\Temp\ccHDbRvY.s:6286   .text.UART_DMAAbortOnError:00000000 UART_DMAAbortOnError
C:\Users\ADMINI~1\AppData\Local\Temp\ccHDbRvY.s:3596   .text.HAL_UART_TxCpltCallback:00000000 $t
C:\Users\ADMINI~1\AppData\Local\Temp\ccHDbRvY.s:3603   .text.HAL_UART_TxCpltCallback:00000000 HAL_UART_TxCpltCallback
C:\Users\ADMINI~1\AppData\Local\Temp\ccHDbRvY.s:3639   .text.HAL_UART_TxHalfCpltCallback:00000000 $t
C:\Users\ADMINI~1\AppData\Local\Temp\ccHDbRvY.s:3646   .text.HAL_UART_TxHalfCpltCallback:00000000 HAL_UART_TxHalfCpltCallback
C:\Users\ADMINI~1\AppData\Local\Temp\ccHDbRvY.s:3682   .text.HAL_UART_RxCpltCallback:00000000 $t
C:\Users\ADMINI~1\AppData\Local\Temp\ccHDbRvY.s:3689   .text.HAL_UART_RxCpltCallback:00000000 HAL_UART_RxCpltCallback
C:\Users\ADMINI~1\AppData\Local\Temp\ccHDbRvY.s:3725   .text.HAL_UART_RxHalfCpltCallback:00000000 $t
C:\Users\ADMINI~1\AppData\Local\Temp\ccHDbRvY.s:3732   .text.HAL_UART_RxHalfCpltCallback:00000000 HAL_UART_RxHalfCpltCallback
C:\Users\ADMINI~1\AppData\Local\Temp\ccHDbRvY.s:3768   .text.HAL_UART_ErrorCallback:00000000 $t
C:\Users\ADMINI~1\AppData\Local\Temp\ccHDbRvY.s:3811   .text.HAL_UART_AbortCpltCallback:00000000 $t
C:\Users\ADMINI~1\AppData\Local\Temp\ccHDbRvY.s:3854   .text.HAL_UART_AbortTransmitCpltCallback:00000000 $t
C:\Users\ADMINI~1\AppData\Local\Temp\ccHDbRvY.s:3897   .text.HAL_UART_AbortReceiveCpltCallback:00000000 $t
C:\Users\ADMINI~1\AppData\Local\Temp\ccHDbRvY.s:3940   .text.HAL_MultiProcessor_EnableMuteMode:00000000 $t
C:\Users\ADMINI~1\AppData\Local\Temp\ccHDbRvY.s:3947   .text.HAL_MultiProcessor_EnableMuteMode:00000000 HAL_MultiProcessor_EnableMuteMode
C:\Users\ADMINI~1\AppData\Local\Temp\ccHDbRvY.s:4013   .text.HAL_MultiProcessor_DisableMuteMode:00000000 $t
C:\Users\ADMINI~1\AppData\Local\Temp\ccHDbRvY.s:4020   .text.HAL_MultiProcessor_DisableMuteMode:00000000 HAL_MultiProcessor_DisableMuteMode
C:\Users\ADMINI~1\AppData\Local\Temp\ccHDbRvY.s:4086   .text.HAL_MultiProcessor_EnterMuteMode:00000000 $t
C:\Users\ADMINI~1\AppData\Local\Temp\ccHDbRvY.s:4093   .text.HAL_MultiProcessor_EnterMuteMode:00000000 HAL_MultiProcessor_EnterMuteMode
C:\Users\ADMINI~1\AppData\Local\Temp\ccHDbRvY.s:4139   .text.HAL_HalfDuplex_EnableTransmitter:00000000 $t
C:\Users\ADMINI~1\AppData\Local\Temp\ccHDbRvY.s:4146   .text.HAL_HalfDuplex_EnableTransmitter:00000000 HAL_HalfDuplex_EnableTransmitter
C:\Users\ADMINI~1\AppData\Local\Temp\ccHDbRvY.s:4226   .text.HAL_HalfDuplex_EnableReceiver:00000000 $t
C:\Users\ADMINI~1\AppData\Local\Temp\ccHDbRvY.s:4233   .text.HAL_HalfDuplex_EnableReceiver:00000000 HAL_HalfDuplex_EnableReceiver
C:\Users\ADMINI~1\AppData\Local\Temp\ccHDbRvY.s:4313   .text.HAL_LIN_SendBreak:00000000 $t
C:\Users\ADMINI~1\AppData\Local\Temp\ccHDbRvY.s:4320   .text.HAL_LIN_SendBreak:00000000 HAL_LIN_SendBreak
C:\Users\ADMINI~1\AppData\Local\Temp\ccHDbRvY.s:4397   .text.HAL_UART_GetState:00000000 $t
C:\Users\ADMINI~1\AppData\Local\Temp\ccHDbRvY.s:4404   .text.HAL_UART_GetState:00000000 HAL_UART_GetState
C:\Users\ADMINI~1\AppData\Local\Temp\ccHDbRvY.s:4465   .text.HAL_UART_GetError:00000000 $t
C:\Users\ADMINI~1\AppData\Local\Temp\ccHDbRvY.s:4472   .text.HAL_UART_GetError:00000000 HAL_UART_GetError
C:\Users\ADMINI~1\AppData\Local\Temp\ccHDbRvY.s:4512   .text.UART_SetConfig:00000000 $t
C:\Users\ADMINI~1\AppData\Local\Temp\ccHDbRvY.s:4644   .text.UART_SetConfig:000000ac $d
C:\Users\ADMINI~1\AppData\Local\Temp\ccHDbRvY.s:4648   .text.UART_SetConfig:000000bc $t
C:\Users\ADMINI~1\AppData\Local\Temp\ccHDbRvY.s:4691   .text.UART_SetConfig:000000f8 $d
C:\Users\ADMINI~1\AppData\Local\Temp\ccHDbRvY.s:4704   .text.UART_SetConfig:0000012c $t
C:\Users\ADMINI~1\AppData\Local\Temp\ccHDbRvY.s:4852   .text.UART_SetConfig:0000020c $d
C:\Users\ADMINI~1\AppData\Local\Temp\ccHDbRvY.s:4861   .text.UART_SetConfig:00000230 $t
C:\Users\ADMINI~1\AppData\Local\Temp\ccHDbRvY.s:4931   .text.UART_SetConfig:0000028c $d
C:\Users\ADMINI~1\AppData\Local\Temp\ccHDbRvY.s:4940   .text.UART_SetConfig:000002b0 $t
ARM GAS  C:\Users\ADMINI~1\AppData\Local\Temp\ccHDbRvY.s 			page 174


C:\Users\ADMINI~1\AppData\Local\Temp\ccHDbRvY.s:4978   .text.UART_SetConfig:000002fc $d
C:\Users\ADMINI~1\AppData\Local\Temp\ccHDbRvY.s:4987   .text.UART_SetConfig:00000318 $t
C:\Users\ADMINI~1\AppData\Local\Temp\ccHDbRvY.s:5110   .text.UART_SetConfig:00000408 $d
C:\Users\ADMINI~1\AppData\Local\Temp\ccHDbRvY.s:5119   .text.UART_SetConfig:0000042c $t
C:\Users\ADMINI~1\AppData\Local\Temp\ccHDbRvY.s:5233   .text.UART_SetConfig:000004e8 $d
C:\Users\ADMINI~1\AppData\Local\Temp\ccHDbRvY.s:5242   .text.UART_SetConfig:0000050c $t
C:\Users\ADMINI~1\AppData\Local\Temp\ccHDbRvY.s:5362   .text.UART_SetConfig:000005bc $d
C:\Users\ADMINI~1\AppData\Local\Temp\ccHDbRvY.s:5367   .text.UART_AdvFeatureConfig:00000000 $t
C:\Users\ADMINI~1\AppData\Local\Temp\ccHDbRvY.s:5579   .text.UART_CheckIdleState:00000000 $t
C:\Users\ADMINI~1\AppData\Local\Temp\ccHDbRvY.s:5695   .text.UART_WaitOnFlagUntilTimeout:00000000 $t
C:\Users\ADMINI~1\AppData\Local\Temp\ccHDbRvY.s:5814   .text.UART_EndTxTransfer:00000000 $t
C:\Users\ADMINI~1\AppData\Local\Temp\ccHDbRvY.s:5868   .text.UART_EndRxTransfer:00000000 $t
C:\Users\ADMINI~1\AppData\Local\Temp\ccHDbRvY.s:5930   .text.UART_DMATransmitCplt:00000000 $t
C:\Users\ADMINI~1\AppData\Local\Temp\ccHDbRvY.s:6007   .text.UART_DMATxHalfCplt:00000000 $t
C:\Users\ADMINI~1\AppData\Local\Temp\ccHDbRvY.s:6052   .text.UART_DMAReceiveCplt:00000000 $t
C:\Users\ADMINI~1\AppData\Local\Temp\ccHDbRvY.s:6138   .text.UART_DMARxHalfCplt:00000000 $t
C:\Users\ADMINI~1\AppData\Local\Temp\ccHDbRvY.s:6183   .text.UART_DMAError:00000000 $t
C:\Users\ADMINI~1\AppData\Local\Temp\ccHDbRvY.s:6280   .text.UART_DMAAbortOnError:00000000 $t
C:\Users\ADMINI~1\AppData\Local\Temp\ccHDbRvY.s:6333   .text.UART_DMATxAbortCallback:00000000 $t
C:\Users\ADMINI~1\AppData\Local\Temp\ccHDbRvY.s:6428   .text.UART_DMARxAbortCallback:00000000 $t
C:\Users\ADMINI~1\AppData\Local\Temp\ccHDbRvY.s:6523   .text.UART_DMATxOnlyAbortCallback:00000000 $t
C:\Users\ADMINI~1\AppData\Local\Temp\ccHDbRvY.s:6576   .text.UART_DMARxOnlyAbortCallback:00000000 $t
C:\Users\ADMINI~1\AppData\Local\Temp\ccHDbRvY.s:6634   .text.UART_Transmit_IT:00000000 $t
C:\Users\ADMINI~1\AppData\Local\Temp\ccHDbRvY.s:6787   .text.UART_EndTransmit_IT:00000000 $t
C:\Users\ADMINI~1\AppData\Local\Temp\ccHDbRvY.s:6857   .text.UART_Receive_IT:00000000 $t

UNDEFINED SYMBOLS
HAL_GetTick
HAL_DMA_Start_IT
HAL_DMA_Abort
HAL_DMA_Abort_IT
HAL_UARTEx_WakeupCallback
__aeabi_uldivmod
HAL_RCC_GetPCLK1Freq
HAL_RCC_GetSysClockFreq
HAL_RCC_GetPCLK2Freq
