ARM GAS  C:\Users\ADMINI~1\AppData\Local\Temp\ccYWIBty.s 			page 1


   1              		.cpu cortex-m4
   2              		.eabi_attribute 27, 1
   3              		.eabi_attribute 28, 1
   4              		.eabi_attribute 20, 1
   5              		.eabi_attribute 21, 1
   6              		.eabi_attribute 23, 3
   7              		.eabi_attribute 24, 1
   8              		.eabi_attribute 25, 1
   9              		.eabi_attribute 26, 1
  10              		.eabi_attribute 30, 6
  11              		.eabi_attribute 34, 1
  12              		.eabi_attribute 18, 4
  13              		.file	"stm32l4xx_hal_tim_ex.c"
  14              		.text
  15              	.Ltext0:
  16              		.cfi_sections	.debug_frame
  17              		.section	.text.HAL_TIMEx_HallSensor_Init,"ax",%progbits
  18              		.align	1
  19              		.global	HAL_TIMEx_HallSensor_Init
  20              		.arch armv7e-m
  21              		.syntax unified
  22              		.thumb
  23              		.thumb_func
  24              		.fpu fpv4-sp-d16
  26              	HAL_TIMEx_HallSensor_Init:
  27              	.LFB287:
  28              		.file 1 "d:/LiteOS_Lab/drivers/third_party/ST/STM32L4xx_HAL_Driver/Src/stm32l4xx_hal_tim_ex.c"
   1:d:/LiteOS_Lab/drivers/third_party/ST/STM32L4xx_HAL_Driver/Src\stm32l4xx_hal_tim_ex.c **** /**
   2:d:/LiteOS_Lab/drivers/third_party/ST/STM32L4xx_HAL_Driver/Src\stm32l4xx_hal_tim_ex.c ****   ******************************************************************************
   3:d:/LiteOS_Lab/drivers/third_party/ST/STM32L4xx_HAL_Driver/Src\stm32l4xx_hal_tim_ex.c ****   * @file    stm32l4xx_hal_tim_ex.c
   4:d:/LiteOS_Lab/drivers/third_party/ST/STM32L4xx_HAL_Driver/Src\stm32l4xx_hal_tim_ex.c ****   * @author  MCD Application Team
   5:d:/LiteOS_Lab/drivers/third_party/ST/STM32L4xx_HAL_Driver/Src\stm32l4xx_hal_tim_ex.c ****   * @brief   TIM HAL module driver.
   6:d:/LiteOS_Lab/drivers/third_party/ST/STM32L4xx_HAL_Driver/Src\stm32l4xx_hal_tim_ex.c ****   *          This file provides firmware functions to manage the following
   7:d:/LiteOS_Lab/drivers/third_party/ST/STM32L4xx_HAL_Driver/Src\stm32l4xx_hal_tim_ex.c ****   *          functionalities of the Timer Extended peripheral:
   8:d:/LiteOS_Lab/drivers/third_party/ST/STM32L4xx_HAL_Driver/Src\stm32l4xx_hal_tim_ex.c ****   *           + Time Hall Sensor Interface Initialization
   9:d:/LiteOS_Lab/drivers/third_party/ST/STM32L4xx_HAL_Driver/Src\stm32l4xx_hal_tim_ex.c ****   *           + Time Hall Sensor Interface Start
  10:d:/LiteOS_Lab/drivers/third_party/ST/STM32L4xx_HAL_Driver/Src\stm32l4xx_hal_tim_ex.c ****   *           + Time Complementary signal break and dead time configuration
  11:d:/LiteOS_Lab/drivers/third_party/ST/STM32L4xx_HAL_Driver/Src\stm32l4xx_hal_tim_ex.c ****   *           + Time Master and Slave synchronization configuration
  12:d:/LiteOS_Lab/drivers/third_party/ST/STM32L4xx_HAL_Driver/Src\stm32l4xx_hal_tim_ex.c ****   *           + Time Output Compare/PWM Channel Configuration (for channels 5 and 6)
  13:d:/LiteOS_Lab/drivers/third_party/ST/STM32L4xx_HAL_Driver/Src\stm32l4xx_hal_tim_ex.c ****   *           + Time OCRef clear configuration
  14:d:/LiteOS_Lab/drivers/third_party/ST/STM32L4xx_HAL_Driver/Src\stm32l4xx_hal_tim_ex.c ****   *           + Timer remapping capabilities configuration
  15:d:/LiteOS_Lab/drivers/third_party/ST/STM32L4xx_HAL_Driver/Src\stm32l4xx_hal_tim_ex.c ****   @verbatim
  16:d:/LiteOS_Lab/drivers/third_party/ST/STM32L4xx_HAL_Driver/Src\stm32l4xx_hal_tim_ex.c ****   ==============================================================================
  17:d:/LiteOS_Lab/drivers/third_party/ST/STM32L4xx_HAL_Driver/Src\stm32l4xx_hal_tim_ex.c ****                       ##### TIMER Extended features #####
  18:d:/LiteOS_Lab/drivers/third_party/ST/STM32L4xx_HAL_Driver/Src\stm32l4xx_hal_tim_ex.c ****   ==============================================================================
  19:d:/LiteOS_Lab/drivers/third_party/ST/STM32L4xx_HAL_Driver/Src\stm32l4xx_hal_tim_ex.c ****   [..]
  20:d:/LiteOS_Lab/drivers/third_party/ST/STM32L4xx_HAL_Driver/Src\stm32l4xx_hal_tim_ex.c ****     The Timer Extended features include:
  21:d:/LiteOS_Lab/drivers/third_party/ST/STM32L4xx_HAL_Driver/Src\stm32l4xx_hal_tim_ex.c ****     (#) Complementary outputs with programmable dead-time for :
  22:d:/LiteOS_Lab/drivers/third_party/ST/STM32L4xx_HAL_Driver/Src\stm32l4xx_hal_tim_ex.c ****         (++) Output Compare
  23:d:/LiteOS_Lab/drivers/third_party/ST/STM32L4xx_HAL_Driver/Src\stm32l4xx_hal_tim_ex.c ****         (++) PWM generation (Edge and Center-aligned Mode)
  24:d:/LiteOS_Lab/drivers/third_party/ST/STM32L4xx_HAL_Driver/Src\stm32l4xx_hal_tim_ex.c ****         (++) One-pulse mode output
  25:d:/LiteOS_Lab/drivers/third_party/ST/STM32L4xx_HAL_Driver/Src\stm32l4xx_hal_tim_ex.c ****     (#) Synchronization circuit to control the timer with external signals and to
  26:d:/LiteOS_Lab/drivers/third_party/ST/STM32L4xx_HAL_Driver/Src\stm32l4xx_hal_tim_ex.c ****         interconnect several timers together.
  27:d:/LiteOS_Lab/drivers/third_party/ST/STM32L4xx_HAL_Driver/Src\stm32l4xx_hal_tim_ex.c ****     (#) Break input to put the timer output signals in reset state or in a known state.
  28:d:/LiteOS_Lab/drivers/third_party/ST/STM32L4xx_HAL_Driver/Src\stm32l4xx_hal_tim_ex.c ****     (#) Supports incremental (quadrature) encoder and hall-sensor circuitry for
  29:d:/LiteOS_Lab/drivers/third_party/ST/STM32L4xx_HAL_Driver/Src\stm32l4xx_hal_tim_ex.c ****         positioning purposes
  30:d:/LiteOS_Lab/drivers/third_party/ST/STM32L4xx_HAL_Driver/Src\stm32l4xx_hal_tim_ex.c **** 
ARM GAS  C:\Users\ADMINI~1\AppData\Local\Temp\ccYWIBty.s 			page 2


  31:d:/LiteOS_Lab/drivers/third_party/ST/STM32L4xx_HAL_Driver/Src\stm32l4xx_hal_tim_ex.c ****             ##### How to use this driver #####
  32:d:/LiteOS_Lab/drivers/third_party/ST/STM32L4xx_HAL_Driver/Src\stm32l4xx_hal_tim_ex.c ****   ==============================================================================
  33:d:/LiteOS_Lab/drivers/third_party/ST/STM32L4xx_HAL_Driver/Src\stm32l4xx_hal_tim_ex.c ****     [..]
  34:d:/LiteOS_Lab/drivers/third_party/ST/STM32L4xx_HAL_Driver/Src\stm32l4xx_hal_tim_ex.c ****      (#) Initialize the TIM low level resources by implementing the following functions
  35:d:/LiteOS_Lab/drivers/third_party/ST/STM32L4xx_HAL_Driver/Src\stm32l4xx_hal_tim_ex.c ****          depending on the selected feature:
  36:d:/LiteOS_Lab/drivers/third_party/ST/STM32L4xx_HAL_Driver/Src\stm32l4xx_hal_tim_ex.c ****            (++) Hall Sensor output : HAL_TIMEx_HallSensor_MspInit()
  37:d:/LiteOS_Lab/drivers/third_party/ST/STM32L4xx_HAL_Driver/Src\stm32l4xx_hal_tim_ex.c **** 
  38:d:/LiteOS_Lab/drivers/third_party/ST/STM32L4xx_HAL_Driver/Src\stm32l4xx_hal_tim_ex.c ****      (#) Initialize the TIM low level resources :
  39:d:/LiteOS_Lab/drivers/third_party/ST/STM32L4xx_HAL_Driver/Src\stm32l4xx_hal_tim_ex.c ****         (##) Enable the TIM interface clock using __HAL_RCC_TIMx_CLK_ENABLE();
  40:d:/LiteOS_Lab/drivers/third_party/ST/STM32L4xx_HAL_Driver/Src\stm32l4xx_hal_tim_ex.c ****         (##) TIM pins configuration
  41:d:/LiteOS_Lab/drivers/third_party/ST/STM32L4xx_HAL_Driver/Src\stm32l4xx_hal_tim_ex.c ****             (+++) Enable the clock for the TIM GPIOs using the following function:
  42:d:/LiteOS_Lab/drivers/third_party/ST/STM32L4xx_HAL_Driver/Src\stm32l4xx_hal_tim_ex.c ****               __HAL_RCC_GPIOx_CLK_ENABLE();
  43:d:/LiteOS_Lab/drivers/third_party/ST/STM32L4xx_HAL_Driver/Src\stm32l4xx_hal_tim_ex.c ****             (+++) Configure these TIM pins in Alternate function mode using HAL_GPIO_Init();
  44:d:/LiteOS_Lab/drivers/third_party/ST/STM32L4xx_HAL_Driver/Src\stm32l4xx_hal_tim_ex.c **** 
  45:d:/LiteOS_Lab/drivers/third_party/ST/STM32L4xx_HAL_Driver/Src\stm32l4xx_hal_tim_ex.c ****      (#) The external Clock can be configured, if needed (the default clock is the
  46:d:/LiteOS_Lab/drivers/third_party/ST/STM32L4xx_HAL_Driver/Src\stm32l4xx_hal_tim_ex.c ****          internal clock from the APBx), using the following function:
  47:d:/LiteOS_Lab/drivers/third_party/ST/STM32L4xx_HAL_Driver/Src\stm32l4xx_hal_tim_ex.c ****          HAL_TIM_ConfigClockSource, the clock configuration should be done before
  48:d:/LiteOS_Lab/drivers/third_party/ST/STM32L4xx_HAL_Driver/Src\stm32l4xx_hal_tim_ex.c ****          any start function.
  49:d:/LiteOS_Lab/drivers/third_party/ST/STM32L4xx_HAL_Driver/Src\stm32l4xx_hal_tim_ex.c **** 
  50:d:/LiteOS_Lab/drivers/third_party/ST/STM32L4xx_HAL_Driver/Src\stm32l4xx_hal_tim_ex.c ****      (#) Configure the TIM in the desired functioning mode using one of the
  51:d:/LiteOS_Lab/drivers/third_party/ST/STM32L4xx_HAL_Driver/Src\stm32l4xx_hal_tim_ex.c ****          initialization function of this driver:
  52:d:/LiteOS_Lab/drivers/third_party/ST/STM32L4xx_HAL_Driver/Src\stm32l4xx_hal_tim_ex.c ****           (++) HAL_TIMEx_HallSensor_Init() and HAL_TIMEx_ConfigCommutationEvent(): to use the
  53:d:/LiteOS_Lab/drivers/third_party/ST/STM32L4xx_HAL_Driver/Src\stm32l4xx_hal_tim_ex.c ****               Timer Hall Sensor Interface and the commutation event with the corresponding
  54:d:/LiteOS_Lab/drivers/third_party/ST/STM32L4xx_HAL_Driver/Src\stm32l4xx_hal_tim_ex.c ****               Interrupt and DMA request if needed (Note that One Timer is used to interface
  55:d:/LiteOS_Lab/drivers/third_party/ST/STM32L4xx_HAL_Driver/Src\stm32l4xx_hal_tim_ex.c ****              with the Hall sensor Interface and another Timer should be used to use
  56:d:/LiteOS_Lab/drivers/third_party/ST/STM32L4xx_HAL_Driver/Src\stm32l4xx_hal_tim_ex.c ****              the commutation event).
  57:d:/LiteOS_Lab/drivers/third_party/ST/STM32L4xx_HAL_Driver/Src\stm32l4xx_hal_tim_ex.c **** 
  58:d:/LiteOS_Lab/drivers/third_party/ST/STM32L4xx_HAL_Driver/Src\stm32l4xx_hal_tim_ex.c ****      (#) Activate the TIM peripheral using one of the start functions:
  59:d:/LiteOS_Lab/drivers/third_party/ST/STM32L4xx_HAL_Driver/Src\stm32l4xx_hal_tim_ex.c ****            (++) Complementary Output Compare : HAL_TIMEx_OCN_Start(), HAL_TIMEx_OCN_Start_DMA(), HA
  60:d:/LiteOS_Lab/drivers/third_party/ST/STM32L4xx_HAL_Driver/Src\stm32l4xx_hal_tim_ex.c ****            (++) Complementary PWM generation : HAL_TIMEx_PWMN_Start(), HAL_TIMEx_PWMN_Start_DMA(), 
  61:d:/LiteOS_Lab/drivers/third_party/ST/STM32L4xx_HAL_Driver/Src\stm32l4xx_hal_tim_ex.c ****            (++) Complementary One-pulse mode output : HAL_TIMEx_OnePulseN_Start(), HAL_TIMEx_OnePul
  62:d:/LiteOS_Lab/drivers/third_party/ST/STM32L4xx_HAL_Driver/Src\stm32l4xx_hal_tim_ex.c ****            (++) Hall Sensor output : HAL_TIMEx_HallSensor_Start(), HAL_TIMEx_HallSensor_Start_DMA()
  63:d:/LiteOS_Lab/drivers/third_party/ST/STM32L4xx_HAL_Driver/Src\stm32l4xx_hal_tim_ex.c **** 
  64:d:/LiteOS_Lab/drivers/third_party/ST/STM32L4xx_HAL_Driver/Src\stm32l4xx_hal_tim_ex.c **** 
  65:d:/LiteOS_Lab/drivers/third_party/ST/STM32L4xx_HAL_Driver/Src\stm32l4xx_hal_tim_ex.c ****   @endverbatim
  66:d:/LiteOS_Lab/drivers/third_party/ST/STM32L4xx_HAL_Driver/Src\stm32l4xx_hal_tim_ex.c ****   ******************************************************************************
  67:d:/LiteOS_Lab/drivers/third_party/ST/STM32L4xx_HAL_Driver/Src\stm32l4xx_hal_tim_ex.c ****   * @attention
  68:d:/LiteOS_Lab/drivers/third_party/ST/STM32L4xx_HAL_Driver/Src\stm32l4xx_hal_tim_ex.c ****   *
  69:d:/LiteOS_Lab/drivers/third_party/ST/STM32L4xx_HAL_Driver/Src\stm32l4xx_hal_tim_ex.c ****   * <h2><center>&copy; COPYRIGHT(c) 2017 STMicroelectronics</center></h2>
  70:d:/LiteOS_Lab/drivers/third_party/ST/STM32L4xx_HAL_Driver/Src\stm32l4xx_hal_tim_ex.c ****   *
  71:d:/LiteOS_Lab/drivers/third_party/ST/STM32L4xx_HAL_Driver/Src\stm32l4xx_hal_tim_ex.c ****   * Redistribution and use in source and binary forms, with or without modification,
  72:d:/LiteOS_Lab/drivers/third_party/ST/STM32L4xx_HAL_Driver/Src\stm32l4xx_hal_tim_ex.c ****   * are permitted provided that the following conditions are met:
  73:d:/LiteOS_Lab/drivers/third_party/ST/STM32L4xx_HAL_Driver/Src\stm32l4xx_hal_tim_ex.c ****   *   1. Redistributions of source code must retain the above copyright notice,
  74:d:/LiteOS_Lab/drivers/third_party/ST/STM32L4xx_HAL_Driver/Src\stm32l4xx_hal_tim_ex.c ****   *      this list of conditions and the following disclaimer.
  75:d:/LiteOS_Lab/drivers/third_party/ST/STM32L4xx_HAL_Driver/Src\stm32l4xx_hal_tim_ex.c ****   *   2. Redistributions in binary form must reproduce the above copyright notice,
  76:d:/LiteOS_Lab/drivers/third_party/ST/STM32L4xx_HAL_Driver/Src\stm32l4xx_hal_tim_ex.c ****   *      this list of conditions and the following disclaimer in the documentation
  77:d:/LiteOS_Lab/drivers/third_party/ST/STM32L4xx_HAL_Driver/Src\stm32l4xx_hal_tim_ex.c ****   *      and/or other materials provided with the distribution.
  78:d:/LiteOS_Lab/drivers/third_party/ST/STM32L4xx_HAL_Driver/Src\stm32l4xx_hal_tim_ex.c ****   *   3. Neither the name of STMicroelectronics nor the names of its contributors
  79:d:/LiteOS_Lab/drivers/third_party/ST/STM32L4xx_HAL_Driver/Src\stm32l4xx_hal_tim_ex.c ****   *      may be used to endorse or promote products derived from this software
  80:d:/LiteOS_Lab/drivers/third_party/ST/STM32L4xx_HAL_Driver/Src\stm32l4xx_hal_tim_ex.c ****   *      without specific prior written permission.
  81:d:/LiteOS_Lab/drivers/third_party/ST/STM32L4xx_HAL_Driver/Src\stm32l4xx_hal_tim_ex.c ****   *
  82:d:/LiteOS_Lab/drivers/third_party/ST/STM32L4xx_HAL_Driver/Src\stm32l4xx_hal_tim_ex.c ****   * THIS SOFTWARE IS PROVIDED BY THE COPYRIGHT HOLDERS AND CONTRIBUTORS "AS IS"
  83:d:/LiteOS_Lab/drivers/third_party/ST/STM32L4xx_HAL_Driver/Src\stm32l4xx_hal_tim_ex.c ****   * AND ANY EXPRESS OR IMPLIED WARRANTIES, INCLUDING, BUT NOT LIMITED TO, THE
  84:d:/LiteOS_Lab/drivers/third_party/ST/STM32L4xx_HAL_Driver/Src\stm32l4xx_hal_tim_ex.c ****   * IMPLIED WARRANTIES OF MERCHANTABILITY AND FITNESS FOR A PARTICULAR PURPOSE ARE
  85:d:/LiteOS_Lab/drivers/third_party/ST/STM32L4xx_HAL_Driver/Src\stm32l4xx_hal_tim_ex.c ****   * DISCLAIMED. IN NO EVENT SHALL THE COPYRIGHT HOLDER OR CONTRIBUTORS BE LIABLE
  86:d:/LiteOS_Lab/drivers/third_party/ST/STM32L4xx_HAL_Driver/Src\stm32l4xx_hal_tim_ex.c ****   * FOR ANY DIRECT, INDIRECT, INCIDENTAL, SPECIAL, EXEMPLARY, OR CONSEQUENTIAL
  87:d:/LiteOS_Lab/drivers/third_party/ST/STM32L4xx_HAL_Driver/Src\stm32l4xx_hal_tim_ex.c ****   * DAMAGES (INCLUDING, BUT NOT LIMITED TO, PROCUREMENT OF SUBSTITUTE GOODS OR
ARM GAS  C:\Users\ADMINI~1\AppData\Local\Temp\ccYWIBty.s 			page 3


  88:d:/LiteOS_Lab/drivers/third_party/ST/STM32L4xx_HAL_Driver/Src\stm32l4xx_hal_tim_ex.c ****   * SERVICES; LOSS OF USE, DATA, OR PROFITS; OR BUSINESS INTERRUPTION) HOWEVER
  89:d:/LiteOS_Lab/drivers/third_party/ST/STM32L4xx_HAL_Driver/Src\stm32l4xx_hal_tim_ex.c ****   * CAUSED AND ON ANY THEORY OF LIABILITY, WHETHER IN CONTRACT, STRICT LIABILITY,
  90:d:/LiteOS_Lab/drivers/third_party/ST/STM32L4xx_HAL_Driver/Src\stm32l4xx_hal_tim_ex.c ****   * OR TORT (INCLUDING NEGLIGENCE OR OTHERWISE) ARISING IN ANY WAY OUT OF THE USE
  91:d:/LiteOS_Lab/drivers/third_party/ST/STM32L4xx_HAL_Driver/Src\stm32l4xx_hal_tim_ex.c ****   * OF THIS SOFTWARE, EVEN IF ADVISED OF THE POSSIBILITY OF SUCH DAMAGE.
  92:d:/LiteOS_Lab/drivers/third_party/ST/STM32L4xx_HAL_Driver/Src\stm32l4xx_hal_tim_ex.c ****   *
  93:d:/LiteOS_Lab/drivers/third_party/ST/STM32L4xx_HAL_Driver/Src\stm32l4xx_hal_tim_ex.c ****   ******************************************************************************
  94:d:/LiteOS_Lab/drivers/third_party/ST/STM32L4xx_HAL_Driver/Src\stm32l4xx_hal_tim_ex.c **** */
  95:d:/LiteOS_Lab/drivers/third_party/ST/STM32L4xx_HAL_Driver/Src\stm32l4xx_hal_tim_ex.c **** 
  96:d:/LiteOS_Lab/drivers/third_party/ST/STM32L4xx_HAL_Driver/Src\stm32l4xx_hal_tim_ex.c **** /* Includes ------------------------------------------------------------------*/
  97:d:/LiteOS_Lab/drivers/third_party/ST/STM32L4xx_HAL_Driver/Src\stm32l4xx_hal_tim_ex.c **** #include "stm32l4xx_hal.h"
  98:d:/LiteOS_Lab/drivers/third_party/ST/STM32L4xx_HAL_Driver/Src\stm32l4xx_hal_tim_ex.c **** 
  99:d:/LiteOS_Lab/drivers/third_party/ST/STM32L4xx_HAL_Driver/Src\stm32l4xx_hal_tim_ex.c **** /** @addtogroup STM32L4xx_HAL_Driver
 100:d:/LiteOS_Lab/drivers/third_party/ST/STM32L4xx_HAL_Driver/Src\stm32l4xx_hal_tim_ex.c ****   * @{
 101:d:/LiteOS_Lab/drivers/third_party/ST/STM32L4xx_HAL_Driver/Src\stm32l4xx_hal_tim_ex.c ****   */
 102:d:/LiteOS_Lab/drivers/third_party/ST/STM32L4xx_HAL_Driver/Src\stm32l4xx_hal_tim_ex.c **** 
 103:d:/LiteOS_Lab/drivers/third_party/ST/STM32L4xx_HAL_Driver/Src\stm32l4xx_hal_tim_ex.c **** /** @defgroup TIMEx TIMEx
 104:d:/LiteOS_Lab/drivers/third_party/ST/STM32L4xx_HAL_Driver/Src\stm32l4xx_hal_tim_ex.c ****   * @brief TIM Extended HAL module driver
 105:d:/LiteOS_Lab/drivers/third_party/ST/STM32L4xx_HAL_Driver/Src\stm32l4xx_hal_tim_ex.c ****   * @{
 106:d:/LiteOS_Lab/drivers/third_party/ST/STM32L4xx_HAL_Driver/Src\stm32l4xx_hal_tim_ex.c ****   */
 107:d:/LiteOS_Lab/drivers/third_party/ST/STM32L4xx_HAL_Driver/Src\stm32l4xx_hal_tim_ex.c **** 
 108:d:/LiteOS_Lab/drivers/third_party/ST/STM32L4xx_HAL_Driver/Src\stm32l4xx_hal_tim_ex.c **** #ifdef HAL_TIM_MODULE_ENABLED
 109:d:/LiteOS_Lab/drivers/third_party/ST/STM32L4xx_HAL_Driver/Src\stm32l4xx_hal_tim_ex.c **** 
 110:d:/LiteOS_Lab/drivers/third_party/ST/STM32L4xx_HAL_Driver/Src\stm32l4xx_hal_tim_ex.c **** /* Private typedef -----------------------------------------------------------*/
 111:d:/LiteOS_Lab/drivers/third_party/ST/STM32L4xx_HAL_Driver/Src\stm32l4xx_hal_tim_ex.c **** /* Private define ------------------------------------------------------------*/
 112:d:/LiteOS_Lab/drivers/third_party/ST/STM32L4xx_HAL_Driver/Src\stm32l4xx_hal_tim_ex.c **** #define BDTR_BKF_SHIFT (16)
 113:d:/LiteOS_Lab/drivers/third_party/ST/STM32L4xx_HAL_Driver/Src\stm32l4xx_hal_tim_ex.c **** #define BDTR_BK2F_SHIFT (20)
 114:d:/LiteOS_Lab/drivers/third_party/ST/STM32L4xx_HAL_Driver/Src\stm32l4xx_hal_tim_ex.c **** #define TIMx_ETRSEL_MASK ((uint32_t)0x0003C000)
 115:d:/LiteOS_Lab/drivers/third_party/ST/STM32L4xx_HAL_Driver/Src\stm32l4xx_hal_tim_ex.c **** 
 116:d:/LiteOS_Lab/drivers/third_party/ST/STM32L4xx_HAL_Driver/Src\stm32l4xx_hal_tim_ex.c **** /* Private macro -------------------------------------------------------------*/
 117:d:/LiteOS_Lab/drivers/third_party/ST/STM32L4xx_HAL_Driver/Src\stm32l4xx_hal_tim_ex.c **** /* Private variables ---------------------------------------------------------*/
 118:d:/LiteOS_Lab/drivers/third_party/ST/STM32L4xx_HAL_Driver/Src\stm32l4xx_hal_tim_ex.c **** /* Private function prototypes -----------------------------------------------*/
 119:d:/LiteOS_Lab/drivers/third_party/ST/STM32L4xx_HAL_Driver/Src\stm32l4xx_hal_tim_ex.c **** static void TIM_CCxNChannelCmd(TIM_TypeDef* TIMx, uint32_t Channel, uint32_t ChannelNState);
 120:d:/LiteOS_Lab/drivers/third_party/ST/STM32L4xx_HAL_Driver/Src\stm32l4xx_hal_tim_ex.c **** 
 121:d:/LiteOS_Lab/drivers/third_party/ST/STM32L4xx_HAL_Driver/Src\stm32l4xx_hal_tim_ex.c **** /* Private functions ---------------------------------------------------------*/
 122:d:/LiteOS_Lab/drivers/third_party/ST/STM32L4xx_HAL_Driver/Src\stm32l4xx_hal_tim_ex.c **** 
 123:d:/LiteOS_Lab/drivers/third_party/ST/STM32L4xx_HAL_Driver/Src\stm32l4xx_hal_tim_ex.c **** /* Exported functions --------------------------------------------------------*/
 124:d:/LiteOS_Lab/drivers/third_party/ST/STM32L4xx_HAL_Driver/Src\stm32l4xx_hal_tim_ex.c **** /** @defgroup TIMEx_Exported_Functions TIM Extended Exported Functions
 125:d:/LiteOS_Lab/drivers/third_party/ST/STM32L4xx_HAL_Driver/Src\stm32l4xx_hal_tim_ex.c ****   * @{
 126:d:/LiteOS_Lab/drivers/third_party/ST/STM32L4xx_HAL_Driver/Src\stm32l4xx_hal_tim_ex.c ****   */
 127:d:/LiteOS_Lab/drivers/third_party/ST/STM32L4xx_HAL_Driver/Src\stm32l4xx_hal_tim_ex.c **** 
 128:d:/LiteOS_Lab/drivers/third_party/ST/STM32L4xx_HAL_Driver/Src\stm32l4xx_hal_tim_ex.c **** /** @defgroup TIMEx_Exported_Functions_Group1 Extended Timer Hall Sensor functions
 129:d:/LiteOS_Lab/drivers/third_party/ST/STM32L4xx_HAL_Driver/Src\stm32l4xx_hal_tim_ex.c ****   * @brief    Timer Hall Sensor functions
 130:d:/LiteOS_Lab/drivers/third_party/ST/STM32L4xx_HAL_Driver/Src\stm32l4xx_hal_tim_ex.c ****   *
 131:d:/LiteOS_Lab/drivers/third_party/ST/STM32L4xx_HAL_Driver/Src\stm32l4xx_hal_tim_ex.c **** @verbatim
 132:d:/LiteOS_Lab/drivers/third_party/ST/STM32L4xx_HAL_Driver/Src\stm32l4xx_hal_tim_ex.c ****   ==============================================================================
 133:d:/LiteOS_Lab/drivers/third_party/ST/STM32L4xx_HAL_Driver/Src\stm32l4xx_hal_tim_ex.c ****                       ##### Timer Hall Sensor functions #####
 134:d:/LiteOS_Lab/drivers/third_party/ST/STM32L4xx_HAL_Driver/Src\stm32l4xx_hal_tim_ex.c ****   ==============================================================================
 135:d:/LiteOS_Lab/drivers/third_party/ST/STM32L4xx_HAL_Driver/Src\stm32l4xx_hal_tim_ex.c ****   [..]
 136:d:/LiteOS_Lab/drivers/third_party/ST/STM32L4xx_HAL_Driver/Src\stm32l4xx_hal_tim_ex.c ****     This section provides functions allowing to:
 137:d:/LiteOS_Lab/drivers/third_party/ST/STM32L4xx_HAL_Driver/Src\stm32l4xx_hal_tim_ex.c ****     (+) Initialize and configure TIM HAL Sensor.
 138:d:/LiteOS_Lab/drivers/third_party/ST/STM32L4xx_HAL_Driver/Src\stm32l4xx_hal_tim_ex.c ****     (+) De-initialize TIM HAL Sensor.
 139:d:/LiteOS_Lab/drivers/third_party/ST/STM32L4xx_HAL_Driver/Src\stm32l4xx_hal_tim_ex.c ****     (+) Start the Hall Sensor Interface.
 140:d:/LiteOS_Lab/drivers/third_party/ST/STM32L4xx_HAL_Driver/Src\stm32l4xx_hal_tim_ex.c ****     (+) Stop the Hall Sensor Interface.
 141:d:/LiteOS_Lab/drivers/third_party/ST/STM32L4xx_HAL_Driver/Src\stm32l4xx_hal_tim_ex.c ****     (+) Start the Hall Sensor Interface and enable interrupts.
 142:d:/LiteOS_Lab/drivers/third_party/ST/STM32L4xx_HAL_Driver/Src\stm32l4xx_hal_tim_ex.c ****     (+) Stop the Hall Sensor Interface and disable interrupts.
 143:d:/LiteOS_Lab/drivers/third_party/ST/STM32L4xx_HAL_Driver/Src\stm32l4xx_hal_tim_ex.c ****     (+) Start the Hall Sensor Interface and enable DMA transfers.
 144:d:/LiteOS_Lab/drivers/third_party/ST/STM32L4xx_HAL_Driver/Src\stm32l4xx_hal_tim_ex.c ****     (+) Stop the Hall Sensor Interface and disable DMA transfers.
ARM GAS  C:\Users\ADMINI~1\AppData\Local\Temp\ccYWIBty.s 			page 4


 145:d:/LiteOS_Lab/drivers/third_party/ST/STM32L4xx_HAL_Driver/Src\stm32l4xx_hal_tim_ex.c **** 
 146:d:/LiteOS_Lab/drivers/third_party/ST/STM32L4xx_HAL_Driver/Src\stm32l4xx_hal_tim_ex.c **** @endverbatim
 147:d:/LiteOS_Lab/drivers/third_party/ST/STM32L4xx_HAL_Driver/Src\stm32l4xx_hal_tim_ex.c ****   * @{
 148:d:/LiteOS_Lab/drivers/third_party/ST/STM32L4xx_HAL_Driver/Src\stm32l4xx_hal_tim_ex.c ****   */
 149:d:/LiteOS_Lab/drivers/third_party/ST/STM32L4xx_HAL_Driver/Src\stm32l4xx_hal_tim_ex.c **** /**
 150:d:/LiteOS_Lab/drivers/third_party/ST/STM32L4xx_HAL_Driver/Src\stm32l4xx_hal_tim_ex.c ****   * @brief  Initializes the TIM Hall Sensor Interface and initialize the associated handle.
 151:d:/LiteOS_Lab/drivers/third_party/ST/STM32L4xx_HAL_Driver/Src\stm32l4xx_hal_tim_ex.c ****   * @param  htim TIM Encoder Interface handle
 152:d:/LiteOS_Lab/drivers/third_party/ST/STM32L4xx_HAL_Driver/Src\stm32l4xx_hal_tim_ex.c ****   * @param  sConfig TIM Hall Sensor configuration structure
 153:d:/LiteOS_Lab/drivers/third_party/ST/STM32L4xx_HAL_Driver/Src\stm32l4xx_hal_tim_ex.c ****   * @retval HAL status
 154:d:/LiteOS_Lab/drivers/third_party/ST/STM32L4xx_HAL_Driver/Src\stm32l4xx_hal_tim_ex.c ****   */
 155:d:/LiteOS_Lab/drivers/third_party/ST/STM32L4xx_HAL_Driver/Src\stm32l4xx_hal_tim_ex.c **** HAL_StatusTypeDef HAL_TIMEx_HallSensor_Init(TIM_HandleTypeDef *htim, TIM_HallSensor_InitTypeDef* sC
 156:d:/LiteOS_Lab/drivers/third_party/ST/STM32L4xx_HAL_Driver/Src\stm32l4xx_hal_tim_ex.c **** {
  29              		.loc 1 156 1
  30              		.cfi_startproc
  31              		@ args = 0, pretend = 0, frame = 40
  32              		@ frame_needed = 1, uses_anonymous_args = 0
  33 0000 80B5     		push	{r7, lr}
  34              	.LCFI0:
  35              		.cfi_def_cfa_offset 8
  36              		.cfi_offset 7, -8
  37              		.cfi_offset 14, -4
  38 0002 8AB0     		sub	sp, sp, #40
  39              	.LCFI1:
  40              		.cfi_def_cfa_offset 48
  41 0004 00AF     		add	r7, sp, #0
  42              	.LCFI2:
  43              		.cfi_def_cfa_register 7
  44 0006 7860     		str	r0, [r7, #4]
  45 0008 3960     		str	r1, [r7]
 157:d:/LiteOS_Lab/drivers/third_party/ST/STM32L4xx_HAL_Driver/Src\stm32l4xx_hal_tim_ex.c ****   TIM_OC_InitTypeDef OC_Config;
 158:d:/LiteOS_Lab/drivers/third_party/ST/STM32L4xx_HAL_Driver/Src\stm32l4xx_hal_tim_ex.c **** 
 159:d:/LiteOS_Lab/drivers/third_party/ST/STM32L4xx_HAL_Driver/Src\stm32l4xx_hal_tim_ex.c ****   /* Check the TIM handle allocation */
 160:d:/LiteOS_Lab/drivers/third_party/ST/STM32L4xx_HAL_Driver/Src\stm32l4xx_hal_tim_ex.c ****   if(htim == NULL)
  46              		.loc 1 160 5
  47 000a 7B68     		ldr	r3, [r7, #4]
  48 000c 002B     		cmp	r3, #0
  49 000e 01D1     		bne	.L2
 161:d:/LiteOS_Lab/drivers/third_party/ST/STM32L4xx_HAL_Driver/Src\stm32l4xx_hal_tim_ex.c ****   {
 162:d:/LiteOS_Lab/drivers/third_party/ST/STM32L4xx_HAL_Driver/Src\stm32l4xx_hal_tim_ex.c ****     return HAL_ERROR;
  50              		.loc 1 162 12
  51 0010 0123     		movs	r3, #1
  52 0012 88E0     		b	.L5
  53              	.L2:
 163:d:/LiteOS_Lab/drivers/third_party/ST/STM32L4xx_HAL_Driver/Src\stm32l4xx_hal_tim_ex.c ****   }
 164:d:/LiteOS_Lab/drivers/third_party/ST/STM32L4xx_HAL_Driver/Src\stm32l4xx_hal_tim_ex.c **** 
 165:d:/LiteOS_Lab/drivers/third_party/ST/STM32L4xx_HAL_Driver/Src\stm32l4xx_hal_tim_ex.c ****   assert_param(IS_TIM_HALL_SENSOR_INTERFACE_INSTANCE(htim->Instance));
 166:d:/LiteOS_Lab/drivers/third_party/ST/STM32L4xx_HAL_Driver/Src\stm32l4xx_hal_tim_ex.c ****   assert_param(IS_TIM_COUNTER_MODE(htim->Init.CounterMode));
 167:d:/LiteOS_Lab/drivers/third_party/ST/STM32L4xx_HAL_Driver/Src\stm32l4xx_hal_tim_ex.c ****   assert_param(IS_TIM_CLOCKDIVISION_DIV(htim->Init.ClockDivision));
 168:d:/LiteOS_Lab/drivers/third_party/ST/STM32L4xx_HAL_Driver/Src\stm32l4xx_hal_tim_ex.c ****   assert_param(IS_TIM_AUTORELOAD_PRELOAD(htim->Init.AutoReloadPreload));
 169:d:/LiteOS_Lab/drivers/third_party/ST/STM32L4xx_HAL_Driver/Src\stm32l4xx_hal_tim_ex.c ****   assert_param(IS_TIM_IC_POLARITY(sConfig->IC1Polarity));
 170:d:/LiteOS_Lab/drivers/third_party/ST/STM32L4xx_HAL_Driver/Src\stm32l4xx_hal_tim_ex.c ****   assert_param(IS_TIM_IC_PRESCALER(sConfig->IC1Prescaler));
 171:d:/LiteOS_Lab/drivers/third_party/ST/STM32L4xx_HAL_Driver/Src\stm32l4xx_hal_tim_ex.c ****   assert_param(IS_TIM_IC_FILTER(sConfig->IC1Filter));
 172:d:/LiteOS_Lab/drivers/third_party/ST/STM32L4xx_HAL_Driver/Src\stm32l4xx_hal_tim_ex.c **** 
 173:d:/LiteOS_Lab/drivers/third_party/ST/STM32L4xx_HAL_Driver/Src\stm32l4xx_hal_tim_ex.c ****   if(htim->State == HAL_TIM_STATE_RESET)
  54              		.loc 1 173 10
  55 0014 7B68     		ldr	r3, [r7, #4]
  56 0016 93F83D30 		ldrb	r3, [r3, #61]
ARM GAS  C:\Users\ADMINI~1\AppData\Local\Temp\ccYWIBty.s 			page 5


  57 001a DBB2     		uxtb	r3, r3
  58              		.loc 1 173 5
  59 001c 002B     		cmp	r3, #0
  60 001e 06D1     		bne	.L4
 174:d:/LiteOS_Lab/drivers/third_party/ST/STM32L4xx_HAL_Driver/Src\stm32l4xx_hal_tim_ex.c ****   {
 175:d:/LiteOS_Lab/drivers/third_party/ST/STM32L4xx_HAL_Driver/Src\stm32l4xx_hal_tim_ex.c ****     /* Allocate lock resource and initialize it */
 176:d:/LiteOS_Lab/drivers/third_party/ST/STM32L4xx_HAL_Driver/Src\stm32l4xx_hal_tim_ex.c ****     htim->Lock = HAL_UNLOCKED;
  61              		.loc 1 176 16
  62 0020 7B68     		ldr	r3, [r7, #4]
  63 0022 0022     		movs	r2, #0
  64 0024 83F83C20 		strb	r2, [r3, #60]
 177:d:/LiteOS_Lab/drivers/third_party/ST/STM32L4xx_HAL_Driver/Src\stm32l4xx_hal_tim_ex.c **** 
 178:d:/LiteOS_Lab/drivers/third_party/ST/STM32L4xx_HAL_Driver/Src\stm32l4xx_hal_tim_ex.c ****     /* Init the low level hardware : GPIO, CLOCK, NVIC and DMA */
 179:d:/LiteOS_Lab/drivers/third_party/ST/STM32L4xx_HAL_Driver/Src\stm32l4xx_hal_tim_ex.c ****     HAL_TIMEx_HallSensor_MspInit(htim);
  65              		.loc 1 179 5
  66 0028 7868     		ldr	r0, [r7, #4]
  67 002a FFF7FEFF 		bl	HAL_TIMEx_HallSensor_MspInit
  68              	.L4:
 180:d:/LiteOS_Lab/drivers/third_party/ST/STM32L4xx_HAL_Driver/Src\stm32l4xx_hal_tim_ex.c ****   }
 181:d:/LiteOS_Lab/drivers/third_party/ST/STM32L4xx_HAL_Driver/Src\stm32l4xx_hal_tim_ex.c **** 
 182:d:/LiteOS_Lab/drivers/third_party/ST/STM32L4xx_HAL_Driver/Src\stm32l4xx_hal_tim_ex.c ****   /* Set the TIM state */
 183:d:/LiteOS_Lab/drivers/third_party/ST/STM32L4xx_HAL_Driver/Src\stm32l4xx_hal_tim_ex.c ****   htim->State = HAL_TIM_STATE_BUSY;
  69              		.loc 1 183 15
  70 002e 7B68     		ldr	r3, [r7, #4]
  71 0030 0222     		movs	r2, #2
  72 0032 83F83D20 		strb	r2, [r3, #61]
 184:d:/LiteOS_Lab/drivers/third_party/ST/STM32L4xx_HAL_Driver/Src\stm32l4xx_hal_tim_ex.c **** 
 185:d:/LiteOS_Lab/drivers/third_party/ST/STM32L4xx_HAL_Driver/Src\stm32l4xx_hal_tim_ex.c ****   /* Configure the Time base in the Encoder Mode */
 186:d:/LiteOS_Lab/drivers/third_party/ST/STM32L4xx_HAL_Driver/Src\stm32l4xx_hal_tim_ex.c ****   TIM_Base_SetConfig(htim->Instance, &htim->Init);
  73              		.loc 1 186 3
  74 0036 7B68     		ldr	r3, [r7, #4]
  75 0038 1A68     		ldr	r2, [r3]
  76 003a 7B68     		ldr	r3, [r7, #4]
  77 003c 0433     		adds	r3, r3, #4
  78 003e 1946     		mov	r1, r3
  79 0040 1046     		mov	r0, r2
  80 0042 FFF7FEFF 		bl	TIM_Base_SetConfig
 187:d:/LiteOS_Lab/drivers/third_party/ST/STM32L4xx_HAL_Driver/Src\stm32l4xx_hal_tim_ex.c **** 
 188:d:/LiteOS_Lab/drivers/third_party/ST/STM32L4xx_HAL_Driver/Src\stm32l4xx_hal_tim_ex.c ****   /* Configure the Channel 1 as Input Channel to interface with the three Outputs of the  Hall sens
 189:d:/LiteOS_Lab/drivers/third_party/ST/STM32L4xx_HAL_Driver/Src\stm32l4xx_hal_tim_ex.c ****   TIM_TI1_SetConfig(htim->Instance, sConfig->IC1Polarity, TIM_ICSELECTION_TRC, sConfig->IC1Filter);
  81              		.loc 1 189 3
  82 0046 7B68     		ldr	r3, [r7, #4]
  83 0048 1868     		ldr	r0, [r3]
  84 004a 3B68     		ldr	r3, [r7]
  85 004c 1968     		ldr	r1, [r3]
  86 004e 3B68     		ldr	r3, [r7]
  87 0050 9B68     		ldr	r3, [r3, #8]
  88 0052 0322     		movs	r2, #3
  89 0054 FFF7FEFF 		bl	TIM_TI1_SetConfig
 190:d:/LiteOS_Lab/drivers/third_party/ST/STM32L4xx_HAL_Driver/Src\stm32l4xx_hal_tim_ex.c **** 
 191:d:/LiteOS_Lab/drivers/third_party/ST/STM32L4xx_HAL_Driver/Src\stm32l4xx_hal_tim_ex.c ****   /* Reset the IC1PSC Bits */
 192:d:/LiteOS_Lab/drivers/third_party/ST/STM32L4xx_HAL_Driver/Src\stm32l4xx_hal_tim_ex.c ****   htim->Instance->CCMR1 &= ~TIM_CCMR1_IC1PSC;
  90              		.loc 1 192 7
  91 0058 7B68     		ldr	r3, [r7, #4]
  92 005a 1B68     		ldr	r3, [r3]
  93              		.loc 1 192 25
  94 005c 9A69     		ldr	r2, [r3, #24]
ARM GAS  C:\Users\ADMINI~1\AppData\Local\Temp\ccYWIBty.s 			page 6


  95              		.loc 1 192 7
  96 005e 7B68     		ldr	r3, [r7, #4]
  97 0060 1B68     		ldr	r3, [r3]
  98              		.loc 1 192 25
  99 0062 22F00C02 		bic	r2, r2, #12
 100 0066 9A61     		str	r2, [r3, #24]
 193:d:/LiteOS_Lab/drivers/third_party/ST/STM32L4xx_HAL_Driver/Src\stm32l4xx_hal_tim_ex.c ****   /* Set the IC1PSC value */
 194:d:/LiteOS_Lab/drivers/third_party/ST/STM32L4xx_HAL_Driver/Src\stm32l4xx_hal_tim_ex.c ****   htim->Instance->CCMR1 |= sConfig->IC1Prescaler;
 101              		.loc 1 194 7
 102 0068 7B68     		ldr	r3, [r7, #4]
 103 006a 1B68     		ldr	r3, [r3]
 104              		.loc 1 194 25
 105 006c 9969     		ldr	r1, [r3, #24]
 106              		.loc 1 194 35
 107 006e 3B68     		ldr	r3, [r7]
 108 0070 5A68     		ldr	r2, [r3, #4]
 109              		.loc 1 194 7
 110 0072 7B68     		ldr	r3, [r7, #4]
 111 0074 1B68     		ldr	r3, [r3]
 112              		.loc 1 194 25
 113 0076 0A43     		orrs	r2, r2, r1
 114 0078 9A61     		str	r2, [r3, #24]
 195:d:/LiteOS_Lab/drivers/third_party/ST/STM32L4xx_HAL_Driver/Src\stm32l4xx_hal_tim_ex.c **** 
 196:d:/LiteOS_Lab/drivers/third_party/ST/STM32L4xx_HAL_Driver/Src\stm32l4xx_hal_tim_ex.c ****   /* Enable the Hall sensor interface (XOR function of the three inputs) */
 197:d:/LiteOS_Lab/drivers/third_party/ST/STM32L4xx_HAL_Driver/Src\stm32l4xx_hal_tim_ex.c ****   htim->Instance->CR2 |= TIM_CR2_TI1S;
 115              		.loc 1 197 7
 116 007a 7B68     		ldr	r3, [r7, #4]
 117 007c 1B68     		ldr	r3, [r3]
 118              		.loc 1 197 23
 119 007e 5A68     		ldr	r2, [r3, #4]
 120              		.loc 1 197 7
 121 0080 7B68     		ldr	r3, [r7, #4]
 122 0082 1B68     		ldr	r3, [r3]
 123              		.loc 1 197 23
 124 0084 42F08002 		orr	r2, r2, #128
 125 0088 5A60     		str	r2, [r3, #4]
 198:d:/LiteOS_Lab/drivers/third_party/ST/STM32L4xx_HAL_Driver/Src\stm32l4xx_hal_tim_ex.c **** 
 199:d:/LiteOS_Lab/drivers/third_party/ST/STM32L4xx_HAL_Driver/Src\stm32l4xx_hal_tim_ex.c ****   /* Select the TIM_TS_TI1F_ED signal as Input trigger for the TIM */
 200:d:/LiteOS_Lab/drivers/third_party/ST/STM32L4xx_HAL_Driver/Src\stm32l4xx_hal_tim_ex.c ****   htim->Instance->SMCR &= ~TIM_SMCR_TS;
 126              		.loc 1 200 7
 127 008a 7B68     		ldr	r3, [r7, #4]
 128 008c 1B68     		ldr	r3, [r3]
 129              		.loc 1 200 24
 130 008e 9A68     		ldr	r2, [r3, #8]
 131              		.loc 1 200 7
 132 0090 7B68     		ldr	r3, [r7, #4]
 133 0092 1B68     		ldr	r3, [r3]
 134              		.loc 1 200 24
 135 0094 22F07002 		bic	r2, r2, #112
 136 0098 9A60     		str	r2, [r3, #8]
 201:d:/LiteOS_Lab/drivers/third_party/ST/STM32L4xx_HAL_Driver/Src\stm32l4xx_hal_tim_ex.c ****   htim->Instance->SMCR |= TIM_TS_TI1F_ED;
 137              		.loc 1 201 7
 138 009a 7B68     		ldr	r3, [r7, #4]
 139 009c 1B68     		ldr	r3, [r3]
 140              		.loc 1 201 24
 141 009e 9A68     		ldr	r2, [r3, #8]
 142              		.loc 1 201 7
ARM GAS  C:\Users\ADMINI~1\AppData\Local\Temp\ccYWIBty.s 			page 7


 143 00a0 7B68     		ldr	r3, [r7, #4]
 144 00a2 1B68     		ldr	r3, [r3]
 145              		.loc 1 201 24
 146 00a4 42F04002 		orr	r2, r2, #64
 147 00a8 9A60     		str	r2, [r3, #8]
 202:d:/LiteOS_Lab/drivers/third_party/ST/STM32L4xx_HAL_Driver/Src\stm32l4xx_hal_tim_ex.c **** 
 203:d:/LiteOS_Lab/drivers/third_party/ST/STM32L4xx_HAL_Driver/Src\stm32l4xx_hal_tim_ex.c ****   /* Use the TIM_TS_TI1F_ED signal to reset the TIM counter each edge detection */
 204:d:/LiteOS_Lab/drivers/third_party/ST/STM32L4xx_HAL_Driver/Src\stm32l4xx_hal_tim_ex.c ****   htim->Instance->SMCR &= ~TIM_SMCR_SMS;
 148              		.loc 1 204 7
 149 00aa 7B68     		ldr	r3, [r7, #4]
 150 00ac 1B68     		ldr	r3, [r3]
 151              		.loc 1 204 24
 152 00ae 9B68     		ldr	r3, [r3, #8]
 153              		.loc 1 204 7
 154 00b0 7A68     		ldr	r2, [r7, #4]
 155 00b2 1268     		ldr	r2, [r2]
 156              		.loc 1 204 24
 157 00b4 23F48033 		bic	r3, r3, #65536
 158 00b8 23F00703 		bic	r3, r3, #7
 159 00bc 9360     		str	r3, [r2, #8]
 205:d:/LiteOS_Lab/drivers/third_party/ST/STM32L4xx_HAL_Driver/Src\stm32l4xx_hal_tim_ex.c ****   htim->Instance->SMCR |= TIM_SLAVEMODE_RESET;
 160              		.loc 1 205 7
 161 00be 7B68     		ldr	r3, [r7, #4]
 162 00c0 1B68     		ldr	r3, [r3]
 163              		.loc 1 205 24
 164 00c2 9A68     		ldr	r2, [r3, #8]
 165              		.loc 1 205 7
 166 00c4 7B68     		ldr	r3, [r7, #4]
 167 00c6 1B68     		ldr	r3, [r3]
 168              		.loc 1 205 24
 169 00c8 42F00402 		orr	r2, r2, #4
 170 00cc 9A60     		str	r2, [r3, #8]
 206:d:/LiteOS_Lab/drivers/third_party/ST/STM32L4xx_HAL_Driver/Src\stm32l4xx_hal_tim_ex.c **** 
 207:d:/LiteOS_Lab/drivers/third_party/ST/STM32L4xx_HAL_Driver/Src\stm32l4xx_hal_tim_ex.c ****   /* Program channel 2 in PWM 2 mode with the desired Commutation_Delay*/
 208:d:/LiteOS_Lab/drivers/third_party/ST/STM32L4xx_HAL_Driver/Src\stm32l4xx_hal_tim_ex.c ****   OC_Config.OCFastMode = TIM_OCFAST_DISABLE;
 171              		.loc 1 208 24
 172 00ce 0023     		movs	r3, #0
 173 00d0 FB61     		str	r3, [r7, #28]
 209:d:/LiteOS_Lab/drivers/third_party/ST/STM32L4xx_HAL_Driver/Src\stm32l4xx_hal_tim_ex.c ****   OC_Config.OCIdleState = TIM_OCIDLESTATE_RESET;
 174              		.loc 1 209 25
 175 00d2 0023     		movs	r3, #0
 176 00d4 3B62     		str	r3, [r7, #32]
 210:d:/LiteOS_Lab/drivers/third_party/ST/STM32L4xx_HAL_Driver/Src\stm32l4xx_hal_tim_ex.c ****   OC_Config.OCMode = TIM_OCMODE_PWM2;
 177              		.loc 1 210 20
 178 00d6 7023     		movs	r3, #112
 179 00d8 FB60     		str	r3, [r7, #12]
 211:d:/LiteOS_Lab/drivers/third_party/ST/STM32L4xx_HAL_Driver/Src\stm32l4xx_hal_tim_ex.c ****   OC_Config.OCNIdleState = TIM_OCNIDLESTATE_RESET;
 180              		.loc 1 211 26
 181 00da 0023     		movs	r3, #0
 182 00dc 7B62     		str	r3, [r7, #36]
 212:d:/LiteOS_Lab/drivers/third_party/ST/STM32L4xx_HAL_Driver/Src\stm32l4xx_hal_tim_ex.c ****   OC_Config.OCNPolarity = TIM_OCNPOLARITY_HIGH;
 183              		.loc 1 212 25
 184 00de 0023     		movs	r3, #0
 185 00e0 BB61     		str	r3, [r7, #24]
 213:d:/LiteOS_Lab/drivers/third_party/ST/STM32L4xx_HAL_Driver/Src\stm32l4xx_hal_tim_ex.c ****   OC_Config.OCPolarity = TIM_OCPOLARITY_HIGH;
 186              		.loc 1 213 24
 187 00e2 0023     		movs	r3, #0
ARM GAS  C:\Users\ADMINI~1\AppData\Local\Temp\ccYWIBty.s 			page 8


 188 00e4 7B61     		str	r3, [r7, #20]
 214:d:/LiteOS_Lab/drivers/third_party/ST/STM32L4xx_HAL_Driver/Src\stm32l4xx_hal_tim_ex.c ****   OC_Config.Pulse = sConfig->Commutation_Delay;
 189              		.loc 1 214 28
 190 00e6 3B68     		ldr	r3, [r7]
 191 00e8 DB68     		ldr	r3, [r3, #12]
 192              		.loc 1 214 19
 193 00ea 3B61     		str	r3, [r7, #16]
 215:d:/LiteOS_Lab/drivers/third_party/ST/STM32L4xx_HAL_Driver/Src\stm32l4xx_hal_tim_ex.c **** 
 216:d:/LiteOS_Lab/drivers/third_party/ST/STM32L4xx_HAL_Driver/Src\stm32l4xx_hal_tim_ex.c ****   TIM_OC2_SetConfig(htim->Instance, &OC_Config);
 194              		.loc 1 216 3
 195 00ec 7B68     		ldr	r3, [r7, #4]
 196 00ee 1B68     		ldr	r3, [r3]
 197 00f0 07F10C02 		add	r2, r7, #12
 198 00f4 1146     		mov	r1, r2
 199 00f6 1846     		mov	r0, r3
 200 00f8 FFF7FEFF 		bl	TIM_OC2_SetConfig
 217:d:/LiteOS_Lab/drivers/third_party/ST/STM32L4xx_HAL_Driver/Src\stm32l4xx_hal_tim_ex.c **** 
 218:d:/LiteOS_Lab/drivers/third_party/ST/STM32L4xx_HAL_Driver/Src\stm32l4xx_hal_tim_ex.c ****   /* Select OC2REF as trigger output on TRGO: write the MMS bits in the TIMx_CR2
 219:d:/LiteOS_Lab/drivers/third_party/ST/STM32L4xx_HAL_Driver/Src\stm32l4xx_hal_tim_ex.c ****     register to 101 */
 220:d:/LiteOS_Lab/drivers/third_party/ST/STM32L4xx_HAL_Driver/Src\stm32l4xx_hal_tim_ex.c ****   htim->Instance->CR2 &= ~TIM_CR2_MMS;
 201              		.loc 1 220 7
 202 00fc 7B68     		ldr	r3, [r7, #4]
 203 00fe 1B68     		ldr	r3, [r3]
 204              		.loc 1 220 23
 205 0100 5A68     		ldr	r2, [r3, #4]
 206              		.loc 1 220 7
 207 0102 7B68     		ldr	r3, [r7, #4]
 208 0104 1B68     		ldr	r3, [r3]
 209              		.loc 1 220 23
 210 0106 22F07002 		bic	r2, r2, #112
 211 010a 5A60     		str	r2, [r3, #4]
 221:d:/LiteOS_Lab/drivers/third_party/ST/STM32L4xx_HAL_Driver/Src\stm32l4xx_hal_tim_ex.c ****   htim->Instance->CR2 |= TIM_TRGO_OC2REF;
 212              		.loc 1 221 7
 213 010c 7B68     		ldr	r3, [r7, #4]
 214 010e 1B68     		ldr	r3, [r3]
 215              		.loc 1 221 23
 216 0110 5A68     		ldr	r2, [r3, #4]
 217              		.loc 1 221 7
 218 0112 7B68     		ldr	r3, [r7, #4]
 219 0114 1B68     		ldr	r3, [r3]
 220              		.loc 1 221 23
 221 0116 42F05002 		orr	r2, r2, #80
 222 011a 5A60     		str	r2, [r3, #4]
 222:d:/LiteOS_Lab/drivers/third_party/ST/STM32L4xx_HAL_Driver/Src\stm32l4xx_hal_tim_ex.c **** 
 223:d:/LiteOS_Lab/drivers/third_party/ST/STM32L4xx_HAL_Driver/Src\stm32l4xx_hal_tim_ex.c ****   /* Initialize the TIM state*/
 224:d:/LiteOS_Lab/drivers/third_party/ST/STM32L4xx_HAL_Driver/Src\stm32l4xx_hal_tim_ex.c ****   htim->State= HAL_TIM_STATE_READY;
 223              		.loc 1 224 14
 224 011c 7B68     		ldr	r3, [r7, #4]
 225 011e 0122     		movs	r2, #1
 226 0120 83F83D20 		strb	r2, [r3, #61]
 225:d:/LiteOS_Lab/drivers/third_party/ST/STM32L4xx_HAL_Driver/Src\stm32l4xx_hal_tim_ex.c **** 
 226:d:/LiteOS_Lab/drivers/third_party/ST/STM32L4xx_HAL_Driver/Src\stm32l4xx_hal_tim_ex.c ****   return HAL_OK;
 227              		.loc 1 226 10
 228 0124 0023     		movs	r3, #0
 229              	.L5:
 227:d:/LiteOS_Lab/drivers/third_party/ST/STM32L4xx_HAL_Driver/Src\stm32l4xx_hal_tim_ex.c **** }
 230              		.loc 1 227 1 discriminator 1
ARM GAS  C:\Users\ADMINI~1\AppData\Local\Temp\ccYWIBty.s 			page 9


 231 0126 1846     		mov	r0, r3
 232 0128 2837     		adds	r7, r7, #40
 233              	.LCFI3:
 234              		.cfi_def_cfa_offset 8
 235 012a BD46     		mov	sp, r7
 236              	.LCFI4:
 237              		.cfi_def_cfa_register 13
 238              		@ sp needed
 239 012c 80BD     		pop	{r7, pc}
 240              		.cfi_endproc
 241              	.LFE287:
 243              		.section	.text.HAL_TIMEx_HallSensor_DeInit,"ax",%progbits
 244              		.align	1
 245              		.global	HAL_TIMEx_HallSensor_DeInit
 246              		.syntax unified
 247              		.thumb
 248              		.thumb_func
 249              		.fpu fpv4-sp-d16
 251              	HAL_TIMEx_HallSensor_DeInit:
 252              	.LFB288:
 228:d:/LiteOS_Lab/drivers/third_party/ST/STM32L4xx_HAL_Driver/Src\stm32l4xx_hal_tim_ex.c **** 
 229:d:/LiteOS_Lab/drivers/third_party/ST/STM32L4xx_HAL_Driver/Src\stm32l4xx_hal_tim_ex.c **** /**
 230:d:/LiteOS_Lab/drivers/third_party/ST/STM32L4xx_HAL_Driver/Src\stm32l4xx_hal_tim_ex.c ****   * @brief  DeInitialize the TIM Hall Sensor interface
 231:d:/LiteOS_Lab/drivers/third_party/ST/STM32L4xx_HAL_Driver/Src\stm32l4xx_hal_tim_ex.c ****   * @param  htim TIM Hall Sensor handle
 232:d:/LiteOS_Lab/drivers/third_party/ST/STM32L4xx_HAL_Driver/Src\stm32l4xx_hal_tim_ex.c ****   * @retval HAL status
 233:d:/LiteOS_Lab/drivers/third_party/ST/STM32L4xx_HAL_Driver/Src\stm32l4xx_hal_tim_ex.c ****   */
 234:d:/LiteOS_Lab/drivers/third_party/ST/STM32L4xx_HAL_Driver/Src\stm32l4xx_hal_tim_ex.c **** HAL_StatusTypeDef HAL_TIMEx_HallSensor_DeInit(TIM_HandleTypeDef *htim)
 235:d:/LiteOS_Lab/drivers/third_party/ST/STM32L4xx_HAL_Driver/Src\stm32l4xx_hal_tim_ex.c **** {
 253              		.loc 1 235 1
 254              		.cfi_startproc
 255              		@ args = 0, pretend = 0, frame = 8
 256              		@ frame_needed = 1, uses_anonymous_args = 0
 257 0000 80B5     		push	{r7, lr}
 258              	.LCFI5:
 259              		.cfi_def_cfa_offset 8
 260              		.cfi_offset 7, -8
 261              		.cfi_offset 14, -4
 262 0002 82B0     		sub	sp, sp, #8
 263              	.LCFI6:
 264              		.cfi_def_cfa_offset 16
 265 0004 00AF     		add	r7, sp, #0
 266              	.LCFI7:
 267              		.cfi_def_cfa_register 7
 268 0006 7860     		str	r0, [r7, #4]
 236:d:/LiteOS_Lab/drivers/third_party/ST/STM32L4xx_HAL_Driver/Src\stm32l4xx_hal_tim_ex.c ****   /* Check the parameters */
 237:d:/LiteOS_Lab/drivers/third_party/ST/STM32L4xx_HAL_Driver/Src\stm32l4xx_hal_tim_ex.c ****   assert_param(IS_TIM_INSTANCE(htim->Instance));
 238:d:/LiteOS_Lab/drivers/third_party/ST/STM32L4xx_HAL_Driver/Src\stm32l4xx_hal_tim_ex.c **** 
 239:d:/LiteOS_Lab/drivers/third_party/ST/STM32L4xx_HAL_Driver/Src\stm32l4xx_hal_tim_ex.c ****   htim->State = HAL_TIM_STATE_BUSY;
 269              		.loc 1 239 15
 270 0008 7B68     		ldr	r3, [r7, #4]
 271 000a 0222     		movs	r2, #2
 272 000c 83F83D20 		strb	r2, [r3, #61]
 240:d:/LiteOS_Lab/drivers/third_party/ST/STM32L4xx_HAL_Driver/Src\stm32l4xx_hal_tim_ex.c **** 
 241:d:/LiteOS_Lab/drivers/third_party/ST/STM32L4xx_HAL_Driver/Src\stm32l4xx_hal_tim_ex.c ****   /* Disable the TIM Peripheral Clock */
 242:d:/LiteOS_Lab/drivers/third_party/ST/STM32L4xx_HAL_Driver/Src\stm32l4xx_hal_tim_ex.c ****   __HAL_TIM_DISABLE(htim);
 273              		.loc 1 242 3
 274 0010 7B68     		ldr	r3, [r7, #4]
ARM GAS  C:\Users\ADMINI~1\AppData\Local\Temp\ccYWIBty.s 			page 10


 275 0012 1B68     		ldr	r3, [r3]
 276 0014 1A6A     		ldr	r2, [r3, #32]
 277 0016 41F21113 		movw	r3, #4369
 278 001a 1340     		ands	r3, r3, r2
 279 001c 002B     		cmp	r3, #0
 280 001e 0FD1     		bne	.L7
 281              		.loc 1 242 3 is_stmt 0 discriminator 1
 282 0020 7B68     		ldr	r3, [r7, #4]
 283 0022 1B68     		ldr	r3, [r3]
 284 0024 1A6A     		ldr	r2, [r3, #32]
 285 0026 40F24443 		movw	r3, #1092
 286 002a 1340     		ands	r3, r3, r2
 287 002c 002B     		cmp	r3, #0
 288 002e 07D1     		bne	.L7
 289              		.loc 1 242 3 discriminator 2
 290 0030 7B68     		ldr	r3, [r7, #4]
 291 0032 1B68     		ldr	r3, [r3]
 292 0034 1A68     		ldr	r2, [r3]
 293 0036 7B68     		ldr	r3, [r7, #4]
 294 0038 1B68     		ldr	r3, [r3]
 295 003a 22F00102 		bic	r2, r2, #1
 296 003e 1A60     		str	r2, [r3]
 297              	.L7:
 243:d:/LiteOS_Lab/drivers/third_party/ST/STM32L4xx_HAL_Driver/Src\stm32l4xx_hal_tim_ex.c **** 
 244:d:/LiteOS_Lab/drivers/third_party/ST/STM32L4xx_HAL_Driver/Src\stm32l4xx_hal_tim_ex.c ****   /* DeInit the low level hardware: GPIO, CLOCK, NVIC */
 245:d:/LiteOS_Lab/drivers/third_party/ST/STM32L4xx_HAL_Driver/Src\stm32l4xx_hal_tim_ex.c ****   HAL_TIMEx_HallSensor_MspDeInit(htim);
 298              		.loc 1 245 3 is_stmt 1
 299 0040 7868     		ldr	r0, [r7, #4]
 300 0042 FFF7FEFF 		bl	HAL_TIMEx_HallSensor_MspDeInit
 246:d:/LiteOS_Lab/drivers/third_party/ST/STM32L4xx_HAL_Driver/Src\stm32l4xx_hal_tim_ex.c **** 
 247:d:/LiteOS_Lab/drivers/third_party/ST/STM32L4xx_HAL_Driver/Src\stm32l4xx_hal_tim_ex.c ****   /* Change TIM state */
 248:d:/LiteOS_Lab/drivers/third_party/ST/STM32L4xx_HAL_Driver/Src\stm32l4xx_hal_tim_ex.c ****   htim->State = HAL_TIM_STATE_RESET;
 301              		.loc 1 248 15
 302 0046 7B68     		ldr	r3, [r7, #4]
 303 0048 0022     		movs	r2, #0
 304 004a 83F83D20 		strb	r2, [r3, #61]
 249:d:/LiteOS_Lab/drivers/third_party/ST/STM32L4xx_HAL_Driver/Src\stm32l4xx_hal_tim_ex.c **** 
 250:d:/LiteOS_Lab/drivers/third_party/ST/STM32L4xx_HAL_Driver/Src\stm32l4xx_hal_tim_ex.c ****   /* Release Lock */
 251:d:/LiteOS_Lab/drivers/third_party/ST/STM32L4xx_HAL_Driver/Src\stm32l4xx_hal_tim_ex.c ****   __HAL_UNLOCK(htim);
 305              		.loc 1 251 3
 306 004e 7B68     		ldr	r3, [r7, #4]
 307 0050 0022     		movs	r2, #0
 308 0052 83F83C20 		strb	r2, [r3, #60]
 252:d:/LiteOS_Lab/drivers/third_party/ST/STM32L4xx_HAL_Driver/Src\stm32l4xx_hal_tim_ex.c **** 
 253:d:/LiteOS_Lab/drivers/third_party/ST/STM32L4xx_HAL_Driver/Src\stm32l4xx_hal_tim_ex.c ****   return HAL_OK;
 309              		.loc 1 253 10
 310 0056 0023     		movs	r3, #0
 254:d:/LiteOS_Lab/drivers/third_party/ST/STM32L4xx_HAL_Driver/Src\stm32l4xx_hal_tim_ex.c **** }
 311              		.loc 1 254 1
 312 0058 1846     		mov	r0, r3
 313 005a 0837     		adds	r7, r7, #8
 314              	.LCFI8:
 315              		.cfi_def_cfa_offset 8
 316 005c BD46     		mov	sp, r7
 317              	.LCFI9:
 318              		.cfi_def_cfa_register 13
 319              		@ sp needed
ARM GAS  C:\Users\ADMINI~1\AppData\Local\Temp\ccYWIBty.s 			page 11


 320 005e 80BD     		pop	{r7, pc}
 321              		.cfi_endproc
 322              	.LFE288:
 324              		.section	.text.HAL_TIMEx_HallSensor_MspInit,"ax",%progbits
 325              		.align	1
 326              		.weak	HAL_TIMEx_HallSensor_MspInit
 327              		.syntax unified
 328              		.thumb
 329              		.thumb_func
 330              		.fpu fpv4-sp-d16
 332              	HAL_TIMEx_HallSensor_MspInit:
 333              	.LFB289:
 255:d:/LiteOS_Lab/drivers/third_party/ST/STM32L4xx_HAL_Driver/Src\stm32l4xx_hal_tim_ex.c **** 
 256:d:/LiteOS_Lab/drivers/third_party/ST/STM32L4xx_HAL_Driver/Src\stm32l4xx_hal_tim_ex.c **** /**
 257:d:/LiteOS_Lab/drivers/third_party/ST/STM32L4xx_HAL_Driver/Src\stm32l4xx_hal_tim_ex.c ****   * @brief  Initializes the TIM Hall Sensor MSP.
 258:d:/LiteOS_Lab/drivers/third_party/ST/STM32L4xx_HAL_Driver/Src\stm32l4xx_hal_tim_ex.c ****   * @param  htim TIM handle
 259:d:/LiteOS_Lab/drivers/third_party/ST/STM32L4xx_HAL_Driver/Src\stm32l4xx_hal_tim_ex.c ****   * @retval None
 260:d:/LiteOS_Lab/drivers/third_party/ST/STM32L4xx_HAL_Driver/Src\stm32l4xx_hal_tim_ex.c ****   */
 261:d:/LiteOS_Lab/drivers/third_party/ST/STM32L4xx_HAL_Driver/Src\stm32l4xx_hal_tim_ex.c **** __weak void HAL_TIMEx_HallSensor_MspInit(TIM_HandleTypeDef *htim)
 262:d:/LiteOS_Lab/drivers/third_party/ST/STM32L4xx_HAL_Driver/Src\stm32l4xx_hal_tim_ex.c **** {
 334              		.loc 1 262 1
 335              		.cfi_startproc
 336              		@ args = 0, pretend = 0, frame = 8
 337              		@ frame_needed = 1, uses_anonymous_args = 0
 338              		@ link register save eliminated.
 339 0000 80B4     		push	{r7}
 340              	.LCFI10:
 341              		.cfi_def_cfa_offset 4
 342              		.cfi_offset 7, -4
 343 0002 83B0     		sub	sp, sp, #12
 344              	.LCFI11:
 345              		.cfi_def_cfa_offset 16
 346 0004 00AF     		add	r7, sp, #0
 347              	.LCFI12:
 348              		.cfi_def_cfa_register 7
 349 0006 7860     		str	r0, [r7, #4]
 263:d:/LiteOS_Lab/drivers/third_party/ST/STM32L4xx_HAL_Driver/Src\stm32l4xx_hal_tim_ex.c ****   /* Prevent unused argument(s) compilation warning */
 264:d:/LiteOS_Lab/drivers/third_party/ST/STM32L4xx_HAL_Driver/Src\stm32l4xx_hal_tim_ex.c ****   UNUSED(htim);
 265:d:/LiteOS_Lab/drivers/third_party/ST/STM32L4xx_HAL_Driver/Src\stm32l4xx_hal_tim_ex.c **** 
 266:d:/LiteOS_Lab/drivers/third_party/ST/STM32L4xx_HAL_Driver/Src\stm32l4xx_hal_tim_ex.c ****   /* NOTE : This function should not be modified, when the callback is needed,
 267:d:/LiteOS_Lab/drivers/third_party/ST/STM32L4xx_HAL_Driver/Src\stm32l4xx_hal_tim_ex.c ****             the HAL_TIMEx_HallSensor_MspInit could be implemented in the user file
 268:d:/LiteOS_Lab/drivers/third_party/ST/STM32L4xx_HAL_Driver/Src\stm32l4xx_hal_tim_ex.c ****    */
 269:d:/LiteOS_Lab/drivers/third_party/ST/STM32L4xx_HAL_Driver/Src\stm32l4xx_hal_tim_ex.c **** }
 350              		.loc 1 269 1
 351 0008 00BF     		nop
 352 000a 0C37     		adds	r7, r7, #12
 353              	.LCFI13:
 354              		.cfi_def_cfa_offset 4
 355 000c BD46     		mov	sp, r7
 356              	.LCFI14:
 357              		.cfi_def_cfa_register 13
 358              		@ sp needed
 359 000e 5DF8047B 		ldr	r7, [sp], #4
 360              	.LCFI15:
 361              		.cfi_restore 7
 362              		.cfi_def_cfa_offset 0
 363 0012 7047     		bx	lr
ARM GAS  C:\Users\ADMINI~1\AppData\Local\Temp\ccYWIBty.s 			page 12


 364              		.cfi_endproc
 365              	.LFE289:
 367              		.section	.text.HAL_TIMEx_HallSensor_MspDeInit,"ax",%progbits
 368              		.align	1
 369              		.weak	HAL_TIMEx_HallSensor_MspDeInit
 370              		.syntax unified
 371              		.thumb
 372              		.thumb_func
 373              		.fpu fpv4-sp-d16
 375              	HAL_TIMEx_HallSensor_MspDeInit:
 376              	.LFB290:
 270:d:/LiteOS_Lab/drivers/third_party/ST/STM32L4xx_HAL_Driver/Src\stm32l4xx_hal_tim_ex.c **** 
 271:d:/LiteOS_Lab/drivers/third_party/ST/STM32L4xx_HAL_Driver/Src\stm32l4xx_hal_tim_ex.c **** /**
 272:d:/LiteOS_Lab/drivers/third_party/ST/STM32L4xx_HAL_Driver/Src\stm32l4xx_hal_tim_ex.c ****   * @brief  DeInitialize TIM Hall Sensor MSP.
 273:d:/LiteOS_Lab/drivers/third_party/ST/STM32L4xx_HAL_Driver/Src\stm32l4xx_hal_tim_ex.c ****   * @param  htim TIM handle
 274:d:/LiteOS_Lab/drivers/third_party/ST/STM32L4xx_HAL_Driver/Src\stm32l4xx_hal_tim_ex.c ****   * @retval None
 275:d:/LiteOS_Lab/drivers/third_party/ST/STM32L4xx_HAL_Driver/Src\stm32l4xx_hal_tim_ex.c ****   */
 276:d:/LiteOS_Lab/drivers/third_party/ST/STM32L4xx_HAL_Driver/Src\stm32l4xx_hal_tim_ex.c **** __weak void HAL_TIMEx_HallSensor_MspDeInit(TIM_HandleTypeDef *htim)
 277:d:/LiteOS_Lab/drivers/third_party/ST/STM32L4xx_HAL_Driver/Src\stm32l4xx_hal_tim_ex.c **** {
 377              		.loc 1 277 1
 378              		.cfi_startproc
 379              		@ args = 0, pretend = 0, frame = 8
 380              		@ frame_needed = 1, uses_anonymous_args = 0
 381              		@ link register save eliminated.
 382 0000 80B4     		push	{r7}
 383              	.LCFI16:
 384              		.cfi_def_cfa_offset 4
 385              		.cfi_offset 7, -4
 386 0002 83B0     		sub	sp, sp, #12
 387              	.LCFI17:
 388              		.cfi_def_cfa_offset 16
 389 0004 00AF     		add	r7, sp, #0
 390              	.LCFI18:
 391              		.cfi_def_cfa_register 7
 392 0006 7860     		str	r0, [r7, #4]
 278:d:/LiteOS_Lab/drivers/third_party/ST/STM32L4xx_HAL_Driver/Src\stm32l4xx_hal_tim_ex.c ****   /* Prevent unused argument(s) compilation warning */
 279:d:/LiteOS_Lab/drivers/third_party/ST/STM32L4xx_HAL_Driver/Src\stm32l4xx_hal_tim_ex.c ****   UNUSED(htim);
 280:d:/LiteOS_Lab/drivers/third_party/ST/STM32L4xx_HAL_Driver/Src\stm32l4xx_hal_tim_ex.c **** 
 281:d:/LiteOS_Lab/drivers/third_party/ST/STM32L4xx_HAL_Driver/Src\stm32l4xx_hal_tim_ex.c ****   /* NOTE : This function should not be modified, when the callback is needed,
 282:d:/LiteOS_Lab/drivers/third_party/ST/STM32L4xx_HAL_Driver/Src\stm32l4xx_hal_tim_ex.c ****             the HAL_TIMEx_HallSensor_MspDeInit could be implemented in the user file
 283:d:/LiteOS_Lab/drivers/third_party/ST/STM32L4xx_HAL_Driver/Src\stm32l4xx_hal_tim_ex.c ****    */
 284:d:/LiteOS_Lab/drivers/third_party/ST/STM32L4xx_HAL_Driver/Src\stm32l4xx_hal_tim_ex.c **** }
 393              		.loc 1 284 1
 394 0008 00BF     		nop
 395 000a 0C37     		adds	r7, r7, #12
 396              	.LCFI19:
 397              		.cfi_def_cfa_offset 4
 398 000c BD46     		mov	sp, r7
 399              	.LCFI20:
 400              		.cfi_def_cfa_register 13
 401              		@ sp needed
 402 000e 5DF8047B 		ldr	r7, [sp], #4
 403              	.LCFI21:
 404              		.cfi_restore 7
 405              		.cfi_def_cfa_offset 0
 406 0012 7047     		bx	lr
 407              		.cfi_endproc
ARM GAS  C:\Users\ADMINI~1\AppData\Local\Temp\ccYWIBty.s 			page 13


 408              	.LFE290:
 410              		.section	.text.HAL_TIMEx_HallSensor_Start,"ax",%progbits
 411              		.align	1
 412              		.global	HAL_TIMEx_HallSensor_Start
 413              		.syntax unified
 414              		.thumb
 415              		.thumb_func
 416              		.fpu fpv4-sp-d16
 418              	HAL_TIMEx_HallSensor_Start:
 419              	.LFB291:
 285:d:/LiteOS_Lab/drivers/third_party/ST/STM32L4xx_HAL_Driver/Src\stm32l4xx_hal_tim_ex.c **** 
 286:d:/LiteOS_Lab/drivers/third_party/ST/STM32L4xx_HAL_Driver/Src\stm32l4xx_hal_tim_ex.c **** /**
 287:d:/LiteOS_Lab/drivers/third_party/ST/STM32L4xx_HAL_Driver/Src\stm32l4xx_hal_tim_ex.c ****   * @brief  Starts the TIM Hall Sensor Interface.
 288:d:/LiteOS_Lab/drivers/third_party/ST/STM32L4xx_HAL_Driver/Src\stm32l4xx_hal_tim_ex.c ****   * @param  htim TIM Hall Sensor handle
 289:d:/LiteOS_Lab/drivers/third_party/ST/STM32L4xx_HAL_Driver/Src\stm32l4xx_hal_tim_ex.c ****   * @retval HAL status
 290:d:/LiteOS_Lab/drivers/third_party/ST/STM32L4xx_HAL_Driver/Src\stm32l4xx_hal_tim_ex.c ****   */
 291:d:/LiteOS_Lab/drivers/third_party/ST/STM32L4xx_HAL_Driver/Src\stm32l4xx_hal_tim_ex.c **** HAL_StatusTypeDef HAL_TIMEx_HallSensor_Start(TIM_HandleTypeDef *htim)
 292:d:/LiteOS_Lab/drivers/third_party/ST/STM32L4xx_HAL_Driver/Src\stm32l4xx_hal_tim_ex.c **** {
 420              		.loc 1 292 1
 421              		.cfi_startproc
 422              		@ args = 0, pretend = 0, frame = 8
 423              		@ frame_needed = 1, uses_anonymous_args = 0
 424 0000 80B5     		push	{r7, lr}
 425              	.LCFI22:
 426              		.cfi_def_cfa_offset 8
 427              		.cfi_offset 7, -8
 428              		.cfi_offset 14, -4
 429 0002 82B0     		sub	sp, sp, #8
 430              	.LCFI23:
 431              		.cfi_def_cfa_offset 16
 432 0004 00AF     		add	r7, sp, #0
 433              	.LCFI24:
 434              		.cfi_def_cfa_register 7
 435 0006 7860     		str	r0, [r7, #4]
 293:d:/LiteOS_Lab/drivers/third_party/ST/STM32L4xx_HAL_Driver/Src\stm32l4xx_hal_tim_ex.c ****   /* Check the parameters */
 294:d:/LiteOS_Lab/drivers/third_party/ST/STM32L4xx_HAL_Driver/Src\stm32l4xx_hal_tim_ex.c ****   assert_param(IS_TIM_HALL_SENSOR_INTERFACE_INSTANCE(htim->Instance));
 295:d:/LiteOS_Lab/drivers/third_party/ST/STM32L4xx_HAL_Driver/Src\stm32l4xx_hal_tim_ex.c **** 
 296:d:/LiteOS_Lab/drivers/third_party/ST/STM32L4xx_HAL_Driver/Src\stm32l4xx_hal_tim_ex.c ****   /* Enable the Input Capture channel 1
 297:d:/LiteOS_Lab/drivers/third_party/ST/STM32L4xx_HAL_Driver/Src\stm32l4xx_hal_tim_ex.c ****     (in the Hall Sensor Interface the three possible channels that can be used are TIM_CHANNEL_1, T
 298:d:/LiteOS_Lab/drivers/third_party/ST/STM32L4xx_HAL_Driver/Src\stm32l4xx_hal_tim_ex.c ****   TIM_CCxChannelCmd(htim->Instance, TIM_CHANNEL_1, TIM_CCx_ENABLE);
 436              		.loc 1 298 3
 437 0008 7B68     		ldr	r3, [r7, #4]
 438 000a 1B68     		ldr	r3, [r3]
 439 000c 0122     		movs	r2, #1
 440 000e 0021     		movs	r1, #0
 441 0010 1846     		mov	r0, r3
 442 0012 FFF7FEFF 		bl	TIM_CCxChannelCmd
 299:d:/LiteOS_Lab/drivers/third_party/ST/STM32L4xx_HAL_Driver/Src\stm32l4xx_hal_tim_ex.c **** 
 300:d:/LiteOS_Lab/drivers/third_party/ST/STM32L4xx_HAL_Driver/Src\stm32l4xx_hal_tim_ex.c ****   /* Enable the Peripheral */
 301:d:/LiteOS_Lab/drivers/third_party/ST/STM32L4xx_HAL_Driver/Src\stm32l4xx_hal_tim_ex.c ****   __HAL_TIM_ENABLE(htim);
 443              		.loc 1 301 3
 444 0016 7B68     		ldr	r3, [r7, #4]
 445 0018 1B68     		ldr	r3, [r3]
 446 001a 1A68     		ldr	r2, [r3]
 447 001c 7B68     		ldr	r3, [r7, #4]
 448 001e 1B68     		ldr	r3, [r3]
 449 0020 42F00102 		orr	r2, r2, #1
ARM GAS  C:\Users\ADMINI~1\AppData\Local\Temp\ccYWIBty.s 			page 14


 450 0024 1A60     		str	r2, [r3]
 302:d:/LiteOS_Lab/drivers/third_party/ST/STM32L4xx_HAL_Driver/Src\stm32l4xx_hal_tim_ex.c **** 
 303:d:/LiteOS_Lab/drivers/third_party/ST/STM32L4xx_HAL_Driver/Src\stm32l4xx_hal_tim_ex.c ****   /* Return function status */
 304:d:/LiteOS_Lab/drivers/third_party/ST/STM32L4xx_HAL_Driver/Src\stm32l4xx_hal_tim_ex.c ****   return HAL_OK;
 451              		.loc 1 304 10
 452 0026 0023     		movs	r3, #0
 305:d:/LiteOS_Lab/drivers/third_party/ST/STM32L4xx_HAL_Driver/Src\stm32l4xx_hal_tim_ex.c **** }
 453              		.loc 1 305 1
 454 0028 1846     		mov	r0, r3
 455 002a 0837     		adds	r7, r7, #8
 456              	.LCFI25:
 457              		.cfi_def_cfa_offset 8
 458 002c BD46     		mov	sp, r7
 459              	.LCFI26:
 460              		.cfi_def_cfa_register 13
 461              		@ sp needed
 462 002e 80BD     		pop	{r7, pc}
 463              		.cfi_endproc
 464              	.LFE291:
 466              		.section	.text.HAL_TIMEx_HallSensor_Stop,"ax",%progbits
 467              		.align	1
 468              		.global	HAL_TIMEx_HallSensor_Stop
 469              		.syntax unified
 470              		.thumb
 471              		.thumb_func
 472              		.fpu fpv4-sp-d16
 474              	HAL_TIMEx_HallSensor_Stop:
 475              	.LFB292:
 306:d:/LiteOS_Lab/drivers/third_party/ST/STM32L4xx_HAL_Driver/Src\stm32l4xx_hal_tim_ex.c **** 
 307:d:/LiteOS_Lab/drivers/third_party/ST/STM32L4xx_HAL_Driver/Src\stm32l4xx_hal_tim_ex.c **** /**
 308:d:/LiteOS_Lab/drivers/third_party/ST/STM32L4xx_HAL_Driver/Src\stm32l4xx_hal_tim_ex.c ****   * @brief  Stops the TIM Hall sensor Interface.
 309:d:/LiteOS_Lab/drivers/third_party/ST/STM32L4xx_HAL_Driver/Src\stm32l4xx_hal_tim_ex.c ****   * @param  htim TIM Hall Sensor handle
 310:d:/LiteOS_Lab/drivers/third_party/ST/STM32L4xx_HAL_Driver/Src\stm32l4xx_hal_tim_ex.c ****   * @retval HAL status
 311:d:/LiteOS_Lab/drivers/third_party/ST/STM32L4xx_HAL_Driver/Src\stm32l4xx_hal_tim_ex.c ****   */
 312:d:/LiteOS_Lab/drivers/third_party/ST/STM32L4xx_HAL_Driver/Src\stm32l4xx_hal_tim_ex.c **** HAL_StatusTypeDef HAL_TIMEx_HallSensor_Stop(TIM_HandleTypeDef *htim)
 313:d:/LiteOS_Lab/drivers/third_party/ST/STM32L4xx_HAL_Driver/Src\stm32l4xx_hal_tim_ex.c **** {
 476              		.loc 1 313 1
 477              		.cfi_startproc
 478              		@ args = 0, pretend = 0, frame = 8
 479              		@ frame_needed = 1, uses_anonymous_args = 0
 480 0000 80B5     		push	{r7, lr}
 481              	.LCFI27:
 482              		.cfi_def_cfa_offset 8
 483              		.cfi_offset 7, -8
 484              		.cfi_offset 14, -4
 485 0002 82B0     		sub	sp, sp, #8
 486              	.LCFI28:
 487              		.cfi_def_cfa_offset 16
 488 0004 00AF     		add	r7, sp, #0
 489              	.LCFI29:
 490              		.cfi_def_cfa_register 7
 491 0006 7860     		str	r0, [r7, #4]
 314:d:/LiteOS_Lab/drivers/third_party/ST/STM32L4xx_HAL_Driver/Src\stm32l4xx_hal_tim_ex.c ****   /* Check the parameters */
 315:d:/LiteOS_Lab/drivers/third_party/ST/STM32L4xx_HAL_Driver/Src\stm32l4xx_hal_tim_ex.c ****   assert_param(IS_TIM_HALL_SENSOR_INTERFACE_INSTANCE(htim->Instance));
 316:d:/LiteOS_Lab/drivers/third_party/ST/STM32L4xx_HAL_Driver/Src\stm32l4xx_hal_tim_ex.c **** 
 317:d:/LiteOS_Lab/drivers/third_party/ST/STM32L4xx_HAL_Driver/Src\stm32l4xx_hal_tim_ex.c ****   /* Disable the Input Capture channels 1, 2 and 3
 318:d:/LiteOS_Lab/drivers/third_party/ST/STM32L4xx_HAL_Driver/Src\stm32l4xx_hal_tim_ex.c ****     (in the Hall Sensor Interface the three possible channels that can be used are TIM_CHANNEL_1, T
ARM GAS  C:\Users\ADMINI~1\AppData\Local\Temp\ccYWIBty.s 			page 15


 319:d:/LiteOS_Lab/drivers/third_party/ST/STM32L4xx_HAL_Driver/Src\stm32l4xx_hal_tim_ex.c ****   TIM_CCxChannelCmd(htim->Instance, TIM_CHANNEL_1, TIM_CCx_DISABLE);
 492              		.loc 1 319 3
 493 0008 7B68     		ldr	r3, [r7, #4]
 494 000a 1B68     		ldr	r3, [r3]
 495 000c 0022     		movs	r2, #0
 496 000e 0021     		movs	r1, #0
 497 0010 1846     		mov	r0, r3
 498 0012 FFF7FEFF 		bl	TIM_CCxChannelCmd
 320:d:/LiteOS_Lab/drivers/third_party/ST/STM32L4xx_HAL_Driver/Src\stm32l4xx_hal_tim_ex.c **** 
 321:d:/LiteOS_Lab/drivers/third_party/ST/STM32L4xx_HAL_Driver/Src\stm32l4xx_hal_tim_ex.c ****   /* Disable the Peripheral */
 322:d:/LiteOS_Lab/drivers/third_party/ST/STM32L4xx_HAL_Driver/Src\stm32l4xx_hal_tim_ex.c ****   __HAL_TIM_DISABLE(htim);
 499              		.loc 1 322 3
 500 0016 7B68     		ldr	r3, [r7, #4]
 501 0018 1B68     		ldr	r3, [r3]
 502 001a 1A6A     		ldr	r2, [r3, #32]
 503 001c 41F21113 		movw	r3, #4369
 504 0020 1340     		ands	r3, r3, r2
 505 0022 002B     		cmp	r3, #0
 506 0024 0FD1     		bne	.L14
 507              		.loc 1 322 3 is_stmt 0 discriminator 1
 508 0026 7B68     		ldr	r3, [r7, #4]
 509 0028 1B68     		ldr	r3, [r3]
 510 002a 1A6A     		ldr	r2, [r3, #32]
 511 002c 40F24443 		movw	r3, #1092
 512 0030 1340     		ands	r3, r3, r2
 513 0032 002B     		cmp	r3, #0
 514 0034 07D1     		bne	.L14
 515              		.loc 1 322 3 discriminator 2
 516 0036 7B68     		ldr	r3, [r7, #4]
 517 0038 1B68     		ldr	r3, [r3]
 518 003a 1A68     		ldr	r2, [r3]
 519 003c 7B68     		ldr	r3, [r7, #4]
 520 003e 1B68     		ldr	r3, [r3]
 521 0040 22F00102 		bic	r2, r2, #1
 522 0044 1A60     		str	r2, [r3]
 523              	.L14:
 323:d:/LiteOS_Lab/drivers/third_party/ST/STM32L4xx_HAL_Driver/Src\stm32l4xx_hal_tim_ex.c **** 
 324:d:/LiteOS_Lab/drivers/third_party/ST/STM32L4xx_HAL_Driver/Src\stm32l4xx_hal_tim_ex.c ****   /* Return function status */
 325:d:/LiteOS_Lab/drivers/third_party/ST/STM32L4xx_HAL_Driver/Src\stm32l4xx_hal_tim_ex.c ****   return HAL_OK;
 524              		.loc 1 325 10 is_stmt 1
 525 0046 0023     		movs	r3, #0
 326:d:/LiteOS_Lab/drivers/third_party/ST/STM32L4xx_HAL_Driver/Src\stm32l4xx_hal_tim_ex.c **** }
 526              		.loc 1 326 1
 527 0048 1846     		mov	r0, r3
 528 004a 0837     		adds	r7, r7, #8
 529              	.LCFI30:
 530              		.cfi_def_cfa_offset 8
 531 004c BD46     		mov	sp, r7
 532              	.LCFI31:
 533              		.cfi_def_cfa_register 13
 534              		@ sp needed
 535 004e 80BD     		pop	{r7, pc}
 536              		.cfi_endproc
 537              	.LFE292:
 539              		.section	.text.HAL_TIMEx_HallSensor_Start_IT,"ax",%progbits
 540              		.align	1
 541              		.global	HAL_TIMEx_HallSensor_Start_IT
ARM GAS  C:\Users\ADMINI~1\AppData\Local\Temp\ccYWIBty.s 			page 16


 542              		.syntax unified
 543              		.thumb
 544              		.thumb_func
 545              		.fpu fpv4-sp-d16
 547              	HAL_TIMEx_HallSensor_Start_IT:
 548              	.LFB293:
 327:d:/LiteOS_Lab/drivers/third_party/ST/STM32L4xx_HAL_Driver/Src\stm32l4xx_hal_tim_ex.c **** 
 328:d:/LiteOS_Lab/drivers/third_party/ST/STM32L4xx_HAL_Driver/Src\stm32l4xx_hal_tim_ex.c **** /**
 329:d:/LiteOS_Lab/drivers/third_party/ST/STM32L4xx_HAL_Driver/Src\stm32l4xx_hal_tim_ex.c ****   * @brief  Starts the TIM Hall Sensor Interface in interrupt mode.
 330:d:/LiteOS_Lab/drivers/third_party/ST/STM32L4xx_HAL_Driver/Src\stm32l4xx_hal_tim_ex.c ****   * @param  htim TIM Hall Sensor handle
 331:d:/LiteOS_Lab/drivers/third_party/ST/STM32L4xx_HAL_Driver/Src\stm32l4xx_hal_tim_ex.c ****   * @retval HAL status
 332:d:/LiteOS_Lab/drivers/third_party/ST/STM32L4xx_HAL_Driver/Src\stm32l4xx_hal_tim_ex.c ****   */
 333:d:/LiteOS_Lab/drivers/third_party/ST/STM32L4xx_HAL_Driver/Src\stm32l4xx_hal_tim_ex.c **** HAL_StatusTypeDef HAL_TIMEx_HallSensor_Start_IT(TIM_HandleTypeDef *htim)
 334:d:/LiteOS_Lab/drivers/third_party/ST/STM32L4xx_HAL_Driver/Src\stm32l4xx_hal_tim_ex.c **** {
 549              		.loc 1 334 1
 550              		.cfi_startproc
 551              		@ args = 0, pretend = 0, frame = 8
 552              		@ frame_needed = 1, uses_anonymous_args = 0
 553 0000 80B5     		push	{r7, lr}
 554              	.LCFI32:
 555              		.cfi_def_cfa_offset 8
 556              		.cfi_offset 7, -8
 557              		.cfi_offset 14, -4
 558 0002 82B0     		sub	sp, sp, #8
 559              	.LCFI33:
 560              		.cfi_def_cfa_offset 16
 561 0004 00AF     		add	r7, sp, #0
 562              	.LCFI34:
 563              		.cfi_def_cfa_register 7
 564 0006 7860     		str	r0, [r7, #4]
 335:d:/LiteOS_Lab/drivers/third_party/ST/STM32L4xx_HAL_Driver/Src\stm32l4xx_hal_tim_ex.c ****   /* Check the parameters */
 336:d:/LiteOS_Lab/drivers/third_party/ST/STM32L4xx_HAL_Driver/Src\stm32l4xx_hal_tim_ex.c ****   assert_param(IS_TIM_HALL_SENSOR_INTERFACE_INSTANCE(htim->Instance));
 337:d:/LiteOS_Lab/drivers/third_party/ST/STM32L4xx_HAL_Driver/Src\stm32l4xx_hal_tim_ex.c **** 
 338:d:/LiteOS_Lab/drivers/third_party/ST/STM32L4xx_HAL_Driver/Src\stm32l4xx_hal_tim_ex.c ****   /* Enable the capture compare Interrupts 1 event */
 339:d:/LiteOS_Lab/drivers/third_party/ST/STM32L4xx_HAL_Driver/Src\stm32l4xx_hal_tim_ex.c ****   __HAL_TIM_ENABLE_IT(htim, TIM_IT_CC1);
 565              		.loc 1 339 3
 566 0008 7B68     		ldr	r3, [r7, #4]
 567 000a 1B68     		ldr	r3, [r3]
 568 000c DA68     		ldr	r2, [r3, #12]
 569 000e 7B68     		ldr	r3, [r7, #4]
 570 0010 1B68     		ldr	r3, [r3]
 571 0012 42F00202 		orr	r2, r2, #2
 572 0016 DA60     		str	r2, [r3, #12]
 340:d:/LiteOS_Lab/drivers/third_party/ST/STM32L4xx_HAL_Driver/Src\stm32l4xx_hal_tim_ex.c **** 
 341:d:/LiteOS_Lab/drivers/third_party/ST/STM32L4xx_HAL_Driver/Src\stm32l4xx_hal_tim_ex.c ****   /* Enable the Input Capture channel 1
 342:d:/LiteOS_Lab/drivers/third_party/ST/STM32L4xx_HAL_Driver/Src\stm32l4xx_hal_tim_ex.c ****     (in the Hall Sensor Interface the three possible channels that can be used are TIM_CHANNEL_1, T
 343:d:/LiteOS_Lab/drivers/third_party/ST/STM32L4xx_HAL_Driver/Src\stm32l4xx_hal_tim_ex.c ****   TIM_CCxChannelCmd(htim->Instance, TIM_CHANNEL_1, TIM_CCx_ENABLE);
 573              		.loc 1 343 3
 574 0018 7B68     		ldr	r3, [r7, #4]
 575 001a 1B68     		ldr	r3, [r3]
 576 001c 0122     		movs	r2, #1
 577 001e 0021     		movs	r1, #0
 578 0020 1846     		mov	r0, r3
 579 0022 FFF7FEFF 		bl	TIM_CCxChannelCmd
 344:d:/LiteOS_Lab/drivers/third_party/ST/STM32L4xx_HAL_Driver/Src\stm32l4xx_hal_tim_ex.c **** 
 345:d:/LiteOS_Lab/drivers/third_party/ST/STM32L4xx_HAL_Driver/Src\stm32l4xx_hal_tim_ex.c ****   /* Enable the Peripheral */
 346:d:/LiteOS_Lab/drivers/third_party/ST/STM32L4xx_HAL_Driver/Src\stm32l4xx_hal_tim_ex.c ****   __HAL_TIM_ENABLE(htim);
ARM GAS  C:\Users\ADMINI~1\AppData\Local\Temp\ccYWIBty.s 			page 17


 580              		.loc 1 346 3
 581 0026 7B68     		ldr	r3, [r7, #4]
 582 0028 1B68     		ldr	r3, [r3]
 583 002a 1A68     		ldr	r2, [r3]
 584 002c 7B68     		ldr	r3, [r7, #4]
 585 002e 1B68     		ldr	r3, [r3]
 586 0030 42F00102 		orr	r2, r2, #1
 587 0034 1A60     		str	r2, [r3]
 347:d:/LiteOS_Lab/drivers/third_party/ST/STM32L4xx_HAL_Driver/Src\stm32l4xx_hal_tim_ex.c **** 
 348:d:/LiteOS_Lab/drivers/third_party/ST/STM32L4xx_HAL_Driver/Src\stm32l4xx_hal_tim_ex.c ****   /* Return function status */
 349:d:/LiteOS_Lab/drivers/third_party/ST/STM32L4xx_HAL_Driver/Src\stm32l4xx_hal_tim_ex.c ****   return HAL_OK;
 588              		.loc 1 349 10
 589 0036 0023     		movs	r3, #0
 350:d:/LiteOS_Lab/drivers/third_party/ST/STM32L4xx_HAL_Driver/Src\stm32l4xx_hal_tim_ex.c **** }
 590              		.loc 1 350 1
 591 0038 1846     		mov	r0, r3
 592 003a 0837     		adds	r7, r7, #8
 593              	.LCFI35:
 594              		.cfi_def_cfa_offset 8
 595 003c BD46     		mov	sp, r7
 596              	.LCFI36:
 597              		.cfi_def_cfa_register 13
 598              		@ sp needed
 599 003e 80BD     		pop	{r7, pc}
 600              		.cfi_endproc
 601              	.LFE293:
 603              		.section	.text.HAL_TIMEx_HallSensor_Stop_IT,"ax",%progbits
 604              		.align	1
 605              		.global	HAL_TIMEx_HallSensor_Stop_IT
 606              		.syntax unified
 607              		.thumb
 608              		.thumb_func
 609              		.fpu fpv4-sp-d16
 611              	HAL_TIMEx_HallSensor_Stop_IT:
 612              	.LFB294:
 351:d:/LiteOS_Lab/drivers/third_party/ST/STM32L4xx_HAL_Driver/Src\stm32l4xx_hal_tim_ex.c **** 
 352:d:/LiteOS_Lab/drivers/third_party/ST/STM32L4xx_HAL_Driver/Src\stm32l4xx_hal_tim_ex.c **** /**
 353:d:/LiteOS_Lab/drivers/third_party/ST/STM32L4xx_HAL_Driver/Src\stm32l4xx_hal_tim_ex.c ****   * @brief  Stops the TIM Hall Sensor Interface in interrupt mode.
 354:d:/LiteOS_Lab/drivers/third_party/ST/STM32L4xx_HAL_Driver/Src\stm32l4xx_hal_tim_ex.c ****   * @param  htim TIM handle
 355:d:/LiteOS_Lab/drivers/third_party/ST/STM32L4xx_HAL_Driver/Src\stm32l4xx_hal_tim_ex.c ****   * @retval HAL status
 356:d:/LiteOS_Lab/drivers/third_party/ST/STM32L4xx_HAL_Driver/Src\stm32l4xx_hal_tim_ex.c ****   */
 357:d:/LiteOS_Lab/drivers/third_party/ST/STM32L4xx_HAL_Driver/Src\stm32l4xx_hal_tim_ex.c **** HAL_StatusTypeDef HAL_TIMEx_HallSensor_Stop_IT(TIM_HandleTypeDef *htim)
 358:d:/LiteOS_Lab/drivers/third_party/ST/STM32L4xx_HAL_Driver/Src\stm32l4xx_hal_tim_ex.c **** {
 613              		.loc 1 358 1
 614              		.cfi_startproc
 615              		@ args = 0, pretend = 0, frame = 8
 616              		@ frame_needed = 1, uses_anonymous_args = 0
 617 0000 80B5     		push	{r7, lr}
 618              	.LCFI37:
 619              		.cfi_def_cfa_offset 8
 620              		.cfi_offset 7, -8
 621              		.cfi_offset 14, -4
 622 0002 82B0     		sub	sp, sp, #8
 623              	.LCFI38:
 624              		.cfi_def_cfa_offset 16
 625 0004 00AF     		add	r7, sp, #0
 626              	.LCFI39:
ARM GAS  C:\Users\ADMINI~1\AppData\Local\Temp\ccYWIBty.s 			page 18


 627              		.cfi_def_cfa_register 7
 628 0006 7860     		str	r0, [r7, #4]
 359:d:/LiteOS_Lab/drivers/third_party/ST/STM32L4xx_HAL_Driver/Src\stm32l4xx_hal_tim_ex.c ****   /* Check the parameters */
 360:d:/LiteOS_Lab/drivers/third_party/ST/STM32L4xx_HAL_Driver/Src\stm32l4xx_hal_tim_ex.c ****   assert_param(IS_TIM_HALL_SENSOR_INTERFACE_INSTANCE(htim->Instance));
 361:d:/LiteOS_Lab/drivers/third_party/ST/STM32L4xx_HAL_Driver/Src\stm32l4xx_hal_tim_ex.c **** 
 362:d:/LiteOS_Lab/drivers/third_party/ST/STM32L4xx_HAL_Driver/Src\stm32l4xx_hal_tim_ex.c ****   /* Disable the Input Capture channel 1
 363:d:/LiteOS_Lab/drivers/third_party/ST/STM32L4xx_HAL_Driver/Src\stm32l4xx_hal_tim_ex.c ****     (in the Hall Sensor Interface the three possible channels that can be used are TIM_CHANNEL_1, T
 364:d:/LiteOS_Lab/drivers/third_party/ST/STM32L4xx_HAL_Driver/Src\stm32l4xx_hal_tim_ex.c ****   TIM_CCxChannelCmd(htim->Instance, TIM_CHANNEL_1, TIM_CCx_DISABLE);
 629              		.loc 1 364 3
 630 0008 7B68     		ldr	r3, [r7, #4]
 631 000a 1B68     		ldr	r3, [r3]
 632 000c 0022     		movs	r2, #0
 633 000e 0021     		movs	r1, #0
 634 0010 1846     		mov	r0, r3
 635 0012 FFF7FEFF 		bl	TIM_CCxChannelCmd
 365:d:/LiteOS_Lab/drivers/third_party/ST/STM32L4xx_HAL_Driver/Src\stm32l4xx_hal_tim_ex.c **** 
 366:d:/LiteOS_Lab/drivers/third_party/ST/STM32L4xx_HAL_Driver/Src\stm32l4xx_hal_tim_ex.c ****   /* Disable the capture compare Interrupts event */
 367:d:/LiteOS_Lab/drivers/third_party/ST/STM32L4xx_HAL_Driver/Src\stm32l4xx_hal_tim_ex.c ****   __HAL_TIM_DISABLE_IT(htim, TIM_IT_CC1);
 636              		.loc 1 367 3
 637 0016 7B68     		ldr	r3, [r7, #4]
 638 0018 1B68     		ldr	r3, [r3]
 639 001a DA68     		ldr	r2, [r3, #12]
 640 001c 7B68     		ldr	r3, [r7, #4]
 641 001e 1B68     		ldr	r3, [r3]
 642 0020 22F00202 		bic	r2, r2, #2
 643 0024 DA60     		str	r2, [r3, #12]
 368:d:/LiteOS_Lab/drivers/third_party/ST/STM32L4xx_HAL_Driver/Src\stm32l4xx_hal_tim_ex.c **** 
 369:d:/LiteOS_Lab/drivers/third_party/ST/STM32L4xx_HAL_Driver/Src\stm32l4xx_hal_tim_ex.c ****   /* Disable the Peripheral */
 370:d:/LiteOS_Lab/drivers/third_party/ST/STM32L4xx_HAL_Driver/Src\stm32l4xx_hal_tim_ex.c ****   __HAL_TIM_DISABLE(htim);
 644              		.loc 1 370 3
 645 0026 7B68     		ldr	r3, [r7, #4]
 646 0028 1B68     		ldr	r3, [r3]
 647 002a 1A6A     		ldr	r2, [r3, #32]
 648 002c 41F21113 		movw	r3, #4369
 649 0030 1340     		ands	r3, r3, r2
 650 0032 002B     		cmp	r3, #0
 651 0034 0FD1     		bne	.L19
 652              		.loc 1 370 3 is_stmt 0 discriminator 1
 653 0036 7B68     		ldr	r3, [r7, #4]
 654 0038 1B68     		ldr	r3, [r3]
 655 003a 1A6A     		ldr	r2, [r3, #32]
 656 003c 40F24443 		movw	r3, #1092
 657 0040 1340     		ands	r3, r3, r2
 658 0042 002B     		cmp	r3, #0
 659 0044 07D1     		bne	.L19
 660              		.loc 1 370 3 discriminator 2
 661 0046 7B68     		ldr	r3, [r7, #4]
 662 0048 1B68     		ldr	r3, [r3]
 663 004a 1A68     		ldr	r2, [r3]
 664 004c 7B68     		ldr	r3, [r7, #4]
 665 004e 1B68     		ldr	r3, [r3]
 666 0050 22F00102 		bic	r2, r2, #1
 667 0054 1A60     		str	r2, [r3]
 668              	.L19:
 371:d:/LiteOS_Lab/drivers/third_party/ST/STM32L4xx_HAL_Driver/Src\stm32l4xx_hal_tim_ex.c **** 
 372:d:/LiteOS_Lab/drivers/third_party/ST/STM32L4xx_HAL_Driver/Src\stm32l4xx_hal_tim_ex.c ****   /* Return function status */
 373:d:/LiteOS_Lab/drivers/third_party/ST/STM32L4xx_HAL_Driver/Src\stm32l4xx_hal_tim_ex.c ****   return HAL_OK;
ARM GAS  C:\Users\ADMINI~1\AppData\Local\Temp\ccYWIBty.s 			page 19


 669              		.loc 1 373 10 is_stmt 1
 670 0056 0023     		movs	r3, #0
 374:d:/LiteOS_Lab/drivers/third_party/ST/STM32L4xx_HAL_Driver/Src\stm32l4xx_hal_tim_ex.c **** }
 671              		.loc 1 374 1
 672 0058 1846     		mov	r0, r3
 673 005a 0837     		adds	r7, r7, #8
 674              	.LCFI40:
 675              		.cfi_def_cfa_offset 8
 676 005c BD46     		mov	sp, r7
 677              	.LCFI41:
 678              		.cfi_def_cfa_register 13
 679              		@ sp needed
 680 005e 80BD     		pop	{r7, pc}
 681              		.cfi_endproc
 682              	.LFE294:
 684              		.section	.text.HAL_TIMEx_HallSensor_Start_DMA,"ax",%progbits
 685              		.align	1
 686              		.global	HAL_TIMEx_HallSensor_Start_DMA
 687              		.syntax unified
 688              		.thumb
 689              		.thumb_func
 690              		.fpu fpv4-sp-d16
 692              	HAL_TIMEx_HallSensor_Start_DMA:
 693              	.LFB295:
 375:d:/LiteOS_Lab/drivers/third_party/ST/STM32L4xx_HAL_Driver/Src\stm32l4xx_hal_tim_ex.c **** 
 376:d:/LiteOS_Lab/drivers/third_party/ST/STM32L4xx_HAL_Driver/Src\stm32l4xx_hal_tim_ex.c **** /**
 377:d:/LiteOS_Lab/drivers/third_party/ST/STM32L4xx_HAL_Driver/Src\stm32l4xx_hal_tim_ex.c ****   * @brief  Starts the TIM Hall Sensor Interface in DMA mode.
 378:d:/LiteOS_Lab/drivers/third_party/ST/STM32L4xx_HAL_Driver/Src\stm32l4xx_hal_tim_ex.c ****   * @param  htim TIM Hall Sensor handle
 379:d:/LiteOS_Lab/drivers/third_party/ST/STM32L4xx_HAL_Driver/Src\stm32l4xx_hal_tim_ex.c ****   * @param  pData The destination Buffer address.
 380:d:/LiteOS_Lab/drivers/third_party/ST/STM32L4xx_HAL_Driver/Src\stm32l4xx_hal_tim_ex.c ****   * @param  Length The length of data to be transferred from TIM peripheral to memory.
 381:d:/LiteOS_Lab/drivers/third_party/ST/STM32L4xx_HAL_Driver/Src\stm32l4xx_hal_tim_ex.c ****   * @retval HAL status
 382:d:/LiteOS_Lab/drivers/third_party/ST/STM32L4xx_HAL_Driver/Src\stm32l4xx_hal_tim_ex.c ****   */
 383:d:/LiteOS_Lab/drivers/third_party/ST/STM32L4xx_HAL_Driver/Src\stm32l4xx_hal_tim_ex.c **** HAL_StatusTypeDef HAL_TIMEx_HallSensor_Start_DMA(TIM_HandleTypeDef *htim, uint32_t *pData, uint16_t
 384:d:/LiteOS_Lab/drivers/third_party/ST/STM32L4xx_HAL_Driver/Src\stm32l4xx_hal_tim_ex.c **** {
 694              		.loc 1 384 1
 695              		.cfi_startproc
 696              		@ args = 0, pretend = 0, frame = 16
 697              		@ frame_needed = 1, uses_anonymous_args = 0
 698 0000 80B5     		push	{r7, lr}
 699              	.LCFI42:
 700              		.cfi_def_cfa_offset 8
 701              		.cfi_offset 7, -8
 702              		.cfi_offset 14, -4
 703 0002 84B0     		sub	sp, sp, #16
 704              	.LCFI43:
 705              		.cfi_def_cfa_offset 24
 706 0004 00AF     		add	r7, sp, #0
 707              	.LCFI44:
 708              		.cfi_def_cfa_register 7
 709 0006 F860     		str	r0, [r7, #12]
 710 0008 B960     		str	r1, [r7, #8]
 711 000a 1346     		mov	r3, r2
 712 000c FB80     		strh	r3, [r7, #6]	@ movhi
 385:d:/LiteOS_Lab/drivers/third_party/ST/STM32L4xx_HAL_Driver/Src\stm32l4xx_hal_tim_ex.c ****   /* Check the parameters */
 386:d:/LiteOS_Lab/drivers/third_party/ST/STM32L4xx_HAL_Driver/Src\stm32l4xx_hal_tim_ex.c ****   assert_param(IS_TIM_HALL_SENSOR_INTERFACE_INSTANCE(htim->Instance));
 387:d:/LiteOS_Lab/drivers/third_party/ST/STM32L4xx_HAL_Driver/Src\stm32l4xx_hal_tim_ex.c **** 
 388:d:/LiteOS_Lab/drivers/third_party/ST/STM32L4xx_HAL_Driver/Src\stm32l4xx_hal_tim_ex.c ****    if((htim->State == HAL_TIM_STATE_BUSY))
ARM GAS  C:\Users\ADMINI~1\AppData\Local\Temp\ccYWIBty.s 			page 20


 713              		.loc 1 388 12
 714 000e FB68     		ldr	r3, [r7, #12]
 715 0010 93F83D30 		ldrb	r3, [r3, #61]
 716 0014 DBB2     		uxtb	r3, r3
 717              		.loc 1 388 6
 718 0016 022B     		cmp	r3, #2
 719 0018 01D1     		bne	.L22
 389:d:/LiteOS_Lab/drivers/third_party/ST/STM32L4xx_HAL_Driver/Src\stm32l4xx_hal_tim_ex.c ****   {
 390:d:/LiteOS_Lab/drivers/third_party/ST/STM32L4xx_HAL_Driver/Src\stm32l4xx_hal_tim_ex.c ****      return HAL_BUSY;
 720              		.loc 1 390 13
 721 001a 0223     		movs	r3, #2
 722 001c 3BE0     		b	.L23
 723              	.L22:
 391:d:/LiteOS_Lab/drivers/third_party/ST/STM32L4xx_HAL_Driver/Src\stm32l4xx_hal_tim_ex.c ****   }
 392:d:/LiteOS_Lab/drivers/third_party/ST/STM32L4xx_HAL_Driver/Src\stm32l4xx_hal_tim_ex.c ****   else if((htim->State == HAL_TIM_STATE_READY))
 724              		.loc 1 392 16
 725 001e FB68     		ldr	r3, [r7, #12]
 726 0020 93F83D30 		ldrb	r3, [r3, #61]
 727 0024 DBB2     		uxtb	r3, r3
 728              		.loc 1 392 10
 729 0026 012B     		cmp	r3, #1
 730 0028 0BD1     		bne	.L24
 393:d:/LiteOS_Lab/drivers/third_party/ST/STM32L4xx_HAL_Driver/Src\stm32l4xx_hal_tim_ex.c ****   {
 394:d:/LiteOS_Lab/drivers/third_party/ST/STM32L4xx_HAL_Driver/Src\stm32l4xx_hal_tim_ex.c ****     if(((uint32_t)pData == 0 ) && (Length > 0))
 731              		.loc 1 394 7
 732 002a BB68     		ldr	r3, [r7, #8]
 733 002c 002B     		cmp	r3, #0
 734 002e 04D1     		bne	.L25
 735              		.loc 1 394 32 discriminator 1
 736 0030 FB88     		ldrh	r3, [r7, #6]
 737 0032 002B     		cmp	r3, #0
 738 0034 01D0     		beq	.L25
 395:d:/LiteOS_Lab/drivers/third_party/ST/STM32L4xx_HAL_Driver/Src\stm32l4xx_hal_tim_ex.c ****     {
 396:d:/LiteOS_Lab/drivers/third_party/ST/STM32L4xx_HAL_Driver/Src\stm32l4xx_hal_tim_ex.c ****       return HAL_ERROR;
 739              		.loc 1 396 14
 740 0036 0123     		movs	r3, #1
 741 0038 2DE0     		b	.L23
 742              	.L25:
 397:d:/LiteOS_Lab/drivers/third_party/ST/STM32L4xx_HAL_Driver/Src\stm32l4xx_hal_tim_ex.c ****     }
 398:d:/LiteOS_Lab/drivers/third_party/ST/STM32L4xx_HAL_Driver/Src\stm32l4xx_hal_tim_ex.c ****     else
 399:d:/LiteOS_Lab/drivers/third_party/ST/STM32L4xx_HAL_Driver/Src\stm32l4xx_hal_tim_ex.c ****     {
 400:d:/LiteOS_Lab/drivers/third_party/ST/STM32L4xx_HAL_Driver/Src\stm32l4xx_hal_tim_ex.c ****       htim->State = HAL_TIM_STATE_BUSY;
 743              		.loc 1 400 19
 744 003a FB68     		ldr	r3, [r7, #12]
 745 003c 0222     		movs	r2, #2
 746 003e 83F83D20 		strb	r2, [r3, #61]
 747              	.L24:
 401:d:/LiteOS_Lab/drivers/third_party/ST/STM32L4xx_HAL_Driver/Src\stm32l4xx_hal_tim_ex.c ****     }
 402:d:/LiteOS_Lab/drivers/third_party/ST/STM32L4xx_HAL_Driver/Src\stm32l4xx_hal_tim_ex.c ****   }
 403:d:/LiteOS_Lab/drivers/third_party/ST/STM32L4xx_HAL_Driver/Src\stm32l4xx_hal_tim_ex.c ****   /* Enable the Input Capture channel 1
 404:d:/LiteOS_Lab/drivers/third_party/ST/STM32L4xx_HAL_Driver/Src\stm32l4xx_hal_tim_ex.c ****     (in the Hall Sensor Interface the three possible channels that can be used are TIM_CHANNEL_1, T
 405:d:/LiteOS_Lab/drivers/third_party/ST/STM32L4xx_HAL_Driver/Src\stm32l4xx_hal_tim_ex.c ****   TIM_CCxChannelCmd(htim->Instance, TIM_CHANNEL_1, TIM_CCx_ENABLE);
 748              		.loc 1 405 3
 749 0042 FB68     		ldr	r3, [r7, #12]
 750 0044 1B68     		ldr	r3, [r3]
 751 0046 0122     		movs	r2, #1
 752 0048 0021     		movs	r1, #0
ARM GAS  C:\Users\ADMINI~1\AppData\Local\Temp\ccYWIBty.s 			page 21


 753 004a 1846     		mov	r0, r3
 754 004c FFF7FEFF 		bl	TIM_CCxChannelCmd
 406:d:/LiteOS_Lab/drivers/third_party/ST/STM32L4xx_HAL_Driver/Src\stm32l4xx_hal_tim_ex.c **** 
 407:d:/LiteOS_Lab/drivers/third_party/ST/STM32L4xx_HAL_Driver/Src\stm32l4xx_hal_tim_ex.c ****   /* Set the DMA Input Capture 1 Callback */
 408:d:/LiteOS_Lab/drivers/third_party/ST/STM32L4xx_HAL_Driver/Src\stm32l4xx_hal_tim_ex.c ****   htim->hdma[TIM_DMA_ID_CC1]->XferCpltCallback = TIM_DMACaptureCplt;
 755              		.loc 1 408 13
 756 0050 FB68     		ldr	r3, [r7, #12]
 757 0052 5B6A     		ldr	r3, [r3, #36]
 758              		.loc 1 408 48
 759 0054 124A     		ldr	r2, .L26
 760 0056 DA62     		str	r2, [r3, #44]
 409:d:/LiteOS_Lab/drivers/third_party/ST/STM32L4xx_HAL_Driver/Src\stm32l4xx_hal_tim_ex.c ****   /* Set the DMA error callback */
 410:d:/LiteOS_Lab/drivers/third_party/ST/STM32L4xx_HAL_Driver/Src\stm32l4xx_hal_tim_ex.c ****   htim->hdma[TIM_DMA_ID_CC1]->XferErrorCallback = TIM_DMAError ;
 761              		.loc 1 410 13
 762 0058 FB68     		ldr	r3, [r7, #12]
 763 005a 5B6A     		ldr	r3, [r3, #36]
 764              		.loc 1 410 49
 765 005c 114A     		ldr	r2, .L26+4
 766 005e 5A63     		str	r2, [r3, #52]
 411:d:/LiteOS_Lab/drivers/third_party/ST/STM32L4xx_HAL_Driver/Src\stm32l4xx_hal_tim_ex.c **** 
 412:d:/LiteOS_Lab/drivers/third_party/ST/STM32L4xx_HAL_Driver/Src\stm32l4xx_hal_tim_ex.c ****   /* Enable the DMA channel for Capture 1*/
 413:d:/LiteOS_Lab/drivers/third_party/ST/STM32L4xx_HAL_Driver/Src\stm32l4xx_hal_tim_ex.c ****   HAL_DMA_Start_IT(htim->hdma[TIM_DMA_ID_CC1], (uint32_t)&htim->Instance->CCR1, (uint32_t)pData, Le
 767              		.loc 1 413 3
 768 0060 FB68     		ldr	r3, [r7, #12]
 769 0062 586A     		ldr	r0, [r3, #36]
 770              		.loc 1 413 63
 771 0064 FB68     		ldr	r3, [r7, #12]
 772 0066 1B68     		ldr	r3, [r3]
 773              		.loc 1 413 58
 774 0068 3433     		adds	r3, r3, #52
 775              		.loc 1 413 3
 776 006a 1946     		mov	r1, r3
 777 006c BA68     		ldr	r2, [r7, #8]
 778 006e FB88     		ldrh	r3, [r7, #6]
 779 0070 FFF7FEFF 		bl	HAL_DMA_Start_IT
 414:d:/LiteOS_Lab/drivers/third_party/ST/STM32L4xx_HAL_Driver/Src\stm32l4xx_hal_tim_ex.c **** 
 415:d:/LiteOS_Lab/drivers/third_party/ST/STM32L4xx_HAL_Driver/Src\stm32l4xx_hal_tim_ex.c ****   /* Enable the capture compare 1 Interrupt */
 416:d:/LiteOS_Lab/drivers/third_party/ST/STM32L4xx_HAL_Driver/Src\stm32l4xx_hal_tim_ex.c ****   __HAL_TIM_ENABLE_DMA(htim, TIM_DMA_CC1);
 780              		.loc 1 416 3
 781 0074 FB68     		ldr	r3, [r7, #12]
 782 0076 1B68     		ldr	r3, [r3]
 783 0078 DA68     		ldr	r2, [r3, #12]
 784 007a FB68     		ldr	r3, [r7, #12]
 785 007c 1B68     		ldr	r3, [r3]
 786 007e 42F40072 		orr	r2, r2, #512
 787 0082 DA60     		str	r2, [r3, #12]
 417:d:/LiteOS_Lab/drivers/third_party/ST/STM32L4xx_HAL_Driver/Src\stm32l4xx_hal_tim_ex.c **** 
 418:d:/LiteOS_Lab/drivers/third_party/ST/STM32L4xx_HAL_Driver/Src\stm32l4xx_hal_tim_ex.c ****   /* Enable the Peripheral */
 419:d:/LiteOS_Lab/drivers/third_party/ST/STM32L4xx_HAL_Driver/Src\stm32l4xx_hal_tim_ex.c ****   __HAL_TIM_ENABLE(htim);
 788              		.loc 1 419 3
 789 0084 FB68     		ldr	r3, [r7, #12]
 790 0086 1B68     		ldr	r3, [r3]
 791 0088 1A68     		ldr	r2, [r3]
 792 008a FB68     		ldr	r3, [r7, #12]
 793 008c 1B68     		ldr	r3, [r3]
 794 008e 42F00102 		orr	r2, r2, #1
 795 0092 1A60     		str	r2, [r3]
ARM GAS  C:\Users\ADMINI~1\AppData\Local\Temp\ccYWIBty.s 			page 22


 420:d:/LiteOS_Lab/drivers/third_party/ST/STM32L4xx_HAL_Driver/Src\stm32l4xx_hal_tim_ex.c **** 
 421:d:/LiteOS_Lab/drivers/third_party/ST/STM32L4xx_HAL_Driver/Src\stm32l4xx_hal_tim_ex.c ****   /* Return function status */
 422:d:/LiteOS_Lab/drivers/third_party/ST/STM32L4xx_HAL_Driver/Src\stm32l4xx_hal_tim_ex.c ****   return HAL_OK;
 796              		.loc 1 422 10
 797 0094 0023     		movs	r3, #0
 798              	.L23:
 423:d:/LiteOS_Lab/drivers/third_party/ST/STM32L4xx_HAL_Driver/Src\stm32l4xx_hal_tim_ex.c **** }
 799              		.loc 1 423 1
 800 0096 1846     		mov	r0, r3
 801 0098 1037     		adds	r7, r7, #16
 802              	.LCFI45:
 803              		.cfi_def_cfa_offset 8
 804 009a BD46     		mov	sp, r7
 805              	.LCFI46:
 806              		.cfi_def_cfa_register 13
 807              		@ sp needed
 808 009c 80BD     		pop	{r7, pc}
 809              	.L27:
 810 009e 00BF     		.align	2
 811              	.L26:
 812 00a0 00000000 		.word	TIM_DMACaptureCplt
 813 00a4 00000000 		.word	TIM_DMAError
 814              		.cfi_endproc
 815              	.LFE295:
 817              		.section	.text.HAL_TIMEx_HallSensor_Stop_DMA,"ax",%progbits
 818              		.align	1
 819              		.global	HAL_TIMEx_HallSensor_Stop_DMA
 820              		.syntax unified
 821              		.thumb
 822              		.thumb_func
 823              		.fpu fpv4-sp-d16
 825              	HAL_TIMEx_HallSensor_Stop_DMA:
 826              	.LFB296:
 424:d:/LiteOS_Lab/drivers/third_party/ST/STM32L4xx_HAL_Driver/Src\stm32l4xx_hal_tim_ex.c **** 
 425:d:/LiteOS_Lab/drivers/third_party/ST/STM32L4xx_HAL_Driver/Src\stm32l4xx_hal_tim_ex.c **** /**
 426:d:/LiteOS_Lab/drivers/third_party/ST/STM32L4xx_HAL_Driver/Src\stm32l4xx_hal_tim_ex.c ****   * @brief  Stops the TIM Hall Sensor Interface in DMA mode.
 427:d:/LiteOS_Lab/drivers/third_party/ST/STM32L4xx_HAL_Driver/Src\stm32l4xx_hal_tim_ex.c ****   * @param  htim TIM handle
 428:d:/LiteOS_Lab/drivers/third_party/ST/STM32L4xx_HAL_Driver/Src\stm32l4xx_hal_tim_ex.c ****   * @retval HAL status
 429:d:/LiteOS_Lab/drivers/third_party/ST/STM32L4xx_HAL_Driver/Src\stm32l4xx_hal_tim_ex.c ****   */
 430:d:/LiteOS_Lab/drivers/third_party/ST/STM32L4xx_HAL_Driver/Src\stm32l4xx_hal_tim_ex.c **** HAL_StatusTypeDef HAL_TIMEx_HallSensor_Stop_DMA(TIM_HandleTypeDef *htim)
 431:d:/LiteOS_Lab/drivers/third_party/ST/STM32L4xx_HAL_Driver/Src\stm32l4xx_hal_tim_ex.c **** {
 827              		.loc 1 431 1
 828              		.cfi_startproc
 829              		@ args = 0, pretend = 0, frame = 8
 830              		@ frame_needed = 1, uses_anonymous_args = 0
 831 0000 80B5     		push	{r7, lr}
 832              	.LCFI47:
 833              		.cfi_def_cfa_offset 8
 834              		.cfi_offset 7, -8
 835              		.cfi_offset 14, -4
 836 0002 82B0     		sub	sp, sp, #8
 837              	.LCFI48:
 838              		.cfi_def_cfa_offset 16
 839 0004 00AF     		add	r7, sp, #0
 840              	.LCFI49:
 841              		.cfi_def_cfa_register 7
 842 0006 7860     		str	r0, [r7, #4]
ARM GAS  C:\Users\ADMINI~1\AppData\Local\Temp\ccYWIBty.s 			page 23


 432:d:/LiteOS_Lab/drivers/third_party/ST/STM32L4xx_HAL_Driver/Src\stm32l4xx_hal_tim_ex.c ****   /* Check the parameters */
 433:d:/LiteOS_Lab/drivers/third_party/ST/STM32L4xx_HAL_Driver/Src\stm32l4xx_hal_tim_ex.c ****   assert_param(IS_TIM_HALL_SENSOR_INTERFACE_INSTANCE(htim->Instance));
 434:d:/LiteOS_Lab/drivers/third_party/ST/STM32L4xx_HAL_Driver/Src\stm32l4xx_hal_tim_ex.c **** 
 435:d:/LiteOS_Lab/drivers/third_party/ST/STM32L4xx_HAL_Driver/Src\stm32l4xx_hal_tim_ex.c ****   /* Disable the Input Capture channel 1
 436:d:/LiteOS_Lab/drivers/third_party/ST/STM32L4xx_HAL_Driver/Src\stm32l4xx_hal_tim_ex.c ****     (in the Hall Sensor Interface the three possible channels that can be used are TIM_CHANNEL_1, T
 437:d:/LiteOS_Lab/drivers/third_party/ST/STM32L4xx_HAL_Driver/Src\stm32l4xx_hal_tim_ex.c ****   TIM_CCxChannelCmd(htim->Instance, TIM_CHANNEL_1, TIM_CCx_DISABLE);
 843              		.loc 1 437 3
 844 0008 7B68     		ldr	r3, [r7, #4]
 845 000a 1B68     		ldr	r3, [r3]
 846 000c 0022     		movs	r2, #0
 847 000e 0021     		movs	r1, #0
 848 0010 1846     		mov	r0, r3
 849 0012 FFF7FEFF 		bl	TIM_CCxChannelCmd
 438:d:/LiteOS_Lab/drivers/third_party/ST/STM32L4xx_HAL_Driver/Src\stm32l4xx_hal_tim_ex.c **** 
 439:d:/LiteOS_Lab/drivers/third_party/ST/STM32L4xx_HAL_Driver/Src\stm32l4xx_hal_tim_ex.c **** 
 440:d:/LiteOS_Lab/drivers/third_party/ST/STM32L4xx_HAL_Driver/Src\stm32l4xx_hal_tim_ex.c ****   /* Disable the capture compare Interrupts 1 event */
 441:d:/LiteOS_Lab/drivers/third_party/ST/STM32L4xx_HAL_Driver/Src\stm32l4xx_hal_tim_ex.c ****   __HAL_TIM_DISABLE_DMA(htim, TIM_DMA_CC1);
 850              		.loc 1 441 3
 851 0016 7B68     		ldr	r3, [r7, #4]
 852 0018 1B68     		ldr	r3, [r3]
 853 001a DA68     		ldr	r2, [r3, #12]
 854 001c 7B68     		ldr	r3, [r7, #4]
 855 001e 1B68     		ldr	r3, [r3]
 856 0020 22F40072 		bic	r2, r2, #512
 857 0024 DA60     		str	r2, [r3, #12]
 442:d:/LiteOS_Lab/drivers/third_party/ST/STM32L4xx_HAL_Driver/Src\stm32l4xx_hal_tim_ex.c **** 
 443:d:/LiteOS_Lab/drivers/third_party/ST/STM32L4xx_HAL_Driver/Src\stm32l4xx_hal_tim_ex.c ****   /* Disable the Peripheral */
 444:d:/LiteOS_Lab/drivers/third_party/ST/STM32L4xx_HAL_Driver/Src\stm32l4xx_hal_tim_ex.c ****   __HAL_TIM_DISABLE(htim);
 858              		.loc 1 444 3
 859 0026 7B68     		ldr	r3, [r7, #4]
 860 0028 1B68     		ldr	r3, [r3]
 861 002a 1A6A     		ldr	r2, [r3, #32]
 862 002c 41F21113 		movw	r3, #4369
 863 0030 1340     		ands	r3, r3, r2
 864 0032 002B     		cmp	r3, #0
 865 0034 0FD1     		bne	.L29
 866              		.loc 1 444 3 is_stmt 0 discriminator 1
 867 0036 7B68     		ldr	r3, [r7, #4]
 868 0038 1B68     		ldr	r3, [r3]
 869 003a 1A6A     		ldr	r2, [r3, #32]
 870 003c 40F24443 		movw	r3, #1092
 871 0040 1340     		ands	r3, r3, r2
 872 0042 002B     		cmp	r3, #0
 873 0044 07D1     		bne	.L29
 874              		.loc 1 444 3 discriminator 2
 875 0046 7B68     		ldr	r3, [r7, #4]
 876 0048 1B68     		ldr	r3, [r3]
 877 004a 1A68     		ldr	r2, [r3]
 878 004c 7B68     		ldr	r3, [r7, #4]
 879 004e 1B68     		ldr	r3, [r3]
 880 0050 22F00102 		bic	r2, r2, #1
 881 0054 1A60     		str	r2, [r3]
 882              	.L29:
 445:d:/LiteOS_Lab/drivers/third_party/ST/STM32L4xx_HAL_Driver/Src\stm32l4xx_hal_tim_ex.c **** 
 446:d:/LiteOS_Lab/drivers/third_party/ST/STM32L4xx_HAL_Driver/Src\stm32l4xx_hal_tim_ex.c ****   /* Return function status */
 447:d:/LiteOS_Lab/drivers/third_party/ST/STM32L4xx_HAL_Driver/Src\stm32l4xx_hal_tim_ex.c ****   return HAL_OK;
 883              		.loc 1 447 10 is_stmt 1
ARM GAS  C:\Users\ADMINI~1\AppData\Local\Temp\ccYWIBty.s 			page 24


 884 0056 0023     		movs	r3, #0
 448:d:/LiteOS_Lab/drivers/third_party/ST/STM32L4xx_HAL_Driver/Src\stm32l4xx_hal_tim_ex.c **** }
 885              		.loc 1 448 1
 886 0058 1846     		mov	r0, r3
 887 005a 0837     		adds	r7, r7, #8
 888              	.LCFI50:
 889              		.cfi_def_cfa_offset 8
 890 005c BD46     		mov	sp, r7
 891              	.LCFI51:
 892              		.cfi_def_cfa_register 13
 893              		@ sp needed
 894 005e 80BD     		pop	{r7, pc}
 895              		.cfi_endproc
 896              	.LFE296:
 898              		.section	.text.HAL_TIMEx_OCN_Start,"ax",%progbits
 899              		.align	1
 900              		.global	HAL_TIMEx_OCN_Start
 901              		.syntax unified
 902              		.thumb
 903              		.thumb_func
 904              		.fpu fpv4-sp-d16
 906              	HAL_TIMEx_OCN_Start:
 907              	.LFB297:
 449:d:/LiteOS_Lab/drivers/third_party/ST/STM32L4xx_HAL_Driver/Src\stm32l4xx_hal_tim_ex.c **** 
 450:d:/LiteOS_Lab/drivers/third_party/ST/STM32L4xx_HAL_Driver/Src\stm32l4xx_hal_tim_ex.c **** /**
 451:d:/LiteOS_Lab/drivers/third_party/ST/STM32L4xx_HAL_Driver/Src\stm32l4xx_hal_tim_ex.c ****   * @}
 452:d:/LiteOS_Lab/drivers/third_party/ST/STM32L4xx_HAL_Driver/Src\stm32l4xx_hal_tim_ex.c ****   */
 453:d:/LiteOS_Lab/drivers/third_party/ST/STM32L4xx_HAL_Driver/Src\stm32l4xx_hal_tim_ex.c **** 
 454:d:/LiteOS_Lab/drivers/third_party/ST/STM32L4xx_HAL_Driver/Src\stm32l4xx_hal_tim_ex.c **** /** @defgroup TIMEx_Exported_Functions_Group2 Extended Timer Complementary Output Compare functions
 455:d:/LiteOS_Lab/drivers/third_party/ST/STM32L4xx_HAL_Driver/Src\stm32l4xx_hal_tim_ex.c ****   *  @brief   Timer Complementary Output Compare functions
 456:d:/LiteOS_Lab/drivers/third_party/ST/STM32L4xx_HAL_Driver/Src\stm32l4xx_hal_tim_ex.c ****   *
 457:d:/LiteOS_Lab/drivers/third_party/ST/STM32L4xx_HAL_Driver/Src\stm32l4xx_hal_tim_ex.c **** @verbatim
 458:d:/LiteOS_Lab/drivers/third_party/ST/STM32L4xx_HAL_Driver/Src\stm32l4xx_hal_tim_ex.c ****   ==============================================================================
 459:d:/LiteOS_Lab/drivers/third_party/ST/STM32L4xx_HAL_Driver/Src\stm32l4xx_hal_tim_ex.c ****               ##### Timer Complementary Output Compare functions #####
 460:d:/LiteOS_Lab/drivers/third_party/ST/STM32L4xx_HAL_Driver/Src\stm32l4xx_hal_tim_ex.c ****   ==============================================================================
 461:d:/LiteOS_Lab/drivers/third_party/ST/STM32L4xx_HAL_Driver/Src\stm32l4xx_hal_tim_ex.c ****   [..]
 462:d:/LiteOS_Lab/drivers/third_party/ST/STM32L4xx_HAL_Driver/Src\stm32l4xx_hal_tim_ex.c ****     This section provides functions allowing to:
 463:d:/LiteOS_Lab/drivers/third_party/ST/STM32L4xx_HAL_Driver/Src\stm32l4xx_hal_tim_ex.c ****     (+) Start the Complementary Output Compare/PWM.
 464:d:/LiteOS_Lab/drivers/third_party/ST/STM32L4xx_HAL_Driver/Src\stm32l4xx_hal_tim_ex.c ****     (+) Stop the Complementary Output Compare/PWM.
 465:d:/LiteOS_Lab/drivers/third_party/ST/STM32L4xx_HAL_Driver/Src\stm32l4xx_hal_tim_ex.c ****     (+) Start the Complementary Output Compare/PWM and enable interrupts.
 466:d:/LiteOS_Lab/drivers/third_party/ST/STM32L4xx_HAL_Driver/Src\stm32l4xx_hal_tim_ex.c ****     (+) Stop the Complementary Output Compare/PWM and disable interrupts.
 467:d:/LiteOS_Lab/drivers/third_party/ST/STM32L4xx_HAL_Driver/Src\stm32l4xx_hal_tim_ex.c ****     (+) Start the Complementary Output Compare/PWM and enable DMA transfers.
 468:d:/LiteOS_Lab/drivers/third_party/ST/STM32L4xx_HAL_Driver/Src\stm32l4xx_hal_tim_ex.c ****     (+) Stop the Complementary Output Compare/PWM and disable DMA transfers.
 469:d:/LiteOS_Lab/drivers/third_party/ST/STM32L4xx_HAL_Driver/Src\stm32l4xx_hal_tim_ex.c **** 
 470:d:/LiteOS_Lab/drivers/third_party/ST/STM32L4xx_HAL_Driver/Src\stm32l4xx_hal_tim_ex.c **** @endverbatim
 471:d:/LiteOS_Lab/drivers/third_party/ST/STM32L4xx_HAL_Driver/Src\stm32l4xx_hal_tim_ex.c ****   * @{
 472:d:/LiteOS_Lab/drivers/third_party/ST/STM32L4xx_HAL_Driver/Src\stm32l4xx_hal_tim_ex.c ****   */
 473:d:/LiteOS_Lab/drivers/third_party/ST/STM32L4xx_HAL_Driver/Src\stm32l4xx_hal_tim_ex.c **** 
 474:d:/LiteOS_Lab/drivers/third_party/ST/STM32L4xx_HAL_Driver/Src\stm32l4xx_hal_tim_ex.c **** /**
 475:d:/LiteOS_Lab/drivers/third_party/ST/STM32L4xx_HAL_Driver/Src\stm32l4xx_hal_tim_ex.c ****   * @brief  Starts the TIM Output Compare signal generation on the complementary
 476:d:/LiteOS_Lab/drivers/third_party/ST/STM32L4xx_HAL_Driver/Src\stm32l4xx_hal_tim_ex.c ****   *         output.
 477:d:/LiteOS_Lab/drivers/third_party/ST/STM32L4xx_HAL_Driver/Src\stm32l4xx_hal_tim_ex.c ****   * @param  htim TIM Output Compare handle
 478:d:/LiteOS_Lab/drivers/third_party/ST/STM32L4xx_HAL_Driver/Src\stm32l4xx_hal_tim_ex.c ****   * @param  Channel TIM Channel to be enabled
 479:d:/LiteOS_Lab/drivers/third_party/ST/STM32L4xx_HAL_Driver/Src\stm32l4xx_hal_tim_ex.c ****   *          This parameter can be one of the following values:
 480:d:/LiteOS_Lab/drivers/third_party/ST/STM32L4xx_HAL_Driver/Src\stm32l4xx_hal_tim_ex.c ****   *            @arg TIM_CHANNEL_1: TIM Channel 1 selected
 481:d:/LiteOS_Lab/drivers/third_party/ST/STM32L4xx_HAL_Driver/Src\stm32l4xx_hal_tim_ex.c ****   *            @arg TIM_CHANNEL_2: TIM Channel 2 selected
 482:d:/LiteOS_Lab/drivers/third_party/ST/STM32L4xx_HAL_Driver/Src\stm32l4xx_hal_tim_ex.c ****   *            @arg TIM_CHANNEL_3: TIM Channel 3 selected
ARM GAS  C:\Users\ADMINI~1\AppData\Local\Temp\ccYWIBty.s 			page 25


 483:d:/LiteOS_Lab/drivers/third_party/ST/STM32L4xx_HAL_Driver/Src\stm32l4xx_hal_tim_ex.c ****   * @retval HAL status
 484:d:/LiteOS_Lab/drivers/third_party/ST/STM32L4xx_HAL_Driver/Src\stm32l4xx_hal_tim_ex.c ****   */
 485:d:/LiteOS_Lab/drivers/third_party/ST/STM32L4xx_HAL_Driver/Src\stm32l4xx_hal_tim_ex.c **** HAL_StatusTypeDef HAL_TIMEx_OCN_Start(TIM_HandleTypeDef *htim, uint32_t Channel)
 486:d:/LiteOS_Lab/drivers/third_party/ST/STM32L4xx_HAL_Driver/Src\stm32l4xx_hal_tim_ex.c **** {
 908              		.loc 1 486 1
 909              		.cfi_startproc
 910              		@ args = 0, pretend = 0, frame = 8
 911              		@ frame_needed = 1, uses_anonymous_args = 0
 912 0000 80B5     		push	{r7, lr}
 913              	.LCFI52:
 914              		.cfi_def_cfa_offset 8
 915              		.cfi_offset 7, -8
 916              		.cfi_offset 14, -4
 917 0002 82B0     		sub	sp, sp, #8
 918              	.LCFI53:
 919              		.cfi_def_cfa_offset 16
 920 0004 00AF     		add	r7, sp, #0
 921              	.LCFI54:
 922              		.cfi_def_cfa_register 7
 923 0006 7860     		str	r0, [r7, #4]
 924 0008 3960     		str	r1, [r7]
 487:d:/LiteOS_Lab/drivers/third_party/ST/STM32L4xx_HAL_Driver/Src\stm32l4xx_hal_tim_ex.c ****   /* Check the parameters */
 488:d:/LiteOS_Lab/drivers/third_party/ST/STM32L4xx_HAL_Driver/Src\stm32l4xx_hal_tim_ex.c ****   assert_param(IS_TIM_CCXN_INSTANCE(htim->Instance, Channel));
 489:d:/LiteOS_Lab/drivers/third_party/ST/STM32L4xx_HAL_Driver/Src\stm32l4xx_hal_tim_ex.c **** 
 490:d:/LiteOS_Lab/drivers/third_party/ST/STM32L4xx_HAL_Driver/Src\stm32l4xx_hal_tim_ex.c ****   /* Enable the Capture compare channel N */
 491:d:/LiteOS_Lab/drivers/third_party/ST/STM32L4xx_HAL_Driver/Src\stm32l4xx_hal_tim_ex.c ****   TIM_CCxNChannelCmd(htim->Instance, Channel, TIM_CCxN_ENABLE);
 925              		.loc 1 491 3
 926 000a 7B68     		ldr	r3, [r7, #4]
 927 000c 1B68     		ldr	r3, [r3]
 928 000e 0422     		movs	r2, #4
 929 0010 3968     		ldr	r1, [r7]
 930 0012 1846     		mov	r0, r3
 931 0014 FFF7FEFF 		bl	TIM_CCxNChannelCmd
 492:d:/LiteOS_Lab/drivers/third_party/ST/STM32L4xx_HAL_Driver/Src\stm32l4xx_hal_tim_ex.c **** 
 493:d:/LiteOS_Lab/drivers/third_party/ST/STM32L4xx_HAL_Driver/Src\stm32l4xx_hal_tim_ex.c ****   /* Enable the Main Ouput */
 494:d:/LiteOS_Lab/drivers/third_party/ST/STM32L4xx_HAL_Driver/Src\stm32l4xx_hal_tim_ex.c ****   __HAL_TIM_MOE_ENABLE(htim);
 932              		.loc 1 494 3
 933 0018 7B68     		ldr	r3, [r7, #4]
 934 001a 1B68     		ldr	r3, [r3]
 935 001c 5A6C     		ldr	r2, [r3, #68]
 936 001e 7B68     		ldr	r3, [r7, #4]
 937 0020 1B68     		ldr	r3, [r3]
 938 0022 42F40042 		orr	r2, r2, #32768
 939 0026 5A64     		str	r2, [r3, #68]
 495:d:/LiteOS_Lab/drivers/third_party/ST/STM32L4xx_HAL_Driver/Src\stm32l4xx_hal_tim_ex.c **** 
 496:d:/LiteOS_Lab/drivers/third_party/ST/STM32L4xx_HAL_Driver/Src\stm32l4xx_hal_tim_ex.c ****   /* Enable the Peripheral */
 497:d:/LiteOS_Lab/drivers/third_party/ST/STM32L4xx_HAL_Driver/Src\stm32l4xx_hal_tim_ex.c ****   __HAL_TIM_ENABLE(htim);
 940              		.loc 1 497 3
 941 0028 7B68     		ldr	r3, [r7, #4]
 942 002a 1B68     		ldr	r3, [r3]
 943 002c 1A68     		ldr	r2, [r3]
 944 002e 7B68     		ldr	r3, [r7, #4]
 945 0030 1B68     		ldr	r3, [r3]
 946 0032 42F00102 		orr	r2, r2, #1
 947 0036 1A60     		str	r2, [r3]
 498:d:/LiteOS_Lab/drivers/third_party/ST/STM32L4xx_HAL_Driver/Src\stm32l4xx_hal_tim_ex.c **** 
 499:d:/LiteOS_Lab/drivers/third_party/ST/STM32L4xx_HAL_Driver/Src\stm32l4xx_hal_tim_ex.c ****   /* Return function status */
ARM GAS  C:\Users\ADMINI~1\AppData\Local\Temp\ccYWIBty.s 			page 26


 500:d:/LiteOS_Lab/drivers/third_party/ST/STM32L4xx_HAL_Driver/Src\stm32l4xx_hal_tim_ex.c ****   return HAL_OK;
 948              		.loc 1 500 10
 949 0038 0023     		movs	r3, #0
 501:d:/LiteOS_Lab/drivers/third_party/ST/STM32L4xx_HAL_Driver/Src\stm32l4xx_hal_tim_ex.c **** }
 950              		.loc 1 501 1
 951 003a 1846     		mov	r0, r3
 952 003c 0837     		adds	r7, r7, #8
 953              	.LCFI55:
 954              		.cfi_def_cfa_offset 8
 955 003e BD46     		mov	sp, r7
 956              	.LCFI56:
 957              		.cfi_def_cfa_register 13
 958              		@ sp needed
 959 0040 80BD     		pop	{r7, pc}
 960              		.cfi_endproc
 961              	.LFE297:
 963              		.section	.text.HAL_TIMEx_OCN_Stop,"ax",%progbits
 964              		.align	1
 965              		.global	HAL_TIMEx_OCN_Stop
 966              		.syntax unified
 967              		.thumb
 968              		.thumb_func
 969              		.fpu fpv4-sp-d16
 971              	HAL_TIMEx_OCN_Stop:
 972              	.LFB298:
 502:d:/LiteOS_Lab/drivers/third_party/ST/STM32L4xx_HAL_Driver/Src\stm32l4xx_hal_tim_ex.c **** 
 503:d:/LiteOS_Lab/drivers/third_party/ST/STM32L4xx_HAL_Driver/Src\stm32l4xx_hal_tim_ex.c **** /**
 504:d:/LiteOS_Lab/drivers/third_party/ST/STM32L4xx_HAL_Driver/Src\stm32l4xx_hal_tim_ex.c ****   * @brief  Stops the TIM Output Compare signal generation on the complementary
 505:d:/LiteOS_Lab/drivers/third_party/ST/STM32L4xx_HAL_Driver/Src\stm32l4xx_hal_tim_ex.c ****   *         output.
 506:d:/LiteOS_Lab/drivers/third_party/ST/STM32L4xx_HAL_Driver/Src\stm32l4xx_hal_tim_ex.c ****   * @param  htim TIM handle
 507:d:/LiteOS_Lab/drivers/third_party/ST/STM32L4xx_HAL_Driver/Src\stm32l4xx_hal_tim_ex.c ****   * @param  Channel TIM Channel to be disabled
 508:d:/LiteOS_Lab/drivers/third_party/ST/STM32L4xx_HAL_Driver/Src\stm32l4xx_hal_tim_ex.c ****   *          This parameter can be one of the following values:
 509:d:/LiteOS_Lab/drivers/third_party/ST/STM32L4xx_HAL_Driver/Src\stm32l4xx_hal_tim_ex.c ****   *            @arg TIM_CHANNEL_1: TIM Channel 1 selected
 510:d:/LiteOS_Lab/drivers/third_party/ST/STM32L4xx_HAL_Driver/Src\stm32l4xx_hal_tim_ex.c ****   *            @arg TIM_CHANNEL_2: TIM Channel 2 selected
 511:d:/LiteOS_Lab/drivers/third_party/ST/STM32L4xx_HAL_Driver/Src\stm32l4xx_hal_tim_ex.c ****   *            @arg TIM_CHANNEL_3: TIM Channel 3 selected
 512:d:/LiteOS_Lab/drivers/third_party/ST/STM32L4xx_HAL_Driver/Src\stm32l4xx_hal_tim_ex.c ****   * @retval HAL status
 513:d:/LiteOS_Lab/drivers/third_party/ST/STM32L4xx_HAL_Driver/Src\stm32l4xx_hal_tim_ex.c ****   */
 514:d:/LiteOS_Lab/drivers/third_party/ST/STM32L4xx_HAL_Driver/Src\stm32l4xx_hal_tim_ex.c **** HAL_StatusTypeDef HAL_TIMEx_OCN_Stop(TIM_HandleTypeDef *htim, uint32_t Channel)
 515:d:/LiteOS_Lab/drivers/third_party/ST/STM32L4xx_HAL_Driver/Src\stm32l4xx_hal_tim_ex.c **** {
 973              		.loc 1 515 1
 974              		.cfi_startproc
 975              		@ args = 0, pretend = 0, frame = 8
 976              		@ frame_needed = 1, uses_anonymous_args = 0
 977 0000 80B5     		push	{r7, lr}
 978              	.LCFI57:
 979              		.cfi_def_cfa_offset 8
 980              		.cfi_offset 7, -8
 981              		.cfi_offset 14, -4
 982 0002 82B0     		sub	sp, sp, #8
 983              	.LCFI58:
 984              		.cfi_def_cfa_offset 16
 985 0004 00AF     		add	r7, sp, #0
 986              	.LCFI59:
 987              		.cfi_def_cfa_register 7
 988 0006 7860     		str	r0, [r7, #4]
 989 0008 3960     		str	r1, [r7]
 516:d:/LiteOS_Lab/drivers/third_party/ST/STM32L4xx_HAL_Driver/Src\stm32l4xx_hal_tim_ex.c ****   /* Check the parameters */
ARM GAS  C:\Users\ADMINI~1\AppData\Local\Temp\ccYWIBty.s 			page 27


 517:d:/LiteOS_Lab/drivers/third_party/ST/STM32L4xx_HAL_Driver/Src\stm32l4xx_hal_tim_ex.c ****   assert_param(IS_TIM_CCXN_INSTANCE(htim->Instance, Channel));
 518:d:/LiteOS_Lab/drivers/third_party/ST/STM32L4xx_HAL_Driver/Src\stm32l4xx_hal_tim_ex.c **** 
 519:d:/LiteOS_Lab/drivers/third_party/ST/STM32L4xx_HAL_Driver/Src\stm32l4xx_hal_tim_ex.c ****   /* Disable the Capture compare channel N */
 520:d:/LiteOS_Lab/drivers/third_party/ST/STM32L4xx_HAL_Driver/Src\stm32l4xx_hal_tim_ex.c ****   TIM_CCxNChannelCmd(htim->Instance, Channel, TIM_CCxN_DISABLE);
 990              		.loc 1 520 3
 991 000a 7B68     		ldr	r3, [r7, #4]
 992 000c 1B68     		ldr	r3, [r3]
 993 000e 0022     		movs	r2, #0
 994 0010 3968     		ldr	r1, [r7]
 995 0012 1846     		mov	r0, r3
 996 0014 FFF7FEFF 		bl	TIM_CCxNChannelCmd
 521:d:/LiteOS_Lab/drivers/third_party/ST/STM32L4xx_HAL_Driver/Src\stm32l4xx_hal_tim_ex.c **** 
 522:d:/LiteOS_Lab/drivers/third_party/ST/STM32L4xx_HAL_Driver/Src\stm32l4xx_hal_tim_ex.c ****   /* Disable the Main Ouput */
 523:d:/LiteOS_Lab/drivers/third_party/ST/STM32L4xx_HAL_Driver/Src\stm32l4xx_hal_tim_ex.c ****   __HAL_TIM_MOE_DISABLE(htim);
 997              		.loc 1 523 3
 998 0018 7B68     		ldr	r3, [r7, #4]
 999 001a 1B68     		ldr	r3, [r3]
 1000 001c 1A6A     		ldr	r2, [r3, #32]
 1001 001e 41F21113 		movw	r3, #4369
 1002 0022 1340     		ands	r3, r3, r2
 1003 0024 002B     		cmp	r3, #0
 1004 0026 0FD1     		bne	.L34
 1005              		.loc 1 523 3 is_stmt 0 discriminator 1
 1006 0028 7B68     		ldr	r3, [r7, #4]
 1007 002a 1B68     		ldr	r3, [r3]
 1008 002c 1A6A     		ldr	r2, [r3, #32]
 1009 002e 40F24443 		movw	r3, #1092
 1010 0032 1340     		ands	r3, r3, r2
 1011 0034 002B     		cmp	r3, #0
 1012 0036 07D1     		bne	.L34
 1013              		.loc 1 523 3 discriminator 2
 1014 0038 7B68     		ldr	r3, [r7, #4]
 1015 003a 1B68     		ldr	r3, [r3]
 1016 003c 5A6C     		ldr	r2, [r3, #68]
 1017 003e 7B68     		ldr	r3, [r7, #4]
 1018 0040 1B68     		ldr	r3, [r3]
 1019 0042 22F40042 		bic	r2, r2, #32768
 1020 0046 5A64     		str	r2, [r3, #68]
 1021              	.L34:
 524:d:/LiteOS_Lab/drivers/third_party/ST/STM32L4xx_HAL_Driver/Src\stm32l4xx_hal_tim_ex.c **** 
 525:d:/LiteOS_Lab/drivers/third_party/ST/STM32L4xx_HAL_Driver/Src\stm32l4xx_hal_tim_ex.c ****   /* Disable the Peripheral */
 526:d:/LiteOS_Lab/drivers/third_party/ST/STM32L4xx_HAL_Driver/Src\stm32l4xx_hal_tim_ex.c ****   __HAL_TIM_DISABLE(htim);
 1022              		.loc 1 526 3 is_stmt 1
 1023 0048 7B68     		ldr	r3, [r7, #4]
 1024 004a 1B68     		ldr	r3, [r3]
 1025 004c 1A6A     		ldr	r2, [r3, #32]
 1026 004e 41F21113 		movw	r3, #4369
 1027 0052 1340     		ands	r3, r3, r2
 1028 0054 002B     		cmp	r3, #0
 1029 0056 0FD1     		bne	.L35
 1030              		.loc 1 526 3 is_stmt 0 discriminator 1
 1031 0058 7B68     		ldr	r3, [r7, #4]
 1032 005a 1B68     		ldr	r3, [r3]
 1033 005c 1A6A     		ldr	r2, [r3, #32]
 1034 005e 40F24443 		movw	r3, #1092
 1035 0062 1340     		ands	r3, r3, r2
 1036 0064 002B     		cmp	r3, #0
ARM GAS  C:\Users\ADMINI~1\AppData\Local\Temp\ccYWIBty.s 			page 28


 1037 0066 07D1     		bne	.L35
 1038              		.loc 1 526 3 discriminator 2
 1039 0068 7B68     		ldr	r3, [r7, #4]
 1040 006a 1B68     		ldr	r3, [r3]
 1041 006c 1A68     		ldr	r2, [r3]
 1042 006e 7B68     		ldr	r3, [r7, #4]
 1043 0070 1B68     		ldr	r3, [r3]
 1044 0072 22F00102 		bic	r2, r2, #1
 1045 0076 1A60     		str	r2, [r3]
 1046              	.L35:
 527:d:/LiteOS_Lab/drivers/third_party/ST/STM32L4xx_HAL_Driver/Src\stm32l4xx_hal_tim_ex.c **** 
 528:d:/LiteOS_Lab/drivers/third_party/ST/STM32L4xx_HAL_Driver/Src\stm32l4xx_hal_tim_ex.c ****   /* Return function status */
 529:d:/LiteOS_Lab/drivers/third_party/ST/STM32L4xx_HAL_Driver/Src\stm32l4xx_hal_tim_ex.c ****   return HAL_OK;
 1047              		.loc 1 529 10 is_stmt 1
 1048 0078 0023     		movs	r3, #0
 530:d:/LiteOS_Lab/drivers/third_party/ST/STM32L4xx_HAL_Driver/Src\stm32l4xx_hal_tim_ex.c **** }
 1049              		.loc 1 530 1
 1050 007a 1846     		mov	r0, r3
 1051 007c 0837     		adds	r7, r7, #8
 1052              	.LCFI60:
 1053              		.cfi_def_cfa_offset 8
 1054 007e BD46     		mov	sp, r7
 1055              	.LCFI61:
 1056              		.cfi_def_cfa_register 13
 1057              		@ sp needed
 1058 0080 80BD     		pop	{r7, pc}
 1059              		.cfi_endproc
 1060              	.LFE298:
 1062              		.section	.text.HAL_TIMEx_OCN_Start_IT,"ax",%progbits
 1063              		.align	1
 1064              		.global	HAL_TIMEx_OCN_Start_IT
 1065              		.syntax unified
 1066              		.thumb
 1067              		.thumb_func
 1068              		.fpu fpv4-sp-d16
 1070              	HAL_TIMEx_OCN_Start_IT:
 1071              	.LFB299:
 531:d:/LiteOS_Lab/drivers/third_party/ST/STM32L4xx_HAL_Driver/Src\stm32l4xx_hal_tim_ex.c **** 
 532:d:/LiteOS_Lab/drivers/third_party/ST/STM32L4xx_HAL_Driver/Src\stm32l4xx_hal_tim_ex.c **** /**
 533:d:/LiteOS_Lab/drivers/third_party/ST/STM32L4xx_HAL_Driver/Src\stm32l4xx_hal_tim_ex.c ****   * @brief  Starts the TIM Output Compare signal generation in interrupt mode
 534:d:/LiteOS_Lab/drivers/third_party/ST/STM32L4xx_HAL_Driver/Src\stm32l4xx_hal_tim_ex.c ****   *         on the complementary output.
 535:d:/LiteOS_Lab/drivers/third_party/ST/STM32L4xx_HAL_Driver/Src\stm32l4xx_hal_tim_ex.c ****   * @param  htim TIM OC handle
 536:d:/LiteOS_Lab/drivers/third_party/ST/STM32L4xx_HAL_Driver/Src\stm32l4xx_hal_tim_ex.c ****   * @param  Channel TIM Channel to be enabled
 537:d:/LiteOS_Lab/drivers/third_party/ST/STM32L4xx_HAL_Driver/Src\stm32l4xx_hal_tim_ex.c ****   *          This parameter can be one of the following values:
 538:d:/LiteOS_Lab/drivers/third_party/ST/STM32L4xx_HAL_Driver/Src\stm32l4xx_hal_tim_ex.c ****   *            @arg TIM_CHANNEL_1: TIM Channel 1 selected
 539:d:/LiteOS_Lab/drivers/third_party/ST/STM32L4xx_HAL_Driver/Src\stm32l4xx_hal_tim_ex.c ****   *            @arg TIM_CHANNEL_2: TIM Channel 2 selected
 540:d:/LiteOS_Lab/drivers/third_party/ST/STM32L4xx_HAL_Driver/Src\stm32l4xx_hal_tim_ex.c ****   *            @arg TIM_CHANNEL_3: TIM Channel 3 selected
 541:d:/LiteOS_Lab/drivers/third_party/ST/STM32L4xx_HAL_Driver/Src\stm32l4xx_hal_tim_ex.c ****   * @retval HAL status
 542:d:/LiteOS_Lab/drivers/third_party/ST/STM32L4xx_HAL_Driver/Src\stm32l4xx_hal_tim_ex.c ****   */
 543:d:/LiteOS_Lab/drivers/third_party/ST/STM32L4xx_HAL_Driver/Src\stm32l4xx_hal_tim_ex.c **** HAL_StatusTypeDef HAL_TIMEx_OCN_Start_IT(TIM_HandleTypeDef *htim, uint32_t Channel)
 544:d:/LiteOS_Lab/drivers/third_party/ST/STM32L4xx_HAL_Driver/Src\stm32l4xx_hal_tim_ex.c **** {
 1072              		.loc 1 544 1
 1073              		.cfi_startproc
 1074              		@ args = 0, pretend = 0, frame = 8
 1075              		@ frame_needed = 1, uses_anonymous_args = 0
 1076 0000 80B5     		push	{r7, lr}
 1077              	.LCFI62:
ARM GAS  C:\Users\ADMINI~1\AppData\Local\Temp\ccYWIBty.s 			page 29


 1078              		.cfi_def_cfa_offset 8
 1079              		.cfi_offset 7, -8
 1080              		.cfi_offset 14, -4
 1081 0002 82B0     		sub	sp, sp, #8
 1082              	.LCFI63:
 1083              		.cfi_def_cfa_offset 16
 1084 0004 00AF     		add	r7, sp, #0
 1085              	.LCFI64:
 1086              		.cfi_def_cfa_register 7
 1087 0006 7860     		str	r0, [r7, #4]
 1088 0008 3960     		str	r1, [r7]
 1089 000a 3B68     		ldr	r3, [r7]
 1090 000c 0C2B     		cmp	r3, #12
 1091 000e 41D8     		bhi	.L46
 1092 0010 01A2     		adr	r2, .L40
 1093 0012 52F823F0 		ldr	pc, [r2, r3, lsl #2]
 1094 0016 00BF     		.p2align 2
 1095              	.L40:
 1096 0018 4D000000 		.word	.L43+1
 1097 001c 95000000 		.word	.L46+1
 1098 0020 95000000 		.word	.L46+1
 1099 0024 95000000 		.word	.L46+1
 1100 0028 5F000000 		.word	.L42+1
 1101 002c 95000000 		.word	.L46+1
 1102 0030 95000000 		.word	.L46+1
 1103 0034 95000000 		.word	.L46+1
 1104 0038 71000000 		.word	.L41+1
 1105 003c 95000000 		.word	.L46+1
 1106 0040 95000000 		.word	.L46+1
 1107 0044 95000000 		.word	.L46+1
 1108 0048 83000000 		.word	.L39+1
 1109              		.p2align 1
 1110              	.L43:
 545:d:/LiteOS_Lab/drivers/third_party/ST/STM32L4xx_HAL_Driver/Src\stm32l4xx_hal_tim_ex.c ****   /* Check the parameters */
 546:d:/LiteOS_Lab/drivers/third_party/ST/STM32L4xx_HAL_Driver/Src\stm32l4xx_hal_tim_ex.c ****   assert_param(IS_TIM_CCXN_INSTANCE(htim->Instance, Channel));
 547:d:/LiteOS_Lab/drivers/third_party/ST/STM32L4xx_HAL_Driver/Src\stm32l4xx_hal_tim_ex.c **** 
 548:d:/LiteOS_Lab/drivers/third_party/ST/STM32L4xx_HAL_Driver/Src\stm32l4xx_hal_tim_ex.c ****   switch (Channel)
 549:d:/LiteOS_Lab/drivers/third_party/ST/STM32L4xx_HAL_Driver/Src\stm32l4xx_hal_tim_ex.c ****   {
 550:d:/LiteOS_Lab/drivers/third_party/ST/STM32L4xx_HAL_Driver/Src\stm32l4xx_hal_tim_ex.c ****     case TIM_CHANNEL_1:
 551:d:/LiteOS_Lab/drivers/third_party/ST/STM32L4xx_HAL_Driver/Src\stm32l4xx_hal_tim_ex.c ****     {
 552:d:/LiteOS_Lab/drivers/third_party/ST/STM32L4xx_HAL_Driver/Src\stm32l4xx_hal_tim_ex.c ****       /* Enable the TIM Output Compare interrupt */
 553:d:/LiteOS_Lab/drivers/third_party/ST/STM32L4xx_HAL_Driver/Src\stm32l4xx_hal_tim_ex.c ****       __HAL_TIM_ENABLE_IT(htim, TIM_IT_CC1);
 1111              		.loc 1 553 7
 1112 004c 7B68     		ldr	r3, [r7, #4]
 1113 004e 1B68     		ldr	r3, [r3]
 1114 0050 DA68     		ldr	r2, [r3, #12]
 1115 0052 7B68     		ldr	r3, [r7, #4]
 1116 0054 1B68     		ldr	r3, [r3]
 1117 0056 42F00202 		orr	r2, r2, #2
 1118 005a DA60     		str	r2, [r3, #12]
 554:d:/LiteOS_Lab/drivers/third_party/ST/STM32L4xx_HAL_Driver/Src\stm32l4xx_hal_tim_ex.c ****     }
 555:d:/LiteOS_Lab/drivers/third_party/ST/STM32L4xx_HAL_Driver/Src\stm32l4xx_hal_tim_ex.c ****     break;
 1119              		.loc 1 555 5
 1120 005c 1BE0     		b	.L44
 1121              	.L42:
 556:d:/LiteOS_Lab/drivers/third_party/ST/STM32L4xx_HAL_Driver/Src\stm32l4xx_hal_tim_ex.c **** 
 557:d:/LiteOS_Lab/drivers/third_party/ST/STM32L4xx_HAL_Driver/Src\stm32l4xx_hal_tim_ex.c ****     case TIM_CHANNEL_2:
ARM GAS  C:\Users\ADMINI~1\AppData\Local\Temp\ccYWIBty.s 			page 30


 558:d:/LiteOS_Lab/drivers/third_party/ST/STM32L4xx_HAL_Driver/Src\stm32l4xx_hal_tim_ex.c ****     {
 559:d:/LiteOS_Lab/drivers/third_party/ST/STM32L4xx_HAL_Driver/Src\stm32l4xx_hal_tim_ex.c ****       /* Enable the TIM Output Compare interrupt */
 560:d:/LiteOS_Lab/drivers/third_party/ST/STM32L4xx_HAL_Driver/Src\stm32l4xx_hal_tim_ex.c ****       __HAL_TIM_ENABLE_IT(htim, TIM_IT_CC2);
 1122              		.loc 1 560 7
 1123 005e 7B68     		ldr	r3, [r7, #4]
 1124 0060 1B68     		ldr	r3, [r3]
 1125 0062 DA68     		ldr	r2, [r3, #12]
 1126 0064 7B68     		ldr	r3, [r7, #4]
 1127 0066 1B68     		ldr	r3, [r3]
 1128 0068 42F00402 		orr	r2, r2, #4
 1129 006c DA60     		str	r2, [r3, #12]
 561:d:/LiteOS_Lab/drivers/third_party/ST/STM32L4xx_HAL_Driver/Src\stm32l4xx_hal_tim_ex.c ****     }
 562:d:/LiteOS_Lab/drivers/third_party/ST/STM32L4xx_HAL_Driver/Src\stm32l4xx_hal_tim_ex.c ****     break;
 1130              		.loc 1 562 5
 1131 006e 12E0     		b	.L44
 1132              	.L41:
 563:d:/LiteOS_Lab/drivers/third_party/ST/STM32L4xx_HAL_Driver/Src\stm32l4xx_hal_tim_ex.c **** 
 564:d:/LiteOS_Lab/drivers/third_party/ST/STM32L4xx_HAL_Driver/Src\stm32l4xx_hal_tim_ex.c ****     case TIM_CHANNEL_3:
 565:d:/LiteOS_Lab/drivers/third_party/ST/STM32L4xx_HAL_Driver/Src\stm32l4xx_hal_tim_ex.c ****     {
 566:d:/LiteOS_Lab/drivers/third_party/ST/STM32L4xx_HAL_Driver/Src\stm32l4xx_hal_tim_ex.c ****       /* Enable the TIM Output Compare interrupt */
 567:d:/LiteOS_Lab/drivers/third_party/ST/STM32L4xx_HAL_Driver/Src\stm32l4xx_hal_tim_ex.c ****       __HAL_TIM_ENABLE_IT(htim, TIM_IT_CC3);
 1133              		.loc 1 567 7
 1134 0070 7B68     		ldr	r3, [r7, #4]
 1135 0072 1B68     		ldr	r3, [r3]
 1136 0074 DA68     		ldr	r2, [r3, #12]
 1137 0076 7B68     		ldr	r3, [r7, #4]
 1138 0078 1B68     		ldr	r3, [r3]
 1139 007a 42F00802 		orr	r2, r2, #8
 1140 007e DA60     		str	r2, [r3, #12]
 568:d:/LiteOS_Lab/drivers/third_party/ST/STM32L4xx_HAL_Driver/Src\stm32l4xx_hal_tim_ex.c ****     }
 569:d:/LiteOS_Lab/drivers/third_party/ST/STM32L4xx_HAL_Driver/Src\stm32l4xx_hal_tim_ex.c ****     break;
 1141              		.loc 1 569 5
 1142 0080 09E0     		b	.L44
 1143              	.L39:
 570:d:/LiteOS_Lab/drivers/third_party/ST/STM32L4xx_HAL_Driver/Src\stm32l4xx_hal_tim_ex.c **** 
 571:d:/LiteOS_Lab/drivers/third_party/ST/STM32L4xx_HAL_Driver/Src\stm32l4xx_hal_tim_ex.c ****     case TIM_CHANNEL_4:
 572:d:/LiteOS_Lab/drivers/third_party/ST/STM32L4xx_HAL_Driver/Src\stm32l4xx_hal_tim_ex.c ****     {
 573:d:/LiteOS_Lab/drivers/third_party/ST/STM32L4xx_HAL_Driver/Src\stm32l4xx_hal_tim_ex.c ****       /* Enable the TIM Output Compare interrupt */
 574:d:/LiteOS_Lab/drivers/third_party/ST/STM32L4xx_HAL_Driver/Src\stm32l4xx_hal_tim_ex.c ****       __HAL_TIM_ENABLE_IT(htim, TIM_IT_CC4);
 1144              		.loc 1 574 7
 1145 0082 7B68     		ldr	r3, [r7, #4]
 1146 0084 1B68     		ldr	r3, [r3]
 1147 0086 DA68     		ldr	r2, [r3, #12]
 1148 0088 7B68     		ldr	r3, [r7, #4]
 1149 008a 1B68     		ldr	r3, [r3]
 1150 008c 42F01002 		orr	r2, r2, #16
 1151 0090 DA60     		str	r2, [r3, #12]
 575:d:/LiteOS_Lab/drivers/third_party/ST/STM32L4xx_HAL_Driver/Src\stm32l4xx_hal_tim_ex.c ****     }
 576:d:/LiteOS_Lab/drivers/third_party/ST/STM32L4xx_HAL_Driver/Src\stm32l4xx_hal_tim_ex.c ****     break;
 1152              		.loc 1 576 5
 1153 0092 00E0     		b	.L44
 1154              	.L46:
 577:d:/LiteOS_Lab/drivers/third_party/ST/STM32L4xx_HAL_Driver/Src\stm32l4xx_hal_tim_ex.c **** 
 578:d:/LiteOS_Lab/drivers/third_party/ST/STM32L4xx_HAL_Driver/Src\stm32l4xx_hal_tim_ex.c ****     default:
 579:d:/LiteOS_Lab/drivers/third_party/ST/STM32L4xx_HAL_Driver/Src\stm32l4xx_hal_tim_ex.c ****     break;
 1155              		.loc 1 579 5
 1156 0094 00BF     		nop
ARM GAS  C:\Users\ADMINI~1\AppData\Local\Temp\ccYWIBty.s 			page 31


 1157              	.L44:
 580:d:/LiteOS_Lab/drivers/third_party/ST/STM32L4xx_HAL_Driver/Src\stm32l4xx_hal_tim_ex.c ****   }
 581:d:/LiteOS_Lab/drivers/third_party/ST/STM32L4xx_HAL_Driver/Src\stm32l4xx_hal_tim_ex.c **** 
 582:d:/LiteOS_Lab/drivers/third_party/ST/STM32L4xx_HAL_Driver/Src\stm32l4xx_hal_tim_ex.c ****   /* Enable the TIM Break interrupt */
 583:d:/LiteOS_Lab/drivers/third_party/ST/STM32L4xx_HAL_Driver/Src\stm32l4xx_hal_tim_ex.c ****   __HAL_TIM_ENABLE_IT(htim, TIM_IT_BREAK);
 1158              		.loc 1 583 3
 1159 0096 7B68     		ldr	r3, [r7, #4]
 1160 0098 1B68     		ldr	r3, [r3]
 1161 009a DA68     		ldr	r2, [r3, #12]
 1162 009c 7B68     		ldr	r3, [r7, #4]
 1163 009e 1B68     		ldr	r3, [r3]
 1164 00a0 42F08002 		orr	r2, r2, #128
 1165 00a4 DA60     		str	r2, [r3, #12]
 584:d:/LiteOS_Lab/drivers/third_party/ST/STM32L4xx_HAL_Driver/Src\stm32l4xx_hal_tim_ex.c **** 
 585:d:/LiteOS_Lab/drivers/third_party/ST/STM32L4xx_HAL_Driver/Src\stm32l4xx_hal_tim_ex.c ****   /* Enable the Capture compare channel N */
 586:d:/LiteOS_Lab/drivers/third_party/ST/STM32L4xx_HAL_Driver/Src\stm32l4xx_hal_tim_ex.c ****   TIM_CCxNChannelCmd(htim->Instance, Channel, TIM_CCxN_ENABLE);
 1166              		.loc 1 586 3
 1167 00a6 7B68     		ldr	r3, [r7, #4]
 1168 00a8 1B68     		ldr	r3, [r3]
 1169 00aa 0422     		movs	r2, #4
 1170 00ac 3968     		ldr	r1, [r7]
 1171 00ae 1846     		mov	r0, r3
 1172 00b0 FFF7FEFF 		bl	TIM_CCxNChannelCmd
 587:d:/LiteOS_Lab/drivers/third_party/ST/STM32L4xx_HAL_Driver/Src\stm32l4xx_hal_tim_ex.c **** 
 588:d:/LiteOS_Lab/drivers/third_party/ST/STM32L4xx_HAL_Driver/Src\stm32l4xx_hal_tim_ex.c ****   /* Enable the Main Ouput */
 589:d:/LiteOS_Lab/drivers/third_party/ST/STM32L4xx_HAL_Driver/Src\stm32l4xx_hal_tim_ex.c ****   __HAL_TIM_MOE_ENABLE(htim);
 1173              		.loc 1 589 3
 1174 00b4 7B68     		ldr	r3, [r7, #4]
 1175 00b6 1B68     		ldr	r3, [r3]
 1176 00b8 5A6C     		ldr	r2, [r3, #68]
 1177 00ba 7B68     		ldr	r3, [r7, #4]
 1178 00bc 1B68     		ldr	r3, [r3]
 1179 00be 42F40042 		orr	r2, r2, #32768
 1180 00c2 5A64     		str	r2, [r3, #68]
 590:d:/LiteOS_Lab/drivers/third_party/ST/STM32L4xx_HAL_Driver/Src\stm32l4xx_hal_tim_ex.c **** 
 591:d:/LiteOS_Lab/drivers/third_party/ST/STM32L4xx_HAL_Driver/Src\stm32l4xx_hal_tim_ex.c ****   /* Enable the Peripheral */
 592:d:/LiteOS_Lab/drivers/third_party/ST/STM32L4xx_HAL_Driver/Src\stm32l4xx_hal_tim_ex.c ****   __HAL_TIM_ENABLE(htim);
 1181              		.loc 1 592 3
 1182 00c4 7B68     		ldr	r3, [r7, #4]
 1183 00c6 1B68     		ldr	r3, [r3]
 1184 00c8 1A68     		ldr	r2, [r3]
 1185 00ca 7B68     		ldr	r3, [r7, #4]
 1186 00cc 1B68     		ldr	r3, [r3]
 1187 00ce 42F00102 		orr	r2, r2, #1
 1188 00d2 1A60     		str	r2, [r3]
 593:d:/LiteOS_Lab/drivers/third_party/ST/STM32L4xx_HAL_Driver/Src\stm32l4xx_hal_tim_ex.c **** 
 594:d:/LiteOS_Lab/drivers/third_party/ST/STM32L4xx_HAL_Driver/Src\stm32l4xx_hal_tim_ex.c ****   /* Return function status */
 595:d:/LiteOS_Lab/drivers/third_party/ST/STM32L4xx_HAL_Driver/Src\stm32l4xx_hal_tim_ex.c ****   return HAL_OK;
 1189              		.loc 1 595 10
 1190 00d4 0023     		movs	r3, #0
 596:d:/LiteOS_Lab/drivers/third_party/ST/STM32L4xx_HAL_Driver/Src\stm32l4xx_hal_tim_ex.c **** }
 1191              		.loc 1 596 1
 1192 00d6 1846     		mov	r0, r3
 1193 00d8 0837     		adds	r7, r7, #8
 1194              	.LCFI65:
 1195              		.cfi_def_cfa_offset 8
 1196 00da BD46     		mov	sp, r7
ARM GAS  C:\Users\ADMINI~1\AppData\Local\Temp\ccYWIBty.s 			page 32


 1197              	.LCFI66:
 1198              		.cfi_def_cfa_register 13
 1199              		@ sp needed
 1200 00dc 80BD     		pop	{r7, pc}
 1201              		.cfi_endproc
 1202              	.LFE299:
 1204 00de 00BF     		.section	.text.HAL_TIMEx_OCN_Stop_IT,"ax",%progbits
 1205              		.align	1
 1206              		.global	HAL_TIMEx_OCN_Stop_IT
 1207              		.syntax unified
 1208              		.thumb
 1209              		.thumb_func
 1210              		.fpu fpv4-sp-d16
 1212              	HAL_TIMEx_OCN_Stop_IT:
 1213              	.LFB300:
 597:d:/LiteOS_Lab/drivers/third_party/ST/STM32L4xx_HAL_Driver/Src\stm32l4xx_hal_tim_ex.c **** 
 598:d:/LiteOS_Lab/drivers/third_party/ST/STM32L4xx_HAL_Driver/Src\stm32l4xx_hal_tim_ex.c **** /**
 599:d:/LiteOS_Lab/drivers/third_party/ST/STM32L4xx_HAL_Driver/Src\stm32l4xx_hal_tim_ex.c ****   * @brief  Stops the TIM Output Compare signal generation in interrupt mode
 600:d:/LiteOS_Lab/drivers/third_party/ST/STM32L4xx_HAL_Driver/Src\stm32l4xx_hal_tim_ex.c ****   *         on the complementary output.
 601:d:/LiteOS_Lab/drivers/third_party/ST/STM32L4xx_HAL_Driver/Src\stm32l4xx_hal_tim_ex.c ****   * @param  htim TIM Output Compare handle
 602:d:/LiteOS_Lab/drivers/third_party/ST/STM32L4xx_HAL_Driver/Src\stm32l4xx_hal_tim_ex.c ****   * @param  Channel TIM Channel to be disabled
 603:d:/LiteOS_Lab/drivers/third_party/ST/STM32L4xx_HAL_Driver/Src\stm32l4xx_hal_tim_ex.c ****   *          This parameter can be one of the following values:
 604:d:/LiteOS_Lab/drivers/third_party/ST/STM32L4xx_HAL_Driver/Src\stm32l4xx_hal_tim_ex.c ****   *            @arg TIM_CHANNEL_1: TIM Channel 1 selected
 605:d:/LiteOS_Lab/drivers/third_party/ST/STM32L4xx_HAL_Driver/Src\stm32l4xx_hal_tim_ex.c ****   *            @arg TIM_CHANNEL_2: TIM Channel 2 selected
 606:d:/LiteOS_Lab/drivers/third_party/ST/STM32L4xx_HAL_Driver/Src\stm32l4xx_hal_tim_ex.c ****   *            @arg TIM_CHANNEL_3: TIM Channel 3 selected
 607:d:/LiteOS_Lab/drivers/third_party/ST/STM32L4xx_HAL_Driver/Src\stm32l4xx_hal_tim_ex.c ****   * @retval HAL status
 608:d:/LiteOS_Lab/drivers/third_party/ST/STM32L4xx_HAL_Driver/Src\stm32l4xx_hal_tim_ex.c ****   */
 609:d:/LiteOS_Lab/drivers/third_party/ST/STM32L4xx_HAL_Driver/Src\stm32l4xx_hal_tim_ex.c **** HAL_StatusTypeDef HAL_TIMEx_OCN_Stop_IT(TIM_HandleTypeDef *htim, uint32_t Channel)
 610:d:/LiteOS_Lab/drivers/third_party/ST/STM32L4xx_HAL_Driver/Src\stm32l4xx_hal_tim_ex.c **** {
 1214              		.loc 1 610 1
 1215              		.cfi_startproc
 1216              		@ args = 0, pretend = 0, frame = 16
 1217              		@ frame_needed = 1, uses_anonymous_args = 0
 1218 0000 80B5     		push	{r7, lr}
 1219              	.LCFI67:
 1220              		.cfi_def_cfa_offset 8
 1221              		.cfi_offset 7, -8
 1222              		.cfi_offset 14, -4
 1223 0002 84B0     		sub	sp, sp, #16
 1224              	.LCFI68:
 1225              		.cfi_def_cfa_offset 24
 1226 0004 00AF     		add	r7, sp, #0
 1227              	.LCFI69:
 1228              		.cfi_def_cfa_register 7
 1229 0006 7860     		str	r0, [r7, #4]
 1230 0008 3960     		str	r1, [r7]
 611:d:/LiteOS_Lab/drivers/third_party/ST/STM32L4xx_HAL_Driver/Src\stm32l4xx_hal_tim_ex.c ****   uint32_t tmpccer = 0;
 1231              		.loc 1 611 12
 1232 000a 0023     		movs	r3, #0
 1233 000c FB60     		str	r3, [r7, #12]
 1234 000e 3B68     		ldr	r3, [r7]
 1235 0010 0C2B     		cmp	r3, #12
 1236 0012 41D8     		bhi	.L59
 1237 0014 01A2     		adr	r2, .L50
 1238 0016 52F823F0 		ldr	pc, [r2, r3, lsl #2]
 1239 001a 00BF     		.p2align 2
 1240              	.L50:
ARM GAS  C:\Users\ADMINI~1\AppData\Local\Temp\ccYWIBty.s 			page 33


 1241 001c 51000000 		.word	.L53+1
 1242 0020 99000000 		.word	.L59+1
 1243 0024 99000000 		.word	.L59+1
 1244 0028 99000000 		.word	.L59+1
 1245 002c 63000000 		.word	.L52+1
 1246 0030 99000000 		.word	.L59+1
 1247 0034 99000000 		.word	.L59+1
 1248 0038 99000000 		.word	.L59+1
 1249 003c 75000000 		.word	.L51+1
 1250 0040 99000000 		.word	.L59+1
 1251 0044 99000000 		.word	.L59+1
 1252 0048 99000000 		.word	.L59+1
 1253 004c 87000000 		.word	.L49+1
 1254              		.p2align 1
 1255              	.L53:
 612:d:/LiteOS_Lab/drivers/third_party/ST/STM32L4xx_HAL_Driver/Src\stm32l4xx_hal_tim_ex.c **** 
 613:d:/LiteOS_Lab/drivers/third_party/ST/STM32L4xx_HAL_Driver/Src\stm32l4xx_hal_tim_ex.c ****   /* Check the parameters */
 614:d:/LiteOS_Lab/drivers/third_party/ST/STM32L4xx_HAL_Driver/Src\stm32l4xx_hal_tim_ex.c ****   assert_param(IS_TIM_CCXN_INSTANCE(htim->Instance, Channel));
 615:d:/LiteOS_Lab/drivers/third_party/ST/STM32L4xx_HAL_Driver/Src\stm32l4xx_hal_tim_ex.c **** 
 616:d:/LiteOS_Lab/drivers/third_party/ST/STM32L4xx_HAL_Driver/Src\stm32l4xx_hal_tim_ex.c ****   switch (Channel)
 617:d:/LiteOS_Lab/drivers/third_party/ST/STM32L4xx_HAL_Driver/Src\stm32l4xx_hal_tim_ex.c ****   {
 618:d:/LiteOS_Lab/drivers/third_party/ST/STM32L4xx_HAL_Driver/Src\stm32l4xx_hal_tim_ex.c ****     case TIM_CHANNEL_1:
 619:d:/LiteOS_Lab/drivers/third_party/ST/STM32L4xx_HAL_Driver/Src\stm32l4xx_hal_tim_ex.c ****     {
 620:d:/LiteOS_Lab/drivers/third_party/ST/STM32L4xx_HAL_Driver/Src\stm32l4xx_hal_tim_ex.c ****       /* Disable the TIM Output Compare interrupt */
 621:d:/LiteOS_Lab/drivers/third_party/ST/STM32L4xx_HAL_Driver/Src\stm32l4xx_hal_tim_ex.c ****       __HAL_TIM_DISABLE_IT(htim, TIM_IT_CC1);
 1256              		.loc 1 621 7
 1257 0050 7B68     		ldr	r3, [r7, #4]
 1258 0052 1B68     		ldr	r3, [r3]
 1259 0054 DA68     		ldr	r2, [r3, #12]
 1260 0056 7B68     		ldr	r3, [r7, #4]
 1261 0058 1B68     		ldr	r3, [r3]
 1262 005a 22F00202 		bic	r2, r2, #2
 1263 005e DA60     		str	r2, [r3, #12]
 622:d:/LiteOS_Lab/drivers/third_party/ST/STM32L4xx_HAL_Driver/Src\stm32l4xx_hal_tim_ex.c ****     }
 623:d:/LiteOS_Lab/drivers/third_party/ST/STM32L4xx_HAL_Driver/Src\stm32l4xx_hal_tim_ex.c ****     break;
 1264              		.loc 1 623 5
 1265 0060 1BE0     		b	.L54
 1266              	.L52:
 624:d:/LiteOS_Lab/drivers/third_party/ST/STM32L4xx_HAL_Driver/Src\stm32l4xx_hal_tim_ex.c **** 
 625:d:/LiteOS_Lab/drivers/third_party/ST/STM32L4xx_HAL_Driver/Src\stm32l4xx_hal_tim_ex.c ****     case TIM_CHANNEL_2:
 626:d:/LiteOS_Lab/drivers/third_party/ST/STM32L4xx_HAL_Driver/Src\stm32l4xx_hal_tim_ex.c ****     {
 627:d:/LiteOS_Lab/drivers/third_party/ST/STM32L4xx_HAL_Driver/Src\stm32l4xx_hal_tim_ex.c ****       /* Disable the TIM Output Compare interrupt */
 628:d:/LiteOS_Lab/drivers/third_party/ST/STM32L4xx_HAL_Driver/Src\stm32l4xx_hal_tim_ex.c ****       __HAL_TIM_DISABLE_IT(htim, TIM_IT_CC2);
 1267              		.loc 1 628 7
 1268 0062 7B68     		ldr	r3, [r7, #4]
 1269 0064 1B68     		ldr	r3, [r3]
 1270 0066 DA68     		ldr	r2, [r3, #12]
 1271 0068 7B68     		ldr	r3, [r7, #4]
 1272 006a 1B68     		ldr	r3, [r3]
 1273 006c 22F00402 		bic	r2, r2, #4
 1274 0070 DA60     		str	r2, [r3, #12]
 629:d:/LiteOS_Lab/drivers/third_party/ST/STM32L4xx_HAL_Driver/Src\stm32l4xx_hal_tim_ex.c ****     }
 630:d:/LiteOS_Lab/drivers/third_party/ST/STM32L4xx_HAL_Driver/Src\stm32l4xx_hal_tim_ex.c ****     break;
 1275              		.loc 1 630 5
 1276 0072 12E0     		b	.L54
 1277              	.L51:
 631:d:/LiteOS_Lab/drivers/third_party/ST/STM32L4xx_HAL_Driver/Src\stm32l4xx_hal_tim_ex.c **** 
ARM GAS  C:\Users\ADMINI~1\AppData\Local\Temp\ccYWIBty.s 			page 34


 632:d:/LiteOS_Lab/drivers/third_party/ST/STM32L4xx_HAL_Driver/Src\stm32l4xx_hal_tim_ex.c ****     case TIM_CHANNEL_3:
 633:d:/LiteOS_Lab/drivers/third_party/ST/STM32L4xx_HAL_Driver/Src\stm32l4xx_hal_tim_ex.c ****     {
 634:d:/LiteOS_Lab/drivers/third_party/ST/STM32L4xx_HAL_Driver/Src\stm32l4xx_hal_tim_ex.c ****       /* Disable the TIM Output Compare interrupt */
 635:d:/LiteOS_Lab/drivers/third_party/ST/STM32L4xx_HAL_Driver/Src\stm32l4xx_hal_tim_ex.c ****       __HAL_TIM_DISABLE_IT(htim, TIM_IT_CC3);
 1278              		.loc 1 635 7
 1279 0074 7B68     		ldr	r3, [r7, #4]
 1280 0076 1B68     		ldr	r3, [r3]
 1281 0078 DA68     		ldr	r2, [r3, #12]
 1282 007a 7B68     		ldr	r3, [r7, #4]
 1283 007c 1B68     		ldr	r3, [r3]
 1284 007e 22F00802 		bic	r2, r2, #8
 1285 0082 DA60     		str	r2, [r3, #12]
 636:d:/LiteOS_Lab/drivers/third_party/ST/STM32L4xx_HAL_Driver/Src\stm32l4xx_hal_tim_ex.c ****     }
 637:d:/LiteOS_Lab/drivers/third_party/ST/STM32L4xx_HAL_Driver/Src\stm32l4xx_hal_tim_ex.c ****     break;
 1286              		.loc 1 637 5
 1287 0084 09E0     		b	.L54
 1288              	.L49:
 638:d:/LiteOS_Lab/drivers/third_party/ST/STM32L4xx_HAL_Driver/Src\stm32l4xx_hal_tim_ex.c **** 
 639:d:/LiteOS_Lab/drivers/third_party/ST/STM32L4xx_HAL_Driver/Src\stm32l4xx_hal_tim_ex.c ****     case TIM_CHANNEL_4:
 640:d:/LiteOS_Lab/drivers/third_party/ST/STM32L4xx_HAL_Driver/Src\stm32l4xx_hal_tim_ex.c ****     {
 641:d:/LiteOS_Lab/drivers/third_party/ST/STM32L4xx_HAL_Driver/Src\stm32l4xx_hal_tim_ex.c ****       /* Disable the TIM Output Compare interrupt */
 642:d:/LiteOS_Lab/drivers/third_party/ST/STM32L4xx_HAL_Driver/Src\stm32l4xx_hal_tim_ex.c ****       __HAL_TIM_DISABLE_IT(htim, TIM_IT_CC4);
 1289              		.loc 1 642 7
 1290 0086 7B68     		ldr	r3, [r7, #4]
 1291 0088 1B68     		ldr	r3, [r3]
 1292 008a DA68     		ldr	r2, [r3, #12]
 1293 008c 7B68     		ldr	r3, [r7, #4]
 1294 008e 1B68     		ldr	r3, [r3]
 1295 0090 22F01002 		bic	r2, r2, #16
 1296 0094 DA60     		str	r2, [r3, #12]
 643:d:/LiteOS_Lab/drivers/third_party/ST/STM32L4xx_HAL_Driver/Src\stm32l4xx_hal_tim_ex.c ****     }
 644:d:/LiteOS_Lab/drivers/third_party/ST/STM32L4xx_HAL_Driver/Src\stm32l4xx_hal_tim_ex.c ****     break;
 1297              		.loc 1 644 5
 1298 0096 00E0     		b	.L54
 1299              	.L59:
 645:d:/LiteOS_Lab/drivers/third_party/ST/STM32L4xx_HAL_Driver/Src\stm32l4xx_hal_tim_ex.c **** 
 646:d:/LiteOS_Lab/drivers/third_party/ST/STM32L4xx_HAL_Driver/Src\stm32l4xx_hal_tim_ex.c ****     default:
 647:d:/LiteOS_Lab/drivers/third_party/ST/STM32L4xx_HAL_Driver/Src\stm32l4xx_hal_tim_ex.c ****     break;
 1300              		.loc 1 647 5
 1301 0098 00BF     		nop
 1302              	.L54:
 648:d:/LiteOS_Lab/drivers/third_party/ST/STM32L4xx_HAL_Driver/Src\stm32l4xx_hal_tim_ex.c ****   }
 649:d:/LiteOS_Lab/drivers/third_party/ST/STM32L4xx_HAL_Driver/Src\stm32l4xx_hal_tim_ex.c **** 
 650:d:/LiteOS_Lab/drivers/third_party/ST/STM32L4xx_HAL_Driver/Src\stm32l4xx_hal_tim_ex.c ****   /* Disable the Capture compare channel N */
 651:d:/LiteOS_Lab/drivers/third_party/ST/STM32L4xx_HAL_Driver/Src\stm32l4xx_hal_tim_ex.c ****   TIM_CCxNChannelCmd(htim->Instance, Channel, TIM_CCxN_DISABLE);
 1303              		.loc 1 651 3
 1304 009a 7B68     		ldr	r3, [r7, #4]
 1305 009c 1B68     		ldr	r3, [r3]
 1306 009e 0022     		movs	r2, #0
 1307 00a0 3968     		ldr	r1, [r7]
 1308 00a2 1846     		mov	r0, r3
 1309 00a4 FFF7FEFF 		bl	TIM_CCxNChannelCmd
 652:d:/LiteOS_Lab/drivers/third_party/ST/STM32L4xx_HAL_Driver/Src\stm32l4xx_hal_tim_ex.c **** 
 653:d:/LiteOS_Lab/drivers/third_party/ST/STM32L4xx_HAL_Driver/Src\stm32l4xx_hal_tim_ex.c ****   /* Disable the TIM Break interrupt (only if no more channel is active) */
 654:d:/LiteOS_Lab/drivers/third_party/ST/STM32L4xx_HAL_Driver/Src\stm32l4xx_hal_tim_ex.c ****   tmpccer = htim->Instance->CCER;
 1310              		.loc 1 654 17
 1311 00a8 7B68     		ldr	r3, [r7, #4]
ARM GAS  C:\Users\ADMINI~1\AppData\Local\Temp\ccYWIBty.s 			page 35


 1312 00aa 1B68     		ldr	r3, [r3]
 1313              		.loc 1 654 11
 1314 00ac 1B6A     		ldr	r3, [r3, #32]
 1315 00ae FB60     		str	r3, [r7, #12]
 655:d:/LiteOS_Lab/drivers/third_party/ST/STM32L4xx_HAL_Driver/Src\stm32l4xx_hal_tim_ex.c ****   if ((tmpccer & (TIM_CCER_CC1NE | TIM_CCER_CC2NE | TIM_CCER_CC3NE)) == RESET)
 1316              		.loc 1 655 16
 1317 00b0 FA68     		ldr	r2, [r7, #12]
 1318 00b2 40F24443 		movw	r3, #1092
 1319 00b6 1340     		ands	r3, r3, r2
 1320              		.loc 1 655 6
 1321 00b8 002B     		cmp	r3, #0
 1322 00ba 07D1     		bne	.L55
 656:d:/LiteOS_Lab/drivers/third_party/ST/STM32L4xx_HAL_Driver/Src\stm32l4xx_hal_tim_ex.c ****   {
 657:d:/LiteOS_Lab/drivers/third_party/ST/STM32L4xx_HAL_Driver/Src\stm32l4xx_hal_tim_ex.c ****     __HAL_TIM_DISABLE_IT(htim, TIM_IT_BREAK);
 1323              		.loc 1 657 5
 1324 00bc 7B68     		ldr	r3, [r7, #4]
 1325 00be 1B68     		ldr	r3, [r3]
 1326 00c0 DA68     		ldr	r2, [r3, #12]
 1327 00c2 7B68     		ldr	r3, [r7, #4]
 1328 00c4 1B68     		ldr	r3, [r3]
 1329 00c6 22F08002 		bic	r2, r2, #128
 1330 00ca DA60     		str	r2, [r3, #12]
 1331              	.L55:
 658:d:/LiteOS_Lab/drivers/third_party/ST/STM32L4xx_HAL_Driver/Src\stm32l4xx_hal_tim_ex.c ****   }
 659:d:/LiteOS_Lab/drivers/third_party/ST/STM32L4xx_HAL_Driver/Src\stm32l4xx_hal_tim_ex.c **** 
 660:d:/LiteOS_Lab/drivers/third_party/ST/STM32L4xx_HAL_Driver/Src\stm32l4xx_hal_tim_ex.c ****   /* Disable the Main Ouput */
 661:d:/LiteOS_Lab/drivers/third_party/ST/STM32L4xx_HAL_Driver/Src\stm32l4xx_hal_tim_ex.c ****   __HAL_TIM_MOE_DISABLE(htim);
 1332              		.loc 1 661 3
 1333 00cc 7B68     		ldr	r3, [r7, #4]
 1334 00ce 1B68     		ldr	r3, [r3]
 1335 00d0 1A6A     		ldr	r2, [r3, #32]
 1336 00d2 41F21113 		movw	r3, #4369
 1337 00d6 1340     		ands	r3, r3, r2
 1338 00d8 002B     		cmp	r3, #0
 1339 00da 0FD1     		bne	.L56
 1340              		.loc 1 661 3 is_stmt 0 discriminator 1
 1341 00dc 7B68     		ldr	r3, [r7, #4]
 1342 00de 1B68     		ldr	r3, [r3]
 1343 00e0 1A6A     		ldr	r2, [r3, #32]
 1344 00e2 40F24443 		movw	r3, #1092
 1345 00e6 1340     		ands	r3, r3, r2
 1346 00e8 002B     		cmp	r3, #0
 1347 00ea 07D1     		bne	.L56
 1348              		.loc 1 661 3 discriminator 2
 1349 00ec 7B68     		ldr	r3, [r7, #4]
 1350 00ee 1B68     		ldr	r3, [r3]
 1351 00f0 5A6C     		ldr	r2, [r3, #68]
 1352 00f2 7B68     		ldr	r3, [r7, #4]
 1353 00f4 1B68     		ldr	r3, [r3]
 1354 00f6 22F40042 		bic	r2, r2, #32768
 1355 00fa 5A64     		str	r2, [r3, #68]
 1356              	.L56:
 662:d:/LiteOS_Lab/drivers/third_party/ST/STM32L4xx_HAL_Driver/Src\stm32l4xx_hal_tim_ex.c **** 
 663:d:/LiteOS_Lab/drivers/third_party/ST/STM32L4xx_HAL_Driver/Src\stm32l4xx_hal_tim_ex.c ****   /* Disable the Peripheral */
 664:d:/LiteOS_Lab/drivers/third_party/ST/STM32L4xx_HAL_Driver/Src\stm32l4xx_hal_tim_ex.c ****   __HAL_TIM_DISABLE(htim);
 1357              		.loc 1 664 3 is_stmt 1
 1358 00fc 7B68     		ldr	r3, [r7, #4]
ARM GAS  C:\Users\ADMINI~1\AppData\Local\Temp\ccYWIBty.s 			page 36


 1359 00fe 1B68     		ldr	r3, [r3]
 1360 0100 1A6A     		ldr	r2, [r3, #32]
 1361 0102 41F21113 		movw	r3, #4369
 1362 0106 1340     		ands	r3, r3, r2
 1363 0108 002B     		cmp	r3, #0
 1364 010a 0FD1     		bne	.L57
 1365              		.loc 1 664 3 is_stmt 0 discriminator 1
 1366 010c 7B68     		ldr	r3, [r7, #4]
 1367 010e 1B68     		ldr	r3, [r3]
 1368 0110 1A6A     		ldr	r2, [r3, #32]
 1369 0112 40F24443 		movw	r3, #1092
 1370 0116 1340     		ands	r3, r3, r2
 1371 0118 002B     		cmp	r3, #0
 1372 011a 07D1     		bne	.L57
 1373              		.loc 1 664 3 discriminator 2
 1374 011c 7B68     		ldr	r3, [r7, #4]
 1375 011e 1B68     		ldr	r3, [r3]
 1376 0120 1A68     		ldr	r2, [r3]
 1377 0122 7B68     		ldr	r3, [r7, #4]
 1378 0124 1B68     		ldr	r3, [r3]
 1379 0126 22F00102 		bic	r2, r2, #1
 1380 012a 1A60     		str	r2, [r3]
 1381              	.L57:
 665:d:/LiteOS_Lab/drivers/third_party/ST/STM32L4xx_HAL_Driver/Src\stm32l4xx_hal_tim_ex.c **** 
 666:d:/LiteOS_Lab/drivers/third_party/ST/STM32L4xx_HAL_Driver/Src\stm32l4xx_hal_tim_ex.c ****   /* Return function status */
 667:d:/LiteOS_Lab/drivers/third_party/ST/STM32L4xx_HAL_Driver/Src\stm32l4xx_hal_tim_ex.c ****   return HAL_OK;
 1382              		.loc 1 667 10 is_stmt 1
 1383 012c 0023     		movs	r3, #0
 668:d:/LiteOS_Lab/drivers/third_party/ST/STM32L4xx_HAL_Driver/Src\stm32l4xx_hal_tim_ex.c **** }
 1384              		.loc 1 668 1
 1385 012e 1846     		mov	r0, r3
 1386 0130 1037     		adds	r7, r7, #16
 1387              	.LCFI70:
 1388              		.cfi_def_cfa_offset 8
 1389 0132 BD46     		mov	sp, r7
 1390              	.LCFI71:
 1391              		.cfi_def_cfa_register 13
 1392              		@ sp needed
 1393 0134 80BD     		pop	{r7, pc}
 1394              		.cfi_endproc
 1395              	.LFE300:
 1397 0136 00BF     		.section	.text.HAL_TIMEx_OCN_Start_DMA,"ax",%progbits
 1398              		.align	1
 1399              		.global	HAL_TIMEx_OCN_Start_DMA
 1400              		.syntax unified
 1401              		.thumb
 1402              		.thumb_func
 1403              		.fpu fpv4-sp-d16
 1405              	HAL_TIMEx_OCN_Start_DMA:
 1406              	.LFB301:
 669:d:/LiteOS_Lab/drivers/third_party/ST/STM32L4xx_HAL_Driver/Src\stm32l4xx_hal_tim_ex.c **** 
 670:d:/LiteOS_Lab/drivers/third_party/ST/STM32L4xx_HAL_Driver/Src\stm32l4xx_hal_tim_ex.c **** /**
 671:d:/LiteOS_Lab/drivers/third_party/ST/STM32L4xx_HAL_Driver/Src\stm32l4xx_hal_tim_ex.c ****   * @brief  Starts the TIM Output Compare signal generation in DMA mode
 672:d:/LiteOS_Lab/drivers/third_party/ST/STM32L4xx_HAL_Driver/Src\stm32l4xx_hal_tim_ex.c ****   *         on the complementary output.
 673:d:/LiteOS_Lab/drivers/third_party/ST/STM32L4xx_HAL_Driver/Src\stm32l4xx_hal_tim_ex.c ****   * @param  htim TIM Output Compare handle
 674:d:/LiteOS_Lab/drivers/third_party/ST/STM32L4xx_HAL_Driver/Src\stm32l4xx_hal_tim_ex.c ****   * @param  Channel TIM Channel to be enabled
 675:d:/LiteOS_Lab/drivers/third_party/ST/STM32L4xx_HAL_Driver/Src\stm32l4xx_hal_tim_ex.c ****   *          This parameter can be one of the following values:
ARM GAS  C:\Users\ADMINI~1\AppData\Local\Temp\ccYWIBty.s 			page 37


 676:d:/LiteOS_Lab/drivers/third_party/ST/STM32L4xx_HAL_Driver/Src\stm32l4xx_hal_tim_ex.c ****   *            @arg TIM_CHANNEL_1: TIM Channel 1 selected
 677:d:/LiteOS_Lab/drivers/third_party/ST/STM32L4xx_HAL_Driver/Src\stm32l4xx_hal_tim_ex.c ****   *            @arg TIM_CHANNEL_2: TIM Channel 2 selected
 678:d:/LiteOS_Lab/drivers/third_party/ST/STM32L4xx_HAL_Driver/Src\stm32l4xx_hal_tim_ex.c ****   *            @arg TIM_CHANNEL_3: TIM Channel 3 selected
 679:d:/LiteOS_Lab/drivers/third_party/ST/STM32L4xx_HAL_Driver/Src\stm32l4xx_hal_tim_ex.c ****   * @param  pData The source Buffer address.
 680:d:/LiteOS_Lab/drivers/third_party/ST/STM32L4xx_HAL_Driver/Src\stm32l4xx_hal_tim_ex.c ****   * @param  Length The length of data to be transferred from memory to TIM peripheral
 681:d:/LiteOS_Lab/drivers/third_party/ST/STM32L4xx_HAL_Driver/Src\stm32l4xx_hal_tim_ex.c ****   * @retval HAL status
 682:d:/LiteOS_Lab/drivers/third_party/ST/STM32L4xx_HAL_Driver/Src\stm32l4xx_hal_tim_ex.c ****   */
 683:d:/LiteOS_Lab/drivers/third_party/ST/STM32L4xx_HAL_Driver/Src\stm32l4xx_hal_tim_ex.c **** HAL_StatusTypeDef HAL_TIMEx_OCN_Start_DMA(TIM_HandleTypeDef *htim, uint32_t Channel, uint32_t *pDat
 684:d:/LiteOS_Lab/drivers/third_party/ST/STM32L4xx_HAL_Driver/Src\stm32l4xx_hal_tim_ex.c **** {
 1407              		.loc 1 684 1
 1408              		.cfi_startproc
 1409              		@ args = 0, pretend = 0, frame = 16
 1410              		@ frame_needed = 1, uses_anonymous_args = 0
 1411 0000 80B5     		push	{r7, lr}
 1412              	.LCFI72:
 1413              		.cfi_def_cfa_offset 8
 1414              		.cfi_offset 7, -8
 1415              		.cfi_offset 14, -4
 1416 0002 84B0     		sub	sp, sp, #16
 1417              	.LCFI73:
 1418              		.cfi_def_cfa_offset 24
 1419 0004 00AF     		add	r7, sp, #0
 1420              	.LCFI74:
 1421              		.cfi_def_cfa_register 7
 1422 0006 F860     		str	r0, [r7, #12]
 1423 0008 B960     		str	r1, [r7, #8]
 1424 000a 7A60     		str	r2, [r7, #4]
 1425 000c 7B80     		strh	r3, [r7, #2]	@ movhi
 685:d:/LiteOS_Lab/drivers/third_party/ST/STM32L4xx_HAL_Driver/Src\stm32l4xx_hal_tim_ex.c ****   /* Check the parameters */
 686:d:/LiteOS_Lab/drivers/third_party/ST/STM32L4xx_HAL_Driver/Src\stm32l4xx_hal_tim_ex.c ****   assert_param(IS_TIM_CCXN_INSTANCE(htim->Instance, Channel));
 687:d:/LiteOS_Lab/drivers/third_party/ST/STM32L4xx_HAL_Driver/Src\stm32l4xx_hal_tim_ex.c **** 
 688:d:/LiteOS_Lab/drivers/third_party/ST/STM32L4xx_HAL_Driver/Src\stm32l4xx_hal_tim_ex.c ****   if((htim->State == HAL_TIM_STATE_BUSY))
 1426              		.loc 1 688 11
 1427 000e FB68     		ldr	r3, [r7, #12]
 1428 0010 93F83D30 		ldrb	r3, [r3, #61]
 1429 0014 DBB2     		uxtb	r3, r3
 1430              		.loc 1 688 5
 1431 0016 022B     		cmp	r3, #2
 1432 0018 01D1     		bne	.L61
 689:d:/LiteOS_Lab/drivers/third_party/ST/STM32L4xx_HAL_Driver/Src\stm32l4xx_hal_tim_ex.c ****   {
 690:d:/LiteOS_Lab/drivers/third_party/ST/STM32L4xx_HAL_Driver/Src\stm32l4xx_hal_tim_ex.c ****      return HAL_BUSY;
 1433              		.loc 1 690 13
 1434 001a 0223     		movs	r3, #2
 1435 001c B7E0     		b	.L62
 1436              	.L61:
 691:d:/LiteOS_Lab/drivers/third_party/ST/STM32L4xx_HAL_Driver/Src\stm32l4xx_hal_tim_ex.c ****   }
 692:d:/LiteOS_Lab/drivers/third_party/ST/STM32L4xx_HAL_Driver/Src\stm32l4xx_hal_tim_ex.c ****   else if((htim->State == HAL_TIM_STATE_READY))
 1437              		.loc 1 692 16
 1438 001e FB68     		ldr	r3, [r7, #12]
 1439 0020 93F83D30 		ldrb	r3, [r3, #61]
 1440 0024 DBB2     		uxtb	r3, r3
 1441              		.loc 1 692 10
 1442 0026 012B     		cmp	r3, #1
 1443 0028 0BD1     		bne	.L63
 693:d:/LiteOS_Lab/drivers/third_party/ST/STM32L4xx_HAL_Driver/Src\stm32l4xx_hal_tim_ex.c ****   {
 694:d:/LiteOS_Lab/drivers/third_party/ST/STM32L4xx_HAL_Driver/Src\stm32l4xx_hal_tim_ex.c ****     if(((uint32_t)pData == 0 ) && (Length > 0))
 1444              		.loc 1 694 7
ARM GAS  C:\Users\ADMINI~1\AppData\Local\Temp\ccYWIBty.s 			page 38


 1445 002a 7B68     		ldr	r3, [r7, #4]
 1446 002c 002B     		cmp	r3, #0
 1447 002e 04D1     		bne	.L64
 1448              		.loc 1 694 32 discriminator 1
 1449 0030 7B88     		ldrh	r3, [r7, #2]
 1450 0032 002B     		cmp	r3, #0
 1451 0034 01D0     		beq	.L64
 695:d:/LiteOS_Lab/drivers/third_party/ST/STM32L4xx_HAL_Driver/Src\stm32l4xx_hal_tim_ex.c ****     {
 696:d:/LiteOS_Lab/drivers/third_party/ST/STM32L4xx_HAL_Driver/Src\stm32l4xx_hal_tim_ex.c ****       return HAL_ERROR;
 1452              		.loc 1 696 14
 1453 0036 0123     		movs	r3, #1
 1454 0038 A9E0     		b	.L62
 1455              	.L64:
 697:d:/LiteOS_Lab/drivers/third_party/ST/STM32L4xx_HAL_Driver/Src\stm32l4xx_hal_tim_ex.c ****     }
 698:d:/LiteOS_Lab/drivers/third_party/ST/STM32L4xx_HAL_Driver/Src\stm32l4xx_hal_tim_ex.c ****     else
 699:d:/LiteOS_Lab/drivers/third_party/ST/STM32L4xx_HAL_Driver/Src\stm32l4xx_hal_tim_ex.c ****     {
 700:d:/LiteOS_Lab/drivers/third_party/ST/STM32L4xx_HAL_Driver/Src\stm32l4xx_hal_tim_ex.c ****       htim->State = HAL_TIM_STATE_BUSY;
 1456              		.loc 1 700 19
 1457 003a FB68     		ldr	r3, [r7, #12]
 1458 003c 0222     		movs	r2, #2
 1459 003e 83F83D20 		strb	r2, [r3, #61]
 1460              	.L63:
 1461 0042 BB68     		ldr	r3, [r7, #8]
 1462 0044 0C2B     		cmp	r3, #12
 1463 0046 00F28980 		bhi	.L72
 1464 004a 01A2     		adr	r2, .L67
 1465 004c 52F823F0 		ldr	pc, [r2, r3, lsl #2]
 1466              		.p2align 2
 1467              	.L67:
 1468 0050 85000000 		.word	.L70+1
 1469 0054 5D010000 		.word	.L72+1
 1470 0058 5D010000 		.word	.L72+1
 1471 005c 5D010000 		.word	.L72+1
 1472 0060 BB000000 		.word	.L69+1
 1473 0064 5D010000 		.word	.L72+1
 1474 0068 5D010000 		.word	.L72+1
 1475 006c 5D010000 		.word	.L72+1
 1476 0070 F1000000 		.word	.L68+1
 1477 0074 5D010000 		.word	.L72+1
 1478 0078 5D010000 		.word	.L72+1
 1479 007c 5D010000 		.word	.L72+1
 1480 0080 27010000 		.word	.L66+1
 1481              		.p2align 1
 1482              	.L70:
 701:d:/LiteOS_Lab/drivers/third_party/ST/STM32L4xx_HAL_Driver/Src\stm32l4xx_hal_tim_ex.c ****     }
 702:d:/LiteOS_Lab/drivers/third_party/ST/STM32L4xx_HAL_Driver/Src\stm32l4xx_hal_tim_ex.c ****   }
 703:d:/LiteOS_Lab/drivers/third_party/ST/STM32L4xx_HAL_Driver/Src\stm32l4xx_hal_tim_ex.c ****   switch (Channel)
 704:d:/LiteOS_Lab/drivers/third_party/ST/STM32L4xx_HAL_Driver/Src\stm32l4xx_hal_tim_ex.c ****   {
 705:d:/LiteOS_Lab/drivers/third_party/ST/STM32L4xx_HAL_Driver/Src\stm32l4xx_hal_tim_ex.c ****     case TIM_CHANNEL_1:
 706:d:/LiteOS_Lab/drivers/third_party/ST/STM32L4xx_HAL_Driver/Src\stm32l4xx_hal_tim_ex.c ****     {
 707:d:/LiteOS_Lab/drivers/third_party/ST/STM32L4xx_HAL_Driver/Src\stm32l4xx_hal_tim_ex.c ****       /* Set the DMA Period elapsed callback */
 708:d:/LiteOS_Lab/drivers/third_party/ST/STM32L4xx_HAL_Driver/Src\stm32l4xx_hal_tim_ex.c ****       htim->hdma[TIM_DMA_ID_CC1]->XferCpltCallback = TIM_DMADelayPulseCplt;
 1483              		.loc 1 708 17
 1484 0084 FB68     		ldr	r3, [r7, #12]
 1485 0086 5B6A     		ldr	r3, [r3, #36]
 1486              		.loc 1 708 52
 1487 0088 434A     		ldr	r2, .L73
ARM GAS  C:\Users\ADMINI~1\AppData\Local\Temp\ccYWIBty.s 			page 39


 1488 008a DA62     		str	r2, [r3, #44]
 709:d:/LiteOS_Lab/drivers/third_party/ST/STM32L4xx_HAL_Driver/Src\stm32l4xx_hal_tim_ex.c **** 
 710:d:/LiteOS_Lab/drivers/third_party/ST/STM32L4xx_HAL_Driver/Src\stm32l4xx_hal_tim_ex.c ****       /* Set the DMA error callback */
 711:d:/LiteOS_Lab/drivers/third_party/ST/STM32L4xx_HAL_Driver/Src\stm32l4xx_hal_tim_ex.c ****       htim->hdma[TIM_DMA_ID_CC1]->XferErrorCallback = TIM_DMAError ;
 1489              		.loc 1 711 17
 1490 008c FB68     		ldr	r3, [r7, #12]
 1491 008e 5B6A     		ldr	r3, [r3, #36]
 1492              		.loc 1 711 53
 1493 0090 424A     		ldr	r2, .L73+4
 1494 0092 5A63     		str	r2, [r3, #52]
 712:d:/LiteOS_Lab/drivers/third_party/ST/STM32L4xx_HAL_Driver/Src\stm32l4xx_hal_tim_ex.c **** 
 713:d:/LiteOS_Lab/drivers/third_party/ST/STM32L4xx_HAL_Driver/Src\stm32l4xx_hal_tim_ex.c ****       /* Enable the DMA channel */
 714:d:/LiteOS_Lab/drivers/third_party/ST/STM32L4xx_HAL_Driver/Src\stm32l4xx_hal_tim_ex.c ****       HAL_DMA_Start_IT(htim->hdma[TIM_DMA_ID_CC1], (uint32_t)pData, (uint32_t)&htim->Instance->CCR1
 1495              		.loc 1 714 7
 1496 0094 FB68     		ldr	r3, [r7, #12]
 1497 0096 586A     		ldr	r0, [r3, #36]
 1498 0098 7968     		ldr	r1, [r7, #4]
 1499              		.loc 1 714 84
 1500 009a FB68     		ldr	r3, [r7, #12]
 1501 009c 1B68     		ldr	r3, [r3]
 1502              		.loc 1 714 79
 1503 009e 3433     		adds	r3, r3, #52
 1504              		.loc 1 714 7
 1505 00a0 1A46     		mov	r2, r3
 1506 00a2 7B88     		ldrh	r3, [r7, #2]
 1507 00a4 FFF7FEFF 		bl	HAL_DMA_Start_IT
 715:d:/LiteOS_Lab/drivers/third_party/ST/STM32L4xx_HAL_Driver/Src\stm32l4xx_hal_tim_ex.c **** 
 716:d:/LiteOS_Lab/drivers/third_party/ST/STM32L4xx_HAL_Driver/Src\stm32l4xx_hal_tim_ex.c ****       /* Enable the TIM Output Compare DMA request */
 717:d:/LiteOS_Lab/drivers/third_party/ST/STM32L4xx_HAL_Driver/Src\stm32l4xx_hal_tim_ex.c ****       __HAL_TIM_ENABLE_DMA(htim, TIM_DMA_CC1);
 1508              		.loc 1 717 7
 1509 00a8 FB68     		ldr	r3, [r7, #12]
 1510 00aa 1B68     		ldr	r3, [r3]
 1511 00ac DA68     		ldr	r2, [r3, #12]
 1512 00ae FB68     		ldr	r3, [r7, #12]
 1513 00b0 1B68     		ldr	r3, [r3]
 1514 00b2 42F40072 		orr	r2, r2, #512
 1515 00b6 DA60     		str	r2, [r3, #12]
 718:d:/LiteOS_Lab/drivers/third_party/ST/STM32L4xx_HAL_Driver/Src\stm32l4xx_hal_tim_ex.c ****     }
 719:d:/LiteOS_Lab/drivers/third_party/ST/STM32L4xx_HAL_Driver/Src\stm32l4xx_hal_tim_ex.c ****     break;
 1516              		.loc 1 719 5
 1517 00b8 51E0     		b	.L71
 1518              	.L69:
 720:d:/LiteOS_Lab/drivers/third_party/ST/STM32L4xx_HAL_Driver/Src\stm32l4xx_hal_tim_ex.c **** 
 721:d:/LiteOS_Lab/drivers/third_party/ST/STM32L4xx_HAL_Driver/Src\stm32l4xx_hal_tim_ex.c ****     case TIM_CHANNEL_2:
 722:d:/LiteOS_Lab/drivers/third_party/ST/STM32L4xx_HAL_Driver/Src\stm32l4xx_hal_tim_ex.c ****     {
 723:d:/LiteOS_Lab/drivers/third_party/ST/STM32L4xx_HAL_Driver/Src\stm32l4xx_hal_tim_ex.c ****       /* Set the DMA Period elapsed callback */
 724:d:/LiteOS_Lab/drivers/third_party/ST/STM32L4xx_HAL_Driver/Src\stm32l4xx_hal_tim_ex.c ****       htim->hdma[TIM_DMA_ID_CC2]->XferCpltCallback = TIM_DMADelayPulseCplt;
 1519              		.loc 1 724 17
 1520 00ba FB68     		ldr	r3, [r7, #12]
 1521 00bc 9B6A     		ldr	r3, [r3, #40]
 1522              		.loc 1 724 52
 1523 00be 364A     		ldr	r2, .L73
 1524 00c0 DA62     		str	r2, [r3, #44]
 725:d:/LiteOS_Lab/drivers/third_party/ST/STM32L4xx_HAL_Driver/Src\stm32l4xx_hal_tim_ex.c **** 
 726:d:/LiteOS_Lab/drivers/third_party/ST/STM32L4xx_HAL_Driver/Src\stm32l4xx_hal_tim_ex.c ****       /* Set the DMA error callback */
 727:d:/LiteOS_Lab/drivers/third_party/ST/STM32L4xx_HAL_Driver/Src\stm32l4xx_hal_tim_ex.c ****       htim->hdma[TIM_DMA_ID_CC2]->XferErrorCallback = TIM_DMAError ;
 1525              		.loc 1 727 17
ARM GAS  C:\Users\ADMINI~1\AppData\Local\Temp\ccYWIBty.s 			page 40


 1526 00c2 FB68     		ldr	r3, [r7, #12]
 1527 00c4 9B6A     		ldr	r3, [r3, #40]
 1528              		.loc 1 727 53
 1529 00c6 354A     		ldr	r2, .L73+4
 1530 00c8 5A63     		str	r2, [r3, #52]
 728:d:/LiteOS_Lab/drivers/third_party/ST/STM32L4xx_HAL_Driver/Src\stm32l4xx_hal_tim_ex.c **** 
 729:d:/LiteOS_Lab/drivers/third_party/ST/STM32L4xx_HAL_Driver/Src\stm32l4xx_hal_tim_ex.c ****       /* Enable the DMA channel */
 730:d:/LiteOS_Lab/drivers/third_party/ST/STM32L4xx_HAL_Driver/Src\stm32l4xx_hal_tim_ex.c ****       HAL_DMA_Start_IT(htim->hdma[TIM_DMA_ID_CC2], (uint32_t)pData, (uint32_t)&htim->Instance->CCR2
 1531              		.loc 1 730 7
 1532 00ca FB68     		ldr	r3, [r7, #12]
 1533 00cc 986A     		ldr	r0, [r3, #40]
 1534 00ce 7968     		ldr	r1, [r7, #4]
 1535              		.loc 1 730 84
 1536 00d0 FB68     		ldr	r3, [r7, #12]
 1537 00d2 1B68     		ldr	r3, [r3]
 1538              		.loc 1 730 79
 1539 00d4 3833     		adds	r3, r3, #56
 1540              		.loc 1 730 7
 1541 00d6 1A46     		mov	r2, r3
 1542 00d8 7B88     		ldrh	r3, [r7, #2]
 1543 00da FFF7FEFF 		bl	HAL_DMA_Start_IT
 731:d:/LiteOS_Lab/drivers/third_party/ST/STM32L4xx_HAL_Driver/Src\stm32l4xx_hal_tim_ex.c **** 
 732:d:/LiteOS_Lab/drivers/third_party/ST/STM32L4xx_HAL_Driver/Src\stm32l4xx_hal_tim_ex.c ****       /* Enable the TIM Output Compare DMA request */
 733:d:/LiteOS_Lab/drivers/third_party/ST/STM32L4xx_HAL_Driver/Src\stm32l4xx_hal_tim_ex.c ****       __HAL_TIM_ENABLE_DMA(htim, TIM_DMA_CC2);
 1544              		.loc 1 733 7
 1545 00de FB68     		ldr	r3, [r7, #12]
 1546 00e0 1B68     		ldr	r3, [r3]
 1547 00e2 DA68     		ldr	r2, [r3, #12]
 1548 00e4 FB68     		ldr	r3, [r7, #12]
 1549 00e6 1B68     		ldr	r3, [r3]
 1550 00e8 42F48062 		orr	r2, r2, #1024
 1551 00ec DA60     		str	r2, [r3, #12]
 734:d:/LiteOS_Lab/drivers/third_party/ST/STM32L4xx_HAL_Driver/Src\stm32l4xx_hal_tim_ex.c ****     }
 735:d:/LiteOS_Lab/drivers/third_party/ST/STM32L4xx_HAL_Driver/Src\stm32l4xx_hal_tim_ex.c ****     break;
 1552              		.loc 1 735 5
 1553 00ee 36E0     		b	.L71
 1554              	.L68:
 736:d:/LiteOS_Lab/drivers/third_party/ST/STM32L4xx_HAL_Driver/Src\stm32l4xx_hal_tim_ex.c **** 
 737:d:/LiteOS_Lab/drivers/third_party/ST/STM32L4xx_HAL_Driver/Src\stm32l4xx_hal_tim_ex.c ****     case TIM_CHANNEL_3:
 738:d:/LiteOS_Lab/drivers/third_party/ST/STM32L4xx_HAL_Driver/Src\stm32l4xx_hal_tim_ex.c **** {
 739:d:/LiteOS_Lab/drivers/third_party/ST/STM32L4xx_HAL_Driver/Src\stm32l4xx_hal_tim_ex.c ****       /* Set the DMA Period elapsed callback */
 740:d:/LiteOS_Lab/drivers/third_party/ST/STM32L4xx_HAL_Driver/Src\stm32l4xx_hal_tim_ex.c ****       htim->hdma[TIM_DMA_ID_CC3]->XferCpltCallback = TIM_DMADelayPulseCplt;
 1555              		.loc 1 740 17
 1556 00f0 FB68     		ldr	r3, [r7, #12]
 1557 00f2 DB6A     		ldr	r3, [r3, #44]
 1558              		.loc 1 740 52
 1559 00f4 284A     		ldr	r2, .L73
 1560 00f6 DA62     		str	r2, [r3, #44]
 741:d:/LiteOS_Lab/drivers/third_party/ST/STM32L4xx_HAL_Driver/Src\stm32l4xx_hal_tim_ex.c **** 
 742:d:/LiteOS_Lab/drivers/third_party/ST/STM32L4xx_HAL_Driver/Src\stm32l4xx_hal_tim_ex.c ****       /* Set the DMA error callback */
 743:d:/LiteOS_Lab/drivers/third_party/ST/STM32L4xx_HAL_Driver/Src\stm32l4xx_hal_tim_ex.c ****       htim->hdma[TIM_DMA_ID_CC3]->XferErrorCallback = TIM_DMAError ;
 1561              		.loc 1 743 17
 1562 00f8 FB68     		ldr	r3, [r7, #12]
 1563 00fa DB6A     		ldr	r3, [r3, #44]
 1564              		.loc 1 743 53
 1565 00fc 274A     		ldr	r2, .L73+4
 1566 00fe 5A63     		str	r2, [r3, #52]
ARM GAS  C:\Users\ADMINI~1\AppData\Local\Temp\ccYWIBty.s 			page 41


 744:d:/LiteOS_Lab/drivers/third_party/ST/STM32L4xx_HAL_Driver/Src\stm32l4xx_hal_tim_ex.c **** 
 745:d:/LiteOS_Lab/drivers/third_party/ST/STM32L4xx_HAL_Driver/Src\stm32l4xx_hal_tim_ex.c ****       /* Enable the DMA channel */
 746:d:/LiteOS_Lab/drivers/third_party/ST/STM32L4xx_HAL_Driver/Src\stm32l4xx_hal_tim_ex.c ****       HAL_DMA_Start_IT(htim->hdma[TIM_DMA_ID_CC3], (uint32_t)pData, (uint32_t)&htim->Instance->CCR3
 1567              		.loc 1 746 7
 1568 0100 FB68     		ldr	r3, [r7, #12]
 1569 0102 D86A     		ldr	r0, [r3, #44]
 1570 0104 7968     		ldr	r1, [r7, #4]
 1571              		.loc 1 746 84
 1572 0106 FB68     		ldr	r3, [r7, #12]
 1573 0108 1B68     		ldr	r3, [r3]
 1574              		.loc 1 746 79
 1575 010a 3C33     		adds	r3, r3, #60
 1576              		.loc 1 746 7
 1577 010c 1A46     		mov	r2, r3
 1578 010e 7B88     		ldrh	r3, [r7, #2]
 1579 0110 FFF7FEFF 		bl	HAL_DMA_Start_IT
 747:d:/LiteOS_Lab/drivers/third_party/ST/STM32L4xx_HAL_Driver/Src\stm32l4xx_hal_tim_ex.c **** 
 748:d:/LiteOS_Lab/drivers/third_party/ST/STM32L4xx_HAL_Driver/Src\stm32l4xx_hal_tim_ex.c ****       /* Enable the TIM Output Compare DMA request */
 749:d:/LiteOS_Lab/drivers/third_party/ST/STM32L4xx_HAL_Driver/Src\stm32l4xx_hal_tim_ex.c ****       __HAL_TIM_ENABLE_DMA(htim, TIM_DMA_CC3);
 1580              		.loc 1 749 7
 1581 0114 FB68     		ldr	r3, [r7, #12]
 1582 0116 1B68     		ldr	r3, [r3]
 1583 0118 DA68     		ldr	r2, [r3, #12]
 1584 011a FB68     		ldr	r3, [r7, #12]
 1585 011c 1B68     		ldr	r3, [r3]
 1586 011e 42F40062 		orr	r2, r2, #2048
 1587 0122 DA60     		str	r2, [r3, #12]
 750:d:/LiteOS_Lab/drivers/third_party/ST/STM32L4xx_HAL_Driver/Src\stm32l4xx_hal_tim_ex.c ****     }
 751:d:/LiteOS_Lab/drivers/third_party/ST/STM32L4xx_HAL_Driver/Src\stm32l4xx_hal_tim_ex.c ****     break;
 1588              		.loc 1 751 5
 1589 0124 1BE0     		b	.L71
 1590              	.L66:
 752:d:/LiteOS_Lab/drivers/third_party/ST/STM32L4xx_HAL_Driver/Src\stm32l4xx_hal_tim_ex.c **** 
 753:d:/LiteOS_Lab/drivers/third_party/ST/STM32L4xx_HAL_Driver/Src\stm32l4xx_hal_tim_ex.c ****     case TIM_CHANNEL_4:
 754:d:/LiteOS_Lab/drivers/third_party/ST/STM32L4xx_HAL_Driver/Src\stm32l4xx_hal_tim_ex.c ****     {
 755:d:/LiteOS_Lab/drivers/third_party/ST/STM32L4xx_HAL_Driver/Src\stm32l4xx_hal_tim_ex.c ****      /* Set the DMA Period elapsed callback */
 756:d:/LiteOS_Lab/drivers/third_party/ST/STM32L4xx_HAL_Driver/Src\stm32l4xx_hal_tim_ex.c ****       htim->hdma[TIM_DMA_ID_CC4]->XferCpltCallback = TIM_DMADelayPulseCplt;
 1591              		.loc 1 756 17
 1592 0126 FB68     		ldr	r3, [r7, #12]
 1593 0128 1B6B     		ldr	r3, [r3, #48]
 1594              		.loc 1 756 52
 1595 012a 1B4A     		ldr	r2, .L73
 1596 012c DA62     		str	r2, [r3, #44]
 757:d:/LiteOS_Lab/drivers/third_party/ST/STM32L4xx_HAL_Driver/Src\stm32l4xx_hal_tim_ex.c **** 
 758:d:/LiteOS_Lab/drivers/third_party/ST/STM32L4xx_HAL_Driver/Src\stm32l4xx_hal_tim_ex.c ****       /* Set the DMA error callback */
 759:d:/LiteOS_Lab/drivers/third_party/ST/STM32L4xx_HAL_Driver/Src\stm32l4xx_hal_tim_ex.c ****       htim->hdma[TIM_DMA_ID_CC4]->XferErrorCallback = TIM_DMAError ;
 1597              		.loc 1 759 17
 1598 012e FB68     		ldr	r3, [r7, #12]
 1599 0130 1B6B     		ldr	r3, [r3, #48]
 1600              		.loc 1 759 53
 1601 0132 1A4A     		ldr	r2, .L73+4
 1602 0134 5A63     		str	r2, [r3, #52]
 760:d:/LiteOS_Lab/drivers/third_party/ST/STM32L4xx_HAL_Driver/Src\stm32l4xx_hal_tim_ex.c **** 
 761:d:/LiteOS_Lab/drivers/third_party/ST/STM32L4xx_HAL_Driver/Src\stm32l4xx_hal_tim_ex.c ****       /* Enable the DMA channel */
 762:d:/LiteOS_Lab/drivers/third_party/ST/STM32L4xx_HAL_Driver/Src\stm32l4xx_hal_tim_ex.c ****       HAL_DMA_Start_IT(htim->hdma[TIM_DMA_ID_CC4], (uint32_t)pData, (uint32_t)&htim->Instance->CCR4
 1603              		.loc 1 762 7
 1604 0136 FB68     		ldr	r3, [r7, #12]
ARM GAS  C:\Users\ADMINI~1\AppData\Local\Temp\ccYWIBty.s 			page 42


 1605 0138 186B     		ldr	r0, [r3, #48]
 1606 013a 7968     		ldr	r1, [r7, #4]
 1607              		.loc 1 762 84
 1608 013c FB68     		ldr	r3, [r7, #12]
 1609 013e 1B68     		ldr	r3, [r3]
 1610              		.loc 1 762 79
 1611 0140 4033     		adds	r3, r3, #64
 1612              		.loc 1 762 7
 1613 0142 1A46     		mov	r2, r3
 1614 0144 7B88     		ldrh	r3, [r7, #2]
 1615 0146 FFF7FEFF 		bl	HAL_DMA_Start_IT
 763:d:/LiteOS_Lab/drivers/third_party/ST/STM32L4xx_HAL_Driver/Src\stm32l4xx_hal_tim_ex.c **** 
 764:d:/LiteOS_Lab/drivers/third_party/ST/STM32L4xx_HAL_Driver/Src\stm32l4xx_hal_tim_ex.c ****       /* Enable the TIM Output Compare DMA request */
 765:d:/LiteOS_Lab/drivers/third_party/ST/STM32L4xx_HAL_Driver/Src\stm32l4xx_hal_tim_ex.c ****       __HAL_TIM_ENABLE_DMA(htim, TIM_DMA_CC4);
 1616              		.loc 1 765 7
 1617 014a FB68     		ldr	r3, [r7, #12]
 1618 014c 1B68     		ldr	r3, [r3]
 1619 014e DA68     		ldr	r2, [r3, #12]
 1620 0150 FB68     		ldr	r3, [r7, #12]
 1621 0152 1B68     		ldr	r3, [r3]
 1622 0154 42F48052 		orr	r2, r2, #4096
 1623 0158 DA60     		str	r2, [r3, #12]
 766:d:/LiteOS_Lab/drivers/third_party/ST/STM32L4xx_HAL_Driver/Src\stm32l4xx_hal_tim_ex.c ****     }
 767:d:/LiteOS_Lab/drivers/third_party/ST/STM32L4xx_HAL_Driver/Src\stm32l4xx_hal_tim_ex.c ****     break;
 1624              		.loc 1 767 5
 1625 015a 00E0     		b	.L71
 1626              	.L72:
 768:d:/LiteOS_Lab/drivers/third_party/ST/STM32L4xx_HAL_Driver/Src\stm32l4xx_hal_tim_ex.c **** 
 769:d:/LiteOS_Lab/drivers/third_party/ST/STM32L4xx_HAL_Driver/Src\stm32l4xx_hal_tim_ex.c ****     default:
 770:d:/LiteOS_Lab/drivers/third_party/ST/STM32L4xx_HAL_Driver/Src\stm32l4xx_hal_tim_ex.c ****     break;
 1627              		.loc 1 770 5
 1628 015c 00BF     		nop
 1629              	.L71:
 771:d:/LiteOS_Lab/drivers/third_party/ST/STM32L4xx_HAL_Driver/Src\stm32l4xx_hal_tim_ex.c ****   }
 772:d:/LiteOS_Lab/drivers/third_party/ST/STM32L4xx_HAL_Driver/Src\stm32l4xx_hal_tim_ex.c **** 
 773:d:/LiteOS_Lab/drivers/third_party/ST/STM32L4xx_HAL_Driver/Src\stm32l4xx_hal_tim_ex.c ****   /* Enable the Capture compare channel N */
 774:d:/LiteOS_Lab/drivers/third_party/ST/STM32L4xx_HAL_Driver/Src\stm32l4xx_hal_tim_ex.c ****   TIM_CCxNChannelCmd(htim->Instance, Channel, TIM_CCxN_ENABLE);
 1630              		.loc 1 774 3
 1631 015e FB68     		ldr	r3, [r7, #12]
 1632 0160 1B68     		ldr	r3, [r3]
 1633 0162 0422     		movs	r2, #4
 1634 0164 B968     		ldr	r1, [r7, #8]
 1635 0166 1846     		mov	r0, r3
 1636 0168 FFF7FEFF 		bl	TIM_CCxNChannelCmd
 775:d:/LiteOS_Lab/drivers/third_party/ST/STM32L4xx_HAL_Driver/Src\stm32l4xx_hal_tim_ex.c **** 
 776:d:/LiteOS_Lab/drivers/third_party/ST/STM32L4xx_HAL_Driver/Src\stm32l4xx_hal_tim_ex.c ****   /* Enable the Main Ouput */
 777:d:/LiteOS_Lab/drivers/third_party/ST/STM32L4xx_HAL_Driver/Src\stm32l4xx_hal_tim_ex.c ****   __HAL_TIM_MOE_ENABLE(htim);
 1637              		.loc 1 777 3
 1638 016c FB68     		ldr	r3, [r7, #12]
 1639 016e 1B68     		ldr	r3, [r3]
 1640 0170 5A6C     		ldr	r2, [r3, #68]
 1641 0172 FB68     		ldr	r3, [r7, #12]
 1642 0174 1B68     		ldr	r3, [r3]
 1643 0176 42F40042 		orr	r2, r2, #32768
 1644 017a 5A64     		str	r2, [r3, #68]
 778:d:/LiteOS_Lab/drivers/third_party/ST/STM32L4xx_HAL_Driver/Src\stm32l4xx_hal_tim_ex.c **** 
 779:d:/LiteOS_Lab/drivers/third_party/ST/STM32L4xx_HAL_Driver/Src\stm32l4xx_hal_tim_ex.c ****   /* Enable the Peripheral */
ARM GAS  C:\Users\ADMINI~1\AppData\Local\Temp\ccYWIBty.s 			page 43


 780:d:/LiteOS_Lab/drivers/third_party/ST/STM32L4xx_HAL_Driver/Src\stm32l4xx_hal_tim_ex.c ****   __HAL_TIM_ENABLE(htim);
 1645              		.loc 1 780 3
 1646 017c FB68     		ldr	r3, [r7, #12]
 1647 017e 1B68     		ldr	r3, [r3]
 1648 0180 1A68     		ldr	r2, [r3]
 1649 0182 FB68     		ldr	r3, [r7, #12]
 1650 0184 1B68     		ldr	r3, [r3]
 1651 0186 42F00102 		orr	r2, r2, #1
 1652 018a 1A60     		str	r2, [r3]
 781:d:/LiteOS_Lab/drivers/third_party/ST/STM32L4xx_HAL_Driver/Src\stm32l4xx_hal_tim_ex.c **** 
 782:d:/LiteOS_Lab/drivers/third_party/ST/STM32L4xx_HAL_Driver/Src\stm32l4xx_hal_tim_ex.c ****   /* Return function status */
 783:d:/LiteOS_Lab/drivers/third_party/ST/STM32L4xx_HAL_Driver/Src\stm32l4xx_hal_tim_ex.c ****   return HAL_OK;
 1653              		.loc 1 783 10
 1654 018c 0023     		movs	r3, #0
 1655              	.L62:
 784:d:/LiteOS_Lab/drivers/third_party/ST/STM32L4xx_HAL_Driver/Src\stm32l4xx_hal_tim_ex.c **** }
 1656              		.loc 1 784 1
 1657 018e 1846     		mov	r0, r3
 1658 0190 1037     		adds	r7, r7, #16
 1659              	.LCFI75:
 1660              		.cfi_def_cfa_offset 8
 1661 0192 BD46     		mov	sp, r7
 1662              	.LCFI76:
 1663              		.cfi_def_cfa_register 13
 1664              		@ sp needed
 1665 0194 80BD     		pop	{r7, pc}
 1666              	.L74:
 1667 0196 00BF     		.align	2
 1668              	.L73:
 1669 0198 00000000 		.word	TIM_DMADelayPulseCplt
 1670 019c 00000000 		.word	TIM_DMAError
 1671              		.cfi_endproc
 1672              	.LFE301:
 1674              		.section	.text.HAL_TIMEx_OCN_Stop_DMA,"ax",%progbits
 1675              		.align	1
 1676              		.global	HAL_TIMEx_OCN_Stop_DMA
 1677              		.syntax unified
 1678              		.thumb
 1679              		.thumb_func
 1680              		.fpu fpv4-sp-d16
 1682              	HAL_TIMEx_OCN_Stop_DMA:
 1683              	.LFB302:
 785:d:/LiteOS_Lab/drivers/third_party/ST/STM32L4xx_HAL_Driver/Src\stm32l4xx_hal_tim_ex.c **** 
 786:d:/LiteOS_Lab/drivers/third_party/ST/STM32L4xx_HAL_Driver/Src\stm32l4xx_hal_tim_ex.c **** /**
 787:d:/LiteOS_Lab/drivers/third_party/ST/STM32L4xx_HAL_Driver/Src\stm32l4xx_hal_tim_ex.c ****   * @brief  Stops the TIM Output Compare signal generation in DMA mode
 788:d:/LiteOS_Lab/drivers/third_party/ST/STM32L4xx_HAL_Driver/Src\stm32l4xx_hal_tim_ex.c ****   *         on the complementary output.
 789:d:/LiteOS_Lab/drivers/third_party/ST/STM32L4xx_HAL_Driver/Src\stm32l4xx_hal_tim_ex.c ****   * @param  htim TIM Output Compare handle
 790:d:/LiteOS_Lab/drivers/third_party/ST/STM32L4xx_HAL_Driver/Src\stm32l4xx_hal_tim_ex.c ****   * @param  Channel TIM Channel to be disabled
 791:d:/LiteOS_Lab/drivers/third_party/ST/STM32L4xx_HAL_Driver/Src\stm32l4xx_hal_tim_ex.c ****   *          This parameter can be one of the following values:
 792:d:/LiteOS_Lab/drivers/third_party/ST/STM32L4xx_HAL_Driver/Src\stm32l4xx_hal_tim_ex.c ****   *            @arg TIM_CHANNEL_1: TIM Channel 1 selected
 793:d:/LiteOS_Lab/drivers/third_party/ST/STM32L4xx_HAL_Driver/Src\stm32l4xx_hal_tim_ex.c ****   *            @arg TIM_CHANNEL_2: TIM Channel 2 selected
 794:d:/LiteOS_Lab/drivers/third_party/ST/STM32L4xx_HAL_Driver/Src\stm32l4xx_hal_tim_ex.c ****   *            @arg TIM_CHANNEL_3: TIM Channel 3 selected
 795:d:/LiteOS_Lab/drivers/third_party/ST/STM32L4xx_HAL_Driver/Src\stm32l4xx_hal_tim_ex.c ****   * @retval HAL status
 796:d:/LiteOS_Lab/drivers/third_party/ST/STM32L4xx_HAL_Driver/Src\stm32l4xx_hal_tim_ex.c ****   */
 797:d:/LiteOS_Lab/drivers/third_party/ST/STM32L4xx_HAL_Driver/Src\stm32l4xx_hal_tim_ex.c **** HAL_StatusTypeDef HAL_TIMEx_OCN_Stop_DMA(TIM_HandleTypeDef *htim, uint32_t Channel)
 798:d:/LiteOS_Lab/drivers/third_party/ST/STM32L4xx_HAL_Driver/Src\stm32l4xx_hal_tim_ex.c **** {
 1684              		.loc 1 798 1
ARM GAS  C:\Users\ADMINI~1\AppData\Local\Temp\ccYWIBty.s 			page 44


 1685              		.cfi_startproc
 1686              		@ args = 0, pretend = 0, frame = 8
 1687              		@ frame_needed = 1, uses_anonymous_args = 0
 1688 0000 80B5     		push	{r7, lr}
 1689              	.LCFI77:
 1690              		.cfi_def_cfa_offset 8
 1691              		.cfi_offset 7, -8
 1692              		.cfi_offset 14, -4
 1693 0002 82B0     		sub	sp, sp, #8
 1694              	.LCFI78:
 1695              		.cfi_def_cfa_offset 16
 1696 0004 00AF     		add	r7, sp, #0
 1697              	.LCFI79:
 1698              		.cfi_def_cfa_register 7
 1699 0006 7860     		str	r0, [r7, #4]
 1700 0008 3960     		str	r1, [r7]
 1701 000a 3B68     		ldr	r3, [r7]
 1702 000c 0C2B     		cmp	r3, #12
 1703 000e 41D8     		bhi	.L86
 1704 0010 01A2     		adr	r2, .L78
 1705 0012 52F823F0 		ldr	pc, [r2, r3, lsl #2]
 1706 0016 00BF     		.p2align 2
 1707              	.L78:
 1708 0018 4D000000 		.word	.L81+1
 1709 001c 95000000 		.word	.L86+1
 1710 0020 95000000 		.word	.L86+1
 1711 0024 95000000 		.word	.L86+1
 1712 0028 5F000000 		.word	.L80+1
 1713 002c 95000000 		.word	.L86+1
 1714 0030 95000000 		.word	.L86+1
 1715 0034 95000000 		.word	.L86+1
 1716 0038 71000000 		.word	.L79+1
 1717 003c 95000000 		.word	.L86+1
 1718 0040 95000000 		.word	.L86+1
 1719 0044 95000000 		.word	.L86+1
 1720 0048 83000000 		.word	.L77+1
 1721              		.p2align 1
 1722              	.L81:
 799:d:/LiteOS_Lab/drivers/third_party/ST/STM32L4xx_HAL_Driver/Src\stm32l4xx_hal_tim_ex.c ****   /* Check the parameters */
 800:d:/LiteOS_Lab/drivers/third_party/ST/STM32L4xx_HAL_Driver/Src\stm32l4xx_hal_tim_ex.c ****   assert_param(IS_TIM_CCXN_INSTANCE(htim->Instance, Channel));
 801:d:/LiteOS_Lab/drivers/third_party/ST/STM32L4xx_HAL_Driver/Src\stm32l4xx_hal_tim_ex.c **** 
 802:d:/LiteOS_Lab/drivers/third_party/ST/STM32L4xx_HAL_Driver/Src\stm32l4xx_hal_tim_ex.c ****   switch (Channel)
 803:d:/LiteOS_Lab/drivers/third_party/ST/STM32L4xx_HAL_Driver/Src\stm32l4xx_hal_tim_ex.c ****   {
 804:d:/LiteOS_Lab/drivers/third_party/ST/STM32L4xx_HAL_Driver/Src\stm32l4xx_hal_tim_ex.c ****     case TIM_CHANNEL_1:
 805:d:/LiteOS_Lab/drivers/third_party/ST/STM32L4xx_HAL_Driver/Src\stm32l4xx_hal_tim_ex.c ****     {
 806:d:/LiteOS_Lab/drivers/third_party/ST/STM32L4xx_HAL_Driver/Src\stm32l4xx_hal_tim_ex.c ****       /* Disable the TIM Output Compare DMA request */
 807:d:/LiteOS_Lab/drivers/third_party/ST/STM32L4xx_HAL_Driver/Src\stm32l4xx_hal_tim_ex.c ****       __HAL_TIM_DISABLE_DMA(htim, TIM_DMA_CC1);
 1723              		.loc 1 807 7
 1724 004c 7B68     		ldr	r3, [r7, #4]
 1725 004e 1B68     		ldr	r3, [r3]
 1726 0050 DA68     		ldr	r2, [r3, #12]
 1727 0052 7B68     		ldr	r3, [r7, #4]
 1728 0054 1B68     		ldr	r3, [r3]
 1729 0056 22F40072 		bic	r2, r2, #512
 1730 005a DA60     		str	r2, [r3, #12]
 808:d:/LiteOS_Lab/drivers/third_party/ST/STM32L4xx_HAL_Driver/Src\stm32l4xx_hal_tim_ex.c ****     }
 809:d:/LiteOS_Lab/drivers/third_party/ST/STM32L4xx_HAL_Driver/Src\stm32l4xx_hal_tim_ex.c ****     break;
ARM GAS  C:\Users\ADMINI~1\AppData\Local\Temp\ccYWIBty.s 			page 45


 1731              		.loc 1 809 5
 1732 005c 1BE0     		b	.L82
 1733              	.L80:
 810:d:/LiteOS_Lab/drivers/third_party/ST/STM32L4xx_HAL_Driver/Src\stm32l4xx_hal_tim_ex.c **** 
 811:d:/LiteOS_Lab/drivers/third_party/ST/STM32L4xx_HAL_Driver/Src\stm32l4xx_hal_tim_ex.c ****     case TIM_CHANNEL_2:
 812:d:/LiteOS_Lab/drivers/third_party/ST/STM32L4xx_HAL_Driver/Src\stm32l4xx_hal_tim_ex.c ****     {
 813:d:/LiteOS_Lab/drivers/third_party/ST/STM32L4xx_HAL_Driver/Src\stm32l4xx_hal_tim_ex.c ****       /* Disable the TIM Output Compare DMA request */
 814:d:/LiteOS_Lab/drivers/third_party/ST/STM32L4xx_HAL_Driver/Src\stm32l4xx_hal_tim_ex.c ****       __HAL_TIM_DISABLE_DMA(htim, TIM_DMA_CC2);
 1734              		.loc 1 814 7
 1735 005e 7B68     		ldr	r3, [r7, #4]
 1736 0060 1B68     		ldr	r3, [r3]
 1737 0062 DA68     		ldr	r2, [r3, #12]
 1738 0064 7B68     		ldr	r3, [r7, #4]
 1739 0066 1B68     		ldr	r3, [r3]
 1740 0068 22F48062 		bic	r2, r2, #1024
 1741 006c DA60     		str	r2, [r3, #12]
 815:d:/LiteOS_Lab/drivers/third_party/ST/STM32L4xx_HAL_Driver/Src\stm32l4xx_hal_tim_ex.c ****     }
 816:d:/LiteOS_Lab/drivers/third_party/ST/STM32L4xx_HAL_Driver/Src\stm32l4xx_hal_tim_ex.c ****     break;
 1742              		.loc 1 816 5
 1743 006e 12E0     		b	.L82
 1744              	.L79:
 817:d:/LiteOS_Lab/drivers/third_party/ST/STM32L4xx_HAL_Driver/Src\stm32l4xx_hal_tim_ex.c **** 
 818:d:/LiteOS_Lab/drivers/third_party/ST/STM32L4xx_HAL_Driver/Src\stm32l4xx_hal_tim_ex.c ****     case TIM_CHANNEL_3:
 819:d:/LiteOS_Lab/drivers/third_party/ST/STM32L4xx_HAL_Driver/Src\stm32l4xx_hal_tim_ex.c ****     {
 820:d:/LiteOS_Lab/drivers/third_party/ST/STM32L4xx_HAL_Driver/Src\stm32l4xx_hal_tim_ex.c ****       /* Disable the TIM Output Compare DMA request */
 821:d:/LiteOS_Lab/drivers/third_party/ST/STM32L4xx_HAL_Driver/Src\stm32l4xx_hal_tim_ex.c ****       __HAL_TIM_DISABLE_DMA(htim, TIM_DMA_CC3);
 1745              		.loc 1 821 7
 1746 0070 7B68     		ldr	r3, [r7, #4]
 1747 0072 1B68     		ldr	r3, [r3]
 1748 0074 DA68     		ldr	r2, [r3, #12]
 1749 0076 7B68     		ldr	r3, [r7, #4]
 1750 0078 1B68     		ldr	r3, [r3]
 1751 007a 22F40062 		bic	r2, r2, #2048
 1752 007e DA60     		str	r2, [r3, #12]
 822:d:/LiteOS_Lab/drivers/third_party/ST/STM32L4xx_HAL_Driver/Src\stm32l4xx_hal_tim_ex.c ****     }
 823:d:/LiteOS_Lab/drivers/third_party/ST/STM32L4xx_HAL_Driver/Src\stm32l4xx_hal_tim_ex.c ****     break;
 1753              		.loc 1 823 5
 1754 0080 09E0     		b	.L82
 1755              	.L77:
 824:d:/LiteOS_Lab/drivers/third_party/ST/STM32L4xx_HAL_Driver/Src\stm32l4xx_hal_tim_ex.c **** 
 825:d:/LiteOS_Lab/drivers/third_party/ST/STM32L4xx_HAL_Driver/Src\stm32l4xx_hal_tim_ex.c ****     case TIM_CHANNEL_4:
 826:d:/LiteOS_Lab/drivers/third_party/ST/STM32L4xx_HAL_Driver/Src\stm32l4xx_hal_tim_ex.c ****     {
 827:d:/LiteOS_Lab/drivers/third_party/ST/STM32L4xx_HAL_Driver/Src\stm32l4xx_hal_tim_ex.c ****       /* Disable the TIM Output Compare interrupt */
 828:d:/LiteOS_Lab/drivers/third_party/ST/STM32L4xx_HAL_Driver/Src\stm32l4xx_hal_tim_ex.c ****       __HAL_TIM_DISABLE_DMA(htim, TIM_DMA_CC4);
 1756              		.loc 1 828 7
 1757 0082 7B68     		ldr	r3, [r7, #4]
 1758 0084 1B68     		ldr	r3, [r3]
 1759 0086 DA68     		ldr	r2, [r3, #12]
 1760 0088 7B68     		ldr	r3, [r7, #4]
 1761 008a 1B68     		ldr	r3, [r3]
 1762 008c 22F48052 		bic	r2, r2, #4096
 1763 0090 DA60     		str	r2, [r3, #12]
 829:d:/LiteOS_Lab/drivers/third_party/ST/STM32L4xx_HAL_Driver/Src\stm32l4xx_hal_tim_ex.c ****     }
 830:d:/LiteOS_Lab/drivers/third_party/ST/STM32L4xx_HAL_Driver/Src\stm32l4xx_hal_tim_ex.c ****     break;
 1764              		.loc 1 830 5
 1765 0092 00E0     		b	.L82
 1766              	.L86:
ARM GAS  C:\Users\ADMINI~1\AppData\Local\Temp\ccYWIBty.s 			page 46


 831:d:/LiteOS_Lab/drivers/third_party/ST/STM32L4xx_HAL_Driver/Src\stm32l4xx_hal_tim_ex.c **** 
 832:d:/LiteOS_Lab/drivers/third_party/ST/STM32L4xx_HAL_Driver/Src\stm32l4xx_hal_tim_ex.c ****     default:
 833:d:/LiteOS_Lab/drivers/third_party/ST/STM32L4xx_HAL_Driver/Src\stm32l4xx_hal_tim_ex.c ****     break;
 1767              		.loc 1 833 5
 1768 0094 00BF     		nop
 1769              	.L82:
 834:d:/LiteOS_Lab/drivers/third_party/ST/STM32L4xx_HAL_Driver/Src\stm32l4xx_hal_tim_ex.c ****   }
 835:d:/LiteOS_Lab/drivers/third_party/ST/STM32L4xx_HAL_Driver/Src\stm32l4xx_hal_tim_ex.c **** 
 836:d:/LiteOS_Lab/drivers/third_party/ST/STM32L4xx_HAL_Driver/Src\stm32l4xx_hal_tim_ex.c ****   /* Disable the Capture compare channel N */
 837:d:/LiteOS_Lab/drivers/third_party/ST/STM32L4xx_HAL_Driver/Src\stm32l4xx_hal_tim_ex.c ****   TIM_CCxNChannelCmd(htim->Instance, Channel, TIM_CCxN_DISABLE);
 1770              		.loc 1 837 3
 1771 0096 7B68     		ldr	r3, [r7, #4]
 1772 0098 1B68     		ldr	r3, [r3]
 1773 009a 0022     		movs	r2, #0
 1774 009c 3968     		ldr	r1, [r7]
 1775 009e 1846     		mov	r0, r3
 1776 00a0 FFF7FEFF 		bl	TIM_CCxNChannelCmd
 838:d:/LiteOS_Lab/drivers/third_party/ST/STM32L4xx_HAL_Driver/Src\stm32l4xx_hal_tim_ex.c **** 
 839:d:/LiteOS_Lab/drivers/third_party/ST/STM32L4xx_HAL_Driver/Src\stm32l4xx_hal_tim_ex.c ****   /* Disable the Main Ouput */
 840:d:/LiteOS_Lab/drivers/third_party/ST/STM32L4xx_HAL_Driver/Src\stm32l4xx_hal_tim_ex.c ****   __HAL_TIM_MOE_DISABLE(htim);
 1777              		.loc 1 840 3
 1778 00a4 7B68     		ldr	r3, [r7, #4]
 1779 00a6 1B68     		ldr	r3, [r3]
 1780 00a8 1A6A     		ldr	r2, [r3, #32]
 1781 00aa 41F21113 		movw	r3, #4369
 1782 00ae 1340     		ands	r3, r3, r2
 1783 00b0 002B     		cmp	r3, #0
 1784 00b2 0FD1     		bne	.L83
 1785              		.loc 1 840 3 is_stmt 0 discriminator 1
 1786 00b4 7B68     		ldr	r3, [r7, #4]
 1787 00b6 1B68     		ldr	r3, [r3]
 1788 00b8 1A6A     		ldr	r2, [r3, #32]
 1789 00ba 40F24443 		movw	r3, #1092
 1790 00be 1340     		ands	r3, r3, r2
 1791 00c0 002B     		cmp	r3, #0
 1792 00c2 07D1     		bne	.L83
 1793              		.loc 1 840 3 discriminator 2
 1794 00c4 7B68     		ldr	r3, [r7, #4]
 1795 00c6 1B68     		ldr	r3, [r3]
 1796 00c8 5A6C     		ldr	r2, [r3, #68]
 1797 00ca 7B68     		ldr	r3, [r7, #4]
 1798 00cc 1B68     		ldr	r3, [r3]
 1799 00ce 22F40042 		bic	r2, r2, #32768
 1800 00d2 5A64     		str	r2, [r3, #68]
 1801              	.L83:
 841:d:/LiteOS_Lab/drivers/third_party/ST/STM32L4xx_HAL_Driver/Src\stm32l4xx_hal_tim_ex.c **** 
 842:d:/LiteOS_Lab/drivers/third_party/ST/STM32L4xx_HAL_Driver/Src\stm32l4xx_hal_tim_ex.c ****   /* Disable the Peripheral */
 843:d:/LiteOS_Lab/drivers/third_party/ST/STM32L4xx_HAL_Driver/Src\stm32l4xx_hal_tim_ex.c ****   __HAL_TIM_DISABLE(htim);
 1802              		.loc 1 843 3 is_stmt 1
 1803 00d4 7B68     		ldr	r3, [r7, #4]
 1804 00d6 1B68     		ldr	r3, [r3]
 1805 00d8 1A6A     		ldr	r2, [r3, #32]
 1806 00da 41F21113 		movw	r3, #4369
 1807 00de 1340     		ands	r3, r3, r2
 1808 00e0 002B     		cmp	r3, #0
 1809 00e2 0FD1     		bne	.L84
 1810              		.loc 1 843 3 is_stmt 0 discriminator 1
ARM GAS  C:\Users\ADMINI~1\AppData\Local\Temp\ccYWIBty.s 			page 47


 1811 00e4 7B68     		ldr	r3, [r7, #4]
 1812 00e6 1B68     		ldr	r3, [r3]
 1813 00e8 1A6A     		ldr	r2, [r3, #32]
 1814 00ea 40F24443 		movw	r3, #1092
 1815 00ee 1340     		ands	r3, r3, r2
 1816 00f0 002B     		cmp	r3, #0
 1817 00f2 07D1     		bne	.L84
 1818              		.loc 1 843 3 discriminator 2
 1819 00f4 7B68     		ldr	r3, [r7, #4]
 1820 00f6 1B68     		ldr	r3, [r3]
 1821 00f8 1A68     		ldr	r2, [r3]
 1822 00fa 7B68     		ldr	r3, [r7, #4]
 1823 00fc 1B68     		ldr	r3, [r3]
 1824 00fe 22F00102 		bic	r2, r2, #1
 1825 0102 1A60     		str	r2, [r3]
 1826              	.L84:
 844:d:/LiteOS_Lab/drivers/third_party/ST/STM32L4xx_HAL_Driver/Src\stm32l4xx_hal_tim_ex.c **** 
 845:d:/LiteOS_Lab/drivers/third_party/ST/STM32L4xx_HAL_Driver/Src\stm32l4xx_hal_tim_ex.c ****   /* Change the htim state */
 846:d:/LiteOS_Lab/drivers/third_party/ST/STM32L4xx_HAL_Driver/Src\stm32l4xx_hal_tim_ex.c ****   htim->State = HAL_TIM_STATE_READY;
 1827              		.loc 1 846 15 is_stmt 1
 1828 0104 7B68     		ldr	r3, [r7, #4]
 1829 0106 0122     		movs	r2, #1
 1830 0108 83F83D20 		strb	r2, [r3, #61]
 847:d:/LiteOS_Lab/drivers/third_party/ST/STM32L4xx_HAL_Driver/Src\stm32l4xx_hal_tim_ex.c **** 
 848:d:/LiteOS_Lab/drivers/third_party/ST/STM32L4xx_HAL_Driver/Src\stm32l4xx_hal_tim_ex.c ****   /* Return function status */
 849:d:/LiteOS_Lab/drivers/third_party/ST/STM32L4xx_HAL_Driver/Src\stm32l4xx_hal_tim_ex.c ****   return HAL_OK;
 1831              		.loc 1 849 10
 1832 010c 0023     		movs	r3, #0
 850:d:/LiteOS_Lab/drivers/third_party/ST/STM32L4xx_HAL_Driver/Src\stm32l4xx_hal_tim_ex.c **** }
 1833              		.loc 1 850 1
 1834 010e 1846     		mov	r0, r3
 1835 0110 0837     		adds	r7, r7, #8
 1836              	.LCFI80:
 1837              		.cfi_def_cfa_offset 8
 1838 0112 BD46     		mov	sp, r7
 1839              	.LCFI81:
 1840              		.cfi_def_cfa_register 13
 1841              		@ sp needed
 1842 0114 80BD     		pop	{r7, pc}
 1843              		.cfi_endproc
 1844              	.LFE302:
 1846 0116 00BF     		.section	.text.HAL_TIMEx_PWMN_Start,"ax",%progbits
 1847              		.align	1
 1848              		.global	HAL_TIMEx_PWMN_Start
 1849              		.syntax unified
 1850              		.thumb
 1851              		.thumb_func
 1852              		.fpu fpv4-sp-d16
 1854              	HAL_TIMEx_PWMN_Start:
 1855              	.LFB303:
 851:d:/LiteOS_Lab/drivers/third_party/ST/STM32L4xx_HAL_Driver/Src\stm32l4xx_hal_tim_ex.c **** 
 852:d:/LiteOS_Lab/drivers/third_party/ST/STM32L4xx_HAL_Driver/Src\stm32l4xx_hal_tim_ex.c **** /**
 853:d:/LiteOS_Lab/drivers/third_party/ST/STM32L4xx_HAL_Driver/Src\stm32l4xx_hal_tim_ex.c ****   * @}
 854:d:/LiteOS_Lab/drivers/third_party/ST/STM32L4xx_HAL_Driver/Src\stm32l4xx_hal_tim_ex.c ****   */
 855:d:/LiteOS_Lab/drivers/third_party/ST/STM32L4xx_HAL_Driver/Src\stm32l4xx_hal_tim_ex.c **** 
 856:d:/LiteOS_Lab/drivers/third_party/ST/STM32L4xx_HAL_Driver/Src\stm32l4xx_hal_tim_ex.c **** /** @defgroup TIMEx_Exported_Functions_Group3 Extended Timer Complementary PWM functions
 857:d:/LiteOS_Lab/drivers/third_party/ST/STM32L4xx_HAL_Driver/Src\stm32l4xx_hal_tim_ex.c ****   * @brief    Timer Complementary PWM functions
ARM GAS  C:\Users\ADMINI~1\AppData\Local\Temp\ccYWIBty.s 			page 48


 858:d:/LiteOS_Lab/drivers/third_party/ST/STM32L4xx_HAL_Driver/Src\stm32l4xx_hal_tim_ex.c ****   *
 859:d:/LiteOS_Lab/drivers/third_party/ST/STM32L4xx_HAL_Driver/Src\stm32l4xx_hal_tim_ex.c **** @verbatim
 860:d:/LiteOS_Lab/drivers/third_party/ST/STM32L4xx_HAL_Driver/Src\stm32l4xx_hal_tim_ex.c ****   ==============================================================================
 861:d:/LiteOS_Lab/drivers/third_party/ST/STM32L4xx_HAL_Driver/Src\stm32l4xx_hal_tim_ex.c ****                  ##### Timer Complementary PWM functions #####
 862:d:/LiteOS_Lab/drivers/third_party/ST/STM32L4xx_HAL_Driver/Src\stm32l4xx_hal_tim_ex.c ****   ==============================================================================
 863:d:/LiteOS_Lab/drivers/third_party/ST/STM32L4xx_HAL_Driver/Src\stm32l4xx_hal_tim_ex.c ****   [..]
 864:d:/LiteOS_Lab/drivers/third_party/ST/STM32L4xx_HAL_Driver/Src\stm32l4xx_hal_tim_ex.c ****     This section provides functions allowing to:
 865:d:/LiteOS_Lab/drivers/third_party/ST/STM32L4xx_HAL_Driver/Src\stm32l4xx_hal_tim_ex.c ****     (+) Start the Complementary PWM.
 866:d:/LiteOS_Lab/drivers/third_party/ST/STM32L4xx_HAL_Driver/Src\stm32l4xx_hal_tim_ex.c ****     (+) Stop the Complementary PWM.
 867:d:/LiteOS_Lab/drivers/third_party/ST/STM32L4xx_HAL_Driver/Src\stm32l4xx_hal_tim_ex.c ****     (+) Start the Complementary PWM and enable interrupts.
 868:d:/LiteOS_Lab/drivers/third_party/ST/STM32L4xx_HAL_Driver/Src\stm32l4xx_hal_tim_ex.c ****     (+) Stop the Complementary PWM and disable interrupts.
 869:d:/LiteOS_Lab/drivers/third_party/ST/STM32L4xx_HAL_Driver/Src\stm32l4xx_hal_tim_ex.c ****     (+) Start the Complementary PWM and enable DMA transfers.
 870:d:/LiteOS_Lab/drivers/third_party/ST/STM32L4xx_HAL_Driver/Src\stm32l4xx_hal_tim_ex.c ****     (+) Stop the Complementary PWM and disable DMA transfers.
 871:d:/LiteOS_Lab/drivers/third_party/ST/STM32L4xx_HAL_Driver/Src\stm32l4xx_hal_tim_ex.c ****     (+) Start the Complementary Input Capture measurement.
 872:d:/LiteOS_Lab/drivers/third_party/ST/STM32L4xx_HAL_Driver/Src\stm32l4xx_hal_tim_ex.c ****     (+) Stop the Complementary Input Capture.
 873:d:/LiteOS_Lab/drivers/third_party/ST/STM32L4xx_HAL_Driver/Src\stm32l4xx_hal_tim_ex.c ****     (+) Start the Complementary Input Capture and enable interrupts.
 874:d:/LiteOS_Lab/drivers/third_party/ST/STM32L4xx_HAL_Driver/Src\stm32l4xx_hal_tim_ex.c ****     (+) Stop the Complementary Input Capture and disable interrupts.
 875:d:/LiteOS_Lab/drivers/third_party/ST/STM32L4xx_HAL_Driver/Src\stm32l4xx_hal_tim_ex.c ****     (+) Start the Complementary Input Capture and enable DMA transfers.
 876:d:/LiteOS_Lab/drivers/third_party/ST/STM32L4xx_HAL_Driver/Src\stm32l4xx_hal_tim_ex.c ****     (+) Stop the Complementary Input Capture and disable DMA transfers.
 877:d:/LiteOS_Lab/drivers/third_party/ST/STM32L4xx_HAL_Driver/Src\stm32l4xx_hal_tim_ex.c ****     (+) Start the Complementary One Pulse generation.
 878:d:/LiteOS_Lab/drivers/third_party/ST/STM32L4xx_HAL_Driver/Src\stm32l4xx_hal_tim_ex.c ****     (+) Stop the Complementary One Pulse.
 879:d:/LiteOS_Lab/drivers/third_party/ST/STM32L4xx_HAL_Driver/Src\stm32l4xx_hal_tim_ex.c ****     (+) Start the Complementary One Pulse and enable interrupts.
 880:d:/LiteOS_Lab/drivers/third_party/ST/STM32L4xx_HAL_Driver/Src\stm32l4xx_hal_tim_ex.c ****     (+) Stop the Complementary One Pulse and disable interrupts.
 881:d:/LiteOS_Lab/drivers/third_party/ST/STM32L4xx_HAL_Driver/Src\stm32l4xx_hal_tim_ex.c **** 
 882:d:/LiteOS_Lab/drivers/third_party/ST/STM32L4xx_HAL_Driver/Src\stm32l4xx_hal_tim_ex.c **** @endverbatim
 883:d:/LiteOS_Lab/drivers/third_party/ST/STM32L4xx_HAL_Driver/Src\stm32l4xx_hal_tim_ex.c ****   * @{
 884:d:/LiteOS_Lab/drivers/third_party/ST/STM32L4xx_HAL_Driver/Src\stm32l4xx_hal_tim_ex.c ****   */
 885:d:/LiteOS_Lab/drivers/third_party/ST/STM32L4xx_HAL_Driver/Src\stm32l4xx_hal_tim_ex.c **** 
 886:d:/LiteOS_Lab/drivers/third_party/ST/STM32L4xx_HAL_Driver/Src\stm32l4xx_hal_tim_ex.c **** /**
 887:d:/LiteOS_Lab/drivers/third_party/ST/STM32L4xx_HAL_Driver/Src\stm32l4xx_hal_tim_ex.c ****   * @brief  Starts the PWM signal generation on the complementary output.
 888:d:/LiteOS_Lab/drivers/third_party/ST/STM32L4xx_HAL_Driver/Src\stm32l4xx_hal_tim_ex.c ****   * @param  htim TIM handle
 889:d:/LiteOS_Lab/drivers/third_party/ST/STM32L4xx_HAL_Driver/Src\stm32l4xx_hal_tim_ex.c ****   * @param  Channel TIM Channel to be enabled
 890:d:/LiteOS_Lab/drivers/third_party/ST/STM32L4xx_HAL_Driver/Src\stm32l4xx_hal_tim_ex.c ****   *          This parameter can be one of the following values:
 891:d:/LiteOS_Lab/drivers/third_party/ST/STM32L4xx_HAL_Driver/Src\stm32l4xx_hal_tim_ex.c ****   *            @arg TIM_CHANNEL_1: TIM Channel 1 selected
 892:d:/LiteOS_Lab/drivers/third_party/ST/STM32L4xx_HAL_Driver/Src\stm32l4xx_hal_tim_ex.c ****   *            @arg TIM_CHANNEL_2: TIM Channel 2 selected
 893:d:/LiteOS_Lab/drivers/third_party/ST/STM32L4xx_HAL_Driver/Src\stm32l4xx_hal_tim_ex.c ****   *            @arg TIM_CHANNEL_3: TIM Channel 3 selected
 894:d:/LiteOS_Lab/drivers/third_party/ST/STM32L4xx_HAL_Driver/Src\stm32l4xx_hal_tim_ex.c ****   * @retval HAL status
 895:d:/LiteOS_Lab/drivers/third_party/ST/STM32L4xx_HAL_Driver/Src\stm32l4xx_hal_tim_ex.c ****   */
 896:d:/LiteOS_Lab/drivers/third_party/ST/STM32L4xx_HAL_Driver/Src\stm32l4xx_hal_tim_ex.c **** HAL_StatusTypeDef HAL_TIMEx_PWMN_Start(TIM_HandleTypeDef *htim, uint32_t Channel)
 897:d:/LiteOS_Lab/drivers/third_party/ST/STM32L4xx_HAL_Driver/Src\stm32l4xx_hal_tim_ex.c **** {
 1856              		.loc 1 897 1
 1857              		.cfi_startproc
 1858              		@ args = 0, pretend = 0, frame = 8
 1859              		@ frame_needed = 1, uses_anonymous_args = 0
 1860 0000 80B5     		push	{r7, lr}
 1861              	.LCFI82:
 1862              		.cfi_def_cfa_offset 8
 1863              		.cfi_offset 7, -8
 1864              		.cfi_offset 14, -4
 1865 0002 82B0     		sub	sp, sp, #8
 1866              	.LCFI83:
 1867              		.cfi_def_cfa_offset 16
 1868 0004 00AF     		add	r7, sp, #0
 1869              	.LCFI84:
 1870              		.cfi_def_cfa_register 7
 1871 0006 7860     		str	r0, [r7, #4]
 1872 0008 3960     		str	r1, [r7]
ARM GAS  C:\Users\ADMINI~1\AppData\Local\Temp\ccYWIBty.s 			page 49


 898:d:/LiteOS_Lab/drivers/third_party/ST/STM32L4xx_HAL_Driver/Src\stm32l4xx_hal_tim_ex.c ****   /* Check the parameters */
 899:d:/LiteOS_Lab/drivers/third_party/ST/STM32L4xx_HAL_Driver/Src\stm32l4xx_hal_tim_ex.c ****   assert_param(IS_TIM_CCXN_INSTANCE(htim->Instance, Channel));
 900:d:/LiteOS_Lab/drivers/third_party/ST/STM32L4xx_HAL_Driver/Src\stm32l4xx_hal_tim_ex.c **** 
 901:d:/LiteOS_Lab/drivers/third_party/ST/STM32L4xx_HAL_Driver/Src\stm32l4xx_hal_tim_ex.c ****   /* Enable the complementary PWM output  */
 902:d:/LiteOS_Lab/drivers/third_party/ST/STM32L4xx_HAL_Driver/Src\stm32l4xx_hal_tim_ex.c ****   TIM_CCxNChannelCmd(htim->Instance, Channel, TIM_CCxN_ENABLE);
 1873              		.loc 1 902 3
 1874 000a 7B68     		ldr	r3, [r7, #4]
 1875 000c 1B68     		ldr	r3, [r3]
 1876 000e 0422     		movs	r2, #4
 1877 0010 3968     		ldr	r1, [r7]
 1878 0012 1846     		mov	r0, r3
 1879 0014 FFF7FEFF 		bl	TIM_CCxNChannelCmd
 903:d:/LiteOS_Lab/drivers/third_party/ST/STM32L4xx_HAL_Driver/Src\stm32l4xx_hal_tim_ex.c **** 
 904:d:/LiteOS_Lab/drivers/third_party/ST/STM32L4xx_HAL_Driver/Src\stm32l4xx_hal_tim_ex.c ****   /* Enable the Main Ouput */
 905:d:/LiteOS_Lab/drivers/third_party/ST/STM32L4xx_HAL_Driver/Src\stm32l4xx_hal_tim_ex.c ****   __HAL_TIM_MOE_ENABLE(htim);
 1880              		.loc 1 905 3
 1881 0018 7B68     		ldr	r3, [r7, #4]
 1882 001a 1B68     		ldr	r3, [r3]
 1883 001c 5A6C     		ldr	r2, [r3, #68]
 1884 001e 7B68     		ldr	r3, [r7, #4]
 1885 0020 1B68     		ldr	r3, [r3]
 1886 0022 42F40042 		orr	r2, r2, #32768
 1887 0026 5A64     		str	r2, [r3, #68]
 906:d:/LiteOS_Lab/drivers/third_party/ST/STM32L4xx_HAL_Driver/Src\stm32l4xx_hal_tim_ex.c **** 
 907:d:/LiteOS_Lab/drivers/third_party/ST/STM32L4xx_HAL_Driver/Src\stm32l4xx_hal_tim_ex.c ****   /* Enable the Peripheral */
 908:d:/LiteOS_Lab/drivers/third_party/ST/STM32L4xx_HAL_Driver/Src\stm32l4xx_hal_tim_ex.c ****   __HAL_TIM_ENABLE(htim);
 1888              		.loc 1 908 3
 1889 0028 7B68     		ldr	r3, [r7, #4]
 1890 002a 1B68     		ldr	r3, [r3]
 1891 002c 1A68     		ldr	r2, [r3]
 1892 002e 7B68     		ldr	r3, [r7, #4]
 1893 0030 1B68     		ldr	r3, [r3]
 1894 0032 42F00102 		orr	r2, r2, #1
 1895 0036 1A60     		str	r2, [r3]
 909:d:/LiteOS_Lab/drivers/third_party/ST/STM32L4xx_HAL_Driver/Src\stm32l4xx_hal_tim_ex.c **** 
 910:d:/LiteOS_Lab/drivers/third_party/ST/STM32L4xx_HAL_Driver/Src\stm32l4xx_hal_tim_ex.c ****   /* Return function status */
 911:d:/LiteOS_Lab/drivers/third_party/ST/STM32L4xx_HAL_Driver/Src\stm32l4xx_hal_tim_ex.c ****   return HAL_OK;
 1896              		.loc 1 911 10
 1897 0038 0023     		movs	r3, #0
 912:d:/LiteOS_Lab/drivers/third_party/ST/STM32L4xx_HAL_Driver/Src\stm32l4xx_hal_tim_ex.c **** }
 1898              		.loc 1 912 1
 1899 003a 1846     		mov	r0, r3
 1900 003c 0837     		adds	r7, r7, #8
 1901              	.LCFI85:
 1902              		.cfi_def_cfa_offset 8
 1903 003e BD46     		mov	sp, r7
 1904              	.LCFI86:
 1905              		.cfi_def_cfa_register 13
 1906              		@ sp needed
 1907 0040 80BD     		pop	{r7, pc}
 1908              		.cfi_endproc
 1909              	.LFE303:
 1911              		.section	.text.HAL_TIMEx_PWMN_Stop,"ax",%progbits
 1912              		.align	1
 1913              		.global	HAL_TIMEx_PWMN_Stop
 1914              		.syntax unified
 1915              		.thumb
ARM GAS  C:\Users\ADMINI~1\AppData\Local\Temp\ccYWIBty.s 			page 50


 1916              		.thumb_func
 1917              		.fpu fpv4-sp-d16
 1919              	HAL_TIMEx_PWMN_Stop:
 1920              	.LFB304:
 913:d:/LiteOS_Lab/drivers/third_party/ST/STM32L4xx_HAL_Driver/Src\stm32l4xx_hal_tim_ex.c **** 
 914:d:/LiteOS_Lab/drivers/third_party/ST/STM32L4xx_HAL_Driver/Src\stm32l4xx_hal_tim_ex.c **** /**
 915:d:/LiteOS_Lab/drivers/third_party/ST/STM32L4xx_HAL_Driver/Src\stm32l4xx_hal_tim_ex.c ****   * @brief  Stops the PWM signal generation on the complementary output.
 916:d:/LiteOS_Lab/drivers/third_party/ST/STM32L4xx_HAL_Driver/Src\stm32l4xx_hal_tim_ex.c ****   * @param  htim TIM handle
 917:d:/LiteOS_Lab/drivers/third_party/ST/STM32L4xx_HAL_Driver/Src\stm32l4xx_hal_tim_ex.c ****   * @param  Channel TIM Channel to be disabled
 918:d:/LiteOS_Lab/drivers/third_party/ST/STM32L4xx_HAL_Driver/Src\stm32l4xx_hal_tim_ex.c ****   *          This parameter can be one of the following values:
 919:d:/LiteOS_Lab/drivers/third_party/ST/STM32L4xx_HAL_Driver/Src\stm32l4xx_hal_tim_ex.c ****   *            @arg TIM_CHANNEL_1: TIM Channel 1 selected
 920:d:/LiteOS_Lab/drivers/third_party/ST/STM32L4xx_HAL_Driver/Src\stm32l4xx_hal_tim_ex.c ****   *            @arg TIM_CHANNEL_2: TIM Channel 2 selected
 921:d:/LiteOS_Lab/drivers/third_party/ST/STM32L4xx_HAL_Driver/Src\stm32l4xx_hal_tim_ex.c ****   *            @arg TIM_CHANNEL_3: TIM Channel 3 selected
 922:d:/LiteOS_Lab/drivers/third_party/ST/STM32L4xx_HAL_Driver/Src\stm32l4xx_hal_tim_ex.c ****   * @retval HAL status
 923:d:/LiteOS_Lab/drivers/third_party/ST/STM32L4xx_HAL_Driver/Src\stm32l4xx_hal_tim_ex.c ****   */
 924:d:/LiteOS_Lab/drivers/third_party/ST/STM32L4xx_HAL_Driver/Src\stm32l4xx_hal_tim_ex.c **** HAL_StatusTypeDef HAL_TIMEx_PWMN_Stop(TIM_HandleTypeDef *htim, uint32_t Channel)
 925:d:/LiteOS_Lab/drivers/third_party/ST/STM32L4xx_HAL_Driver/Src\stm32l4xx_hal_tim_ex.c **** {
 1921              		.loc 1 925 1
 1922              		.cfi_startproc
 1923              		@ args = 0, pretend = 0, frame = 8
 1924              		@ frame_needed = 1, uses_anonymous_args = 0
 1925 0000 80B5     		push	{r7, lr}
 1926              	.LCFI87:
 1927              		.cfi_def_cfa_offset 8
 1928              		.cfi_offset 7, -8
 1929              		.cfi_offset 14, -4
 1930 0002 82B0     		sub	sp, sp, #8
 1931              	.LCFI88:
 1932              		.cfi_def_cfa_offset 16
 1933 0004 00AF     		add	r7, sp, #0
 1934              	.LCFI89:
 1935              		.cfi_def_cfa_register 7
 1936 0006 7860     		str	r0, [r7, #4]
 1937 0008 3960     		str	r1, [r7]
 926:d:/LiteOS_Lab/drivers/third_party/ST/STM32L4xx_HAL_Driver/Src\stm32l4xx_hal_tim_ex.c ****   /* Check the parameters */
 927:d:/LiteOS_Lab/drivers/third_party/ST/STM32L4xx_HAL_Driver/Src\stm32l4xx_hal_tim_ex.c ****   assert_param(IS_TIM_CCXN_INSTANCE(htim->Instance, Channel));
 928:d:/LiteOS_Lab/drivers/third_party/ST/STM32L4xx_HAL_Driver/Src\stm32l4xx_hal_tim_ex.c **** 
 929:d:/LiteOS_Lab/drivers/third_party/ST/STM32L4xx_HAL_Driver/Src\stm32l4xx_hal_tim_ex.c ****   /* Disable the complementary PWM output  */
 930:d:/LiteOS_Lab/drivers/third_party/ST/STM32L4xx_HAL_Driver/Src\stm32l4xx_hal_tim_ex.c ****   TIM_CCxNChannelCmd(htim->Instance, Channel, TIM_CCxN_DISABLE);
 1938              		.loc 1 930 3
 1939 000a 7B68     		ldr	r3, [r7, #4]
 1940 000c 1B68     		ldr	r3, [r3]
 1941 000e 0022     		movs	r2, #0
 1942 0010 3968     		ldr	r1, [r7]
 1943 0012 1846     		mov	r0, r3
 1944 0014 FFF7FEFF 		bl	TIM_CCxNChannelCmd
 931:d:/LiteOS_Lab/drivers/third_party/ST/STM32L4xx_HAL_Driver/Src\stm32l4xx_hal_tim_ex.c **** 
 932:d:/LiteOS_Lab/drivers/third_party/ST/STM32L4xx_HAL_Driver/Src\stm32l4xx_hal_tim_ex.c ****   /* Disable the Main Ouput */
 933:d:/LiteOS_Lab/drivers/third_party/ST/STM32L4xx_HAL_Driver/Src\stm32l4xx_hal_tim_ex.c ****   __HAL_TIM_MOE_DISABLE(htim);
 1945              		.loc 1 933 3
 1946 0018 7B68     		ldr	r3, [r7, #4]
 1947 001a 1B68     		ldr	r3, [r3]
 1948 001c 1A6A     		ldr	r2, [r3, #32]
 1949 001e 41F21113 		movw	r3, #4369
 1950 0022 1340     		ands	r3, r3, r2
 1951 0024 002B     		cmp	r3, #0
 1952 0026 0FD1     		bne	.L90
ARM GAS  C:\Users\ADMINI~1\AppData\Local\Temp\ccYWIBty.s 			page 51


 1953              		.loc 1 933 3 is_stmt 0 discriminator 1
 1954 0028 7B68     		ldr	r3, [r7, #4]
 1955 002a 1B68     		ldr	r3, [r3]
 1956 002c 1A6A     		ldr	r2, [r3, #32]
 1957 002e 40F24443 		movw	r3, #1092
 1958 0032 1340     		ands	r3, r3, r2
 1959 0034 002B     		cmp	r3, #0
 1960 0036 07D1     		bne	.L90
 1961              		.loc 1 933 3 discriminator 2
 1962 0038 7B68     		ldr	r3, [r7, #4]
 1963 003a 1B68     		ldr	r3, [r3]
 1964 003c 5A6C     		ldr	r2, [r3, #68]
 1965 003e 7B68     		ldr	r3, [r7, #4]
 1966 0040 1B68     		ldr	r3, [r3]
 1967 0042 22F40042 		bic	r2, r2, #32768
 1968 0046 5A64     		str	r2, [r3, #68]
 1969              	.L90:
 934:d:/LiteOS_Lab/drivers/third_party/ST/STM32L4xx_HAL_Driver/Src\stm32l4xx_hal_tim_ex.c **** 
 935:d:/LiteOS_Lab/drivers/third_party/ST/STM32L4xx_HAL_Driver/Src\stm32l4xx_hal_tim_ex.c ****   /* Disable the Peripheral */
 936:d:/LiteOS_Lab/drivers/third_party/ST/STM32L4xx_HAL_Driver/Src\stm32l4xx_hal_tim_ex.c ****   __HAL_TIM_DISABLE(htim);
 1970              		.loc 1 936 3 is_stmt 1
 1971 0048 7B68     		ldr	r3, [r7, #4]
 1972 004a 1B68     		ldr	r3, [r3]
 1973 004c 1A6A     		ldr	r2, [r3, #32]
 1974 004e 41F21113 		movw	r3, #4369
 1975 0052 1340     		ands	r3, r3, r2
 1976 0054 002B     		cmp	r3, #0
 1977 0056 0FD1     		bne	.L91
 1978              		.loc 1 936 3 is_stmt 0 discriminator 1
 1979 0058 7B68     		ldr	r3, [r7, #4]
 1980 005a 1B68     		ldr	r3, [r3]
 1981 005c 1A6A     		ldr	r2, [r3, #32]
 1982 005e 40F24443 		movw	r3, #1092
 1983 0062 1340     		ands	r3, r3, r2
 1984 0064 002B     		cmp	r3, #0
 1985 0066 07D1     		bne	.L91
 1986              		.loc 1 936 3 discriminator 2
 1987 0068 7B68     		ldr	r3, [r7, #4]
 1988 006a 1B68     		ldr	r3, [r3]
 1989 006c 1A68     		ldr	r2, [r3]
 1990 006e 7B68     		ldr	r3, [r7, #4]
 1991 0070 1B68     		ldr	r3, [r3]
 1992 0072 22F00102 		bic	r2, r2, #1
 1993 0076 1A60     		str	r2, [r3]
 1994              	.L91:
 937:d:/LiteOS_Lab/drivers/third_party/ST/STM32L4xx_HAL_Driver/Src\stm32l4xx_hal_tim_ex.c **** 
 938:d:/LiteOS_Lab/drivers/third_party/ST/STM32L4xx_HAL_Driver/Src\stm32l4xx_hal_tim_ex.c ****   /* Return function status */
 939:d:/LiteOS_Lab/drivers/third_party/ST/STM32L4xx_HAL_Driver/Src\stm32l4xx_hal_tim_ex.c ****   return HAL_OK;
 1995              		.loc 1 939 10 is_stmt 1
 1996 0078 0023     		movs	r3, #0
 940:d:/LiteOS_Lab/drivers/third_party/ST/STM32L4xx_HAL_Driver/Src\stm32l4xx_hal_tim_ex.c **** }
 1997              		.loc 1 940 1
 1998 007a 1846     		mov	r0, r3
 1999 007c 0837     		adds	r7, r7, #8
 2000              	.LCFI90:
 2001              		.cfi_def_cfa_offset 8
 2002 007e BD46     		mov	sp, r7
ARM GAS  C:\Users\ADMINI~1\AppData\Local\Temp\ccYWIBty.s 			page 52


 2003              	.LCFI91:
 2004              		.cfi_def_cfa_register 13
 2005              		@ sp needed
 2006 0080 80BD     		pop	{r7, pc}
 2007              		.cfi_endproc
 2008              	.LFE304:
 2010              		.section	.text.HAL_TIMEx_PWMN_Start_IT,"ax",%progbits
 2011              		.align	1
 2012              		.global	HAL_TIMEx_PWMN_Start_IT
 2013              		.syntax unified
 2014              		.thumb
 2015              		.thumb_func
 2016              		.fpu fpv4-sp-d16
 2018              	HAL_TIMEx_PWMN_Start_IT:
 2019              	.LFB305:
 941:d:/LiteOS_Lab/drivers/third_party/ST/STM32L4xx_HAL_Driver/Src\stm32l4xx_hal_tim_ex.c **** 
 942:d:/LiteOS_Lab/drivers/third_party/ST/STM32L4xx_HAL_Driver/Src\stm32l4xx_hal_tim_ex.c **** /**
 943:d:/LiteOS_Lab/drivers/third_party/ST/STM32L4xx_HAL_Driver/Src\stm32l4xx_hal_tim_ex.c ****   * @brief  Starts the PWM signal generation in interrupt mode on the
 944:d:/LiteOS_Lab/drivers/third_party/ST/STM32L4xx_HAL_Driver/Src\stm32l4xx_hal_tim_ex.c ****   *         complementary output.
 945:d:/LiteOS_Lab/drivers/third_party/ST/STM32L4xx_HAL_Driver/Src\stm32l4xx_hal_tim_ex.c ****   * @param  htim TIM handle
 946:d:/LiteOS_Lab/drivers/third_party/ST/STM32L4xx_HAL_Driver/Src\stm32l4xx_hal_tim_ex.c ****   * @param  Channel TIM Channel to be disabled
 947:d:/LiteOS_Lab/drivers/third_party/ST/STM32L4xx_HAL_Driver/Src\stm32l4xx_hal_tim_ex.c ****   *          This parameter can be one of the following values:
 948:d:/LiteOS_Lab/drivers/third_party/ST/STM32L4xx_HAL_Driver/Src\stm32l4xx_hal_tim_ex.c ****   *            @arg TIM_CHANNEL_1: TIM Channel 1 selected
 949:d:/LiteOS_Lab/drivers/third_party/ST/STM32L4xx_HAL_Driver/Src\stm32l4xx_hal_tim_ex.c ****   *            @arg TIM_CHANNEL_2: TIM Channel 2 selected
 950:d:/LiteOS_Lab/drivers/third_party/ST/STM32L4xx_HAL_Driver/Src\stm32l4xx_hal_tim_ex.c ****   *            @arg TIM_CHANNEL_3: TIM Channel 3 selected
 951:d:/LiteOS_Lab/drivers/third_party/ST/STM32L4xx_HAL_Driver/Src\stm32l4xx_hal_tim_ex.c ****   * @retval HAL status
 952:d:/LiteOS_Lab/drivers/third_party/ST/STM32L4xx_HAL_Driver/Src\stm32l4xx_hal_tim_ex.c ****   */
 953:d:/LiteOS_Lab/drivers/third_party/ST/STM32L4xx_HAL_Driver/Src\stm32l4xx_hal_tim_ex.c **** HAL_StatusTypeDef HAL_TIMEx_PWMN_Start_IT(TIM_HandleTypeDef *htim, uint32_t Channel)
 954:d:/LiteOS_Lab/drivers/third_party/ST/STM32L4xx_HAL_Driver/Src\stm32l4xx_hal_tim_ex.c **** {
 2020              		.loc 1 954 1
 2021              		.cfi_startproc
 2022              		@ args = 0, pretend = 0, frame = 8
 2023              		@ frame_needed = 1, uses_anonymous_args = 0
 2024 0000 80B5     		push	{r7, lr}
 2025              	.LCFI92:
 2026              		.cfi_def_cfa_offset 8
 2027              		.cfi_offset 7, -8
 2028              		.cfi_offset 14, -4
 2029 0002 82B0     		sub	sp, sp, #8
 2030              	.LCFI93:
 2031              		.cfi_def_cfa_offset 16
 2032 0004 00AF     		add	r7, sp, #0
 2033              	.LCFI94:
 2034              		.cfi_def_cfa_register 7
 2035 0006 7860     		str	r0, [r7, #4]
 2036 0008 3960     		str	r1, [r7]
 2037 000a 3B68     		ldr	r3, [r7]
 2038 000c 0C2B     		cmp	r3, #12
 2039 000e 41D8     		bhi	.L102
 2040 0010 01A2     		adr	r2, .L96
 2041 0012 52F823F0 		ldr	pc, [r2, r3, lsl #2]
 2042 0016 00BF     		.p2align 2
 2043              	.L96:
 2044 0018 4D000000 		.word	.L99+1
 2045 001c 95000000 		.word	.L102+1
 2046 0020 95000000 		.word	.L102+1
 2047 0024 95000000 		.word	.L102+1
ARM GAS  C:\Users\ADMINI~1\AppData\Local\Temp\ccYWIBty.s 			page 53


 2048 0028 5F000000 		.word	.L98+1
 2049 002c 95000000 		.word	.L102+1
 2050 0030 95000000 		.word	.L102+1
 2051 0034 95000000 		.word	.L102+1
 2052 0038 71000000 		.word	.L97+1
 2053 003c 95000000 		.word	.L102+1
 2054 0040 95000000 		.word	.L102+1
 2055 0044 95000000 		.word	.L102+1
 2056 0048 83000000 		.word	.L95+1
 2057              		.p2align 1
 2058              	.L99:
 955:d:/LiteOS_Lab/drivers/third_party/ST/STM32L4xx_HAL_Driver/Src\stm32l4xx_hal_tim_ex.c ****   /* Check the parameters */
 956:d:/LiteOS_Lab/drivers/third_party/ST/STM32L4xx_HAL_Driver/Src\stm32l4xx_hal_tim_ex.c ****   assert_param(IS_TIM_CCXN_INSTANCE(htim->Instance, Channel));
 957:d:/LiteOS_Lab/drivers/third_party/ST/STM32L4xx_HAL_Driver/Src\stm32l4xx_hal_tim_ex.c **** 
 958:d:/LiteOS_Lab/drivers/third_party/ST/STM32L4xx_HAL_Driver/Src\stm32l4xx_hal_tim_ex.c ****   switch (Channel)
 959:d:/LiteOS_Lab/drivers/third_party/ST/STM32L4xx_HAL_Driver/Src\stm32l4xx_hal_tim_ex.c ****   {
 960:d:/LiteOS_Lab/drivers/third_party/ST/STM32L4xx_HAL_Driver/Src\stm32l4xx_hal_tim_ex.c ****     case TIM_CHANNEL_1:
 961:d:/LiteOS_Lab/drivers/third_party/ST/STM32L4xx_HAL_Driver/Src\stm32l4xx_hal_tim_ex.c ****     {
 962:d:/LiteOS_Lab/drivers/third_party/ST/STM32L4xx_HAL_Driver/Src\stm32l4xx_hal_tim_ex.c ****       /* Enable the TIM Capture/Compare 1 interrupt */
 963:d:/LiteOS_Lab/drivers/third_party/ST/STM32L4xx_HAL_Driver/Src\stm32l4xx_hal_tim_ex.c ****       __HAL_TIM_ENABLE_IT(htim, TIM_IT_CC1);
 2059              		.loc 1 963 7
 2060 004c 7B68     		ldr	r3, [r7, #4]
 2061 004e 1B68     		ldr	r3, [r3]
 2062 0050 DA68     		ldr	r2, [r3, #12]
 2063 0052 7B68     		ldr	r3, [r7, #4]
 2064 0054 1B68     		ldr	r3, [r3]
 2065 0056 42F00202 		orr	r2, r2, #2
 2066 005a DA60     		str	r2, [r3, #12]
 964:d:/LiteOS_Lab/drivers/third_party/ST/STM32L4xx_HAL_Driver/Src\stm32l4xx_hal_tim_ex.c ****     }
 965:d:/LiteOS_Lab/drivers/third_party/ST/STM32L4xx_HAL_Driver/Src\stm32l4xx_hal_tim_ex.c ****     break;
 2067              		.loc 1 965 5
 2068 005c 1BE0     		b	.L100
 2069              	.L98:
 966:d:/LiteOS_Lab/drivers/third_party/ST/STM32L4xx_HAL_Driver/Src\stm32l4xx_hal_tim_ex.c **** 
 967:d:/LiteOS_Lab/drivers/third_party/ST/STM32L4xx_HAL_Driver/Src\stm32l4xx_hal_tim_ex.c ****     case TIM_CHANNEL_2:
 968:d:/LiteOS_Lab/drivers/third_party/ST/STM32L4xx_HAL_Driver/Src\stm32l4xx_hal_tim_ex.c ****     {
 969:d:/LiteOS_Lab/drivers/third_party/ST/STM32L4xx_HAL_Driver/Src\stm32l4xx_hal_tim_ex.c ****       /* Enable the TIM Capture/Compare 2 interrupt */
 970:d:/LiteOS_Lab/drivers/third_party/ST/STM32L4xx_HAL_Driver/Src\stm32l4xx_hal_tim_ex.c ****       __HAL_TIM_ENABLE_IT(htim, TIM_IT_CC2);
 2070              		.loc 1 970 7
 2071 005e 7B68     		ldr	r3, [r7, #4]
 2072 0060 1B68     		ldr	r3, [r3]
 2073 0062 DA68     		ldr	r2, [r3, #12]
 2074 0064 7B68     		ldr	r3, [r7, #4]
 2075 0066 1B68     		ldr	r3, [r3]
 2076 0068 42F00402 		orr	r2, r2, #4
 2077 006c DA60     		str	r2, [r3, #12]
 971:d:/LiteOS_Lab/drivers/third_party/ST/STM32L4xx_HAL_Driver/Src\stm32l4xx_hal_tim_ex.c ****     }
 972:d:/LiteOS_Lab/drivers/third_party/ST/STM32L4xx_HAL_Driver/Src\stm32l4xx_hal_tim_ex.c ****     break;
 2078              		.loc 1 972 5
 2079 006e 12E0     		b	.L100
 2080              	.L97:
 973:d:/LiteOS_Lab/drivers/third_party/ST/STM32L4xx_HAL_Driver/Src\stm32l4xx_hal_tim_ex.c **** 
 974:d:/LiteOS_Lab/drivers/third_party/ST/STM32L4xx_HAL_Driver/Src\stm32l4xx_hal_tim_ex.c ****     case TIM_CHANNEL_3:
 975:d:/LiteOS_Lab/drivers/third_party/ST/STM32L4xx_HAL_Driver/Src\stm32l4xx_hal_tim_ex.c ****     {
 976:d:/LiteOS_Lab/drivers/third_party/ST/STM32L4xx_HAL_Driver/Src\stm32l4xx_hal_tim_ex.c ****       /* Enable the TIM Capture/Compare 3 interrupt */
 977:d:/LiteOS_Lab/drivers/third_party/ST/STM32L4xx_HAL_Driver/Src\stm32l4xx_hal_tim_ex.c ****       __HAL_TIM_ENABLE_IT(htim, TIM_IT_CC3);
 2081              		.loc 1 977 7
ARM GAS  C:\Users\ADMINI~1\AppData\Local\Temp\ccYWIBty.s 			page 54


 2082 0070 7B68     		ldr	r3, [r7, #4]
 2083 0072 1B68     		ldr	r3, [r3]
 2084 0074 DA68     		ldr	r2, [r3, #12]
 2085 0076 7B68     		ldr	r3, [r7, #4]
 2086 0078 1B68     		ldr	r3, [r3]
 2087 007a 42F00802 		orr	r2, r2, #8
 2088 007e DA60     		str	r2, [r3, #12]
 978:d:/LiteOS_Lab/drivers/third_party/ST/STM32L4xx_HAL_Driver/Src\stm32l4xx_hal_tim_ex.c ****     }
 979:d:/LiteOS_Lab/drivers/third_party/ST/STM32L4xx_HAL_Driver/Src\stm32l4xx_hal_tim_ex.c ****     break;
 2089              		.loc 1 979 5
 2090 0080 09E0     		b	.L100
 2091              	.L95:
 980:d:/LiteOS_Lab/drivers/third_party/ST/STM32L4xx_HAL_Driver/Src\stm32l4xx_hal_tim_ex.c **** 
 981:d:/LiteOS_Lab/drivers/third_party/ST/STM32L4xx_HAL_Driver/Src\stm32l4xx_hal_tim_ex.c ****     case TIM_CHANNEL_4:
 982:d:/LiteOS_Lab/drivers/third_party/ST/STM32L4xx_HAL_Driver/Src\stm32l4xx_hal_tim_ex.c ****     {
 983:d:/LiteOS_Lab/drivers/third_party/ST/STM32L4xx_HAL_Driver/Src\stm32l4xx_hal_tim_ex.c ****       /* Enable the TIM Capture/Compare 4 interrupt */
 984:d:/LiteOS_Lab/drivers/third_party/ST/STM32L4xx_HAL_Driver/Src\stm32l4xx_hal_tim_ex.c ****       __HAL_TIM_ENABLE_IT(htim, TIM_IT_CC4);
 2092              		.loc 1 984 7
 2093 0082 7B68     		ldr	r3, [r7, #4]
 2094 0084 1B68     		ldr	r3, [r3]
 2095 0086 DA68     		ldr	r2, [r3, #12]
 2096 0088 7B68     		ldr	r3, [r7, #4]
 2097 008a 1B68     		ldr	r3, [r3]
 2098 008c 42F01002 		orr	r2, r2, #16
 2099 0090 DA60     		str	r2, [r3, #12]
 985:d:/LiteOS_Lab/drivers/third_party/ST/STM32L4xx_HAL_Driver/Src\stm32l4xx_hal_tim_ex.c ****     }
 986:d:/LiteOS_Lab/drivers/third_party/ST/STM32L4xx_HAL_Driver/Src\stm32l4xx_hal_tim_ex.c ****     break;
 2100              		.loc 1 986 5
 2101 0092 00E0     		b	.L100
 2102              	.L102:
 987:d:/LiteOS_Lab/drivers/third_party/ST/STM32L4xx_HAL_Driver/Src\stm32l4xx_hal_tim_ex.c **** 
 988:d:/LiteOS_Lab/drivers/third_party/ST/STM32L4xx_HAL_Driver/Src\stm32l4xx_hal_tim_ex.c ****     default:
 989:d:/LiteOS_Lab/drivers/third_party/ST/STM32L4xx_HAL_Driver/Src\stm32l4xx_hal_tim_ex.c ****     break;
 2103              		.loc 1 989 5
 2104 0094 00BF     		nop
 2105              	.L100:
 990:d:/LiteOS_Lab/drivers/third_party/ST/STM32L4xx_HAL_Driver/Src\stm32l4xx_hal_tim_ex.c ****   }
 991:d:/LiteOS_Lab/drivers/third_party/ST/STM32L4xx_HAL_Driver/Src\stm32l4xx_hal_tim_ex.c **** 
 992:d:/LiteOS_Lab/drivers/third_party/ST/STM32L4xx_HAL_Driver/Src\stm32l4xx_hal_tim_ex.c ****   /* Enable the TIM Break interrupt */
 993:d:/LiteOS_Lab/drivers/third_party/ST/STM32L4xx_HAL_Driver/Src\stm32l4xx_hal_tim_ex.c ****   __HAL_TIM_ENABLE_IT(htim, TIM_IT_BREAK);
 2106              		.loc 1 993 3
 2107 0096 7B68     		ldr	r3, [r7, #4]
 2108 0098 1B68     		ldr	r3, [r3]
 2109 009a DA68     		ldr	r2, [r3, #12]
 2110 009c 7B68     		ldr	r3, [r7, #4]
 2111 009e 1B68     		ldr	r3, [r3]
 2112 00a0 42F08002 		orr	r2, r2, #128
 2113 00a4 DA60     		str	r2, [r3, #12]
 994:d:/LiteOS_Lab/drivers/third_party/ST/STM32L4xx_HAL_Driver/Src\stm32l4xx_hal_tim_ex.c **** 
 995:d:/LiteOS_Lab/drivers/third_party/ST/STM32L4xx_HAL_Driver/Src\stm32l4xx_hal_tim_ex.c ****   /* Enable the complementary PWM output  */
 996:d:/LiteOS_Lab/drivers/third_party/ST/STM32L4xx_HAL_Driver/Src\stm32l4xx_hal_tim_ex.c ****   TIM_CCxNChannelCmd(htim->Instance, Channel, TIM_CCxN_ENABLE);
 2114              		.loc 1 996 3
 2115 00a6 7B68     		ldr	r3, [r7, #4]
 2116 00a8 1B68     		ldr	r3, [r3]
 2117 00aa 0422     		movs	r2, #4
 2118 00ac 3968     		ldr	r1, [r7]
 2119 00ae 1846     		mov	r0, r3
ARM GAS  C:\Users\ADMINI~1\AppData\Local\Temp\ccYWIBty.s 			page 55


 2120 00b0 FFF7FEFF 		bl	TIM_CCxNChannelCmd
 997:d:/LiteOS_Lab/drivers/third_party/ST/STM32L4xx_HAL_Driver/Src\stm32l4xx_hal_tim_ex.c **** 
 998:d:/LiteOS_Lab/drivers/third_party/ST/STM32L4xx_HAL_Driver/Src\stm32l4xx_hal_tim_ex.c ****   /* Enable the Main Ouput */
 999:d:/LiteOS_Lab/drivers/third_party/ST/STM32L4xx_HAL_Driver/Src\stm32l4xx_hal_tim_ex.c ****   __HAL_TIM_MOE_ENABLE(htim);
 2121              		.loc 1 999 3
 2122 00b4 7B68     		ldr	r3, [r7, #4]
 2123 00b6 1B68     		ldr	r3, [r3]
 2124 00b8 5A6C     		ldr	r2, [r3, #68]
 2125 00ba 7B68     		ldr	r3, [r7, #4]
 2126 00bc 1B68     		ldr	r3, [r3]
 2127 00be 42F40042 		orr	r2, r2, #32768
 2128 00c2 5A64     		str	r2, [r3, #68]
1000:d:/LiteOS_Lab/drivers/third_party/ST/STM32L4xx_HAL_Driver/Src\stm32l4xx_hal_tim_ex.c **** 
1001:d:/LiteOS_Lab/drivers/third_party/ST/STM32L4xx_HAL_Driver/Src\stm32l4xx_hal_tim_ex.c ****   /* Enable the Peripheral */
1002:d:/LiteOS_Lab/drivers/third_party/ST/STM32L4xx_HAL_Driver/Src\stm32l4xx_hal_tim_ex.c ****   __HAL_TIM_ENABLE(htim);
 2129              		.loc 1 1002 3
 2130 00c4 7B68     		ldr	r3, [r7, #4]
 2131 00c6 1B68     		ldr	r3, [r3]
 2132 00c8 1A68     		ldr	r2, [r3]
 2133 00ca 7B68     		ldr	r3, [r7, #4]
 2134 00cc 1B68     		ldr	r3, [r3]
 2135 00ce 42F00102 		orr	r2, r2, #1
 2136 00d2 1A60     		str	r2, [r3]
1003:d:/LiteOS_Lab/drivers/third_party/ST/STM32L4xx_HAL_Driver/Src\stm32l4xx_hal_tim_ex.c **** 
1004:d:/LiteOS_Lab/drivers/third_party/ST/STM32L4xx_HAL_Driver/Src\stm32l4xx_hal_tim_ex.c ****   /* Return function status */
1005:d:/LiteOS_Lab/drivers/third_party/ST/STM32L4xx_HAL_Driver/Src\stm32l4xx_hal_tim_ex.c ****   return HAL_OK;
 2137              		.loc 1 1005 10
 2138 00d4 0023     		movs	r3, #0
1006:d:/LiteOS_Lab/drivers/third_party/ST/STM32L4xx_HAL_Driver/Src\stm32l4xx_hal_tim_ex.c **** }
 2139              		.loc 1 1006 1
 2140 00d6 1846     		mov	r0, r3
 2141 00d8 0837     		adds	r7, r7, #8
 2142              	.LCFI95:
 2143              		.cfi_def_cfa_offset 8
 2144 00da BD46     		mov	sp, r7
 2145              	.LCFI96:
 2146              		.cfi_def_cfa_register 13
 2147              		@ sp needed
 2148 00dc 80BD     		pop	{r7, pc}
 2149              		.cfi_endproc
 2150              	.LFE305:
 2152 00de 00BF     		.section	.text.HAL_TIMEx_PWMN_Stop_IT,"ax",%progbits
 2153              		.align	1
 2154              		.global	HAL_TIMEx_PWMN_Stop_IT
 2155              		.syntax unified
 2156              		.thumb
 2157              		.thumb_func
 2158              		.fpu fpv4-sp-d16
 2160              	HAL_TIMEx_PWMN_Stop_IT:
 2161              	.LFB306:
1007:d:/LiteOS_Lab/drivers/third_party/ST/STM32L4xx_HAL_Driver/Src\stm32l4xx_hal_tim_ex.c **** 
1008:d:/LiteOS_Lab/drivers/third_party/ST/STM32L4xx_HAL_Driver/Src\stm32l4xx_hal_tim_ex.c **** /**
1009:d:/LiteOS_Lab/drivers/third_party/ST/STM32L4xx_HAL_Driver/Src\stm32l4xx_hal_tim_ex.c ****   * @brief  Stops the PWM signal generation in interrupt mode on the
1010:d:/LiteOS_Lab/drivers/third_party/ST/STM32L4xx_HAL_Driver/Src\stm32l4xx_hal_tim_ex.c ****   *         complementary output.
1011:d:/LiteOS_Lab/drivers/third_party/ST/STM32L4xx_HAL_Driver/Src\stm32l4xx_hal_tim_ex.c ****   * @param  htim TIM handle
1012:d:/LiteOS_Lab/drivers/third_party/ST/STM32L4xx_HAL_Driver/Src\stm32l4xx_hal_tim_ex.c ****   * @param  Channel TIM Channel to be disabled
1013:d:/LiteOS_Lab/drivers/third_party/ST/STM32L4xx_HAL_Driver/Src\stm32l4xx_hal_tim_ex.c ****   *          This parameter can be one of the following values:
ARM GAS  C:\Users\ADMINI~1\AppData\Local\Temp\ccYWIBty.s 			page 56


1014:d:/LiteOS_Lab/drivers/third_party/ST/STM32L4xx_HAL_Driver/Src\stm32l4xx_hal_tim_ex.c ****   *            @arg TIM_CHANNEL_1: TIM Channel 1 selected
1015:d:/LiteOS_Lab/drivers/third_party/ST/STM32L4xx_HAL_Driver/Src\stm32l4xx_hal_tim_ex.c ****   *            @arg TIM_CHANNEL_2: TIM Channel 2 selected
1016:d:/LiteOS_Lab/drivers/third_party/ST/STM32L4xx_HAL_Driver/Src\stm32l4xx_hal_tim_ex.c ****   *            @arg TIM_CHANNEL_3: TIM Channel 3 selected
1017:d:/LiteOS_Lab/drivers/third_party/ST/STM32L4xx_HAL_Driver/Src\stm32l4xx_hal_tim_ex.c ****   * @retval HAL status
1018:d:/LiteOS_Lab/drivers/third_party/ST/STM32L4xx_HAL_Driver/Src\stm32l4xx_hal_tim_ex.c ****   */
1019:d:/LiteOS_Lab/drivers/third_party/ST/STM32L4xx_HAL_Driver/Src\stm32l4xx_hal_tim_ex.c **** HAL_StatusTypeDef HAL_TIMEx_PWMN_Stop_IT (TIM_HandleTypeDef *htim, uint32_t Channel)
1020:d:/LiteOS_Lab/drivers/third_party/ST/STM32L4xx_HAL_Driver/Src\stm32l4xx_hal_tim_ex.c **** {
 2162              		.loc 1 1020 1
 2163              		.cfi_startproc
 2164              		@ args = 0, pretend = 0, frame = 16
 2165              		@ frame_needed = 1, uses_anonymous_args = 0
 2166 0000 80B5     		push	{r7, lr}
 2167              	.LCFI97:
 2168              		.cfi_def_cfa_offset 8
 2169              		.cfi_offset 7, -8
 2170              		.cfi_offset 14, -4
 2171 0002 84B0     		sub	sp, sp, #16
 2172              	.LCFI98:
 2173              		.cfi_def_cfa_offset 24
 2174 0004 00AF     		add	r7, sp, #0
 2175              	.LCFI99:
 2176              		.cfi_def_cfa_register 7
 2177 0006 7860     		str	r0, [r7, #4]
 2178 0008 3960     		str	r1, [r7]
1021:d:/LiteOS_Lab/drivers/third_party/ST/STM32L4xx_HAL_Driver/Src\stm32l4xx_hal_tim_ex.c ****   uint32_t tmpccer = 0;
 2179              		.loc 1 1021 12
 2180 000a 0023     		movs	r3, #0
 2181 000c FB60     		str	r3, [r7, #12]
 2182 000e 3B68     		ldr	r3, [r7]
 2183 0010 0C2B     		cmp	r3, #12
 2184 0012 41D8     		bhi	.L115
 2185 0014 01A2     		adr	r2, .L106
 2186 0016 52F823F0 		ldr	pc, [r2, r3, lsl #2]
 2187 001a 00BF     		.p2align 2
 2188              	.L106:
 2189 001c 51000000 		.word	.L109+1
 2190 0020 99000000 		.word	.L115+1
 2191 0024 99000000 		.word	.L115+1
 2192 0028 99000000 		.word	.L115+1
 2193 002c 63000000 		.word	.L108+1
 2194 0030 99000000 		.word	.L115+1
 2195 0034 99000000 		.word	.L115+1
 2196 0038 99000000 		.word	.L115+1
 2197 003c 75000000 		.word	.L107+1
 2198 0040 99000000 		.word	.L115+1
 2199 0044 99000000 		.word	.L115+1
 2200 0048 99000000 		.word	.L115+1
 2201 004c 87000000 		.word	.L105+1
 2202              		.p2align 1
 2203              	.L109:
1022:d:/LiteOS_Lab/drivers/third_party/ST/STM32L4xx_HAL_Driver/Src\stm32l4xx_hal_tim_ex.c **** 
1023:d:/LiteOS_Lab/drivers/third_party/ST/STM32L4xx_HAL_Driver/Src\stm32l4xx_hal_tim_ex.c ****   /* Check the parameters */
1024:d:/LiteOS_Lab/drivers/third_party/ST/STM32L4xx_HAL_Driver/Src\stm32l4xx_hal_tim_ex.c ****   assert_param(IS_TIM_CCXN_INSTANCE(htim->Instance, Channel));
1025:d:/LiteOS_Lab/drivers/third_party/ST/STM32L4xx_HAL_Driver/Src\stm32l4xx_hal_tim_ex.c **** 
1026:d:/LiteOS_Lab/drivers/third_party/ST/STM32L4xx_HAL_Driver/Src\stm32l4xx_hal_tim_ex.c ****   switch (Channel)
1027:d:/LiteOS_Lab/drivers/third_party/ST/STM32L4xx_HAL_Driver/Src\stm32l4xx_hal_tim_ex.c ****   {
1028:d:/LiteOS_Lab/drivers/third_party/ST/STM32L4xx_HAL_Driver/Src\stm32l4xx_hal_tim_ex.c ****     case TIM_CHANNEL_1:
ARM GAS  C:\Users\ADMINI~1\AppData\Local\Temp\ccYWIBty.s 			page 57


1029:d:/LiteOS_Lab/drivers/third_party/ST/STM32L4xx_HAL_Driver/Src\stm32l4xx_hal_tim_ex.c ****     {
1030:d:/LiteOS_Lab/drivers/third_party/ST/STM32L4xx_HAL_Driver/Src\stm32l4xx_hal_tim_ex.c ****       /* Disable the TIM Capture/Compare 1 interrupt */
1031:d:/LiteOS_Lab/drivers/third_party/ST/STM32L4xx_HAL_Driver/Src\stm32l4xx_hal_tim_ex.c ****       __HAL_TIM_DISABLE_IT(htim, TIM_IT_CC1);
 2204              		.loc 1 1031 7
 2205 0050 7B68     		ldr	r3, [r7, #4]
 2206 0052 1B68     		ldr	r3, [r3]
 2207 0054 DA68     		ldr	r2, [r3, #12]
 2208 0056 7B68     		ldr	r3, [r7, #4]
 2209 0058 1B68     		ldr	r3, [r3]
 2210 005a 22F00202 		bic	r2, r2, #2
 2211 005e DA60     		str	r2, [r3, #12]
1032:d:/LiteOS_Lab/drivers/third_party/ST/STM32L4xx_HAL_Driver/Src\stm32l4xx_hal_tim_ex.c ****     }
1033:d:/LiteOS_Lab/drivers/third_party/ST/STM32L4xx_HAL_Driver/Src\stm32l4xx_hal_tim_ex.c ****     break;
 2212              		.loc 1 1033 5
 2213 0060 1BE0     		b	.L110
 2214              	.L108:
1034:d:/LiteOS_Lab/drivers/third_party/ST/STM32L4xx_HAL_Driver/Src\stm32l4xx_hal_tim_ex.c **** 
1035:d:/LiteOS_Lab/drivers/third_party/ST/STM32L4xx_HAL_Driver/Src\stm32l4xx_hal_tim_ex.c ****     case TIM_CHANNEL_2:
1036:d:/LiteOS_Lab/drivers/third_party/ST/STM32L4xx_HAL_Driver/Src\stm32l4xx_hal_tim_ex.c ****     {
1037:d:/LiteOS_Lab/drivers/third_party/ST/STM32L4xx_HAL_Driver/Src\stm32l4xx_hal_tim_ex.c ****       /* Disable the TIM Capture/Compare 2 interrupt */
1038:d:/LiteOS_Lab/drivers/third_party/ST/STM32L4xx_HAL_Driver/Src\stm32l4xx_hal_tim_ex.c ****       __HAL_TIM_DISABLE_IT(htim, TIM_IT_CC2);
 2215              		.loc 1 1038 7
 2216 0062 7B68     		ldr	r3, [r7, #4]
 2217 0064 1B68     		ldr	r3, [r3]
 2218 0066 DA68     		ldr	r2, [r3, #12]
 2219 0068 7B68     		ldr	r3, [r7, #4]
 2220 006a 1B68     		ldr	r3, [r3]
 2221 006c 22F00402 		bic	r2, r2, #4
 2222 0070 DA60     		str	r2, [r3, #12]
1039:d:/LiteOS_Lab/drivers/third_party/ST/STM32L4xx_HAL_Driver/Src\stm32l4xx_hal_tim_ex.c ****     }
1040:d:/LiteOS_Lab/drivers/third_party/ST/STM32L4xx_HAL_Driver/Src\stm32l4xx_hal_tim_ex.c ****     break;
 2223              		.loc 1 1040 5
 2224 0072 12E0     		b	.L110
 2225              	.L107:
1041:d:/LiteOS_Lab/drivers/third_party/ST/STM32L4xx_HAL_Driver/Src\stm32l4xx_hal_tim_ex.c **** 
1042:d:/LiteOS_Lab/drivers/third_party/ST/STM32L4xx_HAL_Driver/Src\stm32l4xx_hal_tim_ex.c ****     case TIM_CHANNEL_3:
1043:d:/LiteOS_Lab/drivers/third_party/ST/STM32L4xx_HAL_Driver/Src\stm32l4xx_hal_tim_ex.c ****     {
1044:d:/LiteOS_Lab/drivers/third_party/ST/STM32L4xx_HAL_Driver/Src\stm32l4xx_hal_tim_ex.c ****       /* Disable the TIM Capture/Compare 3 interrupt */
1045:d:/LiteOS_Lab/drivers/third_party/ST/STM32L4xx_HAL_Driver/Src\stm32l4xx_hal_tim_ex.c ****       __HAL_TIM_DISABLE_IT(htim, TIM_IT_CC3);
 2226              		.loc 1 1045 7
 2227 0074 7B68     		ldr	r3, [r7, #4]
 2228 0076 1B68     		ldr	r3, [r3]
 2229 0078 DA68     		ldr	r2, [r3, #12]
 2230 007a 7B68     		ldr	r3, [r7, #4]
 2231 007c 1B68     		ldr	r3, [r3]
 2232 007e 22F00802 		bic	r2, r2, #8
 2233 0082 DA60     		str	r2, [r3, #12]
1046:d:/LiteOS_Lab/drivers/third_party/ST/STM32L4xx_HAL_Driver/Src\stm32l4xx_hal_tim_ex.c ****     }
1047:d:/LiteOS_Lab/drivers/third_party/ST/STM32L4xx_HAL_Driver/Src\stm32l4xx_hal_tim_ex.c ****     break;
 2234              		.loc 1 1047 5
 2235 0084 09E0     		b	.L110
 2236              	.L105:
1048:d:/LiteOS_Lab/drivers/third_party/ST/STM32L4xx_HAL_Driver/Src\stm32l4xx_hal_tim_ex.c **** 
1049:d:/LiteOS_Lab/drivers/third_party/ST/STM32L4xx_HAL_Driver/Src\stm32l4xx_hal_tim_ex.c ****     case TIM_CHANNEL_4:
1050:d:/LiteOS_Lab/drivers/third_party/ST/STM32L4xx_HAL_Driver/Src\stm32l4xx_hal_tim_ex.c ****     {
1051:d:/LiteOS_Lab/drivers/third_party/ST/STM32L4xx_HAL_Driver/Src\stm32l4xx_hal_tim_ex.c ****       /* Disable the TIM Capture/Compare 3 interrupt */
1052:d:/LiteOS_Lab/drivers/third_party/ST/STM32L4xx_HAL_Driver/Src\stm32l4xx_hal_tim_ex.c ****       __HAL_TIM_DISABLE_IT(htim, TIM_IT_CC4);
ARM GAS  C:\Users\ADMINI~1\AppData\Local\Temp\ccYWIBty.s 			page 58


 2237              		.loc 1 1052 7
 2238 0086 7B68     		ldr	r3, [r7, #4]
 2239 0088 1B68     		ldr	r3, [r3]
 2240 008a DA68     		ldr	r2, [r3, #12]
 2241 008c 7B68     		ldr	r3, [r7, #4]
 2242 008e 1B68     		ldr	r3, [r3]
 2243 0090 22F01002 		bic	r2, r2, #16
 2244 0094 DA60     		str	r2, [r3, #12]
1053:d:/LiteOS_Lab/drivers/third_party/ST/STM32L4xx_HAL_Driver/Src\stm32l4xx_hal_tim_ex.c ****     }
1054:d:/LiteOS_Lab/drivers/third_party/ST/STM32L4xx_HAL_Driver/Src\stm32l4xx_hal_tim_ex.c ****     break;
 2245              		.loc 1 1054 5
 2246 0096 00E0     		b	.L110
 2247              	.L115:
1055:d:/LiteOS_Lab/drivers/third_party/ST/STM32L4xx_HAL_Driver/Src\stm32l4xx_hal_tim_ex.c **** 
1056:d:/LiteOS_Lab/drivers/third_party/ST/STM32L4xx_HAL_Driver/Src\stm32l4xx_hal_tim_ex.c ****     default:
1057:d:/LiteOS_Lab/drivers/third_party/ST/STM32L4xx_HAL_Driver/Src\stm32l4xx_hal_tim_ex.c ****     break;
 2248              		.loc 1 1057 5
 2249 0098 00BF     		nop
 2250              	.L110:
1058:d:/LiteOS_Lab/drivers/third_party/ST/STM32L4xx_HAL_Driver/Src\stm32l4xx_hal_tim_ex.c ****   }
1059:d:/LiteOS_Lab/drivers/third_party/ST/STM32L4xx_HAL_Driver/Src\stm32l4xx_hal_tim_ex.c **** 
1060:d:/LiteOS_Lab/drivers/third_party/ST/STM32L4xx_HAL_Driver/Src\stm32l4xx_hal_tim_ex.c ****   /* Disable the complementary PWM output  */
1061:d:/LiteOS_Lab/drivers/third_party/ST/STM32L4xx_HAL_Driver/Src\stm32l4xx_hal_tim_ex.c ****   TIM_CCxNChannelCmd(htim->Instance, Channel, TIM_CCxN_DISABLE);
 2251              		.loc 1 1061 3
 2252 009a 7B68     		ldr	r3, [r7, #4]
 2253 009c 1B68     		ldr	r3, [r3]
 2254 009e 0022     		movs	r2, #0
 2255 00a0 3968     		ldr	r1, [r7]
 2256 00a2 1846     		mov	r0, r3
 2257 00a4 FFF7FEFF 		bl	TIM_CCxNChannelCmd
1062:d:/LiteOS_Lab/drivers/third_party/ST/STM32L4xx_HAL_Driver/Src\stm32l4xx_hal_tim_ex.c **** 
1063:d:/LiteOS_Lab/drivers/third_party/ST/STM32L4xx_HAL_Driver/Src\stm32l4xx_hal_tim_ex.c **** 
1064:d:/LiteOS_Lab/drivers/third_party/ST/STM32L4xx_HAL_Driver/Src\stm32l4xx_hal_tim_ex.c ****   /* Disable the TIM Break interrupt (only if no more channel is active) */
1065:d:/LiteOS_Lab/drivers/third_party/ST/STM32L4xx_HAL_Driver/Src\stm32l4xx_hal_tim_ex.c ****   tmpccer = htim->Instance->CCER;
 2258              		.loc 1 1065 17
 2259 00a8 7B68     		ldr	r3, [r7, #4]
 2260 00aa 1B68     		ldr	r3, [r3]
 2261              		.loc 1 1065 11
 2262 00ac 1B6A     		ldr	r3, [r3, #32]
 2263 00ae FB60     		str	r3, [r7, #12]
1066:d:/LiteOS_Lab/drivers/third_party/ST/STM32L4xx_HAL_Driver/Src\stm32l4xx_hal_tim_ex.c ****   if ((tmpccer & (TIM_CCER_CC1NE | TIM_CCER_CC2NE | TIM_CCER_CC3NE)) == RESET)
 2264              		.loc 1 1066 16
 2265 00b0 FA68     		ldr	r2, [r7, #12]
 2266 00b2 40F24443 		movw	r3, #1092
 2267 00b6 1340     		ands	r3, r3, r2
 2268              		.loc 1 1066 6
 2269 00b8 002B     		cmp	r3, #0
 2270 00ba 07D1     		bne	.L111
1067:d:/LiteOS_Lab/drivers/third_party/ST/STM32L4xx_HAL_Driver/Src\stm32l4xx_hal_tim_ex.c ****   {
1068:d:/LiteOS_Lab/drivers/third_party/ST/STM32L4xx_HAL_Driver/Src\stm32l4xx_hal_tim_ex.c ****     __HAL_TIM_DISABLE_IT(htim, TIM_IT_BREAK);
 2271              		.loc 1 1068 5
 2272 00bc 7B68     		ldr	r3, [r7, #4]
 2273 00be 1B68     		ldr	r3, [r3]
 2274 00c0 DA68     		ldr	r2, [r3, #12]
 2275 00c2 7B68     		ldr	r3, [r7, #4]
 2276 00c4 1B68     		ldr	r3, [r3]
 2277 00c6 22F08002 		bic	r2, r2, #128
ARM GAS  C:\Users\ADMINI~1\AppData\Local\Temp\ccYWIBty.s 			page 59


 2278 00ca DA60     		str	r2, [r3, #12]
 2279              	.L111:
1069:d:/LiteOS_Lab/drivers/third_party/ST/STM32L4xx_HAL_Driver/Src\stm32l4xx_hal_tim_ex.c ****   }
1070:d:/LiteOS_Lab/drivers/third_party/ST/STM32L4xx_HAL_Driver/Src\stm32l4xx_hal_tim_ex.c **** 
1071:d:/LiteOS_Lab/drivers/third_party/ST/STM32L4xx_HAL_Driver/Src\stm32l4xx_hal_tim_ex.c ****   /* Disable the Main Ouput */
1072:d:/LiteOS_Lab/drivers/third_party/ST/STM32L4xx_HAL_Driver/Src\stm32l4xx_hal_tim_ex.c ****   __HAL_TIM_MOE_DISABLE(htim);
 2280              		.loc 1 1072 3
 2281 00cc 7B68     		ldr	r3, [r7, #4]
 2282 00ce 1B68     		ldr	r3, [r3]
 2283 00d0 1A6A     		ldr	r2, [r3, #32]
 2284 00d2 41F21113 		movw	r3, #4369
 2285 00d6 1340     		ands	r3, r3, r2
 2286 00d8 002B     		cmp	r3, #0
 2287 00da 0FD1     		bne	.L112
 2288              		.loc 1 1072 3 is_stmt 0 discriminator 1
 2289 00dc 7B68     		ldr	r3, [r7, #4]
 2290 00de 1B68     		ldr	r3, [r3]
 2291 00e0 1A6A     		ldr	r2, [r3, #32]
 2292 00e2 40F24443 		movw	r3, #1092
 2293 00e6 1340     		ands	r3, r3, r2
 2294 00e8 002B     		cmp	r3, #0
 2295 00ea 07D1     		bne	.L112
 2296              		.loc 1 1072 3 discriminator 2
 2297 00ec 7B68     		ldr	r3, [r7, #4]
 2298 00ee 1B68     		ldr	r3, [r3]
 2299 00f0 5A6C     		ldr	r2, [r3, #68]
 2300 00f2 7B68     		ldr	r3, [r7, #4]
 2301 00f4 1B68     		ldr	r3, [r3]
 2302 00f6 22F40042 		bic	r2, r2, #32768
 2303 00fa 5A64     		str	r2, [r3, #68]
 2304              	.L112:
1073:d:/LiteOS_Lab/drivers/third_party/ST/STM32L4xx_HAL_Driver/Src\stm32l4xx_hal_tim_ex.c **** 
1074:d:/LiteOS_Lab/drivers/third_party/ST/STM32L4xx_HAL_Driver/Src\stm32l4xx_hal_tim_ex.c ****   /* Disable the Peripheral */
1075:d:/LiteOS_Lab/drivers/third_party/ST/STM32L4xx_HAL_Driver/Src\stm32l4xx_hal_tim_ex.c ****   __HAL_TIM_DISABLE(htim);
 2305              		.loc 1 1075 3 is_stmt 1
 2306 00fc 7B68     		ldr	r3, [r7, #4]
 2307 00fe 1B68     		ldr	r3, [r3]
 2308 0100 1A6A     		ldr	r2, [r3, #32]
 2309 0102 41F21113 		movw	r3, #4369
 2310 0106 1340     		ands	r3, r3, r2
 2311 0108 002B     		cmp	r3, #0
 2312 010a 0FD1     		bne	.L113
 2313              		.loc 1 1075 3 is_stmt 0 discriminator 1
 2314 010c 7B68     		ldr	r3, [r7, #4]
 2315 010e 1B68     		ldr	r3, [r3]
 2316 0110 1A6A     		ldr	r2, [r3, #32]
 2317 0112 40F24443 		movw	r3, #1092
 2318 0116 1340     		ands	r3, r3, r2
 2319 0118 002B     		cmp	r3, #0
 2320 011a 07D1     		bne	.L113
 2321              		.loc 1 1075 3 discriminator 2
 2322 011c 7B68     		ldr	r3, [r7, #4]
 2323 011e 1B68     		ldr	r3, [r3]
 2324 0120 1A68     		ldr	r2, [r3]
 2325 0122 7B68     		ldr	r3, [r7, #4]
 2326 0124 1B68     		ldr	r3, [r3]
 2327 0126 22F00102 		bic	r2, r2, #1
ARM GAS  C:\Users\ADMINI~1\AppData\Local\Temp\ccYWIBty.s 			page 60


 2328 012a 1A60     		str	r2, [r3]
 2329              	.L113:
1076:d:/LiteOS_Lab/drivers/third_party/ST/STM32L4xx_HAL_Driver/Src\stm32l4xx_hal_tim_ex.c **** 
1077:d:/LiteOS_Lab/drivers/third_party/ST/STM32L4xx_HAL_Driver/Src\stm32l4xx_hal_tim_ex.c ****   /* Return function status */
1078:d:/LiteOS_Lab/drivers/third_party/ST/STM32L4xx_HAL_Driver/Src\stm32l4xx_hal_tim_ex.c ****   return HAL_OK;
 2330              		.loc 1 1078 10 is_stmt 1
 2331 012c 0023     		movs	r3, #0
1079:d:/LiteOS_Lab/drivers/third_party/ST/STM32L4xx_HAL_Driver/Src\stm32l4xx_hal_tim_ex.c **** }
 2332              		.loc 1 1079 1
 2333 012e 1846     		mov	r0, r3
 2334 0130 1037     		adds	r7, r7, #16
 2335              	.LCFI100:
 2336              		.cfi_def_cfa_offset 8
 2337 0132 BD46     		mov	sp, r7
 2338              	.LCFI101:
 2339              		.cfi_def_cfa_register 13
 2340              		@ sp needed
 2341 0134 80BD     		pop	{r7, pc}
 2342              		.cfi_endproc
 2343              	.LFE306:
 2345 0136 00BF     		.section	.text.HAL_TIMEx_PWMN_Start_DMA,"ax",%progbits
 2346              		.align	1
 2347              		.global	HAL_TIMEx_PWMN_Start_DMA
 2348              		.syntax unified
 2349              		.thumb
 2350              		.thumb_func
 2351              		.fpu fpv4-sp-d16
 2353              	HAL_TIMEx_PWMN_Start_DMA:
 2354              	.LFB307:
1080:d:/LiteOS_Lab/drivers/third_party/ST/STM32L4xx_HAL_Driver/Src\stm32l4xx_hal_tim_ex.c **** 
1081:d:/LiteOS_Lab/drivers/third_party/ST/STM32L4xx_HAL_Driver/Src\stm32l4xx_hal_tim_ex.c **** /**
1082:d:/LiteOS_Lab/drivers/third_party/ST/STM32L4xx_HAL_Driver/Src\stm32l4xx_hal_tim_ex.c ****   * @brief  Starts the TIM PWM signal generation in DMA mode on the
1083:d:/LiteOS_Lab/drivers/third_party/ST/STM32L4xx_HAL_Driver/Src\stm32l4xx_hal_tim_ex.c ****   *         complementary output
1084:d:/LiteOS_Lab/drivers/third_party/ST/STM32L4xx_HAL_Driver/Src\stm32l4xx_hal_tim_ex.c ****   * @param  htim TIM handle
1085:d:/LiteOS_Lab/drivers/third_party/ST/STM32L4xx_HAL_Driver/Src\stm32l4xx_hal_tim_ex.c ****   * @param  Channel TIM Channel to be enabled
1086:d:/LiteOS_Lab/drivers/third_party/ST/STM32L4xx_HAL_Driver/Src\stm32l4xx_hal_tim_ex.c ****   *          This parameter can be one of the following values:
1087:d:/LiteOS_Lab/drivers/third_party/ST/STM32L4xx_HAL_Driver/Src\stm32l4xx_hal_tim_ex.c ****   *            @arg TIM_CHANNEL_1: TIM Channel 1 selected
1088:d:/LiteOS_Lab/drivers/third_party/ST/STM32L4xx_HAL_Driver/Src\stm32l4xx_hal_tim_ex.c ****   *            @arg TIM_CHANNEL_2: TIM Channel 2 selected
1089:d:/LiteOS_Lab/drivers/third_party/ST/STM32L4xx_HAL_Driver/Src\stm32l4xx_hal_tim_ex.c ****   *            @arg TIM_CHANNEL_3: TIM Channel 3 selected
1090:d:/LiteOS_Lab/drivers/third_party/ST/STM32L4xx_HAL_Driver/Src\stm32l4xx_hal_tim_ex.c ****   * @param  pData The source Buffer address.
1091:d:/LiteOS_Lab/drivers/third_party/ST/STM32L4xx_HAL_Driver/Src\stm32l4xx_hal_tim_ex.c ****   * @param  Length The length of data to be transferred from memory to TIM peripheral
1092:d:/LiteOS_Lab/drivers/third_party/ST/STM32L4xx_HAL_Driver/Src\stm32l4xx_hal_tim_ex.c ****   * @retval HAL status
1093:d:/LiteOS_Lab/drivers/third_party/ST/STM32L4xx_HAL_Driver/Src\stm32l4xx_hal_tim_ex.c ****   */
1094:d:/LiteOS_Lab/drivers/third_party/ST/STM32L4xx_HAL_Driver/Src\stm32l4xx_hal_tim_ex.c **** HAL_StatusTypeDef HAL_TIMEx_PWMN_Start_DMA(TIM_HandleTypeDef *htim, uint32_t Channel, uint32_t *pDa
1095:d:/LiteOS_Lab/drivers/third_party/ST/STM32L4xx_HAL_Driver/Src\stm32l4xx_hal_tim_ex.c **** {
 2355              		.loc 1 1095 1
 2356              		.cfi_startproc
 2357              		@ args = 0, pretend = 0, frame = 16
 2358              		@ frame_needed = 1, uses_anonymous_args = 0
 2359 0000 80B5     		push	{r7, lr}
 2360              	.LCFI102:
 2361              		.cfi_def_cfa_offset 8
 2362              		.cfi_offset 7, -8
 2363              		.cfi_offset 14, -4
 2364 0002 84B0     		sub	sp, sp, #16
 2365              	.LCFI103:
 2366              		.cfi_def_cfa_offset 24
ARM GAS  C:\Users\ADMINI~1\AppData\Local\Temp\ccYWIBty.s 			page 61


 2367 0004 00AF     		add	r7, sp, #0
 2368              	.LCFI104:
 2369              		.cfi_def_cfa_register 7
 2370 0006 F860     		str	r0, [r7, #12]
 2371 0008 B960     		str	r1, [r7, #8]
 2372 000a 7A60     		str	r2, [r7, #4]
 2373 000c 7B80     		strh	r3, [r7, #2]	@ movhi
1096:d:/LiteOS_Lab/drivers/third_party/ST/STM32L4xx_HAL_Driver/Src\stm32l4xx_hal_tim_ex.c ****   /* Check the parameters */
1097:d:/LiteOS_Lab/drivers/third_party/ST/STM32L4xx_HAL_Driver/Src\stm32l4xx_hal_tim_ex.c ****   assert_param(IS_TIM_CCXN_INSTANCE(htim->Instance, Channel));
1098:d:/LiteOS_Lab/drivers/third_party/ST/STM32L4xx_HAL_Driver/Src\stm32l4xx_hal_tim_ex.c **** 
1099:d:/LiteOS_Lab/drivers/third_party/ST/STM32L4xx_HAL_Driver/Src\stm32l4xx_hal_tim_ex.c ****   if((htim->State == HAL_TIM_STATE_BUSY))
 2374              		.loc 1 1099 11
 2375 000e FB68     		ldr	r3, [r7, #12]
 2376 0010 93F83D30 		ldrb	r3, [r3, #61]
 2377 0014 DBB2     		uxtb	r3, r3
 2378              		.loc 1 1099 5
 2379 0016 022B     		cmp	r3, #2
 2380 0018 01D1     		bne	.L117
1100:d:/LiteOS_Lab/drivers/third_party/ST/STM32L4xx_HAL_Driver/Src\stm32l4xx_hal_tim_ex.c ****   {
1101:d:/LiteOS_Lab/drivers/third_party/ST/STM32L4xx_HAL_Driver/Src\stm32l4xx_hal_tim_ex.c ****      return HAL_BUSY;
 2381              		.loc 1 1101 13
 2382 001a 0223     		movs	r3, #2
 2383 001c B7E0     		b	.L118
 2384              	.L117:
1102:d:/LiteOS_Lab/drivers/third_party/ST/STM32L4xx_HAL_Driver/Src\stm32l4xx_hal_tim_ex.c ****   }
1103:d:/LiteOS_Lab/drivers/third_party/ST/STM32L4xx_HAL_Driver/Src\stm32l4xx_hal_tim_ex.c ****   else if((htim->State == HAL_TIM_STATE_READY))
 2385              		.loc 1 1103 16
 2386 001e FB68     		ldr	r3, [r7, #12]
 2387 0020 93F83D30 		ldrb	r3, [r3, #61]
 2388 0024 DBB2     		uxtb	r3, r3
 2389              		.loc 1 1103 10
 2390 0026 012B     		cmp	r3, #1
 2391 0028 0BD1     		bne	.L119
1104:d:/LiteOS_Lab/drivers/third_party/ST/STM32L4xx_HAL_Driver/Src\stm32l4xx_hal_tim_ex.c ****   {
1105:d:/LiteOS_Lab/drivers/third_party/ST/STM32L4xx_HAL_Driver/Src\stm32l4xx_hal_tim_ex.c ****     if(((uint32_t)pData == 0 ) && (Length > 0))
 2392              		.loc 1 1105 7
 2393 002a 7B68     		ldr	r3, [r7, #4]
 2394 002c 002B     		cmp	r3, #0
 2395 002e 04D1     		bne	.L120
 2396              		.loc 1 1105 32 discriminator 1
 2397 0030 7B88     		ldrh	r3, [r7, #2]
 2398 0032 002B     		cmp	r3, #0
 2399 0034 01D0     		beq	.L120
1106:d:/LiteOS_Lab/drivers/third_party/ST/STM32L4xx_HAL_Driver/Src\stm32l4xx_hal_tim_ex.c ****     {
1107:d:/LiteOS_Lab/drivers/third_party/ST/STM32L4xx_HAL_Driver/Src\stm32l4xx_hal_tim_ex.c ****       return HAL_ERROR;
 2400              		.loc 1 1107 14
 2401 0036 0123     		movs	r3, #1
 2402 0038 A9E0     		b	.L118
 2403              	.L120:
1108:d:/LiteOS_Lab/drivers/third_party/ST/STM32L4xx_HAL_Driver/Src\stm32l4xx_hal_tim_ex.c ****     }
1109:d:/LiteOS_Lab/drivers/third_party/ST/STM32L4xx_HAL_Driver/Src\stm32l4xx_hal_tim_ex.c ****     else
1110:d:/LiteOS_Lab/drivers/third_party/ST/STM32L4xx_HAL_Driver/Src\stm32l4xx_hal_tim_ex.c ****     {
1111:d:/LiteOS_Lab/drivers/third_party/ST/STM32L4xx_HAL_Driver/Src\stm32l4xx_hal_tim_ex.c ****       htim->State = HAL_TIM_STATE_BUSY;
 2404              		.loc 1 1111 19
 2405 003a FB68     		ldr	r3, [r7, #12]
 2406 003c 0222     		movs	r2, #2
 2407 003e 83F83D20 		strb	r2, [r3, #61]
ARM GAS  C:\Users\ADMINI~1\AppData\Local\Temp\ccYWIBty.s 			page 62


 2408              	.L119:
 2409 0042 BB68     		ldr	r3, [r7, #8]
 2410 0044 0C2B     		cmp	r3, #12
 2411 0046 00F28980 		bhi	.L128
 2412 004a 01A2     		adr	r2, .L123
 2413 004c 52F823F0 		ldr	pc, [r2, r3, lsl #2]
 2414              		.p2align 2
 2415              	.L123:
 2416 0050 85000000 		.word	.L126+1
 2417 0054 5D010000 		.word	.L128+1
 2418 0058 5D010000 		.word	.L128+1
 2419 005c 5D010000 		.word	.L128+1
 2420 0060 BB000000 		.word	.L125+1
 2421 0064 5D010000 		.word	.L128+1
 2422 0068 5D010000 		.word	.L128+1
 2423 006c 5D010000 		.word	.L128+1
 2424 0070 F1000000 		.word	.L124+1
 2425 0074 5D010000 		.word	.L128+1
 2426 0078 5D010000 		.word	.L128+1
 2427 007c 5D010000 		.word	.L128+1
 2428 0080 27010000 		.word	.L122+1
 2429              		.p2align 1
 2430              	.L126:
1112:d:/LiteOS_Lab/drivers/third_party/ST/STM32L4xx_HAL_Driver/Src\stm32l4xx_hal_tim_ex.c ****     }
1113:d:/LiteOS_Lab/drivers/third_party/ST/STM32L4xx_HAL_Driver/Src\stm32l4xx_hal_tim_ex.c ****   }
1114:d:/LiteOS_Lab/drivers/third_party/ST/STM32L4xx_HAL_Driver/Src\stm32l4xx_hal_tim_ex.c ****   switch (Channel)
1115:d:/LiteOS_Lab/drivers/third_party/ST/STM32L4xx_HAL_Driver/Src\stm32l4xx_hal_tim_ex.c ****   {
1116:d:/LiteOS_Lab/drivers/third_party/ST/STM32L4xx_HAL_Driver/Src\stm32l4xx_hal_tim_ex.c ****     case TIM_CHANNEL_1:
1117:d:/LiteOS_Lab/drivers/third_party/ST/STM32L4xx_HAL_Driver/Src\stm32l4xx_hal_tim_ex.c ****     {
1118:d:/LiteOS_Lab/drivers/third_party/ST/STM32L4xx_HAL_Driver/Src\stm32l4xx_hal_tim_ex.c ****       /* Set the DMA Period elapsed callback */
1119:d:/LiteOS_Lab/drivers/third_party/ST/STM32L4xx_HAL_Driver/Src\stm32l4xx_hal_tim_ex.c ****       htim->hdma[TIM_DMA_ID_CC1]->XferCpltCallback = TIM_DMADelayPulseCplt;
 2431              		.loc 1 1119 17
 2432 0084 FB68     		ldr	r3, [r7, #12]
 2433 0086 5B6A     		ldr	r3, [r3, #36]
 2434              		.loc 1 1119 52
 2435 0088 434A     		ldr	r2, .L129
 2436 008a DA62     		str	r2, [r3, #44]
1120:d:/LiteOS_Lab/drivers/third_party/ST/STM32L4xx_HAL_Driver/Src\stm32l4xx_hal_tim_ex.c **** 
1121:d:/LiteOS_Lab/drivers/third_party/ST/STM32L4xx_HAL_Driver/Src\stm32l4xx_hal_tim_ex.c ****       /* Set the DMA error callback */
1122:d:/LiteOS_Lab/drivers/third_party/ST/STM32L4xx_HAL_Driver/Src\stm32l4xx_hal_tim_ex.c ****       htim->hdma[TIM_DMA_ID_CC1]->XferErrorCallback = TIM_DMAError ;
 2437              		.loc 1 1122 17
 2438 008c FB68     		ldr	r3, [r7, #12]
 2439 008e 5B6A     		ldr	r3, [r3, #36]
 2440              		.loc 1 1122 53
 2441 0090 424A     		ldr	r2, .L129+4
 2442 0092 5A63     		str	r2, [r3, #52]
1123:d:/LiteOS_Lab/drivers/third_party/ST/STM32L4xx_HAL_Driver/Src\stm32l4xx_hal_tim_ex.c **** 
1124:d:/LiteOS_Lab/drivers/third_party/ST/STM32L4xx_HAL_Driver/Src\stm32l4xx_hal_tim_ex.c ****       /* Enable the DMA channel */
1125:d:/LiteOS_Lab/drivers/third_party/ST/STM32L4xx_HAL_Driver/Src\stm32l4xx_hal_tim_ex.c ****       HAL_DMA_Start_IT(htim->hdma[TIM_DMA_ID_CC1], (uint32_t)pData, (uint32_t)&htim->Instance->CCR1
 2443              		.loc 1 1125 7
 2444 0094 FB68     		ldr	r3, [r7, #12]
 2445 0096 586A     		ldr	r0, [r3, #36]
 2446 0098 7968     		ldr	r1, [r7, #4]
 2447              		.loc 1 1125 84
 2448 009a FB68     		ldr	r3, [r7, #12]
 2449 009c 1B68     		ldr	r3, [r3]
 2450              		.loc 1 1125 79
ARM GAS  C:\Users\ADMINI~1\AppData\Local\Temp\ccYWIBty.s 			page 63


 2451 009e 3433     		adds	r3, r3, #52
 2452              		.loc 1 1125 7
 2453 00a0 1A46     		mov	r2, r3
 2454 00a2 7B88     		ldrh	r3, [r7, #2]
 2455 00a4 FFF7FEFF 		bl	HAL_DMA_Start_IT
1126:d:/LiteOS_Lab/drivers/third_party/ST/STM32L4xx_HAL_Driver/Src\stm32l4xx_hal_tim_ex.c **** 
1127:d:/LiteOS_Lab/drivers/third_party/ST/STM32L4xx_HAL_Driver/Src\stm32l4xx_hal_tim_ex.c ****       /* Enable the TIM Capture/Compare 1 DMA request */
1128:d:/LiteOS_Lab/drivers/third_party/ST/STM32L4xx_HAL_Driver/Src\stm32l4xx_hal_tim_ex.c ****       __HAL_TIM_ENABLE_DMA(htim, TIM_DMA_CC1);
 2456              		.loc 1 1128 7
 2457 00a8 FB68     		ldr	r3, [r7, #12]
 2458 00aa 1B68     		ldr	r3, [r3]
 2459 00ac DA68     		ldr	r2, [r3, #12]
 2460 00ae FB68     		ldr	r3, [r7, #12]
 2461 00b0 1B68     		ldr	r3, [r3]
 2462 00b2 42F40072 		orr	r2, r2, #512
 2463 00b6 DA60     		str	r2, [r3, #12]
1129:d:/LiteOS_Lab/drivers/third_party/ST/STM32L4xx_HAL_Driver/Src\stm32l4xx_hal_tim_ex.c ****     }
1130:d:/LiteOS_Lab/drivers/third_party/ST/STM32L4xx_HAL_Driver/Src\stm32l4xx_hal_tim_ex.c ****     break;
 2464              		.loc 1 1130 5
 2465 00b8 51E0     		b	.L127
 2466              	.L125:
1131:d:/LiteOS_Lab/drivers/third_party/ST/STM32L4xx_HAL_Driver/Src\stm32l4xx_hal_tim_ex.c **** 
1132:d:/LiteOS_Lab/drivers/third_party/ST/STM32L4xx_HAL_Driver/Src\stm32l4xx_hal_tim_ex.c ****     case TIM_CHANNEL_2:
1133:d:/LiteOS_Lab/drivers/third_party/ST/STM32L4xx_HAL_Driver/Src\stm32l4xx_hal_tim_ex.c ****     {
1134:d:/LiteOS_Lab/drivers/third_party/ST/STM32L4xx_HAL_Driver/Src\stm32l4xx_hal_tim_ex.c ****       /* Set the DMA Period elapsed callback */
1135:d:/LiteOS_Lab/drivers/third_party/ST/STM32L4xx_HAL_Driver/Src\stm32l4xx_hal_tim_ex.c ****       htim->hdma[TIM_DMA_ID_CC2]->XferCpltCallback = TIM_DMADelayPulseCplt;
 2467              		.loc 1 1135 17
 2468 00ba FB68     		ldr	r3, [r7, #12]
 2469 00bc 9B6A     		ldr	r3, [r3, #40]
 2470              		.loc 1 1135 52
 2471 00be 364A     		ldr	r2, .L129
 2472 00c0 DA62     		str	r2, [r3, #44]
1136:d:/LiteOS_Lab/drivers/third_party/ST/STM32L4xx_HAL_Driver/Src\stm32l4xx_hal_tim_ex.c **** 
1137:d:/LiteOS_Lab/drivers/third_party/ST/STM32L4xx_HAL_Driver/Src\stm32l4xx_hal_tim_ex.c ****       /* Set the DMA error callback */
1138:d:/LiteOS_Lab/drivers/third_party/ST/STM32L4xx_HAL_Driver/Src\stm32l4xx_hal_tim_ex.c ****       htim->hdma[TIM_DMA_ID_CC2]->XferErrorCallback = TIM_DMAError ;
 2473              		.loc 1 1138 17
 2474 00c2 FB68     		ldr	r3, [r7, #12]
 2475 00c4 9B6A     		ldr	r3, [r3, #40]
 2476              		.loc 1 1138 53
 2477 00c6 354A     		ldr	r2, .L129+4
 2478 00c8 5A63     		str	r2, [r3, #52]
1139:d:/LiteOS_Lab/drivers/third_party/ST/STM32L4xx_HAL_Driver/Src\stm32l4xx_hal_tim_ex.c **** 
1140:d:/LiteOS_Lab/drivers/third_party/ST/STM32L4xx_HAL_Driver/Src\stm32l4xx_hal_tim_ex.c ****       /* Enable the DMA channel */
1141:d:/LiteOS_Lab/drivers/third_party/ST/STM32L4xx_HAL_Driver/Src\stm32l4xx_hal_tim_ex.c ****       HAL_DMA_Start_IT(htim->hdma[TIM_DMA_ID_CC2], (uint32_t)pData, (uint32_t)&htim->Instance->CCR2
 2479              		.loc 1 1141 7
 2480 00ca FB68     		ldr	r3, [r7, #12]
 2481 00cc 986A     		ldr	r0, [r3, #40]
 2482 00ce 7968     		ldr	r1, [r7, #4]
 2483              		.loc 1 1141 84
 2484 00d0 FB68     		ldr	r3, [r7, #12]
 2485 00d2 1B68     		ldr	r3, [r3]
 2486              		.loc 1 1141 79
 2487 00d4 3833     		adds	r3, r3, #56
 2488              		.loc 1 1141 7
 2489 00d6 1A46     		mov	r2, r3
 2490 00d8 7B88     		ldrh	r3, [r7, #2]
 2491 00da FFF7FEFF 		bl	HAL_DMA_Start_IT
ARM GAS  C:\Users\ADMINI~1\AppData\Local\Temp\ccYWIBty.s 			page 64


1142:d:/LiteOS_Lab/drivers/third_party/ST/STM32L4xx_HAL_Driver/Src\stm32l4xx_hal_tim_ex.c **** 
1143:d:/LiteOS_Lab/drivers/third_party/ST/STM32L4xx_HAL_Driver/Src\stm32l4xx_hal_tim_ex.c ****       /* Enable the TIM Capture/Compare 2 DMA request */
1144:d:/LiteOS_Lab/drivers/third_party/ST/STM32L4xx_HAL_Driver/Src\stm32l4xx_hal_tim_ex.c ****       __HAL_TIM_ENABLE_DMA(htim, TIM_DMA_CC2);
 2492              		.loc 1 1144 7
 2493 00de FB68     		ldr	r3, [r7, #12]
 2494 00e0 1B68     		ldr	r3, [r3]
 2495 00e2 DA68     		ldr	r2, [r3, #12]
 2496 00e4 FB68     		ldr	r3, [r7, #12]
 2497 00e6 1B68     		ldr	r3, [r3]
 2498 00e8 42F48062 		orr	r2, r2, #1024
 2499 00ec DA60     		str	r2, [r3, #12]
1145:d:/LiteOS_Lab/drivers/third_party/ST/STM32L4xx_HAL_Driver/Src\stm32l4xx_hal_tim_ex.c ****     }
1146:d:/LiteOS_Lab/drivers/third_party/ST/STM32L4xx_HAL_Driver/Src\stm32l4xx_hal_tim_ex.c ****     break;
 2500              		.loc 1 1146 5
 2501 00ee 36E0     		b	.L127
 2502              	.L124:
1147:d:/LiteOS_Lab/drivers/third_party/ST/STM32L4xx_HAL_Driver/Src\stm32l4xx_hal_tim_ex.c **** 
1148:d:/LiteOS_Lab/drivers/third_party/ST/STM32L4xx_HAL_Driver/Src\stm32l4xx_hal_tim_ex.c ****     case TIM_CHANNEL_3:
1149:d:/LiteOS_Lab/drivers/third_party/ST/STM32L4xx_HAL_Driver/Src\stm32l4xx_hal_tim_ex.c ****     {
1150:d:/LiteOS_Lab/drivers/third_party/ST/STM32L4xx_HAL_Driver/Src\stm32l4xx_hal_tim_ex.c ****       /* Set the DMA Period elapsed callback */
1151:d:/LiteOS_Lab/drivers/third_party/ST/STM32L4xx_HAL_Driver/Src\stm32l4xx_hal_tim_ex.c ****       htim->hdma[TIM_DMA_ID_CC3]->XferCpltCallback = TIM_DMADelayPulseCplt;
 2503              		.loc 1 1151 17
 2504 00f0 FB68     		ldr	r3, [r7, #12]
 2505 00f2 DB6A     		ldr	r3, [r3, #44]
 2506              		.loc 1 1151 52
 2507 00f4 284A     		ldr	r2, .L129
 2508 00f6 DA62     		str	r2, [r3, #44]
1152:d:/LiteOS_Lab/drivers/third_party/ST/STM32L4xx_HAL_Driver/Src\stm32l4xx_hal_tim_ex.c **** 
1153:d:/LiteOS_Lab/drivers/third_party/ST/STM32L4xx_HAL_Driver/Src\stm32l4xx_hal_tim_ex.c ****       /* Set the DMA error callback */
1154:d:/LiteOS_Lab/drivers/third_party/ST/STM32L4xx_HAL_Driver/Src\stm32l4xx_hal_tim_ex.c ****       htim->hdma[TIM_DMA_ID_CC3]->XferErrorCallback = TIM_DMAError ;
 2509              		.loc 1 1154 17
 2510 00f8 FB68     		ldr	r3, [r7, #12]
 2511 00fa DB6A     		ldr	r3, [r3, #44]
 2512              		.loc 1 1154 53
 2513 00fc 274A     		ldr	r2, .L129+4
 2514 00fe 5A63     		str	r2, [r3, #52]
1155:d:/LiteOS_Lab/drivers/third_party/ST/STM32L4xx_HAL_Driver/Src\stm32l4xx_hal_tim_ex.c **** 
1156:d:/LiteOS_Lab/drivers/third_party/ST/STM32L4xx_HAL_Driver/Src\stm32l4xx_hal_tim_ex.c ****       /* Enable the DMA channel */
1157:d:/LiteOS_Lab/drivers/third_party/ST/STM32L4xx_HAL_Driver/Src\stm32l4xx_hal_tim_ex.c ****       HAL_DMA_Start_IT(htim->hdma[TIM_DMA_ID_CC3], (uint32_t)pData, (uint32_t)&htim->Instance->CCR3
 2515              		.loc 1 1157 7
 2516 0100 FB68     		ldr	r3, [r7, #12]
 2517 0102 D86A     		ldr	r0, [r3, #44]
 2518 0104 7968     		ldr	r1, [r7, #4]
 2519              		.loc 1 1157 84
 2520 0106 FB68     		ldr	r3, [r7, #12]
 2521 0108 1B68     		ldr	r3, [r3]
 2522              		.loc 1 1157 79
 2523 010a 3C33     		adds	r3, r3, #60
 2524              		.loc 1 1157 7
 2525 010c 1A46     		mov	r2, r3
 2526 010e 7B88     		ldrh	r3, [r7, #2]
 2527 0110 FFF7FEFF 		bl	HAL_DMA_Start_IT
1158:d:/LiteOS_Lab/drivers/third_party/ST/STM32L4xx_HAL_Driver/Src\stm32l4xx_hal_tim_ex.c **** 
1159:d:/LiteOS_Lab/drivers/third_party/ST/STM32L4xx_HAL_Driver/Src\stm32l4xx_hal_tim_ex.c ****       /* Enable the TIM Capture/Compare 3 DMA request */
1160:d:/LiteOS_Lab/drivers/third_party/ST/STM32L4xx_HAL_Driver/Src\stm32l4xx_hal_tim_ex.c ****       __HAL_TIM_ENABLE_DMA(htim, TIM_DMA_CC3);
 2528              		.loc 1 1160 7
 2529 0114 FB68     		ldr	r3, [r7, #12]
ARM GAS  C:\Users\ADMINI~1\AppData\Local\Temp\ccYWIBty.s 			page 65


 2530 0116 1B68     		ldr	r3, [r3]
 2531 0118 DA68     		ldr	r2, [r3, #12]
 2532 011a FB68     		ldr	r3, [r7, #12]
 2533 011c 1B68     		ldr	r3, [r3]
 2534 011e 42F40062 		orr	r2, r2, #2048
 2535 0122 DA60     		str	r2, [r3, #12]
1161:d:/LiteOS_Lab/drivers/third_party/ST/STM32L4xx_HAL_Driver/Src\stm32l4xx_hal_tim_ex.c ****     }
1162:d:/LiteOS_Lab/drivers/third_party/ST/STM32L4xx_HAL_Driver/Src\stm32l4xx_hal_tim_ex.c ****     break;
 2536              		.loc 1 1162 5
 2537 0124 1BE0     		b	.L127
 2538              	.L122:
1163:d:/LiteOS_Lab/drivers/third_party/ST/STM32L4xx_HAL_Driver/Src\stm32l4xx_hal_tim_ex.c **** 
1164:d:/LiteOS_Lab/drivers/third_party/ST/STM32L4xx_HAL_Driver/Src\stm32l4xx_hal_tim_ex.c ****     case TIM_CHANNEL_4:
1165:d:/LiteOS_Lab/drivers/third_party/ST/STM32L4xx_HAL_Driver/Src\stm32l4xx_hal_tim_ex.c ****     {
1166:d:/LiteOS_Lab/drivers/third_party/ST/STM32L4xx_HAL_Driver/Src\stm32l4xx_hal_tim_ex.c ****      /* Set the DMA Period elapsed callback */
1167:d:/LiteOS_Lab/drivers/third_party/ST/STM32L4xx_HAL_Driver/Src\stm32l4xx_hal_tim_ex.c ****       htim->hdma[TIM_DMA_ID_CC4]->XferCpltCallback = TIM_DMADelayPulseCplt;
 2539              		.loc 1 1167 17
 2540 0126 FB68     		ldr	r3, [r7, #12]
 2541 0128 1B6B     		ldr	r3, [r3, #48]
 2542              		.loc 1 1167 52
 2543 012a 1B4A     		ldr	r2, .L129
 2544 012c DA62     		str	r2, [r3, #44]
1168:d:/LiteOS_Lab/drivers/third_party/ST/STM32L4xx_HAL_Driver/Src\stm32l4xx_hal_tim_ex.c **** 
1169:d:/LiteOS_Lab/drivers/third_party/ST/STM32L4xx_HAL_Driver/Src\stm32l4xx_hal_tim_ex.c ****       /* Set the DMA error callback */
1170:d:/LiteOS_Lab/drivers/third_party/ST/STM32L4xx_HAL_Driver/Src\stm32l4xx_hal_tim_ex.c ****       htim->hdma[TIM_DMA_ID_CC4]->XferErrorCallback = TIM_DMAError ;
 2545              		.loc 1 1170 17
 2546 012e FB68     		ldr	r3, [r7, #12]
 2547 0130 1B6B     		ldr	r3, [r3, #48]
 2548              		.loc 1 1170 53
 2549 0132 1A4A     		ldr	r2, .L129+4
 2550 0134 5A63     		str	r2, [r3, #52]
1171:d:/LiteOS_Lab/drivers/third_party/ST/STM32L4xx_HAL_Driver/Src\stm32l4xx_hal_tim_ex.c **** 
1172:d:/LiteOS_Lab/drivers/third_party/ST/STM32L4xx_HAL_Driver/Src\stm32l4xx_hal_tim_ex.c ****       /* Enable the DMA channel */
1173:d:/LiteOS_Lab/drivers/third_party/ST/STM32L4xx_HAL_Driver/Src\stm32l4xx_hal_tim_ex.c ****       HAL_DMA_Start_IT(htim->hdma[TIM_DMA_ID_CC4], (uint32_t)pData, (uint32_t)&htim->Instance->CCR4
 2551              		.loc 1 1173 7
 2552 0136 FB68     		ldr	r3, [r7, #12]
 2553 0138 186B     		ldr	r0, [r3, #48]
 2554 013a 7968     		ldr	r1, [r7, #4]
 2555              		.loc 1 1173 84
 2556 013c FB68     		ldr	r3, [r7, #12]
 2557 013e 1B68     		ldr	r3, [r3]
 2558              		.loc 1 1173 79
 2559 0140 4033     		adds	r3, r3, #64
 2560              		.loc 1 1173 7
 2561 0142 1A46     		mov	r2, r3
 2562 0144 7B88     		ldrh	r3, [r7, #2]
 2563 0146 FFF7FEFF 		bl	HAL_DMA_Start_IT
1174:d:/LiteOS_Lab/drivers/third_party/ST/STM32L4xx_HAL_Driver/Src\stm32l4xx_hal_tim_ex.c **** 
1175:d:/LiteOS_Lab/drivers/third_party/ST/STM32L4xx_HAL_Driver/Src\stm32l4xx_hal_tim_ex.c ****       /* Enable the TIM Capture/Compare 4 DMA request */
1176:d:/LiteOS_Lab/drivers/third_party/ST/STM32L4xx_HAL_Driver/Src\stm32l4xx_hal_tim_ex.c ****       __HAL_TIM_ENABLE_DMA(htim, TIM_DMA_CC4);
 2564              		.loc 1 1176 7
 2565 014a FB68     		ldr	r3, [r7, #12]
 2566 014c 1B68     		ldr	r3, [r3]
 2567 014e DA68     		ldr	r2, [r3, #12]
 2568 0150 FB68     		ldr	r3, [r7, #12]
 2569 0152 1B68     		ldr	r3, [r3]
 2570 0154 42F48052 		orr	r2, r2, #4096
ARM GAS  C:\Users\ADMINI~1\AppData\Local\Temp\ccYWIBty.s 			page 66


 2571 0158 DA60     		str	r2, [r3, #12]
1177:d:/LiteOS_Lab/drivers/third_party/ST/STM32L4xx_HAL_Driver/Src\stm32l4xx_hal_tim_ex.c ****     }
1178:d:/LiteOS_Lab/drivers/third_party/ST/STM32L4xx_HAL_Driver/Src\stm32l4xx_hal_tim_ex.c ****     break;
 2572              		.loc 1 1178 5
 2573 015a 00E0     		b	.L127
 2574              	.L128:
1179:d:/LiteOS_Lab/drivers/third_party/ST/STM32L4xx_HAL_Driver/Src\stm32l4xx_hal_tim_ex.c **** 
1180:d:/LiteOS_Lab/drivers/third_party/ST/STM32L4xx_HAL_Driver/Src\stm32l4xx_hal_tim_ex.c ****     default:
1181:d:/LiteOS_Lab/drivers/third_party/ST/STM32L4xx_HAL_Driver/Src\stm32l4xx_hal_tim_ex.c ****     break;
 2575              		.loc 1 1181 5
 2576 015c 00BF     		nop
 2577              	.L127:
1182:d:/LiteOS_Lab/drivers/third_party/ST/STM32L4xx_HAL_Driver/Src\stm32l4xx_hal_tim_ex.c ****   }
1183:d:/LiteOS_Lab/drivers/third_party/ST/STM32L4xx_HAL_Driver/Src\stm32l4xx_hal_tim_ex.c **** 
1184:d:/LiteOS_Lab/drivers/third_party/ST/STM32L4xx_HAL_Driver/Src\stm32l4xx_hal_tim_ex.c ****   /* Enable the complementary PWM output  */
1185:d:/LiteOS_Lab/drivers/third_party/ST/STM32L4xx_HAL_Driver/Src\stm32l4xx_hal_tim_ex.c ****   TIM_CCxNChannelCmd(htim->Instance, Channel, TIM_CCxN_ENABLE);
 2578              		.loc 1 1185 3
 2579 015e FB68     		ldr	r3, [r7, #12]
 2580 0160 1B68     		ldr	r3, [r3]
 2581 0162 0422     		movs	r2, #4
 2582 0164 B968     		ldr	r1, [r7, #8]
 2583 0166 1846     		mov	r0, r3
 2584 0168 FFF7FEFF 		bl	TIM_CCxNChannelCmd
1186:d:/LiteOS_Lab/drivers/third_party/ST/STM32L4xx_HAL_Driver/Src\stm32l4xx_hal_tim_ex.c **** 
1187:d:/LiteOS_Lab/drivers/third_party/ST/STM32L4xx_HAL_Driver/Src\stm32l4xx_hal_tim_ex.c ****   /* Enable the Main Ouput */
1188:d:/LiteOS_Lab/drivers/third_party/ST/STM32L4xx_HAL_Driver/Src\stm32l4xx_hal_tim_ex.c ****   __HAL_TIM_MOE_ENABLE(htim);
 2585              		.loc 1 1188 3
 2586 016c FB68     		ldr	r3, [r7, #12]
 2587 016e 1B68     		ldr	r3, [r3]
 2588 0170 5A6C     		ldr	r2, [r3, #68]
 2589 0172 FB68     		ldr	r3, [r7, #12]
 2590 0174 1B68     		ldr	r3, [r3]
 2591 0176 42F40042 		orr	r2, r2, #32768
 2592 017a 5A64     		str	r2, [r3, #68]
1189:d:/LiteOS_Lab/drivers/third_party/ST/STM32L4xx_HAL_Driver/Src\stm32l4xx_hal_tim_ex.c **** 
1190:d:/LiteOS_Lab/drivers/third_party/ST/STM32L4xx_HAL_Driver/Src\stm32l4xx_hal_tim_ex.c ****   /* Enable the Peripheral */
1191:d:/LiteOS_Lab/drivers/third_party/ST/STM32L4xx_HAL_Driver/Src\stm32l4xx_hal_tim_ex.c ****   __HAL_TIM_ENABLE(htim);
 2593              		.loc 1 1191 3
 2594 017c FB68     		ldr	r3, [r7, #12]
 2595 017e 1B68     		ldr	r3, [r3]
 2596 0180 1A68     		ldr	r2, [r3]
 2597 0182 FB68     		ldr	r3, [r7, #12]
 2598 0184 1B68     		ldr	r3, [r3]
 2599 0186 42F00102 		orr	r2, r2, #1
 2600 018a 1A60     		str	r2, [r3]
1192:d:/LiteOS_Lab/drivers/third_party/ST/STM32L4xx_HAL_Driver/Src\stm32l4xx_hal_tim_ex.c **** 
