ARM GAS  C:\Users\ADMINI~1\AppData\Local\Temp\ccDqwz7G.s 			page 1


   1              		.cpu cortex-m4
   2              		.eabi_attribute 27, 1
   3              		.eabi_attribute 28, 1
   4              		.eabi_attribute 20, 1
   5              		.eabi_attribute 21, 1
   6              		.eabi_attribute 23, 3
   7              		.eabi_attribute 24, 1
   8              		.eabi_attribute 25, 1
   9              		.eabi_attribute 26, 1
  10              		.eabi_attribute 30, 6
  11              		.eabi_attribute 34, 1
  12              		.eabi_attribute 18, 4
  13              		.file	"stm32l4xx_hal_rng.c"
  14              		.text
  15              	.Ltext0:
  16              		.cfi_sections	.debug_frame
  17              		.section	.text.HAL_RNG_Init,"ax",%progbits
  18              		.align	1
  19              		.global	HAL_RNG_Init
  20              		.arch armv7e-m
  21              		.syntax unified
  22              		.thumb
  23              		.thumb_func
  24              		.fpu fpv4-sp-d16
  26              	HAL_RNG_Init:
  27              	.LFB287:
  28              		.file 1 "d:/LiteOS_Lab/drivers/third_party/ST/STM32L4xx_HAL_Driver/Src/stm32l4xx_hal_rng.c"
   1:d:/LiteOS_Lab/drivers/third_party/ST/STM32L4xx_HAL_Driver/Src\stm32l4xx_hal_rng.c **** /**
   2:d:/LiteOS_Lab/drivers/third_party/ST/STM32L4xx_HAL_Driver/Src\stm32l4xx_hal_rng.c ****   ******************************************************************************
   3:d:/LiteOS_Lab/drivers/third_party/ST/STM32L4xx_HAL_Driver/Src\stm32l4xx_hal_rng.c ****   * @file    stm32l4xx_hal_rng.c
   4:d:/LiteOS_Lab/drivers/third_party/ST/STM32L4xx_HAL_Driver/Src\stm32l4xx_hal_rng.c ****   * @author  MCD Application Team
   5:d:/LiteOS_Lab/drivers/third_party/ST/STM32L4xx_HAL_Driver/Src\stm32l4xx_hal_rng.c ****   * @brief   RNG HAL module driver.
   6:d:/LiteOS_Lab/drivers/third_party/ST/STM32L4xx_HAL_Driver/Src\stm32l4xx_hal_rng.c ****   *          This file provides firmware functions to manage the following 
   7:d:/LiteOS_Lab/drivers/third_party/ST/STM32L4xx_HAL_Driver/Src\stm32l4xx_hal_rng.c ****   *          functionalities of the Random Number Generator (RNG) peripheral:
   8:d:/LiteOS_Lab/drivers/third_party/ST/STM32L4xx_HAL_Driver/Src\stm32l4xx_hal_rng.c ****   *           + Initialization/de-initialization functions
   9:d:/LiteOS_Lab/drivers/third_party/ST/STM32L4xx_HAL_Driver/Src\stm32l4xx_hal_rng.c ****   *           + Peripheral Control functions 
  10:d:/LiteOS_Lab/drivers/third_party/ST/STM32L4xx_HAL_Driver/Src\stm32l4xx_hal_rng.c ****   *           + Peripheral State functions
  11:d:/LiteOS_Lab/drivers/third_party/ST/STM32L4xx_HAL_Driver/Src\stm32l4xx_hal_rng.c ****   *         
  12:d:/LiteOS_Lab/drivers/third_party/ST/STM32L4xx_HAL_Driver/Src\stm32l4xx_hal_rng.c ****   @verbatim
  13:d:/LiteOS_Lab/drivers/third_party/ST/STM32L4xx_HAL_Driver/Src\stm32l4xx_hal_rng.c ****   ==============================================================================
  14:d:/LiteOS_Lab/drivers/third_party/ST/STM32L4xx_HAL_Driver/Src\stm32l4xx_hal_rng.c ****                      ##### How to use this driver #####
  15:d:/LiteOS_Lab/drivers/third_party/ST/STM32L4xx_HAL_Driver/Src\stm32l4xx_hal_rng.c ****   ==============================================================================
  16:d:/LiteOS_Lab/drivers/third_party/ST/STM32L4xx_HAL_Driver/Src\stm32l4xx_hal_rng.c ****   [..]
  17:d:/LiteOS_Lab/drivers/third_party/ST/STM32L4xx_HAL_Driver/Src\stm32l4xx_hal_rng.c ****       The RNG HAL driver can be used as follows:
  18:d:/LiteOS_Lab/drivers/third_party/ST/STM32L4xx_HAL_Driver/Src\stm32l4xx_hal_rng.c **** 
  19:d:/LiteOS_Lab/drivers/third_party/ST/STM32L4xx_HAL_Driver/Src\stm32l4xx_hal_rng.c ****       (#) Enable the RNG controller clock using __HAL_RCC_RNG_CLK_ENABLE() macro 
  20:d:/LiteOS_Lab/drivers/third_party/ST/STM32L4xx_HAL_Driver/Src\stm32l4xx_hal_rng.c ****           in HAL_RNG_MspInit().
  21:d:/LiteOS_Lab/drivers/third_party/ST/STM32L4xx_HAL_Driver/Src\stm32l4xx_hal_rng.c ****       (#) Activate the RNG peripheral using HAL_RNG_Init() function.
  22:d:/LiteOS_Lab/drivers/third_party/ST/STM32L4xx_HAL_Driver/Src\stm32l4xx_hal_rng.c ****       (#) Wait until the 32-bit Random Number Generator contains a valid 
  23:d:/LiteOS_Lab/drivers/third_party/ST/STM32L4xx_HAL_Driver/Src\stm32l4xx_hal_rng.c ****           random data using (polling/interrupt) mode.   
  24:d:/LiteOS_Lab/drivers/third_party/ST/STM32L4xx_HAL_Driver/Src\stm32l4xx_hal_rng.c ****       (#) Get the 32 bit random number using HAL_RNG_GenerateRandomNumber() function.
  25:d:/LiteOS_Lab/drivers/third_party/ST/STM32L4xx_HAL_Driver/Src\stm32l4xx_hal_rng.c ****   
  26:d:/LiteOS_Lab/drivers/third_party/ST/STM32L4xx_HAL_Driver/Src\stm32l4xx_hal_rng.c ****   @endverbatim
  27:d:/LiteOS_Lab/drivers/third_party/ST/STM32L4xx_HAL_Driver/Src\stm32l4xx_hal_rng.c ****   ******************************************************************************
  28:d:/LiteOS_Lab/drivers/third_party/ST/STM32L4xx_HAL_Driver/Src\stm32l4xx_hal_rng.c ****   * @attention
  29:d:/LiteOS_Lab/drivers/third_party/ST/STM32L4xx_HAL_Driver/Src\stm32l4xx_hal_rng.c ****   *
  30:d:/LiteOS_Lab/drivers/third_party/ST/STM32L4xx_HAL_Driver/Src\stm32l4xx_hal_rng.c ****   * <h2><center>&copy; COPYRIGHT(c) 2017 STMicroelectronics</center></h2>
ARM GAS  C:\Users\ADMINI~1\AppData\Local\Temp\ccDqwz7G.s 			page 2


  31:d:/LiteOS_Lab/drivers/third_party/ST/STM32L4xx_HAL_Driver/Src\stm32l4xx_hal_rng.c ****   *
  32:d:/LiteOS_Lab/drivers/third_party/ST/STM32L4xx_HAL_Driver/Src\stm32l4xx_hal_rng.c ****   * Redistribution and use in source and binary forms, with or without modification,
  33:d:/LiteOS_Lab/drivers/third_party/ST/STM32L4xx_HAL_Driver/Src\stm32l4xx_hal_rng.c ****   * are permitted provided that the following conditions are met:
  34:d:/LiteOS_Lab/drivers/third_party/ST/STM32L4xx_HAL_Driver/Src\stm32l4xx_hal_rng.c ****   *   1. Redistributions of source code must retain the above copyright notice,
  35:d:/LiteOS_Lab/drivers/third_party/ST/STM32L4xx_HAL_Driver/Src\stm32l4xx_hal_rng.c ****   *      this list of conditions and the following disclaimer.
  36:d:/LiteOS_Lab/drivers/third_party/ST/STM32L4xx_HAL_Driver/Src\stm32l4xx_hal_rng.c ****   *   2. Redistributions in binary form must reproduce the above copyright notice,
  37:d:/LiteOS_Lab/drivers/third_party/ST/STM32L4xx_HAL_Driver/Src\stm32l4xx_hal_rng.c ****   *      this list of conditions and the following disclaimer in the documentation
  38:d:/LiteOS_Lab/drivers/third_party/ST/STM32L4xx_HAL_Driver/Src\stm32l4xx_hal_rng.c ****   *      and/or other materials provided with the distribution.
  39:d:/LiteOS_Lab/drivers/third_party/ST/STM32L4xx_HAL_Driver/Src\stm32l4xx_hal_rng.c ****   *   3. Neither the name of STMicroelectronics nor the names of its contributors
  40:d:/LiteOS_Lab/drivers/third_party/ST/STM32L4xx_HAL_Driver/Src\stm32l4xx_hal_rng.c ****   *      may be used to endorse or promote products derived from this software
  41:d:/LiteOS_Lab/drivers/third_party/ST/STM32L4xx_HAL_Driver/Src\stm32l4xx_hal_rng.c ****   *      without specific prior written permission.
  42:d:/LiteOS_Lab/drivers/third_party/ST/STM32L4xx_HAL_Driver/Src\stm32l4xx_hal_rng.c ****   *
  43:d:/LiteOS_Lab/drivers/third_party/ST/STM32L4xx_HAL_Driver/Src\stm32l4xx_hal_rng.c ****   * THIS SOFTWARE IS PROVIDED BY THE COPYRIGHT HOLDERS AND CONTRIBUTORS "AS IS"
  44:d:/LiteOS_Lab/drivers/third_party/ST/STM32L4xx_HAL_Driver/Src\stm32l4xx_hal_rng.c ****   * AND ANY EXPRESS OR IMPLIED WARRANTIES, INCLUDING, BUT NOT LIMITED TO, THE
  45:d:/LiteOS_Lab/drivers/third_party/ST/STM32L4xx_HAL_Driver/Src\stm32l4xx_hal_rng.c ****   * IMPLIED WARRANTIES OF MERCHANTABILITY AND FITNESS FOR A PARTICULAR PURPOSE ARE
  46:d:/LiteOS_Lab/drivers/third_party/ST/STM32L4xx_HAL_Driver/Src\stm32l4xx_hal_rng.c ****   * DISCLAIMED. IN NO EVENT SHALL THE COPYRIGHT HOLDER OR CONTRIBUTORS BE LIABLE
  47:d:/LiteOS_Lab/drivers/third_party/ST/STM32L4xx_HAL_Driver/Src\stm32l4xx_hal_rng.c ****   * FOR ANY DIRECT, INDIRECT, INCIDENTAL, SPECIAL, EXEMPLARY, OR CONSEQUENTIAL
  48:d:/LiteOS_Lab/drivers/third_party/ST/STM32L4xx_HAL_Driver/Src\stm32l4xx_hal_rng.c ****   * DAMAGES (INCLUDING, BUT NOT LIMITED TO, PROCUREMENT OF SUBSTITUTE GOODS OR
  49:d:/LiteOS_Lab/drivers/third_party/ST/STM32L4xx_HAL_Driver/Src\stm32l4xx_hal_rng.c ****   * SERVICES; LOSS OF USE, DATA, OR PROFITS; OR BUSINESS INTERRUPTION) HOWEVER
  50:d:/LiteOS_Lab/drivers/third_party/ST/STM32L4xx_HAL_Driver/Src\stm32l4xx_hal_rng.c ****   * CAUSED AND ON ANY THEORY OF LIABILITY, WHETHER IN CONTRACT, STRICT LIABILITY,
  51:d:/LiteOS_Lab/drivers/third_party/ST/STM32L4xx_HAL_Driver/Src\stm32l4xx_hal_rng.c ****   * OR TORT (INCLUDING NEGLIGENCE OR OTHERWISE) ARISING IN ANY WAY OUT OF THE USE
  52:d:/LiteOS_Lab/drivers/third_party/ST/STM32L4xx_HAL_Driver/Src\stm32l4xx_hal_rng.c ****   * OF THIS SOFTWARE, EVEN IF ADVISED OF THE POSSIBILITY OF SUCH DAMAGE.
  53:d:/LiteOS_Lab/drivers/third_party/ST/STM32L4xx_HAL_Driver/Src\stm32l4xx_hal_rng.c ****   *
  54:d:/LiteOS_Lab/drivers/third_party/ST/STM32L4xx_HAL_Driver/Src\stm32l4xx_hal_rng.c ****   ******************************************************************************
  55:d:/LiteOS_Lab/drivers/third_party/ST/STM32L4xx_HAL_Driver/Src\stm32l4xx_hal_rng.c ****   */ 
  56:d:/LiteOS_Lab/drivers/third_party/ST/STM32L4xx_HAL_Driver/Src\stm32l4xx_hal_rng.c **** 
  57:d:/LiteOS_Lab/drivers/third_party/ST/STM32L4xx_HAL_Driver/Src\stm32l4xx_hal_rng.c **** /* Includes ------------------------------------------------------------------*/
  58:d:/LiteOS_Lab/drivers/third_party/ST/STM32L4xx_HAL_Driver/Src\stm32l4xx_hal_rng.c **** #include "stm32l4xx_hal.h"
  59:d:/LiteOS_Lab/drivers/third_party/ST/STM32L4xx_HAL_Driver/Src\stm32l4xx_hal_rng.c **** 
  60:d:/LiteOS_Lab/drivers/third_party/ST/STM32L4xx_HAL_Driver/Src\stm32l4xx_hal_rng.c **** /** @addtogroup STM32L4xx_HAL_Driver
  61:d:/LiteOS_Lab/drivers/third_party/ST/STM32L4xx_HAL_Driver/Src\stm32l4xx_hal_rng.c ****   * @{
  62:d:/LiteOS_Lab/drivers/third_party/ST/STM32L4xx_HAL_Driver/Src\stm32l4xx_hal_rng.c ****   */
  63:d:/LiteOS_Lab/drivers/third_party/ST/STM32L4xx_HAL_Driver/Src\stm32l4xx_hal_rng.c **** 
  64:d:/LiteOS_Lab/drivers/third_party/ST/STM32L4xx_HAL_Driver/Src\stm32l4xx_hal_rng.c **** /** @defgroup RNG RNG
  65:d:/LiteOS_Lab/drivers/third_party/ST/STM32L4xx_HAL_Driver/Src\stm32l4xx_hal_rng.c ****   * @brief RNG HAL module driver.
  66:d:/LiteOS_Lab/drivers/third_party/ST/STM32L4xx_HAL_Driver/Src\stm32l4xx_hal_rng.c ****   * @{
  67:d:/LiteOS_Lab/drivers/third_party/ST/STM32L4xx_HAL_Driver/Src\stm32l4xx_hal_rng.c ****   */
  68:d:/LiteOS_Lab/drivers/third_party/ST/STM32L4xx_HAL_Driver/Src\stm32l4xx_hal_rng.c **** 
  69:d:/LiteOS_Lab/drivers/third_party/ST/STM32L4xx_HAL_Driver/Src\stm32l4xx_hal_rng.c **** #ifdef HAL_RNG_MODULE_ENABLED
  70:d:/LiteOS_Lab/drivers/third_party/ST/STM32L4xx_HAL_Driver/Src\stm32l4xx_hal_rng.c **** 
  71:d:/LiteOS_Lab/drivers/third_party/ST/STM32L4xx_HAL_Driver/Src\stm32l4xx_hal_rng.c **** 
  72:d:/LiteOS_Lab/drivers/third_party/ST/STM32L4xx_HAL_Driver/Src\stm32l4xx_hal_rng.c **** 
  73:d:/LiteOS_Lab/drivers/third_party/ST/STM32L4xx_HAL_Driver/Src\stm32l4xx_hal_rng.c **** /* Private types -------------------------------------------------------------*/
  74:d:/LiteOS_Lab/drivers/third_party/ST/STM32L4xx_HAL_Driver/Src\stm32l4xx_hal_rng.c **** /* Private defines -----------------------------------------------------------*/
  75:d:/LiteOS_Lab/drivers/third_party/ST/STM32L4xx_HAL_Driver/Src\stm32l4xx_hal_rng.c **** /** @defgroup RNG_Private_Constants RNG_Private_Constants
  76:d:/LiteOS_Lab/drivers/third_party/ST/STM32L4xx_HAL_Driver/Src\stm32l4xx_hal_rng.c ****   * @{
  77:d:/LiteOS_Lab/drivers/third_party/ST/STM32L4xx_HAL_Driver/Src\stm32l4xx_hal_rng.c ****   */
  78:d:/LiteOS_Lab/drivers/third_party/ST/STM32L4xx_HAL_Driver/Src\stm32l4xx_hal_rng.c **** #define RNG_TIMEOUT_VALUE     2
  79:d:/LiteOS_Lab/drivers/third_party/ST/STM32L4xx_HAL_Driver/Src\stm32l4xx_hal_rng.c **** /**
  80:d:/LiteOS_Lab/drivers/third_party/ST/STM32L4xx_HAL_Driver/Src\stm32l4xx_hal_rng.c ****   * @}
  81:d:/LiteOS_Lab/drivers/third_party/ST/STM32L4xx_HAL_Driver/Src\stm32l4xx_hal_rng.c ****   */ 
  82:d:/LiteOS_Lab/drivers/third_party/ST/STM32L4xx_HAL_Driver/Src\stm32l4xx_hal_rng.c **** 
  83:d:/LiteOS_Lab/drivers/third_party/ST/STM32L4xx_HAL_Driver/Src\stm32l4xx_hal_rng.c **** /* Private macros ------------------------------------------------------------*/
  84:d:/LiteOS_Lab/drivers/third_party/ST/STM32L4xx_HAL_Driver/Src\stm32l4xx_hal_rng.c **** /* Private variables ---------------------------------------------------------*/
  85:d:/LiteOS_Lab/drivers/third_party/ST/STM32L4xx_HAL_Driver/Src\stm32l4xx_hal_rng.c **** /* Private function prototypes -----------------------------------------------*/
  86:d:/LiteOS_Lab/drivers/third_party/ST/STM32L4xx_HAL_Driver/Src\stm32l4xx_hal_rng.c **** /* Private functions ---------------------------------------------------------*/
  87:d:/LiteOS_Lab/drivers/third_party/ST/STM32L4xx_HAL_Driver/Src\stm32l4xx_hal_rng.c **** /* Exported functions --------------------------------------------------------*/
ARM GAS  C:\Users\ADMINI~1\AppData\Local\Temp\ccDqwz7G.s 			page 3


  88:d:/LiteOS_Lab/drivers/third_party/ST/STM32L4xx_HAL_Driver/Src\stm32l4xx_hal_rng.c **** 
  89:d:/LiteOS_Lab/drivers/third_party/ST/STM32L4xx_HAL_Driver/Src\stm32l4xx_hal_rng.c **** /** @addtogroup RNG_Exported_Functions
  90:d:/LiteOS_Lab/drivers/third_party/ST/STM32L4xx_HAL_Driver/Src\stm32l4xx_hal_rng.c ****   * @{
  91:d:/LiteOS_Lab/drivers/third_party/ST/STM32L4xx_HAL_Driver/Src\stm32l4xx_hal_rng.c ****   */
  92:d:/LiteOS_Lab/drivers/third_party/ST/STM32L4xx_HAL_Driver/Src\stm32l4xx_hal_rng.c **** 
  93:d:/LiteOS_Lab/drivers/third_party/ST/STM32L4xx_HAL_Driver/Src\stm32l4xx_hal_rng.c **** /** @addtogroup RNG_Exported_Functions_Group1
  94:d:/LiteOS_Lab/drivers/third_party/ST/STM32L4xx_HAL_Driver/Src\stm32l4xx_hal_rng.c ****  *  @brief   Initialization and de-initialization functions
  95:d:/LiteOS_Lab/drivers/third_party/ST/STM32L4xx_HAL_Driver/Src\stm32l4xx_hal_rng.c ****  *
  96:d:/LiteOS_Lab/drivers/third_party/ST/STM32L4xx_HAL_Driver/Src\stm32l4xx_hal_rng.c **** @verbatim
  97:d:/LiteOS_Lab/drivers/third_party/ST/STM32L4xx_HAL_Driver/Src\stm32l4xx_hal_rng.c ****  ===============================================================================
  98:d:/LiteOS_Lab/drivers/third_party/ST/STM32L4xx_HAL_Driver/Src\stm32l4xx_hal_rng.c ****           ##### Initialization and de-initialization functions #####
  99:d:/LiteOS_Lab/drivers/third_party/ST/STM32L4xx_HAL_Driver/Src\stm32l4xx_hal_rng.c ****  ===============================================================================
 100:d:/LiteOS_Lab/drivers/third_party/ST/STM32L4xx_HAL_Driver/Src\stm32l4xx_hal_rng.c ****     [..]  This section provides functions allowing to:
 101:d:/LiteOS_Lab/drivers/third_party/ST/STM32L4xx_HAL_Driver/Src\stm32l4xx_hal_rng.c ****       (+) Initialize the RNG according to the specified parameters 
 102:d:/LiteOS_Lab/drivers/third_party/ST/STM32L4xx_HAL_Driver/Src\stm32l4xx_hal_rng.c ****           in the RNG_InitTypeDef and create the associated handle
 103:d:/LiteOS_Lab/drivers/third_party/ST/STM32L4xx_HAL_Driver/Src\stm32l4xx_hal_rng.c ****       (+) DeInitialize the RNG peripheral
 104:d:/LiteOS_Lab/drivers/third_party/ST/STM32L4xx_HAL_Driver/Src\stm32l4xx_hal_rng.c ****       (+) Initialize the RNG MSP (MCU Specific Package)
 105:d:/LiteOS_Lab/drivers/third_party/ST/STM32L4xx_HAL_Driver/Src\stm32l4xx_hal_rng.c ****       (+) DeInitialize the RNG MSP 
 106:d:/LiteOS_Lab/drivers/third_party/ST/STM32L4xx_HAL_Driver/Src\stm32l4xx_hal_rng.c ****  
 107:d:/LiteOS_Lab/drivers/third_party/ST/STM32L4xx_HAL_Driver/Src\stm32l4xx_hal_rng.c **** @endverbatim
 108:d:/LiteOS_Lab/drivers/third_party/ST/STM32L4xx_HAL_Driver/Src\stm32l4xx_hal_rng.c ****   * @{
 109:d:/LiteOS_Lab/drivers/third_party/ST/STM32L4xx_HAL_Driver/Src\stm32l4xx_hal_rng.c ****   */
 110:d:/LiteOS_Lab/drivers/third_party/ST/STM32L4xx_HAL_Driver/Src\stm32l4xx_hal_rng.c **** 
 111:d:/LiteOS_Lab/drivers/third_party/ST/STM32L4xx_HAL_Driver/Src\stm32l4xx_hal_rng.c **** /**
 112:d:/LiteOS_Lab/drivers/third_party/ST/STM32L4xx_HAL_Driver/Src\stm32l4xx_hal_rng.c ****   * @brief  Initialize the RNG peripheral and initialize the associated handle.
 113:d:/LiteOS_Lab/drivers/third_party/ST/STM32L4xx_HAL_Driver/Src\stm32l4xx_hal_rng.c ****   * @param  hrng: pointer to a RNG_HandleTypeDef structure.
 114:d:/LiteOS_Lab/drivers/third_party/ST/STM32L4xx_HAL_Driver/Src\stm32l4xx_hal_rng.c ****   * @retval HAL status
 115:d:/LiteOS_Lab/drivers/third_party/ST/STM32L4xx_HAL_Driver/Src\stm32l4xx_hal_rng.c ****   */
 116:d:/LiteOS_Lab/drivers/third_party/ST/STM32L4xx_HAL_Driver/Src\stm32l4xx_hal_rng.c **** HAL_StatusTypeDef HAL_RNG_Init(RNG_HandleTypeDef *hrng)
 117:d:/LiteOS_Lab/drivers/third_party/ST/STM32L4xx_HAL_Driver/Src\stm32l4xx_hal_rng.c **** { 
  29              		.loc 1 117 1
  30              		.cfi_startproc
  31              		@ args = 0, pretend = 0, frame = 8
  32              		@ frame_needed = 1, uses_anonymous_args = 0
  33 0000 80B5     		push	{r7, lr}
  34              	.LCFI0:
  35              		.cfi_def_cfa_offset 8
  36              		.cfi_offset 7, -8
  37              		.cfi_offset 14, -4
  38 0002 82B0     		sub	sp, sp, #8
  39              	.LCFI1:
  40              		.cfi_def_cfa_offset 16
  41 0004 00AF     		add	r7, sp, #0
  42              	.LCFI2:
  43              		.cfi_def_cfa_register 7
  44 0006 7860     		str	r0, [r7, #4]
 118:d:/LiteOS_Lab/drivers/third_party/ST/STM32L4xx_HAL_Driver/Src\stm32l4xx_hal_rng.c ****   /* Check the RNG handle allocation */
 119:d:/LiteOS_Lab/drivers/third_party/ST/STM32L4xx_HAL_Driver/Src\stm32l4xx_hal_rng.c ****   if(hrng == NULL)
  45              		.loc 1 119 5
  46 0008 7B68     		ldr	r3, [r7, #4]
  47 000a 002B     		cmp	r3, #0
  48 000c 01D1     		bne	.L2
 120:d:/LiteOS_Lab/drivers/third_party/ST/STM32L4xx_HAL_Driver/Src\stm32l4xx_hal_rng.c ****   {
 121:d:/LiteOS_Lab/drivers/third_party/ST/STM32L4xx_HAL_Driver/Src\stm32l4xx_hal_rng.c ****     return HAL_ERROR;
  49              		.loc 1 121 12
  50 000e 0123     		movs	r3, #1
  51 0010 19E0     		b	.L3
ARM GAS  C:\Users\ADMINI~1\AppData\Local\Temp\ccDqwz7G.s 			page 4


  52              	.L2:
 122:d:/LiteOS_Lab/drivers/third_party/ST/STM32L4xx_HAL_Driver/Src\stm32l4xx_hal_rng.c ****   }
 123:d:/LiteOS_Lab/drivers/third_party/ST/STM32L4xx_HAL_Driver/Src\stm32l4xx_hal_rng.c **** 
 124:d:/LiteOS_Lab/drivers/third_party/ST/STM32L4xx_HAL_Driver/Src\stm32l4xx_hal_rng.c ****   assert_param(IS_RNG_ALL_INSTANCE(hrng->Instance));
 125:d:/LiteOS_Lab/drivers/third_party/ST/STM32L4xx_HAL_Driver/Src\stm32l4xx_hal_rng.c **** #if defined(RNG_CR_CED)
 126:d:/LiteOS_Lab/drivers/third_party/ST/STM32L4xx_HAL_Driver/Src\stm32l4xx_hal_rng.c ****   assert_param(IS_RNG_CED(hrng->Init.ClockErrorDetection));
 127:d:/LiteOS_Lab/drivers/third_party/ST/STM32L4xx_HAL_Driver/Src\stm32l4xx_hal_rng.c **** #endif /* defined(RNG_CR_CED) */
 128:d:/LiteOS_Lab/drivers/third_party/ST/STM32L4xx_HAL_Driver/Src\stm32l4xx_hal_rng.c **** 
 129:d:/LiteOS_Lab/drivers/third_party/ST/STM32L4xx_HAL_Driver/Src\stm32l4xx_hal_rng.c ****   if(hrng->State == HAL_RNG_STATE_RESET)
  53              		.loc 1 129 10
  54 0012 7B68     		ldr	r3, [r7, #4]
  55 0014 5B79     		ldrb	r3, [r3, #5]
  56 0016 DBB2     		uxtb	r3, r3
  57              		.loc 1 129 5
  58 0018 002B     		cmp	r3, #0
  59 001a 05D1     		bne	.L4
 130:d:/LiteOS_Lab/drivers/third_party/ST/STM32L4xx_HAL_Driver/Src\stm32l4xx_hal_rng.c ****   {  
 131:d:/LiteOS_Lab/drivers/third_party/ST/STM32L4xx_HAL_Driver/Src\stm32l4xx_hal_rng.c ****     /* Allocate lock resource and initialize it */
 132:d:/LiteOS_Lab/drivers/third_party/ST/STM32L4xx_HAL_Driver/Src\stm32l4xx_hal_rng.c ****     hrng->Lock = HAL_UNLOCKED;
  60              		.loc 1 132 16
  61 001c 7B68     		ldr	r3, [r7, #4]
  62 001e 0022     		movs	r2, #0
  63 0020 1A71     		strb	r2, [r3, #4]
 133:d:/LiteOS_Lab/drivers/third_party/ST/STM32L4xx_HAL_Driver/Src\stm32l4xx_hal_rng.c **** 
 134:d:/LiteOS_Lab/drivers/third_party/ST/STM32L4xx_HAL_Driver/Src\stm32l4xx_hal_rng.c ****     /* Init the low level hardware */
 135:d:/LiteOS_Lab/drivers/third_party/ST/STM32L4xx_HAL_Driver/Src\stm32l4xx_hal_rng.c ****     HAL_RNG_MspInit(hrng);
  64              		.loc 1 135 5
  65 0022 7868     		ldr	r0, [r7, #4]
  66 0024 FFF7FEFF 		bl	HAL_RNG_MspInit
  67              	.L4:
 136:d:/LiteOS_Lab/drivers/third_party/ST/STM32L4xx_HAL_Driver/Src\stm32l4xx_hal_rng.c ****   }
 137:d:/LiteOS_Lab/drivers/third_party/ST/STM32L4xx_HAL_Driver/Src\stm32l4xx_hal_rng.c **** 
 138:d:/LiteOS_Lab/drivers/third_party/ST/STM32L4xx_HAL_Driver/Src\stm32l4xx_hal_rng.c ****   /* Change RNG peripheral state */
 139:d:/LiteOS_Lab/drivers/third_party/ST/STM32L4xx_HAL_Driver/Src\stm32l4xx_hal_rng.c ****   hrng->State = HAL_RNG_STATE_BUSY;
  68              		.loc 1 139 15
  69 0028 7B68     		ldr	r3, [r7, #4]
  70 002a 0222     		movs	r2, #2
  71 002c 5A71     		strb	r2, [r3, #5]
 140:d:/LiteOS_Lab/drivers/third_party/ST/STM32L4xx_HAL_Driver/Src\stm32l4xx_hal_rng.c **** 
 141:d:/LiteOS_Lab/drivers/third_party/ST/STM32L4xx_HAL_Driver/Src\stm32l4xx_hal_rng.c **** #if defined(RNG_CR_CED)
 142:d:/LiteOS_Lab/drivers/third_party/ST/STM32L4xx_HAL_Driver/Src\stm32l4xx_hal_rng.c ****   /* Clock Error Detection configuration */
 143:d:/LiteOS_Lab/drivers/third_party/ST/STM32L4xx_HAL_Driver/Src\stm32l4xx_hal_rng.c ****   MODIFY_REG(hrng->Instance->CR, RNG_CR_CED, hrng->Init.ClockErrorDetection);
 144:d:/LiteOS_Lab/drivers/third_party/ST/STM32L4xx_HAL_Driver/Src\stm32l4xx_hal_rng.c **** #endif /* defined(RNG_CR_CED) */
 145:d:/LiteOS_Lab/drivers/third_party/ST/STM32L4xx_HAL_Driver/Src\stm32l4xx_hal_rng.c **** 
 146:d:/LiteOS_Lab/drivers/third_party/ST/STM32L4xx_HAL_Driver/Src\stm32l4xx_hal_rng.c ****   /* Enable the RNG Peripheral */
 147:d:/LiteOS_Lab/drivers/third_party/ST/STM32L4xx_HAL_Driver/Src\stm32l4xx_hal_rng.c ****   __HAL_RNG_ENABLE(hrng);
  72              		.loc 1 147 3
  73 002e 7B68     		ldr	r3, [r7, #4]
  74 0030 1B68     		ldr	r3, [r3]
  75 0032 1A68     		ldr	r2, [r3]
  76 0034 7B68     		ldr	r3, [r7, #4]
  77 0036 1B68     		ldr	r3, [r3]
  78 0038 42F00402 		orr	r2, r2, #4
  79 003c 1A60     		str	r2, [r3]
 148:d:/LiteOS_Lab/drivers/third_party/ST/STM32L4xx_HAL_Driver/Src\stm32l4xx_hal_rng.c **** 
 149:d:/LiteOS_Lab/drivers/third_party/ST/STM32L4xx_HAL_Driver/Src\stm32l4xx_hal_rng.c ****   /* Initialize the RNG state */
 150:d:/LiteOS_Lab/drivers/third_party/ST/STM32L4xx_HAL_Driver/Src\stm32l4xx_hal_rng.c ****   hrng->State = HAL_RNG_STATE_READY;
ARM GAS  C:\Users\ADMINI~1\AppData\Local\Temp\ccDqwz7G.s 			page 5


  80              		.loc 1 150 15
  81 003e 7B68     		ldr	r3, [r7, #4]
  82 0040 0122     		movs	r2, #1
  83 0042 5A71     		strb	r2, [r3, #5]
 151:d:/LiteOS_Lab/drivers/third_party/ST/STM32L4xx_HAL_Driver/Src\stm32l4xx_hal_rng.c ****   
 152:d:/LiteOS_Lab/drivers/third_party/ST/STM32L4xx_HAL_Driver/Src\stm32l4xx_hal_rng.c ****   /* Return function status */
 153:d:/LiteOS_Lab/drivers/third_party/ST/STM32L4xx_HAL_Driver/Src\stm32l4xx_hal_rng.c ****   return HAL_OK;
  84              		.loc 1 153 10
  85 0044 0023     		movs	r3, #0
  86              	.L3:
 154:d:/LiteOS_Lab/drivers/third_party/ST/STM32L4xx_HAL_Driver/Src\stm32l4xx_hal_rng.c **** }
  87              		.loc 1 154 1
  88 0046 1846     		mov	r0, r3
  89 0048 0837     		adds	r7, r7, #8
  90              	.LCFI3:
  91              		.cfi_def_cfa_offset 8
  92 004a BD46     		mov	sp, r7
  93              	.LCFI4:
  94              		.cfi_def_cfa_register 13
  95              		@ sp needed
  96 004c 80BD     		pop	{r7, pc}
  97              		.cfi_endproc
  98              	.LFE287:
 100              		.section	.text.HAL_RNG_DeInit,"ax",%progbits
 101              		.align	1
 102              		.global	HAL_RNG_DeInit
 103              		.syntax unified
 104              		.thumb
 105              		.thumb_func
 106              		.fpu fpv4-sp-d16
 108              	HAL_RNG_DeInit:
 109              	.LFB288:
 155:d:/LiteOS_Lab/drivers/third_party/ST/STM32L4xx_HAL_Driver/Src\stm32l4xx_hal_rng.c **** 
 156:d:/LiteOS_Lab/drivers/third_party/ST/STM32L4xx_HAL_Driver/Src\stm32l4xx_hal_rng.c **** /**
 157:d:/LiteOS_Lab/drivers/third_party/ST/STM32L4xx_HAL_Driver/Src\stm32l4xx_hal_rng.c ****   * @brief  DeInitialize the RNG peripheral. 
 158:d:/LiteOS_Lab/drivers/third_party/ST/STM32L4xx_HAL_Driver/Src\stm32l4xx_hal_rng.c ****   * @param  hrng: pointer to a RNG_HandleTypeDef structure.
 159:d:/LiteOS_Lab/drivers/third_party/ST/STM32L4xx_HAL_Driver/Src\stm32l4xx_hal_rng.c ****   * @retval HAL status
 160:d:/LiteOS_Lab/drivers/third_party/ST/STM32L4xx_HAL_Driver/Src\stm32l4xx_hal_rng.c ****   */
 161:d:/LiteOS_Lab/drivers/third_party/ST/STM32L4xx_HAL_Driver/Src\stm32l4xx_hal_rng.c **** HAL_StatusTypeDef HAL_RNG_DeInit(RNG_HandleTypeDef *hrng)
 162:d:/LiteOS_Lab/drivers/third_party/ST/STM32L4xx_HAL_Driver/Src\stm32l4xx_hal_rng.c **** { 
 110              		.loc 1 162 1
 111              		.cfi_startproc
 112              		@ args = 0, pretend = 0, frame = 8
 113              		@ frame_needed = 1, uses_anonymous_args = 0
 114 0000 80B5     		push	{r7, lr}
 115              	.LCFI5:
 116              		.cfi_def_cfa_offset 8
 117              		.cfi_offset 7, -8
 118              		.cfi_offset 14, -4
 119 0002 82B0     		sub	sp, sp, #8
 120              	.LCFI6:
 121              		.cfi_def_cfa_offset 16
 122 0004 00AF     		add	r7, sp, #0
 123              	.LCFI7:
 124              		.cfi_def_cfa_register 7
 125 0006 7860     		str	r0, [r7, #4]
 163:d:/LiteOS_Lab/drivers/third_party/ST/STM32L4xx_HAL_Driver/Src\stm32l4xx_hal_rng.c ****   /* Check the RNG handle allocation */
ARM GAS  C:\Users\ADMINI~1\AppData\Local\Temp\ccDqwz7G.s 			page 6


 164:d:/LiteOS_Lab/drivers/third_party/ST/STM32L4xx_HAL_Driver/Src\stm32l4xx_hal_rng.c ****   if(hrng == NULL)
 126              		.loc 1 164 5
 127 0008 7B68     		ldr	r3, [r7, #4]
 128 000a 002B     		cmp	r3, #0
 129 000c 01D1     		bne	.L6
 165:d:/LiteOS_Lab/drivers/third_party/ST/STM32L4xx_HAL_Driver/Src\stm32l4xx_hal_rng.c ****   {
 166:d:/LiteOS_Lab/drivers/third_party/ST/STM32L4xx_HAL_Driver/Src\stm32l4xx_hal_rng.c ****     return HAL_ERROR;
 130              		.loc 1 166 12
 131 000e 0123     		movs	r3, #1
 132 0010 19E0     		b	.L7
 133              	.L6:
 167:d:/LiteOS_Lab/drivers/third_party/ST/STM32L4xx_HAL_Driver/Src\stm32l4xx_hal_rng.c ****   }
 168:d:/LiteOS_Lab/drivers/third_party/ST/STM32L4xx_HAL_Driver/Src\stm32l4xx_hal_rng.c ****   
 169:d:/LiteOS_Lab/drivers/third_party/ST/STM32L4xx_HAL_Driver/Src\stm32l4xx_hal_rng.c **** #if defined(RNG_CR_CED)
 170:d:/LiteOS_Lab/drivers/third_party/ST/STM32L4xx_HAL_Driver/Src\stm32l4xx_hal_rng.c ****   /* Clear Clock Error Detection bit */
 171:d:/LiteOS_Lab/drivers/third_party/ST/STM32L4xx_HAL_Driver/Src\stm32l4xx_hal_rng.c ****   CLEAR_BIT(hrng->Instance->CR, RNG_CR_CED);
 172:d:/LiteOS_Lab/drivers/third_party/ST/STM32L4xx_HAL_Driver/Src\stm32l4xx_hal_rng.c **** #endif /* defined(RNG_CR_CED) */
 173:d:/LiteOS_Lab/drivers/third_party/ST/STM32L4xx_HAL_Driver/Src\stm32l4xx_hal_rng.c **** 
 174:d:/LiteOS_Lab/drivers/third_party/ST/STM32L4xx_HAL_Driver/Src\stm32l4xx_hal_rng.c ****   /* Disable the RNG Peripheral */
 175:d:/LiteOS_Lab/drivers/third_party/ST/STM32L4xx_HAL_Driver/Src\stm32l4xx_hal_rng.c ****   CLEAR_BIT(hrng->Instance->CR, RNG_CR_IE | RNG_CR_RNGEN);
 134              		.loc 1 175 3
 135 0012 7B68     		ldr	r3, [r7, #4]
 136 0014 1B68     		ldr	r3, [r3]
 137 0016 1A68     		ldr	r2, [r3]
 138 0018 7B68     		ldr	r3, [r7, #4]
 139 001a 1B68     		ldr	r3, [r3]
 140 001c 22F00C02 		bic	r2, r2, #12
 141 0020 1A60     		str	r2, [r3]
 176:d:/LiteOS_Lab/drivers/third_party/ST/STM32L4xx_HAL_Driver/Src\stm32l4xx_hal_rng.c **** 
 177:d:/LiteOS_Lab/drivers/third_party/ST/STM32L4xx_HAL_Driver/Src\stm32l4xx_hal_rng.c ****   /* Clear RNG interrupt status flags */
 178:d:/LiteOS_Lab/drivers/third_party/ST/STM32L4xx_HAL_Driver/Src\stm32l4xx_hal_rng.c ****   CLEAR_BIT(hrng->Instance->SR, RNG_SR_CEIS | RNG_SR_SEIS);
 142              		.loc 1 178 3
 143 0022 7B68     		ldr	r3, [r7, #4]
 144 0024 1B68     		ldr	r3, [r3]
 145 0026 5A68     		ldr	r2, [r3, #4]
 146 0028 7B68     		ldr	r3, [r7, #4]
 147 002a 1B68     		ldr	r3, [r3]
 148 002c 22F06002 		bic	r2, r2, #96
 149 0030 5A60     		str	r2, [r3, #4]
 179:d:/LiteOS_Lab/drivers/third_party/ST/STM32L4xx_HAL_Driver/Src\stm32l4xx_hal_rng.c **** 
 180:d:/LiteOS_Lab/drivers/third_party/ST/STM32L4xx_HAL_Driver/Src\stm32l4xx_hal_rng.c ****   /* DeInit the low level hardware */
 181:d:/LiteOS_Lab/drivers/third_party/ST/STM32L4xx_HAL_Driver/Src\stm32l4xx_hal_rng.c ****   HAL_RNG_MspDeInit(hrng);
 150              		.loc 1 181 3
 151 0032 7868     		ldr	r0, [r7, #4]
 152 0034 FFF7FEFF 		bl	HAL_RNG_MspDeInit
 182:d:/LiteOS_Lab/drivers/third_party/ST/STM32L4xx_HAL_Driver/Src\stm32l4xx_hal_rng.c **** 
 183:d:/LiteOS_Lab/drivers/third_party/ST/STM32L4xx_HAL_Driver/Src\stm32l4xx_hal_rng.c ****   /* Update the RNG state */
 184:d:/LiteOS_Lab/drivers/third_party/ST/STM32L4xx_HAL_Driver/Src\stm32l4xx_hal_rng.c ****   hrng->State = HAL_RNG_STATE_RESET; 
 153              		.loc 1 184 15
 154 0038 7B68     		ldr	r3, [r7, #4]
 155 003a 0022     		movs	r2, #0
 156 003c 5A71     		strb	r2, [r3, #5]
 185:d:/LiteOS_Lab/drivers/third_party/ST/STM32L4xx_HAL_Driver/Src\stm32l4xx_hal_rng.c **** 
 186:d:/LiteOS_Lab/drivers/third_party/ST/STM32L4xx_HAL_Driver/Src\stm32l4xx_hal_rng.c ****   /* Release Lock */
 187:d:/LiteOS_Lab/drivers/third_party/ST/STM32L4xx_HAL_Driver/Src\stm32l4xx_hal_rng.c ****   __HAL_UNLOCK(hrng);
 157              		.loc 1 187 3
 158 003e 7B68     		ldr	r3, [r7, #4]
ARM GAS  C:\Users\ADMINI~1\AppData\Local\Temp\ccDqwz7G.s 			page 7


 159 0040 0022     		movs	r2, #0
 160 0042 1A71     		strb	r2, [r3, #4]
 188:d:/LiteOS_Lab/drivers/third_party/ST/STM32L4xx_HAL_Driver/Src\stm32l4xx_hal_rng.c **** 
 189:d:/LiteOS_Lab/drivers/third_party/ST/STM32L4xx_HAL_Driver/Src\stm32l4xx_hal_rng.c ****   /* Return the function status */
 190:d:/LiteOS_Lab/drivers/third_party/ST/STM32L4xx_HAL_Driver/Src\stm32l4xx_hal_rng.c ****   return HAL_OK;
 161              		.loc 1 190 10
 162 0044 0023     		movs	r3, #0
 163              	.L7:
 191:d:/LiteOS_Lab/drivers/third_party/ST/STM32L4xx_HAL_Driver/Src\stm32l4xx_hal_rng.c **** }
 164              		.loc 1 191 1
 165 0046 1846     		mov	r0, r3
 166 0048 0837     		adds	r7, r7, #8
 167              	.LCFI8:
 168              		.cfi_def_cfa_offset 8
 169 004a BD46     		mov	sp, r7
 170              	.LCFI9:
 171              		.cfi_def_cfa_register 13
 172              		@ sp needed
 173 004c 80BD     		pop	{r7, pc}
 174              		.cfi_endproc
 175              	.LFE288:
 177              		.section	.text.HAL_RNG_MspInit,"ax",%progbits
 178              		.align	1
 179              		.weak	HAL_RNG_MspInit
 180              		.syntax unified
 181              		.thumb
 182              		.thumb_func
 183              		.fpu fpv4-sp-d16
 185              	HAL_RNG_MspInit:
 186              	.LFB289:
 192:d:/LiteOS_Lab/drivers/third_party/ST/STM32L4xx_HAL_Driver/Src\stm32l4xx_hal_rng.c **** 
 193:d:/LiteOS_Lab/drivers/third_party/ST/STM32L4xx_HAL_Driver/Src\stm32l4xx_hal_rng.c **** /**
 194:d:/LiteOS_Lab/drivers/third_party/ST/STM32L4xx_HAL_Driver/Src\stm32l4xx_hal_rng.c ****   * @brief  Initialize the RNG MSP.
 195:d:/LiteOS_Lab/drivers/third_party/ST/STM32L4xx_HAL_Driver/Src\stm32l4xx_hal_rng.c ****   * @param  hrng: pointer to a RNG_HandleTypeDef structure.
 196:d:/LiteOS_Lab/drivers/third_party/ST/STM32L4xx_HAL_Driver/Src\stm32l4xx_hal_rng.c ****   * @retval None
 197:d:/LiteOS_Lab/drivers/third_party/ST/STM32L4xx_HAL_Driver/Src\stm32l4xx_hal_rng.c ****   */
 198:d:/LiteOS_Lab/drivers/third_party/ST/STM32L4xx_HAL_Driver/Src\stm32l4xx_hal_rng.c **** __weak void HAL_RNG_MspInit(RNG_HandleTypeDef *hrng)
 199:d:/LiteOS_Lab/drivers/third_party/ST/STM32L4xx_HAL_Driver/Src\stm32l4xx_hal_rng.c **** {
 187              		.loc 1 199 1
 188              		.cfi_startproc
 189              		@ args = 0, pretend = 0, frame = 8
 190              		@ frame_needed = 1, uses_anonymous_args = 0
 191              		@ link register save eliminated.
 192 0000 80B4     		push	{r7}
 193              	.LCFI10:
 194              		.cfi_def_cfa_offset 4
 195              		.cfi_offset 7, -4
 196 0002 83B0     		sub	sp, sp, #12
 197              	.LCFI11:
 198              		.cfi_def_cfa_offset 16
 199 0004 00AF     		add	r7, sp, #0
 200              	.LCFI12:
 201              		.cfi_def_cfa_register 7
 202 0006 7860     		str	r0, [r7, #4]
 200:d:/LiteOS_Lab/drivers/third_party/ST/STM32L4xx_HAL_Driver/Src\stm32l4xx_hal_rng.c ****   /* Prevent unused argument(s) compilation warning */
 201:d:/LiteOS_Lab/drivers/third_party/ST/STM32L4xx_HAL_Driver/Src\stm32l4xx_hal_rng.c ****   UNUSED(hrng);
 202:d:/LiteOS_Lab/drivers/third_party/ST/STM32L4xx_HAL_Driver/Src\stm32l4xx_hal_rng.c **** 
ARM GAS  C:\Users\ADMINI~1\AppData\Local\Temp\ccDqwz7G.s 			page 8


 203:d:/LiteOS_Lab/drivers/third_party/ST/STM32L4xx_HAL_Driver/Src\stm32l4xx_hal_rng.c ****   /* NOTE : This function should not be modified. When the callback is needed,
 204:d:/LiteOS_Lab/drivers/third_party/ST/STM32L4xx_HAL_Driver/Src\stm32l4xx_hal_rng.c ****             function HAL_RNG_MspInit must be implemented in the user file.
 205:d:/LiteOS_Lab/drivers/third_party/ST/STM32L4xx_HAL_Driver/Src\stm32l4xx_hal_rng.c ****    */
 206:d:/LiteOS_Lab/drivers/third_party/ST/STM32L4xx_HAL_Driver/Src\stm32l4xx_hal_rng.c **** }
 203              		.loc 1 206 1
 204 0008 00BF     		nop
 205 000a 0C37     		adds	r7, r7, #12
 206              	.LCFI13:
 207              		.cfi_def_cfa_offset 4
 208 000c BD46     		mov	sp, r7
 209              	.LCFI14:
 210              		.cfi_def_cfa_register 13
 211              		@ sp needed
 212 000e 5DF8047B 		ldr	r7, [sp], #4
 213              	.LCFI15:
 214              		.cfi_restore 7
 215              		.cfi_def_cfa_offset 0
 216 0012 7047     		bx	lr
 217              		.cfi_endproc
 218              	.LFE289:
 220              		.section	.text.HAL_RNG_MspDeInit,"ax",%progbits
 221              		.align	1
 222              		.weak	HAL_RNG_MspDeInit
 223              		.syntax unified
 224              		.thumb
 225              		.thumb_func
 226              		.fpu fpv4-sp-d16
 228              	HAL_RNG_MspDeInit:
 229              	.LFB290:
 207:d:/LiteOS_Lab/drivers/third_party/ST/STM32L4xx_HAL_Driver/Src\stm32l4xx_hal_rng.c **** 
 208:d:/LiteOS_Lab/drivers/third_party/ST/STM32L4xx_HAL_Driver/Src\stm32l4xx_hal_rng.c **** /**
 209:d:/LiteOS_Lab/drivers/third_party/ST/STM32L4xx_HAL_Driver/Src\stm32l4xx_hal_rng.c ****   * @brief  DeInitialize the RNG MSP.
 210:d:/LiteOS_Lab/drivers/third_party/ST/STM32L4xx_HAL_Driver/Src\stm32l4xx_hal_rng.c ****   * @param  hrng: pointer to a RNG_HandleTypeDef structure.
 211:d:/LiteOS_Lab/drivers/third_party/ST/STM32L4xx_HAL_Driver/Src\stm32l4xx_hal_rng.c ****   * @retval None
 212:d:/LiteOS_Lab/drivers/third_party/ST/STM32L4xx_HAL_Driver/Src\stm32l4xx_hal_rng.c ****   */
 213:d:/LiteOS_Lab/drivers/third_party/ST/STM32L4xx_HAL_Driver/Src\stm32l4xx_hal_rng.c **** __weak void HAL_RNG_MspDeInit(RNG_HandleTypeDef *hrng)
 214:d:/LiteOS_Lab/drivers/third_party/ST/STM32L4xx_HAL_Driver/Src\stm32l4xx_hal_rng.c **** {
 230              		.loc 1 214 1
 231              		.cfi_startproc
 232              		@ args = 0, pretend = 0, frame = 8
 233              		@ frame_needed = 1, uses_anonymous_args = 0
 234              		@ link register save eliminated.
 235 0000 80B4     		push	{r7}
 236              	.LCFI16:
 237              		.cfi_def_cfa_offset 4
 238              		.cfi_offset 7, -4
 239 0002 83B0     		sub	sp, sp, #12
 240              	.LCFI17:
 241              		.cfi_def_cfa_offset 16
 242 0004 00AF     		add	r7, sp, #0
 243              	.LCFI18:
 244              		.cfi_def_cfa_register 7
 245 0006 7860     		str	r0, [r7, #4]
 215:d:/LiteOS_Lab/drivers/third_party/ST/STM32L4xx_HAL_Driver/Src\stm32l4xx_hal_rng.c ****   /* Prevent unused argument(s) compilation warning */
 216:d:/LiteOS_Lab/drivers/third_party/ST/STM32L4xx_HAL_Driver/Src\stm32l4xx_hal_rng.c ****   UNUSED(hrng);
 217:d:/LiteOS_Lab/drivers/third_party/ST/STM32L4xx_HAL_Driver/Src\stm32l4xx_hal_rng.c **** 
 218:d:/LiteOS_Lab/drivers/third_party/ST/STM32L4xx_HAL_Driver/Src\stm32l4xx_hal_rng.c ****   /* NOTE : This function should not be modified. When the callback is needed,
ARM GAS  C:\Users\ADMINI~1\AppData\Local\Temp\ccDqwz7G.s 			page 9


 219:d:/LiteOS_Lab/drivers/third_party/ST/STM32L4xx_HAL_Driver/Src\stm32l4xx_hal_rng.c ****             function HAL_RNG_MspDeInit must be implemented in the user file.
 220:d:/LiteOS_Lab/drivers/third_party/ST/STM32L4xx_HAL_Driver/Src\stm32l4xx_hal_rng.c ****    */
 221:d:/LiteOS_Lab/drivers/third_party/ST/STM32L4xx_HAL_Driver/Src\stm32l4xx_hal_rng.c **** }
 246              		.loc 1 221 1
 247 0008 00BF     		nop
 248 000a 0C37     		adds	r7, r7, #12
 249              	.LCFI19:
 250              		.cfi_def_cfa_offset 4
 251 000c BD46     		mov	sp, r7
 252              	.LCFI20:
 253              		.cfi_def_cfa_register 13
 254              		@ sp needed
 255 000e 5DF8047B 		ldr	r7, [sp], #4
 256              	.LCFI21:
 257              		.cfi_restore 7
 258              		.cfi_def_cfa_offset 0
 259 0012 7047     		bx	lr
 260              		.cfi_endproc
 261              	.LFE290:
 263              		.section	.text.HAL_RNG_GenerateRandomNumber,"ax",%progbits
 264              		.align	1
 265              		.global	HAL_RNG_GenerateRandomNumber
 266              		.syntax unified
 267              		.thumb
 268              		.thumb_func
 269              		.fpu fpv4-sp-d16
 271              	HAL_RNG_GenerateRandomNumber:
 272              	.LFB291:
 222:d:/LiteOS_Lab/drivers/third_party/ST/STM32L4xx_HAL_Driver/Src\stm32l4xx_hal_rng.c **** 
 223:d:/LiteOS_Lab/drivers/third_party/ST/STM32L4xx_HAL_Driver/Src\stm32l4xx_hal_rng.c **** /**
 224:d:/LiteOS_Lab/drivers/third_party/ST/STM32L4xx_HAL_Driver/Src\stm32l4xx_hal_rng.c ****   * @}
 225:d:/LiteOS_Lab/drivers/third_party/ST/STM32L4xx_HAL_Driver/Src\stm32l4xx_hal_rng.c ****   */
 226:d:/LiteOS_Lab/drivers/third_party/ST/STM32L4xx_HAL_Driver/Src\stm32l4xx_hal_rng.c **** 
 227:d:/LiteOS_Lab/drivers/third_party/ST/STM32L4xx_HAL_Driver/Src\stm32l4xx_hal_rng.c **** /** @addtogroup RNG_Exported_Functions_Group2
 228:d:/LiteOS_Lab/drivers/third_party/ST/STM32L4xx_HAL_Driver/Src\stm32l4xx_hal_rng.c ****  *  @brief    Management functions. 
 229:d:/LiteOS_Lab/drivers/third_party/ST/STM32L4xx_HAL_Driver/Src\stm32l4xx_hal_rng.c ****  *
 230:d:/LiteOS_Lab/drivers/third_party/ST/STM32L4xx_HAL_Driver/Src\stm32l4xx_hal_rng.c **** @verbatim   
 231:d:/LiteOS_Lab/drivers/third_party/ST/STM32L4xx_HAL_Driver/Src\stm32l4xx_hal_rng.c ****  ===============================================================================
 232:d:/LiteOS_Lab/drivers/third_party/ST/STM32L4xx_HAL_Driver/Src\stm32l4xx_hal_rng.c ****                       ##### Peripheral Control functions #####
 233:d:/LiteOS_Lab/drivers/third_party/ST/STM32L4xx_HAL_Driver/Src\stm32l4xx_hal_rng.c ****  ===============================================================================  
 234:d:/LiteOS_Lab/drivers/third_party/ST/STM32L4xx_HAL_Driver/Src\stm32l4xx_hal_rng.c ****     [..]  This section provides functions allowing to:
 235:d:/LiteOS_Lab/drivers/third_party/ST/STM32L4xx_HAL_Driver/Src\stm32l4xx_hal_rng.c ****       (+) Get the 32 bit Random number
 236:d:/LiteOS_Lab/drivers/third_party/ST/STM32L4xx_HAL_Driver/Src\stm32l4xx_hal_rng.c ****       (+) Get the 32 bit Random number with interrupt enabled
 237:d:/LiteOS_Lab/drivers/third_party/ST/STM32L4xx_HAL_Driver/Src\stm32l4xx_hal_rng.c ****       (+) Handle RNG interrupt request 
 238:d:/LiteOS_Lab/drivers/third_party/ST/STM32L4xx_HAL_Driver/Src\stm32l4xx_hal_rng.c **** 
 239:d:/LiteOS_Lab/drivers/third_party/ST/STM32L4xx_HAL_Driver/Src\stm32l4xx_hal_rng.c **** @endverbatim
 240:d:/LiteOS_Lab/drivers/third_party/ST/STM32L4xx_HAL_Driver/Src\stm32l4xx_hal_rng.c ****   * @{
 241:d:/LiteOS_Lab/drivers/third_party/ST/STM32L4xx_HAL_Driver/Src\stm32l4xx_hal_rng.c ****   */
 242:d:/LiteOS_Lab/drivers/third_party/ST/STM32L4xx_HAL_Driver/Src\stm32l4xx_hal_rng.c **** 
 243:d:/LiteOS_Lab/drivers/third_party/ST/STM32L4xx_HAL_Driver/Src\stm32l4xx_hal_rng.c **** /**
 244:d:/LiteOS_Lab/drivers/third_party/ST/STM32L4xx_HAL_Driver/Src\stm32l4xx_hal_rng.c ****   * @brief  Generate a 32-bit random number.
 245:d:/LiteOS_Lab/drivers/third_party/ST/STM32L4xx_HAL_Driver/Src\stm32l4xx_hal_rng.c ****   * @note   Each time the random number data is read the RNG_FLAG_DRDY flag 
 246:d:/LiteOS_Lab/drivers/third_party/ST/STM32L4xx_HAL_Driver/Src\stm32l4xx_hal_rng.c ****   *         is automatically cleared.
 247:d:/LiteOS_Lab/drivers/third_party/ST/STM32L4xx_HAL_Driver/Src\stm32l4xx_hal_rng.c ****   * @param  hrng: pointer to a RNG_HandleTypeDef structure.
 248:d:/LiteOS_Lab/drivers/third_party/ST/STM32L4xx_HAL_Driver/Src\stm32l4xx_hal_rng.c ****   * @param  random32bit: pointer to generated random number variable if successful.
 249:d:/LiteOS_Lab/drivers/third_party/ST/STM32L4xx_HAL_Driver/Src\stm32l4xx_hal_rng.c ****   * @retval HAL status
 250:d:/LiteOS_Lab/drivers/third_party/ST/STM32L4xx_HAL_Driver/Src\stm32l4xx_hal_rng.c ****   */
ARM GAS  C:\Users\ADMINI~1\AppData\Local\Temp\ccDqwz7G.s 			page 10


 251:d:/LiteOS_Lab/drivers/third_party/ST/STM32L4xx_HAL_Driver/Src\stm32l4xx_hal_rng.c **** 
 252:d:/LiteOS_Lab/drivers/third_party/ST/STM32L4xx_HAL_Driver/Src\stm32l4xx_hal_rng.c **** HAL_StatusTypeDef HAL_RNG_GenerateRandomNumber(RNG_HandleTypeDef *hrng, uint32_t *random32bit)
 253:d:/LiteOS_Lab/drivers/third_party/ST/STM32L4xx_HAL_Driver/Src\stm32l4xx_hal_rng.c **** {
 273              		.loc 1 253 1
 274              		.cfi_startproc
 275              		@ args = 0, pretend = 0, frame = 16
 276              		@ frame_needed = 1, uses_anonymous_args = 0
 277 0000 80B5     		push	{r7, lr}
 278              	.LCFI22:
 279              		.cfi_def_cfa_offset 8
 280              		.cfi_offset 7, -8
 281              		.cfi_offset 14, -4
 282 0002 84B0     		sub	sp, sp, #16
 283              	.LCFI23:
 284              		.cfi_def_cfa_offset 24
 285 0004 00AF     		add	r7, sp, #0
 286              	.LCFI24:
 287              		.cfi_def_cfa_register 7
 288 0006 7860     		str	r0, [r7, #4]
 289 0008 3960     		str	r1, [r7]
 254:d:/LiteOS_Lab/drivers/third_party/ST/STM32L4xx_HAL_Driver/Src\stm32l4xx_hal_rng.c ****   uint32_t tickstart = 0;    
 290              		.loc 1 254 12
 291 000a 0023     		movs	r3, #0
 292 000c BB60     		str	r3, [r7, #8]
 255:d:/LiteOS_Lab/drivers/third_party/ST/STM32L4xx_HAL_Driver/Src\stm32l4xx_hal_rng.c ****   HAL_StatusTypeDef status = HAL_OK;
 293              		.loc 1 255 21
 294 000e 0023     		movs	r3, #0
 295 0010 FB73     		strb	r3, [r7, #15]
 256:d:/LiteOS_Lab/drivers/third_party/ST/STM32L4xx_HAL_Driver/Src\stm32l4xx_hal_rng.c **** 
 257:d:/LiteOS_Lab/drivers/third_party/ST/STM32L4xx_HAL_Driver/Src\stm32l4xx_hal_rng.c ****   /* Process Locked */
 258:d:/LiteOS_Lab/drivers/third_party/ST/STM32L4xx_HAL_Driver/Src\stm32l4xx_hal_rng.c ****   __HAL_LOCK(hrng); 
 296              		.loc 1 258 3
 297 0012 7B68     		ldr	r3, [r7, #4]
 298 0014 1B79     		ldrb	r3, [r3, #4]	@ zero_extendqisi2
 299 0016 012B     		cmp	r3, #1
 300 0018 01D1     		bne	.L11
 301              		.loc 1 258 3 is_stmt 0 discriminator 1
 302 001a 0223     		movs	r3, #2
 303 001c 37E0     		b	.L12
 304              	.L11:
 305              		.loc 1 258 3 discriminator 2
 306 001e 7B68     		ldr	r3, [r7, #4]
 307 0020 0122     		movs	r2, #1
 308 0022 1A71     		strb	r2, [r3, #4]
 259:d:/LiteOS_Lab/drivers/third_party/ST/STM32L4xx_HAL_Driver/Src\stm32l4xx_hal_rng.c ****   
 260:d:/LiteOS_Lab/drivers/third_party/ST/STM32L4xx_HAL_Driver/Src\stm32l4xx_hal_rng.c ****   /* Check RNS peripheral state */
 261:d:/LiteOS_Lab/drivers/third_party/ST/STM32L4xx_HAL_Driver/Src\stm32l4xx_hal_rng.c ****   if(hrng->State == HAL_RNG_STATE_READY)
 309              		.loc 1 261 10 is_stmt 1 discriminator 2
 310 0024 7B68     		ldr	r3, [r7, #4]
 311 0026 5B79     		ldrb	r3, [r3, #5]
 312 0028 DBB2     		uxtb	r3, r3
 313              		.loc 1 261 5 discriminator 2
 314 002a 012B     		cmp	r3, #1
 315 002c 29D1     		bne	.L13
 262:d:/LiteOS_Lab/drivers/third_party/ST/STM32L4xx_HAL_Driver/Src\stm32l4xx_hal_rng.c ****   {
 263:d:/LiteOS_Lab/drivers/third_party/ST/STM32L4xx_HAL_Driver/Src\stm32l4xx_hal_rng.c ****     /* Change RNG peripheral state */  
 264:d:/LiteOS_Lab/drivers/third_party/ST/STM32L4xx_HAL_Driver/Src\stm32l4xx_hal_rng.c ****     hrng->State = HAL_RNG_STATE_BUSY;  
ARM GAS  C:\Users\ADMINI~1\AppData\Local\Temp\ccDqwz7G.s 			page 11


 316              		.loc 1 264 17
 317 002e 7B68     		ldr	r3, [r7, #4]
 318 0030 0222     		movs	r2, #2
 319 0032 5A71     		strb	r2, [r3, #5]
 265:d:/LiteOS_Lab/drivers/third_party/ST/STM32L4xx_HAL_Driver/Src\stm32l4xx_hal_rng.c **** 
 266:d:/LiteOS_Lab/drivers/third_party/ST/STM32L4xx_HAL_Driver/Src\stm32l4xx_hal_rng.c ****     /* Get tick */
 267:d:/LiteOS_Lab/drivers/third_party/ST/STM32L4xx_HAL_Driver/Src\stm32l4xx_hal_rng.c ****     tickstart = HAL_GetTick();
 320              		.loc 1 267 17
 321 0034 FFF7FEFF 		bl	HAL_GetTick
 322 0038 B860     		str	r0, [r7, #8]
 268:d:/LiteOS_Lab/drivers/third_party/ST/STM32L4xx_HAL_Driver/Src\stm32l4xx_hal_rng.c ****   
 269:d:/LiteOS_Lab/drivers/third_party/ST/STM32L4xx_HAL_Driver/Src\stm32l4xx_hal_rng.c ****     /* Check if data register contains valid random data */
 270:d:/LiteOS_Lab/drivers/third_party/ST/STM32L4xx_HAL_Driver/Src\stm32l4xx_hal_rng.c ****     while(__HAL_RNG_GET_FLAG(hrng, RNG_FLAG_DRDY) == RESET)
 323              		.loc 1 270 10
 324 003a 0EE0     		b	.L14
 325              	.L15:
 271:d:/LiteOS_Lab/drivers/third_party/ST/STM32L4xx_HAL_Driver/Src\stm32l4xx_hal_rng.c ****     {
 272:d:/LiteOS_Lab/drivers/third_party/ST/STM32L4xx_HAL_Driver/Src\stm32l4xx_hal_rng.c ****       if((HAL_GetTick() - tickstart ) > RNG_TIMEOUT_VALUE)
 326              		.loc 1 272 11
 327 003c FFF7FEFF 		bl	HAL_GetTick
 328 0040 0246     		mov	r2, r0
 329              		.loc 1 272 25
 330 0042 BB68     		ldr	r3, [r7, #8]
 331 0044 D31A     		subs	r3, r2, r3
 332              		.loc 1 272 9
 333 0046 022B     		cmp	r3, #2
 334 0048 07D9     		bls	.L14
 273:d:/LiteOS_Lab/drivers/third_party/ST/STM32L4xx_HAL_Driver/Src\stm32l4xx_hal_rng.c ****       {    
 274:d:/LiteOS_Lab/drivers/third_party/ST/STM32L4xx_HAL_Driver/Src\stm32l4xx_hal_rng.c ****         hrng->State = HAL_RNG_STATE_ERROR;
 335              		.loc 1 274 21
 336 004a 7B68     		ldr	r3, [r7, #4]
 337 004c 0422     		movs	r2, #4
 338 004e 5A71     		strb	r2, [r3, #5]
 275:d:/LiteOS_Lab/drivers/third_party/ST/STM32L4xx_HAL_Driver/Src\stm32l4xx_hal_rng.c **** 
 276:d:/LiteOS_Lab/drivers/third_party/ST/STM32L4xx_HAL_Driver/Src\stm32l4xx_hal_rng.c ****         /* Process Unlocked */
 277:d:/LiteOS_Lab/drivers/third_party/ST/STM32L4xx_HAL_Driver/Src\stm32l4xx_hal_rng.c ****         __HAL_UNLOCK(hrng);
 339              		.loc 1 277 9
 340 0050 7B68     		ldr	r3, [r7, #4]
 341 0052 0022     		movs	r2, #0
 342 0054 1A71     		strb	r2, [r3, #4]
 278:d:/LiteOS_Lab/drivers/third_party/ST/STM32L4xx_HAL_Driver/Src\stm32l4xx_hal_rng.c ****       
 279:d:/LiteOS_Lab/drivers/third_party/ST/STM32L4xx_HAL_Driver/Src\stm32l4xx_hal_rng.c ****         return HAL_TIMEOUT;
 343              		.loc 1 279 16
 344 0056 0323     		movs	r3, #3
 345 0058 19E0     		b	.L12
 346              	.L14:
 270:d:/LiteOS_Lab/drivers/third_party/ST/STM32L4xx_HAL_Driver/Src\stm32l4xx_hal_rng.c ****     {
 347              		.loc 1 270 11
 348 005a 7B68     		ldr	r3, [r7, #4]
 349 005c 1B68     		ldr	r3, [r3]
 350 005e 5B68     		ldr	r3, [r3, #4]
 351 0060 03F00103 		and	r3, r3, #1
 270:d:/LiteOS_Lab/drivers/third_party/ST/STM32L4xx_HAL_Driver/Src\stm32l4xx_hal_rng.c ****     {
 352              		.loc 1 270 10
 353 0064 012B     		cmp	r3, #1
 354 0066 E9D1     		bne	.L15
 280:d:/LiteOS_Lab/drivers/third_party/ST/STM32L4xx_HAL_Driver/Src\stm32l4xx_hal_rng.c ****       } 
ARM GAS  C:\Users\ADMINI~1\AppData\Local\Temp\ccDqwz7G.s 			page 12


 281:d:/LiteOS_Lab/drivers/third_party/ST/STM32L4xx_HAL_Driver/Src\stm32l4xx_hal_rng.c ****     }
 282:d:/LiteOS_Lab/drivers/third_party/ST/STM32L4xx_HAL_Driver/Src\stm32l4xx_hal_rng.c ****   
 283:d:/LiteOS_Lab/drivers/third_party/ST/STM32L4xx_HAL_Driver/Src\stm32l4xx_hal_rng.c ****     /* Get a 32bit Random number */
 284:d:/LiteOS_Lab/drivers/third_party/ST/STM32L4xx_HAL_Driver/Src\stm32l4xx_hal_rng.c ****     hrng->RandomNumber = hrng->Instance->DR;
 355              		.loc 1 284 30
 356 0068 7B68     		ldr	r3, [r7, #4]
 357 006a 1B68     		ldr	r3, [r3]
 358              		.loc 1 284 40
 359 006c 9A68     		ldr	r2, [r3, #8]
 360              		.loc 1 284 24
 361 006e 7B68     		ldr	r3, [r7, #4]
 362 0070 9A60     		str	r2, [r3, #8]
 285:d:/LiteOS_Lab/drivers/third_party/ST/STM32L4xx_HAL_Driver/Src\stm32l4xx_hal_rng.c ****     *random32bit = hrng->RandomNumber;
 363              		.loc 1 285 24
 364 0072 7B68     		ldr	r3, [r7, #4]
 365 0074 9A68     		ldr	r2, [r3, #8]
 366              		.loc 1 285 18
 367 0076 3B68     		ldr	r3, [r7]
 368 0078 1A60     		str	r2, [r3]
 286:d:/LiteOS_Lab/drivers/third_party/ST/STM32L4xx_HAL_Driver/Src\stm32l4xx_hal_rng.c ****   
 287:d:/LiteOS_Lab/drivers/third_party/ST/STM32L4xx_HAL_Driver/Src\stm32l4xx_hal_rng.c ****     hrng->State = HAL_RNG_STATE_READY;
 369              		.loc 1 287 17
 370 007a 7B68     		ldr	r3, [r7, #4]
 371 007c 0122     		movs	r2, #1
 372 007e 5A71     		strb	r2, [r3, #5]
 373 0080 01E0     		b	.L16
 374              	.L13:
 288:d:/LiteOS_Lab/drivers/third_party/ST/STM32L4xx_HAL_Driver/Src\stm32l4xx_hal_rng.c ****   }
 289:d:/LiteOS_Lab/drivers/third_party/ST/STM32L4xx_HAL_Driver/Src\stm32l4xx_hal_rng.c ****   else
 290:d:/LiteOS_Lab/drivers/third_party/ST/STM32L4xx_HAL_Driver/Src\stm32l4xx_hal_rng.c ****   {
 291:d:/LiteOS_Lab/drivers/third_party/ST/STM32L4xx_HAL_Driver/Src\stm32l4xx_hal_rng.c ****     status = HAL_ERROR;
 375              		.loc 1 291 12
 376 0082 0123     		movs	r3, #1
 377 0084 FB73     		strb	r3, [r7, #15]
 378              	.L16:
 292:d:/LiteOS_Lab/drivers/third_party/ST/STM32L4xx_HAL_Driver/Src\stm32l4xx_hal_rng.c ****   }
 293:d:/LiteOS_Lab/drivers/third_party/ST/STM32L4xx_HAL_Driver/Src\stm32l4xx_hal_rng.c ****   
 294:d:/LiteOS_Lab/drivers/third_party/ST/STM32L4xx_HAL_Driver/Src\stm32l4xx_hal_rng.c ****   /* Process Unlocked */
 295:d:/LiteOS_Lab/drivers/third_party/ST/STM32L4xx_HAL_Driver/Src\stm32l4xx_hal_rng.c ****   __HAL_UNLOCK(hrng);
 379              		.loc 1 295 3
 380 0086 7B68     		ldr	r3, [r7, #4]
 381 0088 0022     		movs	r2, #0
 382 008a 1A71     		strb	r2, [r3, #4]
 296:d:/LiteOS_Lab/drivers/third_party/ST/STM32L4xx_HAL_Driver/Src\stm32l4xx_hal_rng.c **** 
 297:d:/LiteOS_Lab/drivers/third_party/ST/STM32L4xx_HAL_Driver/Src\stm32l4xx_hal_rng.c ****   return status;
 383              		.loc 1 297 10
 384 008c FB7B     		ldrb	r3, [r7, #15]	@ zero_extendqisi2
 385              	.L12:
 298:d:/LiteOS_Lab/drivers/third_party/ST/STM32L4xx_HAL_Driver/Src\stm32l4xx_hal_rng.c **** }
 386              		.loc 1 298 1
 387 008e 1846     		mov	r0, r3
 388 0090 1037     		adds	r7, r7, #16
 389              	.LCFI25:
 390              		.cfi_def_cfa_offset 8
 391 0092 BD46     		mov	sp, r7
 392              	.LCFI26:
 393              		.cfi_def_cfa_register 13
ARM GAS  C:\Users\ADMINI~1\AppData\Local\Temp\ccDqwz7G.s 			page 13


 394              		@ sp needed
 395 0094 80BD     		pop	{r7, pc}
 396              		.cfi_endproc
 397              	.LFE291:
 399              		.section	.text.HAL_RNG_GenerateRandomNumber_IT,"ax",%progbits
 400              		.align	1
 401              		.global	HAL_RNG_GenerateRandomNumber_IT
 402              		.syntax unified
 403              		.thumb
 404              		.thumb_func
 405              		.fpu fpv4-sp-d16
 407              	HAL_RNG_GenerateRandomNumber_IT:
 408              	.LFB292:
 299:d:/LiteOS_Lab/drivers/third_party/ST/STM32L4xx_HAL_Driver/Src\stm32l4xx_hal_rng.c **** 
 300:d:/LiteOS_Lab/drivers/third_party/ST/STM32L4xx_HAL_Driver/Src\stm32l4xx_hal_rng.c **** /**
 301:d:/LiteOS_Lab/drivers/third_party/ST/STM32L4xx_HAL_Driver/Src\stm32l4xx_hal_rng.c ****   * @brief  Generate a 32-bit random number in interrupt mode.
 302:d:/LiteOS_Lab/drivers/third_party/ST/STM32L4xx_HAL_Driver/Src\stm32l4xx_hal_rng.c ****   * @param  hrng: pointer to a RNG_HandleTypeDef structure.
 303:d:/LiteOS_Lab/drivers/third_party/ST/STM32L4xx_HAL_Driver/Src\stm32l4xx_hal_rng.c ****   * @retval HAL status
 304:d:/LiteOS_Lab/drivers/third_party/ST/STM32L4xx_HAL_Driver/Src\stm32l4xx_hal_rng.c ****   */
 305:d:/LiteOS_Lab/drivers/third_party/ST/STM32L4xx_HAL_Driver/Src\stm32l4xx_hal_rng.c **** HAL_StatusTypeDef HAL_RNG_GenerateRandomNumber_IT(RNG_HandleTypeDef *hrng)
 306:d:/LiteOS_Lab/drivers/third_party/ST/STM32L4xx_HAL_Driver/Src\stm32l4xx_hal_rng.c **** {
 409              		.loc 1 306 1
 410              		.cfi_startproc
 411              		@ args = 0, pretend = 0, frame = 16
 412              		@ frame_needed = 1, uses_anonymous_args = 0
 413              		@ link register save eliminated.
 414 0000 80B4     		push	{r7}
 415              	.LCFI27:
 416              		.cfi_def_cfa_offset 4
 417              		.cfi_offset 7, -4
 418 0002 85B0     		sub	sp, sp, #20
 419              	.LCFI28:
 420              		.cfi_def_cfa_offset 24
 421 0004 00AF     		add	r7, sp, #0
 422              	.LCFI29:
 423              		.cfi_def_cfa_register 7
 424 0006 7860     		str	r0, [r7, #4]
 307:d:/LiteOS_Lab/drivers/third_party/ST/STM32L4xx_HAL_Driver/Src\stm32l4xx_hal_rng.c ****   HAL_StatusTypeDef status = HAL_OK;
 425              		.loc 1 307 21
 426 0008 0023     		movs	r3, #0
 427 000a FB73     		strb	r3, [r7, #15]
 308:d:/LiteOS_Lab/drivers/third_party/ST/STM32L4xx_HAL_Driver/Src\stm32l4xx_hal_rng.c ****   
 309:d:/LiteOS_Lab/drivers/third_party/ST/STM32L4xx_HAL_Driver/Src\stm32l4xx_hal_rng.c ****   /* Process Locked */
 310:d:/LiteOS_Lab/drivers/third_party/ST/STM32L4xx_HAL_Driver/Src\stm32l4xx_hal_rng.c ****   __HAL_LOCK(hrng);
 428              		.loc 1 310 3
 429 000c 7B68     		ldr	r3, [r7, #4]
 430 000e 1B79     		ldrb	r3, [r3, #4]	@ zero_extendqisi2
 431 0010 012B     		cmp	r3, #1
 432 0012 01D1     		bne	.L18
 433              		.loc 1 310 3 is_stmt 0 discriminator 1
 434 0014 0223     		movs	r3, #2
 435 0016 1CE0     		b	.L19
 436              	.L18:
 437              		.loc 1 310 3 discriminator 2
 438 0018 7B68     		ldr	r3, [r7, #4]
 439 001a 0122     		movs	r2, #1
 440 001c 1A71     		strb	r2, [r3, #4]
ARM GAS  C:\Users\ADMINI~1\AppData\Local\Temp\ccDqwz7G.s 			page 14


 311:d:/LiteOS_Lab/drivers/third_party/ST/STM32L4xx_HAL_Driver/Src\stm32l4xx_hal_rng.c ****   
 312:d:/LiteOS_Lab/drivers/third_party/ST/STM32L4xx_HAL_Driver/Src\stm32l4xx_hal_rng.c ****   /* Check RNG peripheral state */
 313:d:/LiteOS_Lab/drivers/third_party/ST/STM32L4xx_HAL_Driver/Src\stm32l4xx_hal_rng.c ****   if(hrng->State == HAL_RNG_STATE_READY)
 441              		.loc 1 313 10 is_stmt 1 discriminator 2
 442 001e 7B68     		ldr	r3, [r7, #4]
 443 0020 5B79     		ldrb	r3, [r3, #5]
 444 0022 DBB2     		uxtb	r3, r3
 445              		.loc 1 313 5 discriminator 2
 446 0024 012B     		cmp	r3, #1
 447 0026 0ED1     		bne	.L20
 314:d:/LiteOS_Lab/drivers/third_party/ST/STM32L4xx_HAL_Driver/Src\stm32l4xx_hal_rng.c ****   {
 315:d:/LiteOS_Lab/drivers/third_party/ST/STM32L4xx_HAL_Driver/Src\stm32l4xx_hal_rng.c ****     /* Change RNG peripheral state */  
 316:d:/LiteOS_Lab/drivers/third_party/ST/STM32L4xx_HAL_Driver/Src\stm32l4xx_hal_rng.c ****     hrng->State = HAL_RNG_STATE_BUSY;  
 448              		.loc 1 316 17
 449 0028 7B68     		ldr	r3, [r7, #4]
 450 002a 0222     		movs	r2, #2
 451 002c 5A71     		strb	r2, [r3, #5]
 317:d:/LiteOS_Lab/drivers/third_party/ST/STM32L4xx_HAL_Driver/Src\stm32l4xx_hal_rng.c ****   
 318:d:/LiteOS_Lab/drivers/third_party/ST/STM32L4xx_HAL_Driver/Src\stm32l4xx_hal_rng.c ****     /* Process Unlocked */
 319:d:/LiteOS_Lab/drivers/third_party/ST/STM32L4xx_HAL_Driver/Src\stm32l4xx_hal_rng.c ****     __HAL_UNLOCK(hrng);
 452              		.loc 1 319 5
 453 002e 7B68     		ldr	r3, [r7, #4]
 454 0030 0022     		movs	r2, #0
 455 0032 1A71     		strb	r2, [r3, #4]
 320:d:/LiteOS_Lab/drivers/third_party/ST/STM32L4xx_HAL_Driver/Src\stm32l4xx_hal_rng.c ****     
 321:d:/LiteOS_Lab/drivers/third_party/ST/STM32L4xx_HAL_Driver/Src\stm32l4xx_hal_rng.c ****     /* Enable the RNG Interrupts: Data Ready, Clock error, Seed error */ 
 322:d:/LiteOS_Lab/drivers/third_party/ST/STM32L4xx_HAL_Driver/Src\stm32l4xx_hal_rng.c ****     __HAL_RNG_ENABLE_IT(hrng);
 456              		.loc 1 322 5
 457 0034 7B68     		ldr	r3, [r7, #4]
 458 0036 1B68     		ldr	r3, [r3]
 459 0038 1A68     		ldr	r2, [r3]
 460 003a 7B68     		ldr	r3, [r7, #4]
 461 003c 1B68     		ldr	r3, [r3]
 462 003e 42F00802 		orr	r2, r2, #8
 463 0042 1A60     		str	r2, [r3]
 464 0044 04E0     		b	.L21
 465              	.L20:
 323:d:/LiteOS_Lab/drivers/third_party/ST/STM32L4xx_HAL_Driver/Src\stm32l4xx_hal_rng.c ****   }
 324:d:/LiteOS_Lab/drivers/third_party/ST/STM32L4xx_HAL_Driver/Src\stm32l4xx_hal_rng.c ****   else
 325:d:/LiteOS_Lab/drivers/third_party/ST/STM32L4xx_HAL_Driver/Src\stm32l4xx_hal_rng.c ****   {
 326:d:/LiteOS_Lab/drivers/third_party/ST/STM32L4xx_HAL_Driver/Src\stm32l4xx_hal_rng.c ****     /* Process Unlocked */
 327:d:/LiteOS_Lab/drivers/third_party/ST/STM32L4xx_HAL_Driver/Src\stm32l4xx_hal_rng.c ****     __HAL_UNLOCK(hrng);
 466              		.loc 1 327 5
 467 0046 7B68     		ldr	r3, [r7, #4]
 468 0048 0022     		movs	r2, #0
 469 004a 1A71     		strb	r2, [r3, #4]
 328:d:/LiteOS_Lab/drivers/third_party/ST/STM32L4xx_HAL_Driver/Src\stm32l4xx_hal_rng.c ****     
 329:d:/LiteOS_Lab/drivers/third_party/ST/STM32L4xx_HAL_Driver/Src\stm32l4xx_hal_rng.c ****     status = HAL_ERROR;
 470              		.loc 1 329 12
 471 004c 0123     		movs	r3, #1
 472 004e FB73     		strb	r3, [r7, #15]
 473              	.L21:
 330:d:/LiteOS_Lab/drivers/third_party/ST/STM32L4xx_HAL_Driver/Src\stm32l4xx_hal_rng.c ****   }
 331:d:/LiteOS_Lab/drivers/third_party/ST/STM32L4xx_HAL_Driver/Src\stm32l4xx_hal_rng.c ****   
 332:d:/LiteOS_Lab/drivers/third_party/ST/STM32L4xx_HAL_Driver/Src\stm32l4xx_hal_rng.c ****   return status;
 474              		.loc 1 332 10
 475 0050 FB7B     		ldrb	r3, [r7, #15]	@ zero_extendqisi2
ARM GAS  C:\Users\ADMINI~1\AppData\Local\Temp\ccDqwz7G.s 			page 15


 476              	.L19:
 333:d:/LiteOS_Lab/drivers/third_party/ST/STM32L4xx_HAL_Driver/Src\stm32l4xx_hal_rng.c **** }
 477              		.loc 1 333 1
 478 0052 1846     		mov	r0, r3
 479 0054 1437     		adds	r7, r7, #20
 480              	.LCFI30:
 481              		.cfi_def_cfa_offset 4
 482 0056 BD46     		mov	sp, r7
 483              	.LCFI31:
 484              		.cfi_def_cfa_register 13
 485              		@ sp needed
 486 0058 5DF8047B 		ldr	r7, [sp], #4
 487              	.LCFI32:
 488              		.cfi_restore 7
 489              		.cfi_def_cfa_offset 0
 490 005c 7047     		bx	lr
 491              		.cfi_endproc
 492              	.LFE292:
 494              		.section	.text.HAL_RNG_IRQHandler,"ax",%progbits
 495              		.align	1
 496              		.global	HAL_RNG_IRQHandler
 497              		.syntax unified
 498              		.thumb
 499              		.thumb_func
 500              		.fpu fpv4-sp-d16
 502              	HAL_RNG_IRQHandler:
 503              	.LFB293:
 334:d:/LiteOS_Lab/drivers/third_party/ST/STM32L4xx_HAL_Driver/Src\stm32l4xx_hal_rng.c **** 
 335:d:/LiteOS_Lab/drivers/third_party/ST/STM32L4xx_HAL_Driver/Src\stm32l4xx_hal_rng.c **** /**
 336:d:/LiteOS_Lab/drivers/third_party/ST/STM32L4xx_HAL_Driver/Src\stm32l4xx_hal_rng.c ****   * @brief  Handle RNG interrupt request.
 337:d:/LiteOS_Lab/drivers/third_party/ST/STM32L4xx_HAL_Driver/Src\stm32l4xx_hal_rng.c ****   * @note   In the case of a clock error, the RNG is no more able to generate 
 338:d:/LiteOS_Lab/drivers/third_party/ST/STM32L4xx_HAL_Driver/Src\stm32l4xx_hal_rng.c ****   *         random numbers because the PLL48CLK clock is not correct. User has 
 339:d:/LiteOS_Lab/drivers/third_party/ST/STM32L4xx_HAL_Driver/Src\stm32l4xx_hal_rng.c ****   *         to check that the clock controller is correctly configured to provide
 340:d:/LiteOS_Lab/drivers/third_party/ST/STM32L4xx_HAL_Driver/Src\stm32l4xx_hal_rng.c ****   *         the RNG clock and clear the CEIS bit using __HAL_RNG_CLEAR_IT(). 
 341:d:/LiteOS_Lab/drivers/third_party/ST/STM32L4xx_HAL_Driver/Src\stm32l4xx_hal_rng.c ****   *         The clock error has no impact on the previously generated 
 342:d:/LiteOS_Lab/drivers/third_party/ST/STM32L4xx_HAL_Driver/Src\stm32l4xx_hal_rng.c ****   *         random numbers, and the RNG_DR register contents can be used.
 343:d:/LiteOS_Lab/drivers/third_party/ST/STM32L4xx_HAL_Driver/Src\stm32l4xx_hal_rng.c ****   * @note   In the case of a seed error, the generation of random numbers is 
 344:d:/LiteOS_Lab/drivers/third_party/ST/STM32L4xx_HAL_Driver/Src\stm32l4xx_hal_rng.c ****   *         interrupted as long as the SECS bit is '1'. If a number is 
 345:d:/LiteOS_Lab/drivers/third_party/ST/STM32L4xx_HAL_Driver/Src\stm32l4xx_hal_rng.c ****   *         available in the RNG_DR register, it must not be used because it may 
 346:d:/LiteOS_Lab/drivers/third_party/ST/STM32L4xx_HAL_Driver/Src\stm32l4xx_hal_rng.c ****   *         not have enough entropy. In this case, it is recommended to clear the 
 347:d:/LiteOS_Lab/drivers/third_party/ST/STM32L4xx_HAL_Driver/Src\stm32l4xx_hal_rng.c ****   *         SEIS bit using __HAL_RNG_CLEAR_IT(), then disable and enable 
 348:d:/LiteOS_Lab/drivers/third_party/ST/STM32L4xx_HAL_Driver/Src\stm32l4xx_hal_rng.c ****   *         the RNG peripheral to reinitialize and restart the RNG.
 349:d:/LiteOS_Lab/drivers/third_party/ST/STM32L4xx_HAL_Driver/Src\stm32l4xx_hal_rng.c ****   * @note   User-written HAL_RNG_ErrorCallback() API is called once whether SEIS
 350:d:/LiteOS_Lab/drivers/third_party/ST/STM32L4xx_HAL_Driver/Src\stm32l4xx_hal_rng.c ****   *         or CEIS are set.  
 351:d:/LiteOS_Lab/drivers/third_party/ST/STM32L4xx_HAL_Driver/Src\stm32l4xx_hal_rng.c ****   * @param  hrng: pointer to a RNG_HandleTypeDef structure.
 352:d:/LiteOS_Lab/drivers/third_party/ST/STM32L4xx_HAL_Driver/Src\stm32l4xx_hal_rng.c ****   * @retval None
 353:d:/LiteOS_Lab/drivers/third_party/ST/STM32L4xx_HAL_Driver/Src\stm32l4xx_hal_rng.c **** 
 354:d:/LiteOS_Lab/drivers/third_party/ST/STM32L4xx_HAL_Driver/Src\stm32l4xx_hal_rng.c ****   */
 355:d:/LiteOS_Lab/drivers/third_party/ST/STM32L4xx_HAL_Driver/Src\stm32l4xx_hal_rng.c **** void HAL_RNG_IRQHandler(RNG_HandleTypeDef *hrng)
 356:d:/LiteOS_Lab/drivers/third_party/ST/STM32L4xx_HAL_Driver/Src\stm32l4xx_hal_rng.c **** {
 504              		.loc 1 356 1
 505              		.cfi_startproc
 506              		@ args = 0, pretend = 0, frame = 8
 507              		@ frame_needed = 1, uses_anonymous_args = 0
 508 0000 80B5     		push	{r7, lr}
 509              	.LCFI33:
 510              		.cfi_def_cfa_offset 8
ARM GAS  C:\Users\ADMINI~1\AppData\Local\Temp\ccDqwz7G.s 			page 16


 511              		.cfi_offset 7, -8
 512              		.cfi_offset 14, -4
 513 0002 82B0     		sub	sp, sp, #8
 514              	.LCFI34:
 515              		.cfi_def_cfa_offset 16
 516 0004 00AF     		add	r7, sp, #0
 517              	.LCFI35:
 518              		.cfi_def_cfa_register 7
 519 0006 7860     		str	r0, [r7, #4]
 357:d:/LiteOS_Lab/drivers/third_party/ST/STM32L4xx_HAL_Driver/Src\stm32l4xx_hal_rng.c ****   /* RNG clock error interrupt occurred */
 358:d:/LiteOS_Lab/drivers/third_party/ST/STM32L4xx_HAL_Driver/Src\stm32l4xx_hal_rng.c ****   if((__HAL_RNG_GET_IT(hrng, RNG_IT_CEI) != RESET) ||  (__HAL_RNG_GET_IT(hrng, RNG_IT_SEI) != RESET
 520              		.loc 1 358 7
 521 0008 7B68     		ldr	r3, [r7, #4]
 522 000a 1B68     		ldr	r3, [r3]
 523 000c 5B68     		ldr	r3, [r3, #4]
 524 000e 03F02003 		and	r3, r3, #32
 525              		.loc 1 358 5
 526 0012 202B     		cmp	r3, #32
 527 0014 06D0     		beq	.L23
 528              		.loc 1 358 57 discriminator 1
 529 0016 7B68     		ldr	r3, [r7, #4]
 530 0018 1B68     		ldr	r3, [r3]
 531 001a 5B68     		ldr	r3, [r3, #4]
 532 001c 03F04003 		and	r3, r3, #64
 533              		.loc 1 358 52 discriminator 1
 534 0020 402B     		cmp	r3, #64
 535 0022 0AD1     		bne	.L24
 536              	.L23:
 359:d:/LiteOS_Lab/drivers/third_party/ST/STM32L4xx_HAL_Driver/Src\stm32l4xx_hal_rng.c ****   { 
 360:d:/LiteOS_Lab/drivers/third_party/ST/STM32L4xx_HAL_Driver/Src\stm32l4xx_hal_rng.c ****     /* Change RNG peripheral state */
 361:d:/LiteOS_Lab/drivers/third_party/ST/STM32L4xx_HAL_Driver/Src\stm32l4xx_hal_rng.c ****     hrng->State = HAL_RNG_STATE_ERROR;
 537              		.loc 1 361 17
 538 0024 7B68     		ldr	r3, [r7, #4]
 539 0026 0422     		movs	r2, #4
 540 0028 5A71     		strb	r2, [r3, #5]
 362:d:/LiteOS_Lab/drivers/third_party/ST/STM32L4xx_HAL_Driver/Src\stm32l4xx_hal_rng.c ****   
 363:d:/LiteOS_Lab/drivers/third_party/ST/STM32L4xx_HAL_Driver/Src\stm32l4xx_hal_rng.c ****     HAL_RNG_ErrorCallback(hrng);
 541              		.loc 1 363 5
 542 002a 7868     		ldr	r0, [r7, #4]
 543 002c FFF7FEFF 		bl	HAL_RNG_ErrorCallback
 364:d:/LiteOS_Lab/drivers/third_party/ST/STM32L4xx_HAL_Driver/Src\stm32l4xx_hal_rng.c ****     
 365:d:/LiteOS_Lab/drivers/third_party/ST/STM32L4xx_HAL_Driver/Src\stm32l4xx_hal_rng.c ****     /* Clear the clock error flag */
 366:d:/LiteOS_Lab/drivers/third_party/ST/STM32L4xx_HAL_Driver/Src\stm32l4xx_hal_rng.c ****     __HAL_RNG_CLEAR_IT(hrng, RNG_IT_CEI|RNG_IT_SEI);
 544              		.loc 1 366 5
 545 0030 7B68     		ldr	r3, [r7, #4]
 546 0032 1B68     		ldr	r3, [r3]
 547 0034 6FF06002 		mvn	r2, #96
 548 0038 5A60     		str	r2, [r3, #4]
 549              	.L24:
 367:d:/LiteOS_Lab/drivers/third_party/ST/STM32L4xx_HAL_Driver/Src\stm32l4xx_hal_rng.c ****     
 368:d:/LiteOS_Lab/drivers/third_party/ST/STM32L4xx_HAL_Driver/Src\stm32l4xx_hal_rng.c ****   }
 369:d:/LiteOS_Lab/drivers/third_party/ST/STM32L4xx_HAL_Driver/Src\stm32l4xx_hal_rng.c ****   
 370:d:/LiteOS_Lab/drivers/third_party/ST/STM32L4xx_HAL_Driver/Src\stm32l4xx_hal_rng.c ****   /* Check RNG data ready interrupt occurred */    
 371:d:/LiteOS_Lab/drivers/third_party/ST/STM32L4xx_HAL_Driver/Src\stm32l4xx_hal_rng.c ****   if(__HAL_RNG_GET_IT(hrng, RNG_IT_DRDY) != RESET)
 550              		.loc 1 371 6
 551 003a 7B68     		ldr	r3, [r7, #4]
 552 003c 1B68     		ldr	r3, [r3]
ARM GAS  C:\Users\ADMINI~1\AppData\Local\Temp\ccDqwz7G.s 			page 17


 553 003e 5B68     		ldr	r3, [r3, #4]
 554 0040 03F00103 		and	r3, r3, #1
 555              		.loc 1 371 5
 556 0044 012B     		cmp	r3, #1
 557 0046 1AD1     		bne	.L26
 372:d:/LiteOS_Lab/drivers/third_party/ST/STM32L4xx_HAL_Driver/Src\stm32l4xx_hal_rng.c ****   {
 373:d:/LiteOS_Lab/drivers/third_party/ST/STM32L4xx_HAL_Driver/Src\stm32l4xx_hal_rng.c ****     /* Generate random number once, so disable the IT */
 374:d:/LiteOS_Lab/drivers/third_party/ST/STM32L4xx_HAL_Driver/Src\stm32l4xx_hal_rng.c ****     __HAL_RNG_DISABLE_IT(hrng);
 558              		.loc 1 374 5
 559 0048 7B68     		ldr	r3, [r7, #4]
 560 004a 1B68     		ldr	r3, [r3]
 561 004c 1A68     		ldr	r2, [r3]
 562 004e 7B68     		ldr	r3, [r7, #4]
 563 0050 1B68     		ldr	r3, [r3]
 564 0052 22F00802 		bic	r2, r2, #8
 565 0056 1A60     		str	r2, [r3]
 375:d:/LiteOS_Lab/drivers/third_party/ST/STM32L4xx_HAL_Driver/Src\stm32l4xx_hal_rng.c ****     
 376:d:/LiteOS_Lab/drivers/third_party/ST/STM32L4xx_HAL_Driver/Src\stm32l4xx_hal_rng.c ****     /* Get the 32bit Random number (DRDY flag automatically cleared) */ 
 377:d:/LiteOS_Lab/drivers/third_party/ST/STM32L4xx_HAL_Driver/Src\stm32l4xx_hal_rng.c ****     hrng->RandomNumber = hrng->Instance->DR;
 566              		.loc 1 377 30
 567 0058 7B68     		ldr	r3, [r7, #4]
 568 005a 1B68     		ldr	r3, [r3]
 569              		.loc 1 377 40
 570 005c 9A68     		ldr	r2, [r3, #8]
 571              		.loc 1 377 24
 572 005e 7B68     		ldr	r3, [r7, #4]
 573 0060 9A60     		str	r2, [r3, #8]
 378:d:/LiteOS_Lab/drivers/third_party/ST/STM32L4xx_HAL_Driver/Src\stm32l4xx_hal_rng.c ****     
 379:d:/LiteOS_Lab/drivers/third_party/ST/STM32L4xx_HAL_Driver/Src\stm32l4xx_hal_rng.c ****     if(hrng->State != HAL_RNG_STATE_ERROR)
 574              		.loc 1 379 12
 575 0062 7B68     		ldr	r3, [r7, #4]
 576 0064 5B79     		ldrb	r3, [r3, #5]
 577 0066 DBB2     		uxtb	r3, r3
 578              		.loc 1 379 7
 579 0068 042B     		cmp	r3, #4
 580 006a 08D0     		beq	.L26
 380:d:/LiteOS_Lab/drivers/third_party/ST/STM32L4xx_HAL_Driver/Src\stm32l4xx_hal_rng.c ****     {
 381:d:/LiteOS_Lab/drivers/third_party/ST/STM32L4xx_HAL_Driver/Src\stm32l4xx_hal_rng.c ****       /* Change RNG peripheral state */
 382:d:/LiteOS_Lab/drivers/third_party/ST/STM32L4xx_HAL_Driver/Src\stm32l4xx_hal_rng.c ****       hrng->State = HAL_RNG_STATE_READY; 
 581              		.loc 1 382 19
 582 006c 7B68     		ldr	r3, [r7, #4]
 583 006e 0122     		movs	r2, #1
 584 0070 5A71     		strb	r2, [r3, #5]
 383:d:/LiteOS_Lab/drivers/third_party/ST/STM32L4xx_HAL_Driver/Src\stm32l4xx_hal_rng.c ****       
 384:d:/LiteOS_Lab/drivers/third_party/ST/STM32L4xx_HAL_Driver/Src\stm32l4xx_hal_rng.c ****       /* Data Ready callback */ 
 385:d:/LiteOS_Lab/drivers/third_party/ST/STM32L4xx_HAL_Driver/Src\stm32l4xx_hal_rng.c ****       HAL_RNG_ReadyDataCallback(hrng, hrng->RandomNumber);
 585              		.loc 1 385 7
 586 0072 7B68     		ldr	r3, [r7, #4]
 587 0074 9B68     		ldr	r3, [r3, #8]
 588 0076 1946     		mov	r1, r3
 589 0078 7868     		ldr	r0, [r7, #4]
 590 007a FFF7FEFF 		bl	HAL_RNG_ReadyDataCallback
 591              	.L26:
 386:d:/LiteOS_Lab/drivers/third_party/ST/STM32L4xx_HAL_Driver/Src\stm32l4xx_hal_rng.c ****     } 
 387:d:/LiteOS_Lab/drivers/third_party/ST/STM32L4xx_HAL_Driver/Src\stm32l4xx_hal_rng.c ****   }
 388:d:/LiteOS_Lab/drivers/third_party/ST/STM32L4xx_HAL_Driver/Src\stm32l4xx_hal_rng.c **** } 
 592              		.loc 1 388 1
ARM GAS  C:\Users\ADMINI~1\AppData\Local\Temp\ccDqwz7G.s 			page 18


 593 007e 00BF     		nop
 594 0080 0837     		adds	r7, r7, #8
 595              	.LCFI36:
 596              		.cfi_def_cfa_offset 8
 597 0082 BD46     		mov	sp, r7
 598              	.LCFI37:
 599              		.cfi_def_cfa_register 13
 600              		@ sp needed
 601 0084 80BD     		pop	{r7, pc}
 602              		.cfi_endproc
 603              	.LFE293:
 605              		.section	.text.HAL_RNG_GetRandomNumber,"ax",%progbits
 606              		.align	1
 607              		.global	HAL_RNG_GetRandomNumber
 608              		.syntax unified
 609              		.thumb
 610              		.thumb_func
 611              		.fpu fpv4-sp-d16
 613              	HAL_RNG_GetRandomNumber:
 614              	.LFB294:
 389:d:/LiteOS_Lab/drivers/third_party/ST/STM32L4xx_HAL_Driver/Src\stm32l4xx_hal_rng.c **** 
 390:d:/LiteOS_Lab/drivers/third_party/ST/STM32L4xx_HAL_Driver/Src\stm32l4xx_hal_rng.c **** /**
 391:d:/LiteOS_Lab/drivers/third_party/ST/STM32L4xx_HAL_Driver/Src\stm32l4xx_hal_rng.c ****   * @brief  Return generated random number in polling mode (Obsolete).
 392:d:/LiteOS_Lab/drivers/third_party/ST/STM32L4xx_HAL_Driver/Src\stm32l4xx_hal_rng.c ****   * @note   Use HAL_RNG_GenerateRandomNumber() API instead.
 393:d:/LiteOS_Lab/drivers/third_party/ST/STM32L4xx_HAL_Driver/Src\stm32l4xx_hal_rng.c ****   * @param  hrng: pointer to a RNG_HandleTypeDef structure that contains
 394:d:/LiteOS_Lab/drivers/third_party/ST/STM32L4xx_HAL_Driver/Src\stm32l4xx_hal_rng.c ****   *                the configuration information for RNG.
 395:d:/LiteOS_Lab/drivers/third_party/ST/STM32L4xx_HAL_Driver/Src\stm32l4xx_hal_rng.c ****   * @retval random value
 396:d:/LiteOS_Lab/drivers/third_party/ST/STM32L4xx_HAL_Driver/Src\stm32l4xx_hal_rng.c ****   */
 397:d:/LiteOS_Lab/drivers/third_party/ST/STM32L4xx_HAL_Driver/Src\stm32l4xx_hal_rng.c **** uint32_t HAL_RNG_GetRandomNumber(RNG_HandleTypeDef *hrng)
 398:d:/LiteOS_Lab/drivers/third_party/ST/STM32L4xx_HAL_Driver/Src\stm32l4xx_hal_rng.c **** {
 615              		.loc 1 398 1
 616              		.cfi_startproc
 617              		@ args = 0, pretend = 0, frame = 8
 618              		@ frame_needed = 1, uses_anonymous_args = 0
 619 0000 80B5     		push	{r7, lr}
 620              	.LCFI38:
 621              		.cfi_def_cfa_offset 8
 622              		.cfi_offset 7, -8
 623              		.cfi_offset 14, -4
 624 0002 82B0     		sub	sp, sp, #8
 625              	.LCFI39:
 626              		.cfi_def_cfa_offset 16
 627 0004 00AF     		add	r7, sp, #0
 628              	.LCFI40:
 629              		.cfi_def_cfa_register 7
 630 0006 7860     		str	r0, [r7, #4]
 399:d:/LiteOS_Lab/drivers/third_party/ST/STM32L4xx_HAL_Driver/Src\stm32l4xx_hal_rng.c ****   if(HAL_RNG_GenerateRandomNumber(hrng, &(hrng->RandomNumber)) == HAL_OK)
 631              		.loc 1 399 6
 632 0008 7B68     		ldr	r3, [r7, #4]
 633 000a 0833     		adds	r3, r3, #8
 634 000c 1946     		mov	r1, r3
 635 000e 7868     		ldr	r0, [r7, #4]
 636 0010 FFF7FEFF 		bl	HAL_RNG_GenerateRandomNumber
 637 0014 0346     		mov	r3, r0
 638              		.loc 1 399 5
 639 0016 002B     		cmp	r3, #0
 640 0018 02D1     		bne	.L28
ARM GAS  C:\Users\ADMINI~1\AppData\Local\Temp\ccDqwz7G.s 			page 19


 400:d:/LiteOS_Lab/drivers/third_party/ST/STM32L4xx_HAL_Driver/Src\stm32l4xx_hal_rng.c ****   {
 401:d:/LiteOS_Lab/drivers/third_party/ST/STM32L4xx_HAL_Driver/Src\stm32l4xx_hal_rng.c ****     return hrng->RandomNumber; 
 641              		.loc 1 401 16
 642 001a 7B68     		ldr	r3, [r7, #4]
 643 001c 9B68     		ldr	r3, [r3, #8]
 644 001e 00E0     		b	.L29
 645              	.L28:
 402:d:/LiteOS_Lab/drivers/third_party/ST/STM32L4xx_HAL_Driver/Src\stm32l4xx_hal_rng.c ****   }
 403:d:/LiteOS_Lab/drivers/third_party/ST/STM32L4xx_HAL_Driver/Src\stm32l4xx_hal_rng.c ****   else
 404:d:/LiteOS_Lab/drivers/third_party/ST/STM32L4xx_HAL_Driver/Src\stm32l4xx_hal_rng.c ****   {
 405:d:/LiteOS_Lab/drivers/third_party/ST/STM32L4xx_HAL_Driver/Src\stm32l4xx_hal_rng.c ****     return 0;
 646              		.loc 1 405 12
 647 0020 0023     		movs	r3, #0
 648              	.L29:
 406:d:/LiteOS_Lab/drivers/third_party/ST/STM32L4xx_HAL_Driver/Src\stm32l4xx_hal_rng.c ****   }
 407:d:/LiteOS_Lab/drivers/third_party/ST/STM32L4xx_HAL_Driver/Src\stm32l4xx_hal_rng.c **** }
 649              		.loc 1 407 1
 650 0022 1846     		mov	r0, r3
 651 0024 0837     		adds	r7, r7, #8
 652              	.LCFI41:
 653              		.cfi_def_cfa_offset 8
 654 0026 BD46     		mov	sp, r7
 655              	.LCFI42:
 656              		.cfi_def_cfa_register 13
 657              		@ sp needed
 658 0028 80BD     		pop	{r7, pc}
 659              		.cfi_endproc
 660              	.LFE294:
 662              		.section	.text.HAL_RNG_GetRandomNumber_IT,"ax",%progbits
 663              		.align	1
 664              		.global	HAL_RNG_GetRandomNumber_IT
 665              		.syntax unified
 666              		.thumb
 667              		.thumb_func
 668              		.fpu fpv4-sp-d16
 670              	HAL_RNG_GetRandomNumber_IT:
 671              	.LFB295:
 408:d:/LiteOS_Lab/drivers/third_party/ST/STM32L4xx_HAL_Driver/Src\stm32l4xx_hal_rng.c **** 
 409:d:/LiteOS_Lab/drivers/third_party/ST/STM32L4xx_HAL_Driver/Src\stm32l4xx_hal_rng.c **** 
 410:d:/LiteOS_Lab/drivers/third_party/ST/STM32L4xx_HAL_Driver/Src\stm32l4xx_hal_rng.c **** /**
 411:d:/LiteOS_Lab/drivers/third_party/ST/STM32L4xx_HAL_Driver/Src\stm32l4xx_hal_rng.c ****   * @brief  Return a 32-bit random number with interrupt enabled (Obsolete).
 412:d:/LiteOS_Lab/drivers/third_party/ST/STM32L4xx_HAL_Driver/Src\stm32l4xx_hal_rng.c ****   * @note   Use HAL_RNG_GenerateRandomNumber_IT() API instead.
 413:d:/LiteOS_Lab/drivers/third_party/ST/STM32L4xx_HAL_Driver/Src\stm32l4xx_hal_rng.c ****   * @param  hrng: RNG handle
 414:d:/LiteOS_Lab/drivers/third_party/ST/STM32L4xx_HAL_Driver/Src\stm32l4xx_hal_rng.c ****   * @retval 32-bit random number
 415:d:/LiteOS_Lab/drivers/third_party/ST/STM32L4xx_HAL_Driver/Src\stm32l4xx_hal_rng.c ****   */
 416:d:/LiteOS_Lab/drivers/third_party/ST/STM32L4xx_HAL_Driver/Src\stm32l4xx_hal_rng.c **** uint32_t HAL_RNG_GetRandomNumber_IT(RNG_HandleTypeDef *hrng)
 417:d:/LiteOS_Lab/drivers/third_party/ST/STM32L4xx_HAL_Driver/Src\stm32l4xx_hal_rng.c **** {
 672              		.loc 1 417 1
 673              		.cfi_startproc
 674              		@ args = 0, pretend = 0, frame = 16
 675              		@ frame_needed = 1, uses_anonymous_args = 0
 676              		@ link register save eliminated.
 677 0000 80B4     		push	{r7}
 678              	.LCFI43:
 679              		.cfi_def_cfa_offset 4
 680              		.cfi_offset 7, -4
 681 0002 85B0     		sub	sp, sp, #20
ARM GAS  C:\Users\ADMINI~1\AppData\Local\Temp\ccDqwz7G.s 			page 20


 682              	.LCFI44:
 683              		.cfi_def_cfa_offset 24
 684 0004 00AF     		add	r7, sp, #0
 685              	.LCFI45:
 686              		.cfi_def_cfa_register 7
 687 0006 7860     		str	r0, [r7, #4]
 418:d:/LiteOS_Lab/drivers/third_party/ST/STM32L4xx_HAL_Driver/Src\stm32l4xx_hal_rng.c ****   uint32_t random32bit = 0;
 688              		.loc 1 418 12
 689 0008 0023     		movs	r3, #0
 690 000a FB60     		str	r3, [r7, #12]
 419:d:/LiteOS_Lab/drivers/third_party/ST/STM32L4xx_HAL_Driver/Src\stm32l4xx_hal_rng.c ****   
 420:d:/LiteOS_Lab/drivers/third_party/ST/STM32L4xx_HAL_Driver/Src\stm32l4xx_hal_rng.c ****   /* Process locked */
 421:d:/LiteOS_Lab/drivers/third_party/ST/STM32L4xx_HAL_Driver/Src\stm32l4xx_hal_rng.c ****   __HAL_LOCK(hrng);
 691              		.loc 1 421 3
 692 000c 7B68     		ldr	r3, [r7, #4]
 693 000e 1B79     		ldrb	r3, [r3, #4]	@ zero_extendqisi2
 694 0010 012B     		cmp	r3, #1
 695 0012 01D1     		bne	.L31
 696              		.loc 1 421 3 is_stmt 0 discriminator 1
 697 0014 0223     		movs	r3, #2
 698 0016 12E0     		b	.L32
 699              	.L31:
 700              		.loc 1 421 3 discriminator 2
 701 0018 7B68     		ldr	r3, [r7, #4]
 702 001a 0122     		movs	r2, #1
 703 001c 1A71     		strb	r2, [r3, #4]
 422:d:/LiteOS_Lab/drivers/third_party/ST/STM32L4xx_HAL_Driver/Src\stm32l4xx_hal_rng.c ****   
 423:d:/LiteOS_Lab/drivers/third_party/ST/STM32L4xx_HAL_Driver/Src\stm32l4xx_hal_rng.c ****   /* Change RNG peripheral state */  
 424:d:/LiteOS_Lab/drivers/third_party/ST/STM32L4xx_HAL_Driver/Src\stm32l4xx_hal_rng.c ****   hrng->State = HAL_RNG_STATE_BUSY;  
 704              		.loc 1 424 15 is_stmt 1 discriminator 2
 705 001e 7B68     		ldr	r3, [r7, #4]
 706 0020 0222     		movs	r2, #2
 707 0022 5A71     		strb	r2, [r3, #5]
 425:d:/LiteOS_Lab/drivers/third_party/ST/STM32L4xx_HAL_Driver/Src\stm32l4xx_hal_rng.c ****   
 426:d:/LiteOS_Lab/drivers/third_party/ST/STM32L4xx_HAL_Driver/Src\stm32l4xx_hal_rng.c ****   /* Get a 32bit Random number */ 
 427:d:/LiteOS_Lab/drivers/third_party/ST/STM32L4xx_HAL_Driver/Src\stm32l4xx_hal_rng.c ****   random32bit = hrng->Instance->DR;
 708              		.loc 1 427 21 discriminator 2
 709 0024 7B68     		ldr	r3, [r7, #4]
 710 0026 1B68     		ldr	r3, [r3]
 711              		.loc 1 427 15 discriminator 2
 712 0028 9B68     		ldr	r3, [r3, #8]
 713 002a FB60     		str	r3, [r7, #12]
 428:d:/LiteOS_Lab/drivers/third_party/ST/STM32L4xx_HAL_Driver/Src\stm32l4xx_hal_rng.c ****   
 429:d:/LiteOS_Lab/drivers/third_party/ST/STM32L4xx_HAL_Driver/Src\stm32l4xx_hal_rng.c ****   /* Enable the RNG Interrupts: Data Ready, Clock error, Seed error */ 
 430:d:/LiteOS_Lab/drivers/third_party/ST/STM32L4xx_HAL_Driver/Src\stm32l4xx_hal_rng.c ****   __HAL_RNG_ENABLE_IT(hrng); 
 714              		.loc 1 430 3 discriminator 2
 715 002c 7B68     		ldr	r3, [r7, #4]
 716 002e 1B68     		ldr	r3, [r3]
 717 0030 1A68     		ldr	r2, [r3]
 718 0032 7B68     		ldr	r3, [r7, #4]
 719 0034 1B68     		ldr	r3, [r3]
 720 0036 42F00802 		orr	r2, r2, #8
 721 003a 1A60     		str	r2, [r3]
 431:d:/LiteOS_Lab/drivers/third_party/ST/STM32L4xx_HAL_Driver/Src\stm32l4xx_hal_rng.c ****   
 432:d:/LiteOS_Lab/drivers/third_party/ST/STM32L4xx_HAL_Driver/Src\stm32l4xx_hal_rng.c ****   /* Return the 32 bit random number */   
 433:d:/LiteOS_Lab/drivers/third_party/ST/STM32L4xx_HAL_Driver/Src\stm32l4xx_hal_rng.c ****   return random32bit;
 722              		.loc 1 433 10 discriminator 2
ARM GAS  C:\Users\ADMINI~1\AppData\Local\Temp\ccDqwz7G.s 			page 21


 723 003c FB68     		ldr	r3, [r7, #12]
 724              	.L32:
 434:d:/LiteOS_Lab/drivers/third_party/ST/STM32L4xx_HAL_Driver/Src\stm32l4xx_hal_rng.c **** }
 725              		.loc 1 434 1
 726 003e 1846     		mov	r0, r3
 727 0040 1437     		adds	r7, r7, #20
 728              	.LCFI46:
 729              		.cfi_def_cfa_offset 4
 730 0042 BD46     		mov	sp, r7
 731              	.LCFI47:
 732              		.cfi_def_cfa_register 13
 733              		@ sp needed
 734 0044 5DF8047B 		ldr	r7, [sp], #4
 735              	.LCFI48:
 736              		.cfi_restore 7
 737              		.cfi_def_cfa_offset 0
 738 0048 7047     		bx	lr
 739              		.cfi_endproc
 740              	.LFE295:
 742              		.section	.text.HAL_RNG_ReadLastRandomNumber,"ax",%progbits
 743              		.align	1
 744              		.global	HAL_RNG_ReadLastRandomNumber
 745              		.syntax unified
 746              		.thumb
 747              		.thumb_func
 748              		.fpu fpv4-sp-d16
 750              	HAL_RNG_ReadLastRandomNumber:
 751              	.LFB296:
 435:d:/LiteOS_Lab/drivers/third_party/ST/STM32L4xx_HAL_Driver/Src\stm32l4xx_hal_rng.c **** 
 436:d:/LiteOS_Lab/drivers/third_party/ST/STM32L4xx_HAL_Driver/Src\stm32l4xx_hal_rng.c **** 
 437:d:/LiteOS_Lab/drivers/third_party/ST/STM32L4xx_HAL_Driver/Src\stm32l4xx_hal_rng.c **** 
 438:d:/LiteOS_Lab/drivers/third_party/ST/STM32L4xx_HAL_Driver/Src\stm32l4xx_hal_rng.c **** /**
 439:d:/LiteOS_Lab/drivers/third_party/ST/STM32L4xx_HAL_Driver/Src\stm32l4xx_hal_rng.c ****   * @brief  Read latest generated random number. 
 440:d:/LiteOS_Lab/drivers/third_party/ST/STM32L4xx_HAL_Driver/Src\stm32l4xx_hal_rng.c ****   * @param  hrng: pointer to a RNG_HandleTypeDef structure.
 441:d:/LiteOS_Lab/drivers/third_party/ST/STM32L4xx_HAL_Driver/Src\stm32l4xx_hal_rng.c ****   * @retval random value
 442:d:/LiteOS_Lab/drivers/third_party/ST/STM32L4xx_HAL_Driver/Src\stm32l4xx_hal_rng.c ****   */
 443:d:/LiteOS_Lab/drivers/third_party/ST/STM32L4xx_HAL_Driver/Src\stm32l4xx_hal_rng.c **** uint32_t HAL_RNG_ReadLastRandomNumber(RNG_HandleTypeDef *hrng)
 444:d:/LiteOS_Lab/drivers/third_party/ST/STM32L4xx_HAL_Driver/Src\stm32l4xx_hal_rng.c **** {
 752              		.loc 1 444 1
 753              		.cfi_startproc
 754              		@ args = 0, pretend = 0, frame = 8
 755              		@ frame_needed = 1, uses_anonymous_args = 0
 756              		@ link register save eliminated.
 757 0000 80B4     		push	{r7}
 758              	.LCFI49:
 759              		.cfi_def_cfa_offset 4
 760              		.cfi_offset 7, -4
 761 0002 83B0     		sub	sp, sp, #12
 762              	.LCFI50:
 763              		.cfi_def_cfa_offset 16
 764 0004 00AF     		add	r7, sp, #0
 765              	.LCFI51:
 766              		.cfi_def_cfa_register 7
 767 0006 7860     		str	r0, [r7, #4]
 445:d:/LiteOS_Lab/drivers/third_party/ST/STM32L4xx_HAL_Driver/Src\stm32l4xx_hal_rng.c ****   return(hrng->RandomNumber);
 768              		.loc 1 445 14
 769 0008 7B68     		ldr	r3, [r7, #4]
ARM GAS  C:\Users\ADMINI~1\AppData\Local\Temp\ccDqwz7G.s 			page 22


 770 000a 9B68     		ldr	r3, [r3, #8]
 446:d:/LiteOS_Lab/drivers/third_party/ST/STM32L4xx_HAL_Driver/Src\stm32l4xx_hal_rng.c **** }
 771              		.loc 1 446 1
 772 000c 1846     		mov	r0, r3
 773 000e 0C37     		adds	r7, r7, #12
 774              	.LCFI52:
 775              		.cfi_def_cfa_offset 4
 776 0010 BD46     		mov	sp, r7
 777              	.LCFI53:
 778              		.cfi_def_cfa_register 13
 779              		@ sp needed
 780 0012 5DF8047B 		ldr	r7, [sp], #4
 781              	.LCFI54:
 782              		.cfi_restore 7
 783              		.cfi_def_cfa_offset 0
 784 0016 7047     		bx	lr
 785              		.cfi_endproc
 786              	.LFE296:
 788              		.section	.text.HAL_RNG_ReadyDataCallback,"ax",%progbits
 789              		.align	1
 790              		.weak	HAL_RNG_ReadyDataCallback
 791              		.syntax unified
 792              		.thumb
 793              		.thumb_func
 794              		.fpu fpv4-sp-d16
 796              	HAL_RNG_ReadyDataCallback:
 797              	.LFB297:
 447:d:/LiteOS_Lab/drivers/third_party/ST/STM32L4xx_HAL_Driver/Src\stm32l4xx_hal_rng.c **** 
 448:d:/LiteOS_Lab/drivers/third_party/ST/STM32L4xx_HAL_Driver/Src\stm32l4xx_hal_rng.c **** /**
 449:d:/LiteOS_Lab/drivers/third_party/ST/STM32L4xx_HAL_Driver/Src\stm32l4xx_hal_rng.c ****   * @brief  Data Ready callback in non-blocking mode. 
 450:d:/LiteOS_Lab/drivers/third_party/ST/STM32L4xx_HAL_Driver/Src\stm32l4xx_hal_rng.c ****   * @param  hrng: pointer to a RNG_HandleTypeDef structure.
 451:d:/LiteOS_Lab/drivers/third_party/ST/STM32L4xx_HAL_Driver/Src\stm32l4xx_hal_rng.c ****   * @param  random32bit: generated random value
 452:d:/LiteOS_Lab/drivers/third_party/ST/STM32L4xx_HAL_Driver/Src\stm32l4xx_hal_rng.c ****   * @retval None
 453:d:/LiteOS_Lab/drivers/third_party/ST/STM32L4xx_HAL_Driver/Src\stm32l4xx_hal_rng.c ****   */
 454:d:/LiteOS_Lab/drivers/third_party/ST/STM32L4xx_HAL_Driver/Src\stm32l4xx_hal_rng.c **** __weak void HAL_RNG_ReadyDataCallback(RNG_HandleTypeDef *hrng, uint32_t random32bit)
 455:d:/LiteOS_Lab/drivers/third_party/ST/STM32L4xx_HAL_Driver/Src\stm32l4xx_hal_rng.c **** {
 798              		.loc 1 455 1
 799              		.cfi_startproc
 800              		@ args = 0, pretend = 0, frame = 8
 801              		@ frame_needed = 1, uses_anonymous_args = 0
 802              		@ link register save eliminated.
 803 0000 80B4     		push	{r7}
 804              	.LCFI55:
 805              		.cfi_def_cfa_offset 4
 806              		.cfi_offset 7, -4
 807 0002 83B0     		sub	sp, sp, #12
 808              	.LCFI56:
 809              		.cfi_def_cfa_offset 16
 810 0004 00AF     		add	r7, sp, #0
 811              	.LCFI57:
 812              		.cfi_def_cfa_register 7
 813 0006 7860     		str	r0, [r7, #4]
 814 0008 3960     		str	r1, [r7]
 456:d:/LiteOS_Lab/drivers/third_party/ST/STM32L4xx_HAL_Driver/Src\stm32l4xx_hal_rng.c ****   /* Prevent unused argument(s) compilation warning */
 457:d:/LiteOS_Lab/drivers/third_party/ST/STM32L4xx_HAL_Driver/Src\stm32l4xx_hal_rng.c ****   UNUSED(hrng);
 458:d:/LiteOS_Lab/drivers/third_party/ST/STM32L4xx_HAL_Driver/Src\stm32l4xx_hal_rng.c ****   UNUSED(random32bit);
 459:d:/LiteOS_Lab/drivers/third_party/ST/STM32L4xx_HAL_Driver/Src\stm32l4xx_hal_rng.c **** 
ARM GAS  C:\Users\ADMINI~1\AppData\Local\Temp\ccDqwz7G.s 			page 23


 460:d:/LiteOS_Lab/drivers/third_party/ST/STM32L4xx_HAL_Driver/Src\stm32l4xx_hal_rng.c ****   /* NOTE : This function should not be modified. When the callback is needed,
 461:d:/LiteOS_Lab/drivers/third_party/ST/STM32L4xx_HAL_Driver/Src\stm32l4xx_hal_rng.c ****             function HAL_RNG_ReadyDataCallback must be implemented in the user file.
 462:d:/LiteOS_Lab/drivers/third_party/ST/STM32L4xx_HAL_Driver/Src\stm32l4xx_hal_rng.c ****    */
 463:d:/LiteOS_Lab/drivers/third_party/ST/STM32L4xx_HAL_Driver/Src\stm32l4xx_hal_rng.c **** }
 815              		.loc 1 463 1
 816 000a 00BF     		nop
 817 000c 0C37     		adds	r7, r7, #12
 818              	.LCFI58:
 819              		.cfi_def_cfa_offset 4
 820 000e BD46     		mov	sp, r7
 821              	.LCFI59:
 822              		.cfi_def_cfa_register 13
 823              		@ sp needed
 824 0010 5DF8047B 		ldr	r7, [sp], #4
 825              	.LCFI60:
 826              		.cfi_restore 7
 827              		.cfi_def_cfa_offset 0
 828 0014 7047     		bx	lr
 829              		.cfi_endproc
 830              	.LFE297:
 832              		.section	.text.HAL_RNG_ErrorCallback,"ax",%progbits
 833              		.align	1
 834              		.weak	HAL_RNG_ErrorCallback
 835              		.syntax unified
 836              		.thumb
 837              		.thumb_func
 838              		.fpu fpv4-sp-d16
 840              	HAL_RNG_ErrorCallback:
 841              	.LFB298:
 464:d:/LiteOS_Lab/drivers/third_party/ST/STM32L4xx_HAL_Driver/Src\stm32l4xx_hal_rng.c **** 
 465:d:/LiteOS_Lab/drivers/third_party/ST/STM32L4xx_HAL_Driver/Src\stm32l4xx_hal_rng.c **** /**
 466:d:/LiteOS_Lab/drivers/third_party/ST/STM32L4xx_HAL_Driver/Src\stm32l4xx_hal_rng.c ****   * @brief  RNG error callback.
 467:d:/LiteOS_Lab/drivers/third_party/ST/STM32L4xx_HAL_Driver/Src\stm32l4xx_hal_rng.c ****   * @param  hrng: pointer to a RNG_HandleTypeDef structure.
 468:d:/LiteOS_Lab/drivers/third_party/ST/STM32L4xx_HAL_Driver/Src\stm32l4xx_hal_rng.c ****   * @retval None
 469:d:/LiteOS_Lab/drivers/third_party/ST/STM32L4xx_HAL_Driver/Src\stm32l4xx_hal_rng.c ****   */
 470:d:/LiteOS_Lab/drivers/third_party/ST/STM32L4xx_HAL_Driver/Src\stm32l4xx_hal_rng.c **** __weak void HAL_RNG_ErrorCallback(RNG_HandleTypeDef *hrng)
 471:d:/LiteOS_Lab/drivers/third_party/ST/STM32L4xx_HAL_Driver/Src\stm32l4xx_hal_rng.c **** {
 842              		.loc 1 471 1
 843              		.cfi_startproc
 844              		@ args = 0, pretend = 0, frame = 8
 845              		@ frame_needed = 1, uses_anonymous_args = 0
 846              		@ link register save eliminated.
 847 0000 80B4     		push	{r7}
 848              	.LCFI61:
 849              		.cfi_def_cfa_offset 4
 850              		.cfi_offset 7, -4
 851 0002 83B0     		sub	sp, sp, #12
 852              	.LCFI62:
 853              		.cfi_def_cfa_offset 16
 854 0004 00AF     		add	r7, sp, #0
 855              	.LCFI63:
 856              		.cfi_def_cfa_register 7
 857 0006 7860     		str	r0, [r7, #4]
 472:d:/LiteOS_Lab/drivers/third_party/ST/STM32L4xx_HAL_Driver/Src\stm32l4xx_hal_rng.c ****   /* Prevent unused argument(s) compilation warning */
 473:d:/LiteOS_Lab/drivers/third_party/ST/STM32L4xx_HAL_Driver/Src\stm32l4xx_hal_rng.c ****   UNUSED(hrng);
 474:d:/LiteOS_Lab/drivers/third_party/ST/STM32L4xx_HAL_Driver/Src\stm32l4xx_hal_rng.c **** 
 475:d:/LiteOS_Lab/drivers/third_party/ST/STM32L4xx_HAL_Driver/Src\stm32l4xx_hal_rng.c ****   /* NOTE : This function should not be modified. When the callback is needed,
ARM GAS  C:\Users\ADMINI~1\AppData\Local\Temp\ccDqwz7G.s 			page 24


 476:d:/LiteOS_Lab/drivers/third_party/ST/STM32L4xx_HAL_Driver/Src\stm32l4xx_hal_rng.c ****             function HAL_RNG_ErrorCallback must be implemented in the user file.
 477:d:/LiteOS_Lab/drivers/third_party/ST/STM32L4xx_HAL_Driver/Src\stm32l4xx_hal_rng.c ****    */
 478:d:/LiteOS_Lab/drivers/third_party/ST/STM32L4xx_HAL_Driver/Src\stm32l4xx_hal_rng.c **** }
 858              		.loc 1 478 1
 859 0008 00BF     		nop
 860 000a 0C37     		adds	r7, r7, #12
 861              	.LCFI64:
 862              		.cfi_def_cfa_offset 4
 863 000c BD46     		mov	sp, r7
 864              	.LCFI65:
 865              		.cfi_def_cfa_register 13
 866              		@ sp needed
 867 000e 5DF8047B 		ldr	r7, [sp], #4
 868              	.LCFI66:
 869              		.cfi_restore 7
 870              		.cfi_def_cfa_offset 0
 871 0012 7047     		bx	lr
 872              		.cfi_endproc
 873              	.LFE298:
 875              		.section	.text.HAL_RNG_GetState,"ax",%progbits
 876              		.align	1
 877              		.global	HAL_RNG_GetState
 878              		.syntax unified
 879              		.thumb
 880              		.thumb_func
 881              		.fpu fpv4-sp-d16
 883              	HAL_RNG_GetState:
 884              	.LFB299:
 479:d:/LiteOS_Lab/drivers/third_party/ST/STM32L4xx_HAL_Driver/Src\stm32l4xx_hal_rng.c ****  
 480:d:/LiteOS_Lab/drivers/third_party/ST/STM32L4xx_HAL_Driver/Src\stm32l4xx_hal_rng.c **** /**
 481:d:/LiteOS_Lab/drivers/third_party/ST/STM32L4xx_HAL_Driver/Src\stm32l4xx_hal_rng.c ****   * @}
 482:d:/LiteOS_Lab/drivers/third_party/ST/STM32L4xx_HAL_Driver/Src\stm32l4xx_hal_rng.c ****   */
 483:d:/LiteOS_Lab/drivers/third_party/ST/STM32L4xx_HAL_Driver/Src\stm32l4xx_hal_rng.c **** 
 484:d:/LiteOS_Lab/drivers/third_party/ST/STM32L4xx_HAL_Driver/Src\stm32l4xx_hal_rng.c **** /** @addtogroup RNG_Exported_Functions_Group3
 485:d:/LiteOS_Lab/drivers/third_party/ST/STM32L4xx_HAL_Driver/Src\stm32l4xx_hal_rng.c ****  *  @brief    Peripheral State functions. 
 486:d:/LiteOS_Lab/drivers/third_party/ST/STM32L4xx_HAL_Driver/Src\stm32l4xx_hal_rng.c ****  *
 487:d:/LiteOS_Lab/drivers/third_party/ST/STM32L4xx_HAL_Driver/Src\stm32l4xx_hal_rng.c **** @verbatim   
 488:d:/LiteOS_Lab/drivers/third_party/ST/STM32L4xx_HAL_Driver/Src\stm32l4xx_hal_rng.c ****  ===============================================================================
 489:d:/LiteOS_Lab/drivers/third_party/ST/STM32L4xx_HAL_Driver/Src\stm32l4xx_hal_rng.c ****                       ##### Peripheral State functions #####
 490:d:/LiteOS_Lab/drivers/third_party/ST/STM32L4xx_HAL_Driver/Src\stm32l4xx_hal_rng.c ****  ===============================================================================  
 491:d:/LiteOS_Lab/drivers/third_party/ST/STM32L4xx_HAL_Driver/Src\stm32l4xx_hal_rng.c ****     [..]
 492:d:/LiteOS_Lab/drivers/third_party/ST/STM32L4xx_HAL_Driver/Src\stm32l4xx_hal_rng.c ****     This subsection permits to get in run-time the status of the peripheral.
 493:d:/LiteOS_Lab/drivers/third_party/ST/STM32L4xx_HAL_Driver/Src\stm32l4xx_hal_rng.c **** 
 494:d:/LiteOS_Lab/drivers/third_party/ST/STM32L4xx_HAL_Driver/Src\stm32l4xx_hal_rng.c **** @endverbatim
 495:d:/LiteOS_Lab/drivers/third_party/ST/STM32L4xx_HAL_Driver/Src\stm32l4xx_hal_rng.c ****   * @{
 496:d:/LiteOS_Lab/drivers/third_party/ST/STM32L4xx_HAL_Driver/Src\stm32l4xx_hal_rng.c ****   */
 497:d:/LiteOS_Lab/drivers/third_party/ST/STM32L4xx_HAL_Driver/Src\stm32l4xx_hal_rng.c **** 
 498:d:/LiteOS_Lab/drivers/third_party/ST/STM32L4xx_HAL_Driver/Src\stm32l4xx_hal_rng.c **** /**
 499:d:/LiteOS_Lab/drivers/third_party/ST/STM32L4xx_HAL_Driver/Src\stm32l4xx_hal_rng.c ****   * @brief  Return the RNG handle state.
 500:d:/LiteOS_Lab/drivers/third_party/ST/STM32L4xx_HAL_Driver/Src\stm32l4xx_hal_rng.c ****   * @param  hrng: pointer to a RNG_HandleTypeDef structure.
 501:d:/LiteOS_Lab/drivers/third_party/ST/STM32L4xx_HAL_Driver/Src\stm32l4xx_hal_rng.c ****   * @retval HAL state
 502:d:/LiteOS_Lab/drivers/third_party/ST/STM32L4xx_HAL_Driver/Src\stm32l4xx_hal_rng.c ****   */
 503:d:/LiteOS_Lab/drivers/third_party/ST/STM32L4xx_HAL_Driver/Src\stm32l4xx_hal_rng.c **** HAL_RNG_StateTypeDef HAL_RNG_GetState(RNG_HandleTypeDef *hrng)
 504:d:/LiteOS_Lab/drivers/third_party/ST/STM32L4xx_HAL_Driver/Src\stm32l4xx_hal_rng.c **** {
 885              		.loc 1 504 1
 886              		.cfi_startproc
 887              		@ args = 0, pretend = 0, frame = 8
ARM GAS  C:\Users\ADMINI~1\AppData\Local\Temp\ccDqwz7G.s 			page 25


 888              		@ frame_needed = 1, uses_anonymous_args = 0
 889              		@ link register save eliminated.
 890 0000 80B4     		push	{r7}
 891              	.LCFI67:
 892              		.cfi_def_cfa_offset 4
 893              		.cfi_offset 7, -4
 894 0002 83B0     		sub	sp, sp, #12
 895              	.LCFI68:
 896              		.cfi_def_cfa_offset 16
 897 0004 00AF     		add	r7, sp, #0
 898              	.LCFI69:
 899              		.cfi_def_cfa_register 7
 900 0006 7860     		str	r0, [r7, #4]
 505:d:/LiteOS_Lab/drivers/third_party/ST/STM32L4xx_HAL_Driver/Src\stm32l4xx_hal_rng.c ****   /* Return RNG handle state */
 506:d:/LiteOS_Lab/drivers/third_party/ST/STM32L4xx_HAL_Driver/Src\stm32l4xx_hal_rng.c ****   return hrng->State;
 901              		.loc 1 506 14
 902 0008 7B68     		ldr	r3, [r7, #4]
 903 000a 5B79     		ldrb	r3, [r3, #5]
 904 000c DBB2     		uxtb	r3, r3
 507:d:/LiteOS_Lab/drivers/third_party/ST/STM32L4xx_HAL_Driver/Src\stm32l4xx_hal_rng.c **** }
 905              		.loc 1 507 1
 906 000e 1846     		mov	r0, r3
 907 0010 0C37     		adds	r7, r7, #12
 908              	.LCFI70:
 909              		.cfi_def_cfa_offset 4
 910 0012 BD46     		mov	sp, r7
 911              	.LCFI71:
 912              		.cfi_def_cfa_register 13
 913              		@ sp needed
 914 0014 5DF8047B 		ldr	r7, [sp], #4
 915              	.LCFI72:
 916              		.cfi_restore 7
 917              		.cfi_def_cfa_offset 0
 918 0018 7047     		bx	lr
 919              		.cfi_endproc
 920              	.LFE299:
 922              		.text
 923              	.Letext0:
 924              		.file 2 "c:\\users\\administrator\\.huawei-liteos-studio\\tools\\arm-none-eabi\\arm-none-eabi\\inc
 925              		.file 3 "c:\\users\\administrator\\.huawei-liteos-studio\\tools\\arm-none-eabi\\arm-none-eabi\\inc
 926              		.file 4 "c:\\users\\administrator\\.huawei-liteos-studio\\tools\\arm-none-eabi\\arm-none-eabi\\inc
 927              		.file 5 "c:\\users\\administrator\\.huawei-liteos-studio\\tools\\arm-none-eabi\\lib\\gcc\\arm-none
 928              		.file 6 "c:\\users\\administrator\\.huawei-liteos-studio\\tools\\arm-none-eabi\\arm-none-eabi\\inc
 929              		.file 7 "d:/LiteOS_Lab/iot_link/os/liteos/include/los_typedef.h"
 930              		.file 8 "c:\\users\\administrator\\.huawei-liteos-studio\\tools\\arm-none-eabi\\arm-none-eabi\\inc
 931              		.file 9 "d:/LiteOS_Lab/iot_link/os/liteos/arch/arm/common/cmsis/core_cm4.h"
 932              		.file 10 "d:/LiteOS_Lab/targets/STM32L431VCT6_Bossay/Inc/system_stm32l4xx.h"
 933              		.file 11 "d:/LiteOS_Lab/targets/STM32L431VCT6_Bossay/Inc/stm32l431xx.h"
 934              		.file 12 "d:/LiteOS_Lab/iot_link/os/liteos/include/los_config.h"
 935              		.file 13 "d:/LiteOS_Lab/iot_link/os/liteos/include/los_err.h"
 936              		.file 14 "d:/LiteOS_Lab/iot_link/os/liteos/arch/arm/arm-m/include/los_hwi.h"
 937              		.file 15 "d:/LiteOS_Lab/targets/STM32L431VCT6_Bossay/Inc/stm32l4xx.h"
 938              		.file 16 "d:/LiteOS_Lab/drivers/third_party/ST/STM32L4xx_HAL_Driver/Inc/stm32l4xx_hal_def.h"
 939              		.file 17 "d:/LiteOS_Lab/drivers/third_party/ST/STM32L4xx_HAL_Driver/Inc/stm32l4xx_hal_rng.h"
ARM GAS  C:\Users\ADMINI~1\AppData\Local\Temp\ccDqwz7G.s 			page 26

