ARM GAS  C:\Users\ADMINI~1\AppData\Local\Temp\ccHDbRvY.s 			page 1


   1              		.cpu cortex-m4
   2              		.eabi_attribute 27, 1
   3              		.eabi_attribute 28, 1
   4              		.eabi_attribute 20, 1
   5              		.eabi_attribute 21, 1
   6              		.eabi_attribute 23, 3
   7              		.eabi_attribute 24, 1
   8              		.eabi_attribute 25, 1
   9              		.eabi_attribute 26, 1
  10              		.eabi_attribute 30, 6
  11              		.eabi_attribute 34, 1
  12              		.eabi_attribute 18, 4
  13              		.file	"stm32l4xx_hal_uart.c"
  14              		.text
  15              	.Ltext0:
  16              		.cfi_sections	.debug_frame
  17              		.section	.text.HAL_UART_Init,"ax",%progbits
  18              		.align	1
  19              		.global	HAL_UART_Init
  20              		.arch armv7e-m
  21              		.syntax unified
  22              		.thumb
  23              		.thumb_func
  24              		.fpu fpv4-sp-d16
  26              	HAL_UART_Init:
  27              	.LFB287:
  28              		.file 1 "d:/LiteOS_Lab/drivers/third_party/ST/STM32L4xx_HAL_Driver/Src/stm32l4xx_hal_uart.c"
   1:d:/LiteOS_Lab/drivers/third_party/ST/STM32L4xx_HAL_Driver/Src\stm32l4xx_hal_uart.c **** /**
   2:d:/LiteOS_Lab/drivers/third_party/ST/STM32L4xx_HAL_Driver/Src\stm32l4xx_hal_uart.c ****   ******************************************************************************
   3:d:/LiteOS_Lab/drivers/third_party/ST/STM32L4xx_HAL_Driver/Src\stm32l4xx_hal_uart.c ****   * @file    stm32l4xx_hal_uart.c
   4:d:/LiteOS_Lab/drivers/third_party/ST/STM32L4xx_HAL_Driver/Src\stm32l4xx_hal_uart.c ****   * @author  MCD Application Team
   5:d:/LiteOS_Lab/drivers/third_party/ST/STM32L4xx_HAL_Driver/Src\stm32l4xx_hal_uart.c ****   * @version V1.7.2
   6:d:/LiteOS_Lab/drivers/third_party/ST/STM32L4xx_HAL_Driver/Src\stm32l4xx_hal_uart.c ****   * @date    16-June-2017
   7:d:/LiteOS_Lab/drivers/third_party/ST/STM32L4xx_HAL_Driver/Src\stm32l4xx_hal_uart.c ****   * @brief   UART HAL module driver.
   8:d:/LiteOS_Lab/drivers/third_party/ST/STM32L4xx_HAL_Driver/Src\stm32l4xx_hal_uart.c ****   *          This file provides firmware functions to manage the following
   9:d:/LiteOS_Lab/drivers/third_party/ST/STM32L4xx_HAL_Driver/Src\stm32l4xx_hal_uart.c ****   *          functionalities of the Universal Asynchronous Receiver Transmitter Peripheral (UART).
  10:d:/LiteOS_Lab/drivers/third_party/ST/STM32L4xx_HAL_Driver/Src\stm32l4xx_hal_uart.c ****   *           + Initialization and de-initialization functions
  11:d:/LiteOS_Lab/drivers/third_party/ST/STM32L4xx_HAL_Driver/Src\stm32l4xx_hal_uart.c ****   *           + IO operation functions
  12:d:/LiteOS_Lab/drivers/third_party/ST/STM32L4xx_HAL_Driver/Src\stm32l4xx_hal_uart.c ****   *           + Peripheral Control functions
  13:d:/LiteOS_Lab/drivers/third_party/ST/STM32L4xx_HAL_Driver/Src\stm32l4xx_hal_uart.c ****   *
  14:d:/LiteOS_Lab/drivers/third_party/ST/STM32L4xx_HAL_Driver/Src\stm32l4xx_hal_uart.c ****   *
  15:d:/LiteOS_Lab/drivers/third_party/ST/STM32L4xx_HAL_Driver/Src\stm32l4xx_hal_uart.c ****   @verbatim
  16:d:/LiteOS_Lab/drivers/third_party/ST/STM32L4xx_HAL_Driver/Src\stm32l4xx_hal_uart.c ****  ===============================================================================
  17:d:/LiteOS_Lab/drivers/third_party/ST/STM32L4xx_HAL_Driver/Src\stm32l4xx_hal_uart.c ****                         ##### How to use this driver #####
  18:d:/LiteOS_Lab/drivers/third_party/ST/STM32L4xx_HAL_Driver/Src\stm32l4xx_hal_uart.c ****  ===============================================================================
  19:d:/LiteOS_Lab/drivers/third_party/ST/STM32L4xx_HAL_Driver/Src\stm32l4xx_hal_uart.c ****   [..]
  20:d:/LiteOS_Lab/drivers/third_party/ST/STM32L4xx_HAL_Driver/Src\stm32l4xx_hal_uart.c ****     The UART HAL driver can be used as follows:
  21:d:/LiteOS_Lab/drivers/third_party/ST/STM32L4xx_HAL_Driver/Src\stm32l4xx_hal_uart.c **** 
  22:d:/LiteOS_Lab/drivers/third_party/ST/STM32L4xx_HAL_Driver/Src\stm32l4xx_hal_uart.c ****     (#) Declare a UART_HandleTypeDef handle structure (eg. UART_HandleTypeDef huart).
  23:d:/LiteOS_Lab/drivers/third_party/ST/STM32L4xx_HAL_Driver/Src\stm32l4xx_hal_uart.c ****     (#) Initialize the UART low level resources by implementing the HAL_UART_MspInit() API:
  24:d:/LiteOS_Lab/drivers/third_party/ST/STM32L4xx_HAL_Driver/Src\stm32l4xx_hal_uart.c ****         (++) Enable the USARTx interface clock.
  25:d:/LiteOS_Lab/drivers/third_party/ST/STM32L4xx_HAL_Driver/Src\stm32l4xx_hal_uart.c ****         (++) UART pins configuration:
  26:d:/LiteOS_Lab/drivers/third_party/ST/STM32L4xx_HAL_Driver/Src\stm32l4xx_hal_uart.c ****             (+++) Enable the clock for the UART GPIOs.
  27:d:/LiteOS_Lab/drivers/third_party/ST/STM32L4xx_HAL_Driver/Src\stm32l4xx_hal_uart.c ****             (+++) Configure these UART pins as alternate function pull-up.
  28:d:/LiteOS_Lab/drivers/third_party/ST/STM32L4xx_HAL_Driver/Src\stm32l4xx_hal_uart.c ****         (++) NVIC configuration if you need to use interrupt process (HAL_UART_Transmit_IT()
  29:d:/LiteOS_Lab/drivers/third_party/ST/STM32L4xx_HAL_Driver/Src\stm32l4xx_hal_uart.c ****              and HAL_UART_Receive_IT() APIs):
  30:d:/LiteOS_Lab/drivers/third_party/ST/STM32L4xx_HAL_Driver/Src\stm32l4xx_hal_uart.c ****             (+++) Configure the USARTx interrupt priority.
ARM GAS  C:\Users\ADMINI~1\AppData\Local\Temp\ccHDbRvY.s 			page 2


  31:d:/LiteOS_Lab/drivers/third_party/ST/STM32L4xx_HAL_Driver/Src\stm32l4xx_hal_uart.c ****             (+++) Enable the NVIC USART IRQ handle.
  32:d:/LiteOS_Lab/drivers/third_party/ST/STM32L4xx_HAL_Driver/Src\stm32l4xx_hal_uart.c ****         (++) UART interrupts handling:
  33:d:/LiteOS_Lab/drivers/third_party/ST/STM32L4xx_HAL_Driver/Src\stm32l4xx_hal_uart.c ****               -@@-  The specific UART interrupts (Transmission complete interrupt,
  34:d:/LiteOS_Lab/drivers/third_party/ST/STM32L4xx_HAL_Driver/Src\stm32l4xx_hal_uart.c ****                 RXNE interrupt and Error Interrupts) are managed using the macros
  35:d:/LiteOS_Lab/drivers/third_party/ST/STM32L4xx_HAL_Driver/Src\stm32l4xx_hal_uart.c ****                 __HAL_UART_ENABLE_IT() and __HAL_UART_DISABLE_IT() inside the transmit and receive 
  36:d:/LiteOS_Lab/drivers/third_party/ST/STM32L4xx_HAL_Driver/Src\stm32l4xx_hal_uart.c ****         (++) DMA Configuration if you need to use DMA process (HAL_UART_Transmit_DMA()
  37:d:/LiteOS_Lab/drivers/third_party/ST/STM32L4xx_HAL_Driver/Src\stm32l4xx_hal_uart.c ****              and HAL_UART_Receive_DMA() APIs):
  38:d:/LiteOS_Lab/drivers/third_party/ST/STM32L4xx_HAL_Driver/Src\stm32l4xx_hal_uart.c ****             (+++) Declare a DMA handle structure for the Tx/Rx channel.
  39:d:/LiteOS_Lab/drivers/third_party/ST/STM32L4xx_HAL_Driver/Src\stm32l4xx_hal_uart.c ****             (+++) Enable the DMAx interface clock.
  40:d:/LiteOS_Lab/drivers/third_party/ST/STM32L4xx_HAL_Driver/Src\stm32l4xx_hal_uart.c ****             (+++) Configure the declared DMA handle structure with the required Tx/Rx parameters.
  41:d:/LiteOS_Lab/drivers/third_party/ST/STM32L4xx_HAL_Driver/Src\stm32l4xx_hal_uart.c ****             (+++) Configure the DMA Tx/Rx channel.
  42:d:/LiteOS_Lab/drivers/third_party/ST/STM32L4xx_HAL_Driver/Src\stm32l4xx_hal_uart.c ****             (+++) Associate the initialized DMA handle to the UART DMA Tx/Rx handle.
  43:d:/LiteOS_Lab/drivers/third_party/ST/STM32L4xx_HAL_Driver/Src\stm32l4xx_hal_uart.c ****             (+++) Configure the priority and enable the NVIC for the transfer complete interrupt on
  44:d:/LiteOS_Lab/drivers/third_party/ST/STM32L4xx_HAL_Driver/Src\stm32l4xx_hal_uart.c **** 
  45:d:/LiteOS_Lab/drivers/third_party/ST/STM32L4xx_HAL_Driver/Src\stm32l4xx_hal_uart.c ****     (#) Program the Baud Rate, Word Length, Stop Bit, Parity, Hardware
  46:d:/LiteOS_Lab/drivers/third_party/ST/STM32L4xx_HAL_Driver/Src\stm32l4xx_hal_uart.c ****         flow control and Mode (Receiver/Transmitter) in the huart handle Init structure.
  47:d:/LiteOS_Lab/drivers/third_party/ST/STM32L4xx_HAL_Driver/Src\stm32l4xx_hal_uart.c **** 
  48:d:/LiteOS_Lab/drivers/third_party/ST/STM32L4xx_HAL_Driver/Src\stm32l4xx_hal_uart.c ****     (#) If required, program UART advanced features (TX/RX pins swap, auto Baud rate detection,...)
  49:d:/LiteOS_Lab/drivers/third_party/ST/STM32L4xx_HAL_Driver/Src\stm32l4xx_hal_uart.c ****         in the huart handle AdvancedInit structure.
  50:d:/LiteOS_Lab/drivers/third_party/ST/STM32L4xx_HAL_Driver/Src\stm32l4xx_hal_uart.c **** 
  51:d:/LiteOS_Lab/drivers/third_party/ST/STM32L4xx_HAL_Driver/Src\stm32l4xx_hal_uart.c ****     (#) For the UART asynchronous mode, initialize the UART registers by calling
  52:d:/LiteOS_Lab/drivers/third_party/ST/STM32L4xx_HAL_Driver/Src\stm32l4xx_hal_uart.c ****         the HAL_UART_Init() API.
  53:d:/LiteOS_Lab/drivers/third_party/ST/STM32L4xx_HAL_Driver/Src\stm32l4xx_hal_uart.c **** 
  54:d:/LiteOS_Lab/drivers/third_party/ST/STM32L4xx_HAL_Driver/Src\stm32l4xx_hal_uart.c ****     (#) For the UART Half duplex mode, initialize the UART registers by calling
  55:d:/LiteOS_Lab/drivers/third_party/ST/STM32L4xx_HAL_Driver/Src\stm32l4xx_hal_uart.c ****         the HAL_HalfDuplex_Init() API.
  56:d:/LiteOS_Lab/drivers/third_party/ST/STM32L4xx_HAL_Driver/Src\stm32l4xx_hal_uart.c **** 
  57:d:/LiteOS_Lab/drivers/third_party/ST/STM32L4xx_HAL_Driver/Src\stm32l4xx_hal_uart.c ****     (#) For the UART LIN (Local Interconnection Network) mode, initialize the UART registers
  58:d:/LiteOS_Lab/drivers/third_party/ST/STM32L4xx_HAL_Driver/Src\stm32l4xx_hal_uart.c ****         by calling the HAL_LIN_Init() API.
  59:d:/LiteOS_Lab/drivers/third_party/ST/STM32L4xx_HAL_Driver/Src\stm32l4xx_hal_uart.c **** 
  60:d:/LiteOS_Lab/drivers/third_party/ST/STM32L4xx_HAL_Driver/Src\stm32l4xx_hal_uart.c ****     (#) For the UART Multiprocessor mode, initialize the UART registers
  61:d:/LiteOS_Lab/drivers/third_party/ST/STM32L4xx_HAL_Driver/Src\stm32l4xx_hal_uart.c ****         by calling the HAL_MultiProcessor_Init() API.
  62:d:/LiteOS_Lab/drivers/third_party/ST/STM32L4xx_HAL_Driver/Src\stm32l4xx_hal_uart.c **** 
  63:d:/LiteOS_Lab/drivers/third_party/ST/STM32L4xx_HAL_Driver/Src\stm32l4xx_hal_uart.c ****     (#) For the UART RS485 Driver Enabled mode, initialize the UART registers
  64:d:/LiteOS_Lab/drivers/third_party/ST/STM32L4xx_HAL_Driver/Src\stm32l4xx_hal_uart.c ****         by calling the HAL_RS485Ex_Init() API.
  65:d:/LiteOS_Lab/drivers/third_party/ST/STM32L4xx_HAL_Driver/Src\stm32l4xx_hal_uart.c **** 
  66:d:/LiteOS_Lab/drivers/third_party/ST/STM32L4xx_HAL_Driver/Src\stm32l4xx_hal_uart.c ****     [..]
  67:d:/LiteOS_Lab/drivers/third_party/ST/STM32L4xx_HAL_Driver/Src\stm32l4xx_hal_uart.c ****     (@) These API's (HAL_UART_Init(), HAL_HalfDuplex_Init(), HAL_LIN_Init(), HAL_MultiProcessor_Ini
  68:d:/LiteOS_Lab/drivers/third_party/ST/STM32L4xx_HAL_Driver/Src\stm32l4xx_hal_uart.c ****         also configure the low level Hardware GPIO, CLOCK, CORTEX...etc) by
  69:d:/LiteOS_Lab/drivers/third_party/ST/STM32L4xx_HAL_Driver/Src\stm32l4xx_hal_uart.c ****         calling the customized HAL_UART_MspInit() API.
  70:d:/LiteOS_Lab/drivers/third_party/ST/STM32L4xx_HAL_Driver/Src\stm32l4xx_hal_uart.c **** 
  71:d:/LiteOS_Lab/drivers/third_party/ST/STM32L4xx_HAL_Driver/Src\stm32l4xx_hal_uart.c ****   @endverbatim
  72:d:/LiteOS_Lab/drivers/third_party/ST/STM32L4xx_HAL_Driver/Src\stm32l4xx_hal_uart.c ****   ******************************************************************************
  73:d:/LiteOS_Lab/drivers/third_party/ST/STM32L4xx_HAL_Driver/Src\stm32l4xx_hal_uart.c ****   * @attention
  74:d:/LiteOS_Lab/drivers/third_party/ST/STM32L4xx_HAL_Driver/Src\stm32l4xx_hal_uart.c ****   *
  75:d:/LiteOS_Lab/drivers/third_party/ST/STM32L4xx_HAL_Driver/Src\stm32l4xx_hal_uart.c ****   * <h2><center>&copy; COPYRIGHT(c) 2017 STMicroelectronics</center></h2>
  76:d:/LiteOS_Lab/drivers/third_party/ST/STM32L4xx_HAL_Driver/Src\stm32l4xx_hal_uart.c ****   *
  77:d:/LiteOS_Lab/drivers/third_party/ST/STM32L4xx_HAL_Driver/Src\stm32l4xx_hal_uart.c ****   * Redistribution and use in source and binary forms, with or without modification,
  78:d:/LiteOS_Lab/drivers/third_party/ST/STM32L4xx_HAL_Driver/Src\stm32l4xx_hal_uart.c ****   * are permitted provided that the following conditions are met:
  79:d:/LiteOS_Lab/drivers/third_party/ST/STM32L4xx_HAL_Driver/Src\stm32l4xx_hal_uart.c ****   *   1. Redistributions of source code must retain the above copyright notice,
  80:d:/LiteOS_Lab/drivers/third_party/ST/STM32L4xx_HAL_Driver/Src\stm32l4xx_hal_uart.c ****   *      this list of conditions and the following disclaimer.
  81:d:/LiteOS_Lab/drivers/third_party/ST/STM32L4xx_HAL_Driver/Src\stm32l4xx_hal_uart.c ****   *   2. Redistributions in binary form must reproduce the above copyright notice,
  82:d:/LiteOS_Lab/drivers/third_party/ST/STM32L4xx_HAL_Driver/Src\stm32l4xx_hal_uart.c ****   *      this list of conditions and the following disclaimer in the documentation
  83:d:/LiteOS_Lab/drivers/third_party/ST/STM32L4xx_HAL_Driver/Src\stm32l4xx_hal_uart.c ****   *      and/or other materials provided with the distribution.
  84:d:/LiteOS_Lab/drivers/third_party/ST/STM32L4xx_HAL_Driver/Src\stm32l4xx_hal_uart.c ****   *   3. Neither the name of STMicroelectronics nor the names of its contributors
  85:d:/LiteOS_Lab/drivers/third_party/ST/STM32L4xx_HAL_Driver/Src\stm32l4xx_hal_uart.c ****   *      may be used to endorse or promote products derived from this software
  86:d:/LiteOS_Lab/drivers/third_party/ST/STM32L4xx_HAL_Driver/Src\stm32l4xx_hal_uart.c ****   *      without specific prior written permission.
  87:d:/LiteOS_Lab/drivers/third_party/ST/STM32L4xx_HAL_Driver/Src\stm32l4xx_hal_uart.c ****   *
ARM GAS  C:\Users\ADMINI~1\AppData\Local\Temp\ccHDbRvY.s 			page 3


  88:d:/LiteOS_Lab/drivers/third_party/ST/STM32L4xx_HAL_Driver/Src\stm32l4xx_hal_uart.c ****   * THIS SOFTWARE IS PROVIDED BY THE COPYRIGHT HOLDERS AND CONTRIBUTORS "AS IS"
  89:d:/LiteOS_Lab/drivers/third_party/ST/STM32L4xx_HAL_Driver/Src\stm32l4xx_hal_uart.c ****   * AND ANY EXPRESS OR IMPLIED WARRANTIES, INCLUDING, BUT NOT LIMITED TO, THE
  90:d:/LiteOS_Lab/drivers/third_party/ST/STM32L4xx_HAL_Driver/Src\stm32l4xx_hal_uart.c ****   * IMPLIED WARRANTIES OF MERCHANTABILITY AND FITNESS FOR A PARTICULAR PURPOSE ARE
  91:d:/LiteOS_Lab/drivers/third_party/ST/STM32L4xx_HAL_Driver/Src\stm32l4xx_hal_uart.c ****   * DISCLAIMED. IN NO EVENT SHALL THE COPYRIGHT HOLDER OR CONTRIBUTORS BE LIABLE
  92:d:/LiteOS_Lab/drivers/third_party/ST/STM32L4xx_HAL_Driver/Src\stm32l4xx_hal_uart.c ****   * FOR ANY DIRECT, INDIRECT, INCIDENTAL, SPECIAL, EXEMPLARY, OR CONSEQUENTIAL
  93:d:/LiteOS_Lab/drivers/third_party/ST/STM32L4xx_HAL_Driver/Src\stm32l4xx_hal_uart.c ****   * DAMAGES (INCLUDING, BUT NOT LIMITED TO, PROCUREMENT OF SUBSTITUTE GOODS OR
  94:d:/LiteOS_Lab/drivers/third_party/ST/STM32L4xx_HAL_Driver/Src\stm32l4xx_hal_uart.c ****   * SERVICES; LOSS OF USE, DATA, OR PROFITS; OR BUSINESS INTERRUPTION) HOWEVER
  95:d:/LiteOS_Lab/drivers/third_party/ST/STM32L4xx_HAL_Driver/Src\stm32l4xx_hal_uart.c ****   * CAUSED AND ON ANY THEORY OF LIABILITY, WHETHER IN CONTRACT, STRICT LIABILITY,
  96:d:/LiteOS_Lab/drivers/third_party/ST/STM32L4xx_HAL_Driver/Src\stm32l4xx_hal_uart.c ****   * OR TORT (INCLUDING NEGLIGENCE OR OTHERWISE) ARISING IN ANY WAY OUT OF THE USE
  97:d:/LiteOS_Lab/drivers/third_party/ST/STM32L4xx_HAL_Driver/Src\stm32l4xx_hal_uart.c ****   * OF THIS SOFTWARE, EVEN IF ADVISED OF THE POSSIBILITY OF SUCH DAMAGE.
  98:d:/LiteOS_Lab/drivers/third_party/ST/STM32L4xx_HAL_Driver/Src\stm32l4xx_hal_uart.c ****   *
  99:d:/LiteOS_Lab/drivers/third_party/ST/STM32L4xx_HAL_Driver/Src\stm32l4xx_hal_uart.c ****   ******************************************************************************
 100:d:/LiteOS_Lab/drivers/third_party/ST/STM32L4xx_HAL_Driver/Src\stm32l4xx_hal_uart.c ****   */
 101:d:/LiteOS_Lab/drivers/third_party/ST/STM32L4xx_HAL_Driver/Src\stm32l4xx_hal_uart.c **** 
 102:d:/LiteOS_Lab/drivers/third_party/ST/STM32L4xx_HAL_Driver/Src\stm32l4xx_hal_uart.c **** /* Includes ------------------------------------------------------------------*/
 103:d:/LiteOS_Lab/drivers/third_party/ST/STM32L4xx_HAL_Driver/Src\stm32l4xx_hal_uart.c **** #include "stm32l4xx_hal.h"
 104:d:/LiteOS_Lab/drivers/third_party/ST/STM32L4xx_HAL_Driver/Src\stm32l4xx_hal_uart.c **** 
 105:d:/LiteOS_Lab/drivers/third_party/ST/STM32L4xx_HAL_Driver/Src\stm32l4xx_hal_uart.c **** /** @addtogroup STM32L4xx_HAL_Driver
 106:d:/LiteOS_Lab/drivers/third_party/ST/STM32L4xx_HAL_Driver/Src\stm32l4xx_hal_uart.c ****   * @{
 107:d:/LiteOS_Lab/drivers/third_party/ST/STM32L4xx_HAL_Driver/Src\stm32l4xx_hal_uart.c ****   */
 108:d:/LiteOS_Lab/drivers/third_party/ST/STM32L4xx_HAL_Driver/Src\stm32l4xx_hal_uart.c **** 
 109:d:/LiteOS_Lab/drivers/third_party/ST/STM32L4xx_HAL_Driver/Src\stm32l4xx_hal_uart.c **** /** @defgroup UART UART
 110:d:/LiteOS_Lab/drivers/third_party/ST/STM32L4xx_HAL_Driver/Src\stm32l4xx_hal_uart.c ****   * @brief HAL UART module driver
 111:d:/LiteOS_Lab/drivers/third_party/ST/STM32L4xx_HAL_Driver/Src\stm32l4xx_hal_uart.c ****   * @{
 112:d:/LiteOS_Lab/drivers/third_party/ST/STM32L4xx_HAL_Driver/Src\stm32l4xx_hal_uart.c ****   */
 113:d:/LiteOS_Lab/drivers/third_party/ST/STM32L4xx_HAL_Driver/Src\stm32l4xx_hal_uart.c **** 
 114:d:/LiteOS_Lab/drivers/third_party/ST/STM32L4xx_HAL_Driver/Src\stm32l4xx_hal_uart.c **** #ifdef HAL_UART_MODULE_ENABLED
 115:d:/LiteOS_Lab/drivers/third_party/ST/STM32L4xx_HAL_Driver/Src\stm32l4xx_hal_uart.c **** 
 116:d:/LiteOS_Lab/drivers/third_party/ST/STM32L4xx_HAL_Driver/Src\stm32l4xx_hal_uart.c **** /* Private typedef -----------------------------------------------------------*/
 117:d:/LiteOS_Lab/drivers/third_party/ST/STM32L4xx_HAL_Driver/Src\stm32l4xx_hal_uart.c **** /* Private define ------------------------------------------------------------*/
 118:d:/LiteOS_Lab/drivers/third_party/ST/STM32L4xx_HAL_Driver/Src\stm32l4xx_hal_uart.c **** /** @defgroup UART_Private_Constants UART Private Constants
 119:d:/LiteOS_Lab/drivers/third_party/ST/STM32L4xx_HAL_Driver/Src\stm32l4xx_hal_uart.c ****   * @{
 120:d:/LiteOS_Lab/drivers/third_party/ST/STM32L4xx_HAL_Driver/Src\stm32l4xx_hal_uart.c ****   */
 121:d:/LiteOS_Lab/drivers/third_party/ST/STM32L4xx_HAL_Driver/Src\stm32l4xx_hal_uart.c **** #define UART_CR1_FIELDS  ((uint32_t)(USART_CR1_M | USART_CR1_PCE | USART_CR1_PS | \
 122:d:/LiteOS_Lab/drivers/third_party/ST/STM32L4xx_HAL_Driver/Src\stm32l4xx_hal_uart.c ****                                      USART_CR1_TE | USART_CR1_RE | USART_CR1_OVER8)) /*!< UART or U
 123:d:/LiteOS_Lab/drivers/third_party/ST/STM32L4xx_HAL_Driver/Src\stm32l4xx_hal_uart.c **** 
 124:d:/LiteOS_Lab/drivers/third_party/ST/STM32L4xx_HAL_Driver/Src\stm32l4xx_hal_uart.c **** #define UART_LPUART_BRR_MIN           ((uint32_t)0x00000300)  /* LPUART BRR minimum authorized valu
 125:d:/LiteOS_Lab/drivers/third_party/ST/STM32L4xx_HAL_Driver/Src\stm32l4xx_hal_uart.c **** #define UART_LPUART_BRR_MAX           ((uint32_t)0x000FFFFF)  /* LPUART BRR maximum authorized valu
 126:d:/LiteOS_Lab/drivers/third_party/ST/STM32L4xx_HAL_Driver/Src\stm32l4xx_hal_uart.c **** /**
 127:d:/LiteOS_Lab/drivers/third_party/ST/STM32L4xx_HAL_Driver/Src\stm32l4xx_hal_uart.c ****   * @}
 128:d:/LiteOS_Lab/drivers/third_party/ST/STM32L4xx_HAL_Driver/Src\stm32l4xx_hal_uart.c ****   */
 129:d:/LiteOS_Lab/drivers/third_party/ST/STM32L4xx_HAL_Driver/Src\stm32l4xx_hal_uart.c **** 
 130:d:/LiteOS_Lab/drivers/third_party/ST/STM32L4xx_HAL_Driver/Src\stm32l4xx_hal_uart.c **** /* Private macros ------------------------------------------------------------*/
 131:d:/LiteOS_Lab/drivers/third_party/ST/STM32L4xx_HAL_Driver/Src\stm32l4xx_hal_uart.c **** /* Private variables ---------------------------------------------------------*/
 132:d:/LiteOS_Lab/drivers/third_party/ST/STM32L4xx_HAL_Driver/Src\stm32l4xx_hal_uart.c **** /* Private function prototypes -----------------------------------------------*/
 133:d:/LiteOS_Lab/drivers/third_party/ST/STM32L4xx_HAL_Driver/Src\stm32l4xx_hal_uart.c **** /** @addtogroup UART_Private_Functions
 134:d:/LiteOS_Lab/drivers/third_party/ST/STM32L4xx_HAL_Driver/Src\stm32l4xx_hal_uart.c ****   * @{
 135:d:/LiteOS_Lab/drivers/third_party/ST/STM32L4xx_HAL_Driver/Src\stm32l4xx_hal_uart.c ****   */
 136:d:/LiteOS_Lab/drivers/third_party/ST/STM32L4xx_HAL_Driver/Src\stm32l4xx_hal_uart.c **** static void UART_EndTxTransfer(UART_HandleTypeDef *huart);
 137:d:/LiteOS_Lab/drivers/third_party/ST/STM32L4xx_HAL_Driver/Src\stm32l4xx_hal_uart.c **** static void UART_EndRxTransfer(UART_HandleTypeDef *huart);
 138:d:/LiteOS_Lab/drivers/third_party/ST/STM32L4xx_HAL_Driver/Src\stm32l4xx_hal_uart.c **** static void UART_DMATransmitCplt(DMA_HandleTypeDef *hdma);
 139:d:/LiteOS_Lab/drivers/third_party/ST/STM32L4xx_HAL_Driver/Src\stm32l4xx_hal_uart.c **** static void UART_DMAReceiveCplt(DMA_HandleTypeDef *hdma);
 140:d:/LiteOS_Lab/drivers/third_party/ST/STM32L4xx_HAL_Driver/Src\stm32l4xx_hal_uart.c **** static void UART_DMARxHalfCplt(DMA_HandleTypeDef *hdma);
 141:d:/LiteOS_Lab/drivers/third_party/ST/STM32L4xx_HAL_Driver/Src\stm32l4xx_hal_uart.c **** static void UART_DMATxHalfCplt(DMA_HandleTypeDef *hdma);
 142:d:/LiteOS_Lab/drivers/third_party/ST/STM32L4xx_HAL_Driver/Src\stm32l4xx_hal_uart.c **** static void UART_DMAError(DMA_HandleTypeDef *hdma);
 143:d:/LiteOS_Lab/drivers/third_party/ST/STM32L4xx_HAL_Driver/Src\stm32l4xx_hal_uart.c **** static void UART_DMAAbortOnError(DMA_HandleTypeDef *hdma);
 144:d:/LiteOS_Lab/drivers/third_party/ST/STM32L4xx_HAL_Driver/Src\stm32l4xx_hal_uart.c **** static void UART_DMATxAbortCallback(DMA_HandleTypeDef *hdma);
ARM GAS  C:\Users\ADMINI~1\AppData\Local\Temp\ccHDbRvY.s 			page 4


 145:d:/LiteOS_Lab/drivers/third_party/ST/STM32L4xx_HAL_Driver/Src\stm32l4xx_hal_uart.c **** static void UART_DMARxAbortCallback(DMA_HandleTypeDef *hdma);
 146:d:/LiteOS_Lab/drivers/third_party/ST/STM32L4xx_HAL_Driver/Src\stm32l4xx_hal_uart.c **** static void UART_DMATxOnlyAbortCallback(DMA_HandleTypeDef *hdma);
 147:d:/LiteOS_Lab/drivers/third_party/ST/STM32L4xx_HAL_Driver/Src\stm32l4xx_hal_uart.c **** static void UART_DMARxOnlyAbortCallback(DMA_HandleTypeDef *hdma);
 148:d:/LiteOS_Lab/drivers/third_party/ST/STM32L4xx_HAL_Driver/Src\stm32l4xx_hal_uart.c **** HAL_StatusTypeDef UART_Transmit_IT(UART_HandleTypeDef *huart);
 149:d:/LiteOS_Lab/drivers/third_party/ST/STM32L4xx_HAL_Driver/Src\stm32l4xx_hal_uart.c **** HAL_StatusTypeDef UART_EndTransmit_IT(UART_HandleTypeDef *huart);
 150:d:/LiteOS_Lab/drivers/third_party/ST/STM32L4xx_HAL_Driver/Src\stm32l4xx_hal_uart.c **** static HAL_StatusTypeDef UART_Receive_IT(UART_HandleTypeDef *huart);
 151:d:/LiteOS_Lab/drivers/third_party/ST/STM32L4xx_HAL_Driver/Src\stm32l4xx_hal_uart.c **** /**
 152:d:/LiteOS_Lab/drivers/third_party/ST/STM32L4xx_HAL_Driver/Src\stm32l4xx_hal_uart.c ****   * @}
 153:d:/LiteOS_Lab/drivers/third_party/ST/STM32L4xx_HAL_Driver/Src\stm32l4xx_hal_uart.c ****   */
 154:d:/LiteOS_Lab/drivers/third_party/ST/STM32L4xx_HAL_Driver/Src\stm32l4xx_hal_uart.c **** 
 155:d:/LiteOS_Lab/drivers/third_party/ST/STM32L4xx_HAL_Driver/Src\stm32l4xx_hal_uart.c **** /* Exported functions --------------------------------------------------------*/
 156:d:/LiteOS_Lab/drivers/third_party/ST/STM32L4xx_HAL_Driver/Src\stm32l4xx_hal_uart.c **** 
 157:d:/LiteOS_Lab/drivers/third_party/ST/STM32L4xx_HAL_Driver/Src\stm32l4xx_hal_uart.c **** /** @defgroup UART_Exported_Functions UART Exported Functions
 158:d:/LiteOS_Lab/drivers/third_party/ST/STM32L4xx_HAL_Driver/Src\stm32l4xx_hal_uart.c ****   * @{
 159:d:/LiteOS_Lab/drivers/third_party/ST/STM32L4xx_HAL_Driver/Src\stm32l4xx_hal_uart.c ****   */
 160:d:/LiteOS_Lab/drivers/third_party/ST/STM32L4xx_HAL_Driver/Src\stm32l4xx_hal_uart.c **** 
 161:d:/LiteOS_Lab/drivers/third_party/ST/STM32L4xx_HAL_Driver/Src\stm32l4xx_hal_uart.c **** /** @defgroup UART_Exported_Functions_Group1 Initialization and de-initialization functions
 162:d:/LiteOS_Lab/drivers/third_party/ST/STM32L4xx_HAL_Driver/Src\stm32l4xx_hal_uart.c ****   *  @brief    Initialization and Configuration functions
 163:d:/LiteOS_Lab/drivers/third_party/ST/STM32L4xx_HAL_Driver/Src\stm32l4xx_hal_uart.c ****   *
 164:d:/LiteOS_Lab/drivers/third_party/ST/STM32L4xx_HAL_Driver/Src\stm32l4xx_hal_uart.c **** @verbatim
 165:d:/LiteOS_Lab/drivers/third_party/ST/STM32L4xx_HAL_Driver/Src\stm32l4xx_hal_uart.c **** ===============================================================================
 166:d:/LiteOS_Lab/drivers/third_party/ST/STM32L4xx_HAL_Driver/Src\stm32l4xx_hal_uart.c ****             ##### Initialization and Configuration functions #####
 167:d:/LiteOS_Lab/drivers/third_party/ST/STM32L4xx_HAL_Driver/Src\stm32l4xx_hal_uart.c ****  ===============================================================================
 168:d:/LiteOS_Lab/drivers/third_party/ST/STM32L4xx_HAL_Driver/Src\stm32l4xx_hal_uart.c ****     [..]
 169:d:/LiteOS_Lab/drivers/third_party/ST/STM32L4xx_HAL_Driver/Src\stm32l4xx_hal_uart.c ****     This subsection provides a set of functions allowing to initialize the USARTx or the UARTy
 170:d:/LiteOS_Lab/drivers/third_party/ST/STM32L4xx_HAL_Driver/Src\stm32l4xx_hal_uart.c ****     in asynchronous mode.
 171:d:/LiteOS_Lab/drivers/third_party/ST/STM32L4xx_HAL_Driver/Src\stm32l4xx_hal_uart.c ****       (+) For the asynchronous mode the parameters below can be configured:
 172:d:/LiteOS_Lab/drivers/third_party/ST/STM32L4xx_HAL_Driver/Src\stm32l4xx_hal_uart.c ****         (++) Baud Rate
 173:d:/LiteOS_Lab/drivers/third_party/ST/STM32L4xx_HAL_Driver/Src\stm32l4xx_hal_uart.c ****         (++) Word Length
 174:d:/LiteOS_Lab/drivers/third_party/ST/STM32L4xx_HAL_Driver/Src\stm32l4xx_hal_uart.c ****         (++) Stop Bit
 175:d:/LiteOS_Lab/drivers/third_party/ST/STM32L4xx_HAL_Driver/Src\stm32l4xx_hal_uart.c ****         (++) Parity: If the parity is enabled, then the MSB bit of the data written
 176:d:/LiteOS_Lab/drivers/third_party/ST/STM32L4xx_HAL_Driver/Src\stm32l4xx_hal_uart.c ****              in the data register is transmitted but is changed by the parity bit.
 177:d:/LiteOS_Lab/drivers/third_party/ST/STM32L4xx_HAL_Driver/Src\stm32l4xx_hal_uart.c ****         (++) Hardware flow control
 178:d:/LiteOS_Lab/drivers/third_party/ST/STM32L4xx_HAL_Driver/Src\stm32l4xx_hal_uart.c ****         (++) Receiver/transmitter modes
 179:d:/LiteOS_Lab/drivers/third_party/ST/STM32L4xx_HAL_Driver/Src\stm32l4xx_hal_uart.c ****         (++) Over Sampling Method
 180:d:/LiteOS_Lab/drivers/third_party/ST/STM32L4xx_HAL_Driver/Src\stm32l4xx_hal_uart.c ****         (++) One-Bit Sampling Method
 181:d:/LiteOS_Lab/drivers/third_party/ST/STM32L4xx_HAL_Driver/Src\stm32l4xx_hal_uart.c ****       (+) For the asynchronous mode, the following advanced features can be configured as well:
 182:d:/LiteOS_Lab/drivers/third_party/ST/STM32L4xx_HAL_Driver/Src\stm32l4xx_hal_uart.c ****         (++) TX and/or RX pin level inversion
 183:d:/LiteOS_Lab/drivers/third_party/ST/STM32L4xx_HAL_Driver/Src\stm32l4xx_hal_uart.c ****         (++) data logical level inversion
 184:d:/LiteOS_Lab/drivers/third_party/ST/STM32L4xx_HAL_Driver/Src\stm32l4xx_hal_uart.c ****         (++) RX and TX pins swap
 185:d:/LiteOS_Lab/drivers/third_party/ST/STM32L4xx_HAL_Driver/Src\stm32l4xx_hal_uart.c ****         (++) RX overrun detection disabling
 186:d:/LiteOS_Lab/drivers/third_party/ST/STM32L4xx_HAL_Driver/Src\stm32l4xx_hal_uart.c ****         (++) DMA disabling on RX error
 187:d:/LiteOS_Lab/drivers/third_party/ST/STM32L4xx_HAL_Driver/Src\stm32l4xx_hal_uart.c ****         (++) MSB first on communication line
 188:d:/LiteOS_Lab/drivers/third_party/ST/STM32L4xx_HAL_Driver/Src\stm32l4xx_hal_uart.c ****         (++) auto Baud rate detection
 189:d:/LiteOS_Lab/drivers/third_party/ST/STM32L4xx_HAL_Driver/Src\stm32l4xx_hal_uart.c ****     [..]
 190:d:/LiteOS_Lab/drivers/third_party/ST/STM32L4xx_HAL_Driver/Src\stm32l4xx_hal_uart.c ****     The HAL_UART_Init(), HAL_HalfDuplex_Init(), HAL_LIN_Init()and HAL_MultiProcessor_Init()API
 191:d:/LiteOS_Lab/drivers/third_party/ST/STM32L4xx_HAL_Driver/Src\stm32l4xx_hal_uart.c ****     follow respectively the UART asynchronous, UART Half duplex, UART LIN mode
 192:d:/LiteOS_Lab/drivers/third_party/ST/STM32L4xx_HAL_Driver/Src\stm32l4xx_hal_uart.c ****     and UART multiprocessor mode configuration procedures (details for the procedures
 193:d:/LiteOS_Lab/drivers/third_party/ST/STM32L4xx_HAL_Driver/Src\stm32l4xx_hal_uart.c ****     are available in reference manual).
 194:d:/LiteOS_Lab/drivers/third_party/ST/STM32L4xx_HAL_Driver/Src\stm32l4xx_hal_uart.c **** 
 195:d:/LiteOS_Lab/drivers/third_party/ST/STM32L4xx_HAL_Driver/Src\stm32l4xx_hal_uart.c **** @endverbatim
 196:d:/LiteOS_Lab/drivers/third_party/ST/STM32L4xx_HAL_Driver/Src\stm32l4xx_hal_uart.c **** 
 197:d:/LiteOS_Lab/drivers/third_party/ST/STM32L4xx_HAL_Driver/Src\stm32l4xx_hal_uart.c ****   Depending on the frame length defined by the M1 and M0 bits (7-bit, 
 198:d:/LiteOS_Lab/drivers/third_party/ST/STM32L4xx_HAL_Driver/Src\stm32l4xx_hal_uart.c ****   8-bit or 9-bit), the possible UART formats are listed in the 
 199:d:/LiteOS_Lab/drivers/third_party/ST/STM32L4xx_HAL_Driver/Src\stm32l4xx_hal_uart.c ****   following table.
 200:d:/LiteOS_Lab/drivers/third_party/ST/STM32L4xx_HAL_Driver/Src\stm32l4xx_hal_uart.c ****   
 201:d:/LiteOS_Lab/drivers/third_party/ST/STM32L4xx_HAL_Driver/Src\stm32l4xx_hal_uart.c ****   Table 1. UART frame format.
ARM GAS  C:\Users\ADMINI~1\AppData\Local\Temp\ccHDbRvY.s 			page 5


 202:d:/LiteOS_Lab/drivers/third_party/ST/STM32L4xx_HAL_Driver/Src\stm32l4xx_hal_uart.c ****     +-----------------------------------------------------------------------+
 203:d:/LiteOS_Lab/drivers/third_party/ST/STM32L4xx_HAL_Driver/Src\stm32l4xx_hal_uart.c ****     |  M1 bit |  M0 bit |  PCE bit  |             UART frame                |
 204:d:/LiteOS_Lab/drivers/third_party/ST/STM32L4xx_HAL_Driver/Src\stm32l4xx_hal_uart.c ****     |---------|---------|-----------|---------------------------------------|
 205:d:/LiteOS_Lab/drivers/third_party/ST/STM32L4xx_HAL_Driver/Src\stm32l4xx_hal_uart.c ****     |    0    |    0    |    0      |    | SB |    8 bit data   | STB |     |
 206:d:/LiteOS_Lab/drivers/third_party/ST/STM32L4xx_HAL_Driver/Src\stm32l4xx_hal_uart.c ****     |---------|---------|-----------|---------------------------------------|
 207:d:/LiteOS_Lab/drivers/third_party/ST/STM32L4xx_HAL_Driver/Src\stm32l4xx_hal_uart.c ****     |    0    |    0    |    1      |    | SB | 7 bit data | PB | STB |     |
 208:d:/LiteOS_Lab/drivers/third_party/ST/STM32L4xx_HAL_Driver/Src\stm32l4xx_hal_uart.c ****     |---------|---------|-----------|---------------------------------------|
 209:d:/LiteOS_Lab/drivers/third_party/ST/STM32L4xx_HAL_Driver/Src\stm32l4xx_hal_uart.c ****     |    0    |    1    |    0      |    | SB |    9 bit data   | STB |     |
 210:d:/LiteOS_Lab/drivers/third_party/ST/STM32L4xx_HAL_Driver/Src\stm32l4xx_hal_uart.c ****     |---------|---------|-----------|---------------------------------------|
 211:d:/LiteOS_Lab/drivers/third_party/ST/STM32L4xx_HAL_Driver/Src\stm32l4xx_hal_uart.c ****     |    0    |    1    |    1      |    | SB | 8 bit data | PB | STB |     |
 212:d:/LiteOS_Lab/drivers/third_party/ST/STM32L4xx_HAL_Driver/Src\stm32l4xx_hal_uart.c ****     |---------|---------|-----------|---------------------------------------|
 213:d:/LiteOS_Lab/drivers/third_party/ST/STM32L4xx_HAL_Driver/Src\stm32l4xx_hal_uart.c ****     |    1    |    0    |    0      |    | SB |    7 bit data   | STB |     |
 214:d:/LiteOS_Lab/drivers/third_party/ST/STM32L4xx_HAL_Driver/Src\stm32l4xx_hal_uart.c ****     |---------|---------|-----------|---------------------------------------|
 215:d:/LiteOS_Lab/drivers/third_party/ST/STM32L4xx_HAL_Driver/Src\stm32l4xx_hal_uart.c ****     |    1    |    0    |    1      |    | SB | 6 bit data | PB | STB |     |
 216:d:/LiteOS_Lab/drivers/third_party/ST/STM32L4xx_HAL_Driver/Src\stm32l4xx_hal_uart.c ****     +-----------------------------------------------------------------------+
 217:d:/LiteOS_Lab/drivers/third_party/ST/STM32L4xx_HAL_Driver/Src\stm32l4xx_hal_uart.c **** 
 218:d:/LiteOS_Lab/drivers/third_party/ST/STM32L4xx_HAL_Driver/Src\stm32l4xx_hal_uart.c ****   * @{
 219:d:/LiteOS_Lab/drivers/third_party/ST/STM32L4xx_HAL_Driver/Src\stm32l4xx_hal_uart.c ****   */
 220:d:/LiteOS_Lab/drivers/third_party/ST/STM32L4xx_HAL_Driver/Src\stm32l4xx_hal_uart.c **** 
 221:d:/LiteOS_Lab/drivers/third_party/ST/STM32L4xx_HAL_Driver/Src\stm32l4xx_hal_uart.c **** /**
 222:d:/LiteOS_Lab/drivers/third_party/ST/STM32L4xx_HAL_Driver/Src\stm32l4xx_hal_uart.c ****   * @brief Initialize the UART mode according to the specified
 223:d:/LiteOS_Lab/drivers/third_party/ST/STM32L4xx_HAL_Driver/Src\stm32l4xx_hal_uart.c ****   *        parameters in the UART_InitTypeDef and initialize the associated handle.
 224:d:/LiteOS_Lab/drivers/third_party/ST/STM32L4xx_HAL_Driver/Src\stm32l4xx_hal_uart.c ****   * @param huart: UART handle.
 225:d:/LiteOS_Lab/drivers/third_party/ST/STM32L4xx_HAL_Driver/Src\stm32l4xx_hal_uart.c ****   * @retval HAL status
 226:d:/LiteOS_Lab/drivers/third_party/ST/STM32L4xx_HAL_Driver/Src\stm32l4xx_hal_uart.c ****   */
 227:d:/LiteOS_Lab/drivers/third_party/ST/STM32L4xx_HAL_Driver/Src\stm32l4xx_hal_uart.c **** HAL_StatusTypeDef HAL_UART_Init(UART_HandleTypeDef *huart)
 228:d:/LiteOS_Lab/drivers/third_party/ST/STM32L4xx_HAL_Driver/Src\stm32l4xx_hal_uart.c **** {
  29              		.loc 1 228 1
  30              		.cfi_startproc
  31              		@ args = 0, pretend = 0, frame = 8
  32              		@ frame_needed = 1, uses_anonymous_args = 0
  33 0000 80B5     		push	{r7, lr}
  34              	.LCFI0:
  35              		.cfi_def_cfa_offset 8
  36              		.cfi_offset 7, -8
  37              		.cfi_offset 14, -4
  38 0002 82B0     		sub	sp, sp, #8
  39              	.LCFI1:
  40              		.cfi_def_cfa_offset 16
  41 0004 00AF     		add	r7, sp, #0
  42              	.LCFI2:
  43              		.cfi_def_cfa_register 7
  44 0006 7860     		str	r0, [r7, #4]
 229:d:/LiteOS_Lab/drivers/third_party/ST/STM32L4xx_HAL_Driver/Src\stm32l4xx_hal_uart.c ****   /* Check the UART handle allocation */
 230:d:/LiteOS_Lab/drivers/third_party/ST/STM32L4xx_HAL_Driver/Src\stm32l4xx_hal_uart.c ****   if(huart == NULL)
  45              		.loc 1 230 5
  46 0008 7B68     		ldr	r3, [r7, #4]
  47 000a 002B     		cmp	r3, #0
  48 000c 01D1     		bne	.L2
 231:d:/LiteOS_Lab/drivers/third_party/ST/STM32L4xx_HAL_Driver/Src\stm32l4xx_hal_uart.c ****   {
 232:d:/LiteOS_Lab/drivers/third_party/ST/STM32L4xx_HAL_Driver/Src\stm32l4xx_hal_uart.c ****     return HAL_ERROR;
  49              		.loc 1 232 12
  50 000e 0123     		movs	r3, #1
  51 0010 43E0     		b	.L3
  52              	.L2:
 233:d:/LiteOS_Lab/drivers/third_party/ST/STM32L4xx_HAL_Driver/Src\stm32l4xx_hal_uart.c ****   }
 234:d:/LiteOS_Lab/drivers/third_party/ST/STM32L4xx_HAL_Driver/Src\stm32l4xx_hal_uart.c **** 
ARM GAS  C:\Users\ADMINI~1\AppData\Local\Temp\ccHDbRvY.s 			page 6


 235:d:/LiteOS_Lab/drivers/third_party/ST/STM32L4xx_HAL_Driver/Src\stm32l4xx_hal_uart.c ****   if(huart->Init.HwFlowCtl != UART_HWCONTROL_NONE)
 236:d:/LiteOS_Lab/drivers/third_party/ST/STM32L4xx_HAL_Driver/Src\stm32l4xx_hal_uart.c ****   {
 237:d:/LiteOS_Lab/drivers/third_party/ST/STM32L4xx_HAL_Driver/Src\stm32l4xx_hal_uart.c ****     /* Check the parameters */
 238:d:/LiteOS_Lab/drivers/third_party/ST/STM32L4xx_HAL_Driver/Src\stm32l4xx_hal_uart.c ****     assert_param(IS_UART_HWFLOW_INSTANCE(huart->Instance));
 239:d:/LiteOS_Lab/drivers/third_party/ST/STM32L4xx_HAL_Driver/Src\stm32l4xx_hal_uart.c ****   }
 240:d:/LiteOS_Lab/drivers/third_party/ST/STM32L4xx_HAL_Driver/Src\stm32l4xx_hal_uart.c ****   else
 241:d:/LiteOS_Lab/drivers/third_party/ST/STM32L4xx_HAL_Driver/Src\stm32l4xx_hal_uart.c ****   {
 242:d:/LiteOS_Lab/drivers/third_party/ST/STM32L4xx_HAL_Driver/Src\stm32l4xx_hal_uart.c ****     /* Check the parameters */
 243:d:/LiteOS_Lab/drivers/third_party/ST/STM32L4xx_HAL_Driver/Src\stm32l4xx_hal_uart.c ****     assert_param((IS_UART_INSTANCE(huart->Instance)) || (IS_LPUART_INSTANCE(huart->Instance)));
 244:d:/LiteOS_Lab/drivers/third_party/ST/STM32L4xx_HAL_Driver/Src\stm32l4xx_hal_uart.c ****   }
 245:d:/LiteOS_Lab/drivers/third_party/ST/STM32L4xx_HAL_Driver/Src\stm32l4xx_hal_uart.c **** 
 246:d:/LiteOS_Lab/drivers/third_party/ST/STM32L4xx_HAL_Driver/Src\stm32l4xx_hal_uart.c ****   if(huart->gState == HAL_UART_STATE_RESET)
  53              		.loc 1 246 11
  54 0012 7B68     		ldr	r3, [r7, #4]
  55 0014 93F87130 		ldrb	r3, [r3, #113]
  56 0018 DBB2     		uxtb	r3, r3
  57              		.loc 1 246 5
  58 001a 002B     		cmp	r3, #0
  59 001c 06D1     		bne	.L4
 247:d:/LiteOS_Lab/drivers/third_party/ST/STM32L4xx_HAL_Driver/Src\stm32l4xx_hal_uart.c ****   {
 248:d:/LiteOS_Lab/drivers/third_party/ST/STM32L4xx_HAL_Driver/Src\stm32l4xx_hal_uart.c ****     /* Allocate lock resource and initialize it */
 249:d:/LiteOS_Lab/drivers/third_party/ST/STM32L4xx_HAL_Driver/Src\stm32l4xx_hal_uart.c ****     huart->Lock = HAL_UNLOCKED;
  60              		.loc 1 249 17
  61 001e 7B68     		ldr	r3, [r7, #4]
  62 0020 0022     		movs	r2, #0
  63 0022 83F87020 		strb	r2, [r3, #112]
 250:d:/LiteOS_Lab/drivers/third_party/ST/STM32L4xx_HAL_Driver/Src\stm32l4xx_hal_uart.c **** 
 251:d:/LiteOS_Lab/drivers/third_party/ST/STM32L4xx_HAL_Driver/Src\stm32l4xx_hal_uart.c ****     /* Init the low level hardware : GPIO, CLOCK */
 252:d:/LiteOS_Lab/drivers/third_party/ST/STM32L4xx_HAL_Driver/Src\stm32l4xx_hal_uart.c ****     HAL_UART_MspInit(huart);
  64              		.loc 1 252 5
  65 0026 7868     		ldr	r0, [r7, #4]
  66 0028 FFF7FEFF 		bl	HAL_UART_MspInit
  67              	.L4:
 253:d:/LiteOS_Lab/drivers/third_party/ST/STM32L4xx_HAL_Driver/Src\stm32l4xx_hal_uart.c ****   }
 254:d:/LiteOS_Lab/drivers/third_party/ST/STM32L4xx_HAL_Driver/Src\stm32l4xx_hal_uart.c **** 
 255:d:/LiteOS_Lab/drivers/third_party/ST/STM32L4xx_HAL_Driver/Src\stm32l4xx_hal_uart.c ****   huart->gState = HAL_UART_STATE_BUSY;
  68              		.loc 1 255 17
  69 002c 7B68     		ldr	r3, [r7, #4]
  70 002e 2422     		movs	r2, #36
  71 0030 83F87120 		strb	r2, [r3, #113]
 256:d:/LiteOS_Lab/drivers/third_party/ST/STM32L4xx_HAL_Driver/Src\stm32l4xx_hal_uart.c **** 
 257:d:/LiteOS_Lab/drivers/third_party/ST/STM32L4xx_HAL_Driver/Src\stm32l4xx_hal_uart.c ****   /* Disable the Peripheral */
 258:d:/LiteOS_Lab/drivers/third_party/ST/STM32L4xx_HAL_Driver/Src\stm32l4xx_hal_uart.c ****   __HAL_UART_DISABLE(huart);
  72              		.loc 1 258 3
  73 0034 7B68     		ldr	r3, [r7, #4]
  74 0036 1B68     		ldr	r3, [r3]
  75 0038 1A68     		ldr	r2, [r3]
  76 003a 7B68     		ldr	r3, [r7, #4]
  77 003c 1B68     		ldr	r3, [r3]
  78 003e 22F00102 		bic	r2, r2, #1
  79 0042 1A60     		str	r2, [r3]
 259:d:/LiteOS_Lab/drivers/third_party/ST/STM32L4xx_HAL_Driver/Src\stm32l4xx_hal_uart.c **** 
 260:d:/LiteOS_Lab/drivers/third_party/ST/STM32L4xx_HAL_Driver/Src\stm32l4xx_hal_uart.c ****   /* Set the UART Communication parameters */
 261:d:/LiteOS_Lab/drivers/third_party/ST/STM32L4xx_HAL_Driver/Src\stm32l4xx_hal_uart.c ****   if (UART_SetConfig(huart) == HAL_ERROR)
  80              		.loc 1 261 7
  81 0044 7868     		ldr	r0, [r7, #4]
  82 0046 FFF7FEFF 		bl	UART_SetConfig
ARM GAS  C:\Users\ADMINI~1\AppData\Local\Temp\ccHDbRvY.s 			page 7


  83 004a 0346     		mov	r3, r0
  84              		.loc 1 261 6
  85 004c 012B     		cmp	r3, #1
  86 004e 01D1     		bne	.L5
 262:d:/LiteOS_Lab/drivers/third_party/ST/STM32L4xx_HAL_Driver/Src\stm32l4xx_hal_uart.c ****   {
 263:d:/LiteOS_Lab/drivers/third_party/ST/STM32L4xx_HAL_Driver/Src\stm32l4xx_hal_uart.c ****     return HAL_ERROR;
  87              		.loc 1 263 12
  88 0050 0123     		movs	r3, #1
  89 0052 22E0     		b	.L3
  90              	.L5:
 264:d:/LiteOS_Lab/drivers/third_party/ST/STM32L4xx_HAL_Driver/Src\stm32l4xx_hal_uart.c ****   }
 265:d:/LiteOS_Lab/drivers/third_party/ST/STM32L4xx_HAL_Driver/Src\stm32l4xx_hal_uart.c **** 
 266:d:/LiteOS_Lab/drivers/third_party/ST/STM32L4xx_HAL_Driver/Src\stm32l4xx_hal_uart.c ****   if (huart->AdvancedInit.AdvFeatureInit != UART_ADVFEATURE_NO_INIT)
  91              		.loc 1 266 26
  92 0054 7B68     		ldr	r3, [r7, #4]
  93 0056 5B6A     		ldr	r3, [r3, #36]
  94              		.loc 1 266 6
  95 0058 002B     		cmp	r3, #0
  96 005a 02D0     		beq	.L6
 267:d:/LiteOS_Lab/drivers/third_party/ST/STM32L4xx_HAL_Driver/Src\stm32l4xx_hal_uart.c ****   {
 268:d:/LiteOS_Lab/drivers/third_party/ST/STM32L4xx_HAL_Driver/Src\stm32l4xx_hal_uart.c ****     UART_AdvFeatureConfig(huart);
  97              		.loc 1 268 5
  98 005c 7868     		ldr	r0, [r7, #4]
  99 005e FFF7FEFF 		bl	UART_AdvFeatureConfig
 100              	.L6:
 269:d:/LiteOS_Lab/drivers/third_party/ST/STM32L4xx_HAL_Driver/Src\stm32l4xx_hal_uart.c ****   }
 270:d:/LiteOS_Lab/drivers/third_party/ST/STM32L4xx_HAL_Driver/Src\stm32l4xx_hal_uart.c **** 
 271:d:/LiteOS_Lab/drivers/third_party/ST/STM32L4xx_HAL_Driver/Src\stm32l4xx_hal_uart.c ****   /* In asynchronous mode, the following bits must be kept cleared:
 272:d:/LiteOS_Lab/drivers/third_party/ST/STM32L4xx_HAL_Driver/Src\stm32l4xx_hal_uart.c ****   - LINEN and CLKEN bits in the USART_CR2 register,
 273:d:/LiteOS_Lab/drivers/third_party/ST/STM32L4xx_HAL_Driver/Src\stm32l4xx_hal_uart.c ****   - SCEN, HDSEL and IREN  bits in the USART_CR3 register.*/
 274:d:/LiteOS_Lab/drivers/third_party/ST/STM32L4xx_HAL_Driver/Src\stm32l4xx_hal_uart.c ****   CLEAR_BIT(huart->Instance->CR2, (USART_CR2_LINEN | USART_CR2_CLKEN));
 101              		.loc 1 274 3
 102 0062 7B68     		ldr	r3, [r7, #4]
 103 0064 1B68     		ldr	r3, [r3]
 104 0066 5A68     		ldr	r2, [r3, #4]
 105 0068 7B68     		ldr	r3, [r7, #4]
 106 006a 1B68     		ldr	r3, [r3]
 107 006c 22F49042 		bic	r2, r2, #18432
 108 0070 5A60     		str	r2, [r3, #4]
 275:d:/LiteOS_Lab/drivers/third_party/ST/STM32L4xx_HAL_Driver/Src\stm32l4xx_hal_uart.c ****   CLEAR_BIT(huart->Instance->CR3, (USART_CR3_SCEN | USART_CR3_HDSEL | USART_CR3_IREN));
 109              		.loc 1 275 3
 110 0072 7B68     		ldr	r3, [r7, #4]
 111 0074 1B68     		ldr	r3, [r3]
 112 0076 9A68     		ldr	r2, [r3, #8]
 113 0078 7B68     		ldr	r3, [r7, #4]
 114 007a 1B68     		ldr	r3, [r3]
 115 007c 22F02A02 		bic	r2, r2, #42
 116 0080 9A60     		str	r2, [r3, #8]
 276:d:/LiteOS_Lab/drivers/third_party/ST/STM32L4xx_HAL_Driver/Src\stm32l4xx_hal_uart.c **** 
 277:d:/LiteOS_Lab/drivers/third_party/ST/STM32L4xx_HAL_Driver/Src\stm32l4xx_hal_uart.c ****   /* Enable the Peripheral */
 278:d:/LiteOS_Lab/drivers/third_party/ST/STM32L4xx_HAL_Driver/Src\stm32l4xx_hal_uart.c ****   __HAL_UART_ENABLE(huart);
 117              		.loc 1 278 3
 118 0082 7B68     		ldr	r3, [r7, #4]
 119 0084 1B68     		ldr	r3, [r3]
 120 0086 1A68     		ldr	r2, [r3]
 121 0088 7B68     		ldr	r3, [r7, #4]
 122 008a 1B68     		ldr	r3, [r3]
ARM GAS  C:\Users\ADMINI~1\AppData\Local\Temp\ccHDbRvY.s 			page 8


 123 008c 42F00102 		orr	r2, r2, #1
 124 0090 1A60     		str	r2, [r3]
 279:d:/LiteOS_Lab/drivers/third_party/ST/STM32L4xx_HAL_Driver/Src\stm32l4xx_hal_uart.c **** 
 280:d:/LiteOS_Lab/drivers/third_party/ST/STM32L4xx_HAL_Driver/Src\stm32l4xx_hal_uart.c ****   /* TEACK and/or REACK to check before moving huart->gState and huart->RxState to Ready */
 281:d:/LiteOS_Lab/drivers/third_party/ST/STM32L4xx_HAL_Driver/Src\stm32l4xx_hal_uart.c ****   return (UART_CheckIdleState(huart));
 125              		.loc 1 281 11
 126 0092 7868     		ldr	r0, [r7, #4]
 127 0094 FFF7FEFF 		bl	UART_CheckIdleState
 128 0098 0346     		mov	r3, r0
 129              	.L3:
 282:d:/LiteOS_Lab/drivers/third_party/ST/STM32L4xx_HAL_Driver/Src\stm32l4xx_hal_uart.c **** }
 130              		.loc 1 282 1
 131 009a 1846     		mov	r0, r3
 132 009c 0837     		adds	r7, r7, #8
 133              	.LCFI3:
 134              		.cfi_def_cfa_offset 8
 135 009e BD46     		mov	sp, r7
 136              	.LCFI4:
 137              		.cfi_def_cfa_register 13
 138              		@ sp needed
 139 00a0 80BD     		pop	{r7, pc}
 140              		.cfi_endproc
 141              	.LFE287:
 143              		.section	.text.HAL_HalfDuplex_Init,"ax",%progbits
 144              		.align	1
 145              		.global	HAL_HalfDuplex_Init
 146              		.syntax unified
 147              		.thumb
 148              		.thumb_func
 149              		.fpu fpv4-sp-d16
 151              	HAL_HalfDuplex_Init:
 152              	.LFB288:
 283:d:/LiteOS_Lab/drivers/third_party/ST/STM32L4xx_HAL_Driver/Src\stm32l4xx_hal_uart.c **** 
 284:d:/LiteOS_Lab/drivers/third_party/ST/STM32L4xx_HAL_Driver/Src\stm32l4xx_hal_uart.c **** /**
 285:d:/LiteOS_Lab/drivers/third_party/ST/STM32L4xx_HAL_Driver/Src\stm32l4xx_hal_uart.c ****   * @brief Initialize the half-duplex mode according to the specified
 286:d:/LiteOS_Lab/drivers/third_party/ST/STM32L4xx_HAL_Driver/Src\stm32l4xx_hal_uart.c ****   *        parameters in the UART_InitTypeDef and creates the associated handle.
 287:d:/LiteOS_Lab/drivers/third_party/ST/STM32L4xx_HAL_Driver/Src\stm32l4xx_hal_uart.c ****   * @param huart: UART handle.
 288:d:/LiteOS_Lab/drivers/third_party/ST/STM32L4xx_HAL_Driver/Src\stm32l4xx_hal_uart.c ****   * @retval HAL status
 289:d:/LiteOS_Lab/drivers/third_party/ST/STM32L4xx_HAL_Driver/Src\stm32l4xx_hal_uart.c ****   */
 290:d:/LiteOS_Lab/drivers/third_party/ST/STM32L4xx_HAL_Driver/Src\stm32l4xx_hal_uart.c **** HAL_StatusTypeDef HAL_HalfDuplex_Init(UART_HandleTypeDef *huart)
 291:d:/LiteOS_Lab/drivers/third_party/ST/STM32L4xx_HAL_Driver/Src\stm32l4xx_hal_uart.c **** {
 153              		.loc 1 291 1
 154              		.cfi_startproc
 155              		@ args = 0, pretend = 0, frame = 8
 156              		@ frame_needed = 1, uses_anonymous_args = 0
 157 0000 80B5     		push	{r7, lr}
 158              	.LCFI5:
 159              		.cfi_def_cfa_offset 8
 160              		.cfi_offset 7, -8
 161              		.cfi_offset 14, -4
 162 0002 82B0     		sub	sp, sp, #8
 163              	.LCFI6:
 164              		.cfi_def_cfa_offset 16
 165 0004 00AF     		add	r7, sp, #0
 166              	.LCFI7:
 167              		.cfi_def_cfa_register 7
 168 0006 7860     		str	r0, [r7, #4]
ARM GAS  C:\Users\ADMINI~1\AppData\Local\Temp\ccHDbRvY.s 			page 9


 292:d:/LiteOS_Lab/drivers/third_party/ST/STM32L4xx_HAL_Driver/Src\stm32l4xx_hal_uart.c ****   /* Check the UART handle allocation */
 293:d:/LiteOS_Lab/drivers/third_party/ST/STM32L4xx_HAL_Driver/Src\stm32l4xx_hal_uart.c ****   if(huart == NULL)
 169              		.loc 1 293 5
 170 0008 7B68     		ldr	r3, [r7, #4]
 171 000a 002B     		cmp	r3, #0
 172 000c 01D1     		bne	.L8
 294:d:/LiteOS_Lab/drivers/third_party/ST/STM32L4xx_HAL_Driver/Src\stm32l4xx_hal_uart.c ****   {
 295:d:/LiteOS_Lab/drivers/third_party/ST/STM32L4xx_HAL_Driver/Src\stm32l4xx_hal_uart.c ****     return HAL_ERROR;
 173              		.loc 1 295 12
 174 000e 0123     		movs	r3, #1
 175 0010 4BE0     		b	.L9
 176              	.L8:
 296:d:/LiteOS_Lab/drivers/third_party/ST/STM32L4xx_HAL_Driver/Src\stm32l4xx_hal_uart.c ****   }
 297:d:/LiteOS_Lab/drivers/third_party/ST/STM32L4xx_HAL_Driver/Src\stm32l4xx_hal_uart.c **** 
 298:d:/LiteOS_Lab/drivers/third_party/ST/STM32L4xx_HAL_Driver/Src\stm32l4xx_hal_uart.c ****   /* Check UART instance */
 299:d:/LiteOS_Lab/drivers/third_party/ST/STM32L4xx_HAL_Driver/Src\stm32l4xx_hal_uart.c ****   assert_param(IS_UART_HALFDUPLEX_INSTANCE(huart->Instance));
 300:d:/LiteOS_Lab/drivers/third_party/ST/STM32L4xx_HAL_Driver/Src\stm32l4xx_hal_uart.c **** 
 301:d:/LiteOS_Lab/drivers/third_party/ST/STM32L4xx_HAL_Driver/Src\stm32l4xx_hal_uart.c ****   if(huart->gState == HAL_UART_STATE_RESET)
 177              		.loc 1 301 11
 178 0012 7B68     		ldr	r3, [r7, #4]
 179 0014 93F87130 		ldrb	r3, [r3, #113]
 180 0018 DBB2     		uxtb	r3, r3
 181              		.loc 1 301 5
 182 001a 002B     		cmp	r3, #0
 183 001c 06D1     		bne	.L10
 302:d:/LiteOS_Lab/drivers/third_party/ST/STM32L4xx_HAL_Driver/Src\stm32l4xx_hal_uart.c ****   {
 303:d:/LiteOS_Lab/drivers/third_party/ST/STM32L4xx_HAL_Driver/Src\stm32l4xx_hal_uart.c ****     /* Allocate lock resource and initialize it */
 304:d:/LiteOS_Lab/drivers/third_party/ST/STM32L4xx_HAL_Driver/Src\stm32l4xx_hal_uart.c ****     huart->Lock = HAL_UNLOCKED;
 184              		.loc 1 304 17
 185 001e 7B68     		ldr	r3, [r7, #4]
 186 0020 0022     		movs	r2, #0
 187 0022 83F87020 		strb	r2, [r3, #112]
 305:d:/LiteOS_Lab/drivers/third_party/ST/STM32L4xx_HAL_Driver/Src\stm32l4xx_hal_uart.c **** 
 306:d:/LiteOS_Lab/drivers/third_party/ST/STM32L4xx_HAL_Driver/Src\stm32l4xx_hal_uart.c ****     /* Init the low level hardware : GPIO, CLOCK */
 307:d:/LiteOS_Lab/drivers/third_party/ST/STM32L4xx_HAL_Driver/Src\stm32l4xx_hal_uart.c ****     HAL_UART_MspInit(huart);
 188              		.loc 1 307 5
 189 0026 7868     		ldr	r0, [r7, #4]
 190 0028 FFF7FEFF 		bl	HAL_UART_MspInit
 191              	.L10:
 308:d:/LiteOS_Lab/drivers/third_party/ST/STM32L4xx_HAL_Driver/Src\stm32l4xx_hal_uart.c ****   }
 309:d:/LiteOS_Lab/drivers/third_party/ST/STM32L4xx_HAL_Driver/Src\stm32l4xx_hal_uart.c **** 
 310:d:/LiteOS_Lab/drivers/third_party/ST/STM32L4xx_HAL_Driver/Src\stm32l4xx_hal_uart.c ****   huart->gState = HAL_UART_STATE_BUSY;
 192              		.loc 1 310 17
 193 002c 7B68     		ldr	r3, [r7, #4]
 194 002e 2422     		movs	r2, #36
 195 0030 83F87120 		strb	r2, [r3, #113]
 311:d:/LiteOS_Lab/drivers/third_party/ST/STM32L4xx_HAL_Driver/Src\stm32l4xx_hal_uart.c **** 
 312:d:/LiteOS_Lab/drivers/third_party/ST/STM32L4xx_HAL_Driver/Src\stm32l4xx_hal_uart.c ****   /* Disable the Peripheral */
 313:d:/LiteOS_Lab/drivers/third_party/ST/STM32L4xx_HAL_Driver/Src\stm32l4xx_hal_uart.c ****   __HAL_UART_DISABLE(huart);
 196              		.loc 1 313 3
 197 0034 7B68     		ldr	r3, [r7, #4]
 198 0036 1B68     		ldr	r3, [r3]
 199 0038 1A68     		ldr	r2, [r3]
 200 003a 7B68     		ldr	r3, [r7, #4]
 201 003c 1B68     		ldr	r3, [r3]
 202 003e 22F00102 		bic	r2, r2, #1
 203 0042 1A60     		str	r2, [r3]
ARM GAS  C:\Users\ADMINI~1\AppData\Local\Temp\ccHDbRvY.s 			page 10


 314:d:/LiteOS_Lab/drivers/third_party/ST/STM32L4xx_HAL_Driver/Src\stm32l4xx_hal_uart.c **** 
 315:d:/LiteOS_Lab/drivers/third_party/ST/STM32L4xx_HAL_Driver/Src\stm32l4xx_hal_uart.c ****   /* Set the UART Communication parameters */
 316:d:/LiteOS_Lab/drivers/third_party/ST/STM32L4xx_HAL_Driver/Src\stm32l4xx_hal_uart.c ****   if (UART_SetConfig(huart) == HAL_ERROR)
 204              		.loc 1 316 7
 205 0044 7868     		ldr	r0, [r7, #4]
 206 0046 FFF7FEFF 		bl	UART_SetConfig
 207 004a 0346     		mov	r3, r0
 208              		.loc 1 316 6
 209 004c 012B     		cmp	r3, #1
 210 004e 01D1     		bne	.L11
 317:d:/LiteOS_Lab/drivers/third_party/ST/STM32L4xx_HAL_Driver/Src\stm32l4xx_hal_uart.c ****   {
 318:d:/LiteOS_Lab/drivers/third_party/ST/STM32L4xx_HAL_Driver/Src\stm32l4xx_hal_uart.c ****     return HAL_ERROR;
 211              		.loc 1 318 12
 212 0050 0123     		movs	r3, #1
 213 0052 2AE0     		b	.L9
 214              	.L11:
 319:d:/LiteOS_Lab/drivers/third_party/ST/STM32L4xx_HAL_Driver/Src\stm32l4xx_hal_uart.c ****   }
 320:d:/LiteOS_Lab/drivers/third_party/ST/STM32L4xx_HAL_Driver/Src\stm32l4xx_hal_uart.c **** 
 321:d:/LiteOS_Lab/drivers/third_party/ST/STM32L4xx_HAL_Driver/Src\stm32l4xx_hal_uart.c ****   if (huart->AdvancedInit.AdvFeatureInit != UART_ADVFEATURE_NO_INIT)
 215              		.loc 1 321 26
 216 0054 7B68     		ldr	r3, [r7, #4]
 217 0056 5B6A     		ldr	r3, [r3, #36]
 218              		.loc 1 321 6
 219 0058 002B     		cmp	r3, #0
 220 005a 02D0     		beq	.L12
 322:d:/LiteOS_Lab/drivers/third_party/ST/STM32L4xx_HAL_Driver/Src\stm32l4xx_hal_uart.c ****   {
 323:d:/LiteOS_Lab/drivers/third_party/ST/STM32L4xx_HAL_Driver/Src\stm32l4xx_hal_uart.c ****     UART_AdvFeatureConfig(huart);
 221              		.loc 1 323 5
 222 005c 7868     		ldr	r0, [r7, #4]
 223 005e FFF7FEFF 		bl	UART_AdvFeatureConfig
 224              	.L12:
 324:d:/LiteOS_Lab/drivers/third_party/ST/STM32L4xx_HAL_Driver/Src\stm32l4xx_hal_uart.c ****   }
 325:d:/LiteOS_Lab/drivers/third_party/ST/STM32L4xx_HAL_Driver/Src\stm32l4xx_hal_uart.c **** 
 326:d:/LiteOS_Lab/drivers/third_party/ST/STM32L4xx_HAL_Driver/Src\stm32l4xx_hal_uart.c ****   /* In half-duplex mode, the following bits must be kept cleared:
 327:d:/LiteOS_Lab/drivers/third_party/ST/STM32L4xx_HAL_Driver/Src\stm32l4xx_hal_uart.c ****   - LINEN and CLKEN bits in the USART_CR2 register,
 328:d:/LiteOS_Lab/drivers/third_party/ST/STM32L4xx_HAL_Driver/Src\stm32l4xx_hal_uart.c ****   - SCEN and IREN bits in the USART_CR3 register.*/
 329:d:/LiteOS_Lab/drivers/third_party/ST/STM32L4xx_HAL_Driver/Src\stm32l4xx_hal_uart.c ****   CLEAR_BIT(huart->Instance->CR2, (USART_CR2_LINEN | USART_CR2_CLKEN));
 225              		.loc 1 329 3
 226 0062 7B68     		ldr	r3, [r7, #4]
 227 0064 1B68     		ldr	r3, [r3]
 228 0066 5A68     		ldr	r2, [r3, #4]
 229 0068 7B68     		ldr	r3, [r7, #4]
 230 006a 1B68     		ldr	r3, [r3]
 231 006c 22F49042 		bic	r2, r2, #18432
 232 0070 5A60     		str	r2, [r3, #4]
 330:d:/LiteOS_Lab/drivers/third_party/ST/STM32L4xx_HAL_Driver/Src\stm32l4xx_hal_uart.c ****   CLEAR_BIT(huart->Instance->CR3, (USART_CR3_IREN | USART_CR3_SCEN));
 233              		.loc 1 330 3
 234 0072 7B68     		ldr	r3, [r7, #4]
 235 0074 1B68     		ldr	r3, [r3]
 236 0076 9A68     		ldr	r2, [r3, #8]
 237 0078 7B68     		ldr	r3, [r7, #4]
 238 007a 1B68     		ldr	r3, [r3]
 239 007c 22F02202 		bic	r2, r2, #34
 240 0080 9A60     		str	r2, [r3, #8]
 331:d:/LiteOS_Lab/drivers/third_party/ST/STM32L4xx_HAL_Driver/Src\stm32l4xx_hal_uart.c **** 
 332:d:/LiteOS_Lab/drivers/third_party/ST/STM32L4xx_HAL_Driver/Src\stm32l4xx_hal_uart.c ****   /* Enable the Half-Duplex mode by setting the HDSEL bit in the CR3 register */
 333:d:/LiteOS_Lab/drivers/third_party/ST/STM32L4xx_HAL_Driver/Src\stm32l4xx_hal_uart.c ****   SET_BIT(huart->Instance->CR3, USART_CR3_HDSEL);
ARM GAS  C:\Users\ADMINI~1\AppData\Local\Temp\ccHDbRvY.s 			page 11


 241              		.loc 1 333 3
 242 0082 7B68     		ldr	r3, [r7, #4]
 243 0084 1B68     		ldr	r3, [r3]
 244 0086 9A68     		ldr	r2, [r3, #8]
 245 0088 7B68     		ldr	r3, [r7, #4]
 246 008a 1B68     		ldr	r3, [r3]
 247 008c 42F00802 		orr	r2, r2, #8
 248 0090 9A60     		str	r2, [r3, #8]
 334:d:/LiteOS_Lab/drivers/third_party/ST/STM32L4xx_HAL_Driver/Src\stm32l4xx_hal_uart.c **** 
 335:d:/LiteOS_Lab/drivers/third_party/ST/STM32L4xx_HAL_Driver/Src\stm32l4xx_hal_uart.c ****   /* Enable the Peripheral */
 336:d:/LiteOS_Lab/drivers/third_party/ST/STM32L4xx_HAL_Driver/Src\stm32l4xx_hal_uart.c ****   __HAL_UART_ENABLE(huart);
 249              		.loc 1 336 3
 250 0092 7B68     		ldr	r3, [r7, #4]
 251 0094 1B68     		ldr	r3, [r3]
 252 0096 1A68     		ldr	r2, [r3]
 253 0098 7B68     		ldr	r3, [r7, #4]
 254 009a 1B68     		ldr	r3, [r3]
 255 009c 42F00102 		orr	r2, r2, #1
 256 00a0 1A60     		str	r2, [r3]
 337:d:/LiteOS_Lab/drivers/third_party/ST/STM32L4xx_HAL_Driver/Src\stm32l4xx_hal_uart.c **** 
 338:d:/LiteOS_Lab/drivers/third_party/ST/STM32L4xx_HAL_Driver/Src\stm32l4xx_hal_uart.c ****   /* TEACK and/or REACK to check before moving huart->gState and huart->RxState to Ready */
 339:d:/LiteOS_Lab/drivers/third_party/ST/STM32L4xx_HAL_Driver/Src\stm32l4xx_hal_uart.c ****   return (UART_CheckIdleState(huart));
 257              		.loc 1 339 11
 258 00a2 7868     		ldr	r0, [r7, #4]
 259 00a4 FFF7FEFF 		bl	UART_CheckIdleState
 260 00a8 0346     		mov	r3, r0
 261              	.L9:
 340:d:/LiteOS_Lab/drivers/third_party/ST/STM32L4xx_HAL_Driver/Src\stm32l4xx_hal_uart.c **** }
 262              		.loc 1 340 1
 263 00aa 1846     		mov	r0, r3
 264 00ac 0837     		adds	r7, r7, #8
 265              	.LCFI8:
 266              		.cfi_def_cfa_offset 8
 267 00ae BD46     		mov	sp, r7
 268              	.LCFI9:
 269              		.cfi_def_cfa_register 13
 270              		@ sp needed
 271 00b0 80BD     		pop	{r7, pc}
 272              		.cfi_endproc
 273              	.LFE288:
 275              		.section	.text.HAL_LIN_Init,"ax",%progbits
 276              		.align	1
 277              		.global	HAL_LIN_Init
 278              		.syntax unified
 279              		.thumb
 280              		.thumb_func
 281              		.fpu fpv4-sp-d16
 283              	HAL_LIN_Init:
 284              	.LFB289:
 341:d:/LiteOS_Lab/drivers/third_party/ST/STM32L4xx_HAL_Driver/Src\stm32l4xx_hal_uart.c **** 
 342:d:/LiteOS_Lab/drivers/third_party/ST/STM32L4xx_HAL_Driver/Src\stm32l4xx_hal_uart.c **** 
 343:d:/LiteOS_Lab/drivers/third_party/ST/STM32L4xx_HAL_Driver/Src\stm32l4xx_hal_uart.c **** /**
 344:d:/LiteOS_Lab/drivers/third_party/ST/STM32L4xx_HAL_Driver/Src\stm32l4xx_hal_uart.c ****   * @brief Initialize the LIN mode according to the specified
 345:d:/LiteOS_Lab/drivers/third_party/ST/STM32L4xx_HAL_Driver/Src\stm32l4xx_hal_uart.c ****   *        parameters in the UART_InitTypeDef and creates the associated handle .
 346:d:/LiteOS_Lab/drivers/third_party/ST/STM32L4xx_HAL_Driver/Src\stm32l4xx_hal_uart.c ****   * @param huart: UART handle.
 347:d:/LiteOS_Lab/drivers/third_party/ST/STM32L4xx_HAL_Driver/Src\stm32l4xx_hal_uart.c ****   * @param BreakDetectLength: specifies the LIN break detection length.
 348:d:/LiteOS_Lab/drivers/third_party/ST/STM32L4xx_HAL_Driver/Src\stm32l4xx_hal_uart.c ****   *        This parameter can be one of the following values:
ARM GAS  C:\Users\ADMINI~1\AppData\Local\Temp\ccHDbRvY.s 			page 12


 349:d:/LiteOS_Lab/drivers/third_party/ST/STM32L4xx_HAL_Driver/Src\stm32l4xx_hal_uart.c ****   *          @arg @ref UART_LINBREAKDETECTLENGTH_10B 10-bit break detection
 350:d:/LiteOS_Lab/drivers/third_party/ST/STM32L4xx_HAL_Driver/Src\stm32l4xx_hal_uart.c ****   *          @arg @ref UART_LINBREAKDETECTLENGTH_11B 11-bit break detection
 351:d:/LiteOS_Lab/drivers/third_party/ST/STM32L4xx_HAL_Driver/Src\stm32l4xx_hal_uart.c ****   * @retval HAL status
 352:d:/LiteOS_Lab/drivers/third_party/ST/STM32L4xx_HAL_Driver/Src\stm32l4xx_hal_uart.c ****   */
 353:d:/LiteOS_Lab/drivers/third_party/ST/STM32L4xx_HAL_Driver/Src\stm32l4xx_hal_uart.c **** HAL_StatusTypeDef HAL_LIN_Init(UART_HandleTypeDef *huart, uint32_t BreakDetectLength)
 354:d:/LiteOS_Lab/drivers/third_party/ST/STM32L4xx_HAL_Driver/Src\stm32l4xx_hal_uart.c **** {
 285              		.loc 1 354 1
 286              		.cfi_startproc
 287              		@ args = 0, pretend = 0, frame = 8
 288              		@ frame_needed = 1, uses_anonymous_args = 0
 289 0000 80B5     		push	{r7, lr}
 290              	.LCFI10:
 291              		.cfi_def_cfa_offset 8
 292              		.cfi_offset 7, -8
 293              		.cfi_offset 14, -4
 294 0002 82B0     		sub	sp, sp, #8
 295              	.LCFI11:
 296              		.cfi_def_cfa_offset 16
 297 0004 00AF     		add	r7, sp, #0
 298              	.LCFI12:
 299              		.cfi_def_cfa_register 7
 300 0006 7860     		str	r0, [r7, #4]
 301 0008 3960     		str	r1, [r7]
 355:d:/LiteOS_Lab/drivers/third_party/ST/STM32L4xx_HAL_Driver/Src\stm32l4xx_hal_uart.c ****   /* Check the UART handle allocation */
 356:d:/LiteOS_Lab/drivers/third_party/ST/STM32L4xx_HAL_Driver/Src\stm32l4xx_hal_uart.c ****   if(huart == NULL)
 302              		.loc 1 356 5
 303 000a 7B68     		ldr	r3, [r7, #4]
 304 000c 002B     		cmp	r3, #0
 305 000e 01D1     		bne	.L14
 357:d:/LiteOS_Lab/drivers/third_party/ST/STM32L4xx_HAL_Driver/Src\stm32l4xx_hal_uart.c ****   {
 358:d:/LiteOS_Lab/drivers/third_party/ST/STM32L4xx_HAL_Driver/Src\stm32l4xx_hal_uart.c ****     return HAL_ERROR;
 306              		.loc 1 358 12
 307 0010 0123     		movs	r3, #1
 308 0012 62E0     		b	.L15
 309              	.L14:
 359:d:/LiteOS_Lab/drivers/third_party/ST/STM32L4xx_HAL_Driver/Src\stm32l4xx_hal_uart.c ****   }
 360:d:/LiteOS_Lab/drivers/third_party/ST/STM32L4xx_HAL_Driver/Src\stm32l4xx_hal_uart.c **** 
 361:d:/LiteOS_Lab/drivers/third_party/ST/STM32L4xx_HAL_Driver/Src\stm32l4xx_hal_uart.c ****   /* Check the LIN UART instance */
 362:d:/LiteOS_Lab/drivers/third_party/ST/STM32L4xx_HAL_Driver/Src\stm32l4xx_hal_uart.c ****   assert_param(IS_UART_LIN_INSTANCE(huart->Instance));
 363:d:/LiteOS_Lab/drivers/third_party/ST/STM32L4xx_HAL_Driver/Src\stm32l4xx_hal_uart.c ****   /* Check the Break detection length parameter */
 364:d:/LiteOS_Lab/drivers/third_party/ST/STM32L4xx_HAL_Driver/Src\stm32l4xx_hal_uart.c ****   assert_param(IS_UART_LIN_BREAK_DETECT_LENGTH(BreakDetectLength));
 365:d:/LiteOS_Lab/drivers/third_party/ST/STM32L4xx_HAL_Driver/Src\stm32l4xx_hal_uart.c **** 
 366:d:/LiteOS_Lab/drivers/third_party/ST/STM32L4xx_HAL_Driver/Src\stm32l4xx_hal_uart.c ****   /* LIN mode limited to 16-bit oversampling only */
 367:d:/LiteOS_Lab/drivers/third_party/ST/STM32L4xx_HAL_Driver/Src\stm32l4xx_hal_uart.c ****   if(huart->Init.OverSampling == UART_OVERSAMPLING_8)
 310              		.loc 1 367 17
 311 0014 7B68     		ldr	r3, [r7, #4]
 312 0016 DB69     		ldr	r3, [r3, #28]
 313              		.loc 1 367 5
 314 0018 B3F5004F 		cmp	r3, #32768
 315 001c 01D1     		bne	.L16
 368:d:/LiteOS_Lab/drivers/third_party/ST/STM32L4xx_HAL_Driver/Src\stm32l4xx_hal_uart.c ****   {
 369:d:/LiteOS_Lab/drivers/third_party/ST/STM32L4xx_HAL_Driver/Src\stm32l4xx_hal_uart.c ****     return HAL_ERROR;
 316              		.loc 1 369 12
 317 001e 0123     		movs	r3, #1
 318 0020 5BE0     		b	.L15
 319              	.L16:
 370:d:/LiteOS_Lab/drivers/third_party/ST/STM32L4xx_HAL_Driver/Src\stm32l4xx_hal_uart.c ****   }
ARM GAS  C:\Users\ADMINI~1\AppData\Local\Temp\ccHDbRvY.s 			page 13


 371:d:/LiteOS_Lab/drivers/third_party/ST/STM32L4xx_HAL_Driver/Src\stm32l4xx_hal_uart.c ****   /* LIN mode limited to 8-bit data length */
 372:d:/LiteOS_Lab/drivers/third_party/ST/STM32L4xx_HAL_Driver/Src\stm32l4xx_hal_uart.c ****   if(huart->Init.WordLength != UART_WORDLENGTH_8B)
 320              		.loc 1 372 17
 321 0022 7B68     		ldr	r3, [r7, #4]
 322 0024 9B68     		ldr	r3, [r3, #8]
 323              		.loc 1 372 5
 324 0026 002B     		cmp	r3, #0
 325 0028 01D0     		beq	.L17
 373:d:/LiteOS_Lab/drivers/third_party/ST/STM32L4xx_HAL_Driver/Src\stm32l4xx_hal_uart.c ****   {
 374:d:/LiteOS_Lab/drivers/third_party/ST/STM32L4xx_HAL_Driver/Src\stm32l4xx_hal_uart.c ****     return HAL_ERROR;
 326              		.loc 1 374 12
 327 002a 0123     		movs	r3, #1
 328 002c 55E0     		b	.L15
 329              	.L17:
 375:d:/LiteOS_Lab/drivers/third_party/ST/STM32L4xx_HAL_Driver/Src\stm32l4xx_hal_uart.c ****   }
 376:d:/LiteOS_Lab/drivers/third_party/ST/STM32L4xx_HAL_Driver/Src\stm32l4xx_hal_uart.c **** 
 377:d:/LiteOS_Lab/drivers/third_party/ST/STM32L4xx_HAL_Driver/Src\stm32l4xx_hal_uart.c ****   if(huart->gState == HAL_UART_STATE_RESET)
 330              		.loc 1 377 11
 331 002e 7B68     		ldr	r3, [r7, #4]
 332 0030 93F87130 		ldrb	r3, [r3, #113]
 333 0034 DBB2     		uxtb	r3, r3
 334              		.loc 1 377 5
 335 0036 002B     		cmp	r3, #0
 336 0038 06D1     		bne	.L18
 378:d:/LiteOS_Lab/drivers/third_party/ST/STM32L4xx_HAL_Driver/Src\stm32l4xx_hal_uart.c ****   {
 379:d:/LiteOS_Lab/drivers/third_party/ST/STM32L4xx_HAL_Driver/Src\stm32l4xx_hal_uart.c ****     /* Allocate lock resource and initialize it */
 380:d:/LiteOS_Lab/drivers/third_party/ST/STM32L4xx_HAL_Driver/Src\stm32l4xx_hal_uart.c ****     huart->Lock = HAL_UNLOCKED;
 337              		.loc 1 380 17
 338 003a 7B68     		ldr	r3, [r7, #4]
 339 003c 0022     		movs	r2, #0
 340 003e 83F87020 		strb	r2, [r3, #112]
 381:d:/LiteOS_Lab/drivers/third_party/ST/STM32L4xx_HAL_Driver/Src\stm32l4xx_hal_uart.c **** 
 382:d:/LiteOS_Lab/drivers/third_party/ST/STM32L4xx_HAL_Driver/Src\stm32l4xx_hal_uart.c ****     /* Init the low level hardware : GPIO, CLOCK */
 383:d:/LiteOS_Lab/drivers/third_party/ST/STM32L4xx_HAL_Driver/Src\stm32l4xx_hal_uart.c ****     HAL_UART_MspInit(huart);
 341              		.loc 1 383 5
 342 0042 7868     		ldr	r0, [r7, #4]
 343 0044 FFF7FEFF 		bl	HAL_UART_MspInit
 344              	.L18:
 384:d:/LiteOS_Lab/drivers/third_party/ST/STM32L4xx_HAL_Driver/Src\stm32l4xx_hal_uart.c ****   }
 385:d:/LiteOS_Lab/drivers/third_party/ST/STM32L4xx_HAL_Driver/Src\stm32l4xx_hal_uart.c **** 
 386:d:/LiteOS_Lab/drivers/third_party/ST/STM32L4xx_HAL_Driver/Src\stm32l4xx_hal_uart.c ****   huart->gState = HAL_UART_STATE_BUSY;
 345              		.loc 1 386 17
 346 0048 7B68     		ldr	r3, [r7, #4]
 347 004a 2422     		movs	r2, #36
 348 004c 83F87120 		strb	r2, [r3, #113]
 387:d:/LiteOS_Lab/drivers/third_party/ST/STM32L4xx_HAL_Driver/Src\stm32l4xx_hal_uart.c **** 
 388:d:/LiteOS_Lab/drivers/third_party/ST/STM32L4xx_HAL_Driver/Src\stm32l4xx_hal_uart.c ****   /* Disable the Peripheral */
 389:d:/LiteOS_Lab/drivers/third_party/ST/STM32L4xx_HAL_Driver/Src\stm32l4xx_hal_uart.c ****   __HAL_UART_DISABLE(huart);
 349              		.loc 1 389 3
 350 0050 7B68     		ldr	r3, [r7, #4]
 351 0052 1B68     		ldr	r3, [r3]
 352 0054 1A68     		ldr	r2, [r3]
 353 0056 7B68     		ldr	r3, [r7, #4]
 354 0058 1B68     		ldr	r3, [r3]
 355 005a 22F00102 		bic	r2, r2, #1
 356 005e 1A60     		str	r2, [r3]
 390:d:/LiteOS_Lab/drivers/third_party/ST/STM32L4xx_HAL_Driver/Src\stm32l4xx_hal_uart.c **** 
ARM GAS  C:\Users\ADMINI~1\AppData\Local\Temp\ccHDbRvY.s 			page 14


 391:d:/LiteOS_Lab/drivers/third_party/ST/STM32L4xx_HAL_Driver/Src\stm32l4xx_hal_uart.c ****   /* Set the UART Communication parameters */
 392:d:/LiteOS_Lab/drivers/third_party/ST/STM32L4xx_HAL_Driver/Src\stm32l4xx_hal_uart.c ****   if (UART_SetConfig(huart) == HAL_ERROR)
 357              		.loc 1 392 7
 358 0060 7868     		ldr	r0, [r7, #4]
 359 0062 FFF7FEFF 		bl	UART_SetConfig
 360 0066 0346     		mov	r3, r0
 361              		.loc 1 392 6
 362 0068 012B     		cmp	r3, #1
 363 006a 01D1     		bne	.L19
 393:d:/LiteOS_Lab/drivers/third_party/ST/STM32L4xx_HAL_Driver/Src\stm32l4xx_hal_uart.c ****   {
 394:d:/LiteOS_Lab/drivers/third_party/ST/STM32L4xx_HAL_Driver/Src\stm32l4xx_hal_uart.c ****     return HAL_ERROR;
 364              		.loc 1 394 12
 365 006c 0123     		movs	r3, #1
 366 006e 34E0     		b	.L15
 367              	.L19:
 395:d:/LiteOS_Lab/drivers/third_party/ST/STM32L4xx_HAL_Driver/Src\stm32l4xx_hal_uart.c ****   }
 396:d:/LiteOS_Lab/drivers/third_party/ST/STM32L4xx_HAL_Driver/Src\stm32l4xx_hal_uart.c **** 
 397:d:/LiteOS_Lab/drivers/third_party/ST/STM32L4xx_HAL_Driver/Src\stm32l4xx_hal_uart.c ****   if (huart->AdvancedInit.AdvFeatureInit != UART_ADVFEATURE_NO_INIT)
 368              		.loc 1 397 26
 369 0070 7B68     		ldr	r3, [r7, #4]
 370 0072 5B6A     		ldr	r3, [r3, #36]
 371              		.loc 1 397 6
 372 0074 002B     		cmp	r3, #0
 373 0076 02D0     		beq	.L20
 398:d:/LiteOS_Lab/drivers/third_party/ST/STM32L4xx_HAL_Driver/Src\stm32l4xx_hal_uart.c ****   {
 399:d:/LiteOS_Lab/drivers/third_party/ST/STM32L4xx_HAL_Driver/Src\stm32l4xx_hal_uart.c ****     UART_AdvFeatureConfig(huart);
 374              		.loc 1 399 5
 375 0078 7868     		ldr	r0, [r7, #4]
 376 007a FFF7FEFF 		bl	UART_AdvFeatureConfig
 377              	.L20:
 400:d:/LiteOS_Lab/drivers/third_party/ST/STM32L4xx_HAL_Driver/Src\stm32l4xx_hal_uart.c ****   }
 401:d:/LiteOS_Lab/drivers/third_party/ST/STM32L4xx_HAL_Driver/Src\stm32l4xx_hal_uart.c **** 
 402:d:/LiteOS_Lab/drivers/third_party/ST/STM32L4xx_HAL_Driver/Src\stm32l4xx_hal_uart.c ****   /* In LIN mode, the following bits must be kept cleared:
 403:d:/LiteOS_Lab/drivers/third_party/ST/STM32L4xx_HAL_Driver/Src\stm32l4xx_hal_uart.c ****   - LINEN and CLKEN bits in the USART_CR2 register,
 404:d:/LiteOS_Lab/drivers/third_party/ST/STM32L4xx_HAL_Driver/Src\stm32l4xx_hal_uart.c ****   - SCEN and IREN bits in the USART_CR3 register.*/
 405:d:/LiteOS_Lab/drivers/third_party/ST/STM32L4xx_HAL_Driver/Src\stm32l4xx_hal_uart.c ****   CLEAR_BIT(huart->Instance->CR2, USART_CR2_CLKEN);
 378              		.loc 1 405 3
 379 007e 7B68     		ldr	r3, [r7, #4]
 380 0080 1B68     		ldr	r3, [r3]
 381 0082 5A68     		ldr	r2, [r3, #4]
 382 0084 7B68     		ldr	r3, [r7, #4]
 383 0086 1B68     		ldr	r3, [r3]
 384 0088 22F40062 		bic	r2, r2, #2048
 385 008c 5A60     		str	r2, [r3, #4]
 406:d:/LiteOS_Lab/drivers/third_party/ST/STM32L4xx_HAL_Driver/Src\stm32l4xx_hal_uart.c ****   CLEAR_BIT(huart->Instance->CR3, (USART_CR3_HDSEL | USART_CR3_IREN | USART_CR3_SCEN));
 386              		.loc 1 406 3
 387 008e 7B68     		ldr	r3, [r7, #4]
 388 0090 1B68     		ldr	r3, [r3]
 389 0092 9A68     		ldr	r2, [r3, #8]
 390 0094 7B68     		ldr	r3, [r7, #4]
 391 0096 1B68     		ldr	r3, [r3]
 392 0098 22F02A02 		bic	r2, r2, #42
 393 009c 9A60     		str	r2, [r3, #8]
 407:d:/LiteOS_Lab/drivers/third_party/ST/STM32L4xx_HAL_Driver/Src\stm32l4xx_hal_uart.c **** 
 408:d:/LiteOS_Lab/drivers/third_party/ST/STM32L4xx_HAL_Driver/Src\stm32l4xx_hal_uart.c ****   /* Enable the LIN mode by setting the LINEN bit in the CR2 register */
 409:d:/LiteOS_Lab/drivers/third_party/ST/STM32L4xx_HAL_Driver/Src\stm32l4xx_hal_uart.c ****   SET_BIT(huart->Instance->CR2, USART_CR2_LINEN);
 394              		.loc 1 409 3
ARM GAS  C:\Users\ADMINI~1\AppData\Local\Temp\ccHDbRvY.s 			page 15


 395 009e 7B68     		ldr	r3, [r7, #4]
 396 00a0 1B68     		ldr	r3, [r3]
 397 00a2 5A68     		ldr	r2, [r3, #4]
 398 00a4 7B68     		ldr	r3, [r7, #4]
 399 00a6 1B68     		ldr	r3, [r3]
 400 00a8 42F48042 		orr	r2, r2, #16384
 401 00ac 5A60     		str	r2, [r3, #4]
 410:d:/LiteOS_Lab/drivers/third_party/ST/STM32L4xx_HAL_Driver/Src\stm32l4xx_hal_uart.c **** 
 411:d:/LiteOS_Lab/drivers/third_party/ST/STM32L4xx_HAL_Driver/Src\stm32l4xx_hal_uart.c ****   /* Set the USART LIN Break detection length. */
 412:d:/LiteOS_Lab/drivers/third_party/ST/STM32L4xx_HAL_Driver/Src\stm32l4xx_hal_uart.c ****   MODIFY_REG(huart->Instance->CR2, USART_CR2_LBDL, BreakDetectLength);
 402              		.loc 1 412 3
 403 00ae 7B68     		ldr	r3, [r7, #4]
 404 00b0 1B68     		ldr	r3, [r3]
 405 00b2 5B68     		ldr	r3, [r3, #4]
 406 00b4 23F02001 		bic	r1, r3, #32
 407 00b8 7B68     		ldr	r3, [r7, #4]
 408 00ba 1B68     		ldr	r3, [r3]
 409 00bc 3A68     		ldr	r2, [r7]
 410 00be 0A43     		orrs	r2, r2, r1
 411 00c0 5A60     		str	r2, [r3, #4]
 413:d:/LiteOS_Lab/drivers/third_party/ST/STM32L4xx_HAL_Driver/Src\stm32l4xx_hal_uart.c **** 
 414:d:/LiteOS_Lab/drivers/third_party/ST/STM32L4xx_HAL_Driver/Src\stm32l4xx_hal_uart.c ****   /* Enable the Peripheral */
 415:d:/LiteOS_Lab/drivers/third_party/ST/STM32L4xx_HAL_Driver/Src\stm32l4xx_hal_uart.c ****   __HAL_UART_ENABLE(huart);
 412              		.loc 1 415 3
 413 00c2 7B68     		ldr	r3, [r7, #4]
 414 00c4 1B68     		ldr	r3, [r3]
 415 00c6 1A68     		ldr	r2, [r3]
 416 00c8 7B68     		ldr	r3, [r7, #4]
 417 00ca 1B68     		ldr	r3, [r3]
 418 00cc 42F00102 		orr	r2, r2, #1
 419 00d0 1A60     		str	r2, [r3]
 416:d:/LiteOS_Lab/drivers/third_party/ST/STM32L4xx_HAL_Driver/Src\stm32l4xx_hal_uart.c **** 
 417:d:/LiteOS_Lab/drivers/third_party/ST/STM32L4xx_HAL_Driver/Src\stm32l4xx_hal_uart.c ****   /* TEACK and/or REACK to check before moving huart->gState and huart->RxState to Ready */
 418:d:/LiteOS_Lab/drivers/third_party/ST/STM32L4xx_HAL_Driver/Src\stm32l4xx_hal_uart.c ****   return (UART_CheckIdleState(huart));
 420              		.loc 1 418 11
 421 00d2 7868     		ldr	r0, [r7, #4]
 422 00d4 FFF7FEFF 		bl	UART_CheckIdleState
 423 00d8 0346     		mov	r3, r0
 424              	.L15:
 419:d:/LiteOS_Lab/drivers/third_party/ST/STM32L4xx_HAL_Driver/Src\stm32l4xx_hal_uart.c **** }
 425              		.loc 1 419 1
 426 00da 1846     		mov	r0, r3
 427 00dc 0837     		adds	r7, r7, #8
 428              	.LCFI13:
 429              		.cfi_def_cfa_offset 8
 430 00de BD46     		mov	sp, r7
 431              	.LCFI14:
 432              		.cfi_def_cfa_register 13
 433              		@ sp needed
 434 00e0 80BD     		pop	{r7, pc}
 435              		.cfi_endproc
 436              	.LFE289:
 438              		.section	.text.HAL_MultiProcessor_Init,"ax",%progbits
 439              		.align	1
 440              		.global	HAL_MultiProcessor_Init
 441              		.syntax unified
 442              		.thumb
ARM GAS  C:\Users\ADMINI~1\AppData\Local\Temp\ccHDbRvY.s 			page 16


 443              		.thumb_func
 444              		.fpu fpv4-sp-d16
 446              	HAL_MultiProcessor_Init:
 447              	.LFB290:
 420:d:/LiteOS_Lab/drivers/third_party/ST/STM32L4xx_HAL_Driver/Src\stm32l4xx_hal_uart.c **** 
 421:d:/LiteOS_Lab/drivers/third_party/ST/STM32L4xx_HAL_Driver/Src\stm32l4xx_hal_uart.c **** 
 422:d:/LiteOS_Lab/drivers/third_party/ST/STM32L4xx_HAL_Driver/Src\stm32l4xx_hal_uart.c **** /**
 423:d:/LiteOS_Lab/drivers/third_party/ST/STM32L4xx_HAL_Driver/Src\stm32l4xx_hal_uart.c ****   * @brief Initialize the multiprocessor mode according to the specified
 424:d:/LiteOS_Lab/drivers/third_party/ST/STM32L4xx_HAL_Driver/Src\stm32l4xx_hal_uart.c ****   *        parameters in the UART_InitTypeDef and initialize the associated handle.
 425:d:/LiteOS_Lab/drivers/third_party/ST/STM32L4xx_HAL_Driver/Src\stm32l4xx_hal_uart.c ****   * @param huart: UART handle.
 426:d:/LiteOS_Lab/drivers/third_party/ST/STM32L4xx_HAL_Driver/Src\stm32l4xx_hal_uart.c ****   * @param Address: UART node address (4-, 6-, 7- or 8-bit long).
 427:d:/LiteOS_Lab/drivers/third_party/ST/STM32L4xx_HAL_Driver/Src\stm32l4xx_hal_uart.c ****   * @param WakeUpMethod: specifies the UART wakeup method.
 428:d:/LiteOS_Lab/drivers/third_party/ST/STM32L4xx_HAL_Driver/Src\stm32l4xx_hal_uart.c ****   *        This parameter can be one of the following values:
 429:d:/LiteOS_Lab/drivers/third_party/ST/STM32L4xx_HAL_Driver/Src\stm32l4xx_hal_uart.c ****   *          @arg @ref UART_WAKEUPMETHOD_IDLELINE WakeUp by an idle line detection
 430:d:/LiteOS_Lab/drivers/third_party/ST/STM32L4xx_HAL_Driver/Src\stm32l4xx_hal_uart.c ****   *          @arg @ref UART_WAKEUPMETHOD_ADDRESSMARK WakeUp by an address mark
 431:d:/LiteOS_Lab/drivers/third_party/ST/STM32L4xx_HAL_Driver/Src\stm32l4xx_hal_uart.c ****   * @note  If the user resorts to idle line detection wake up, the Address parameter
 432:d:/LiteOS_Lab/drivers/third_party/ST/STM32L4xx_HAL_Driver/Src\stm32l4xx_hal_uart.c ****   *        is useless and ignored by the initialization function.
 433:d:/LiteOS_Lab/drivers/third_party/ST/STM32L4xx_HAL_Driver/Src\stm32l4xx_hal_uart.c ****   * @note  If the user resorts to address mark wake up, the address length detection
 434:d:/LiteOS_Lab/drivers/third_party/ST/STM32L4xx_HAL_Driver/Src\stm32l4xx_hal_uart.c ****   *        is configured by default to 4 bits only. For the UART to be able to
 435:d:/LiteOS_Lab/drivers/third_party/ST/STM32L4xx_HAL_Driver/Src\stm32l4xx_hal_uart.c ****   *        manage 6-, 7- or 8-bit long addresses detection, the API
 436:d:/LiteOS_Lab/drivers/third_party/ST/STM32L4xx_HAL_Driver/Src\stm32l4xx_hal_uart.c ****   *        HAL_MultiProcessorEx_AddressLength_Set() must be called after
 437:d:/LiteOS_Lab/drivers/third_party/ST/STM32L4xx_HAL_Driver/Src\stm32l4xx_hal_uart.c ****   *        HAL_MultiProcessor_Init().
 438:d:/LiteOS_Lab/drivers/third_party/ST/STM32L4xx_HAL_Driver/Src\stm32l4xx_hal_uart.c ****   * @retval HAL status
 439:d:/LiteOS_Lab/drivers/third_party/ST/STM32L4xx_HAL_Driver/Src\stm32l4xx_hal_uart.c ****   */
 440:d:/LiteOS_Lab/drivers/third_party/ST/STM32L4xx_HAL_Driver/Src\stm32l4xx_hal_uart.c **** HAL_StatusTypeDef HAL_MultiProcessor_Init(UART_HandleTypeDef *huart, uint8_t Address, uint32_t Wake
 441:d:/LiteOS_Lab/drivers/third_party/ST/STM32L4xx_HAL_Driver/Src\stm32l4xx_hal_uart.c **** {
 448              		.loc 1 441 1
 449              		.cfi_startproc
 450              		@ args = 0, pretend = 0, frame = 16
 451              		@ frame_needed = 1, uses_anonymous_args = 0
 452 0000 80B5     		push	{r7, lr}
 453              	.LCFI15:
 454              		.cfi_def_cfa_offset 8
 455              		.cfi_offset 7, -8
 456              		.cfi_offset 14, -4
 457 0002 84B0     		sub	sp, sp, #16
 458              	.LCFI16:
 459              		.cfi_def_cfa_offset 24
 460 0004 00AF     		add	r7, sp, #0
 461              	.LCFI17:
 462              		.cfi_def_cfa_register 7
 463 0006 F860     		str	r0, [r7, #12]
 464 0008 0B46     		mov	r3, r1
 465 000a 7A60     		str	r2, [r7, #4]
 466 000c FB72     		strb	r3, [r7, #11]
 442:d:/LiteOS_Lab/drivers/third_party/ST/STM32L4xx_HAL_Driver/Src\stm32l4xx_hal_uart.c ****   /* Check the UART handle allocation */
 443:d:/LiteOS_Lab/drivers/third_party/ST/STM32L4xx_HAL_Driver/Src\stm32l4xx_hal_uart.c ****   if(huart == NULL)
 467              		.loc 1 443 5
 468 000e FB68     		ldr	r3, [r7, #12]
 469 0010 002B     		cmp	r3, #0
 470 0012 01D1     		bne	.L22
 444:d:/LiteOS_Lab/drivers/third_party/ST/STM32L4xx_HAL_Driver/Src\stm32l4xx_hal_uart.c ****   {
 445:d:/LiteOS_Lab/drivers/third_party/ST/STM32L4xx_HAL_Driver/Src\stm32l4xx_hal_uart.c ****     return HAL_ERROR;
 471              		.loc 1 445 12
 472 0014 0123     		movs	r3, #1
 473 0016 5CE0     		b	.L23
 474              	.L22:
ARM GAS  C:\Users\ADMINI~1\AppData\Local\Temp\ccHDbRvY.s 			page 17


 446:d:/LiteOS_Lab/drivers/third_party/ST/STM32L4xx_HAL_Driver/Src\stm32l4xx_hal_uart.c ****   }
 447:d:/LiteOS_Lab/drivers/third_party/ST/STM32L4xx_HAL_Driver/Src\stm32l4xx_hal_uart.c **** 
 448:d:/LiteOS_Lab/drivers/third_party/ST/STM32L4xx_HAL_Driver/Src\stm32l4xx_hal_uart.c ****   /* Check the wake up method parameter */
 449:d:/LiteOS_Lab/drivers/third_party/ST/STM32L4xx_HAL_Driver/Src\stm32l4xx_hal_uart.c ****   assert_param(IS_UART_WAKEUPMETHOD(WakeUpMethod));
 450:d:/LiteOS_Lab/drivers/third_party/ST/STM32L4xx_HAL_Driver/Src\stm32l4xx_hal_uart.c **** 
 451:d:/LiteOS_Lab/drivers/third_party/ST/STM32L4xx_HAL_Driver/Src\stm32l4xx_hal_uart.c ****   if(huart->gState == HAL_UART_STATE_RESET)
 475              		.loc 1 451 11
 476 0018 FB68     		ldr	r3, [r7, #12]
 477 001a 93F87130 		ldrb	r3, [r3, #113]
 478 001e DBB2     		uxtb	r3, r3
 479              		.loc 1 451 5
 480 0020 002B     		cmp	r3, #0
 481 0022 06D1     		bne	.L24
 452:d:/LiteOS_Lab/drivers/third_party/ST/STM32L4xx_HAL_Driver/Src\stm32l4xx_hal_uart.c ****   {
 453:d:/LiteOS_Lab/drivers/third_party/ST/STM32L4xx_HAL_Driver/Src\stm32l4xx_hal_uart.c ****     /* Allocate lock resource and initialize it */
 454:d:/LiteOS_Lab/drivers/third_party/ST/STM32L4xx_HAL_Driver/Src\stm32l4xx_hal_uart.c ****     huart->Lock = HAL_UNLOCKED;
 482              		.loc 1 454 17
 483 0024 FB68     		ldr	r3, [r7, #12]
 484 0026 0022     		movs	r2, #0
 485 0028 83F87020 		strb	r2, [r3, #112]
 455:d:/LiteOS_Lab/drivers/third_party/ST/STM32L4xx_HAL_Driver/Src\stm32l4xx_hal_uart.c **** 
 456:d:/LiteOS_Lab/drivers/third_party/ST/STM32L4xx_HAL_Driver/Src\stm32l4xx_hal_uart.c ****     /* Init the low level hardware : GPIO, CLOCK */
 457:d:/LiteOS_Lab/drivers/third_party/ST/STM32L4xx_HAL_Driver/Src\stm32l4xx_hal_uart.c ****     HAL_UART_MspInit(huart);
 486              		.loc 1 457 5
 487 002c F868     		ldr	r0, [r7, #12]
 488 002e FFF7FEFF 		bl	HAL_UART_MspInit
 489              	.L24:
 458:d:/LiteOS_Lab/drivers/third_party/ST/STM32L4xx_HAL_Driver/Src\stm32l4xx_hal_uart.c ****   }
 459:d:/LiteOS_Lab/drivers/third_party/ST/STM32L4xx_HAL_Driver/Src\stm32l4xx_hal_uart.c **** 
 460:d:/LiteOS_Lab/drivers/third_party/ST/STM32L4xx_HAL_Driver/Src\stm32l4xx_hal_uart.c ****   huart->gState = HAL_UART_STATE_BUSY;
 490              		.loc 1 460 17
 491 0032 FB68     		ldr	r3, [r7, #12]
 492 0034 2422     		movs	r2, #36
 493 0036 83F87120 		strb	r2, [r3, #113]
 461:d:/LiteOS_Lab/drivers/third_party/ST/STM32L4xx_HAL_Driver/Src\stm32l4xx_hal_uart.c **** 
 462:d:/LiteOS_Lab/drivers/third_party/ST/STM32L4xx_HAL_Driver/Src\stm32l4xx_hal_uart.c ****   /* Disable the Peripheral */
 463:d:/LiteOS_Lab/drivers/third_party/ST/STM32L4xx_HAL_Driver/Src\stm32l4xx_hal_uart.c ****   __HAL_UART_DISABLE(huart);
 494              		.loc 1 463 3
 495 003a FB68     		ldr	r3, [r7, #12]
 496 003c 1B68     		ldr	r3, [r3]
 497 003e 1A68     		ldr	r2, [r3]
 498 0040 FB68     		ldr	r3, [r7, #12]
 499 0042 1B68     		ldr	r3, [r3]
 500 0044 22F00102 		bic	r2, r2, #1
 501 0048 1A60     		str	r2, [r3]
 464:d:/LiteOS_Lab/drivers/third_party/ST/STM32L4xx_HAL_Driver/Src\stm32l4xx_hal_uart.c **** 
 465:d:/LiteOS_Lab/drivers/third_party/ST/STM32L4xx_HAL_Driver/Src\stm32l4xx_hal_uart.c ****   /* Set the UART Communication parameters */
 466:d:/LiteOS_Lab/drivers/third_party/ST/STM32L4xx_HAL_Driver/Src\stm32l4xx_hal_uart.c ****   if (UART_SetConfig(huart) == HAL_ERROR)
 502              		.loc 1 466 7
 503 004a F868     		ldr	r0, [r7, #12]
 504 004c FFF7FEFF 		bl	UART_SetConfig
 505 0050 0346     		mov	r3, r0
 506              		.loc 1 466 6
 507 0052 012B     		cmp	r3, #1
 508 0054 01D1     		bne	.L25
 467:d:/LiteOS_Lab/drivers/third_party/ST/STM32L4xx_HAL_Driver/Src\stm32l4xx_hal_uart.c ****   {
 468:d:/LiteOS_Lab/drivers/third_party/ST/STM32L4xx_HAL_Driver/Src\stm32l4xx_hal_uart.c ****     return HAL_ERROR;
ARM GAS  C:\Users\ADMINI~1\AppData\Local\Temp\ccHDbRvY.s 			page 18


 509              		.loc 1 468 12
 510 0056 0123     		movs	r3, #1
 511 0058 3BE0     		b	.L23
 512              	.L25:
 469:d:/LiteOS_Lab/drivers/third_party/ST/STM32L4xx_HAL_Driver/Src\stm32l4xx_hal_uart.c ****   }
 470:d:/LiteOS_Lab/drivers/third_party/ST/STM32L4xx_HAL_Driver/Src\stm32l4xx_hal_uart.c **** 
 471:d:/LiteOS_Lab/drivers/third_party/ST/STM32L4xx_HAL_Driver/Src\stm32l4xx_hal_uart.c ****   if (huart->AdvancedInit.AdvFeatureInit != UART_ADVFEATURE_NO_INIT)
 513              		.loc 1 471 26
 514 005a FB68     		ldr	r3, [r7, #12]
 515 005c 5B6A     		ldr	r3, [r3, #36]
 516              		.loc 1 471 6
 517 005e 002B     		cmp	r3, #0
 518 0060 02D0     		beq	.L26
 472:d:/LiteOS_Lab/drivers/third_party/ST/STM32L4xx_HAL_Driver/Src\stm32l4xx_hal_uart.c ****   {
 473:d:/LiteOS_Lab/drivers/third_party/ST/STM32L4xx_HAL_Driver/Src\stm32l4xx_hal_uart.c ****     UART_AdvFeatureConfig(huart);
 519              		.loc 1 473 5
 520 0062 F868     		ldr	r0, [r7, #12]
 521 0064 FFF7FEFF 		bl	UART_AdvFeatureConfig
 522              	.L26:
 474:d:/LiteOS_Lab/drivers/third_party/ST/STM32L4xx_HAL_Driver/Src\stm32l4xx_hal_uart.c ****   }
 475:d:/LiteOS_Lab/drivers/third_party/ST/STM32L4xx_HAL_Driver/Src\stm32l4xx_hal_uart.c **** 
 476:d:/LiteOS_Lab/drivers/third_party/ST/STM32L4xx_HAL_Driver/Src\stm32l4xx_hal_uart.c ****   /* In multiprocessor mode, the following bits must be kept cleared:
 477:d:/LiteOS_Lab/drivers/third_party/ST/STM32L4xx_HAL_Driver/Src\stm32l4xx_hal_uart.c ****   - LINEN and CLKEN bits in the USART_CR2 register,
 478:d:/LiteOS_Lab/drivers/third_party/ST/STM32L4xx_HAL_Driver/Src\stm32l4xx_hal_uart.c ****   - SCEN, HDSEL and IREN  bits in the USART_CR3 register. */
 479:d:/LiteOS_Lab/drivers/third_party/ST/STM32L4xx_HAL_Driver/Src\stm32l4xx_hal_uart.c ****   CLEAR_BIT(huart->Instance->CR2, (USART_CR2_LINEN | USART_CR2_CLKEN));
 523              		.loc 1 479 3
 524 0068 FB68     		ldr	r3, [r7, #12]
 525 006a 1B68     		ldr	r3, [r3]
 526 006c 5A68     		ldr	r2, [r3, #4]
 527 006e FB68     		ldr	r3, [r7, #12]
 528 0070 1B68     		ldr	r3, [r3]
 529 0072 22F49042 		bic	r2, r2, #18432
 530 0076 5A60     		str	r2, [r3, #4]
 480:d:/LiteOS_Lab/drivers/third_party/ST/STM32L4xx_HAL_Driver/Src\stm32l4xx_hal_uart.c ****   CLEAR_BIT(huart->Instance->CR3, (USART_CR3_SCEN | USART_CR3_HDSEL | USART_CR3_IREN));
 531              		.loc 1 480 3
 532 0078 FB68     		ldr	r3, [r7, #12]
 533 007a 1B68     		ldr	r3, [r3]
 534 007c 9A68     		ldr	r2, [r3, #8]
 535 007e FB68     		ldr	r3, [r7, #12]
 536 0080 1B68     		ldr	r3, [r3]
 537 0082 22F02A02 		bic	r2, r2, #42
 538 0086 9A60     		str	r2, [r3, #8]
 481:d:/LiteOS_Lab/drivers/third_party/ST/STM32L4xx_HAL_Driver/Src\stm32l4xx_hal_uart.c **** 
 482:d:/LiteOS_Lab/drivers/third_party/ST/STM32L4xx_HAL_Driver/Src\stm32l4xx_hal_uart.c ****   if (WakeUpMethod == UART_WAKEUPMETHOD_ADDRESSMARK)
 539              		.loc 1 482 6
 540 0088 7B68     		ldr	r3, [r7, #4]
 541 008a B3F5006F 		cmp	r3, #2048
 542 008e 0AD1     		bne	.L27
 483:d:/LiteOS_Lab/drivers/third_party/ST/STM32L4xx_HAL_Driver/Src\stm32l4xx_hal_uart.c ****   {
 484:d:/LiteOS_Lab/drivers/third_party/ST/STM32L4xx_HAL_Driver/Src\stm32l4xx_hal_uart.c ****     /* If address mark wake up method is chosen, set the USART address node */
 485:d:/LiteOS_Lab/drivers/third_party/ST/STM32L4xx_HAL_Driver/Src\stm32l4xx_hal_uart.c ****     MODIFY_REG(huart->Instance->CR2, USART_CR2_ADD, ((uint32_t)Address << UART_CR2_ADDRESS_LSB_POS)
 543              		.loc 1 485 5
 544 0090 FB68     		ldr	r3, [r7, #12]
 545 0092 1B68     		ldr	r3, [r3]
 546 0094 5B68     		ldr	r3, [r3, #4]
 547 0096 23F07F41 		bic	r1, r3, #-16777216
 548 009a FB7A     		ldrb	r3, [r7, #11]	@ zero_extendqisi2
ARM GAS  C:\Users\ADMINI~1\AppData\Local\Temp\ccHDbRvY.s 			page 19


 549 009c 1A06     		lsls	r2, r3, #24
 550 009e FB68     		ldr	r3, [r7, #12]
 551 00a0 1B68     		ldr	r3, [r3]
 552 00a2 0A43     		orrs	r2, r2, r1
 553 00a4 5A60     		str	r2, [r3, #4]
 554              	.L27:
 486:d:/LiteOS_Lab/drivers/third_party/ST/STM32L4xx_HAL_Driver/Src\stm32l4xx_hal_uart.c ****   }
 487:d:/LiteOS_Lab/drivers/third_party/ST/STM32L4xx_HAL_Driver/Src\stm32l4xx_hal_uart.c **** 
 488:d:/LiteOS_Lab/drivers/third_party/ST/STM32L4xx_HAL_Driver/Src\stm32l4xx_hal_uart.c ****   /* Set the wake up method by setting the WAKE bit in the CR1 register */
 489:d:/LiteOS_Lab/drivers/third_party/ST/STM32L4xx_HAL_Driver/Src\stm32l4xx_hal_uart.c ****   MODIFY_REG(huart->Instance->CR1, USART_CR1_WAKE, WakeUpMethod);
 555              		.loc 1 489 3
 556 00a6 FB68     		ldr	r3, [r7, #12]
 557 00a8 1B68     		ldr	r3, [r3]
 558 00aa 1B68     		ldr	r3, [r3]
 559 00ac 23F40061 		bic	r1, r3, #2048
 560 00b0 FB68     		ldr	r3, [r7, #12]
 561 00b2 1B68     		ldr	r3, [r3]
 562 00b4 7A68     		ldr	r2, [r7, #4]
 563 00b6 0A43     		orrs	r2, r2, r1
 564 00b8 1A60     		str	r2, [r3]
 490:d:/LiteOS_Lab/drivers/third_party/ST/STM32L4xx_HAL_Driver/Src\stm32l4xx_hal_uart.c **** 
 491:d:/LiteOS_Lab/drivers/third_party/ST/STM32L4xx_HAL_Driver/Src\stm32l4xx_hal_uart.c ****   /* Enable the Peripheral */
 492:d:/LiteOS_Lab/drivers/third_party/ST/STM32L4xx_HAL_Driver/Src\stm32l4xx_hal_uart.c ****   __HAL_UART_ENABLE(huart);
 565              		.loc 1 492 3
 566 00ba FB68     		ldr	r3, [r7, #12]
 567 00bc 1B68     		ldr	r3, [r3]
 568 00be 1A68     		ldr	r2, [r3]
 569 00c0 FB68     		ldr	r3, [r7, #12]
 570 00c2 1B68     		ldr	r3, [r3]
 571 00c4 42F00102 		orr	r2, r2, #1
 572 00c8 1A60     		str	r2, [r3]
 493:d:/LiteOS_Lab/drivers/third_party/ST/STM32L4xx_HAL_Driver/Src\stm32l4xx_hal_uart.c **** 
 494:d:/LiteOS_Lab/drivers/third_party/ST/STM32L4xx_HAL_Driver/Src\stm32l4xx_hal_uart.c ****   /* TEACK and/or REACK to check before moving huart->gState and huart->RxState to Ready */
 495:d:/LiteOS_Lab/drivers/third_party/ST/STM32L4xx_HAL_Driver/Src\stm32l4xx_hal_uart.c ****   return (UART_CheckIdleState(huart));
 573              		.loc 1 495 11
 574 00ca F868     		ldr	r0, [r7, #12]
 575 00cc FFF7FEFF 		bl	UART_CheckIdleState
 576 00d0 0346     		mov	r3, r0
 577              	.L23:
 496:d:/LiteOS_Lab/drivers/third_party/ST/STM32L4xx_HAL_Driver/Src\stm32l4xx_hal_uart.c **** }
 578              		.loc 1 496 1
 579 00d2 1846     		mov	r0, r3
 580 00d4 1037     		adds	r7, r7, #16
 581              	.LCFI18:
 582              		.cfi_def_cfa_offset 8
 583 00d6 BD46     		mov	sp, r7
 584              	.LCFI19:
 585              		.cfi_def_cfa_register 13
 586              		@ sp needed
 587 00d8 80BD     		pop	{r7, pc}
 588              		.cfi_endproc
 589              	.LFE290:
 591              		.section	.text.HAL_UART_DeInit,"ax",%progbits
 592              		.align	1
 593              		.global	HAL_UART_DeInit
 594              		.syntax unified
 595              		.thumb
ARM GAS  C:\Users\ADMINI~1\AppData\Local\Temp\ccHDbRvY.s 			page 20


 596              		.thumb_func
 597              		.fpu fpv4-sp-d16
 599              	HAL_UART_DeInit:
 600              	.LFB291:
 497:d:/LiteOS_Lab/drivers/third_party/ST/STM32L4xx_HAL_Driver/Src\stm32l4xx_hal_uart.c **** 
 498:d:/LiteOS_Lab/drivers/third_party/ST/STM32L4xx_HAL_Driver/Src\stm32l4xx_hal_uart.c **** 
 499:d:/LiteOS_Lab/drivers/third_party/ST/STM32L4xx_HAL_Driver/Src\stm32l4xx_hal_uart.c **** /**
 500:d:/LiteOS_Lab/drivers/third_party/ST/STM32L4xx_HAL_Driver/Src\stm32l4xx_hal_uart.c ****   * @brief DeInitialize the UART peripheral.
 501:d:/LiteOS_Lab/drivers/third_party/ST/STM32L4xx_HAL_Driver/Src\stm32l4xx_hal_uart.c ****   * @param huart: UART handle.
 502:d:/LiteOS_Lab/drivers/third_party/ST/STM32L4xx_HAL_Driver/Src\stm32l4xx_hal_uart.c ****   * @retval HAL status
 503:d:/LiteOS_Lab/drivers/third_party/ST/STM32L4xx_HAL_Driver/Src\stm32l4xx_hal_uart.c ****   */
 504:d:/LiteOS_Lab/drivers/third_party/ST/STM32L4xx_HAL_Driver/Src\stm32l4xx_hal_uart.c **** HAL_StatusTypeDef HAL_UART_DeInit(UART_HandleTypeDef *huart)
 505:d:/LiteOS_Lab/drivers/third_party/ST/STM32L4xx_HAL_Driver/Src\stm32l4xx_hal_uart.c **** {
 601              		.loc 1 505 1
 602              		.cfi_startproc
 603              		@ args = 0, pretend = 0, frame = 8
 604              		@ frame_needed = 1, uses_anonymous_args = 0
 605 0000 80B5     		push	{r7, lr}
 606              	.LCFI20:
 607              		.cfi_def_cfa_offset 8
 608              		.cfi_offset 7, -8
 609              		.cfi_offset 14, -4
 610 0002 82B0     		sub	sp, sp, #8
 611              	.LCFI21:
 612              		.cfi_def_cfa_offset 16
 613 0004 00AF     		add	r7, sp, #0
 614              	.LCFI22:
 615              		.cfi_def_cfa_register 7
 616 0006 7860     		str	r0, [r7, #4]
 506:d:/LiteOS_Lab/drivers/third_party/ST/STM32L4xx_HAL_Driver/Src\stm32l4xx_hal_uart.c ****   /* Check the UART handle allocation */
 507:d:/LiteOS_Lab/drivers/third_party/ST/STM32L4xx_HAL_Driver/Src\stm32l4xx_hal_uart.c ****   if(huart == NULL)
 617              		.loc 1 507 5
 618 0008 7B68     		ldr	r3, [r7, #4]
 619 000a 002B     		cmp	r3, #0
 620 000c 01D1     		bne	.L29
 508:d:/LiteOS_Lab/drivers/third_party/ST/STM32L4xx_HAL_Driver/Src\stm32l4xx_hal_uart.c ****   {
 509:d:/LiteOS_Lab/drivers/third_party/ST/STM32L4xx_HAL_Driver/Src\stm32l4xx_hal_uart.c ****     return HAL_ERROR;
 621              		.loc 1 509 12
 622 000e 0123     		movs	r3, #1
 623 0010 2AE0     		b	.L30
 624              	.L29:
 510:d:/LiteOS_Lab/drivers/third_party/ST/STM32L4xx_HAL_Driver/Src\stm32l4xx_hal_uart.c ****   }
 511:d:/LiteOS_Lab/drivers/third_party/ST/STM32L4xx_HAL_Driver/Src\stm32l4xx_hal_uart.c **** 
 512:d:/LiteOS_Lab/drivers/third_party/ST/STM32L4xx_HAL_Driver/Src\stm32l4xx_hal_uart.c ****   /* Check the parameters */
 513:d:/LiteOS_Lab/drivers/third_party/ST/STM32L4xx_HAL_Driver/Src\stm32l4xx_hal_uart.c ****   assert_param((IS_UART_INSTANCE(huart->Instance)) || (IS_LPUART_INSTANCE(huart->Instance)));
 514:d:/LiteOS_Lab/drivers/third_party/ST/STM32L4xx_HAL_Driver/Src\stm32l4xx_hal_uart.c **** 
 515:d:/LiteOS_Lab/drivers/third_party/ST/STM32L4xx_HAL_Driver/Src\stm32l4xx_hal_uart.c ****   huart->gState = HAL_UART_STATE_BUSY;
 625              		.loc 1 515 17
 626 0012 7B68     		ldr	r3, [r7, #4]
 627 0014 2422     		movs	r2, #36
 628 0016 83F87120 		strb	r2, [r3, #113]
 516:d:/LiteOS_Lab/drivers/third_party/ST/STM32L4xx_HAL_Driver/Src\stm32l4xx_hal_uart.c **** 
 517:d:/LiteOS_Lab/drivers/third_party/ST/STM32L4xx_HAL_Driver/Src\stm32l4xx_hal_uart.c ****   /* Disable the Peripheral */
 518:d:/LiteOS_Lab/drivers/third_party/ST/STM32L4xx_HAL_Driver/Src\stm32l4xx_hal_uart.c ****   __HAL_UART_DISABLE(huart);
 629              		.loc 1 518 3
 630 001a 7B68     		ldr	r3, [r7, #4]
 631 001c 1B68     		ldr	r3, [r3]
ARM GAS  C:\Users\ADMINI~1\AppData\Local\Temp\ccHDbRvY.s 			page 21


 632 001e 1A68     		ldr	r2, [r3]
 633 0020 7B68     		ldr	r3, [r7, #4]
 634 0022 1B68     		ldr	r3, [r3]
 635 0024 22F00102 		bic	r2, r2, #1
 636 0028 1A60     		str	r2, [r3]
 519:d:/LiteOS_Lab/drivers/third_party/ST/STM32L4xx_HAL_Driver/Src\stm32l4xx_hal_uart.c **** 
 520:d:/LiteOS_Lab/drivers/third_party/ST/STM32L4xx_HAL_Driver/Src\stm32l4xx_hal_uart.c ****   huart->Instance->CR1 = 0x0;
 637              		.loc 1 520 8
 638 002a 7B68     		ldr	r3, [r7, #4]
 639 002c 1B68     		ldr	r3, [r3]
 640              		.loc 1 520 24
 641 002e 0022     		movs	r2, #0
 642 0030 1A60     		str	r2, [r3]
 521:d:/LiteOS_Lab/drivers/third_party/ST/STM32L4xx_HAL_Driver/Src\stm32l4xx_hal_uart.c ****   huart->Instance->CR2 = 0x0;
 643              		.loc 1 521 8
 644 0032 7B68     		ldr	r3, [r7, #4]
 645 0034 1B68     		ldr	r3, [r3]
 646              		.loc 1 521 24
 647 0036 0022     		movs	r2, #0
 648 0038 5A60     		str	r2, [r3, #4]
 522:d:/LiteOS_Lab/drivers/third_party/ST/STM32L4xx_HAL_Driver/Src\stm32l4xx_hal_uart.c ****   huart->Instance->CR3 = 0x0;
 649              		.loc 1 522 8
 650 003a 7B68     		ldr	r3, [r7, #4]
 651 003c 1B68     		ldr	r3, [r3]
 652              		.loc 1 522 24
 653 003e 0022     		movs	r2, #0
 654 0040 9A60     		str	r2, [r3, #8]
 523:d:/LiteOS_Lab/drivers/third_party/ST/STM32L4xx_HAL_Driver/Src\stm32l4xx_hal_uart.c **** 
 524:d:/LiteOS_Lab/drivers/third_party/ST/STM32L4xx_HAL_Driver/Src\stm32l4xx_hal_uart.c ****   /* DeInit the low level hardware */
 525:d:/LiteOS_Lab/drivers/third_party/ST/STM32L4xx_HAL_Driver/Src\stm32l4xx_hal_uart.c ****   HAL_UART_MspDeInit(huart);
 655              		.loc 1 525 3
 656 0042 7868     		ldr	r0, [r7, #4]
 657 0044 FFF7FEFF 		bl	HAL_UART_MspDeInit
 526:d:/LiteOS_Lab/drivers/third_party/ST/STM32L4xx_HAL_Driver/Src\stm32l4xx_hal_uart.c **** 
 527:d:/LiteOS_Lab/drivers/third_party/ST/STM32L4xx_HAL_Driver/Src\stm32l4xx_hal_uart.c ****   huart->ErrorCode = HAL_UART_ERROR_NONE;
 658              		.loc 1 527 20
 659 0048 7B68     		ldr	r3, [r7, #4]
 660 004a 0022     		movs	r2, #0
 661 004c 5A67     		str	r2, [r3, #116]
 528:d:/LiteOS_Lab/drivers/third_party/ST/STM32L4xx_HAL_Driver/Src\stm32l4xx_hal_uart.c ****   huart->gState    = HAL_UART_STATE_RESET;
 662              		.loc 1 528 20
 663 004e 7B68     		ldr	r3, [r7, #4]
 664 0050 0022     		movs	r2, #0
 665 0052 83F87120 		strb	r2, [r3, #113]
 529:d:/LiteOS_Lab/drivers/third_party/ST/STM32L4xx_HAL_Driver/Src\stm32l4xx_hal_uart.c ****   huart->RxState   = HAL_UART_STATE_RESET;
 666              		.loc 1 529 20
 667 0056 7B68     		ldr	r3, [r7, #4]
 668 0058 0022     		movs	r2, #0
 669 005a 83F87220 		strb	r2, [r3, #114]
 530:d:/LiteOS_Lab/drivers/third_party/ST/STM32L4xx_HAL_Driver/Src\stm32l4xx_hal_uart.c **** 
 531:d:/LiteOS_Lab/drivers/third_party/ST/STM32L4xx_HAL_Driver/Src\stm32l4xx_hal_uart.c ****   /* Process Unlock */
 532:d:/LiteOS_Lab/drivers/third_party/ST/STM32L4xx_HAL_Driver/Src\stm32l4xx_hal_uart.c ****   __HAL_UNLOCK(huart);
 670              		.loc 1 532 3
 671 005e 7B68     		ldr	r3, [r7, #4]
 672 0060 0022     		movs	r2, #0
 673 0062 83F87020 		strb	r2, [r3, #112]
 533:d:/LiteOS_Lab/drivers/third_party/ST/STM32L4xx_HAL_Driver/Src\stm32l4xx_hal_uart.c **** 
ARM GAS  C:\Users\ADMINI~1\AppData\Local\Temp\ccHDbRvY.s 			page 22


 534:d:/LiteOS_Lab/drivers/third_party/ST/STM32L4xx_HAL_Driver/Src\stm32l4xx_hal_uart.c ****   return HAL_OK;
 674              		.loc 1 534 10
 675 0066 0023     		movs	r3, #0
 676              	.L30:
 535:d:/LiteOS_Lab/drivers/third_party/ST/STM32L4xx_HAL_Driver/Src\stm32l4xx_hal_uart.c **** }
 677              		.loc 1 535 1
 678 0068 1846     		mov	r0, r3
 679 006a 0837     		adds	r7, r7, #8
 680              	.LCFI23:
 681              		.cfi_def_cfa_offset 8
 682 006c BD46     		mov	sp, r7
 683              	.LCFI24:
 684              		.cfi_def_cfa_register 13
 685              		@ sp needed
 686 006e 80BD     		pop	{r7, pc}
 687              		.cfi_endproc
 688              	.LFE291:
 690              		.section	.text.HAL_UART_MspInit,"ax",%progbits
 691              		.align	1
 692              		.weak	HAL_UART_MspInit
 693              		.syntax unified
 694              		.thumb
 695              		.thumb_func
 696              		.fpu fpv4-sp-d16
 698              	HAL_UART_MspInit:
 699              	.LFB292:
 536:d:/LiteOS_Lab/drivers/third_party/ST/STM32L4xx_HAL_Driver/Src\stm32l4xx_hal_uart.c **** 
 537:d:/LiteOS_Lab/drivers/third_party/ST/STM32L4xx_HAL_Driver/Src\stm32l4xx_hal_uart.c **** /**
 538:d:/LiteOS_Lab/drivers/third_party/ST/STM32L4xx_HAL_Driver/Src\stm32l4xx_hal_uart.c ****   * @brief Initialize the UART MSP.
 539:d:/LiteOS_Lab/drivers/third_party/ST/STM32L4xx_HAL_Driver/Src\stm32l4xx_hal_uart.c ****   * @param huart: UART handle.
 540:d:/LiteOS_Lab/drivers/third_party/ST/STM32L4xx_HAL_Driver/Src\stm32l4xx_hal_uart.c ****   * @retval None
 541:d:/LiteOS_Lab/drivers/third_party/ST/STM32L4xx_HAL_Driver/Src\stm32l4xx_hal_uart.c ****   */
 542:d:/LiteOS_Lab/drivers/third_party/ST/STM32L4xx_HAL_Driver/Src\stm32l4xx_hal_uart.c **** __weak void HAL_UART_MspInit(UART_HandleTypeDef *huart)
 543:d:/LiteOS_Lab/drivers/third_party/ST/STM32L4xx_HAL_Driver/Src\stm32l4xx_hal_uart.c **** {
 700              		.loc 1 543 1
 701              		.cfi_startproc
 702              		@ args = 0, pretend = 0, frame = 8
 703              		@ frame_needed = 1, uses_anonymous_args = 0
 704              		@ link register save eliminated.
 705 0000 80B4     		push	{r7}
 706              	.LCFI25:
 707              		.cfi_def_cfa_offset 4
 708              		.cfi_offset 7, -4
 709 0002 83B0     		sub	sp, sp, #12
 710              	.LCFI26:
 711              		.cfi_def_cfa_offset 16
 712 0004 00AF     		add	r7, sp, #0
 713              	.LCFI27:
 714              		.cfi_def_cfa_register 7
 715 0006 7860     		str	r0, [r7, #4]
 544:d:/LiteOS_Lab/drivers/third_party/ST/STM32L4xx_HAL_Driver/Src\stm32l4xx_hal_uart.c ****   /* Prevent unused argument(s) compilation warning */
 545:d:/LiteOS_Lab/drivers/third_party/ST/STM32L4xx_HAL_Driver/Src\stm32l4xx_hal_uart.c ****   UNUSED(huart);
 546:d:/LiteOS_Lab/drivers/third_party/ST/STM32L4xx_HAL_Driver/Src\stm32l4xx_hal_uart.c **** 
 547:d:/LiteOS_Lab/drivers/third_party/ST/STM32L4xx_HAL_Driver/Src\stm32l4xx_hal_uart.c ****   /* NOTE : This function should not be modified, when the callback is needed,
 548:d:/LiteOS_Lab/drivers/third_party/ST/STM32L4xx_HAL_Driver/Src\stm32l4xx_hal_uart.c ****             the HAL_UART_MspInit can be implemented in the user file
 549:d:/LiteOS_Lab/drivers/third_party/ST/STM32L4xx_HAL_Driver/Src\stm32l4xx_hal_uart.c ****    */
 550:d:/LiteOS_Lab/drivers/third_party/ST/STM32L4xx_HAL_Driver/Src\stm32l4xx_hal_uart.c **** }
ARM GAS  C:\Users\ADMINI~1\AppData\Local\Temp\ccHDbRvY.s 			page 23


 716              		.loc 1 550 1
 717 0008 00BF     		nop
 718 000a 0C37     		adds	r7, r7, #12
 719              	.LCFI28:
 720              		.cfi_def_cfa_offset 4
 721 000c BD46     		mov	sp, r7
 722              	.LCFI29:
 723              		.cfi_def_cfa_register 13
 724              		@ sp needed
 725 000e 5DF8047B 		ldr	r7, [sp], #4
 726              	.LCFI30:
 727              		.cfi_restore 7
 728              		.cfi_def_cfa_offset 0
 729 0012 7047     		bx	lr
 730              		.cfi_endproc
 731              	.LFE292:
 733              		.section	.text.HAL_UART_MspDeInit,"ax",%progbits
 734              		.align	1
 735              		.weak	HAL_UART_MspDeInit
 736              		.syntax unified
 737              		.thumb
 738              		.thumb_func
 739              		.fpu fpv4-sp-d16
 741              	HAL_UART_MspDeInit:
 742              	.LFB293:
 551:d:/LiteOS_Lab/drivers/third_party/ST/STM32L4xx_HAL_Driver/Src\stm32l4xx_hal_uart.c **** 
 552:d:/LiteOS_Lab/drivers/third_party/ST/STM32L4xx_HAL_Driver/Src\stm32l4xx_hal_uart.c **** /**
 553:d:/LiteOS_Lab/drivers/third_party/ST/STM32L4xx_HAL_Driver/Src\stm32l4xx_hal_uart.c ****   * @brief DeInitialize the UART MSP.
 554:d:/LiteOS_Lab/drivers/third_party/ST/STM32L4xx_HAL_Driver/Src\stm32l4xx_hal_uart.c ****   * @param huart: UART handle.
 555:d:/LiteOS_Lab/drivers/third_party/ST/STM32L4xx_HAL_Driver/Src\stm32l4xx_hal_uart.c ****   * @retval None
 556:d:/LiteOS_Lab/drivers/third_party/ST/STM32L4xx_HAL_Driver/Src\stm32l4xx_hal_uart.c ****   */
 557:d:/LiteOS_Lab/drivers/third_party/ST/STM32L4xx_HAL_Driver/Src\stm32l4xx_hal_uart.c **** __weak void HAL_UART_MspDeInit(UART_HandleTypeDef *huart)
 558:d:/LiteOS_Lab/drivers/third_party/ST/STM32L4xx_HAL_Driver/Src\stm32l4xx_hal_uart.c **** {
 743              		.loc 1 558 1
 744              		.cfi_startproc
 745              		@ args = 0, pretend = 0, frame = 8
 746              		@ frame_needed = 1, uses_anonymous_args = 0
 747              		@ link register save eliminated.
 748 0000 80B4     		push	{r7}
 749              	.LCFI31:
 750              		.cfi_def_cfa_offset 4
 751              		.cfi_offset 7, -4
 752 0002 83B0     		sub	sp, sp, #12
 753              	.LCFI32:
 754              		.cfi_def_cfa_offset 16
 755 0004 00AF     		add	r7, sp, #0
 756              	.LCFI33:
 757              		.cfi_def_cfa_register 7
 758 0006 7860     		str	r0, [r7, #4]
 559:d:/LiteOS_Lab/drivers/third_party/ST/STM32L4xx_HAL_Driver/Src\stm32l4xx_hal_uart.c ****   /* Prevent unused argument(s) compilation warning */
 560:d:/LiteOS_Lab/drivers/third_party/ST/STM32L4xx_HAL_Driver/Src\stm32l4xx_hal_uart.c ****   UNUSED(huart);
 561:d:/LiteOS_Lab/drivers/third_party/ST/STM32L4xx_HAL_Driver/Src\stm32l4xx_hal_uart.c **** 
 562:d:/LiteOS_Lab/drivers/third_party/ST/STM32L4xx_HAL_Driver/Src\stm32l4xx_hal_uart.c ****   /* NOTE : This function should not be modified, when the callback is needed,
 563:d:/LiteOS_Lab/drivers/third_party/ST/STM32L4xx_HAL_Driver/Src\stm32l4xx_hal_uart.c ****             the HAL_UART_MspDeInit can be implemented in the user file
 564:d:/LiteOS_Lab/drivers/third_party/ST/STM32L4xx_HAL_Driver/Src\stm32l4xx_hal_uart.c ****    */
 565:d:/LiteOS_Lab/drivers/third_party/ST/STM32L4xx_HAL_Driver/Src\stm32l4xx_hal_uart.c **** }
 759              		.loc 1 565 1
ARM GAS  C:\Users\ADMINI~1\AppData\Local\Temp\ccHDbRvY.s 			page 24


 760 0008 00BF     		nop
 761 000a 0C37     		adds	r7, r7, #12
 762              	.LCFI34:
 763              		.cfi_def_cfa_offset 4
 764 000c BD46     		mov	sp, r7
 765              	.LCFI35:
 766              		.cfi_def_cfa_register 13
 767              		@ sp needed
 768 000e 5DF8047B 		ldr	r7, [sp], #4
 769              	.LCFI36:
 770              		.cfi_restore 7
 771              		.cfi_def_cfa_offset 0
 772 0012 7047     		bx	lr
 773              		.cfi_endproc
 774              	.LFE293:
 776              		.section	.text.HAL_UART_Transmit,"ax",%progbits
 777              		.align	1
 778              		.global	HAL_UART_Transmit
 779              		.syntax unified
 780              		.thumb
 781              		.thumb_func
 782              		.fpu fpv4-sp-d16
 784              	HAL_UART_Transmit:
 785              	.LFB294:
 566:d:/LiteOS_Lab/drivers/third_party/ST/STM32L4xx_HAL_Driver/Src\stm32l4xx_hal_uart.c **** 
 567:d:/LiteOS_Lab/drivers/third_party/ST/STM32L4xx_HAL_Driver/Src\stm32l4xx_hal_uart.c **** /**
 568:d:/LiteOS_Lab/drivers/third_party/ST/STM32L4xx_HAL_Driver/Src\stm32l4xx_hal_uart.c ****   * @}
 569:d:/LiteOS_Lab/drivers/third_party/ST/STM32L4xx_HAL_Driver/Src\stm32l4xx_hal_uart.c ****   */
 570:d:/LiteOS_Lab/drivers/third_party/ST/STM32L4xx_HAL_Driver/Src\stm32l4xx_hal_uart.c **** 
 571:d:/LiteOS_Lab/drivers/third_party/ST/STM32L4xx_HAL_Driver/Src\stm32l4xx_hal_uart.c **** /** @defgroup UART_Exported_Functions_Group2 IO operation functions
 572:d:/LiteOS_Lab/drivers/third_party/ST/STM32L4xx_HAL_Driver/Src\stm32l4xx_hal_uart.c ****   * @brief UART Transmit/Receive functions
 573:d:/LiteOS_Lab/drivers/third_party/ST/STM32L4xx_HAL_Driver/Src\stm32l4xx_hal_uart.c ****   *
 574:d:/LiteOS_Lab/drivers/third_party/ST/STM32L4xx_HAL_Driver/Src\stm32l4xx_hal_uart.c **** @verbatim
 575:d:/LiteOS_Lab/drivers/third_party/ST/STM32L4xx_HAL_Driver/Src\stm32l4xx_hal_uart.c ****  ===============================================================================
 576:d:/LiteOS_Lab/drivers/third_party/ST/STM32L4xx_HAL_Driver/Src\stm32l4xx_hal_uart.c ****                       ##### IO operation functions #####
 577:d:/LiteOS_Lab/drivers/third_party/ST/STM32L4xx_HAL_Driver/Src\stm32l4xx_hal_uart.c ****  ===============================================================================
 578:d:/LiteOS_Lab/drivers/third_party/ST/STM32L4xx_HAL_Driver/Src\stm32l4xx_hal_uart.c ****     This subsection provides a set of functions allowing to manage the UART asynchronous
 579:d:/LiteOS_Lab/drivers/third_party/ST/STM32L4xx_HAL_Driver/Src\stm32l4xx_hal_uart.c ****     and Half duplex data transfers.
 580:d:/LiteOS_Lab/drivers/third_party/ST/STM32L4xx_HAL_Driver/Src\stm32l4xx_hal_uart.c **** 
 581:d:/LiteOS_Lab/drivers/third_party/ST/STM32L4xx_HAL_Driver/Src\stm32l4xx_hal_uart.c ****     (#) There are two mode of transfer:
 582:d:/LiteOS_Lab/drivers/third_party/ST/STM32L4xx_HAL_Driver/Src\stm32l4xx_hal_uart.c ****        (+) Blocking mode: The communication is performed in polling mode.
 583:d:/LiteOS_Lab/drivers/third_party/ST/STM32L4xx_HAL_Driver/Src\stm32l4xx_hal_uart.c ****            The HAL status of all data processing is returned by the same function
 584:d:/LiteOS_Lab/drivers/third_party/ST/STM32L4xx_HAL_Driver/Src\stm32l4xx_hal_uart.c ****            after finishing transfer.
 585:d:/LiteOS_Lab/drivers/third_party/ST/STM32L4xx_HAL_Driver/Src\stm32l4xx_hal_uart.c ****        (+) Non-Blocking mode: The communication is performed using Interrupts
 586:d:/LiteOS_Lab/drivers/third_party/ST/STM32L4xx_HAL_Driver/Src\stm32l4xx_hal_uart.c ****            or DMA, These API's return the HAL status.
 587:d:/LiteOS_Lab/drivers/third_party/ST/STM32L4xx_HAL_Driver/Src\stm32l4xx_hal_uart.c ****            The end of the data processing will be indicated through the
 588:d:/LiteOS_Lab/drivers/third_party/ST/STM32L4xx_HAL_Driver/Src\stm32l4xx_hal_uart.c ****            dedicated UART IRQ when using Interrupt mode or the DMA IRQ when
 589:d:/LiteOS_Lab/drivers/third_party/ST/STM32L4xx_HAL_Driver/Src\stm32l4xx_hal_uart.c ****            using DMA mode.
 590:d:/LiteOS_Lab/drivers/third_party/ST/STM32L4xx_HAL_Driver/Src\stm32l4xx_hal_uart.c ****            The HAL_UART_TxCpltCallback(), HAL_UART_RxCpltCallback() user callbacks
 591:d:/LiteOS_Lab/drivers/third_party/ST/STM32L4xx_HAL_Driver/Src\stm32l4xx_hal_uart.c ****            will be executed respectively at the end of the transmit or Receive process
 592:d:/LiteOS_Lab/drivers/third_party/ST/STM32L4xx_HAL_Driver/Src\stm32l4xx_hal_uart.c ****            The HAL_UART_ErrorCallback()user callback will be executed when a communication error is
 593:d:/LiteOS_Lab/drivers/third_party/ST/STM32L4xx_HAL_Driver/Src\stm32l4xx_hal_uart.c **** 
 594:d:/LiteOS_Lab/drivers/third_party/ST/STM32L4xx_HAL_Driver/Src\stm32l4xx_hal_uart.c ****     (#) Blocking mode API's are :
 595:d:/LiteOS_Lab/drivers/third_party/ST/STM32L4xx_HAL_Driver/Src\stm32l4xx_hal_uart.c ****         (+) HAL_UART_Transmit()
 596:d:/LiteOS_Lab/drivers/third_party/ST/STM32L4xx_HAL_Driver/Src\stm32l4xx_hal_uart.c ****         (+) HAL_UART_Receive()
 597:d:/LiteOS_Lab/drivers/third_party/ST/STM32L4xx_HAL_Driver/Src\stm32l4xx_hal_uart.c **** 
 598:d:/LiteOS_Lab/drivers/third_party/ST/STM32L4xx_HAL_Driver/Src\stm32l4xx_hal_uart.c ****     (#) Non-Blocking mode API's with Interrupt are :
ARM GAS  C:\Users\ADMINI~1\AppData\Local\Temp\ccHDbRvY.s 			page 25


 599:d:/LiteOS_Lab/drivers/third_party/ST/STM32L4xx_HAL_Driver/Src\stm32l4xx_hal_uart.c ****         (+) HAL_UART_Transmit_IT()
 600:d:/LiteOS_Lab/drivers/third_party/ST/STM32L4xx_HAL_Driver/Src\stm32l4xx_hal_uart.c ****         (+) HAL_UART_Receive_IT()
 601:d:/LiteOS_Lab/drivers/third_party/ST/STM32L4xx_HAL_Driver/Src\stm32l4xx_hal_uart.c ****         (+) HAL_UART_IRQHandler()
 602:d:/LiteOS_Lab/drivers/third_party/ST/STM32L4xx_HAL_Driver/Src\stm32l4xx_hal_uart.c **** 
 603:d:/LiteOS_Lab/drivers/third_party/ST/STM32L4xx_HAL_Driver/Src\stm32l4xx_hal_uart.c ****     (#) Non-Blocking mode API's with DMA are :
 604:d:/LiteOS_Lab/drivers/third_party/ST/STM32L4xx_HAL_Driver/Src\stm32l4xx_hal_uart.c ****         (+) HAL_UART_Transmit_DMA()
 605:d:/LiteOS_Lab/drivers/third_party/ST/STM32L4xx_HAL_Driver/Src\stm32l4xx_hal_uart.c ****         (+) HAL_UART_Receive_DMA()
 606:d:/LiteOS_Lab/drivers/third_party/ST/STM32L4xx_HAL_Driver/Src\stm32l4xx_hal_uart.c ****         (+) HAL_UART_DMAPause()
 607:d:/LiteOS_Lab/drivers/third_party/ST/STM32L4xx_HAL_Driver/Src\stm32l4xx_hal_uart.c ****         (+) HAL_UART_DMAResume()
 608:d:/LiteOS_Lab/drivers/third_party/ST/STM32L4xx_HAL_Driver/Src\stm32l4xx_hal_uart.c ****         (+) HAL_UART_DMAStop()
 609:d:/LiteOS_Lab/drivers/third_party/ST/STM32L4xx_HAL_Driver/Src\stm32l4xx_hal_uart.c **** 
 610:d:/LiteOS_Lab/drivers/third_party/ST/STM32L4xx_HAL_Driver/Src\stm32l4xx_hal_uart.c ****     (#) A set of Transfer Complete Callbacks are provided in Non_Blocking mode:
 611:d:/LiteOS_Lab/drivers/third_party/ST/STM32L4xx_HAL_Driver/Src\stm32l4xx_hal_uart.c ****         (+) HAL_UART_TxHalfCpltCallback()
 612:d:/LiteOS_Lab/drivers/third_party/ST/STM32L4xx_HAL_Driver/Src\stm32l4xx_hal_uart.c ****         (+) HAL_UART_TxCpltCallback()
 613:d:/LiteOS_Lab/drivers/third_party/ST/STM32L4xx_HAL_Driver/Src\stm32l4xx_hal_uart.c ****         (+) HAL_UART_RxHalfCpltCallback()
 614:d:/LiteOS_Lab/drivers/third_party/ST/STM32L4xx_HAL_Driver/Src\stm32l4xx_hal_uart.c ****         (+) HAL_UART_RxCpltCallback()
 615:d:/LiteOS_Lab/drivers/third_party/ST/STM32L4xx_HAL_Driver/Src\stm32l4xx_hal_uart.c ****         (+) HAL_UART_ErrorCallback()
 616:d:/LiteOS_Lab/drivers/third_party/ST/STM32L4xx_HAL_Driver/Src\stm32l4xx_hal_uart.c **** 
 617:d:/LiteOS_Lab/drivers/third_party/ST/STM32L4xx_HAL_Driver/Src\stm32l4xx_hal_uart.c ****     (#) Non-Blocking mode transfers could be aborted using Abort API's :
 618:d:/LiteOS_Lab/drivers/third_party/ST/STM32L4xx_HAL_Driver/Src\stm32l4xx_hal_uart.c ****         (+) HAL_UART_Abort()
 619:d:/LiteOS_Lab/drivers/third_party/ST/STM32L4xx_HAL_Driver/Src\stm32l4xx_hal_uart.c ****         (+) HAL_UART_AbortTransmit()
 620:d:/LiteOS_Lab/drivers/third_party/ST/STM32L4xx_HAL_Driver/Src\stm32l4xx_hal_uart.c ****         (+) HAL_UART_AbortReceive()
 621:d:/LiteOS_Lab/drivers/third_party/ST/STM32L4xx_HAL_Driver/Src\stm32l4xx_hal_uart.c ****         (+) HAL_UART_Abort_IT()
 622:d:/LiteOS_Lab/drivers/third_party/ST/STM32L4xx_HAL_Driver/Src\stm32l4xx_hal_uart.c ****         (+) HAL_UART_AbortTransmit_IT()
 623:d:/LiteOS_Lab/drivers/third_party/ST/STM32L4xx_HAL_Driver/Src\stm32l4xx_hal_uart.c ****         (+) HAL_UART_AbortReceive_IT()
 624:d:/LiteOS_Lab/drivers/third_party/ST/STM32L4xx_HAL_Driver/Src\stm32l4xx_hal_uart.c **** 
 625:d:/LiteOS_Lab/drivers/third_party/ST/STM32L4xx_HAL_Driver/Src\stm32l4xx_hal_uart.c ****     (#) For Abort services based on interrupts (HAL_UART_Abortxxx_IT), a set of Abort Complete Call
 626:d:/LiteOS_Lab/drivers/third_party/ST/STM32L4xx_HAL_Driver/Src\stm32l4xx_hal_uart.c ****         (+) HAL_UART_AbortCpltCallback()
 627:d:/LiteOS_Lab/drivers/third_party/ST/STM32L4xx_HAL_Driver/Src\stm32l4xx_hal_uart.c ****         (+) HAL_UART_AbortTransmitCpltCallback()
 628:d:/LiteOS_Lab/drivers/third_party/ST/STM32L4xx_HAL_Driver/Src\stm32l4xx_hal_uart.c ****         (+) HAL_UART_AbortReceiveCpltCallback()
 629:d:/LiteOS_Lab/drivers/third_party/ST/STM32L4xx_HAL_Driver/Src\stm32l4xx_hal_uart.c **** 
 630:d:/LiteOS_Lab/drivers/third_party/ST/STM32L4xx_HAL_Driver/Src\stm32l4xx_hal_uart.c ****     (#) In Non-Blocking mode transfers, possible errors are split into 2 categories.
 631:d:/LiteOS_Lab/drivers/third_party/ST/STM32L4xx_HAL_Driver/Src\stm32l4xx_hal_uart.c ****         Errors are handled as follows :
 632:d:/LiteOS_Lab/drivers/third_party/ST/STM32L4xx_HAL_Driver/Src\stm32l4xx_hal_uart.c ****        (+) Error is considered as Recoverable and non blocking : Transfer could go till end, but er
 633:d:/LiteOS_Lab/drivers/third_party/ST/STM32L4xx_HAL_Driver/Src\stm32l4xx_hal_uart.c ****            to be evaluated by user : this concerns Frame Error, Parity Error or Noise Error in Inte
 634:d:/LiteOS_Lab/drivers/third_party/ST/STM32L4xx_HAL_Driver/Src\stm32l4xx_hal_uart.c ****            Received character is then retrieved and stored in Rx buffer, Error code is set to allow
 635:d:/LiteOS_Lab/drivers/third_party/ST/STM32L4xx_HAL_Driver/Src\stm32l4xx_hal_uart.c ****            and HAL_UART_ErrorCallback() user callback is executed. Transfer is kept ongoing on UART
 636:d:/LiteOS_Lab/drivers/third_party/ST/STM32L4xx_HAL_Driver/Src\stm32l4xx_hal_uart.c ****            If user wants to abort it, Abort services should be called by user.
 637:d:/LiteOS_Lab/drivers/third_party/ST/STM32L4xx_HAL_Driver/Src\stm32l4xx_hal_uart.c ****        (+) Error is considered as Blocking : Transfer could not be completed properly and is aborte
 638:d:/LiteOS_Lab/drivers/third_party/ST/STM32L4xx_HAL_Driver/Src\stm32l4xx_hal_uart.c ****            This concerns Overrun Error In Interrupt mode reception and all errors in DMA mode.
 639:d:/LiteOS_Lab/drivers/third_party/ST/STM32L4xx_HAL_Driver/Src\stm32l4xx_hal_uart.c ****            Error code is set to allow user to identify error type, and HAL_UART_ErrorCallback() use
 640:d:/LiteOS_Lab/drivers/third_party/ST/STM32L4xx_HAL_Driver/Src\stm32l4xx_hal_uart.c **** 
 641:d:/LiteOS_Lab/drivers/third_party/ST/STM32L4xx_HAL_Driver/Src\stm32l4xx_hal_uart.c ****     -@- In the Half duplex communication, it is forbidden to run the transmit
 642:d:/LiteOS_Lab/drivers/third_party/ST/STM32L4xx_HAL_Driver/Src\stm32l4xx_hal_uart.c ****         and receive process in parallel, the UART state HAL_UART_STATE_BUSY_TX_RX can't be useful.
 643:d:/LiteOS_Lab/drivers/third_party/ST/STM32L4xx_HAL_Driver/Src\stm32l4xx_hal_uart.c **** 
 644:d:/LiteOS_Lab/drivers/third_party/ST/STM32L4xx_HAL_Driver/Src\stm32l4xx_hal_uart.c **** @endverbatim
 645:d:/LiteOS_Lab/drivers/third_party/ST/STM32L4xx_HAL_Driver/Src\stm32l4xx_hal_uart.c ****   * @{
 646:d:/LiteOS_Lab/drivers/third_party/ST/STM32L4xx_HAL_Driver/Src\stm32l4xx_hal_uart.c ****   */
 647:d:/LiteOS_Lab/drivers/third_party/ST/STM32L4xx_HAL_Driver/Src\stm32l4xx_hal_uart.c **** 
 648:d:/LiteOS_Lab/drivers/third_party/ST/STM32L4xx_HAL_Driver/Src\stm32l4xx_hal_uart.c **** /**
 649:d:/LiteOS_Lab/drivers/third_party/ST/STM32L4xx_HAL_Driver/Src\stm32l4xx_hal_uart.c ****   * @brief Send an amount of data in blocking mode.
 650:d:/LiteOS_Lab/drivers/third_party/ST/STM32L4xx_HAL_Driver/Src\stm32l4xx_hal_uart.c ****   * @param huart: UART handle.
 651:d:/LiteOS_Lab/drivers/third_party/ST/STM32L4xx_HAL_Driver/Src\stm32l4xx_hal_uart.c ****   * @param pData: Pointer to data buffer.
 652:d:/LiteOS_Lab/drivers/third_party/ST/STM32L4xx_HAL_Driver/Src\stm32l4xx_hal_uart.c ****   * @param Size: Amount of data to be sent.
 653:d:/LiteOS_Lab/drivers/third_party/ST/STM32L4xx_HAL_Driver/Src\stm32l4xx_hal_uart.c ****   * @param Timeout: Timeout duration.
 654:d:/LiteOS_Lab/drivers/third_party/ST/STM32L4xx_HAL_Driver/Src\stm32l4xx_hal_uart.c ****   * @retval HAL status
 655:d:/LiteOS_Lab/drivers/third_party/ST/STM32L4xx_HAL_Driver/Src\stm32l4xx_hal_uart.c ****   */
ARM GAS  C:\Users\ADMINI~1\AppData\Local\Temp\ccHDbRvY.s 			page 26


 656:d:/LiteOS_Lab/drivers/third_party/ST/STM32L4xx_HAL_Driver/Src\stm32l4xx_hal_uart.c **** HAL_StatusTypeDef HAL_UART_Transmit(UART_HandleTypeDef *huart, uint8_t *pData, uint16_t Size, uint3
 657:d:/LiteOS_Lab/drivers/third_party/ST/STM32L4xx_HAL_Driver/Src\stm32l4xx_hal_uart.c **** {
 786              		.loc 1 657 1
 787              		.cfi_startproc
 788              		@ args = 0, pretend = 0, frame = 24
 789              		@ frame_needed = 1, uses_anonymous_args = 0
 790 0000 80B5     		push	{r7, lr}
 791              	.LCFI37:
 792              		.cfi_def_cfa_offset 8
 793              		.cfi_offset 7, -8
 794              		.cfi_offset 14, -4
 795 0002 88B0     		sub	sp, sp, #32
 796              	.LCFI38:
 797              		.cfi_def_cfa_offset 40
 798 0004 02AF     		add	r7, sp, #8
 799              	.LCFI39:
 800              		.cfi_def_cfa 7, 32
 801 0006 F860     		str	r0, [r7, #12]
 802 0008 B960     		str	r1, [r7, #8]
 803 000a 3B60     		str	r3, [r7]
 804 000c 1346     		mov	r3, r2	@ movhi
 805 000e FB80     		strh	r3, [r7, #6]	@ movhi
 658:d:/LiteOS_Lab/drivers/third_party/ST/STM32L4xx_HAL_Driver/Src\stm32l4xx_hal_uart.c ****   uint16_t* tmp;
 659:d:/LiteOS_Lab/drivers/third_party/ST/STM32L4xx_HAL_Driver/Src\stm32l4xx_hal_uart.c ****   uint32_t tickstart = 0;
 806              		.loc 1 659 12
 807 0010 0023     		movs	r3, #0
 808 0012 7B61     		str	r3, [r7, #20]
 660:d:/LiteOS_Lab/drivers/third_party/ST/STM32L4xx_HAL_Driver/Src\stm32l4xx_hal_uart.c **** 
 661:d:/LiteOS_Lab/drivers/third_party/ST/STM32L4xx_HAL_Driver/Src\stm32l4xx_hal_uart.c ****   /* Check that a Tx process is not already ongoing */
 662:d:/LiteOS_Lab/drivers/third_party/ST/STM32L4xx_HAL_Driver/Src\stm32l4xx_hal_uart.c ****   if(huart->gState == HAL_UART_STATE_READY || huart->gState == HAL_UART_STATE_BUSY_RX)
 809              		.loc 1 662 11
 810 0014 FB68     		ldr	r3, [r7, #12]
 811 0016 93F87130 		ldrb	r3, [r3, #113]
 812 001a DBB2     		uxtb	r3, r3
 813              		.loc 1 662 5
 814 001c 202B     		cmp	r3, #32
 815 001e 06D0     		beq	.L34
 816              		.loc 1 662 52 discriminator 1
 817 0020 FB68     		ldr	r3, [r7, #12]
 818 0022 93F87130 		ldrb	r3, [r3, #113]
 819 0026 DBB2     		uxtb	r3, r3
 820              		.loc 1 662 44 discriminator 1
 821 0028 222B     		cmp	r3, #34
 822 002a 40F08E80 		bne	.L35
 823              	.L34:
 663:d:/LiteOS_Lab/drivers/third_party/ST/STM32L4xx_HAL_Driver/Src\stm32l4xx_hal_uart.c ****   {
 664:d:/LiteOS_Lab/drivers/third_party/ST/STM32L4xx_HAL_Driver/Src\stm32l4xx_hal_uart.c ****     if((pData == NULL ) || (Size == 0))
 824              		.loc 1 664 7
 825 002e BB68     		ldr	r3, [r7, #8]
 826 0030 002B     		cmp	r3, #0
 827 0032 02D0     		beq	.L36
 828              		.loc 1 664 25 discriminator 1
 829 0034 FB88     		ldrh	r3, [r7, #6]
 830 0036 002B     		cmp	r3, #0
 831 0038 01D1     		bne	.L37
 832              	.L36:
 665:d:/LiteOS_Lab/drivers/third_party/ST/STM32L4xx_HAL_Driver/Src\stm32l4xx_hal_uart.c ****     {
ARM GAS  C:\Users\ADMINI~1\AppData\Local\Temp\ccHDbRvY.s 			page 27


 666:d:/LiteOS_Lab/drivers/third_party/ST/STM32L4xx_HAL_Driver/Src\stm32l4xx_hal_uart.c ****       return  HAL_ERROR;
 833              		.loc 1 666 15
 834 003a 0123     		movs	r3, #1
 835 003c 86E0     		b	.L38
 836              	.L37:
 667:d:/LiteOS_Lab/drivers/third_party/ST/STM32L4xx_HAL_Driver/Src\stm32l4xx_hal_uart.c ****     }
 668:d:/LiteOS_Lab/drivers/third_party/ST/STM32L4xx_HAL_Driver/Src\stm32l4xx_hal_uart.c **** 
 669:d:/LiteOS_Lab/drivers/third_party/ST/STM32L4xx_HAL_Driver/Src\stm32l4xx_hal_uart.c ****     /* Process Locked */
 670:d:/LiteOS_Lab/drivers/third_party/ST/STM32L4xx_HAL_Driver/Src\stm32l4xx_hal_uart.c ****     __HAL_LOCK(huart);
 837              		.loc 1 670 5
 838 003e FB68     		ldr	r3, [r7, #12]
 839 0040 93F87030 		ldrb	r3, [r3, #112]	@ zero_extendqisi2
 840 0044 012B     		cmp	r3, #1
 841 0046 01D1     		bne	.L39
 842              		.loc 1 670 5 is_stmt 0 discriminator 1
 843 0048 0223     		movs	r3, #2
 844 004a 7FE0     		b	.L38
 845              	.L39:
 846              		.loc 1 670 5 discriminator 2
 847 004c FB68     		ldr	r3, [r7, #12]
 848 004e 0122     		movs	r2, #1
 849 0050 83F87020 		strb	r2, [r3, #112]
 671:d:/LiteOS_Lab/drivers/third_party/ST/STM32L4xx_HAL_Driver/Src\stm32l4xx_hal_uart.c **** 
 672:d:/LiteOS_Lab/drivers/third_party/ST/STM32L4xx_HAL_Driver/Src\stm32l4xx_hal_uart.c ****     huart->ErrorCode = HAL_UART_ERROR_NONE;
 850              		.loc 1 672 22 is_stmt 1 discriminator 2
 851 0054 FB68     		ldr	r3, [r7, #12]
 852 0056 0022     		movs	r2, #0
 853 0058 5A67     		str	r2, [r3, #116]
 673:d:/LiteOS_Lab/drivers/third_party/ST/STM32L4xx_HAL_Driver/Src\stm32l4xx_hal_uart.c ****     
 674:d:/LiteOS_Lab/drivers/third_party/ST/STM32L4xx_HAL_Driver/Src\stm32l4xx_hal_uart.c ****     //huart->gState = HAL_UART_STATE_BUSY_TX;
 675:d:/LiteOS_Lab/drivers/third_party/ST/STM32L4xx_HAL_Driver/Src\stm32l4xx_hal_uart.c ****     if(huart->gState == HAL_UART_STATE_BUSY_RX)
 854              		.loc 1 675 13 discriminator 2
 855 005a FB68     		ldr	r3, [r7, #12]
 856 005c 93F87130 		ldrb	r3, [r3, #113]
 857 0060 DBB2     		uxtb	r3, r3
 858              		.loc 1 675 7 discriminator 2
 859 0062 222B     		cmp	r3, #34
 860 0064 04D1     		bne	.L40
 676:d:/LiteOS_Lab/drivers/third_party/ST/STM32L4xx_HAL_Driver/Src\stm32l4xx_hal_uart.c ****     {
 677:d:/LiteOS_Lab/drivers/third_party/ST/STM32L4xx_HAL_Driver/Src\stm32l4xx_hal_uart.c ****         huart->gState = HAL_UART_STATE_BUSY_TX_RX;
 861              		.loc 1 677 23
 862 0066 FB68     		ldr	r3, [r7, #12]
 863 0068 2322     		movs	r2, #35
 864 006a 83F87120 		strb	r2, [r3, #113]
 865 006e 03E0     		b	.L41
 866              	.L40:
 678:d:/LiteOS_Lab/drivers/third_party/ST/STM32L4xx_HAL_Driver/Src\stm32l4xx_hal_uart.c ****     }
 679:d:/LiteOS_Lab/drivers/third_party/ST/STM32L4xx_HAL_Driver/Src\stm32l4xx_hal_uart.c ****     else
 680:d:/LiteOS_Lab/drivers/third_party/ST/STM32L4xx_HAL_Driver/Src\stm32l4xx_hal_uart.c ****     {
 681:d:/LiteOS_Lab/drivers/third_party/ST/STM32L4xx_HAL_Driver/Src\stm32l4xx_hal_uart.c ****         huart->gState = HAL_UART_STATE_BUSY_TX;
 867              		.loc 1 681 23
 868 0070 FB68     		ldr	r3, [r7, #12]
 869 0072 2122     		movs	r2, #33
 870 0074 83F87120 		strb	r2, [r3, #113]
 871              	.L41:
 682:d:/LiteOS_Lab/drivers/third_party/ST/STM32L4xx_HAL_Driver/Src\stm32l4xx_hal_uart.c ****     }
 683:d:/LiteOS_Lab/drivers/third_party/ST/STM32L4xx_HAL_Driver/Src\stm32l4xx_hal_uart.c ****     
ARM GAS  C:\Users\ADMINI~1\AppData\Local\Temp\ccHDbRvY.s 			page 28


 684:d:/LiteOS_Lab/drivers/third_party/ST/STM32L4xx_HAL_Driver/Src\stm32l4xx_hal_uart.c ****     /* Init tickstart for timeout managment*/
 685:d:/LiteOS_Lab/drivers/third_party/ST/STM32L4xx_HAL_Driver/Src\stm32l4xx_hal_uart.c ****     tickstart = HAL_GetTick();
 872              		.loc 1 685 17
 873 0078 FFF7FEFF 		bl	HAL_GetTick
 874 007c 7861     		str	r0, [r7, #20]
 686:d:/LiteOS_Lab/drivers/third_party/ST/STM32L4xx_HAL_Driver/Src\stm32l4xx_hal_uart.c **** 
 687:d:/LiteOS_Lab/drivers/third_party/ST/STM32L4xx_HAL_Driver/Src\stm32l4xx_hal_uart.c ****     huart->TxXferSize = Size;
 875              		.loc 1 687 23
 876 007e FB68     		ldr	r3, [r7, #12]
 877 0080 FA88     		ldrh	r2, [r7, #6]	@ movhi
 878 0082 A3F85020 		strh	r2, [r3, #80]	@ movhi
 688:d:/LiteOS_Lab/drivers/third_party/ST/STM32L4xx_HAL_Driver/Src\stm32l4xx_hal_uart.c ****     huart->TxXferCount = Size;
 879              		.loc 1 688 24
 880 0086 FB68     		ldr	r3, [r7, #12]
 881 0088 FA88     		ldrh	r2, [r7, #6]	@ movhi
 882 008a A3F85220 		strh	r2, [r3, #82]	@ movhi
 689:d:/LiteOS_Lab/drivers/third_party/ST/STM32L4xx_HAL_Driver/Src\stm32l4xx_hal_uart.c ****     while(huart->TxXferCount > 0)
 883              		.loc 1 689 10
 884 008e 34E0     		b	.L42
 885              	.L45:
 690:d:/LiteOS_Lab/drivers/third_party/ST/STM32L4xx_HAL_Driver/Src\stm32l4xx_hal_uart.c ****     {
 691:d:/LiteOS_Lab/drivers/third_party/ST/STM32L4xx_HAL_Driver/Src\stm32l4xx_hal_uart.c ****       huart->TxXferCount--;
 886              		.loc 1 691 12
 887 0090 FB68     		ldr	r3, [r7, #12]
 888 0092 B3F85230 		ldrh	r3, [r3, #82]	@ movhi
 889 0096 9BB2     		uxth	r3, r3
 890              		.loc 1 691 25
 891 0098 013B     		subs	r3, r3, #1
 892 009a 9AB2     		uxth	r2, r3
 893 009c FB68     		ldr	r3, [r7, #12]
 894 009e A3F85220 		strh	r2, [r3, #82]	@ movhi
 692:d:/LiteOS_Lab/drivers/third_party/ST/STM32L4xx_HAL_Driver/Src\stm32l4xx_hal_uart.c ****       if(UART_WaitOnFlagUntilTimeout(huart, UART_FLAG_TXE, RESET, tickstart, Timeout) != HAL_OK)
 895              		.loc 1 692 10
 896 00a2 3B68     		ldr	r3, [r7]
 897 00a4 0093     		str	r3, [sp]
 898 00a6 7B69     		ldr	r3, [r7, #20]
 899 00a8 0022     		movs	r2, #0
 900 00aa 8021     		movs	r1, #128
 901 00ac F868     		ldr	r0, [r7, #12]
 902 00ae FFF7FEFF 		bl	UART_WaitOnFlagUntilTimeout
 903 00b2 0346     		mov	r3, r0
 904              		.loc 1 692 9
 905 00b4 002B     		cmp	r3, #0
 906 00b6 01D0     		beq	.L43
 693:d:/LiteOS_Lab/drivers/third_party/ST/STM32L4xx_HAL_Driver/Src\stm32l4xx_hal_uart.c ****       {
 694:d:/LiteOS_Lab/drivers/third_party/ST/STM32L4xx_HAL_Driver/Src\stm32l4xx_hal_uart.c ****         return HAL_TIMEOUT;
 907              		.loc 1 694 16
 908 00b8 0323     		movs	r3, #3
 909 00ba 47E0     		b	.L38
 910              	.L43:
 695:d:/LiteOS_Lab/drivers/third_party/ST/STM32L4xx_HAL_Driver/Src\stm32l4xx_hal_uart.c ****       }
 696:d:/LiteOS_Lab/drivers/third_party/ST/STM32L4xx_HAL_Driver/Src\stm32l4xx_hal_uart.c ****       if ((huart->Init.WordLength == UART_WORDLENGTH_9B) && (huart->Init.Parity == UART_PARITY_NONE
 911              		.loc 1 696 23
 912 00bc FB68     		ldr	r3, [r7, #12]
 913 00be 9B68     		ldr	r3, [r3, #8]
 914              		.loc 1 696 10
 915 00c0 B3F5805F 		cmp	r3, #4096
ARM GAS  C:\Users\ADMINI~1\AppData\Local\Temp\ccHDbRvY.s 			page 29


 916 00c4 11D1     		bne	.L44
 917              		.loc 1 696 73 discriminator 1
 918 00c6 FB68     		ldr	r3, [r7, #12]
 919 00c8 1B69     		ldr	r3, [r3, #16]
 920              		.loc 1 696 58 discriminator 1
 921 00ca 002B     		cmp	r3, #0
 922 00cc 0DD1     		bne	.L44
 697:d:/LiteOS_Lab/drivers/third_party/ST/STM32L4xx_HAL_Driver/Src\stm32l4xx_hal_uart.c ****       {
 698:d:/LiteOS_Lab/drivers/third_party/ST/STM32L4xx_HAL_Driver/Src\stm32l4xx_hal_uart.c ****         tmp = (uint16_t*) pData;
 923              		.loc 1 698 13
 924 00ce BB68     		ldr	r3, [r7, #8]
 925 00d0 3B61     		str	r3, [r7, #16]
 699:d:/LiteOS_Lab/drivers/third_party/ST/STM32L4xx_HAL_Driver/Src\stm32l4xx_hal_uart.c ****         huart->Instance->TDR = (*tmp & (uint16_t)0x01FF);
 926              		.loc 1 699 38
 927 00d2 3B69     		ldr	r3, [r7, #16]
 928 00d4 1A88     		ldrh	r2, [r3]
 929              		.loc 1 699 14
 930 00d6 FB68     		ldr	r3, [r7, #12]
 931 00d8 1B68     		ldr	r3, [r3]
 932              		.loc 1 699 38
 933 00da C2F30802 		ubfx	r2, r2, #0, #9
 934 00de 92B2     		uxth	r2, r2
 935              		.loc 1 699 30
 936 00e0 1A85     		strh	r2, [r3, #40]	@ movhi
 700:d:/LiteOS_Lab/drivers/third_party/ST/STM32L4xx_HAL_Driver/Src\stm32l4xx_hal_uart.c ****         pData += 2;
 937              		.loc 1 700 15
 938 00e2 BB68     		ldr	r3, [r7, #8]
 939 00e4 0233     		adds	r3, r3, #2
 940 00e6 BB60     		str	r3, [r7, #8]
 941 00e8 07E0     		b	.L42
 942              	.L44:
 701:d:/LiteOS_Lab/drivers/third_party/ST/STM32L4xx_HAL_Driver/Src\stm32l4xx_hal_uart.c ****       }
 702:d:/LiteOS_Lab/drivers/third_party/ST/STM32L4xx_HAL_Driver/Src\stm32l4xx_hal_uart.c ****       else
 703:d:/LiteOS_Lab/drivers/third_party/ST/STM32L4xx_HAL_Driver/Src\stm32l4xx_hal_uart.c ****       {
 704:d:/LiteOS_Lab/drivers/third_party/ST/STM32L4xx_HAL_Driver/Src\stm32l4xx_hal_uart.c ****         huart->Instance->TDR = (*pData++ & (uint8_t)0xFF);
 943              		.loc 1 704 39
 944 00ea BB68     		ldr	r3, [r7, #8]
 945 00ec 5A1C     		adds	r2, r3, #1
 946 00ee BA60     		str	r2, [r7, #8]
 947              		.loc 1 704 33
 948 00f0 1A78     		ldrb	r2, [r3]	@ zero_extendqisi2
 949              		.loc 1 704 14
 950 00f2 FB68     		ldr	r3, [r7, #12]
 951 00f4 1B68     		ldr	r3, [r3]
 952              		.loc 1 704 33
 953 00f6 92B2     		uxth	r2, r2
 954              		.loc 1 704 30
 955 00f8 1A85     		strh	r2, [r3, #40]	@ movhi
 956              	.L42:
 689:d:/LiteOS_Lab/drivers/third_party/ST/STM32L4xx_HAL_Driver/Src\stm32l4xx_hal_uart.c ****     {
 957              		.loc 1 689 16
 958 00fa FB68     		ldr	r3, [r7, #12]
 959 00fc B3F85230 		ldrh	r3, [r3, #82]	@ movhi
 960 0100 9BB2     		uxth	r3, r3
 689:d:/LiteOS_Lab/drivers/third_party/ST/STM32L4xx_HAL_Driver/Src\stm32l4xx_hal_uart.c ****     {
 961              		.loc 1 689 10
 962 0102 002B     		cmp	r3, #0
ARM GAS  C:\Users\ADMINI~1\AppData\Local\Temp\ccHDbRvY.s 			page 30


 963 0104 C4D1     		bne	.L45
 705:d:/LiteOS_Lab/drivers/third_party/ST/STM32L4xx_HAL_Driver/Src\stm32l4xx_hal_uart.c ****       }
 706:d:/LiteOS_Lab/drivers/third_party/ST/STM32L4xx_HAL_Driver/Src\stm32l4xx_hal_uart.c ****     }
 707:d:/LiteOS_Lab/drivers/third_party/ST/STM32L4xx_HAL_Driver/Src\stm32l4xx_hal_uart.c ****     if(UART_WaitOnFlagUntilTimeout(huart, UART_FLAG_TC, RESET, tickstart, Timeout) != HAL_OK)
 964              		.loc 1 707 8
 965 0106 3B68     		ldr	r3, [r7]
 966 0108 0093     		str	r3, [sp]
 967 010a 7B69     		ldr	r3, [r7, #20]
 968 010c 0022     		movs	r2, #0
 969 010e 4021     		movs	r1, #64
 970 0110 F868     		ldr	r0, [r7, #12]
 971 0112 FFF7FEFF 		bl	UART_WaitOnFlagUntilTimeout
 972 0116 0346     		mov	r3, r0
 973              		.loc 1 707 7
 974 0118 002B     		cmp	r3, #0
 975 011a 01D0     		beq	.L46
 708:d:/LiteOS_Lab/drivers/third_party/ST/STM32L4xx_HAL_Driver/Src\stm32l4xx_hal_uart.c ****     {
 709:d:/LiteOS_Lab/drivers/third_party/ST/STM32L4xx_HAL_Driver/Src\stm32l4xx_hal_uart.c ****       return HAL_TIMEOUT;
 976              		.loc 1 709 14
 977 011c 0323     		movs	r3, #3
 978 011e 15E0     		b	.L38
 979              	.L46:
 710:d:/LiteOS_Lab/drivers/third_party/ST/STM32L4xx_HAL_Driver/Src\stm32l4xx_hal_uart.c ****     }
 711:d:/LiteOS_Lab/drivers/third_party/ST/STM32L4xx_HAL_Driver/Src\stm32l4xx_hal_uart.c **** 
 712:d:/LiteOS_Lab/drivers/third_party/ST/STM32L4xx_HAL_Driver/Src\stm32l4xx_hal_uart.c ****     /* At end of Tx process, restore huart->gState to Ready */
 713:d:/LiteOS_Lab/drivers/third_party/ST/STM32L4xx_HAL_Driver/Src\stm32l4xx_hal_uart.c ****     if(huart->gState == HAL_UART_STATE_BUSY_TX_RX)
 980              		.loc 1 713 13
 981 0120 FB68     		ldr	r3, [r7, #12]
 982 0122 93F87130 		ldrb	r3, [r3, #113]
 983 0126 DBB2     		uxtb	r3, r3
 984              		.loc 1 713 7
 985 0128 232B     		cmp	r3, #35
 986 012a 04D1     		bne	.L47
 714:d:/LiteOS_Lab/drivers/third_party/ST/STM32L4xx_HAL_Driver/Src\stm32l4xx_hal_uart.c ****     {
 715:d:/LiteOS_Lab/drivers/third_party/ST/STM32L4xx_HAL_Driver/Src\stm32l4xx_hal_uart.c ****         huart->gState = HAL_UART_STATE_BUSY_RX;
 987              		.loc 1 715 23
 988 012c FB68     		ldr	r3, [r7, #12]
 989 012e 2222     		movs	r2, #34
 990 0130 83F87120 		strb	r2, [r3, #113]
 991 0134 03E0     		b	.L48
 992              	.L47:
 716:d:/LiteOS_Lab/drivers/third_party/ST/STM32L4xx_HAL_Driver/Src\stm32l4xx_hal_uart.c ****     }
 717:d:/LiteOS_Lab/drivers/third_party/ST/STM32L4xx_HAL_Driver/Src\stm32l4xx_hal_uart.c ****     else
 718:d:/LiteOS_Lab/drivers/third_party/ST/STM32L4xx_HAL_Driver/Src\stm32l4xx_hal_uart.c ****     {
 719:d:/LiteOS_Lab/drivers/third_party/ST/STM32L4xx_HAL_Driver/Src\stm32l4xx_hal_uart.c ****         huart->gState = HAL_UART_STATE_READY;
 993              		.loc 1 719 23
 994 0136 FB68     		ldr	r3, [r7, #12]
 995 0138 2022     		movs	r2, #32
 996 013a 83F87120 		strb	r2, [r3, #113]
 997              	.L48:
 720:d:/LiteOS_Lab/drivers/third_party/ST/STM32L4xx_HAL_Driver/Src\stm32l4xx_hal_uart.c ****     }
 721:d:/LiteOS_Lab/drivers/third_party/ST/STM32L4xx_HAL_Driver/Src\stm32l4xx_hal_uart.c **** 
 722:d:/LiteOS_Lab/drivers/third_party/ST/STM32L4xx_HAL_Driver/Src\stm32l4xx_hal_uart.c ****     /* Process Unlocked */
 723:d:/LiteOS_Lab/drivers/third_party/ST/STM32L4xx_HAL_Driver/Src\stm32l4xx_hal_uart.c ****     __HAL_UNLOCK(huart);
 998              		.loc 1 723 5
 999 013e FB68     		ldr	r3, [r7, #12]
 1000 0140 0022     		movs	r2, #0
ARM GAS  C:\Users\ADMINI~1\AppData\Local\Temp\ccHDbRvY.s 			page 31


 1001 0142 83F87020 		strb	r2, [r3, #112]
 724:d:/LiteOS_Lab/drivers/third_party/ST/STM32L4xx_HAL_Driver/Src\stm32l4xx_hal_uart.c **** 
 725:d:/LiteOS_Lab/drivers/third_party/ST/STM32L4xx_HAL_Driver/Src\stm32l4xx_hal_uart.c ****     return HAL_OK;
 1002              		.loc 1 725 12
 1003 0146 0023     		movs	r3, #0
 1004 0148 00E0     		b	.L38
 1005              	.L35:
 726:d:/LiteOS_Lab/drivers/third_party/ST/STM32L4xx_HAL_Driver/Src\stm32l4xx_hal_uart.c ****   }
 727:d:/LiteOS_Lab/drivers/third_party/ST/STM32L4xx_HAL_Driver/Src\stm32l4xx_hal_uart.c ****   else
 728:d:/LiteOS_Lab/drivers/third_party/ST/STM32L4xx_HAL_Driver/Src\stm32l4xx_hal_uart.c ****   {
 729:d:/LiteOS_Lab/drivers/third_party/ST/STM32L4xx_HAL_Driver/Src\stm32l4xx_hal_uart.c ****     return HAL_BUSY;
 1006              		.loc 1 729 12
 1007 014a 0223     		movs	r3, #2
 1008              	.L38:
 730:d:/LiteOS_Lab/drivers/third_party/ST/STM32L4xx_HAL_Driver/Src\stm32l4xx_hal_uart.c ****   }
 731:d:/LiteOS_Lab/drivers/third_party/ST/STM32L4xx_HAL_Driver/Src\stm32l4xx_hal_uart.c **** }
 1009              		.loc 1 731 1
 1010 014c 1846     		mov	r0, r3
 1011 014e 1837     		adds	r7, r7, #24
 1012              	.LCFI40:
 1013              		.cfi_def_cfa_offset 8
 1014 0150 BD46     		mov	sp, r7
 1015              	.LCFI41:
 1016              		.cfi_def_cfa_register 13
 1017              		@ sp needed
 1018 0152 80BD     		pop	{r7, pc}
 1019              		.cfi_endproc
 1020              	.LFE294:
 1022              		.section	.text.HAL_UART_Receive,"ax",%progbits
 1023              		.align	1
 1024              		.global	HAL_UART_Receive
 1025              		.syntax unified
 1026              		.thumb
 1027              		.thumb_func
 1028              		.fpu fpv4-sp-d16
 1030              	HAL_UART_Receive:
 1031              	.LFB295:
 732:d:/LiteOS_Lab/drivers/third_party/ST/STM32L4xx_HAL_Driver/Src\stm32l4xx_hal_uart.c **** 
 733:d:/LiteOS_Lab/drivers/third_party/ST/STM32L4xx_HAL_Driver/Src\stm32l4xx_hal_uart.c **** /**
 734:d:/LiteOS_Lab/drivers/third_party/ST/STM32L4xx_HAL_Driver/Src\stm32l4xx_hal_uart.c ****   * @brief Receive an amount of data in blocking mode.
 735:d:/LiteOS_Lab/drivers/third_party/ST/STM32L4xx_HAL_Driver/Src\stm32l4xx_hal_uart.c ****   * @param huart: UART handle.
 736:d:/LiteOS_Lab/drivers/third_party/ST/STM32L4xx_HAL_Driver/Src\stm32l4xx_hal_uart.c ****   * @param pData: pointer to data buffer.
 737:d:/LiteOS_Lab/drivers/third_party/ST/STM32L4xx_HAL_Driver/Src\stm32l4xx_hal_uart.c ****   * @param Size: amount of data to be received.
 738:d:/LiteOS_Lab/drivers/third_party/ST/STM32L4xx_HAL_Driver/Src\stm32l4xx_hal_uart.c ****   * @param Timeout: Timeout duration.
 739:d:/LiteOS_Lab/drivers/third_party/ST/STM32L4xx_HAL_Driver/Src\stm32l4xx_hal_uart.c ****   * @retval HAL status
 740:d:/LiteOS_Lab/drivers/third_party/ST/STM32L4xx_HAL_Driver/Src\stm32l4xx_hal_uart.c ****   */
 741:d:/LiteOS_Lab/drivers/third_party/ST/STM32L4xx_HAL_Driver/Src\stm32l4xx_hal_uart.c **** HAL_StatusTypeDef HAL_UART_Receive(UART_HandleTypeDef *huart, uint8_t *pData, uint16_t Size, uint32
 742:d:/LiteOS_Lab/drivers/third_party/ST/STM32L4xx_HAL_Driver/Src\stm32l4xx_hal_uart.c **** {
 1032              		.loc 1 742 1
 1033              		.cfi_startproc
 1034              		@ args = 0, pretend = 0, frame = 32
 1035              		@ frame_needed = 1, uses_anonymous_args = 0
 1036 0000 80B5     		push	{r7, lr}
 1037              	.LCFI42:
 1038              		.cfi_def_cfa_offset 8
 1039              		.cfi_offset 7, -8
 1040              		.cfi_offset 14, -4
ARM GAS  C:\Users\ADMINI~1\AppData\Local\Temp\ccHDbRvY.s 			page 32


 1041 0002 8AB0     		sub	sp, sp, #40
 1042              	.LCFI43:
 1043              		.cfi_def_cfa_offset 48
 1044 0004 02AF     		add	r7, sp, #8
 1045              	.LCFI44:
 1046              		.cfi_def_cfa 7, 40
 1047 0006 F860     		str	r0, [r7, #12]
 1048 0008 B960     		str	r1, [r7, #8]
 1049 000a 3B60     		str	r3, [r7]
 1050 000c 1346     		mov	r3, r2	@ movhi
 1051 000e FB80     		strh	r3, [r7, #6]	@ movhi
 743:d:/LiteOS_Lab/drivers/third_party/ST/STM32L4xx_HAL_Driver/Src\stm32l4xx_hal_uart.c ****   uint16_t* tmp;
 744:d:/LiteOS_Lab/drivers/third_party/ST/STM32L4xx_HAL_Driver/Src\stm32l4xx_hal_uart.c ****   uint16_t uhMask;
 745:d:/LiteOS_Lab/drivers/third_party/ST/STM32L4xx_HAL_Driver/Src\stm32l4xx_hal_uart.c ****   uint32_t tickstart = 0;
 1052              		.loc 1 745 12
 1053 0010 0023     		movs	r3, #0
 1054 0012 FB61     		str	r3, [r7, #28]
 746:d:/LiteOS_Lab/drivers/third_party/ST/STM32L4xx_HAL_Driver/Src\stm32l4xx_hal_uart.c **** 
 747:d:/LiteOS_Lab/drivers/third_party/ST/STM32L4xx_HAL_Driver/Src\stm32l4xx_hal_uart.c ****   /* Check that a Rx process is not already ongoing */
 748:d:/LiteOS_Lab/drivers/third_party/ST/STM32L4xx_HAL_Driver/Src\stm32l4xx_hal_uart.c ****   if(huart->RxState == HAL_UART_STATE_READY)
 1055              		.loc 1 748 11
 1056 0014 FB68     		ldr	r3, [r7, #12]
 1057 0016 93F87230 		ldrb	r3, [r3, #114]
 1058 001a DBB2     		uxtb	r3, r3
 1059              		.loc 1 748 5
 1060 001c 202B     		cmp	r3, #32
 1061 001e 40F0AD80 		bne	.L50
 749:d:/LiteOS_Lab/drivers/third_party/ST/STM32L4xx_HAL_Driver/Src\stm32l4xx_hal_uart.c ****   {
 750:d:/LiteOS_Lab/drivers/third_party/ST/STM32L4xx_HAL_Driver/Src\stm32l4xx_hal_uart.c ****     if((pData == NULL ) || (Size == 0))
 1062              		.loc 1 750 7
 1063 0022 BB68     		ldr	r3, [r7, #8]
 1064 0024 002B     		cmp	r3, #0
 1065 0026 02D0     		beq	.L51
 1066              		.loc 1 750 25 discriminator 1
 1067 0028 FB88     		ldrh	r3, [r7, #6]
 1068 002a 002B     		cmp	r3, #0
 1069 002c 01D1     		bne	.L52
 1070              	.L51:
 751:d:/LiteOS_Lab/drivers/third_party/ST/STM32L4xx_HAL_Driver/Src\stm32l4xx_hal_uart.c ****     {
 752:d:/LiteOS_Lab/drivers/third_party/ST/STM32L4xx_HAL_Driver/Src\stm32l4xx_hal_uart.c ****       return  HAL_ERROR;
 1071              		.loc 1 752 15
 1072 002e 0123     		movs	r3, #1
 1073 0030 A5E0     		b	.L53
 1074              	.L52:
 753:d:/LiteOS_Lab/drivers/third_party/ST/STM32L4xx_HAL_Driver/Src\stm32l4xx_hal_uart.c ****     }
 754:d:/LiteOS_Lab/drivers/third_party/ST/STM32L4xx_HAL_Driver/Src\stm32l4xx_hal_uart.c **** 
 755:d:/LiteOS_Lab/drivers/third_party/ST/STM32L4xx_HAL_Driver/Src\stm32l4xx_hal_uart.c ****     /* Process Locked */
 756:d:/LiteOS_Lab/drivers/third_party/ST/STM32L4xx_HAL_Driver/Src\stm32l4xx_hal_uart.c ****     __HAL_LOCK(huart);
 1075              		.loc 1 756 5
 1076 0032 FB68     		ldr	r3, [r7, #12]
 1077 0034 93F87030 		ldrb	r3, [r3, #112]	@ zero_extendqisi2
 1078 0038 012B     		cmp	r3, #1
 1079 003a 01D1     		bne	.L54
 1080              		.loc 1 756 5 is_stmt 0 discriminator 1
 1081 003c 0223     		movs	r3, #2
 1082 003e 9EE0     		b	.L53
 1083              	.L54:
ARM GAS  C:\Users\ADMINI~1\AppData\Local\Temp\ccHDbRvY.s 			page 33


 1084              		.loc 1 756 5 discriminator 2
 1085 0040 FB68     		ldr	r3, [r7, #12]
 1086 0042 0122     		movs	r2, #1
 1087 0044 83F87020 		strb	r2, [r3, #112]
 757:d:/LiteOS_Lab/drivers/third_party/ST/STM32L4xx_HAL_Driver/Src\stm32l4xx_hal_uart.c **** 
 758:d:/LiteOS_Lab/drivers/third_party/ST/STM32L4xx_HAL_Driver/Src\stm32l4xx_hal_uart.c ****     huart->ErrorCode = HAL_UART_ERROR_NONE;
 1088              		.loc 1 758 22 is_stmt 1 discriminator 2
 1089 0048 FB68     		ldr	r3, [r7, #12]
 1090 004a 0022     		movs	r2, #0
 1091 004c 5A67     		str	r2, [r3, #116]
 759:d:/LiteOS_Lab/drivers/third_party/ST/STM32L4xx_HAL_Driver/Src\stm32l4xx_hal_uart.c ****     huart->RxState = HAL_UART_STATE_BUSY_RX;
 1092              		.loc 1 759 20 discriminator 2
 1093 004e FB68     		ldr	r3, [r7, #12]
 1094 0050 2222     		movs	r2, #34
 1095 0052 83F87220 		strb	r2, [r3, #114]
 760:d:/LiteOS_Lab/drivers/third_party/ST/STM32L4xx_HAL_Driver/Src\stm32l4xx_hal_uart.c **** 
 761:d:/LiteOS_Lab/drivers/third_party/ST/STM32L4xx_HAL_Driver/Src\stm32l4xx_hal_uart.c ****     /* Init tickstart for timeout managment*/
 762:d:/LiteOS_Lab/drivers/third_party/ST/STM32L4xx_HAL_Driver/Src\stm32l4xx_hal_uart.c ****     tickstart = HAL_GetTick();
 1096              		.loc 1 762 17 discriminator 2
 1097 0056 FFF7FEFF 		bl	HAL_GetTick
 1098 005a F861     		str	r0, [r7, #28]
 763:d:/LiteOS_Lab/drivers/third_party/ST/STM32L4xx_HAL_Driver/Src\stm32l4xx_hal_uart.c **** 
 764:d:/LiteOS_Lab/drivers/third_party/ST/STM32L4xx_HAL_Driver/Src\stm32l4xx_hal_uart.c ****     huart->RxXferSize = Size;
 1099              		.loc 1 764 23 discriminator 2
 1100 005c FB68     		ldr	r3, [r7, #12]
 1101 005e FA88     		ldrh	r2, [r7, #6]	@ movhi
 1102 0060 A3F85820 		strh	r2, [r3, #88]	@ movhi
 765:d:/LiteOS_Lab/drivers/third_party/ST/STM32L4xx_HAL_Driver/Src\stm32l4xx_hal_uart.c ****     huart->RxXferCount = Size;
 1103              		.loc 1 765 24 discriminator 2
 1104 0064 FB68     		ldr	r3, [r7, #12]
 1105 0066 FA88     		ldrh	r2, [r7, #6]	@ movhi
 1106 0068 A3F85A20 		strh	r2, [r3, #90]	@ movhi
 766:d:/LiteOS_Lab/drivers/third_party/ST/STM32L4xx_HAL_Driver/Src\stm32l4xx_hal_uart.c **** 
 767:d:/LiteOS_Lab/drivers/third_party/ST/STM32L4xx_HAL_Driver/Src\stm32l4xx_hal_uart.c ****     /* Computation of UART mask to apply to RDR register */
 768:d:/LiteOS_Lab/drivers/third_party/ST/STM32L4xx_HAL_Driver/Src\stm32l4xx_hal_uart.c ****     UART_MASK_COMPUTATION(huart);
 1107              		.loc 1 768 5 discriminator 2
 1108 006c FB68     		ldr	r3, [r7, #12]
 1109 006e 9B68     		ldr	r3, [r3, #8]
 1110 0070 B3F5805F 		cmp	r3, #4096
 1111 0074 0ED1     		bne	.L55
 1112              		.loc 1 768 5 is_stmt 0 discriminator 1
 1113 0076 FB68     		ldr	r3, [r7, #12]
 1114 0078 1B69     		ldr	r3, [r3, #16]
 1115 007a 002B     		cmp	r3, #0
 1116 007c 05D1     		bne	.L56
 1117              		.loc 1 768 5 discriminator 3
 1118 007e FB68     		ldr	r3, [r7, #12]
 1119 0080 40F2FF12 		movw	r2, #511
 1120 0084 A3F85C20 		strh	r2, [r3, #92]	@ movhi
 1121 0088 28E0     		b	.L57
 1122              	.L56:
 1123              		.loc 1 768 5 discriminator 4
 1124 008a FB68     		ldr	r3, [r7, #12]
 1125 008c FF22     		movs	r2, #255
 1126 008e A3F85C20 		strh	r2, [r3, #92]	@ movhi
 1127 0092 23E0     		b	.L57
 1128              	.L55:
ARM GAS  C:\Users\ADMINI~1\AppData\Local\Temp\ccHDbRvY.s 			page 34


 1129              		.loc 1 768 5 discriminator 2
 1130 0094 FB68     		ldr	r3, [r7, #12]
 1131 0096 9B68     		ldr	r3, [r3, #8]
 1132 0098 002B     		cmp	r3, #0
 1133 009a 0DD1     		bne	.L58
 1134              		.loc 1 768 5 discriminator 5
 1135 009c FB68     		ldr	r3, [r7, #12]
 1136 009e 1B69     		ldr	r3, [r3, #16]
 1137 00a0 002B     		cmp	r3, #0
 1138 00a2 04D1     		bne	.L59
 1139              		.loc 1 768 5 discriminator 7
 1140 00a4 FB68     		ldr	r3, [r7, #12]
 1141 00a6 FF22     		movs	r2, #255
 1142 00a8 A3F85C20 		strh	r2, [r3, #92]	@ movhi
 1143 00ac 16E0     		b	.L57
 1144              	.L59:
 1145              		.loc 1 768 5 discriminator 8
 1146 00ae FB68     		ldr	r3, [r7, #12]
 1147 00b0 7F22     		movs	r2, #127
 1148 00b2 A3F85C20 		strh	r2, [r3, #92]	@ movhi
 1149 00b6 11E0     		b	.L57
 1150              	.L58:
 1151              		.loc 1 768 5 discriminator 6
 1152 00b8 FB68     		ldr	r3, [r7, #12]
 1153 00ba 9B68     		ldr	r3, [r3, #8]
 1154 00bc B3F1805F 		cmp	r3, #268435456
 1155 00c0 0CD1     		bne	.L57
 1156              		.loc 1 768 5 discriminator 9
 1157 00c2 FB68     		ldr	r3, [r7, #12]
 1158 00c4 1B69     		ldr	r3, [r3, #16]
 1159 00c6 002B     		cmp	r3, #0
 1160 00c8 04D1     		bne	.L60
 1161              		.loc 1 768 5 discriminator 10
 1162 00ca FB68     		ldr	r3, [r7, #12]
 1163 00cc 7F22     		movs	r2, #127
 1164 00ce A3F85C20 		strh	r2, [r3, #92]	@ movhi
 1165 00d2 03E0     		b	.L57
 1166              	.L60:
 1167              		.loc 1 768 5 discriminator 11
 1168 00d4 FB68     		ldr	r3, [r7, #12]
 1169 00d6 3F22     		movs	r2, #63
 1170 00d8 A3F85C20 		strh	r2, [r3, #92]	@ movhi
 1171              	.L57:
 769:d:/LiteOS_Lab/drivers/third_party/ST/STM32L4xx_HAL_Driver/Src\stm32l4xx_hal_uart.c ****     uhMask = huart->Mask;
 1172              		.loc 1 769 12 is_stmt 1
 1173 00dc FB68     		ldr	r3, [r7, #12]
 1174 00de B3F85C30 		ldrh	r3, [r3, #92]	@ movhi
 1175 00e2 7B83     		strh	r3, [r7, #26]	@ movhi
 770:d:/LiteOS_Lab/drivers/third_party/ST/STM32L4xx_HAL_Driver/Src\stm32l4xx_hal_uart.c **** 
 771:d:/LiteOS_Lab/drivers/third_party/ST/STM32L4xx_HAL_Driver/Src\stm32l4xx_hal_uart.c ****     /* as long as data have to be received */
 772:d:/LiteOS_Lab/drivers/third_party/ST/STM32L4xx_HAL_Driver/Src\stm32l4xx_hal_uart.c ****     while(huart->RxXferCount > 0)
 1176              		.loc 1 772 10
 1177 00e4 3AE0     		b	.L61
 1178              	.L64:
 773:d:/LiteOS_Lab/drivers/third_party/ST/STM32L4xx_HAL_Driver/Src\stm32l4xx_hal_uart.c ****     {
 774:d:/LiteOS_Lab/drivers/third_party/ST/STM32L4xx_HAL_Driver/Src\stm32l4xx_hal_uart.c ****       huart->RxXferCount--;
 1179              		.loc 1 774 12
ARM GAS  C:\Users\ADMINI~1\AppData\Local\Temp\ccHDbRvY.s 			page 35


 1180 00e6 FB68     		ldr	r3, [r7, #12]
 1181 00e8 B3F85A30 		ldrh	r3, [r3, #90]	@ movhi
 1182 00ec 9BB2     		uxth	r3, r3
 1183              		.loc 1 774 25
 1184 00ee 013B     		subs	r3, r3, #1
 1185 00f0 9AB2     		uxth	r2, r3
 1186 00f2 FB68     		ldr	r3, [r7, #12]
 1187 00f4 A3F85A20 		strh	r2, [r3, #90]	@ movhi
 775:d:/LiteOS_Lab/drivers/third_party/ST/STM32L4xx_HAL_Driver/Src\stm32l4xx_hal_uart.c ****       if(UART_WaitOnFlagUntilTimeout(huart, UART_FLAG_RXNE, RESET, tickstart, Timeout) != HAL_OK)
 1188              		.loc 1 775 10
 1189 00f8 3B68     		ldr	r3, [r7]
 1190 00fa 0093     		str	r3, [sp]
 1191 00fc FB69     		ldr	r3, [r7, #28]
 1192 00fe 0022     		movs	r2, #0
 1193 0100 2021     		movs	r1, #32
 1194 0102 F868     		ldr	r0, [r7, #12]
 1195 0104 FFF7FEFF 		bl	UART_WaitOnFlagUntilTimeout
 1196 0108 0346     		mov	r3, r0
 1197              		.loc 1 775 9
 1198 010a 002B     		cmp	r3, #0
 1199 010c 01D0     		beq	.L62
 776:d:/LiteOS_Lab/drivers/third_party/ST/STM32L4xx_HAL_Driver/Src\stm32l4xx_hal_uart.c ****       {
 777:d:/LiteOS_Lab/drivers/third_party/ST/STM32L4xx_HAL_Driver/Src\stm32l4xx_hal_uart.c ****         return HAL_TIMEOUT;
 1200              		.loc 1 777 16
 1201 010e 0323     		movs	r3, #3
 1202 0110 35E0     		b	.L53
 1203              	.L62:
 778:d:/LiteOS_Lab/drivers/third_party/ST/STM32L4xx_HAL_Driver/Src\stm32l4xx_hal_uart.c ****       }
 779:d:/LiteOS_Lab/drivers/third_party/ST/STM32L4xx_HAL_Driver/Src\stm32l4xx_hal_uart.c ****       if ((huart->Init.WordLength == UART_WORDLENGTH_9B) && (huart->Init.Parity == UART_PARITY_NONE
 1204              		.loc 1 779 23
 1205 0112 FB68     		ldr	r3, [r7, #12]
 1206 0114 9B68     		ldr	r3, [r3, #8]
 1207              		.loc 1 779 10
 1208 0116 B3F5805F 		cmp	r3, #4096
 1209 011a 12D1     		bne	.L63
 1210              		.loc 1 779 73 discriminator 1
 1211 011c FB68     		ldr	r3, [r7, #12]
 1212 011e 1B69     		ldr	r3, [r3, #16]
 1213              		.loc 1 779 58 discriminator 1
 1214 0120 002B     		cmp	r3, #0
 1215 0122 0ED1     		bne	.L63
 780:d:/LiteOS_Lab/drivers/third_party/ST/STM32L4xx_HAL_Driver/Src\stm32l4xx_hal_uart.c ****       {
 781:d:/LiteOS_Lab/drivers/third_party/ST/STM32L4xx_HAL_Driver/Src\stm32l4xx_hal_uart.c ****         tmp = (uint16_t*) pData ;
 1216              		.loc 1 781 13
 1217 0124 BB68     		ldr	r3, [r7, #8]
 1218 0126 7B61     		str	r3, [r7, #20]
 782:d:/LiteOS_Lab/drivers/third_party/ST/STM32L4xx_HAL_Driver/Src\stm32l4xx_hal_uart.c ****         *tmp = (uint16_t)(huart->Instance->RDR & uhMask);
 1219              		.loc 1 782 32
 1220 0128 FB68     		ldr	r3, [r7, #12]
 1221 012a 1B68     		ldr	r3, [r3]
 1222              		.loc 1 782 42
 1223 012c 9B8C     		ldrh	r3, [r3, #36]	@ movhi
 1224 012e 9AB2     		uxth	r2, r3
 1225              		.loc 1 782 16
 1226 0130 7B8B     		ldrh	r3, [r7, #26]	@ movhi
 1227 0132 1340     		ands	r3, r3, r2
 1228 0134 9AB2     		uxth	r2, r3
ARM GAS  C:\Users\ADMINI~1\AppData\Local\Temp\ccHDbRvY.s 			page 36


 1229              		.loc 1 782 14
 1230 0136 7B69     		ldr	r3, [r7, #20]
 1231 0138 1A80     		strh	r2, [r3]	@ movhi
 783:d:/LiteOS_Lab/drivers/third_party/ST/STM32L4xx_HAL_Driver/Src\stm32l4xx_hal_uart.c ****         pData +=2;
 1232              		.loc 1 783 15
 1233 013a BB68     		ldr	r3, [r7, #8]
 1234 013c 0233     		adds	r3, r3, #2
 1235 013e BB60     		str	r3, [r7, #8]
 1236 0140 0CE0     		b	.L61
 1237              	.L63:
 784:d:/LiteOS_Lab/drivers/third_party/ST/STM32L4xx_HAL_Driver/Src\stm32l4xx_hal_uart.c ****       }
 785:d:/LiteOS_Lab/drivers/third_party/ST/STM32L4xx_HAL_Driver/Src\stm32l4xx_hal_uart.c ****       else
 786:d:/LiteOS_Lab/drivers/third_party/ST/STM32L4xx_HAL_Driver/Src\stm32l4xx_hal_uart.c ****       {
 787:d:/LiteOS_Lab/drivers/third_party/ST/STM32L4xx_HAL_Driver/Src\stm32l4xx_hal_uart.c ****         *pData++ = (uint8_t)(huart->Instance->RDR & (uint8_t)uhMask);
 1238              		.loc 1 787 35
 1239 0142 FB68     		ldr	r3, [r7, #12]
 1240 0144 1B68     		ldr	r3, [r3]
 1241              		.loc 1 787 45
 1242 0146 9B8C     		ldrh	r3, [r3, #36]	@ movhi
 1243 0148 9BB2     		uxth	r3, r3
 1244              		.loc 1 787 20
 1245 014a D9B2     		uxtb	r1, r3
 1246              		.loc 1 787 53
 1247 014c 7B8B     		ldrh	r3, [r7, #26]	@ movhi
 1248 014e DAB2     		uxtb	r2, r3
 1249              		.loc 1 787 15
 1250 0150 BB68     		ldr	r3, [r7, #8]
 1251 0152 581C     		adds	r0, r3, #1
 1252 0154 B860     		str	r0, [r7, #8]
 1253              		.loc 1 787 20
 1254 0156 0A40     		ands	r2, r2, r1
 1255 0158 D2B2     		uxtb	r2, r2
 1256              		.loc 1 787 18
 1257 015a 1A70     		strb	r2, [r3]
 1258              	.L61:
 772:d:/LiteOS_Lab/drivers/third_party/ST/STM32L4xx_HAL_Driver/Src\stm32l4xx_hal_uart.c ****     {
 1259              		.loc 1 772 16
 1260 015c FB68     		ldr	r3, [r7, #12]
 1261 015e B3F85A30 		ldrh	r3, [r3, #90]	@ movhi
 1262 0162 9BB2     		uxth	r3, r3
 772:d:/LiteOS_Lab/drivers/third_party/ST/STM32L4xx_HAL_Driver/Src\stm32l4xx_hal_uart.c ****     {
 1263              		.loc 1 772 10
 1264 0164 002B     		cmp	r3, #0
 1265 0166 BED1     		bne	.L64
 788:d:/LiteOS_Lab/drivers/third_party/ST/STM32L4xx_HAL_Driver/Src\stm32l4xx_hal_uart.c ****       }
 789:d:/LiteOS_Lab/drivers/third_party/ST/STM32L4xx_HAL_Driver/Src\stm32l4xx_hal_uart.c ****     }
 790:d:/LiteOS_Lab/drivers/third_party/ST/STM32L4xx_HAL_Driver/Src\stm32l4xx_hal_uart.c **** 
 791:d:/LiteOS_Lab/drivers/third_party/ST/STM32L4xx_HAL_Driver/Src\stm32l4xx_hal_uart.c ****     /* At end of Rx process, restore huart->RxState to Ready */
 792:d:/LiteOS_Lab/drivers/third_party/ST/STM32L4xx_HAL_Driver/Src\stm32l4xx_hal_uart.c ****     huart->RxState = HAL_UART_STATE_READY;
 1266              		.loc 1 792 20
 1267 0168 FB68     		ldr	r3, [r7, #12]
 1268 016a 2022     		movs	r2, #32
 1269 016c 83F87220 		strb	r2, [r3, #114]
 793:d:/LiteOS_Lab/drivers/third_party/ST/STM32L4xx_HAL_Driver/Src\stm32l4xx_hal_uart.c **** 
 794:d:/LiteOS_Lab/drivers/third_party/ST/STM32L4xx_HAL_Driver/Src\stm32l4xx_hal_uart.c ****     /* Process Unlocked */
 795:d:/LiteOS_Lab/drivers/third_party/ST/STM32L4xx_HAL_Driver/Src\stm32l4xx_hal_uart.c ****     __HAL_UNLOCK(huart);
 1270              		.loc 1 795 5
ARM GAS  C:\Users\ADMINI~1\AppData\Local\Temp\ccHDbRvY.s 			page 37


 1271 0170 FB68     		ldr	r3, [r7, #12]
 1272 0172 0022     		movs	r2, #0
 1273 0174 83F87020 		strb	r2, [r3, #112]
 796:d:/LiteOS_Lab/drivers/third_party/ST/STM32L4xx_HAL_Driver/Src\stm32l4xx_hal_uart.c **** 
 797:d:/LiteOS_Lab/drivers/third_party/ST/STM32L4xx_HAL_Driver/Src\stm32l4xx_hal_uart.c ****     return HAL_OK;
 1274              		.loc 1 797 12
 1275 0178 0023     		movs	r3, #0
 1276 017a 00E0     		b	.L53
 1277              	.L50:
 798:d:/LiteOS_Lab/drivers/third_party/ST/STM32L4xx_HAL_Driver/Src\stm32l4xx_hal_uart.c ****   }
 799:d:/LiteOS_Lab/drivers/third_party/ST/STM32L4xx_HAL_Driver/Src\stm32l4xx_hal_uart.c ****   else
 800:d:/LiteOS_Lab/drivers/third_party/ST/STM32L4xx_HAL_Driver/Src\stm32l4xx_hal_uart.c ****   {
 801:d:/LiteOS_Lab/drivers/third_party/ST/STM32L4xx_HAL_Driver/Src\stm32l4xx_hal_uart.c ****     return HAL_BUSY;
 1278              		.loc 1 801 12
 1279 017c 0223     		movs	r3, #2
 1280              	.L53:
 802:d:/LiteOS_Lab/drivers/third_party/ST/STM32L4xx_HAL_Driver/Src\stm32l4xx_hal_uart.c ****   }
 803:d:/LiteOS_Lab/drivers/third_party/ST/STM32L4xx_HAL_Driver/Src\stm32l4xx_hal_uart.c **** }
 1281              		.loc 1 803 1
 1282 017e 1846     		mov	r0, r3
 1283 0180 2037     		adds	r7, r7, #32
 1284              	.LCFI45:
 1285              		.cfi_def_cfa_offset 8
 1286 0182 BD46     		mov	sp, r7
 1287              	.LCFI46:
 1288              		.cfi_def_cfa_register 13
 1289              		@ sp needed
 1290 0184 80BD     		pop	{r7, pc}
 1291              		.cfi_endproc
 1292              	.LFE295:
 1294              		.section	.text.HAL_UART_Transmit_IT,"ax",%progbits
 1295              		.align	1
 1296              		.global	HAL_UART_Transmit_IT
 1297              		.syntax unified
 1298              		.thumb
 1299              		.thumb_func
 1300              		.fpu fpv4-sp-d16
 1302              	HAL_UART_Transmit_IT:
 1303              	.LFB296:
 804:d:/LiteOS_Lab/drivers/third_party/ST/STM32L4xx_HAL_Driver/Src\stm32l4xx_hal_uart.c **** 
 805:d:/LiteOS_Lab/drivers/third_party/ST/STM32L4xx_HAL_Driver/Src\stm32l4xx_hal_uart.c **** /**
 806:d:/LiteOS_Lab/drivers/third_party/ST/STM32L4xx_HAL_Driver/Src\stm32l4xx_hal_uart.c ****   * @brief Send an amount of data in interrupt mode.
 807:d:/LiteOS_Lab/drivers/third_party/ST/STM32L4xx_HAL_Driver/Src\stm32l4xx_hal_uart.c ****   * @param huart: UART handle.
 808:d:/LiteOS_Lab/drivers/third_party/ST/STM32L4xx_HAL_Driver/Src\stm32l4xx_hal_uart.c ****   * @param pData: pointer to data buffer.
 809:d:/LiteOS_Lab/drivers/third_party/ST/STM32L4xx_HAL_Driver/Src\stm32l4xx_hal_uart.c ****   * @param Size: amount of data to be sent.
 810:d:/LiteOS_Lab/drivers/third_party/ST/STM32L4xx_HAL_Driver/Src\stm32l4xx_hal_uart.c ****   * @retval HAL status
 811:d:/LiteOS_Lab/drivers/third_party/ST/STM32L4xx_HAL_Driver/Src\stm32l4xx_hal_uart.c ****   */
 812:d:/LiteOS_Lab/drivers/third_party/ST/STM32L4xx_HAL_Driver/Src\stm32l4xx_hal_uart.c **** HAL_StatusTypeDef HAL_UART_Transmit_IT(UART_HandleTypeDef *huart, uint8_t *pData, uint16_t Size)
 813:d:/LiteOS_Lab/drivers/third_party/ST/STM32L4xx_HAL_Driver/Src\stm32l4xx_hal_uart.c **** {
 1304              		.loc 1 813 1
 1305              		.cfi_startproc
 1306              		@ args = 0, pretend = 0, frame = 16
 1307              		@ frame_needed = 1, uses_anonymous_args = 0
 1308              		@ link register save eliminated.
 1309 0000 80B4     		push	{r7}
 1310              	.LCFI47:
 1311              		.cfi_def_cfa_offset 4
ARM GAS  C:\Users\ADMINI~1\AppData\Local\Temp\ccHDbRvY.s 			page 38


 1312              		.cfi_offset 7, -4
 1313 0002 85B0     		sub	sp, sp, #20
 1314              	.LCFI48:
 1315              		.cfi_def_cfa_offset 24
 1316 0004 00AF     		add	r7, sp, #0
 1317              	.LCFI49:
 1318              		.cfi_def_cfa_register 7
 1319 0006 F860     		str	r0, [r7, #12]
 1320 0008 B960     		str	r1, [r7, #8]
 1321 000a 1346     		mov	r3, r2
 1322 000c FB80     		strh	r3, [r7, #6]	@ movhi
 814:d:/LiteOS_Lab/drivers/third_party/ST/STM32L4xx_HAL_Driver/Src\stm32l4xx_hal_uart.c ****   /* Check that a Tx process is not already ongoing */
 815:d:/LiteOS_Lab/drivers/third_party/ST/STM32L4xx_HAL_Driver/Src\stm32l4xx_hal_uart.c ****   if(huart->gState == HAL_UART_STATE_READY || huart->gState == HAL_UART_STATE_BUSY_RX)
 1323              		.loc 1 815 11
 1324 000e FB68     		ldr	r3, [r7, #12]
 1325 0010 93F87130 		ldrb	r3, [r3, #113]
 1326 0014 DBB2     		uxtb	r3, r3
 1327              		.loc 1 815 5
 1328 0016 202B     		cmp	r3, #32
 1329 0018 05D0     		beq	.L66
 1330              		.loc 1 815 52 discriminator 1
 1331 001a FB68     		ldr	r3, [r7, #12]
 1332 001c 93F87130 		ldrb	r3, [r3, #113]
 1333 0020 DBB2     		uxtb	r3, r3
 1334              		.loc 1 815 44 discriminator 1
 1335 0022 222B     		cmp	r3, #34
 1336 0024 3DD1     		bne	.L67
 1337              	.L66:
 816:d:/LiteOS_Lab/drivers/third_party/ST/STM32L4xx_HAL_Driver/Src\stm32l4xx_hal_uart.c ****   {
 817:d:/LiteOS_Lab/drivers/third_party/ST/STM32L4xx_HAL_Driver/Src\stm32l4xx_hal_uart.c ****     if((pData == NULL ) || (Size == 0))
 1338              		.loc 1 817 7
 1339 0026 BB68     		ldr	r3, [r7, #8]
 1340 0028 002B     		cmp	r3, #0
 1341 002a 02D0     		beq	.L68
 1342              		.loc 1 817 25 discriminator 1
 1343 002c FB88     		ldrh	r3, [r7, #6]
 1344 002e 002B     		cmp	r3, #0
 1345 0030 01D1     		bne	.L69
 1346              	.L68:
 818:d:/LiteOS_Lab/drivers/third_party/ST/STM32L4xx_HAL_Driver/Src\stm32l4xx_hal_uart.c ****     {
 819:d:/LiteOS_Lab/drivers/third_party/ST/STM32L4xx_HAL_Driver/Src\stm32l4xx_hal_uart.c ****       return HAL_ERROR;
 1347              		.loc 1 819 14
 1348 0032 0123     		movs	r3, #1
 1349 0034 36E0     		b	.L70
 1350              	.L69:
 820:d:/LiteOS_Lab/drivers/third_party/ST/STM32L4xx_HAL_Driver/Src\stm32l4xx_hal_uart.c ****     }
 821:d:/LiteOS_Lab/drivers/third_party/ST/STM32L4xx_HAL_Driver/Src\stm32l4xx_hal_uart.c **** 
 822:d:/LiteOS_Lab/drivers/third_party/ST/STM32L4xx_HAL_Driver/Src\stm32l4xx_hal_uart.c ****     /* Process Locked */
 823:d:/LiteOS_Lab/drivers/third_party/ST/STM32L4xx_HAL_Driver/Src\stm32l4xx_hal_uart.c ****     __HAL_LOCK(huart);
 1351              		.loc 1 823 5
 1352 0036 FB68     		ldr	r3, [r7, #12]
 1353 0038 93F87030 		ldrb	r3, [r3, #112]	@ zero_extendqisi2
 1354 003c 012B     		cmp	r3, #1
 1355 003e 01D1     		bne	.L71
 1356              		.loc 1 823 5 is_stmt 0 discriminator 1
 1357 0040 0223     		movs	r3, #2
 1358 0042 2FE0     		b	.L70
ARM GAS  C:\Users\ADMINI~1\AppData\Local\Temp\ccHDbRvY.s 			page 39


 1359              	.L71:
 1360              		.loc 1 823 5 discriminator 2
 1361 0044 FB68     		ldr	r3, [r7, #12]
 1362 0046 0122     		movs	r2, #1
 1363 0048 83F87020 		strb	r2, [r3, #112]
 824:d:/LiteOS_Lab/drivers/third_party/ST/STM32L4xx_HAL_Driver/Src\stm32l4xx_hal_uart.c **** 
 825:d:/LiteOS_Lab/drivers/third_party/ST/STM32L4xx_HAL_Driver/Src\stm32l4xx_hal_uart.c ****     huart->pTxBuffPtr = pData;
 1364              		.loc 1 825 23 is_stmt 1 discriminator 2
 1365 004c FB68     		ldr	r3, [r7, #12]
 1366 004e BA68     		ldr	r2, [r7, #8]
 1367 0050 DA64     		str	r2, [r3, #76]
 826:d:/LiteOS_Lab/drivers/third_party/ST/STM32L4xx_HAL_Driver/Src\stm32l4xx_hal_uart.c ****     huart->TxXferSize = Size;
 1368              		.loc 1 826 23 discriminator 2
 1369 0052 FB68     		ldr	r3, [r7, #12]
 1370 0054 FA88     		ldrh	r2, [r7, #6]	@ movhi
 1371 0056 A3F85020 		strh	r2, [r3, #80]	@ movhi
 827:d:/LiteOS_Lab/drivers/third_party/ST/STM32L4xx_HAL_Driver/Src\stm32l4xx_hal_uart.c ****     huart->TxXferCount = Size;
 1372              		.loc 1 827 24 discriminator 2
 1373 005a FB68     		ldr	r3, [r7, #12]
 1374 005c FA88     		ldrh	r2, [r7, #6]	@ movhi
 1375 005e A3F85220 		strh	r2, [r3, #82]	@ movhi
 828:d:/LiteOS_Lab/drivers/third_party/ST/STM32L4xx_HAL_Driver/Src\stm32l4xx_hal_uart.c **** 
 829:d:/LiteOS_Lab/drivers/third_party/ST/STM32L4xx_HAL_Driver/Src\stm32l4xx_hal_uart.c ****     huart->ErrorCode = HAL_UART_ERROR_NONE;
 1376              		.loc 1 829 22 discriminator 2
 1377 0062 FB68     		ldr	r3, [r7, #12]
 1378 0064 0022     		movs	r2, #0
 1379 0066 5A67     		str	r2, [r3, #116]
 830:d:/LiteOS_Lab/drivers/third_party/ST/STM32L4xx_HAL_Driver/Src\stm32l4xx_hal_uart.c ****     if (huart->gState == HAL_UART_STATE_BUSY_RX)
 1380              		.loc 1 830 14 discriminator 2
 1381 0068 FB68     		ldr	r3, [r7, #12]
 1382 006a 93F87130 		ldrb	r3, [r3, #113]
 1383 006e DBB2     		uxtb	r3, r3
 1384              		.loc 1 830 8 discriminator 2
 1385 0070 222B     		cmp	r3, #34
 1386 0072 04D1     		bne	.L72
 831:d:/LiteOS_Lab/drivers/third_party/ST/STM32L4xx_HAL_Driver/Src\stm32l4xx_hal_uart.c ****     {
 832:d:/LiteOS_Lab/drivers/third_party/ST/STM32L4xx_HAL_Driver/Src\stm32l4xx_hal_uart.c ****         huart->gState = HAL_UART_STATE_BUSY_TX_RX;
 1387              		.loc 1 832 23
 1388 0074 FB68     		ldr	r3, [r7, #12]
 1389 0076 2322     		movs	r2, #35
 1390 0078 83F87120 		strb	r2, [r3, #113]
 1391 007c 03E0     		b	.L73
 1392              	.L72:
 833:d:/LiteOS_Lab/drivers/third_party/ST/STM32L4xx_HAL_Driver/Src\stm32l4xx_hal_uart.c ****     }
 834:d:/LiteOS_Lab/drivers/third_party/ST/STM32L4xx_HAL_Driver/Src\stm32l4xx_hal_uart.c ****     else
 835:d:/LiteOS_Lab/drivers/third_party/ST/STM32L4xx_HAL_Driver/Src\stm32l4xx_hal_uart.c ****     {
 836:d:/LiteOS_Lab/drivers/third_party/ST/STM32L4xx_HAL_Driver/Src\stm32l4xx_hal_uart.c ****         huart->gState = HAL_UART_STATE_BUSY_TX;
 1393              		.loc 1 836 23
 1394 007e FB68     		ldr	r3, [r7, #12]
 1395 0080 2122     		movs	r2, #33
 1396 0082 83F87120 		strb	r2, [r3, #113]
 1397              	.L73:
 837:d:/LiteOS_Lab/drivers/third_party/ST/STM32L4xx_HAL_Driver/Src\stm32l4xx_hal_uart.c ****     }
 838:d:/LiteOS_Lab/drivers/third_party/ST/STM32L4xx_HAL_Driver/Src\stm32l4xx_hal_uart.c **** 
 839:d:/LiteOS_Lab/drivers/third_party/ST/STM32L4xx_HAL_Driver/Src\stm32l4xx_hal_uart.c ****     /* Process Unlocked */
 840:d:/LiteOS_Lab/drivers/third_party/ST/STM32L4xx_HAL_Driver/Src\stm32l4xx_hal_uart.c ****     __HAL_UNLOCK(huart);
 1398              		.loc 1 840 5
ARM GAS  C:\Users\ADMINI~1\AppData\Local\Temp\ccHDbRvY.s 			page 40


 1399 0086 FB68     		ldr	r3, [r7, #12]
 1400 0088 0022     		movs	r2, #0
 1401 008a 83F87020 		strb	r2, [r3, #112]
 841:d:/LiteOS_Lab/drivers/third_party/ST/STM32L4xx_HAL_Driver/Src\stm32l4xx_hal_uart.c **** 
 842:d:/LiteOS_Lab/drivers/third_party/ST/STM32L4xx_HAL_Driver/Src\stm32l4xx_hal_uart.c ****     /* Enable the UART Transmit Data Register Empty Interrupt */
 843:d:/LiteOS_Lab/drivers/third_party/ST/STM32L4xx_HAL_Driver/Src\stm32l4xx_hal_uart.c ****     SET_BIT(huart->Instance->CR1, USART_CR1_TXEIE);
 1402              		.loc 1 843 5
 1403 008e FB68     		ldr	r3, [r7, #12]
 1404 0090 1B68     		ldr	r3, [r3]
 1405 0092 1A68     		ldr	r2, [r3]
 1406 0094 FB68     		ldr	r3, [r7, #12]
 1407 0096 1B68     		ldr	r3, [r3]
 1408 0098 42F08002 		orr	r2, r2, #128
 1409 009c 1A60     		str	r2, [r3]
 844:d:/LiteOS_Lab/drivers/third_party/ST/STM32L4xx_HAL_Driver/Src\stm32l4xx_hal_uart.c **** 
 845:d:/LiteOS_Lab/drivers/third_party/ST/STM32L4xx_HAL_Driver/Src\stm32l4xx_hal_uart.c ****     return HAL_OK;
 1410              		.loc 1 845 12
 1411 009e 0023     		movs	r3, #0
 1412 00a0 00E0     		b	.L70
 1413              	.L67:
 846:d:/LiteOS_Lab/drivers/third_party/ST/STM32L4xx_HAL_Driver/Src\stm32l4xx_hal_uart.c ****   }
 847:d:/LiteOS_Lab/drivers/third_party/ST/STM32L4xx_HAL_Driver/Src\stm32l4xx_hal_uart.c ****   else
 848:d:/LiteOS_Lab/drivers/third_party/ST/STM32L4xx_HAL_Driver/Src\stm32l4xx_hal_uart.c ****   {
 849:d:/LiteOS_Lab/drivers/third_party/ST/STM32L4xx_HAL_Driver/Src\stm32l4xx_hal_uart.c ****     return HAL_BUSY;
 1414              		.loc 1 849 12
 1415 00a2 0223     		movs	r3, #2
 1416              	.L70:
 850:d:/LiteOS_Lab/drivers/third_party/ST/STM32L4xx_HAL_Driver/Src\stm32l4xx_hal_uart.c ****   }
 851:d:/LiteOS_Lab/drivers/third_party/ST/STM32L4xx_HAL_Driver/Src\stm32l4xx_hal_uart.c **** }
 1417              		.loc 1 851 1
 1418 00a4 1846     		mov	r0, r3
 1419 00a6 1437     		adds	r7, r7, #20
 1420              	.LCFI50:
 1421              		.cfi_def_cfa_offset 4
 1422 00a8 BD46     		mov	sp, r7
 1423              	.LCFI51:
 1424              		.cfi_def_cfa_register 13
 1425              		@ sp needed
 1426 00aa 5DF8047B 		ldr	r7, [sp], #4
 1427              	.LCFI52:
 1428              		.cfi_restore 7
 1429              		.cfi_def_cfa_offset 0
 1430 00ae 7047     		bx	lr
 1431              		.cfi_endproc
 1432              	.LFE296:
 1434              		.section	.text.HAL_UART_Receive_IT,"ax",%progbits
 1435              		.align	1
 1436              		.global	HAL_UART_Receive_IT
 1437              		.syntax unified
 1438              		.thumb
 1439              		.thumb_func
 1440              		.fpu fpv4-sp-d16
 1442              	HAL_UART_Receive_IT:
 1443              	.LFB297:
 852:d:/LiteOS_Lab/drivers/third_party/ST/STM32L4xx_HAL_Driver/Src\stm32l4xx_hal_uart.c **** 
 853:d:/LiteOS_Lab/drivers/third_party/ST/STM32L4xx_HAL_Driver/Src\stm32l4xx_hal_uart.c **** /**
 854:d:/LiteOS_Lab/drivers/third_party/ST/STM32L4xx_HAL_Driver/Src\stm32l4xx_hal_uart.c ****   * @brief Receive an amount of data in interrupt mode.
ARM GAS  C:\Users\ADMINI~1\AppData\Local\Temp\ccHDbRvY.s 			page 41


 855:d:/LiteOS_Lab/drivers/third_party/ST/STM32L4xx_HAL_Driver/Src\stm32l4xx_hal_uart.c ****   * @param huart: UART handle.
 856:d:/LiteOS_Lab/drivers/third_party/ST/STM32L4xx_HAL_Driver/Src\stm32l4xx_hal_uart.c ****   * @param pData: pointer to data buffer.
 857:d:/LiteOS_Lab/drivers/third_party/ST/STM32L4xx_HAL_Driver/Src\stm32l4xx_hal_uart.c ****   * @param Size: amount of data to be received.
 858:d:/LiteOS_Lab/drivers/third_party/ST/STM32L4xx_HAL_Driver/Src\stm32l4xx_hal_uart.c ****   * @retval HAL status
 859:d:/LiteOS_Lab/drivers/third_party/ST/STM32L4xx_HAL_Driver/Src\stm32l4xx_hal_uart.c ****   */
 860:d:/LiteOS_Lab/drivers/third_party/ST/STM32L4xx_HAL_Driver/Src\stm32l4xx_hal_uart.c **** HAL_StatusTypeDef HAL_UART_Receive_IT(UART_HandleTypeDef *huart, uint8_t *pData, uint16_t Size)
 861:d:/LiteOS_Lab/drivers/third_party/ST/STM32L4xx_HAL_Driver/Src\stm32l4xx_hal_uart.c **** {
 1444              		.loc 1 861 1
 1445              		.cfi_startproc
 1446              		@ args = 0, pretend = 0, frame = 16
 1447              		@ frame_needed = 1, uses_anonymous_args = 0
 1448              		@ link register save eliminated.
 1449 0000 80B4     		push	{r7}
 1450              	.LCFI53:
 1451              		.cfi_def_cfa_offset 4
 1452              		.cfi_offset 7, -4
 1453 0002 85B0     		sub	sp, sp, #20
 1454              	.LCFI54:
 1455              		.cfi_def_cfa_offset 24
 1456 0004 00AF     		add	r7, sp, #0
 1457              	.LCFI55:
 1458              		.cfi_def_cfa_register 7
 1459 0006 F860     		str	r0, [r7, #12]
 1460 0008 B960     		str	r1, [r7, #8]
 1461 000a 1346     		mov	r3, r2
 1462 000c FB80     		strh	r3, [r7, #6]	@ movhi
 862:d:/LiteOS_Lab/drivers/third_party/ST/STM32L4xx_HAL_Driver/Src\stm32l4xx_hal_uart.c ****   /* Check that a Rx process is not already ongoing */
 863:d:/LiteOS_Lab/drivers/third_party/ST/STM32L4xx_HAL_Driver/Src\stm32l4xx_hal_uart.c ****   if(huart->RxState == HAL_UART_STATE_READY)
 1463              		.loc 1 863 11
 1464 000e FB68     		ldr	r3, [r7, #12]
 1465 0010 93F87230 		ldrb	r3, [r3, #114]
 1466 0014 DBB2     		uxtb	r3, r3
 1467              		.loc 1 863 5
 1468 0016 202B     		cmp	r3, #32
 1469 0018 72D1     		bne	.L75
 864:d:/LiteOS_Lab/drivers/third_party/ST/STM32L4xx_HAL_Driver/Src\stm32l4xx_hal_uart.c ****   {
 865:d:/LiteOS_Lab/drivers/third_party/ST/STM32L4xx_HAL_Driver/Src\stm32l4xx_hal_uart.c ****     if((pData == NULL ) || (Size == 0))
 1470              		.loc 1 865 7
 1471 001a BB68     		ldr	r3, [r7, #8]
 1472 001c 002B     		cmp	r3, #0
 1473 001e 02D0     		beq	.L76
 1474              		.loc 1 865 25 discriminator 1
 1475 0020 FB88     		ldrh	r3, [r7, #6]
 1476 0022 002B     		cmp	r3, #0
 1477 0024 01D1     		bne	.L77
 1478              	.L76:
 866:d:/LiteOS_Lab/drivers/third_party/ST/STM32L4xx_HAL_Driver/Src\stm32l4xx_hal_uart.c ****     {
 867:d:/LiteOS_Lab/drivers/third_party/ST/STM32L4xx_HAL_Driver/Src\stm32l4xx_hal_uart.c ****       return HAL_ERROR;
 1479              		.loc 1 867 14
 1480 0026 0123     		movs	r3, #1
 1481 0028 6BE0     		b	.L78
 1482              	.L77:
 868:d:/LiteOS_Lab/drivers/third_party/ST/STM32L4xx_HAL_Driver/Src\stm32l4xx_hal_uart.c ****     }
 869:d:/LiteOS_Lab/drivers/third_party/ST/STM32L4xx_HAL_Driver/Src\stm32l4xx_hal_uart.c **** 
 870:d:/LiteOS_Lab/drivers/third_party/ST/STM32L4xx_HAL_Driver/Src\stm32l4xx_hal_uart.c ****     /* Process Locked */
 871:d:/LiteOS_Lab/drivers/third_party/ST/STM32L4xx_HAL_Driver/Src\stm32l4xx_hal_uart.c ****     __HAL_LOCK(huart);
 1483              		.loc 1 871 5
ARM GAS  C:\Users\ADMINI~1\AppData\Local\Temp\ccHDbRvY.s 			page 42


 1484 002a FB68     		ldr	r3, [r7, #12]
 1485 002c 93F87030 		ldrb	r3, [r3, #112]	@ zero_extendqisi2
 1486 0030 012B     		cmp	r3, #1
 1487 0032 01D1     		bne	.L79
 1488              		.loc 1 871 5 is_stmt 0 discriminator 1
 1489 0034 0223     		movs	r3, #2
 1490 0036 64E0     		b	.L78
 1491              	.L79:
 1492              		.loc 1 871 5 discriminator 2
 1493 0038 FB68     		ldr	r3, [r7, #12]
 1494 003a 0122     		movs	r2, #1
 1495 003c 83F87020 		strb	r2, [r3, #112]
 872:d:/LiteOS_Lab/drivers/third_party/ST/STM32L4xx_HAL_Driver/Src\stm32l4xx_hal_uart.c **** 
 873:d:/LiteOS_Lab/drivers/third_party/ST/STM32L4xx_HAL_Driver/Src\stm32l4xx_hal_uart.c ****     huart->pRxBuffPtr = pData;
 1496              		.loc 1 873 23 is_stmt 1 discriminator 2
 1497 0040 FB68     		ldr	r3, [r7, #12]
 1498 0042 BA68     		ldr	r2, [r7, #8]
 1499 0044 5A65     		str	r2, [r3, #84]
 874:d:/LiteOS_Lab/drivers/third_party/ST/STM32L4xx_HAL_Driver/Src\stm32l4xx_hal_uart.c ****     huart->RxXferSize = Size;
 1500              		.loc 1 874 23 discriminator 2
 1501 0046 FB68     		ldr	r3, [r7, #12]
 1502 0048 FA88     		ldrh	r2, [r7, #6]	@ movhi
 1503 004a A3F85820 		strh	r2, [r3, #88]	@ movhi
 875:d:/LiteOS_Lab/drivers/third_party/ST/STM32L4xx_HAL_Driver/Src\stm32l4xx_hal_uart.c ****     huart->RxXferCount = Size;
 1504              		.loc 1 875 24 discriminator 2
 1505 004e FB68     		ldr	r3, [r7, #12]
 1506 0050 FA88     		ldrh	r2, [r7, #6]	@ movhi
 1507 0052 A3F85A20 		strh	r2, [r3, #90]	@ movhi
 876:d:/LiteOS_Lab/drivers/third_party/ST/STM32L4xx_HAL_Driver/Src\stm32l4xx_hal_uart.c **** 
 877:d:/LiteOS_Lab/drivers/third_party/ST/STM32L4xx_HAL_Driver/Src\stm32l4xx_hal_uart.c ****     /* Computation of UART mask to apply to RDR register */
 878:d:/LiteOS_Lab/drivers/third_party/ST/STM32L4xx_HAL_Driver/Src\stm32l4xx_hal_uart.c ****     UART_MASK_COMPUTATION(huart);
 1508              		.loc 1 878 5 discriminator 2
 1509 0056 FB68     		ldr	r3, [r7, #12]
 1510 0058 9B68     		ldr	r3, [r3, #8]
 1511 005a B3F5805F 		cmp	r3, #4096
 1512 005e 0ED1     		bne	.L80
 1513              		.loc 1 878 5 is_stmt 0 discriminator 1
 1514 0060 FB68     		ldr	r3, [r7, #12]
 1515 0062 1B69     		ldr	r3, [r3, #16]
 1516 0064 002B     		cmp	r3, #0
 1517 0066 05D1     		bne	.L81
 1518              		.loc 1 878 5 discriminator 3
 1519 0068 FB68     		ldr	r3, [r7, #12]
 1520 006a 40F2FF12 		movw	r2, #511
 1521 006e A3F85C20 		strh	r2, [r3, #92]	@ movhi
 1522 0072 28E0     		b	.L82
 1523              	.L81:
 1524              		.loc 1 878 5 discriminator 4
 1525 0074 FB68     		ldr	r3, [r7, #12]
 1526 0076 FF22     		movs	r2, #255
 1527 0078 A3F85C20 		strh	r2, [r3, #92]	@ movhi
 1528 007c 23E0     		b	.L82
 1529              	.L80:
 1530              		.loc 1 878 5 discriminator 2
 1531 007e FB68     		ldr	r3, [r7, #12]
 1532 0080 9B68     		ldr	r3, [r3, #8]
 1533 0082 002B     		cmp	r3, #0
ARM GAS  C:\Users\ADMINI~1\AppData\Local\Temp\ccHDbRvY.s 			page 43


 1534 0084 0DD1     		bne	.L83
 1535              		.loc 1 878 5 discriminator 5
 1536 0086 FB68     		ldr	r3, [r7, #12]
 1537 0088 1B69     		ldr	r3, [r3, #16]
 1538 008a 002B     		cmp	r3, #0
 1539 008c 04D1     		bne	.L84
 1540              		.loc 1 878 5 discriminator 7
 1541 008e FB68     		ldr	r3, [r7, #12]
 1542 0090 FF22     		movs	r2, #255
 1543 0092 A3F85C20 		strh	r2, [r3, #92]	@ movhi
 1544 0096 16E0     		b	.L82
 1545              	.L84:
 1546              		.loc 1 878 5 discriminator 8
 1547 0098 FB68     		ldr	r3, [r7, #12]
 1548 009a 7F22     		movs	r2, #127
 1549 009c A3F85C20 		strh	r2, [r3, #92]	@ movhi
 1550 00a0 11E0     		b	.L82
 1551              	.L83:
 1552              		.loc 1 878 5 discriminator 6
 1553 00a2 FB68     		ldr	r3, [r7, #12]
 1554 00a4 9B68     		ldr	r3, [r3, #8]
 1555 00a6 B3F1805F 		cmp	r3, #268435456
 1556 00aa 0CD1     		bne	.L82
 1557              		.loc 1 878 5 discriminator 9
 1558 00ac FB68     		ldr	r3, [r7, #12]
 1559 00ae 1B69     		ldr	r3, [r3, #16]
 1560 00b0 002B     		cmp	r3, #0
 1561 00b2 04D1     		bne	.L85
 1562              		.loc 1 878 5 discriminator 10
 1563 00b4 FB68     		ldr	r3, [r7, #12]
 1564 00b6 7F22     		movs	r2, #127
 1565 00b8 A3F85C20 		strh	r2, [r3, #92]	@ movhi
 1566 00bc 03E0     		b	.L82
 1567              	.L85:
 1568              		.loc 1 878 5 discriminator 11
 1569 00be FB68     		ldr	r3, [r7, #12]
 1570 00c0 3F22     		movs	r2, #63
 1571 00c2 A3F85C20 		strh	r2, [r3, #92]	@ movhi
 1572              	.L82:
 879:d:/LiteOS_Lab/drivers/third_party/ST/STM32L4xx_HAL_Driver/Src\stm32l4xx_hal_uart.c **** 
 880:d:/LiteOS_Lab/drivers/third_party/ST/STM32L4xx_HAL_Driver/Src\stm32l4xx_hal_uart.c ****     huart->ErrorCode = HAL_UART_ERROR_NONE;
 1573              		.loc 1 880 22 is_stmt 1
 1574 00c6 FB68     		ldr	r3, [r7, #12]
 1575 00c8 0022     		movs	r2, #0
 1576 00ca 5A67     		str	r2, [r3, #116]
 881:d:/LiteOS_Lab/drivers/third_party/ST/STM32L4xx_HAL_Driver/Src\stm32l4xx_hal_uart.c ****     huart->RxState = HAL_UART_STATE_BUSY_RX;
 1577              		.loc 1 881 20
 1578 00cc FB68     		ldr	r3, [r7, #12]
 1579 00ce 2222     		movs	r2, #34
 1580 00d0 83F87220 		strb	r2, [r3, #114]
 882:d:/LiteOS_Lab/drivers/third_party/ST/STM32L4xx_HAL_Driver/Src\stm32l4xx_hal_uart.c **** 
 883:d:/LiteOS_Lab/drivers/third_party/ST/STM32L4xx_HAL_Driver/Src\stm32l4xx_hal_uart.c ****     /* Process Unlocked */
 884:d:/LiteOS_Lab/drivers/third_party/ST/STM32L4xx_HAL_Driver/Src\stm32l4xx_hal_uart.c ****     __HAL_UNLOCK(huart);
 1581              		.loc 1 884 5
 1582 00d4 FB68     		ldr	r3, [r7, #12]
 1583 00d6 0022     		movs	r2, #0
 1584 00d8 83F87020 		strb	r2, [r3, #112]
ARM GAS  C:\Users\ADMINI~1\AppData\Local\Temp\ccHDbRvY.s 			page 44


 885:d:/LiteOS_Lab/drivers/third_party/ST/STM32L4xx_HAL_Driver/Src\stm32l4xx_hal_uart.c **** 
 886:d:/LiteOS_Lab/drivers/third_party/ST/STM32L4xx_HAL_Driver/Src\stm32l4xx_hal_uart.c ****     /* Enable the UART Error Interrupt: (Frame error, noise error, overrun error) */
 887:d:/LiteOS_Lab/drivers/third_party/ST/STM32L4xx_HAL_Driver/Src\stm32l4xx_hal_uart.c ****     SET_BIT(huart->Instance->CR3, USART_CR3_EIE);
 1585              		.loc 1 887 5
 1586 00dc FB68     		ldr	r3, [r7, #12]
 1587 00de 1B68     		ldr	r3, [r3]
 1588 00e0 9A68     		ldr	r2, [r3, #8]
 1589 00e2 FB68     		ldr	r3, [r7, #12]
 1590 00e4 1B68     		ldr	r3, [r3]
 1591 00e6 42F00102 		orr	r2, r2, #1
 1592 00ea 9A60     		str	r2, [r3, #8]
 888:d:/LiteOS_Lab/drivers/third_party/ST/STM32L4xx_HAL_Driver/Src\stm32l4xx_hal_uart.c **** 
 889:d:/LiteOS_Lab/drivers/third_party/ST/STM32L4xx_HAL_Driver/Src\stm32l4xx_hal_uart.c ****     /* Enable the UART Parity Error and Data Register not empty Interrupts */
 890:d:/LiteOS_Lab/drivers/third_party/ST/STM32L4xx_HAL_Driver/Src\stm32l4xx_hal_uart.c ****     SET_BIT(huart->Instance->CR1, USART_CR1_PEIE | USART_CR1_RXNEIE);
 1593              		.loc 1 890 5
 1594 00ec FB68     		ldr	r3, [r7, #12]
 1595 00ee 1B68     		ldr	r3, [r3]
 1596 00f0 1A68     		ldr	r2, [r3]
 1597 00f2 FB68     		ldr	r3, [r7, #12]
 1598 00f4 1B68     		ldr	r3, [r3]
 1599 00f6 42F49072 		orr	r2, r2, #288
 1600 00fa 1A60     		str	r2, [r3]
 891:d:/LiteOS_Lab/drivers/third_party/ST/STM32L4xx_HAL_Driver/Src\stm32l4xx_hal_uart.c **** 
 892:d:/LiteOS_Lab/drivers/third_party/ST/STM32L4xx_HAL_Driver/Src\stm32l4xx_hal_uart.c ****     return HAL_OK;
 1601              		.loc 1 892 12
 1602 00fc 0023     		movs	r3, #0
 1603 00fe 00E0     		b	.L78
 1604              	.L75:
 893:d:/LiteOS_Lab/drivers/third_party/ST/STM32L4xx_HAL_Driver/Src\stm32l4xx_hal_uart.c ****   }
 894:d:/LiteOS_Lab/drivers/third_party/ST/STM32L4xx_HAL_Driver/Src\stm32l4xx_hal_uart.c ****   else
 895:d:/LiteOS_Lab/drivers/third_party/ST/STM32L4xx_HAL_Driver/Src\stm32l4xx_hal_uart.c ****   {
 896:d:/LiteOS_Lab/drivers/third_party/ST/STM32L4xx_HAL_Driver/Src\stm32l4xx_hal_uart.c ****     return HAL_BUSY;
 1605              		.loc 1 896 12
 1606 0100 0223     		movs	r3, #2
 1607              	.L78:
 897:d:/LiteOS_Lab/drivers/third_party/ST/STM32L4xx_HAL_Driver/Src\stm32l4xx_hal_uart.c ****   }
 898:d:/LiteOS_Lab/drivers/third_party/ST/STM32L4xx_HAL_Driver/Src\stm32l4xx_hal_uart.c **** }
 1608              		.loc 1 898 1
 1609 0102 1846     		mov	r0, r3
 1610 0104 1437     		adds	r7, r7, #20
 1611              	.LCFI56:
 1612              		.cfi_def_cfa_offset 4
 1613 0106 BD46     		mov	sp, r7
 1614              	.LCFI57:
 1615              		.cfi_def_cfa_register 13
 1616              		@ sp needed
 1617 0108 5DF8047B 		ldr	r7, [sp], #4
 1618              	.LCFI58:
 1619              		.cfi_restore 7
 1620              		.cfi_def_cfa_offset 0
 1621 010c 7047     		bx	lr
 1622              		.cfi_endproc
 1623              	.LFE297:
 1625              		.section	.text.HAL_UART_Transmit_DMA,"ax",%progbits
 1626              		.align	1
 1627              		.global	HAL_UART_Transmit_DMA
 1628              		.syntax unified
ARM GAS  C:\Users\ADMINI~1\AppData\Local\Temp\ccHDbRvY.s 			page 45


 1629              		.thumb
 1630              		.thumb_func
 1631              		.fpu fpv4-sp-d16
 1633              	HAL_UART_Transmit_DMA:
 1634              	.LFB298:
 899:d:/LiteOS_Lab/drivers/third_party/ST/STM32L4xx_HAL_Driver/Src\stm32l4xx_hal_uart.c **** 
 900:d:/LiteOS_Lab/drivers/third_party/ST/STM32L4xx_HAL_Driver/Src\stm32l4xx_hal_uart.c **** /**
 901:d:/LiteOS_Lab/drivers/third_party/ST/STM32L4xx_HAL_Driver/Src\stm32l4xx_hal_uart.c ****   * @brief Send an amount of data in DMA mode.
 902:d:/LiteOS_Lab/drivers/third_party/ST/STM32L4xx_HAL_Driver/Src\stm32l4xx_hal_uart.c ****   * @param huart: UART handle.
 903:d:/LiteOS_Lab/drivers/third_party/ST/STM32L4xx_HAL_Driver/Src\stm32l4xx_hal_uart.c ****   * @param pData: pointer to data buffer.
 904:d:/LiteOS_Lab/drivers/third_party/ST/STM32L4xx_HAL_Driver/Src\stm32l4xx_hal_uart.c ****   * @param Size: amount of data to be sent.
 905:d:/LiteOS_Lab/drivers/third_party/ST/STM32L4xx_HAL_Driver/Src\stm32l4xx_hal_uart.c ****   * @retval HAL status
 906:d:/LiteOS_Lab/drivers/third_party/ST/STM32L4xx_HAL_Driver/Src\stm32l4xx_hal_uart.c ****   */
 907:d:/LiteOS_Lab/drivers/third_party/ST/STM32L4xx_HAL_Driver/Src\stm32l4xx_hal_uart.c **** HAL_StatusTypeDef HAL_UART_Transmit_DMA(UART_HandleTypeDef *huart, uint8_t *pData, uint16_t Size)
 908:d:/LiteOS_Lab/drivers/third_party/ST/STM32L4xx_HAL_Driver/Src\stm32l4xx_hal_uart.c **** {
 1635              		.loc 1 908 1
 1636              		.cfi_startproc
 1637              		@ args = 0, pretend = 0, frame = 16
 1638              		@ frame_needed = 1, uses_anonymous_args = 0
 1639 0000 80B5     		push	{r7, lr}
 1640              	.LCFI59:
 1641              		.cfi_def_cfa_offset 8
 1642              		.cfi_offset 7, -8
 1643              		.cfi_offset 14, -4
 1644 0002 84B0     		sub	sp, sp, #16
 1645              	.LCFI60:
 1646              		.cfi_def_cfa_offset 24
 1647 0004 00AF     		add	r7, sp, #0
 1648              	.LCFI61:
 1649              		.cfi_def_cfa_register 7
 1650 0006 F860     		str	r0, [r7, #12]
 1651 0008 B960     		str	r1, [r7, #8]
 1652 000a 1346     		mov	r3, r2
 1653 000c FB80     		strh	r3, [r7, #6]	@ movhi
 909:d:/LiteOS_Lab/drivers/third_party/ST/STM32L4xx_HAL_Driver/Src\stm32l4xx_hal_uart.c ****   /* Check that a Tx process is not already ongoing */
 910:d:/LiteOS_Lab/drivers/third_party/ST/STM32L4xx_HAL_Driver/Src\stm32l4xx_hal_uart.c ****   if(huart->gState == HAL_UART_STATE_READY)
 1654              		.loc 1 910 11
 1655 000e FB68     		ldr	r3, [r7, #12]
 1656 0010 93F87130 		ldrb	r3, [r3, #113]
 1657 0014 DBB2     		uxtb	r3, r3
 1658              		.loc 1 910 5
 1659 0016 202B     		cmp	r3, #32
 1660 0018 52D1     		bne	.L87
 911:d:/LiteOS_Lab/drivers/third_party/ST/STM32L4xx_HAL_Driver/Src\stm32l4xx_hal_uart.c ****   {
 912:d:/LiteOS_Lab/drivers/third_party/ST/STM32L4xx_HAL_Driver/Src\stm32l4xx_hal_uart.c ****     if((pData == NULL ) || (Size == 0))
 1661              		.loc 1 912 7
 1662 001a BB68     		ldr	r3, [r7, #8]
 1663 001c 002B     		cmp	r3, #0
 1664 001e 02D0     		beq	.L88
 1665              		.loc 1 912 25 discriminator 1
 1666 0020 FB88     		ldrh	r3, [r7, #6]
 1667 0022 002B     		cmp	r3, #0
 1668 0024 01D1     		bne	.L89
 1669              	.L88:
 913:d:/LiteOS_Lab/drivers/third_party/ST/STM32L4xx_HAL_Driver/Src\stm32l4xx_hal_uart.c ****     {
 914:d:/LiteOS_Lab/drivers/third_party/ST/STM32L4xx_HAL_Driver/Src\stm32l4xx_hal_uart.c ****       return HAL_ERROR;
 1670              		.loc 1 914 14
ARM GAS  C:\Users\ADMINI~1\AppData\Local\Temp\ccHDbRvY.s 			page 46


 1671 0026 0123     		movs	r3, #1
 1672 0028 4BE0     		b	.L90
 1673              	.L89:
 915:d:/LiteOS_Lab/drivers/third_party/ST/STM32L4xx_HAL_Driver/Src\stm32l4xx_hal_uart.c ****     }
 916:d:/LiteOS_Lab/drivers/third_party/ST/STM32L4xx_HAL_Driver/Src\stm32l4xx_hal_uart.c **** 
 917:d:/LiteOS_Lab/drivers/third_party/ST/STM32L4xx_HAL_Driver/Src\stm32l4xx_hal_uart.c ****     /* Process Locked */
 918:d:/LiteOS_Lab/drivers/third_party/ST/STM32L4xx_HAL_Driver/Src\stm32l4xx_hal_uart.c ****     __HAL_LOCK(huart);
 1674              		.loc 1 918 5
 1675 002a FB68     		ldr	r3, [r7, #12]
 1676 002c 93F87030 		ldrb	r3, [r3, #112]	@ zero_extendqisi2
 1677 0030 012B     		cmp	r3, #1
 1678 0032 01D1     		bne	.L91
 1679              		.loc 1 918 5 is_stmt 0 discriminator 1
 1680 0034 0223     		movs	r3, #2
 1681 0036 44E0     		b	.L90
 1682              	.L91:
 1683              		.loc 1 918 5 discriminator 2
 1684 0038 FB68     		ldr	r3, [r7, #12]
 1685 003a 0122     		movs	r2, #1
 1686 003c 83F87020 		strb	r2, [r3, #112]
 919:d:/LiteOS_Lab/drivers/third_party/ST/STM32L4xx_HAL_Driver/Src\stm32l4xx_hal_uart.c **** 
 920:d:/LiteOS_Lab/drivers/third_party/ST/STM32L4xx_HAL_Driver/Src\stm32l4xx_hal_uart.c ****     huart->pTxBuffPtr = pData;
 1687              		.loc 1 920 23 is_stmt 1 discriminator 2
 1688 0040 FB68     		ldr	r3, [r7, #12]
 1689 0042 BA68     		ldr	r2, [r7, #8]
 1690 0044 DA64     		str	r2, [r3, #76]
 921:d:/LiteOS_Lab/drivers/third_party/ST/STM32L4xx_HAL_Driver/Src\stm32l4xx_hal_uart.c ****     huart->TxXferSize = Size;
 1691              		.loc 1 921 23 discriminator 2
 1692 0046 FB68     		ldr	r3, [r7, #12]
 1693 0048 FA88     		ldrh	r2, [r7, #6]	@ movhi
 1694 004a A3F85020 		strh	r2, [r3, #80]	@ movhi
 922:d:/LiteOS_Lab/drivers/third_party/ST/STM32L4xx_HAL_Driver/Src\stm32l4xx_hal_uart.c ****     huart->TxXferCount = Size;
 1695              		.loc 1 922 24 discriminator 2
 1696 004e FB68     		ldr	r3, [r7, #12]
 1697 0050 FA88     		ldrh	r2, [r7, #6]	@ movhi
 1698 0052 A3F85220 		strh	r2, [r3, #82]	@ movhi
 923:d:/LiteOS_Lab/drivers/third_party/ST/STM32L4xx_HAL_Driver/Src\stm32l4xx_hal_uart.c **** 
 924:d:/LiteOS_Lab/drivers/third_party/ST/STM32L4xx_HAL_Driver/Src\stm32l4xx_hal_uart.c ****     huart->ErrorCode = HAL_UART_ERROR_NONE;
 1699              		.loc 1 924 22 discriminator 2
 1700 0056 FB68     		ldr	r3, [r7, #12]
 1701 0058 0022     		movs	r2, #0
 1702 005a 5A67     		str	r2, [r3, #116]
 925:d:/LiteOS_Lab/drivers/third_party/ST/STM32L4xx_HAL_Driver/Src\stm32l4xx_hal_uart.c ****     huart->gState = HAL_UART_STATE_BUSY_TX;
 1703              		.loc 1 925 19 discriminator 2
 1704 005c FB68     		ldr	r3, [r7, #12]
 1705 005e 2122     		movs	r2, #33
 1706 0060 83F87120 		strb	r2, [r3, #113]
 926:d:/LiteOS_Lab/drivers/third_party/ST/STM32L4xx_HAL_Driver/Src\stm32l4xx_hal_uart.c **** 
 927:d:/LiteOS_Lab/drivers/third_party/ST/STM32L4xx_HAL_Driver/Src\stm32l4xx_hal_uart.c ****     /* Set the UART DMA transfer complete callback */
 928:d:/LiteOS_Lab/drivers/third_party/ST/STM32L4xx_HAL_Driver/Src\stm32l4xx_hal_uart.c ****     huart->hdmatx->XferCpltCallback = UART_DMATransmitCplt;
 1707              		.loc 1 928 10 discriminator 2
 1708 0064 FB68     		ldr	r3, [r7, #12]
 1709 0066 9B6E     		ldr	r3, [r3, #104]
 1710              		.loc 1 928 37 discriminator 2
 1711 0068 184A     		ldr	r2, .L92
 1712 006a DA62     		str	r2, [r3, #44]
 929:d:/LiteOS_Lab/drivers/third_party/ST/STM32L4xx_HAL_Driver/Src\stm32l4xx_hal_uart.c **** 
ARM GAS  C:\Users\ADMINI~1\AppData\Local\Temp\ccHDbRvY.s 			page 47


 930:d:/LiteOS_Lab/drivers/third_party/ST/STM32L4xx_HAL_Driver/Src\stm32l4xx_hal_uart.c ****     /* Set the UART DMA Half transfer complete callback */
 931:d:/LiteOS_Lab/drivers/third_party/ST/STM32L4xx_HAL_Driver/Src\stm32l4xx_hal_uart.c ****     huart->hdmatx->XferHalfCpltCallback = UART_DMATxHalfCplt;
 1713              		.loc 1 931 10 discriminator 2
 1714 006c FB68     		ldr	r3, [r7, #12]
 1715 006e 9B6E     		ldr	r3, [r3, #104]
 1716              		.loc 1 931 41 discriminator 2
 1717 0070 174A     		ldr	r2, .L92+4
 1718 0072 1A63     		str	r2, [r3, #48]
 932:d:/LiteOS_Lab/drivers/third_party/ST/STM32L4xx_HAL_Driver/Src\stm32l4xx_hal_uart.c **** 
 933:d:/LiteOS_Lab/drivers/third_party/ST/STM32L4xx_HAL_Driver/Src\stm32l4xx_hal_uart.c ****     /* Set the DMA error callback */
 934:d:/LiteOS_Lab/drivers/third_party/ST/STM32L4xx_HAL_Driver/Src\stm32l4xx_hal_uart.c ****     huart->hdmatx->XferErrorCallback = UART_DMAError;
 1719              		.loc 1 934 10 discriminator 2
 1720 0074 FB68     		ldr	r3, [r7, #12]
 1721 0076 9B6E     		ldr	r3, [r3, #104]
 1722              		.loc 1 934 38 discriminator 2
 1723 0078 164A     		ldr	r2, .L92+8
 1724 007a 5A63     		str	r2, [r3, #52]
 935:d:/LiteOS_Lab/drivers/third_party/ST/STM32L4xx_HAL_Driver/Src\stm32l4xx_hal_uart.c **** 
 936:d:/LiteOS_Lab/drivers/third_party/ST/STM32L4xx_HAL_Driver/Src\stm32l4xx_hal_uart.c ****     /* Set the DMA abort callback */
 937:d:/LiteOS_Lab/drivers/third_party/ST/STM32L4xx_HAL_Driver/Src\stm32l4xx_hal_uart.c ****     huart->hdmatx->XferAbortCallback = NULL;
 1725              		.loc 1 937 10 discriminator 2
 1726 007c FB68     		ldr	r3, [r7, #12]
 1727 007e 9B6E     		ldr	r3, [r3, #104]
 1728              		.loc 1 937 38 discriminator 2
 1729 0080 0022     		movs	r2, #0
 1730 0082 9A63     		str	r2, [r3, #56]
 938:d:/LiteOS_Lab/drivers/third_party/ST/STM32L4xx_HAL_Driver/Src\stm32l4xx_hal_uart.c **** 
 939:d:/LiteOS_Lab/drivers/third_party/ST/STM32L4xx_HAL_Driver/Src\stm32l4xx_hal_uart.c ****     /* Enable the UART transmit DMA channel */
 940:d:/LiteOS_Lab/drivers/third_party/ST/STM32L4xx_HAL_Driver/Src\stm32l4xx_hal_uart.c ****     HAL_DMA_Start_IT(huart->hdmatx, (uint32_t)huart->pTxBuffPtr, (uint32_t)&huart->Instance->TDR, S
 1731              		.loc 1 940 5 discriminator 2
 1732 0084 FB68     		ldr	r3, [r7, #12]
 1733 0086 986E     		ldr	r0, [r3, #104]
 1734              		.loc 1 940 52 discriminator 2
 1735 0088 FB68     		ldr	r3, [r7, #12]
 1736 008a DB6C     		ldr	r3, [r3, #76]
 1737              		.loc 1 940 5 discriminator 2
 1738 008c 1946     		mov	r1, r3
 1739              		.loc 1 940 82 discriminator 2
 1740 008e FB68     		ldr	r3, [r7, #12]
 1741 0090 1B68     		ldr	r3, [r3]
 1742              		.loc 1 940 76 discriminator 2
 1743 0092 2833     		adds	r3, r3, #40
 1744              		.loc 1 940 5 discriminator 2
 1745 0094 1A46     		mov	r2, r3
 1746 0096 FB88     		ldrh	r3, [r7, #6]
 1747 0098 FFF7FEFF 		bl	HAL_DMA_Start_IT
 941:d:/LiteOS_Lab/drivers/third_party/ST/STM32L4xx_HAL_Driver/Src\stm32l4xx_hal_uart.c **** 
 942:d:/LiteOS_Lab/drivers/third_party/ST/STM32L4xx_HAL_Driver/Src\stm32l4xx_hal_uart.c ****     /* Clear the TC flag in the ICR register */
 943:d:/LiteOS_Lab/drivers/third_party/ST/STM32L4xx_HAL_Driver/Src\stm32l4xx_hal_uart.c ****     __HAL_UART_CLEAR_FLAG(huart, UART_CLEAR_TCF);
 1748              		.loc 1 943 5 discriminator 2
 1749 009c FB68     		ldr	r3, [r7, #12]
 1750 009e 1B68     		ldr	r3, [r3]
 1751 00a0 4022     		movs	r2, #64
 1752 00a2 1A62     		str	r2, [r3, #32]
 944:d:/LiteOS_Lab/drivers/third_party/ST/STM32L4xx_HAL_Driver/Src\stm32l4xx_hal_uart.c **** 
 945:d:/LiteOS_Lab/drivers/third_party/ST/STM32L4xx_HAL_Driver/Src\stm32l4xx_hal_uart.c ****     /* Process Unlocked */
 946:d:/LiteOS_Lab/drivers/third_party/ST/STM32L4xx_HAL_Driver/Src\stm32l4xx_hal_uart.c ****     __HAL_UNLOCK(huart);
ARM GAS  C:\Users\ADMINI~1\AppData\Local\Temp\ccHDbRvY.s 			page 48


 1753              		.loc 1 946 5 discriminator 2
 1754 00a4 FB68     		ldr	r3, [r7, #12]
 1755 00a6 0022     		movs	r2, #0
 1756 00a8 83F87020 		strb	r2, [r3, #112]
 947:d:/LiteOS_Lab/drivers/third_party/ST/STM32L4xx_HAL_Driver/Src\stm32l4xx_hal_uart.c **** 
 948:d:/LiteOS_Lab/drivers/third_party/ST/STM32L4xx_HAL_Driver/Src\stm32l4xx_hal_uart.c ****     /* Enable the DMA transfer for transmit request by setting the DMAT bit
 949:d:/LiteOS_Lab/drivers/third_party/ST/STM32L4xx_HAL_Driver/Src\stm32l4xx_hal_uart.c ****        in the UART CR3 register */
 950:d:/LiteOS_Lab/drivers/third_party/ST/STM32L4xx_HAL_Driver/Src\stm32l4xx_hal_uart.c ****     SET_BIT(huart->Instance->CR3, USART_CR3_DMAT);
 1757              		.loc 1 950 5 discriminator 2
 1758 00ac FB68     		ldr	r3, [r7, #12]
 1759 00ae 1B68     		ldr	r3, [r3]
 1760 00b0 9A68     		ldr	r2, [r3, #8]
 1761 00b2 FB68     		ldr	r3, [r7, #12]
 1762 00b4 1B68     		ldr	r3, [r3]
 1763 00b6 42F08002 		orr	r2, r2, #128
 1764 00ba 9A60     		str	r2, [r3, #8]
 951:d:/LiteOS_Lab/drivers/third_party/ST/STM32L4xx_HAL_Driver/Src\stm32l4xx_hal_uart.c **** 
 952:d:/LiteOS_Lab/drivers/third_party/ST/STM32L4xx_HAL_Driver/Src\stm32l4xx_hal_uart.c ****     return HAL_OK;
 1765              		.loc 1 952 12 discriminator 2
 1766 00bc 0023     		movs	r3, #0
 1767 00be 00E0     		b	.L90
 1768              	.L87:
 953:d:/LiteOS_Lab/drivers/third_party/ST/STM32L4xx_HAL_Driver/Src\stm32l4xx_hal_uart.c ****   }
 954:d:/LiteOS_Lab/drivers/third_party/ST/STM32L4xx_HAL_Driver/Src\stm32l4xx_hal_uart.c ****   else
 955:d:/LiteOS_Lab/drivers/third_party/ST/STM32L4xx_HAL_Driver/Src\stm32l4xx_hal_uart.c ****   {
 956:d:/LiteOS_Lab/drivers/third_party/ST/STM32L4xx_HAL_Driver/Src\stm32l4xx_hal_uart.c ****     return HAL_BUSY;
 1769              		.loc 1 956 12
 1770 00c0 0223     		movs	r3, #2
 1771              	.L90:
 957:d:/LiteOS_Lab/drivers/third_party/ST/STM32L4xx_HAL_Driver/Src\stm32l4xx_hal_uart.c ****   }
 958:d:/LiteOS_Lab/drivers/third_party/ST/STM32L4xx_HAL_Driver/Src\stm32l4xx_hal_uart.c **** }
 1772              		.loc 1 958 1
 1773 00c2 1846     		mov	r0, r3
 1774 00c4 1037     		adds	r7, r7, #16
 1775              	.LCFI62:
 1776              		.cfi_def_cfa_offset 8
 1777 00c6 BD46     		mov	sp, r7
 1778              	.LCFI63:
 1779              		.cfi_def_cfa_register 13
 1780              		@ sp needed
 1781 00c8 80BD     		pop	{r7, pc}
 1782              	.L93:
 1783 00ca 00BF     		.align	2
 1784              	.L92:
 1785 00cc 00000000 		.word	UART_DMATransmitCplt
 1786 00d0 00000000 		.word	UART_DMATxHalfCplt
 1787 00d4 00000000 		.word	UART_DMAError
 1788              		.cfi_endproc
 1789              	.LFE298:
 1791              		.section	.text.HAL_UART_Receive_DMA,"ax",%progbits
 1792              		.align	1
 1793              		.global	HAL_UART_Receive_DMA
 1794              		.syntax unified
 1795              		.thumb
 1796              		.thumb_func
 1797              		.fpu fpv4-sp-d16
 1799              	HAL_UART_Receive_DMA:
ARM GAS  C:\Users\ADMINI~1\AppData\Local\Temp\ccHDbRvY.s 			page 49


 1800              	.LFB299:
 959:d:/LiteOS_Lab/drivers/third_party/ST/STM32L4xx_HAL_Driver/Src\stm32l4xx_hal_uart.c **** 
 960:d:/LiteOS_Lab/drivers/third_party/ST/STM32L4xx_HAL_Driver/Src\stm32l4xx_hal_uart.c **** /**
 961:d:/LiteOS_Lab/drivers/third_party/ST/STM32L4xx_HAL_Driver/Src\stm32l4xx_hal_uart.c ****   * @brief Receive an amount of data in DMA mode.
 962:d:/LiteOS_Lab/drivers/third_party/ST/STM32L4xx_HAL_Driver/Src\stm32l4xx_hal_uart.c ****   * @param huart: UART handle.
 963:d:/LiteOS_Lab/drivers/third_party/ST/STM32L4xx_HAL_Driver/Src\stm32l4xx_hal_uart.c ****   * @param pData: pointer to data buffer.
 964:d:/LiteOS_Lab/drivers/third_party/ST/STM32L4xx_HAL_Driver/Src\stm32l4xx_hal_uart.c ****   * @param Size: amount of data to be received.
 965:d:/LiteOS_Lab/drivers/third_party/ST/STM32L4xx_HAL_Driver/Src\stm32l4xx_hal_uart.c ****   * @note   When the UART parity is enabled (PCE = 1), the received data contain
 966:d:/LiteOS_Lab/drivers/third_party/ST/STM32L4xx_HAL_Driver/Src\stm32l4xx_hal_uart.c ****   *         the parity bit (MSB position).
 967:d:/LiteOS_Lab/drivers/third_party/ST/STM32L4xx_HAL_Driver/Src\stm32l4xx_hal_uart.c ****   * @retval HAL status
 968:d:/LiteOS_Lab/drivers/third_party/ST/STM32L4xx_HAL_Driver/Src\stm32l4xx_hal_uart.c ****   */
 969:d:/LiteOS_Lab/drivers/third_party/ST/STM32L4xx_HAL_Driver/Src\stm32l4xx_hal_uart.c **** HAL_StatusTypeDef HAL_UART_Receive_DMA(UART_HandleTypeDef *huart, uint8_t *pData, uint16_t Size)
 970:d:/LiteOS_Lab/drivers/third_party/ST/STM32L4xx_HAL_Driver/Src\stm32l4xx_hal_uart.c **** {
 1801              		.loc 1 970 1
 1802              		.cfi_startproc
 1803              		@ args = 0, pretend = 0, frame = 16
 1804              		@ frame_needed = 1, uses_anonymous_args = 0
 1805 0000 80B5     		push	{r7, lr}
 1806              	.LCFI64:
 1807              		.cfi_def_cfa_offset 8
 1808              		.cfi_offset 7, -8
 1809              		.cfi_offset 14, -4
 1810 0002 84B0     		sub	sp, sp, #16
 1811              	.LCFI65:
 1812              		.cfi_def_cfa_offset 24
 1813 0004 00AF     		add	r7, sp, #0
 1814              	.LCFI66:
 1815              		.cfi_def_cfa_register 7
 1816 0006 F860     		str	r0, [r7, #12]
 1817 0008 B960     		str	r1, [r7, #8]
 1818 000a 1346     		mov	r3, r2
 1819 000c FB80     		strh	r3, [r7, #6]	@ movhi
 971:d:/LiteOS_Lab/drivers/third_party/ST/STM32L4xx_HAL_Driver/Src\stm32l4xx_hal_uart.c ****   /* Check that a Rx process is not already ongoing */
 972:d:/LiteOS_Lab/drivers/third_party/ST/STM32L4xx_HAL_Driver/Src\stm32l4xx_hal_uart.c ****   if(huart->RxState == HAL_UART_STATE_READY)
 1820              		.loc 1 972 11
 1821 000e FB68     		ldr	r3, [r7, #12]
 1822 0010 93F87230 		ldrb	r3, [r3, #114]
 1823 0014 DBB2     		uxtb	r3, r3
 1824              		.loc 1 972 5
 1825 0016 202B     		cmp	r3, #32
 1826 0018 5AD1     		bne	.L95
 973:d:/LiteOS_Lab/drivers/third_party/ST/STM32L4xx_HAL_Driver/Src\stm32l4xx_hal_uart.c ****   {
 974:d:/LiteOS_Lab/drivers/third_party/ST/STM32L4xx_HAL_Driver/Src\stm32l4xx_hal_uart.c ****     if((pData == NULL ) || (Size == 0))
 1827              		.loc 1 974 7
 1828 001a BB68     		ldr	r3, [r7, #8]
 1829 001c 002B     		cmp	r3, #0
 1830 001e 02D0     		beq	.L96
 1831              		.loc 1 974 25 discriminator 1
 1832 0020 FB88     		ldrh	r3, [r7, #6]
 1833 0022 002B     		cmp	r3, #0
 1834 0024 01D1     		bne	.L97
 1835              	.L96:
 975:d:/LiteOS_Lab/drivers/third_party/ST/STM32L4xx_HAL_Driver/Src\stm32l4xx_hal_uart.c ****     {
 976:d:/LiteOS_Lab/drivers/third_party/ST/STM32L4xx_HAL_Driver/Src\stm32l4xx_hal_uart.c ****       return HAL_ERROR;
 1836              		.loc 1 976 14
 1837 0026 0123     		movs	r3, #1
 1838 0028 53E0     		b	.L98
ARM GAS  C:\Users\ADMINI~1\AppData\Local\Temp\ccHDbRvY.s 			page 50


 1839              	.L97:
 977:d:/LiteOS_Lab/drivers/third_party/ST/STM32L4xx_HAL_Driver/Src\stm32l4xx_hal_uart.c ****     }
 978:d:/LiteOS_Lab/drivers/third_party/ST/STM32L4xx_HAL_Driver/Src\stm32l4xx_hal_uart.c **** 
 979:d:/LiteOS_Lab/drivers/third_party/ST/STM32L4xx_HAL_Driver/Src\stm32l4xx_hal_uart.c ****     /* Process Locked */
 980:d:/LiteOS_Lab/drivers/third_party/ST/STM32L4xx_HAL_Driver/Src\stm32l4xx_hal_uart.c ****     __HAL_LOCK(huart);
 1840              		.loc 1 980 5
 1841 002a FB68     		ldr	r3, [r7, #12]
 1842 002c 93F87030 		ldrb	r3, [r3, #112]	@ zero_extendqisi2
 1843 0030 012B     		cmp	r3, #1
 1844 0032 01D1     		bne	.L99
 1845              		.loc 1 980 5 is_stmt 0 discriminator 1
 1846 0034 0223     		movs	r3, #2
 1847 0036 4CE0     		b	.L98
 1848              	.L99:
 1849              		.loc 1 980 5 discriminator 2
 1850 0038 FB68     		ldr	r3, [r7, #12]
 1851 003a 0122     		movs	r2, #1
 1852 003c 83F87020 		strb	r2, [r3, #112]
 981:d:/LiteOS_Lab/drivers/third_party/ST/STM32L4xx_HAL_Driver/Src\stm32l4xx_hal_uart.c **** 
 982:d:/LiteOS_Lab/drivers/third_party/ST/STM32L4xx_HAL_Driver/Src\stm32l4xx_hal_uart.c ****     huart->pRxBuffPtr = pData;
 1853              		.loc 1 982 23 is_stmt 1 discriminator 2
 1854 0040 FB68     		ldr	r3, [r7, #12]
 1855 0042 BA68     		ldr	r2, [r7, #8]
 1856 0044 5A65     		str	r2, [r3, #84]
 983:d:/LiteOS_Lab/drivers/third_party/ST/STM32L4xx_HAL_Driver/Src\stm32l4xx_hal_uart.c ****     huart->RxXferSize = Size;
 1857              		.loc 1 983 23 discriminator 2
 1858 0046 FB68     		ldr	r3, [r7, #12]
 1859 0048 FA88     		ldrh	r2, [r7, #6]	@ movhi
 1860 004a A3F85820 		strh	r2, [r3, #88]	@ movhi
 984:d:/LiteOS_Lab/drivers/third_party/ST/STM32L4xx_HAL_Driver/Src\stm32l4xx_hal_uart.c **** 
 985:d:/LiteOS_Lab/drivers/third_party/ST/STM32L4xx_HAL_Driver/Src\stm32l4xx_hal_uart.c ****     huart->ErrorCode = HAL_UART_ERROR_NONE;
 1861              		.loc 1 985 22 discriminator 2
 1862 004e FB68     		ldr	r3, [r7, #12]
 1863 0050 0022     		movs	r2, #0
 1864 0052 5A67     		str	r2, [r3, #116]
 986:d:/LiteOS_Lab/drivers/third_party/ST/STM32L4xx_HAL_Driver/Src\stm32l4xx_hal_uart.c ****     huart->RxState = HAL_UART_STATE_BUSY_RX;
 1865              		.loc 1 986 20 discriminator 2
 1866 0054 FB68     		ldr	r3, [r7, #12]
 1867 0056 2222     		movs	r2, #34
 1868 0058 83F87220 		strb	r2, [r3, #114]
 987:d:/LiteOS_Lab/drivers/third_party/ST/STM32L4xx_HAL_Driver/Src\stm32l4xx_hal_uart.c **** 
 988:d:/LiteOS_Lab/drivers/third_party/ST/STM32L4xx_HAL_Driver/Src\stm32l4xx_hal_uart.c ****     /* Set the UART DMA transfer complete callback */
 989:d:/LiteOS_Lab/drivers/third_party/ST/STM32L4xx_HAL_Driver/Src\stm32l4xx_hal_uart.c ****     huart->hdmarx->XferCpltCallback = UART_DMAReceiveCplt;
 1869              		.loc 1 989 10 discriminator 2
 1870 005c FB68     		ldr	r3, [r7, #12]
 1871 005e DB6E     		ldr	r3, [r3, #108]
 1872              		.loc 1 989 37 discriminator 2
 1873 0060 1E4A     		ldr	r2, .L100
 1874 0062 DA62     		str	r2, [r3, #44]
 990:d:/LiteOS_Lab/drivers/third_party/ST/STM32L4xx_HAL_Driver/Src\stm32l4xx_hal_uart.c **** 
 991:d:/LiteOS_Lab/drivers/third_party/ST/STM32L4xx_HAL_Driver/Src\stm32l4xx_hal_uart.c ****     /* Set the UART DMA Half transfer complete callback */
 992:d:/LiteOS_Lab/drivers/third_party/ST/STM32L4xx_HAL_Driver/Src\stm32l4xx_hal_uart.c ****     huart->hdmarx->XferHalfCpltCallback = UART_DMARxHalfCplt;
 1875              		.loc 1 992 10 discriminator 2
 1876 0064 FB68     		ldr	r3, [r7, #12]
 1877 0066 DB6E     		ldr	r3, [r3, #108]
 1878              		.loc 1 992 41 discriminator 2
 1879 0068 1D4A     		ldr	r2, .L100+4
ARM GAS  C:\Users\ADMINI~1\AppData\Local\Temp\ccHDbRvY.s 			page 51


 1880 006a 1A63     		str	r2, [r3, #48]
 993:d:/LiteOS_Lab/drivers/third_party/ST/STM32L4xx_HAL_Driver/Src\stm32l4xx_hal_uart.c **** 
 994:d:/LiteOS_Lab/drivers/third_party/ST/STM32L4xx_HAL_Driver/Src\stm32l4xx_hal_uart.c ****     /* Set the DMA error callback */
 995:d:/LiteOS_Lab/drivers/third_party/ST/STM32L4xx_HAL_Driver/Src\stm32l4xx_hal_uart.c ****     huart->hdmarx->XferErrorCallback = UART_DMAError;
 1881              		.loc 1 995 10 discriminator 2
 1882 006c FB68     		ldr	r3, [r7, #12]
 1883 006e DB6E     		ldr	r3, [r3, #108]
 1884              		.loc 1 995 38 discriminator 2
 1885 0070 1C4A     		ldr	r2, .L100+8
 1886 0072 5A63     		str	r2, [r3, #52]
 996:d:/LiteOS_Lab/drivers/third_party/ST/STM32L4xx_HAL_Driver/Src\stm32l4xx_hal_uart.c **** 
 997:d:/LiteOS_Lab/drivers/third_party/ST/STM32L4xx_HAL_Driver/Src\stm32l4xx_hal_uart.c ****     /* Set the DMA abort callback */
 998:d:/LiteOS_Lab/drivers/third_party/ST/STM32L4xx_HAL_Driver/Src\stm32l4xx_hal_uart.c ****     huart->hdmarx->XferAbortCallback = NULL;
 1887              		.loc 1 998 10 discriminator 2
 1888 0074 FB68     		ldr	r3, [r7, #12]
 1889 0076 DB6E     		ldr	r3, [r3, #108]
 1890              		.loc 1 998 38 discriminator 2
 1891 0078 0022     		movs	r2, #0
 1892 007a 9A63     		str	r2, [r3, #56]
 999:d:/LiteOS_Lab/drivers/third_party/ST/STM32L4xx_HAL_Driver/Src\stm32l4xx_hal_uart.c **** 
1000:d:/LiteOS_Lab/drivers/third_party/ST/STM32L4xx_HAL_Driver/Src\stm32l4xx_hal_uart.c ****     /* Enable the DMA channel */
1001:d:/LiteOS_Lab/drivers/third_party/ST/STM32L4xx_HAL_Driver/Src\stm32l4xx_hal_uart.c ****     HAL_DMA_Start_IT(huart->hdmarx, (uint32_t)&huart->Instance->RDR, (uint32_t)huart->pRxBuffPtr, S
 1893              		.loc 1 1001 5 discriminator 2
 1894 007c FB68     		ldr	r3, [r7, #12]
 1895 007e D86E     		ldr	r0, [r3, #108]
 1896              		.loc 1 1001 53 discriminator 2
 1897 0080 FB68     		ldr	r3, [r7, #12]
 1898 0082 1B68     		ldr	r3, [r3]
 1899              		.loc 1 1001 47 discriminator 2
 1900 0084 2433     		adds	r3, r3, #36
 1901              		.loc 1 1001 5 discriminator 2
 1902 0086 1946     		mov	r1, r3
 1903              		.loc 1 1001 85 discriminator 2
 1904 0088 FB68     		ldr	r3, [r7, #12]
 1905 008a 5B6D     		ldr	r3, [r3, #84]
 1906              		.loc 1 1001 5 discriminator 2
 1907 008c 1A46     		mov	r2, r3
 1908 008e FB88     		ldrh	r3, [r7, #6]
 1909 0090 FFF7FEFF 		bl	HAL_DMA_Start_IT
1002:d:/LiteOS_Lab/drivers/third_party/ST/STM32L4xx_HAL_Driver/Src\stm32l4xx_hal_uart.c **** 
1003:d:/LiteOS_Lab/drivers/third_party/ST/STM32L4xx_HAL_Driver/Src\stm32l4xx_hal_uart.c ****     /* Process Unlocked */
1004:d:/LiteOS_Lab/drivers/third_party/ST/STM32L4xx_HAL_Driver/Src\stm32l4xx_hal_uart.c ****     __HAL_UNLOCK(huart);
 1910              		.loc 1 1004 5 discriminator 2
 1911 0094 FB68     		ldr	r3, [r7, #12]
 1912 0096 0022     		movs	r2, #0
 1913 0098 83F87020 		strb	r2, [r3, #112]
1005:d:/LiteOS_Lab/drivers/third_party/ST/STM32L4xx_HAL_Driver/Src\stm32l4xx_hal_uart.c **** 
1006:d:/LiteOS_Lab/drivers/third_party/ST/STM32L4xx_HAL_Driver/Src\stm32l4xx_hal_uart.c ****     /* Enable the UART Parity Error Interrupt */
1007:d:/LiteOS_Lab/drivers/third_party/ST/STM32L4xx_HAL_Driver/Src\stm32l4xx_hal_uart.c ****     SET_BIT(huart->Instance->CR1, USART_CR1_PEIE);
 1914              		.loc 1 1007 5 discriminator 2
 1915 009c FB68     		ldr	r3, [r7, #12]
 1916 009e 1B68     		ldr	r3, [r3]
 1917 00a0 1A68     		ldr	r2, [r3]
 1918 00a2 FB68     		ldr	r3, [r7, #12]
 1919 00a4 1B68     		ldr	r3, [r3]
 1920 00a6 42F48072 		orr	r2, r2, #256
 1921 00aa 1A60     		str	r2, [r3]
ARM GAS  C:\Users\ADMINI~1\AppData\Local\Temp\ccHDbRvY.s 			page 52


1008:d:/LiteOS_Lab/drivers/third_party/ST/STM32L4xx_HAL_Driver/Src\stm32l4xx_hal_uart.c **** 
1009:d:/LiteOS_Lab/drivers/third_party/ST/STM32L4xx_HAL_Driver/Src\stm32l4xx_hal_uart.c ****     /* Enable the UART Error Interrupt: (Frame error, noise error, overrun error) */
1010:d:/LiteOS_Lab/drivers/third_party/ST/STM32L4xx_HAL_Driver/Src\stm32l4xx_hal_uart.c ****     SET_BIT(huart->Instance->CR3, USART_CR3_EIE);
 1922              		.loc 1 1010 5 discriminator 2
 1923 00ac FB68     		ldr	r3, [r7, #12]
 1924 00ae 1B68     		ldr	r3, [r3]
 1925 00b0 9A68     		ldr	r2, [r3, #8]
 1926 00b2 FB68     		ldr	r3, [r7, #12]
 1927 00b4 1B68     		ldr	r3, [r3]
 1928 00b6 42F00102 		orr	r2, r2, #1
 1929 00ba 9A60     		str	r2, [r3, #8]
1011:d:/LiteOS_Lab/drivers/third_party/ST/STM32L4xx_HAL_Driver/Src\stm32l4xx_hal_uart.c **** 
1012:d:/LiteOS_Lab/drivers/third_party/ST/STM32L4xx_HAL_Driver/Src\stm32l4xx_hal_uart.c ****     /* Enable the DMA transfer for the receiver request by setting the DMAR bit
1013:d:/LiteOS_Lab/drivers/third_party/ST/STM32L4xx_HAL_Driver/Src\stm32l4xx_hal_uart.c ****        in the UART CR3 register */
1014:d:/LiteOS_Lab/drivers/third_party/ST/STM32L4xx_HAL_Driver/Src\stm32l4xx_hal_uart.c ****     SET_BIT(huart->Instance->CR3, USART_CR3_DMAR);
 1930              		.loc 1 1014 5 discriminator 2
 1931 00bc FB68     		ldr	r3, [r7, #12]
 1932 00be 1B68     		ldr	r3, [r3]
 1933 00c0 9A68     		ldr	r2, [r3, #8]
 1934 00c2 FB68     		ldr	r3, [r7, #12]
 1935 00c4 1B68     		ldr	r3, [r3]
 1936 00c6 42F04002 		orr	r2, r2, #64
 1937 00ca 9A60     		str	r2, [r3, #8]
1015:d:/LiteOS_Lab/drivers/third_party/ST/STM32L4xx_HAL_Driver/Src\stm32l4xx_hal_uart.c **** 
1016:d:/LiteOS_Lab/drivers/third_party/ST/STM32L4xx_HAL_Driver/Src\stm32l4xx_hal_uart.c ****     return HAL_OK;
 1938              		.loc 1 1016 12 discriminator 2
 1939 00cc 0023     		movs	r3, #0
 1940 00ce 00E0     		b	.L98
 1941              	.L95:
1017:d:/LiteOS_Lab/drivers/third_party/ST/STM32L4xx_HAL_Driver/Src\stm32l4xx_hal_uart.c ****   }
1018:d:/LiteOS_Lab/drivers/third_party/ST/STM32L4xx_HAL_Driver/Src\stm32l4xx_hal_uart.c ****   else
1019:d:/LiteOS_Lab/drivers/third_party/ST/STM32L4xx_HAL_Driver/Src\stm32l4xx_hal_uart.c ****   {
1020:d:/LiteOS_Lab/drivers/third_party/ST/STM32L4xx_HAL_Driver/Src\stm32l4xx_hal_uart.c ****     return HAL_BUSY;
 1942              		.loc 1 1020 12
 1943 00d0 0223     		movs	r3, #2
 1944              	.L98:
1021:d:/LiteOS_Lab/drivers/third_party/ST/STM32L4xx_HAL_Driver/Src\stm32l4xx_hal_uart.c ****   }
1022:d:/LiteOS_Lab/drivers/third_party/ST/STM32L4xx_HAL_Driver/Src\stm32l4xx_hal_uart.c **** }
 1945              		.loc 1 1022 1
 1946 00d2 1846     		mov	r0, r3
 1947 00d4 1037     		adds	r7, r7, #16
 1948              	.LCFI67:
 1949              		.cfi_def_cfa_offset 8
 1950 00d6 BD46     		mov	sp, r7
 1951              	.LCFI68:
 1952              		.cfi_def_cfa_register 13
 1953              		@ sp needed
 1954 00d8 80BD     		pop	{r7, pc}
 1955              	.L101:
 1956 00da 00BF     		.align	2
 1957              	.L100:
 1958 00dc 00000000 		.word	UART_DMAReceiveCplt
 1959 00e0 00000000 		.word	UART_DMARxHalfCplt
 1960 00e4 00000000 		.word	UART_DMAError
 1961              		.cfi_endproc
 1962              	.LFE299:
 1964              		.section	.text.HAL_UART_DMAPause,"ax",%progbits
ARM GAS  C:\Users\ADMINI~1\AppData\Local\Temp\ccHDbRvY.s 			page 53


 1965              		.align	1
 1966              		.global	HAL_UART_DMAPause
 1967              		.syntax unified
 1968              		.thumb
 1969              		.thumb_func
 1970              		.fpu fpv4-sp-d16
 1972              	HAL_UART_DMAPause:
 1973              	.LFB300:
1023:d:/LiteOS_Lab/drivers/third_party/ST/STM32L4xx_HAL_Driver/Src\stm32l4xx_hal_uart.c **** 
1024:d:/LiteOS_Lab/drivers/third_party/ST/STM32L4xx_HAL_Driver/Src\stm32l4xx_hal_uart.c **** /**
1025:d:/LiteOS_Lab/drivers/third_party/ST/STM32L4xx_HAL_Driver/Src\stm32l4xx_hal_uart.c ****   * @brief Pause the DMA Transfer.
1026:d:/LiteOS_Lab/drivers/third_party/ST/STM32L4xx_HAL_Driver/Src\stm32l4xx_hal_uart.c ****   * @param huart: UART handle.
1027:d:/LiteOS_Lab/drivers/third_party/ST/STM32L4xx_HAL_Driver/Src\stm32l4xx_hal_uart.c ****   * @retval HAL status
1028:d:/LiteOS_Lab/drivers/third_party/ST/STM32L4xx_HAL_Driver/Src\stm32l4xx_hal_uart.c ****   */
1029:d:/LiteOS_Lab/drivers/third_party/ST/STM32L4xx_HAL_Driver/Src\stm32l4xx_hal_uart.c **** HAL_StatusTypeDef HAL_UART_DMAPause(UART_HandleTypeDef *huart)
1030:d:/LiteOS_Lab/drivers/third_party/ST/STM32L4xx_HAL_Driver/Src\stm32l4xx_hal_uart.c **** {
 1974              		.loc 1 1030 1
 1975              		.cfi_startproc
 1976              		@ args = 0, pretend = 0, frame = 8
 1977              		@ frame_needed = 1, uses_anonymous_args = 0
 1978              		@ link register save eliminated.
 1979 0000 80B4     		push	{r7}
 1980              	.LCFI69:
 1981              		.cfi_def_cfa_offset 4
 1982              		.cfi_offset 7, -4
 1983 0002 83B0     		sub	sp, sp, #12
 1984              	.LCFI70:
 1985              		.cfi_def_cfa_offset 16
 1986 0004 00AF     		add	r7, sp, #0
 1987              	.LCFI71:
 1988              		.cfi_def_cfa_register 7
 1989 0006 7860     		str	r0, [r7, #4]
1031:d:/LiteOS_Lab/drivers/third_party/ST/STM32L4xx_HAL_Driver/Src\stm32l4xx_hal_uart.c ****   /* Process Locked */
1032:d:/LiteOS_Lab/drivers/third_party/ST/STM32L4xx_HAL_Driver/Src\stm32l4xx_hal_uart.c ****   __HAL_LOCK(huart);
 1990              		.loc 1 1032 3
 1991 0008 7B68     		ldr	r3, [r7, #4]
 1992 000a 93F87030 		ldrb	r3, [r3, #112]	@ zero_extendqisi2
 1993 000e 012B     		cmp	r3, #1
 1994 0010 01D1     		bne	.L103
 1995              		.loc 1 1032 3 is_stmt 0 discriminator 1
 1996 0012 0223     		movs	r3, #2
 1997 0014 42E0     		b	.L104
 1998              	.L103:
 1999              		.loc 1 1032 3 discriminator 2
 2000 0016 7B68     		ldr	r3, [r7, #4]
 2001 0018 0122     		movs	r2, #1
 2002 001a 83F87020 		strb	r2, [r3, #112]
1033:d:/LiteOS_Lab/drivers/third_party/ST/STM32L4xx_HAL_Driver/Src\stm32l4xx_hal_uart.c **** 
1034:d:/LiteOS_Lab/drivers/third_party/ST/STM32L4xx_HAL_Driver/Src\stm32l4xx_hal_uart.c ****   if ((huart->gState == HAL_UART_STATE_BUSY_TX) &&
 2003              		.loc 1 1034 13 is_stmt 1 discriminator 2
 2004 001e 7B68     		ldr	r3, [r7, #4]
 2005 0020 93F87130 		ldrb	r3, [r3, #113]
 2006 0024 DBB2     		uxtb	r3, r3
 2007              		.loc 1 1034 6 discriminator 2
 2008 0026 212B     		cmp	r3, #33
 2009 0028 0ED1     		bne	.L105
1035:d:/LiteOS_Lab/drivers/third_party/ST/STM32L4xx_HAL_Driver/Src\stm32l4xx_hal_uart.c ****       (HAL_IS_BIT_SET(huart->Instance->CR3, USART_CR3_DMAT)))
ARM GAS  C:\Users\ADMINI~1\AppData\Local\Temp\ccHDbRvY.s 			page 54


 2010              		.loc 1 1035 8 discriminator 1
 2011 002a 7B68     		ldr	r3, [r7, #4]
 2012 002c 1B68     		ldr	r3, [r3]
 2013 002e 9B68     		ldr	r3, [r3, #8]
 2014 0030 03F08003 		and	r3, r3, #128
1034:d:/LiteOS_Lab/drivers/third_party/ST/STM32L4xx_HAL_Driver/Src\stm32l4xx_hal_uart.c ****       (HAL_IS_BIT_SET(huart->Instance->CR3, USART_CR3_DMAT)))
 2015              		.loc 1 1034 49 discriminator 1
 2016 0034 802B     		cmp	r3, #128
 2017 0036 07D1     		bne	.L105
1036:d:/LiteOS_Lab/drivers/third_party/ST/STM32L4xx_HAL_Driver/Src\stm32l4xx_hal_uart.c ****   {
1037:d:/LiteOS_Lab/drivers/third_party/ST/STM32L4xx_HAL_Driver/Src\stm32l4xx_hal_uart.c ****     /* Disable the UART DMA Tx request */
1038:d:/LiteOS_Lab/drivers/third_party/ST/STM32L4xx_HAL_Driver/Src\stm32l4xx_hal_uart.c ****     CLEAR_BIT(huart->Instance->CR3, USART_CR3_DMAT);
 2018              		.loc 1 1038 5
 2019 0038 7B68     		ldr	r3, [r7, #4]
 2020 003a 1B68     		ldr	r3, [r3]
 2021 003c 9A68     		ldr	r2, [r3, #8]
 2022 003e 7B68     		ldr	r3, [r7, #4]
 2023 0040 1B68     		ldr	r3, [r3]
 2024 0042 22F08002 		bic	r2, r2, #128
 2025 0046 9A60     		str	r2, [r3, #8]
 2026              	.L105:
1039:d:/LiteOS_Lab/drivers/third_party/ST/STM32L4xx_HAL_Driver/Src\stm32l4xx_hal_uart.c ****   }
1040:d:/LiteOS_Lab/drivers/third_party/ST/STM32L4xx_HAL_Driver/Src\stm32l4xx_hal_uart.c ****   if ((huart->RxState == HAL_UART_STATE_BUSY_RX) &&
 2027              		.loc 1 1040 13
 2028 0048 7B68     		ldr	r3, [r7, #4]
 2029 004a 93F87230 		ldrb	r3, [r3, #114]
 2030 004e DBB2     		uxtb	r3, r3
 2031              		.loc 1 1040 6
 2032 0050 222B     		cmp	r3, #34
 2033 0052 1ED1     		bne	.L106
1041:d:/LiteOS_Lab/drivers/third_party/ST/STM32L4xx_HAL_Driver/Src\stm32l4xx_hal_uart.c ****       (HAL_IS_BIT_SET(huart->Instance->CR3, USART_CR3_DMAR)))
 2034              		.loc 1 1041 8 discriminator 1
 2035 0054 7B68     		ldr	r3, [r7, #4]
 2036 0056 1B68     		ldr	r3, [r3]
 2037 0058 9B68     		ldr	r3, [r3, #8]
 2038 005a 03F04003 		and	r3, r3, #64
1040:d:/LiteOS_Lab/drivers/third_party/ST/STM32L4xx_HAL_Driver/Src\stm32l4xx_hal_uart.c ****       (HAL_IS_BIT_SET(huart->Instance->CR3, USART_CR3_DMAR)))
 2039              		.loc 1 1040 50 discriminator 1
 2040 005e 402B     		cmp	r3, #64
 2041 0060 17D1     		bne	.L106
1042:d:/LiteOS_Lab/drivers/third_party/ST/STM32L4xx_HAL_Driver/Src\stm32l4xx_hal_uart.c ****   {
1043:d:/LiteOS_Lab/drivers/third_party/ST/STM32L4xx_HAL_Driver/Src\stm32l4xx_hal_uart.c ****     /* Disable PE and ERR (Frame error, noise error, overrun error) interrupts */
1044:d:/LiteOS_Lab/drivers/third_party/ST/STM32L4xx_HAL_Driver/Src\stm32l4xx_hal_uart.c ****     CLEAR_BIT(huart->Instance->CR1, USART_CR1_PEIE);
 2042              		.loc 1 1044 5
 2043 0062 7B68     		ldr	r3, [r7, #4]
 2044 0064 1B68     		ldr	r3, [r3]
 2045 0066 1A68     		ldr	r2, [r3]
 2046 0068 7B68     		ldr	r3, [r7, #4]
 2047 006a 1B68     		ldr	r3, [r3]
 2048 006c 22F48072 		bic	r2, r2, #256
 2049 0070 1A60     		str	r2, [r3]
1045:d:/LiteOS_Lab/drivers/third_party/ST/STM32L4xx_HAL_Driver/Src\stm32l4xx_hal_uart.c ****     CLEAR_BIT(huart->Instance->CR3, USART_CR3_EIE);
 2050              		.loc 1 1045 5
 2051 0072 7B68     		ldr	r3, [r7, #4]
 2052 0074 1B68     		ldr	r3, [r3]
 2053 0076 9A68     		ldr	r2, [r3, #8]
 2054 0078 7B68     		ldr	r3, [r7, #4]
ARM GAS  C:\Users\ADMINI~1\AppData\Local\Temp\ccHDbRvY.s 			page 55


 2055 007a 1B68     		ldr	r3, [r3]
 2056 007c 22F00102 		bic	r2, r2, #1
 2057 0080 9A60     		str	r2, [r3, #8]
1046:d:/LiteOS_Lab/drivers/third_party/ST/STM32L4xx_HAL_Driver/Src\stm32l4xx_hal_uart.c **** 
1047:d:/LiteOS_Lab/drivers/third_party/ST/STM32L4xx_HAL_Driver/Src\stm32l4xx_hal_uart.c ****     /* Disable the UART DMA Rx request */
1048:d:/LiteOS_Lab/drivers/third_party/ST/STM32L4xx_HAL_Driver/Src\stm32l4xx_hal_uart.c ****     CLEAR_BIT(huart->Instance->CR3, USART_CR3_DMAR);
 2058              		.loc 1 1048 5
 2059 0082 7B68     		ldr	r3, [r7, #4]
 2060 0084 1B68     		ldr	r3, [r3]
 2061 0086 9A68     		ldr	r2, [r3, #8]
 2062 0088 7B68     		ldr	r3, [r7, #4]
 2063 008a 1B68     		ldr	r3, [r3]
 2064 008c 22F04002 		bic	r2, r2, #64
 2065 0090 9A60     		str	r2, [r3, #8]
 2066              	.L106:
1049:d:/LiteOS_Lab/drivers/third_party/ST/STM32L4xx_HAL_Driver/Src\stm32l4xx_hal_uart.c ****   }
1050:d:/LiteOS_Lab/drivers/third_party/ST/STM32L4xx_HAL_Driver/Src\stm32l4xx_hal_uart.c **** 
1051:d:/LiteOS_Lab/drivers/third_party/ST/STM32L4xx_HAL_Driver/Src\stm32l4xx_hal_uart.c ****   /* Process Unlocked */
1052:d:/LiteOS_Lab/drivers/third_party/ST/STM32L4xx_HAL_Driver/Src\stm32l4xx_hal_uart.c ****   __HAL_UNLOCK(huart);
 2067              		.loc 1 1052 3
 2068 0092 7B68     		ldr	r3, [r7, #4]
 2069 0094 0022     		movs	r2, #0
 2070 0096 83F87020 		strb	r2, [r3, #112]
1053:d:/LiteOS_Lab/drivers/third_party/ST/STM32L4xx_HAL_Driver/Src\stm32l4xx_hal_uart.c **** 
1054:d:/LiteOS_Lab/drivers/third_party/ST/STM32L4xx_HAL_Driver/Src\stm32l4xx_hal_uart.c ****   return HAL_OK;
 2071              		.loc 1 1054 10
 2072 009a 0023     		movs	r3, #0
 2073              	.L104:
1055:d:/LiteOS_Lab/drivers/third_party/ST/STM32L4xx_HAL_Driver/Src\stm32l4xx_hal_uart.c **** }
 2074              		.loc 1 1055 1
 2075 009c 1846     		mov	r0, r3
 2076 009e 0C37     		adds	r7, r7, #12
 2077              	.LCFI72:
 2078              		.cfi_def_cfa_offset 4
 2079 00a0 BD46     		mov	sp, r7
 2080              	.LCFI73:
 2081              		.cfi_def_cfa_register 13
 2082              		@ sp needed
 2083 00a2 5DF8047B 		ldr	r7, [sp], #4
 2084              	.LCFI74:
 2085              		.cfi_restore 7
 2086              		.cfi_def_cfa_offset 0
 2087 00a6 7047     		bx	lr
 2088              		.cfi_endproc
 2089              	.LFE300:
 2091              		.section	.text.HAL_UART_DMAResume,"ax",%progbits
 2092              		.align	1
 2093              		.global	HAL_UART_DMAResume
 2094              		.syntax unified
 2095              		.thumb
 2096              		.thumb_func
 2097              		.fpu fpv4-sp-d16
 2099              	HAL_UART_DMAResume:
 2100              	.LFB301:
1056:d:/LiteOS_Lab/drivers/third_party/ST/STM32L4xx_HAL_Driver/Src\stm32l4xx_hal_uart.c **** 
1057:d:/LiteOS_Lab/drivers/third_party/ST/STM32L4xx_HAL_Driver/Src\stm32l4xx_hal_uart.c **** /**
1058:d:/LiteOS_Lab/drivers/third_party/ST/STM32L4xx_HAL_Driver/Src\stm32l4xx_hal_uart.c ****   * @brief Resume the DMA Transfer.
ARM GAS  C:\Users\ADMINI~1\AppData\Local\Temp\ccHDbRvY.s 			page 56


1059:d:/LiteOS_Lab/drivers/third_party/ST/STM32L4xx_HAL_Driver/Src\stm32l4xx_hal_uart.c ****   * @param huart: UART handle.
1060:d:/LiteOS_Lab/drivers/third_party/ST/STM32L4xx_HAL_Driver/Src\stm32l4xx_hal_uart.c ****   * @retval HAL status
1061:d:/LiteOS_Lab/drivers/third_party/ST/STM32L4xx_HAL_Driver/Src\stm32l4xx_hal_uart.c ****   */
1062:d:/LiteOS_Lab/drivers/third_party/ST/STM32L4xx_HAL_Driver/Src\stm32l4xx_hal_uart.c **** HAL_StatusTypeDef HAL_UART_DMAResume(UART_HandleTypeDef *huart)
1063:d:/LiteOS_Lab/drivers/third_party/ST/STM32L4xx_HAL_Driver/Src\stm32l4xx_hal_uart.c **** {
 2101              		.loc 1 1063 1
 2102              		.cfi_startproc
 2103              		@ args = 0, pretend = 0, frame = 8
 2104              		@ frame_needed = 1, uses_anonymous_args = 0
 2105              		@ link register save eliminated.
 2106 0000 80B4     		push	{r7}
 2107              	.LCFI75:
 2108              		.cfi_def_cfa_offset 4
 2109              		.cfi_offset 7, -4
 2110 0002 83B0     		sub	sp, sp, #12
 2111              	.LCFI76:
 2112              		.cfi_def_cfa_offset 16
 2113 0004 00AF     		add	r7, sp, #0
 2114              	.LCFI77:
 2115              		.cfi_def_cfa_register 7
 2116 0006 7860     		str	r0, [r7, #4]
1064:d:/LiteOS_Lab/drivers/third_party/ST/STM32L4xx_HAL_Driver/Src\stm32l4xx_hal_uart.c ****   /* Process Locked */
1065:d:/LiteOS_Lab/drivers/third_party/ST/STM32L4xx_HAL_Driver/Src\stm32l4xx_hal_uart.c ****   __HAL_LOCK(huart);
 2117              		.loc 1 1065 3
 2118 0008 7B68     		ldr	r3, [r7, #4]
 2119 000a 93F87030 		ldrb	r3, [r3, #112]	@ zero_extendqisi2
 2120 000e 012B     		cmp	r3, #1
 2121 0010 01D1     		bne	.L108
 2122              		.loc 1 1065 3 is_stmt 0 discriminator 1
 2123 0012 0223     		movs	r3, #2
 2124 0014 38E0     		b	.L109
 2125              	.L108:
 2126              		.loc 1 1065 3 discriminator 2
 2127 0016 7B68     		ldr	r3, [r7, #4]
 2128 0018 0122     		movs	r2, #1
 2129 001a 83F87020 		strb	r2, [r3, #112]
1066:d:/LiteOS_Lab/drivers/third_party/ST/STM32L4xx_HAL_Driver/Src\stm32l4xx_hal_uart.c **** 
1067:d:/LiteOS_Lab/drivers/third_party/ST/STM32L4xx_HAL_Driver/Src\stm32l4xx_hal_uart.c ****   if(huart->gState == HAL_UART_STATE_BUSY_TX)
 2130              		.loc 1 1067 11 is_stmt 1 discriminator 2
 2131 001e 7B68     		ldr	r3, [r7, #4]
 2132 0020 93F87130 		ldrb	r3, [r3, #113]
 2133 0024 DBB2     		uxtb	r3, r3
 2134              		.loc 1 1067 5 discriminator 2
 2135 0026 212B     		cmp	r3, #33
 2136 0028 07D1     		bne	.L110
1068:d:/LiteOS_Lab/drivers/third_party/ST/STM32L4xx_HAL_Driver/Src\stm32l4xx_hal_uart.c ****   {
1069:d:/LiteOS_Lab/drivers/third_party/ST/STM32L4xx_HAL_Driver/Src\stm32l4xx_hal_uart.c ****     /* Enable the UART DMA Tx request */
1070:d:/LiteOS_Lab/drivers/third_party/ST/STM32L4xx_HAL_Driver/Src\stm32l4xx_hal_uart.c ****     SET_BIT(huart->Instance->CR3, USART_CR3_DMAT);
 2137              		.loc 1 1070 5
 2138 002a 7B68     		ldr	r3, [r7, #4]
 2139 002c 1B68     		ldr	r3, [r3]
 2140 002e 9A68     		ldr	r2, [r3, #8]
 2141 0030 7B68     		ldr	r3, [r7, #4]
 2142 0032 1B68     		ldr	r3, [r3]
 2143 0034 42F08002 		orr	r2, r2, #128
 2144 0038 9A60     		str	r2, [r3, #8]
 2145              	.L110:
ARM GAS  C:\Users\ADMINI~1\AppData\Local\Temp\ccHDbRvY.s 			page 57


1071:d:/LiteOS_Lab/drivers/third_party/ST/STM32L4xx_HAL_Driver/Src\stm32l4xx_hal_uart.c ****   }
1072:d:/LiteOS_Lab/drivers/third_party/ST/STM32L4xx_HAL_Driver/Src\stm32l4xx_hal_uart.c ****   if(huart->RxState == HAL_UART_STATE_BUSY_RX)
 2146              		.loc 1 1072 11
 2147 003a 7B68     		ldr	r3, [r7, #4]
 2148 003c 93F87230 		ldrb	r3, [r3, #114]
 2149 0040 DBB2     		uxtb	r3, r3
 2150              		.loc 1 1072 5
 2151 0042 222B     		cmp	r3, #34
 2152 0044 1BD1     		bne	.L111
1073:d:/LiteOS_Lab/drivers/third_party/ST/STM32L4xx_HAL_Driver/Src\stm32l4xx_hal_uart.c ****   {
1074:d:/LiteOS_Lab/drivers/third_party/ST/STM32L4xx_HAL_Driver/Src\stm32l4xx_hal_uart.c ****     /* Clear the Overrun flag before resuming the Rx transfer */
1075:d:/LiteOS_Lab/drivers/third_party/ST/STM32L4xx_HAL_Driver/Src\stm32l4xx_hal_uart.c ****     __HAL_UART_CLEAR_FLAG(huart, UART_CLEAR_OREF);
 2153              		.loc 1 1075 5
 2154 0046 7B68     		ldr	r3, [r7, #4]
 2155 0048 1B68     		ldr	r3, [r3]
 2156 004a 0822     		movs	r2, #8
 2157 004c 1A62     		str	r2, [r3, #32]
1076:d:/LiteOS_Lab/drivers/third_party/ST/STM32L4xx_HAL_Driver/Src\stm32l4xx_hal_uart.c **** 
1077:d:/LiteOS_Lab/drivers/third_party/ST/STM32L4xx_HAL_Driver/Src\stm32l4xx_hal_uart.c ****     /* Reenable PE and ERR (Frame error, noise error, overrun error) interrupts */
1078:d:/LiteOS_Lab/drivers/third_party/ST/STM32L4xx_HAL_Driver/Src\stm32l4xx_hal_uart.c ****     SET_BIT(huart->Instance->CR1, USART_CR1_PEIE);
 2158              		.loc 1 1078 5
 2159 004e 7B68     		ldr	r3, [r7, #4]
 2160 0050 1B68     		ldr	r3, [r3]
 2161 0052 1A68     		ldr	r2, [r3]
 2162 0054 7B68     		ldr	r3, [r7, #4]
 2163 0056 1B68     		ldr	r3, [r3]
 2164 0058 42F48072 		orr	r2, r2, #256
 2165 005c 1A60     		str	r2, [r3]
1079:d:/LiteOS_Lab/drivers/third_party/ST/STM32L4xx_HAL_Driver/Src\stm32l4xx_hal_uart.c ****     SET_BIT(huart->Instance->CR3, USART_CR3_EIE);
 2166              		.loc 1 1079 5
 2167 005e 7B68     		ldr	r3, [r7, #4]
 2168 0060 1B68     		ldr	r3, [r3]
 2169 0062 9A68     		ldr	r2, [r3, #8]
 2170 0064 7B68     		ldr	r3, [r7, #4]
 2171 0066 1B68     		ldr	r3, [r3]
 2172 0068 42F00102 		orr	r2, r2, #1
 2173 006c 9A60     		str	r2, [r3, #8]
1080:d:/LiteOS_Lab/drivers/third_party/ST/STM32L4xx_HAL_Driver/Src\stm32l4xx_hal_uart.c **** 
1081:d:/LiteOS_Lab/drivers/third_party/ST/STM32L4xx_HAL_Driver/Src\stm32l4xx_hal_uart.c ****     /* Enable the UART DMA Rx request */
1082:d:/LiteOS_Lab/drivers/third_party/ST/STM32L4xx_HAL_Driver/Src\stm32l4xx_hal_uart.c ****     SET_BIT(huart->Instance->CR3, USART_CR3_DMAR);
 2174              		.loc 1 1082 5
 2175 006e 7B68     		ldr	r3, [r7, #4]
 2176 0070 1B68     		ldr	r3, [r3]
 2177 0072 9A68     		ldr	r2, [r3, #8]
 2178 0074 7B68     		ldr	r3, [r7, #4]
 2179 0076 1B68     		ldr	r3, [r3]
 2180 0078 42F04002 		orr	r2, r2, #64
 2181 007c 9A60     		str	r2, [r3, #8]
 2182              	.L111:
1083:d:/LiteOS_Lab/drivers/third_party/ST/STM32L4xx_HAL_Driver/Src\stm32l4xx_hal_uart.c ****   }
1084:d:/LiteOS_Lab/drivers/third_party/ST/STM32L4xx_HAL_Driver/Src\stm32l4xx_hal_uart.c **** 
1085:d:/LiteOS_Lab/drivers/third_party/ST/STM32L4xx_HAL_Driver/Src\stm32l4xx_hal_uart.c ****   /* Process Unlocked */
1086:d:/LiteOS_Lab/drivers/third_party/ST/STM32L4xx_HAL_Driver/Src\stm32l4xx_hal_uart.c ****   __HAL_UNLOCK(huart);
 2183              		.loc 1 1086 3
 2184 007e 7B68     		ldr	r3, [r7, #4]
 2185 0080 0022     		movs	r2, #0
 2186 0082 83F87020 		strb	r2, [r3, #112]
ARM GAS  C:\Users\ADMINI~1\AppData\Local\Temp\ccHDbRvY.s 			page 58


1087:d:/LiteOS_Lab/drivers/third_party/ST/STM32L4xx_HAL_Driver/Src\stm32l4xx_hal_uart.c **** 
1088:d:/LiteOS_Lab/drivers/third_party/ST/STM32L4xx_HAL_Driver/Src\stm32l4xx_hal_uart.c ****   return HAL_OK;
 2187              		.loc 1 1088 10
 2188 0086 0023     		movs	r3, #0
 2189              	.L109:
1089:d:/LiteOS_Lab/drivers/third_party/ST/STM32L4xx_HAL_Driver/Src\stm32l4xx_hal_uart.c **** }
 2190              		.loc 1 1089 1
 2191 0088 1846     		mov	r0, r3
 2192 008a 0C37     		adds	r7, r7, #12
 2193              	.LCFI78:
 2194              		.cfi_def_cfa_offset 4
 2195 008c BD46     		mov	sp, r7
 2196              	.LCFI79:
 2197              		.cfi_def_cfa_register 13
 2198              		@ sp needed
 2199 008e 5DF8047B 		ldr	r7, [sp], #4
 2200              	.LCFI80:
 2201              		.cfi_restore 7
 2202              		.cfi_def_cfa_offset 0
 2203 0092 7047     		bx	lr
 2204              		.cfi_endproc
 2205              	.LFE301:
 2207              		.section	.text.HAL_UART_DMAStop,"ax",%progbits
 2208              		.align	1
 2209              		.global	HAL_UART_DMAStop
 2210              		.syntax unified
 2211              		.thumb
 2212              		.thumb_func
 2213              		.fpu fpv4-sp-d16
 2215              	HAL_UART_DMAStop:
 2216              	.LFB302:
1090:d:/LiteOS_Lab/drivers/third_party/ST/STM32L4xx_HAL_Driver/Src\stm32l4xx_hal_uart.c **** 
1091:d:/LiteOS_Lab/drivers/third_party/ST/STM32L4xx_HAL_Driver/Src\stm32l4xx_hal_uart.c **** /**
1092:d:/LiteOS_Lab/drivers/third_party/ST/STM32L4xx_HAL_Driver/Src\stm32l4xx_hal_uart.c ****   * @brief Stop the DMA Transfer.
1093:d:/LiteOS_Lab/drivers/third_party/ST/STM32L4xx_HAL_Driver/Src\stm32l4xx_hal_uart.c ****   * @param huart: UART handle.
1094:d:/LiteOS_Lab/drivers/third_party/ST/STM32L4xx_HAL_Driver/Src\stm32l4xx_hal_uart.c ****   * @retval HAL status
1095:d:/LiteOS_Lab/drivers/third_party/ST/STM32L4xx_HAL_Driver/Src\stm32l4xx_hal_uart.c ****   */
1096:d:/LiteOS_Lab/drivers/third_party/ST/STM32L4xx_HAL_Driver/Src\stm32l4xx_hal_uart.c **** HAL_StatusTypeDef HAL_UART_DMAStop(UART_HandleTypeDef *huart)
1097:d:/LiteOS_Lab/drivers/third_party/ST/STM32L4xx_HAL_Driver/Src\stm32l4xx_hal_uart.c **** {
 2217              		.loc 1 1097 1
 2218              		.cfi_startproc
 2219              		@ args = 0, pretend = 0, frame = 8
 2220              		@ frame_needed = 1, uses_anonymous_args = 0
 2221 0000 80B5     		push	{r7, lr}
 2222              	.LCFI81:
 2223              		.cfi_def_cfa_offset 8
 2224              		.cfi_offset 7, -8
 2225              		.cfi_offset 14, -4
 2226 0002 82B0     		sub	sp, sp, #8
 2227              	.LCFI82:
 2228              		.cfi_def_cfa_offset 16
 2229 0004 00AF     		add	r7, sp, #0
 2230              	.LCFI83:
 2231              		.cfi_def_cfa_register 7
 2232 0006 7860     		str	r0, [r7, #4]
1098:d:/LiteOS_Lab/drivers/third_party/ST/STM32L4xx_HAL_Driver/Src\stm32l4xx_hal_uart.c ****   /* The Lock is not implemented on this API to allow the user application
1099:d:/LiteOS_Lab/drivers/third_party/ST/STM32L4xx_HAL_Driver/Src\stm32l4xx_hal_uart.c ****      to call the HAL UART API under callbacks HAL_UART_TxCpltCallback() / HAL_UART_RxCpltCallback()
ARM GAS  C:\Users\ADMINI~1\AppData\Local\Temp\ccHDbRvY.s 			page 59


1100:d:/LiteOS_Lab/drivers/third_party/ST/STM32L4xx_HAL_Driver/Src\stm32l4xx_hal_uart.c ****      HAL_UART_TxHalfCpltCallback / HAL_UART_RxHalfCpltCallback: 
1101:d:/LiteOS_Lab/drivers/third_party/ST/STM32L4xx_HAL_Driver/Src\stm32l4xx_hal_uart.c ****      indeed, when HAL_DMA_Abort() API is called, the DMA TX/RX Transfer or Half Transfer complete  
1102:d:/LiteOS_Lab/drivers/third_party/ST/STM32L4xx_HAL_Driver/Src\stm32l4xx_hal_uart.c ****      interrupt is generated if the DMA transfer interruption occurs at the middle or at the end of 
1103:d:/LiteOS_Lab/drivers/third_party/ST/STM32L4xx_HAL_Driver/Src\stm32l4xx_hal_uart.c ****      the stream and the corresponding call back is executed. */
1104:d:/LiteOS_Lab/drivers/third_party/ST/STM32L4xx_HAL_Driver/Src\stm32l4xx_hal_uart.c **** 
1105:d:/LiteOS_Lab/drivers/third_party/ST/STM32L4xx_HAL_Driver/Src\stm32l4xx_hal_uart.c ****   /* Stop UART DMA Tx request if ongoing */
1106:d:/LiteOS_Lab/drivers/third_party/ST/STM32L4xx_HAL_Driver/Src\stm32l4xx_hal_uart.c ****   if ((huart->gState == HAL_UART_STATE_BUSY_TX) &&
 2233              		.loc 1 1106 13
 2234 0008 7B68     		ldr	r3, [r7, #4]
 2235 000a 93F87130 		ldrb	r3, [r3, #113]
 2236 000e DBB2     		uxtb	r3, r3
 2237              		.loc 1 1106 6
 2238 0010 212B     		cmp	r3, #33
 2239 0012 1AD1     		bne	.L113
1107:d:/LiteOS_Lab/drivers/third_party/ST/STM32L4xx_HAL_Driver/Src\stm32l4xx_hal_uart.c ****       (HAL_IS_BIT_SET(huart->Instance->CR3, USART_CR3_DMAT)))
 2240              		.loc 1 1107 8 discriminator 1
 2241 0014 7B68     		ldr	r3, [r7, #4]
 2242 0016 1B68     		ldr	r3, [r3]
 2243 0018 9B68     		ldr	r3, [r3, #8]
 2244 001a 03F08003 		and	r3, r3, #128
1106:d:/LiteOS_Lab/drivers/third_party/ST/STM32L4xx_HAL_Driver/Src\stm32l4xx_hal_uart.c ****       (HAL_IS_BIT_SET(huart->Instance->CR3, USART_CR3_DMAT)))
 2245              		.loc 1 1106 49 discriminator 1
 2246 001e 802B     		cmp	r3, #128
 2247 0020 13D1     		bne	.L113
1108:d:/LiteOS_Lab/drivers/third_party/ST/STM32L4xx_HAL_Driver/Src\stm32l4xx_hal_uart.c ****   {
1109:d:/LiteOS_Lab/drivers/third_party/ST/STM32L4xx_HAL_Driver/Src\stm32l4xx_hal_uart.c ****     CLEAR_BIT(huart->Instance->CR3, USART_CR3_DMAT);
 2248              		.loc 1 1109 5
 2249 0022 7B68     		ldr	r3, [r7, #4]
 2250 0024 1B68     		ldr	r3, [r3]
 2251 0026 9A68     		ldr	r2, [r3, #8]
 2252 0028 7B68     		ldr	r3, [r7, #4]
 2253 002a 1B68     		ldr	r3, [r3]
 2254 002c 22F08002 		bic	r2, r2, #128
 2255 0030 9A60     		str	r2, [r3, #8]
1110:d:/LiteOS_Lab/drivers/third_party/ST/STM32L4xx_HAL_Driver/Src\stm32l4xx_hal_uart.c **** 
1111:d:/LiteOS_Lab/drivers/third_party/ST/STM32L4xx_HAL_Driver/Src\stm32l4xx_hal_uart.c ****     /* Abort the UART DMA Tx channel */
1112:d:/LiteOS_Lab/drivers/third_party/ST/STM32L4xx_HAL_Driver/Src\stm32l4xx_hal_uart.c ****     if(huart->hdmatx != NULL)
 2256              		.loc 1 1112 13
 2257 0032 7B68     		ldr	r3, [r7, #4]
 2258 0034 9B6E     		ldr	r3, [r3, #104]
 2259              		.loc 1 1112 7
 2260 0036 002B     		cmp	r3, #0
 2261 0038 04D0     		beq	.L114
1113:d:/LiteOS_Lab/drivers/third_party/ST/STM32L4xx_HAL_Driver/Src\stm32l4xx_hal_uart.c ****     {
1114:d:/LiteOS_Lab/drivers/third_party/ST/STM32L4xx_HAL_Driver/Src\stm32l4xx_hal_uart.c ****       HAL_DMA_Abort(huart->hdmatx);
 2262              		.loc 1 1114 7
 2263 003a 7B68     		ldr	r3, [r7, #4]
 2264 003c 9B6E     		ldr	r3, [r3, #104]
 2265 003e 1846     		mov	r0, r3
 2266 0040 FFF7FEFF 		bl	HAL_DMA_Abort
 2267              	.L114:
1115:d:/LiteOS_Lab/drivers/third_party/ST/STM32L4xx_HAL_Driver/Src\stm32l4xx_hal_uart.c ****     }
1116:d:/LiteOS_Lab/drivers/third_party/ST/STM32L4xx_HAL_Driver/Src\stm32l4xx_hal_uart.c **** 
1117:d:/LiteOS_Lab/drivers/third_party/ST/STM32L4xx_HAL_Driver/Src\stm32l4xx_hal_uart.c ****     UART_EndTxTransfer(huart);
 2268              		.loc 1 1117 5
 2269 0044 7868     		ldr	r0, [r7, #4]
 2270 0046 FFF7FEFF 		bl	UART_EndTxTransfer
ARM GAS  C:\Users\ADMINI~1\AppData\Local\Temp\ccHDbRvY.s 			page 60


 2271              	.L113:
1118:d:/LiteOS_Lab/drivers/third_party/ST/STM32L4xx_HAL_Driver/Src\stm32l4xx_hal_uart.c ****   }
1119:d:/LiteOS_Lab/drivers/third_party/ST/STM32L4xx_HAL_Driver/Src\stm32l4xx_hal_uart.c **** 
1120:d:/LiteOS_Lab/drivers/third_party/ST/STM32L4xx_HAL_Driver/Src\stm32l4xx_hal_uart.c ****   /* Stop UART DMA Rx request if ongoing */
1121:d:/LiteOS_Lab/drivers/third_party/ST/STM32L4xx_HAL_Driver/Src\stm32l4xx_hal_uart.c ****   if ((huart->RxState == HAL_UART_STATE_BUSY_RX) &&
 2272              		.loc 1 1121 13
 2273 004a 7B68     		ldr	r3, [r7, #4]
 2274 004c 93F87230 		ldrb	r3, [r3, #114]
 2275 0050 DBB2     		uxtb	r3, r3
 2276              		.loc 1 1121 6
 2277 0052 222B     		cmp	r3, #34
 2278 0054 1AD1     		bne	.L115
1122:d:/LiteOS_Lab/drivers/third_party/ST/STM32L4xx_HAL_Driver/Src\stm32l4xx_hal_uart.c ****       (HAL_IS_BIT_SET(huart->Instance->CR3, USART_CR3_DMAR)))
 2279              		.loc 1 1122 8 discriminator 1
 2280 0056 7B68     		ldr	r3, [r7, #4]
 2281 0058 1B68     		ldr	r3, [r3]
 2282 005a 9B68     		ldr	r3, [r3, #8]
 2283 005c 03F04003 		and	r3, r3, #64
1121:d:/LiteOS_Lab/drivers/third_party/ST/STM32L4xx_HAL_Driver/Src\stm32l4xx_hal_uart.c ****       (HAL_IS_BIT_SET(huart->Instance->CR3, USART_CR3_DMAR)))
 2284              		.loc 1 1121 50 discriminator 1
 2285 0060 402B     		cmp	r3, #64
 2286 0062 13D1     		bne	.L115
1123:d:/LiteOS_Lab/drivers/third_party/ST/STM32L4xx_HAL_Driver/Src\stm32l4xx_hal_uart.c ****   {
1124:d:/LiteOS_Lab/drivers/third_party/ST/STM32L4xx_HAL_Driver/Src\stm32l4xx_hal_uart.c ****     CLEAR_BIT(huart->Instance->CR3, USART_CR3_DMAR);
 2287              		.loc 1 1124 5
 2288 0064 7B68     		ldr	r3, [r7, #4]
 2289 0066 1B68     		ldr	r3, [r3]
 2290 0068 9A68     		ldr	r2, [r3, #8]
 2291 006a 7B68     		ldr	r3, [r7, #4]
 2292 006c 1B68     		ldr	r3, [r3]
 2293 006e 22F04002 		bic	r2, r2, #64
 2294 0072 9A60     		str	r2, [r3, #8]
1125:d:/LiteOS_Lab/drivers/third_party/ST/STM32L4xx_HAL_Driver/Src\stm32l4xx_hal_uart.c **** 
1126:d:/LiteOS_Lab/drivers/third_party/ST/STM32L4xx_HAL_Driver/Src\stm32l4xx_hal_uart.c ****     /* Abort the UART DMA Rx channel */
1127:d:/LiteOS_Lab/drivers/third_party/ST/STM32L4xx_HAL_Driver/Src\stm32l4xx_hal_uart.c ****     if(huart->hdmarx != NULL)
 2295              		.loc 1 1127 13
 2296 0074 7B68     		ldr	r3, [r7, #4]
 2297 0076 DB6E     		ldr	r3, [r3, #108]
 2298              		.loc 1 1127 7
 2299 0078 002B     		cmp	r3, #0
 2300 007a 04D0     		beq	.L116
1128:d:/LiteOS_Lab/drivers/third_party/ST/STM32L4xx_HAL_Driver/Src\stm32l4xx_hal_uart.c ****     {
1129:d:/LiteOS_Lab/drivers/third_party/ST/STM32L4xx_HAL_Driver/Src\stm32l4xx_hal_uart.c ****       HAL_DMA_Abort(huart->hdmarx);
 2301              		.loc 1 1129 7
 2302 007c 7B68     		ldr	r3, [r7, #4]
 2303 007e DB6E     		ldr	r3, [r3, #108]
 2304 0080 1846     		mov	r0, r3
 2305 0082 FFF7FEFF 		bl	HAL_DMA_Abort
 2306              	.L116:
1130:d:/LiteOS_Lab/drivers/third_party/ST/STM32L4xx_HAL_Driver/Src\stm32l4xx_hal_uart.c ****     }
1131:d:/LiteOS_Lab/drivers/third_party/ST/STM32L4xx_HAL_Driver/Src\stm32l4xx_hal_uart.c **** 
1132:d:/LiteOS_Lab/drivers/third_party/ST/STM32L4xx_HAL_Driver/Src\stm32l4xx_hal_uart.c ****     UART_EndRxTransfer(huart);
 2307              		.loc 1 1132 5
 2308 0086 7868     		ldr	r0, [r7, #4]
 2309 0088 FFF7FEFF 		bl	UART_EndRxTransfer
 2310              	.L115:
1133:d:/LiteOS_Lab/drivers/third_party/ST/STM32L4xx_HAL_Driver/Src\stm32l4xx_hal_uart.c ****   }
ARM GAS  C:\Users\ADMINI~1\AppData\Local\Temp\ccHDbRvY.s 			page 61


1134:d:/LiteOS_Lab/drivers/third_party/ST/STM32L4xx_HAL_Driver/Src\stm32l4xx_hal_uart.c **** 
1135:d:/LiteOS_Lab/drivers/third_party/ST/STM32L4xx_HAL_Driver/Src\stm32l4xx_hal_uart.c ****   return HAL_OK;
 2311              		.loc 1 1135 10
 2312 008c 0023     		movs	r3, #0
1136:d:/LiteOS_Lab/drivers/third_party/ST/STM32L4xx_HAL_Driver/Src\stm32l4xx_hal_uart.c **** }
 2313              		.loc 1 1136 1
 2314 008e 1846     		mov	r0, r3
 2315 0090 0837     		adds	r7, r7, #8
 2316              	.LCFI84:
 2317              		.cfi_def_cfa_offset 8
 2318 0092 BD46     		mov	sp, r7
 2319              	.LCFI85:
 2320              		.cfi_def_cfa_register 13
 2321              		@ sp needed
 2322 0094 80BD     		pop	{r7, pc}
 2323              		.cfi_endproc
 2324              	.LFE302:
 2326              		.section	.text.HAL_UART_Abort,"ax",%progbits
 2327              		.align	1
 2328              		.global	HAL_UART_Abort
 2329              		.syntax unified
 2330              		.thumb
 2331              		.thumb_func
 2332              		.fpu fpv4-sp-d16
 2334              	HAL_UART_Abort:
 2335              	.LFB303:
1137:d:/LiteOS_Lab/drivers/third_party/ST/STM32L4xx_HAL_Driver/Src\stm32l4xx_hal_uart.c **** 
1138:d:/LiteOS_Lab/drivers/third_party/ST/STM32L4xx_HAL_Driver/Src\stm32l4xx_hal_uart.c **** /**
1139:d:/LiteOS_Lab/drivers/third_party/ST/STM32L4xx_HAL_Driver/Src\stm32l4xx_hal_uart.c ****   * @brief  Abort ongoing transfers (blocking mode).
1140:d:/LiteOS_Lab/drivers/third_party/ST/STM32L4xx_HAL_Driver/Src\stm32l4xx_hal_uart.c ****   * @param  huart UART handle.
1141:d:/LiteOS_Lab/drivers/third_party/ST/STM32L4xx_HAL_Driver/Src\stm32l4xx_hal_uart.c ****   * @note   This procedure could be used for aborting any ongoing transfer started in Interrupt or 
1142:d:/LiteOS_Lab/drivers/third_party/ST/STM32L4xx_HAL_Driver/Src\stm32l4xx_hal_uart.c ****   *         This procedure performs following operations :
1143:d:/LiteOS_Lab/drivers/third_party/ST/STM32L4xx_HAL_Driver/Src\stm32l4xx_hal_uart.c ****   *           - Disable UART Interrupts (Tx and Rx)
1144:d:/LiteOS_Lab/drivers/third_party/ST/STM32L4xx_HAL_Driver/Src\stm32l4xx_hal_uart.c ****   *           - Disable the DMA transfer in the peripheral register (if enabled)
1145:d:/LiteOS_Lab/drivers/third_party/ST/STM32L4xx_HAL_Driver/Src\stm32l4xx_hal_uart.c ****   *           - Abort DMA transfer by calling HAL_DMA_Abort (in case of transfer in DMA mode)
1146:d:/LiteOS_Lab/drivers/third_party/ST/STM32L4xx_HAL_Driver/Src\stm32l4xx_hal_uart.c ****   *           - Set handle State to READY
1147:d:/LiteOS_Lab/drivers/third_party/ST/STM32L4xx_HAL_Driver/Src\stm32l4xx_hal_uart.c ****   * @note   This procedure is executed in blocking mode : when exiting function, Abort is considere
1148:d:/LiteOS_Lab/drivers/third_party/ST/STM32L4xx_HAL_Driver/Src\stm32l4xx_hal_uart.c ****   * @retval HAL status
1149:d:/LiteOS_Lab/drivers/third_party/ST/STM32L4xx_HAL_Driver/Src\stm32l4xx_hal_uart.c **** */
1150:d:/LiteOS_Lab/drivers/third_party/ST/STM32L4xx_HAL_Driver/Src\stm32l4xx_hal_uart.c **** HAL_StatusTypeDef HAL_UART_Abort(UART_HandleTypeDef *huart)
1151:d:/LiteOS_Lab/drivers/third_party/ST/STM32L4xx_HAL_Driver/Src\stm32l4xx_hal_uart.c **** {
 2336              		.loc 1 1151 1
 2337              		.cfi_startproc
 2338              		@ args = 0, pretend = 0, frame = 8
 2339              		@ frame_needed = 1, uses_anonymous_args = 0
 2340 0000 80B5     		push	{r7, lr}
 2341              	.LCFI86:
 2342              		.cfi_def_cfa_offset 8
 2343              		.cfi_offset 7, -8
 2344              		.cfi_offset 14, -4
 2345 0002 82B0     		sub	sp, sp, #8
 2346              	.LCFI87:
 2347              		.cfi_def_cfa_offset 16
 2348 0004 00AF     		add	r7, sp, #0
 2349              	.LCFI88:
 2350              		.cfi_def_cfa_register 7
 2351 0006 7860     		str	r0, [r7, #4]
ARM GAS  C:\Users\ADMINI~1\AppData\Local\Temp\ccHDbRvY.s 			page 62


1152:d:/LiteOS_Lab/drivers/third_party/ST/STM32L4xx_HAL_Driver/Src\stm32l4xx_hal_uart.c ****   /* Disable TXEIE, TCIE, RXNE, PE and ERR (Frame error, noise error, overrun error) interrupts */
1153:d:/LiteOS_Lab/drivers/third_party/ST/STM32L4xx_HAL_Driver/Src\stm32l4xx_hal_uart.c ****   CLEAR_BIT(huart->Instance->CR1, (USART_CR1_RXNEIE | USART_CR1_PEIE | USART_CR1_TXEIE | USART_CR1_
 2352              		.loc 1 1153 3
 2353 0008 7B68     		ldr	r3, [r7, #4]
 2354 000a 1B68     		ldr	r3, [r3]
 2355 000c 1A68     		ldr	r2, [r3]
 2356 000e 7B68     		ldr	r3, [r7, #4]
 2357 0010 1B68     		ldr	r3, [r3]
 2358 0012 22F4F072 		bic	r2, r2, #480
 2359 0016 1A60     		str	r2, [r3]
1154:d:/LiteOS_Lab/drivers/third_party/ST/STM32L4xx_HAL_Driver/Src\stm32l4xx_hal_uart.c ****   CLEAR_BIT(huart->Instance->CR3, USART_CR3_EIE);
 2360              		.loc 1 1154 3
 2361 0018 7B68     		ldr	r3, [r7, #4]
 2362 001a 1B68     		ldr	r3, [r3]
 2363 001c 9A68     		ldr	r2, [r3, #8]
 2364 001e 7B68     		ldr	r3, [r7, #4]
 2365 0020 1B68     		ldr	r3, [r3]
 2366 0022 22F00102 		bic	r2, r2, #1
 2367 0026 9A60     		str	r2, [r3, #8]
1155:d:/LiteOS_Lab/drivers/third_party/ST/STM32L4xx_HAL_Driver/Src\stm32l4xx_hal_uart.c **** 
1156:d:/LiteOS_Lab/drivers/third_party/ST/STM32L4xx_HAL_Driver/Src\stm32l4xx_hal_uart.c ****   /* Disable the UART DMA Tx request if enabled */
1157:d:/LiteOS_Lab/drivers/third_party/ST/STM32L4xx_HAL_Driver/Src\stm32l4xx_hal_uart.c ****   if (HAL_IS_BIT_SET(huart->Instance->CR3, USART_CR3_DMAT))
 2368              		.loc 1 1157 7
 2369 0028 7B68     		ldr	r3, [r7, #4]
 2370 002a 1B68     		ldr	r3, [r3]
 2371 002c 9B68     		ldr	r3, [r3, #8]
 2372 002e 03F08003 		and	r3, r3, #128
 2373              		.loc 1 1157 6
 2374 0032 802B     		cmp	r3, #128
 2375 0034 14D1     		bne	.L119
1158:d:/LiteOS_Lab/drivers/third_party/ST/STM32L4xx_HAL_Driver/Src\stm32l4xx_hal_uart.c ****   {
1159:d:/LiteOS_Lab/drivers/third_party/ST/STM32L4xx_HAL_Driver/Src\stm32l4xx_hal_uart.c ****     CLEAR_BIT(huart->Instance->CR3, USART_CR3_DMAT);
 2376              		.loc 1 1159 5
 2377 0036 7B68     		ldr	r3, [r7, #4]
 2378 0038 1B68     		ldr	r3, [r3]
 2379 003a 9A68     		ldr	r2, [r3, #8]
 2380 003c 7B68     		ldr	r3, [r7, #4]
 2381 003e 1B68     		ldr	r3, [r3]
 2382 0040 22F08002 		bic	r2, r2, #128
 2383 0044 9A60     		str	r2, [r3, #8]
1160:d:/LiteOS_Lab/drivers/third_party/ST/STM32L4xx_HAL_Driver/Src\stm32l4xx_hal_uart.c **** 
1161:d:/LiteOS_Lab/drivers/third_party/ST/STM32L4xx_HAL_Driver/Src\stm32l4xx_hal_uart.c ****     /* Abort the UART DMA Tx channel : use blocking DMA Abort API (no callback) */
1162:d:/LiteOS_Lab/drivers/third_party/ST/STM32L4xx_HAL_Driver/Src\stm32l4xx_hal_uart.c ****     if(huart->hdmatx != NULL)
 2384              		.loc 1 1162 13
 2385 0046 7B68     		ldr	r3, [r7, #4]
 2386 0048 9B6E     		ldr	r3, [r3, #104]
 2387              		.loc 1 1162 7
 2388 004a 002B     		cmp	r3, #0
 2389 004c 08D0     		beq	.L119
1163:d:/LiteOS_Lab/drivers/third_party/ST/STM32L4xx_HAL_Driver/Src\stm32l4xx_hal_uart.c ****     {
1164:d:/LiteOS_Lab/drivers/third_party/ST/STM32L4xx_HAL_Driver/Src\stm32l4xx_hal_uart.c ****       /* Set the UART DMA Abort callback to Null. 
1165:d:/LiteOS_Lab/drivers/third_party/ST/STM32L4xx_HAL_Driver/Src\stm32l4xx_hal_uart.c ****          No call back execution at end of DMA abort procedure */
1166:d:/LiteOS_Lab/drivers/third_party/ST/STM32L4xx_HAL_Driver/Src\stm32l4xx_hal_uart.c ****       huart->hdmatx->XferAbortCallback = NULL;
 2390              		.loc 1 1166 12
 2391 004e 7B68     		ldr	r3, [r7, #4]
 2392 0050 9B6E     		ldr	r3, [r3, #104]
 2393              		.loc 1 1166 40
ARM GAS  C:\Users\ADMINI~1\AppData\Local\Temp\ccHDbRvY.s 			page 63


 2394 0052 0022     		movs	r2, #0
 2395 0054 9A63     		str	r2, [r3, #56]
1167:d:/LiteOS_Lab/drivers/third_party/ST/STM32L4xx_HAL_Driver/Src\stm32l4xx_hal_uart.c **** 
1168:d:/LiteOS_Lab/drivers/third_party/ST/STM32L4xx_HAL_Driver/Src\stm32l4xx_hal_uart.c ****       HAL_DMA_Abort(huart->hdmatx);
 2396              		.loc 1 1168 7
 2397 0056 7B68     		ldr	r3, [r7, #4]
 2398 0058 9B6E     		ldr	r3, [r3, #104]
 2399 005a 1846     		mov	r0, r3
 2400 005c FFF7FEFF 		bl	HAL_DMA_Abort
 2401              	.L119:
1169:d:/LiteOS_Lab/drivers/third_party/ST/STM32L4xx_HAL_Driver/Src\stm32l4xx_hal_uart.c ****     }
1170:d:/LiteOS_Lab/drivers/third_party/ST/STM32L4xx_HAL_Driver/Src\stm32l4xx_hal_uart.c ****   }
1171:d:/LiteOS_Lab/drivers/third_party/ST/STM32L4xx_HAL_Driver/Src\stm32l4xx_hal_uart.c **** 
1172:d:/LiteOS_Lab/drivers/third_party/ST/STM32L4xx_HAL_Driver/Src\stm32l4xx_hal_uart.c ****   /* Disable the UART DMA Rx request if enabled */
1173:d:/LiteOS_Lab/drivers/third_party/ST/STM32L4xx_HAL_Driver/Src\stm32l4xx_hal_uart.c ****   if (HAL_IS_BIT_SET(huart->Instance->CR3, USART_CR3_DMAR))
 2402              		.loc 1 1173 7
 2403 0060 7B68     		ldr	r3, [r7, #4]
 2404 0062 1B68     		ldr	r3, [r3]
 2405 0064 9B68     		ldr	r3, [r3, #8]
 2406 0066 03F04003 		and	r3, r3, #64
 2407              		.loc 1 1173 6
 2408 006a 402B     		cmp	r3, #64
 2409 006c 14D1     		bne	.L120
1174:d:/LiteOS_Lab/drivers/third_party/ST/STM32L4xx_HAL_Driver/Src\stm32l4xx_hal_uart.c ****   {
1175:d:/LiteOS_Lab/drivers/third_party/ST/STM32L4xx_HAL_Driver/Src\stm32l4xx_hal_uart.c ****     CLEAR_BIT(huart->Instance->CR3, USART_CR3_DMAR);
 2410              		.loc 1 1175 5
 2411 006e 7B68     		ldr	r3, [r7, #4]
 2412 0070 1B68     		ldr	r3, [r3]
 2413 0072 9A68     		ldr	r2, [r3, #8]
 2414 0074 7B68     		ldr	r3, [r7, #4]
 2415 0076 1B68     		ldr	r3, [r3]
 2416 0078 22F04002 		bic	r2, r2, #64
 2417 007c 9A60     		str	r2, [r3, #8]
1176:d:/LiteOS_Lab/drivers/third_party/ST/STM32L4xx_HAL_Driver/Src\stm32l4xx_hal_uart.c **** 
1177:d:/LiteOS_Lab/drivers/third_party/ST/STM32L4xx_HAL_Driver/Src\stm32l4xx_hal_uart.c ****     /* Abort the UART DMA Rx channel : use blocking DMA Abort API (no callback) */
1178:d:/LiteOS_Lab/drivers/third_party/ST/STM32L4xx_HAL_Driver/Src\stm32l4xx_hal_uart.c ****     if(huart->hdmarx != NULL)
 2418              		.loc 1 1178 13
 2419 007e 7B68     		ldr	r3, [r7, #4]
 2420 0080 DB6E     		ldr	r3, [r3, #108]
 2421              		.loc 1 1178 7
 2422 0082 002B     		cmp	r3, #0
 2423 0084 08D0     		beq	.L120
1179:d:/LiteOS_Lab/drivers/third_party/ST/STM32L4xx_HAL_Driver/Src\stm32l4xx_hal_uart.c ****     {
1180:d:/LiteOS_Lab/drivers/third_party/ST/STM32L4xx_HAL_Driver/Src\stm32l4xx_hal_uart.c ****       /* Set the UART DMA Abort callback to Null. 
1181:d:/LiteOS_Lab/drivers/third_party/ST/STM32L4xx_HAL_Driver/Src\stm32l4xx_hal_uart.c ****          No call back execution at end of DMA abort procedure */
1182:d:/LiteOS_Lab/drivers/third_party/ST/STM32L4xx_HAL_Driver/Src\stm32l4xx_hal_uart.c ****       huart->hdmarx->XferAbortCallback = NULL;
 2424              		.loc 1 1182 12
 2425 0086 7B68     		ldr	r3, [r7, #4]
 2426 0088 DB6E     		ldr	r3, [r3, #108]
 2427              		.loc 1 1182 40
 2428 008a 0022     		movs	r2, #0
 2429 008c 9A63     		str	r2, [r3, #56]
1183:d:/LiteOS_Lab/drivers/third_party/ST/STM32L4xx_HAL_Driver/Src\stm32l4xx_hal_uart.c **** 
1184:d:/LiteOS_Lab/drivers/third_party/ST/STM32L4xx_HAL_Driver/Src\stm32l4xx_hal_uart.c ****       HAL_DMA_Abort(huart->hdmarx);
 2430              		.loc 1 1184 7
 2431 008e 7B68     		ldr	r3, [r7, #4]
 2432 0090 DB6E     		ldr	r3, [r3, #108]
ARM GAS  C:\Users\ADMINI~1\AppData\Local\Temp\ccHDbRvY.s 			page 64


 2433 0092 1846     		mov	r0, r3
 2434 0094 FFF7FEFF 		bl	HAL_DMA_Abort
 2435              	.L120:
1185:d:/LiteOS_Lab/drivers/third_party/ST/STM32L4xx_HAL_Driver/Src\stm32l4xx_hal_uart.c ****     }
1186:d:/LiteOS_Lab/drivers/third_party/ST/STM32L4xx_HAL_Driver/Src\stm32l4xx_hal_uart.c ****   }
1187:d:/LiteOS_Lab/drivers/third_party/ST/STM32L4xx_HAL_Driver/Src\stm32l4xx_hal_uart.c **** 
1188:d:/LiteOS_Lab/drivers/third_party/ST/STM32L4xx_HAL_Driver/Src\stm32l4xx_hal_uart.c ****   /* Reset Tx and Rx transfer counters */
1189:d:/LiteOS_Lab/drivers/third_party/ST/STM32L4xx_HAL_Driver/Src\stm32l4xx_hal_uart.c ****   huart->TxXferCount = 0; 
 2436              		.loc 1 1189 22
 2437 0098 7B68     		ldr	r3, [r7, #4]
 2438 009a 0022     		movs	r2, #0
 2439 009c A3F85220 		strh	r2, [r3, #82]	@ movhi
1190:d:/LiteOS_Lab/drivers/third_party/ST/STM32L4xx_HAL_Driver/Src\stm32l4xx_hal_uart.c ****   huart->RxXferCount = 0; 
 2440              		.loc 1 1190 22
 2441 00a0 7B68     		ldr	r3, [r7, #4]
 2442 00a2 0022     		movs	r2, #0
 2443 00a4 A3F85A20 		strh	r2, [r3, #90]	@ movhi
1191:d:/LiteOS_Lab/drivers/third_party/ST/STM32L4xx_HAL_Driver/Src\stm32l4xx_hal_uart.c **** 
1192:d:/LiteOS_Lab/drivers/third_party/ST/STM32L4xx_HAL_Driver/Src\stm32l4xx_hal_uart.c ****   /* Clear the Error flags in the ICR register */
1193:d:/LiteOS_Lab/drivers/third_party/ST/STM32L4xx_HAL_Driver/Src\stm32l4xx_hal_uart.c ****   __HAL_UART_CLEAR_FLAG(huart, UART_CLEAR_OREF | UART_CLEAR_NEF | UART_CLEAR_PEF | UART_CLEAR_FEF);
 2444              		.loc 1 1193 3
 2445 00a8 7B68     		ldr	r3, [r7, #4]
 2446 00aa 1B68     		ldr	r3, [r3]
 2447 00ac 0F22     		movs	r2, #15
 2448 00ae 1A62     		str	r2, [r3, #32]
1194:d:/LiteOS_Lab/drivers/third_party/ST/STM32L4xx_HAL_Driver/Src\stm32l4xx_hal_uart.c **** 
1195:d:/LiteOS_Lab/drivers/third_party/ST/STM32L4xx_HAL_Driver/Src\stm32l4xx_hal_uart.c ****   /* Restore huart->gState and huart->RxState to Ready */
1196:d:/LiteOS_Lab/drivers/third_party/ST/STM32L4xx_HAL_Driver/Src\stm32l4xx_hal_uart.c ****   huart->gState  = HAL_UART_STATE_READY;
 2449              		.loc 1 1196 18
 2450 00b0 7B68     		ldr	r3, [r7, #4]
 2451 00b2 2022     		movs	r2, #32
 2452 00b4 83F87120 		strb	r2, [r3, #113]
1197:d:/LiteOS_Lab/drivers/third_party/ST/STM32L4xx_HAL_Driver/Src\stm32l4xx_hal_uart.c ****   huart->RxState = HAL_UART_STATE_READY;
 2453              		.loc 1 1197 18
 2454 00b8 7B68     		ldr	r3, [r7, #4]
 2455 00ba 2022     		movs	r2, #32
 2456 00bc 83F87220 		strb	r2, [r3, #114]
1198:d:/LiteOS_Lab/drivers/third_party/ST/STM32L4xx_HAL_Driver/Src\stm32l4xx_hal_uart.c **** 
1199:d:/LiteOS_Lab/drivers/third_party/ST/STM32L4xx_HAL_Driver/Src\stm32l4xx_hal_uart.c ****   /* Reset Handle ErrorCode to No Error */
1200:d:/LiteOS_Lab/drivers/third_party/ST/STM32L4xx_HAL_Driver/Src\stm32l4xx_hal_uart.c ****   huart->ErrorCode = HAL_UART_ERROR_NONE;
 2457              		.loc 1 1200 20
 2458 00c0 7B68     		ldr	r3, [r7, #4]
 2459 00c2 0022     		movs	r2, #0
 2460 00c4 5A67     		str	r2, [r3, #116]
1201:d:/LiteOS_Lab/drivers/third_party/ST/STM32L4xx_HAL_Driver/Src\stm32l4xx_hal_uart.c **** 
1202:d:/LiteOS_Lab/drivers/third_party/ST/STM32L4xx_HAL_Driver/Src\stm32l4xx_hal_uart.c ****   return HAL_OK;
 2461              		.loc 1 1202 10
 2462 00c6 0023     		movs	r3, #0
1203:d:/LiteOS_Lab/drivers/third_party/ST/STM32L4xx_HAL_Driver/Src\stm32l4xx_hal_uart.c **** }
 2463              		.loc 1 1203 1
 2464 00c8 1846     		mov	r0, r3
 2465 00ca 0837     		adds	r7, r7, #8
 2466              	.LCFI89:
 2467              		.cfi_def_cfa_offset 8
 2468 00cc BD46     		mov	sp, r7
 2469              	.LCFI90:
 2470              		.cfi_def_cfa_register 13
ARM GAS  C:\Users\ADMINI~1\AppData\Local\Temp\ccHDbRvY.s 			page 65


 2471              		@ sp needed
 2472 00ce 80BD     		pop	{r7, pc}
 2473              		.cfi_endproc
 2474              	.LFE303:
 2476              		.section	.text.HAL_UART_AbortTransmit,"ax",%progbits
 2477              		.align	1
 2478              		.global	HAL_UART_AbortTransmit
 2479              		.syntax unified
 2480              		.thumb
 2481              		.thumb_func
 2482              		.fpu fpv4-sp-d16
 2484              	HAL_UART_AbortTransmit:
 2485              	.LFB304:
1204:d:/LiteOS_Lab/drivers/third_party/ST/STM32L4xx_HAL_Driver/Src\stm32l4xx_hal_uart.c **** 
1205:d:/LiteOS_Lab/drivers/third_party/ST/STM32L4xx_HAL_Driver/Src\stm32l4xx_hal_uart.c **** /**
1206:d:/LiteOS_Lab/drivers/third_party/ST/STM32L4xx_HAL_Driver/Src\stm32l4xx_hal_uart.c ****   * @brief  Abort ongoing Transmit transfer (blocking mode).
1207:d:/LiteOS_Lab/drivers/third_party/ST/STM32L4xx_HAL_Driver/Src\stm32l4xx_hal_uart.c ****   * @param  huart UART handle.
1208:d:/LiteOS_Lab/drivers/third_party/ST/STM32L4xx_HAL_Driver/Src\stm32l4xx_hal_uart.c ****   * @note   This procedure could be used for aborting any ongoing Tx transfer started in Interrupt 
1209:d:/LiteOS_Lab/drivers/third_party/ST/STM32L4xx_HAL_Driver/Src\stm32l4xx_hal_uart.c ****   *         This procedure performs following operations :
1210:d:/LiteOS_Lab/drivers/third_party/ST/STM32L4xx_HAL_Driver/Src\stm32l4xx_hal_uart.c ****   *           - Disable UART Interrupts (Tx)
