ARM GAS  C:\Users\ADMINI~1\AppData\Local\Temp\cciDrfVK.s 			page 1


   1              		.cpu cortex-m4
   2              		.eabi_attribute 27, 1
   3              		.eabi_attribute 28, 1
   4              		.eabi_attribute 20, 1
   5              		.eabi_attribute 21, 1
   6              		.eabi_attribute 23, 3
   7              		.eabi_attribute 24, 1
   8              		.eabi_attribute 25, 1
   9              		.eabi_attribute 26, 1
  10              		.eabi_attribute 30, 6
  11              		.eabi_attribute 34, 1
  12              		.eabi_attribute 18, 4
  13              		.file	"stm32l4xx_hal_pwr_ex.c"
  14              		.text
  15              	.Ltext0:
  16              		.cfi_sections	.debug_frame
  17              		.section	.text.HAL_PWREx_GetVoltageRange,"ax",%progbits
  18              		.align	1
  19              		.global	HAL_PWREx_GetVoltageRange
  20              		.arch armv7e-m
  21              		.syntax unified
  22              		.thumb
  23              		.thumb_func
  24              		.fpu fpv4-sp-d16
  26              	HAL_PWREx_GetVoltageRange:
  27              	.LFB287:
  28              		.file 1 "d:/LiteOS_Lab/drivers/third_party/ST/STM32L4xx_HAL_Driver/Src/stm32l4xx_hal_pwr_ex.c"
   1:d:/LiteOS_Lab/drivers/third_party/ST/STM32L4xx_HAL_Driver/Src\stm32l4xx_hal_pwr_ex.c **** /**
   2:d:/LiteOS_Lab/drivers/third_party/ST/STM32L4xx_HAL_Driver/Src\stm32l4xx_hal_pwr_ex.c ****   ******************************************************************************
   3:d:/LiteOS_Lab/drivers/third_party/ST/STM32L4xx_HAL_Driver/Src\stm32l4xx_hal_pwr_ex.c ****   * @file    stm32l4xx_hal_pwr_ex.c
   4:d:/LiteOS_Lab/drivers/third_party/ST/STM32L4xx_HAL_Driver/Src\stm32l4xx_hal_pwr_ex.c ****   * @author  MCD Application Team
   5:d:/LiteOS_Lab/drivers/third_party/ST/STM32L4xx_HAL_Driver/Src\stm32l4xx_hal_pwr_ex.c ****   * @brief   Extended PWR HAL module driver.
   6:d:/LiteOS_Lab/drivers/third_party/ST/STM32L4xx_HAL_Driver/Src\stm32l4xx_hal_pwr_ex.c ****   *          This file provides firmware functions to manage the following
   7:d:/LiteOS_Lab/drivers/third_party/ST/STM32L4xx_HAL_Driver/Src\stm32l4xx_hal_pwr_ex.c ****   *          functionalities of the Power Controller (PWR) peripheral:
   8:d:/LiteOS_Lab/drivers/third_party/ST/STM32L4xx_HAL_Driver/Src\stm32l4xx_hal_pwr_ex.c ****   *           + Extended Initialization and de-initialization functions
   9:d:/LiteOS_Lab/drivers/third_party/ST/STM32L4xx_HAL_Driver/Src\stm32l4xx_hal_pwr_ex.c ****   *           + Extended Peripheral Control functions
  10:d:/LiteOS_Lab/drivers/third_party/ST/STM32L4xx_HAL_Driver/Src\stm32l4xx_hal_pwr_ex.c ****   *         
  11:d:/LiteOS_Lab/drivers/third_party/ST/STM32L4xx_HAL_Driver/Src\stm32l4xx_hal_pwr_ex.c ****   ******************************************************************************
  12:d:/LiteOS_Lab/drivers/third_party/ST/STM32L4xx_HAL_Driver/Src\stm32l4xx_hal_pwr_ex.c ****   * @attention
  13:d:/LiteOS_Lab/drivers/third_party/ST/STM32L4xx_HAL_Driver/Src\stm32l4xx_hal_pwr_ex.c ****   *
  14:d:/LiteOS_Lab/drivers/third_party/ST/STM32L4xx_HAL_Driver/Src\stm32l4xx_hal_pwr_ex.c ****   * <h2><center>&copy; COPYRIGHT(c) 2017 STMicroelectronics</center></h2>
  15:d:/LiteOS_Lab/drivers/third_party/ST/STM32L4xx_HAL_Driver/Src\stm32l4xx_hal_pwr_ex.c ****   *
  16:d:/LiteOS_Lab/drivers/third_party/ST/STM32L4xx_HAL_Driver/Src\stm32l4xx_hal_pwr_ex.c ****   * Redistribution and use in source and binary forms, with or without modification,
  17:d:/LiteOS_Lab/drivers/third_party/ST/STM32L4xx_HAL_Driver/Src\stm32l4xx_hal_pwr_ex.c ****   * are permitted provided that the following conditions are met:
  18:d:/LiteOS_Lab/drivers/third_party/ST/STM32L4xx_HAL_Driver/Src\stm32l4xx_hal_pwr_ex.c ****   *   1. Redistributions of source code must retain the above copyright notice,
  19:d:/LiteOS_Lab/drivers/third_party/ST/STM32L4xx_HAL_Driver/Src\stm32l4xx_hal_pwr_ex.c ****   *      this list of conditions and the following disclaimer.
  20:d:/LiteOS_Lab/drivers/third_party/ST/STM32L4xx_HAL_Driver/Src\stm32l4xx_hal_pwr_ex.c ****   *   2. Redistributions in binary form must reproduce the above copyright notice,
  21:d:/LiteOS_Lab/drivers/third_party/ST/STM32L4xx_HAL_Driver/Src\stm32l4xx_hal_pwr_ex.c ****   *      this list of conditions and the following disclaimer in the documentation
  22:d:/LiteOS_Lab/drivers/third_party/ST/STM32L4xx_HAL_Driver/Src\stm32l4xx_hal_pwr_ex.c ****   *      and/or other materials provided with the distribution.
  23:d:/LiteOS_Lab/drivers/third_party/ST/STM32L4xx_HAL_Driver/Src\stm32l4xx_hal_pwr_ex.c ****   *   3. Neither the name of STMicroelectronics nor the names of its contributors
  24:d:/LiteOS_Lab/drivers/third_party/ST/STM32L4xx_HAL_Driver/Src\stm32l4xx_hal_pwr_ex.c ****   *      may be used to endorse or promote products derived from this software
  25:d:/LiteOS_Lab/drivers/third_party/ST/STM32L4xx_HAL_Driver/Src\stm32l4xx_hal_pwr_ex.c ****   *      without specific prior written permission.
  26:d:/LiteOS_Lab/drivers/third_party/ST/STM32L4xx_HAL_Driver/Src\stm32l4xx_hal_pwr_ex.c ****   *
  27:d:/LiteOS_Lab/drivers/third_party/ST/STM32L4xx_HAL_Driver/Src\stm32l4xx_hal_pwr_ex.c ****   * THIS SOFTWARE IS PROVIDED BY THE COPYRIGHT HOLDERS AND CONTRIBUTORS "AS IS"
  28:d:/LiteOS_Lab/drivers/third_party/ST/STM32L4xx_HAL_Driver/Src\stm32l4xx_hal_pwr_ex.c ****   * AND ANY EXPRESS OR IMPLIED WARRANTIES, INCLUDING, BUT NOT LIMITED TO, THE
  29:d:/LiteOS_Lab/drivers/third_party/ST/STM32L4xx_HAL_Driver/Src\stm32l4xx_hal_pwr_ex.c ****   * IMPLIED WARRANTIES OF MERCHANTABILITY AND FITNESS FOR A PARTICULAR PURPOSE ARE
  30:d:/LiteOS_Lab/drivers/third_party/ST/STM32L4xx_HAL_Driver/Src\stm32l4xx_hal_pwr_ex.c ****   * DISCLAIMED. IN NO EVENT SHALL THE COPYRIGHT HOLDER OR CONTRIBUTORS BE LIABLE
ARM GAS  C:\Users\ADMINI~1\AppData\Local\Temp\cciDrfVK.s 			page 2


  31:d:/LiteOS_Lab/drivers/third_party/ST/STM32L4xx_HAL_Driver/Src\stm32l4xx_hal_pwr_ex.c ****   * FOR ANY DIRECT, INDIRECT, INCIDENTAL, SPECIAL, EXEMPLARY, OR CONSEQUENTIAL
  32:d:/LiteOS_Lab/drivers/third_party/ST/STM32L4xx_HAL_Driver/Src\stm32l4xx_hal_pwr_ex.c ****   * DAMAGES (INCLUDING, BUT NOT LIMITED TO, PROCUREMENT OF SUBSTITUTE GOODS OR
  33:d:/LiteOS_Lab/drivers/third_party/ST/STM32L4xx_HAL_Driver/Src\stm32l4xx_hal_pwr_ex.c ****   * SERVICES; LOSS OF USE, DATA, OR PROFITS; OR BUSINESS INTERRUPTION) HOWEVER
  34:d:/LiteOS_Lab/drivers/third_party/ST/STM32L4xx_HAL_Driver/Src\stm32l4xx_hal_pwr_ex.c ****   * CAUSED AND ON ANY THEORY OF LIABILITY, WHETHER IN CONTRACT, STRICT LIABILITY,
  35:d:/LiteOS_Lab/drivers/third_party/ST/STM32L4xx_HAL_Driver/Src\stm32l4xx_hal_pwr_ex.c ****   * OR TORT (INCLUDING NEGLIGENCE OR OTHERWISE) ARISING IN ANY WAY OUT OF THE USE
  36:d:/LiteOS_Lab/drivers/third_party/ST/STM32L4xx_HAL_Driver/Src\stm32l4xx_hal_pwr_ex.c ****   * OF THIS SOFTWARE, EVEN IF ADVISED OF THE POSSIBILITY OF SUCH DAMAGE.
  37:d:/LiteOS_Lab/drivers/third_party/ST/STM32L4xx_HAL_Driver/Src\stm32l4xx_hal_pwr_ex.c ****   *
  38:d:/LiteOS_Lab/drivers/third_party/ST/STM32L4xx_HAL_Driver/Src\stm32l4xx_hal_pwr_ex.c ****   ******************************************************************************
  39:d:/LiteOS_Lab/drivers/third_party/ST/STM32L4xx_HAL_Driver/Src\stm32l4xx_hal_pwr_ex.c ****   */
  40:d:/LiteOS_Lab/drivers/third_party/ST/STM32L4xx_HAL_Driver/Src\stm32l4xx_hal_pwr_ex.c **** 
  41:d:/LiteOS_Lab/drivers/third_party/ST/STM32L4xx_HAL_Driver/Src\stm32l4xx_hal_pwr_ex.c **** /* Includes ------------------------------------------------------------------*/
  42:d:/LiteOS_Lab/drivers/third_party/ST/STM32L4xx_HAL_Driver/Src\stm32l4xx_hal_pwr_ex.c **** #include "stm32l4xx_hal.h"
  43:d:/LiteOS_Lab/drivers/third_party/ST/STM32L4xx_HAL_Driver/Src\stm32l4xx_hal_pwr_ex.c **** 
  44:d:/LiteOS_Lab/drivers/third_party/ST/STM32L4xx_HAL_Driver/Src\stm32l4xx_hal_pwr_ex.c **** /** @addtogroup STM32L4xx_HAL_Driver
  45:d:/LiteOS_Lab/drivers/third_party/ST/STM32L4xx_HAL_Driver/Src\stm32l4xx_hal_pwr_ex.c ****   * @{
  46:d:/LiteOS_Lab/drivers/third_party/ST/STM32L4xx_HAL_Driver/Src\stm32l4xx_hal_pwr_ex.c ****   */
  47:d:/LiteOS_Lab/drivers/third_party/ST/STM32L4xx_HAL_Driver/Src\stm32l4xx_hal_pwr_ex.c **** 
  48:d:/LiteOS_Lab/drivers/third_party/ST/STM32L4xx_HAL_Driver/Src\stm32l4xx_hal_pwr_ex.c **** /** @defgroup PWREx PWREx
  49:d:/LiteOS_Lab/drivers/third_party/ST/STM32L4xx_HAL_Driver/Src\stm32l4xx_hal_pwr_ex.c ****   * @brief PWR Extended HAL module driver
  50:d:/LiteOS_Lab/drivers/third_party/ST/STM32L4xx_HAL_Driver/Src\stm32l4xx_hal_pwr_ex.c ****   * @{
  51:d:/LiteOS_Lab/drivers/third_party/ST/STM32L4xx_HAL_Driver/Src\stm32l4xx_hal_pwr_ex.c ****   */
  52:d:/LiteOS_Lab/drivers/third_party/ST/STM32L4xx_HAL_Driver/Src\stm32l4xx_hal_pwr_ex.c **** 
  53:d:/LiteOS_Lab/drivers/third_party/ST/STM32L4xx_HAL_Driver/Src\stm32l4xx_hal_pwr_ex.c **** #ifdef HAL_PWR_MODULE_ENABLED
  54:d:/LiteOS_Lab/drivers/third_party/ST/STM32L4xx_HAL_Driver/Src\stm32l4xx_hal_pwr_ex.c **** 
  55:d:/LiteOS_Lab/drivers/third_party/ST/STM32L4xx_HAL_Driver/Src\stm32l4xx_hal_pwr_ex.c **** /* Private typedef -----------------------------------------------------------*/
  56:d:/LiteOS_Lab/drivers/third_party/ST/STM32L4xx_HAL_Driver/Src\stm32l4xx_hal_pwr_ex.c **** /* Private define ------------------------------------------------------------*/
  57:d:/LiteOS_Lab/drivers/third_party/ST/STM32L4xx_HAL_Driver/Src\stm32l4xx_hal_pwr_ex.c **** 
  58:d:/LiteOS_Lab/drivers/third_party/ST/STM32L4xx_HAL_Driver/Src\stm32l4xx_hal_pwr_ex.c **** #if defined (STM32L431xx) || defined (STM32L432xx) || defined (STM32L433xx) || defined (STM32L442xx
  59:d:/LiteOS_Lab/drivers/third_party/ST/STM32L4xx_HAL_Driver/Src\stm32l4xx_hal_pwr_ex.c **** #define PWR_PORTH_AVAILABLE_PINS   ((uint32_t)0x0000000B) /* PH0/PH1/PH3 */
  60:d:/LiteOS_Lab/drivers/third_party/ST/STM32L4xx_HAL_Driver/Src\stm32l4xx_hal_pwr_ex.c **** #elif defined (STM32L451xx) || defined (STM32L452xx) || defined (STM32L462xx)
  61:d:/LiteOS_Lab/drivers/third_party/ST/STM32L4xx_HAL_Driver/Src\stm32l4xx_hal_pwr_ex.c **** #define PWR_PORTH_AVAILABLE_PINS   ((uint32_t)0x0000000B) /* PH0/PH1/PH3 */
  62:d:/LiteOS_Lab/drivers/third_party/ST/STM32L4xx_HAL_Driver/Src\stm32l4xx_hal_pwr_ex.c **** #elif defined (STM32L471xx) || defined (STM32L475xx) || defined (STM32L476xx) || defined (STM32L485
  63:d:/LiteOS_Lab/drivers/third_party/ST/STM32L4xx_HAL_Driver/Src\stm32l4xx_hal_pwr_ex.c **** #define PWR_PORTH_AVAILABLE_PINS   ((uint32_t)0x00000003) /* PH0/PH1 */
  64:d:/LiteOS_Lab/drivers/third_party/ST/STM32L4xx_HAL_Driver/Src\stm32l4xx_hal_pwr_ex.c **** #elif defined (STM32L496xx) || defined (STM32L4A6xx) || defined (STM32L4R5xx) || defined (STM32L4R7
  65:d:/LiteOS_Lab/drivers/third_party/ST/STM32L4xx_HAL_Driver/Src\stm32l4xx_hal_pwr_ex.c **** #define PWR_PORTH_AVAILABLE_PINS   ((uint32_t)0x0000FFFF) /* PH0..PH15 */
  66:d:/LiteOS_Lab/drivers/third_party/ST/STM32L4xx_HAL_Driver/Src\stm32l4xx_hal_pwr_ex.c **** #endif
  67:d:/LiteOS_Lab/drivers/third_party/ST/STM32L4xx_HAL_Driver/Src\stm32l4xx_hal_pwr_ex.c **** 
  68:d:/LiteOS_Lab/drivers/third_party/ST/STM32L4xx_HAL_Driver/Src\stm32l4xx_hal_pwr_ex.c **** #if defined (STM32L496xx) || defined (STM32L4A6xx) || defined (STM32L4R5xx) || defined (STM32L4R7xx
  69:d:/LiteOS_Lab/drivers/third_party/ST/STM32L4xx_HAL_Driver/Src\stm32l4xx_hal_pwr_ex.c **** #define PWR_PORTI_AVAILABLE_PINS   ((uint32_t)0x00000FFF) /* PI0..PI11 */
  70:d:/LiteOS_Lab/drivers/third_party/ST/STM32L4xx_HAL_Driver/Src\stm32l4xx_hal_pwr_ex.c **** #endif
  71:d:/LiteOS_Lab/drivers/third_party/ST/STM32L4xx_HAL_Driver/Src\stm32l4xx_hal_pwr_ex.c **** 
  72:d:/LiteOS_Lab/drivers/third_party/ST/STM32L4xx_HAL_Driver/Src\stm32l4xx_hal_pwr_ex.c **** /** @defgroup PWR_Extended_Private_Defines PWR Extended Private Defines
  73:d:/LiteOS_Lab/drivers/third_party/ST/STM32L4xx_HAL_Driver/Src\stm32l4xx_hal_pwr_ex.c ****   * @{
  74:d:/LiteOS_Lab/drivers/third_party/ST/STM32L4xx_HAL_Driver/Src\stm32l4xx_hal_pwr_ex.c ****   */
  75:d:/LiteOS_Lab/drivers/third_party/ST/STM32L4xx_HAL_Driver/Src\stm32l4xx_hal_pwr_ex.c ****   
  76:d:/LiteOS_Lab/drivers/third_party/ST/STM32L4xx_HAL_Driver/Src\stm32l4xx_hal_pwr_ex.c **** /** @defgroup PWREx_PVM_Mode_Mask PWR PVM Mode Mask
  77:d:/LiteOS_Lab/drivers/third_party/ST/STM32L4xx_HAL_Driver/Src\stm32l4xx_hal_pwr_ex.c ****   * @{
  78:d:/LiteOS_Lab/drivers/third_party/ST/STM32L4xx_HAL_Driver/Src\stm32l4xx_hal_pwr_ex.c ****   */ 
  79:d:/LiteOS_Lab/drivers/third_party/ST/STM32L4xx_HAL_Driver/Src\stm32l4xx_hal_pwr_ex.c **** #define PVM_MODE_IT               ((uint32_t)0x00010000)  /*!< Mask for interruption yielded by PVM
  80:d:/LiteOS_Lab/drivers/third_party/ST/STM32L4xx_HAL_Driver/Src\stm32l4xx_hal_pwr_ex.c **** #define PVM_MODE_EVT              ((uint32_t)0x00020000)  /*!< Mask for event yielded by PVM thresh
  81:d:/LiteOS_Lab/drivers/third_party/ST/STM32L4xx_HAL_Driver/Src\stm32l4xx_hal_pwr_ex.c **** #define PVM_RISING_EDGE           ((uint32_t)0x00000001)  /*!< Mask for rising edge set as PVM trig
  82:d:/LiteOS_Lab/drivers/third_party/ST/STM32L4xx_HAL_Driver/Src\stm32l4xx_hal_pwr_ex.c **** #define PVM_FALLING_EDGE          ((uint32_t)0x00000002)  /*!< Mask for falling edge set as PVM tri
  83:d:/LiteOS_Lab/drivers/third_party/ST/STM32L4xx_HAL_Driver/Src\stm32l4xx_hal_pwr_ex.c **** /**
  84:d:/LiteOS_Lab/drivers/third_party/ST/STM32L4xx_HAL_Driver/Src\stm32l4xx_hal_pwr_ex.c ****   * @}
  85:d:/LiteOS_Lab/drivers/third_party/ST/STM32L4xx_HAL_Driver/Src\stm32l4xx_hal_pwr_ex.c ****   */
  86:d:/LiteOS_Lab/drivers/third_party/ST/STM32L4xx_HAL_Driver/Src\stm32l4xx_hal_pwr_ex.c ****   
  87:d:/LiteOS_Lab/drivers/third_party/ST/STM32L4xx_HAL_Driver/Src\stm32l4xx_hal_pwr_ex.c **** /** @defgroup PWREx_TimeOut_Value PWR Extended Flag Setting Time Out Value
ARM GAS  C:\Users\ADMINI~1\AppData\Local\Temp\cciDrfVK.s 			page 3


  88:d:/LiteOS_Lab/drivers/third_party/ST/STM32L4xx_HAL_Driver/Src\stm32l4xx_hal_pwr_ex.c ****   * @{
  89:d:/LiteOS_Lab/drivers/third_party/ST/STM32L4xx_HAL_Driver/Src\stm32l4xx_hal_pwr_ex.c ****   */ 
  90:d:/LiteOS_Lab/drivers/third_party/ST/STM32L4xx_HAL_Driver/Src\stm32l4xx_hal_pwr_ex.c **** #define PWR_FLAG_SETTING_DELAY_US                      50   /*!< Time out value for REGLPF and VOSF
  91:d:/LiteOS_Lab/drivers/third_party/ST/STM32L4xx_HAL_Driver/Src\stm32l4xx_hal_pwr_ex.c **** /**
  92:d:/LiteOS_Lab/drivers/third_party/ST/STM32L4xx_HAL_Driver/Src\stm32l4xx_hal_pwr_ex.c ****   * @}
  93:d:/LiteOS_Lab/drivers/third_party/ST/STM32L4xx_HAL_Driver/Src\stm32l4xx_hal_pwr_ex.c ****   */
  94:d:/LiteOS_Lab/drivers/third_party/ST/STM32L4xx_HAL_Driver/Src\stm32l4xx_hal_pwr_ex.c ****     
  95:d:/LiteOS_Lab/drivers/third_party/ST/STM32L4xx_HAL_Driver/Src\stm32l4xx_hal_pwr_ex.c ****   
  96:d:/LiteOS_Lab/drivers/third_party/ST/STM32L4xx_HAL_Driver/Src\stm32l4xx_hal_pwr_ex.c **** 
  97:d:/LiteOS_Lab/drivers/third_party/ST/STM32L4xx_HAL_Driver/Src\stm32l4xx_hal_pwr_ex.c **** /**
  98:d:/LiteOS_Lab/drivers/third_party/ST/STM32L4xx_HAL_Driver/Src\stm32l4xx_hal_pwr_ex.c ****   * @}
  99:d:/LiteOS_Lab/drivers/third_party/ST/STM32L4xx_HAL_Driver/Src\stm32l4xx_hal_pwr_ex.c ****   */
 100:d:/LiteOS_Lab/drivers/third_party/ST/STM32L4xx_HAL_Driver/Src\stm32l4xx_hal_pwr_ex.c **** 
 101:d:/LiteOS_Lab/drivers/third_party/ST/STM32L4xx_HAL_Driver/Src\stm32l4xx_hal_pwr_ex.c **** 
 102:d:/LiteOS_Lab/drivers/third_party/ST/STM32L4xx_HAL_Driver/Src\stm32l4xx_hal_pwr_ex.c **** 
 103:d:/LiteOS_Lab/drivers/third_party/ST/STM32L4xx_HAL_Driver/Src\stm32l4xx_hal_pwr_ex.c **** /* Private macro -------------------------------------------------------------*/
 104:d:/LiteOS_Lab/drivers/third_party/ST/STM32L4xx_HAL_Driver/Src\stm32l4xx_hal_pwr_ex.c **** /* Private variables ---------------------------------------------------------*/
 105:d:/LiteOS_Lab/drivers/third_party/ST/STM32L4xx_HAL_Driver/Src\stm32l4xx_hal_pwr_ex.c **** /* Private function prototypes -----------------------------------------------*/
 106:d:/LiteOS_Lab/drivers/third_party/ST/STM32L4xx_HAL_Driver/Src\stm32l4xx_hal_pwr_ex.c **** /* Exported functions --------------------------------------------------------*/
 107:d:/LiteOS_Lab/drivers/third_party/ST/STM32L4xx_HAL_Driver/Src\stm32l4xx_hal_pwr_ex.c ****   
 108:d:/LiteOS_Lab/drivers/third_party/ST/STM32L4xx_HAL_Driver/Src\stm32l4xx_hal_pwr_ex.c **** /** @defgroup PWREx_Exported_Functions PWR Extended Exported Functions
 109:d:/LiteOS_Lab/drivers/third_party/ST/STM32L4xx_HAL_Driver/Src\stm32l4xx_hal_pwr_ex.c ****   * @{
 110:d:/LiteOS_Lab/drivers/third_party/ST/STM32L4xx_HAL_Driver/Src\stm32l4xx_hal_pwr_ex.c ****   */
 111:d:/LiteOS_Lab/drivers/third_party/ST/STM32L4xx_HAL_Driver/Src\stm32l4xx_hal_pwr_ex.c **** 
 112:d:/LiteOS_Lab/drivers/third_party/ST/STM32L4xx_HAL_Driver/Src\stm32l4xx_hal_pwr_ex.c **** /** @defgroup PWREx_Exported_Functions_Group1 Extended Peripheral Control functions
 113:d:/LiteOS_Lab/drivers/third_party/ST/STM32L4xx_HAL_Driver/Src\stm32l4xx_hal_pwr_ex.c ****   *  @brief   Extended Peripheral Control functions
 114:d:/LiteOS_Lab/drivers/third_party/ST/STM32L4xx_HAL_Driver/Src\stm32l4xx_hal_pwr_ex.c ****   *
 115:d:/LiteOS_Lab/drivers/third_party/ST/STM32L4xx_HAL_Driver/Src\stm32l4xx_hal_pwr_ex.c **** @verbatim
 116:d:/LiteOS_Lab/drivers/third_party/ST/STM32L4xx_HAL_Driver/Src\stm32l4xx_hal_pwr_ex.c ****  ===============================================================================
 117:d:/LiteOS_Lab/drivers/third_party/ST/STM32L4xx_HAL_Driver/Src\stm32l4xx_hal_pwr_ex.c ****               ##### Extended Peripheral Initialization and de-initialization functions #####
 118:d:/LiteOS_Lab/drivers/third_party/ST/STM32L4xx_HAL_Driver/Src\stm32l4xx_hal_pwr_ex.c ****  ===============================================================================
 119:d:/LiteOS_Lab/drivers/third_party/ST/STM32L4xx_HAL_Driver/Src\stm32l4xx_hal_pwr_ex.c ****     [..]
 120:d:/LiteOS_Lab/drivers/third_party/ST/STM32L4xx_HAL_Driver/Src\stm32l4xx_hal_pwr_ex.c **** 
 121:d:/LiteOS_Lab/drivers/third_party/ST/STM32L4xx_HAL_Driver/Src\stm32l4xx_hal_pwr_ex.c **** @endverbatim
 122:d:/LiteOS_Lab/drivers/third_party/ST/STM32L4xx_HAL_Driver/Src\stm32l4xx_hal_pwr_ex.c ****   * @{
 123:d:/LiteOS_Lab/drivers/third_party/ST/STM32L4xx_HAL_Driver/Src\stm32l4xx_hal_pwr_ex.c ****   */
 124:d:/LiteOS_Lab/drivers/third_party/ST/STM32L4xx_HAL_Driver/Src\stm32l4xx_hal_pwr_ex.c ****   
 125:d:/LiteOS_Lab/drivers/third_party/ST/STM32L4xx_HAL_Driver/Src\stm32l4xx_hal_pwr_ex.c **** 
 126:d:/LiteOS_Lab/drivers/third_party/ST/STM32L4xx_HAL_Driver/Src\stm32l4xx_hal_pwr_ex.c **** /**
 127:d:/LiteOS_Lab/drivers/third_party/ST/STM32L4xx_HAL_Driver/Src\stm32l4xx_hal_pwr_ex.c ****   * @brief Return Voltage Scaling Range.
 128:d:/LiteOS_Lab/drivers/third_party/ST/STM32L4xx_HAL_Driver/Src\stm32l4xx_hal_pwr_ex.c ****   * @retval VOS bit field (PWR_REGULATOR_VOLTAGE_RANGE1 or PWR_REGULATOR_VOLTAGE_RANGE2 
 129:d:/LiteOS_Lab/drivers/third_party/ST/STM32L4xx_HAL_Driver/Src\stm32l4xx_hal_pwr_ex.c ****   *         or PWR_REGULATOR_VOLTAGE_SCALE1_BOOST when applicable)
 130:d:/LiteOS_Lab/drivers/third_party/ST/STM32L4xx_HAL_Driver/Src\stm32l4xx_hal_pwr_ex.c ****   */  
 131:d:/LiteOS_Lab/drivers/third_party/ST/STM32L4xx_HAL_Driver/Src\stm32l4xx_hal_pwr_ex.c **** uint32_t HAL_PWREx_GetVoltageRange(void)
 132:d:/LiteOS_Lab/drivers/third_party/ST/STM32L4xx_HAL_Driver/Src\stm32l4xx_hal_pwr_ex.c **** {
  29              		.loc 1 132 1
  30              		.cfi_startproc
  31              		@ args = 0, pretend = 0, frame = 0
  32              		@ frame_needed = 1, uses_anonymous_args = 0
  33              		@ link register save eliminated.
  34 0000 80B4     		push	{r7}
  35              	.LCFI0:
  36              		.cfi_def_cfa_offset 4
  37              		.cfi_offset 7, -4
  38 0002 00AF     		add	r7, sp, #0
  39              	.LCFI1:
  40              		.cfi_def_cfa_register 7
ARM GAS  C:\Users\ADMINI~1\AppData\Local\Temp\cciDrfVK.s 			page 4


 133:d:/LiteOS_Lab/drivers/third_party/ST/STM32L4xx_HAL_Driver/Src\stm32l4xx_hal_pwr_ex.c **** #if defined(PWR_CR5_R1MODE)
 134:d:/LiteOS_Lab/drivers/third_party/ST/STM32L4xx_HAL_Driver/Src\stm32l4xx_hal_pwr_ex.c ****     if (READ_BIT(PWR->CR1, PWR_CR1_VOS) == PWR_REGULATOR_VOLTAGE_SCALE2)
 135:d:/LiteOS_Lab/drivers/third_party/ST/STM32L4xx_HAL_Driver/Src\stm32l4xx_hal_pwr_ex.c ****     {
 136:d:/LiteOS_Lab/drivers/third_party/ST/STM32L4xx_HAL_Driver/Src\stm32l4xx_hal_pwr_ex.c ****       return PWR_REGULATOR_VOLTAGE_SCALE2;
 137:d:/LiteOS_Lab/drivers/third_party/ST/STM32L4xx_HAL_Driver/Src\stm32l4xx_hal_pwr_ex.c ****     }
 138:d:/LiteOS_Lab/drivers/third_party/ST/STM32L4xx_HAL_Driver/Src\stm32l4xx_hal_pwr_ex.c ****     else if (READ_BIT(PWR->CR5, PWR_CR5_R1MODE) == PWR_CR5_R1MODE)
 139:d:/LiteOS_Lab/drivers/third_party/ST/STM32L4xx_HAL_Driver/Src\stm32l4xx_hal_pwr_ex.c ****     {
 140:d:/LiteOS_Lab/drivers/third_party/ST/STM32L4xx_HAL_Driver/Src\stm32l4xx_hal_pwr_ex.c ****       /* PWR_CR5_R1MODE bit set means that Range 1 Boost is disabled */
 141:d:/LiteOS_Lab/drivers/third_party/ST/STM32L4xx_HAL_Driver/Src\stm32l4xx_hal_pwr_ex.c ****       return PWR_REGULATOR_VOLTAGE_SCALE1;
 142:d:/LiteOS_Lab/drivers/third_party/ST/STM32L4xx_HAL_Driver/Src\stm32l4xx_hal_pwr_ex.c ****     }
 143:d:/LiteOS_Lab/drivers/third_party/ST/STM32L4xx_HAL_Driver/Src\stm32l4xx_hal_pwr_ex.c ****     else
 144:d:/LiteOS_Lab/drivers/third_party/ST/STM32L4xx_HAL_Driver/Src\stm32l4xx_hal_pwr_ex.c ****     {
 145:d:/LiteOS_Lab/drivers/third_party/ST/STM32L4xx_HAL_Driver/Src\stm32l4xx_hal_pwr_ex.c ****       return PWR_REGULATOR_VOLTAGE_SCALE1_BOOST;
 146:d:/LiteOS_Lab/drivers/third_party/ST/STM32L4xx_HAL_Driver/Src\stm32l4xx_hal_pwr_ex.c ****     }
 147:d:/LiteOS_Lab/drivers/third_party/ST/STM32L4xx_HAL_Driver/Src\stm32l4xx_hal_pwr_ex.c **** #else
 148:d:/LiteOS_Lab/drivers/third_party/ST/STM32L4xx_HAL_Driver/Src\stm32l4xx_hal_pwr_ex.c ****   return  (PWR->CR1 & PWR_CR1_VOS);
  41              		.loc 1 148 15
  42 0004 044B     		ldr	r3, .L3
  43 0006 1B68     		ldr	r3, [r3]
  44              		.loc 1 148 21
  45 0008 03F4C063 		and	r3, r3, #1536
 149:d:/LiteOS_Lab/drivers/third_party/ST/STM32L4xx_HAL_Driver/Src\stm32l4xx_hal_pwr_ex.c **** #endif  
 150:d:/LiteOS_Lab/drivers/third_party/ST/STM32L4xx_HAL_Driver/Src\stm32l4xx_hal_pwr_ex.c **** }
  46              		.loc 1 150 1
  47 000c 1846     		mov	r0, r3
  48 000e BD46     		mov	sp, r7
  49              	.LCFI2:
  50              		.cfi_def_cfa_register 13
  51              		@ sp needed
  52 0010 5DF8047B 		ldr	r7, [sp], #4
  53              	.LCFI3:
  54              		.cfi_restore 7
  55              		.cfi_def_cfa_offset 0
  56 0014 7047     		bx	lr
  57              	.L4:
  58 0016 00BF     		.align	2
  59              	.L3:
  60 0018 00700040 		.word	1073770496
  61              		.cfi_endproc
  62              	.LFE287:
  64              		.section	.text.HAL_PWREx_ControlVoltageScaling,"ax",%progbits
  65              		.align	1
  66              		.global	HAL_PWREx_ControlVoltageScaling
  67              		.syntax unified
  68              		.thumb
  69              		.thumb_func
  70              		.fpu fpv4-sp-d16
  72              	HAL_PWREx_ControlVoltageScaling:
  73              	.LFB288:
 151:d:/LiteOS_Lab/drivers/third_party/ST/STM32L4xx_HAL_Driver/Src\stm32l4xx_hal_pwr_ex.c **** 
 152:d:/LiteOS_Lab/drivers/third_party/ST/STM32L4xx_HAL_Driver/Src\stm32l4xx_hal_pwr_ex.c ****   
 153:d:/LiteOS_Lab/drivers/third_party/ST/STM32L4xx_HAL_Driver/Src\stm32l4xx_hal_pwr_ex.c **** 
 154:d:/LiteOS_Lab/drivers/third_party/ST/STM32L4xx_HAL_Driver/Src\stm32l4xx_hal_pwr_ex.c **** /**
 155:d:/LiteOS_Lab/drivers/third_party/ST/STM32L4xx_HAL_Driver/Src\stm32l4xx_hal_pwr_ex.c ****   * @brief Configure the main internal regulator output voltage.
 156:d:/LiteOS_Lab/drivers/third_party/ST/STM32L4xx_HAL_Driver/Src\stm32l4xx_hal_pwr_ex.c ****   * @param  VoltageScaling: specifies the regulator output voltage to achieve
 157:d:/LiteOS_Lab/drivers/third_party/ST/STM32L4xx_HAL_Driver/Src\stm32l4xx_hal_pwr_ex.c ****   *         a tradeoff between performance and power consumption.
 158:d:/LiteOS_Lab/drivers/third_party/ST/STM32L4xx_HAL_Driver/Src\stm32l4xx_hal_pwr_ex.c ****   *          This parameter can be one of the following values:
ARM GAS  C:\Users\ADMINI~1\AppData\Local\Temp\cciDrfVK.s 			page 5


 159:d:/LiteOS_Lab/drivers/third_party/ST/STM32L4xx_HAL_Driver/Src\stm32l4xx_hal_pwr_ex.c ****   @if STM32L4S9xx
 160:d:/LiteOS_Lab/drivers/third_party/ST/STM32L4xx_HAL_Driver/Src\stm32l4xx_hal_pwr_ex.c ****   *            @arg @ref PWR_REGULATOR_VOLTAGE_SCALE1_BOOST when available, Regulator voltage outpu
 161:d:/LiteOS_Lab/drivers/third_party/ST/STM32L4xx_HAL_Driver/Src\stm32l4xx_hal_pwr_ex.c ****   *                                                typical output voltage at 1.2 V,                
 162:d:/LiteOS_Lab/drivers/third_party/ST/STM32L4xx_HAL_Driver/Src\stm32l4xx_hal_pwr_ex.c ****   *                                                system frequency up to 120 MHz.  
 163:d:/LiteOS_Lab/drivers/third_party/ST/STM32L4xx_HAL_Driver/Src\stm32l4xx_hal_pwr_ex.c ****   @endif
 164:d:/LiteOS_Lab/drivers/third_party/ST/STM32L4xx_HAL_Driver/Src\stm32l4xx_hal_pwr_ex.c ****   *            @arg @ref PWR_REGULATOR_VOLTAGE_SCALE1 Regulator voltage output range 1 mode,
 165:d:/LiteOS_Lab/drivers/third_party/ST/STM32L4xx_HAL_Driver/Src\stm32l4xx_hal_pwr_ex.c ****   *                                                typical output voltage at 1.2 V,  
 166:d:/LiteOS_Lab/drivers/third_party/ST/STM32L4xx_HAL_Driver/Src\stm32l4xx_hal_pwr_ex.c ****   *                                                system frequency up to 80 MHz.
 167:d:/LiteOS_Lab/drivers/third_party/ST/STM32L4xx_HAL_Driver/Src\stm32l4xx_hal_pwr_ex.c ****   *            @arg @ref PWR_REGULATOR_VOLTAGE_SCALE2 Regulator voltage output range 2 mode,
 168:d:/LiteOS_Lab/drivers/third_party/ST/STM32L4xx_HAL_Driver/Src\stm32l4xx_hal_pwr_ex.c ****   *                                                typical output voltage at 1.0 V,                
 169:d:/LiteOS_Lab/drivers/third_party/ST/STM32L4xx_HAL_Driver/Src\stm32l4xx_hal_pwr_ex.c ****   *                                                system frequency up to 26 MHz.
 170:d:/LiteOS_Lab/drivers/third_party/ST/STM32L4xx_HAL_Driver/Src\stm32l4xx_hal_pwr_ex.c ****   * @note  When moving from Range 1 to Range 2, the system frequency must be decreased to
 171:d:/LiteOS_Lab/drivers/third_party/ST/STM32L4xx_HAL_Driver/Src\stm32l4xx_hal_pwr_ex.c ****   *        a value below 26 MHz before calling HAL_PWREx_ControlVoltageScaling() API.
 172:d:/LiteOS_Lab/drivers/third_party/ST/STM32L4xx_HAL_Driver/Src\stm32l4xx_hal_pwr_ex.c ****   *        When moving from Range 2 to Range 1, the system frequency can be increased to
 173:d:/LiteOS_Lab/drivers/third_party/ST/STM32L4xx_HAL_Driver/Src\stm32l4xx_hal_pwr_ex.c ****   *        a value up to 80 MHz after calling HAL_PWREx_ControlVoltageScaling() API. For
 174:d:/LiteOS_Lab/drivers/third_party/ST/STM32L4xx_HAL_Driver/Src\stm32l4xx_hal_pwr_ex.c ****   *        some devices, the system frequency can be increased up to 120 MHz.  
 175:d:/LiteOS_Lab/drivers/third_party/ST/STM32L4xx_HAL_Driver/Src\stm32l4xx_hal_pwr_ex.c ****   * @note  When moving from Range 2 to Range 1, the API waits for VOSF flag to be
 176:d:/LiteOS_Lab/drivers/third_party/ST/STM32L4xx_HAL_Driver/Src\stm32l4xx_hal_pwr_ex.c ****   *        cleared before returning the status. If the flag is not cleared within
 177:d:/LiteOS_Lab/drivers/third_party/ST/STM32L4xx_HAL_Driver/Src\stm32l4xx_hal_pwr_ex.c ****   *        50 microseconds, HAL_TIMEOUT status is reported.                    
 178:d:/LiteOS_Lab/drivers/third_party/ST/STM32L4xx_HAL_Driver/Src\stm32l4xx_hal_pwr_ex.c ****   * @retval HAL Status
 179:d:/LiteOS_Lab/drivers/third_party/ST/STM32L4xx_HAL_Driver/Src\stm32l4xx_hal_pwr_ex.c ****   */
 180:d:/LiteOS_Lab/drivers/third_party/ST/STM32L4xx_HAL_Driver/Src\stm32l4xx_hal_pwr_ex.c **** HAL_StatusTypeDef HAL_PWREx_ControlVoltageScaling(uint32_t VoltageScaling)
 181:d:/LiteOS_Lab/drivers/third_party/ST/STM32L4xx_HAL_Driver/Src\stm32l4xx_hal_pwr_ex.c **** {
  74              		.loc 1 181 1
  75              		.cfi_startproc
  76              		@ args = 0, pretend = 0, frame = 16
  77              		@ frame_needed = 1, uses_anonymous_args = 0
  78              		@ link register save eliminated.
  79 0000 80B4     		push	{r7}
  80              	.LCFI4:
  81              		.cfi_def_cfa_offset 4
  82              		.cfi_offset 7, -4
  83 0002 85B0     		sub	sp, sp, #20
  84              	.LCFI5:
  85              		.cfi_def_cfa_offset 24
  86 0004 00AF     		add	r7, sp, #0
  87              	.LCFI6:
  88              		.cfi_def_cfa_register 7
  89 0006 7860     		str	r0, [r7, #4]
 182:d:/LiteOS_Lab/drivers/third_party/ST/STM32L4xx_HAL_Driver/Src\stm32l4xx_hal_pwr_ex.c ****   uint32_t wait_loop_index = 0;  
  90              		.loc 1 182 12
  91 0008 0023     		movs	r3, #0
  92 000a FB60     		str	r3, [r7, #12]
 183:d:/LiteOS_Lab/drivers/third_party/ST/STM32L4xx_HAL_Driver/Src\stm32l4xx_hal_pwr_ex.c **** 
 184:d:/LiteOS_Lab/drivers/third_party/ST/STM32L4xx_HAL_Driver/Src\stm32l4xx_hal_pwr_ex.c ****   assert_param(IS_PWR_VOLTAGE_SCALING_RANGE(VoltageScaling));
 185:d:/LiteOS_Lab/drivers/third_party/ST/STM32L4xx_HAL_Driver/Src\stm32l4xx_hal_pwr_ex.c **** 
 186:d:/LiteOS_Lab/drivers/third_party/ST/STM32L4xx_HAL_Driver/Src\stm32l4xx_hal_pwr_ex.c **** #if defined(PWR_CR5_R1MODE)
 187:d:/LiteOS_Lab/drivers/third_party/ST/STM32L4xx_HAL_Driver/Src\stm32l4xx_hal_pwr_ex.c ****   if (VoltageScaling == PWR_REGULATOR_VOLTAGE_SCALE1_BOOST)
 188:d:/LiteOS_Lab/drivers/third_party/ST/STM32L4xx_HAL_Driver/Src\stm32l4xx_hal_pwr_ex.c ****   {
 189:d:/LiteOS_Lab/drivers/third_party/ST/STM32L4xx_HAL_Driver/Src\stm32l4xx_hal_pwr_ex.c ****     /* If current range is range 2 */
 190:d:/LiteOS_Lab/drivers/third_party/ST/STM32L4xx_HAL_Driver/Src\stm32l4xx_hal_pwr_ex.c ****     if (READ_BIT(PWR->CR1, PWR_CR1_VOS) == PWR_REGULATOR_VOLTAGE_SCALE2)
 191:d:/LiteOS_Lab/drivers/third_party/ST/STM32L4xx_HAL_Driver/Src\stm32l4xx_hal_pwr_ex.c ****     {
 192:d:/LiteOS_Lab/drivers/third_party/ST/STM32L4xx_HAL_Driver/Src\stm32l4xx_hal_pwr_ex.c ****       /* Make sure Range 1 Boost is enabled */
 193:d:/LiteOS_Lab/drivers/third_party/ST/STM32L4xx_HAL_Driver/Src\stm32l4xx_hal_pwr_ex.c ****       CLEAR_BIT(PWR->CR5, PWR_CR5_R1MODE);
 194:d:/LiteOS_Lab/drivers/third_party/ST/STM32L4xx_HAL_Driver/Src\stm32l4xx_hal_pwr_ex.c ****       
 195:d:/LiteOS_Lab/drivers/third_party/ST/STM32L4xx_HAL_Driver/Src\stm32l4xx_hal_pwr_ex.c ****       /* Set Range 1 */
 196:d:/LiteOS_Lab/drivers/third_party/ST/STM32L4xx_HAL_Driver/Src\stm32l4xx_hal_pwr_ex.c ****       MODIFY_REG(PWR->CR1, PWR_CR1_VOS, PWR_REGULATOR_VOLTAGE_SCALE1);
ARM GAS  C:\Users\ADMINI~1\AppData\Local\Temp\cciDrfVK.s 			page 6


 197:d:/LiteOS_Lab/drivers/third_party/ST/STM32L4xx_HAL_Driver/Src\stm32l4xx_hal_pwr_ex.c ****       
 198:d:/LiteOS_Lab/drivers/third_party/ST/STM32L4xx_HAL_Driver/Src\stm32l4xx_hal_pwr_ex.c ****       /* Wait until VOSF is cleared */      
 199:d:/LiteOS_Lab/drivers/third_party/ST/STM32L4xx_HAL_Driver/Src\stm32l4xx_hal_pwr_ex.c ****       wait_loop_index = (PWR_FLAG_SETTING_DELAY_US * (SystemCoreClock / 1000000));
 200:d:/LiteOS_Lab/drivers/third_party/ST/STM32L4xx_HAL_Driver/Src\stm32l4xx_hal_pwr_ex.c ****       while ((wait_loop_index != 0) && (HAL_IS_BIT_SET(PWR->SR2, PWR_SR2_VOSF)))
 201:d:/LiteOS_Lab/drivers/third_party/ST/STM32L4xx_HAL_Driver/Src\stm32l4xx_hal_pwr_ex.c ****       {
 202:d:/LiteOS_Lab/drivers/third_party/ST/STM32L4xx_HAL_Driver/Src\stm32l4xx_hal_pwr_ex.c ****         wait_loop_index--;
 203:d:/LiteOS_Lab/drivers/third_party/ST/STM32L4xx_HAL_Driver/Src\stm32l4xx_hal_pwr_ex.c ****       }
 204:d:/LiteOS_Lab/drivers/third_party/ST/STM32L4xx_HAL_Driver/Src\stm32l4xx_hal_pwr_ex.c ****       if (HAL_IS_BIT_SET(PWR->SR2, PWR_SR2_VOSF))
 205:d:/LiteOS_Lab/drivers/third_party/ST/STM32L4xx_HAL_Driver/Src\stm32l4xx_hal_pwr_ex.c ****       {
 206:d:/LiteOS_Lab/drivers/third_party/ST/STM32L4xx_HAL_Driver/Src\stm32l4xx_hal_pwr_ex.c ****         return HAL_TIMEOUT;
 207:d:/LiteOS_Lab/drivers/third_party/ST/STM32L4xx_HAL_Driver/Src\stm32l4xx_hal_pwr_ex.c ****       }    
 208:d:/LiteOS_Lab/drivers/third_party/ST/STM32L4xx_HAL_Driver/Src\stm32l4xx_hal_pwr_ex.c ****     } 
 209:d:/LiteOS_Lab/drivers/third_party/ST/STM32L4xx_HAL_Driver/Src\stm32l4xx_hal_pwr_ex.c ****     /* If current range is range 1 normal or boost mode */
 210:d:/LiteOS_Lab/drivers/third_party/ST/STM32L4xx_HAL_Driver/Src\stm32l4xx_hal_pwr_ex.c ****     else
 211:d:/LiteOS_Lab/drivers/third_party/ST/STM32L4xx_HAL_Driver/Src\stm32l4xx_hal_pwr_ex.c ****     {
 212:d:/LiteOS_Lab/drivers/third_party/ST/STM32L4xx_HAL_Driver/Src\stm32l4xx_hal_pwr_ex.c ****       /* Enable Range 1 Boost (no issue if bit already reset) */
 213:d:/LiteOS_Lab/drivers/third_party/ST/STM32L4xx_HAL_Driver/Src\stm32l4xx_hal_pwr_ex.c ****       CLEAR_BIT(PWR->CR5, PWR_CR5_R1MODE);
 214:d:/LiteOS_Lab/drivers/third_party/ST/STM32L4xx_HAL_Driver/Src\stm32l4xx_hal_pwr_ex.c ****     }
 215:d:/LiteOS_Lab/drivers/third_party/ST/STM32L4xx_HAL_Driver/Src\stm32l4xx_hal_pwr_ex.c ****   }
 216:d:/LiteOS_Lab/drivers/third_party/ST/STM32L4xx_HAL_Driver/Src\stm32l4xx_hal_pwr_ex.c ****   else if (VoltageScaling == PWR_REGULATOR_VOLTAGE_SCALE1)
 217:d:/LiteOS_Lab/drivers/third_party/ST/STM32L4xx_HAL_Driver/Src\stm32l4xx_hal_pwr_ex.c ****   {
 218:d:/LiteOS_Lab/drivers/third_party/ST/STM32L4xx_HAL_Driver/Src\stm32l4xx_hal_pwr_ex.c ****     /* If current range is range 2 */
 219:d:/LiteOS_Lab/drivers/third_party/ST/STM32L4xx_HAL_Driver/Src\stm32l4xx_hal_pwr_ex.c ****     if (READ_BIT(PWR->CR1, PWR_CR1_VOS) == PWR_REGULATOR_VOLTAGE_SCALE2)
 220:d:/LiteOS_Lab/drivers/third_party/ST/STM32L4xx_HAL_Driver/Src\stm32l4xx_hal_pwr_ex.c ****     {
 221:d:/LiteOS_Lab/drivers/third_party/ST/STM32L4xx_HAL_Driver/Src\stm32l4xx_hal_pwr_ex.c ****       /* Make sure Range 1 Boost is disabled */
 222:d:/LiteOS_Lab/drivers/third_party/ST/STM32L4xx_HAL_Driver/Src\stm32l4xx_hal_pwr_ex.c ****       SET_BIT(PWR->CR5, PWR_CR5_R1MODE);
 223:d:/LiteOS_Lab/drivers/third_party/ST/STM32L4xx_HAL_Driver/Src\stm32l4xx_hal_pwr_ex.c ****       
 224:d:/LiteOS_Lab/drivers/third_party/ST/STM32L4xx_HAL_Driver/Src\stm32l4xx_hal_pwr_ex.c ****       /* Set Range 1 */
 225:d:/LiteOS_Lab/drivers/third_party/ST/STM32L4xx_HAL_Driver/Src\stm32l4xx_hal_pwr_ex.c ****       MODIFY_REG(PWR->CR1, PWR_CR1_VOS, PWR_REGULATOR_VOLTAGE_SCALE1);
 226:d:/LiteOS_Lab/drivers/third_party/ST/STM32L4xx_HAL_Driver/Src\stm32l4xx_hal_pwr_ex.c ****       
 227:d:/LiteOS_Lab/drivers/third_party/ST/STM32L4xx_HAL_Driver/Src\stm32l4xx_hal_pwr_ex.c ****       /* Wait until VOSF is cleared */      
 228:d:/LiteOS_Lab/drivers/third_party/ST/STM32L4xx_HAL_Driver/Src\stm32l4xx_hal_pwr_ex.c ****       wait_loop_index = (PWR_FLAG_SETTING_DELAY_US * (SystemCoreClock / 1000000));
 229:d:/LiteOS_Lab/drivers/third_party/ST/STM32L4xx_HAL_Driver/Src\stm32l4xx_hal_pwr_ex.c ****       while ((wait_loop_index != 0) && (HAL_IS_BIT_SET(PWR->SR2, PWR_SR2_VOSF)))
 230:d:/LiteOS_Lab/drivers/third_party/ST/STM32L4xx_HAL_Driver/Src\stm32l4xx_hal_pwr_ex.c ****       {
 231:d:/LiteOS_Lab/drivers/third_party/ST/STM32L4xx_HAL_Driver/Src\stm32l4xx_hal_pwr_ex.c ****         wait_loop_index--;
 232:d:/LiteOS_Lab/drivers/third_party/ST/STM32L4xx_HAL_Driver/Src\stm32l4xx_hal_pwr_ex.c ****       }
 233:d:/LiteOS_Lab/drivers/third_party/ST/STM32L4xx_HAL_Driver/Src\stm32l4xx_hal_pwr_ex.c ****       if (HAL_IS_BIT_SET(PWR->SR2, PWR_SR2_VOSF))
 234:d:/LiteOS_Lab/drivers/third_party/ST/STM32L4xx_HAL_Driver/Src\stm32l4xx_hal_pwr_ex.c ****       {
 235:d:/LiteOS_Lab/drivers/third_party/ST/STM32L4xx_HAL_Driver/Src\stm32l4xx_hal_pwr_ex.c ****         return HAL_TIMEOUT;
 236:d:/LiteOS_Lab/drivers/third_party/ST/STM32L4xx_HAL_Driver/Src\stm32l4xx_hal_pwr_ex.c ****       }    
 237:d:/LiteOS_Lab/drivers/third_party/ST/STM32L4xx_HAL_Driver/Src\stm32l4xx_hal_pwr_ex.c ****     } 
 238:d:/LiteOS_Lab/drivers/third_party/ST/STM32L4xx_HAL_Driver/Src\stm32l4xx_hal_pwr_ex.c ****      /* If current range is range 1 normal or boost mode */
 239:d:/LiteOS_Lab/drivers/third_party/ST/STM32L4xx_HAL_Driver/Src\stm32l4xx_hal_pwr_ex.c ****     else
 240:d:/LiteOS_Lab/drivers/third_party/ST/STM32L4xx_HAL_Driver/Src\stm32l4xx_hal_pwr_ex.c ****     {
 241:d:/LiteOS_Lab/drivers/third_party/ST/STM32L4xx_HAL_Driver/Src\stm32l4xx_hal_pwr_ex.c ****       /* Disable Range 1 Boost (no issue if bit already set) */
 242:d:/LiteOS_Lab/drivers/third_party/ST/STM32L4xx_HAL_Driver/Src\stm32l4xx_hal_pwr_ex.c ****       SET_BIT(PWR->CR5, PWR_CR5_R1MODE);
 243:d:/LiteOS_Lab/drivers/third_party/ST/STM32L4xx_HAL_Driver/Src\stm32l4xx_hal_pwr_ex.c ****     } 
 244:d:/LiteOS_Lab/drivers/third_party/ST/STM32L4xx_HAL_Driver/Src\stm32l4xx_hal_pwr_ex.c ****   }
 245:d:/LiteOS_Lab/drivers/third_party/ST/STM32L4xx_HAL_Driver/Src\stm32l4xx_hal_pwr_ex.c ****   else
 246:d:/LiteOS_Lab/drivers/third_party/ST/STM32L4xx_HAL_Driver/Src\stm32l4xx_hal_pwr_ex.c ****   {
 247:d:/LiteOS_Lab/drivers/third_party/ST/STM32L4xx_HAL_Driver/Src\stm32l4xx_hal_pwr_ex.c ****     /* Set Range 2 */
 248:d:/LiteOS_Lab/drivers/third_party/ST/STM32L4xx_HAL_Driver/Src\stm32l4xx_hal_pwr_ex.c ****     MODIFY_REG(PWR->CR1, PWR_CR1_VOS, PWR_REGULATOR_VOLTAGE_SCALE2);
 249:d:/LiteOS_Lab/drivers/third_party/ST/STM32L4xx_HAL_Driver/Src\stm32l4xx_hal_pwr_ex.c ****     /* No need to wait for VOSF to be cleared for this transition */
 250:d:/LiteOS_Lab/drivers/third_party/ST/STM32L4xx_HAL_Driver/Src\stm32l4xx_hal_pwr_ex.c ****     /* PWR_CR5_R1MODE bit setting has no effect in Range 2        */    
 251:d:/LiteOS_Lab/drivers/third_party/ST/STM32L4xx_HAL_Driver/Src\stm32l4xx_hal_pwr_ex.c ****   }
 252:d:/LiteOS_Lab/drivers/third_party/ST/STM32L4xx_HAL_Driver/Src\stm32l4xx_hal_pwr_ex.c ****   
 253:d:/LiteOS_Lab/drivers/third_party/ST/STM32L4xx_HAL_Driver/Src\stm32l4xx_hal_pwr_ex.c **** #else
ARM GAS  C:\Users\ADMINI~1\AppData\Local\Temp\cciDrfVK.s 			page 7


 254:d:/LiteOS_Lab/drivers/third_party/ST/STM32L4xx_HAL_Driver/Src\stm32l4xx_hal_pwr_ex.c **** 
 255:d:/LiteOS_Lab/drivers/third_party/ST/STM32L4xx_HAL_Driver/Src\stm32l4xx_hal_pwr_ex.c ****   /* If Set Range 1 */
 256:d:/LiteOS_Lab/drivers/third_party/ST/STM32L4xx_HAL_Driver/Src\stm32l4xx_hal_pwr_ex.c ****   if (VoltageScaling == PWR_REGULATOR_VOLTAGE_SCALE1)
  93              		.loc 1 256 6
  94 000c 7B68     		ldr	r3, [r7, #4]
  95 000e B3F5007F 		cmp	r3, #512
  96 0012 2FD1     		bne	.L6
 257:d:/LiteOS_Lab/drivers/third_party/ST/STM32L4xx_HAL_Driver/Src\stm32l4xx_hal_pwr_ex.c ****   {
 258:d:/LiteOS_Lab/drivers/third_party/ST/STM32L4xx_HAL_Driver/Src\stm32l4xx_hal_pwr_ex.c ****     if (READ_BIT(PWR->CR1, PWR_CR1_VOS) != PWR_REGULATOR_VOLTAGE_SCALE1)
  97              		.loc 1 258 9
  98 0014 224B     		ldr	r3, .L12
  99 0016 1B68     		ldr	r3, [r3]
 100 0018 03F4C063 		and	r3, r3, #1536
 101              		.loc 1 258 8
 102 001c B3F5007F 		cmp	r3, #512
 103 0020 37D0     		beq	.L7
 259:d:/LiteOS_Lab/drivers/third_party/ST/STM32L4xx_HAL_Driver/Src\stm32l4xx_hal_pwr_ex.c ****     {
 260:d:/LiteOS_Lab/drivers/third_party/ST/STM32L4xx_HAL_Driver/Src\stm32l4xx_hal_pwr_ex.c ****       /* Set Range 1 */
 261:d:/LiteOS_Lab/drivers/third_party/ST/STM32L4xx_HAL_Driver/Src\stm32l4xx_hal_pwr_ex.c ****       MODIFY_REG(PWR->CR1, PWR_CR1_VOS, PWR_REGULATOR_VOLTAGE_SCALE1);
 104              		.loc 1 261 7
 105 0022 1F4B     		ldr	r3, .L12
 106 0024 1B68     		ldr	r3, [r3]
 107 0026 23F4C063 		bic	r3, r3, #1536
 108 002a 1D4A     		ldr	r2, .L12
 109 002c 43F40073 		orr	r3, r3, #512
 110 0030 1360     		str	r3, [r2]
 262:d:/LiteOS_Lab/drivers/third_party/ST/STM32L4xx_HAL_Driver/Src\stm32l4xx_hal_pwr_ex.c ****       
 263:d:/LiteOS_Lab/drivers/third_party/ST/STM32L4xx_HAL_Driver/Src\stm32l4xx_hal_pwr_ex.c ****       /* Wait until VOSF is cleared */      
 264:d:/LiteOS_Lab/drivers/third_party/ST/STM32L4xx_HAL_Driver/Src\stm32l4xx_hal_pwr_ex.c ****       wait_loop_index = (PWR_FLAG_SETTING_DELAY_US * (SystemCoreClock / 1000000));
 111              		.loc 1 264 71
 112 0032 1C4B     		ldr	r3, .L12+4
 113 0034 1B68     		ldr	r3, [r3]
 114 0036 1C4A     		ldr	r2, .L12+8
 115 0038 A2FB0323 		umull	r2, r3, r2, r3
 116 003c 9B0C     		lsrs	r3, r3, #18
 117              		.loc 1 264 23
 118 003e 3222     		movs	r2, #50
 119 0040 02FB03F3 		mul	r3, r2, r3
 120 0044 FB60     		str	r3, [r7, #12]
 265:d:/LiteOS_Lab/drivers/third_party/ST/STM32L4xx_HAL_Driver/Src\stm32l4xx_hal_pwr_ex.c ****       while ((wait_loop_index != 0) && (HAL_IS_BIT_SET(PWR->SR2, PWR_SR2_VOSF)))
 121              		.loc 1 265 13
 122 0046 02E0     		b	.L8
 123              	.L10:
 266:d:/LiteOS_Lab/drivers/third_party/ST/STM32L4xx_HAL_Driver/Src\stm32l4xx_hal_pwr_ex.c ****       {
 267:d:/LiteOS_Lab/drivers/third_party/ST/STM32L4xx_HAL_Driver/Src\stm32l4xx_hal_pwr_ex.c ****         wait_loop_index--;
 124              		.loc 1 267 24
 125 0048 FB68     		ldr	r3, [r7, #12]
 126 004a 013B     		subs	r3, r3, #1
 127 004c FB60     		str	r3, [r7, #12]
 128              	.L8:
 265:d:/LiteOS_Lab/drivers/third_party/ST/STM32L4xx_HAL_Driver/Src\stm32l4xx_hal_pwr_ex.c ****       while ((wait_loop_index != 0) && (HAL_IS_BIT_SET(PWR->SR2, PWR_SR2_VOSF)))
 129              		.loc 1 265 13
 130 004e FB68     		ldr	r3, [r7, #12]
 131 0050 002B     		cmp	r3, #0
 132 0052 06D0     		beq	.L9
 265:d:/LiteOS_Lab/drivers/third_party/ST/STM32L4xx_HAL_Driver/Src\stm32l4xx_hal_pwr_ex.c ****       while ((wait_loop_index != 0) && (HAL_IS_BIT_SET(PWR->SR2, PWR_SR2_VOSF)))
 133              		.loc 1 265 41 discriminator 1
ARM GAS  C:\Users\ADMINI~1\AppData\Local\Temp\cciDrfVK.s 			page 8


 134 0054 124B     		ldr	r3, .L12
 135 0056 5B69     		ldr	r3, [r3, #20]
 136 0058 03F48063 		and	r3, r3, #1024
 265:d:/LiteOS_Lab/drivers/third_party/ST/STM32L4xx_HAL_Driver/Src\stm32l4xx_hal_pwr_ex.c ****       while ((wait_loop_index != 0) && (HAL_IS_BIT_SET(PWR->SR2, PWR_SR2_VOSF)))
 137              		.loc 1 265 37 discriminator 1
 138 005c B3F5806F 		cmp	r3, #1024
 139 0060 F2D0     		beq	.L10
 140              	.L9:
 268:d:/LiteOS_Lab/drivers/third_party/ST/STM32L4xx_HAL_Driver/Src\stm32l4xx_hal_pwr_ex.c ****       }
 269:d:/LiteOS_Lab/drivers/third_party/ST/STM32L4xx_HAL_Driver/Src\stm32l4xx_hal_pwr_ex.c ****       if (HAL_IS_BIT_SET(PWR->SR2, PWR_SR2_VOSF))
 141              		.loc 1 269 11
 142 0062 0F4B     		ldr	r3, .L12
 143 0064 5B69     		ldr	r3, [r3, #20]
 144 0066 03F48063 		and	r3, r3, #1024
 145              		.loc 1 269 10
 146 006a B3F5806F 		cmp	r3, #1024
 147 006e 10D1     		bne	.L7
 270:d:/LiteOS_Lab/drivers/third_party/ST/STM32L4xx_HAL_Driver/Src\stm32l4xx_hal_pwr_ex.c ****       {
 271:d:/LiteOS_Lab/drivers/third_party/ST/STM32L4xx_HAL_Driver/Src\stm32l4xx_hal_pwr_ex.c ****         return HAL_TIMEOUT;
 148              		.loc 1 271 16
 149 0070 0323     		movs	r3, #3
 150 0072 0FE0     		b	.L11
 151              	.L6:
 272:d:/LiteOS_Lab/drivers/third_party/ST/STM32L4xx_HAL_Driver/Src\stm32l4xx_hal_pwr_ex.c ****       }
 273:d:/LiteOS_Lab/drivers/third_party/ST/STM32L4xx_HAL_Driver/Src\stm32l4xx_hal_pwr_ex.c ****     }
 274:d:/LiteOS_Lab/drivers/third_party/ST/STM32L4xx_HAL_Driver/Src\stm32l4xx_hal_pwr_ex.c ****   }
 275:d:/LiteOS_Lab/drivers/third_party/ST/STM32L4xx_HAL_Driver/Src\stm32l4xx_hal_pwr_ex.c ****   else
 276:d:/LiteOS_Lab/drivers/third_party/ST/STM32L4xx_HAL_Driver/Src\stm32l4xx_hal_pwr_ex.c ****   {
 277:d:/LiteOS_Lab/drivers/third_party/ST/STM32L4xx_HAL_Driver/Src\stm32l4xx_hal_pwr_ex.c ****     if (READ_BIT(PWR->CR1, PWR_CR1_VOS) != PWR_REGULATOR_VOLTAGE_SCALE2)
 152              		.loc 1 277 9
 153 0074 0A4B     		ldr	r3, .L12
 154 0076 1B68     		ldr	r3, [r3]
 155 0078 03F4C063 		and	r3, r3, #1536
 156              		.loc 1 277 8
 157 007c B3F5806F 		cmp	r3, #1024
 158 0080 07D0     		beq	.L7
 278:d:/LiteOS_Lab/drivers/third_party/ST/STM32L4xx_HAL_Driver/Src\stm32l4xx_hal_pwr_ex.c ****     {
 279:d:/LiteOS_Lab/drivers/third_party/ST/STM32L4xx_HAL_Driver/Src\stm32l4xx_hal_pwr_ex.c ****       /* Set Range 2 */
 280:d:/LiteOS_Lab/drivers/third_party/ST/STM32L4xx_HAL_Driver/Src\stm32l4xx_hal_pwr_ex.c ****       MODIFY_REG(PWR->CR1, PWR_CR1_VOS, PWR_REGULATOR_VOLTAGE_SCALE2);
 159              		.loc 1 280 7
 160 0082 074B     		ldr	r3, .L12
 161 0084 1B68     		ldr	r3, [r3]
 162 0086 23F4C063 		bic	r3, r3, #1536
 163 008a 054A     		ldr	r2, .L12
 164 008c 43F48063 		orr	r3, r3, #1024
 165 0090 1360     		str	r3, [r2]
 166              	.L7:
 281:d:/LiteOS_Lab/drivers/third_party/ST/STM32L4xx_HAL_Driver/Src\stm32l4xx_hal_pwr_ex.c ****       /* No need to wait for VOSF to be cleared for this transition */
 282:d:/LiteOS_Lab/drivers/third_party/ST/STM32L4xx_HAL_Driver/Src\stm32l4xx_hal_pwr_ex.c ****     }
 283:d:/LiteOS_Lab/drivers/third_party/ST/STM32L4xx_HAL_Driver/Src\stm32l4xx_hal_pwr_ex.c ****   }
 284:d:/LiteOS_Lab/drivers/third_party/ST/STM32L4xx_HAL_Driver/Src\stm32l4xx_hal_pwr_ex.c **** #endif  
 285:d:/LiteOS_Lab/drivers/third_party/ST/STM32L4xx_HAL_Driver/Src\stm32l4xx_hal_pwr_ex.c ****   
 286:d:/LiteOS_Lab/drivers/third_party/ST/STM32L4xx_HAL_Driver/Src\stm32l4xx_hal_pwr_ex.c ****   return HAL_OK;
 167              		.loc 1 286 10
 168 0092 0023     		movs	r3, #0
 169              	.L11:
 287:d:/LiteOS_Lab/drivers/third_party/ST/STM32L4xx_HAL_Driver/Src\stm32l4xx_hal_pwr_ex.c **** }  
ARM GAS  C:\Users\ADMINI~1\AppData\Local\Temp\cciDrfVK.s 			page 9


 170              		.loc 1 287 1
 171 0094 1846     		mov	r0, r3
 172 0096 1437     		adds	r7, r7, #20
 173              	.LCFI7:
 174              		.cfi_def_cfa_offset 4
 175 0098 BD46     		mov	sp, r7
 176              	.LCFI8:
 177              		.cfi_def_cfa_register 13
 178              		@ sp needed
 179 009a 5DF8047B 		ldr	r7, [sp], #4
 180              	.LCFI9:
 181              		.cfi_restore 7
 182              		.cfi_def_cfa_offset 0
 183 009e 7047     		bx	lr
 184              	.L13:
 185              		.align	2
 186              	.L12:
 187 00a0 00700040 		.word	1073770496
 188 00a4 00000000 		.word	SystemCoreClock
 189 00a8 83DE1B43 		.word	1125899907
 190              		.cfi_endproc
 191              	.LFE288:
 193              		.section	.text.HAL_PWREx_EnableBatteryCharging,"ax",%progbits
 194              		.align	1
 195              		.global	HAL_PWREx_EnableBatteryCharging
 196              		.syntax unified
 197              		.thumb
 198              		.thumb_func
 199              		.fpu fpv4-sp-d16
 201              	HAL_PWREx_EnableBatteryCharging:
 202              	.LFB289:
 288:d:/LiteOS_Lab/drivers/third_party/ST/STM32L4xx_HAL_Driver/Src\stm32l4xx_hal_pwr_ex.c **** 
 289:d:/LiteOS_Lab/drivers/third_party/ST/STM32L4xx_HAL_Driver/Src\stm32l4xx_hal_pwr_ex.c **** 
 290:d:/LiteOS_Lab/drivers/third_party/ST/STM32L4xx_HAL_Driver/Src\stm32l4xx_hal_pwr_ex.c **** /**
 291:d:/LiteOS_Lab/drivers/third_party/ST/STM32L4xx_HAL_Driver/Src\stm32l4xx_hal_pwr_ex.c ****   * @brief Enable battery charging.
 292:d:/LiteOS_Lab/drivers/third_party/ST/STM32L4xx_HAL_Driver/Src\stm32l4xx_hal_pwr_ex.c ****   *        When VDD is present, charge the external battery on VBAT thru an internal resistor.  
 293:d:/LiteOS_Lab/drivers/third_party/ST/STM32L4xx_HAL_Driver/Src\stm32l4xx_hal_pwr_ex.c ****   * @param  ResistorSelection: specifies the resistor impedance.
 294:d:/LiteOS_Lab/drivers/third_party/ST/STM32L4xx_HAL_Driver/Src\stm32l4xx_hal_pwr_ex.c ****   *          This parameter can be one of the following values:
 295:d:/LiteOS_Lab/drivers/third_party/ST/STM32L4xx_HAL_Driver/Src\stm32l4xx_hal_pwr_ex.c ****   *            @arg @ref PWR_BATTERY_CHARGING_RESISTOR_5     5 kOhms resistor
 296:d:/LiteOS_Lab/drivers/third_party/ST/STM32L4xx_HAL_Driver/Src\stm32l4xx_hal_pwr_ex.c ****   *            @arg @ref PWR_BATTERY_CHARGING_RESISTOR_1_5 1.5 kOhms resistor 
 297:d:/LiteOS_Lab/drivers/third_party/ST/STM32L4xx_HAL_Driver/Src\stm32l4xx_hal_pwr_ex.c ****   * @retval None
 298:d:/LiteOS_Lab/drivers/third_party/ST/STM32L4xx_HAL_Driver/Src\stm32l4xx_hal_pwr_ex.c ****   */
 299:d:/LiteOS_Lab/drivers/third_party/ST/STM32L4xx_HAL_Driver/Src\stm32l4xx_hal_pwr_ex.c **** void HAL_PWREx_EnableBatteryCharging(uint32_t ResistorSelection)
 300:d:/LiteOS_Lab/drivers/third_party/ST/STM32L4xx_HAL_Driver/Src\stm32l4xx_hal_pwr_ex.c **** {
 203              		.loc 1 300 1
 204              		.cfi_startproc
 205              		@ args = 0, pretend = 0, frame = 8
 206              		@ frame_needed = 1, uses_anonymous_args = 0
 207              		@ link register save eliminated.
 208 0000 80B4     		push	{r7}
 209              	.LCFI10:
 210              		.cfi_def_cfa_offset 4
 211              		.cfi_offset 7, -4
 212 0002 83B0     		sub	sp, sp, #12
 213              	.LCFI11:
 214              		.cfi_def_cfa_offset 16
 215 0004 00AF     		add	r7, sp, #0
ARM GAS  C:\Users\ADMINI~1\AppData\Local\Temp\cciDrfVK.s 			page 10


 216              	.LCFI12:
 217              		.cfi_def_cfa_register 7
 218 0006 7860     		str	r0, [r7, #4]
 301:d:/LiteOS_Lab/drivers/third_party/ST/STM32L4xx_HAL_Driver/Src\stm32l4xx_hal_pwr_ex.c ****   assert_param(IS_PWR_BATTERY_RESISTOR_SELECT(ResistorSelection));
 302:d:/LiteOS_Lab/drivers/third_party/ST/STM32L4xx_HAL_Driver/Src\stm32l4xx_hal_pwr_ex.c ****   
 303:d:/LiteOS_Lab/drivers/third_party/ST/STM32L4xx_HAL_Driver/Src\stm32l4xx_hal_pwr_ex.c ****   /* Specify resistor selection */
 304:d:/LiteOS_Lab/drivers/third_party/ST/STM32L4xx_HAL_Driver/Src\stm32l4xx_hal_pwr_ex.c ****   MODIFY_REG(PWR->CR4, PWR_CR4_VBRS, ResistorSelection);
 219              		.loc 1 304 3
 220 0008 094B     		ldr	r3, .L15
 221 000a DB68     		ldr	r3, [r3, #12]
 222 000c 23F40072 		bic	r2, r3, #512
 223 0010 0749     		ldr	r1, .L15
 224 0012 7B68     		ldr	r3, [r7, #4]
 225 0014 1343     		orrs	r3, r3, r2
 226 0016 CB60     		str	r3, [r1, #12]
 305:d:/LiteOS_Lab/drivers/third_party/ST/STM32L4xx_HAL_Driver/Src\stm32l4xx_hal_pwr_ex.c ****   
 306:d:/LiteOS_Lab/drivers/third_party/ST/STM32L4xx_HAL_Driver/Src\stm32l4xx_hal_pwr_ex.c ****   /* Enable battery charging */
 307:d:/LiteOS_Lab/drivers/third_party/ST/STM32L4xx_HAL_Driver/Src\stm32l4xx_hal_pwr_ex.c ****   SET_BIT(PWR->CR4, PWR_CR4_VBE);
 227              		.loc 1 307 3
 228 0018 054B     		ldr	r3, .L15
 229 001a DB68     		ldr	r3, [r3, #12]
 230 001c 044A     		ldr	r2, .L15
 231 001e 43F48073 		orr	r3, r3, #256
 232 0022 D360     		str	r3, [r2, #12]
 308:d:/LiteOS_Lab/drivers/third_party/ST/STM32L4xx_HAL_Driver/Src\stm32l4xx_hal_pwr_ex.c **** }
 233              		.loc 1 308 1
 234 0024 00BF     		nop
 235 0026 0C37     		adds	r7, r7, #12
 236              	.LCFI13:
 237              		.cfi_def_cfa_offset 4
 238 0028 BD46     		mov	sp, r7
 239              	.LCFI14:
 240              		.cfi_def_cfa_register 13
 241              		@ sp needed
 242 002a 5DF8047B 		ldr	r7, [sp], #4
 243              	.LCFI15:
 244              		.cfi_restore 7
 245              		.cfi_def_cfa_offset 0
 246 002e 7047     		bx	lr
 247              	.L16:
 248              		.align	2
 249              	.L15:
 250 0030 00700040 		.word	1073770496
 251              		.cfi_endproc
 252              	.LFE289:
 254              		.section	.text.HAL_PWREx_DisableBatteryCharging,"ax",%progbits
 255              		.align	1
 256              		.global	HAL_PWREx_DisableBatteryCharging
 257              		.syntax unified
 258              		.thumb
 259              		.thumb_func
 260              		.fpu fpv4-sp-d16
 262              	HAL_PWREx_DisableBatteryCharging:
 263              	.LFB290:
 309:d:/LiteOS_Lab/drivers/third_party/ST/STM32L4xx_HAL_Driver/Src\stm32l4xx_hal_pwr_ex.c **** 
 310:d:/LiteOS_Lab/drivers/third_party/ST/STM32L4xx_HAL_Driver/Src\stm32l4xx_hal_pwr_ex.c **** 
 311:d:/LiteOS_Lab/drivers/third_party/ST/STM32L4xx_HAL_Driver/Src\stm32l4xx_hal_pwr_ex.c **** /**
ARM GAS  C:\Users\ADMINI~1\AppData\Local\Temp\cciDrfVK.s 			page 11


 312:d:/LiteOS_Lab/drivers/third_party/ST/STM32L4xx_HAL_Driver/Src\stm32l4xx_hal_pwr_ex.c ****   * @brief Disable battery charging.  
 313:d:/LiteOS_Lab/drivers/third_party/ST/STM32L4xx_HAL_Driver/Src\stm32l4xx_hal_pwr_ex.c ****   * @retval None
 314:d:/LiteOS_Lab/drivers/third_party/ST/STM32L4xx_HAL_Driver/Src\stm32l4xx_hal_pwr_ex.c ****   */
 315:d:/LiteOS_Lab/drivers/third_party/ST/STM32L4xx_HAL_Driver/Src\stm32l4xx_hal_pwr_ex.c **** void HAL_PWREx_DisableBatteryCharging(void)
 316:d:/LiteOS_Lab/drivers/third_party/ST/STM32L4xx_HAL_Driver/Src\stm32l4xx_hal_pwr_ex.c **** {
 264              		.loc 1 316 1
 265              		.cfi_startproc
 266              		@ args = 0, pretend = 0, frame = 0
 267              		@ frame_needed = 1, uses_anonymous_args = 0
 268              		@ link register save eliminated.
 269 0000 80B4     		push	{r7}
 270              	.LCFI16:
 271              		.cfi_def_cfa_offset 4
 272              		.cfi_offset 7, -4
 273 0002 00AF     		add	r7, sp, #0
 274              	.LCFI17:
 275              		.cfi_def_cfa_register 7
 317:d:/LiteOS_Lab/drivers/third_party/ST/STM32L4xx_HAL_Driver/Src\stm32l4xx_hal_pwr_ex.c ****   CLEAR_BIT(PWR->CR4, PWR_CR4_VBE); 
 276              		.loc 1 317 3
 277 0004 054B     		ldr	r3, .L18
 278 0006 DB68     		ldr	r3, [r3, #12]
 279 0008 044A     		ldr	r2, .L18
 280 000a 23F48073 		bic	r3, r3, #256
 281 000e D360     		str	r3, [r2, #12]
 318:d:/LiteOS_Lab/drivers/third_party/ST/STM32L4xx_HAL_Driver/Src\stm32l4xx_hal_pwr_ex.c **** }  
 282              		.loc 1 318 1
 283 0010 00BF     		nop
 284 0012 BD46     		mov	sp, r7
 285              	.LCFI18:
 286              		.cfi_def_cfa_register 13
 287              		@ sp needed
 288 0014 5DF8047B 		ldr	r7, [sp], #4
 289              	.LCFI19:
 290              		.cfi_restore 7
 291              		.cfi_def_cfa_offset 0
 292 0018 7047     		bx	lr
 293              	.L19:
 294 001a 00BF     		.align	2
 295              	.L18:
 296 001c 00700040 		.word	1073770496
 297              		.cfi_endproc
 298              	.LFE290:
 300              		.section	.text.HAL_PWREx_EnableInternalWakeUpLine,"ax",%progbits
 301              		.align	1
 302              		.global	HAL_PWREx_EnableInternalWakeUpLine
 303              		.syntax unified
 304              		.thumb
 305              		.thumb_func
 306              		.fpu fpv4-sp-d16
 308              	HAL_PWREx_EnableInternalWakeUpLine:
 309              	.LFB291:
 319:d:/LiteOS_Lab/drivers/third_party/ST/STM32L4xx_HAL_Driver/Src\stm32l4xx_hal_pwr_ex.c **** 
 320:d:/LiteOS_Lab/drivers/third_party/ST/STM32L4xx_HAL_Driver/Src\stm32l4xx_hal_pwr_ex.c **** 
 321:d:/LiteOS_Lab/drivers/third_party/ST/STM32L4xx_HAL_Driver/Src\stm32l4xx_hal_pwr_ex.c **** #if defined(PWR_CR2_USV)
 322:d:/LiteOS_Lab/drivers/third_party/ST/STM32L4xx_HAL_Driver/Src\stm32l4xx_hal_pwr_ex.c **** /**
 323:d:/LiteOS_Lab/drivers/third_party/ST/STM32L4xx_HAL_Driver/Src\stm32l4xx_hal_pwr_ex.c ****   * @brief Enable VDDUSB supply. 
 324:d:/LiteOS_Lab/drivers/third_party/ST/STM32L4xx_HAL_Driver/Src\stm32l4xx_hal_pwr_ex.c ****   * @note  Remove VDDUSB electrical and logical isolation, once VDDUSB supply is present.  
ARM GAS  C:\Users\ADMINI~1\AppData\Local\Temp\cciDrfVK.s 			page 12


 325:d:/LiteOS_Lab/drivers/third_party/ST/STM32L4xx_HAL_Driver/Src\stm32l4xx_hal_pwr_ex.c ****   * @retval None
 326:d:/LiteOS_Lab/drivers/third_party/ST/STM32L4xx_HAL_Driver/Src\stm32l4xx_hal_pwr_ex.c ****   */
 327:d:/LiteOS_Lab/drivers/third_party/ST/STM32L4xx_HAL_Driver/Src\stm32l4xx_hal_pwr_ex.c **** void HAL_PWREx_EnableVddUSB(void)
 328:d:/LiteOS_Lab/drivers/third_party/ST/STM32L4xx_HAL_Driver/Src\stm32l4xx_hal_pwr_ex.c **** {
 329:d:/LiteOS_Lab/drivers/third_party/ST/STM32L4xx_HAL_Driver/Src\stm32l4xx_hal_pwr_ex.c ****   SET_BIT(PWR->CR2, PWR_CR2_USV);
 330:d:/LiteOS_Lab/drivers/third_party/ST/STM32L4xx_HAL_Driver/Src\stm32l4xx_hal_pwr_ex.c **** }
 331:d:/LiteOS_Lab/drivers/third_party/ST/STM32L4xx_HAL_Driver/Src\stm32l4xx_hal_pwr_ex.c **** 
 332:d:/LiteOS_Lab/drivers/third_party/ST/STM32L4xx_HAL_Driver/Src\stm32l4xx_hal_pwr_ex.c **** 
 333:d:/LiteOS_Lab/drivers/third_party/ST/STM32L4xx_HAL_Driver/Src\stm32l4xx_hal_pwr_ex.c **** /**
 334:d:/LiteOS_Lab/drivers/third_party/ST/STM32L4xx_HAL_Driver/Src\stm32l4xx_hal_pwr_ex.c ****   * @brief Disable VDDUSB supply. 
 335:d:/LiteOS_Lab/drivers/third_party/ST/STM32L4xx_HAL_Driver/Src\stm32l4xx_hal_pwr_ex.c ****   * @retval None
 336:d:/LiteOS_Lab/drivers/third_party/ST/STM32L4xx_HAL_Driver/Src\stm32l4xx_hal_pwr_ex.c ****   */
 337:d:/LiteOS_Lab/drivers/third_party/ST/STM32L4xx_HAL_Driver/Src\stm32l4xx_hal_pwr_ex.c **** void HAL_PWREx_DisableVddUSB(void)
 338:d:/LiteOS_Lab/drivers/third_party/ST/STM32L4xx_HAL_Driver/Src\stm32l4xx_hal_pwr_ex.c **** {
 339:d:/LiteOS_Lab/drivers/third_party/ST/STM32L4xx_HAL_Driver/Src\stm32l4xx_hal_pwr_ex.c ****   CLEAR_BIT(PWR->CR2, PWR_CR2_USV);
 340:d:/LiteOS_Lab/drivers/third_party/ST/STM32L4xx_HAL_Driver/Src\stm32l4xx_hal_pwr_ex.c **** }
 341:d:/LiteOS_Lab/drivers/third_party/ST/STM32L4xx_HAL_Driver/Src\stm32l4xx_hal_pwr_ex.c **** #endif /* PWR_CR2_USV */
 342:d:/LiteOS_Lab/drivers/third_party/ST/STM32L4xx_HAL_Driver/Src\stm32l4xx_hal_pwr_ex.c **** 
 343:d:/LiteOS_Lab/drivers/third_party/ST/STM32L4xx_HAL_Driver/Src\stm32l4xx_hal_pwr_ex.c **** #if defined(PWR_CR2_IOSV)
 344:d:/LiteOS_Lab/drivers/third_party/ST/STM32L4xx_HAL_Driver/Src\stm32l4xx_hal_pwr_ex.c **** /**
 345:d:/LiteOS_Lab/drivers/third_party/ST/STM32L4xx_HAL_Driver/Src\stm32l4xx_hal_pwr_ex.c ****   * @brief Enable VDDIO2 supply. 
 346:d:/LiteOS_Lab/drivers/third_party/ST/STM32L4xx_HAL_Driver/Src\stm32l4xx_hal_pwr_ex.c ****   * @note  Remove VDDIO2 electrical and logical isolation, once VDDIO2 supply is present. 
 347:d:/LiteOS_Lab/drivers/third_party/ST/STM32L4xx_HAL_Driver/Src\stm32l4xx_hal_pwr_ex.c ****   * @retval None
 348:d:/LiteOS_Lab/drivers/third_party/ST/STM32L4xx_HAL_Driver/Src\stm32l4xx_hal_pwr_ex.c ****   */
 349:d:/LiteOS_Lab/drivers/third_party/ST/STM32L4xx_HAL_Driver/Src\stm32l4xx_hal_pwr_ex.c **** void HAL_PWREx_EnableVddIO2(void)
 350:d:/LiteOS_Lab/drivers/third_party/ST/STM32L4xx_HAL_Driver/Src\stm32l4xx_hal_pwr_ex.c **** {
 351:d:/LiteOS_Lab/drivers/third_party/ST/STM32L4xx_HAL_Driver/Src\stm32l4xx_hal_pwr_ex.c ****   SET_BIT(PWR->CR2, PWR_CR2_IOSV);
 352:d:/LiteOS_Lab/drivers/third_party/ST/STM32L4xx_HAL_Driver/Src\stm32l4xx_hal_pwr_ex.c **** }
 353:d:/LiteOS_Lab/drivers/third_party/ST/STM32L4xx_HAL_Driver/Src\stm32l4xx_hal_pwr_ex.c **** 
 354:d:/LiteOS_Lab/drivers/third_party/ST/STM32L4xx_HAL_Driver/Src\stm32l4xx_hal_pwr_ex.c **** 
 355:d:/LiteOS_Lab/drivers/third_party/ST/STM32L4xx_HAL_Driver/Src\stm32l4xx_hal_pwr_ex.c **** /**
 356:d:/LiteOS_Lab/drivers/third_party/ST/STM32L4xx_HAL_Driver/Src\stm32l4xx_hal_pwr_ex.c ****   * @brief Disable VDDIO2 supply. 
 357:d:/LiteOS_Lab/drivers/third_party/ST/STM32L4xx_HAL_Driver/Src\stm32l4xx_hal_pwr_ex.c ****   * @retval None
 358:d:/LiteOS_Lab/drivers/third_party/ST/STM32L4xx_HAL_Driver/Src\stm32l4xx_hal_pwr_ex.c ****   */
 359:d:/LiteOS_Lab/drivers/third_party/ST/STM32L4xx_HAL_Driver/Src\stm32l4xx_hal_pwr_ex.c **** void HAL_PWREx_DisableVddIO2(void)
 360:d:/LiteOS_Lab/drivers/third_party/ST/STM32L4xx_HAL_Driver/Src\stm32l4xx_hal_pwr_ex.c **** {
 361:d:/LiteOS_Lab/drivers/third_party/ST/STM32L4xx_HAL_Driver/Src\stm32l4xx_hal_pwr_ex.c ****   CLEAR_BIT(PWR->CR2, PWR_CR2_IOSV);
 362:d:/LiteOS_Lab/drivers/third_party/ST/STM32L4xx_HAL_Driver/Src\stm32l4xx_hal_pwr_ex.c **** }
 363:d:/LiteOS_Lab/drivers/third_party/ST/STM32L4xx_HAL_Driver/Src\stm32l4xx_hal_pwr_ex.c **** #endif /* PWR_CR2_IOSV */
 364:d:/LiteOS_Lab/drivers/third_party/ST/STM32L4xx_HAL_Driver/Src\stm32l4xx_hal_pwr_ex.c **** 
 365:d:/LiteOS_Lab/drivers/third_party/ST/STM32L4xx_HAL_Driver/Src\stm32l4xx_hal_pwr_ex.c **** 
 366:d:/LiteOS_Lab/drivers/third_party/ST/STM32L4xx_HAL_Driver/Src\stm32l4xx_hal_pwr_ex.c **** /**
 367:d:/LiteOS_Lab/drivers/third_party/ST/STM32L4xx_HAL_Driver/Src\stm32l4xx_hal_pwr_ex.c ****   * @brief Enable Internal Wake-up Line. 
 368:d:/LiteOS_Lab/drivers/third_party/ST/STM32L4xx_HAL_Driver/Src\stm32l4xx_hal_pwr_ex.c ****   * @retval None
 369:d:/LiteOS_Lab/drivers/third_party/ST/STM32L4xx_HAL_Driver/Src\stm32l4xx_hal_pwr_ex.c ****   */
 370:d:/LiteOS_Lab/drivers/third_party/ST/STM32L4xx_HAL_Driver/Src\stm32l4xx_hal_pwr_ex.c **** void HAL_PWREx_EnableInternalWakeUpLine(void)
 371:d:/LiteOS_Lab/drivers/third_party/ST/STM32L4xx_HAL_Driver/Src\stm32l4xx_hal_pwr_ex.c **** {
 310              		.loc 1 371 1
 311              		.cfi_startproc
 312              		@ args = 0, pretend = 0, frame = 0
 313              		@ frame_needed = 1, uses_anonymous_args = 0
 314              		@ link register save eliminated.
 315 0000 80B4     		push	{r7}
 316              	.LCFI20:
 317              		.cfi_def_cfa_offset 4
 318              		.cfi_offset 7, -4
 319 0002 00AF     		add	r7, sp, #0
ARM GAS  C:\Users\ADMINI~1\AppData\Local\Temp\cciDrfVK.s 			page 13


 320              	.LCFI21:
 321              		.cfi_def_cfa_register 7
 372:d:/LiteOS_Lab/drivers/third_party/ST/STM32L4xx_HAL_Driver/Src\stm32l4xx_hal_pwr_ex.c ****   SET_BIT(PWR->CR3, PWR_CR3_EIWF);
 322              		.loc 1 372 3
 323 0004 054B     		ldr	r3, .L21
 324 0006 9B68     		ldr	r3, [r3, #8]
 325 0008 044A     		ldr	r2, .L21
 326 000a 43F40043 		orr	r3, r3, #32768
 327 000e 9360     		str	r3, [r2, #8]
 373:d:/LiteOS_Lab/drivers/third_party/ST/STM32L4xx_HAL_Driver/Src\stm32l4xx_hal_pwr_ex.c **** }
 328              		.loc 1 373 1
 329 0010 00BF     		nop
 330 0012 BD46     		mov	sp, r7
 331              	.LCFI22:
 332              		.cfi_def_cfa_register 13
 333              		@ sp needed
 334 0014 5DF8047B 		ldr	r7, [sp], #4
 335              	.LCFI23:
 336              		.cfi_restore 7
 337              		.cfi_def_cfa_offset 0
 338 0018 7047     		bx	lr
 339              	.L22:
 340 001a 00BF     		.align	2
 341              	.L21:
 342 001c 00700040 		.word	1073770496
 343              		.cfi_endproc
 344              	.LFE291:
 346              		.section	.text.HAL_PWREx_DisableInternalWakeUpLine,"ax",%progbits
 347              		.align	1
 348              		.global	HAL_PWREx_DisableInternalWakeUpLine
 349              		.syntax unified
 350              		.thumb
 351              		.thumb_func
 352              		.fpu fpv4-sp-d16
 354              	HAL_PWREx_DisableInternalWakeUpLine:
 355              	.LFB292:
 374:d:/LiteOS_Lab/drivers/third_party/ST/STM32L4xx_HAL_Driver/Src\stm32l4xx_hal_pwr_ex.c **** 
 375:d:/LiteOS_Lab/drivers/third_party/ST/STM32L4xx_HAL_Driver/Src\stm32l4xx_hal_pwr_ex.c **** 
 376:d:/LiteOS_Lab/drivers/third_party/ST/STM32L4xx_HAL_Driver/Src\stm32l4xx_hal_pwr_ex.c **** /**
 377:d:/LiteOS_Lab/drivers/third_party/ST/STM32L4xx_HAL_Driver/Src\stm32l4xx_hal_pwr_ex.c ****   * @brief Disable Internal Wake-up Line. 
 378:d:/LiteOS_Lab/drivers/third_party/ST/STM32L4xx_HAL_Driver/Src\stm32l4xx_hal_pwr_ex.c ****   * @retval None
 379:d:/LiteOS_Lab/drivers/third_party/ST/STM32L4xx_HAL_Driver/Src\stm32l4xx_hal_pwr_ex.c ****   */
 380:d:/LiteOS_Lab/drivers/third_party/ST/STM32L4xx_HAL_Driver/Src\stm32l4xx_hal_pwr_ex.c **** void HAL_PWREx_DisableInternalWakeUpLine(void)
 381:d:/LiteOS_Lab/drivers/third_party/ST/STM32L4xx_HAL_Driver/Src\stm32l4xx_hal_pwr_ex.c **** {
 356              		.loc 1 381 1
 357              		.cfi_startproc
 358              		@ args = 0, pretend = 0, frame = 0
 359              		@ frame_needed = 1, uses_anonymous_args = 0
 360              		@ link register save eliminated.
 361 0000 80B4     		push	{r7}
 362              	.LCFI24:
 363              		.cfi_def_cfa_offset 4
 364              		.cfi_offset 7, -4
 365 0002 00AF     		add	r7, sp, #0
 366              	.LCFI25:
 367              		.cfi_def_cfa_register 7
 382:d:/LiteOS_Lab/drivers/third_party/ST/STM32L4xx_HAL_Driver/Src\stm32l4xx_hal_pwr_ex.c ****   CLEAR_BIT(PWR->CR3, PWR_CR3_EIWF);
ARM GAS  C:\Users\ADMINI~1\AppData\Local\Temp\cciDrfVK.s 			page 14


 368              		.loc 1 382 3
 369 0004 054B     		ldr	r3, .L24
 370 0006 9B68     		ldr	r3, [r3, #8]
 371 0008 044A     		ldr	r2, .L24
 372 000a 23F40043 		bic	r3, r3, #32768
 373 000e 9360     		str	r3, [r2, #8]
 383:d:/LiteOS_Lab/drivers/third_party/ST/STM32L4xx_HAL_Driver/Src\stm32l4xx_hal_pwr_ex.c **** }
 374              		.loc 1 383 1
 375 0010 00BF     		nop
 376 0012 BD46     		mov	sp, r7
 377              	.LCFI26:
 378              		.cfi_def_cfa_register 13
 379              		@ sp needed
 380 0014 5DF8047B 		ldr	r7, [sp], #4
 381              	.LCFI27:
 382              		.cfi_restore 7
 383              		.cfi_def_cfa_offset 0
 384 0018 7047     		bx	lr
 385              	.L25:
 386 001a 00BF     		.align	2
 387              	.L24:
 388 001c 00700040 		.word	1073770496
 389              		.cfi_endproc
 390              	.LFE292:
 392              		.section	.text.HAL_PWREx_EnableGPIOPullUp,"ax",%progbits
 393              		.align	1
 394              		.global	HAL_PWREx_EnableGPIOPullUp
 395              		.syntax unified
 396              		.thumb
 397              		.thumb_func
 398              		.fpu fpv4-sp-d16
 400              	HAL_PWREx_EnableGPIOPullUp:
 401              	.LFB293:
 384:d:/LiteOS_Lab/drivers/third_party/ST/STM32L4xx_HAL_Driver/Src\stm32l4xx_hal_pwr_ex.c **** 
 385:d:/LiteOS_Lab/drivers/third_party/ST/STM32L4xx_HAL_Driver/Src\stm32l4xx_hal_pwr_ex.c **** 
 386:d:/LiteOS_Lab/drivers/third_party/ST/STM32L4xx_HAL_Driver/Src\stm32l4xx_hal_pwr_ex.c **** 
 387:d:/LiteOS_Lab/drivers/third_party/ST/STM32L4xx_HAL_Driver/Src\stm32l4xx_hal_pwr_ex.c **** /**
 388:d:/LiteOS_Lab/drivers/third_party/ST/STM32L4xx_HAL_Driver/Src\stm32l4xx_hal_pwr_ex.c ****   * @brief Enable GPIO pull-up state in Standby and Shutdown modes.
 389:d:/LiteOS_Lab/drivers/third_party/ST/STM32L4xx_HAL_Driver/Src\stm32l4xx_hal_pwr_ex.c ****   * @note  Set the relevant PUy bits of PWR_PUCRx register to configure the I/O in 
 390:d:/LiteOS_Lab/drivers/third_party/ST/STM32L4xx_HAL_Driver/Src\stm32l4xx_hal_pwr_ex.c ****   *        pull-up state in Standby and Shutdown modes. 
 391:d:/LiteOS_Lab/drivers/third_party/ST/STM32L4xx_HAL_Driver/Src\stm32l4xx_hal_pwr_ex.c ****   * @note  This state is effective in Standby and Shutdown modes only if APC bit 
 392:d:/LiteOS_Lab/drivers/third_party/ST/STM32L4xx_HAL_Driver/Src\stm32l4xx_hal_pwr_ex.c ****   *        is set through HAL_PWREx_EnablePullUpPullDownConfig() API.
 393:d:/LiteOS_Lab/drivers/third_party/ST/STM32L4xx_HAL_Driver/Src\stm32l4xx_hal_pwr_ex.c ****   * @note  The configuration is lost when exiting the Shutdown mode due to the 
 394:d:/LiteOS_Lab/drivers/third_party/ST/STM32L4xx_HAL_Driver/Src\stm32l4xx_hal_pwr_ex.c ****   *        power-on reset, maintained when exiting the Standby mode. 
 395:d:/LiteOS_Lab/drivers/third_party/ST/STM32L4xx_HAL_Driver/Src\stm32l4xx_hal_pwr_ex.c ****   * @note  To avoid any conflict at Standby and Shutdown modes exits, the corresponding
 396:d:/LiteOS_Lab/drivers/third_party/ST/STM32L4xx_HAL_Driver/Src\stm32l4xx_hal_pwr_ex.c ****   *        PDy bit of PWR_PDCRx register is cleared unless it is reserved. 
 397:d:/LiteOS_Lab/drivers/third_party/ST/STM32L4xx_HAL_Driver/Src\stm32l4xx_hal_pwr_ex.c ****   * @note  Even if a PUy bit to set is reserved, the other PUy bits entered as input 
 398:d:/LiteOS_Lab/drivers/third_party/ST/STM32L4xx_HAL_Driver/Src\stm32l4xx_hal_pwr_ex.c ****   *        parameter at the same time are set.     
 399:d:/LiteOS_Lab/drivers/third_party/ST/STM32L4xx_HAL_Driver/Src\stm32l4xx_hal_pwr_ex.c ****   * @param  GPIO: Specify the IO port. This parameter can be PWR_GPIO_A, ..., PWR_GPIO_H 
 400:d:/LiteOS_Lab/drivers/third_party/ST/STM32L4xx_HAL_Driver/Src\stm32l4xx_hal_pwr_ex.c ****   *         (or PWR_GPIO_I depending on the devices) to select the GPIO peripheral.
 401:d:/LiteOS_Lab/drivers/third_party/ST/STM32L4xx_HAL_Driver/Src\stm32l4xx_hal_pwr_ex.c ****   * @param  GPIONumber: Specify the I/O pins numbers.
 402:d:/LiteOS_Lab/drivers/third_party/ST/STM32L4xx_HAL_Driver/Src\stm32l4xx_hal_pwr_ex.c ****   *         This parameter can be one of the following values:
 403:d:/LiteOS_Lab/drivers/third_party/ST/STM32L4xx_HAL_Driver/Src\stm32l4xx_hal_pwr_ex.c ****   *         PWR_GPIO_BIT_0, ..., PWR_GPIO_BIT_15 (except for the port where less  
 404:d:/LiteOS_Lab/drivers/third_party/ST/STM32L4xx_HAL_Driver/Src\stm32l4xx_hal_pwr_ex.c ****   *         I/O pins are available) or the logical OR of several of them to set 
 405:d:/LiteOS_Lab/drivers/third_party/ST/STM32L4xx_HAL_Driver/Src\stm32l4xx_hal_pwr_ex.c ****   *         several bits for a given port in a single API call.    
 406:d:/LiteOS_Lab/drivers/third_party/ST/STM32L4xx_HAL_Driver/Src\stm32l4xx_hal_pwr_ex.c ****   * @retval HAL Status
 407:d:/LiteOS_Lab/drivers/third_party/ST/STM32L4xx_HAL_Driver/Src\stm32l4xx_hal_pwr_ex.c ****   */   
ARM GAS  C:\Users\ADMINI~1\AppData\Local\Temp\cciDrfVK.s 			page 15


 408:d:/LiteOS_Lab/drivers/third_party/ST/STM32L4xx_HAL_Driver/Src\stm32l4xx_hal_pwr_ex.c **** HAL_StatusTypeDef HAL_PWREx_EnableGPIOPullUp(uint32_t GPIO, uint32_t GPIONumber)
 409:d:/LiteOS_Lab/drivers/third_party/ST/STM32L4xx_HAL_Driver/Src\stm32l4xx_hal_pwr_ex.c **** {  
 402              		.loc 1 409 1
 403              		.cfi_startproc
 404              		@ args = 0, pretend = 0, frame = 8
 405              		@ frame_needed = 1, uses_anonymous_args = 0
 406              		@ link register save eliminated.
 407 0000 80B4     		push	{r7}
 408              	.LCFI28:
 409              		.cfi_def_cfa_offset 4
 410              		.cfi_offset 7, -4
 411 0002 83B0     		sub	sp, sp, #12
 412              	.LCFI29:
 413              		.cfi_def_cfa_offset 16
 414 0004 00AF     		add	r7, sp, #0
 415              	.LCFI30:
 416              		.cfi_def_cfa_register 7
 417 0006 7860     		str	r0, [r7, #4]
 418 0008 3960     		str	r1, [r7]
 419 000a 7B68     		ldr	r3, [r7, #4]
 420 000c 072B     		cmp	r3, #7
 421 000e 71D8     		bhi	.L27
 422 0010 01A2     		adr	r2, .L29
 423 0012 52F823F0 		ldr	pc, [r2, r3, lsl #2]
 424 0016 00BF     		.p2align 2
 425              	.L29:
 426 0018 39000000 		.word	.L34+1
 427 001c 5D000000 		.word	.L33+1
 428 0020 7D000000 		.word	.L32+1
 429 0024 99000000 		.word	.L31+1
 430 0028 B5000000 		.word	.L30+1
 431 002c F5000000 		.word	.L27+1
 432 0030 F5000000 		.word	.L27+1
 433 0034 D1000000 		.word	.L28+1
 434              		.p2align 1
 435              	.L34:
 410:d:/LiteOS_Lab/drivers/third_party/ST/STM32L4xx_HAL_Driver/Src\stm32l4xx_hal_pwr_ex.c ****   assert_param(IS_PWR_GPIO(GPIO));
 411:d:/LiteOS_Lab/drivers/third_party/ST/STM32L4xx_HAL_Driver/Src\stm32l4xx_hal_pwr_ex.c ****   assert_param(IS_PWR_GPIO_BIT_NUMBER(GPIONumber));
 412:d:/LiteOS_Lab/drivers/third_party/ST/STM32L4xx_HAL_Driver/Src\stm32l4xx_hal_pwr_ex.c **** 
 413:d:/LiteOS_Lab/drivers/third_party/ST/STM32L4xx_HAL_Driver/Src\stm32l4xx_hal_pwr_ex.c ****   switch (GPIO)
 414:d:/LiteOS_Lab/drivers/third_party/ST/STM32L4xx_HAL_Driver/Src\stm32l4xx_hal_pwr_ex.c ****   {
 415:d:/LiteOS_Lab/drivers/third_party/ST/STM32L4xx_HAL_Driver/Src\stm32l4xx_hal_pwr_ex.c ****     case PWR_GPIO_A:
 416:d:/LiteOS_Lab/drivers/third_party/ST/STM32L4xx_HAL_Driver/Src\stm32l4xx_hal_pwr_ex.c ****        SET_BIT(PWR->PUCRA, (GPIONumber & (~(PWR_GPIO_BIT_14))));
 436              		.loc 1 416 8
 437 0038 334B     		ldr	r3, .L37
 438 003a 1A6A     		ldr	r2, [r3, #32]
 439 003c 3B68     		ldr	r3, [r7]
 440 003e 23F48043 		bic	r3, r3, #16384
 441 0042 3149     		ldr	r1, .L37
 442 0044 1343     		orrs	r3, r3, r2
 443 0046 0B62     		str	r3, [r1, #32]
 417:d:/LiteOS_Lab/drivers/third_party/ST/STM32L4xx_HAL_Driver/Src\stm32l4xx_hal_pwr_ex.c ****        CLEAR_BIT(PWR->PDCRA, (GPIONumber & (~(PWR_GPIO_BIT_13|PWR_GPIO_BIT_15))));
 444              		.loc 1 417 8
 445 0048 2F4B     		ldr	r3, .L37
 446 004a 5A6A     		ldr	r2, [r3, #36]
 447 004c 3B68     		ldr	r3, [r7]
 448 004e 23F42043 		bic	r3, r3, #40960
ARM GAS  C:\Users\ADMINI~1\AppData\Local\Temp\cciDrfVK.s 			page 16


 449 0052 DB43     		mvns	r3, r3
 450 0054 2C49     		ldr	r1, .L37
 451 0056 1340     		ands	r3, r3, r2
 452 0058 4B62     		str	r3, [r1, #36]
 418:d:/LiteOS_Lab/drivers/third_party/ST/STM32L4xx_HAL_Driver/Src\stm32l4xx_hal_pwr_ex.c ****        break;
 453              		.loc 1 418 8
 454 005a 4DE0     		b	.L35
 455              	.L33:
 419:d:/LiteOS_Lab/drivers/third_party/ST/STM32L4xx_HAL_Driver/Src\stm32l4xx_hal_pwr_ex.c ****     case PWR_GPIO_B:
 420:d:/LiteOS_Lab/drivers/third_party/ST/STM32L4xx_HAL_Driver/Src\stm32l4xx_hal_pwr_ex.c ****        SET_BIT(PWR->PUCRB, GPIONumber);
 456              		.loc 1 420 8
 457 005c 2A4B     		ldr	r3, .L37
 458 005e 9A6A     		ldr	r2, [r3, #40]
 459 0060 2949     		ldr	r1, .L37
 460 0062 3B68     		ldr	r3, [r7]
 461 0064 1343     		orrs	r3, r3, r2
 462 0066 8B62     		str	r3, [r1, #40]
 421:d:/LiteOS_Lab/drivers/third_party/ST/STM32L4xx_HAL_Driver/Src\stm32l4xx_hal_pwr_ex.c ****        CLEAR_BIT(PWR->PDCRB, (GPIONumber & (~(PWR_GPIO_BIT_4))));
 463              		.loc 1 421 8
 464 0068 274B     		ldr	r3, .L37
 465 006a DA6A     		ldr	r2, [r3, #44]
 466 006c 3B68     		ldr	r3, [r7]
 467 006e 23F01003 		bic	r3, r3, #16
 468 0072 DB43     		mvns	r3, r3
 469 0074 2449     		ldr	r1, .L37
 470 0076 1340     		ands	r3, r3, r2
 471 0078 CB62     		str	r3, [r1, #44]
 422:d:/LiteOS_Lab/drivers/third_party/ST/STM32L4xx_HAL_Driver/Src\stm32l4xx_hal_pwr_ex.c ****        break;
 472              		.loc 1 422 8
 473 007a 3DE0     		b	.L35
 474              	.L32:
 423:d:/LiteOS_Lab/drivers/third_party/ST/STM32L4xx_HAL_Driver/Src\stm32l4xx_hal_pwr_ex.c ****     case PWR_GPIO_C:
 424:d:/LiteOS_Lab/drivers/third_party/ST/STM32L4xx_HAL_Driver/Src\stm32l4xx_hal_pwr_ex.c ****        SET_BIT(PWR->PUCRC, GPIONumber);
 475              		.loc 1 424 8
 476 007c 224B     		ldr	r3, .L37
 477 007e 1A6B     		ldr	r2, [r3, #48]
 478 0080 2149     		ldr	r1, .L37
 479 0082 3B68     		ldr	r3, [r7]
 480 0084 1343     		orrs	r3, r3, r2
 481 0086 0B63     		str	r3, [r1, #48]
 425:d:/LiteOS_Lab/drivers/third_party/ST/STM32L4xx_HAL_Driver/Src\stm32l4xx_hal_pwr_ex.c ****        CLEAR_BIT(PWR->PDCRC, GPIONumber);
 482              		.loc 1 425 8
 483 0088 1F4B     		ldr	r3, .L37
 484 008a 5A6B     		ldr	r2, [r3, #52]
 485 008c 3B68     		ldr	r3, [r7]
 486 008e DB43     		mvns	r3, r3
 487 0090 1D49     		ldr	r1, .L37
 488 0092 1340     		ands	r3, r3, r2
 489 0094 4B63     		str	r3, [r1, #52]
 426:d:/LiteOS_Lab/drivers/third_party/ST/STM32L4xx_HAL_Driver/Src\stm32l4xx_hal_pwr_ex.c ****        break;
 490              		.loc 1 426 8
 491 0096 2FE0     		b	.L35
 492              	.L31:
 427:d:/LiteOS_Lab/drivers/third_party/ST/STM32L4xx_HAL_Driver/Src\stm32l4xx_hal_pwr_ex.c **** #if defined(GPIOD)
 428:d:/LiteOS_Lab/drivers/third_party/ST/STM32L4xx_HAL_Driver/Src\stm32l4xx_hal_pwr_ex.c ****     case PWR_GPIO_D:
 429:d:/LiteOS_Lab/drivers/third_party/ST/STM32L4xx_HAL_Driver/Src\stm32l4xx_hal_pwr_ex.c ****        SET_BIT(PWR->PUCRD, GPIONumber);
 493              		.loc 1 429 8
ARM GAS  C:\Users\ADMINI~1\AppData\Local\Temp\cciDrfVK.s 			page 17


 494 0098 1B4B     		ldr	r3, .L37
 495 009a 9A6B     		ldr	r2, [r3, #56]
 496 009c 1A49     		ldr	r1, .L37
 497 009e 3B68     		ldr	r3, [r7]
 498 00a0 1343     		orrs	r3, r3, r2
 499 00a2 8B63     		str	r3, [r1, #56]
 430:d:/LiteOS_Lab/drivers/third_party/ST/STM32L4xx_HAL_Driver/Src\stm32l4xx_hal_pwr_ex.c ****        CLEAR_BIT(PWR->PDCRD, GPIONumber);
 500              		.loc 1 430 8
 501 00a4 184B     		ldr	r3, .L37
 502 00a6 DA6B     		ldr	r2, [r3, #60]
 503 00a8 3B68     		ldr	r3, [r7]
 504 00aa DB43     		mvns	r3, r3
 505 00ac 1649     		ldr	r1, .L37
 506 00ae 1340     		ands	r3, r3, r2
 507 00b0 CB63     		str	r3, [r1, #60]
 431:d:/LiteOS_Lab/drivers/third_party/ST/STM32L4xx_HAL_Driver/Src\stm32l4xx_hal_pwr_ex.c ****        break;
 508              		.loc 1 431 8
 509 00b2 21E0     		b	.L35
 510              	.L30:
 432:d:/LiteOS_Lab/drivers/third_party/ST/STM32L4xx_HAL_Driver/Src\stm32l4xx_hal_pwr_ex.c **** #endif
 433:d:/LiteOS_Lab/drivers/third_party/ST/STM32L4xx_HAL_Driver/Src\stm32l4xx_hal_pwr_ex.c **** #if defined(GPIOE)
 434:d:/LiteOS_Lab/drivers/third_party/ST/STM32L4xx_HAL_Driver/Src\stm32l4xx_hal_pwr_ex.c ****     case PWR_GPIO_E:
 435:d:/LiteOS_Lab/drivers/third_party/ST/STM32L4xx_HAL_Driver/Src\stm32l4xx_hal_pwr_ex.c ****        SET_BIT(PWR->PUCRE, GPIONumber);
 511              		.loc 1 435 8
 512 00b4 144B     		ldr	r3, .L37
 513 00b6 1A6C     		ldr	r2, [r3, #64]
 514 00b8 1349     		ldr	r1, .L37
 515 00ba 3B68     		ldr	r3, [r7]
 516 00bc 1343     		orrs	r3, r3, r2
 517 00be 0B64     		str	r3, [r1, #64]
 436:d:/LiteOS_Lab/drivers/third_party/ST/STM32L4xx_HAL_Driver/Src\stm32l4xx_hal_pwr_ex.c ****        CLEAR_BIT(PWR->PDCRE, GPIONumber);
 518              		.loc 1 436 8
 519 00c0 114B     		ldr	r3, .L37
 520 00c2 5A6C     		ldr	r2, [r3, #68]
 521 00c4 3B68     		ldr	r3, [r7]
 522 00c6 DB43     		mvns	r3, r3
 523 00c8 0F49     		ldr	r1, .L37
 524 00ca 1340     		ands	r3, r3, r2
 525 00cc 4B64     		str	r3, [r1, #68]
 437:d:/LiteOS_Lab/drivers/third_party/ST/STM32L4xx_HAL_Driver/Src\stm32l4xx_hal_pwr_ex.c ****        break;
 526              		.loc 1 437 8
 527 00ce 13E0     		b	.L35
 528              	.L28:
 438:d:/LiteOS_Lab/drivers/third_party/ST/STM32L4xx_HAL_Driver/Src\stm32l4xx_hal_pwr_ex.c **** #endif
 439:d:/LiteOS_Lab/drivers/third_party/ST/STM32L4xx_HAL_Driver/Src\stm32l4xx_hal_pwr_ex.c **** #if defined(GPIOF)
 440:d:/LiteOS_Lab/drivers/third_party/ST/STM32L4xx_HAL_Driver/Src\stm32l4xx_hal_pwr_ex.c ****     case PWR_GPIO_F:
 441:d:/LiteOS_Lab/drivers/third_party/ST/STM32L4xx_HAL_Driver/Src\stm32l4xx_hal_pwr_ex.c ****        SET_BIT(PWR->PUCRF, GPIONumber);
 442:d:/LiteOS_Lab/drivers/third_party/ST/STM32L4xx_HAL_Driver/Src\stm32l4xx_hal_pwr_ex.c ****        CLEAR_BIT(PWR->PDCRF, GPIONumber);
 443:d:/LiteOS_Lab/drivers/third_party/ST/STM32L4xx_HAL_Driver/Src\stm32l4xx_hal_pwr_ex.c ****        break;
 444:d:/LiteOS_Lab/drivers/third_party/ST/STM32L4xx_HAL_Driver/Src\stm32l4xx_hal_pwr_ex.c **** #endif
 445:d:/LiteOS_Lab/drivers/third_party/ST/STM32L4xx_HAL_Driver/Src\stm32l4xx_hal_pwr_ex.c **** #if defined(GPIOG)
 446:d:/LiteOS_Lab/drivers/third_party/ST/STM32L4xx_HAL_Driver/Src\stm32l4xx_hal_pwr_ex.c ****     case PWR_GPIO_G:
 447:d:/LiteOS_Lab/drivers/third_party/ST/STM32L4xx_HAL_Driver/Src\stm32l4xx_hal_pwr_ex.c ****        SET_BIT(PWR->PUCRG, GPIONumber);
 448:d:/LiteOS_Lab/drivers/third_party/ST/STM32L4xx_HAL_Driver/Src\stm32l4xx_hal_pwr_ex.c ****        CLEAR_BIT(PWR->PDCRG, GPIONumber);
 449:d:/LiteOS_Lab/drivers/third_party/ST/STM32L4xx_HAL_Driver/Src\stm32l4xx_hal_pwr_ex.c ****        break;
 450:d:/LiteOS_Lab/drivers/third_party/ST/STM32L4xx_HAL_Driver/Src\stm32l4xx_hal_pwr_ex.c **** #endif
 451:d:/LiteOS_Lab/drivers/third_party/ST/STM32L4xx_HAL_Driver/Src\stm32l4xx_hal_pwr_ex.c ****     case PWR_GPIO_H:
ARM GAS  C:\Users\ADMINI~1\AppData\Local\Temp\cciDrfVK.s 			page 18


 452:d:/LiteOS_Lab/drivers/third_party/ST/STM32L4xx_HAL_Driver/Src\stm32l4xx_hal_pwr_ex.c ****        SET_BIT(PWR->PUCRH, (GPIONumber & PWR_PORTH_AVAILABLE_PINS));
 529              		.loc 1 452 8
 530 00d0 0D4B     		ldr	r3, .L37
 531 00d2 9A6D     		ldr	r2, [r3, #88]
 532 00d4 3B68     		ldr	r3, [r7]
 533 00d6 03F00B03 		and	r3, r3, #11
 534 00da 0B49     		ldr	r1, .L37
 535 00dc 1343     		orrs	r3, r3, r2
 536 00de 8B65     		str	r3, [r1, #88]
 453:d:/LiteOS_Lab/drivers/third_party/ST/STM32L4xx_HAL_Driver/Src\stm32l4xx_hal_pwr_ex.c **** #if defined (STM32L496xx) || defined (STM32L4A6xx)
 454:d:/LiteOS_Lab/drivers/third_party/ST/STM32L4xx_HAL_Driver/Src\stm32l4xx_hal_pwr_ex.c ****        CLEAR_BIT(PWR->PDCRH, ((GPIONumber & PWR_PORTH_AVAILABLE_PINS) & (~(PWR_GPIO_BIT_3))));
 455:d:/LiteOS_Lab/drivers/third_party/ST/STM32L4xx_HAL_Driver/Src\stm32l4xx_hal_pwr_ex.c **** #else       
 456:d:/LiteOS_Lab/drivers/third_party/ST/STM32L4xx_HAL_Driver/Src\stm32l4xx_hal_pwr_ex.c ****        CLEAR_BIT(PWR->PDCRH, (GPIONumber & PWR_PORTH_AVAILABLE_PINS));
 537              		.loc 1 456 8
 538 00e0 094B     		ldr	r3, .L37
 539 00e2 DA6D     		ldr	r2, [r3, #92]
 540 00e4 3B68     		ldr	r3, [r7]
 541 00e6 03F00B03 		and	r3, r3, #11
 542 00ea DB43     		mvns	r3, r3
 543 00ec 0649     		ldr	r1, .L37
 544 00ee 1340     		ands	r3, r3, r2
 545 00f0 CB65     		str	r3, [r1, #92]
 457:d:/LiteOS_Lab/drivers/third_party/ST/STM32L4xx_HAL_Driver/Src\stm32l4xx_hal_pwr_ex.c **** #endif       
 458:d:/LiteOS_Lab/drivers/third_party/ST/STM32L4xx_HAL_Driver/Src\stm32l4xx_hal_pwr_ex.c ****        break;
 546              		.loc 1 458 8
 547 00f2 01E0     		b	.L35
 548              	.L27:
 459:d:/LiteOS_Lab/drivers/third_party/ST/STM32L4xx_HAL_Driver/Src\stm32l4xx_hal_pwr_ex.c **** #if defined(GPIOI)
 460:d:/LiteOS_Lab/drivers/third_party/ST/STM32L4xx_HAL_Driver/Src\stm32l4xx_hal_pwr_ex.c ****     case PWR_GPIO_I:
 461:d:/LiteOS_Lab/drivers/third_party/ST/STM32L4xx_HAL_Driver/Src\stm32l4xx_hal_pwr_ex.c ****        SET_BIT(PWR->PUCRI, (GPIONumber & PWR_PORTI_AVAILABLE_PINS));
 462:d:/LiteOS_Lab/drivers/third_party/ST/STM32L4xx_HAL_Driver/Src\stm32l4xx_hal_pwr_ex.c ****        CLEAR_BIT(PWR->PDCRI, (GPIONumber & PWR_PORTI_AVAILABLE_PINS));
 463:d:/LiteOS_Lab/drivers/third_party/ST/STM32L4xx_HAL_Driver/Src\stm32l4xx_hal_pwr_ex.c ****        break;
 464:d:/LiteOS_Lab/drivers/third_party/ST/STM32L4xx_HAL_Driver/Src\stm32l4xx_hal_pwr_ex.c **** #endif
 465:d:/LiteOS_Lab/drivers/third_party/ST/STM32L4xx_HAL_Driver/Src\stm32l4xx_hal_pwr_ex.c ****     default:
 466:d:/LiteOS_Lab/drivers/third_party/ST/STM32L4xx_HAL_Driver/Src\stm32l4xx_hal_pwr_ex.c ****        return HAL_ERROR;
 549              		.loc 1 466 15
 550 00f4 0123     		movs	r3, #1
 551 00f6 00E0     		b	.L36
 552              	.L35:
 467:d:/LiteOS_Lab/drivers/third_party/ST/STM32L4xx_HAL_Driver/Src\stm32l4xx_hal_pwr_ex.c ****   }
 468:d:/LiteOS_Lab/drivers/third_party/ST/STM32L4xx_HAL_Driver/Src\stm32l4xx_hal_pwr_ex.c ****   
 469:d:/LiteOS_Lab/drivers/third_party/ST/STM32L4xx_HAL_Driver/Src\stm32l4xx_hal_pwr_ex.c ****   return HAL_OK;
 553              		.loc 1 469 10
 554 00f8 0023     		movs	r3, #0
 555              	.L36:
 470:d:/LiteOS_Lab/drivers/third_party/ST/STM32L4xx_HAL_Driver/Src\stm32l4xx_hal_pwr_ex.c **** }
 556              		.loc 1 470 1
 557 00fa 1846     		mov	r0, r3
 558 00fc 0C37     		adds	r7, r7, #12
 559              	.LCFI31:
 560              		.cfi_def_cfa_offset 4
 561 00fe BD46     		mov	sp, r7
 562              	.LCFI32:
 563              		.cfi_def_cfa_register 13
 564              		@ sp needed
 565 0100 5DF8047B 		ldr	r7, [sp], #4
 566              	.LCFI33:
ARM GAS  C:\Users\ADMINI~1\AppData\Local\Temp\cciDrfVK.s 			page 19


 567              		.cfi_restore 7
 568              		.cfi_def_cfa_offset 0
 569 0104 7047     		bx	lr
 570              	.L38:
 571 0106 00BF     		.align	2
 572              	.L37:
 573 0108 00700040 		.word	1073770496
 574              		.cfi_endproc
 575              	.LFE293:
 577              		.section	.text.HAL_PWREx_DisableGPIOPullUp,"ax",%progbits
 578              		.align	1
 579              		.global	HAL_PWREx_DisableGPIOPullUp
 580              		.syntax unified
 581              		.thumb
 582              		.thumb_func
 583              		.fpu fpv4-sp-d16
 585              	HAL_PWREx_DisableGPIOPullUp:
 586              	.LFB294:
 471:d:/LiteOS_Lab/drivers/third_party/ST/STM32L4xx_HAL_Driver/Src\stm32l4xx_hal_pwr_ex.c **** 
 472:d:/LiteOS_Lab/drivers/third_party/ST/STM32L4xx_HAL_Driver/Src\stm32l4xx_hal_pwr_ex.c **** 
 473:d:/LiteOS_Lab/drivers/third_party/ST/STM32L4xx_HAL_Driver/Src\stm32l4xx_hal_pwr_ex.c **** /**
 474:d:/LiteOS_Lab/drivers/third_party/ST/STM32L4xx_HAL_Driver/Src\stm32l4xx_hal_pwr_ex.c ****   * @brief Disable GPIO pull-up state in Standby mode and Shutdown modes.
 475:d:/LiteOS_Lab/drivers/third_party/ST/STM32L4xx_HAL_Driver/Src\stm32l4xx_hal_pwr_ex.c ****   * @note  Reset the relevant PUy bits of PWR_PUCRx register used to configure the I/O
 476:d:/LiteOS_Lab/drivers/third_party/ST/STM32L4xx_HAL_Driver/Src\stm32l4xx_hal_pwr_ex.c ****   *        in pull-up state in Standby and Shutdown modes.
 477:d:/LiteOS_Lab/drivers/third_party/ST/STM32L4xx_HAL_Driver/Src\stm32l4xx_hal_pwr_ex.c ****   * @note  Even if a PUy bit to reset is reserved, the other PUy bits entered as input 
 478:d:/LiteOS_Lab/drivers/third_party/ST/STM32L4xx_HAL_Driver/Src\stm32l4xx_hal_pwr_ex.c ****   *        parameter at the same time are reset.      
 479:d:/LiteOS_Lab/drivers/third_party/ST/STM32L4xx_HAL_Driver/Src\stm32l4xx_hal_pwr_ex.c ****   * @param  GPIO: Specifies the IO port. This parameter can be PWR_GPIO_A, ..., PWR_GPIO_H 
 480:d:/LiteOS_Lab/drivers/third_party/ST/STM32L4xx_HAL_Driver/Src\stm32l4xx_hal_pwr_ex.c ****   *          (or PWR_GPIO_I depending on the devices) to select the GPIO peripheral.
 481:d:/LiteOS_Lab/drivers/third_party/ST/STM32L4xx_HAL_Driver/Src\stm32l4xx_hal_pwr_ex.c ****   * @param  GPIONumber: Specify the I/O pins numbers.
 482:d:/LiteOS_Lab/drivers/third_party/ST/STM32L4xx_HAL_Driver/Src\stm32l4xx_hal_pwr_ex.c ****   *         This parameter can be one of the following values:
 483:d:/LiteOS_Lab/drivers/third_party/ST/STM32L4xx_HAL_Driver/Src\stm32l4xx_hal_pwr_ex.c ****   *         PWR_GPIO_BIT_0, ..., PWR_GPIO_BIT_15 (except for the port where less  
 484:d:/LiteOS_Lab/drivers/third_party/ST/STM32L4xx_HAL_Driver/Src\stm32l4xx_hal_pwr_ex.c ****   *         I/O pins are available) or the logical OR of several of them to reset 
 485:d:/LiteOS_Lab/drivers/third_party/ST/STM32L4xx_HAL_Driver/Src\stm32l4xx_hal_pwr_ex.c ****   *         several bits for a given port in a single API call. 
 486:d:/LiteOS_Lab/drivers/third_party/ST/STM32L4xx_HAL_Driver/Src\stm32l4xx_hal_pwr_ex.c ****   * @retval HAL Status
 487:d:/LiteOS_Lab/drivers/third_party/ST/STM32L4xx_HAL_Driver/Src\stm32l4xx_hal_pwr_ex.c ****   */   
 488:d:/LiteOS_Lab/drivers/third_party/ST/STM32L4xx_HAL_Driver/Src\stm32l4xx_hal_pwr_ex.c **** HAL_StatusTypeDef HAL_PWREx_DisableGPIOPullUp(uint32_t GPIO, uint32_t GPIONumber)
 489:d:/LiteOS_Lab/drivers/third_party/ST/STM32L4xx_HAL_Driver/Src\stm32l4xx_hal_pwr_ex.c **** {  
 587              		.loc 1 489 1
 588              		.cfi_startproc
 589              		@ args = 0, pretend = 0, frame = 8
 590              		@ frame_needed = 1, uses_anonymous_args = 0
 591              		@ link register save eliminated.
 592 0000 80B4     		push	{r7}
 593              	.LCFI34:
 594              		.cfi_def_cfa_offset 4
 595              		.cfi_offset 7, -4
 596 0002 83B0     		sub	sp, sp, #12
 597              	.LCFI35:
 598              		.cfi_def_cfa_offset 16
 599 0004 00AF     		add	r7, sp, #0
 600              	.LCFI36:
 601              		.cfi_def_cfa_register 7
 602 0006 7860     		str	r0, [r7, #4]
 603 0008 3960     		str	r1, [r7]
 604 000a 7B68     		ldr	r3, [r7, #4]
 605 000c 072B     		cmp	r3, #7
 606 000e 47D8     		bhi	.L40
ARM GAS  C:\Users\ADMINI~1\AppData\Local\Temp\cciDrfVK.s 			page 20


 607 0010 01A2     		adr	r2, .L42
 608 0012 52F823F0 		ldr	pc, [r2, r3, lsl #2]
 609 0016 00BF     		.p2align 2
 610              	.L42:
 611 0018 39000000 		.word	.L47+1
 612 001c 4D000000 		.word	.L46+1
 613 0020 5D000000 		.word	.L45+1
 614 0024 6D000000 		.word	.L44+1
 615 0028 7D000000 		.word	.L43+1
 616 002c A1000000 		.word	.L40+1
 617 0030 A1000000 		.word	.L40+1
 618 0034 8D000000 		.word	.L41+1
 619              		.p2align 1
 620              	.L47:
 490:d:/LiteOS_Lab/drivers/third_party/ST/STM32L4xx_HAL_Driver/Src\stm32l4xx_hal_pwr_ex.c ****   assert_param(IS_PWR_GPIO(GPIO));
 491:d:/LiteOS_Lab/drivers/third_party/ST/STM32L4xx_HAL_Driver/Src\stm32l4xx_hal_pwr_ex.c ****   assert_param(IS_PWR_GPIO_BIT_NUMBER(GPIONumber));
 492:d:/LiteOS_Lab/drivers/third_party/ST/STM32L4xx_HAL_Driver/Src\stm32l4xx_hal_pwr_ex.c ****   
 493:d:/LiteOS_Lab/drivers/third_party/ST/STM32L4xx_HAL_Driver/Src\stm32l4xx_hal_pwr_ex.c ****   switch (GPIO)
 494:d:/LiteOS_Lab/drivers/third_party/ST/STM32L4xx_HAL_Driver/Src\stm32l4xx_hal_pwr_ex.c ****   {
 495:d:/LiteOS_Lab/drivers/third_party/ST/STM32L4xx_HAL_Driver/Src\stm32l4xx_hal_pwr_ex.c ****     case PWR_GPIO_A:
 496:d:/LiteOS_Lab/drivers/third_party/ST/STM32L4xx_HAL_Driver/Src\stm32l4xx_hal_pwr_ex.c ****        CLEAR_BIT(PWR->PUCRA, (GPIONumber & (~(PWR_GPIO_BIT_14))));
 621              		.loc 1 496 8
 622 0038 1E4B     		ldr	r3, .L50
 623 003a 1A6A     		ldr	r2, [r3, #32]
 624 003c 3B68     		ldr	r3, [r7]
 625 003e 23F48043 		bic	r3, r3, #16384
 626 0042 DB43     		mvns	r3, r3
 627 0044 1B49     		ldr	r1, .L50
 628 0046 1340     		ands	r3, r3, r2
 629 0048 0B62     		str	r3, [r1, #32]
 497:d:/LiteOS_Lab/drivers/third_party/ST/STM32L4xx_HAL_Driver/Src\stm32l4xx_hal_pwr_ex.c ****        break;
 630              		.loc 1 497 8
 631 004a 2BE0     		b	.L48
 632              	.L46:
 498:d:/LiteOS_Lab/drivers/third_party/ST/STM32L4xx_HAL_Driver/Src\stm32l4xx_hal_pwr_ex.c ****     case PWR_GPIO_B:
 499:d:/LiteOS_Lab/drivers/third_party/ST/STM32L4xx_HAL_Driver/Src\stm32l4xx_hal_pwr_ex.c ****        CLEAR_BIT(PWR->PUCRB, GPIONumber);
 633              		.loc 1 499 8
 634 004c 194B     		ldr	r3, .L50
 635 004e 9A6A     		ldr	r2, [r3, #40]
 636 0050 3B68     		ldr	r3, [r7]
 637 0052 DB43     		mvns	r3, r3
 638 0054 1749     		ldr	r1, .L50
 639 0056 1340     		ands	r3, r3, r2
 640 0058 8B62     		str	r3, [r1, #40]
 500:d:/LiteOS_Lab/drivers/third_party/ST/STM32L4xx_HAL_Driver/Src\stm32l4xx_hal_pwr_ex.c ****        break;
 641              		.loc 1 500 8
 642 005a 23E0     		b	.L48
 643              	.L45:
 501:d:/LiteOS_Lab/drivers/third_party/ST/STM32L4xx_HAL_Driver/Src\stm32l4xx_hal_pwr_ex.c ****     case PWR_GPIO_C:
 502:d:/LiteOS_Lab/drivers/third_party/ST/STM32L4xx_HAL_Driver/Src\stm32l4xx_hal_pwr_ex.c ****        CLEAR_BIT(PWR->PUCRC, GPIONumber);
 644              		.loc 1 502 8
 645 005c 154B     		ldr	r3, .L50
 646 005e 1A6B     		ldr	r2, [r3, #48]
 647 0060 3B68     		ldr	r3, [r7]
 648 0062 DB43     		mvns	r3, r3
 649 0064 1349     		ldr	r1, .L50
 650 0066 1340     		ands	r3, r3, r2
ARM GAS  C:\Users\ADMINI~1\AppData\Local\Temp\cciDrfVK.s 			page 21


 651 0068 0B63     		str	r3, [r1, #48]
 503:d:/LiteOS_Lab/drivers/third_party/ST/STM32L4xx_HAL_Driver/Src\stm32l4xx_hal_pwr_ex.c ****        break;
 652              		.loc 1 503 8
 653 006a 1BE0     		b	.L48
 654              	.L44:
 504:d:/LiteOS_Lab/drivers/third_party/ST/STM32L4xx_HAL_Driver/Src\stm32l4xx_hal_pwr_ex.c **** #if defined(GPIOD)
 505:d:/LiteOS_Lab/drivers/third_party/ST/STM32L4xx_HAL_Driver/Src\stm32l4xx_hal_pwr_ex.c ****     case PWR_GPIO_D:
 506:d:/LiteOS_Lab/drivers/third_party/ST/STM32L4xx_HAL_Driver/Src\stm32l4xx_hal_pwr_ex.c ****        CLEAR_BIT(PWR->PUCRD, GPIONumber);
 655              		.loc 1 506 8
 656 006c 114B     		ldr	r3, .L50
 657 006e 9A6B     		ldr	r2, [r3, #56]
 658 0070 3B68     		ldr	r3, [r7]
 659 0072 DB43     		mvns	r3, r3
 660 0074 0F49     		ldr	r1, .L50
 661 0076 1340     		ands	r3, r3, r2
 662 0078 8B63     		str	r3, [r1, #56]
 507:d:/LiteOS_Lab/drivers/third_party/ST/STM32L4xx_HAL_Driver/Src\stm32l4xx_hal_pwr_ex.c ****        break;
 663              		.loc 1 507 8
 664 007a 13E0     		b	.L48
 665              	.L43:
 508:d:/LiteOS_Lab/drivers/third_party/ST/STM32L4xx_HAL_Driver/Src\stm32l4xx_hal_pwr_ex.c **** #endif
 509:d:/LiteOS_Lab/drivers/third_party/ST/STM32L4xx_HAL_Driver/Src\stm32l4xx_hal_pwr_ex.c **** #if defined(GPIOE)
 510:d:/LiteOS_Lab/drivers/third_party/ST/STM32L4xx_HAL_Driver/Src\stm32l4xx_hal_pwr_ex.c ****     case PWR_GPIO_E:
 511:d:/LiteOS_Lab/drivers/third_party/ST/STM32L4xx_HAL_Driver/Src\stm32l4xx_hal_pwr_ex.c ****        CLEAR_BIT(PWR->PUCRE, GPIONumber);
 666              		.loc 1 511 8
 667 007c 0D4B     		ldr	r3, .L50
 668 007e 1A6C     		ldr	r2, [r3, #64]
 669 0080 3B68     		ldr	r3, [r7]
 670 0082 DB43     		mvns	r3, r3
 671 0084 0B49     		ldr	r1, .L50
 672 0086 1340     		ands	r3, r3, r2
 673 0088 0B64     		str	r3, [r1, #64]
 512:d:/LiteOS_Lab/drivers/third_party/ST/STM32L4xx_HAL_Driver/Src\stm32l4xx_hal_pwr_ex.c ****        break;
 674              		.loc 1 512 8
 675 008a 0BE0     		b	.L48
 676              	.L41:
 513:d:/LiteOS_Lab/drivers/third_party/ST/STM32L4xx_HAL_Driver/Src\stm32l4xx_hal_pwr_ex.c **** #endif
 514:d:/LiteOS_Lab/drivers/third_party/ST/STM32L4xx_HAL_Driver/Src\stm32l4xx_hal_pwr_ex.c **** #if defined(GPIOF)
 515:d:/LiteOS_Lab/drivers/third_party/ST/STM32L4xx_HAL_Driver/Src\stm32l4xx_hal_pwr_ex.c ****     case PWR_GPIO_F:
 516:d:/LiteOS_Lab/drivers/third_party/ST/STM32L4xx_HAL_Driver/Src\stm32l4xx_hal_pwr_ex.c ****        CLEAR_BIT(PWR->PUCRF, GPIONumber);
 517:d:/LiteOS_Lab/drivers/third_party/ST/STM32L4xx_HAL_Driver/Src\stm32l4xx_hal_pwr_ex.c ****        break;
 518:d:/LiteOS_Lab/drivers/third_party/ST/STM32L4xx_HAL_Driver/Src\stm32l4xx_hal_pwr_ex.c **** #endif
 519:d:/LiteOS_Lab/drivers/third_party/ST/STM32L4xx_HAL_Driver/Src\stm32l4xx_hal_pwr_ex.c **** #if defined(GPIOG)
 520:d:/LiteOS_Lab/drivers/third_party/ST/STM32L4xx_HAL_Driver/Src\stm32l4xx_hal_pwr_ex.c ****     case PWR_GPIO_G:
 521:d:/LiteOS_Lab/drivers/third_party/ST/STM32L4xx_HAL_Driver/Src\stm32l4xx_hal_pwr_ex.c ****        CLEAR_BIT(PWR->PUCRG, GPIONumber);
 522:d:/LiteOS_Lab/drivers/third_party/ST/STM32L4xx_HAL_Driver/Src\stm32l4xx_hal_pwr_ex.c ****        break;
 523:d:/LiteOS_Lab/drivers/third_party/ST/STM32L4xx_HAL_Driver/Src\stm32l4xx_hal_pwr_ex.c **** #endif
 524:d:/LiteOS_Lab/drivers/third_party/ST/STM32L4xx_HAL_Driver/Src\stm32l4xx_hal_pwr_ex.c ****     case PWR_GPIO_H:    
 525:d:/LiteOS_Lab/drivers/third_party/ST/STM32L4xx_HAL_Driver/Src\stm32l4xx_hal_pwr_ex.c ****        CLEAR_BIT(PWR->PUCRH, (GPIONumber & PWR_PORTH_AVAILABLE_PINS));
 677              		.loc 1 525 8
 678 008c 094B     		ldr	r3, .L50
 679 008e 9A6D     		ldr	r2, [r3, #88]
 680 0090 3B68     		ldr	r3, [r7]
 681 0092 03F00B03 		and	r3, r3, #11
 682 0096 DB43     		mvns	r3, r3
 683 0098 0649     		ldr	r1, .L50
 684 009a 1340     		ands	r3, r3, r2
ARM GAS  C:\Users\ADMINI~1\AppData\Local\Temp\cciDrfVK.s 			page 22


 685 009c 8B65     		str	r3, [r1, #88]
 526:d:/LiteOS_Lab/drivers/third_party/ST/STM32L4xx_HAL_Driver/Src\stm32l4xx_hal_pwr_ex.c ****        break;
 686              		.loc 1 526 8
 687 009e 01E0     		b	.L48
 688              	.L40:
 527:d:/LiteOS_Lab/drivers/third_party/ST/STM32L4xx_HAL_Driver/Src\stm32l4xx_hal_pwr_ex.c **** #if defined(GPIOI)
 528:d:/LiteOS_Lab/drivers/third_party/ST/STM32L4xx_HAL_Driver/Src\stm32l4xx_hal_pwr_ex.c ****     case PWR_GPIO_I:
 529:d:/LiteOS_Lab/drivers/third_party/ST/STM32L4xx_HAL_Driver/Src\stm32l4xx_hal_pwr_ex.c ****        CLEAR_BIT(PWR->PUCRI, (GPIONumber & PWR_PORTI_AVAILABLE_PINS));
 530:d:/LiteOS_Lab/drivers/third_party/ST/STM32L4xx_HAL_Driver/Src\stm32l4xx_hal_pwr_ex.c ****        break;
 531:d:/LiteOS_Lab/drivers/third_party/ST/STM32L4xx_HAL_Driver/Src\stm32l4xx_hal_pwr_ex.c **** #endif
 532:d:/LiteOS_Lab/drivers/third_party/ST/STM32L4xx_HAL_Driver/Src\stm32l4xx_hal_pwr_ex.c ****     default:
 533:d:/LiteOS_Lab/drivers/third_party/ST/STM32L4xx_HAL_Driver/Src\stm32l4xx_hal_pwr_ex.c ****        return HAL_ERROR;
 689              		.loc 1 533 15
 690 00a0 0123     		movs	r3, #1
 691 00a2 00E0     		b	.L49
 692              	.L48:
 534:d:/LiteOS_Lab/drivers/third_party/ST/STM32L4xx_HAL_Driver/Src\stm32l4xx_hal_pwr_ex.c ****   }
 535:d:/LiteOS_Lab/drivers/third_party/ST/STM32L4xx_HAL_Driver/Src\stm32l4xx_hal_pwr_ex.c ****   
 536:d:/LiteOS_Lab/drivers/third_party/ST/STM32L4xx_HAL_Driver/Src\stm32l4xx_hal_pwr_ex.c ****   return HAL_OK;
 693              		.loc 1 536 10
 694 00a4 0023     		movs	r3, #0
 695              	.L49:
 537:d:/LiteOS_Lab/drivers/third_party/ST/STM32L4xx_HAL_Driver/Src\stm32l4xx_hal_pwr_ex.c **** }
 696              		.loc 1 537 1
 697 00a6 1846     		mov	r0, r3
 698 00a8 0C37     		adds	r7, r7, #12
 699              	.LCFI37:
 700              		.cfi_def_cfa_offset 4
 701 00aa BD46     		mov	sp, r7
 702              	.LCFI38:
 703              		.cfi_def_cfa_register 13
 704              		@ sp needed
 705 00ac 5DF8047B 		ldr	r7, [sp], #4
 706              	.LCFI39:
 707              		.cfi_restore 7
 708              		.cfi_def_cfa_offset 0
 709 00b0 7047     		bx	lr
 710              	.L51:
 711 00b2 00BF     		.align	2
 712              	.L50:
 713 00b4 00700040 		.word	1073770496
 714              		.cfi_endproc
 715              	.LFE294:
 717              		.section	.text.HAL_PWREx_EnableGPIOPullDown,"ax",%progbits
 718              		.align	1
 719              		.global	HAL_PWREx_EnableGPIOPullDown
 720              		.syntax unified
 721              		.thumb
 722              		.thumb_func
 723              		.fpu fpv4-sp-d16
 725              	HAL_PWREx_EnableGPIOPullDown:
 726              	.LFB295:
 538:d:/LiteOS_Lab/drivers/third_party/ST/STM32L4xx_HAL_Driver/Src\stm32l4xx_hal_pwr_ex.c **** 
 539:d:/LiteOS_Lab/drivers/third_party/ST/STM32L4xx_HAL_Driver/Src\stm32l4xx_hal_pwr_ex.c **** 
 540:d:/LiteOS_Lab/drivers/third_party/ST/STM32L4xx_HAL_Driver/Src\stm32l4xx_hal_pwr_ex.c **** 
 541:d:/LiteOS_Lab/drivers/third_party/ST/STM32L4xx_HAL_Driver/Src\stm32l4xx_hal_pwr_ex.c **** /**
 542:d:/LiteOS_Lab/drivers/third_party/ST/STM32L4xx_HAL_Driver/Src\stm32l4xx_hal_pwr_ex.c ****   * @brief Enable GPIO pull-down state in Standby and Shutdown modes.
ARM GAS  C:\Users\ADMINI~1\AppData\Local\Temp\cciDrfVK.s 			page 23


 543:d:/LiteOS_Lab/drivers/third_party/ST/STM32L4xx_HAL_Driver/Src\stm32l4xx_hal_pwr_ex.c ****   * @note  Set the relevant PDy bits of PWR_PDCRx register to configure the I/O in 
 544:d:/LiteOS_Lab/drivers/third_party/ST/STM32L4xx_HAL_Driver/Src\stm32l4xx_hal_pwr_ex.c ****   *        pull-down state in Standby and Shutdown modes. 
 545:d:/LiteOS_Lab/drivers/third_party/ST/STM32L4xx_HAL_Driver/Src\stm32l4xx_hal_pwr_ex.c ****   * @note  This state is effective in Standby and Shutdown modes only if APC bit
 546:d:/LiteOS_Lab/drivers/third_party/ST/STM32L4xx_HAL_Driver/Src\stm32l4xx_hal_pwr_ex.c ****   *        is set through HAL_PWREx_EnablePullUpPullDownConfig() API. 
 547:d:/LiteOS_Lab/drivers/third_party/ST/STM32L4xx_HAL_Driver/Src\stm32l4xx_hal_pwr_ex.c ****   * @note  The configuration is lost when exiting the Shutdown mode due to the 
 548:d:/LiteOS_Lab/drivers/third_party/ST/STM32L4xx_HAL_Driver/Src\stm32l4xx_hal_pwr_ex.c ****   *        power-on reset, maintained when exiting the Standby mode. 
 549:d:/LiteOS_Lab/drivers/third_party/ST/STM32L4xx_HAL_Driver/Src\stm32l4xx_hal_pwr_ex.c ****   * @note  To avoid any conflict at Standby and Shutdown modes exits, the corresponding
 550:d:/LiteOS_Lab/drivers/third_party/ST/STM32L4xx_HAL_Driver/Src\stm32l4xx_hal_pwr_ex.c ****   *        PUy bit of PWR_PUCRx register is cleared unless it is reserved. 
 551:d:/LiteOS_Lab/drivers/third_party/ST/STM32L4xx_HAL_Driver/Src\stm32l4xx_hal_pwr_ex.c ****   * @note  Even if a PDy bit to set is reserved, the other PDy bits entered as input 
 552:d:/LiteOS_Lab/drivers/third_party/ST/STM32L4xx_HAL_Driver/Src\stm32l4xx_hal_pwr_ex.c ****   *        parameter at the same time are set.         
 553:d:/LiteOS_Lab/drivers/third_party/ST/STM32L4xx_HAL_Driver/Src\stm32l4xx_hal_pwr_ex.c ****   * @param  GPIO: Specify the IO port. This parameter can be PWR_GPIO_A..PWR_GPIO_H 
 554:d:/LiteOS_Lab/drivers/third_party/ST/STM32L4xx_HAL_Driver/Src\stm32l4xx_hal_pwr_ex.c ****   *         (or PWR_GPIO_I depending on the devices) to select the GPIO peripheral.
 555:d:/LiteOS_Lab/drivers/third_party/ST/STM32L4xx_HAL_Driver/Src\stm32l4xx_hal_pwr_ex.c ****   * @param  GPIONumber: Specify the I/O pins numbers.
 556:d:/LiteOS_Lab/drivers/third_party/ST/STM32L4xx_HAL_Driver/Src\stm32l4xx_hal_pwr_ex.c ****   *         This parameter can be one of the following values:
 557:d:/LiteOS_Lab/drivers/third_party/ST/STM32L4xx_HAL_Driver/Src\stm32l4xx_hal_pwr_ex.c ****   *         PWR_GPIO_BIT_0, ..., PWR_GPIO_BIT_15 (except for the port where less  
 558:d:/LiteOS_Lab/drivers/third_party/ST/STM32L4xx_HAL_Driver/Src\stm32l4xx_hal_pwr_ex.c ****   *         I/O pins are available) or the logical OR of several of them to set 
 559:d:/LiteOS_Lab/drivers/third_party/ST/STM32L4xx_HAL_Driver/Src\stm32l4xx_hal_pwr_ex.c ****   *         several bits for a given port in a single API call. 
 560:d:/LiteOS_Lab/drivers/third_party/ST/STM32L4xx_HAL_Driver/Src\stm32l4xx_hal_pwr_ex.c ****   * @retval HAL Status
 561:d:/LiteOS_Lab/drivers/third_party/ST/STM32L4xx_HAL_Driver/Src\stm32l4xx_hal_pwr_ex.c ****   */   
 562:d:/LiteOS_Lab/drivers/third_party/ST/STM32L4xx_HAL_Driver/Src\stm32l4xx_hal_pwr_ex.c **** HAL_StatusTypeDef HAL_PWREx_EnableGPIOPullDown(uint32_t GPIO, uint32_t GPIONumber)
 563:d:/LiteOS_Lab/drivers/third_party/ST/STM32L4xx_HAL_Driver/Src\stm32l4xx_hal_pwr_ex.c **** {
 727              		.loc 1 563 1
 728              		.cfi_startproc
 729              		@ args = 0, pretend = 0, frame = 8
 730              		@ frame_needed = 1, uses_anonymous_args = 0
 731              		@ link register save eliminated.
 732 0000 80B4     		push	{r7}
 733              	.LCFI40:
 734              		.cfi_def_cfa_offset 4
 735              		.cfi_offset 7, -4
 736 0002 83B0     		sub	sp, sp, #12
 737              	.LCFI41:
 738              		.cfi_def_cfa_offset 16
 739 0004 00AF     		add	r7, sp, #0
 740              	.LCFI42:
 741              		.cfi_def_cfa_register 7
 742 0006 7860     		str	r0, [r7, #4]
 743 0008 3960     		str	r1, [r7]
 744 000a 7B68     		ldr	r3, [r7, #4]
 745 000c 072B     		cmp	r3, #7
 746 000e 71D8     		bhi	.L53
 747 0010 01A2     		adr	r2, .L55
 748 0012 52F823F0 		ldr	pc, [r2, r3, lsl #2]
 749 0016 00BF     		.p2align 2
 750              	.L55:
 751 0018 39000000 		.word	.L60+1
 752 001c 5D000000 		.word	.L59+1
 753 0020 7D000000 		.word	.L58+1
 754 0024 99000000 		.word	.L57+1
 755 0028 B5000000 		.word	.L56+1
 756 002c F5000000 		.word	.L53+1
 757 0030 F5000000 		.word	.L53+1
 758 0034 D1000000 		.word	.L54+1
 759              		.p2align 1
 760              	.L60:
 564:d:/LiteOS_Lab/drivers/third_party/ST/STM32L4xx_HAL_Driver/Src\stm32l4xx_hal_pwr_ex.c ****   assert_param(IS_PWR_GPIO(GPIO));
 565:d:/LiteOS_Lab/drivers/third_party/ST/STM32L4xx_HAL_Driver/Src\stm32l4xx_hal_pwr_ex.c ****   assert_param(IS_PWR_GPIO_BIT_NUMBER(GPIONumber));
ARM GAS  C:\Users\ADMINI~1\AppData\Local\Temp\cciDrfVK.s 			page 24


 566:d:/LiteOS_Lab/drivers/third_party/ST/STM32L4xx_HAL_Driver/Src\stm32l4xx_hal_pwr_ex.c ****   
 567:d:/LiteOS_Lab/drivers/third_party/ST/STM32L4xx_HAL_Driver/Src\stm32l4xx_hal_pwr_ex.c ****   switch (GPIO)
 568:d:/LiteOS_Lab/drivers/third_party/ST/STM32L4xx_HAL_Driver/Src\stm32l4xx_hal_pwr_ex.c ****   {
 569:d:/LiteOS_Lab/drivers/third_party/ST/STM32L4xx_HAL_Driver/Src\stm32l4xx_hal_pwr_ex.c ****     case PWR_GPIO_A:
 570:d:/LiteOS_Lab/drivers/third_party/ST/STM32L4xx_HAL_Driver/Src\stm32l4xx_hal_pwr_ex.c ****        SET_BIT(PWR->PDCRA, (GPIONumber & (~(PWR_GPIO_BIT_13|PWR_GPIO_BIT_15))));
 761              		.loc 1 570 8
 762 0038 334B     		ldr	r3, .L63
 763 003a 5A6A     		ldr	r2, [r3, #36]
 764 003c 3B68     		ldr	r3, [r7]
 765 003e 23F42043 		bic	r3, r3, #40960
 766 0042 3149     		ldr	r1, .L63
 767 0044 1343     		orrs	r3, r3, r2
 768 0046 4B62     		str	r3, [r1, #36]
 571:d:/LiteOS_Lab/drivers/third_party/ST/STM32L4xx_HAL_Driver/Src\stm32l4xx_hal_pwr_ex.c ****        CLEAR_BIT(PWR->PUCRA, (GPIONumber & (~(PWR_GPIO_BIT_14))));
 769              		.loc 1 571 8
 770 0048 2F4B     		ldr	r3, .L63
 771 004a 1A6A     		ldr	r2, [r3, #32]
 772 004c 3B68     		ldr	r3, [r7]
 773 004e 23F48043 		bic	r3, r3, #16384
 774 0052 DB43     		mvns	r3, r3
 775 0054 2C49     		ldr	r1, .L63
 776 0056 1340     		ands	r3, r3, r2
 777 0058 0B62     		str	r3, [r1, #32]
 572:d:/LiteOS_Lab/drivers/third_party/ST/STM32L4xx_HAL_Driver/Src\stm32l4xx_hal_pwr_ex.c ****        break;
 778              		.loc 1 572 8
 779 005a 4DE0     		b	.L61
 780              	.L59:
 573:d:/LiteOS_Lab/drivers/third_party/ST/STM32L4xx_HAL_Driver/Src\stm32l4xx_hal_pwr_ex.c ****     case PWR_GPIO_B:
 574:d:/LiteOS_Lab/drivers/third_party/ST/STM32L4xx_HAL_Driver/Src\stm32l4xx_hal_pwr_ex.c ****        SET_BIT(PWR->PDCRB, (GPIONumber & (~(PWR_GPIO_BIT_4))));
 781              		.loc 1 574 8
 782 005c 2A4B     		ldr	r3, .L63
 783 005e DA6A     		ldr	r2, [r3, #44]
 784 0060 3B68     		ldr	r3, [r7]
 785 0062 23F01003 		bic	r3, r3, #16
 786 0066 2849     		ldr	r1, .L63
 787 0068 1343     		orrs	r3, r3, r2
 788 006a CB62     		str	r3, [r1, #44]
 575:d:/LiteOS_Lab/drivers/third_party/ST/STM32L4xx_HAL_Driver/Src\stm32l4xx_hal_pwr_ex.c ****        CLEAR_BIT(PWR->PUCRB, GPIONumber);
 789              		.loc 1 575 8
 790 006c 264B     		ldr	r3, .L63
 791 006e 9A6A     		ldr	r2, [r3, #40]
 792 0070 3B68     		ldr	r3, [r7]
 793 0072 DB43     		mvns	r3, r3
 794 0074 2449     		ldr	r1, .L63
 795 0076 1340     		ands	r3, r3, r2
 796 0078 8B62     		str	r3, [r1, #40]
 576:d:/LiteOS_Lab/drivers/third_party/ST/STM32L4xx_HAL_Driver/Src\stm32l4xx_hal_pwr_ex.c ****        break;
 797              		.loc 1 576 8
 798 007a 3DE0     		b	.L61
 799              	.L58:
 577:d:/LiteOS_Lab/drivers/third_party/ST/STM32L4xx_HAL_Driver/Src\stm32l4xx_hal_pwr_ex.c ****     case PWR_GPIO_C:
 578:d:/LiteOS_Lab/drivers/third_party/ST/STM32L4xx_HAL_Driver/Src\stm32l4xx_hal_pwr_ex.c ****        SET_BIT(PWR->PDCRC, GPIONumber);
 800              		.loc 1 578 8
 801 007c 224B     		ldr	r3, .L63
 802 007e 5A6B     		ldr	r2, [r3, #52]
 803 0080 2149     		ldr	r1, .L63
 804 0082 3B68     		ldr	r3, [r7]
ARM GAS  C:\Users\ADMINI~1\AppData\Local\Temp\cciDrfVK.s 			page 25


 805 0084 1343     		orrs	r3, r3, r2
 806 0086 4B63     		str	r3, [r1, #52]
 579:d:/LiteOS_Lab/drivers/third_party/ST/STM32L4xx_HAL_Driver/Src\stm32l4xx_hal_pwr_ex.c ****        CLEAR_BIT(PWR->PUCRC, GPIONumber);
 807              		.loc 1 579 8
 808 0088 1F4B     		ldr	r3, .L63
 809 008a 1A6B     		ldr	r2, [r3, #48]
 810 008c 3B68     		ldr	r3, [r7]
 811 008e DB43     		mvns	r3, r3
 812 0090 1D49     		ldr	r1, .L63
 813 0092 1340     		ands	r3, r3, r2
 814 0094 0B63     		str	r3, [r1, #48]
 580:d:/LiteOS_Lab/drivers/third_party/ST/STM32L4xx_HAL_Driver/Src\stm32l4xx_hal_pwr_ex.c ****        break;
 815              		.loc 1 580 8
 816 0096 2FE0     		b	.L61
 817              	.L57:
 581:d:/LiteOS_Lab/drivers/third_party/ST/STM32L4xx_HAL_Driver/Src\stm32l4xx_hal_pwr_ex.c **** #if defined(GPIOD)
 582:d:/LiteOS_Lab/drivers/third_party/ST/STM32L4xx_HAL_Driver/Src\stm32l4xx_hal_pwr_ex.c ****     case PWR_GPIO_D:
 583:d:/LiteOS_Lab/drivers/third_party/ST/STM32L4xx_HAL_Driver/Src\stm32l4xx_hal_pwr_ex.c ****        SET_BIT(PWR->PDCRD, GPIONumber);
 818              		.loc 1 583 8
 819 0098 1B4B     		ldr	r3, .L63
 820 009a DA6B     		ldr	r2, [r3, #60]
 821 009c 1A49     		ldr	r1, .L63
 822 009e 3B68     		ldr	r3, [r7]
 823 00a0 1343     		orrs	r3, r3, r2
 824 00a2 CB63     		str	r3, [r1, #60]
 584:d:/LiteOS_Lab/drivers/third_party/ST/STM32L4xx_HAL_Driver/Src\stm32l4xx_hal_pwr_ex.c ****        CLEAR_BIT(PWR->PUCRD, GPIONumber);
 825              		.loc 1 584 8
 826 00a4 184B     		ldr	r3, .L63
 827 00a6 9A6B     		ldr	r2, [r3, #56]
 828 00a8 3B68     		ldr	r3, [r7]
 829 00aa DB43     		mvns	r3, r3
 830 00ac 1649     		ldr	r1, .L63
 831 00ae 1340     		ands	r3, r3, r2
 832 00b0 8B63     		str	r3, [r1, #56]
 585:d:/LiteOS_Lab/drivers/third_party/ST/STM32L4xx_HAL_Driver/Src\stm32l4xx_hal_pwr_ex.c ****        break;
 833              		.loc 1 585 8
 834 00b2 21E0     		b	.L61
 835              	.L56:
 586:d:/LiteOS_Lab/drivers/third_party/ST/STM32L4xx_HAL_Driver/Src\stm32l4xx_hal_pwr_ex.c **** #endif
 587:d:/LiteOS_Lab/drivers/third_party/ST/STM32L4xx_HAL_Driver/Src\stm32l4xx_hal_pwr_ex.c **** #if defined(GPIOE)
 588:d:/LiteOS_Lab/drivers/third_party/ST/STM32L4xx_HAL_Driver/Src\stm32l4xx_hal_pwr_ex.c ****     case PWR_GPIO_E:
 589:d:/LiteOS_Lab/drivers/third_party/ST/STM32L4xx_HAL_Driver/Src\stm32l4xx_hal_pwr_ex.c ****        SET_BIT(PWR->PDCRE, GPIONumber);
 836              		.loc 1 589 8
 837 00b4 144B     		ldr	r3, .L63
 838 00b6 5A6C     		ldr	r2, [r3, #68]
 839 00b8 1349     		ldr	r1, .L63
 840 00ba 3B68     		ldr	r3, [r7]
 841 00bc 1343     		orrs	r3, r3, r2
 842 00be 4B64     		str	r3, [r1, #68]
 590:d:/LiteOS_Lab/drivers/third_party/ST/STM32L4xx_HAL_Driver/Src\stm32l4xx_hal_pwr_ex.c ****        CLEAR_BIT(PWR->PUCRE, GPIONumber);
 843              		.loc 1 590 8
 844 00c0 114B     		ldr	r3, .L63
 845 00c2 1A6C     		ldr	r2, [r3, #64]
 846 00c4 3B68     		ldr	r3, [r7]
 847 00c6 DB43     		mvns	r3, r3
 848 00c8 0F49     		ldr	r1, .L63
 849 00ca 1340     		ands	r3, r3, r2
ARM GAS  C:\Users\ADMINI~1\AppData\Local\Temp\cciDrfVK.s 			page 26


 850 00cc 0B64     		str	r3, [r1, #64]
 591:d:/LiteOS_Lab/drivers/third_party/ST/STM32L4xx_HAL_Driver/Src\stm32l4xx_hal_pwr_ex.c ****        break;
 851              		.loc 1 591 8
 852 00ce 13E0     		b	.L61
 853              	.L54:
 592:d:/LiteOS_Lab/drivers/third_party/ST/STM32L4xx_HAL_Driver/Src\stm32l4xx_hal_pwr_ex.c **** #endif
 593:d:/LiteOS_Lab/drivers/third_party/ST/STM32L4xx_HAL_Driver/Src\stm32l4xx_hal_pwr_ex.c **** #if defined(GPIOF)
 594:d:/LiteOS_Lab/drivers/third_party/ST/STM32L4xx_HAL_Driver/Src\stm32l4xx_hal_pwr_ex.c ****     case PWR_GPIO_F:
 595:d:/LiteOS_Lab/drivers/third_party/ST/STM32L4xx_HAL_Driver/Src\stm32l4xx_hal_pwr_ex.c ****        SET_BIT(PWR->PDCRF, GPIONumber);
 596:d:/LiteOS_Lab/drivers/third_party/ST/STM32L4xx_HAL_Driver/Src\stm32l4xx_hal_pwr_ex.c ****        CLEAR_BIT(PWR->PUCRF, GPIONumber);
 597:d:/LiteOS_Lab/drivers/third_party/ST/STM32L4xx_HAL_Driver/Src\stm32l4xx_hal_pwr_ex.c ****        break;
 598:d:/LiteOS_Lab/drivers/third_party/ST/STM32L4xx_HAL_Driver/Src\stm32l4xx_hal_pwr_ex.c **** #endif
 599:d:/LiteOS_Lab/drivers/third_party/ST/STM32L4xx_HAL_Driver/Src\stm32l4xx_hal_pwr_ex.c **** #if defined(GPIOG)
 600:d:/LiteOS_Lab/drivers/third_party/ST/STM32L4xx_HAL_Driver/Src\stm32l4xx_hal_pwr_ex.c ****     case PWR_GPIO_G:
 601:d:/LiteOS_Lab/drivers/third_party/ST/STM32L4xx_HAL_Driver/Src\stm32l4xx_hal_pwr_ex.c ****        SET_BIT(PWR->PDCRG, GPIONumber);
 602:d:/LiteOS_Lab/drivers/third_party/ST/STM32L4xx_HAL_Driver/Src\stm32l4xx_hal_pwr_ex.c ****        CLEAR_BIT(PWR->PUCRG, GPIONumber);
 603:d:/LiteOS_Lab/drivers/third_party/ST/STM32L4xx_HAL_Driver/Src\stm32l4xx_hal_pwr_ex.c ****        break;
 604:d:/LiteOS_Lab/drivers/third_party/ST/STM32L4xx_HAL_Driver/Src\stm32l4xx_hal_pwr_ex.c **** #endif
 605:d:/LiteOS_Lab/drivers/third_party/ST/STM32L4xx_HAL_Driver/Src\stm32l4xx_hal_pwr_ex.c ****     case PWR_GPIO_H:
 606:d:/LiteOS_Lab/drivers/third_party/ST/STM32L4xx_HAL_Driver/Src\stm32l4xx_hal_pwr_ex.c **** #if defined (STM32L496xx) || defined (STM32L4A6xx)
 607:d:/LiteOS_Lab/drivers/third_party/ST/STM32L4xx_HAL_Driver/Src\stm32l4xx_hal_pwr_ex.c ****        SET_BIT(PWR->PDCRH, ((GPIONumber & PWR_PORTH_AVAILABLE_PINS) & (~(PWR_GPIO_BIT_3))));
 608:d:/LiteOS_Lab/drivers/third_party/ST/STM32L4xx_HAL_Driver/Src\stm32l4xx_hal_pwr_ex.c **** #else       
 609:d:/LiteOS_Lab/drivers/third_party/ST/STM32L4xx_HAL_Driver/Src\stm32l4xx_hal_pwr_ex.c ****        SET_BIT(PWR->PDCRH, (GPIONumber & PWR_PORTH_AVAILABLE_PINS));
 854              		.loc 1 609 8
 855 00d0 0D4B     		ldr	r3, .L63
 856 00d2 DA6D     		ldr	r2, [r3, #92]
 857 00d4 3B68     		ldr	r3, [r7]
 858 00d6 03F00B03 		and	r3, r3, #11
 859 00da 0B49     		ldr	r1, .L63
 860 00dc 1343     		orrs	r3, r3, r2
 861 00de CB65     		str	r3, [r1, #92]
 610:d:/LiteOS_Lab/drivers/third_party/ST/STM32L4xx_HAL_Driver/Src\stm32l4xx_hal_pwr_ex.c **** #endif  
 611:d:/LiteOS_Lab/drivers/third_party/ST/STM32L4xx_HAL_Driver/Src\stm32l4xx_hal_pwr_ex.c ****        CLEAR_BIT(PWR->PUCRH, (GPIONumber & PWR_PORTH_AVAILABLE_PINS));
 862              		.loc 1 611 8
 863 00e0 094B     		ldr	r3, .L63
 864 00e2 9A6D     		ldr	r2, [r3, #88]
 865 00e4 3B68     		ldr	r3, [r7]
 866 00e6 03F00B03 		and	r3, r3, #11
 867 00ea DB43     		mvns	r3, r3
 868 00ec 0649     		ldr	r1, .L63
 869 00ee 1340     		ands	r3, r3, r2
 870 00f0 8B65     		str	r3, [r1, #88]
 612:d:/LiteOS_Lab/drivers/third_party/ST/STM32L4xx_HAL_Driver/Src\stm32l4xx_hal_pwr_ex.c ****        break;
 871              		.loc 1 612 8
 872 00f2 01E0     		b	.L61
 873              	.L53:
 613:d:/LiteOS_Lab/drivers/third_party/ST/STM32L4xx_HAL_Driver/Src\stm32l4xx_hal_pwr_ex.c **** #if defined(GPIOI)
 614:d:/LiteOS_Lab/drivers/third_party/ST/STM32L4xx_HAL_Driver/Src\stm32l4xx_hal_pwr_ex.c ****     case PWR_GPIO_I:
 615:d:/LiteOS_Lab/drivers/third_party/ST/STM32L4xx_HAL_Driver/Src\stm32l4xx_hal_pwr_ex.c ****        SET_BIT(PWR->PDCRI, (GPIONumber & PWR_PORTI_AVAILABLE_PINS));
 616:d:/LiteOS_Lab/drivers/third_party/ST/STM32L4xx_HAL_Driver/Src\stm32l4xx_hal_pwr_ex.c ****        CLEAR_BIT(PWR->PUCRI, (GPIONumber & PWR_PORTI_AVAILABLE_PINS));
 617:d:/LiteOS_Lab/drivers/third_party/ST/STM32L4xx_HAL_Driver/Src\stm32l4xx_hal_pwr_ex.c ****        break;
 618:d:/LiteOS_Lab/drivers/third_party/ST/STM32L4xx_HAL_Driver/Src\stm32l4xx_hal_pwr_ex.c **** #endif
 619:d:/LiteOS_Lab/drivers/third_party/ST/STM32L4xx_HAL_Driver/Src\stm32l4xx_hal_pwr_ex.c ****     default:
 620:d:/LiteOS_Lab/drivers/third_party/ST/STM32L4xx_HAL_Driver/Src\stm32l4xx_hal_pwr_ex.c ****        return HAL_ERROR;
 874              		.loc 1 620 15
 875 00f4 0123     		movs	r3, #1
 876 00f6 00E0     		b	.L62
ARM GAS  C:\Users\ADMINI~1\AppData\Local\Temp\cciDrfVK.s 			page 27


 877              	.L61:
 621:d:/LiteOS_Lab/drivers/third_party/ST/STM32L4xx_HAL_Driver/Src\stm32l4xx_hal_pwr_ex.c ****   }
 622:d:/LiteOS_Lab/drivers/third_party/ST/STM32L4xx_HAL_Driver/Src\stm32l4xx_hal_pwr_ex.c ****   
 623:d:/LiteOS_Lab/drivers/third_party/ST/STM32L4xx_HAL_Driver/Src\stm32l4xx_hal_pwr_ex.c ****   return HAL_OK;
 878              		.loc 1 623 10
 879 00f8 0023     		movs	r3, #0
 880              	.L62:
 624:d:/LiteOS_Lab/drivers/third_party/ST/STM32L4xx_HAL_Driver/Src\stm32l4xx_hal_pwr_ex.c **** }
 881              		.loc 1 624 1
 882 00fa 1846     		mov	r0, r3
 883 00fc 0C37     		adds	r7, r7, #12
 884              	.LCFI43:
 885              		.cfi_def_cfa_offset 4
 886 00fe BD46     		mov	sp, r7
 887              	.LCFI44:
 888              		.cfi_def_cfa_register 13
 889              		@ sp needed
 890 0100 5DF8047B 		ldr	r7, [sp], #4
 891              	.LCFI45:
 892              		.cfi_restore 7
 893              		.cfi_def_cfa_offset 0
 894 0104 7047     		bx	lr
 895              	.L64:
 896 0106 00BF     		.align	2
 897              	.L63:
 898 0108 00700040 		.word	1073770496
 899              		.cfi_endproc
 900              	.LFE295:
 902              		.section	.text.HAL_PWREx_DisableGPIOPullDown,"ax",%progbits
 903              		.align	1
 904              		.global	HAL_PWREx_DisableGPIOPullDown
 905              		.syntax unified
 906              		.thumb
 907              		.thumb_func
 908              		.fpu fpv4-sp-d16
 910              	HAL_PWREx_DisableGPIOPullDown:
 911              	.LFB296:
 625:d:/LiteOS_Lab/drivers/third_party/ST/STM32L4xx_HAL_Driver/Src\stm32l4xx_hal_pwr_ex.c **** 
 626:d:/LiteOS_Lab/drivers/third_party/ST/STM32L4xx_HAL_Driver/Src\stm32l4xx_hal_pwr_ex.c **** 
 627:d:/LiteOS_Lab/drivers/third_party/ST/STM32L4xx_HAL_Driver/Src\stm32l4xx_hal_pwr_ex.c **** /**
 628:d:/LiteOS_Lab/drivers/third_party/ST/STM32L4xx_HAL_Driver/Src\stm32l4xx_hal_pwr_ex.c ****   * @brief Disable GPIO pull-down state in Standby and Shutdown modes.
 629:d:/LiteOS_Lab/drivers/third_party/ST/STM32L4xx_HAL_Driver/Src\stm32l4xx_hal_pwr_ex.c ****   * @note  Reset the relevant PDy bits of PWR_PDCRx register used to configure the I/O
 630:d:/LiteOS_Lab/drivers/third_party/ST/STM32L4xx_HAL_Driver/Src\stm32l4xx_hal_pwr_ex.c ****   *        in pull-down state in Standby and Shutdown modes. 
 631:d:/LiteOS_Lab/drivers/third_party/ST/STM32L4xx_HAL_Driver/Src\stm32l4xx_hal_pwr_ex.c ****   * @note  Even if a PDy bit to reset is reserved, the other PDy bits entered as input 
 632:d:/LiteOS_Lab/drivers/third_party/ST/STM32L4xx_HAL_Driver/Src\stm32l4xx_hal_pwr_ex.c ****   *        parameter at the same time are reset.   
 633:d:/LiteOS_Lab/drivers/third_party/ST/STM32L4xx_HAL_Driver/Src\stm32l4xx_hal_pwr_ex.c ****   * @param  GPIO: Specifies the IO port. This parameter can be PWR_GPIO_A..PWR_GPIO_H 
 634:d:/LiteOS_Lab/drivers/third_party/ST/STM32L4xx_HAL_Driver/Src\stm32l4xx_hal_pwr_ex.c ****   *         (or PWR_GPIO_I depending on the devices) to select the GPIO peripheral.
 635:d:/LiteOS_Lab/drivers/third_party/ST/STM32L4xx_HAL_Driver/Src\stm32l4xx_hal_pwr_ex.c ****   * @param  GPIONumber: Specify the I/O pins numbers.
 636:d:/LiteOS_Lab/drivers/third_party/ST/STM32L4xx_HAL_Driver/Src\stm32l4xx_hal_pwr_ex.c ****   *         This parameter can be one of the following values:
 637:d:/LiteOS_Lab/drivers/third_party/ST/STM32L4xx_HAL_Driver/Src\stm32l4xx_hal_pwr_ex.c ****   *         PWR_GPIO_BIT_0, ..., PWR_GPIO_BIT_15 (except for the port where less  
 638:d:/LiteOS_Lab/drivers/third_party/ST/STM32L4xx_HAL_Driver/Src\stm32l4xx_hal_pwr_ex.c ****   *         I/O pins are available) or the logical OR of several of them to reset 
 639:d:/LiteOS_Lab/drivers/third_party/ST/STM32L4xx_HAL_Driver/Src\stm32l4xx_hal_pwr_ex.c ****   *         several bits for a given port in a single API call. 
 640:d:/LiteOS_Lab/drivers/third_party/ST/STM32L4xx_HAL_Driver/Src\stm32l4xx_hal_pwr_ex.c ****   * @retval HAL Status
 641:d:/LiteOS_Lab/drivers/third_party/ST/STM32L4xx_HAL_Driver/Src\stm32l4xx_hal_pwr_ex.c ****   */   
 642:d:/LiteOS_Lab/drivers/third_party/ST/STM32L4xx_HAL_Driver/Src\stm32l4xx_hal_pwr_ex.c **** HAL_StatusTypeDef HAL_PWREx_DisableGPIOPullDown(uint32_t GPIO, uint32_t GPIONumber)
 643:d:/LiteOS_Lab/drivers/third_party/ST/STM32L4xx_HAL_Driver/Src\stm32l4xx_hal_pwr_ex.c **** {
 912              		.loc 1 643 1
ARM GAS  C:\Users\ADMINI~1\AppData\Local\Temp\cciDrfVK.s 			page 28


 913              		.cfi_startproc
 914              		@ args = 0, pretend = 0, frame = 8
 915              		@ frame_needed = 1, uses_anonymous_args = 0
 916              		@ link register save eliminated.
 917 0000 80B4     		push	{r7}
 918              	.LCFI46:
 919              		.cfi_def_cfa_offset 4
 920              		.cfi_offset 7, -4
 921 0002 83B0     		sub	sp, sp, #12
 922              	.LCFI47:
 923              		.cfi_def_cfa_offset 16
 924 0004 00AF     		add	r7, sp, #0
 925              	.LCFI48:
 926              		.cfi_def_cfa_register 7
 927 0006 7860     		str	r0, [r7, #4]
 928 0008 3960     		str	r1, [r7]
 929 000a 7B68     		ldr	r3, [r7, #4]
 930 000c 072B     		cmp	r3, #7
 931 000e 49D8     		bhi	.L66
 932 0010 01A2     		adr	r2, .L68
 933 0012 52F823F0 		ldr	pc, [r2, r3, lsl #2]
 934 0016 00BF     		.p2align 2
 935              	.L68:
 936 0018 39000000 		.word	.L73+1
 937 001c 4D000000 		.word	.L72+1
 938 0020 61000000 		.word	.L71+1
 939 0024 71000000 		.word	.L70+1
 940 0028 81000000 		.word	.L69+1
 941 002c A5000000 		.word	.L66+1
 942 0030 A5000000 		.word	.L66+1
 943 0034 91000000 		.word	.L67+1
 944              		.p2align 1
 945              	.L73:
 644:d:/LiteOS_Lab/drivers/third_party/ST/STM32L4xx_HAL_Driver/Src\stm32l4xx_hal_pwr_ex.c ****   assert_param(IS_PWR_GPIO(GPIO));
 645:d:/LiteOS_Lab/drivers/third_party/ST/STM32L4xx_HAL_Driver/Src\stm32l4xx_hal_pwr_ex.c ****   assert_param(IS_PWR_GPIO_BIT_NUMBER(GPIONumber));
 646:d:/LiteOS_Lab/drivers/third_party/ST/STM32L4xx_HAL_Driver/Src\stm32l4xx_hal_pwr_ex.c ****    
 647:d:/LiteOS_Lab/drivers/third_party/ST/STM32L4xx_HAL_Driver/Src\stm32l4xx_hal_pwr_ex.c ****   switch (GPIO)
 648:d:/LiteOS_Lab/drivers/third_party/ST/STM32L4xx_HAL_Driver/Src\stm32l4xx_hal_pwr_ex.c ****   {
 649:d:/LiteOS_Lab/drivers/third_party/ST/STM32L4xx_HAL_Driver/Src\stm32l4xx_hal_pwr_ex.c ****     case PWR_GPIO_A:
 650:d:/LiteOS_Lab/drivers/third_party/ST/STM32L4xx_HAL_Driver/Src\stm32l4xx_hal_pwr_ex.c ****        CLEAR_BIT(PWR->PDCRA, (GPIONumber & (~(PWR_GPIO_BIT_13|PWR_GPIO_BIT_15))));
 946              		.loc 1 650 8
 947 0038 1F4B     		ldr	r3, .L76
 948 003a 5A6A     		ldr	r2, [r3, #36]
 949 003c 3B68     		ldr	r3, [r7]
 950 003e 23F42043 		bic	r3, r3, #40960
 951 0042 DB43     		mvns	r3, r3
 952 0044 1C49     		ldr	r1, .L76
 953 0046 1340     		ands	r3, r3, r2
 954 0048 4B62     		str	r3, [r1, #36]
 651:d:/LiteOS_Lab/drivers/third_party/ST/STM32L4xx_HAL_Driver/Src\stm32l4xx_hal_pwr_ex.c ****        break;
 955              		.loc 1 651 8
 956 004a 2DE0     		b	.L74
 957              	.L72:
 652:d:/LiteOS_Lab/drivers/third_party/ST/STM32L4xx_HAL_Driver/Src\stm32l4xx_hal_pwr_ex.c ****     case PWR_GPIO_B:
 653:d:/LiteOS_Lab/drivers/third_party/ST/STM32L4xx_HAL_Driver/Src\stm32l4xx_hal_pwr_ex.c ****        CLEAR_BIT(PWR->PDCRB, (GPIONumber & (~(PWR_GPIO_BIT_4))));
 958              		.loc 1 653 8
 959 004c 1A4B     		ldr	r3, .L76
ARM GAS  C:\Users\ADMINI~1\AppData\Local\Temp\cciDrfVK.s 			page 29


 960 004e DA6A     		ldr	r2, [r3, #44]
 961 0050 3B68     		ldr	r3, [r7]
 962 0052 23F01003 		bic	r3, r3, #16
 963 0056 DB43     		mvns	r3, r3
 964 0058 1749     		ldr	r1, .L76
 965 005a 1340     		ands	r3, r3, r2
 966 005c CB62     		str	r3, [r1, #44]
 654:d:/LiteOS_Lab/drivers/third_party/ST/STM32L4xx_HAL_Driver/Src\stm32l4xx_hal_pwr_ex.c ****        break; 
 967              		.loc 1 654 8
 968 005e 23E0     		b	.L74
 969              	.L71:
 655:d:/LiteOS_Lab/drivers/third_party/ST/STM32L4xx_HAL_Driver/Src\stm32l4xx_hal_pwr_ex.c ****     case PWR_GPIO_C:
 656:d:/LiteOS_Lab/drivers/third_party/ST/STM32L4xx_HAL_Driver/Src\stm32l4xx_hal_pwr_ex.c ****        CLEAR_BIT(PWR->PDCRC, GPIONumber);
 970              		.loc 1 656 8
 971 0060 154B     		ldr	r3, .L76
 972 0062 5A6B     		ldr	r2, [r3, #52]
 973 0064 3B68     		ldr	r3, [r7]
 974 0066 DB43     		mvns	r3, r3
 975 0068 1349     		ldr	r1, .L76
 976 006a 1340     		ands	r3, r3, r2
 977 006c 4B63     		str	r3, [r1, #52]
 657:d:/LiteOS_Lab/drivers/third_party/ST/STM32L4xx_HAL_Driver/Src\stm32l4xx_hal_pwr_ex.c ****        break;
 978              		.loc 1 657 8
 979 006e 1BE0     		b	.L74
 980              	.L70:
 658:d:/LiteOS_Lab/drivers/third_party/ST/STM32L4xx_HAL_Driver/Src\stm32l4xx_hal_pwr_ex.c **** #if defined(GPIOD)
 659:d:/LiteOS_Lab/drivers/third_party/ST/STM32L4xx_HAL_Driver/Src\stm32l4xx_hal_pwr_ex.c ****     case PWR_GPIO_D:
 660:d:/LiteOS_Lab/drivers/third_party/ST/STM32L4xx_HAL_Driver/Src\stm32l4xx_hal_pwr_ex.c ****        CLEAR_BIT(PWR->PDCRD, GPIONumber);
 981              		.loc 1 660 8
 982 0070 114B     		ldr	r3, .L76
 983 0072 DA6B     		ldr	r2, [r3, #60]
 984 0074 3B68     		ldr	r3, [r7]
 985 0076 DB43     		mvns	r3, r3
 986 0078 0F49     		ldr	r1, .L76
 987 007a 1340     		ands	r3, r3, r2
 988 007c CB63     		str	r3, [r1, #60]
 661:d:/LiteOS_Lab/drivers/third_party/ST/STM32L4xx_HAL_Driver/Src\stm32l4xx_hal_pwr_ex.c ****        break;
 989              		.loc 1 661 8
 990 007e 13E0     		b	.L74
 991              	.L69:
 662:d:/LiteOS_Lab/drivers/third_party/ST/STM32L4xx_HAL_Driver/Src\stm32l4xx_hal_pwr_ex.c **** #endif
 663:d:/LiteOS_Lab/drivers/third_party/ST/STM32L4xx_HAL_Driver/Src\stm32l4xx_hal_pwr_ex.c **** #if defined(GPIOE)
 664:d:/LiteOS_Lab/drivers/third_party/ST/STM32L4xx_HAL_Driver/Src\stm32l4xx_hal_pwr_ex.c ****     case PWR_GPIO_E:
 665:d:/LiteOS_Lab/drivers/third_party/ST/STM32L4xx_HAL_Driver/Src\stm32l4xx_hal_pwr_ex.c ****        CLEAR_BIT(PWR->PDCRE, GPIONumber);
 992              		.loc 1 665 8
 993 0080 0D4B     		ldr	r3, .L76
 994 0082 5A6C     		ldr	r2, [r3, #68]
 995 0084 3B68     		ldr	r3, [r7]
 996 0086 DB43     		mvns	r3, r3
 997 0088 0B49     		ldr	r1, .L76
 998 008a 1340     		ands	r3, r3, r2
 999 008c 4B64     		str	r3, [r1, #68]
 666:d:/LiteOS_Lab/drivers/third_party/ST/STM32L4xx_HAL_Driver/Src\stm32l4xx_hal_pwr_ex.c ****        break;
 1000              		.loc 1 666 8
 1001 008e 0BE0     		b	.L74
 1002              	.L67:
 667:d:/LiteOS_Lab/drivers/third_party/ST/STM32L4xx_HAL_Driver/Src\stm32l4xx_hal_pwr_ex.c **** #endif
ARM GAS  C:\Users\ADMINI~1\AppData\Local\Temp\cciDrfVK.s 			page 30


 668:d:/LiteOS_Lab/drivers/third_party/ST/STM32L4xx_HAL_Driver/Src\stm32l4xx_hal_pwr_ex.c **** #if defined(GPIOF) 
 669:d:/LiteOS_Lab/drivers/third_party/ST/STM32L4xx_HAL_Driver/Src\stm32l4xx_hal_pwr_ex.c ****     case PWR_GPIO_F:
 670:d:/LiteOS_Lab/drivers/third_party/ST/STM32L4xx_HAL_Driver/Src\stm32l4xx_hal_pwr_ex.c ****        CLEAR_BIT(PWR->PDCRF, GPIONumber);
 671:d:/LiteOS_Lab/drivers/third_party/ST/STM32L4xx_HAL_Driver/Src\stm32l4xx_hal_pwr_ex.c ****        break;
 672:d:/LiteOS_Lab/drivers/third_party/ST/STM32L4xx_HAL_Driver/Src\stm32l4xx_hal_pwr_ex.c **** #endif
 673:d:/LiteOS_Lab/drivers/third_party/ST/STM32L4xx_HAL_Driver/Src\stm32l4xx_hal_pwr_ex.c **** #if defined(GPIOG)
 674:d:/LiteOS_Lab/drivers/third_party/ST/STM32L4xx_HAL_Driver/Src\stm32l4xx_hal_pwr_ex.c ****     case PWR_GPIO_G:
 675:d:/LiteOS_Lab/drivers/third_party/ST/STM32L4xx_HAL_Driver/Src\stm32l4xx_hal_pwr_ex.c ****        CLEAR_BIT(PWR->PDCRG, GPIONumber);
 676:d:/LiteOS_Lab/drivers/third_party/ST/STM32L4xx_HAL_Driver/Src\stm32l4xx_hal_pwr_ex.c ****        break;
 677:d:/LiteOS_Lab/drivers/third_party/ST/STM32L4xx_HAL_Driver/Src\stm32l4xx_hal_pwr_ex.c **** #endif
 678:d:/LiteOS_Lab/drivers/third_party/ST/STM32L4xx_HAL_Driver/Src\stm32l4xx_hal_pwr_ex.c ****     case PWR_GPIO_H:
 679:d:/LiteOS_Lab/drivers/third_party/ST/STM32L4xx_HAL_Driver/Src\stm32l4xx_hal_pwr_ex.c **** #if defined (STM32L496xx) || defined (STM32L4A6xx)
 680:d:/LiteOS_Lab/drivers/third_party/ST/STM32L4xx_HAL_Driver/Src\stm32l4xx_hal_pwr_ex.c ****        CLEAR_BIT(PWR->PDCRH, ((GPIONumber & PWR_PORTH_AVAILABLE_PINS) & (~(PWR_GPIO_BIT_3))));
 681:d:/LiteOS_Lab/drivers/third_party/ST/STM32L4xx_HAL_Driver/Src\stm32l4xx_hal_pwr_ex.c **** #else       
 682:d:/LiteOS_Lab/drivers/third_party/ST/STM32L4xx_HAL_Driver/Src\stm32l4xx_hal_pwr_ex.c ****        CLEAR_BIT(PWR->PDCRH, (GPIONumber & PWR_PORTH_AVAILABLE_PINS));
 1003              		.loc 1 682 8
 1004 0090 094B     		ldr	r3, .L76
 1005 0092 DA6D     		ldr	r2, [r3, #92]
 1006 0094 3B68     		ldr	r3, [r7]
 1007 0096 03F00B03 		and	r3, r3, #11
 1008 009a DB43     		mvns	r3, r3
 1009 009c 0649     		ldr	r1, .L76
 1010 009e 1340     		ands	r3, r3, r2
 1011 00a0 CB65     		str	r3, [r1, #92]
 683:d:/LiteOS_Lab/drivers/third_party/ST/STM32L4xx_HAL_Driver/Src\stm32l4xx_hal_pwr_ex.c **** #endif     
 684:d:/LiteOS_Lab/drivers/third_party/ST/STM32L4xx_HAL_Driver/Src\stm32l4xx_hal_pwr_ex.c ****        break; 
 1012              		.loc 1 684 8
 1013 00a2 01E0     		b	.L74
 1014              	.L66:
 685:d:/LiteOS_Lab/drivers/third_party/ST/STM32L4xx_HAL_Driver/Src\stm32l4xx_hal_pwr_ex.c **** #if defined(GPIOI)
 686:d:/LiteOS_Lab/drivers/third_party/ST/STM32L4xx_HAL_Driver/Src\stm32l4xx_hal_pwr_ex.c ****     case PWR_GPIO_I:
 687:d:/LiteOS_Lab/drivers/third_party/ST/STM32L4xx_HAL_Driver/Src\stm32l4xx_hal_pwr_ex.c ****        CLEAR_BIT(PWR->PDCRI, (GPIONumber & PWR_PORTI_AVAILABLE_PINS));
 688:d:/LiteOS_Lab/drivers/third_party/ST/STM32L4xx_HAL_Driver/Src\stm32l4xx_hal_pwr_ex.c ****        break;
 689:d:/LiteOS_Lab/drivers/third_party/ST/STM32L4xx_HAL_Driver/Src\stm32l4xx_hal_pwr_ex.c **** #endif
 690:d:/LiteOS_Lab/drivers/third_party/ST/STM32L4xx_HAL_Driver/Src\stm32l4xx_hal_pwr_ex.c ****     default:
 691:d:/LiteOS_Lab/drivers/third_party/ST/STM32L4xx_HAL_Driver/Src\stm32l4xx_hal_pwr_ex.c ****        return HAL_ERROR;
 1015              		.loc 1 691 15
 1016 00a4 0123     		movs	r3, #1
 1017 00a6 00E0     		b	.L75
 1018              	.L74:
 692:d:/LiteOS_Lab/drivers/third_party/ST/STM32L4xx_HAL_Driver/Src\stm32l4xx_hal_pwr_ex.c ****   }
 693:d:/LiteOS_Lab/drivers/third_party/ST/STM32L4xx_HAL_Driver/Src\stm32l4xx_hal_pwr_ex.c ****   
 694:d:/LiteOS_Lab/drivers/third_party/ST/STM32L4xx_HAL_Driver/Src\stm32l4xx_hal_pwr_ex.c ****   return HAL_OK;
 1019              		.loc 1 694 10
 1020 00a8 0023     		movs	r3, #0
 1021              	.L75:
 695:d:/LiteOS_Lab/drivers/third_party/ST/STM32L4xx_HAL_Driver/Src\stm32l4xx_hal_pwr_ex.c **** }
 1022              		.loc 1 695 1
 1023 00aa 1846     		mov	r0, r3
 1024 00ac 0C37     		adds	r7, r7, #12
 1025              	.LCFI49:
 1026              		.cfi_def_cfa_offset 4
 1027 00ae BD46     		mov	sp, r7
 1028              	.LCFI50:
 1029              		.cfi_def_cfa_register 13
 1030              		@ sp needed
 1031 00b0 5DF8047B 		ldr	r7, [sp], #4
ARM GAS  C:\Users\ADMINI~1\AppData\Local\Temp\cciDrfVK.s 			page 31


 1032              	.LCFI51:
 1033              		.cfi_restore 7
 1034              		.cfi_def_cfa_offset 0
 1035 00b4 7047     		bx	lr
 1036              	.L77:
 1037 00b6 00BF     		.align	2
 1038              	.L76:
 1039 00b8 00700040 		.word	1073770496
 1040              		.cfi_endproc
 1041              	.LFE296:
 1043              		.section	.text.HAL_PWREx_EnablePullUpPullDownConfig,"ax",%progbits
 1044              		.align	1
 1045              		.global	HAL_PWREx_EnablePullUpPullDownConfig
 1046              		.syntax unified
 1047              		.thumb
 1048              		.thumb_func
 1049              		.fpu fpv4-sp-d16
 1051              	HAL_PWREx_EnablePullUpPullDownConfig:
 1052              	.LFB297:
 696:d:/LiteOS_Lab/drivers/third_party/ST/STM32L4xx_HAL_Driver/Src\stm32l4xx_hal_pwr_ex.c **** 
 697:d:/LiteOS_Lab/drivers/third_party/ST/STM32L4xx_HAL_Driver/Src\stm32l4xx_hal_pwr_ex.c **** 
 698:d:/LiteOS_Lab/drivers/third_party/ST/STM32L4xx_HAL_Driver/Src\stm32l4xx_hal_pwr_ex.c **** 
 699:d:/LiteOS_Lab/drivers/third_party/ST/STM32L4xx_HAL_Driver/Src\stm32l4xx_hal_pwr_ex.c **** /**
 700:d:/LiteOS_Lab/drivers/third_party/ST/STM32L4xx_HAL_Driver/Src\stm32l4xx_hal_pwr_ex.c ****   * @brief Enable pull-up and pull-down configuration.
 701:d:/LiteOS_Lab/drivers/third_party/ST/STM32L4xx_HAL_Driver/Src\stm32l4xx_hal_pwr_ex.c ****   * @note  When APC bit is set, the I/O pull-up and pull-down configurations defined in 
 702:d:/LiteOS_Lab/drivers/third_party/ST/STM32L4xx_HAL_Driver/Src\stm32l4xx_hal_pwr_ex.c ****   *        PWR_PUCRx and PWR_PDCRx registers are applied in Standby and Shutdown modes.    
 703:d:/LiteOS_Lab/drivers/third_party/ST/STM32L4xx_HAL_Driver/Src\stm32l4xx_hal_pwr_ex.c ****   * @note  Pull-up set by PUy bit of PWR_PUCRx register is not activated if the corresponding
 704:d:/LiteOS_Lab/drivers/third_party/ST/STM32L4xx_HAL_Driver/Src\stm32l4xx_hal_pwr_ex.c ****   *        PDy bit of PWR_PDCRx register is also set (pull-down configuration priority is higher). 
 705:d:/LiteOS_Lab/drivers/third_party/ST/STM32L4xx_HAL_Driver/Src\stm32l4xx_hal_pwr_ex.c ****   *        HAL_PWREx_EnableGPIOPullUp() and HAL_PWREx_EnableGPIOPullDown() API's ensure there 
 706:d:/LiteOS_Lab/drivers/third_party/ST/STM32L4xx_HAL_Driver/Src\stm32l4xx_hal_pwr_ex.c ****   *        is no conflict when setting PUy or PDy bit.         
 707:d:/LiteOS_Lab/drivers/third_party/ST/STM32L4xx_HAL_Driver/Src\stm32l4xx_hal_pwr_ex.c ****   * @retval None
 708:d:/LiteOS_Lab/drivers/third_party/ST/STM32L4xx_HAL_Driver/Src\stm32l4xx_hal_pwr_ex.c ****   */
 709:d:/LiteOS_Lab/drivers/third_party/ST/STM32L4xx_HAL_Driver/Src\stm32l4xx_hal_pwr_ex.c **** void HAL_PWREx_EnablePullUpPullDownConfig(void)
 710:d:/LiteOS_Lab/drivers/third_party/ST/STM32L4xx_HAL_Driver/Src\stm32l4xx_hal_pwr_ex.c **** {
 1053              		.loc 1 710 1
 1054              		.cfi_startproc
 1055              		@ args = 0, pretend = 0, frame = 0
 1056              		@ frame_needed = 1, uses_anonymous_args = 0
 1057              		@ link register save eliminated.
 1058 0000 80B4     		push	{r7}
 1059              	.LCFI52:
 1060              		.cfi_def_cfa_offset 4
 1061              		.cfi_offset 7, -4
 1062 0002 00AF     		add	r7, sp, #0
 1063              	.LCFI53:
 1064              		.cfi_def_cfa_register 7
 711:d:/LiteOS_Lab/drivers/third_party/ST/STM32L4xx_HAL_Driver/Src\stm32l4xx_hal_pwr_ex.c ****   SET_BIT(PWR->CR3, PWR_CR3_APC);
 1065              		.loc 1 711 3
 1066 0004 054B     		ldr	r3, .L79
 1067 0006 9B68     		ldr	r3, [r3, #8]
 1068 0008 044A     		ldr	r2, .L79
 1069 000a 43F48063 		orr	r3, r3, #1024
 1070 000e 9360     		str	r3, [r2, #8]
 712:d:/LiteOS_Lab/drivers/third_party/ST/STM32L4xx_HAL_Driver/Src\stm32l4xx_hal_pwr_ex.c **** }
 1071              		.loc 1 712 1
 1072 0010 00BF     		nop
 1073 0012 BD46     		mov	sp, r7
ARM GAS  C:\Users\ADMINI~1\AppData\Local\Temp\cciDrfVK.s 			page 32


 1074              	.LCFI54:
 1075              		.cfi_def_cfa_register 13
 1076              		@ sp needed
 1077 0014 5DF8047B 		ldr	r7, [sp], #4
 1078              	.LCFI55:
 1079              		.cfi_restore 7
 1080              		.cfi_def_cfa_offset 0
 1081 0018 7047     		bx	lr
 1082              	.L80:
 1083 001a 00BF     		.align	2
 1084              	.L79:
 1085 001c 00700040 		.word	1073770496
 1086              		.cfi_endproc
 1087              	.LFE297:
 1089              		.section	.text.HAL_PWREx_DisablePullUpPullDownConfig,"ax",%progbits
 1090              		.align	1
 1091              		.global	HAL_PWREx_DisablePullUpPullDownConfig
 1092              		.syntax unified
 1093              		.thumb
 1094              		.thumb_func
 1095              		.fpu fpv4-sp-d16
 1097              	HAL_PWREx_DisablePullUpPullDownConfig:
 1098              	.LFB298:
 713:d:/LiteOS_Lab/drivers/third_party/ST/STM32L4xx_HAL_Driver/Src\stm32l4xx_hal_pwr_ex.c **** 
 714:d:/LiteOS_Lab/drivers/third_party/ST/STM32L4xx_HAL_Driver/Src\stm32l4xx_hal_pwr_ex.c **** 
 715:d:/LiteOS_Lab/drivers/third_party/ST/STM32L4xx_HAL_Driver/Src\stm32l4xx_hal_pwr_ex.c **** /**
 716:d:/LiteOS_Lab/drivers/third_party/ST/STM32L4xx_HAL_Driver/Src\stm32l4xx_hal_pwr_ex.c ****   * @brief Disable pull-up and pull-down configuration.
 717:d:/LiteOS_Lab/drivers/third_party/ST/STM32L4xx_HAL_Driver/Src\stm32l4xx_hal_pwr_ex.c ****   * @note  When APC bit is cleared, the I/O pull-up and pull-down configurations defined in 
 718:d:/LiteOS_Lab/drivers/third_party/ST/STM32L4xx_HAL_Driver/Src\stm32l4xx_hal_pwr_ex.c ****   *        PWR_PUCRx and PWR_PDCRx registers are not applied in Standby and Shutdown modes.     
 719:d:/LiteOS_Lab/drivers/third_party/ST/STM32L4xx_HAL_Driver/Src\stm32l4xx_hal_pwr_ex.c ****   * @retval None
 720:d:/LiteOS_Lab/drivers/third_party/ST/STM32L4xx_HAL_Driver/Src\stm32l4xx_hal_pwr_ex.c ****   */
 721:d:/LiteOS_Lab/drivers/third_party/ST/STM32L4xx_HAL_Driver/Src\stm32l4xx_hal_pwr_ex.c **** void HAL_PWREx_DisablePullUpPullDownConfig(void)
 722:d:/LiteOS_Lab/drivers/third_party/ST/STM32L4xx_HAL_Driver/Src\stm32l4xx_hal_pwr_ex.c **** {
 1099              		.loc 1 722 1
 1100              		.cfi_startproc
 1101              		@ args = 0, pretend = 0, frame = 0
 1102              		@ frame_needed = 1, uses_anonymous_args = 0
 1103              		@ link register save eliminated.
 1104 0000 80B4     		push	{r7}
 1105              	.LCFI56:
 1106              		.cfi_def_cfa_offset 4
 1107              		.cfi_offset 7, -4
 1108 0002 00AF     		add	r7, sp, #0
 1109              	.LCFI57:
 1110              		.cfi_def_cfa_register 7
 723:d:/LiteOS_Lab/drivers/third_party/ST/STM32L4xx_HAL_Driver/Src\stm32l4xx_hal_pwr_ex.c ****   CLEAR_BIT(PWR->CR3, PWR_CR3_APC);
 1111              		.loc 1 723 3
 1112 0004 054B     		ldr	r3, .L82
 1113 0006 9B68     		ldr	r3, [r3, #8]
 1114 0008 044A     		ldr	r2, .L82
 1115 000a 23F48063 		bic	r3, r3, #1024
 1116 000e 9360     		str	r3, [r2, #8]
 724:d:/LiteOS_Lab/drivers/third_party/ST/STM32L4xx_HAL_Driver/Src\stm32l4xx_hal_pwr_ex.c **** }
 1117              		.loc 1 724 1
 1118 0010 00BF     		nop
 1119 0012 BD46     		mov	sp, r7
 1120              	.LCFI58:
ARM GAS  C:\Users\ADMINI~1\AppData\Local\Temp\cciDrfVK.s 			page 33


 1121              		.cfi_def_cfa_register 13
 1122              		@ sp needed
 1123 0014 5DF8047B 		ldr	r7, [sp], #4
 1124              	.LCFI59:
 1125              		.cfi_restore 7
 1126              		.cfi_def_cfa_offset 0
 1127 0018 7047     		bx	lr
 1128              	.L83:
 1129 001a 00BF     		.align	2
 1130              	.L82:
 1131 001c 00700040 		.word	1073770496
 1132              		.cfi_endproc
 1133              	.LFE298:
 1135              		.section	.text.HAL_PWREx_EnableSRAM2ContentRetention,"ax",%progbits
 1136              		.align	1
 1137              		.global	HAL_PWREx_EnableSRAM2ContentRetention
 1138              		.syntax unified
 1139              		.thumb
 1140              		.thumb_func
 1141              		.fpu fpv4-sp-d16
 1143              	HAL_PWREx_EnableSRAM2ContentRetention:
 1144              	.LFB299:
 725:d:/LiteOS_Lab/drivers/third_party/ST/STM32L4xx_HAL_Driver/Src\stm32l4xx_hal_pwr_ex.c **** 
 726:d:/LiteOS_Lab/drivers/third_party/ST/STM32L4xx_HAL_Driver/Src\stm32l4xx_hal_pwr_ex.c **** 
 727:d:/LiteOS_Lab/drivers/third_party/ST/STM32L4xx_HAL_Driver/Src\stm32l4xx_hal_pwr_ex.c **** 
 728:d:/LiteOS_Lab/drivers/third_party/ST/STM32L4xx_HAL_Driver/Src\stm32l4xx_hal_pwr_ex.c **** /**
 729:d:/LiteOS_Lab/drivers/third_party/ST/STM32L4xx_HAL_Driver/Src\stm32l4xx_hal_pwr_ex.c ****   * @brief Enable SRAM2 content retention in Standby mode.
 730:d:/LiteOS_Lab/drivers/third_party/ST/STM32L4xx_HAL_Driver/Src\stm32l4xx_hal_pwr_ex.c ****   * @note  When RRS bit is set, SRAM2 is powered by the low-power regulator in 
 731:d:/LiteOS_Lab/drivers/third_party/ST/STM32L4xx_HAL_Driver/Src\stm32l4xx_hal_pwr_ex.c ****   *         Standby mode and its content is kept.    
 732:d:/LiteOS_Lab/drivers/third_party/ST/STM32L4xx_HAL_Driver/Src\stm32l4xx_hal_pwr_ex.c ****   * @retval None
 733:d:/LiteOS_Lab/drivers/third_party/ST/STM32L4xx_HAL_Driver/Src\stm32l4xx_hal_pwr_ex.c ****   */
 734:d:/LiteOS_Lab/drivers/third_party/ST/STM32L4xx_HAL_Driver/Src\stm32l4xx_hal_pwr_ex.c **** void HAL_PWREx_EnableSRAM2ContentRetention(void)
 735:d:/LiteOS_Lab/drivers/third_party/ST/STM32L4xx_HAL_Driver/Src\stm32l4xx_hal_pwr_ex.c **** {
 1145              		.loc 1 735 1
 1146              		.cfi_startproc
 1147              		@ args = 0, pretend = 0, frame = 0
 1148              		@ frame_needed = 1, uses_anonymous_args = 0
 1149              		@ link register save eliminated.
 1150 0000 80B4     		push	{r7}
 1151              	.LCFI60:
 1152              		.cfi_def_cfa_offset 4
 1153              		.cfi_offset 7, -4
 1154 0002 00AF     		add	r7, sp, #0
 1155              	.LCFI61:
 1156              		.cfi_def_cfa_register 7
 736:d:/LiteOS_Lab/drivers/third_party/ST/STM32L4xx_HAL_Driver/Src\stm32l4xx_hal_pwr_ex.c ****   SET_BIT(PWR->CR3, PWR_CR3_RRS);
 1157              		.loc 1 736 3
 1158 0004 054B     		ldr	r3, .L85
 1159 0006 9B68     		ldr	r3, [r3, #8]
 1160 0008 044A     		ldr	r2, .L85
 1161 000a 43F48073 		orr	r3, r3, #256
 1162 000e 9360     		str	r3, [r2, #8]
 737:d:/LiteOS_Lab/drivers/third_party/ST/STM32L4xx_HAL_Driver/Src\stm32l4xx_hal_pwr_ex.c **** }
 1163              		.loc 1 737 1
 1164 0010 00BF     		nop
 1165 0012 BD46     		mov	sp, r7
 1166              	.LCFI62:
ARM GAS  C:\Users\ADMINI~1\AppData\Local\Temp\cciDrfVK.s 			page 34


 1167              		.cfi_def_cfa_register 13
 1168              		@ sp needed
 1169 0014 5DF8047B 		ldr	r7, [sp], #4
 1170              	.LCFI63:
 1171              		.cfi_restore 7
 1172              		.cfi_def_cfa_offset 0
 1173 0018 7047     		bx	lr
 1174              	.L86:
 1175 001a 00BF     		.align	2
 1176              	.L85:
 1177 001c 00700040 		.word	1073770496
 1178              		.cfi_endproc
 1179              	.LFE299:
 1181              		.section	.text.HAL_PWREx_DisableSRAM2ContentRetention,"ax",%progbits
 1182              		.align	1
 1183              		.global	HAL_PWREx_DisableSRAM2ContentRetention
 1184              		.syntax unified
 1185              		.thumb
 1186              		.thumb_func
 1187              		.fpu fpv4-sp-d16
 1189              	HAL_PWREx_DisableSRAM2ContentRetention:
 1190              	.LFB300:
 738:d:/LiteOS_Lab/drivers/third_party/ST/STM32L4xx_HAL_Driver/Src\stm32l4xx_hal_pwr_ex.c **** 
 739:d:/LiteOS_Lab/drivers/third_party/ST/STM32L4xx_HAL_Driver/Src\stm32l4xx_hal_pwr_ex.c **** 
 740:d:/LiteOS_Lab/drivers/third_party/ST/STM32L4xx_HAL_Driver/Src\stm32l4xx_hal_pwr_ex.c **** /**
 741:d:/LiteOS_Lab/drivers/third_party/ST/STM32L4xx_HAL_Driver/Src\stm32l4xx_hal_pwr_ex.c ****   * @brief Disable SRAM2 content retention in Standby mode.
 742:d:/LiteOS_Lab/drivers/third_party/ST/STM32L4xx_HAL_Driver/Src\stm32l4xx_hal_pwr_ex.c ****   * @note  When RRS bit is reset, SRAM2 is powered off in Standby mode 
 743:d:/LiteOS_Lab/drivers/third_party/ST/STM32L4xx_HAL_Driver/Src\stm32l4xx_hal_pwr_ex.c ****   *        and its content is lost.      
 744:d:/LiteOS_Lab/drivers/third_party/ST/STM32L4xx_HAL_Driver/Src\stm32l4xx_hal_pwr_ex.c ****   * @retval None
 745:d:/LiteOS_Lab/drivers/third_party/ST/STM32L4xx_HAL_Driver/Src\stm32l4xx_hal_pwr_ex.c ****   */
 746:d:/LiteOS_Lab/drivers/third_party/ST/STM32L4xx_HAL_Driver/Src\stm32l4xx_hal_pwr_ex.c **** void HAL_PWREx_DisableSRAM2ContentRetention(void)
 747:d:/LiteOS_Lab/drivers/third_party/ST/STM32L4xx_HAL_Driver/Src\stm32l4xx_hal_pwr_ex.c **** {
 1191              		.loc 1 747 1
 1192              		.cfi_startproc
 1193              		@ args = 0, pretend = 0, frame = 0
 1194              		@ frame_needed = 1, uses_anonymous_args = 0
 1195              		@ link register save eliminated.
 1196 0000 80B4     		push	{r7}
 1197              	.LCFI64:
 1198              		.cfi_def_cfa_offset 4
 1199              		.cfi_offset 7, -4
 1200 0002 00AF     		add	r7, sp, #0
 1201              	.LCFI65:
 1202              		.cfi_def_cfa_register 7
 748:d:/LiteOS_Lab/drivers/third_party/ST/STM32L4xx_HAL_Driver/Src\stm32l4xx_hal_pwr_ex.c ****   CLEAR_BIT(PWR->CR3, PWR_CR3_RRS);
 1203              		.loc 1 748 3
 1204 0004 054B     		ldr	r3, .L88
 1205 0006 9B68     		ldr	r3, [r3, #8]
 1206 0008 044A     		ldr	r2, .L88
 1207 000a 23F48073 		bic	r3, r3, #256
 1208 000e 9360     		str	r3, [r2, #8]
 749:d:/LiteOS_Lab/drivers/third_party/ST/STM32L4xx_HAL_Driver/Src\stm32l4xx_hal_pwr_ex.c **** }
 1209              		.loc 1 749 1
 1210 0010 00BF     		nop
 1211 0012 BD46     		mov	sp, r7
 1212              	.LCFI66:
 1213              		.cfi_def_cfa_register 13
ARM GAS  C:\Users\ADMINI~1\AppData\Local\Temp\cciDrfVK.s 			page 35


 1214              		@ sp needed
 1215 0014 5DF8047B 		ldr	r7, [sp], #4
 1216              	.LCFI67:
 1217              		.cfi_restore 7
 1218              		.cfi_def_cfa_offset 0
 1219 0018 7047     		bx	lr
 1220              	.L89:
 1221 001a 00BF     		.align	2
 1222              	.L88:
 1223 001c 00700040 		.word	1073770496
 1224              		.cfi_endproc
 1225              	.LFE300:
 1227              		.section	.text.HAL_PWREx_EnablePVM3,"ax",%progbits
 1228              		.align	1
 1229              		.global	HAL_PWREx_EnablePVM3
 1230              		.syntax unified
 1231              		.thumb
 1232              		.thumb_func
 1233              		.fpu fpv4-sp-d16
 1235              	HAL_PWREx_EnablePVM3:
 1236              	.LFB301:
 750:d:/LiteOS_Lab/drivers/third_party/ST/STM32L4xx_HAL_Driver/Src\stm32l4xx_hal_pwr_ex.c **** 
 751:d:/LiteOS_Lab/drivers/third_party/ST/STM32L4xx_HAL_Driver/Src\stm32l4xx_hal_pwr_ex.c **** 
 752:d:/LiteOS_Lab/drivers/third_party/ST/STM32L4xx_HAL_Driver/Src\stm32l4xx_hal_pwr_ex.c **** #if defined(PWR_CR1_RRSTP)
 753:d:/LiteOS_Lab/drivers/third_party/ST/STM32L4xx_HAL_Driver/Src\stm32l4xx_hal_pwr_ex.c **** /**
 754:d:/LiteOS_Lab/drivers/third_party/ST/STM32L4xx_HAL_Driver/Src\stm32l4xx_hal_pwr_ex.c ****   * @brief Enable SRAM3 content retention in Stop 2 mode.
 755:d:/LiteOS_Lab/drivers/third_party/ST/STM32L4xx_HAL_Driver/Src\stm32l4xx_hal_pwr_ex.c ****   * @note  When RRSTP bit is set, SRAM3 is powered by the low-power regulator in 
 756:d:/LiteOS_Lab/drivers/third_party/ST/STM32L4xx_HAL_Driver/Src\stm32l4xx_hal_pwr_ex.c ****   *        Stop 2 mode and its content is kept.    
 757:d:/LiteOS_Lab/drivers/third_party/ST/STM32L4xx_HAL_Driver/Src\stm32l4xx_hal_pwr_ex.c ****   * @retval None
 758:d:/LiteOS_Lab/drivers/third_party/ST/STM32L4xx_HAL_Driver/Src\stm32l4xx_hal_pwr_ex.c ****   */
 759:d:/LiteOS_Lab/drivers/third_party/ST/STM32L4xx_HAL_Driver/Src\stm32l4xx_hal_pwr_ex.c **** void HAL_PWREx_EnableSRAM3ContentRetention(void)
 760:d:/LiteOS_Lab/drivers/third_party/ST/STM32L4xx_HAL_Driver/Src\stm32l4xx_hal_pwr_ex.c **** {
 761:d:/LiteOS_Lab/drivers/third_party/ST/STM32L4xx_HAL_Driver/Src\stm32l4xx_hal_pwr_ex.c ****   SET_BIT(PWR->CR1, PWR_CR1_RRSTP);
 762:d:/LiteOS_Lab/drivers/third_party/ST/STM32L4xx_HAL_Driver/Src\stm32l4xx_hal_pwr_ex.c **** }
 763:d:/LiteOS_Lab/drivers/third_party/ST/STM32L4xx_HAL_Driver/Src\stm32l4xx_hal_pwr_ex.c **** 
 764:d:/LiteOS_Lab/drivers/third_party/ST/STM32L4xx_HAL_Driver/Src\stm32l4xx_hal_pwr_ex.c **** 
 765:d:/LiteOS_Lab/drivers/third_party/ST/STM32L4xx_HAL_Driver/Src\stm32l4xx_hal_pwr_ex.c **** /**
 766:d:/LiteOS_Lab/drivers/third_party/ST/STM32L4xx_HAL_Driver/Src\stm32l4xx_hal_pwr_ex.c ****   * @brief Disable SRAM3 content retention in Stop 2 mode.
 767:d:/LiteOS_Lab/drivers/third_party/ST/STM32L4xx_HAL_Driver/Src\stm32l4xx_hal_pwr_ex.c ****   * @note  When RRSTP bit is reset, SRAM3 is powered off in Stop 2 mode 
 768:d:/LiteOS_Lab/drivers/third_party/ST/STM32L4xx_HAL_Driver/Src\stm32l4xx_hal_pwr_ex.c ****   *        and its content is lost.      
 769:d:/LiteOS_Lab/drivers/third_party/ST/STM32L4xx_HAL_Driver/Src\stm32l4xx_hal_pwr_ex.c ****   * @retval None
 770:d:/LiteOS_Lab/drivers/third_party/ST/STM32L4xx_HAL_Driver/Src\stm32l4xx_hal_pwr_ex.c ****   */
 771:d:/LiteOS_Lab/drivers/third_party/ST/STM32L4xx_HAL_Driver/Src\stm32l4xx_hal_pwr_ex.c **** void HAL_PWREx_DisableSRAM3ContentRetention(void)
 772:d:/LiteOS_Lab/drivers/third_party/ST/STM32L4xx_HAL_Driver/Src\stm32l4xx_hal_pwr_ex.c **** {
 773:d:/LiteOS_Lab/drivers/third_party/ST/STM32L4xx_HAL_Driver/Src\stm32l4xx_hal_pwr_ex.c ****   CLEAR_BIT(PWR->CR1, PWR_CR1_RRSTP);
 774:d:/LiteOS_Lab/drivers/third_party/ST/STM32L4xx_HAL_Driver/Src\stm32l4xx_hal_pwr_ex.c **** }
 775:d:/LiteOS_Lab/drivers/third_party/ST/STM32L4xx_HAL_Driver/Src\stm32l4xx_hal_pwr_ex.c **** #endif /* PWR_CR1_RRSTP */
 776:d:/LiteOS_Lab/drivers/third_party/ST/STM32L4xx_HAL_Driver/Src\stm32l4xx_hal_pwr_ex.c **** 
 777:d:/LiteOS_Lab/drivers/third_party/ST/STM32L4xx_HAL_Driver/Src\stm32l4xx_hal_pwr_ex.c **** #if defined(PWR_CR3_DSIPDEN)
 778:d:/LiteOS_Lab/drivers/third_party/ST/STM32L4xx_HAL_Driver/Src\stm32l4xx_hal_pwr_ex.c **** /**
 779:d:/LiteOS_Lab/drivers/third_party/ST/STM32L4xx_HAL_Driver/Src\stm32l4xx_hal_pwr_ex.c ****   * @brief Enable pull-down activation on DSI pins.   
 780:d:/LiteOS_Lab/drivers/third_party/ST/STM32L4xx_HAL_Driver/Src\stm32l4xx_hal_pwr_ex.c ****   * @retval None
 781:d:/LiteOS_Lab/drivers/third_party/ST/STM32L4xx_HAL_Driver/Src\stm32l4xx_hal_pwr_ex.c ****   */
 782:d:/LiteOS_Lab/drivers/third_party/ST/STM32L4xx_HAL_Driver/Src\stm32l4xx_hal_pwr_ex.c **** void HAL_PWREx_EnableDSIPinsPDActivation(void)
 783:d:/LiteOS_Lab/drivers/third_party/ST/STM32L4xx_HAL_Driver/Src\stm32l4xx_hal_pwr_ex.c **** {
 784:d:/LiteOS_Lab/drivers/third_party/ST/STM32L4xx_HAL_Driver/Src\stm32l4xx_hal_pwr_ex.c ****   SET_BIT(PWR->CR3, PWR_CR3_DSIPDEN);
 785:d:/LiteOS_Lab/drivers/third_party/ST/STM32L4xx_HAL_Driver/Src\stm32l4xx_hal_pwr_ex.c **** }
ARM GAS  C:\Users\ADMINI~1\AppData\Local\Temp\cciDrfVK.s 			page 36


 786:d:/LiteOS_Lab/drivers/third_party/ST/STM32L4xx_HAL_Driver/Src\stm32l4xx_hal_pwr_ex.c **** 
 787:d:/LiteOS_Lab/drivers/third_party/ST/STM32L4xx_HAL_Driver/Src\stm32l4xx_hal_pwr_ex.c **** 
 788:d:/LiteOS_Lab/drivers/third_party/ST/STM32L4xx_HAL_Driver/Src\stm32l4xx_hal_pwr_ex.c **** /**
 789:d:/LiteOS_Lab/drivers/third_party/ST/STM32L4xx_HAL_Driver/Src\stm32l4xx_hal_pwr_ex.c ****   * @brief Disable pull-down activation on DSI pins.    
 790:d:/LiteOS_Lab/drivers/third_party/ST/STM32L4xx_HAL_Driver/Src\stm32l4xx_hal_pwr_ex.c ****   * @retval None
 791:d:/LiteOS_Lab/drivers/third_party/ST/STM32L4xx_HAL_Driver/Src\stm32l4xx_hal_pwr_ex.c ****   */
 792:d:/LiteOS_Lab/drivers/third_party/ST/STM32L4xx_HAL_Driver/Src\stm32l4xx_hal_pwr_ex.c **** void HAL_PWREx_DisableDSIPinsPDActivation(void)
 793:d:/LiteOS_Lab/drivers/third_party/ST/STM32L4xx_HAL_Driver/Src\stm32l4xx_hal_pwr_ex.c **** {
 794:d:/LiteOS_Lab/drivers/third_party/ST/STM32L4xx_HAL_Driver/Src\stm32l4xx_hal_pwr_ex.c ****   CLEAR_BIT(PWR->CR3, PWR_CR3_DSIPDEN);
 795:d:/LiteOS_Lab/drivers/third_party/ST/STM32L4xx_HAL_Driver/Src\stm32l4xx_hal_pwr_ex.c **** }
 796:d:/LiteOS_Lab/drivers/third_party/ST/STM32L4xx_HAL_Driver/Src\stm32l4xx_hal_pwr_ex.c **** #endif /* PWR_CR3_DSIPDEN */
 797:d:/LiteOS_Lab/drivers/third_party/ST/STM32L4xx_HAL_Driver/Src\stm32l4xx_hal_pwr_ex.c **** 
 798:d:/LiteOS_Lab/drivers/third_party/ST/STM32L4xx_HAL_Driver/Src\stm32l4xx_hal_pwr_ex.c **** #if defined(PWR_CR2_PVME1)
 799:d:/LiteOS_Lab/drivers/third_party/ST/STM32L4xx_HAL_Driver/Src\stm32l4xx_hal_pwr_ex.c **** /**
 800:d:/LiteOS_Lab/drivers/third_party/ST/STM32L4xx_HAL_Driver/Src\stm32l4xx_hal_pwr_ex.c ****   * @brief Enable the Power Voltage Monitoring 1: VDDUSB versus 1.2V.
 801:d:/LiteOS_Lab/drivers/third_party/ST/STM32L4xx_HAL_Driver/Src\stm32l4xx_hal_pwr_ex.c ****   * @retval None
 802:d:/LiteOS_Lab/drivers/third_party/ST/STM32L4xx_HAL_Driver/Src\stm32l4xx_hal_pwr_ex.c ****   */
 803:d:/LiteOS_Lab/drivers/third_party/ST/STM32L4xx_HAL_Driver/Src\stm32l4xx_hal_pwr_ex.c **** void HAL_PWREx_EnablePVM1(void)
 804:d:/LiteOS_Lab/drivers/third_party/ST/STM32L4xx_HAL_Driver/Src\stm32l4xx_hal_pwr_ex.c **** {
 805:d:/LiteOS_Lab/drivers/third_party/ST/STM32L4xx_HAL_Driver/Src\stm32l4xx_hal_pwr_ex.c ****   SET_BIT(PWR->CR2, PWR_PVM_1);    
 806:d:/LiteOS_Lab/drivers/third_party/ST/STM32L4xx_HAL_Driver/Src\stm32l4xx_hal_pwr_ex.c **** }
 807:d:/LiteOS_Lab/drivers/third_party/ST/STM32L4xx_HAL_Driver/Src\stm32l4xx_hal_pwr_ex.c **** 
 808:d:/LiteOS_Lab/drivers/third_party/ST/STM32L4xx_HAL_Driver/Src\stm32l4xx_hal_pwr_ex.c **** /**
 809:d:/LiteOS_Lab/drivers/third_party/ST/STM32L4xx_HAL_Driver/Src\stm32l4xx_hal_pwr_ex.c ****   * @brief Disable the Power Voltage Monitoring 1: VDDUSB versus 1.2V.
 810:d:/LiteOS_Lab/drivers/third_party/ST/STM32L4xx_HAL_Driver/Src\stm32l4xx_hal_pwr_ex.c ****   * @retval None
 811:d:/LiteOS_Lab/drivers/third_party/ST/STM32L4xx_HAL_Driver/Src\stm32l4xx_hal_pwr_ex.c ****   */
 812:d:/LiteOS_Lab/drivers/third_party/ST/STM32L4xx_HAL_Driver/Src\stm32l4xx_hal_pwr_ex.c **** void HAL_PWREx_DisablePVM1(void)
 813:d:/LiteOS_Lab/drivers/third_party/ST/STM32L4xx_HAL_Driver/Src\stm32l4xx_hal_pwr_ex.c **** {
 814:d:/LiteOS_Lab/drivers/third_party/ST/STM32L4xx_HAL_Driver/Src\stm32l4xx_hal_pwr_ex.c ****   CLEAR_BIT(PWR->CR2, PWR_PVM_1);    
 815:d:/LiteOS_Lab/drivers/third_party/ST/STM32L4xx_HAL_Driver/Src\stm32l4xx_hal_pwr_ex.c **** }
 816:d:/LiteOS_Lab/drivers/third_party/ST/STM32L4xx_HAL_Driver/Src\stm32l4xx_hal_pwr_ex.c **** #endif /* PWR_CR2_PVME1 */
 817:d:/LiteOS_Lab/drivers/third_party/ST/STM32L4xx_HAL_Driver/Src\stm32l4xx_hal_pwr_ex.c **** 
 818:d:/LiteOS_Lab/drivers/third_party/ST/STM32L4xx_HAL_Driver/Src\stm32l4xx_hal_pwr_ex.c **** 
 819:d:/LiteOS_Lab/drivers/third_party/ST/STM32L4xx_HAL_Driver/Src\stm32l4xx_hal_pwr_ex.c **** #if defined(PWR_CR2_PVME2)
 820:d:/LiteOS_Lab/drivers/third_party/ST/STM32L4xx_HAL_Driver/Src\stm32l4xx_hal_pwr_ex.c **** /**
 821:d:/LiteOS_Lab/drivers/third_party/ST/STM32L4xx_HAL_Driver/Src\stm32l4xx_hal_pwr_ex.c ****   * @brief Enable the Power Voltage Monitoring 2: VDDIO2 versus 0.9V.
 822:d:/LiteOS_Lab/drivers/third_party/ST/STM32L4xx_HAL_Driver/Src\stm32l4xx_hal_pwr_ex.c ****   * @retval None
 823:d:/LiteOS_Lab/drivers/third_party/ST/STM32L4xx_HAL_Driver/Src\stm32l4xx_hal_pwr_ex.c ****   */
 824:d:/LiteOS_Lab/drivers/third_party/ST/STM32L4xx_HAL_Driver/Src\stm32l4xx_hal_pwr_ex.c **** void HAL_PWREx_EnablePVM2(void)
 825:d:/LiteOS_Lab/drivers/third_party/ST/STM32L4xx_HAL_Driver/Src\stm32l4xx_hal_pwr_ex.c **** {
 826:d:/LiteOS_Lab/drivers/third_party/ST/STM32L4xx_HAL_Driver/Src\stm32l4xx_hal_pwr_ex.c ****   SET_BIT(PWR->CR2, PWR_PVM_2);    
 827:d:/LiteOS_Lab/drivers/third_party/ST/STM32L4xx_HAL_Driver/Src\stm32l4xx_hal_pwr_ex.c **** }
 828:d:/LiteOS_Lab/drivers/third_party/ST/STM32L4xx_HAL_Driver/Src\stm32l4xx_hal_pwr_ex.c **** 
 829:d:/LiteOS_Lab/drivers/third_party/ST/STM32L4xx_HAL_Driver/Src\stm32l4xx_hal_pwr_ex.c **** /**
 830:d:/LiteOS_Lab/drivers/third_party/ST/STM32L4xx_HAL_Driver/Src\stm32l4xx_hal_pwr_ex.c ****   * @brief Disable the Power Voltage Monitoring 2: VDDIO2 versus 0.9V.
 831:d:/LiteOS_Lab/drivers/third_party/ST/STM32L4xx_HAL_Driver/Src\stm32l4xx_hal_pwr_ex.c ****   * @retval None
 832:d:/LiteOS_Lab/drivers/third_party/ST/STM32L4xx_HAL_Driver/Src\stm32l4xx_hal_pwr_ex.c ****   */
 833:d:/LiteOS_Lab/drivers/third_party/ST/STM32L4xx_HAL_Driver/Src\stm32l4xx_hal_pwr_ex.c **** void HAL_PWREx_DisablePVM2(void)
 834:d:/LiteOS_Lab/drivers/third_party/ST/STM32L4xx_HAL_Driver/Src\stm32l4xx_hal_pwr_ex.c **** {
 835:d:/LiteOS_Lab/drivers/third_party/ST/STM32L4xx_HAL_Driver/Src\stm32l4xx_hal_pwr_ex.c ****   CLEAR_BIT(PWR->CR2, PWR_PVM_2);    
 836:d:/LiteOS_Lab/drivers/third_party/ST/STM32L4xx_HAL_Driver/Src\stm32l4xx_hal_pwr_ex.c **** }
 837:d:/LiteOS_Lab/drivers/third_party/ST/STM32L4xx_HAL_Driver/Src\stm32l4xx_hal_pwr_ex.c **** #endif /* PWR_CR2_PVME2 */
 838:d:/LiteOS_Lab/drivers/third_party/ST/STM32L4xx_HAL_Driver/Src\stm32l4xx_hal_pwr_ex.c **** 
 839:d:/LiteOS_Lab/drivers/third_party/ST/STM32L4xx_HAL_Driver/Src\stm32l4xx_hal_pwr_ex.c **** 
 840:d:/LiteOS_Lab/drivers/third_party/ST/STM32L4xx_HAL_Driver/Src\stm32l4xx_hal_pwr_ex.c **** /**
 841:d:/LiteOS_Lab/drivers/third_party/ST/STM32L4xx_HAL_Driver/Src\stm32l4xx_hal_pwr_ex.c ****   * @brief Enable the Power Voltage Monitoring 3: VDDA versus 1.62V.
 842:d:/LiteOS_Lab/drivers/third_party/ST/STM32L4xx_HAL_Driver/Src\stm32l4xx_hal_pwr_ex.c ****   * @retval None
ARM GAS  C:\Users\ADMINI~1\AppData\Local\Temp\cciDrfVK.s 			page 37


 843:d:/LiteOS_Lab/drivers/third_party/ST/STM32L4xx_HAL_Driver/Src\stm32l4xx_hal_pwr_ex.c ****   */
 844:d:/LiteOS_Lab/drivers/third_party/ST/STM32L4xx_HAL_Driver/Src\stm32l4xx_hal_pwr_ex.c **** void HAL_PWREx_EnablePVM3(void)
 845:d:/LiteOS_Lab/drivers/third_party/ST/STM32L4xx_HAL_Driver/Src\stm32l4xx_hal_pwr_ex.c **** {
 1237              		.loc 1 845 1
 1238              		.cfi_startproc
 1239              		@ args = 0, pretend = 0, frame = 0
 1240              		@ frame_needed = 1, uses_anonymous_args = 0
 1241              		@ link register save eliminated.
 1242 0000 80B4     		push	{r7}
 1243              	.LCFI68:
 1244              		.cfi_def_cfa_offset 4
 1245              		.cfi_offset 7, -4
 1246 0002 00AF     		add	r7, sp, #0
 1247              	.LCFI69:
 1248              		.cfi_def_cfa_register 7
 846:d:/LiteOS_Lab/drivers/third_party/ST/STM32L4xx_HAL_Driver/Src\stm32l4xx_hal_pwr_ex.c ****   SET_BIT(PWR->CR2, PWR_PVM_3);    
 1249              		.loc 1 846 3
 1250 0004 054B     		ldr	r3, .L91
 1251 0006 5B68     		ldr	r3, [r3, #4]
 1252 0008 044A     		ldr	r2, .L91
 1253 000a 43F04003 		orr	r3, r3, #64
 1254 000e 5360     		str	r3, [r2, #4]
 847:d:/LiteOS_Lab/drivers/third_party/ST/STM32L4xx_HAL_Driver/Src\stm32l4xx_hal_pwr_ex.c **** }
 1255              		.loc 1 847 1
 1256 0010 00BF     		nop
 1257 0012 BD46     		mov	sp, r7
 1258              	.LCFI70:
 1259              		.cfi_def_cfa_register 13
 1260              		@ sp needed
 1261 0014 5DF8047B 		ldr	r7, [sp], #4
 1262              	.LCFI71:
 1263              		.cfi_restore 7
 1264              		.cfi_def_cfa_offset 0
 1265 0018 7047     		bx	lr
 1266              	.L92:
 1267 001a 00BF     		.align	2
 1268              	.L91:
 1269 001c 00700040 		.word	1073770496
 1270              		.cfi_endproc
 1271              	.LFE301:
 1273              		.section	.text.HAL_PWREx_DisablePVM3,"ax",%progbits
 1274              		.align	1
 1275              		.global	HAL_PWREx_DisablePVM3
 1276              		.syntax unified
 1277              		.thumb
 1278              		.thumb_func
 1279              		.fpu fpv4-sp-d16
 1281              	HAL_PWREx_DisablePVM3:
 1282              	.LFB302:
 848:d:/LiteOS_Lab/drivers/third_party/ST/STM32L4xx_HAL_Driver/Src\stm32l4xx_hal_pwr_ex.c **** 
 849:d:/LiteOS_Lab/drivers/third_party/ST/STM32L4xx_HAL_Driver/Src\stm32l4xx_hal_pwr_ex.c **** /**
 850:d:/LiteOS_Lab/drivers/third_party/ST/STM32L4xx_HAL_Driver/Src\stm32l4xx_hal_pwr_ex.c ****   * @brief Disable the Power Voltage Monitoring 3: VDDA versus 1.62V.
 851:d:/LiteOS_Lab/drivers/third_party/ST/STM32L4xx_HAL_Driver/Src\stm32l4xx_hal_pwr_ex.c ****   * @retval None
 852:d:/LiteOS_Lab/drivers/third_party/ST/STM32L4xx_HAL_Driver/Src\stm32l4xx_hal_pwr_ex.c ****   */
 853:d:/LiteOS_Lab/drivers/third_party/ST/STM32L4xx_HAL_Driver/Src\stm32l4xx_hal_pwr_ex.c **** void HAL_PWREx_DisablePVM3(void)
 854:d:/LiteOS_Lab/drivers/third_party/ST/STM32L4xx_HAL_Driver/Src\stm32l4xx_hal_pwr_ex.c **** {
 1283              		.loc 1 854 1
ARM GAS  C:\Users\ADMINI~1\AppData\Local\Temp\cciDrfVK.s 			page 38


 1284              		.cfi_startproc
 1285              		@ args = 0, pretend = 0, frame = 0
 1286              		@ frame_needed = 1, uses_anonymous_args = 0
 1287              		@ link register save eliminated.
 1288 0000 80B4     		push	{r7}
 1289              	.LCFI72:
 1290              		.cfi_def_cfa_offset 4
 1291              		.cfi_offset 7, -4
 1292 0002 00AF     		add	r7, sp, #0
 1293              	.LCFI73:
 1294              		.cfi_def_cfa_register 7
 855:d:/LiteOS_Lab/drivers/third_party/ST/STM32L4xx_HAL_Driver/Src\stm32l4xx_hal_pwr_ex.c ****   CLEAR_BIT(PWR->CR2, PWR_PVM_3);    
 1295              		.loc 1 855 3
 1296 0004 054B     		ldr	r3, .L94
 1297 0006 5B68     		ldr	r3, [r3, #4]
 1298 0008 044A     		ldr	r2, .L94
 1299 000a 23F04003 		bic	r3, r3, #64
 1300 000e 5360     		str	r3, [r2, #4]
 856:d:/LiteOS_Lab/drivers/third_party/ST/STM32L4xx_HAL_Driver/Src\stm32l4xx_hal_pwr_ex.c **** }
 1301              		.loc 1 856 1
 1302 0010 00BF     		nop
 1303 0012 BD46     		mov	sp, r7
 1304              	.LCFI74:
 1305              		.cfi_def_cfa_register 13
 1306              		@ sp needed
 1307 0014 5DF8047B 		ldr	r7, [sp], #4
 1308              	.LCFI75:
 1309              		.cfi_restore 7
 1310              		.cfi_def_cfa_offset 0
 1311 0018 7047     		bx	lr
 1312              	.L95:
 1313 001a 00BF     		.align	2
 1314              	.L94:
 1315 001c 00700040 		.word	1073770496
 1316              		.cfi_endproc
 1317              	.LFE302:
 1319              		.section	.text.HAL_PWREx_EnablePVM4,"ax",%progbits
 1320              		.align	1
 1321              		.global	HAL_PWREx_EnablePVM4
 1322              		.syntax unified
 1323              		.thumb
 1324              		.thumb_func
 1325              		.fpu fpv4-sp-d16
 1327              	HAL_PWREx_EnablePVM4:
 1328              	.LFB303:
 857:d:/LiteOS_Lab/drivers/third_party/ST/STM32L4xx_HAL_Driver/Src\stm32l4xx_hal_pwr_ex.c **** 
 858:d:/LiteOS_Lab/drivers/third_party/ST/STM32L4xx_HAL_Driver/Src\stm32l4xx_hal_pwr_ex.c **** 
 859:d:/LiteOS_Lab/drivers/third_party/ST/STM32L4xx_HAL_Driver/Src\stm32l4xx_hal_pwr_ex.c **** /**
 860:d:/LiteOS_Lab/drivers/third_party/ST/STM32L4xx_HAL_Driver/Src\stm32l4xx_hal_pwr_ex.c ****   * @brief Enable the Power Voltage Monitoring 4:  VDDA versus 2.2V.
 861:d:/LiteOS_Lab/drivers/third_party/ST/STM32L4xx_HAL_Driver/Src\stm32l4xx_hal_pwr_ex.c ****   * @retval None
 862:d:/LiteOS_Lab/drivers/third_party/ST/STM32L4xx_HAL_Driver/Src\stm32l4xx_hal_pwr_ex.c ****   */
 863:d:/LiteOS_Lab/drivers/third_party/ST/STM32L4xx_HAL_Driver/Src\stm32l4xx_hal_pwr_ex.c **** void HAL_PWREx_EnablePVM4(void)
 864:d:/LiteOS_Lab/drivers/third_party/ST/STM32L4xx_HAL_Driver/Src\stm32l4xx_hal_pwr_ex.c **** {
 1329              		.loc 1 864 1
 1330              		.cfi_startproc
 1331              		@ args = 0, pretend = 0, frame = 0
 1332              		@ frame_needed = 1, uses_anonymous_args = 0
ARM GAS  C:\Users\ADMINI~1\AppData\Local\Temp\cciDrfVK.s 			page 39


 1333              		@ link register save eliminated.
 1334 0000 80B4     		push	{r7}
 1335              	.LCFI76:
 1336              		.cfi_def_cfa_offset 4
 1337              		.cfi_offset 7, -4
 1338 0002 00AF     		add	r7, sp, #0
 1339              	.LCFI77:
 1340              		.cfi_def_cfa_register 7
 865:d:/LiteOS_Lab/drivers/third_party/ST/STM32L4xx_HAL_Driver/Src\stm32l4xx_hal_pwr_ex.c ****   SET_BIT(PWR->CR2, PWR_PVM_4);    
 1341              		.loc 1 865 3
 1342 0004 054B     		ldr	r3, .L97
 1343 0006 5B68     		ldr	r3, [r3, #4]
 1344 0008 044A     		ldr	r2, .L97
 1345 000a 43F08003 		orr	r3, r3, #128
 1346 000e 5360     		str	r3, [r2, #4]
 866:d:/LiteOS_Lab/drivers/third_party/ST/STM32L4xx_HAL_Driver/Src\stm32l4xx_hal_pwr_ex.c **** }
 1347              		.loc 1 866 1
 1348 0010 00BF     		nop
 1349 0012 BD46     		mov	sp, r7
 1350              	.LCFI78:
 1351              		.cfi_def_cfa_register 13
 1352              		@ sp needed
 1353 0014 5DF8047B 		ldr	r7, [sp], #4
 1354              	.LCFI79:
 1355              		.cfi_restore 7
 1356              		.cfi_def_cfa_offset 0
 1357 0018 7047     		bx	lr
 1358              	.L98:
 1359 001a 00BF     		.align	2
 1360              	.L97:
 1361 001c 00700040 		.word	1073770496
 1362              		.cfi_endproc
 1363              	.LFE303:
 1365              		.section	.text.HAL_PWREx_DisablePVM4,"ax",%progbits
 1366              		.align	1
 1367              		.global	HAL_PWREx_DisablePVM4
 1368              		.syntax unified
 1369              		.thumb
 1370              		.thumb_func
 1371              		.fpu fpv4-sp-d16
 1373              	HAL_PWREx_DisablePVM4:
 1374              	.LFB304:
 867:d:/LiteOS_Lab/drivers/third_party/ST/STM32L4xx_HAL_Driver/Src\stm32l4xx_hal_pwr_ex.c **** 
 868:d:/LiteOS_Lab/drivers/third_party/ST/STM32L4xx_HAL_Driver/Src\stm32l4xx_hal_pwr_ex.c **** /**
 869:d:/LiteOS_Lab/drivers/third_party/ST/STM32L4xx_HAL_Driver/Src\stm32l4xx_hal_pwr_ex.c ****   * @brief Disable the Power Voltage Monitoring 4:  VDDA versus 2.2V.
 870:d:/LiteOS_Lab/drivers/third_party/ST/STM32L4xx_HAL_Driver/Src\stm32l4xx_hal_pwr_ex.c ****   * @retval None
 871:d:/LiteOS_Lab/drivers/third_party/ST/STM32L4xx_HAL_Driver/Src\stm32l4xx_hal_pwr_ex.c ****   */
 872:d:/LiteOS_Lab/drivers/third_party/ST/STM32L4xx_HAL_Driver/Src\stm32l4xx_hal_pwr_ex.c **** void HAL_PWREx_DisablePVM4(void)
 873:d:/LiteOS_Lab/drivers/third_party/ST/STM32L4xx_HAL_Driver/Src\stm32l4xx_hal_pwr_ex.c **** {
 1375              		.loc 1 873 1
 1376              		.cfi_startproc
 1377              		@ args = 0, pretend = 0, frame = 0
 1378              		@ frame_needed = 1, uses_anonymous_args = 0
 1379              		@ link register save eliminated.
 1380 0000 80B4     		push	{r7}
 1381              	.LCFI80:
 1382              		.cfi_def_cfa_offset 4
ARM GAS  C:\Users\ADMINI~1\AppData\Local\Temp\cciDrfVK.s 			page 40


 1383              		.cfi_offset 7, -4
 1384 0002 00AF     		add	r7, sp, #0
 1385              	.LCFI81:
 1386              		.cfi_def_cfa_register 7
 874:d:/LiteOS_Lab/drivers/third_party/ST/STM32L4xx_HAL_Driver/Src\stm32l4xx_hal_pwr_ex.c ****   CLEAR_BIT(PWR->CR2, PWR_PVM_4);    
 1387              		.loc 1 874 3
 1388 0004 054B     		ldr	r3, .L100
 1389 0006 5B68     		ldr	r3, [r3, #4]
 1390 0008 044A     		ldr	r2, .L100
 1391 000a 23F08003 		bic	r3, r3, #128
 1392 000e 5360     		str	r3, [r2, #4]
 875:d:/LiteOS_Lab/drivers/third_party/ST/STM32L4xx_HAL_Driver/Src\stm32l4xx_hal_pwr_ex.c **** }
 1393              		.loc 1 875 1
 1394 0010 00BF     		nop
 1395 0012 BD46     		mov	sp, r7
 1396              	.LCFI82:
 1397              		.cfi_def_cfa_register 13
 1398              		@ sp needed
 1399 0014 5DF8047B 		ldr	r7, [sp], #4
 1400              	.LCFI83:
 1401              		.cfi_restore 7
 1402              		.cfi_def_cfa_offset 0
 1403 0018 7047     		bx	lr
 1404              	.L101:
 1405 001a 00BF     		.align	2
 1406              	.L100:
 1407 001c 00700040 		.word	1073770496
 1408              		.cfi_endproc
 1409              	.LFE304:
 1411              		.section	.text.HAL_PWREx_ConfigPVM,"ax",%progbits
 1412              		.align	1
 1413              		.global	HAL_PWREx_ConfigPVM
 1414              		.syntax unified
 1415              		.thumb
 1416              		.thumb_func
 1417              		.fpu fpv4-sp-d16
 1419              	HAL_PWREx_ConfigPVM:
 1420              	.LFB305:
 876:d:/LiteOS_Lab/drivers/third_party/ST/STM32L4xx_HAL_Driver/Src\stm32l4xx_hal_pwr_ex.c **** 
 877:d:/LiteOS_Lab/drivers/third_party/ST/STM32L4xx_HAL_Driver/Src\stm32l4xx_hal_pwr_ex.c **** 
 878:d:/LiteOS_Lab/drivers/third_party/ST/STM32L4xx_HAL_Driver/Src\stm32l4xx_hal_pwr_ex.c **** 
 879:d:/LiteOS_Lab/drivers/third_party/ST/STM32L4xx_HAL_Driver/Src\stm32l4xx_hal_pwr_ex.c **** 
 880:d:/LiteOS_Lab/drivers/third_party/ST/STM32L4xx_HAL_Driver/Src\stm32l4xx_hal_pwr_ex.c **** /**
 881:d:/LiteOS_Lab/drivers/third_party/ST/STM32L4xx_HAL_Driver/Src\stm32l4xx_hal_pwr_ex.c ****   * @brief Configure the Peripheral Voltage Monitoring (PVM).
 882:d:/LiteOS_Lab/drivers/third_party/ST/STM32L4xx_HAL_Driver/Src\stm32l4xx_hal_pwr_ex.c ****   * @param sConfigPVM: pointer to a PWR_PVMTypeDef structure that contains the
 883:d:/LiteOS_Lab/drivers/third_party/ST/STM32L4xx_HAL_Driver/Src\stm32l4xx_hal_pwr_ex.c ****   *        PVM configuration information.
 884:d:/LiteOS_Lab/drivers/third_party/ST/STM32L4xx_HAL_Driver/Src\stm32l4xx_hal_pwr_ex.c ****   * @note The API configures a single PVM according to the information contained 
 885:d:/LiteOS_Lab/drivers/third_party/ST/STM32L4xx_HAL_Driver/Src\stm32l4xx_hal_pwr_ex.c ****   *       in the input structure. To configure several PVMs, the API must be singly 
 886:d:/LiteOS_Lab/drivers/third_party/ST/STM32L4xx_HAL_Driver/Src\stm32l4xx_hal_pwr_ex.c ****   *       called for each PVM used.
 887:d:/LiteOS_Lab/drivers/third_party/ST/STM32L4xx_HAL_Driver/Src\stm32l4xx_hal_pwr_ex.c ****   * @note Refer to the electrical characteristics of your device datasheet for
 888:d:/LiteOS_Lab/drivers/third_party/ST/STM32L4xx_HAL_Driver/Src\stm32l4xx_hal_pwr_ex.c ****   *         more details about the voltage thresholds corresponding to each
 889:d:/LiteOS_Lab/drivers/third_party/ST/STM32L4xx_HAL_Driver/Src\stm32l4xx_hal_pwr_ex.c ****   *         detection level and to each monitored supply.
 890:d:/LiteOS_Lab/drivers/third_party/ST/STM32L4xx_HAL_Driver/Src\stm32l4xx_hal_pwr_ex.c ****   * @retval HAL status
 891:d:/LiteOS_Lab/drivers/third_party/ST/STM32L4xx_HAL_Driver/Src\stm32l4xx_hal_pwr_ex.c ****   */
 892:d:/LiteOS_Lab/drivers/third_party/ST/STM32L4xx_HAL_Driver/Src\stm32l4xx_hal_pwr_ex.c **** HAL_StatusTypeDef HAL_PWREx_ConfigPVM(PWR_PVMTypeDef *sConfigPVM)
 893:d:/LiteOS_Lab/drivers/third_party/ST/STM32L4xx_HAL_Driver/Src\stm32l4xx_hal_pwr_ex.c **** {  
 1421              		.loc 1 893 1
ARM GAS  C:\Users\ADMINI~1\AppData\Local\Temp\cciDrfVK.s 			page 41


 1422              		.cfi_startproc
 1423              		@ args = 0, pretend = 0, frame = 8
 1424              		@ frame_needed = 1, uses_anonymous_args = 0
 1425              		@ link register save eliminated.
 1426 0000 80B4     		push	{r7}
 1427              	.LCFI84:
 1428              		.cfi_def_cfa_offset 4
 1429              		.cfi_offset 7, -4
 1430 0002 83B0     		sub	sp, sp, #12
 1431              	.LCFI85:
 1432              		.cfi_def_cfa_offset 16
 1433 0004 00AF     		add	r7, sp, #0
 1434              	.LCFI86:
 1435              		.cfi_def_cfa_register 7
 1436 0006 7860     		str	r0, [r7, #4]
 894:d:/LiteOS_Lab/drivers/third_party/ST/STM32L4xx_HAL_Driver/Src\stm32l4xx_hal_pwr_ex.c ****   /* Check the parameters */
 895:d:/LiteOS_Lab/drivers/third_party/ST/STM32L4xx_HAL_Driver/Src\stm32l4xx_hal_pwr_ex.c ****   assert_param(IS_PWR_PVM_TYPE(sConfigPVM->PVMType));
 896:d:/LiteOS_Lab/drivers/third_party/ST/STM32L4xx_HAL_Driver/Src\stm32l4xx_hal_pwr_ex.c ****   assert_param(IS_PWR_PVM_MODE(sConfigPVM->Mode));
 897:d:/LiteOS_Lab/drivers/third_party/ST/STM32L4xx_HAL_Driver/Src\stm32l4xx_hal_pwr_ex.c **** 
 898:d:/LiteOS_Lab/drivers/third_party/ST/STM32L4xx_HAL_Driver/Src\stm32l4xx_hal_pwr_ex.c **** 
 899:d:/LiteOS_Lab/drivers/third_party/ST/STM32L4xx_HAL_Driver/Src\stm32l4xx_hal_pwr_ex.c ****   /* Configure EXTI 35 to 38 interrupts if so required:
 900:d:/LiteOS_Lab/drivers/third_party/ST/STM32L4xx_HAL_Driver/Src\stm32l4xx_hal_pwr_ex.c ****      scan thru PVMType to detect which PVMx is set and
 901:d:/LiteOS_Lab/drivers/third_party/ST/STM32L4xx_HAL_Driver/Src\stm32l4xx_hal_pwr_ex.c ****      configure the corresponding EXTI line accordingly. */
 902:d:/LiteOS_Lab/drivers/third_party/ST/STM32L4xx_HAL_Driver/Src\stm32l4xx_hal_pwr_ex.c ****   switch (sConfigPVM->PVMType)
 1437              		.loc 1 902 21
 1438 0008 7B68     		ldr	r3, [r7, #4]
 1439 000a 1B68     		ldr	r3, [r3]
 1440              		.loc 1 902 3
 1441 000c 402B     		cmp	r3, #64
 1442 000e 02D0     		beq	.L103
 1443 0010 802B     		cmp	r3, #128
 1444 0012 49D0     		beq	.L104
 1445 0014 91E0     		b	.L116
 1446              	.L103:
 903:d:/LiteOS_Lab/drivers/third_party/ST/STM32L4xx_HAL_Driver/Src\stm32l4xx_hal_pwr_ex.c ****   {
 904:d:/LiteOS_Lab/drivers/third_party/ST/STM32L4xx_HAL_Driver/Src\stm32l4xx_hal_pwr_ex.c **** #if defined(PWR_CR2_PVME1)  
 905:d:/LiteOS_Lab/drivers/third_party/ST/STM32L4xx_HAL_Driver/Src\stm32l4xx_hal_pwr_ex.c ****     case PWR_PVM_1:
 906:d:/LiteOS_Lab/drivers/third_party/ST/STM32L4xx_HAL_Driver/Src\stm32l4xx_hal_pwr_ex.c ****       /* Clear any previous config. Keep it clear if no event or IT mode is selected */
 907:d:/LiteOS_Lab/drivers/third_party/ST/STM32L4xx_HAL_Driver/Src\stm32l4xx_hal_pwr_ex.c ****       __HAL_PWR_PVM1_EXTI_DISABLE_EVENT();
 908:d:/LiteOS_Lab/drivers/third_party/ST/STM32L4xx_HAL_Driver/Src\stm32l4xx_hal_pwr_ex.c ****       __HAL_PWR_PVM1_EXTI_DISABLE_IT();
 909:d:/LiteOS_Lab/drivers/third_party/ST/STM32L4xx_HAL_Driver/Src\stm32l4xx_hal_pwr_ex.c ****       __HAL_PWR_PVM1_EXTI_DISABLE_FALLING_EDGE(); 
 910:d:/LiteOS_Lab/drivers/third_party/ST/STM32L4xx_HAL_Driver/Src\stm32l4xx_hal_pwr_ex.c ****       __HAL_PWR_PVM1_EXTI_DISABLE_RISING_EDGE();
 911:d:/LiteOS_Lab/drivers/third_party/ST/STM32L4xx_HAL_Driver/Src\stm32l4xx_hal_pwr_ex.c **** 
 912:d:/LiteOS_Lab/drivers/third_party/ST/STM32L4xx_HAL_Driver/Src\stm32l4xx_hal_pwr_ex.c ****       /* Configure interrupt mode */
 913:d:/LiteOS_Lab/drivers/third_party/ST/STM32L4xx_HAL_Driver/Src\stm32l4xx_hal_pwr_ex.c ****       if((sConfigPVM->Mode & PVM_MODE_IT) == PVM_MODE_IT)
 914:d:/LiteOS_Lab/drivers/third_party/ST/STM32L4xx_HAL_Driver/Src\stm32l4xx_hal_pwr_ex.c ****       {
 915:d:/LiteOS_Lab/drivers/third_party/ST/STM32L4xx_HAL_Driver/Src\stm32l4xx_hal_pwr_ex.c ****         __HAL_PWR_PVM1_EXTI_ENABLE_IT();
 916:d:/LiteOS_Lab/drivers/third_party/ST/STM32L4xx_HAL_Driver/Src\stm32l4xx_hal_pwr_ex.c ****       }
 917:d:/LiteOS_Lab/drivers/third_party/ST/STM32L4xx_HAL_Driver/Src\stm32l4xx_hal_pwr_ex.c ****   
 918:d:/LiteOS_Lab/drivers/third_party/ST/STM32L4xx_HAL_Driver/Src\stm32l4xx_hal_pwr_ex.c ****       /* Configure event mode */
 919:d:/LiteOS_Lab/drivers/third_party/ST/STM32L4xx_HAL_Driver/Src\stm32l4xx_hal_pwr_ex.c ****       if((sConfigPVM->Mode & PVM_MODE_EVT) == PVM_MODE_EVT)
 920:d:/LiteOS_Lab/drivers/third_party/ST/STM32L4xx_HAL_Driver/Src\stm32l4xx_hal_pwr_ex.c ****       {
 921:d:/LiteOS_Lab/drivers/third_party/ST/STM32L4xx_HAL_Driver/Src\stm32l4xx_hal_pwr_ex.c ****         __HAL_PWR_PVM1_EXTI_ENABLE_EVENT();
 922:d:/LiteOS_Lab/drivers/third_party/ST/STM32L4xx_HAL_Driver/Src\stm32l4xx_hal_pwr_ex.c ****       }
 923:d:/LiteOS_Lab/drivers/third_party/ST/STM32L4xx_HAL_Driver/Src\stm32l4xx_hal_pwr_ex.c ****   
 924:d:/LiteOS_Lab/drivers/third_party/ST/STM32L4xx_HAL_Driver/Src\stm32l4xx_hal_pwr_ex.c ****       /* Configure the edge */
 925:d:/LiteOS_Lab/drivers/third_party/ST/STM32L4xx_HAL_Driver/Src\stm32l4xx_hal_pwr_ex.c ****       if((sConfigPVM->Mode & PVM_RISING_EDGE) == PVM_RISING_EDGE)
ARM GAS  C:\Users\ADMINI~1\AppData\Local\Temp\cciDrfVK.s 			page 42


 926:d:/LiteOS_Lab/drivers/third_party/ST/STM32L4xx_HAL_Driver/Src\stm32l4xx_hal_pwr_ex.c ****       {
 927:d:/LiteOS_Lab/drivers/third_party/ST/STM32L4xx_HAL_Driver/Src\stm32l4xx_hal_pwr_ex.c ****         __HAL_PWR_PVM1_EXTI_ENABLE_RISING_EDGE();
 928:d:/LiteOS_Lab/drivers/third_party/ST/STM32L4xx_HAL_Driver/Src\stm32l4xx_hal_pwr_ex.c ****       }
 929:d:/LiteOS_Lab/drivers/third_party/ST/STM32L4xx_HAL_Driver/Src\stm32l4xx_hal_pwr_ex.c ****   
 930:d:/LiteOS_Lab/drivers/third_party/ST/STM32L4xx_HAL_Driver/Src\stm32l4xx_hal_pwr_ex.c ****       if((sConfigPVM->Mode & PVM_FALLING_EDGE) == PVM_FALLING_EDGE)
 931:d:/LiteOS_Lab/drivers/third_party/ST/STM32L4xx_HAL_Driver/Src\stm32l4xx_hal_pwr_ex.c ****       {
 932:d:/LiteOS_Lab/drivers/third_party/ST/STM32L4xx_HAL_Driver/Src\stm32l4xx_hal_pwr_ex.c ****         __HAL_PWR_PVM1_EXTI_ENABLE_FALLING_EDGE();
 933:d:/LiteOS_Lab/drivers/third_party/ST/STM32L4xx_HAL_Driver/Src\stm32l4xx_hal_pwr_ex.c ****       }
 934:d:/LiteOS_Lab/drivers/third_party/ST/STM32L4xx_HAL_Driver/Src\stm32l4xx_hal_pwr_ex.c ****       break; 
 935:d:/LiteOS_Lab/drivers/third_party/ST/STM32L4xx_HAL_Driver/Src\stm32l4xx_hal_pwr_ex.c **** #endif /* PWR_CR2_PVME1 */        
 936:d:/LiteOS_Lab/drivers/third_party/ST/STM32L4xx_HAL_Driver/Src\stm32l4xx_hal_pwr_ex.c ****     
 937:d:/LiteOS_Lab/drivers/third_party/ST/STM32L4xx_HAL_Driver/Src\stm32l4xx_hal_pwr_ex.c **** #if defined(PWR_CR2_PVME2)    
 938:d:/LiteOS_Lab/drivers/third_party/ST/STM32L4xx_HAL_Driver/Src\stm32l4xx_hal_pwr_ex.c ****     case PWR_PVM_2:
 939:d:/LiteOS_Lab/drivers/third_party/ST/STM32L4xx_HAL_Driver/Src\stm32l4xx_hal_pwr_ex.c ****       /* Clear any previous config. Keep it clear if no event or IT mode is selected */
 940:d:/LiteOS_Lab/drivers/third_party/ST/STM32L4xx_HAL_Driver/Src\stm32l4xx_hal_pwr_ex.c ****       __HAL_PWR_PVM2_EXTI_DISABLE_EVENT();
 941:d:/LiteOS_Lab/drivers/third_party/ST/STM32L4xx_HAL_Driver/Src\stm32l4xx_hal_pwr_ex.c ****       __HAL_PWR_PVM2_EXTI_DISABLE_IT();
 942:d:/LiteOS_Lab/drivers/third_party/ST/STM32L4xx_HAL_Driver/Src\stm32l4xx_hal_pwr_ex.c ****       __HAL_PWR_PVM2_EXTI_DISABLE_FALLING_EDGE(); 
 943:d:/LiteOS_Lab/drivers/third_party/ST/STM32L4xx_HAL_Driver/Src\stm32l4xx_hal_pwr_ex.c ****       __HAL_PWR_PVM2_EXTI_DISABLE_RISING_EDGE();
 944:d:/LiteOS_Lab/drivers/third_party/ST/STM32L4xx_HAL_Driver/Src\stm32l4xx_hal_pwr_ex.c **** 
 945:d:/LiteOS_Lab/drivers/third_party/ST/STM32L4xx_HAL_Driver/Src\stm32l4xx_hal_pwr_ex.c ****       /* Configure interrupt mode */
 946:d:/LiteOS_Lab/drivers/third_party/ST/STM32L4xx_HAL_Driver/Src\stm32l4xx_hal_pwr_ex.c ****       if((sConfigPVM->Mode & PVM_MODE_IT) == PVM_MODE_IT)
 947:d:/LiteOS_Lab/drivers/third_party/ST/STM32L4xx_HAL_Driver/Src\stm32l4xx_hal_pwr_ex.c ****       {
 948:d:/LiteOS_Lab/drivers/third_party/ST/STM32L4xx_HAL_Driver/Src\stm32l4xx_hal_pwr_ex.c ****         __HAL_PWR_PVM2_EXTI_ENABLE_IT();
 949:d:/LiteOS_Lab/drivers/third_party/ST/STM32L4xx_HAL_Driver/Src\stm32l4xx_hal_pwr_ex.c ****       }
 950:d:/LiteOS_Lab/drivers/third_party/ST/STM32L4xx_HAL_Driver/Src\stm32l4xx_hal_pwr_ex.c ****   
 951:d:/LiteOS_Lab/drivers/third_party/ST/STM32L4xx_HAL_Driver/Src\stm32l4xx_hal_pwr_ex.c ****       /* Configure event mode */
 952:d:/LiteOS_Lab/drivers/third_party/ST/STM32L4xx_HAL_Driver/Src\stm32l4xx_hal_pwr_ex.c ****       if((sConfigPVM->Mode & PVM_MODE_EVT) == PVM_MODE_EVT)
 953:d:/LiteOS_Lab/drivers/third_party/ST/STM32L4xx_HAL_Driver/Src\stm32l4xx_hal_pwr_ex.c ****       {
 954:d:/LiteOS_Lab/drivers/third_party/ST/STM32L4xx_HAL_Driver/Src\stm32l4xx_hal_pwr_ex.c ****         __HAL_PWR_PVM2_EXTI_ENABLE_EVENT();
 955:d:/LiteOS_Lab/drivers/third_party/ST/STM32L4xx_HAL_Driver/Src\stm32l4xx_hal_pwr_ex.c ****       }
 956:d:/LiteOS_Lab/drivers/third_party/ST/STM32L4xx_HAL_Driver/Src\stm32l4xx_hal_pwr_ex.c ****   
 957:d:/LiteOS_Lab/drivers/third_party/ST/STM32L4xx_HAL_Driver/Src\stm32l4xx_hal_pwr_ex.c ****       /* Configure the edge */
 958:d:/LiteOS_Lab/drivers/third_party/ST/STM32L4xx_HAL_Driver/Src\stm32l4xx_hal_pwr_ex.c ****       if((sConfigPVM->Mode & PVM_RISING_EDGE) == PVM_RISING_EDGE)
 959:d:/LiteOS_Lab/drivers/third_party/ST/STM32L4xx_HAL_Driver/Src\stm32l4xx_hal_pwr_ex.c ****       {
 960:d:/LiteOS_Lab/drivers/third_party/ST/STM32L4xx_HAL_Driver/Src\stm32l4xx_hal_pwr_ex.c ****         __HAL_PWR_PVM2_EXTI_ENABLE_RISING_EDGE();
 961:d:/LiteOS_Lab/drivers/third_party/ST/STM32L4xx_HAL_Driver/Src\stm32l4xx_hal_pwr_ex.c ****       }
 962:d:/LiteOS_Lab/drivers/third_party/ST/STM32L4xx_HAL_Driver/Src\stm32l4xx_hal_pwr_ex.c ****   
 963:d:/LiteOS_Lab/drivers/third_party/ST/STM32L4xx_HAL_Driver/Src\stm32l4xx_hal_pwr_ex.c ****       if((sConfigPVM->Mode & PVM_FALLING_EDGE) == PVM_FALLING_EDGE)
 964:d:/LiteOS_Lab/drivers/third_party/ST/STM32L4xx_HAL_Driver/Src\stm32l4xx_hal_pwr_ex.c ****       {
 965:d:/LiteOS_Lab/drivers/third_party/ST/STM32L4xx_HAL_Driver/Src\stm32l4xx_hal_pwr_ex.c ****         __HAL_PWR_PVM2_EXTI_ENABLE_FALLING_EDGE();
 966:d:/LiteOS_Lab/drivers/third_party/ST/STM32L4xx_HAL_Driver/Src\stm32l4xx_hal_pwr_ex.c ****       }
 967:d:/LiteOS_Lab/drivers/third_party/ST/STM32L4xx_HAL_Driver/Src\stm32l4xx_hal_pwr_ex.c ****       break;
 968:d:/LiteOS_Lab/drivers/third_party/ST/STM32L4xx_HAL_Driver/Src\stm32l4xx_hal_pwr_ex.c **** #endif /* PWR_CR2_PVME2 */      
 969:d:/LiteOS_Lab/drivers/third_party/ST/STM32L4xx_HAL_Driver/Src\stm32l4xx_hal_pwr_ex.c ****       
 970:d:/LiteOS_Lab/drivers/third_party/ST/STM32L4xx_HAL_Driver/Src\stm32l4xx_hal_pwr_ex.c ****     case PWR_PVM_3:
 971:d:/LiteOS_Lab/drivers/third_party/ST/STM32L4xx_HAL_Driver/Src\stm32l4xx_hal_pwr_ex.c ****       /* Clear any previous config. Keep it clear if no event or IT mode is selected */
 972:d:/LiteOS_Lab/drivers/third_party/ST/STM32L4xx_HAL_Driver/Src\stm32l4xx_hal_pwr_ex.c ****       __HAL_PWR_PVM3_EXTI_DISABLE_EVENT();
 1447              		.loc 1 972 7
 1448 0016 4F4B     		ldr	r3, .L119
 1449 0018 5B6A     		ldr	r3, [r3, #36]
 1450 001a 4E4A     		ldr	r2, .L119
 1451 001c 23F02003 		bic	r3, r3, #32
 1452 0020 5362     		str	r3, [r2, #36]
 973:d:/LiteOS_Lab/drivers/third_party/ST/STM32L4xx_HAL_Driver/Src\stm32l4xx_hal_pwr_ex.c ****       __HAL_PWR_PVM3_EXTI_DISABLE_IT();
 1453              		.loc 1 973 7
 1454 0022 4C4B     		ldr	r3, .L119
 1455 0024 1B6A     		ldr	r3, [r3, #32]
ARM GAS  C:\Users\ADMINI~1\AppData\Local\Temp\cciDrfVK.s 			page 43


 1456 0026 4B4A     		ldr	r2, .L119
 1457 0028 23F02003 		bic	r3, r3, #32
 1458 002c 1362     		str	r3, [r2, #32]
 974:d:/LiteOS_Lab/drivers/third_party/ST/STM32L4xx_HAL_Driver/Src\stm32l4xx_hal_pwr_ex.c ****       __HAL_PWR_PVM3_EXTI_DISABLE_FALLING_EDGE(); 
 1459              		.loc 1 974 7
 1460 002e 494B     		ldr	r3, .L119
 1461 0030 DB6A     		ldr	r3, [r3, #44]
 1462 0032 484A     		ldr	r2, .L119
 1463 0034 23F02003 		bic	r3, r3, #32
 1464 0038 D362     		str	r3, [r2, #44]
 975:d:/LiteOS_Lab/drivers/third_party/ST/STM32L4xx_HAL_Driver/Src\stm32l4xx_hal_pwr_ex.c ****       __HAL_PWR_PVM3_EXTI_DISABLE_RISING_EDGE();
 1465              		.loc 1 975 7
 1466 003a 464B     		ldr	r3, .L119
 1467 003c 9B6A     		ldr	r3, [r3, #40]
 1468 003e 454A     		ldr	r2, .L119
 1469 0040 23F02003 		bic	r3, r3, #32
 1470 0044 9362     		str	r3, [r2, #40]
 976:d:/LiteOS_Lab/drivers/third_party/ST/STM32L4xx_HAL_Driver/Src\stm32l4xx_hal_pwr_ex.c **** 
 977:d:/LiteOS_Lab/drivers/third_party/ST/STM32L4xx_HAL_Driver/Src\stm32l4xx_hal_pwr_ex.c ****       /* Configure interrupt mode */
 978:d:/LiteOS_Lab/drivers/third_party/ST/STM32L4xx_HAL_Driver/Src\stm32l4xx_hal_pwr_ex.c ****       if((sConfigPVM->Mode & PVM_MODE_IT) == PVM_MODE_IT)
 1471              		.loc 1 978 21
 1472 0046 7B68     		ldr	r3, [r7, #4]
 1473 0048 5B68     		ldr	r3, [r3, #4]
 1474              		.loc 1 978 28
 1475 004a 03F48033 		and	r3, r3, #65536
 1476              		.loc 1 978 9
 1477 004e 002B     		cmp	r3, #0
 1478 0050 05D0     		beq	.L106
 979:d:/LiteOS_Lab/drivers/third_party/ST/STM32L4xx_HAL_Driver/Src\stm32l4xx_hal_pwr_ex.c ****       {
 980:d:/LiteOS_Lab/drivers/third_party/ST/STM32L4xx_HAL_Driver/Src\stm32l4xx_hal_pwr_ex.c ****         __HAL_PWR_PVM3_EXTI_ENABLE_IT();
 1479              		.loc 1 980 9
 1480 0052 404B     		ldr	r3, .L119
 1481 0054 1B6A     		ldr	r3, [r3, #32]
 1482 0056 3F4A     		ldr	r2, .L119
 1483 0058 43F02003 		orr	r3, r3, #32
 1484 005c 1362     		str	r3, [r2, #32]
 1485              	.L106:
 981:d:/LiteOS_Lab/drivers/third_party/ST/STM32L4xx_HAL_Driver/Src\stm32l4xx_hal_pwr_ex.c ****       }
 982:d:/LiteOS_Lab/drivers/third_party/ST/STM32L4xx_HAL_Driver/Src\stm32l4xx_hal_pwr_ex.c ****   
 983:d:/LiteOS_Lab/drivers/third_party/ST/STM32L4xx_HAL_Driver/Src\stm32l4xx_hal_pwr_ex.c ****       /* Configure event mode */
 984:d:/LiteOS_Lab/drivers/third_party/ST/STM32L4xx_HAL_Driver/Src\stm32l4xx_hal_pwr_ex.c ****       if((sConfigPVM->Mode & PVM_MODE_EVT) == PVM_MODE_EVT)
 1486              		.loc 1 984 21
 1487 005e 7B68     		ldr	r3, [r7, #4]
 1488 0060 5B68     		ldr	r3, [r3, #4]
 1489              		.loc 1 984 28
 1490 0062 03F40033 		and	r3, r3, #131072
 1491              		.loc 1 984 9
 1492 0066 002B     		cmp	r3, #0
 1493 0068 05D0     		beq	.L107
 985:d:/LiteOS_Lab/drivers/third_party/ST/STM32L4xx_HAL_Driver/Src\stm32l4xx_hal_pwr_ex.c ****       {
 986:d:/LiteOS_Lab/drivers/third_party/ST/STM32L4xx_HAL_Driver/Src\stm32l4xx_hal_pwr_ex.c ****         __HAL_PWR_PVM3_EXTI_ENABLE_EVENT();
 1494              		.loc 1 986 9
 1495 006a 3A4B     		ldr	r3, .L119
 1496 006c 5B6A     		ldr	r3, [r3, #36]
 1497 006e 394A     		ldr	r2, .L119
 1498 0070 43F02003 		orr	r3, r3, #32
 1499 0074 5362     		str	r3, [r2, #36]
ARM GAS  C:\Users\ADMINI~1\AppData\Local\Temp\cciDrfVK.s 			page 44


 1500              	.L107:
 987:d:/LiteOS_Lab/drivers/third_party/ST/STM32L4xx_HAL_Driver/Src\stm32l4xx_hal_pwr_ex.c ****       }
 988:d:/LiteOS_Lab/drivers/third_party/ST/STM32L4xx_HAL_Driver/Src\stm32l4xx_hal_pwr_ex.c ****   
 989:d:/LiteOS_Lab/drivers/third_party/ST/STM32L4xx_HAL_Driver/Src\stm32l4xx_hal_pwr_ex.c ****       /* Configure the edge */
 990:d:/LiteOS_Lab/drivers/third_party/ST/STM32L4xx_HAL_Driver/Src\stm32l4xx_hal_pwr_ex.c ****       if((sConfigPVM->Mode & PVM_RISING_EDGE) == PVM_RISING_EDGE)
 1501              		.loc 1 990 21
 1502 0076 7B68     		ldr	r3, [r7, #4]
 1503 0078 5B68     		ldr	r3, [r3, #4]
 1504              		.loc 1 990 28
 1505 007a 03F00103 		and	r3, r3, #1
 1506              		.loc 1 990 9
 1507 007e 002B     		cmp	r3, #0
 1508 0080 05D0     		beq	.L108
 991:d:/LiteOS_Lab/drivers/third_party/ST/STM32L4xx_HAL_Driver/Src\stm32l4xx_hal_pwr_ex.c ****       {
 992:d:/LiteOS_Lab/drivers/third_party/ST/STM32L4xx_HAL_Driver/Src\stm32l4xx_hal_pwr_ex.c ****         __HAL_PWR_PVM3_EXTI_ENABLE_RISING_EDGE();
 1509              		.loc 1 992 9
 1510 0082 344B     		ldr	r3, .L119
 1511 0084 9B6A     		ldr	r3, [r3, #40]
 1512 0086 334A     		ldr	r2, .L119
 1513 0088 43F02003 		orr	r3, r3, #32
 1514 008c 9362     		str	r3, [r2, #40]
 1515              	.L108:
 993:d:/LiteOS_Lab/drivers/third_party/ST/STM32L4xx_HAL_Driver/Src\stm32l4xx_hal_pwr_ex.c ****       }
 994:d:/LiteOS_Lab/drivers/third_party/ST/STM32L4xx_HAL_Driver/Src\stm32l4xx_hal_pwr_ex.c ****   
 995:d:/LiteOS_Lab/drivers/third_party/ST/STM32L4xx_HAL_Driver/Src\stm32l4xx_hal_pwr_ex.c ****       if((sConfigPVM->Mode & PVM_FALLING_EDGE) == PVM_FALLING_EDGE)
 1516              		.loc 1 995 21
 1517 008e 7B68     		ldr	r3, [r7, #4]
 1518 0090 5B68     		ldr	r3, [r3, #4]
 1519              		.loc 1 995 28
 1520 0092 03F00203 		and	r3, r3, #2
 1521              		.loc 1 995 9
 1522 0096 002B     		cmp	r3, #0
 1523 0098 51D0     		beq	.L117
 996:d:/LiteOS_Lab/drivers/third_party/ST/STM32L4xx_HAL_Driver/Src\stm32l4xx_hal_pwr_ex.c ****       {
 997:d:/LiteOS_Lab/drivers/third_party/ST/STM32L4xx_HAL_Driver/Src\stm32l4xx_hal_pwr_ex.c ****         __HAL_PWR_PVM3_EXTI_ENABLE_FALLING_EDGE();
 1524              		.loc 1 997 9
 1525 009a 2E4B     		ldr	r3, .L119
 1526 009c DB6A     		ldr	r3, [r3, #44]
 1527 009e 2D4A     		ldr	r2, .L119
 1528 00a0 43F02003 		orr	r3, r3, #32
 1529 00a4 D362     		str	r3, [r2, #44]
 998:d:/LiteOS_Lab/drivers/third_party/ST/STM32L4xx_HAL_Driver/Src\stm32l4xx_hal_pwr_ex.c ****       }
 999:d:/LiteOS_Lab/drivers/third_party/ST/STM32L4xx_HAL_Driver/Src\stm32l4xx_hal_pwr_ex.c ****       break;
 1530              		.loc 1 999 7
 1531 00a6 4AE0     		b	.L117
 1532              	.L104:
1000:d:/LiteOS_Lab/drivers/third_party/ST/STM32L4xx_HAL_Driver/Src\stm32l4xx_hal_pwr_ex.c ****       
1001:d:/LiteOS_Lab/drivers/third_party/ST/STM32L4xx_HAL_Driver/Src\stm32l4xx_hal_pwr_ex.c ****     case PWR_PVM_4:
1002:d:/LiteOS_Lab/drivers/third_party/ST/STM32L4xx_HAL_Driver/Src\stm32l4xx_hal_pwr_ex.c ****       /* Clear any previous config. Keep it clear if no event or IT mode is selected */
1003:d:/LiteOS_Lab/drivers/third_party/ST/STM32L4xx_HAL_Driver/Src\stm32l4xx_hal_pwr_ex.c ****       __HAL_PWR_PVM4_EXTI_DISABLE_EVENT();
 1533              		.loc 1 1003 7
 1534 00a8 2A4B     		ldr	r3, .L119
 1535 00aa 5B6A     		ldr	r3, [r3, #36]
 1536 00ac 294A     		ldr	r2, .L119
 1537 00ae 23F04003 		bic	r3, r3, #64
 1538 00b2 5362     		str	r3, [r2, #36]
1004:d:/LiteOS_Lab/drivers/third_party/ST/STM32L4xx_HAL_Driver/Src\stm32l4xx_hal_pwr_ex.c ****       __HAL_PWR_PVM4_EXTI_DISABLE_IT();
ARM GAS  C:\Users\ADMINI~1\AppData\Local\Temp\cciDrfVK.s 			page 45


 1539              		.loc 1 1004 7
 1540 00b4 274B     		ldr	r3, .L119
 1541 00b6 1B6A     		ldr	r3, [r3, #32]
 1542 00b8 264A     		ldr	r2, .L119
 1543 00ba 23F04003 		bic	r3, r3, #64
 1544 00be 1362     		str	r3, [r2, #32]
1005:d:/LiteOS_Lab/drivers/third_party/ST/STM32L4xx_HAL_Driver/Src\stm32l4xx_hal_pwr_ex.c ****       __HAL_PWR_PVM4_EXTI_DISABLE_FALLING_EDGE(); 
 1545              		.loc 1 1005 7
 1546 00c0 244B     		ldr	r3, .L119
 1547 00c2 DB6A     		ldr	r3, [r3, #44]
 1548 00c4 234A     		ldr	r2, .L119
 1549 00c6 23F04003 		bic	r3, r3, #64
 1550 00ca D362     		str	r3, [r2, #44]
1006:d:/LiteOS_Lab/drivers/third_party/ST/STM32L4xx_HAL_Driver/Src\stm32l4xx_hal_pwr_ex.c ****       __HAL_PWR_PVM4_EXTI_DISABLE_RISING_EDGE();
 1551              		.loc 1 1006 7
 1552 00cc 214B     		ldr	r3, .L119
 1553 00ce 9B6A     		ldr	r3, [r3, #40]
 1554 00d0 204A     		ldr	r2, .L119
 1555 00d2 23F04003 		bic	r3, r3, #64
 1556 00d6 9362     		str	r3, [r2, #40]
1007:d:/LiteOS_Lab/drivers/third_party/ST/STM32L4xx_HAL_Driver/Src\stm32l4xx_hal_pwr_ex.c **** 
1008:d:/LiteOS_Lab/drivers/third_party/ST/STM32L4xx_HAL_Driver/Src\stm32l4xx_hal_pwr_ex.c ****       /* Configure interrupt mode */
1009:d:/LiteOS_Lab/drivers/third_party/ST/STM32L4xx_HAL_Driver/Src\stm32l4xx_hal_pwr_ex.c ****       if((sConfigPVM->Mode & PVM_MODE_IT) == PVM_MODE_IT)
 1557              		.loc 1 1009 21
 1558 00d8 7B68     		ldr	r3, [r7, #4]
 1559 00da 5B68     		ldr	r3, [r3, #4]
 1560              		.loc 1 1009 28
 1561 00dc 03F48033 		and	r3, r3, #65536
 1562              		.loc 1 1009 9
 1563 00e0 002B     		cmp	r3, #0
 1564 00e2 05D0     		beq	.L111
1010:d:/LiteOS_Lab/drivers/third_party/ST/STM32L4xx_HAL_Driver/Src\stm32l4xx_hal_pwr_ex.c ****       {
1011:d:/LiteOS_Lab/drivers/third_party/ST/STM32L4xx_HAL_Driver/Src\stm32l4xx_hal_pwr_ex.c ****         __HAL_PWR_PVM4_EXTI_ENABLE_IT();
 1565              		.loc 1 1011 9
 1566 00e4 1B4B     		ldr	r3, .L119
 1567 00e6 1B6A     		ldr	r3, [r3, #32]
 1568 00e8 1A4A     		ldr	r2, .L119
 1569 00ea 43F04003 		orr	r3, r3, #64
 1570 00ee 1362     		str	r3, [r2, #32]
 1571              	.L111:
1012:d:/LiteOS_Lab/drivers/third_party/ST/STM32L4xx_HAL_Driver/Src\stm32l4xx_hal_pwr_ex.c ****       }
1013:d:/LiteOS_Lab/drivers/third_party/ST/STM32L4xx_HAL_Driver/Src\stm32l4xx_hal_pwr_ex.c ****   
1014:d:/LiteOS_Lab/drivers/third_party/ST/STM32L4xx_HAL_Driver/Src\stm32l4xx_hal_pwr_ex.c ****       /* Configure event mode */
1015:d:/LiteOS_Lab/drivers/third_party/ST/STM32L4xx_HAL_Driver/Src\stm32l4xx_hal_pwr_ex.c ****       if((sConfigPVM->Mode & PVM_MODE_EVT) == PVM_MODE_EVT)
 1572              		.loc 1 1015 21
 1573 00f0 7B68     		ldr	r3, [r7, #4]
 1574 00f2 5B68     		ldr	r3, [r3, #4]
 1575              		.loc 1 1015 28
 1576 00f4 03F40033 		and	r3, r3, #131072
 1577              		.loc 1 1015 9
 1578 00f8 002B     		cmp	r3, #0
 1579 00fa 05D0     		beq	.L112
1016:d:/LiteOS_Lab/drivers/third_party/ST/STM32L4xx_HAL_Driver/Src\stm32l4xx_hal_pwr_ex.c ****       {
1017:d:/LiteOS_Lab/drivers/third_party/ST/STM32L4xx_HAL_Driver/Src\stm32l4xx_hal_pwr_ex.c ****         __HAL_PWR_PVM4_EXTI_ENABLE_EVENT();
 1580              		.loc 1 1017 9
 1581 00fc 154B     		ldr	r3, .L119
 1582 00fe 5B6A     		ldr	r3, [r3, #36]
ARM GAS  C:\Users\ADMINI~1\AppData\Local\Temp\cciDrfVK.s 			page 46


 1583 0100 144A     		ldr	r2, .L119
 1584 0102 43F04003 		orr	r3, r3, #64
 1585 0106 5362     		str	r3, [r2, #36]
 1586              	.L112:
1018:d:/LiteOS_Lab/drivers/third_party/ST/STM32L4xx_HAL_Driver/Src\stm32l4xx_hal_pwr_ex.c ****       }
1019:d:/LiteOS_Lab/drivers/third_party/ST/STM32L4xx_HAL_Driver/Src\stm32l4xx_hal_pwr_ex.c ****   
1020:d:/LiteOS_Lab/drivers/third_party/ST/STM32L4xx_HAL_Driver/Src\stm32l4xx_hal_pwr_ex.c ****       /* Configure the edge */
1021:d:/LiteOS_Lab/drivers/third_party/ST/STM32L4xx_HAL_Driver/Src\stm32l4xx_hal_pwr_ex.c ****       if((sConfigPVM->Mode & PVM_RISING_EDGE) == PVM_RISING_EDGE)
 1587              		.loc 1 1021 21
 1588 0108 7B68     		ldr	r3, [r7, #4]
 1589 010a 5B68     		ldr	r3, [r3, #4]
 1590              		.loc 1 1021 28
 1591 010c 03F00103 		and	r3, r3, #1
 1592              		.loc 1 1021 9
 1593 0110 002B     		cmp	r3, #0
 1594 0112 05D0     		beq	.L113
1022:d:/LiteOS_Lab/drivers/third_party/ST/STM32L4xx_HAL_Driver/Src\stm32l4xx_hal_pwr_ex.c ****       {
1023:d:/LiteOS_Lab/drivers/third_party/ST/STM32L4xx_HAL_Driver/Src\stm32l4xx_hal_pwr_ex.c ****         __HAL_PWR_PVM4_EXTI_ENABLE_RISING_EDGE();
 1595              		.loc 1 1023 9
 1596 0114 0F4B     		ldr	r3, .L119
 1597 0116 9B6A     		ldr	r3, [r3, #40]
 1598 0118 0E4A     		ldr	r2, .L119
 1599 011a 43F04003 		orr	r3, r3, #64
 1600 011e 9362     		str	r3, [r2, #40]
 1601              	.L113:
1024:d:/LiteOS_Lab/drivers/third_party/ST/STM32L4xx_HAL_Driver/Src\stm32l4xx_hal_pwr_ex.c ****       }
1025:d:/LiteOS_Lab/drivers/third_party/ST/STM32L4xx_HAL_Driver/Src\stm32l4xx_hal_pwr_ex.c ****   
1026:d:/LiteOS_Lab/drivers/third_party/ST/STM32L4xx_HAL_Driver/Src\stm32l4xx_hal_pwr_ex.c ****       if((sConfigPVM->Mode & PVM_FALLING_EDGE) == PVM_FALLING_EDGE)
 1602              		.loc 1 1026 21
 1603 0120 7B68     		ldr	r3, [r7, #4]
 1604 0122 5B68     		ldr	r3, [r3, #4]
 1605              		.loc 1 1026 28
 1606 0124 03F00203 		and	r3, r3, #2
 1607              		.loc 1 1026 9
 1608 0128 002B     		cmp	r3, #0
 1609 012a 0AD0     		beq	.L118
1027:d:/LiteOS_Lab/drivers/third_party/ST/STM32L4xx_HAL_Driver/Src\stm32l4xx_hal_pwr_ex.c ****       {
1028:d:/LiteOS_Lab/drivers/third_party/ST/STM32L4xx_HAL_Driver/Src\stm32l4xx_hal_pwr_ex.c ****         __HAL_PWR_PVM4_EXTI_ENABLE_FALLING_EDGE();
 1610              		.loc 1 1028 9
 1611 012c 094B     		ldr	r3, .L119
 1612 012e DB6A     		ldr	r3, [r3, #44]
 1613 0130 084A     		ldr	r2, .L119
 1614 0132 43F04003 		orr	r3, r3, #64
 1615 0136 D362     		str	r3, [r2, #44]
1029:d:/LiteOS_Lab/drivers/third_party/ST/STM32L4xx_HAL_Driver/Src\stm32l4xx_hal_pwr_ex.c ****       }
1030:d:/LiteOS_Lab/drivers/third_party/ST/STM32L4xx_HAL_Driver/Src\stm32l4xx_hal_pwr_ex.c ****       break;  
 1616              		.loc 1 1030 7
 1617 0138 03E0     		b	.L118
 1618              	.L116:
1031:d:/LiteOS_Lab/drivers/third_party/ST/STM32L4xx_HAL_Driver/Src\stm32l4xx_hal_pwr_ex.c ****       
1032:d:/LiteOS_Lab/drivers/third_party/ST/STM32L4xx_HAL_Driver/Src\stm32l4xx_hal_pwr_ex.c ****     default:
1033:d:/LiteOS_Lab/drivers/third_party/ST/STM32L4xx_HAL_Driver/Src\stm32l4xx_hal_pwr_ex.c ****       return HAL_ERROR;                      
 1619              		.loc 1 1033 14
 1620 013a 0123     		movs	r3, #1
 1621 013c 03E0     		b	.L115
 1622              	.L117:
 999:d:/LiteOS_Lab/drivers/third_party/ST/STM32L4xx_HAL_Driver/Src\stm32l4xx_hal_pwr_ex.c ****       
ARM GAS  C:\Users\ADMINI~1\AppData\Local\Temp\cciDrfVK.s 			page 47


 1623              		.loc 1 999 7
 1624 013e 00BF     		nop
 1625 0140 00E0     		b	.L110
 1626              	.L118:
1030:d:/LiteOS_Lab/drivers/third_party/ST/STM32L4xx_HAL_Driver/Src\stm32l4xx_hal_pwr_ex.c ****       
 1627              		.loc 1 1030 7
 1628 0142 00BF     		nop
 1629              	.L110:
1034:d:/LiteOS_Lab/drivers/third_party/ST/STM32L4xx_HAL_Driver/Src\stm32l4xx_hal_pwr_ex.c ****     
1035:d:/LiteOS_Lab/drivers/third_party/ST/STM32L4xx_HAL_Driver/Src\stm32l4xx_hal_pwr_ex.c ****   }   
1036:d:/LiteOS_Lab/drivers/third_party/ST/STM32L4xx_HAL_Driver/Src\stm32l4xx_hal_pwr_ex.c **** 
1037:d:/LiteOS_Lab/drivers/third_party/ST/STM32L4xx_HAL_Driver/Src\stm32l4xx_hal_pwr_ex.c ****   
1038:d:/LiteOS_Lab/drivers/third_party/ST/STM32L4xx_HAL_Driver/Src\stm32l4xx_hal_pwr_ex.c ****   return HAL_OK;
 1630              		.loc 1 1038 10
 1631 0144 0023     		movs	r3, #0
 1632              	.L115:
1039:d:/LiteOS_Lab/drivers/third_party/ST/STM32L4xx_HAL_Driver/Src\stm32l4xx_hal_pwr_ex.c **** }
 1633              		.loc 1 1039 1
 1634 0146 1846     		mov	r0, r3
 1635 0148 0C37     		adds	r7, r7, #12
 1636              	.LCFI87:
 1637              		.cfi_def_cfa_offset 4
 1638 014a BD46     		mov	sp, r7
 1639              	.LCFI88:
 1640              		.cfi_def_cfa_register 13
 1641              		@ sp needed
 1642 014c 5DF8047B 		ldr	r7, [sp], #4
 1643              	.LCFI89:
 1644              		.cfi_restore 7
 1645              		.cfi_def_cfa_offset 0
 1646 0150 7047     		bx	lr
 1647              	.L120:
 1648 0152 00BF     		.align	2
 1649              	.L119:
 1650 0154 00040140 		.word	1073808384
 1651              		.cfi_endproc
 1652              	.LFE305:
 1654              		.section	.text.HAL_PWREx_EnableLowPowerRunMode,"ax",%progbits
 1655              		.align	1
 1656              		.global	HAL_PWREx_EnableLowPowerRunMode
 1657              		.syntax unified
 1658              		.thumb
 1659              		.thumb_func
 1660              		.fpu fpv4-sp-d16
 1662              	HAL_PWREx_EnableLowPowerRunMode:
 1663              	.LFB306:
1040:d:/LiteOS_Lab/drivers/third_party/ST/STM32L4xx_HAL_Driver/Src\stm32l4xx_hal_pwr_ex.c **** 
1041:d:/LiteOS_Lab/drivers/third_party/ST/STM32L4xx_HAL_Driver/Src\stm32l4xx_hal_pwr_ex.c **** 
1042:d:/LiteOS_Lab/drivers/third_party/ST/STM32L4xx_HAL_Driver/Src\stm32l4xx_hal_pwr_ex.c **** 
1043:d:/LiteOS_Lab/drivers/third_party/ST/STM32L4xx_HAL_Driver/Src\stm32l4xx_hal_pwr_ex.c **** /**
1044:d:/LiteOS_Lab/drivers/third_party/ST/STM32L4xx_HAL_Driver/Src\stm32l4xx_hal_pwr_ex.c ****   * @brief Enter Low-power Run mode
1045:d:/LiteOS_Lab/drivers/third_party/ST/STM32L4xx_HAL_Driver/Src\stm32l4xx_hal_pwr_ex.c ****   * @note  In Low-power Run mode, all I/O pins keep the same state as in Run mode.  
1046:d:/LiteOS_Lab/drivers/third_party/ST/STM32L4xx_HAL_Driver/Src\stm32l4xx_hal_pwr_ex.c ****   * @note  When Regulator is set to PWR_LOWPOWERREGULATOR_ON, the user can optionally configure the
1047:d:/LiteOS_Lab/drivers/third_party/ST/STM32L4xx_HAL_Driver/Src\stm32l4xx_hal_pwr_ex.c ****   *        Flash in power-down monde in setting the RUN_PD bit in FLASH_ACR register.
1048:d:/LiteOS_Lab/drivers/third_party/ST/STM32L4xx_HAL_Driver/Src\stm32l4xx_hal_pwr_ex.c ****   *        Additionally, the clock frequency must be reduced below 2 MHz.
1049:d:/LiteOS_Lab/drivers/third_party/ST/STM32L4xx_HAL_Driver/Src\stm32l4xx_hal_pwr_ex.c ****   *        Setting RUN_PD in FLASH_ACR then appropriately reducing the clock frequency must 
1050:d:/LiteOS_Lab/drivers/third_party/ST/STM32L4xx_HAL_Driver/Src\stm32l4xx_hal_pwr_ex.c ****   *        be done before calling HAL_PWREx_EnableLowPowerRunMode() API.     
ARM GAS  C:\Users\ADMINI~1\AppData\Local\Temp\cciDrfVK.s 			page 48


1051:d:/LiteOS_Lab/drivers/third_party/ST/STM32L4xx_HAL_Driver/Src\stm32l4xx_hal_pwr_ex.c ****   * @retval None
1052:d:/LiteOS_Lab/drivers/third_party/ST/STM32L4xx_HAL_Driver/Src\stm32l4xx_hal_pwr_ex.c ****   */
1053:d:/LiteOS_Lab/drivers/third_party/ST/STM32L4xx_HAL_Driver/Src\stm32l4xx_hal_pwr_ex.c **** void HAL_PWREx_EnableLowPowerRunMode(void)
1054:d:/LiteOS_Lab/drivers/third_party/ST/STM32L4xx_HAL_Driver/Src\stm32l4xx_hal_pwr_ex.c **** {
 1664              		.loc 1 1054 1
 1665              		.cfi_startproc
 1666              		@ args = 0, pretend = 0, frame = 0
 1667              		@ frame_needed = 1, uses_anonymous_args = 0
 1668              		@ link register save eliminated.
 1669 0000 80B4     		push	{r7}
 1670              	.LCFI90:
 1671              		.cfi_def_cfa_offset 4
 1672              		.cfi_offset 7, -4
 1673 0002 00AF     		add	r7, sp, #0
 1674              	.LCFI91:
 1675              		.cfi_def_cfa_register 7
1055:d:/LiteOS_Lab/drivers/third_party/ST/STM32L4xx_HAL_Driver/Src\stm32l4xx_hal_pwr_ex.c ****   /* Set Regulator parameter */
1056:d:/LiteOS_Lab/drivers/third_party/ST/STM32L4xx_HAL_Driver/Src\stm32l4xx_hal_pwr_ex.c ****   SET_BIT(PWR->CR1, PWR_CR1_LPR); 
 1676              		.loc 1 1056 3
 1677 0004 054B     		ldr	r3, .L122
 1678 0006 1B68     		ldr	r3, [r3]
 1679 0008 044A     		ldr	r2, .L122
 1680 000a 43F48043 		orr	r3, r3, #16384
 1681 000e 1360     		str	r3, [r2]
1057:d:/LiteOS_Lab/drivers/third_party/ST/STM32L4xx_HAL_Driver/Src\stm32l4xx_hal_pwr_ex.c **** }
 1682              		.loc 1 1057 1
 1683 0010 00BF     		nop
 1684 0012 BD46     		mov	sp, r7
 1685              	.LCFI92:
 1686              		.cfi_def_cfa_register 13
 1687              		@ sp needed
 1688 0014 5DF8047B 		ldr	r7, [sp], #4
 1689              	.LCFI93:
 1690              		.cfi_restore 7
 1691              		.cfi_def_cfa_offset 0
 1692 0018 7047     		bx	lr
 1693              	.L123:
 1694 001a 00BF     		.align	2
 1695              	.L122:
 1696 001c 00700040 		.word	1073770496
 1697              		.cfi_endproc
 1698              	.LFE306:
 1700              		.section	.text.HAL_PWREx_DisableLowPowerRunMode,"ax",%progbits
 1701              		.align	1
 1702              		.global	HAL_PWREx_DisableLowPowerRunMode
 1703              		.syntax unified
 1704              		.thumb
 1705              		.thumb_func
 1706              		.fpu fpv4-sp-d16
 1708              	HAL_PWREx_DisableLowPowerRunMode:
 1709              	.LFB307:
1058:d:/LiteOS_Lab/drivers/third_party/ST/STM32L4xx_HAL_Driver/Src\stm32l4xx_hal_pwr_ex.c **** 
1059:d:/LiteOS_Lab/drivers/third_party/ST/STM32L4xx_HAL_Driver/Src\stm32l4xx_hal_pwr_ex.c **** 
1060:d:/LiteOS_Lab/drivers/third_party/ST/STM32L4xx_HAL_Driver/Src\stm32l4xx_hal_pwr_ex.c **** /**
1061:d:/LiteOS_Lab/drivers/third_party/ST/STM32L4xx_HAL_Driver/Src\stm32l4xx_hal_pwr_ex.c ****   * @brief Exit Low-power Run mode.
1062:d:/LiteOS_Lab/drivers/third_party/ST/STM32L4xx_HAL_Driver/Src\stm32l4xx_hal_pwr_ex.c ****   * @note  Before HAL_PWREx_DisableLowPowerRunMode() completion, the function checks that 
1063:d:/LiteOS_Lab/drivers/third_party/ST/STM32L4xx_HAL_Driver/Src\stm32l4xx_hal_pwr_ex.c ****   *        REGLPF has been properly reset (otherwise, HAL_PWREx_DisableLowPowerRunMode 
ARM GAS  C:\Users\ADMINI~1\AppData\Local\Temp\cciDrfVK.s 			page 49


1064:d:/LiteOS_Lab/drivers/third_party/ST/STM32L4xx_HAL_Driver/Src\stm32l4xx_hal_pwr_ex.c ****   *        returns HAL_TIMEOUT status). The system clock frequency can then be
1065:d:/LiteOS_Lab/drivers/third_party/ST/STM32L4xx_HAL_Driver/Src\stm32l4xx_hal_pwr_ex.c ****   *        increased above 2 MHz.   
1066:d:/LiteOS_Lab/drivers/third_party/ST/STM32L4xx_HAL_Driver/Src\stm32l4xx_hal_pwr_ex.c ****   * @retval HAL Status
1067:d:/LiteOS_Lab/drivers/third_party/ST/STM32L4xx_HAL_Driver/Src\stm32l4xx_hal_pwr_ex.c ****   */
1068:d:/LiteOS_Lab/drivers/third_party/ST/STM32L4xx_HAL_Driver/Src\stm32l4xx_hal_pwr_ex.c **** HAL_StatusTypeDef HAL_PWREx_DisableLowPowerRunMode(void)
1069:d:/LiteOS_Lab/drivers/third_party/ST/STM32L4xx_HAL_Driver/Src\stm32l4xx_hal_pwr_ex.c **** {
 1710              		.loc 1 1069 1
 1711              		.cfi_startproc
 1712              		@ args = 0, pretend = 0, frame = 8
 1713              		@ frame_needed = 1, uses_anonymous_args = 0
 1714              		@ link register save eliminated.
 1715 0000 80B4     		push	{r7}
 1716              	.LCFI94:
 1717              		.cfi_def_cfa_offset 4
 1718              		.cfi_offset 7, -4
 1719 0002 83B0     		sub	sp, sp, #12
 1720              	.LCFI95:
 1721              		.cfi_def_cfa_offset 16
 1722 0004 00AF     		add	r7, sp, #0
 1723              	.LCFI96:
 1724              		.cfi_def_cfa_register 7
1070:d:/LiteOS_Lab/drivers/third_party/ST/STM32L4xx_HAL_Driver/Src\stm32l4xx_hal_pwr_ex.c ****   uint32_t wait_loop_index = 0;
 1725              		.loc 1 1070 12
 1726 0006 0023     		movs	r3, #0
 1727 0008 7B60     		str	r3, [r7, #4]
1071:d:/LiteOS_Lab/drivers/third_party/ST/STM32L4xx_HAL_Driver/Src\stm32l4xx_hal_pwr_ex.c ****   
1072:d:/LiteOS_Lab/drivers/third_party/ST/STM32L4xx_HAL_Driver/Src\stm32l4xx_hal_pwr_ex.c ****   /* Clear LPR bit */
1073:d:/LiteOS_Lab/drivers/third_party/ST/STM32L4xx_HAL_Driver/Src\stm32l4xx_hal_pwr_ex.c ****   CLEAR_BIT(PWR->CR1, PWR_CR1_LPR); 
 1728              		.loc 1 1073 3
 1729 000a 174B     		ldr	r3, .L130
 1730 000c 1B68     		ldr	r3, [r3]
 1731 000e 164A     		ldr	r2, .L130
 1732 0010 23F48043 		bic	r3, r3, #16384
 1733 0014 1360     		str	r3, [r2]
1074:d:/LiteOS_Lab/drivers/third_party/ST/STM32L4xx_HAL_Driver/Src\stm32l4xx_hal_pwr_ex.c **** 
1075:d:/LiteOS_Lab/drivers/third_party/ST/STM32L4xx_HAL_Driver/Src\stm32l4xx_hal_pwr_ex.c ****   /* Wait until REGLPF is reset */
1076:d:/LiteOS_Lab/drivers/third_party/ST/STM32L4xx_HAL_Driver/Src\stm32l4xx_hal_pwr_ex.c ****   wait_loop_index = (PWR_FLAG_SETTING_DELAY_US * (SystemCoreClock / 1000000));
 1734              		.loc 1 1076 67
 1735 0016 154B     		ldr	r3, .L130+4
 1736 0018 1B68     		ldr	r3, [r3]
 1737 001a 154A     		ldr	r2, .L130+8
 1738 001c A2FB0323 		umull	r2, r3, r2, r3
 1739 0020 9B0C     		lsrs	r3, r3, #18
 1740              		.loc 1 1076 19
 1741 0022 3222     		movs	r2, #50
 1742 0024 02FB03F3 		mul	r3, r2, r3
 1743 0028 7B60     		str	r3, [r7, #4]
1077:d:/LiteOS_Lab/drivers/third_party/ST/STM32L4xx_HAL_Driver/Src\stm32l4xx_hal_pwr_ex.c ****   while ((wait_loop_index != 0) && (HAL_IS_BIT_SET(PWR->SR2, PWR_SR2_REGLPF)))
 1744              		.loc 1 1077 9
 1745 002a 02E0     		b	.L125
 1746              	.L127:
1078:d:/LiteOS_Lab/drivers/third_party/ST/STM32L4xx_HAL_Driver/Src\stm32l4xx_hal_pwr_ex.c ****   {
1079:d:/LiteOS_Lab/drivers/third_party/ST/STM32L4xx_HAL_Driver/Src\stm32l4xx_hal_pwr_ex.c ****     wait_loop_index--;
 1747              		.loc 1 1079 20
 1748 002c 7B68     		ldr	r3, [r7, #4]
 1749 002e 013B     		subs	r3, r3, #1
 1750 0030 7B60     		str	r3, [r7, #4]
ARM GAS  C:\Users\ADMINI~1\AppData\Local\Temp\cciDrfVK.s 			page 50


 1751              	.L125:
1077:d:/LiteOS_Lab/drivers/third_party/ST/STM32L4xx_HAL_Driver/Src\stm32l4xx_hal_pwr_ex.c ****   while ((wait_loop_index != 0) && (HAL_IS_BIT_SET(PWR->SR2, PWR_SR2_REGLPF)))
 1752              		.loc 1 1077 9
 1753 0032 7B68     		ldr	r3, [r7, #4]
 1754 0034 002B     		cmp	r3, #0
 1755 0036 06D0     		beq	.L126
1077:d:/LiteOS_Lab/drivers/third_party/ST/STM32L4xx_HAL_Driver/Src\stm32l4xx_hal_pwr_ex.c ****   while ((wait_loop_index != 0) && (HAL_IS_BIT_SET(PWR->SR2, PWR_SR2_REGLPF)))
 1756              		.loc 1 1077 37 discriminator 1
 1757 0038 0B4B     		ldr	r3, .L130
 1758 003a 5B69     		ldr	r3, [r3, #20]
 1759 003c 03F40073 		and	r3, r3, #512
1077:d:/LiteOS_Lab/drivers/third_party/ST/STM32L4xx_HAL_Driver/Src\stm32l4xx_hal_pwr_ex.c ****   while ((wait_loop_index != 0) && (HAL_IS_BIT_SET(PWR->SR2, PWR_SR2_REGLPF)))
 1760              		.loc 1 1077 33 discriminator 1
 1761 0040 B3F5007F 		cmp	r3, #512
 1762 0044 F2D0     		beq	.L127
 1763              	.L126:
1080:d:/LiteOS_Lab/drivers/third_party/ST/STM32L4xx_HAL_Driver/Src\stm32l4xx_hal_pwr_ex.c ****   }
1081:d:/LiteOS_Lab/drivers/third_party/ST/STM32L4xx_HAL_Driver/Src\stm32l4xx_hal_pwr_ex.c ****   if (HAL_IS_BIT_SET(PWR->SR2, PWR_SR2_REGLPF))
 1764              		.loc 1 1081 7
 1765 0046 084B     		ldr	r3, .L130
 1766 0048 5B69     		ldr	r3, [r3, #20]
 1767 004a 03F40073 		and	r3, r3, #512
 1768              		.loc 1 1081 6
 1769 004e B3F5007F 		cmp	r3, #512
 1770 0052 01D1     		bne	.L128
1082:d:/LiteOS_Lab/drivers/third_party/ST/STM32L4xx_HAL_Driver/Src\stm32l4xx_hal_pwr_ex.c ****   {
1083:d:/LiteOS_Lab/drivers/third_party/ST/STM32L4xx_HAL_Driver/Src\stm32l4xx_hal_pwr_ex.c ****     return HAL_TIMEOUT;
 1771              		.loc 1 1083 12
 1772 0054 0323     		movs	r3, #3
 1773 0056 00E0     		b	.L129
 1774              	.L128:
1084:d:/LiteOS_Lab/drivers/third_party/ST/STM32L4xx_HAL_Driver/Src\stm32l4xx_hal_pwr_ex.c ****   }
1085:d:/LiteOS_Lab/drivers/third_party/ST/STM32L4xx_HAL_Driver/Src\stm32l4xx_hal_pwr_ex.c ****   
1086:d:/LiteOS_Lab/drivers/third_party/ST/STM32L4xx_HAL_Driver/Src\stm32l4xx_hal_pwr_ex.c ****   return HAL_OK;
 1775              		.loc 1 1086 10
 1776 0058 0023     		movs	r3, #0
 1777              	.L129:
1087:d:/LiteOS_Lab/drivers/third_party/ST/STM32L4xx_HAL_Driver/Src\stm32l4xx_hal_pwr_ex.c **** }
 1778              		.loc 1 1087 1
 1779 005a 1846     		mov	r0, r3
 1780 005c 0C37     		adds	r7, r7, #12
 1781              	.LCFI97:
 1782              		.cfi_def_cfa_offset 4
 1783 005e BD46     		mov	sp, r7
 1784              	.LCFI98:
 1785              		.cfi_def_cfa_register 13
 1786              		@ sp needed
 1787 0060 5DF8047B 		ldr	r7, [sp], #4
 1788              	.LCFI99:
 1789              		.cfi_restore 7
 1790              		.cfi_def_cfa_offset 0
 1791 0064 7047     		bx	lr
 1792              	.L131:
 1793 0066 00BF     		.align	2
 1794              	.L130:
 1795 0068 00700040 		.word	1073770496
 1796 006c 00000000 		.word	SystemCoreClock
ARM GAS  C:\Users\ADMINI~1\AppData\Local\Temp\cciDrfVK.s 			page 51


 1797 0070 83DE1B43 		.word	1125899907
 1798              		.cfi_endproc
 1799              	.LFE307:
 1801              		.section	.text.HAL_PWREx_EnterSTOP0Mode,"ax",%progbits
 1802              		.align	1
 1803              		.global	HAL_PWREx_EnterSTOP0Mode
 1804              		.syntax unified
 1805              		.thumb
 1806              		.thumb_func
 1807              		.fpu fpv4-sp-d16
 1809              	HAL_PWREx_EnterSTOP0Mode:
 1810              	.LFB308:
1088:d:/LiteOS_Lab/drivers/third_party/ST/STM32L4xx_HAL_Driver/Src\stm32l4xx_hal_pwr_ex.c **** 
1089:d:/LiteOS_Lab/drivers/third_party/ST/STM32L4xx_HAL_Driver/Src\stm32l4xx_hal_pwr_ex.c **** 
1090:d:/LiteOS_Lab/drivers/third_party/ST/STM32L4xx_HAL_Driver/Src\stm32l4xx_hal_pwr_ex.c **** /**
1091:d:/LiteOS_Lab/drivers/third_party/ST/STM32L4xx_HAL_Driver/Src\stm32l4xx_hal_pwr_ex.c ****   * @brief Enter Stop 0 mode.
1092:d:/LiteOS_Lab/drivers/third_party/ST/STM32L4xx_HAL_Driver/Src\stm32l4xx_hal_pwr_ex.c ****   * @note  In Stop 0 mode, main and low voltage regulators are ON.
1093:d:/LiteOS_Lab/drivers/third_party/ST/STM32L4xx_HAL_Driver/Src\stm32l4xx_hal_pwr_ex.c ****   * @note  In Stop 0 mode, all I/O pins keep the same state as in Run mode.
1094:d:/LiteOS_Lab/drivers/third_party/ST/STM32L4xx_HAL_Driver/Src\stm32l4xx_hal_pwr_ex.c ****   * @note  All clocks in the VCORE domain are stopped; the PLL, the MSI, 
1095:d:/LiteOS_Lab/drivers/third_party/ST/STM32L4xx_HAL_Driver/Src\stm32l4xx_hal_pwr_ex.c ****   *        the HSI and the HSE oscillators are disabled. Some peripherals with the wakeup capabilit
1096:d:/LiteOS_Lab/drivers/third_party/ST/STM32L4xx_HAL_Driver/Src\stm32l4xx_hal_pwr_ex.c ****   *        (I2Cx, USARTx and LPUART) can switch on the HSI to receive a frame, and switch off the H
1097:d:/LiteOS_Lab/drivers/third_party/ST/STM32L4xx_HAL_Driver/Src\stm32l4xx_hal_pwr_ex.c ****   *        after receiving the frame if it is not a wakeup frame. In this case, the HSI clock is pr
1098:d:/LiteOS_Lab/drivers/third_party/ST/STM32L4xx_HAL_Driver/Src\stm32l4xx_hal_pwr_ex.c ****   *        only to the peripheral requesting it.
1099:d:/LiteOS_Lab/drivers/third_party/ST/STM32L4xx_HAL_Driver/Src\stm32l4xx_hal_pwr_ex.c ****   *        SRAM1, SRAM2 and register contents are preserved.
1100:d:/LiteOS_Lab/drivers/third_party/ST/STM32L4xx_HAL_Driver/Src\stm32l4xx_hal_pwr_ex.c ****   *        The BOR is available.
1101:d:/LiteOS_Lab/drivers/third_party/ST/STM32L4xx_HAL_Driver/Src\stm32l4xx_hal_pwr_ex.c ****   * @note  When exiting Stop 0 mode by issuing an interrupt or a wakeup event,
1102:d:/LiteOS_Lab/drivers/third_party/ST/STM32L4xx_HAL_Driver/Src\stm32l4xx_hal_pwr_ex.c ****   *         the HSI RC oscillator is selected as system clock if STOPWUCK bit in RCC_CFGR register
1103:d:/LiteOS_Lab/drivers/third_party/ST/STM32L4xx_HAL_Driver/Src\stm32l4xx_hal_pwr_ex.c ****   *         is set; the MSI oscillator is selected if STOPWUCK is cleared.  
1104:d:/LiteOS_Lab/drivers/third_party/ST/STM32L4xx_HAL_Driver/Src\stm32l4xx_hal_pwr_ex.c ****   * @note  By keeping the internal regulator ON during Stop 0 mode, the consumption
1105:d:/LiteOS_Lab/drivers/third_party/ST/STM32L4xx_HAL_Driver/Src\stm32l4xx_hal_pwr_ex.c ****   *         is higher although the startup time is reduced.
1106:d:/LiteOS_Lab/drivers/third_party/ST/STM32L4xx_HAL_Driver/Src\stm32l4xx_hal_pwr_ex.c ****   * @param STOPEntry  specifies if Stop mode in entered with WFI or WFE instruction.
1107:d:/LiteOS_Lab/drivers/third_party/ST/STM32L4xx_HAL_Driver/Src\stm32l4xx_hal_pwr_ex.c ****   *          This parameter can be one of the following values:
1108:d:/LiteOS_Lab/drivers/third_party/ST/STM32L4xx_HAL_Driver/Src\stm32l4xx_hal_pwr_ex.c ****   *            @arg @ref PWR_STOPENTRY_WFI  Enter Stop mode with WFI instruction
1109:d:/LiteOS_Lab/drivers/third_party/ST/STM32L4xx_HAL_Driver/Src\stm32l4xx_hal_pwr_ex.c ****   *            @arg @ref PWR_STOPENTRY_WFE  Enter Stop mode with WFE instruction
1110:d:/LiteOS_Lab/drivers/third_party/ST/STM32L4xx_HAL_Driver/Src\stm32l4xx_hal_pwr_ex.c ****   * @retval None
1111:d:/LiteOS_Lab/drivers/third_party/ST/STM32L4xx_HAL_Driver/Src\stm32l4xx_hal_pwr_ex.c ****   */
1112:d:/LiteOS_Lab/drivers/third_party/ST/STM32L4xx_HAL_Driver/Src\stm32l4xx_hal_pwr_ex.c **** void HAL_PWREx_EnterSTOP0Mode(uint8_t STOPEntry)
1113:d:/LiteOS_Lab/drivers/third_party/ST/STM32L4xx_HAL_Driver/Src\stm32l4xx_hal_pwr_ex.c **** {
 1811              		.loc 1 1113 1
 1812              		.cfi_startproc
 1813              		@ args = 0, pretend = 0, frame = 8
 1814              		@ frame_needed = 1, uses_anonymous_args = 0
 1815              		@ link register save eliminated.
 1816 0000 80B4     		push	{r7}
 1817              	.LCFI100:
 1818              		.cfi_def_cfa_offset 4
 1819              		.cfi_offset 7, -4
 1820 0002 83B0     		sub	sp, sp, #12
 1821              	.LCFI101:
 1822              		.cfi_def_cfa_offset 16
 1823 0004 00AF     		add	r7, sp, #0
 1824              	.LCFI102:
 1825              		.cfi_def_cfa_register 7
 1826 0006 0346     		mov	r3, r0
 1827 0008 FB71     		strb	r3, [r7, #7]
1114:d:/LiteOS_Lab/drivers/third_party/ST/STM32L4xx_HAL_Driver/Src\stm32l4xx_hal_pwr_ex.c ****   /* Check the parameters */
1115:d:/LiteOS_Lab/drivers/third_party/ST/STM32L4xx_HAL_Driver/Src\stm32l4xx_hal_pwr_ex.c ****   assert_param(IS_PWR_STOP_ENTRY(STOPEntry));
ARM GAS  C:\Users\ADMINI~1\AppData\Local\Temp\cciDrfVK.s 			page 52


1116:d:/LiteOS_Lab/drivers/third_party/ST/STM32L4xx_HAL_Driver/Src\stm32l4xx_hal_pwr_ex.c ****     
1117:d:/LiteOS_Lab/drivers/third_party/ST/STM32L4xx_HAL_Driver/Src\stm32l4xx_hal_pwr_ex.c ****   /* Stop 0 mode with Main Regulator */
1118:d:/LiteOS_Lab/drivers/third_party/ST/STM32L4xx_HAL_Driver/Src\stm32l4xx_hal_pwr_ex.c ****   MODIFY_REG(PWR->CR1, PWR_CR1_LPMS, PWR_CR1_LPMS_STOP0);
 1828              		.loc 1 1118 3
 1829 000a 104B     		ldr	r3, .L135
 1830 000c 1B68     		ldr	r3, [r3]
 1831 000e 0F4A     		ldr	r2, .L135
 1832 0010 23F00703 		bic	r3, r3, #7
 1833 0014 1360     		str	r3, [r2]
1119:d:/LiteOS_Lab/drivers/third_party/ST/STM32L4xx_HAL_Driver/Src\stm32l4xx_hal_pwr_ex.c **** 
1120:d:/LiteOS_Lab/drivers/third_party/ST/STM32L4xx_HAL_Driver/Src\stm32l4xx_hal_pwr_ex.c ****   /* Set SLEEPDEEP bit of Cortex System Control Register */
1121:d:/LiteOS_Lab/drivers/third_party/ST/STM32L4xx_HAL_Driver/Src\stm32l4xx_hal_pwr_ex.c ****   SET_BIT(SCB->SCR, ((uint32_t)SCB_SCR_SLEEPDEEP_Msk));
 1834              		.loc 1 1121 3
 1835 0016 0E4B     		ldr	r3, .L135+4
 1836 0018 1B69     		ldr	r3, [r3, #16]
 1837 001a 0D4A     		ldr	r2, .L135+4
 1838 001c 43F00403 		orr	r3, r3, #4
 1839 0020 1361     		str	r3, [r2, #16]
1122:d:/LiteOS_Lab/drivers/third_party/ST/STM32L4xx_HAL_Driver/Src\stm32l4xx_hal_pwr_ex.c **** 
1123:d:/LiteOS_Lab/drivers/third_party/ST/STM32L4xx_HAL_Driver/Src\stm32l4xx_hal_pwr_ex.c ****   /* Select Stop mode entry --------------------------------------------------*/
1124:d:/LiteOS_Lab/drivers/third_party/ST/STM32L4xx_HAL_Driver/Src\stm32l4xx_hal_pwr_ex.c ****   if(STOPEntry == PWR_STOPENTRY_WFI)
 1840              		.loc 1 1124 5
 1841 0022 FB79     		ldrb	r3, [r7, #7]	@ zero_extendqisi2
 1842 0024 012B     		cmp	r3, #1
 1843 0026 01D1     		bne	.L133
1125:d:/LiteOS_Lab/drivers/third_party/ST/STM32L4xx_HAL_Driver/Src\stm32l4xx_hal_pwr_ex.c ****   {
1126:d:/LiteOS_Lab/drivers/third_party/ST/STM32L4xx_HAL_Driver/Src\stm32l4xx_hal_pwr_ex.c ****     /* Request Wait For Interrupt */
1127:d:/LiteOS_Lab/drivers/third_party/ST/STM32L4xx_HAL_Driver/Src\stm32l4xx_hal_pwr_ex.c ****     __WFI();
 1844              		.loc 1 1127 5
 1845              		.syntax unified
 1846              	@ 1127 "d:/LiteOS_Lab/drivers/third_party/ST/STM32L4xx_HAL_Driver/Src/stm32l4xx_hal_pwr_ex.c" 1
 1847 0028 30BF     		wfi
 1848              	@ 0 "" 2
 1849              		.thumb
 1850              		.syntax unified
 1851 002a 02E0     		b	.L134
 1852              	.L133:
1128:d:/LiteOS_Lab/drivers/third_party/ST/STM32L4xx_HAL_Driver/Src\stm32l4xx_hal_pwr_ex.c ****   }
1129:d:/LiteOS_Lab/drivers/third_party/ST/STM32L4xx_HAL_Driver/Src\stm32l4xx_hal_pwr_ex.c ****   else
1130:d:/LiteOS_Lab/drivers/third_party/ST/STM32L4xx_HAL_Driver/Src\stm32l4xx_hal_pwr_ex.c ****   {
1131:d:/LiteOS_Lab/drivers/third_party/ST/STM32L4xx_HAL_Driver/Src\stm32l4xx_hal_pwr_ex.c ****     /* Request Wait For Event */
1132:d:/LiteOS_Lab/drivers/third_party/ST/STM32L4xx_HAL_Driver/Src\stm32l4xx_hal_pwr_ex.c ****     __SEV();
 1853              		.loc 1 1132 5
 1854              		.syntax unified
 1855              	@ 1132 "d:/LiteOS_Lab/drivers/third_party/ST/STM32L4xx_HAL_Driver/Src/stm32l4xx_hal_pwr_ex.c" 1
 1856 002c 40BF     		sev
 1857              	@ 0 "" 2
1133:d:/LiteOS_Lab/drivers/third_party/ST/STM32L4xx_HAL_Driver/Src\stm32l4xx_hal_pwr_ex.c ****     __WFE();
 1858              		.loc 1 1133 5
 1859              	@ 1133 "d:/LiteOS_Lab/drivers/third_party/ST/STM32L4xx_HAL_Driver/Src/stm32l4xx_hal_pwr_ex.c" 1
 1860 002e 20BF     		wfe
 1861              	@ 0 "" 2
1134:d:/LiteOS_Lab/drivers/third_party/ST/STM32L4xx_HAL_Driver/Src\stm32l4xx_hal_pwr_ex.c ****     __WFE();
 1862              		.loc 1 1134 5
 1863              	@ 1134 "d:/LiteOS_Lab/drivers/third_party/ST/STM32L4xx_HAL_Driver/Src/stm32l4xx_hal_pwr_ex.c" 1
 1864 0030 20BF     		wfe
 1865              	@ 0 "" 2
ARM GAS  C:\Users\ADMINI~1\AppData\Local\Temp\cciDrfVK.s 			page 53


 1866              		.thumb
 1867              		.syntax unified
 1868              	.L134:
1135:d:/LiteOS_Lab/drivers/third_party/ST/STM32L4xx_HAL_Driver/Src\stm32l4xx_hal_pwr_ex.c ****   }
1136:d:/LiteOS_Lab/drivers/third_party/ST/STM32L4xx_HAL_Driver/Src\stm32l4xx_hal_pwr_ex.c **** 
1137:d:/LiteOS_Lab/drivers/third_party/ST/STM32L4xx_HAL_Driver/Src\stm32l4xx_hal_pwr_ex.c ****   /* Reset SLEEPDEEP bit of Cortex System Control Register */
1138:d:/LiteOS_Lab/drivers/third_party/ST/STM32L4xx_HAL_Driver/Src\stm32l4xx_hal_pwr_ex.c ****   CLEAR_BIT(SCB->SCR, ((uint32_t)SCB_SCR_SLEEPDEEP_Msk));
 1869              		.loc 1 1138 3
 1870 0032 074B     		ldr	r3, .L135+4
 1871 0034 1B69     		ldr	r3, [r3, #16]
 1872 0036 064A     		ldr	r2, .L135+4
 1873 0038 23F00403 		bic	r3, r3, #4
 1874 003c 1361     		str	r3, [r2, #16]
1139:d:/LiteOS_Lab/drivers/third_party/ST/STM32L4xx_HAL_Driver/Src\stm32l4xx_hal_pwr_ex.c **** }
 1875              		.loc 1 1139 1
 1876 003e 00BF     		nop
 1877 0040 0C37     		adds	r7, r7, #12
 1878              	.LCFI103:
 1879              		.cfi_def_cfa_offset 4
 1880 0042 BD46     		mov	sp, r7
 1881              	.LCFI104:
 1882              		.cfi_def_cfa_register 13
 1883              		@ sp needed
 1884 0044 5DF8047B 		ldr	r7, [sp], #4
 1885              	.LCFI105:
 1886              		.cfi_restore 7
 1887              		.cfi_def_cfa_offset 0
 1888 0048 7047     		bx	lr
 1889              	.L136:
 1890 004a 00BF     		.align	2
 1891              	.L135:
 1892 004c 00700040 		.word	1073770496
 1893 0050 00ED00E0 		.word	-536810240
 1894              		.cfi_endproc
 1895              	.LFE308:
 1897              		.section	.text.HAL_PWREx_EnterSTOP1Mode,"ax",%progbits
 1898              		.align	1
 1899              		.global	HAL_PWREx_EnterSTOP1Mode
 1900              		.syntax unified
 1901              		.thumb
 1902              		.thumb_func
 1903              		.fpu fpv4-sp-d16
 1905              	HAL_PWREx_EnterSTOP1Mode:
 1906              	.LFB309:
1140:d:/LiteOS_Lab/drivers/third_party/ST/STM32L4xx_HAL_Driver/Src\stm32l4xx_hal_pwr_ex.c **** 
1141:d:/LiteOS_Lab/drivers/third_party/ST/STM32L4xx_HAL_Driver/Src\stm32l4xx_hal_pwr_ex.c **** 
1142:d:/LiteOS_Lab/drivers/third_party/ST/STM32L4xx_HAL_Driver/Src\stm32l4xx_hal_pwr_ex.c **** /**
1143:d:/LiteOS_Lab/drivers/third_party/ST/STM32L4xx_HAL_Driver/Src\stm32l4xx_hal_pwr_ex.c ****   * @brief Enter Stop 1 mode.
1144:d:/LiteOS_Lab/drivers/third_party/ST/STM32L4xx_HAL_Driver/Src\stm32l4xx_hal_pwr_ex.c ****   * @note  In Stop 1 mode, only low power voltage regulator is ON.
1145:d:/LiteOS_Lab/drivers/third_party/ST/STM32L4xx_HAL_Driver/Src\stm32l4xx_hal_pwr_ex.c ****   * @note  In Stop 1 mode, all I/O pins keep the same state as in Run mode.
1146:d:/LiteOS_Lab/drivers/third_party/ST/STM32L4xx_HAL_Driver/Src\stm32l4xx_hal_pwr_ex.c ****   * @note  All clocks in the VCORE domain are stopped; the PLL, the MSI, 
1147:d:/LiteOS_Lab/drivers/third_party/ST/STM32L4xx_HAL_Driver/Src\stm32l4xx_hal_pwr_ex.c ****   *        the HSI and the HSE oscillators are disabled. Some peripherals with the wakeup capabilit
1148:d:/LiteOS_Lab/drivers/third_party/ST/STM32L4xx_HAL_Driver/Src\stm32l4xx_hal_pwr_ex.c ****   *        (I2Cx, USARTx and LPUART) can switch on the HSI to receive a frame, and switch off the H
1149:d:/LiteOS_Lab/drivers/third_party/ST/STM32L4xx_HAL_Driver/Src\stm32l4xx_hal_pwr_ex.c ****   *        after receiving the frame if it is not a wakeup frame. In this case, the HSI clock is pr
1150:d:/LiteOS_Lab/drivers/third_party/ST/STM32L4xx_HAL_Driver/Src\stm32l4xx_hal_pwr_ex.c ****   *        only to the peripheral requesting it.
1151:d:/LiteOS_Lab/drivers/third_party/ST/STM32L4xx_HAL_Driver/Src\stm32l4xx_hal_pwr_ex.c ****   *        SRAM1, SRAM2 and register contents are preserved.
1152:d:/LiteOS_Lab/drivers/third_party/ST/STM32L4xx_HAL_Driver/Src\stm32l4xx_hal_pwr_ex.c ****   *        The BOR is available.
ARM GAS  C:\Users\ADMINI~1\AppData\Local\Temp\cciDrfVK.s 			page 54


1153:d:/LiteOS_Lab/drivers/third_party/ST/STM32L4xx_HAL_Driver/Src\stm32l4xx_hal_pwr_ex.c ****   * @note  When exiting Stop 1 mode by issuing an interrupt or a wakeup event,
1154:d:/LiteOS_Lab/drivers/third_party/ST/STM32L4xx_HAL_Driver/Src\stm32l4xx_hal_pwr_ex.c ****   *         the HSI RC oscillator is selected as system clock if STOPWUCK bit in RCC_CFGR register
1155:d:/LiteOS_Lab/drivers/third_party/ST/STM32L4xx_HAL_Driver/Src\stm32l4xx_hal_pwr_ex.c ****   *         is set; the MSI oscillator is selected if STOPWUCK is cleared.  
1156:d:/LiteOS_Lab/drivers/third_party/ST/STM32L4xx_HAL_Driver/Src\stm32l4xx_hal_pwr_ex.c ****   * @note  Due to low power mode, an additional startup delay is incurred when waking up from Stop 
1157:d:/LiteOS_Lab/drivers/third_party/ST/STM32L4xx_HAL_Driver/Src\stm32l4xx_hal_pwr_ex.c ****   * @param STOPEntry  specifies if Stop mode in entered with WFI or WFE instruction.
1158:d:/LiteOS_Lab/drivers/third_party/ST/STM32L4xx_HAL_Driver/Src\stm32l4xx_hal_pwr_ex.c ****   *          This parameter can be one of the following values:
1159:d:/LiteOS_Lab/drivers/third_party/ST/STM32L4xx_HAL_Driver/Src\stm32l4xx_hal_pwr_ex.c ****   *            @arg @ref PWR_STOPENTRY_WFI  Enter Stop mode with WFI instruction
1160:d:/LiteOS_Lab/drivers/third_party/ST/STM32L4xx_HAL_Driver/Src\stm32l4xx_hal_pwr_ex.c ****   *            @arg @ref PWR_STOPENTRY_WFE  Enter Stop mode with WFE instruction
1161:d:/LiteOS_Lab/drivers/third_party/ST/STM32L4xx_HAL_Driver/Src\stm32l4xx_hal_pwr_ex.c ****   * @retval None
1162:d:/LiteOS_Lab/drivers/third_party/ST/STM32L4xx_HAL_Driver/Src\stm32l4xx_hal_pwr_ex.c ****   */
1163:d:/LiteOS_Lab/drivers/third_party/ST/STM32L4xx_HAL_Driver/Src\stm32l4xx_hal_pwr_ex.c **** void HAL_PWREx_EnterSTOP1Mode(uint8_t STOPEntry)
1164:d:/LiteOS_Lab/drivers/third_party/ST/STM32L4xx_HAL_Driver/Src\stm32l4xx_hal_pwr_ex.c **** {
 1907              		.loc 1 1164 1
 1908              		.cfi_startproc
 1909              		@ args = 0, pretend = 0, frame = 8
 1910              		@ frame_needed = 1, uses_anonymous_args = 0
 1911              		@ link register save eliminated.
 1912 0000 80B4     		push	{r7}
 1913              	.LCFI106:
 1914              		.cfi_def_cfa_offset 4
 1915              		.cfi_offset 7, -4
 1916 0002 83B0     		sub	sp, sp, #12
 1917              	.LCFI107:
 1918              		.cfi_def_cfa_offset 16
 1919 0004 00AF     		add	r7, sp, #0
 1920              	.LCFI108:
 1921              		.cfi_def_cfa_register 7
 1922 0006 0346     		mov	r3, r0
 1923 0008 FB71     		strb	r3, [r7, #7]
1165:d:/LiteOS_Lab/drivers/third_party/ST/STM32L4xx_HAL_Driver/Src\stm32l4xx_hal_pwr_ex.c ****   /* Check the parameters */
1166:d:/LiteOS_Lab/drivers/third_party/ST/STM32L4xx_HAL_Driver/Src\stm32l4xx_hal_pwr_ex.c ****   assert_param(IS_PWR_STOP_ENTRY(STOPEntry));
1167:d:/LiteOS_Lab/drivers/third_party/ST/STM32L4xx_HAL_Driver/Src\stm32l4xx_hal_pwr_ex.c ****     
1168:d:/LiteOS_Lab/drivers/third_party/ST/STM32L4xx_HAL_Driver/Src\stm32l4xx_hal_pwr_ex.c ****   /* Stop 1 mode with Low-Power Regulator */
1169:d:/LiteOS_Lab/drivers/third_party/ST/STM32L4xx_HAL_Driver/Src\stm32l4xx_hal_pwr_ex.c ****   MODIFY_REG(PWR->CR1, PWR_CR1_LPMS, PWR_CR1_LPMS_STOP1);
 1924              		.loc 1 1169 3
 1925 000a 114B     		ldr	r3, .L140
 1926 000c 1B68     		ldr	r3, [r3]
 1927 000e 23F00703 		bic	r3, r3, #7
 1928 0012 0F4A     		ldr	r2, .L140
 1929 0014 43F00103 		orr	r3, r3, #1
 1930 0018 1360     		str	r3, [r2]
1170:d:/LiteOS_Lab/drivers/third_party/ST/STM32L4xx_HAL_Driver/Src\stm32l4xx_hal_pwr_ex.c **** 
1171:d:/LiteOS_Lab/drivers/third_party/ST/STM32L4xx_HAL_Driver/Src\stm32l4xx_hal_pwr_ex.c ****   /* Set SLEEPDEEP bit of Cortex System Control Register */
1172:d:/LiteOS_Lab/drivers/third_party/ST/STM32L4xx_HAL_Driver/Src\stm32l4xx_hal_pwr_ex.c ****   SET_BIT(SCB->SCR, ((uint32_t)SCB_SCR_SLEEPDEEP_Msk));
 1931              		.loc 1 1172 3
 1932 001a 0E4B     		ldr	r3, .L140+4
 1933 001c 1B69     		ldr	r3, [r3, #16]
 1934 001e 0D4A     		ldr	r2, .L140+4
 1935 0020 43F00403 		orr	r3, r3, #4
 1936 0024 1361     		str	r3, [r2, #16]
1173:d:/LiteOS_Lab/drivers/third_party/ST/STM32L4xx_HAL_Driver/Src\stm32l4xx_hal_pwr_ex.c **** 
1174:d:/LiteOS_Lab/drivers/third_party/ST/STM32L4xx_HAL_Driver/Src\stm32l4xx_hal_pwr_ex.c ****   /* Select Stop mode entry --------------------------------------------------*/
1175:d:/LiteOS_Lab/drivers/third_party/ST/STM32L4xx_HAL_Driver/Src\stm32l4xx_hal_pwr_ex.c ****   if(STOPEntry == PWR_STOPENTRY_WFI)
 1937              		.loc 1 1175 5
 1938 0026 FB79     		ldrb	r3, [r7, #7]	@ zero_extendqisi2
 1939 0028 012B     		cmp	r3, #1
 1940 002a 01D1     		bne	.L138
ARM GAS  C:\Users\ADMINI~1\AppData\Local\Temp\cciDrfVK.s 			page 55


1176:d:/LiteOS_Lab/drivers/third_party/ST/STM32L4xx_HAL_Driver/Src\stm32l4xx_hal_pwr_ex.c ****   {
1177:d:/LiteOS_Lab/drivers/third_party/ST/STM32L4xx_HAL_Driver/Src\stm32l4xx_hal_pwr_ex.c ****     /* Request Wait For Interrupt */
1178:d:/LiteOS_Lab/drivers/third_party/ST/STM32L4xx_HAL_Driver/Src\stm32l4xx_hal_pwr_ex.c ****     __WFI();
 1941              		.loc 1 1178 5
 1942              		.syntax unified
 1943              	@ 1178 "d:/LiteOS_Lab/drivers/third_party/ST/STM32L4xx_HAL_Driver/Src/stm32l4xx_hal_pwr_ex.c" 1
 1944 002c 30BF     		wfi
 1945              	@ 0 "" 2
 1946              		.thumb
 1947              		.syntax unified
 1948 002e 02E0     		b	.L139
 1949              	.L138:
1179:d:/LiteOS_Lab/drivers/third_party/ST/STM32L4xx_HAL_Driver/Src\stm32l4xx_hal_pwr_ex.c ****   }
1180:d:/LiteOS_Lab/drivers/third_party/ST/STM32L4xx_HAL_Driver/Src\stm32l4xx_hal_pwr_ex.c ****   else
1181:d:/LiteOS_Lab/drivers/third_party/ST/STM32L4xx_HAL_Driver/Src\stm32l4xx_hal_pwr_ex.c ****   {
1182:d:/LiteOS_Lab/drivers/third_party/ST/STM32L4xx_HAL_Driver/Src\stm32l4xx_hal_pwr_ex.c ****     /* Request Wait For Event */
1183:d:/LiteOS_Lab/drivers/third_party/ST/STM32L4xx_HAL_Driver/Src\stm32l4xx_hal_pwr_ex.c ****     __SEV();
 1950              		.loc 1 1183 5
 1951              		.syntax unified
 1952              	@ 1183 "d:/LiteOS_Lab/drivers/third_party/ST/STM32L4xx_HAL_Driver/Src/stm32l4xx_hal_pwr_ex.c" 1
 1953 0030 40BF     		sev
 1954              	@ 0 "" 2
1184:d:/LiteOS_Lab/drivers/third_party/ST/STM32L4xx_HAL_Driver/Src\stm32l4xx_hal_pwr_ex.c ****     __WFE();
 1955              		.loc 1 1184 5
 1956              	@ 1184 "d:/LiteOS_Lab/drivers/third_party/ST/STM32L4xx_HAL_Driver/Src/stm32l4xx_hal_pwr_ex.c" 1
 1957 0032 20BF     		wfe
 1958              	@ 0 "" 2
1185:d:/LiteOS_Lab/drivers/third_party/ST/STM32L4xx_HAL_Driver/Src\stm32l4xx_hal_pwr_ex.c ****     __WFE();
 1959              		.loc 1 1185 5
 1960              	@ 1185 "d:/LiteOS_Lab/drivers/third_party/ST/STM32L4xx_HAL_Driver/Src/stm32l4xx_hal_pwr_ex.c" 1
 1961 0034 20BF     		wfe
 1962              	@ 0 "" 2
 1963              		.thumb
 1964              		.syntax unified
 1965              	.L139:
1186:d:/LiteOS_Lab/drivers/third_party/ST/STM32L4xx_HAL_Driver/Src\stm32l4xx_hal_pwr_ex.c ****   }
1187:d:/LiteOS_Lab/drivers/third_party/ST/STM32L4xx_HAL_Driver/Src\stm32l4xx_hal_pwr_ex.c **** 
1188:d:/LiteOS_Lab/drivers/third_party/ST/STM32L4xx_HAL_Driver/Src\stm32l4xx_hal_pwr_ex.c ****   /* Reset SLEEPDEEP bit of Cortex System Control Register */
1189:d:/LiteOS_Lab/drivers/third_party/ST/STM32L4xx_HAL_Driver/Src\stm32l4xx_hal_pwr_ex.c ****   CLEAR_BIT(SCB->SCR, ((uint32_t)SCB_SCR_SLEEPDEEP_Msk));
 1966              		.loc 1 1189 3
 1967 0036 074B     		ldr	r3, .L140+4
 1968 0038 1B69     		ldr	r3, [r3, #16]
 1969 003a 064A     		ldr	r2, .L140+4
 1970 003c 23F00403 		bic	r3, r3, #4
 1971 0040 1361     		str	r3, [r2, #16]
1190:d:/LiteOS_Lab/drivers/third_party/ST/STM32L4xx_HAL_Driver/Src\stm32l4xx_hal_pwr_ex.c **** }
 1972              		.loc 1 1190 1
 1973 0042 00BF     		nop
 1974 0044 0C37     		adds	r7, r7, #12
 1975              	.LCFI109:
 1976              		.cfi_def_cfa_offset 4
 1977 0046 BD46     		mov	sp, r7
 1978              	.LCFI110:
 1979              		.cfi_def_cfa_register 13
 1980              		@ sp needed
 1981 0048 5DF8047B 		ldr	r7, [sp], #4
 1982              	.LCFI111:
ARM GAS  C:\Users\ADMINI~1\AppData\Local\Temp\cciDrfVK.s 			page 56


 1983              		.cfi_restore 7
 1984              		.cfi_def_cfa_offset 0
 1985 004c 7047     		bx	lr
 1986              	.L141:
 1987 004e 00BF     		.align	2
 1988              	.L140:
 1989 0050 00700040 		.word	1073770496
 1990 0054 00ED00E0 		.word	-536810240
 1991              		.cfi_endproc
 1992              	.LFE309:
 1994              		.section	.text.HAL_PWREx_EnterSTOP2Mode,"ax",%progbits
 1995              		.align	1
 1996              		.global	HAL_PWREx_EnterSTOP2Mode
 1997              		.syntax unified
 1998              		.thumb
 1999              		.thumb_func
 2000              		.fpu fpv4-sp-d16
 2002              	HAL_PWREx_EnterSTOP2Mode:
 2003              	.LFB310:
1191:d:/LiteOS_Lab/drivers/third_party/ST/STM32L4xx_HAL_Driver/Src\stm32l4xx_hal_pwr_ex.c **** 
1192:d:/LiteOS_Lab/drivers/third_party/ST/STM32L4xx_HAL_Driver/Src\stm32l4xx_hal_pwr_ex.c **** 
1193:d:/LiteOS_Lab/drivers/third_party/ST/STM32L4xx_HAL_Driver/Src\stm32l4xx_hal_pwr_ex.c **** /**
1194:d:/LiteOS_Lab/drivers/third_party/ST/STM32L4xx_HAL_Driver/Src\stm32l4xx_hal_pwr_ex.c ****   * @brief Enter Stop 2 mode.
1195:d:/LiteOS_Lab/drivers/third_party/ST/STM32L4xx_HAL_Driver/Src\stm32l4xx_hal_pwr_ex.c ****   * @note  In Stop 2 mode, only low power voltage regulator is ON.
1196:d:/LiteOS_Lab/drivers/third_party/ST/STM32L4xx_HAL_Driver/Src\stm32l4xx_hal_pwr_ex.c ****   * @note  In Stop 2 mode, all I/O pins keep the same state as in Run mode.
1197:d:/LiteOS_Lab/drivers/third_party/ST/STM32L4xx_HAL_Driver/Src\stm32l4xx_hal_pwr_ex.c ****   * @note  All clocks in the VCORE domain are stopped, the PLL, the MSI, 
1198:d:/LiteOS_Lab/drivers/third_party/ST/STM32L4xx_HAL_Driver/Src\stm32l4xx_hal_pwr_ex.c ****   *        the HSI and the HSE oscillators are disabled. Some peripherals with wakeup capability 
1199:d:/LiteOS_Lab/drivers/third_party/ST/STM32L4xx_HAL_Driver/Src\stm32l4xx_hal_pwr_ex.c ****   *        (LCD, LPTIM1, I2C3 and LPUART) can switch on the HSI to receive a frame, and switch off 
1200:d:/LiteOS_Lab/drivers/third_party/ST/STM32L4xx_HAL_Driver/Src\stm32l4xx_hal_pwr_ex.c ****   *        receiving the frame if it is not a wakeup frame. In this case the HSI clock is propagate
1201:d:/LiteOS_Lab/drivers/third_party/ST/STM32L4xx_HAL_Driver/Src\stm32l4xx_hal_pwr_ex.c ****   *        to the peripheral requesting it.
1202:d:/LiteOS_Lab/drivers/third_party/ST/STM32L4xx_HAL_Driver/Src\stm32l4xx_hal_pwr_ex.c ****   *        SRAM1, SRAM2 and register contents are preserved.
1203:d:/LiteOS_Lab/drivers/third_party/ST/STM32L4xx_HAL_Driver/Src\stm32l4xx_hal_pwr_ex.c ****   *        The BOR is available.   
1204:d:/LiteOS_Lab/drivers/third_party/ST/STM32L4xx_HAL_Driver/Src\stm32l4xx_hal_pwr_ex.c ****   *        The voltage regulator is set in low-power mode but LPR bit must be cleared to enter stop
1205:d:/LiteOS_Lab/drivers/third_party/ST/STM32L4xx_HAL_Driver/Src\stm32l4xx_hal_pwr_ex.c ****   *        Otherwise, Stop 1 mode is entered.  
1206:d:/LiteOS_Lab/drivers/third_party/ST/STM32L4xx_HAL_Driver/Src\stm32l4xx_hal_pwr_ex.c ****   * @note  When exiting Stop 2 mode by issuing an interrupt or a wakeup event,
1207:d:/LiteOS_Lab/drivers/third_party/ST/STM32L4xx_HAL_Driver/Src\stm32l4xx_hal_pwr_ex.c ****   *         the HSI RC oscillator is selected as system clock if STOPWUCK bit in RCC_CFGR register
1208:d:/LiteOS_Lab/drivers/third_party/ST/STM32L4xx_HAL_Driver/Src\stm32l4xx_hal_pwr_ex.c ****   *         is set; the MSI oscillator is selected if STOPWUCK is cleared.     
1209:d:/LiteOS_Lab/drivers/third_party/ST/STM32L4xx_HAL_Driver/Src\stm32l4xx_hal_pwr_ex.c ****   * @param STOPEntry  specifies if Stop mode in entered with WFI or WFE instruction.
1210:d:/LiteOS_Lab/drivers/third_party/ST/STM32L4xx_HAL_Driver/Src\stm32l4xx_hal_pwr_ex.c ****   *          This parameter can be one of the following values:
1211:d:/LiteOS_Lab/drivers/third_party/ST/STM32L4xx_HAL_Driver/Src\stm32l4xx_hal_pwr_ex.c ****   *            @arg @ref PWR_STOPENTRY_WFI  Enter Stop mode with WFI instruction
1212:d:/LiteOS_Lab/drivers/third_party/ST/STM32L4xx_HAL_Driver/Src\stm32l4xx_hal_pwr_ex.c ****   *            @arg @ref PWR_STOPENTRY_WFE  Enter Stop mode with WFE instruction
1213:d:/LiteOS_Lab/drivers/third_party/ST/STM32L4xx_HAL_Driver/Src\stm32l4xx_hal_pwr_ex.c ****   * @retval None
1214:d:/LiteOS_Lab/drivers/third_party/ST/STM32L4xx_HAL_Driver/Src\stm32l4xx_hal_pwr_ex.c ****   */
1215:d:/LiteOS_Lab/drivers/third_party/ST/STM32L4xx_HAL_Driver/Src\stm32l4xx_hal_pwr_ex.c **** void HAL_PWREx_EnterSTOP2Mode(uint8_t STOPEntry)
1216:d:/LiteOS_Lab/drivers/third_party/ST/STM32L4xx_HAL_Driver/Src\stm32l4xx_hal_pwr_ex.c **** {
 2004              		.loc 1 1216 1
 2005              		.cfi_startproc
 2006              		@ args = 0, pretend = 0, frame = 8
 2007              		@ frame_needed = 1, uses_anonymous_args = 0
 2008              		@ link register save eliminated.
 2009 0000 80B4     		push	{r7}
 2010              	.LCFI112:
 2011              		.cfi_def_cfa_offset 4
 2012              		.cfi_offset 7, -4
 2013 0002 83B0     		sub	sp, sp, #12
 2014              	.LCFI113:
 2015              		.cfi_def_cfa_offset 16
ARM GAS  C:\Users\ADMINI~1\AppData\Local\Temp\cciDrfVK.s 			page 57


 2016 0004 00AF     		add	r7, sp, #0
 2017              	.LCFI114:
 2018              		.cfi_def_cfa_register 7
 2019 0006 0346     		mov	r3, r0
 2020 0008 FB71     		strb	r3, [r7, #7]
1217:d:/LiteOS_Lab/drivers/third_party/ST/STM32L4xx_HAL_Driver/Src\stm32l4xx_hal_pwr_ex.c ****   /* Check the parameter */
1218:d:/LiteOS_Lab/drivers/third_party/ST/STM32L4xx_HAL_Driver/Src\stm32l4xx_hal_pwr_ex.c ****   assert_param(IS_PWR_STOP_ENTRY(STOPEntry));
1219:d:/LiteOS_Lab/drivers/third_party/ST/STM32L4xx_HAL_Driver/Src\stm32l4xx_hal_pwr_ex.c **** 
1220:d:/LiteOS_Lab/drivers/third_party/ST/STM32L4xx_HAL_Driver/Src\stm32l4xx_hal_pwr_ex.c ****   /* Set Stop mode 2 */
1221:d:/LiteOS_Lab/drivers/third_party/ST/STM32L4xx_HAL_Driver/Src\stm32l4xx_hal_pwr_ex.c ****   MODIFY_REG(PWR->CR1, PWR_CR1_LPMS, PWR_CR1_LPMS_STOP2);
 2021              		.loc 1 1221 3
 2022 000a 114B     		ldr	r3, .L145
 2023 000c 1B68     		ldr	r3, [r3]
 2024 000e 23F00703 		bic	r3, r3, #7
 2025 0012 0F4A     		ldr	r2, .L145
 2026 0014 43F00203 		orr	r3, r3, #2
 2027 0018 1360     		str	r3, [r2]
1222:d:/LiteOS_Lab/drivers/third_party/ST/STM32L4xx_HAL_Driver/Src\stm32l4xx_hal_pwr_ex.c **** 
1223:d:/LiteOS_Lab/drivers/third_party/ST/STM32L4xx_HAL_Driver/Src\stm32l4xx_hal_pwr_ex.c ****   /* Set SLEEPDEEP bit of Cortex System Control Register */
1224:d:/LiteOS_Lab/drivers/third_party/ST/STM32L4xx_HAL_Driver/Src\stm32l4xx_hal_pwr_ex.c ****   SET_BIT(SCB->SCR, ((uint32_t)SCB_SCR_SLEEPDEEP_Msk));
 2028              		.loc 1 1224 3
 2029 001a 0E4B     		ldr	r3, .L145+4
 2030 001c 1B69     		ldr	r3, [r3, #16]
 2031 001e 0D4A     		ldr	r2, .L145+4
 2032 0020 43F00403 		orr	r3, r3, #4
 2033 0024 1361     		str	r3, [r2, #16]
1225:d:/LiteOS_Lab/drivers/third_party/ST/STM32L4xx_HAL_Driver/Src\stm32l4xx_hal_pwr_ex.c **** 
1226:d:/LiteOS_Lab/drivers/third_party/ST/STM32L4xx_HAL_Driver/Src\stm32l4xx_hal_pwr_ex.c ****   /* Select Stop mode entry --------------------------------------------------*/
1227:d:/LiteOS_Lab/drivers/third_party/ST/STM32L4xx_HAL_Driver/Src\stm32l4xx_hal_pwr_ex.c ****   if(STOPEntry == PWR_STOPENTRY_WFI)
 2034              		.loc 1 1227 5
 2035 0026 FB79     		ldrb	r3, [r7, #7]	@ zero_extendqisi2
 2036 0028 012B     		cmp	r3, #1
 2037 002a 01D1     		bne	.L143
1228:d:/LiteOS_Lab/drivers/third_party/ST/STM32L4xx_HAL_Driver/Src\stm32l4xx_hal_pwr_ex.c ****   {
1229:d:/LiteOS_Lab/drivers/third_party/ST/STM32L4xx_HAL_Driver/Src\stm32l4xx_hal_pwr_ex.c ****     /* Request Wait For Interrupt */
1230:d:/LiteOS_Lab/drivers/third_party/ST/STM32L4xx_HAL_Driver/Src\stm32l4xx_hal_pwr_ex.c ****     __WFI();
 2038              		.loc 1 1230 5
 2039              		.syntax unified
 2040              	@ 1230 "d:/LiteOS_Lab/drivers/third_party/ST/STM32L4xx_HAL_Driver/Src/stm32l4xx_hal_pwr_ex.c" 1
 2041 002c 30BF     		wfi
 2042              	@ 0 "" 2
 2043              		.thumb
 2044              		.syntax unified
 2045 002e 02E0     		b	.L144
 2046              	.L143:
1231:d:/LiteOS_Lab/drivers/third_party/ST/STM32L4xx_HAL_Driver/Src\stm32l4xx_hal_pwr_ex.c ****   }
1232:d:/LiteOS_Lab/drivers/third_party/ST/STM32L4xx_HAL_Driver/Src\stm32l4xx_hal_pwr_ex.c ****   else
1233:d:/LiteOS_Lab/drivers/third_party/ST/STM32L4xx_HAL_Driver/Src\stm32l4xx_hal_pwr_ex.c ****   {
1234:d:/LiteOS_Lab/drivers/third_party/ST/STM32L4xx_HAL_Driver/Src\stm32l4xx_hal_pwr_ex.c ****     /* Request Wait For Event */
1235:d:/LiteOS_Lab/drivers/third_party/ST/STM32L4xx_HAL_Driver/Src\stm32l4xx_hal_pwr_ex.c ****     __SEV();
 2047              		.loc 1 1235 5
 2048              		.syntax unified
 2049              	@ 1235 "d:/LiteOS_Lab/drivers/third_party/ST/STM32L4xx_HAL_Driver/Src/stm32l4xx_hal_pwr_ex.c" 1
 2050 0030 40BF     		sev
 2051              	@ 0 "" 2
1236:d:/LiteOS_Lab/drivers/third_party/ST/STM32L4xx_HAL_Driver/Src\stm32l4xx_hal_pwr_ex.c ****     __WFE();
 2052              		.loc 1 1236 5
ARM GAS  C:\Users\ADMINI~1\AppData\Local\Temp\cciDrfVK.s 			page 58


 2053              	@ 1236 "d:/LiteOS_Lab/drivers/third_party/ST/STM32L4xx_HAL_Driver/Src/stm32l4xx_hal_pwr_ex.c" 1
 2054 0032 20BF     		wfe
 2055              	@ 0 "" 2
1237:d:/LiteOS_Lab/drivers/third_party/ST/STM32L4xx_HAL_Driver/Src\stm32l4xx_hal_pwr_ex.c ****     __WFE();
 2056              		.loc 1 1237 5
 2057              	@ 1237 "d:/LiteOS_Lab/drivers/third_party/ST/STM32L4xx_HAL_Driver/Src/stm32l4xx_hal_pwr_ex.c" 1
 2058 0034 20BF     		wfe
 2059              	@ 0 "" 2
 2060              		.thumb
 2061              		.syntax unified
 2062              	.L144:
1238:d:/LiteOS_Lab/drivers/third_party/ST/STM32L4xx_HAL_Driver/Src\stm32l4xx_hal_pwr_ex.c ****   }
1239:d:/LiteOS_Lab/drivers/third_party/ST/STM32L4xx_HAL_Driver/Src\stm32l4xx_hal_pwr_ex.c **** 
1240:d:/LiteOS_Lab/drivers/third_party/ST/STM32L4xx_HAL_Driver/Src\stm32l4xx_hal_pwr_ex.c ****   /* Reset SLEEPDEEP bit of Cortex System Control Register */
1241:d:/LiteOS_Lab/drivers/third_party/ST/STM32L4xx_HAL_Driver/Src\stm32l4xx_hal_pwr_ex.c ****   CLEAR_BIT(SCB->SCR, ((uint32_t)SCB_SCR_SLEEPDEEP_Msk));
 2063              		.loc 1 1241 3
 2064 0036 074B     		ldr	r3, .L145+4
 2065 0038 1B69     		ldr	r3, [r3, #16]
 2066 003a 064A     		ldr	r2, .L145+4
 2067 003c 23F00403 		bic	r3, r3, #4
 2068 0040 1361     		str	r3, [r2, #16]
1242:d:/LiteOS_Lab/drivers/third_party/ST/STM32L4xx_HAL_Driver/Src\stm32l4xx_hal_pwr_ex.c **** }
 2069              		.loc 1 1242 1
 2070 0042 00BF     		nop
 2071 0044 0C37     		adds	r7, r7, #12
 2072              	.LCFI115:
 2073              		.cfi_def_cfa_offset 4
 2074 0046 BD46     		mov	sp, r7
 2075              	.LCFI116:
 2076              		.cfi_def_cfa_register 13
 2077              		@ sp needed
 2078 0048 5DF8047B 		ldr	r7, [sp], #4
 2079              	.LCFI117:
 2080              		.cfi_restore 7
 2081              		.cfi_def_cfa_offset 0
 2082 004c 7047     		bx	lr
 2083              	.L146:
 2084 004e 00BF     		.align	2
 2085              	.L145:
 2086 0050 00700040 		.word	1073770496
 2087 0054 00ED00E0 		.word	-536810240
 2088              		.cfi_endproc
 2089              	.LFE310:
 2091              		.section	.text.HAL_PWREx_EnterSHUTDOWNMode,"ax",%progbits
 2092              		.align	1
 2093              		.global	HAL_PWREx_EnterSHUTDOWNMode
 2094              		.syntax unified
 2095              		.thumb
 2096              		.thumb_func
 2097              		.fpu fpv4-sp-d16
 2099              	HAL_PWREx_EnterSHUTDOWNMode:
 2100              	.LFB311:
1243:d:/LiteOS_Lab/drivers/third_party/ST/STM32L4xx_HAL_Driver/Src\stm32l4xx_hal_pwr_ex.c **** 
1244:d:/LiteOS_Lab/drivers/third_party/ST/STM32L4xx_HAL_Driver/Src\stm32l4xx_hal_pwr_ex.c **** 
1245:d:/LiteOS_Lab/drivers/third_party/ST/STM32L4xx_HAL_Driver/Src\stm32l4xx_hal_pwr_ex.c **** 
1246:d:/LiteOS_Lab/drivers/third_party/ST/STM32L4xx_HAL_Driver/Src\stm32l4xx_hal_pwr_ex.c **** 
1247:d:/LiteOS_Lab/drivers/third_party/ST/STM32L4xx_HAL_Driver/Src\stm32l4xx_hal_pwr_ex.c **** 
ARM GAS  C:\Users\ADMINI~1\AppData\Local\Temp\cciDrfVK.s 			page 59


1248:d:/LiteOS_Lab/drivers/third_party/ST/STM32L4xx_HAL_Driver/Src\stm32l4xx_hal_pwr_ex.c **** /**
1249:d:/LiteOS_Lab/drivers/third_party/ST/STM32L4xx_HAL_Driver/Src\stm32l4xx_hal_pwr_ex.c ****   * @brief Enter Shutdown mode. 
1250:d:/LiteOS_Lab/drivers/third_party/ST/STM32L4xx_HAL_Driver/Src\stm32l4xx_hal_pwr_ex.c ****   * @note  In Shutdown mode, the PLL, the HSI, the MSI, the LSI and the HSE oscillators are switche
1251:d:/LiteOS_Lab/drivers/third_party/ST/STM32L4xx_HAL_Driver/Src\stm32l4xx_hal_pwr_ex.c ****   *        off. The voltage regulator is disabled and Vcore domain is powered off. 
1252:d:/LiteOS_Lab/drivers/third_party/ST/STM32L4xx_HAL_Driver/Src\stm32l4xx_hal_pwr_ex.c ****   *        SRAM1, SRAM2 and registers contents are lost except for registers in the Backup domain.
1253:d:/LiteOS_Lab/drivers/third_party/ST/STM32L4xx_HAL_Driver/Src\stm32l4xx_hal_pwr_ex.c ****   *        The BOR is not available.  
1254:d:/LiteOS_Lab/drivers/third_party/ST/STM32L4xx_HAL_Driver/Src\stm32l4xx_hal_pwr_ex.c ****   * @note  The I/Os can be configured either with a pull-up or pull-down or can be kept in analog s
1255:d:/LiteOS_Lab/drivers/third_party/ST/STM32L4xx_HAL_Driver/Src\stm32l4xx_hal_pwr_ex.c ****   * @retval None
1256:d:/LiteOS_Lab/drivers/third_party/ST/STM32L4xx_HAL_Driver/Src\stm32l4xx_hal_pwr_ex.c ****   */
1257:d:/LiteOS_Lab/drivers/third_party/ST/STM32L4xx_HAL_Driver/Src\stm32l4xx_hal_pwr_ex.c **** void HAL_PWREx_EnterSHUTDOWNMode(void)
1258:d:/LiteOS_Lab/drivers/third_party/ST/STM32L4xx_HAL_Driver/Src\stm32l4xx_hal_pwr_ex.c **** {
 2101              		.loc 1 1258 1
 2102              		.cfi_startproc
 2103              		@ args = 0, pretend = 0, frame = 0
 2104              		@ frame_needed = 1, uses_anonymous_args = 0
 2105              		@ link register save eliminated.
 2106 0000 80B4     		push	{r7}
 2107              	.LCFI118:
 2108              		.cfi_def_cfa_offset 4
 2109              		.cfi_offset 7, -4
 2110 0002 00AF     		add	r7, sp, #0
 2111              	.LCFI119:
 2112              		.cfi_def_cfa_register 7
1259:d:/LiteOS_Lab/drivers/third_party/ST/STM32L4xx_HAL_Driver/Src\stm32l4xx_hal_pwr_ex.c ****   
1260:d:/LiteOS_Lab/drivers/third_party/ST/STM32L4xx_HAL_Driver/Src\stm32l4xx_hal_pwr_ex.c ****   /* Set Shutdown mode */
1261:d:/LiteOS_Lab/drivers/third_party/ST/STM32L4xx_HAL_Driver/Src\stm32l4xx_hal_pwr_ex.c ****   MODIFY_REG(PWR->CR1, PWR_CR1_LPMS, PWR_CR1_LPMS_SHUTDOWN);
 2113              		.loc 1 1261 3
 2114 0004 094B     		ldr	r3, .L148
 2115 0006 1B68     		ldr	r3, [r3]
 2116 0008 23F00703 		bic	r3, r3, #7
 2117 000c 074A     		ldr	r2, .L148
 2118 000e 43F00403 		orr	r3, r3, #4
 2119 0012 1360     		str	r3, [r2]
1262:d:/LiteOS_Lab/drivers/third_party/ST/STM32L4xx_HAL_Driver/Src\stm32l4xx_hal_pwr_ex.c ****   
1263:d:/LiteOS_Lab/drivers/third_party/ST/STM32L4xx_HAL_Driver/Src\stm32l4xx_hal_pwr_ex.c ****   /* Set SLEEPDEEP bit of Cortex System Control Register */
1264:d:/LiteOS_Lab/drivers/third_party/ST/STM32L4xx_HAL_Driver/Src\stm32l4xx_hal_pwr_ex.c ****   SET_BIT(SCB->SCR, ((uint32_t)SCB_SCR_SLEEPDEEP_Msk));
 2120              		.loc 1 1264 3
 2121 0014 064B     		ldr	r3, .L148+4
 2122 0016 1B69     		ldr	r3, [r3, #16]
 2123 0018 054A     		ldr	r2, .L148+4
 2124 001a 43F00403 		orr	r3, r3, #4
 2125 001e 1361     		str	r3, [r2, #16]
1265:d:/LiteOS_Lab/drivers/third_party/ST/STM32L4xx_HAL_Driver/Src\stm32l4xx_hal_pwr_ex.c **** 
1266:d:/LiteOS_Lab/drivers/third_party/ST/STM32L4xx_HAL_Driver/Src\stm32l4xx_hal_pwr_ex.c **** /* This option is used to ensure that store operations are completed */
1267:d:/LiteOS_Lab/drivers/third_party/ST/STM32L4xx_HAL_Driver/Src\stm32l4xx_hal_pwr_ex.c **** #if defined ( __CC_ARM)
1268:d:/LiteOS_Lab/drivers/third_party/ST/STM32L4xx_HAL_Driver/Src\stm32l4xx_hal_pwr_ex.c ****   __force_stores();
1269:d:/LiteOS_Lab/drivers/third_party/ST/STM32L4xx_HAL_Driver/Src\stm32l4xx_hal_pwr_ex.c **** #endif
1270:d:/LiteOS_Lab/drivers/third_party/ST/STM32L4xx_HAL_Driver/Src\stm32l4xx_hal_pwr_ex.c ****   /* Request Wait For Interrupt */
1271:d:/LiteOS_Lab/drivers/third_party/ST/STM32L4xx_HAL_Driver/Src\stm32l4xx_hal_pwr_ex.c ****   __WFI();
 2126              		.loc 1 1271 3
 2127              		.syntax unified
 2128              	@ 1271 "d:/LiteOS_Lab/drivers/third_party/ST/STM32L4xx_HAL_Driver/Src/stm32l4xx_hal_pwr_ex.c" 1
 2129 0020 30BF     		wfi
 2130              	@ 0 "" 2
1272:d:/LiteOS_Lab/drivers/third_party/ST/STM32L4xx_HAL_Driver/Src\stm32l4xx_hal_pwr_ex.c **** }
 2131              		.loc 1 1272 1
 2132              		.thumb
ARM GAS  C:\Users\ADMINI~1\AppData\Local\Temp\cciDrfVK.s 			page 60


 2133              		.syntax unified
 2134 0022 00BF     		nop
 2135 0024 BD46     		mov	sp, r7
 2136              	.LCFI120:
 2137              		.cfi_def_cfa_register 13
 2138              		@ sp needed
 2139 0026 5DF8047B 		ldr	r7, [sp], #4
 2140              	.LCFI121:
 2141              		.cfi_restore 7
 2142              		.cfi_def_cfa_offset 0
 2143 002a 7047     		bx	lr
 2144              	.L149:
 2145              		.align	2
 2146              	.L148:
 2147 002c 00700040 		.word	1073770496
 2148 0030 00ED00E0 		.word	-536810240
 2149              		.cfi_endproc
 2150              	.LFE311:
 2152              		.section	.text.HAL_PWREx_PVD_PVM_IRQHandler,"ax",%progbits
 2153              		.align	1
 2154              		.global	HAL_PWREx_PVD_PVM_IRQHandler
 2155              		.syntax unified
 2156              		.thumb
 2157              		.thumb_func
 2158              		.fpu fpv4-sp-d16
 2160              	HAL_PWREx_PVD_PVM_IRQHandler:
 2161              	.LFB312:
1273:d:/LiteOS_Lab/drivers/third_party/ST/STM32L4xx_HAL_Driver/Src\stm32l4xx_hal_pwr_ex.c **** 
1274:d:/LiteOS_Lab/drivers/third_party/ST/STM32L4xx_HAL_Driver/Src\stm32l4xx_hal_pwr_ex.c **** 
1275:d:/LiteOS_Lab/drivers/third_party/ST/STM32L4xx_HAL_Driver/Src\stm32l4xx_hal_pwr_ex.c **** 
1276:d:/LiteOS_Lab/drivers/third_party/ST/STM32L4xx_HAL_Driver/Src\stm32l4xx_hal_pwr_ex.c **** 
1277:d:/LiteOS_Lab/drivers/third_party/ST/STM32L4xx_HAL_Driver/Src\stm32l4xx_hal_pwr_ex.c **** /**
1278:d:/LiteOS_Lab/drivers/third_party/ST/STM32L4xx_HAL_Driver/Src\stm32l4xx_hal_pwr_ex.c ****   * @brief This function handles the PWR PVD/PVMx interrupt request.
1279:d:/LiteOS_Lab/drivers/third_party/ST/STM32L4xx_HAL_Driver/Src\stm32l4xx_hal_pwr_ex.c ****   * @note This API should be called under the PVD_PVM_IRQHandler().  
1280:d:/LiteOS_Lab/drivers/third_party/ST/STM32L4xx_HAL_Driver/Src\stm32l4xx_hal_pwr_ex.c ****   * @retval None
1281:d:/LiteOS_Lab/drivers/third_party/ST/STM32L4xx_HAL_Driver/Src\stm32l4xx_hal_pwr_ex.c ****   */
1282:d:/LiteOS_Lab/drivers/third_party/ST/STM32L4xx_HAL_Driver/Src\stm32l4xx_hal_pwr_ex.c **** void HAL_PWREx_PVD_PVM_IRQHandler(void)
1283:d:/LiteOS_Lab/drivers/third_party/ST/STM32L4xx_HAL_Driver/Src\stm32l4xx_hal_pwr_ex.c **** {
 2162              		.loc 1 1283 1
 2163              		.cfi_startproc
 2164              		@ args = 0, pretend = 0, frame = 0
 2165              		@ frame_needed = 1, uses_anonymous_args = 0
 2166 0000 80B5     		push	{r7, lr}
 2167              	.LCFI122:
 2168              		.cfi_def_cfa_offset 8
 2169              		.cfi_offset 7, -8
 2170              		.cfi_offset 14, -4
 2171 0002 00AF     		add	r7, sp, #0
 2172              	.LCFI123:
 2173              		.cfi_def_cfa_register 7
1284:d:/LiteOS_Lab/drivers/third_party/ST/STM32L4xx_HAL_Driver/Src\stm32l4xx_hal_pwr_ex.c ****   /* Check PWR exti flag */
1285:d:/LiteOS_Lab/drivers/third_party/ST/STM32L4xx_HAL_Driver/Src\stm32l4xx_hal_pwr_ex.c ****   if(__HAL_PWR_PVD_EXTI_GET_FLAG() != RESET)
 2174              		.loc 1 1285 6
 2175 0004 114B     		ldr	r3, .L155
 2176 0006 5B69     		ldr	r3, [r3, #20]
 2177 0008 03F48033 		and	r3, r3, #65536
 2178              		.loc 1 1285 5
ARM GAS  C:\Users\ADMINI~1\AppData\Local\Temp\cciDrfVK.s 			page 61


 2179 000c 002B     		cmp	r3, #0
 2180 000e 05D0     		beq	.L151
1286:d:/LiteOS_Lab/drivers/third_party/ST/STM32L4xx_HAL_Driver/Src\stm32l4xx_hal_pwr_ex.c ****   {
1287:d:/LiteOS_Lab/drivers/third_party/ST/STM32L4xx_HAL_Driver/Src\stm32l4xx_hal_pwr_ex.c ****     /* PWR PVD interrupt user callback */
1288:d:/LiteOS_Lab/drivers/third_party/ST/STM32L4xx_HAL_Driver/Src\stm32l4xx_hal_pwr_ex.c ****     HAL_PWR_PVDCallback();
 2181              		.loc 1 1288 5
 2182 0010 FFF7FEFF 		bl	HAL_PWR_PVDCallback
1289:d:/LiteOS_Lab/drivers/third_party/ST/STM32L4xx_HAL_Driver/Src\stm32l4xx_hal_pwr_ex.c **** 
1290:d:/LiteOS_Lab/drivers/third_party/ST/STM32L4xx_HAL_Driver/Src\stm32l4xx_hal_pwr_ex.c ****     /* Clear PVD exti pending bit */
1291:d:/LiteOS_Lab/drivers/third_party/ST/STM32L4xx_HAL_Driver/Src\stm32l4xx_hal_pwr_ex.c ****     __HAL_PWR_PVD_EXTI_CLEAR_FLAG();
 2183              		.loc 1 1291 5
 2184 0014 0D4B     		ldr	r3, .L155
 2185 0016 4FF48032 		mov	r2, #65536
 2186 001a 5A61     		str	r2, [r3, #20]
 2187              	.L151:
1292:d:/LiteOS_Lab/drivers/third_party/ST/STM32L4xx_HAL_Driver/Src\stm32l4xx_hal_pwr_ex.c ****   }
1293:d:/LiteOS_Lab/drivers/third_party/ST/STM32L4xx_HAL_Driver/Src\stm32l4xx_hal_pwr_ex.c ****   /* Next, successively check PVMx exti flags */
1294:d:/LiteOS_Lab/drivers/third_party/ST/STM32L4xx_HAL_Driver/Src\stm32l4xx_hal_pwr_ex.c **** #if defined(PWR_CR2_PVME1)  
1295:d:/LiteOS_Lab/drivers/third_party/ST/STM32L4xx_HAL_Driver/Src\stm32l4xx_hal_pwr_ex.c ****   if(__HAL_PWR_PVM1_EXTI_GET_FLAG() != RESET) 
1296:d:/LiteOS_Lab/drivers/third_party/ST/STM32L4xx_HAL_Driver/Src\stm32l4xx_hal_pwr_ex.c ****   {
1297:d:/LiteOS_Lab/drivers/third_party/ST/STM32L4xx_HAL_Driver/Src\stm32l4xx_hal_pwr_ex.c ****     /* PWR PVM1 interrupt user callback */
