ARM GAS  C:\Users\ADMINI~1\AppData\Local\Temp\cc0pkmxZ.s 			page 1


   1              		.cpu cortex-m4
   2              		.eabi_attribute 27, 1
   3              		.eabi_attribute 28, 1
   4              		.eabi_attribute 20, 1
   5              		.eabi_attribute 21, 1
   6              		.eabi_attribute 23, 3
   7              		.eabi_attribute 24, 1
   8              		.eabi_attribute 25, 1
   9              		.eabi_attribute 26, 1
  10              		.eabi_attribute 30, 6
  11              		.eabi_attribute 34, 1
  12              		.eabi_attribute 18, 4
  13              		.file	"stm32l4xx_hal_rcc.c"
  14              		.text
  15              	.Ltext0:
  16              		.cfi_sections	.debug_frame
  17              		.section	.text.HAL_RCC_DeInit,"ax",%progbits
  18              		.align	1
  19              		.global	HAL_RCC_DeInit
  20              		.arch armv7e-m
  21              		.syntax unified
  22              		.thumb
  23              		.thumb_func
  24              		.fpu fpv4-sp-d16
  26              	HAL_RCC_DeInit:
  27              	.LFB287:
  28              		.file 1 "d:/LiteOS_Lab/drivers/third_party/ST/STM32L4xx_HAL_Driver/Src/stm32l4xx_hal_rcc.c"
   1:d:/LiteOS_Lab/drivers/third_party/ST/STM32L4xx_HAL_Driver/Src\stm32l4xx_hal_rcc.c **** /**
   2:d:/LiteOS_Lab/drivers/third_party/ST/STM32L4xx_HAL_Driver/Src\stm32l4xx_hal_rcc.c ****   ******************************************************************************
   3:d:/LiteOS_Lab/drivers/third_party/ST/STM32L4xx_HAL_Driver/Src\stm32l4xx_hal_rcc.c ****   * @file    stm32l4xx_hal_rcc.c
   4:d:/LiteOS_Lab/drivers/third_party/ST/STM32L4xx_HAL_Driver/Src\stm32l4xx_hal_rcc.c ****   * @author  MCD Application Team
   5:d:/LiteOS_Lab/drivers/third_party/ST/STM32L4xx_HAL_Driver/Src\stm32l4xx_hal_rcc.c ****   * @brief   RCC HAL module driver.
   6:d:/LiteOS_Lab/drivers/third_party/ST/STM32L4xx_HAL_Driver/Src\stm32l4xx_hal_rcc.c ****   *          This file provides firmware functions to manage the following
   7:d:/LiteOS_Lab/drivers/third_party/ST/STM32L4xx_HAL_Driver/Src\stm32l4xx_hal_rcc.c ****   *          functionalities of the Reset and Clock Control (RCC) peripheral:
   8:d:/LiteOS_Lab/drivers/third_party/ST/STM32L4xx_HAL_Driver/Src\stm32l4xx_hal_rcc.c ****   *           + Initialization and de-initialization functions
   9:d:/LiteOS_Lab/drivers/third_party/ST/STM32L4xx_HAL_Driver/Src\stm32l4xx_hal_rcc.c ****   *           + Peripheral Control functions
  10:d:/LiteOS_Lab/drivers/third_party/ST/STM32L4xx_HAL_Driver/Src\stm32l4xx_hal_rcc.c ****   *
  11:d:/LiteOS_Lab/drivers/third_party/ST/STM32L4xx_HAL_Driver/Src\stm32l4xx_hal_rcc.c ****   @verbatim
  12:d:/LiteOS_Lab/drivers/third_party/ST/STM32L4xx_HAL_Driver/Src\stm32l4xx_hal_rcc.c ****   ==============================================================================
  13:d:/LiteOS_Lab/drivers/third_party/ST/STM32L4xx_HAL_Driver/Src\stm32l4xx_hal_rcc.c ****                       ##### RCC specific features #####
  14:d:/LiteOS_Lab/drivers/third_party/ST/STM32L4xx_HAL_Driver/Src\stm32l4xx_hal_rcc.c ****   ==============================================================================
  15:d:/LiteOS_Lab/drivers/third_party/ST/STM32L4xx_HAL_Driver/Src\stm32l4xx_hal_rcc.c ****     [..]
  16:d:/LiteOS_Lab/drivers/third_party/ST/STM32L4xx_HAL_Driver/Src\stm32l4xx_hal_rcc.c ****       After reset the device is running from Multiple Speed Internal oscillator
  17:d:/LiteOS_Lab/drivers/third_party/ST/STM32L4xx_HAL_Driver/Src\stm32l4xx_hal_rcc.c ****       (4 MHz) with Flash 0 wait state. Flash prefetch buffer, D-Cache
  18:d:/LiteOS_Lab/drivers/third_party/ST/STM32L4xx_HAL_Driver/Src\stm32l4xx_hal_rcc.c ****       and I-Cache are disabled, and all peripherals are off except internal
  19:d:/LiteOS_Lab/drivers/third_party/ST/STM32L4xx_HAL_Driver/Src\stm32l4xx_hal_rcc.c ****       SRAM, Flash and JTAG.
  20:d:/LiteOS_Lab/drivers/third_party/ST/STM32L4xx_HAL_Driver/Src\stm32l4xx_hal_rcc.c **** 
  21:d:/LiteOS_Lab/drivers/third_party/ST/STM32L4xx_HAL_Driver/Src\stm32l4xx_hal_rcc.c ****       (+) There is no prescaler on High speed (AHBs) and Low speed (APBs) busses:
  22:d:/LiteOS_Lab/drivers/third_party/ST/STM32L4xx_HAL_Driver/Src\stm32l4xx_hal_rcc.c ****           all peripherals mapped on these busses are running at MSI speed.
  23:d:/LiteOS_Lab/drivers/third_party/ST/STM32L4xx_HAL_Driver/Src\stm32l4xx_hal_rcc.c ****       (+) The clock for all peripherals is switched off, except the SRAM and FLASH.
  24:d:/LiteOS_Lab/drivers/third_party/ST/STM32L4xx_HAL_Driver/Src\stm32l4xx_hal_rcc.c ****       (+) All GPIOs are in analog mode, except the JTAG pins which
  25:d:/LiteOS_Lab/drivers/third_party/ST/STM32L4xx_HAL_Driver/Src\stm32l4xx_hal_rcc.c ****           are assigned to be used for debug purpose.
  26:d:/LiteOS_Lab/drivers/third_party/ST/STM32L4xx_HAL_Driver/Src\stm32l4xx_hal_rcc.c **** 
  27:d:/LiteOS_Lab/drivers/third_party/ST/STM32L4xx_HAL_Driver/Src\stm32l4xx_hal_rcc.c ****     [..]
  28:d:/LiteOS_Lab/drivers/third_party/ST/STM32L4xx_HAL_Driver/Src\stm32l4xx_hal_rcc.c ****       Once the device started from reset, the user application has to:
  29:d:/LiteOS_Lab/drivers/third_party/ST/STM32L4xx_HAL_Driver/Src\stm32l4xx_hal_rcc.c ****       (+) Configure the clock source to be used to drive the System clock
  30:d:/LiteOS_Lab/drivers/third_party/ST/STM32L4xx_HAL_Driver/Src\stm32l4xx_hal_rcc.c ****           (if the application needs higher frequency/performance)
ARM GAS  C:\Users\ADMINI~1\AppData\Local\Temp\cc0pkmxZ.s 			page 2


  31:d:/LiteOS_Lab/drivers/third_party/ST/STM32L4xx_HAL_Driver/Src\stm32l4xx_hal_rcc.c ****       (+) Configure the System clock frequency and Flash settings
  32:d:/LiteOS_Lab/drivers/third_party/ST/STM32L4xx_HAL_Driver/Src\stm32l4xx_hal_rcc.c ****       (+) Configure the AHB and APB busses prescalers
  33:d:/LiteOS_Lab/drivers/third_party/ST/STM32L4xx_HAL_Driver/Src\stm32l4xx_hal_rcc.c ****       (+) Enable the clock for the peripheral(s) to be used
  34:d:/LiteOS_Lab/drivers/third_party/ST/STM32L4xx_HAL_Driver/Src\stm32l4xx_hal_rcc.c ****       (+) Configure the clock source(s) for peripherals which clocks are not
  35:d:/LiteOS_Lab/drivers/third_party/ST/STM32L4xx_HAL_Driver/Src\stm32l4xx_hal_rcc.c ****           derived from the System clock (SAIx, RTC, ADC, USB OTG FS/SDMMC1/RNG)
  36:d:/LiteOS_Lab/drivers/third_party/ST/STM32L4xx_HAL_Driver/Src\stm32l4xx_hal_rcc.c **** 
  37:d:/LiteOS_Lab/drivers/third_party/ST/STM32L4xx_HAL_Driver/Src\stm32l4xx_hal_rcc.c ****   @endverbatim
  38:d:/LiteOS_Lab/drivers/third_party/ST/STM32L4xx_HAL_Driver/Src\stm32l4xx_hal_rcc.c ****   ******************************************************************************
  39:d:/LiteOS_Lab/drivers/third_party/ST/STM32L4xx_HAL_Driver/Src\stm32l4xx_hal_rcc.c ****   * @attention
  40:d:/LiteOS_Lab/drivers/third_party/ST/STM32L4xx_HAL_Driver/Src\stm32l4xx_hal_rcc.c ****   *
  41:d:/LiteOS_Lab/drivers/third_party/ST/STM32L4xx_HAL_Driver/Src\stm32l4xx_hal_rcc.c ****   * <h2><center>&copy; COPYRIGHT(c) 2017 STMicroelectronics</center></h2>
  42:d:/LiteOS_Lab/drivers/third_party/ST/STM32L4xx_HAL_Driver/Src\stm32l4xx_hal_rcc.c ****   *
  43:d:/LiteOS_Lab/drivers/third_party/ST/STM32L4xx_HAL_Driver/Src\stm32l4xx_hal_rcc.c ****   * Redistribution and use in source and binary forms, with or without modification,
  44:d:/LiteOS_Lab/drivers/third_party/ST/STM32L4xx_HAL_Driver/Src\stm32l4xx_hal_rcc.c ****   * are permitted provided that the following conditions are met:
  45:d:/LiteOS_Lab/drivers/third_party/ST/STM32L4xx_HAL_Driver/Src\stm32l4xx_hal_rcc.c ****   *   1. Redistributions of source code must retain the above copyright notice,
  46:d:/LiteOS_Lab/drivers/third_party/ST/STM32L4xx_HAL_Driver/Src\stm32l4xx_hal_rcc.c ****   *      this list of conditions and the following disclaimer.
  47:d:/LiteOS_Lab/drivers/third_party/ST/STM32L4xx_HAL_Driver/Src\stm32l4xx_hal_rcc.c ****   *   2. Redistributions in binary form must reproduce the above copyright notice,
  48:d:/LiteOS_Lab/drivers/third_party/ST/STM32L4xx_HAL_Driver/Src\stm32l4xx_hal_rcc.c ****   *      this list of conditions and the following disclaimer in the documentation
  49:d:/LiteOS_Lab/drivers/third_party/ST/STM32L4xx_HAL_Driver/Src\stm32l4xx_hal_rcc.c ****   *      and/or other materials provided with the distribution.
  50:d:/LiteOS_Lab/drivers/third_party/ST/STM32L4xx_HAL_Driver/Src\stm32l4xx_hal_rcc.c ****   *   3. Neither the name of STMicroelectronics nor the names of its contributors
  51:d:/LiteOS_Lab/drivers/third_party/ST/STM32L4xx_HAL_Driver/Src\stm32l4xx_hal_rcc.c ****   *      may be used to endorse or promote products derived from this software
  52:d:/LiteOS_Lab/drivers/third_party/ST/STM32L4xx_HAL_Driver/Src\stm32l4xx_hal_rcc.c ****   *      without specific prior written permission.
  53:d:/LiteOS_Lab/drivers/third_party/ST/STM32L4xx_HAL_Driver/Src\stm32l4xx_hal_rcc.c ****   *
  54:d:/LiteOS_Lab/drivers/third_party/ST/STM32L4xx_HAL_Driver/Src\stm32l4xx_hal_rcc.c ****   * THIS SOFTWARE IS PROVIDED BY THE COPYRIGHT HOLDERS AND CONTRIBUTORS "AS IS"
  55:d:/LiteOS_Lab/drivers/third_party/ST/STM32L4xx_HAL_Driver/Src\stm32l4xx_hal_rcc.c ****   * AND ANY EXPRESS OR IMPLIED WARRANTIES, INCLUDING, BUT NOT LIMITED TO, THE
  56:d:/LiteOS_Lab/drivers/third_party/ST/STM32L4xx_HAL_Driver/Src\stm32l4xx_hal_rcc.c ****   * IMPLIED WARRANTIES OF MERCHANTABILITY AND FITNESS FOR A PARTICULAR PURPOSE ARE
  57:d:/LiteOS_Lab/drivers/third_party/ST/STM32L4xx_HAL_Driver/Src\stm32l4xx_hal_rcc.c ****   * DISCLAIMED. IN NO EVENT SHALL THE COPYRIGHT HOLDER OR CONTRIBUTORS BE LIABLE
  58:d:/LiteOS_Lab/drivers/third_party/ST/STM32L4xx_HAL_Driver/Src\stm32l4xx_hal_rcc.c ****   * FOR ANY DIRECT, INDIRECT, INCIDENTAL, SPECIAL, EXEMPLARY, OR CONSEQUENTIAL
  59:d:/LiteOS_Lab/drivers/third_party/ST/STM32L4xx_HAL_Driver/Src\stm32l4xx_hal_rcc.c ****   * DAMAGES (INCLUDING, BUT NOT LIMITED TO, PROCUREMENT OF SUBSTITUTE GOODS OR
  60:d:/LiteOS_Lab/drivers/third_party/ST/STM32L4xx_HAL_Driver/Src\stm32l4xx_hal_rcc.c ****   * SERVICES; LOSS OF USE, DATA, OR PROFITS; OR BUSINESS INTERRUPTION) HOWEVER
  61:d:/LiteOS_Lab/drivers/third_party/ST/STM32L4xx_HAL_Driver/Src\stm32l4xx_hal_rcc.c ****   * CAUSED AND ON ANY THEORY OF LIABILITY, WHETHER IN CONTRACT, STRICT LIABILITY,
  62:d:/LiteOS_Lab/drivers/third_party/ST/STM32L4xx_HAL_Driver/Src\stm32l4xx_hal_rcc.c ****   * OR TORT (INCLUDING NEGLIGENCE OR OTHERWISE) ARISING IN ANY WAY OUT OF THE USE
  63:d:/LiteOS_Lab/drivers/third_party/ST/STM32L4xx_HAL_Driver/Src\stm32l4xx_hal_rcc.c ****   * OF THIS SOFTWARE, EVEN IF ADVISED OF THE POSSIBILITY OF SUCH DAMAGE.
  64:d:/LiteOS_Lab/drivers/third_party/ST/STM32L4xx_HAL_Driver/Src\stm32l4xx_hal_rcc.c ****   *
  65:d:/LiteOS_Lab/drivers/third_party/ST/STM32L4xx_HAL_Driver/Src\stm32l4xx_hal_rcc.c ****   ******************************************************************************
  66:d:/LiteOS_Lab/drivers/third_party/ST/STM32L4xx_HAL_Driver/Src\stm32l4xx_hal_rcc.c ****   */
  67:d:/LiteOS_Lab/drivers/third_party/ST/STM32L4xx_HAL_Driver/Src\stm32l4xx_hal_rcc.c **** 
  68:d:/LiteOS_Lab/drivers/third_party/ST/STM32L4xx_HAL_Driver/Src\stm32l4xx_hal_rcc.c **** /* Includes ------------------------------------------------------------------*/
  69:d:/LiteOS_Lab/drivers/third_party/ST/STM32L4xx_HAL_Driver/Src\stm32l4xx_hal_rcc.c **** #include "stm32l4xx_hal.h"
  70:d:/LiteOS_Lab/drivers/third_party/ST/STM32L4xx_HAL_Driver/Src\stm32l4xx_hal_rcc.c **** 
  71:d:/LiteOS_Lab/drivers/third_party/ST/STM32L4xx_HAL_Driver/Src\stm32l4xx_hal_rcc.c **** /** @addtogroup STM32L4xx_HAL_Driver
  72:d:/LiteOS_Lab/drivers/third_party/ST/STM32L4xx_HAL_Driver/Src\stm32l4xx_hal_rcc.c ****   * @{
  73:d:/LiteOS_Lab/drivers/third_party/ST/STM32L4xx_HAL_Driver/Src\stm32l4xx_hal_rcc.c ****   */
  74:d:/LiteOS_Lab/drivers/third_party/ST/STM32L4xx_HAL_Driver/Src\stm32l4xx_hal_rcc.c **** 
  75:d:/LiteOS_Lab/drivers/third_party/ST/STM32L4xx_HAL_Driver/Src\stm32l4xx_hal_rcc.c **** /** @defgroup RCC RCC
  76:d:/LiteOS_Lab/drivers/third_party/ST/STM32L4xx_HAL_Driver/Src\stm32l4xx_hal_rcc.c ****   * @brief RCC HAL module driver
  77:d:/LiteOS_Lab/drivers/third_party/ST/STM32L4xx_HAL_Driver/Src\stm32l4xx_hal_rcc.c ****   * @{
  78:d:/LiteOS_Lab/drivers/third_party/ST/STM32L4xx_HAL_Driver/Src\stm32l4xx_hal_rcc.c ****   */
  79:d:/LiteOS_Lab/drivers/third_party/ST/STM32L4xx_HAL_Driver/Src\stm32l4xx_hal_rcc.c **** 
  80:d:/LiteOS_Lab/drivers/third_party/ST/STM32L4xx_HAL_Driver/Src\stm32l4xx_hal_rcc.c **** #ifdef HAL_RCC_MODULE_ENABLED
  81:d:/LiteOS_Lab/drivers/third_party/ST/STM32L4xx_HAL_Driver/Src\stm32l4xx_hal_rcc.c **** 
  82:d:/LiteOS_Lab/drivers/third_party/ST/STM32L4xx_HAL_Driver/Src\stm32l4xx_hal_rcc.c **** /* Private typedef -----------------------------------------------------------*/
  83:d:/LiteOS_Lab/drivers/third_party/ST/STM32L4xx_HAL_Driver/Src\stm32l4xx_hal_rcc.c **** /* Private define ------------------------------------------------------------*/
  84:d:/LiteOS_Lab/drivers/third_party/ST/STM32L4xx_HAL_Driver/Src\stm32l4xx_hal_rcc.c **** /** @defgroup RCC_Private_Constants RCC Private Constants
  85:d:/LiteOS_Lab/drivers/third_party/ST/STM32L4xx_HAL_Driver/Src\stm32l4xx_hal_rcc.c ****  * @{
  86:d:/LiteOS_Lab/drivers/third_party/ST/STM32L4xx_HAL_Driver/Src\stm32l4xx_hal_rcc.c ****  */
  87:d:/LiteOS_Lab/drivers/third_party/ST/STM32L4xx_HAL_Driver/Src\stm32l4xx_hal_rcc.c **** #define HSE_TIMEOUT_VALUE          HSE_STARTUP_TIMEOUT
ARM GAS  C:\Users\ADMINI~1\AppData\Local\Temp\cc0pkmxZ.s 			page 3


  88:d:/LiteOS_Lab/drivers/third_party/ST/STM32L4xx_HAL_Driver/Src\stm32l4xx_hal_rcc.c **** #define HSI_TIMEOUT_VALUE          2U    /* 2 ms (minimum Tick + 1) */
  89:d:/LiteOS_Lab/drivers/third_party/ST/STM32L4xx_HAL_Driver/Src\stm32l4xx_hal_rcc.c **** #define MSI_TIMEOUT_VALUE          2U    /* 2 ms (minimum Tick + 1) */
  90:d:/LiteOS_Lab/drivers/third_party/ST/STM32L4xx_HAL_Driver/Src\stm32l4xx_hal_rcc.c **** #define LSI_TIMEOUT_VALUE          2U    /* 2 ms (minimum Tick + 1) */
  91:d:/LiteOS_Lab/drivers/third_party/ST/STM32L4xx_HAL_Driver/Src\stm32l4xx_hal_rcc.c **** #define HSI48_TIMEOUT_VALUE        2U    /* 2 ms (minimum Tick + 1) */
  92:d:/LiteOS_Lab/drivers/third_party/ST/STM32L4xx_HAL_Driver/Src\stm32l4xx_hal_rcc.c **** #define PLL_TIMEOUT_VALUE          2U    /* 2 ms (minimum Tick + 1) */
  93:d:/LiteOS_Lab/drivers/third_party/ST/STM32L4xx_HAL_Driver/Src\stm32l4xx_hal_rcc.c **** #define CLOCKSWITCH_TIMEOUT_VALUE  5000U /* 5 s    */
  94:d:/LiteOS_Lab/drivers/third_party/ST/STM32L4xx_HAL_Driver/Src\stm32l4xx_hal_rcc.c **** /**
  95:d:/LiteOS_Lab/drivers/third_party/ST/STM32L4xx_HAL_Driver/Src\stm32l4xx_hal_rcc.c ****   * @}
  96:d:/LiteOS_Lab/drivers/third_party/ST/STM32L4xx_HAL_Driver/Src\stm32l4xx_hal_rcc.c ****   */
  97:d:/LiteOS_Lab/drivers/third_party/ST/STM32L4xx_HAL_Driver/Src\stm32l4xx_hal_rcc.c **** 
  98:d:/LiteOS_Lab/drivers/third_party/ST/STM32L4xx_HAL_Driver/Src\stm32l4xx_hal_rcc.c **** /* Private macro -------------------------------------------------------------*/
  99:d:/LiteOS_Lab/drivers/third_party/ST/STM32L4xx_HAL_Driver/Src\stm32l4xx_hal_rcc.c **** /** @defgroup RCC_Private_Macros RCC Private Macros
 100:d:/LiteOS_Lab/drivers/third_party/ST/STM32L4xx_HAL_Driver/Src\stm32l4xx_hal_rcc.c ****   * @{
 101:d:/LiteOS_Lab/drivers/third_party/ST/STM32L4xx_HAL_Driver/Src\stm32l4xx_hal_rcc.c ****   */
 102:d:/LiteOS_Lab/drivers/third_party/ST/STM32L4xx_HAL_Driver/Src\stm32l4xx_hal_rcc.c **** #define __MCO1_CLK_ENABLE()   __HAL_RCC_GPIOA_CLK_ENABLE()
 103:d:/LiteOS_Lab/drivers/third_party/ST/STM32L4xx_HAL_Driver/Src\stm32l4xx_hal_rcc.c **** #define MCO1_GPIO_PORT        GPIOA
 104:d:/LiteOS_Lab/drivers/third_party/ST/STM32L4xx_HAL_Driver/Src\stm32l4xx_hal_rcc.c **** #define MCO1_PIN              GPIO_PIN_8
 105:d:/LiteOS_Lab/drivers/third_party/ST/STM32L4xx_HAL_Driver/Src\stm32l4xx_hal_rcc.c **** 
 106:d:/LiteOS_Lab/drivers/third_party/ST/STM32L4xx_HAL_Driver/Src\stm32l4xx_hal_rcc.c **** #define RCC_PLL_OSCSOURCE_CONFIG(__HAL_RCC_PLLSOURCE__) \
 107:d:/LiteOS_Lab/drivers/third_party/ST/STM32L4xx_HAL_Driver/Src\stm32l4xx_hal_rcc.c ****             (MODIFY_REG(RCC->PLLCFGR, RCC_PLLCFGR_PLLSRC, (__HAL_RCC_PLLSOURCE__)))
 108:d:/LiteOS_Lab/drivers/third_party/ST/STM32L4xx_HAL_Driver/Src\stm32l4xx_hal_rcc.c **** /**
 109:d:/LiteOS_Lab/drivers/third_party/ST/STM32L4xx_HAL_Driver/Src\stm32l4xx_hal_rcc.c ****   * @}
 110:d:/LiteOS_Lab/drivers/third_party/ST/STM32L4xx_HAL_Driver/Src\stm32l4xx_hal_rcc.c ****   */
 111:d:/LiteOS_Lab/drivers/third_party/ST/STM32L4xx_HAL_Driver/Src\stm32l4xx_hal_rcc.c **** 
 112:d:/LiteOS_Lab/drivers/third_party/ST/STM32L4xx_HAL_Driver/Src\stm32l4xx_hal_rcc.c **** /* Private variables ---------------------------------------------------------*/
 113:d:/LiteOS_Lab/drivers/third_party/ST/STM32L4xx_HAL_Driver/Src\stm32l4xx_hal_rcc.c **** 
 114:d:/LiteOS_Lab/drivers/third_party/ST/STM32L4xx_HAL_Driver/Src\stm32l4xx_hal_rcc.c **** /* Private function prototypes -----------------------------------------------*/
 115:d:/LiteOS_Lab/drivers/third_party/ST/STM32L4xx_HAL_Driver/Src\stm32l4xx_hal_rcc.c **** /** @defgroup RCC_Private_Functions RCC Private Functions
 116:d:/LiteOS_Lab/drivers/third_party/ST/STM32L4xx_HAL_Driver/Src\stm32l4xx_hal_rcc.c ****   * @{
 117:d:/LiteOS_Lab/drivers/third_party/ST/STM32L4xx_HAL_Driver/Src\stm32l4xx_hal_rcc.c ****   */
 118:d:/LiteOS_Lab/drivers/third_party/ST/STM32L4xx_HAL_Driver/Src\stm32l4xx_hal_rcc.c **** static HAL_StatusTypeDef RCC_SetFlashLatencyFromMSIRange(uint32_t msirange);
 119:d:/LiteOS_Lab/drivers/third_party/ST/STM32L4xx_HAL_Driver/Src\stm32l4xx_hal_rcc.c **** #if defined(STM32L4R5xx) || defined(STM32L4R7xx) || defined(STM32L4R9xx) || defined(STM32L4S5xx) ||
 120:d:/LiteOS_Lab/drivers/third_party/ST/STM32L4xx_HAL_Driver/Src\stm32l4xx_hal_rcc.c **** static uint32_t          RCC_GetSysClockFreqFromPLLSource(void);
 121:d:/LiteOS_Lab/drivers/third_party/ST/STM32L4xx_HAL_Driver/Src\stm32l4xx_hal_rcc.c **** #endif
 122:d:/LiteOS_Lab/drivers/third_party/ST/STM32L4xx_HAL_Driver/Src\stm32l4xx_hal_rcc.c **** /**
 123:d:/LiteOS_Lab/drivers/third_party/ST/STM32L4xx_HAL_Driver/Src\stm32l4xx_hal_rcc.c ****   * @}
 124:d:/LiteOS_Lab/drivers/third_party/ST/STM32L4xx_HAL_Driver/Src\stm32l4xx_hal_rcc.c ****   */
 125:d:/LiteOS_Lab/drivers/third_party/ST/STM32L4xx_HAL_Driver/Src\stm32l4xx_hal_rcc.c **** 
 126:d:/LiteOS_Lab/drivers/third_party/ST/STM32L4xx_HAL_Driver/Src\stm32l4xx_hal_rcc.c **** /* Exported functions --------------------------------------------------------*/
 127:d:/LiteOS_Lab/drivers/third_party/ST/STM32L4xx_HAL_Driver/Src\stm32l4xx_hal_rcc.c **** 
 128:d:/LiteOS_Lab/drivers/third_party/ST/STM32L4xx_HAL_Driver/Src\stm32l4xx_hal_rcc.c **** /** @defgroup RCC_Exported_Functions RCC Exported Functions
 129:d:/LiteOS_Lab/drivers/third_party/ST/STM32L4xx_HAL_Driver/Src\stm32l4xx_hal_rcc.c ****   * @{
 130:d:/LiteOS_Lab/drivers/third_party/ST/STM32L4xx_HAL_Driver/Src\stm32l4xx_hal_rcc.c ****   */
 131:d:/LiteOS_Lab/drivers/third_party/ST/STM32L4xx_HAL_Driver/Src\stm32l4xx_hal_rcc.c **** 
 132:d:/LiteOS_Lab/drivers/third_party/ST/STM32L4xx_HAL_Driver/Src\stm32l4xx_hal_rcc.c **** /** @defgroup RCC_Exported_Functions_Group1 Initialization and de-initialization functions
 133:d:/LiteOS_Lab/drivers/third_party/ST/STM32L4xx_HAL_Driver/Src\stm32l4xx_hal_rcc.c ****   *  @brief    Initialization and Configuration functions
 134:d:/LiteOS_Lab/drivers/third_party/ST/STM32L4xx_HAL_Driver/Src\stm32l4xx_hal_rcc.c ****   *
 135:d:/LiteOS_Lab/drivers/third_party/ST/STM32L4xx_HAL_Driver/Src\stm32l4xx_hal_rcc.c ****   @verbatim
 136:d:/LiteOS_Lab/drivers/third_party/ST/STM32L4xx_HAL_Driver/Src\stm32l4xx_hal_rcc.c ****  ===============================================================================
 137:d:/LiteOS_Lab/drivers/third_party/ST/STM32L4xx_HAL_Driver/Src\stm32l4xx_hal_rcc.c ****            ##### Initialization and de-initialization functions #####
 138:d:/LiteOS_Lab/drivers/third_party/ST/STM32L4xx_HAL_Driver/Src\stm32l4xx_hal_rcc.c ****  ===============================================================================
 139:d:/LiteOS_Lab/drivers/third_party/ST/STM32L4xx_HAL_Driver/Src\stm32l4xx_hal_rcc.c ****     [..]
 140:d:/LiteOS_Lab/drivers/third_party/ST/STM32L4xx_HAL_Driver/Src\stm32l4xx_hal_rcc.c ****       This section provides functions allowing to configure the internal and external oscillators
 141:d:/LiteOS_Lab/drivers/third_party/ST/STM32L4xx_HAL_Driver/Src\stm32l4xx_hal_rcc.c ****       (HSE, HSI, LSE, MSI, LSI, PLL, CSS and MCO) and the System busses clocks (SYSCLK, AHB, APB1
 142:d:/LiteOS_Lab/drivers/third_party/ST/STM32L4xx_HAL_Driver/Src\stm32l4xx_hal_rcc.c ****        and APB2).
 143:d:/LiteOS_Lab/drivers/third_party/ST/STM32L4xx_HAL_Driver/Src\stm32l4xx_hal_rcc.c **** 
 144:d:/LiteOS_Lab/drivers/third_party/ST/STM32L4xx_HAL_Driver/Src\stm32l4xx_hal_rcc.c ****     [..] Internal/external clock and PLL configuration
ARM GAS  C:\Users\ADMINI~1\AppData\Local\Temp\cc0pkmxZ.s 			page 4


 145:d:/LiteOS_Lab/drivers/third_party/ST/STM32L4xx_HAL_Driver/Src\stm32l4xx_hal_rcc.c ****          (+) HSI (high-speed internal): 16 MHz factory-trimmed RC used directly or through
 146:d:/LiteOS_Lab/drivers/third_party/ST/STM32L4xx_HAL_Driver/Src\stm32l4xx_hal_rcc.c ****              the PLL as System clock source.
 147:d:/LiteOS_Lab/drivers/third_party/ST/STM32L4xx_HAL_Driver/Src\stm32l4xx_hal_rcc.c **** 
 148:d:/LiteOS_Lab/drivers/third_party/ST/STM32L4xx_HAL_Driver/Src\stm32l4xx_hal_rcc.c ****          (+) MSI (Mutiple Speed Internal): Its frequency is software trimmable from 100KHZ to 48MHZ
 149:d:/LiteOS_Lab/drivers/third_party/ST/STM32L4xx_HAL_Driver/Src\stm32l4xx_hal_rcc.c ****              It can be used to generate the clock for the USB OTG FS (48 MHz).
 150:d:/LiteOS_Lab/drivers/third_party/ST/STM32L4xx_HAL_Driver/Src\stm32l4xx_hal_rcc.c ****              The number of flash wait states is automatically adjusted when MSI range is updated wi
 151:d:/LiteOS_Lab/drivers/third_party/ST/STM32L4xx_HAL_Driver/Src\stm32l4xx_hal_rcc.c ****              HAL_RCC_OscConfig() and the MSI is used as System clock source.
 152:d:/LiteOS_Lab/drivers/third_party/ST/STM32L4xx_HAL_Driver/Src\stm32l4xx_hal_rcc.c **** 
 153:d:/LiteOS_Lab/drivers/third_party/ST/STM32L4xx_HAL_Driver/Src\stm32l4xx_hal_rcc.c ****          (+) LSI (low-speed internal): 32 KHz low consumption RC used as IWDG and/or RTC
 154:d:/LiteOS_Lab/drivers/third_party/ST/STM32L4xx_HAL_Driver/Src\stm32l4xx_hal_rcc.c ****              clock source.
 155:d:/LiteOS_Lab/drivers/third_party/ST/STM32L4xx_HAL_Driver/Src\stm32l4xx_hal_rcc.c **** 
 156:d:/LiteOS_Lab/drivers/third_party/ST/STM32L4xx_HAL_Driver/Src\stm32l4xx_hal_rcc.c ****          (+) HSE (high-speed external): 4 to 48 MHz crystal oscillator used directly or
 157:d:/LiteOS_Lab/drivers/third_party/ST/STM32L4xx_HAL_Driver/Src\stm32l4xx_hal_rcc.c ****              through the PLL as System clock source. Can be used also optionally as RTC clock sourc
 158:d:/LiteOS_Lab/drivers/third_party/ST/STM32L4xx_HAL_Driver/Src\stm32l4xx_hal_rcc.c **** 
 159:d:/LiteOS_Lab/drivers/third_party/ST/STM32L4xx_HAL_Driver/Src\stm32l4xx_hal_rcc.c ****          (+) LSE (low-speed external): 32.768 KHz oscillator used optionally as RTC clock source.
 160:d:/LiteOS_Lab/drivers/third_party/ST/STM32L4xx_HAL_Driver/Src\stm32l4xx_hal_rcc.c **** 
 161:d:/LiteOS_Lab/drivers/third_party/ST/STM32L4xx_HAL_Driver/Src\stm32l4xx_hal_rcc.c ****          (+) PLL (clocked by HSI, HSE or MSI) providing up to three independent output clocks:
 162:d:/LiteOS_Lab/drivers/third_party/ST/STM32L4xx_HAL_Driver/Src\stm32l4xx_hal_rcc.c ****            (++) The first output is used to generate the high speed system clock (up to 80MHz).
 163:d:/LiteOS_Lab/drivers/third_party/ST/STM32L4xx_HAL_Driver/Src\stm32l4xx_hal_rcc.c ****            (++) The second output is used to generate the clock for the USB OTG FS (48 MHz),
 164:d:/LiteOS_Lab/drivers/third_party/ST/STM32L4xx_HAL_Driver/Src\stm32l4xx_hal_rcc.c ****                 the random analog generator (<=48 MHz) and the SDMMC1 (<= 48 MHz).
 165:d:/LiteOS_Lab/drivers/third_party/ST/STM32L4xx_HAL_Driver/Src\stm32l4xx_hal_rcc.c ****            (++) The third output is used to generate an accurate clock to achieve
 166:d:/LiteOS_Lab/drivers/third_party/ST/STM32L4xx_HAL_Driver/Src\stm32l4xx_hal_rcc.c ****                 high-quality audio performance on SAI interface.
 167:d:/LiteOS_Lab/drivers/third_party/ST/STM32L4xx_HAL_Driver/Src\stm32l4xx_hal_rcc.c **** 
 168:d:/LiteOS_Lab/drivers/third_party/ST/STM32L4xx_HAL_Driver/Src\stm32l4xx_hal_rcc.c ****          (+) PLLSAI1 (clocked by HSI, HSE or MSI) providing up to three independent output clocks:
 169:d:/LiteOS_Lab/drivers/third_party/ST/STM32L4xx_HAL_Driver/Src\stm32l4xx_hal_rcc.c ****            (++) The first output is used to generate SAR ADC1 clock.
 170:d:/LiteOS_Lab/drivers/third_party/ST/STM32L4xx_HAL_Driver/Src\stm32l4xx_hal_rcc.c ****            (++) The second output is used to generate the clock for the USB OTG FS (48 MHz),
 171:d:/LiteOS_Lab/drivers/third_party/ST/STM32L4xx_HAL_Driver/Src\stm32l4xx_hal_rcc.c ****                 the random analog generator (<=48 MHz) and the SDMMC1 (<= 48 MHz).
 172:d:/LiteOS_Lab/drivers/third_party/ST/STM32L4xx_HAL_Driver/Src\stm32l4xx_hal_rcc.c ****            (++) The Third output is used to generate an accurate clock to achieve
 173:d:/LiteOS_Lab/drivers/third_party/ST/STM32L4xx_HAL_Driver/Src\stm32l4xx_hal_rcc.c ****                 high-quality audio performance on SAI interface.
 174:d:/LiteOS_Lab/drivers/third_party/ST/STM32L4xx_HAL_Driver/Src\stm32l4xx_hal_rcc.c **** 
 175:d:/LiteOS_Lab/drivers/third_party/ST/STM32L4xx_HAL_Driver/Src\stm32l4xx_hal_rcc.c ****          (+) PLLSAI2 (clocked by HSI , HSE or MSI) providing up to two independent output clocks:
 176:d:/LiteOS_Lab/drivers/third_party/ST/STM32L4xx_HAL_Driver/Src\stm32l4xx_hal_rcc.c ****            (++) The first output is used to generate SAR ADC2 clock.
 177:d:/LiteOS_Lab/drivers/third_party/ST/STM32L4xx_HAL_Driver/Src\stm32l4xx_hal_rcc.c ****            (++) The second  output is used to generate an accurate clock to achieve
 178:d:/LiteOS_Lab/drivers/third_party/ST/STM32L4xx_HAL_Driver/Src\stm32l4xx_hal_rcc.c ****                 high-quality audio performance on SAI interface.
 179:d:/LiteOS_Lab/drivers/third_party/ST/STM32L4xx_HAL_Driver/Src\stm32l4xx_hal_rcc.c **** 
 180:d:/LiteOS_Lab/drivers/third_party/ST/STM32L4xx_HAL_Driver/Src\stm32l4xx_hal_rcc.c ****          (+) CSS (Clock security system): once enabled, if a HSE clock failure occurs
 181:d:/LiteOS_Lab/drivers/third_party/ST/STM32L4xx_HAL_Driver/Src\stm32l4xx_hal_rcc.c ****             (HSE used directly or through PLL as System clock source), the System clock
 182:d:/LiteOS_Lab/drivers/third_party/ST/STM32L4xx_HAL_Driver/Src\stm32l4xx_hal_rcc.c ****              is automatically switched to HSI and an interrupt is generated if enabled.
 183:d:/LiteOS_Lab/drivers/third_party/ST/STM32L4xx_HAL_Driver/Src\stm32l4xx_hal_rcc.c ****              The interrupt is linked to the Cortex-M4 NMI (Non-Maskable Interrupt)
 184:d:/LiteOS_Lab/drivers/third_party/ST/STM32L4xx_HAL_Driver/Src\stm32l4xx_hal_rcc.c ****              exception vector.
 185:d:/LiteOS_Lab/drivers/third_party/ST/STM32L4xx_HAL_Driver/Src\stm32l4xx_hal_rcc.c **** 
 186:d:/LiteOS_Lab/drivers/third_party/ST/STM32L4xx_HAL_Driver/Src\stm32l4xx_hal_rcc.c ****          (+) MCO (microcontroller clock output): used to output MSI, LSI, HSI, LSE, HSE or
 187:d:/LiteOS_Lab/drivers/third_party/ST/STM32L4xx_HAL_Driver/Src\stm32l4xx_hal_rcc.c ****              main PLL clock (through a configurable prescaler) on PA8 pin.
 188:d:/LiteOS_Lab/drivers/third_party/ST/STM32L4xx_HAL_Driver/Src\stm32l4xx_hal_rcc.c **** 
 189:d:/LiteOS_Lab/drivers/third_party/ST/STM32L4xx_HAL_Driver/Src\stm32l4xx_hal_rcc.c ****     [..] System, AHB and APB busses clocks configuration
 190:d:/LiteOS_Lab/drivers/third_party/ST/STM32L4xx_HAL_Driver/Src\stm32l4xx_hal_rcc.c ****          (+) Several clock sources can be used to drive the System clock (SYSCLK): MSI, HSI,
 191:d:/LiteOS_Lab/drivers/third_party/ST/STM32L4xx_HAL_Driver/Src\stm32l4xx_hal_rcc.c ****              HSE and main PLL.
 192:d:/LiteOS_Lab/drivers/third_party/ST/STM32L4xx_HAL_Driver/Src\stm32l4xx_hal_rcc.c ****              The AHB clock (HCLK) is derived from System clock through configurable
 193:d:/LiteOS_Lab/drivers/third_party/ST/STM32L4xx_HAL_Driver/Src\stm32l4xx_hal_rcc.c ****              prescaler and used to clock the CPU, memory and peripherals mapped
 194:d:/LiteOS_Lab/drivers/third_party/ST/STM32L4xx_HAL_Driver/Src\stm32l4xx_hal_rcc.c ****              on AHB bus (DMA, GPIO...). APB1 (PCLK1) and APB2 (PCLK2) clocks are derived
 195:d:/LiteOS_Lab/drivers/third_party/ST/STM32L4xx_HAL_Driver/Src\stm32l4xx_hal_rcc.c ****              from AHB clock through configurable prescalers and used to clock
 196:d:/LiteOS_Lab/drivers/third_party/ST/STM32L4xx_HAL_Driver/Src\stm32l4xx_hal_rcc.c ****              the peripherals mapped on these busses. You can use
 197:d:/LiteOS_Lab/drivers/third_party/ST/STM32L4xx_HAL_Driver/Src\stm32l4xx_hal_rcc.c ****              "HAL_RCC_GetSysClockFreq()" function to retrieve the frequencies of these clocks.
 198:d:/LiteOS_Lab/drivers/third_party/ST/STM32L4xx_HAL_Driver/Src\stm32l4xx_hal_rcc.c **** 
 199:d:/LiteOS_Lab/drivers/third_party/ST/STM32L4xx_HAL_Driver/Src\stm32l4xx_hal_rcc.c ****          -@- All the peripheral clocks are derived from the System clock (SYSCLK) except:
 200:d:/LiteOS_Lab/drivers/third_party/ST/STM32L4xx_HAL_Driver/Src\stm32l4xx_hal_rcc.c **** 
 201:d:/LiteOS_Lab/drivers/third_party/ST/STM32L4xx_HAL_Driver/Src\stm32l4xx_hal_rcc.c ****            (+@) SAI: the SAI clock can be derived either from a specific PLL (PLLSAI1) or (PLLSAI2)
ARM GAS  C:\Users\ADMINI~1\AppData\Local\Temp\cc0pkmxZ.s 			page 5


 202:d:/LiteOS_Lab/drivers/third_party/ST/STM32L4xx_HAL_Driver/Src\stm32l4xx_hal_rcc.c ****                 from an external clock mapped on the SAI_CKIN pin.
 203:d:/LiteOS_Lab/drivers/third_party/ST/STM32L4xx_HAL_Driver/Src\stm32l4xx_hal_rcc.c ****                 You have to use HAL_RCCEx_PeriphCLKConfig() function to configure this clock.
 204:d:/LiteOS_Lab/drivers/third_party/ST/STM32L4xx_HAL_Driver/Src\stm32l4xx_hal_rcc.c ****            (+@) RTC: the RTC clock can be derived either from the LSI, LSE or HSE clock
 205:d:/LiteOS_Lab/drivers/third_party/ST/STM32L4xx_HAL_Driver/Src\stm32l4xx_hal_rcc.c ****                 divided by 2 to 31.
 206:d:/LiteOS_Lab/drivers/third_party/ST/STM32L4xx_HAL_Driver/Src\stm32l4xx_hal_rcc.c ****                 You have to use __HAL_RCC_RTC_ENABLE() and HAL_RCCEx_PeriphCLKConfig() function
 207:d:/LiteOS_Lab/drivers/third_party/ST/STM32L4xx_HAL_Driver/Src\stm32l4xx_hal_rcc.c ****                 to configure this clock.
 208:d:/LiteOS_Lab/drivers/third_party/ST/STM32L4xx_HAL_Driver/Src\stm32l4xx_hal_rcc.c ****            (+@) USB OTG FS, SDMMC1 and RNG: USB OTG FS requires a frequency equal to 48 MHz
 209:d:/LiteOS_Lab/drivers/third_party/ST/STM32L4xx_HAL_Driver/Src\stm32l4xx_hal_rcc.c ****                 to work correctly, while the SDMMC1 and RNG peripherals require a frequency
 210:d:/LiteOS_Lab/drivers/third_party/ST/STM32L4xx_HAL_Driver/Src\stm32l4xx_hal_rcc.c ****                 equal or lower than to 48 MHz. This clock is derived of the main PLL or PLLSAI1
 211:d:/LiteOS_Lab/drivers/third_party/ST/STM32L4xx_HAL_Driver/Src\stm32l4xx_hal_rcc.c ****                 through PLLQ divider. You have to enable the peripheral clock and use
 212:d:/LiteOS_Lab/drivers/third_party/ST/STM32L4xx_HAL_Driver/Src\stm32l4xx_hal_rcc.c ****                 HAL_RCCEx_PeriphCLKConfig() function to configure this clock.
 213:d:/LiteOS_Lab/drivers/third_party/ST/STM32L4xx_HAL_Driver/Src\stm32l4xx_hal_rcc.c ****            (+@) IWDG clock which is always the LSI clock.
 214:d:/LiteOS_Lab/drivers/third_party/ST/STM32L4xx_HAL_Driver/Src\stm32l4xx_hal_rcc.c **** 
 215:d:/LiteOS_Lab/drivers/third_party/ST/STM32L4xx_HAL_Driver/Src\stm32l4xx_hal_rcc.c **** 
 216:d:/LiteOS_Lab/drivers/third_party/ST/STM32L4xx_HAL_Driver/Src\stm32l4xx_hal_rcc.c ****          (+) The maximum frequency of the SYSCLK, HCLK, PCLK1 and PCLK2 is 80 MHz.
 217:d:/LiteOS_Lab/drivers/third_party/ST/STM32L4xx_HAL_Driver/Src\stm32l4xx_hal_rcc.c ****              The clock source frequency should be adapted depending on the device voltage range
 218:d:/LiteOS_Lab/drivers/third_party/ST/STM32L4xx_HAL_Driver/Src\stm32l4xx_hal_rcc.c ****              as listed in the Reference Manual "Clock source frequency versus voltage scaling" chap
 219:d:/LiteOS_Lab/drivers/third_party/ST/STM32L4xx_HAL_Driver/Src\stm32l4xx_hal_rcc.c **** 
 220:d:/LiteOS_Lab/drivers/third_party/ST/STM32L4xx_HAL_Driver/Src\stm32l4xx_hal_rcc.c ****   @endverbatim
 221:d:/LiteOS_Lab/drivers/third_party/ST/STM32L4xx_HAL_Driver/Src\stm32l4xx_hal_rcc.c **** 
 222:d:/LiteOS_Lab/drivers/third_party/ST/STM32L4xx_HAL_Driver/Src\stm32l4xx_hal_rcc.c ****            Table 1. HCLK clock frequency for STM32L4Rx/STM32L4Sx devices
 223:d:/LiteOS_Lab/drivers/third_party/ST/STM32L4xx_HAL_Driver/Src\stm32l4xx_hal_rcc.c ****            +--------------------------------------------------------+
 224:d:/LiteOS_Lab/drivers/third_party/ST/STM32L4xx_HAL_Driver/Src\stm32l4xx_hal_rcc.c ****            | Latency         |     HCLK clock frequency (MHz)       |
 225:d:/LiteOS_Lab/drivers/third_party/ST/STM32L4xx_HAL_Driver/Src\stm32l4xx_hal_rcc.c ****            |                 |--------------------------------------|
 226:d:/LiteOS_Lab/drivers/third_party/ST/STM32L4xx_HAL_Driver/Src\stm32l4xx_hal_rcc.c ****            |                 |  voltage range 1  | voltage range 2  |
 227:d:/LiteOS_Lab/drivers/third_party/ST/STM32L4xx_HAL_Driver/Src\stm32l4xx_hal_rcc.c ****            |                 |       1.2 V       |     1.0 V        |
 228:d:/LiteOS_Lab/drivers/third_party/ST/STM32L4xx_HAL_Driver/Src\stm32l4xx_hal_rcc.c ****            |-----------------|-------------------|------------------|
 229:d:/LiteOS_Lab/drivers/third_party/ST/STM32L4xx_HAL_Driver/Src\stm32l4xx_hal_rcc.c ****            |0WS(1 CPU cycles)|   0 < HCLK <= 20  |  0 < HCLK <= 8   |
 230:d:/LiteOS_Lab/drivers/third_party/ST/STM32L4xx_HAL_Driver/Src\stm32l4xx_hal_rcc.c ****            |-----------------|-------------------|------------------|
 231:d:/LiteOS_Lab/drivers/third_party/ST/STM32L4xx_HAL_Driver/Src\stm32l4xx_hal_rcc.c ****            |1WS(2 CPU cycles)|  20 < HCLK <= 40  |  8 < HCLK <= 16  |
 232:d:/LiteOS_Lab/drivers/third_party/ST/STM32L4xx_HAL_Driver/Src\stm32l4xx_hal_rcc.c ****            |-----------------|-------------------|------------------|
 233:d:/LiteOS_Lab/drivers/third_party/ST/STM32L4xx_HAL_Driver/Src\stm32l4xx_hal_rcc.c ****            |2WS(3 CPU cycles)|  40 < HCLK <= 60  | 16 < HCLK <= 26  |
 234:d:/LiteOS_Lab/drivers/third_party/ST/STM32L4xx_HAL_Driver/Src\stm32l4xx_hal_rcc.c ****            |-----------------|-------------------|------------------|
 235:d:/LiteOS_Lab/drivers/third_party/ST/STM32L4xx_HAL_Driver/Src\stm32l4xx_hal_rcc.c ****            |3WS(4 CPU cycles)|  60 < HCLK <= 80  | 16 < HCLK <= 26  |
 236:d:/LiteOS_Lab/drivers/third_party/ST/STM32L4xx_HAL_Driver/Src\stm32l4xx_hal_rcc.c ****            |-----------------|-------------------|------------------|
 237:d:/LiteOS_Lab/drivers/third_party/ST/STM32L4xx_HAL_Driver/Src\stm32l4xx_hal_rcc.c ****            |4WS(5 CPU cycles)|  80 < HCLK <= 100 | 16 < HCLK <= 26  |
 238:d:/LiteOS_Lab/drivers/third_party/ST/STM32L4xx_HAL_Driver/Src\stm32l4xx_hal_rcc.c ****            |-----------------|-------------------|------------------|
 239:d:/LiteOS_Lab/drivers/third_party/ST/STM32L4xx_HAL_Driver/Src\stm32l4xx_hal_rcc.c ****            |5WS(6 CPU cycles)| 100 < HCLK <= 120 | 16 < HCLK <= 26  |
 240:d:/LiteOS_Lab/drivers/third_party/ST/STM32L4xx_HAL_Driver/Src\stm32l4xx_hal_rcc.c ****            +--------------------------------------------------------+
 241:d:/LiteOS_Lab/drivers/third_party/ST/STM32L4xx_HAL_Driver/Src\stm32l4xx_hal_rcc.c **** 
 242:d:/LiteOS_Lab/drivers/third_party/ST/STM32L4xx_HAL_Driver/Src\stm32l4xx_hal_rcc.c ****            Table 2. HCLK clock frequency for other STM32L4 devices
 243:d:/LiteOS_Lab/drivers/third_party/ST/STM32L4xx_HAL_Driver/Src\stm32l4xx_hal_rcc.c ****            +-------------------------------------------------------+
 244:d:/LiteOS_Lab/drivers/third_party/ST/STM32L4xx_HAL_Driver/Src\stm32l4xx_hal_rcc.c ****            | Latency         |    HCLK clock frequency (MHz)       |
 245:d:/LiteOS_Lab/drivers/third_party/ST/STM32L4xx_HAL_Driver/Src\stm32l4xx_hal_rcc.c ****            |                 |-------------------------------------|
 246:d:/LiteOS_Lab/drivers/third_party/ST/STM32L4xx_HAL_Driver/Src\stm32l4xx_hal_rcc.c ****            |                 | voltage range 1  | voltage range 2  |
 247:d:/LiteOS_Lab/drivers/third_party/ST/STM32L4xx_HAL_Driver/Src\stm32l4xx_hal_rcc.c ****            |                 |      1.2 V       |     1.0 V        |
 248:d:/LiteOS_Lab/drivers/third_party/ST/STM32L4xx_HAL_Driver/Src\stm32l4xx_hal_rcc.c ****            |-----------------|------------------|------------------|
 249:d:/LiteOS_Lab/drivers/third_party/ST/STM32L4xx_HAL_Driver/Src\stm32l4xx_hal_rcc.c ****            |0WS(1 CPU cycles)|  0 < HCLK <= 16  |  0 < HCLK <= 6   |
 250:d:/LiteOS_Lab/drivers/third_party/ST/STM32L4xx_HAL_Driver/Src\stm32l4xx_hal_rcc.c ****            |-----------------|------------------|------------------|
 251:d:/LiteOS_Lab/drivers/third_party/ST/STM32L4xx_HAL_Driver/Src\stm32l4xx_hal_rcc.c ****            |1WS(2 CPU cycles)| 16 < HCLK <= 32  |  6 < HCLK <= 12  |
 252:d:/LiteOS_Lab/drivers/third_party/ST/STM32L4xx_HAL_Driver/Src\stm32l4xx_hal_rcc.c ****            |-----------------|------------------|------------------|
 253:d:/LiteOS_Lab/drivers/third_party/ST/STM32L4xx_HAL_Driver/Src\stm32l4xx_hal_rcc.c ****            |2WS(3 CPU cycles)| 32 < HCLK <= 48  | 12 < HCLK <= 18  |
 254:d:/LiteOS_Lab/drivers/third_party/ST/STM32L4xx_HAL_Driver/Src\stm32l4xx_hal_rcc.c ****            |-----------------|------------------|------------------|
 255:d:/LiteOS_Lab/drivers/third_party/ST/STM32L4xx_HAL_Driver/Src\stm32l4xx_hal_rcc.c ****            |3WS(4 CPU cycles)| 48 < HCLK <= 64  | 18 < HCLK <= 26  |
 256:d:/LiteOS_Lab/drivers/third_party/ST/STM32L4xx_HAL_Driver/Src\stm32l4xx_hal_rcc.c ****            |-----------------|------------------|------------------|
 257:d:/LiteOS_Lab/drivers/third_party/ST/STM32L4xx_HAL_Driver/Src\stm32l4xx_hal_rcc.c ****            |4WS(5 CPU cycles)| 64 < HCLK <= 80  | 18 < HCLK <= 26  |
 258:d:/LiteOS_Lab/drivers/third_party/ST/STM32L4xx_HAL_Driver/Src\stm32l4xx_hal_rcc.c ****            +-------------------------------------------------------+
ARM GAS  C:\Users\ADMINI~1\AppData\Local\Temp\cc0pkmxZ.s 			page 6


 259:d:/LiteOS_Lab/drivers/third_party/ST/STM32L4xx_HAL_Driver/Src\stm32l4xx_hal_rcc.c ****   * @{
 260:d:/LiteOS_Lab/drivers/third_party/ST/STM32L4xx_HAL_Driver/Src\stm32l4xx_hal_rcc.c ****   */
 261:d:/LiteOS_Lab/drivers/third_party/ST/STM32L4xx_HAL_Driver/Src\stm32l4xx_hal_rcc.c **** 
 262:d:/LiteOS_Lab/drivers/third_party/ST/STM32L4xx_HAL_Driver/Src\stm32l4xx_hal_rcc.c **** /**
 263:d:/LiteOS_Lab/drivers/third_party/ST/STM32L4xx_HAL_Driver/Src\stm32l4xx_hal_rcc.c ****   * @brief  Reset the RCC clock configuration to the default reset state.
 264:d:/LiteOS_Lab/drivers/third_party/ST/STM32L4xx_HAL_Driver/Src\stm32l4xx_hal_rcc.c ****   * @note   The default reset state of the clock configuration is given below:
 265:d:/LiteOS_Lab/drivers/third_party/ST/STM32L4xx_HAL_Driver/Src\stm32l4xx_hal_rcc.c ****   *            - MSI ON and used as system clock source
 266:d:/LiteOS_Lab/drivers/third_party/ST/STM32L4xx_HAL_Driver/Src\stm32l4xx_hal_rcc.c ****   *            - HSE, HSI, PLL, PLLSAI1 and PLLISAI2 OFF
 267:d:/LiteOS_Lab/drivers/third_party/ST/STM32L4xx_HAL_Driver/Src\stm32l4xx_hal_rcc.c ****   *            - AHB, APB1 and APB2 prescaler set to 1.
 268:d:/LiteOS_Lab/drivers/third_party/ST/STM32L4xx_HAL_Driver/Src\stm32l4xx_hal_rcc.c ****   *            - CSS, MCO1 OFF
 269:d:/LiteOS_Lab/drivers/third_party/ST/STM32L4xx_HAL_Driver/Src\stm32l4xx_hal_rcc.c ****   *            - All interrupts disabled
 270:d:/LiteOS_Lab/drivers/third_party/ST/STM32L4xx_HAL_Driver/Src\stm32l4xx_hal_rcc.c ****   *            - All interrupt and reset flags cleared
 271:d:/LiteOS_Lab/drivers/third_party/ST/STM32L4xx_HAL_Driver/Src\stm32l4xx_hal_rcc.c ****   * @note   This function doesn't modify the configuration of the
 272:d:/LiteOS_Lab/drivers/third_party/ST/STM32L4xx_HAL_Driver/Src\stm32l4xx_hal_rcc.c ****   *            - Peripheral clocks
 273:d:/LiteOS_Lab/drivers/third_party/ST/STM32L4xx_HAL_Driver/Src\stm32l4xx_hal_rcc.c ****   *            - LSI, LSE and RTC clocks
 274:d:/LiteOS_Lab/drivers/third_party/ST/STM32L4xx_HAL_Driver/Src\stm32l4xx_hal_rcc.c ****   * @retval HAL status
 275:d:/LiteOS_Lab/drivers/third_party/ST/STM32L4xx_HAL_Driver/Src\stm32l4xx_hal_rcc.c ****   */
 276:d:/LiteOS_Lab/drivers/third_party/ST/STM32L4xx_HAL_Driver/Src\stm32l4xx_hal_rcc.c **** HAL_StatusTypeDef HAL_RCC_DeInit(void)
 277:d:/LiteOS_Lab/drivers/third_party/ST/STM32L4xx_HAL_Driver/Src\stm32l4xx_hal_rcc.c **** {
  29              		.loc 1 277 1
  30              		.cfi_startproc
  31              		@ args = 0, pretend = 0, frame = 8
  32              		@ frame_needed = 1, uses_anonymous_args = 0
  33 0000 80B5     		push	{r7, lr}
  34              	.LCFI0:
  35              		.cfi_def_cfa_offset 8
  36              		.cfi_offset 7, -8
  37              		.cfi_offset 14, -4
  38 0002 82B0     		sub	sp, sp, #8
  39              	.LCFI1:
  40              		.cfi_def_cfa_offset 16
  41 0004 00AF     		add	r7, sp, #0
  42              	.LCFI2:
  43              		.cfi_def_cfa_register 7
 278:d:/LiteOS_Lab/drivers/third_party/ST/STM32L4xx_HAL_Driver/Src\stm32l4xx_hal_rcc.c ****   uint32_t tickstart = 0;
  44              		.loc 1 278 12
  45 0006 0023     		movs	r3, #0
  46 0008 7B60     		str	r3, [r7, #4]
 279:d:/LiteOS_Lab/drivers/third_party/ST/STM32L4xx_HAL_Driver/Src\stm32l4xx_hal_rcc.c **** 
 280:d:/LiteOS_Lab/drivers/third_party/ST/STM32L4xx_HAL_Driver/Src\stm32l4xx_hal_rcc.c ****   /* Set MSION bit */
 281:d:/LiteOS_Lab/drivers/third_party/ST/STM32L4xx_HAL_Driver/Src\stm32l4xx_hal_rcc.c ****   SET_BIT(RCC->CR, RCC_CR_MSION);
  47              		.loc 1 281 3
  48 000a 444B     		ldr	r3, .L10
  49 000c 1B68     		ldr	r3, [r3]
  50 000e 434A     		ldr	r2, .L10
  51 0010 43F00103 		orr	r3, r3, #1
  52 0014 1360     		str	r3, [r2]
 282:d:/LiteOS_Lab/drivers/third_party/ST/STM32L4xx_HAL_Driver/Src\stm32l4xx_hal_rcc.c **** 
 283:d:/LiteOS_Lab/drivers/third_party/ST/STM32L4xx_HAL_Driver/Src\stm32l4xx_hal_rcc.c ****   /* Insure MSIRDY bit is set before writing default MSIRANGE value */
 284:d:/LiteOS_Lab/drivers/third_party/ST/STM32L4xx_HAL_Driver/Src\stm32l4xx_hal_rcc.c ****   /* Get start tick */
 285:d:/LiteOS_Lab/drivers/third_party/ST/STM32L4xx_HAL_Driver/Src\stm32l4xx_hal_rcc.c ****   tickstart = HAL_GetTick();
  53              		.loc 1 285 15
  54 0016 FFF7FEFF 		bl	HAL_GetTick
  55 001a 7860     		str	r0, [r7, #4]
 286:d:/LiteOS_Lab/drivers/third_party/ST/STM32L4xx_HAL_Driver/Src\stm32l4xx_hal_rcc.c **** 
 287:d:/LiteOS_Lab/drivers/third_party/ST/STM32L4xx_HAL_Driver/Src\stm32l4xx_hal_rcc.c ****   /* Wait till MSI is ready */
 288:d:/LiteOS_Lab/drivers/third_party/ST/STM32L4xx_HAL_Driver/Src\stm32l4xx_hal_rcc.c ****   while(READ_BIT(RCC->CR, RCC_CR_MSIRDY) == RESET)
ARM GAS  C:\Users\ADMINI~1\AppData\Local\Temp\cc0pkmxZ.s 			page 7


  56              		.loc 1 288 8
  57 001c 08E0     		b	.L2
  58              	.L4:
 289:d:/LiteOS_Lab/drivers/third_party/ST/STM32L4xx_HAL_Driver/Src\stm32l4xx_hal_rcc.c ****   {
 290:d:/LiteOS_Lab/drivers/third_party/ST/STM32L4xx_HAL_Driver/Src\stm32l4xx_hal_rcc.c ****     if((HAL_GetTick() - tickstart) > MSI_TIMEOUT_VALUE)
  59              		.loc 1 290 9
  60 001e FFF7FEFF 		bl	HAL_GetTick
  61 0022 0246     		mov	r2, r0
  62              		.loc 1 290 23
  63 0024 7B68     		ldr	r3, [r7, #4]
  64 0026 D31A     		subs	r3, r2, r3
  65              		.loc 1 290 7
  66 0028 022B     		cmp	r3, #2
  67 002a 01D9     		bls	.L2
 291:d:/LiteOS_Lab/drivers/third_party/ST/STM32L4xx_HAL_Driver/Src\stm32l4xx_hal_rcc.c ****     {
 292:d:/LiteOS_Lab/drivers/third_party/ST/STM32L4xx_HAL_Driver/Src\stm32l4xx_hal_rcc.c ****       return HAL_TIMEOUT;
  68              		.loc 1 292 14
  69 002c 0323     		movs	r3, #3
  70 002e 71E0     		b	.L3
  71              	.L2:
 288:d:/LiteOS_Lab/drivers/third_party/ST/STM32L4xx_HAL_Driver/Src\stm32l4xx_hal_rcc.c ****   {
  72              		.loc 1 288 9
  73 0030 3A4B     		ldr	r3, .L10
  74 0032 1B68     		ldr	r3, [r3]
  75 0034 03F00203 		and	r3, r3, #2
 288:d:/LiteOS_Lab/drivers/third_party/ST/STM32L4xx_HAL_Driver/Src\stm32l4xx_hal_rcc.c ****   {
  76              		.loc 1 288 8
  77 0038 002B     		cmp	r3, #0
  78 003a F0D0     		beq	.L4
 293:d:/LiteOS_Lab/drivers/third_party/ST/STM32L4xx_HAL_Driver/Src\stm32l4xx_hal_rcc.c ****     }
 294:d:/LiteOS_Lab/drivers/third_party/ST/STM32L4xx_HAL_Driver/Src\stm32l4xx_hal_rcc.c ****   }
 295:d:/LiteOS_Lab/drivers/third_party/ST/STM32L4xx_HAL_Driver/Src\stm32l4xx_hal_rcc.c **** 
 296:d:/LiteOS_Lab/drivers/third_party/ST/STM32L4xx_HAL_Driver/Src\stm32l4xx_hal_rcc.c ****   /* Set MSIRANGE default value */
 297:d:/LiteOS_Lab/drivers/third_party/ST/STM32L4xx_HAL_Driver/Src\stm32l4xx_hal_rcc.c ****   MODIFY_REG(RCC->CR, RCC_CR_MSIRANGE, RCC_MSIRANGE_6);
  79              		.loc 1 297 3
  80 003c 374B     		ldr	r3, .L10
  81 003e 1B68     		ldr	r3, [r3]
  82 0040 23F0F003 		bic	r3, r3, #240
  83 0044 354A     		ldr	r2, .L10
  84 0046 43F06003 		orr	r3, r3, #96
  85 004a 1360     		str	r3, [r2]
 298:d:/LiteOS_Lab/drivers/third_party/ST/STM32L4xx_HAL_Driver/Src\stm32l4xx_hal_rcc.c **** 
 299:d:/LiteOS_Lab/drivers/third_party/ST/STM32L4xx_HAL_Driver/Src\stm32l4xx_hal_rcc.c ****   /* Reset CFGR register (MSI is selected as system clock source) */
 300:d:/LiteOS_Lab/drivers/third_party/ST/STM32L4xx_HAL_Driver/Src\stm32l4xx_hal_rcc.c ****   CLEAR_REG(RCC->CFGR);
  86              		.loc 1 300 3
  87 004c 334B     		ldr	r3, .L10
  88 004e 0022     		movs	r2, #0
  89 0050 9A60     		str	r2, [r3, #8]
 301:d:/LiteOS_Lab/drivers/third_party/ST/STM32L4xx_HAL_Driver/Src\stm32l4xx_hal_rcc.c **** 
 302:d:/LiteOS_Lab/drivers/third_party/ST/STM32L4xx_HAL_Driver/Src\stm32l4xx_hal_rcc.c ****   /* Update the SystemCoreClock global variable for MSI as system clock source */
 303:d:/LiteOS_Lab/drivers/third_party/ST/STM32L4xx_HAL_Driver/Src\stm32l4xx_hal_rcc.c ****   SystemCoreClock = MSI_VALUE;
  90              		.loc 1 303 19
  91 0052 334B     		ldr	r3, .L10+4
  92 0054 334A     		ldr	r2, .L10+8
  93 0056 1A60     		str	r2, [r3]
 304:d:/LiteOS_Lab/drivers/third_party/ST/STM32L4xx_HAL_Driver/Src\stm32l4xx_hal_rcc.c **** 
 305:d:/LiteOS_Lab/drivers/third_party/ST/STM32L4xx_HAL_Driver/Src\stm32l4xx_hal_rcc.c ****   /* Configure the source of time base considering new system clock settings  */
ARM GAS  C:\Users\ADMINI~1\AppData\Local\Temp\cc0pkmxZ.s 			page 8


 306:d:/LiteOS_Lab/drivers/third_party/ST/STM32L4xx_HAL_Driver/Src\stm32l4xx_hal_rcc.c ****   if(HAL_InitTick(TICK_INT_PRIORITY) != HAL_OK)
  94              		.loc 1 306 6
  95 0058 0020     		movs	r0, #0
  96 005a FFF7FEFF 		bl	HAL_InitTick
  97 005e 0346     		mov	r3, r0
  98              		.loc 1 306 5
  99 0060 002B     		cmp	r3, #0
 100 0062 01D0     		beq	.L5
 307:d:/LiteOS_Lab/drivers/third_party/ST/STM32L4xx_HAL_Driver/Src\stm32l4xx_hal_rcc.c ****   {
 308:d:/LiteOS_Lab/drivers/third_party/ST/STM32L4xx_HAL_Driver/Src\stm32l4xx_hal_rcc.c ****     return HAL_ERROR;
 101              		.loc 1 308 12
 102 0064 0123     		movs	r3, #1
 103 0066 55E0     		b	.L3
 104              	.L5:
 309:d:/LiteOS_Lab/drivers/third_party/ST/STM32L4xx_HAL_Driver/Src\stm32l4xx_hal_rcc.c ****   }
 310:d:/LiteOS_Lab/drivers/third_party/ST/STM32L4xx_HAL_Driver/Src\stm32l4xx_hal_rcc.c **** 
 311:d:/LiteOS_Lab/drivers/third_party/ST/STM32L4xx_HAL_Driver/Src\stm32l4xx_hal_rcc.c ****   /* Insure MSI selected as system clock source */
 312:d:/LiteOS_Lab/drivers/third_party/ST/STM32L4xx_HAL_Driver/Src\stm32l4xx_hal_rcc.c ****   /* Get start tick */
 313:d:/LiteOS_Lab/drivers/third_party/ST/STM32L4xx_HAL_Driver/Src\stm32l4xx_hal_rcc.c ****   tickstart = HAL_GetTick();
 105              		.loc 1 313 15
 106 0068 FFF7FEFF 		bl	HAL_GetTick
 107 006c 7860     		str	r0, [r7, #4]
 314:d:/LiteOS_Lab/drivers/third_party/ST/STM32L4xx_HAL_Driver/Src\stm32l4xx_hal_rcc.c **** 
 315:d:/LiteOS_Lab/drivers/third_party/ST/STM32L4xx_HAL_Driver/Src\stm32l4xx_hal_rcc.c ****   /* Wait till system clock source is ready */
 316:d:/LiteOS_Lab/drivers/third_party/ST/STM32L4xx_HAL_Driver/Src\stm32l4xx_hal_rcc.c ****   while(READ_BIT(RCC->CFGR, RCC_CFGR_SWS) != RCC_CFGR_SWS_MSI)
 108              		.loc 1 316 8
 109 006e 0AE0     		b	.L6
 110              	.L7:
 317:d:/LiteOS_Lab/drivers/third_party/ST/STM32L4xx_HAL_Driver/Src\stm32l4xx_hal_rcc.c ****   {
 318:d:/LiteOS_Lab/drivers/third_party/ST/STM32L4xx_HAL_Driver/Src\stm32l4xx_hal_rcc.c ****     if((HAL_GetTick() - tickstart) > CLOCKSWITCH_TIMEOUT_VALUE)
 111              		.loc 1 318 9
 112 0070 FFF7FEFF 		bl	HAL_GetTick
 113 0074 0246     		mov	r2, r0
 114              		.loc 1 318 23
 115 0076 7B68     		ldr	r3, [r7, #4]
 116 0078 D31A     		subs	r3, r2, r3
 117              		.loc 1 318 7
 118 007a 41F28832 		movw	r2, #5000
 119 007e 9342     		cmp	r3, r2
 120 0080 01D9     		bls	.L6
 319:d:/LiteOS_Lab/drivers/third_party/ST/STM32L4xx_HAL_Driver/Src\stm32l4xx_hal_rcc.c ****     {
 320:d:/LiteOS_Lab/drivers/third_party/ST/STM32L4xx_HAL_Driver/Src\stm32l4xx_hal_rcc.c ****       return HAL_TIMEOUT;
 121              		.loc 1 320 14
 122 0082 0323     		movs	r3, #3
 123 0084 46E0     		b	.L3
 124              	.L6:
 316:d:/LiteOS_Lab/drivers/third_party/ST/STM32L4xx_HAL_Driver/Src\stm32l4xx_hal_rcc.c ****   {
 125              		.loc 1 316 9
 126 0086 254B     		ldr	r3, .L10
 127 0088 9B68     		ldr	r3, [r3, #8]
 128 008a 03F00C03 		and	r3, r3, #12
 316:d:/LiteOS_Lab/drivers/third_party/ST/STM32L4xx_HAL_Driver/Src\stm32l4xx_hal_rcc.c ****   {
 129              		.loc 1 316 8
 130 008e 002B     		cmp	r3, #0
 131 0090 EED1     		bne	.L7
 321:d:/LiteOS_Lab/drivers/third_party/ST/STM32L4xx_HAL_Driver/Src\stm32l4xx_hal_rcc.c ****     }
 322:d:/LiteOS_Lab/drivers/third_party/ST/STM32L4xx_HAL_Driver/Src\stm32l4xx_hal_rcc.c ****   }
ARM GAS  C:\Users\ADMINI~1\AppData\Local\Temp\cc0pkmxZ.s 			page 9


 323:d:/LiteOS_Lab/drivers/third_party/ST/STM32L4xx_HAL_Driver/Src\stm32l4xx_hal_rcc.c **** 
 324:d:/LiteOS_Lab/drivers/third_party/ST/STM32L4xx_HAL_Driver/Src\stm32l4xx_hal_rcc.c ****   /* Reset HSION, HSIKERON, HSIASFS, HSEON, HSECSSON, PLLON, PLLSAIxON bits */
 325:d:/LiteOS_Lab/drivers/third_party/ST/STM32L4xx_HAL_Driver/Src\stm32l4xx_hal_rcc.c **** #if defined(RCC_PLLSAI2_SUPPORT)
 326:d:/LiteOS_Lab/drivers/third_party/ST/STM32L4xx_HAL_Driver/Src\stm32l4xx_hal_rcc.c **** 
 327:d:/LiteOS_Lab/drivers/third_party/ST/STM32L4xx_HAL_Driver/Src\stm32l4xx_hal_rcc.c ****   CLEAR_BIT(RCC->CR, RCC_CR_HSEON | RCC_CR_HSION | RCC_CR_HSIKERON| RCC_CR_HSIASFS | RCC_CR_PLLON |
 328:d:/LiteOS_Lab/drivers/third_party/ST/STM32L4xx_HAL_Driver/Src\stm32l4xx_hal_rcc.c **** 
 329:d:/LiteOS_Lab/drivers/third_party/ST/STM32L4xx_HAL_Driver/Src\stm32l4xx_hal_rcc.c **** #else
 330:d:/LiteOS_Lab/drivers/third_party/ST/STM32L4xx_HAL_Driver/Src\stm32l4xx_hal_rcc.c **** 
 331:d:/LiteOS_Lab/drivers/third_party/ST/STM32L4xx_HAL_Driver/Src\stm32l4xx_hal_rcc.c ****   CLEAR_BIT(RCC->CR, RCC_CR_HSEON | RCC_CR_HSION | RCC_CR_HSIKERON| RCC_CR_HSIASFS | RCC_CR_PLLON |
 132              		.loc 1 331 3
 133 0092 224B     		ldr	r3, .L10
 134 0094 1A68     		ldr	r2, [r3]
 135 0096 2149     		ldr	r1, .L10
 136 0098 234B     		ldr	r3, .L10+12
 137 009a 1340     		ands	r3, r3, r2
 138 009c 0B60     		str	r3, [r1]
 332:d:/LiteOS_Lab/drivers/third_party/ST/STM32L4xx_HAL_Driver/Src\stm32l4xx_hal_rcc.c **** 
 333:d:/LiteOS_Lab/drivers/third_party/ST/STM32L4xx_HAL_Driver/Src\stm32l4xx_hal_rcc.c **** #endif /* RCC_PLLSAI2_SUPPORT */
 334:d:/LiteOS_Lab/drivers/third_party/ST/STM32L4xx_HAL_Driver/Src\stm32l4xx_hal_rcc.c **** 
 335:d:/LiteOS_Lab/drivers/third_party/ST/STM32L4xx_HAL_Driver/Src\stm32l4xx_hal_rcc.c ****   /* Insure PLLRDY, PLLSAI1RDY and PLLSAI2RDY (if present) are reset */
 336:d:/LiteOS_Lab/drivers/third_party/ST/STM32L4xx_HAL_Driver/Src\stm32l4xx_hal_rcc.c ****   /* Get start tick */
 337:d:/LiteOS_Lab/drivers/third_party/ST/STM32L4xx_HAL_Driver/Src\stm32l4xx_hal_rcc.c ****   tickstart = HAL_GetTick();
 139              		.loc 1 337 15
 140 009e FFF7FEFF 		bl	HAL_GetTick
 141 00a2 7860     		str	r0, [r7, #4]
 338:d:/LiteOS_Lab/drivers/third_party/ST/STM32L4xx_HAL_Driver/Src\stm32l4xx_hal_rcc.c **** 
 339:d:/LiteOS_Lab/drivers/third_party/ST/STM32L4xx_HAL_Driver/Src\stm32l4xx_hal_rcc.c **** #if defined(RCC_PLLSAI2_SUPPORT)
 340:d:/LiteOS_Lab/drivers/third_party/ST/STM32L4xx_HAL_Driver/Src\stm32l4xx_hal_rcc.c **** 
 341:d:/LiteOS_Lab/drivers/third_party/ST/STM32L4xx_HAL_Driver/Src\stm32l4xx_hal_rcc.c ****   while(READ_BIT(RCC->CR, RCC_CR_PLLRDY | RCC_CR_PLLSAI1RDY | RCC_CR_PLLSAI2RDY) != 0U)
 342:d:/LiteOS_Lab/drivers/third_party/ST/STM32L4xx_HAL_Driver/Src\stm32l4xx_hal_rcc.c **** 
 343:d:/LiteOS_Lab/drivers/third_party/ST/STM32L4xx_HAL_Driver/Src\stm32l4xx_hal_rcc.c **** #else
 344:d:/LiteOS_Lab/drivers/third_party/ST/STM32L4xx_HAL_Driver/Src\stm32l4xx_hal_rcc.c **** 
 345:d:/LiteOS_Lab/drivers/third_party/ST/STM32L4xx_HAL_Driver/Src\stm32l4xx_hal_rcc.c ****   while(READ_BIT(RCC->CR, RCC_CR_PLLRDY | RCC_CR_PLLSAI1RDY) != 0U)
 142              		.loc 1 345 8
 143 00a4 08E0     		b	.L8
 144              	.L9:
 346:d:/LiteOS_Lab/drivers/third_party/ST/STM32L4xx_HAL_Driver/Src\stm32l4xx_hal_rcc.c **** 
 347:d:/LiteOS_Lab/drivers/third_party/ST/STM32L4xx_HAL_Driver/Src\stm32l4xx_hal_rcc.c **** #endif
 348:d:/LiteOS_Lab/drivers/third_party/ST/STM32L4xx_HAL_Driver/Src\stm32l4xx_hal_rcc.c ****   {
 349:d:/LiteOS_Lab/drivers/third_party/ST/STM32L4xx_HAL_Driver/Src\stm32l4xx_hal_rcc.c ****     if((HAL_GetTick() - tickstart) > PLL_TIMEOUT_VALUE)
 145              		.loc 1 349 9
 146 00a6 FFF7FEFF 		bl	HAL_GetTick
 147 00aa 0246     		mov	r2, r0
 148              		.loc 1 349 23
 149 00ac 7B68     		ldr	r3, [r7, #4]
 150 00ae D31A     		subs	r3, r2, r3
 151              		.loc 1 349 7
 152 00b0 022B     		cmp	r3, #2
 153 00b2 01D9     		bls	.L8
 350:d:/LiteOS_Lab/drivers/third_party/ST/STM32L4xx_HAL_Driver/Src\stm32l4xx_hal_rcc.c ****     {
 351:d:/LiteOS_Lab/drivers/third_party/ST/STM32L4xx_HAL_Driver/Src\stm32l4xx_hal_rcc.c ****       return HAL_TIMEOUT;
 154              		.loc 1 351 14
 155 00b4 0323     		movs	r3, #3
 156 00b6 2DE0     		b	.L3
 157              	.L8:
 345:d:/LiteOS_Lab/drivers/third_party/ST/STM32L4xx_HAL_Driver/Src\stm32l4xx_hal_rcc.c **** 
 158              		.loc 1 345 9
ARM GAS  C:\Users\ADMINI~1\AppData\Local\Temp\cc0pkmxZ.s 			page 10


 159 00b8 184B     		ldr	r3, .L10
 160 00ba 1B68     		ldr	r3, [r3]
 161 00bc 03F02063 		and	r3, r3, #167772160
 345:d:/LiteOS_Lab/drivers/third_party/ST/STM32L4xx_HAL_Driver/Src\stm32l4xx_hal_rcc.c **** 
 162              		.loc 1 345 8
 163 00c0 002B     		cmp	r3, #0
 164 00c2 F0D1     		bne	.L9
 352:d:/LiteOS_Lab/drivers/third_party/ST/STM32L4xx_HAL_Driver/Src\stm32l4xx_hal_rcc.c ****     }
 353:d:/LiteOS_Lab/drivers/third_party/ST/STM32L4xx_HAL_Driver/Src\stm32l4xx_hal_rcc.c ****   }
 354:d:/LiteOS_Lab/drivers/third_party/ST/STM32L4xx_HAL_Driver/Src\stm32l4xx_hal_rcc.c **** 
 355:d:/LiteOS_Lab/drivers/third_party/ST/STM32L4xx_HAL_Driver/Src\stm32l4xx_hal_rcc.c ****   /* Reset PLLCFGR register */
 356:d:/LiteOS_Lab/drivers/third_party/ST/STM32L4xx_HAL_Driver/Src\stm32l4xx_hal_rcc.c ****   CLEAR_REG(RCC->PLLCFGR);
 165              		.loc 1 356 3
 166 00c4 154B     		ldr	r3, .L10
 167 00c6 0022     		movs	r2, #0
 168 00c8 DA60     		str	r2, [r3, #12]
 357:d:/LiteOS_Lab/drivers/third_party/ST/STM32L4xx_HAL_Driver/Src\stm32l4xx_hal_rcc.c ****   SET_BIT(RCC->PLLCFGR, RCC_PLLCFGR_PLLN_4 );
 169              		.loc 1 357 3
 170 00ca 144B     		ldr	r3, .L10
 171 00cc DB68     		ldr	r3, [r3, #12]
 172 00ce 134A     		ldr	r2, .L10
 173 00d0 43F48053 		orr	r3, r3, #4096
 174 00d4 D360     		str	r3, [r2, #12]
 358:d:/LiteOS_Lab/drivers/third_party/ST/STM32L4xx_HAL_Driver/Src\stm32l4xx_hal_rcc.c **** 
 359:d:/LiteOS_Lab/drivers/third_party/ST/STM32L4xx_HAL_Driver/Src\stm32l4xx_hal_rcc.c ****   /* Reset PLLSAI1CFGR register */
 360:d:/LiteOS_Lab/drivers/third_party/ST/STM32L4xx_HAL_Driver/Src\stm32l4xx_hal_rcc.c ****   CLEAR_REG(RCC->PLLSAI1CFGR);
 175              		.loc 1 360 3
 176 00d6 114B     		ldr	r3, .L10
 177 00d8 0022     		movs	r2, #0
 178 00da 1A61     		str	r2, [r3, #16]
 361:d:/LiteOS_Lab/drivers/third_party/ST/STM32L4xx_HAL_Driver/Src\stm32l4xx_hal_rcc.c ****   SET_BIT(RCC->PLLSAI1CFGR,  RCC_PLLSAI1CFGR_PLLSAI1N_4 );
 179              		.loc 1 361 3
 180 00dc 0F4B     		ldr	r3, .L10
 181 00de 1B69     		ldr	r3, [r3, #16]
 182 00e0 0E4A     		ldr	r2, .L10
 183 00e2 43F48053 		orr	r3, r3, #4096
 184 00e6 1361     		str	r3, [r2, #16]
 362:d:/LiteOS_Lab/drivers/third_party/ST/STM32L4xx_HAL_Driver/Src\stm32l4xx_hal_rcc.c **** 
 363:d:/LiteOS_Lab/drivers/third_party/ST/STM32L4xx_HAL_Driver/Src\stm32l4xx_hal_rcc.c **** #if defined(RCC_PLLSAI2_SUPPORT)
 364:d:/LiteOS_Lab/drivers/third_party/ST/STM32L4xx_HAL_Driver/Src\stm32l4xx_hal_rcc.c **** 
 365:d:/LiteOS_Lab/drivers/third_party/ST/STM32L4xx_HAL_Driver/Src\stm32l4xx_hal_rcc.c ****   /* Reset PLLSAI2CFGR register */
 366:d:/LiteOS_Lab/drivers/third_party/ST/STM32L4xx_HAL_Driver/Src\stm32l4xx_hal_rcc.c ****   CLEAR_REG(RCC->PLLSAI2CFGR);
 367:d:/LiteOS_Lab/drivers/third_party/ST/STM32L4xx_HAL_Driver/Src\stm32l4xx_hal_rcc.c ****   SET_BIT(RCC->PLLSAI2CFGR,  RCC_PLLSAI2CFGR_PLLSAI2N_4 );
 368:d:/LiteOS_Lab/drivers/third_party/ST/STM32L4xx_HAL_Driver/Src\stm32l4xx_hal_rcc.c **** 
 369:d:/LiteOS_Lab/drivers/third_party/ST/STM32L4xx_HAL_Driver/Src\stm32l4xx_hal_rcc.c **** #endif /* RCC_PLLSAI2_SUPPORT */
 370:d:/LiteOS_Lab/drivers/third_party/ST/STM32L4xx_HAL_Driver/Src\stm32l4xx_hal_rcc.c **** 
 371:d:/LiteOS_Lab/drivers/third_party/ST/STM32L4xx_HAL_Driver/Src\stm32l4xx_hal_rcc.c ****   /* Reset HSEBYP bit */
 372:d:/LiteOS_Lab/drivers/third_party/ST/STM32L4xx_HAL_Driver/Src\stm32l4xx_hal_rcc.c ****   CLEAR_BIT(RCC->CR, RCC_CR_HSEBYP);
 185              		.loc 1 372 3
 186 00e8 0C4B     		ldr	r3, .L10
 187 00ea 1B68     		ldr	r3, [r3]
 188 00ec 0B4A     		ldr	r2, .L10
 189 00ee 23F48023 		bic	r3, r3, #262144
 190 00f2 1360     		str	r3, [r2]
 373:d:/LiteOS_Lab/drivers/third_party/ST/STM32L4xx_HAL_Driver/Src\stm32l4xx_hal_rcc.c **** 
 374:d:/LiteOS_Lab/drivers/third_party/ST/STM32L4xx_HAL_Driver/Src\stm32l4xx_hal_rcc.c ****   /* Disable all interrupts */
 375:d:/LiteOS_Lab/drivers/third_party/ST/STM32L4xx_HAL_Driver/Src\stm32l4xx_hal_rcc.c ****   CLEAR_REG(RCC->CIER);
ARM GAS  C:\Users\ADMINI~1\AppData\Local\Temp\cc0pkmxZ.s 			page 11


 191              		.loc 1 375 3
 192 00f4 094B     		ldr	r3, .L10
 193 00f6 0022     		movs	r2, #0
 194 00f8 9A61     		str	r2, [r3, #24]
 376:d:/LiteOS_Lab/drivers/third_party/ST/STM32L4xx_HAL_Driver/Src\stm32l4xx_hal_rcc.c **** 
 377:d:/LiteOS_Lab/drivers/third_party/ST/STM32L4xx_HAL_Driver/Src\stm32l4xx_hal_rcc.c ****   /* Clear all interrupt flags */
 378:d:/LiteOS_Lab/drivers/third_party/ST/STM32L4xx_HAL_Driver/Src\stm32l4xx_hal_rcc.c ****   WRITE_REG(RCC->CICR, 0xFFFFFFFFU);
 195              		.loc 1 378 3
 196 00fa 084B     		ldr	r3, .L10
 197 00fc 4FF0FF32 		mov	r2, #-1
 198 0100 1A62     		str	r2, [r3, #32]
 379:d:/LiteOS_Lab/drivers/third_party/ST/STM32L4xx_HAL_Driver/Src\stm32l4xx_hal_rcc.c **** 
 380:d:/LiteOS_Lab/drivers/third_party/ST/STM32L4xx_HAL_Driver/Src\stm32l4xx_hal_rcc.c ****   /* Clear all reset flags */
 381:d:/LiteOS_Lab/drivers/third_party/ST/STM32L4xx_HAL_Driver/Src\stm32l4xx_hal_rcc.c ****   SET_BIT(RCC->CSR, RCC_CSR_RMVF);
 199              		.loc 1 381 3
 200 0102 064B     		ldr	r3, .L10
 201 0104 D3F89430 		ldr	r3, [r3, #148]
 202 0108 044A     		ldr	r2, .L10
 203 010a 43F40003 		orr	r3, r3, #8388608
 204 010e C2F89430 		str	r3, [r2, #148]
 382:d:/LiteOS_Lab/drivers/third_party/ST/STM32L4xx_HAL_Driver/Src\stm32l4xx_hal_rcc.c **** 
 383:d:/LiteOS_Lab/drivers/third_party/ST/STM32L4xx_HAL_Driver/Src\stm32l4xx_hal_rcc.c ****   return HAL_OK;
 205              		.loc 1 383 10
 206 0112 0023     		movs	r3, #0
 207              	.L3:
 384:d:/LiteOS_Lab/drivers/third_party/ST/STM32L4xx_HAL_Driver/Src\stm32l4xx_hal_rcc.c **** }
 208              		.loc 1 384 1
 209 0114 1846     		mov	r0, r3
 210 0116 0837     		adds	r7, r7, #8
 211              	.LCFI3:
 212              		.cfi_def_cfa_offset 8
 213 0118 BD46     		mov	sp, r7
 214              	.LCFI4:
 215              		.cfi_def_cfa_register 13
 216              		@ sp needed
 217 011a 80BD     		pop	{r7, pc}
 218              	.L11:
 219              		.align	2
 220              	.L10:
 221 011c 00100240 		.word	1073876992
 222 0120 00000000 		.word	SystemCoreClock
 223 0124 00093D00 		.word	4000000
 224 0128 FFF4FEFA 		.word	-83954433
 225              		.cfi_endproc
 226              	.LFE287:
 228              		.section	.text.HAL_RCC_OscConfig,"ax",%progbits
 229              		.align	1
 230              		.global	HAL_RCC_OscConfig
 231              		.syntax unified
 232              		.thumb
 233              		.thumb_func
 234              		.fpu fpv4-sp-d16
 236              	HAL_RCC_OscConfig:
 237              	.LFB288:
 385:d:/LiteOS_Lab/drivers/third_party/ST/STM32L4xx_HAL_Driver/Src\stm32l4xx_hal_rcc.c **** 
 386:d:/LiteOS_Lab/drivers/third_party/ST/STM32L4xx_HAL_Driver/Src\stm32l4xx_hal_rcc.c **** /**
 387:d:/LiteOS_Lab/drivers/third_party/ST/STM32L4xx_HAL_Driver/Src\stm32l4xx_hal_rcc.c ****   * @brief  Initialize the RCC Oscillators according to the specified parameters in the
ARM GAS  C:\Users\ADMINI~1\AppData\Local\Temp\cc0pkmxZ.s 			page 12


 388:d:/LiteOS_Lab/drivers/third_party/ST/STM32L4xx_HAL_Driver/Src\stm32l4xx_hal_rcc.c ****   *         RCC_OscInitTypeDef.
 389:d:/LiteOS_Lab/drivers/third_party/ST/STM32L4xx_HAL_Driver/Src\stm32l4xx_hal_rcc.c ****   * @param  RCC_OscInitStruct  pointer to an RCC_OscInitTypeDef structure that
 390:d:/LiteOS_Lab/drivers/third_party/ST/STM32L4xx_HAL_Driver/Src\stm32l4xx_hal_rcc.c ****   *         contains the configuration information for the RCC Oscillators.
 391:d:/LiteOS_Lab/drivers/third_party/ST/STM32L4xx_HAL_Driver/Src\stm32l4xx_hal_rcc.c ****   * @note   The PLL is not disabled when used as system clock.
 392:d:/LiteOS_Lab/drivers/third_party/ST/STM32L4xx_HAL_Driver/Src\stm32l4xx_hal_rcc.c ****   * @note   Transitions LSE Bypass to LSE On and LSE On to LSE Bypass are not
 393:d:/LiteOS_Lab/drivers/third_party/ST/STM32L4xx_HAL_Driver/Src\stm32l4xx_hal_rcc.c ****   *         supported by this macro. User should request a transition to LSE Off
 394:d:/LiteOS_Lab/drivers/third_party/ST/STM32L4xx_HAL_Driver/Src\stm32l4xx_hal_rcc.c ****   *         first and then LSE On or LSE Bypass.
 395:d:/LiteOS_Lab/drivers/third_party/ST/STM32L4xx_HAL_Driver/Src\stm32l4xx_hal_rcc.c ****   * @note   Transition HSE Bypass to HSE On and HSE On to HSE Bypass are not
 396:d:/LiteOS_Lab/drivers/third_party/ST/STM32L4xx_HAL_Driver/Src\stm32l4xx_hal_rcc.c ****   *         supported by this macro. User should request a transition to HSE Off
 397:d:/LiteOS_Lab/drivers/third_party/ST/STM32L4xx_HAL_Driver/Src\stm32l4xx_hal_rcc.c ****   *         first and then HSE On or HSE Bypass.
 398:d:/LiteOS_Lab/drivers/third_party/ST/STM32L4xx_HAL_Driver/Src\stm32l4xx_hal_rcc.c ****   * @retval HAL status
 399:d:/LiteOS_Lab/drivers/third_party/ST/STM32L4xx_HAL_Driver/Src\stm32l4xx_hal_rcc.c ****   */
 400:d:/LiteOS_Lab/drivers/third_party/ST/STM32L4xx_HAL_Driver/Src\stm32l4xx_hal_rcc.c **** HAL_StatusTypeDef HAL_RCC_OscConfig(RCC_OscInitTypeDef  *RCC_OscInitStruct)
 401:d:/LiteOS_Lab/drivers/third_party/ST/STM32L4xx_HAL_Driver/Src\stm32l4xx_hal_rcc.c **** {
 238              		.loc 1 401 1
 239              		.cfi_startproc
 240              		@ args = 0, pretend = 0, frame = 24
 241              		@ frame_needed = 1, uses_anonymous_args = 0
 242 0000 80B5     		push	{r7, lr}
 243              	.LCFI5:
 244              		.cfi_def_cfa_offset 8
 245              		.cfi_offset 7, -8
 246              		.cfi_offset 14, -4
 247 0002 86B0     		sub	sp, sp, #24
 248              	.LCFI6:
 249              		.cfi_def_cfa_offset 32
 250 0004 00AF     		add	r7, sp, #0
 251              	.LCFI7:
 252              		.cfi_def_cfa_register 7
 253 0006 7860     		str	r0, [r7, #4]
 402:d:/LiteOS_Lab/drivers/third_party/ST/STM32L4xx_HAL_Driver/Src\stm32l4xx_hal_rcc.c ****   uint32_t tickstart = 0;
 254              		.loc 1 402 12
 255 0008 0023     		movs	r3, #0
 256 000a 3B61     		str	r3, [r7, #16]
 403:d:/LiteOS_Lab/drivers/third_party/ST/STM32L4xx_HAL_Driver/Src\stm32l4xx_hal_rcc.c **** 
 404:d:/LiteOS_Lab/drivers/third_party/ST/STM32L4xx_HAL_Driver/Src\stm32l4xx_hal_rcc.c ****   /* Check the parameters */
 405:d:/LiteOS_Lab/drivers/third_party/ST/STM32L4xx_HAL_Driver/Src\stm32l4xx_hal_rcc.c ****   assert_param(RCC_OscInitStruct != NULL);
 406:d:/LiteOS_Lab/drivers/third_party/ST/STM32L4xx_HAL_Driver/Src\stm32l4xx_hal_rcc.c ****   assert_param(IS_RCC_OSCILLATORTYPE(RCC_OscInitStruct->OscillatorType));
 407:d:/LiteOS_Lab/drivers/third_party/ST/STM32L4xx_HAL_Driver/Src\stm32l4xx_hal_rcc.c **** 
 408:d:/LiteOS_Lab/drivers/third_party/ST/STM32L4xx_HAL_Driver/Src\stm32l4xx_hal_rcc.c ****   /*----------------------------- MSI Configuration --------------------------*/
 409:d:/LiteOS_Lab/drivers/third_party/ST/STM32L4xx_HAL_Driver/Src\stm32l4xx_hal_rcc.c ****   if(((RCC_OscInitStruct->OscillatorType) & RCC_OSCILLATORTYPE_MSI) == RCC_OSCILLATORTYPE_MSI)
 257              		.loc 1 409 25
 258 000c 7B68     		ldr	r3, [r7, #4]
 259 000e 1B68     		ldr	r3, [r3]
 260              		.loc 1 409 43
 261 0010 03F01003 		and	r3, r3, #16
 262              		.loc 1 409 5
 263 0014 002B     		cmp	r3, #0
 264 0016 00F0D080 		beq	.L13
 410:d:/LiteOS_Lab/drivers/third_party/ST/STM32L4xx_HAL_Driver/Src\stm32l4xx_hal_rcc.c ****   {
 411:d:/LiteOS_Lab/drivers/third_party/ST/STM32L4xx_HAL_Driver/Src\stm32l4xx_hal_rcc.c ****     /* Check the parameters */
 412:d:/LiteOS_Lab/drivers/third_party/ST/STM32L4xx_HAL_Driver/Src\stm32l4xx_hal_rcc.c ****     assert_param(IS_RCC_MSI(RCC_OscInitStruct->MSIState));
 413:d:/LiteOS_Lab/drivers/third_party/ST/STM32L4xx_HAL_Driver/Src\stm32l4xx_hal_rcc.c ****     assert_param(IS_RCC_MSICALIBRATION_VALUE(RCC_OscInitStruct->MSICalibrationValue));
 414:d:/LiteOS_Lab/drivers/third_party/ST/STM32L4xx_HAL_Driver/Src\stm32l4xx_hal_rcc.c ****     assert_param(IS_RCC_MSI_CLOCK_RANGE(RCC_OscInitStruct->MSIClockRange));
 415:d:/LiteOS_Lab/drivers/third_party/ST/STM32L4xx_HAL_Driver/Src\stm32l4xx_hal_rcc.c **** 
 416:d:/LiteOS_Lab/drivers/third_party/ST/STM32L4xx_HAL_Driver/Src\stm32l4xx_hal_rcc.c ****     /* When the MSI is used as system clock it will not be disabled */
 417:d:/LiteOS_Lab/drivers/third_party/ST/STM32L4xx_HAL_Driver/Src\stm32l4xx_hal_rcc.c ****     if((__HAL_RCC_GET_SYSCLK_SOURCE() == RCC_CFGR_SWS_MSI) )
ARM GAS  C:\Users\ADMINI~1\AppData\Local\Temp\cc0pkmxZ.s 			page 13


 265              		.loc 1 417 9
 266 001a A14B     		ldr	r3, .L85
 267 001c 9B68     		ldr	r3, [r3, #8]
 268 001e 03F00C03 		and	r3, r3, #12
 269              		.loc 1 417 7
 270 0022 002B     		cmp	r3, #0
 271 0024 79D1     		bne	.L14
 418:d:/LiteOS_Lab/drivers/third_party/ST/STM32L4xx_HAL_Driver/Src\stm32l4xx_hal_rcc.c ****     {
 419:d:/LiteOS_Lab/drivers/third_party/ST/STM32L4xx_HAL_Driver/Src\stm32l4xx_hal_rcc.c ****       if((READ_BIT(RCC->CR, RCC_CR_MSIRDY) != RESET) && (RCC_OscInitStruct->MSIState == RCC_MSI_OFF
 272              		.loc 1 419 11
 273 0026 9E4B     		ldr	r3, .L85
 274 0028 1B68     		ldr	r3, [r3]
 275 002a 03F00203 		and	r3, r3, #2
 276              		.loc 1 419 9
 277 002e 002B     		cmp	r3, #0
 278 0030 05D0     		beq	.L15
 279              		.loc 1 419 75 discriminator 1
 280 0032 7B68     		ldr	r3, [r7, #4]
 281 0034 9B69     		ldr	r3, [r3, #24]
 282              		.loc 1 419 54 discriminator 1
 283 0036 002B     		cmp	r3, #0
 284 0038 01D1     		bne	.L15
 420:d:/LiteOS_Lab/drivers/third_party/ST/STM32L4xx_HAL_Driver/Src\stm32l4xx_hal_rcc.c ****       {
 421:d:/LiteOS_Lab/drivers/third_party/ST/STM32L4xx_HAL_Driver/Src\stm32l4xx_hal_rcc.c ****         return HAL_ERROR;
 285              		.loc 1 421 16
 286 003a 0123     		movs	r3, #1
 287 003c 78E3     		b	.L16
 288              	.L15:
 422:d:/LiteOS_Lab/drivers/third_party/ST/STM32L4xx_HAL_Driver/Src\stm32l4xx_hal_rcc.c ****       }
 423:d:/LiteOS_Lab/drivers/third_party/ST/STM32L4xx_HAL_Driver/Src\stm32l4xx_hal_rcc.c **** 
 424:d:/LiteOS_Lab/drivers/third_party/ST/STM32L4xx_HAL_Driver/Src\stm32l4xx_hal_rcc.c ****        /* Otherwise, just the calibration and MSI range change are allowed */
 425:d:/LiteOS_Lab/drivers/third_party/ST/STM32L4xx_HAL_Driver/Src\stm32l4xx_hal_rcc.c ****       else
 426:d:/LiteOS_Lab/drivers/third_party/ST/STM32L4xx_HAL_Driver/Src\stm32l4xx_hal_rcc.c ****       {
 427:d:/LiteOS_Lab/drivers/third_party/ST/STM32L4xx_HAL_Driver/Src\stm32l4xx_hal_rcc.c ****         /* To correctly read data from FLASH memory, the number of wait states (LATENCY)
 428:d:/LiteOS_Lab/drivers/third_party/ST/STM32L4xx_HAL_Driver/Src\stm32l4xx_hal_rcc.c ****            must be correctly programmed according to the frequency of the CPU clock
 429:d:/LiteOS_Lab/drivers/third_party/ST/STM32L4xx_HAL_Driver/Src\stm32l4xx_hal_rcc.c ****            (HCLK) and the supply voltage of the device. */
 430:d:/LiteOS_Lab/drivers/third_party/ST/STM32L4xx_HAL_Driver/Src\stm32l4xx_hal_rcc.c ****         if(RCC_OscInitStruct->MSIClockRange > __HAL_RCC_GET_MSI_RANGE())
 289              		.loc 1 430 29
 290 003e 7B68     		ldr	r3, [r7, #4]
 291 0040 1A6A     		ldr	r2, [r3, #32]
 292              		.loc 1 430 47
 293 0042 974B     		ldr	r3, .L85
 294 0044 1B68     		ldr	r3, [r3]
 295 0046 03F00803 		and	r3, r3, #8
 296 004a 002B     		cmp	r3, #0
 297 004c 04D0     		beq	.L17
 298              		.loc 1 430 47 is_stmt 0 discriminator 1
 299 004e 944B     		ldr	r3, .L85
 300 0050 1B68     		ldr	r3, [r3]
 301 0052 03F0F003 		and	r3, r3, #240
 302 0056 05E0     		b	.L18
 303              	.L17:
 304              		.loc 1 430 47 discriminator 2
 305 0058 914B     		ldr	r3, .L85
 306 005a D3F89430 		ldr	r3, [r3, #148]
 307 005e 1B09     		lsrs	r3, r3, #4
 308 0060 03F0F003 		and	r3, r3, #240
ARM GAS  C:\Users\ADMINI~1\AppData\Local\Temp\cc0pkmxZ.s 			page 14


 309              	.L18:
 310              		.loc 1 430 11 is_stmt 1 discriminator 4
 311 0064 9342     		cmp	r3, r2
 312 0066 23D2     		bcs	.L19
 431:d:/LiteOS_Lab/drivers/third_party/ST/STM32L4xx_HAL_Driver/Src\stm32l4xx_hal_rcc.c ****         {
 432:d:/LiteOS_Lab/drivers/third_party/ST/STM32L4xx_HAL_Driver/Src\stm32l4xx_hal_rcc.c ****           /* First increase number of wait states update if necessary */
 433:d:/LiteOS_Lab/drivers/third_party/ST/STM32L4xx_HAL_Driver/Src\stm32l4xx_hal_rcc.c ****           if(RCC_SetFlashLatencyFromMSIRange(RCC_OscInitStruct->MSIClockRange) != HAL_OK)
 313              		.loc 1 433 14
 314 0068 7B68     		ldr	r3, [r7, #4]
 315 006a 1B6A     		ldr	r3, [r3, #32]
 316 006c 1846     		mov	r0, r3
 317 006e FFF7FEFF 		bl	RCC_SetFlashLatencyFromMSIRange
 318 0072 0346     		mov	r3, r0
 319              		.loc 1 433 13
 320 0074 002B     		cmp	r3, #0
 321 0076 01D0     		beq	.L20
 434:d:/LiteOS_Lab/drivers/third_party/ST/STM32L4xx_HAL_Driver/Src\stm32l4xx_hal_rcc.c ****           {
 435:d:/LiteOS_Lab/drivers/third_party/ST/STM32L4xx_HAL_Driver/Src\stm32l4xx_hal_rcc.c ****             return HAL_ERROR;
 322              		.loc 1 435 20
 323 0078 0123     		movs	r3, #1
 324 007a 59E3     		b	.L16
 325              	.L20:
 436:d:/LiteOS_Lab/drivers/third_party/ST/STM32L4xx_HAL_Driver/Src\stm32l4xx_hal_rcc.c ****           }
 437:d:/LiteOS_Lab/drivers/third_party/ST/STM32L4xx_HAL_Driver/Src\stm32l4xx_hal_rcc.c **** 
 438:d:/LiteOS_Lab/drivers/third_party/ST/STM32L4xx_HAL_Driver/Src\stm32l4xx_hal_rcc.c ****           /* Selects the Multiple Speed oscillator (MSI) clock range .*/
 439:d:/LiteOS_Lab/drivers/third_party/ST/STM32L4xx_HAL_Driver/Src\stm32l4xx_hal_rcc.c ****           __HAL_RCC_MSI_RANGE_CONFIG(RCC_OscInitStruct->MSIClockRange);
 326              		.loc 1 439 11
 327 007c 884B     		ldr	r3, .L85
 328 007e 1B68     		ldr	r3, [r3]
 329 0080 874A     		ldr	r2, .L85
 330 0082 43F00803 		orr	r3, r3, #8
 331 0086 1360     		str	r3, [r2]
 332 0088 854B     		ldr	r3, .L85
 333 008a 1B68     		ldr	r3, [r3]
 334 008c 23F0F002 		bic	r2, r3, #240
 335 0090 7B68     		ldr	r3, [r7, #4]
 336 0092 1B6A     		ldr	r3, [r3, #32]
 337 0094 8249     		ldr	r1, .L85
 338 0096 1343     		orrs	r3, r3, r2
 339 0098 0B60     		str	r3, [r1]
 440:d:/LiteOS_Lab/drivers/third_party/ST/STM32L4xx_HAL_Driver/Src\stm32l4xx_hal_rcc.c ****           /* Adjusts the Multiple Speed oscillator (MSI) calibration value.*/
 441:d:/LiteOS_Lab/drivers/third_party/ST/STM32L4xx_HAL_Driver/Src\stm32l4xx_hal_rcc.c ****           __HAL_RCC_MSI_CALIBRATIONVALUE_ADJUST(RCC_OscInitStruct->MSICalibrationValue);
 340              		.loc 1 441 11
 341 009a 814B     		ldr	r3, .L85
 342 009c 5B68     		ldr	r3, [r3, #4]
 343 009e 23F47F42 		bic	r2, r3, #65280
 344 00a2 7B68     		ldr	r3, [r7, #4]
 345 00a4 DB69     		ldr	r3, [r3, #28]
 346 00a6 1B02     		lsls	r3, r3, #8
 347 00a8 7D49     		ldr	r1, .L85
 348 00aa 1343     		orrs	r3, r3, r2
 349 00ac 4B60     		str	r3, [r1, #4]
 350 00ae 22E0     		b	.L21
 351              	.L19:
 442:d:/LiteOS_Lab/drivers/third_party/ST/STM32L4xx_HAL_Driver/Src\stm32l4xx_hal_rcc.c ****         }
 443:d:/LiteOS_Lab/drivers/third_party/ST/STM32L4xx_HAL_Driver/Src\stm32l4xx_hal_rcc.c ****         else
 444:d:/LiteOS_Lab/drivers/third_party/ST/STM32L4xx_HAL_Driver/Src\stm32l4xx_hal_rcc.c ****         {
ARM GAS  C:\Users\ADMINI~1\AppData\Local\Temp\cc0pkmxZ.s 			page 15


 445:d:/LiteOS_Lab/drivers/third_party/ST/STM32L4xx_HAL_Driver/Src\stm32l4xx_hal_rcc.c ****           /* Else, keep current flash latency while decreasing applies */
 446:d:/LiteOS_Lab/drivers/third_party/ST/STM32L4xx_HAL_Driver/Src\stm32l4xx_hal_rcc.c ****           /* Selects the Multiple Speed oscillator (MSI) clock range .*/
 447:d:/LiteOS_Lab/drivers/third_party/ST/STM32L4xx_HAL_Driver/Src\stm32l4xx_hal_rcc.c ****           __HAL_RCC_MSI_RANGE_CONFIG(RCC_OscInitStruct->MSIClockRange);
 352              		.loc 1 447 11
 353 00b0 7B4B     		ldr	r3, .L85
 354 00b2 1B68     		ldr	r3, [r3]
 355 00b4 7A4A     		ldr	r2, .L85
 356 00b6 43F00803 		orr	r3, r3, #8
 357 00ba 1360     		str	r3, [r2]
 358 00bc 784B     		ldr	r3, .L85
 359 00be 1B68     		ldr	r3, [r3]
 360 00c0 23F0F002 		bic	r2, r3, #240
 361 00c4 7B68     		ldr	r3, [r7, #4]
 362 00c6 1B6A     		ldr	r3, [r3, #32]
 363 00c8 7549     		ldr	r1, .L85
 364 00ca 1343     		orrs	r3, r3, r2
 365 00cc 0B60     		str	r3, [r1]
 448:d:/LiteOS_Lab/drivers/third_party/ST/STM32L4xx_HAL_Driver/Src\stm32l4xx_hal_rcc.c ****           /* Adjusts the Multiple Speed oscillator (MSI) calibration value.*/
 449:d:/LiteOS_Lab/drivers/third_party/ST/STM32L4xx_HAL_Driver/Src\stm32l4xx_hal_rcc.c ****           __HAL_RCC_MSI_CALIBRATIONVALUE_ADJUST(RCC_OscInitStruct->MSICalibrationValue);
 366              		.loc 1 449 11
 367 00ce 744B     		ldr	r3, .L85
 368 00d0 5B68     		ldr	r3, [r3, #4]
 369 00d2 23F47F42 		bic	r2, r3, #65280
 370 00d6 7B68     		ldr	r3, [r7, #4]
 371 00d8 DB69     		ldr	r3, [r3, #28]
 372 00da 1B02     		lsls	r3, r3, #8
 373 00dc 7049     		ldr	r1, .L85
 374 00de 1343     		orrs	r3, r3, r2
 375 00e0 4B60     		str	r3, [r1, #4]
 450:d:/LiteOS_Lab/drivers/third_party/ST/STM32L4xx_HAL_Driver/Src\stm32l4xx_hal_rcc.c **** 
 451:d:/LiteOS_Lab/drivers/third_party/ST/STM32L4xx_HAL_Driver/Src\stm32l4xx_hal_rcc.c ****           /* Decrease number of wait states update if necessary */
 452:d:/LiteOS_Lab/drivers/third_party/ST/STM32L4xx_HAL_Driver/Src\stm32l4xx_hal_rcc.c ****           if(RCC_SetFlashLatencyFromMSIRange(RCC_OscInitStruct->MSIClockRange) != HAL_OK)
 376              		.loc 1 452 14
 377 00e2 7B68     		ldr	r3, [r7, #4]
 378 00e4 1B6A     		ldr	r3, [r3, #32]
 379 00e6 1846     		mov	r0, r3
 380 00e8 FFF7FEFF 		bl	RCC_SetFlashLatencyFromMSIRange
 381 00ec 0346     		mov	r3, r0
 382              		.loc 1 452 13
 383 00ee 002B     		cmp	r3, #0
 384 00f0 01D0     		beq	.L21
 453:d:/LiteOS_Lab/drivers/third_party/ST/STM32L4xx_HAL_Driver/Src\stm32l4xx_hal_rcc.c ****           {
 454:d:/LiteOS_Lab/drivers/third_party/ST/STM32L4xx_HAL_Driver/Src\stm32l4xx_hal_rcc.c ****             return HAL_ERROR;
 385              		.loc 1 454 20
 386 00f2 0123     		movs	r3, #1
 387 00f4 1CE3     		b	.L16
 388              	.L21:
 455:d:/LiteOS_Lab/drivers/third_party/ST/STM32L4xx_HAL_Driver/Src\stm32l4xx_hal_rcc.c ****           }
 456:d:/LiteOS_Lab/drivers/third_party/ST/STM32L4xx_HAL_Driver/Src\stm32l4xx_hal_rcc.c ****         }
 457:d:/LiteOS_Lab/drivers/third_party/ST/STM32L4xx_HAL_Driver/Src\stm32l4xx_hal_rcc.c **** 
 458:d:/LiteOS_Lab/drivers/third_party/ST/STM32L4xx_HAL_Driver/Src\stm32l4xx_hal_rcc.c ****         /* Update the SystemCoreClock global variable */
 459:d:/LiteOS_Lab/drivers/third_party/ST/STM32L4xx_HAL_Driver/Src\stm32l4xx_hal_rcc.c ****         SystemCoreClock = HAL_RCC_GetSysClockFreq() >> AHBPrescTable[READ_BIT(RCC->CFGR, RCC_CFGR_H
 389              		.loc 1 459 27
 390 00f6 FFF7FEFF 		bl	HAL_RCC_GetSysClockFreq
 391 00fa 0246     		mov	r2, r0
 392              		.loc 1 459 70
 393 00fc 684B     		ldr	r3, .L85
ARM GAS  C:\Users\ADMINI~1\AppData\Local\Temp\cc0pkmxZ.s 			page 16


 394 00fe 9B68     		ldr	r3, [r3, #8]
 395              		.loc 1 459 105
 396 0100 1B09     		lsrs	r3, r3, #4
 397 0102 03F00F03 		and	r3, r3, #15
 398              		.loc 1 459 69
 399 0106 6749     		ldr	r1, .L85+4
 400 0108 CB5C     		ldrb	r3, [r1, r3]	@ zero_extendqisi2
 401              		.loc 1 459 53
 402 010a 22FA03F3 		lsr	r3, r2, r3
 403              		.loc 1 459 25
 404 010e 664A     		ldr	r2, .L85+8
 405 0110 1360     		str	r3, [r2]
 460:d:/LiteOS_Lab/drivers/third_party/ST/STM32L4xx_HAL_Driver/Src\stm32l4xx_hal_rcc.c **** 
 461:d:/LiteOS_Lab/drivers/third_party/ST/STM32L4xx_HAL_Driver/Src\stm32l4xx_hal_rcc.c ****         /* Configure the source of time base considering new system clocks settings*/
 462:d:/LiteOS_Lab/drivers/third_party/ST/STM32L4xx_HAL_Driver/Src\stm32l4xx_hal_rcc.c ****         HAL_InitTick (TICK_INT_PRIORITY);
 406              		.loc 1 462 9
 407 0112 0020     		movs	r0, #0
 408 0114 FFF7FEFF 		bl	HAL_InitTick
 409 0118 4FE0     		b	.L13
 410              	.L14:
 463:d:/LiteOS_Lab/drivers/third_party/ST/STM32L4xx_HAL_Driver/Src\stm32l4xx_hal_rcc.c ****       }
 464:d:/LiteOS_Lab/drivers/third_party/ST/STM32L4xx_HAL_Driver/Src\stm32l4xx_hal_rcc.c ****     }
 465:d:/LiteOS_Lab/drivers/third_party/ST/STM32L4xx_HAL_Driver/Src\stm32l4xx_hal_rcc.c ****     else
 466:d:/LiteOS_Lab/drivers/third_party/ST/STM32L4xx_HAL_Driver/Src\stm32l4xx_hal_rcc.c ****     {
 467:d:/LiteOS_Lab/drivers/third_party/ST/STM32L4xx_HAL_Driver/Src\stm32l4xx_hal_rcc.c ****       /* Check the MSI State */
 468:d:/LiteOS_Lab/drivers/third_party/ST/STM32L4xx_HAL_Driver/Src\stm32l4xx_hal_rcc.c ****       if(RCC_OscInitStruct->MSIState != RCC_MSI_OFF)
 411              		.loc 1 468 27
 412 011a 7B68     		ldr	r3, [r7, #4]
 413 011c 9B69     		ldr	r3, [r3, #24]
 414              		.loc 1 468 9
 415 011e 002B     		cmp	r3, #0
 416 0120 32D0     		beq	.L22
 469:d:/LiteOS_Lab/drivers/third_party/ST/STM32L4xx_HAL_Driver/Src\stm32l4xx_hal_rcc.c ****       {
 470:d:/LiteOS_Lab/drivers/third_party/ST/STM32L4xx_HAL_Driver/Src\stm32l4xx_hal_rcc.c ****         /* Enable the Internal High Speed oscillator (MSI). */
 471:d:/LiteOS_Lab/drivers/third_party/ST/STM32L4xx_HAL_Driver/Src\stm32l4xx_hal_rcc.c ****         __HAL_RCC_MSI_ENABLE();
 417              		.loc 1 471 9
 418 0122 5F4B     		ldr	r3, .L85
 419 0124 1B68     		ldr	r3, [r3]
 420 0126 5E4A     		ldr	r2, .L85
 421 0128 43F00103 		orr	r3, r3, #1
 422 012c 1360     		str	r3, [r2]
 472:d:/LiteOS_Lab/drivers/third_party/ST/STM32L4xx_HAL_Driver/Src\stm32l4xx_hal_rcc.c **** 
 473:d:/LiteOS_Lab/drivers/third_party/ST/STM32L4xx_HAL_Driver/Src\stm32l4xx_hal_rcc.c ****         /* Get timeout */
 474:d:/LiteOS_Lab/drivers/third_party/ST/STM32L4xx_HAL_Driver/Src\stm32l4xx_hal_rcc.c ****         tickstart = HAL_GetTick();
 423              		.loc 1 474 21
 424 012e FFF7FEFF 		bl	HAL_GetTick
 425 0132 3861     		str	r0, [r7, #16]
 475:d:/LiteOS_Lab/drivers/third_party/ST/STM32L4xx_HAL_Driver/Src\stm32l4xx_hal_rcc.c **** 
 476:d:/LiteOS_Lab/drivers/third_party/ST/STM32L4xx_HAL_Driver/Src\stm32l4xx_hal_rcc.c ****         /* Wait till MSI is ready */
 477:d:/LiteOS_Lab/drivers/third_party/ST/STM32L4xx_HAL_Driver/Src\stm32l4xx_hal_rcc.c ****         while(READ_BIT(RCC->CR, RCC_CR_MSIRDY) == RESET)
 426              		.loc 1 477 14
 427 0134 08E0     		b	.L23
 428              	.L24:
 478:d:/LiteOS_Lab/drivers/third_party/ST/STM32L4xx_HAL_Driver/Src\stm32l4xx_hal_rcc.c ****         {
 479:d:/LiteOS_Lab/drivers/third_party/ST/STM32L4xx_HAL_Driver/Src\stm32l4xx_hal_rcc.c ****           if((HAL_GetTick() - tickstart) > MSI_TIMEOUT_VALUE)
 429              		.loc 1 479 15
 430 0136 FFF7FEFF 		bl	HAL_GetTick
ARM GAS  C:\Users\ADMINI~1\AppData\Local\Temp\cc0pkmxZ.s 			page 17


 431 013a 0246     		mov	r2, r0
 432              		.loc 1 479 29
 433 013c 3B69     		ldr	r3, [r7, #16]
 434 013e D31A     		subs	r3, r2, r3
 435              		.loc 1 479 13
 436 0140 022B     		cmp	r3, #2
 437 0142 01D9     		bls	.L23
 480:d:/LiteOS_Lab/drivers/third_party/ST/STM32L4xx_HAL_Driver/Src\stm32l4xx_hal_rcc.c ****           {
 481:d:/LiteOS_Lab/drivers/third_party/ST/STM32L4xx_HAL_Driver/Src\stm32l4xx_hal_rcc.c ****             return HAL_TIMEOUT;
 438              		.loc 1 481 20
 439 0144 0323     		movs	r3, #3
 440 0146 F3E2     		b	.L16
 441              	.L23:
 477:d:/LiteOS_Lab/drivers/third_party/ST/STM32L4xx_HAL_Driver/Src\stm32l4xx_hal_rcc.c ****         {
 442              		.loc 1 477 15
 443 0148 554B     		ldr	r3, .L85
 444 014a 1B68     		ldr	r3, [r3]
 445 014c 03F00203 		and	r3, r3, #2
 477:d:/LiteOS_Lab/drivers/third_party/ST/STM32L4xx_HAL_Driver/Src\stm32l4xx_hal_rcc.c ****         {
 446              		.loc 1 477 14
 447 0150 002B     		cmp	r3, #0
 448 0152 F0D0     		beq	.L24
 482:d:/LiteOS_Lab/drivers/third_party/ST/STM32L4xx_HAL_Driver/Src\stm32l4xx_hal_rcc.c ****           }
 483:d:/LiteOS_Lab/drivers/third_party/ST/STM32L4xx_HAL_Driver/Src\stm32l4xx_hal_rcc.c ****         }
 484:d:/LiteOS_Lab/drivers/third_party/ST/STM32L4xx_HAL_Driver/Src\stm32l4xx_hal_rcc.c ****          /* Selects the Multiple Speed oscillator (MSI) clock range .*/
 485:d:/LiteOS_Lab/drivers/third_party/ST/STM32L4xx_HAL_Driver/Src\stm32l4xx_hal_rcc.c ****         __HAL_RCC_MSI_RANGE_CONFIG(RCC_OscInitStruct->MSIClockRange);
 449              		.loc 1 485 9
 450 0154 524B     		ldr	r3, .L85
 451 0156 1B68     		ldr	r3, [r3]
 452 0158 514A     		ldr	r2, .L85
 453 015a 43F00803 		orr	r3, r3, #8
 454 015e 1360     		str	r3, [r2]
 455 0160 4F4B     		ldr	r3, .L85
 456 0162 1B68     		ldr	r3, [r3]
 457 0164 23F0F002 		bic	r2, r3, #240
 458 0168 7B68     		ldr	r3, [r7, #4]
 459 016a 1B6A     		ldr	r3, [r3, #32]
 460 016c 4C49     		ldr	r1, .L85
 461 016e 1343     		orrs	r3, r3, r2
 462 0170 0B60     		str	r3, [r1]
 486:d:/LiteOS_Lab/drivers/third_party/ST/STM32L4xx_HAL_Driver/Src\stm32l4xx_hal_rcc.c ****          /* Adjusts the Multiple Speed oscillator (MSI) calibration value.*/
 487:d:/LiteOS_Lab/drivers/third_party/ST/STM32L4xx_HAL_Driver/Src\stm32l4xx_hal_rcc.c ****         __HAL_RCC_MSI_CALIBRATIONVALUE_ADJUST(RCC_OscInitStruct->MSICalibrationValue);
 463              		.loc 1 487 9
 464 0172 4B4B     		ldr	r3, .L85
 465 0174 5B68     		ldr	r3, [r3, #4]
 466 0176 23F47F42 		bic	r2, r3, #65280
 467 017a 7B68     		ldr	r3, [r7, #4]
 468 017c DB69     		ldr	r3, [r3, #28]
 469 017e 1B02     		lsls	r3, r3, #8
 470 0180 4749     		ldr	r1, .L85
 471 0182 1343     		orrs	r3, r3, r2
 472 0184 4B60     		str	r3, [r1, #4]
 473 0186 18E0     		b	.L13
 474              	.L22:
 488:d:/LiteOS_Lab/drivers/third_party/ST/STM32L4xx_HAL_Driver/Src\stm32l4xx_hal_rcc.c **** 
 489:d:/LiteOS_Lab/drivers/third_party/ST/STM32L4xx_HAL_Driver/Src\stm32l4xx_hal_rcc.c ****       }
 490:d:/LiteOS_Lab/drivers/third_party/ST/STM32L4xx_HAL_Driver/Src\stm32l4xx_hal_rcc.c ****       else
ARM GAS  C:\Users\ADMINI~1\AppData\Local\Temp\cc0pkmxZ.s 			page 18


 491:d:/LiteOS_Lab/drivers/third_party/ST/STM32L4xx_HAL_Driver/Src\stm32l4xx_hal_rcc.c ****       {
 492:d:/LiteOS_Lab/drivers/third_party/ST/STM32L4xx_HAL_Driver/Src\stm32l4xx_hal_rcc.c ****         /* Disable the Internal High Speed oscillator (MSI). */
 493:d:/LiteOS_Lab/drivers/third_party/ST/STM32L4xx_HAL_Driver/Src\stm32l4xx_hal_rcc.c ****         __HAL_RCC_MSI_DISABLE();
 475              		.loc 1 493 9
 476 0188 454B     		ldr	r3, .L85
 477 018a 1B68     		ldr	r3, [r3]
 478 018c 444A     		ldr	r2, .L85
 479 018e 23F00103 		bic	r3, r3, #1
 480 0192 1360     		str	r3, [r2]
 494:d:/LiteOS_Lab/drivers/third_party/ST/STM32L4xx_HAL_Driver/Src\stm32l4xx_hal_rcc.c **** 
 495:d:/LiteOS_Lab/drivers/third_party/ST/STM32L4xx_HAL_Driver/Src\stm32l4xx_hal_rcc.c ****         /* Get timeout */
 496:d:/LiteOS_Lab/drivers/third_party/ST/STM32L4xx_HAL_Driver/Src\stm32l4xx_hal_rcc.c ****         tickstart = HAL_GetTick();
 481              		.loc 1 496 21
 482 0194 FFF7FEFF 		bl	HAL_GetTick
 483 0198 3861     		str	r0, [r7, #16]
 497:d:/LiteOS_Lab/drivers/third_party/ST/STM32L4xx_HAL_Driver/Src\stm32l4xx_hal_rcc.c **** 
 498:d:/LiteOS_Lab/drivers/third_party/ST/STM32L4xx_HAL_Driver/Src\stm32l4xx_hal_rcc.c ****         /* Wait till MSI is ready */
 499:d:/LiteOS_Lab/drivers/third_party/ST/STM32L4xx_HAL_Driver/Src\stm32l4xx_hal_rcc.c ****         while(READ_BIT(RCC->CR, RCC_CR_MSIRDY) != RESET)
 484              		.loc 1 499 14
 485 019a 08E0     		b	.L25
 486              	.L26:
 500:d:/LiteOS_Lab/drivers/third_party/ST/STM32L4xx_HAL_Driver/Src\stm32l4xx_hal_rcc.c ****         {
 501:d:/LiteOS_Lab/drivers/third_party/ST/STM32L4xx_HAL_Driver/Src\stm32l4xx_hal_rcc.c ****           if((HAL_GetTick() - tickstart) > MSI_TIMEOUT_VALUE)
 487              		.loc 1 501 15
 488 019c FFF7FEFF 		bl	HAL_GetTick
 489 01a0 0246     		mov	r2, r0
 490              		.loc 1 501 29
 491 01a2 3B69     		ldr	r3, [r7, #16]
 492 01a4 D31A     		subs	r3, r2, r3
 493              		.loc 1 501 13
 494 01a6 022B     		cmp	r3, #2
 495 01a8 01D9     		bls	.L25
 502:d:/LiteOS_Lab/drivers/third_party/ST/STM32L4xx_HAL_Driver/Src\stm32l4xx_hal_rcc.c ****           {
 503:d:/LiteOS_Lab/drivers/third_party/ST/STM32L4xx_HAL_Driver/Src\stm32l4xx_hal_rcc.c ****             return HAL_TIMEOUT;
 496              		.loc 1 503 20
 497 01aa 0323     		movs	r3, #3
 498 01ac C0E2     		b	.L16
 499              	.L25:
 499:d:/LiteOS_Lab/drivers/third_party/ST/STM32L4xx_HAL_Driver/Src\stm32l4xx_hal_rcc.c ****         {
 500              		.loc 1 499 15
 501 01ae 3C4B     		ldr	r3, .L85
 502 01b0 1B68     		ldr	r3, [r3]
 503 01b2 03F00203 		and	r3, r3, #2
 499:d:/LiteOS_Lab/drivers/third_party/ST/STM32L4xx_HAL_Driver/Src\stm32l4xx_hal_rcc.c ****         {
 504              		.loc 1 499 14
 505 01b6 002B     		cmp	r3, #0
 506 01b8 F0D1     		bne	.L26
 507              	.L13:
 504:d:/LiteOS_Lab/drivers/third_party/ST/STM32L4xx_HAL_Driver/Src\stm32l4xx_hal_rcc.c ****           }
 505:d:/LiteOS_Lab/drivers/third_party/ST/STM32L4xx_HAL_Driver/Src\stm32l4xx_hal_rcc.c ****         }
 506:d:/LiteOS_Lab/drivers/third_party/ST/STM32L4xx_HAL_Driver/Src\stm32l4xx_hal_rcc.c ****       }
 507:d:/LiteOS_Lab/drivers/third_party/ST/STM32L4xx_HAL_Driver/Src\stm32l4xx_hal_rcc.c ****     }
 508:d:/LiteOS_Lab/drivers/third_party/ST/STM32L4xx_HAL_Driver/Src\stm32l4xx_hal_rcc.c ****   }
 509:d:/LiteOS_Lab/drivers/third_party/ST/STM32L4xx_HAL_Driver/Src\stm32l4xx_hal_rcc.c ****   /*------------------------------- HSE Configuration ------------------------*/
 510:d:/LiteOS_Lab/drivers/third_party/ST/STM32L4xx_HAL_Driver/Src\stm32l4xx_hal_rcc.c ****   if(((RCC_OscInitStruct->OscillatorType) & RCC_OSCILLATORTYPE_HSE) == RCC_OSCILLATORTYPE_HSE)
 508              		.loc 1 510 25
 509 01ba 7B68     		ldr	r3, [r7, #4]
ARM GAS  C:\Users\ADMINI~1\AppData\Local\Temp\cc0pkmxZ.s 			page 19


 510 01bc 1B68     		ldr	r3, [r3]
 511              		.loc 1 510 43
 512 01be 03F00103 		and	r3, r3, #1
 513              		.loc 1 510 5
 514 01c2 002B     		cmp	r3, #0
 515 01c4 7AD0     		beq	.L27
 511:d:/LiteOS_Lab/drivers/third_party/ST/STM32L4xx_HAL_Driver/Src\stm32l4xx_hal_rcc.c ****   {
 512:d:/LiteOS_Lab/drivers/third_party/ST/STM32L4xx_HAL_Driver/Src\stm32l4xx_hal_rcc.c ****     /* Check the parameters */
 513:d:/LiteOS_Lab/drivers/third_party/ST/STM32L4xx_HAL_Driver/Src\stm32l4xx_hal_rcc.c ****     assert_param(IS_RCC_HSE(RCC_OscInitStruct->HSEState));
 514:d:/LiteOS_Lab/drivers/third_party/ST/STM32L4xx_HAL_Driver/Src\stm32l4xx_hal_rcc.c **** 
 515:d:/LiteOS_Lab/drivers/third_party/ST/STM32L4xx_HAL_Driver/Src\stm32l4xx_hal_rcc.c ****     /* When the HSE is used as system clock or clock source for PLL in these cases it is not allowe
 516:d:/LiteOS_Lab/drivers/third_party/ST/STM32L4xx_HAL_Driver/Src\stm32l4xx_hal_rcc.c ****     if((__HAL_RCC_GET_SYSCLK_SOURCE() == RCC_CFGR_SWS_HSE) ||
 516              		.loc 1 516 9
 517 01c6 364B     		ldr	r3, .L85
 518 01c8 9B68     		ldr	r3, [r3, #8]
 519 01ca 03F00C03 		and	r3, r3, #12
 520              		.loc 1 516 7
 521 01ce 082B     		cmp	r3, #8
 522 01d0 0BD0     		beq	.L28
 517:d:/LiteOS_Lab/drivers/third_party/ST/STM32L4xx_HAL_Driver/Src\stm32l4xx_hal_rcc.c ****        ((__HAL_RCC_GET_SYSCLK_SOURCE() == RCC_CFGR_SWS_PLL) && (__HAL_RCC_GET_PLL_OSCSOURCE() == RC
 523              		.loc 1 517 10 discriminator 1
 524 01d2 334B     		ldr	r3, .L85
 525 01d4 9B68     		ldr	r3, [r3, #8]
 526 01d6 03F00C03 		and	r3, r3, #12
 516:d:/LiteOS_Lab/drivers/third_party/ST/STM32L4xx_HAL_Driver/Src\stm32l4xx_hal_rcc.c ****        ((__HAL_RCC_GET_SYSCLK_SOURCE() == RCC_CFGR_SWS_PLL) && (__HAL_RCC_GET_PLL_OSCSOURCE() == RC
 527              		.loc 1 516 60 discriminator 1
 528 01da 0C2B     		cmp	r3, #12
 529 01dc 11D1     		bne	.L29
 530              		.loc 1 517 65
 531 01de 304B     		ldr	r3, .L85
 532 01e0 DB68     		ldr	r3, [r3, #12]
 533 01e2 03F00303 		and	r3, r3, #3
 534              		.loc 1 517 61
 535 01e6 032B     		cmp	r3, #3
 536 01e8 0BD1     		bne	.L29
 537              	.L28:
 518:d:/LiteOS_Lab/drivers/third_party/ST/STM32L4xx_HAL_Driver/Src\stm32l4xx_hal_rcc.c ****     {
 519:d:/LiteOS_Lab/drivers/third_party/ST/STM32L4xx_HAL_Driver/Src\stm32l4xx_hal_rcc.c ****       if((READ_BIT(RCC->CR, RCC_CR_HSERDY) != RESET) && (RCC_OscInitStruct->HSEState == RCC_HSE_OFF
 538              		.loc 1 519 11
 539 01ea 2D4B     		ldr	r3, .L85
 540 01ec 1B68     		ldr	r3, [r3]
 541 01ee 03F40033 		and	r3, r3, #131072
 542              		.loc 1 519 9
 543 01f2 002B     		cmp	r3, #0
 544 01f4 61D0     		beq	.L84
 545              		.loc 1 519 75 discriminator 1
 546 01f6 7B68     		ldr	r3, [r7, #4]
 547 01f8 5B68     		ldr	r3, [r3, #4]
 548              		.loc 1 519 54 discriminator 1
 549 01fa 002B     		cmp	r3, #0
 550 01fc 5DD1     		bne	.L84
 520:d:/LiteOS_Lab/drivers/third_party/ST/STM32L4xx_HAL_Driver/Src\stm32l4xx_hal_rcc.c ****       {
 521:d:/LiteOS_Lab/drivers/third_party/ST/STM32L4xx_HAL_Driver/Src\stm32l4xx_hal_rcc.c ****         return HAL_ERROR;
 551              		.loc 1 521 16
 552 01fe 0123     		movs	r3, #1
 553 0200 96E2     		b	.L16
 554              	.L29:
ARM GAS  C:\Users\ADMINI~1\AppData\Local\Temp\cc0pkmxZ.s 			page 20


 522:d:/LiteOS_Lab/drivers/third_party/ST/STM32L4xx_HAL_Driver/Src\stm32l4xx_hal_rcc.c ****       }
 523:d:/LiteOS_Lab/drivers/third_party/ST/STM32L4xx_HAL_Driver/Src\stm32l4xx_hal_rcc.c ****     }
 524:d:/LiteOS_Lab/drivers/third_party/ST/STM32L4xx_HAL_Driver/Src\stm32l4xx_hal_rcc.c ****     else
 525:d:/LiteOS_Lab/drivers/third_party/ST/STM32L4xx_HAL_Driver/Src\stm32l4xx_hal_rcc.c ****     {
 526:d:/LiteOS_Lab/drivers/third_party/ST/STM32L4xx_HAL_Driver/Src\stm32l4xx_hal_rcc.c ****       /* Set the new HSE configuration ---------------------------------------*/
 527:d:/LiteOS_Lab/drivers/third_party/ST/STM32L4xx_HAL_Driver/Src\stm32l4xx_hal_rcc.c ****       __HAL_RCC_HSE_CONFIG(RCC_OscInitStruct->HSEState);
 555              		.loc 1 527 7
 556 0202 7B68     		ldr	r3, [r7, #4]
 557 0204 5B68     		ldr	r3, [r3, #4]
 558 0206 B3F5803F 		cmp	r3, #65536
 559 020a 06D1     		bne	.L31
 560              		.loc 1 527 7 is_stmt 0 discriminator 1
 561 020c 244B     		ldr	r3, .L85
 562 020e 1B68     		ldr	r3, [r3]
 563 0210 234A     		ldr	r2, .L85
 564 0212 43F48033 		orr	r3, r3, #65536
 565 0216 1360     		str	r3, [r2]
 566 0218 1DE0     		b	.L32
 567              	.L31:
 568              		.loc 1 527 7 discriminator 2
 569 021a 7B68     		ldr	r3, [r7, #4]
 570 021c 5B68     		ldr	r3, [r3, #4]
 571 021e B3F5A02F 		cmp	r3, #327680
 572 0222 0CD1     		bne	.L33
 573              		.loc 1 527 7 discriminator 3
 574 0224 1E4B     		ldr	r3, .L85
 575 0226 1B68     		ldr	r3, [r3]
 576 0228 1D4A     		ldr	r2, .L85
 577 022a 43F48023 		orr	r3, r3, #262144
 578 022e 1360     		str	r3, [r2]
 579 0230 1B4B     		ldr	r3, .L85
 580 0232 1B68     		ldr	r3, [r3]
 581 0234 1A4A     		ldr	r2, .L85
 582 0236 43F48033 		orr	r3, r3, #65536
 583 023a 1360     		str	r3, [r2]
 584 023c 0BE0     		b	.L32
 585              	.L33:
 586              		.loc 1 527 7 discriminator 4
 587 023e 184B     		ldr	r3, .L85
 588 0240 1B68     		ldr	r3, [r3]
 589 0242 174A     		ldr	r2, .L85
 590 0244 23F48033 		bic	r3, r3, #65536
 591 0248 1360     		str	r3, [r2]
 592 024a 154B     		ldr	r3, .L85
 593 024c 1B68     		ldr	r3, [r3]
 594 024e 144A     		ldr	r2, .L85
 595 0250 23F48023 		bic	r3, r3, #262144
 596 0254 1360     		str	r3, [r2]
 597              	.L32:
 528:d:/LiteOS_Lab/drivers/third_party/ST/STM32L4xx_HAL_Driver/Src\stm32l4xx_hal_rcc.c **** 
 529:d:/LiteOS_Lab/drivers/third_party/ST/STM32L4xx_HAL_Driver/Src\stm32l4xx_hal_rcc.c ****       /* Check the HSE State */
 530:d:/LiteOS_Lab/drivers/third_party/ST/STM32L4xx_HAL_Driver/Src\stm32l4xx_hal_rcc.c ****       if(RCC_OscInitStruct->HSEState != RCC_HSE_OFF)
 598              		.loc 1 530 27 is_stmt 1
 599 0256 7B68     		ldr	r3, [r7, #4]
 600 0258 5B68     		ldr	r3, [r3, #4]
 601              		.loc 1 530 9
 602 025a 002B     		cmp	r3, #0
ARM GAS  C:\Users\ADMINI~1\AppData\Local\Temp\cc0pkmxZ.s 			page 21


 603 025c 13D0     		beq	.L34
 531:d:/LiteOS_Lab/drivers/third_party/ST/STM32L4xx_HAL_Driver/Src\stm32l4xx_hal_rcc.c ****       {
 532:d:/LiteOS_Lab/drivers/third_party/ST/STM32L4xx_HAL_Driver/Src\stm32l4xx_hal_rcc.c ****         /* Get Start Tick*/
 533:d:/LiteOS_Lab/drivers/third_party/ST/STM32L4xx_HAL_Driver/Src\stm32l4xx_hal_rcc.c ****         tickstart = HAL_GetTick();
 604              		.loc 1 533 21
 605 025e FFF7FEFF 		bl	HAL_GetTick
 606 0262 3861     		str	r0, [r7, #16]
 534:d:/LiteOS_Lab/drivers/third_party/ST/STM32L4xx_HAL_Driver/Src\stm32l4xx_hal_rcc.c **** 
 535:d:/LiteOS_Lab/drivers/third_party/ST/STM32L4xx_HAL_Driver/Src\stm32l4xx_hal_rcc.c ****         /* Wait till HSE is ready */
 536:d:/LiteOS_Lab/drivers/third_party/ST/STM32L4xx_HAL_Driver/Src\stm32l4xx_hal_rcc.c ****         while(READ_BIT(RCC->CR, RCC_CR_HSERDY) == RESET)
 607              		.loc 1 536 14
 608 0264 08E0     		b	.L35
 609              	.L36:
 537:d:/LiteOS_Lab/drivers/third_party/ST/STM32L4xx_HAL_Driver/Src\stm32l4xx_hal_rcc.c ****         {
 538:d:/LiteOS_Lab/drivers/third_party/ST/STM32L4xx_HAL_Driver/Src\stm32l4xx_hal_rcc.c ****           if((HAL_GetTick() - tickstart) > HSE_TIMEOUT_VALUE)
 610              		.loc 1 538 15
 611 0266 FFF7FEFF 		bl	HAL_GetTick
 612 026a 0246     		mov	r2, r0
 613              		.loc 1 538 29
 614 026c 3B69     		ldr	r3, [r7, #16]
 615 026e D31A     		subs	r3, r2, r3
 616              		.loc 1 538 13
 617 0270 642B     		cmp	r3, #100
 618 0272 01D9     		bls	.L35
 539:d:/LiteOS_Lab/drivers/third_party/ST/STM32L4xx_HAL_Driver/Src\stm32l4xx_hal_rcc.c ****           {
 540:d:/LiteOS_Lab/drivers/third_party/ST/STM32L4xx_HAL_Driver/Src\stm32l4xx_hal_rcc.c ****             return HAL_TIMEOUT;
 619              		.loc 1 540 20
 620 0274 0323     		movs	r3, #3
 621 0276 5BE2     		b	.L16
 622              	.L35:
 536:d:/LiteOS_Lab/drivers/third_party/ST/STM32L4xx_HAL_Driver/Src\stm32l4xx_hal_rcc.c ****         {
 623              		.loc 1 536 15
 624 0278 094B     		ldr	r3, .L85
 625 027a 1B68     		ldr	r3, [r3]
 626 027c 03F40033 		and	r3, r3, #131072
 536:d:/LiteOS_Lab/drivers/third_party/ST/STM32L4xx_HAL_Driver/Src\stm32l4xx_hal_rcc.c ****         {
 627              		.loc 1 536 14
 628 0280 002B     		cmp	r3, #0
 629 0282 F0D0     		beq	.L36
 630 0284 1AE0     		b	.L27
 631              	.L34:
 541:d:/LiteOS_Lab/drivers/third_party/ST/STM32L4xx_HAL_Driver/Src\stm32l4xx_hal_rcc.c ****           }
 542:d:/LiteOS_Lab/drivers/third_party/ST/STM32L4xx_HAL_Driver/Src\stm32l4xx_hal_rcc.c ****         }
 543:d:/LiteOS_Lab/drivers/third_party/ST/STM32L4xx_HAL_Driver/Src\stm32l4xx_hal_rcc.c ****       }
 544:d:/LiteOS_Lab/drivers/third_party/ST/STM32L4xx_HAL_Driver/Src\stm32l4xx_hal_rcc.c ****       else
 545:d:/LiteOS_Lab/drivers/third_party/ST/STM32L4xx_HAL_Driver/Src\stm32l4xx_hal_rcc.c ****       {
 546:d:/LiteOS_Lab/drivers/third_party/ST/STM32L4xx_HAL_Driver/Src\stm32l4xx_hal_rcc.c ****         /* Get Start Tick*/
 547:d:/LiteOS_Lab/drivers/third_party/ST/STM32L4xx_HAL_Driver/Src\stm32l4xx_hal_rcc.c ****         tickstart = HAL_GetTick();
 632              		.loc 1 547 21
 633 0286 FFF7FEFF 		bl	HAL_GetTick
 634 028a 3861     		str	r0, [r7, #16]
 548:d:/LiteOS_Lab/drivers/third_party/ST/STM32L4xx_HAL_Driver/Src\stm32l4xx_hal_rcc.c **** 
 549:d:/LiteOS_Lab/drivers/third_party/ST/STM32L4xx_HAL_Driver/Src\stm32l4xx_hal_rcc.c ****         /* Wait till HSE is disabled */
 550:d:/LiteOS_Lab/drivers/third_party/ST/STM32L4xx_HAL_Driver/Src\stm32l4xx_hal_rcc.c ****         while(READ_BIT(RCC->CR, RCC_CR_HSERDY) != RESET)
 635              		.loc 1 550 14
 636 028c 0EE0     		b	.L37
 637              	.L38:
ARM GAS  C:\Users\ADMINI~1\AppData\Local\Temp\cc0pkmxZ.s 			page 22


 551:d:/LiteOS_Lab/drivers/third_party/ST/STM32L4xx_HAL_Driver/Src\stm32l4xx_hal_rcc.c ****         {
 552:d:/LiteOS_Lab/drivers/third_party/ST/STM32L4xx_HAL_Driver/Src\stm32l4xx_hal_rcc.c ****           if((HAL_GetTick() - tickstart) > HSE_TIMEOUT_VALUE)
 638              		.loc 1 552 15
 639 028e FFF7FEFF 		bl	HAL_GetTick
 640 0292 0246     		mov	r2, r0
 641              		.loc 1 552 29
 642 0294 3B69     		ldr	r3, [r7, #16]
 643 0296 D31A     		subs	r3, r2, r3
 644              		.loc 1 552 13
 645 0298 642B     		cmp	r3, #100
 646 029a 07D9     		bls	.L37
 553:d:/LiteOS_Lab/drivers/third_party/ST/STM32L4xx_HAL_Driver/Src\stm32l4xx_hal_rcc.c ****           {
 554:d:/LiteOS_Lab/drivers/third_party/ST/STM32L4xx_HAL_Driver/Src\stm32l4xx_hal_rcc.c ****             return HAL_TIMEOUT;
 647              		.loc 1 554 20
 648 029c 0323     		movs	r3, #3
 649 029e 47E2     		b	.L16
 650              	.L86:
 651              		.align	2
 652              	.L85:
 653 02a0 00100240 		.word	1073876992
 654 02a4 00000000 		.word	AHBPrescTable
 655 02a8 00000000 		.word	SystemCoreClock
 656              	.L37:
 550:d:/LiteOS_Lab/drivers/third_party/ST/STM32L4xx_HAL_Driver/Src\stm32l4xx_hal_rcc.c ****         {
 657              		.loc 1 550 15
 658 02ac A94B     		ldr	r3, .L87
 659 02ae 1B68     		ldr	r3, [r3]
 660 02b0 03F40033 		and	r3, r3, #131072
 550:d:/LiteOS_Lab/drivers/third_party/ST/STM32L4xx_HAL_Driver/Src\stm32l4xx_hal_rcc.c ****         {
 661              		.loc 1 550 14
 662 02b4 002B     		cmp	r3, #0
 663 02b6 EAD1     		bne	.L38
 664 02b8 00E0     		b	.L27
 665              	.L84:
 519:d:/LiteOS_Lab/drivers/third_party/ST/STM32L4xx_HAL_Driver/Src\stm32l4xx_hal_rcc.c ****       {
 666              		.loc 1 519 9
 667 02ba 00BF     		nop
 668              	.L27:
 555:d:/LiteOS_Lab/drivers/third_party/ST/STM32L4xx_HAL_Driver/Src\stm32l4xx_hal_rcc.c ****           }
 556:d:/LiteOS_Lab/drivers/third_party/ST/STM32L4xx_HAL_Driver/Src\stm32l4xx_hal_rcc.c ****         }
 557:d:/LiteOS_Lab/drivers/third_party/ST/STM32L4xx_HAL_Driver/Src\stm32l4xx_hal_rcc.c ****       }
 558:d:/LiteOS_Lab/drivers/third_party/ST/STM32L4xx_HAL_Driver/Src\stm32l4xx_hal_rcc.c ****     }
 559:d:/LiteOS_Lab/drivers/third_party/ST/STM32L4xx_HAL_Driver/Src\stm32l4xx_hal_rcc.c ****   }
 560:d:/LiteOS_Lab/drivers/third_party/ST/STM32L4xx_HAL_Driver/Src\stm32l4xx_hal_rcc.c ****   /*----------------------------- HSI Configuration --------------------------*/
 561:d:/LiteOS_Lab/drivers/third_party/ST/STM32L4xx_HAL_Driver/Src\stm32l4xx_hal_rcc.c ****   if(((RCC_OscInitStruct->OscillatorType) & RCC_OSCILLATORTYPE_HSI) == RCC_OSCILLATORTYPE_HSI)
 669              		.loc 1 561 25
 670 02bc 7B68     		ldr	r3, [r7, #4]
 671 02be 1B68     		ldr	r3, [r3]
 672              		.loc 1 561 43
 673 02c0 03F00203 		and	r3, r3, #2
 674              		.loc 1 561 5
 675 02c4 002B     		cmp	r3, #0
 676 02c6 69D0     		beq	.L39
 562:d:/LiteOS_Lab/drivers/third_party/ST/STM32L4xx_HAL_Driver/Src\stm32l4xx_hal_rcc.c ****   {
 563:d:/LiteOS_Lab/drivers/third_party/ST/STM32L4xx_HAL_Driver/Src\stm32l4xx_hal_rcc.c ****     /* Check the parameters */
 564:d:/LiteOS_Lab/drivers/third_party/ST/STM32L4xx_HAL_Driver/Src\stm32l4xx_hal_rcc.c ****     assert_param(IS_RCC_HSI(RCC_OscInitStruct->HSIState));
 565:d:/LiteOS_Lab/drivers/third_party/ST/STM32L4xx_HAL_Driver/Src\stm32l4xx_hal_rcc.c ****     assert_param(IS_RCC_HSI_CALIBRATION_VALUE(RCC_OscInitStruct->HSICalibrationValue));
ARM GAS  C:\Users\ADMINI~1\AppData\Local\Temp\cc0pkmxZ.s 			page 23


 566:d:/LiteOS_Lab/drivers/third_party/ST/STM32L4xx_HAL_Driver/Src\stm32l4xx_hal_rcc.c **** 
 567:d:/LiteOS_Lab/drivers/third_party/ST/STM32L4xx_HAL_Driver/Src\stm32l4xx_hal_rcc.c ****     /* Check if HSI is used as system clock or as PLL source when PLL is selected as system clock *
 568:d:/LiteOS_Lab/drivers/third_party/ST/STM32L4xx_HAL_Driver/Src\stm32l4xx_hal_rcc.c ****     if((__HAL_RCC_GET_SYSCLK_SOURCE() == RCC_CFGR_SWS_HSI) ||
 677              		.loc 1 568 9
 678 02c8 A24B     		ldr	r3, .L87
 679 02ca 9B68     		ldr	r3, [r3, #8]
 680 02cc 03F00C03 		and	r3, r3, #12
 681              		.loc 1 568 7
 682 02d0 042B     		cmp	r3, #4
 683 02d2 0BD0     		beq	.L40
 569:d:/LiteOS_Lab/drivers/third_party/ST/STM32L4xx_HAL_Driver/Src\stm32l4xx_hal_rcc.c ****        ((__HAL_RCC_GET_SYSCLK_SOURCE() == RCC_CFGR_SWS_PLL) && (__HAL_RCC_GET_PLL_OSCSOURCE() == RC
 684              		.loc 1 569 10 discriminator 1
 685 02d4 9F4B     		ldr	r3, .L87
 686 02d6 9B68     		ldr	r3, [r3, #8]
 687 02d8 03F00C03 		and	r3, r3, #12
 568:d:/LiteOS_Lab/drivers/third_party/ST/STM32L4xx_HAL_Driver/Src\stm32l4xx_hal_rcc.c ****        ((__HAL_RCC_GET_SYSCLK_SOURCE() == RCC_CFGR_SWS_PLL) && (__HAL_RCC_GET_PLL_OSCSOURCE() == RC
 688              		.loc 1 568 60 discriminator 1
 689 02dc 0C2B     		cmp	r3, #12
 690 02de 1CD1     		bne	.L41
 691              		.loc 1 569 65
 692 02e0 9C4B     		ldr	r3, .L87
 693 02e2 DB68     		ldr	r3, [r3, #12]
 694 02e4 03F00303 		and	r3, r3, #3
 695              		.loc 1 569 61
 696 02e8 022B     		cmp	r3, #2
 697 02ea 16D1     		bne	.L41
 698              	.L40:
 570:d:/LiteOS_Lab/drivers/third_party/ST/STM32L4xx_HAL_Driver/Src\stm32l4xx_hal_rcc.c ****     {
 571:d:/LiteOS_Lab/drivers/third_party/ST/STM32L4xx_HAL_Driver/Src\stm32l4xx_hal_rcc.c ****       /* When HSI is used as system clock it will not be disabled */
 572:d:/LiteOS_Lab/drivers/third_party/ST/STM32L4xx_HAL_Driver/Src\stm32l4xx_hal_rcc.c ****       if((READ_BIT(RCC->CR, RCC_CR_HSIRDY) != RESET) && (RCC_OscInitStruct->HSIState == RCC_HSI_OFF
 699              		.loc 1 572 11
 700 02ec 994B     		ldr	r3, .L87
 701 02ee 1B68     		ldr	r3, [r3]
 702 02f0 03F48063 		and	r3, r3, #1024
 703              		.loc 1 572 9
 704 02f4 002B     		cmp	r3, #0
 705 02f6 05D0     		beq	.L42
 706              		.loc 1 572 75 discriminator 1
 707 02f8 7B68     		ldr	r3, [r7, #4]
 708 02fa DB68     		ldr	r3, [r3, #12]
 709              		.loc 1 572 54 discriminator 1
 710 02fc 002B     		cmp	r3, #0
 711 02fe 01D1     		bne	.L42
 573:d:/LiteOS_Lab/drivers/third_party/ST/STM32L4xx_HAL_Driver/Src\stm32l4xx_hal_rcc.c ****       {
 574:d:/LiteOS_Lab/drivers/third_party/ST/STM32L4xx_HAL_Driver/Src\stm32l4xx_hal_rcc.c ****         return HAL_ERROR;
 712              		.loc 1 574 16
 713 0300 0123     		movs	r3, #1
 714 0302 15E2     		b	.L16
 715              	.L42:
 575:d:/LiteOS_Lab/drivers/third_party/ST/STM32L4xx_HAL_Driver/Src\stm32l4xx_hal_rcc.c ****       }
 576:d:/LiteOS_Lab/drivers/third_party/ST/STM32L4xx_HAL_Driver/Src\stm32l4xx_hal_rcc.c ****       /* Otherwise, just the calibration is allowed */
 577:d:/LiteOS_Lab/drivers/third_party/ST/STM32L4xx_HAL_Driver/Src\stm32l4xx_hal_rcc.c ****       else
 578:d:/LiteOS_Lab/drivers/third_party/ST/STM32L4xx_HAL_Driver/Src\stm32l4xx_hal_rcc.c ****       {
 579:d:/LiteOS_Lab/drivers/third_party/ST/STM32L4xx_HAL_Driver/Src\stm32l4xx_hal_rcc.c ****         /* Adjusts the Internal High Speed oscillator (HSI) calibration value.*/
 580:d:/LiteOS_Lab/drivers/third_party/ST/STM32L4xx_HAL_Driver/Src\stm32l4xx_hal_rcc.c ****         __HAL_RCC_HSI_CALIBRATIONVALUE_ADJUST(RCC_OscInitStruct->HSICalibrationValue);
 716              		.loc 1 580 9
 717 0304 934B     		ldr	r3, .L87
ARM GAS  C:\Users\ADMINI~1\AppData\Local\Temp\cc0pkmxZ.s 			page 24


 718 0306 5B68     		ldr	r3, [r3, #4]
 719 0308 23F0F852 		bic	r2, r3, #520093696
 720 030c 7B68     		ldr	r3, [r7, #4]
 721 030e 1B69     		ldr	r3, [r3, #16]
 722 0310 1B06     		lsls	r3, r3, #24
 723 0312 9049     		ldr	r1, .L87
 724 0314 1343     		orrs	r3, r3, r2
 725 0316 4B60     		str	r3, [r1, #4]
 572:d:/LiteOS_Lab/drivers/third_party/ST/STM32L4xx_HAL_Driver/Src\stm32l4xx_hal_rcc.c ****       {
 726              		.loc 1 572 9
 727 0318 40E0     		b	.L39
 728              	.L41:
 581:d:/LiteOS_Lab/drivers/third_party/ST/STM32L4xx_HAL_Driver/Src\stm32l4xx_hal_rcc.c ****       }
 582:d:/LiteOS_Lab/drivers/third_party/ST/STM32L4xx_HAL_Driver/Src\stm32l4xx_hal_rcc.c ****     }
 583:d:/LiteOS_Lab/drivers/third_party/ST/STM32L4xx_HAL_Driver/Src\stm32l4xx_hal_rcc.c ****     else
 584:d:/LiteOS_Lab/drivers/third_party/ST/STM32L4xx_HAL_Driver/Src\stm32l4xx_hal_rcc.c ****     {
 585:d:/LiteOS_Lab/drivers/third_party/ST/STM32L4xx_HAL_Driver/Src\stm32l4xx_hal_rcc.c ****       /* Check the HSI State */
 586:d:/LiteOS_Lab/drivers/third_party/ST/STM32L4xx_HAL_Driver/Src\stm32l4xx_hal_rcc.c ****       if(RCC_OscInitStruct->HSIState != RCC_HSI_OFF)
 729              		.loc 1 586 27
 730 031a 7B68     		ldr	r3, [r7, #4]
 731 031c DB68     		ldr	r3, [r3, #12]
 732              		.loc 1 586 9
 733 031e 002B     		cmp	r3, #0
 734 0320 23D0     		beq	.L43
 587:d:/LiteOS_Lab/drivers/third_party/ST/STM32L4xx_HAL_Driver/Src\stm32l4xx_hal_rcc.c ****       {
 588:d:/LiteOS_Lab/drivers/third_party/ST/STM32L4xx_HAL_Driver/Src\stm32l4xx_hal_rcc.c ****         /* Enable the Internal High Speed oscillator (HSI). */
 589:d:/LiteOS_Lab/drivers/third_party/ST/STM32L4xx_HAL_Driver/Src\stm32l4xx_hal_rcc.c ****         __HAL_RCC_HSI_ENABLE();
 735              		.loc 1 589 9
 736 0322 8C4B     		ldr	r3, .L87
 737 0324 1B68     		ldr	r3, [r3]
 738 0326 8B4A     		ldr	r2, .L87
 739 0328 43F48073 		orr	r3, r3, #256
 740 032c 1360     		str	r3, [r2]
 590:d:/LiteOS_Lab/drivers/third_party/ST/STM32L4xx_HAL_Driver/Src\stm32l4xx_hal_rcc.c **** 
 591:d:/LiteOS_Lab/drivers/third_party/ST/STM32L4xx_HAL_Driver/Src\stm32l4xx_hal_rcc.c ****         /* Get Start Tick*/
 592:d:/LiteOS_Lab/drivers/third_party/ST/STM32L4xx_HAL_Driver/Src\stm32l4xx_hal_rcc.c ****         tickstart = HAL_GetTick();
 741              		.loc 1 592 21
 742 032e FFF7FEFF 		bl	HAL_GetTick
 743 0332 3861     		str	r0, [r7, #16]
 593:d:/LiteOS_Lab/drivers/third_party/ST/STM32L4xx_HAL_Driver/Src\stm32l4xx_hal_rcc.c **** 
 594:d:/LiteOS_Lab/drivers/third_party/ST/STM32L4xx_HAL_Driver/Src\stm32l4xx_hal_rcc.c ****         /* Wait till HSI is ready */
 595:d:/LiteOS_Lab/drivers/third_party/ST/STM32L4xx_HAL_Driver/Src\stm32l4xx_hal_rcc.c ****         while(READ_BIT(RCC->CR, RCC_CR_HSIRDY) == RESET)
 744              		.loc 1 595 14
 745 0334 08E0     		b	.L44
 746              	.L45:
 596:d:/LiteOS_Lab/drivers/third_party/ST/STM32L4xx_HAL_Driver/Src\stm32l4xx_hal_rcc.c ****         {
 597:d:/LiteOS_Lab/drivers/third_party/ST/STM32L4xx_HAL_Driver/Src\stm32l4xx_hal_rcc.c ****           if((HAL_GetTick() - tickstart) > HSI_TIMEOUT_VALUE)
 747              		.loc 1 597 15
 748 0336 FFF7FEFF 		bl	HAL_GetTick
 749 033a 0246     		mov	r2, r0
 750              		.loc 1 597 29
 751 033c 3B69     		ldr	r3, [r7, #16]
 752 033e D31A     		subs	r3, r2, r3
 753              		.loc 1 597 13
 754 0340 022B     		cmp	r3, #2
 755 0342 01D9     		bls	.L44
 598:d:/LiteOS_Lab/drivers/third_party/ST/STM32L4xx_HAL_Driver/Src\stm32l4xx_hal_rcc.c ****           {
ARM GAS  C:\Users\ADMINI~1\AppData\Local\Temp\cc0pkmxZ.s 			page 25


 599:d:/LiteOS_Lab/drivers/third_party/ST/STM32L4xx_HAL_Driver/Src\stm32l4xx_hal_rcc.c ****             return HAL_TIMEOUT;
 756              		.loc 1 599 20
 757 0344 0323     		movs	r3, #3
 758 0346 F3E1     		b	.L16
 759              	.L44:
 595:d:/LiteOS_Lab/drivers/third_party/ST/STM32L4xx_HAL_Driver/Src\stm32l4xx_hal_rcc.c ****         {
 760              		.loc 1 595 15
 761 0348 824B     		ldr	r3, .L87
 762 034a 1B68     		ldr	r3, [r3]
 763 034c 03F48063 		and	r3, r3, #1024
 595:d:/LiteOS_Lab/drivers/third_party/ST/STM32L4xx_HAL_Driver/Src\stm32l4xx_hal_rcc.c ****         {
 764              		.loc 1 595 14
 765 0350 002B     		cmp	r3, #0
 766 0352 F0D0     		beq	.L45
 600:d:/LiteOS_Lab/drivers/third_party/ST/STM32L4xx_HAL_Driver/Src\stm32l4xx_hal_rcc.c ****           }
 601:d:/LiteOS_Lab/drivers/third_party/ST/STM32L4xx_HAL_Driver/Src\stm32l4xx_hal_rcc.c ****         }
 602:d:/LiteOS_Lab/drivers/third_party/ST/STM32L4xx_HAL_Driver/Src\stm32l4xx_hal_rcc.c **** 
 603:d:/LiteOS_Lab/drivers/third_party/ST/STM32L4xx_HAL_Driver/Src\stm32l4xx_hal_rcc.c ****         /* Adjusts the Internal High Speed oscillator (HSI) calibration value.*/
 604:d:/LiteOS_Lab/drivers/third_party/ST/STM32L4xx_HAL_Driver/Src\stm32l4xx_hal_rcc.c ****         __HAL_RCC_HSI_CALIBRATIONVALUE_ADJUST(RCC_OscInitStruct->HSICalibrationValue);
 767              		.loc 1 604 9
 768 0354 7F4B     		ldr	r3, .L87
 769 0356 5B68     		ldr	r3, [r3, #4]
 770 0358 23F0F852 		bic	r2, r3, #520093696
 771 035c 7B68     		ldr	r3, [r7, #4]
 772 035e 1B69     		ldr	r3, [r3, #16]
 773 0360 1B06     		lsls	r3, r3, #24
 774 0362 7C49     		ldr	r1, .L87
 775 0364 1343     		orrs	r3, r3, r2
 776 0366 4B60     		str	r3, [r1, #4]
 777 0368 18E0     		b	.L39
 778              	.L43:
 605:d:/LiteOS_Lab/drivers/third_party/ST/STM32L4xx_HAL_Driver/Src\stm32l4xx_hal_rcc.c ****       }
 606:d:/LiteOS_Lab/drivers/third_party/ST/STM32L4xx_HAL_Driver/Src\stm32l4xx_hal_rcc.c ****       else
 607:d:/LiteOS_Lab/drivers/third_party/ST/STM32L4xx_HAL_Driver/Src\stm32l4xx_hal_rcc.c ****       {
 608:d:/LiteOS_Lab/drivers/third_party/ST/STM32L4xx_HAL_Driver/Src\stm32l4xx_hal_rcc.c ****         /* Disable the Internal High Speed oscillator (HSI). */
 609:d:/LiteOS_Lab/drivers/third_party/ST/STM32L4xx_HAL_Driver/Src\stm32l4xx_hal_rcc.c ****         __HAL_RCC_HSI_DISABLE();
 779              		.loc 1 609 9
 780 036a 7A4B     		ldr	r3, .L87
 781 036c 1B68     		ldr	r3, [r3]
 782 036e 794A     		ldr	r2, .L87
 783 0370 23F48073 		bic	r3, r3, #256
 784 0374 1360     		str	r3, [r2]
 610:d:/LiteOS_Lab/drivers/third_party/ST/STM32L4xx_HAL_Driver/Src\stm32l4xx_hal_rcc.c **** 
 611:d:/LiteOS_Lab/drivers/third_party/ST/STM32L4xx_HAL_Driver/Src\stm32l4xx_hal_rcc.c ****         /* Get Start Tick*/
 612:d:/LiteOS_Lab/drivers/third_party/ST/STM32L4xx_HAL_Driver/Src\stm32l4xx_hal_rcc.c ****         tickstart = HAL_GetTick();
 785              		.loc 1 612 21
 786 0376 FFF7FEFF 		bl	HAL_GetTick
 787 037a 3861     		str	r0, [r7, #16]
 613:d:/LiteOS_Lab/drivers/third_party/ST/STM32L4xx_HAL_Driver/Src\stm32l4xx_hal_rcc.c **** 
 614:d:/LiteOS_Lab/drivers/third_party/ST/STM32L4xx_HAL_Driver/Src\stm32l4xx_hal_rcc.c ****         /* Wait till HSI is disabled */
 615:d:/LiteOS_Lab/drivers/third_party/ST/STM32L4xx_HAL_Driver/Src\stm32l4xx_hal_rcc.c ****         while(READ_BIT(RCC->CR, RCC_CR_HSIRDY) != RESET)
 788              		.loc 1 615 14
 789 037c 08E0     		b	.L46
 790              	.L47:
 616:d:/LiteOS_Lab/drivers/third_party/ST/STM32L4xx_HAL_Driver/Src\stm32l4xx_hal_rcc.c ****         {
 617:d:/LiteOS_Lab/drivers/third_party/ST/STM32L4xx_HAL_Driver/Src\stm32l4xx_hal_rcc.c ****           if((HAL_GetTick() - tickstart) > HSI_TIMEOUT_VALUE)
 791              		.loc 1 617 15
ARM GAS  C:\Users\ADMINI~1\AppData\Local\Temp\cc0pkmxZ.s 			page 26


 792 037e FFF7FEFF 		bl	HAL_GetTick
 793 0382 0246     		mov	r2, r0
 794              		.loc 1 617 29
 795 0384 3B69     		ldr	r3, [r7, #16]
 796 0386 D31A     		subs	r3, r2, r3
 797              		.loc 1 617 13
 798 0388 022B     		cmp	r3, #2
 799 038a 01D9     		bls	.L46
 618:d:/LiteOS_Lab/drivers/third_party/ST/STM32L4xx_HAL_Driver/Src\stm32l4xx_hal_rcc.c ****           {
 619:d:/LiteOS_Lab/drivers/third_party/ST/STM32L4xx_HAL_Driver/Src\stm32l4xx_hal_rcc.c ****             return HAL_TIMEOUT;
 800              		.loc 1 619 20
 801 038c 0323     		movs	r3, #3
 802 038e CFE1     		b	.L16
 803              	.L46:
 615:d:/LiteOS_Lab/drivers/third_party/ST/STM32L4xx_HAL_Driver/Src\stm32l4xx_hal_rcc.c ****         {
 804              		.loc 1 615 15
 805 0390 704B     		ldr	r3, .L87
 806 0392 1B68     		ldr	r3, [r3]
 807 0394 03F48063 		and	r3, r3, #1024
 615:d:/LiteOS_Lab/drivers/third_party/ST/STM32L4xx_HAL_Driver/Src\stm32l4xx_hal_rcc.c ****         {
 808              		.loc 1 615 14
 809 0398 002B     		cmp	r3, #0
 810 039a F0D1     		bne	.L47
 811              	.L39:
 620:d:/LiteOS_Lab/drivers/third_party/ST/STM32L4xx_HAL_Driver/Src\stm32l4xx_hal_rcc.c ****           }
 621:d:/LiteOS_Lab/drivers/third_party/ST/STM32L4xx_HAL_Driver/Src\stm32l4xx_hal_rcc.c ****         }
 622:d:/LiteOS_Lab/drivers/third_party/ST/STM32L4xx_HAL_Driver/Src\stm32l4xx_hal_rcc.c ****       }
 623:d:/LiteOS_Lab/drivers/third_party/ST/STM32L4xx_HAL_Driver/Src\stm32l4xx_hal_rcc.c ****     }
 624:d:/LiteOS_Lab/drivers/third_party/ST/STM32L4xx_HAL_Driver/Src\stm32l4xx_hal_rcc.c ****   }
 625:d:/LiteOS_Lab/drivers/third_party/ST/STM32L4xx_HAL_Driver/Src\stm32l4xx_hal_rcc.c ****   /*------------------------------ LSI Configuration -------------------------*/
 626:d:/LiteOS_Lab/drivers/third_party/ST/STM32L4xx_HAL_Driver/Src\stm32l4xx_hal_rcc.c ****   if(((RCC_OscInitStruct->OscillatorType) & RCC_OSCILLATORTYPE_LSI) == RCC_OSCILLATORTYPE_LSI)
 812              		.loc 1 626 25
 813 039c 7B68     		ldr	r3, [r7, #4]
 814 039e 1B68     		ldr	r3, [r3]
 815              		.loc 1 626 43
 816 03a0 03F00803 		and	r3, r3, #8
 817              		.loc 1 626 5
 818 03a4 002B     		cmp	r3, #0
 819 03a6 3CD0     		beq	.L48
 627:d:/LiteOS_Lab/drivers/third_party/ST/STM32L4xx_HAL_Driver/Src\stm32l4xx_hal_rcc.c ****   {
 628:d:/LiteOS_Lab/drivers/third_party/ST/STM32L4xx_HAL_Driver/Src\stm32l4xx_hal_rcc.c ****     /* Check the parameters */
 629:d:/LiteOS_Lab/drivers/third_party/ST/STM32L4xx_HAL_Driver/Src\stm32l4xx_hal_rcc.c ****     assert_param(IS_RCC_LSI(RCC_OscInitStruct->LSIState));
 630:d:/LiteOS_Lab/drivers/third_party/ST/STM32L4xx_HAL_Driver/Src\stm32l4xx_hal_rcc.c **** 
 631:d:/LiteOS_Lab/drivers/third_party/ST/STM32L4xx_HAL_Driver/Src\stm32l4xx_hal_rcc.c ****     /* Check the LSI State */
 632:d:/LiteOS_Lab/drivers/third_party/ST/STM32L4xx_HAL_Driver/Src\stm32l4xx_hal_rcc.c ****     if(RCC_OscInitStruct->LSIState != RCC_LSI_OFF)
 820              		.loc 1 632 25
 821 03a8 7B68     		ldr	r3, [r7, #4]
 822 03aa 5B69     		ldr	r3, [r3, #20]
 823              		.loc 1 632 7
 824 03ac 002B     		cmp	r3, #0
 825 03ae 1CD0     		beq	.L49
 633:d:/LiteOS_Lab/drivers/third_party/ST/STM32L4xx_HAL_Driver/Src\stm32l4xx_hal_rcc.c ****     {
 634:d:/LiteOS_Lab/drivers/third_party/ST/STM32L4xx_HAL_Driver/Src\stm32l4xx_hal_rcc.c ****       /* Enable the Internal Low Speed oscillator (LSI). */
 635:d:/LiteOS_Lab/drivers/third_party/ST/STM32L4xx_HAL_Driver/Src\stm32l4xx_hal_rcc.c ****       __HAL_RCC_LSI_ENABLE();
 826              		.loc 1 635 7
 827 03b0 684B     		ldr	r3, .L87
 828 03b2 D3F89430 		ldr	r3, [r3, #148]
ARM GAS  C:\Users\ADMINI~1\AppData\Local\Temp\cc0pkmxZ.s 			page 27


 829 03b6 674A     		ldr	r2, .L87
 830 03b8 43F00103 		orr	r3, r3, #1
 831 03bc C2F89430 		str	r3, [r2, #148]
 636:d:/LiteOS_Lab/drivers/third_party/ST/STM32L4xx_HAL_Driver/Src\stm32l4xx_hal_rcc.c **** 
 637:d:/LiteOS_Lab/drivers/third_party/ST/STM32L4xx_HAL_Driver/Src\stm32l4xx_hal_rcc.c ****       /* Get Start Tick*/
 638:d:/LiteOS_Lab/drivers/third_party/ST/STM32L4xx_HAL_Driver/Src\stm32l4xx_hal_rcc.c ****       tickstart = HAL_GetTick();
 832              		.loc 1 638 19
 833 03c0 FFF7FEFF 		bl	HAL_GetTick
 834 03c4 3861     		str	r0, [r7, #16]
 639:d:/LiteOS_Lab/drivers/third_party/ST/STM32L4xx_HAL_Driver/Src\stm32l4xx_hal_rcc.c **** 
 640:d:/LiteOS_Lab/drivers/third_party/ST/STM32L4xx_HAL_Driver/Src\stm32l4xx_hal_rcc.c ****       /* Wait till LSI is ready */
 641:d:/LiteOS_Lab/drivers/third_party/ST/STM32L4xx_HAL_Driver/Src\stm32l4xx_hal_rcc.c ****       while(READ_BIT(RCC->CSR, RCC_CSR_LSIRDY) == RESET)
 835              		.loc 1 641 12
 836 03c6 08E0     		b	.L50
 837              	.L51:
 642:d:/LiteOS_Lab/drivers/third_party/ST/STM32L4xx_HAL_Driver/Src\stm32l4xx_hal_rcc.c ****       {
 643:d:/LiteOS_Lab/drivers/third_party/ST/STM32L4xx_HAL_Driver/Src\stm32l4xx_hal_rcc.c ****         if((HAL_GetTick() - tickstart) > LSI_TIMEOUT_VALUE)
 838              		.loc 1 643 13
 839 03c8 FFF7FEFF 		bl	HAL_GetTick
 840 03cc 0246     		mov	r2, r0
 841              		.loc 1 643 27
 842 03ce 3B69     		ldr	r3, [r7, #16]
 843 03d0 D31A     		subs	r3, r2, r3
 844              		.loc 1 643 11
 845 03d2 022B     		cmp	r3, #2
 846 03d4 01D9     		bls	.L50
 644:d:/LiteOS_Lab/drivers/third_party/ST/STM32L4xx_HAL_Driver/Src\stm32l4xx_hal_rcc.c ****         {
 645:d:/LiteOS_Lab/drivers/third_party/ST/STM32L4xx_HAL_Driver/Src\stm32l4xx_hal_rcc.c ****           return HAL_TIMEOUT;
 847              		.loc 1 645 18
 848 03d6 0323     		movs	r3, #3
 849 03d8 AAE1     		b	.L16
 850              	.L50:
 641:d:/LiteOS_Lab/drivers/third_party/ST/STM32L4xx_HAL_Driver/Src\stm32l4xx_hal_rcc.c ****       {
 851              		.loc 1 641 13
 852 03da 5E4B     		ldr	r3, .L87
 853 03dc D3F89430 		ldr	r3, [r3, #148]
 854 03e0 03F00203 		and	r3, r3, #2
 641:d:/LiteOS_Lab/drivers/third_party/ST/STM32L4xx_HAL_Driver/Src\stm32l4xx_hal_rcc.c ****       {
 855              		.loc 1 641 12
 856 03e4 002B     		cmp	r3, #0
 857 03e6 EFD0     		beq	.L51
 858 03e8 1BE0     		b	.L48
 859              	.L49:
 646:d:/LiteOS_Lab/drivers/third_party/ST/STM32L4xx_HAL_Driver/Src\stm32l4xx_hal_rcc.c ****         }
 647:d:/LiteOS_Lab/drivers/third_party/ST/STM32L4xx_HAL_Driver/Src\stm32l4xx_hal_rcc.c ****       }
 648:d:/LiteOS_Lab/drivers/third_party/ST/STM32L4xx_HAL_Driver/Src\stm32l4xx_hal_rcc.c ****     }
 649:d:/LiteOS_Lab/drivers/third_party/ST/STM32L4xx_HAL_Driver/Src\stm32l4xx_hal_rcc.c ****     else
 650:d:/LiteOS_Lab/drivers/third_party/ST/STM32L4xx_HAL_Driver/Src\stm32l4xx_hal_rcc.c ****     {
 651:d:/LiteOS_Lab/drivers/third_party/ST/STM32L4xx_HAL_Driver/Src\stm32l4xx_hal_rcc.c ****       /* Disable the Internal Low Speed oscillator (LSI). */
 652:d:/LiteOS_Lab/drivers/third_party/ST/STM32L4xx_HAL_Driver/Src\stm32l4xx_hal_rcc.c ****       __HAL_RCC_LSI_DISABLE();
 860              		.loc 1 652 7
 861 03ea 5A4B     		ldr	r3, .L87
 862 03ec D3F89430 		ldr	r3, [r3, #148]
 863 03f0 584A     		ldr	r2, .L87
 864 03f2 23F00103 		bic	r3, r3, #1
 865 03f6 C2F89430 		str	r3, [r2, #148]
 653:d:/LiteOS_Lab/drivers/third_party/ST/STM32L4xx_HAL_Driver/Src\stm32l4xx_hal_rcc.c **** 
ARM GAS  C:\Users\ADMINI~1\AppData\Local\Temp\cc0pkmxZ.s 			page 28


 654:d:/LiteOS_Lab/drivers/third_party/ST/STM32L4xx_HAL_Driver/Src\stm32l4xx_hal_rcc.c ****       /* Get Start Tick*/
 655:d:/LiteOS_Lab/drivers/third_party/ST/STM32L4xx_HAL_Driver/Src\stm32l4xx_hal_rcc.c ****       tickstart = HAL_GetTick();
 866              		.loc 1 655 19
 867 03fa FFF7FEFF 		bl	HAL_GetTick
 868 03fe 3861     		str	r0, [r7, #16]
 656:d:/LiteOS_Lab/drivers/third_party/ST/STM32L4xx_HAL_Driver/Src\stm32l4xx_hal_rcc.c **** 
 657:d:/LiteOS_Lab/drivers/third_party/ST/STM32L4xx_HAL_Driver/Src\stm32l4xx_hal_rcc.c ****       /* Wait till LSI is disabled */
 658:d:/LiteOS_Lab/drivers/third_party/ST/STM32L4xx_HAL_Driver/Src\stm32l4xx_hal_rcc.c ****       while(READ_BIT(RCC->CSR, RCC_CSR_LSIRDY) != RESET)
 869              		.loc 1 658 12
 870 0400 08E0     		b	.L52
 871              	.L53:
 659:d:/LiteOS_Lab/drivers/third_party/ST/STM32L4xx_HAL_Driver/Src\stm32l4xx_hal_rcc.c ****       {
 660:d:/LiteOS_Lab/drivers/third_party/ST/STM32L4xx_HAL_Driver/Src\stm32l4xx_hal_rcc.c ****         if((HAL_GetTick() - tickstart) > LSI_TIMEOUT_VALUE)
 872              		.loc 1 660 13
 873 0402 FFF7FEFF 		bl	HAL_GetTick
 874 0406 0246     		mov	r2, r0
 875              		.loc 1 660 27
 876 0408 3B69     		ldr	r3, [r7, #16]
 877 040a D31A     		subs	r3, r2, r3
 878              		.loc 1 660 11
 879 040c 022B     		cmp	r3, #2
 880 040e 01D9     		bls	.L52
 661:d:/LiteOS_Lab/drivers/third_party/ST/STM32L4xx_HAL_Driver/Src\stm32l4xx_hal_rcc.c ****         {
 662:d:/LiteOS_Lab/drivers/third_party/ST/STM32L4xx_HAL_Driver/Src\stm32l4xx_hal_rcc.c ****           return HAL_TIMEOUT;
 881              		.loc 1 662 18
 882 0410 0323     		movs	r3, #3
 883 0412 8DE1     		b	.L16
 884              	.L52:
 658:d:/LiteOS_Lab/drivers/third_party/ST/STM32L4xx_HAL_Driver/Src\stm32l4xx_hal_rcc.c ****       {
 885              		.loc 1 658 13
 886 0414 4F4B     		ldr	r3, .L87
 887 0416 D3F89430 		ldr	r3, [r3, #148]
 888 041a 03F00203 		and	r3, r3, #2
 658:d:/LiteOS_Lab/drivers/third_party/ST/STM32L4xx_HAL_Driver/Src\stm32l4xx_hal_rcc.c ****       {
 889              		.loc 1 658 12
 890 041e 002B     		cmp	r3, #0
 891 0420 EFD1     		bne	.L53
 892              	.L48:
 663:d:/LiteOS_Lab/drivers/third_party/ST/STM32L4xx_HAL_Driver/Src\stm32l4xx_hal_rcc.c ****         }
 664:d:/LiteOS_Lab/drivers/third_party/ST/STM32L4xx_HAL_Driver/Src\stm32l4xx_hal_rcc.c ****       }
 665:d:/LiteOS_Lab/drivers/third_party/ST/STM32L4xx_HAL_Driver/Src\stm32l4xx_hal_rcc.c ****     }
 666:d:/LiteOS_Lab/drivers/third_party/ST/STM32L4xx_HAL_Driver/Src\stm32l4xx_hal_rcc.c ****   }
 667:d:/LiteOS_Lab/drivers/third_party/ST/STM32L4xx_HAL_Driver/Src\stm32l4xx_hal_rcc.c ****   /*------------------------------ LSE Configuration -------------------------*/
 668:d:/LiteOS_Lab/drivers/third_party/ST/STM32L4xx_HAL_Driver/Src\stm32l4xx_hal_rcc.c ****   if(((RCC_OscInitStruct->OscillatorType) & RCC_OSCILLATORTYPE_LSE) == RCC_OSCILLATORTYPE_LSE)
 893              		.loc 1 668 25
 894 0422 7B68     		ldr	r3, [r7, #4]
 895 0424 1B68     		ldr	r3, [r3]
 896              		.loc 1 668 43
 897 0426 03F00403 		and	r3, r3, #4
 898              		.loc 1 668 5
 899 042a 002B     		cmp	r3, #0
 900 042c 00F0A680 		beq	.L54
 901              	.LBB2:
 669:d:/LiteOS_Lab/drivers/third_party/ST/STM32L4xx_HAL_Driver/Src\stm32l4xx_hal_rcc.c ****   {
 670:d:/LiteOS_Lab/drivers/third_party/ST/STM32L4xx_HAL_Driver/Src\stm32l4xx_hal_rcc.c ****     FlagStatus       pwrclkchanged = RESET;
 902              		.loc 1 670 22
 903 0430 0023     		movs	r3, #0
ARM GAS  C:\Users\ADMINI~1\AppData\Local\Temp\cc0pkmxZ.s 			page 29


 904 0432 FB75     		strb	r3, [r7, #23]
 671:d:/LiteOS_Lab/drivers/third_party/ST/STM32L4xx_HAL_Driver/Src\stm32l4xx_hal_rcc.c **** 
 672:d:/LiteOS_Lab/drivers/third_party/ST/STM32L4xx_HAL_Driver/Src\stm32l4xx_hal_rcc.c ****     /* Check the parameters */
 673:d:/LiteOS_Lab/drivers/third_party/ST/STM32L4xx_HAL_Driver/Src\stm32l4xx_hal_rcc.c ****     assert_param(IS_RCC_LSE(RCC_OscInitStruct->LSEState));
 674:d:/LiteOS_Lab/drivers/third_party/ST/STM32L4xx_HAL_Driver/Src\stm32l4xx_hal_rcc.c **** 
 675:d:/LiteOS_Lab/drivers/third_party/ST/STM32L4xx_HAL_Driver/Src\stm32l4xx_hal_rcc.c ****     /* Update LSE configuration in Backup Domain control register    */
 676:d:/LiteOS_Lab/drivers/third_party/ST/STM32L4xx_HAL_Driver/Src\stm32l4xx_hal_rcc.c ****     /* Requires to enable write access to Backup Domain of necessary */
 677:d:/LiteOS_Lab/drivers/third_party/ST/STM32L4xx_HAL_Driver/Src\stm32l4xx_hal_rcc.c ****     if(HAL_IS_BIT_CLR(RCC->APB1ENR1, RCC_APB1ENR1_PWREN))
 905              		.loc 1 677 8
 906 0434 474B     		ldr	r3, .L87
 907 0436 9B6D     		ldr	r3, [r3, #88]
 908 0438 03F08053 		and	r3, r3, #268435456
 909              		.loc 1 677 7
 910 043c 002B     		cmp	r3, #0
 911 043e 0DD1     		bne	.L55
 912              	.LBB3:
 678:d:/LiteOS_Lab/drivers/third_party/ST/STM32L4xx_HAL_Driver/Src\stm32l4xx_hal_rcc.c ****     {
 679:d:/LiteOS_Lab/drivers/third_party/ST/STM32L4xx_HAL_Driver/Src\stm32l4xx_hal_rcc.c ****       __HAL_RCC_PWR_CLK_ENABLE();
 913              		.loc 1 679 7
 914 0440 444B     		ldr	r3, .L87
 915 0442 9B6D     		ldr	r3, [r3, #88]
 916 0444 434A     		ldr	r2, .L87
 917 0446 43F08053 		orr	r3, r3, #268435456
 918 044a 9365     		str	r3, [r2, #88]
 919 044c 414B     		ldr	r3, .L87
 920 044e 9B6D     		ldr	r3, [r3, #88]
 921 0450 03F08053 		and	r3, r3, #268435456
 922 0454 FB60     		str	r3, [r7, #12]
 923 0456 FB68     		ldr	r3, [r7, #12]
 924              	.LBE3:
 680:d:/LiteOS_Lab/drivers/third_party/ST/STM32L4xx_HAL_Driver/Src\stm32l4xx_hal_rcc.c ****       pwrclkchanged = SET;
 925              		.loc 1 680 21
 926 0458 0123     		movs	r3, #1
 927 045a FB75     		strb	r3, [r7, #23]
 928              	.L55:
 681:d:/LiteOS_Lab/drivers/third_party/ST/STM32L4xx_HAL_Driver/Src\stm32l4xx_hal_rcc.c ****     }
 682:d:/LiteOS_Lab/drivers/third_party/ST/STM32L4xx_HAL_Driver/Src\stm32l4xx_hal_rcc.c **** 
 683:d:/LiteOS_Lab/drivers/third_party/ST/STM32L4xx_HAL_Driver/Src\stm32l4xx_hal_rcc.c ****     if(HAL_IS_BIT_CLR(PWR->CR1, PWR_CR1_DBP))
 929              		.loc 1 683 8
 930 045c 3E4B     		ldr	r3, .L87+4
 931 045e 1B68     		ldr	r3, [r3]
 932 0460 03F48073 		and	r3, r3, #256
 933              		.loc 1 683 7
 934 0464 002B     		cmp	r3, #0
 935 0466 18D1     		bne	.L56
 684:d:/LiteOS_Lab/drivers/third_party/ST/STM32L4xx_HAL_Driver/Src\stm32l4xx_hal_rcc.c ****     {
 685:d:/LiteOS_Lab/drivers/third_party/ST/STM32L4xx_HAL_Driver/Src\stm32l4xx_hal_rcc.c ****       /* Enable write access to Backup domain */
 686:d:/LiteOS_Lab/drivers/third_party/ST/STM32L4xx_HAL_Driver/Src\stm32l4xx_hal_rcc.c ****       SET_BIT(PWR->CR1, PWR_CR1_DBP);
 936              		.loc 1 686 7
 937 0468 3B4B     		ldr	r3, .L87+4
 938 046a 1B68     		ldr	r3, [r3]
 939 046c 3A4A     		ldr	r2, .L87+4
 940 046e 43F48073 		orr	r3, r3, #256
 941 0472 1360     		str	r3, [r2]
 687:d:/LiteOS_Lab/drivers/third_party/ST/STM32L4xx_HAL_Driver/Src\stm32l4xx_hal_rcc.c **** 
 688:d:/LiteOS_Lab/drivers/third_party/ST/STM32L4xx_HAL_Driver/Src\stm32l4xx_hal_rcc.c ****       /* Wait for Backup domain Write protection disable */
 689:d:/LiteOS_Lab/drivers/third_party/ST/STM32L4xx_HAL_Driver/Src\stm32l4xx_hal_rcc.c ****       tickstart = HAL_GetTick();
ARM GAS  C:\Users\ADMINI~1\AppData\Local\Temp\cc0pkmxZ.s 			page 30


 942              		.loc 1 689 19
 943 0474 FFF7FEFF 		bl	HAL_GetTick
 944 0478 3861     		str	r0, [r7, #16]
 690:d:/LiteOS_Lab/drivers/third_party/ST/STM32L4xx_HAL_Driver/Src\stm32l4xx_hal_rcc.c **** 
 691:d:/LiteOS_Lab/drivers/third_party/ST/STM32L4xx_HAL_Driver/Src\stm32l4xx_hal_rcc.c ****       while(HAL_IS_BIT_CLR(PWR->CR1, PWR_CR1_DBP))
 945              		.loc 1 691 12
 946 047a 08E0     		b	.L57
 947              	.L58:
 692:d:/LiteOS_Lab/drivers/third_party/ST/STM32L4xx_HAL_Driver/Src\stm32l4xx_hal_rcc.c ****       {
 693:d:/LiteOS_Lab/drivers/third_party/ST/STM32L4xx_HAL_Driver/Src\stm32l4xx_hal_rcc.c ****         if((HAL_GetTick() - tickstart) > RCC_DBP_TIMEOUT_VALUE)
 948              		.loc 1 693 13
 949 047c FFF7FEFF 		bl	HAL_GetTick
 950 0480 0246     		mov	r2, r0
 951              		.loc 1 693 27
 952 0482 3B69     		ldr	r3, [r7, #16]
 953 0484 D31A     		subs	r3, r2, r3
 954              		.loc 1 693 11
 955 0486 022B     		cmp	r3, #2
 956 0488 01D9     		bls	.L57
 694:d:/LiteOS_Lab/drivers/third_party/ST/STM32L4xx_HAL_Driver/Src\stm32l4xx_hal_rcc.c ****         {
 695:d:/LiteOS_Lab/drivers/third_party/ST/STM32L4xx_HAL_Driver/Src\stm32l4xx_hal_rcc.c ****           return HAL_TIMEOUT;
 957              		.loc 1 695 18
 958 048a 0323     		movs	r3, #3
 959 048c 50E1     		b	.L16
 960              	.L57:
 691:d:/LiteOS_Lab/drivers/third_party/ST/STM32L4xx_HAL_Driver/Src\stm32l4xx_hal_rcc.c ****       {
 961              		.loc 1 691 13
 962 048e 324B     		ldr	r3, .L87+4
 963 0490 1B68     		ldr	r3, [r3]
 964 0492 03F48073 		and	r3, r3, #256
 691:d:/LiteOS_Lab/drivers/third_party/ST/STM32L4xx_HAL_Driver/Src\stm32l4xx_hal_rcc.c ****       {
 965              		.loc 1 691 12
 966 0496 002B     		cmp	r3, #0
 967 0498 F0D0     		beq	.L58
 968              	.L56:
 696:d:/LiteOS_Lab/drivers/third_party/ST/STM32L4xx_HAL_Driver/Src\stm32l4xx_hal_rcc.c ****         }
 697:d:/LiteOS_Lab/drivers/third_party/ST/STM32L4xx_HAL_Driver/Src\stm32l4xx_hal_rcc.c ****       }
 698:d:/LiteOS_Lab/drivers/third_party/ST/STM32L4xx_HAL_Driver/Src\stm32l4xx_hal_rcc.c ****     }
 699:d:/LiteOS_Lab/drivers/third_party/ST/STM32L4xx_HAL_Driver/Src\stm32l4xx_hal_rcc.c **** 
 700:d:/LiteOS_Lab/drivers/third_party/ST/STM32L4xx_HAL_Driver/Src\stm32l4xx_hal_rcc.c ****     /* Set the new LSE configuration -----------------------------------------*/
 701:d:/LiteOS_Lab/drivers/third_party/ST/STM32L4xx_HAL_Driver/Src\stm32l4xx_hal_rcc.c ****     __HAL_RCC_LSE_CONFIG(RCC_OscInitStruct->LSEState);
 969              		.loc 1 701 5
 970 049a 7B68     		ldr	r3, [r7, #4]
 971 049c 9B68     		ldr	r3, [r3, #8]
 972 049e 012B     		cmp	r3, #1
 973 04a0 08D1     		bne	.L59
 974              		.loc 1 701 5 is_stmt 0 discriminator 1
 975 04a2 2C4B     		ldr	r3, .L87
 976 04a4 D3F89030 		ldr	r3, [r3, #144]
 977 04a8 2A4A     		ldr	r2, .L87
 978 04aa 43F00103 		orr	r3, r3, #1
 979 04ae C2F89030 		str	r3, [r2, #144]
 980 04b2 24E0     		b	.L60
 981              	.L59:
 982              		.loc 1 701 5 discriminator 2
 983 04b4 7B68     		ldr	r3, [r7, #4]
 984 04b6 9B68     		ldr	r3, [r3, #8]
ARM GAS  C:\Users\ADMINI~1\AppData\Local\Temp\cc0pkmxZ.s 			page 31


 985 04b8 052B     		cmp	r3, #5
 986 04ba 10D1     		bne	.L61
 987              		.loc 1 701 5 discriminator 3
 988 04bc 254B     		ldr	r3, .L87
 989 04be D3F89030 		ldr	r3, [r3, #144]
 990 04c2 244A     		ldr	r2, .L87
 991 04c4 43F00403 		orr	r3, r3, #4
 992 04c8 C2F89030 		str	r3, [r2, #144]
 993 04cc 214B     		ldr	r3, .L87
 994 04ce D3F89030 		ldr	r3, [r3, #144]
 995 04d2 204A     		ldr	r2, .L87
 996 04d4 43F00103 		orr	r3, r3, #1
 997 04d8 C2F89030 		str	r3, [r2, #144]
 998 04dc 0FE0     		b	.L60
 999              	.L61:
 1000              		.loc 1 701 5 discriminator 4
 1001 04de 1D4B     		ldr	r3, .L87
 1002 04e0 D3F89030 		ldr	r3, [r3, #144]
 1003 04e4 1B4A     		ldr	r2, .L87
 1004 04e6 23F00103 		bic	r3, r3, #1
 1005 04ea C2F89030 		str	r3, [r2, #144]
 1006 04ee 194B     		ldr	r3, .L87
 1007 04f0 D3F89030 		ldr	r3, [r3, #144]
 1008 04f4 174A     		ldr	r2, .L87
 1009 04f6 23F00403 		bic	r3, r3, #4
 1010 04fa C2F89030 		str	r3, [r2, #144]
 1011              	.L60:
 702:d:/LiteOS_Lab/drivers/third_party/ST/STM32L4xx_HAL_Driver/Src\stm32l4xx_hal_rcc.c **** 
 703:d:/LiteOS_Lab/drivers/third_party/ST/STM32L4xx_HAL_Driver/Src\stm32l4xx_hal_rcc.c ****     /* Check the LSE State */
 704:d:/LiteOS_Lab/drivers/third_party/ST/STM32L4xx_HAL_Driver/Src\stm32l4xx_hal_rcc.c ****     if(RCC_OscInitStruct->LSEState != RCC_LSE_OFF)
 1012              		.loc 1 704 25 is_stmt 1
 1013 04fe 7B68     		ldr	r3, [r7, #4]
 1014 0500 9B68     		ldr	r3, [r3, #8]
 1015              		.loc 1 704 7
 1016 0502 002B     		cmp	r3, #0
 1017 0504 16D0     		beq	.L62
 705:d:/LiteOS_Lab/drivers/third_party/ST/STM32L4xx_HAL_Driver/Src\stm32l4xx_hal_rcc.c ****     {
 706:d:/LiteOS_Lab/drivers/third_party/ST/STM32L4xx_HAL_Driver/Src\stm32l4xx_hal_rcc.c ****       /* Get Start Tick*/
 707:d:/LiteOS_Lab/drivers/third_party/ST/STM32L4xx_HAL_Driver/Src\stm32l4xx_hal_rcc.c ****       tickstart = HAL_GetTick();
 1018              		.loc 1 707 19
 1019 0506 FFF7FEFF 		bl	HAL_GetTick
 1020 050a 3861     		str	r0, [r7, #16]
 708:d:/LiteOS_Lab/drivers/third_party/ST/STM32L4xx_HAL_Driver/Src\stm32l4xx_hal_rcc.c **** 
 709:d:/LiteOS_Lab/drivers/third_party/ST/STM32L4xx_HAL_Driver/Src\stm32l4xx_hal_rcc.c ****       /* Wait till LSE is ready */
 710:d:/LiteOS_Lab/drivers/third_party/ST/STM32L4xx_HAL_Driver/Src\stm32l4xx_hal_rcc.c ****       while(READ_BIT(RCC->BDCR, RCC_BDCR_LSERDY) == RESET)
 1021              		.loc 1 710 12
 1022 050c 0AE0     		b	.L63
 1023              	.L64:
 711:d:/LiteOS_Lab/drivers/third_party/ST/STM32L4xx_HAL_Driver/Src\stm32l4xx_hal_rcc.c ****       {
 712:d:/LiteOS_Lab/drivers/third_party/ST/STM32L4xx_HAL_Driver/Src\stm32l4xx_hal_rcc.c ****         if((HAL_GetTick() - tickstart) > RCC_LSE_TIMEOUT_VALUE)
 1024              		.loc 1 712 13
 1025 050e FFF7FEFF 		bl	HAL_GetTick
 1026 0512 0246     		mov	r2, r0
 1027              		.loc 1 712 27
 1028 0514 3B69     		ldr	r3, [r7, #16]
 1029 0516 D31A     		subs	r3, r2, r3
 1030              		.loc 1 712 11
ARM GAS  C:\Users\ADMINI~1\AppData\Local\Temp\cc0pkmxZ.s 			page 32


 1031 0518 41F28832 		movw	r2, #5000
 1032 051c 9342     		cmp	r3, r2
 1033 051e 01D9     		bls	.L63
 713:d:/LiteOS_Lab/drivers/third_party/ST/STM32L4xx_HAL_Driver/Src\stm32l4xx_hal_rcc.c ****         {
 714:d:/LiteOS_Lab/drivers/third_party/ST/STM32L4xx_HAL_Driver/Src\stm32l4xx_hal_rcc.c ****           return HAL_TIMEOUT;
 1034              		.loc 1 714 18
 1035 0520 0323     		movs	r3, #3
 1036 0522 05E1     		b	.L16
 1037              	.L63:
 710:d:/LiteOS_Lab/drivers/third_party/ST/STM32L4xx_HAL_Driver/Src\stm32l4xx_hal_rcc.c ****       {
 1038              		.loc 1 710 13
 1039 0524 0B4B     		ldr	r3, .L87
 1040 0526 D3F89030 		ldr	r3, [r3, #144]
 1041 052a 03F00203 		and	r3, r3, #2
 710:d:/LiteOS_Lab/drivers/third_party/ST/STM32L4xx_HAL_Driver/Src\stm32l4xx_hal_rcc.c ****       {
 1042              		.loc 1 710 12
 1043 052e 002B     		cmp	r3, #0
 1044 0530 EDD0     		beq	.L64
 1045 0532 1AE0     		b	.L65
 1046              	.L62:
 715:d:/LiteOS_Lab/drivers/third_party/ST/STM32L4xx_HAL_Driver/Src\stm32l4xx_hal_rcc.c ****         }
 716:d:/LiteOS_Lab/drivers/third_party/ST/STM32L4xx_HAL_Driver/Src\stm32l4xx_hal_rcc.c ****       }
 717:d:/LiteOS_Lab/drivers/third_party/ST/STM32L4xx_HAL_Driver/Src\stm32l4xx_hal_rcc.c ****     }
 718:d:/LiteOS_Lab/drivers/third_party/ST/STM32L4xx_HAL_Driver/Src\stm32l4xx_hal_rcc.c ****     else
 719:d:/LiteOS_Lab/drivers/third_party/ST/STM32L4xx_HAL_Driver/Src\stm32l4xx_hal_rcc.c ****     {
 720:d:/LiteOS_Lab/drivers/third_party/ST/STM32L4xx_HAL_Driver/Src\stm32l4xx_hal_rcc.c ****       /* Get Start Tick*/
 721:d:/LiteOS_Lab/drivers/third_party/ST/STM32L4xx_HAL_Driver/Src\stm32l4xx_hal_rcc.c ****       tickstart = HAL_GetTick();
 1047              		.loc 1 721 19
 1048 0534 FFF7FEFF 		bl	HAL_GetTick
 1049 0538 3861     		str	r0, [r7, #16]
 722:d:/LiteOS_Lab/drivers/third_party/ST/STM32L4xx_HAL_Driver/Src\stm32l4xx_hal_rcc.c **** 
 723:d:/LiteOS_Lab/drivers/third_party/ST/STM32L4xx_HAL_Driver/Src\stm32l4xx_hal_rcc.c ****       /* Wait till LSE is disabled */
 724:d:/LiteOS_Lab/drivers/third_party/ST/STM32L4xx_HAL_Driver/Src\stm32l4xx_hal_rcc.c ****       while(READ_BIT(RCC->BDCR, RCC_BDCR_LSERDY) != RESET)
 1050              		.loc 1 724 12
 1051 053a 0FE0     		b	.L66
 1052              	.L67:
 725:d:/LiteOS_Lab/drivers/third_party/ST/STM32L4xx_HAL_Driver/Src\stm32l4xx_hal_rcc.c ****       {
 726:d:/LiteOS_Lab/drivers/third_party/ST/STM32L4xx_HAL_Driver/Src\stm32l4xx_hal_rcc.c ****         if((HAL_GetTick() - tickstart) > RCC_LSE_TIMEOUT_VALUE)
 1053              		.loc 1 726 13
 1054 053c FFF7FEFF 		bl	HAL_GetTick
 1055 0540 0246     		mov	r2, r0
 1056              		.loc 1 726 27
 1057 0542 3B69     		ldr	r3, [r7, #16]
 1058 0544 D31A     		subs	r3, r2, r3
 1059              		.loc 1 726 11
 1060 0546 41F28832 		movw	r2, #5000
 1061 054a 9342     		cmp	r3, r2
 1062 054c 06D9     		bls	.L66
 727:d:/LiteOS_Lab/drivers/third_party/ST/STM32L4xx_HAL_Driver/Src\stm32l4xx_hal_rcc.c ****         {
 728:d:/LiteOS_Lab/drivers/third_party/ST/STM32L4xx_HAL_Driver/Src\stm32l4xx_hal_rcc.c ****           return HAL_TIMEOUT;
 1063              		.loc 1 728 18
 1064 054e 0323     		movs	r3, #3
 1065 0550 EEE0     		b	.L16
 1066              	.L88:
 1067 0552 00BF     		.align	2
 1068              	.L87:
 1069 0554 00100240 		.word	1073876992
ARM GAS  C:\Users\ADMINI~1\AppData\Local\Temp\cc0pkmxZ.s 			page 33


 1070 0558 00700040 		.word	1073770496
 1071              	.L66:
 724:d:/LiteOS_Lab/drivers/third_party/ST/STM32L4xx_HAL_Driver/Src\stm32l4xx_hal_rcc.c ****       {
 1072              		.loc 1 724 13
 1073 055c 764B     		ldr	r3, .L89
 1074 055e D3F89030 		ldr	r3, [r3, #144]
 1075 0562 03F00203 		and	r3, r3, #2
 724:d:/LiteOS_Lab/drivers/third_party/ST/STM32L4xx_HAL_Driver/Src\stm32l4xx_hal_rcc.c ****       {
 1076              		.loc 1 724 12
 1077 0566 002B     		cmp	r3, #0
 1078 0568 E8D1     		bne	.L67
 1079              	.L65:
 729:d:/LiteOS_Lab/drivers/third_party/ST/STM32L4xx_HAL_Driver/Src\stm32l4xx_hal_rcc.c ****         }
 730:d:/LiteOS_Lab/drivers/third_party/ST/STM32L4xx_HAL_Driver/Src\stm32l4xx_hal_rcc.c ****       }
 731:d:/LiteOS_Lab/drivers/third_party/ST/STM32L4xx_HAL_Driver/Src\stm32l4xx_hal_rcc.c ****     }
 732:d:/LiteOS_Lab/drivers/third_party/ST/STM32L4xx_HAL_Driver/Src\stm32l4xx_hal_rcc.c **** 
 733:d:/LiteOS_Lab/drivers/third_party/ST/STM32L4xx_HAL_Driver/Src\stm32l4xx_hal_rcc.c ****     /* Restore clock configuration if changed */
 734:d:/LiteOS_Lab/drivers/third_party/ST/STM32L4xx_HAL_Driver/Src\stm32l4xx_hal_rcc.c ****     if(pwrclkchanged == SET)
 1080              		.loc 1 734 7
 1081 056a FB7D     		ldrb	r3, [r7, #23]	@ zero_extendqisi2
 1082 056c 012B     		cmp	r3, #1
 1083 056e 05D1     		bne	.L54
 735:d:/LiteOS_Lab/drivers/third_party/ST/STM32L4xx_HAL_Driver/Src\stm32l4xx_hal_rcc.c ****     {
 736:d:/LiteOS_Lab/drivers/third_party/ST/STM32L4xx_HAL_Driver/Src\stm32l4xx_hal_rcc.c ****       __HAL_RCC_PWR_CLK_DISABLE();
 1084              		.loc 1 736 7
 1085 0570 714B     		ldr	r3, .L89
 1086 0572 9B6D     		ldr	r3, [r3, #88]
 1087 0574 704A     		ldr	r2, .L89
 1088 0576 23F08053 		bic	r3, r3, #268435456
 1089 057a 9365     		str	r3, [r2, #88]
 1090              	.L54:
 1091              	.LBE2:
 737:d:/LiteOS_Lab/drivers/third_party/ST/STM32L4xx_HAL_Driver/Src\stm32l4xx_hal_rcc.c ****     }
 738:d:/LiteOS_Lab/drivers/third_party/ST/STM32L4xx_HAL_Driver/Src\stm32l4xx_hal_rcc.c ****   }
 739:d:/LiteOS_Lab/drivers/third_party/ST/STM32L4xx_HAL_Driver/Src\stm32l4xx_hal_rcc.c **** #if defined(RCC_HSI48_SUPPORT)
 740:d:/LiteOS_Lab/drivers/third_party/ST/STM32L4xx_HAL_Driver/Src\stm32l4xx_hal_rcc.c ****   /*------------------------------ HSI48 Configuration -----------------------*/
 741:d:/LiteOS_Lab/drivers/third_party/ST/STM32L4xx_HAL_Driver/Src\stm32l4xx_hal_rcc.c ****   if(((RCC_OscInitStruct->OscillatorType) & RCC_OSCILLATORTYPE_HSI48) == RCC_OSCILLATORTYPE_HSI48)
 1092              		.loc 1 741 25
 1093 057c 7B68     		ldr	r3, [r7, #4]
 1094 057e 1B68     		ldr	r3, [r3]
 1095              		.loc 1 741 43
 1096 0580 03F02003 		and	r3, r3, #32
 1097              		.loc 1 741 5
 1098 0584 002B     		cmp	r3, #0
 1099 0586 3CD0     		beq	.L68
 742:d:/LiteOS_Lab/drivers/third_party/ST/STM32L4xx_HAL_Driver/Src\stm32l4xx_hal_rcc.c ****   {
 743:d:/LiteOS_Lab/drivers/third_party/ST/STM32L4xx_HAL_Driver/Src\stm32l4xx_hal_rcc.c ****     /* Check the parameters */
 744:d:/LiteOS_Lab/drivers/third_party/ST/STM32L4xx_HAL_Driver/Src\stm32l4xx_hal_rcc.c ****     assert_param(IS_RCC_HSI48(RCC_OscInitStruct->HSI48State));
 745:d:/LiteOS_Lab/drivers/third_party/ST/STM32L4xx_HAL_Driver/Src\stm32l4xx_hal_rcc.c **** 
 746:d:/LiteOS_Lab/drivers/third_party/ST/STM32L4xx_HAL_Driver/Src\stm32l4xx_hal_rcc.c ****     /* Check the LSI State */
 747:d:/LiteOS_Lab/drivers/third_party/ST/STM32L4xx_HAL_Driver/Src\stm32l4xx_hal_rcc.c ****     if(RCC_OscInitStruct->HSI48State != RCC_HSI48_OFF)
 1100              		.loc 1 747 25
 1101 0588 7B68     		ldr	r3, [r7, #4]
 1102 058a 5B6A     		ldr	r3, [r3, #36]
 1103              		.loc 1 747 7
 1104 058c 002B     		cmp	r3, #0
 1105 058e 1CD0     		beq	.L69
ARM GAS  C:\Users\ADMINI~1\AppData\Local\Temp\cc0pkmxZ.s 			page 34


 748:d:/LiteOS_Lab/drivers/third_party/ST/STM32L4xx_HAL_Driver/Src\stm32l4xx_hal_rcc.c ****     {
 749:d:/LiteOS_Lab/drivers/third_party/ST/STM32L4xx_HAL_Driver/Src\stm32l4xx_hal_rcc.c ****       /* Enable the Internal Low Speed oscillator (HSI48). */
 750:d:/LiteOS_Lab/drivers/third_party/ST/STM32L4xx_HAL_Driver/Src\stm32l4xx_hal_rcc.c ****       __HAL_RCC_HSI48_ENABLE();
 1106              		.loc 1 750 7
 1107 0590 694B     		ldr	r3, .L89
 1108 0592 D3F89830 		ldr	r3, [r3, #152]
 1109 0596 684A     		ldr	r2, .L89
 1110 0598 43F00103 		orr	r3, r3, #1
 1111 059c C2F89830 		str	r3, [r2, #152]
 751:d:/LiteOS_Lab/drivers/third_party/ST/STM32L4xx_HAL_Driver/Src\stm32l4xx_hal_rcc.c **** 
 752:d:/LiteOS_Lab/drivers/third_party/ST/STM32L4xx_HAL_Driver/Src\stm32l4xx_hal_rcc.c ****       /* Get Start Tick*/
 753:d:/LiteOS_Lab/drivers/third_party/ST/STM32L4xx_HAL_Driver/Src\stm32l4xx_hal_rcc.c ****       tickstart = HAL_GetTick();
 1112              		.loc 1 753 19
 1113 05a0 FFF7FEFF 		bl	HAL_GetTick
 1114 05a4 3861     		str	r0, [r7, #16]
 754:d:/LiteOS_Lab/drivers/third_party/ST/STM32L4xx_HAL_Driver/Src\stm32l4xx_hal_rcc.c **** 
 755:d:/LiteOS_Lab/drivers/third_party/ST/STM32L4xx_HAL_Driver/Src\stm32l4xx_hal_rcc.c ****       /* Wait till HSI48 is ready */
 756:d:/LiteOS_Lab/drivers/third_party/ST/STM32L4xx_HAL_Driver/Src\stm32l4xx_hal_rcc.c ****       while(READ_BIT(RCC->CRRCR, RCC_CRRCR_HSI48RDY) == RESET)
 1115              		.loc 1 756 12
 1116 05a6 08E0     		b	.L70
 1117              	.L71:
 757:d:/LiteOS_Lab/drivers/third_party/ST/STM32L4xx_HAL_Driver/Src\stm32l4xx_hal_rcc.c ****       {
 758:d:/LiteOS_Lab/drivers/third_party/ST/STM32L4xx_HAL_Driver/Src\stm32l4xx_hal_rcc.c ****         if((HAL_GetTick() - tickstart) > HSI48_TIMEOUT_VALUE)
 1118              		.loc 1 758 13
 1119 05a8 FFF7FEFF 		bl	HAL_GetTick
 1120 05ac 0246     		mov	r2, r0
 1121              		.loc 1 758 27
 1122 05ae 3B69     		ldr	r3, [r7, #16]
 1123 05b0 D31A     		subs	r3, r2, r3
 1124              		.loc 1 758 11
 1125 05b2 022B     		cmp	r3, #2
 1126 05b4 01D9     		bls	.L70
 759:d:/LiteOS_Lab/drivers/third_party/ST/STM32L4xx_HAL_Driver/Src\stm32l4xx_hal_rcc.c ****         {
 760:d:/LiteOS_Lab/drivers/third_party/ST/STM32L4xx_HAL_Driver/Src\stm32l4xx_hal_rcc.c ****           return HAL_TIMEOUT;
 1127              		.loc 1 760 18
 1128 05b6 0323     		movs	r3, #3
 1129 05b8 BAE0     		b	.L16
 1130              	.L70:
 756:d:/LiteOS_Lab/drivers/third_party/ST/STM32L4xx_HAL_Driver/Src\stm32l4xx_hal_rcc.c ****       {
 1131              		.loc 1 756 13
 1132 05ba 5F4B     		ldr	r3, .L89
 1133 05bc D3F89830 		ldr	r3, [r3, #152]
 1134 05c0 03F00203 		and	r3, r3, #2
 756:d:/LiteOS_Lab/drivers/third_party/ST/STM32L4xx_HAL_Driver/Src\stm32l4xx_hal_rcc.c ****       {
 1135              		.loc 1 756 12
 1136 05c4 002B     		cmp	r3, #0
 1137 05c6 EFD0     		beq	.L71
 1138 05c8 1BE0     		b	.L68
 1139              	.L69:
 761:d:/LiteOS_Lab/drivers/third_party/ST/STM32L4xx_HAL_Driver/Src\stm32l4xx_hal_rcc.c ****         }
 762:d:/LiteOS_Lab/drivers/third_party/ST/STM32L4xx_HAL_Driver/Src\stm32l4xx_hal_rcc.c ****       }
 763:d:/LiteOS_Lab/drivers/third_party/ST/STM32L4xx_HAL_Driver/Src\stm32l4xx_hal_rcc.c ****     }
 764:d:/LiteOS_Lab/drivers/third_party/ST/STM32L4xx_HAL_Driver/Src\stm32l4xx_hal_rcc.c ****     else
 765:d:/LiteOS_Lab/drivers/third_party/ST/STM32L4xx_HAL_Driver/Src\stm32l4xx_hal_rcc.c ****     {
 766:d:/LiteOS_Lab/drivers/third_party/ST/STM32L4xx_HAL_Driver/Src\stm32l4xx_hal_rcc.c ****       /* Disable the Internal Low Speed oscillator (HSI48). */
 767:d:/LiteOS_Lab/drivers/third_party/ST/STM32L4xx_HAL_Driver/Src\stm32l4xx_hal_rcc.c ****       __HAL_RCC_HSI48_DISABLE();
 1140              		.loc 1 767 7
ARM GAS  C:\Users\ADMINI~1\AppData\Local\Temp\cc0pkmxZ.s 			page 35


 1141 05ca 5B4B     		ldr	r3, .L89
 1142 05cc D3F89830 		ldr	r3, [r3, #152]
 1143 05d0 594A     		ldr	r2, .L89
 1144 05d2 23F00103 		bic	r3, r3, #1
 1145 05d6 C2F89830 		str	r3, [r2, #152]
 768:d:/LiteOS_Lab/drivers/third_party/ST/STM32L4xx_HAL_Driver/Src\stm32l4xx_hal_rcc.c **** 
 769:d:/LiteOS_Lab/drivers/third_party/ST/STM32L4xx_HAL_Driver/Src\stm32l4xx_hal_rcc.c ****       /* Get Start Tick*/
 770:d:/LiteOS_Lab/drivers/third_party/ST/STM32L4xx_HAL_Driver/Src\stm32l4xx_hal_rcc.c ****       tickstart = HAL_GetTick();
 1146              		.loc 1 770 19
 1147 05da FFF7FEFF 		bl	HAL_GetTick
 1148 05de 3861     		str	r0, [r7, #16]
 771:d:/LiteOS_Lab/drivers/third_party/ST/STM32L4xx_HAL_Driver/Src\stm32l4xx_hal_rcc.c **** 
 772:d:/LiteOS_Lab/drivers/third_party/ST/STM32L4xx_HAL_Driver/Src\stm32l4xx_hal_rcc.c ****       /* Wait till HSI48 is disabled */
 773:d:/LiteOS_Lab/drivers/third_party/ST/STM32L4xx_HAL_Driver/Src\stm32l4xx_hal_rcc.c ****       while(READ_BIT(RCC->CRRCR, RCC_CRRCR_HSI48RDY) != RESET)
 1149              		.loc 1 773 12
 1150 05e0 08E0     		b	.L72
 1151              	.L73:
 774:d:/LiteOS_Lab/drivers/third_party/ST/STM32L4xx_HAL_Driver/Src\stm32l4xx_hal_rcc.c ****       {
 775:d:/LiteOS_Lab/drivers/third_party/ST/STM32L4xx_HAL_Driver/Src\stm32l4xx_hal_rcc.c ****         if((HAL_GetTick() - tickstart) > HSI48_TIMEOUT_VALUE)
 1152              		.loc 1 775 13
 1153 05e2 FFF7FEFF 		bl	HAL_GetTick
 1154 05e6 0246     		mov	r2, r0
 1155              		.loc 1 775 27
 1156 05e8 3B69     		ldr	r3, [r7, #16]
 1157 05ea D31A     		subs	r3, r2, r3
 1158              		.loc 1 775 11
 1159 05ec 022B     		cmp	r3, #2
 1160 05ee 01D9     		bls	.L72
 776:d:/LiteOS_Lab/drivers/third_party/ST/STM32L4xx_HAL_Driver/Src\stm32l4xx_hal_rcc.c ****         {
 777:d:/LiteOS_Lab/drivers/third_party/ST/STM32L4xx_HAL_Driver/Src\stm32l4xx_hal_rcc.c ****           return HAL_TIMEOUT;
 1161              		.loc 1 777 18
 1162 05f0 0323     		movs	r3, #3
 1163 05f2 9DE0     		b	.L16
 1164              	.L72:
 773:d:/LiteOS_Lab/drivers/third_party/ST/STM32L4xx_HAL_Driver/Src\stm32l4xx_hal_rcc.c ****       {
 1165              		.loc 1 773 13
 1166 05f4 504B     		ldr	r3, .L89
 1167 05f6 D3F89830 		ldr	r3, [r3, #152]
 1168 05fa 03F00203 		and	r3, r3, #2
 773:d:/LiteOS_Lab/drivers/third_party/ST/STM32L4xx_HAL_Driver/Src\stm32l4xx_hal_rcc.c ****       {
 1169              		.loc 1 773 12
 1170 05fe 002B     		cmp	r3, #0
 1171 0600 EFD1     		bne	.L73
 1172              	.L68:
 778:d:/LiteOS_Lab/drivers/third_party/ST/STM32L4xx_HAL_Driver/Src\stm32l4xx_hal_rcc.c ****         }
 779:d:/LiteOS_Lab/drivers/third_party/ST/STM32L4xx_HAL_Driver/Src\stm32l4xx_hal_rcc.c ****       }
 780:d:/LiteOS_Lab/drivers/third_party/ST/STM32L4xx_HAL_Driver/Src\stm32l4xx_hal_rcc.c ****     }
 781:d:/LiteOS_Lab/drivers/third_party/ST/STM32L4xx_HAL_Driver/Src\stm32l4xx_hal_rcc.c ****   }
 782:d:/LiteOS_Lab/drivers/third_party/ST/STM32L4xx_HAL_Driver/Src\stm32l4xx_hal_rcc.c **** #endif /* RCC_HSI48_SUPPORT */
 783:d:/LiteOS_Lab/drivers/third_party/ST/STM32L4xx_HAL_Driver/Src\stm32l4xx_hal_rcc.c ****   /*-------------------------------- PLL Configuration -----------------------*/
 784:d:/LiteOS_Lab/drivers/third_party/ST/STM32L4xx_HAL_Driver/Src\stm32l4xx_hal_rcc.c ****   /* Check the parameters */
 785:d:/LiteOS_Lab/drivers/third_party/ST/STM32L4xx_HAL_Driver/Src\stm32l4xx_hal_rcc.c ****   assert_param(IS_RCC_PLL(RCC_OscInitStruct->PLL.PLLState));
 786:d:/LiteOS_Lab/drivers/third_party/ST/STM32L4xx_HAL_Driver/Src\stm32l4xx_hal_rcc.c **** 
 787:d:/LiteOS_Lab/drivers/third_party/ST/STM32L4xx_HAL_Driver/Src\stm32l4xx_hal_rcc.c ****   if(RCC_OscInitStruct->PLL.PLLState != RCC_PLL_NONE)
 1173              		.loc 1 787 28
 1174 0602 7B68     		ldr	r3, [r7, #4]
 1175 0604 9B6A     		ldr	r3, [r3, #40]
ARM GAS  C:\Users\ADMINI~1\AppData\Local\Temp\cc0pkmxZ.s 			page 36


 1176              		.loc 1 787 5
 1177 0606 002B     		cmp	r3, #0
 1178 0608 00F09180 		beq	.L74
 788:d:/LiteOS_Lab/drivers/third_party/ST/STM32L4xx_HAL_Driver/Src\stm32l4xx_hal_rcc.c ****   {
 789:d:/LiteOS_Lab/drivers/third_party/ST/STM32L4xx_HAL_Driver/Src\stm32l4xx_hal_rcc.c ****     /* Check if the PLL is used as system clock or not */
 790:d:/LiteOS_Lab/drivers/third_party/ST/STM32L4xx_HAL_Driver/Src\stm32l4xx_hal_rcc.c ****     if(__HAL_RCC_GET_SYSCLK_SOURCE() != RCC_CFGR_SWS_PLL)
 1179              		.loc 1 790 8
 1180 060c 4A4B     		ldr	r3, .L89
 1181 060e 9B68     		ldr	r3, [r3, #8]
 1182 0610 03F00C03 		and	r3, r3, #12
 1183              		.loc 1 790 7
 1184 0614 0C2B     		cmp	r3, #12
 1185 0616 00F08880 		beq	.L75
 791:d:/LiteOS_Lab/drivers/third_party/ST/STM32L4xx_HAL_Driver/Src\stm32l4xx_hal_rcc.c ****     {
 792:d:/LiteOS_Lab/drivers/third_party/ST/STM32L4xx_HAL_Driver/Src\stm32l4xx_hal_rcc.c ****       if(RCC_OscInitStruct->PLL.PLLState == RCC_PLL_ON)
 1186              		.loc 1 792 32
 1187 061a 7B68     		ldr	r3, [r7, #4]
 1188 061c 9B6A     		ldr	r3, [r3, #40]
 1189              		.loc 1 792 9
 1190 061e 022B     		cmp	r3, #2
 1191 0620 55D1     		bne	.L76
 793:d:/LiteOS_Lab/drivers/third_party/ST/STM32L4xx_HAL_Driver/Src\stm32l4xx_hal_rcc.c ****       {
 794:d:/LiteOS_Lab/drivers/third_party/ST/STM32L4xx_HAL_Driver/Src\stm32l4xx_hal_rcc.c ****         /* Check the parameters */
 795:d:/LiteOS_Lab/drivers/third_party/ST/STM32L4xx_HAL_Driver/Src\stm32l4xx_hal_rcc.c ****         assert_param(IS_RCC_PLLSOURCE(RCC_OscInitStruct->PLL.PLLSource));
 796:d:/LiteOS_Lab/drivers/third_party/ST/STM32L4xx_HAL_Driver/Src\stm32l4xx_hal_rcc.c ****         assert_param(IS_RCC_PLLM_VALUE(RCC_OscInitStruct->PLL.PLLM));
 797:d:/LiteOS_Lab/drivers/third_party/ST/STM32L4xx_HAL_Driver/Src\stm32l4xx_hal_rcc.c ****         assert_param(IS_RCC_PLLN_VALUE(RCC_OscInitStruct->PLL.PLLN));
 798:d:/LiteOS_Lab/drivers/third_party/ST/STM32L4xx_HAL_Driver/Src\stm32l4xx_hal_rcc.c ****         assert_param(IS_RCC_PLLP_VALUE(RCC_OscInitStruct->PLL.PLLP));
 799:d:/LiteOS_Lab/drivers/third_party/ST/STM32L4xx_HAL_Driver/Src\stm32l4xx_hal_rcc.c ****         assert_param(IS_RCC_PLLQ_VALUE(RCC_OscInitStruct->PLL.PLLQ));
 800:d:/LiteOS_Lab/drivers/third_party/ST/STM32L4xx_HAL_Driver/Src\stm32l4xx_hal_rcc.c ****         assert_param(IS_RCC_PLLR_VALUE(RCC_OscInitStruct->PLL.PLLR));
 801:d:/LiteOS_Lab/drivers/third_party/ST/STM32L4xx_HAL_Driver/Src\stm32l4xx_hal_rcc.c **** 
 802:d:/LiteOS_Lab/drivers/third_party/ST/STM32L4xx_HAL_Driver/Src\stm32l4xx_hal_rcc.c ****         /* Disable the main PLL. */
 803:d:/LiteOS_Lab/drivers/third_party/ST/STM32L4xx_HAL_Driver/Src\stm32l4xx_hal_rcc.c ****         __HAL_RCC_PLL_DISABLE();
 1192              		.loc 1 803 9
 1193 0622 454B     		ldr	r3, .L89
 1194 0624 1B68     		ldr	r3, [r3]
 1195 0626 444A     		ldr	r2, .L89
 1196 0628 23F08073 		bic	r3, r3, #16777216
 1197 062c 1360     		str	r3, [r2]
 804:d:/LiteOS_Lab/drivers/third_party/ST/STM32L4xx_HAL_Driver/Src\stm32l4xx_hal_rcc.c **** 
 805:d:/LiteOS_Lab/drivers/third_party/ST/STM32L4xx_HAL_Driver/Src\stm32l4xx_hal_rcc.c ****         /* Get Start Tick*/
 806:d:/LiteOS_Lab/drivers/third_party/ST/STM32L4xx_HAL_Driver/Src\stm32l4xx_hal_rcc.c ****         tickstart = HAL_GetTick();
 1198              		.loc 1 806 21
 1199 062e FFF7FEFF 		bl	HAL_GetTick
 1200 0632 3861     		str	r0, [r7, #16]
 807:d:/LiteOS_Lab/drivers/third_party/ST/STM32L4xx_HAL_Driver/Src\stm32l4xx_hal_rcc.c **** 
 808:d:/LiteOS_Lab/drivers/third_party/ST/STM32L4xx_HAL_Driver/Src\stm32l4xx_hal_rcc.c ****         /* Wait till PLL is ready */
 809:d:/LiteOS_Lab/drivers/third_party/ST/STM32L4xx_HAL_Driver/Src\stm32l4xx_hal_rcc.c ****         while(READ_BIT(RCC->CR, RCC_CR_PLLRDY) != RESET)
 1201              		.loc 1 809 14
 1202 0634 08E0     		b	.L77
 1203              	.L78:
 810:d:/LiteOS_Lab/drivers/third_party/ST/STM32L4xx_HAL_Driver/Src\stm32l4xx_hal_rcc.c ****         {
 811:d:/LiteOS_Lab/drivers/third_party/ST/STM32L4xx_HAL_Driver/Src\stm32l4xx_hal_rcc.c ****           if((HAL_GetTick() - tickstart) > PLL_TIMEOUT_VALUE)
 1204              		.loc 1 811 15
 1205 0636 FFF7FEFF 		bl	HAL_GetTick
 1206 063a 0246     		mov	r2, r0
 1207              		.loc 1 811 29
 1208 063c 3B69     		ldr	r3, [r7, #16]
ARM GAS  C:\Users\ADMINI~1\AppData\Local\Temp\cc0pkmxZ.s 			page 37


 1209 063e D31A     		subs	r3, r2, r3
 1210              		.loc 1 811 13
 1211 0640 022B     		cmp	r3, #2
 1212 0642 01D9     		bls	.L77
 812:d:/LiteOS_Lab/drivers/third_party/ST/STM32L4xx_HAL_Driver/Src\stm32l4xx_hal_rcc.c ****           {
 813:d:/LiteOS_Lab/drivers/third_party/ST/STM32L4xx_HAL_Driver/Src\stm32l4xx_hal_rcc.c ****             return HAL_TIMEOUT;
 1213              		.loc 1 813 20
 1214 0644 0323     		movs	r3, #3
 1215 0646 73E0     		b	.L16
 1216              	.L77:
 809:d:/LiteOS_Lab/drivers/third_party/ST/STM32L4xx_HAL_Driver/Src\stm32l4xx_hal_rcc.c ****         {
 1217              		.loc 1 809 15
 1218 0648 3B4B     		ldr	r3, .L89
 1219 064a 1B68     		ldr	r3, [r3]
 1220 064c 03F00073 		and	r3, r3, #33554432
 809:d:/LiteOS_Lab/drivers/third_party/ST/STM32L4xx_HAL_Driver/Src\stm32l4xx_hal_rcc.c ****         {
 1221              		.loc 1 809 14
 1222 0650 002B     		cmp	r3, #0
 1223 0652 F0D1     		bne	.L78
 814:d:/LiteOS_Lab/drivers/third_party/ST/STM32L4xx_HAL_Driver/Src\stm32l4xx_hal_rcc.c ****           }
 815:d:/LiteOS_Lab/drivers/third_party/ST/STM32L4xx_HAL_Driver/Src\stm32l4xx_hal_rcc.c ****         }
 816:d:/LiteOS_Lab/drivers/third_party/ST/STM32L4xx_HAL_Driver/Src\stm32l4xx_hal_rcc.c **** 
 817:d:/LiteOS_Lab/drivers/third_party/ST/STM32L4xx_HAL_Driver/Src\stm32l4xx_hal_rcc.c ****         /* Configure the main PLL clock source, multiplication and division factors. */
 818:d:/LiteOS_Lab/drivers/third_party/ST/STM32L4xx_HAL_Driver/Src\stm32l4xx_hal_rcc.c ****         __HAL_RCC_PLL_CONFIG(RCC_OscInitStruct->PLL.PLLSource,
 1224              		.loc 1 818 9
 1225 0654 7B68     		ldr	r3, [r7, #4]
 1226 0656 1B6B     		ldr	r3, [r3, #48]
 1227 0658 013B     		subs	r3, r3, #1
 1228 065a 1A01     		lsls	r2, r3, #4
 1229 065c 7B68     		ldr	r3, [r7, #4]
 1230 065e 5B6B     		ldr	r3, [r3, #52]
 1231 0660 1B02     		lsls	r3, r3, #8
 1232 0662 1A43     		orrs	r2, r2, r3
 1233 0664 7B68     		ldr	r3, [r7, #4]
 1234 0666 DB6A     		ldr	r3, [r3, #44]
 1235 0668 1A43     		orrs	r2, r2, r3
 1236 066a 7B68     		ldr	r3, [r7, #4]
 1237 066c DB6B     		ldr	r3, [r3, #60]
 1238 066e 5B08     		lsrs	r3, r3, #1
 1239 0670 013B     		subs	r3, r3, #1
 1240 0672 5B05     		lsls	r3, r3, #21
 1241 0674 1A43     		orrs	r2, r2, r3
 1242 0676 7B68     		ldr	r3, [r7, #4]
 1243 0678 1B6C     		ldr	r3, [r3, #64]
 1244 067a 5B08     		lsrs	r3, r3, #1
 1245 067c 013B     		subs	r3, r3, #1
 1246 067e 5B06     		lsls	r3, r3, #25
 1247 0680 1A43     		orrs	r2, r2, r3
 1248 0682 7B68     		ldr	r3, [r7, #4]
 1249 0684 9B6B     		ldr	r3, [r3, #56]
 1250 0686 DB06     		lsls	r3, r3, #27
 1251 0688 2B49     		ldr	r1, .L89
 1252 068a 1343     		orrs	r3, r3, r2
 1253 068c CB60     		str	r3, [r1, #12]
 819:d:/LiteOS_Lab/drivers/third_party/ST/STM32L4xx_HAL_Driver/Src\stm32l4xx_hal_rcc.c ****                              RCC_OscInitStruct->PLL.PLLM,
 820:d:/LiteOS_Lab/drivers/third_party/ST/STM32L4xx_HAL_Driver/Src\stm32l4xx_hal_rcc.c ****                              RCC_OscInitStruct->PLL.PLLN,
 821:d:/LiteOS_Lab/drivers/third_party/ST/STM32L4xx_HAL_Driver/Src\stm32l4xx_hal_rcc.c ****                              RCC_OscInitStruct->PLL.PLLP,
ARM GAS  C:\Users\ADMINI~1\AppData\Local\Temp\cc0pkmxZ.s 			page 38


 822:d:/LiteOS_Lab/drivers/third_party/ST/STM32L4xx_HAL_Driver/Src\stm32l4xx_hal_rcc.c ****                              RCC_OscInitStruct->PLL.PLLQ,
 823:d:/LiteOS_Lab/drivers/third_party/ST/STM32L4xx_HAL_Driver/Src\stm32l4xx_hal_rcc.c ****                              RCC_OscInitStruct->PLL.PLLR);
 824:d:/LiteOS_Lab/drivers/third_party/ST/STM32L4xx_HAL_Driver/Src\stm32l4xx_hal_rcc.c **** 
 825:d:/LiteOS_Lab/drivers/third_party/ST/STM32L4xx_HAL_Driver/Src\stm32l4xx_hal_rcc.c ****         /* Enable the main PLL. */
 826:d:/LiteOS_Lab/drivers/third_party/ST/STM32L4xx_HAL_Driver/Src\stm32l4xx_hal_rcc.c ****         __HAL_RCC_PLL_ENABLE();
 1254              		.loc 1 826 9
 1255 068e 2A4B     		ldr	r3, .L89
 1256 0690 1B68     		ldr	r3, [r3]
 1257 0692 294A     		ldr	r2, .L89
 1258 0694 43F08073 		orr	r3, r3, #16777216
 1259 0698 1360     		str	r3, [r2]
 827:d:/LiteOS_Lab/drivers/third_party/ST/STM32L4xx_HAL_Driver/Src\stm32l4xx_hal_rcc.c **** 
 828:d:/LiteOS_Lab/drivers/third_party/ST/STM32L4xx_HAL_Driver/Src\stm32l4xx_hal_rcc.c ****         /* Enable PLL System Clock output. */
 829:d:/LiteOS_Lab/drivers/third_party/ST/STM32L4xx_HAL_Driver/Src\stm32l4xx_hal_rcc.c ****          __HAL_RCC_PLLCLKOUT_ENABLE(RCC_PLL_SYSCLK);
 1260              		.loc 1 829 10
 1261 069a 274B     		ldr	r3, .L89
 1262 069c DB68     		ldr	r3, [r3, #12]
 1263 069e 264A     		ldr	r2, .L89
 1264 06a0 43F08073 		orr	r3, r3, #16777216
 1265 06a4 D360     		str	r3, [r2, #12]
 830:d:/LiteOS_Lab/drivers/third_party/ST/STM32L4xx_HAL_Driver/Src\stm32l4xx_hal_rcc.c **** 
 831:d:/LiteOS_Lab/drivers/third_party/ST/STM32L4xx_HAL_Driver/Src\stm32l4xx_hal_rcc.c ****         /* Get Start Tick*/
 832:d:/LiteOS_Lab/drivers/third_party/ST/STM32L4xx_HAL_Driver/Src\stm32l4xx_hal_rcc.c ****         tickstart = HAL_GetTick();
 1266              		.loc 1 832 21
 1267 06a6 FFF7FEFF 		bl	HAL_GetTick
 1268 06aa 3861     		str	r0, [r7, #16]
 833:d:/LiteOS_Lab/drivers/third_party/ST/STM32L4xx_HAL_Driver/Src\stm32l4xx_hal_rcc.c **** 
 834:d:/LiteOS_Lab/drivers/third_party/ST/STM32L4xx_HAL_Driver/Src\stm32l4xx_hal_rcc.c ****         /* Wait till PLL is ready */
 835:d:/LiteOS_Lab/drivers/third_party/ST/STM32L4xx_HAL_Driver/Src\stm32l4xx_hal_rcc.c ****         while(READ_BIT(RCC->CR, RCC_CR_PLLRDY) == RESET)
 1269              		.loc 1 835 14
 1270 06ac 08E0     		b	.L79
 1271              	.L80:
 836:d:/LiteOS_Lab/drivers/third_party/ST/STM32L4xx_HAL_Driver/Src\stm32l4xx_hal_rcc.c ****         {
 837:d:/LiteOS_Lab/drivers/third_party/ST/STM32L4xx_HAL_Driver/Src\stm32l4xx_hal_rcc.c ****           if((HAL_GetTick() - tickstart) > PLL_TIMEOUT_VALUE)
 1272              		.loc 1 837 15
 1273 06ae FFF7FEFF 		bl	HAL_GetTick
 1274 06b2 0246     		mov	r2, r0
 1275              		.loc 1 837 29
 1276 06b4 3B69     		ldr	r3, [r7, #16]
 1277 06b6 D31A     		subs	r3, r2, r3
 1278              		.loc 1 837 13
 1279 06b8 022B     		cmp	r3, #2
 1280 06ba 01D9     		bls	.L79
 838:d:/LiteOS_Lab/drivers/third_party/ST/STM32L4xx_HAL_Driver/Src\stm32l4xx_hal_rcc.c ****           {
 839:d:/LiteOS_Lab/drivers/third_party/ST/STM32L4xx_HAL_Driver/Src\stm32l4xx_hal_rcc.c ****             return HAL_TIMEOUT;
 1281              		.loc 1 839 20
 1282 06bc 0323     		movs	r3, #3
 1283 06be 37E0     		b	.L16
 1284              	.L79:
 835:d:/LiteOS_Lab/drivers/third_party/ST/STM32L4xx_HAL_Driver/Src\stm32l4xx_hal_rcc.c ****         {
 1285              		.loc 1 835 15
 1286 06c0 1D4B     		ldr	r3, .L89
 1287 06c2 1B68     		ldr	r3, [r3]
 1288 06c4 03F00073 		and	r3, r3, #33554432
 835:d:/LiteOS_Lab/drivers/third_party/ST/STM32L4xx_HAL_Driver/Src\stm32l4xx_hal_rcc.c ****         {
 1289              		.loc 1 835 14
 1290 06c8 002B     		cmp	r3, #0
ARM GAS  C:\Users\ADMINI~1\AppData\Local\Temp\cc0pkmxZ.s 			page 39


 1291 06ca F0D0     		beq	.L80
 1292 06cc 2FE0     		b	.L74
 1293              	.L76:
 840:d:/LiteOS_Lab/drivers/third_party/ST/STM32L4xx_HAL_Driver/Src\stm32l4xx_hal_rcc.c ****           }
 841:d:/LiteOS_Lab/drivers/third_party/ST/STM32L4xx_HAL_Driver/Src\stm32l4xx_hal_rcc.c ****         }
 842:d:/LiteOS_Lab/drivers/third_party/ST/STM32L4xx_HAL_Driver/Src\stm32l4xx_hal_rcc.c ****       }
 843:d:/LiteOS_Lab/drivers/third_party/ST/STM32L4xx_HAL_Driver/Src\stm32l4xx_hal_rcc.c ****       else
 844:d:/LiteOS_Lab/drivers/third_party/ST/STM32L4xx_HAL_Driver/Src\stm32l4xx_hal_rcc.c ****       {
 845:d:/LiteOS_Lab/drivers/third_party/ST/STM32L4xx_HAL_Driver/Src\stm32l4xx_hal_rcc.c ****         /* Disable the main PLL. */
 846:d:/LiteOS_Lab/drivers/third_party/ST/STM32L4xx_HAL_Driver/Src\stm32l4xx_hal_rcc.c ****         __HAL_RCC_PLL_DISABLE();
 1294              		.loc 1 846 9
 1295 06ce 1A4B     		ldr	r3, .L89
 1296 06d0 1B68     		ldr	r3, [r3]
 1297 06d2 194A     		ldr	r2, .L89
 1298 06d4 23F08073 		bic	r3, r3, #16777216
 1299 06d8 1360     		str	r3, [r2]
 847:d:/LiteOS_Lab/drivers/third_party/ST/STM32L4xx_HAL_Driver/Src\stm32l4xx_hal_rcc.c **** 
 848:d:/LiteOS_Lab/drivers/third_party/ST/STM32L4xx_HAL_Driver/Src\stm32l4xx_hal_rcc.c ****         /* Disable all PLL outputs to save power if no PLLs on */
 849:d:/LiteOS_Lab/drivers/third_party/ST/STM32L4xx_HAL_Driver/Src\stm32l4xx_hal_rcc.c ****         if((READ_BIT(RCC->CR, RCC_CR_PLLSAI1RDY) == RESET)
 1300              		.loc 1 849 13
 1301 06da 174B     		ldr	r3, .L89
 1302 06dc 1B68     		ldr	r3, [r3]
 1303 06de 03F00063 		and	r3, r3, #134217728
 1304              		.loc 1 849 11
 1305 06e2 002B     		cmp	r3, #0
 1306 06e4 05D1     		bne	.L81
 850:d:/LiteOS_Lab/drivers/third_party/ST/STM32L4xx_HAL_Driver/Src\stm32l4xx_hal_rcc.c **** #if defined(RCC_PLLSAI2_SUPPORT)
 851:d:/LiteOS_Lab/drivers/third_party/ST/STM32L4xx_HAL_Driver/Src\stm32l4xx_hal_rcc.c ****            &&
 852:d:/LiteOS_Lab/drivers/third_party/ST/STM32L4xx_HAL_Driver/Src\stm32l4xx_hal_rcc.c ****            (READ_BIT(RCC->CR, RCC_CR_PLLSAI2RDY) == RESET)
 853:d:/LiteOS_Lab/drivers/third_party/ST/STM32L4xx_HAL_Driver/Src\stm32l4xx_hal_rcc.c **** #endif /* RCC_PLLSAI2_SUPPORT */
 854:d:/LiteOS_Lab/drivers/third_party/ST/STM32L4xx_HAL_Driver/Src\stm32l4xx_hal_rcc.c ****           )
 855:d:/LiteOS_Lab/drivers/third_party/ST/STM32L4xx_HAL_Driver/Src\stm32l4xx_hal_rcc.c ****         {
 856:d:/LiteOS_Lab/drivers/third_party/ST/STM32L4xx_HAL_Driver/Src\stm32l4xx_hal_rcc.c ****           MODIFY_REG(RCC->PLLCFGR, RCC_PLLCFGR_PLLSRC, RCC_PLLSOURCE_NONE);
 1307              		.loc 1 856 11
 1308 06e6 144B     		ldr	r3, .L89
 1309 06e8 DB68     		ldr	r3, [r3, #12]
 1310 06ea 134A     		ldr	r2, .L89
 1311 06ec 23F00303 		bic	r3, r3, #3
 1312 06f0 D360     		str	r3, [r2, #12]
 1313              	.L81:
 857:d:/LiteOS_Lab/drivers/third_party/ST/STM32L4xx_HAL_Driver/Src\stm32l4xx_hal_rcc.c ****         }
 858:d:/LiteOS_Lab/drivers/third_party/ST/STM32L4xx_HAL_Driver/Src\stm32l4xx_hal_rcc.c **** 
 859:d:/LiteOS_Lab/drivers/third_party/ST/STM32L4xx_HAL_Driver/Src\stm32l4xx_hal_rcc.c **** #if defined(RCC_PLLSAI2_SUPPORT)
 860:d:/LiteOS_Lab/drivers/third_party/ST/STM32L4xx_HAL_Driver/Src\stm32l4xx_hal_rcc.c ****         __HAL_RCC_PLLCLKOUT_DISABLE(RCC_PLL_SYSCLK | RCC_PLL_48M1CLK | RCC_PLL_SAI3CLK);
 861:d:/LiteOS_Lab/drivers/third_party/ST/STM32L4xx_HAL_Driver/Src\stm32l4xx_hal_rcc.c **** #else
 862:d:/LiteOS_Lab/drivers/third_party/ST/STM32L4xx_HAL_Driver/Src\stm32l4xx_hal_rcc.c ****         __HAL_RCC_PLLCLKOUT_DISABLE(RCC_PLL_SYSCLK | RCC_PLL_48M1CLK | RCC_PLL_SAI2CLK);
 1314              		.loc 1 862 9
 1315 06f2 114B     		ldr	r3, .L89
 1316 06f4 DB68     		ldr	r3, [r3, #12]
 1317 06f6 104A     		ldr	r2, .L89
 1318 06f8 23F08873 		bic	r3, r3, #17825792
 1319 06fc 23F48033 		bic	r3, r3, #65536
 1320 0700 D360     		str	r3, [r2, #12]
 863:d:/LiteOS_Lab/drivers/third_party/ST/STM32L4xx_HAL_Driver/Src\stm32l4xx_hal_rcc.c **** #endif /* RCC_PLLSAI2_SUPPORT */
 864:d:/LiteOS_Lab/drivers/third_party/ST/STM32L4xx_HAL_Driver/Src\stm32l4xx_hal_rcc.c **** 
 865:d:/LiteOS_Lab/drivers/third_party/ST/STM32L4xx_HAL_Driver/Src\stm32l4xx_hal_rcc.c ****         /* Get Start Tick*/
 866:d:/LiteOS_Lab/drivers/third_party/ST/STM32L4xx_HAL_Driver/Src\stm32l4xx_hal_rcc.c ****         tickstart = HAL_GetTick();
ARM GAS  C:\Users\ADMINI~1\AppData\Local\Temp\cc0pkmxZ.s 			page 40


 1321              		.loc 1 866 21
 1322 0702 FFF7FEFF 		bl	HAL_GetTick
 1323 0706 3861     		str	r0, [r7, #16]
 867:d:/LiteOS_Lab/drivers/third_party/ST/STM32L4xx_HAL_Driver/Src\stm32l4xx_hal_rcc.c **** 
 868:d:/LiteOS_Lab/drivers/third_party/ST/STM32L4xx_HAL_Driver/Src\stm32l4xx_hal_rcc.c ****         /* Wait till PLL is disabled */
 869:d:/LiteOS_Lab/drivers/third_party/ST/STM32L4xx_HAL_Driver/Src\stm32l4xx_hal_rcc.c ****         while(READ_BIT(RCC->CR, RCC_CR_PLLRDY) != RESET)
 1324              		.loc 1 869 14
 1325 0708 08E0     		b	.L82
 1326              	.L83:
 870:d:/LiteOS_Lab/drivers/third_party/ST/STM32L4xx_HAL_Driver/Src\stm32l4xx_hal_rcc.c ****         {
 871:d:/LiteOS_Lab/drivers/third_party/ST/STM32L4xx_HAL_Driver/Src\stm32l4xx_hal_rcc.c ****           if((HAL_GetTick() - tickstart) > PLL_TIMEOUT_VALUE)
 1327              		.loc 1 871 15
 1328 070a FFF7FEFF 		bl	HAL_GetTick
 1329 070e 0246     		mov	r2, r0
 1330              		.loc 1 871 29
 1331 0710 3B69     		ldr	r3, [r7, #16]
 1332 0712 D31A     		subs	r3, r2, r3
 1333              		.loc 1 871 13
 1334 0714 022B     		cmp	r3, #2
 1335 0716 01D9     		bls	.L82
 872:d:/LiteOS_Lab/drivers/third_party/ST/STM32L4xx_HAL_Driver/Src\stm32l4xx_hal_rcc.c ****           {
 873:d:/LiteOS_Lab/drivers/third_party/ST/STM32L4xx_HAL_Driver/Src\stm32l4xx_hal_rcc.c ****             return HAL_TIMEOUT;
 1336              		.loc 1 873 20
 1337 0718 0323     		movs	r3, #3
 1338 071a 09E0     		b	.L16
 1339              	.L82:
 869:d:/LiteOS_Lab/drivers/third_party/ST/STM32L4xx_HAL_Driver/Src\stm32l4xx_hal_rcc.c ****         {
 1340              		.loc 1 869 15
 1341 071c 064B     		ldr	r3, .L89
 1342 071e 1B68     		ldr	r3, [r3]
 1343 0720 03F00073 		and	r3, r3, #33554432
 869:d:/LiteOS_Lab/drivers/third_party/ST/STM32L4xx_HAL_Driver/Src\stm32l4xx_hal_rcc.c ****         {
 1344              		.loc 1 869 14
 1345 0724 002B     		cmp	r3, #0
 1346 0726 F0D1     		bne	.L83
 1347 0728 01E0     		b	.L74
 1348              	.L75:
 874:d:/LiteOS_Lab/drivers/third_party/ST/STM32L4xx_HAL_Driver/Src\stm32l4xx_hal_rcc.c ****           }
 875:d:/LiteOS_Lab/drivers/third_party/ST/STM32L4xx_HAL_Driver/Src\stm32l4xx_hal_rcc.c ****         }
 876:d:/LiteOS_Lab/drivers/third_party/ST/STM32L4xx_HAL_Driver/Src\stm32l4xx_hal_rcc.c ****       }
 877:d:/LiteOS_Lab/drivers/third_party/ST/STM32L4xx_HAL_Driver/Src\stm32l4xx_hal_rcc.c ****     }
 878:d:/LiteOS_Lab/drivers/third_party/ST/STM32L4xx_HAL_Driver/Src\stm32l4xx_hal_rcc.c ****     else
 879:d:/LiteOS_Lab/drivers/third_party/ST/STM32L4xx_HAL_Driver/Src\stm32l4xx_hal_rcc.c ****     {
 880:d:/LiteOS_Lab/drivers/third_party/ST/STM32L4xx_HAL_Driver/Src\stm32l4xx_hal_rcc.c ****       return HAL_ERROR;
 1349              		.loc 1 880 14
 1350 072a 0123     		movs	r3, #1
 1351 072c 00E0     		b	.L16
 1352              	.L74:
 881:d:/LiteOS_Lab/drivers/third_party/ST/STM32L4xx_HAL_Driver/Src\stm32l4xx_hal_rcc.c ****     }
 882:d:/LiteOS_Lab/drivers/third_party/ST/STM32L4xx_HAL_Driver/Src\stm32l4xx_hal_rcc.c ****   }
 883:d:/LiteOS_Lab/drivers/third_party/ST/STM32L4xx_HAL_Driver/Src\stm32l4xx_hal_rcc.c ****   return HAL_OK;
 1353              		.loc 1 883 10
 1354 072e 0023     		movs	r3, #0
 1355              	.L16:
 884:d:/LiteOS_Lab/drivers/third_party/ST/STM32L4xx_HAL_Driver/Src\stm32l4xx_hal_rcc.c **** }
 1356              		.loc 1 884 1
 1357 0730 1846     		mov	r0, r3
ARM GAS  C:\Users\ADMINI~1\AppData\Local\Temp\cc0pkmxZ.s 			page 41


 1358 0732 1837     		adds	r7, r7, #24
 1359              	.LCFI8:
 1360              		.cfi_def_cfa_offset 8
 1361 0734 BD46     		mov	sp, r7
 1362              	.LCFI9:
 1363              		.cfi_def_cfa_register 13
 1364              		@ sp needed
 1365 0736 80BD     		pop	{r7, pc}
 1366              	.L90:
 1367              		.align	2
 1368              	.L89:
 1369 0738 00100240 		.word	1073876992
 1370              		.cfi_endproc
 1371              	.LFE288:
 1373              		.section	.text.HAL_RCC_ClockConfig,"ax",%progbits
 1374              		.align	1
 1375              		.global	HAL_RCC_ClockConfig
 1376              		.syntax unified
 1377              		.thumb
 1378              		.thumb_func
 1379              		.fpu fpv4-sp-d16
 1381              	HAL_RCC_ClockConfig:
 1382              	.LFB289:
 885:d:/LiteOS_Lab/drivers/third_party/ST/STM32L4xx_HAL_Driver/Src\stm32l4xx_hal_rcc.c **** 
 886:d:/LiteOS_Lab/drivers/third_party/ST/STM32L4xx_HAL_Driver/Src\stm32l4xx_hal_rcc.c **** /**
 887:d:/LiteOS_Lab/drivers/third_party/ST/STM32L4xx_HAL_Driver/Src\stm32l4xx_hal_rcc.c ****   * @brief  Initialize the CPU, AHB and APB busses clocks according to the specified
 888:d:/LiteOS_Lab/drivers/third_party/ST/STM32L4xx_HAL_Driver/Src\stm32l4xx_hal_rcc.c ****   *         parameters in the RCC_ClkInitStruct.
 889:d:/LiteOS_Lab/drivers/third_party/ST/STM32L4xx_HAL_Driver/Src\stm32l4xx_hal_rcc.c ****   * @param  RCC_ClkInitStruct  pointer to an RCC_OscInitTypeDef structure that
 890:d:/LiteOS_Lab/drivers/third_party/ST/STM32L4xx_HAL_Driver/Src\stm32l4xx_hal_rcc.c ****   *         contains the configuration information for the RCC peripheral.
 891:d:/LiteOS_Lab/drivers/third_party/ST/STM32L4xx_HAL_Driver/Src\stm32l4xx_hal_rcc.c ****   * @param  FLatency  FLASH Latency
 892:d:/LiteOS_Lab/drivers/third_party/ST/STM32L4xx_HAL_Driver/Src\stm32l4xx_hal_rcc.c ****   *          This parameter can be one of the following values:
 893:d:/LiteOS_Lab/drivers/third_party/ST/STM32L4xx_HAL_Driver/Src\stm32l4xx_hal_rcc.c ****   *            @arg FLASH_LATENCY_0   FLASH 0 Latency cycle
 894:d:/LiteOS_Lab/drivers/third_party/ST/STM32L4xx_HAL_Driver/Src\stm32l4xx_hal_rcc.c ****   *            @arg FLASH_LATENCY_1   FLASH 1 Latency cycle
 895:d:/LiteOS_Lab/drivers/third_party/ST/STM32L4xx_HAL_Driver/Src\stm32l4xx_hal_rcc.c ****   *            @arg FLASH_LATENCY_2   FLASH 2 Latency cycles
 896:d:/LiteOS_Lab/drivers/third_party/ST/STM32L4xx_HAL_Driver/Src\stm32l4xx_hal_rcc.c ****   *            @arg FLASH_LATENCY_3   FLASH 3 Latency cycles
 897:d:/LiteOS_Lab/drivers/third_party/ST/STM32L4xx_HAL_Driver/Src\stm32l4xx_hal_rcc.c ****   *            @arg FLASH_LATENCY_4   FLASH 4 Latency cycles
 898:d:/LiteOS_Lab/drivers/third_party/ST/STM32L4xx_HAL_Driver/Src\stm32l4xx_hal_rcc.c ****   @if STM32L4S9xx
 899:d:/LiteOS_Lab/drivers/third_party/ST/STM32L4xx_HAL_Driver/Src\stm32l4xx_hal_rcc.c ****   *            @arg FLASH_LATENCY_5   FLASH 5 Latency cycles
 900:d:/LiteOS_Lab/drivers/third_party/ST/STM32L4xx_HAL_Driver/Src\stm32l4xx_hal_rcc.c ****   *            @arg FLASH_LATENCY_6   FLASH 6 Latency cycles
 901:d:/LiteOS_Lab/drivers/third_party/ST/STM32L4xx_HAL_Driver/Src\stm32l4xx_hal_rcc.c ****   *            @arg FLASH_LATENCY_7   FLASH 7 Latency cycles
 902:d:/LiteOS_Lab/drivers/third_party/ST/STM32L4xx_HAL_Driver/Src\stm32l4xx_hal_rcc.c ****   *            @arg FLASH_LATENCY_8   FLASH 8 Latency cycles
 903:d:/LiteOS_Lab/drivers/third_party/ST/STM32L4xx_HAL_Driver/Src\stm32l4xx_hal_rcc.c ****   *            @arg FLASH_LATENCY_9   FLASH 9 Latency cycles
 904:d:/LiteOS_Lab/drivers/third_party/ST/STM32L4xx_HAL_Driver/Src\stm32l4xx_hal_rcc.c ****   *            @arg FLASH_LATENCY_10  FLASH 10 Latency cycles
 905:d:/LiteOS_Lab/drivers/third_party/ST/STM32L4xx_HAL_Driver/Src\stm32l4xx_hal_rcc.c ****   *            @arg FLASH_LATENCY_11  FLASH 11 Latency cycles
 906:d:/LiteOS_Lab/drivers/third_party/ST/STM32L4xx_HAL_Driver/Src\stm32l4xx_hal_rcc.c ****   *            @arg FLASH_LATENCY_12  FLASH 12 Latency cycles
 907:d:/LiteOS_Lab/drivers/third_party/ST/STM32L4xx_HAL_Driver/Src\stm32l4xx_hal_rcc.c ****   *            @arg FLASH_LATENCY_13  FLASH 13 Latency cycles
 908:d:/LiteOS_Lab/drivers/third_party/ST/STM32L4xx_HAL_Driver/Src\stm32l4xx_hal_rcc.c ****   *            @arg FLASH_LATENCY_14  FLASH 14 Latency cycles
 909:d:/LiteOS_Lab/drivers/third_party/ST/STM32L4xx_HAL_Driver/Src\stm32l4xx_hal_rcc.c ****   *            @arg FLASH_LATENCY_15  FLASH 15 Latency cycles
 910:d:/LiteOS_Lab/drivers/third_party/ST/STM32L4xx_HAL_Driver/Src\stm32l4xx_hal_rcc.c ****   @endif
 911:d:/LiteOS_Lab/drivers/third_party/ST/STM32L4xx_HAL_Driver/Src\stm32l4xx_hal_rcc.c ****   *
 912:d:/LiteOS_Lab/drivers/third_party/ST/STM32L4xx_HAL_Driver/Src\stm32l4xx_hal_rcc.c ****   * @note   The SystemCoreClock CMSIS variable is used to store System Clock Frequency
 913:d:/LiteOS_Lab/drivers/third_party/ST/STM32L4xx_HAL_Driver/Src\stm32l4xx_hal_rcc.c ****   *         and updated by HAL_RCC_GetHCLKFreq() function called within this function
 914:d:/LiteOS_Lab/drivers/third_party/ST/STM32L4xx_HAL_Driver/Src\stm32l4xx_hal_rcc.c ****   *
 915:d:/LiteOS_Lab/drivers/third_party/ST/STM32L4xx_HAL_Driver/Src\stm32l4xx_hal_rcc.c ****   * @note   The MSI is used by default as system clock source after
 916:d:/LiteOS_Lab/drivers/third_party/ST/STM32L4xx_HAL_Driver/Src\stm32l4xx_hal_rcc.c ****   *         startup from Reset, wake-up from STANDBY mode. After restart from Reset,
 917:d:/LiteOS_Lab/drivers/third_party/ST/STM32L4xx_HAL_Driver/Src\stm32l4xx_hal_rcc.c ****   *         the MSI frequency is set to its default value 4 MHz.
 918:d:/LiteOS_Lab/drivers/third_party/ST/STM32L4xx_HAL_Driver/Src\stm32l4xx_hal_rcc.c ****   *
ARM GAS  C:\Users\ADMINI~1\AppData\Local\Temp\cc0pkmxZ.s 			page 42


 919:d:/LiteOS_Lab/drivers/third_party/ST/STM32L4xx_HAL_Driver/Src\stm32l4xx_hal_rcc.c ****   * @note   The HSI can be selected as system clock source after
 920:d:/LiteOS_Lab/drivers/third_party/ST/STM32L4xx_HAL_Driver/Src\stm32l4xx_hal_rcc.c ****   *         from STOP modes or in case of failure of the HSE used directly or indirectly
 921:d:/LiteOS_Lab/drivers/third_party/ST/STM32L4xx_HAL_Driver/Src\stm32l4xx_hal_rcc.c ****   *         as system clock (if the Clock Security System CSS is enabled).
 922:d:/LiteOS_Lab/drivers/third_party/ST/STM32L4xx_HAL_Driver/Src\stm32l4xx_hal_rcc.c ****   *
 923:d:/LiteOS_Lab/drivers/third_party/ST/STM32L4xx_HAL_Driver/Src\stm32l4xx_hal_rcc.c ****   * @note   A switch from one clock source to another occurs only if the target
 924:d:/LiteOS_Lab/drivers/third_party/ST/STM32L4xx_HAL_Driver/Src\stm32l4xx_hal_rcc.c ****   *         clock source is ready (clock stable after startup delay or PLL locked).
 925:d:/LiteOS_Lab/drivers/third_party/ST/STM32L4xx_HAL_Driver/Src\stm32l4xx_hal_rcc.c ****   *         If a clock source which is not yet ready is selected, the switch will
 926:d:/LiteOS_Lab/drivers/third_party/ST/STM32L4xx_HAL_Driver/Src\stm32l4xx_hal_rcc.c ****   *         occur when the clock source is ready.
 927:d:/LiteOS_Lab/drivers/third_party/ST/STM32L4xx_HAL_Driver/Src\stm32l4xx_hal_rcc.c ****   *
 928:d:/LiteOS_Lab/drivers/third_party/ST/STM32L4xx_HAL_Driver/Src\stm32l4xx_hal_rcc.c ****   * @note   You can use HAL_RCC_GetClockConfig() function to know which clock is
 929:d:/LiteOS_Lab/drivers/third_party/ST/STM32L4xx_HAL_Driver/Src\stm32l4xx_hal_rcc.c ****   *         currently used as system clock source.
 930:d:/LiteOS_Lab/drivers/third_party/ST/STM32L4xx_HAL_Driver/Src\stm32l4xx_hal_rcc.c ****   *
 931:d:/LiteOS_Lab/drivers/third_party/ST/STM32L4xx_HAL_Driver/Src\stm32l4xx_hal_rcc.c ****   * @note   Depending on the device voltage range, the software has to set correctly
 932:d:/LiteOS_Lab/drivers/third_party/ST/STM32L4xx_HAL_Driver/Src\stm32l4xx_hal_rcc.c ****   *         HPRE[3:0] bits to ensure that HCLK not exceed the maximum allowed frequency
 933:d:/LiteOS_Lab/drivers/third_party/ST/STM32L4xx_HAL_Driver/Src\stm32l4xx_hal_rcc.c ****   *         (for more details refer to section above "Initialization/de-initialization functions")
 934:d:/LiteOS_Lab/drivers/third_party/ST/STM32L4xx_HAL_Driver/Src\stm32l4xx_hal_rcc.c ****   * @retval None
 935:d:/LiteOS_Lab/drivers/third_party/ST/STM32L4xx_HAL_Driver/Src\stm32l4xx_hal_rcc.c ****   */
 936:d:/LiteOS_Lab/drivers/third_party/ST/STM32L4xx_HAL_Driver/Src\stm32l4xx_hal_rcc.c **** HAL_StatusTypeDef HAL_RCC_ClockConfig(RCC_ClkInitTypeDef  *RCC_ClkInitStruct, uint32_t FLatency)
 937:d:/LiteOS_Lab/drivers/third_party/ST/STM32L4xx_HAL_Driver/Src\stm32l4xx_hal_rcc.c **** {
 1383              		.loc 1 937 1
 1384              		.cfi_startproc
 1385              		@ args = 0, pretend = 0, frame = 16
 1386              		@ frame_needed = 1, uses_anonymous_args = 0
 1387 0000 80B5     		push	{r7, lr}
 1388              	.LCFI10:
 1389              		.cfi_def_cfa_offset 8
 1390              		.cfi_offset 7, -8
 1391              		.cfi_offset 14, -4
 1392 0002 84B0     		sub	sp, sp, #16
 1393              	.LCFI11:
 1394              		.cfi_def_cfa_offset 24
 1395 0004 00AF     		add	r7, sp, #0
 1396              	.LCFI12:
 1397              		.cfi_def_cfa_register 7
 1398 0006 7860     		str	r0, [r7, #4]
 1399 0008 3960     		str	r1, [r7]
 938:d:/LiteOS_Lab/drivers/third_party/ST/STM32L4xx_HAL_Driver/Src\stm32l4xx_hal_rcc.c ****   uint32_t tickstart = 0;
 1400              		.loc 1 938 12
 1401 000a 0023     		movs	r3, #0
 1402 000c FB60     		str	r3, [r7, #12]
 939:d:/LiteOS_Lab/drivers/third_party/ST/STM32L4xx_HAL_Driver/Src\stm32l4xx_hal_rcc.c **** #if defined(STM32L4R5xx) || defined(STM32L4R7xx) || defined(STM32L4R9xx) || defined(STM32L4S5xx) ||
 940:d:/LiteOS_Lab/drivers/third_party/ST/STM32L4xx_HAL_Driver/Src\stm32l4xx_hal_rcc.c ****   uint32_t pllfreq = 0;
 941:d:/LiteOS_Lab/drivers/third_party/ST/STM32L4xx_HAL_Driver/Src\stm32l4xx_hal_rcc.c ****   uint32_t hpre = RCC_SYSCLK_DIV1;
 942:d:/LiteOS_Lab/drivers/third_party/ST/STM32L4xx_HAL_Driver/Src\stm32l4xx_hal_rcc.c **** #endif
 943:d:/LiteOS_Lab/drivers/third_party/ST/STM32L4xx_HAL_Driver/Src\stm32l4xx_hal_rcc.c **** 
 944:d:/LiteOS_Lab/drivers/third_party/ST/STM32L4xx_HAL_Driver/Src\stm32l4xx_hal_rcc.c ****   /* Check the parameters */
 945:d:/LiteOS_Lab/drivers/third_party/ST/STM32L4xx_HAL_Driver/Src\stm32l4xx_hal_rcc.c ****   assert_param(RCC_ClkInitStruct != NULL);
 946:d:/LiteOS_Lab/drivers/third_party/ST/STM32L4xx_HAL_Driver/Src\stm32l4xx_hal_rcc.c ****   assert_param(IS_RCC_CLOCKTYPE(RCC_ClkInitStruct->ClockType));
 947:d:/LiteOS_Lab/drivers/third_party/ST/STM32L4xx_HAL_Driver/Src\stm32l4xx_hal_rcc.c ****   assert_param(IS_FLASH_LATENCY(FLatency));
 948:d:/LiteOS_Lab/drivers/third_party/ST/STM32L4xx_HAL_Driver/Src\stm32l4xx_hal_rcc.c **** 
 949:d:/LiteOS_Lab/drivers/third_party/ST/STM32L4xx_HAL_Driver/Src\stm32l4xx_hal_rcc.c ****   /* To correctly read data from FLASH memory, the number of wait states (LATENCY)
 950:d:/LiteOS_Lab/drivers/third_party/ST/STM32L4xx_HAL_Driver/Src\stm32l4xx_hal_rcc.c ****     must be correctly programmed according to the frequency of the CPU clock
 951:d:/LiteOS_Lab/drivers/third_party/ST/STM32L4xx_HAL_Driver/Src\stm32l4xx_hal_rcc.c ****     (HCLK) and the supply voltage of the device. */
 952:d:/LiteOS_Lab/drivers/third_party/ST/STM32L4xx_HAL_Driver/Src\stm32l4xx_hal_rcc.c **** 
 953:d:/LiteOS_Lab/drivers/third_party/ST/STM32L4xx_HAL_Driver/Src\stm32l4xx_hal_rcc.c ****   /* Increasing the number of wait states because of higher CPU frequency */
 954:d:/LiteOS_Lab/drivers/third_party/ST/STM32L4xx_HAL_Driver/Src\stm32l4xx_hal_rcc.c ****   if(FLatency > READ_BIT(FLASH->ACR, FLASH_ACR_LATENCY))
 1403              		.loc 1 954 17
ARM GAS  C:\Users\ADMINI~1\AppData\Local\Temp\cc0pkmxZ.s 			page 43


 1404 000e 844B     		ldr	r3, .L114
 1405 0010 1B68     		ldr	r3, [r3]
 1406 0012 03F00703 		and	r3, r3, #7
 1407              		.loc 1 954 5
 1408 0016 3A68     		ldr	r2, [r7]
 1409 0018 9A42     		cmp	r2, r3
 1410 001a 10D9     		bls	.L92
 955:d:/LiteOS_Lab/drivers/third_party/ST/STM32L4xx_HAL_Driver/Src\stm32l4xx_hal_rcc.c ****   {
 956:d:/LiteOS_Lab/drivers/third_party/ST/STM32L4xx_HAL_Driver/Src\stm32l4xx_hal_rcc.c ****     /* Program the new number of wait states to the LATENCY bits in the FLASH_ACR register */
 957:d:/LiteOS_Lab/drivers/third_party/ST/STM32L4xx_HAL_Driver/Src\stm32l4xx_hal_rcc.c ****     __HAL_FLASH_SET_LATENCY(FLatency);
 1411              		.loc 1 957 5
 1412 001c 804B     		ldr	r3, .L114
 1413 001e 1B68     		ldr	r3, [r3]
 1414 0020 23F00702 		bic	r2, r3, #7
 1415 0024 7E49     		ldr	r1, .L114
 1416 0026 3B68     		ldr	r3, [r7]
 1417 0028 1343     		orrs	r3, r3, r2
 1418 002a 0B60     		str	r3, [r1]
 958:d:/LiteOS_Lab/drivers/third_party/ST/STM32L4xx_HAL_Driver/Src\stm32l4xx_hal_rcc.c **** 
 959:d:/LiteOS_Lab/drivers/third_party/ST/STM32L4xx_HAL_Driver/Src\stm32l4xx_hal_rcc.c ****     /* Check that the new number of wait states is taken into account to access the Flash
 960:d:/LiteOS_Lab/drivers/third_party/ST/STM32L4xx_HAL_Driver/Src\stm32l4xx_hal_rcc.c ****     memory by reading the FLASH_ACR register */
 961:d:/LiteOS_Lab/drivers/third_party/ST/STM32L4xx_HAL_Driver/Src\stm32l4xx_hal_rcc.c ****     if(READ_BIT(FLASH->ACR, FLASH_ACR_LATENCY) != FLatency)
 1419              		.loc 1 961 8
 1420 002c 7C4B     		ldr	r3, .L114
 1421 002e 1B68     		ldr	r3, [r3]
 1422 0030 03F00703 		and	r3, r3, #7
 1423              		.loc 1 961 7
 1424 0034 3A68     		ldr	r2, [r7]
 1425 0036 9A42     		cmp	r2, r3
 1426 0038 01D0     		beq	.L92
 962:d:/LiteOS_Lab/drivers/third_party/ST/STM32L4xx_HAL_Driver/Src\stm32l4xx_hal_rcc.c ****     {
 963:d:/LiteOS_Lab/drivers/third_party/ST/STM32L4xx_HAL_Driver/Src\stm32l4xx_hal_rcc.c ****       return HAL_ERROR;
 1427              		.loc 1 963 14
 1428 003a 0123     		movs	r3, #1
 1429 003c ECE0     		b	.L93
 1430              	.L92:
 964:d:/LiteOS_Lab/drivers/third_party/ST/STM32L4xx_HAL_Driver/Src\stm32l4xx_hal_rcc.c ****     }
 965:d:/LiteOS_Lab/drivers/third_party/ST/STM32L4xx_HAL_Driver/Src\stm32l4xx_hal_rcc.c ****   }
 966:d:/LiteOS_Lab/drivers/third_party/ST/STM32L4xx_HAL_Driver/Src\stm32l4xx_hal_rcc.c **** 
 967:d:/LiteOS_Lab/drivers/third_party/ST/STM32L4xx_HAL_Driver/Src\stm32l4xx_hal_rcc.c ****   /*------------------------- SYSCLK Configuration ---------------------------*/
 968:d:/LiteOS_Lab/drivers/third_party/ST/STM32L4xx_HAL_Driver/Src\stm32l4xx_hal_rcc.c ****   if(((RCC_ClkInitStruct->ClockType) & RCC_CLOCKTYPE_SYSCLK) == RCC_CLOCKTYPE_SYSCLK)
 1431              		.loc 1 968 25
 1432 003e 7B68     		ldr	r3, [r7, #4]
 1433 0040 1B68     		ldr	r3, [r3]
 1434              		.loc 1 968 38
 1435 0042 03F00103 		and	r3, r3, #1
 1436              		.loc 1 968 5
 1437 0046 002B     		cmp	r3, #0
 1438 0048 00F08E80 		beq	.L94
 969:d:/LiteOS_Lab/drivers/third_party/ST/STM32L4xx_HAL_Driver/Src\stm32l4xx_hal_rcc.c ****   {
 970:d:/LiteOS_Lab/drivers/third_party/ST/STM32L4xx_HAL_Driver/Src\stm32l4xx_hal_rcc.c ****     assert_param(IS_RCC_SYSCLKSOURCE(RCC_ClkInitStruct->SYSCLKSource));
 971:d:/LiteOS_Lab/drivers/third_party/ST/STM32L4xx_HAL_Driver/Src\stm32l4xx_hal_rcc.c **** 
 972:d:/LiteOS_Lab/drivers/third_party/ST/STM32L4xx_HAL_Driver/Src\stm32l4xx_hal_rcc.c ****     /* PLL is selected as System Clock Source */
 973:d:/LiteOS_Lab/drivers/third_party/ST/STM32L4xx_HAL_Driver/Src\stm32l4xx_hal_rcc.c ****     if(RCC_ClkInitStruct->SYSCLKSource == RCC_SYSCLKSOURCE_PLLCLK)
 1439              		.loc 1 973 25
 1440 004c 7B68     		ldr	r3, [r7, #4]
 1441 004e 5B68     		ldr	r3, [r3, #4]
ARM GAS  C:\Users\ADMINI~1\AppData\Local\Temp\cc0pkmxZ.s 			page 44


 1442              		.loc 1 973 7
 1443 0050 032B     		cmp	r3, #3
 1444 0052 07D1     		bne	.L95
 974:d:/LiteOS_Lab/drivers/third_party/ST/STM32L4xx_HAL_Driver/Src\stm32l4xx_hal_rcc.c ****     {
 975:d:/LiteOS_Lab/drivers/third_party/ST/STM32L4xx_HAL_Driver/Src\stm32l4xx_hal_rcc.c ****       /* Check the PLL ready flag */
 976:d:/LiteOS_Lab/drivers/third_party/ST/STM32L4xx_HAL_Driver/Src\stm32l4xx_hal_rcc.c ****       if(READ_BIT(RCC->CR, RCC_CR_PLLRDY) == RESET)
 1445              		.loc 1 976 10
 1446 0054 734B     		ldr	r3, .L114+4
 1447 0056 1B68     		ldr	r3, [r3]
 1448 0058 03F00073 		and	r3, r3, #33554432
 1449              		.loc 1 976 9
 1450 005c 002B     		cmp	r3, #0
 1451 005e 21D1     		bne	.L96
 977:d:/LiteOS_Lab/drivers/third_party/ST/STM32L4xx_HAL_Driver/Src\stm32l4xx_hal_rcc.c ****       {
 978:d:/LiteOS_Lab/drivers/third_party/ST/STM32L4xx_HAL_Driver/Src\stm32l4xx_hal_rcc.c ****         return HAL_ERROR;
 1452              		.loc 1 978 16
 1453 0060 0123     		movs	r3, #1
 1454 0062 D9E0     		b	.L93
 1455              	.L95:
 979:d:/LiteOS_Lab/drivers/third_party/ST/STM32L4xx_HAL_Driver/Src\stm32l4xx_hal_rcc.c ****       }
 980:d:/LiteOS_Lab/drivers/third_party/ST/STM32L4xx_HAL_Driver/Src\stm32l4xx_hal_rcc.c **** #if defined(STM32L4R5xx) || defined(STM32L4R7xx) || defined(STM32L4R9xx) || defined(STM32L4S5xx) ||
 981:d:/LiteOS_Lab/drivers/third_party/ST/STM32L4xx_HAL_Driver/Src\stm32l4xx_hal_rcc.c ****       /* Undershoot management when selection PLL as SYSCLK source and frequency above 80Mhz */
 982:d:/LiteOS_Lab/drivers/third_party/ST/STM32L4xx_HAL_Driver/Src\stm32l4xx_hal_rcc.c ****       /* Compute target PLL output frequency */
 983:d:/LiteOS_Lab/drivers/third_party/ST/STM32L4xx_HAL_Driver/Src\stm32l4xx_hal_rcc.c ****       pllfreq = RCC_GetSysClockFreqFromPLLSource();
 984:d:/LiteOS_Lab/drivers/third_party/ST/STM32L4xx_HAL_Driver/Src\stm32l4xx_hal_rcc.c **** 
 985:d:/LiteOS_Lab/drivers/third_party/ST/STM32L4xx_HAL_Driver/Src\stm32l4xx_hal_rcc.c ****       /* Intermediate step with HCLK prescaler 2 necessary before to go over 80Mhz */
 986:d:/LiteOS_Lab/drivers/third_party/ST/STM32L4xx_HAL_Driver/Src\stm32l4xx_hal_rcc.c ****       if((pllfreq > 80000000U) &&
 987:d:/LiteOS_Lab/drivers/third_party/ST/STM32L4xx_HAL_Driver/Src\stm32l4xx_hal_rcc.c ****          (((((RCC_ClkInitStruct->ClockType) & RCC_CLOCKTYPE_HCLK) == RCC_CLOCKTYPE_HCLK) && (RCC_Cl
 988:d:/LiteOS_Lab/drivers/third_party/ST/STM32L4xx_HAL_Driver/Src\stm32l4xx_hal_rcc.c ****           ||
 989:d:/LiteOS_Lab/drivers/third_party/ST/STM32L4xx_HAL_Driver/Src\stm32l4xx_hal_rcc.c ****           ((READ_BIT(RCC->CFGR, RCC_CFGR_HPRE) == RCC_SYSCLK_DIV1))))
 990:d:/LiteOS_Lab/drivers/third_party/ST/STM32L4xx_HAL_Driver/Src\stm32l4xx_hal_rcc.c ****       {
 991:d:/LiteOS_Lab/drivers/third_party/ST/STM32L4xx_HAL_Driver/Src\stm32l4xx_hal_rcc.c ****         MODIFY_REG(RCC->CFGR, RCC_CFGR_HPRE, RCC_SYSCLK_DIV2);
 992:d:/LiteOS_Lab/drivers/third_party/ST/STM32L4xx_HAL_Driver/Src\stm32l4xx_hal_rcc.c ****         hpre = RCC_SYSCLK_DIV2;
 993:d:/LiteOS_Lab/drivers/third_party/ST/STM32L4xx_HAL_Driver/Src\stm32l4xx_hal_rcc.c ****       }
 994:d:/LiteOS_Lab/drivers/third_party/ST/STM32L4xx_HAL_Driver/Src\stm32l4xx_hal_rcc.c **** #endif
 995:d:/LiteOS_Lab/drivers/third_party/ST/STM32L4xx_HAL_Driver/Src\stm32l4xx_hal_rcc.c ****     }
 996:d:/LiteOS_Lab/drivers/third_party/ST/STM32L4xx_HAL_Driver/Src\stm32l4xx_hal_rcc.c ****     else
 997:d:/LiteOS_Lab/drivers/third_party/ST/STM32L4xx_HAL_Driver/Src\stm32l4xx_hal_rcc.c ****     {
 998:d:/LiteOS_Lab/drivers/third_party/ST/STM32L4xx_HAL_Driver/Src\stm32l4xx_hal_rcc.c ****       /* HSE is selected as System Clock Source */
 999:d:/LiteOS_Lab/drivers/third_party/ST/STM32L4xx_HAL_Driver/Src\stm32l4xx_hal_rcc.c ****       if(RCC_ClkInitStruct->SYSCLKSource == RCC_SYSCLKSOURCE_HSE)
 1456              		.loc 1 999 27
 1457 0064 7B68     		ldr	r3, [r7, #4]
 1458 0066 5B68     		ldr	r3, [r3, #4]
 1459              		.loc 1 999 9
 1460 0068 022B     		cmp	r3, #2
 1461 006a 07D1     		bne	.L97
1000:d:/LiteOS_Lab/drivers/third_party/ST/STM32L4xx_HAL_Driver/Src\stm32l4xx_hal_rcc.c ****       {
1001:d:/LiteOS_Lab/drivers/third_party/ST/STM32L4xx_HAL_Driver/Src\stm32l4xx_hal_rcc.c ****         /* Check the HSE ready flag */
1002:d:/LiteOS_Lab/drivers/third_party/ST/STM32L4xx_HAL_Driver/Src\stm32l4xx_hal_rcc.c ****         if(READ_BIT(RCC->CR, RCC_CR_HSERDY) == RESET)
 1462              		.loc 1 1002 12
 1463 006c 6D4B     		ldr	r3, .L114+4
 1464 006e 1B68     		ldr	r3, [r3]
 1465 0070 03F40033 		and	r3, r3, #131072
 1466              		.loc 1 1002 11
 1467 0074 002B     		cmp	r3, #0
 1468 0076 15D1     		bne	.L96
1003:d:/LiteOS_Lab/drivers/third_party/ST/STM32L4xx_HAL_Driver/Src\stm32l4xx_hal_rcc.c ****         {
ARM GAS  C:\Users\ADMINI~1\AppData\Local\Temp\cc0pkmxZ.s 			page 45


1004:d:/LiteOS_Lab/drivers/third_party/ST/STM32L4xx_HAL_Driver/Src\stm32l4xx_hal_rcc.c ****           return HAL_ERROR;
 1469              		.loc 1 1004 18
 1470 0078 0123     		movs	r3, #1
 1471 007a CDE0     		b	.L93
 1472              	.L97:
1005:d:/LiteOS_Lab/drivers/third_party/ST/STM32L4xx_HAL_Driver/Src\stm32l4xx_hal_rcc.c ****         }
1006:d:/LiteOS_Lab/drivers/third_party/ST/STM32L4xx_HAL_Driver/Src\stm32l4xx_hal_rcc.c ****       }
1007:d:/LiteOS_Lab/drivers/third_party/ST/STM32L4xx_HAL_Driver/Src\stm32l4xx_hal_rcc.c ****       /* MSI is selected as System Clock Source */
1008:d:/LiteOS_Lab/drivers/third_party/ST/STM32L4xx_HAL_Driver/Src\stm32l4xx_hal_rcc.c ****       else if(RCC_ClkInitStruct->SYSCLKSource == RCC_SYSCLKSOURCE_MSI)
 1473              		.loc 1 1008 32
 1474 007c 7B68     		ldr	r3, [r7, #4]
 1475 007e 5B68     		ldr	r3, [r3, #4]
 1476              		.loc 1 1008 14
 1477 0080 002B     		cmp	r3, #0
 1478 0082 07D1     		bne	.L98
1009:d:/LiteOS_Lab/drivers/third_party/ST/STM32L4xx_HAL_Driver/Src\stm32l4xx_hal_rcc.c ****       {
1010:d:/LiteOS_Lab/drivers/third_party/ST/STM32L4xx_HAL_Driver/Src\stm32l4xx_hal_rcc.c ****         /* Check the MSI ready flag */
1011:d:/LiteOS_Lab/drivers/third_party/ST/STM32L4xx_HAL_Driver/Src\stm32l4xx_hal_rcc.c ****         if(READ_BIT(RCC->CR, RCC_CR_MSIRDY) == RESET)
 1479              		.loc 1 1011 12
 1480 0084 674B     		ldr	r3, .L114+4
 1481 0086 1B68     		ldr	r3, [r3]
 1482 0088 03F00203 		and	r3, r3, #2
 1483              		.loc 1 1011 11
 1484 008c 002B     		cmp	r3, #0
 1485 008e 09D1     		bne	.L96
1012:d:/LiteOS_Lab/drivers/third_party/ST/STM32L4xx_HAL_Driver/Src\stm32l4xx_hal_rcc.c ****         {
1013:d:/LiteOS_Lab/drivers/third_party/ST/STM32L4xx_HAL_Driver/Src\stm32l4xx_hal_rcc.c ****           return HAL_ERROR;
 1486              		.loc 1 1013 18
 1487 0090 0123     		movs	r3, #1
 1488 0092 C1E0     		b	.L93
 1489              	.L98:
1014:d:/LiteOS_Lab/drivers/third_party/ST/STM32L4xx_HAL_Driver/Src\stm32l4xx_hal_rcc.c ****         }
1015:d:/LiteOS_Lab/drivers/third_party/ST/STM32L4xx_HAL_Driver/Src\stm32l4xx_hal_rcc.c ****       }
1016:d:/LiteOS_Lab/drivers/third_party/ST/STM32L4xx_HAL_Driver/Src\stm32l4xx_hal_rcc.c ****       /* HSI is selected as System Clock Source */
1017:d:/LiteOS_Lab/drivers/third_party/ST/STM32L4xx_HAL_Driver/Src\stm32l4xx_hal_rcc.c ****       else
1018:d:/LiteOS_Lab/drivers/third_party/ST/STM32L4xx_HAL_Driver/Src\stm32l4xx_hal_rcc.c ****       {
1019:d:/LiteOS_Lab/drivers/third_party/ST/STM32L4xx_HAL_Driver/Src\stm32l4xx_hal_rcc.c ****         /* Check the HSI ready flag */
1020:d:/LiteOS_Lab/drivers/third_party/ST/STM32L4xx_HAL_Driver/Src\stm32l4xx_hal_rcc.c ****         if(READ_BIT(RCC->CR, RCC_CR_HSIRDY) == RESET)
 1490              		.loc 1 1020 12
 1491 0094 634B     		ldr	r3, .L114+4
 1492 0096 1B68     		ldr	r3, [r3]
 1493 0098 03F48063 		and	r3, r3, #1024
 1494              		.loc 1 1020 11
 1495 009c 002B     		cmp	r3, #0
 1496 009e 01D1     		bne	.L96
1021:d:/LiteOS_Lab/drivers/third_party/ST/STM32L4xx_HAL_Driver/Src\stm32l4xx_hal_rcc.c ****         {
1022:d:/LiteOS_Lab/drivers/third_party/ST/STM32L4xx_HAL_Driver/Src\stm32l4xx_hal_rcc.c ****           return HAL_ERROR;
 1497              		.loc 1 1022 18
 1498 00a0 0123     		movs	r3, #1
 1499 00a2 B9E0     		b	.L93
 1500              	.L96:
1023:d:/LiteOS_Lab/drivers/third_party/ST/STM32L4xx_HAL_Driver/Src\stm32l4xx_hal_rcc.c ****         }
1024:d:/LiteOS_Lab/drivers/third_party/ST/STM32L4xx_HAL_Driver/Src\stm32l4xx_hal_rcc.c ****       }
1025:d:/LiteOS_Lab/drivers/third_party/ST/STM32L4xx_HAL_Driver/Src\stm32l4xx_hal_rcc.c **** #if defined(STM32L4R5xx) || defined(STM32L4R7xx) || defined(STM32L4R9xx) || defined(STM32L4S5xx) ||
1026:d:/LiteOS_Lab/drivers/third_party/ST/STM32L4xx_HAL_Driver/Src\stm32l4xx_hal_rcc.c ****       /* Overshoot management when going down from PLL as SYSCLK source and frequency above 80Mhz *
1027:d:/LiteOS_Lab/drivers/third_party/ST/STM32L4xx_HAL_Driver/Src\stm32l4xx_hal_rcc.c ****       pllfreq = HAL_RCC_GetSysClockFreq();
1028:d:/LiteOS_Lab/drivers/third_party/ST/STM32L4xx_HAL_Driver/Src\stm32l4xx_hal_rcc.c **** 
ARM GAS  C:\Users\ADMINI~1\AppData\Local\Temp\cc0pkmxZ.s 			page 46


1029:d:/LiteOS_Lab/drivers/third_party/ST/STM32L4xx_HAL_Driver/Src\stm32l4xx_hal_rcc.c ****       /* Intermediate step with HCLK prescaler 2 necessary before to go under 80Mhz */
1030:d:/LiteOS_Lab/drivers/third_party/ST/STM32L4xx_HAL_Driver/Src\stm32l4xx_hal_rcc.c ****       if(pllfreq > 80000000U)
1031:d:/LiteOS_Lab/drivers/third_party/ST/STM32L4xx_HAL_Driver/Src\stm32l4xx_hal_rcc.c ****       {
1032:d:/LiteOS_Lab/drivers/third_party/ST/STM32L4xx_HAL_Driver/Src\stm32l4xx_hal_rcc.c ****         MODIFY_REG(RCC->CFGR, RCC_CFGR_HPRE, RCC_SYSCLK_DIV2);
1033:d:/LiteOS_Lab/drivers/third_party/ST/STM32L4xx_HAL_Driver/Src\stm32l4xx_hal_rcc.c ****         hpre = RCC_SYSCLK_DIV2;
1034:d:/LiteOS_Lab/drivers/third_party/ST/STM32L4xx_HAL_Driver/Src\stm32l4xx_hal_rcc.c ****       }
1035:d:/LiteOS_Lab/drivers/third_party/ST/STM32L4xx_HAL_Driver/Src\stm32l4xx_hal_rcc.c **** #endif
1036:d:/LiteOS_Lab/drivers/third_party/ST/STM32L4xx_HAL_Driver/Src\stm32l4xx_hal_rcc.c **** 
1037:d:/LiteOS_Lab/drivers/third_party/ST/STM32L4xx_HAL_Driver/Src\stm32l4xx_hal_rcc.c ****     }
1038:d:/LiteOS_Lab/drivers/third_party/ST/STM32L4xx_HAL_Driver/Src\stm32l4xx_hal_rcc.c **** 
1039:d:/LiteOS_Lab/drivers/third_party/ST/STM32L4xx_HAL_Driver/Src\stm32l4xx_hal_rcc.c ****     MODIFY_REG(RCC->CFGR, RCC_CFGR_SW, RCC_ClkInitStruct->SYSCLKSource);
 1501              		.loc 1 1039 5
 1502 00a4 5F4B     		ldr	r3, .L114+4
 1503 00a6 9B68     		ldr	r3, [r3, #8]
 1504 00a8 23F00302 		bic	r2, r3, #3
 1505 00ac 7B68     		ldr	r3, [r7, #4]
 1506 00ae 5B68     		ldr	r3, [r3, #4]
 1507 00b0 5C49     		ldr	r1, .L114+4
 1508 00b2 1343     		orrs	r3, r3, r2
 1509 00b4 8B60     		str	r3, [r1, #8]
1040:d:/LiteOS_Lab/drivers/third_party/ST/STM32L4xx_HAL_Driver/Src\stm32l4xx_hal_rcc.c **** 
1041:d:/LiteOS_Lab/drivers/third_party/ST/STM32L4xx_HAL_Driver/Src\stm32l4xx_hal_rcc.c ****     /* Get Start Tick*/
1042:d:/LiteOS_Lab/drivers/third_party/ST/STM32L4xx_HAL_Driver/Src\stm32l4xx_hal_rcc.c ****     tickstart = HAL_GetTick();
 1510              		.loc 1 1042 17
 1511 00b6 FFF7FEFF 		bl	HAL_GetTick
 1512 00ba F860     		str	r0, [r7, #12]
1043:d:/LiteOS_Lab/drivers/third_party/ST/STM32L4xx_HAL_Driver/Src\stm32l4xx_hal_rcc.c **** 
1044:d:/LiteOS_Lab/drivers/third_party/ST/STM32L4xx_HAL_Driver/Src\stm32l4xx_hal_rcc.c ****     if(RCC_ClkInitStruct->SYSCLKSource == RCC_SYSCLKSOURCE_PLLCLK)
 1513              		.loc 1 1044 25
 1514 00bc 7B68     		ldr	r3, [r7, #4]
 1515 00be 5B68     		ldr	r3, [r3, #4]
 1516              		.loc 1 1044 7
 1517 00c0 032B     		cmp	r3, #3
 1518 00c2 12D1     		bne	.L99
1045:d:/LiteOS_Lab/drivers/third_party/ST/STM32L4xx_HAL_Driver/Src\stm32l4xx_hal_rcc.c ****     {
1046:d:/LiteOS_Lab/drivers/third_party/ST/STM32L4xx_HAL_Driver/Src\stm32l4xx_hal_rcc.c ****       while (__HAL_RCC_GET_SYSCLK_SOURCE() != RCC_CFGR_SWS_PLL)
 1519              		.loc 1 1046 13
 1520 00c4 0AE0     		b	.L100
 1521              	.L101:
1047:d:/LiteOS_Lab/drivers/third_party/ST/STM32L4xx_HAL_Driver/Src\stm32l4xx_hal_rcc.c ****       {
1048:d:/LiteOS_Lab/drivers/third_party/ST/STM32L4xx_HAL_Driver/Src\stm32l4xx_hal_rcc.c ****         if((HAL_GetTick() - tickstart) > CLOCKSWITCH_TIMEOUT_VALUE)
 1522              		.loc 1 1048 13
 1523 00c6 FFF7FEFF 		bl	HAL_GetTick
 1524 00ca 0246     		mov	r2, r0
 1525              		.loc 1 1048 27
 1526 00cc FB68     		ldr	r3, [r7, #12]
 1527 00ce D31A     		subs	r3, r2, r3
 1528              		.loc 1 1048 11
 1529 00d0 41F28832 		movw	r2, #5000
 1530 00d4 9342     		cmp	r3, r2
 1531 00d6 01D9     		bls	.L100
1049:d:/LiteOS_Lab/drivers/third_party/ST/STM32L4xx_HAL_Driver/Src\stm32l4xx_hal_rcc.c ****         {
1050:d:/LiteOS_Lab/drivers/third_party/ST/STM32L4xx_HAL_Driver/Src\stm32l4xx_hal_rcc.c ****           return HAL_TIMEOUT;
 1532              		.loc 1 1050 18
 1533 00d8 0323     		movs	r3, #3
 1534 00da 9DE0     		b	.L93
 1535              	.L100:
ARM GAS  C:\Users\ADMINI~1\AppData\Local\Temp\cc0pkmxZ.s 			page 47


1046:d:/LiteOS_Lab/drivers/third_party/ST/STM32L4xx_HAL_Driver/Src\stm32l4xx_hal_rcc.c ****       {
 1536              		.loc 1 1046 14
 1537 00dc 514B     		ldr	r3, .L114+4
 1538 00de 9B68     		ldr	r3, [r3, #8]
 1539 00e0 03F00C03 		and	r3, r3, #12
1046:d:/LiteOS_Lab/drivers/third_party/ST/STM32L4xx_HAL_Driver/Src\stm32l4xx_hal_rcc.c ****       {
 1540              		.loc 1 1046 13
 1541 00e4 0C2B     		cmp	r3, #12
 1542 00e6 EED1     		bne	.L101
 1543 00e8 3EE0     		b	.L94
 1544              	.L99:
1051:d:/LiteOS_Lab/drivers/third_party/ST/STM32L4xx_HAL_Driver/Src\stm32l4xx_hal_rcc.c ****         }
1052:d:/LiteOS_Lab/drivers/third_party/ST/STM32L4xx_HAL_Driver/Src\stm32l4xx_hal_rcc.c ****       }
1053:d:/LiteOS_Lab/drivers/third_party/ST/STM32L4xx_HAL_Driver/Src\stm32l4xx_hal_rcc.c ****     }
1054:d:/LiteOS_Lab/drivers/third_party/ST/STM32L4xx_HAL_Driver/Src\stm32l4xx_hal_rcc.c ****     else
1055:d:/LiteOS_Lab/drivers/third_party/ST/STM32L4xx_HAL_Driver/Src\stm32l4xx_hal_rcc.c ****     {
1056:d:/LiteOS_Lab/drivers/third_party/ST/STM32L4xx_HAL_Driver/Src\stm32l4xx_hal_rcc.c ****       if(RCC_ClkInitStruct->SYSCLKSource == RCC_SYSCLKSOURCE_HSE)
 1545              		.loc 1 1056 27
 1546 00ea 7B68     		ldr	r3, [r7, #4]
 1547 00ec 5B68     		ldr	r3, [r3, #4]
 1548              		.loc 1 1056 9
 1549 00ee 022B     		cmp	r3, #2
 1550 00f0 12D1     		bne	.L102
1057:d:/LiteOS_Lab/drivers/third_party/ST/STM32L4xx_HAL_Driver/Src\stm32l4xx_hal_rcc.c ****       {
1058:d:/LiteOS_Lab/drivers/third_party/ST/STM32L4xx_HAL_Driver/Src\stm32l4xx_hal_rcc.c ****         while (__HAL_RCC_GET_SYSCLK_SOURCE() != RCC_CFGR_SWS_HSE)
 1551              		.loc 1 1058 15
 1552 00f2 0AE0     		b	.L103
 1553              	.L104:
1059:d:/LiteOS_Lab/drivers/third_party/ST/STM32L4xx_HAL_Driver/Src\stm32l4xx_hal_rcc.c ****         {
1060:d:/LiteOS_Lab/drivers/third_party/ST/STM32L4xx_HAL_Driver/Src\stm32l4xx_hal_rcc.c ****           if((HAL_GetTick() - tickstart) > CLOCKSWITCH_TIMEOUT_VALUE)
 1554              		.loc 1 1060 15
 1555 00f4 FFF7FEFF 		bl	HAL_GetTick
 1556 00f8 0246     		mov	r2, r0
 1557              		.loc 1 1060 29
 1558 00fa FB68     		ldr	r3, [r7, #12]
 1559 00fc D31A     		subs	r3, r2, r3
 1560              		.loc 1 1060 13
 1561 00fe 41F28832 		movw	r2, #5000
 1562 0102 9342     		cmp	r3, r2
 1563 0104 01D9     		bls	.L103
1061:d:/LiteOS_Lab/drivers/third_party/ST/STM32L4xx_HAL_Driver/Src\stm32l4xx_hal_rcc.c ****           {
1062:d:/LiteOS_Lab/drivers/third_party/ST/STM32L4xx_HAL_Driver/Src\stm32l4xx_hal_rcc.c ****             return HAL_TIMEOUT;
 1564              		.loc 1 1062 20
 1565 0106 0323     		movs	r3, #3
 1566 0108 86E0     		b	.L93
 1567              	.L103:
1058:d:/LiteOS_Lab/drivers/third_party/ST/STM32L4xx_HAL_Driver/Src\stm32l4xx_hal_rcc.c ****         {
 1568              		.loc 1 1058 16
 1569 010a 464B     		ldr	r3, .L114+4
 1570 010c 9B68     		ldr	r3, [r3, #8]
 1571 010e 03F00C03 		and	r3, r3, #12
1058:d:/LiteOS_Lab/drivers/third_party/ST/STM32L4xx_HAL_Driver/Src\stm32l4xx_hal_rcc.c ****         {
 1572              		.loc 1 1058 15
 1573 0112 082B     		cmp	r3, #8
 1574 0114 EED1     		bne	.L104
 1575 0116 27E0     		b	.L94
 1576              	.L102:
ARM GAS  C:\Users\ADMINI~1\AppData\Local\Temp\cc0pkmxZ.s 			page 48


1063:d:/LiteOS_Lab/drivers/third_party/ST/STM32L4xx_HAL_Driver/Src\stm32l4xx_hal_rcc.c ****           }
1064:d:/LiteOS_Lab/drivers/third_party/ST/STM32L4xx_HAL_Driver/Src\stm32l4xx_hal_rcc.c ****         }
1065:d:/LiteOS_Lab/drivers/third_party/ST/STM32L4xx_HAL_Driver/Src\stm32l4xx_hal_rcc.c ****       }
1066:d:/LiteOS_Lab/drivers/third_party/ST/STM32L4xx_HAL_Driver/Src\stm32l4xx_hal_rcc.c ****       else if(RCC_ClkInitStruct->SYSCLKSource == RCC_SYSCLKSOURCE_MSI)
 1577              		.loc 1 1066 32
 1578 0118 7B68     		ldr	r3, [r7, #4]
 1579 011a 5B68     		ldr	r3, [r3, #4]
 1580              		.loc 1 1066 14
 1581 011c 002B     		cmp	r3, #0
 1582 011e 1DD1     		bne	.L108
1067:d:/LiteOS_Lab/drivers/third_party/ST/STM32L4xx_HAL_Driver/Src\stm32l4xx_hal_rcc.c ****       {
1068:d:/LiteOS_Lab/drivers/third_party/ST/STM32L4xx_HAL_Driver/Src\stm32l4xx_hal_rcc.c ****         while (__HAL_RCC_GET_SYSCLK_SOURCE() != RCC_CFGR_SWS_MSI)
 1583              		.loc 1 1068 15
 1584 0120 0AE0     		b	.L106
 1585              	.L107:
1069:d:/LiteOS_Lab/drivers/third_party/ST/STM32L4xx_HAL_Driver/Src\stm32l4xx_hal_rcc.c ****         {
1070:d:/LiteOS_Lab/drivers/third_party/ST/STM32L4xx_HAL_Driver/Src\stm32l4xx_hal_rcc.c ****           if((HAL_GetTick() - tickstart) > CLOCKSWITCH_TIMEOUT_VALUE)
 1586              		.loc 1 1070 15
 1587 0122 FFF7FEFF 		bl	HAL_GetTick
 1588 0126 0246     		mov	r2, r0
 1589              		.loc 1 1070 29
 1590 0128 FB68     		ldr	r3, [r7, #12]
 1591 012a D31A     		subs	r3, r2, r3
 1592              		.loc 1 1070 13
 1593 012c 41F28832 		movw	r2, #5000
 1594 0130 9342     		cmp	r3, r2
 1595 0132 01D9     		bls	.L106
1071:d:/LiteOS_Lab/drivers/third_party/ST/STM32L4xx_HAL_Driver/Src\stm32l4xx_hal_rcc.c ****           {
1072:d:/LiteOS_Lab/drivers/third_party/ST/STM32L4xx_HAL_Driver/Src\stm32l4xx_hal_rcc.c ****             return HAL_TIMEOUT;
 1596              		.loc 1 1072 20
 1597 0134 0323     		movs	r3, #3
 1598 0136 6FE0     		b	.L93
 1599              	.L106:
1068:d:/LiteOS_Lab/drivers/third_party/ST/STM32L4xx_HAL_Driver/Src\stm32l4xx_hal_rcc.c ****         {
 1600              		.loc 1 1068 16
 1601 0138 3A4B     		ldr	r3, .L114+4
 1602 013a 9B68     		ldr	r3, [r3, #8]
 1603 013c 03F00C03 		and	r3, r3, #12
1068:d:/LiteOS_Lab/drivers/third_party/ST/STM32L4xx_HAL_Driver/Src\stm32l4xx_hal_rcc.c ****         {
 1604              		.loc 1 1068 15
 1605 0140 002B     		cmp	r3, #0
 1606 0142 EED1     		bne	.L107
 1607 0144 10E0     		b	.L94
 1608              	.L109:
1073:d:/LiteOS_Lab/drivers/third_party/ST/STM32L4xx_HAL_Driver/Src\stm32l4xx_hal_rcc.c ****           }
1074:d:/LiteOS_Lab/drivers/third_party/ST/STM32L4xx_HAL_Driver/Src\stm32l4xx_hal_rcc.c ****         }
1075:d:/LiteOS_Lab/drivers/third_party/ST/STM32L4xx_HAL_Driver/Src\stm32l4xx_hal_rcc.c ****       }
1076:d:/LiteOS_Lab/drivers/third_party/ST/STM32L4xx_HAL_Driver/Src\stm32l4xx_hal_rcc.c ****       else
1077:d:/LiteOS_Lab/drivers/third_party/ST/STM32L4xx_HAL_Driver/Src\stm32l4xx_hal_rcc.c ****       {
1078:d:/LiteOS_Lab/drivers/third_party/ST/STM32L4xx_HAL_Driver/Src\stm32l4xx_hal_rcc.c ****         while(__HAL_RCC_GET_SYSCLK_SOURCE() != RCC_CFGR_SWS_HSI)
1079:d:/LiteOS_Lab/drivers/third_party/ST/STM32L4xx_HAL_Driver/Src\stm32l4xx_hal_rcc.c ****         {
1080:d:/LiteOS_Lab/drivers/third_party/ST/STM32L4xx_HAL_Driver/Src\stm32l4xx_hal_rcc.c ****           if((HAL_GetTick() - tickstart) > CLOCKSWITCH_TIMEOUT_VALUE)
 1609              		.loc 1 1080 15
 1610 0146 FFF7FEFF 		bl	HAL_GetTick
 1611 014a 0246     		mov	r2, r0
 1612              		.loc 1 1080 29
 1613 014c FB68     		ldr	r3, [r7, #12]
ARM GAS  C:\Users\ADMINI~1\AppData\Local\Temp\cc0pkmxZ.s 			page 49


 1614 014e D31A     		subs	r3, r2, r3
 1615              		.loc 1 1080 13
 1616 0150 41F28832 		movw	r2, #5000
 1617 0154 9342     		cmp	r3, r2
 1618 0156 01D9     		bls	.L108
1081:d:/LiteOS_Lab/drivers/third_party/ST/STM32L4xx_HAL_Driver/Src\stm32l4xx_hal_rcc.c ****           {
1082:d:/LiteOS_Lab/drivers/third_party/ST/STM32L4xx_HAL_Driver/Src\stm32l4xx_hal_rcc.c ****             return HAL_TIMEOUT;
 1619              		.loc 1 1082 20
 1620 0158 0323     		movs	r3, #3
 1621 015a 5DE0     		b	.L93
 1622              	.L108:
1078:d:/LiteOS_Lab/drivers/third_party/ST/STM32L4xx_HAL_Driver/Src\stm32l4xx_hal_rcc.c ****         {
 1623              		.loc 1 1078 15
 1624 015c 314B     		ldr	r3, .L114+4
 1625 015e 9B68     		ldr	r3, [r3, #8]
 1626 0160 03F00C03 		and	r3, r3, #12
1078:d:/LiteOS_Lab/drivers/third_party/ST/STM32L4xx_HAL_Driver/Src\stm32l4xx_hal_rcc.c ****         {
 1627              		.loc 1 1078 14
 1628 0164 042B     		cmp	r3, #4
 1629 0166 EED1     		bne	.L109
 1630              	.L94:
1083:d:/LiteOS_Lab/drivers/third_party/ST/STM32L4xx_HAL_Driver/Src\stm32l4xx_hal_rcc.c ****           }
1084:d:/LiteOS_Lab/drivers/third_party/ST/STM32L4xx_HAL_Driver/Src\stm32l4xx_hal_rcc.c ****         }
1085:d:/LiteOS_Lab/drivers/third_party/ST/STM32L4xx_HAL_Driver/Src\stm32l4xx_hal_rcc.c ****       }
1086:d:/LiteOS_Lab/drivers/third_party/ST/STM32L4xx_HAL_Driver/Src\stm32l4xx_hal_rcc.c ****     }
1087:d:/LiteOS_Lab/drivers/third_party/ST/STM32L4xx_HAL_Driver/Src\stm32l4xx_hal_rcc.c ****   }
1088:d:/LiteOS_Lab/drivers/third_party/ST/STM32L4xx_HAL_Driver/Src\stm32l4xx_hal_rcc.c **** 
1089:d:/LiteOS_Lab/drivers/third_party/ST/STM32L4xx_HAL_Driver/Src\stm32l4xx_hal_rcc.c ****   /*-------------------------- HCLK Configuration --------------------------*/
1090:d:/LiteOS_Lab/drivers/third_party/ST/STM32L4xx_HAL_Driver/Src\stm32l4xx_hal_rcc.c ****   if(((RCC_ClkInitStruct->ClockType) & RCC_CLOCKTYPE_HCLK) == RCC_CLOCKTYPE_HCLK)
 1631              		.loc 1 1090 25
 1632 0168 7B68     		ldr	r3, [r7, #4]
 1633 016a 1B68     		ldr	r3, [r3]
 1634              		.loc 1 1090 38
 1635 016c 03F00203 		and	r3, r3, #2
 1636              		.loc 1 1090 5
 1637 0170 002B     		cmp	r3, #0
 1638 0172 08D0     		beq	.L110
1091:d:/LiteOS_Lab/drivers/third_party/ST/STM32L4xx_HAL_Driver/Src\stm32l4xx_hal_rcc.c ****   {
1092:d:/LiteOS_Lab/drivers/third_party/ST/STM32L4xx_HAL_Driver/Src\stm32l4xx_hal_rcc.c ****     assert_param(IS_RCC_HCLK(RCC_ClkInitStruct->AHBCLKDivider));
1093:d:/LiteOS_Lab/drivers/third_party/ST/STM32L4xx_HAL_Driver/Src\stm32l4xx_hal_rcc.c ****     MODIFY_REG(RCC->CFGR, RCC_CFGR_HPRE, RCC_ClkInitStruct->AHBCLKDivider);
 1639              		.loc 1 1093 5
 1640 0174 2B4B     		ldr	r3, .L114+4
 1641 0176 9B68     		ldr	r3, [r3, #8]
 1642 0178 23F0F002 		bic	r2, r3, #240
 1643 017c 7B68     		ldr	r3, [r7, #4]
 1644 017e 9B68     		ldr	r3, [r3, #8]
 1645 0180 2849     		ldr	r1, .L114+4
 1646 0182 1343     		orrs	r3, r3, r2
 1647 0184 8B60     		str	r3, [r1, #8]
 1648              	.L110:
1094:d:/LiteOS_Lab/drivers/third_party/ST/STM32L4xx_HAL_Driver/Src\stm32l4xx_hal_rcc.c ****   }
1095:d:/LiteOS_Lab/drivers/third_party/ST/STM32L4xx_HAL_Driver/Src\stm32l4xx_hal_rcc.c **** #if defined(STM32L4R5xx) || defined(STM32L4R7xx) || defined(STM32L4R9xx) || defined(STM32L4S5xx) ||
1096:d:/LiteOS_Lab/drivers/third_party/ST/STM32L4xx_HAL_Driver/Src\stm32l4xx_hal_rcc.c ****   else
1097:d:/LiteOS_Lab/drivers/third_party/ST/STM32L4xx_HAL_Driver/Src\stm32l4xx_hal_rcc.c ****   {
1098:d:/LiteOS_Lab/drivers/third_party/ST/STM32L4xx_HAL_Driver/Src\stm32l4xx_hal_rcc.c ****     /* Is intermediate HCLK prescaler 2 applied internally, complete with HCLK prescaler 1 */
1099:d:/LiteOS_Lab/drivers/third_party/ST/STM32L4xx_HAL_Driver/Src\stm32l4xx_hal_rcc.c ****     if(hpre == RCC_SYSCLK_DIV2)
1100:d:/LiteOS_Lab/drivers/third_party/ST/STM32L4xx_HAL_Driver/Src\stm32l4xx_hal_rcc.c ****     {
ARM GAS  C:\Users\ADMINI~1\AppData\Local\Temp\cc0pkmxZ.s 			page 50


1101:d:/LiteOS_Lab/drivers/third_party/ST/STM32L4xx_HAL_Driver/Src\stm32l4xx_hal_rcc.c ****       MODIFY_REG(RCC->CFGR, RCC_CFGR_HPRE, RCC_SYSCLK_DIV1);
1102:d:/LiteOS_Lab/drivers/third_party/ST/STM32L4xx_HAL_Driver/Src\stm32l4xx_hal_rcc.c ****     }
1103:d:/LiteOS_Lab/drivers/third_party/ST/STM32L4xx_HAL_Driver/Src\stm32l4xx_hal_rcc.c ****   }
1104:d:/LiteOS_Lab/drivers/third_party/ST/STM32L4xx_HAL_Driver/Src\stm32l4xx_hal_rcc.c **** #endif
1105:d:/LiteOS_Lab/drivers/third_party/ST/STM32L4xx_HAL_Driver/Src\stm32l4xx_hal_rcc.c **** 
1106:d:/LiteOS_Lab/drivers/third_party/ST/STM32L4xx_HAL_Driver/Src\stm32l4xx_hal_rcc.c ****   /* Decreasing the number of wait states because of lower CPU frequency */
1107:d:/LiteOS_Lab/drivers/third_party/ST/STM32L4xx_HAL_Driver/Src\stm32l4xx_hal_rcc.c ****   if(FLatency < READ_BIT(FLASH->ACR, FLASH_ACR_LATENCY))
 1649              		.loc 1 1107 17
 1650 0186 264B     		ldr	r3, .L114
 1651 0188 1B68     		ldr	r3, [r3]
 1652 018a 03F00703 		and	r3, r3, #7
 1653              		.loc 1 1107 5
 1654 018e 3A68     		ldr	r2, [r7]
 1655 0190 9A42     		cmp	r2, r3
 1656 0192 10D2     		bcs	.L111
1108:d:/LiteOS_Lab/drivers/third_party/ST/STM32L4xx_HAL_Driver/Src\stm32l4xx_hal_rcc.c ****   {
1109:d:/LiteOS_Lab/drivers/third_party/ST/STM32L4xx_HAL_Driver/Src\stm32l4xx_hal_rcc.c ****     /* Program the new number of wait states to the LATENCY bits in the FLASH_ACR register */
1110:d:/LiteOS_Lab/drivers/third_party/ST/STM32L4xx_HAL_Driver/Src\stm32l4xx_hal_rcc.c ****     __HAL_FLASH_SET_LATENCY(FLatency);
 1657              		.loc 1 1110 5
 1658 0194 224B     		ldr	r3, .L114
 1659 0196 1B68     		ldr	r3, [r3]
 1660 0198 23F00702 		bic	r2, r3, #7
 1661 019c 2049     		ldr	r1, .L114
 1662 019e 3B68     		ldr	r3, [r7]
 1663 01a0 1343     		orrs	r3, r3, r2
 1664 01a2 0B60     		str	r3, [r1]
1111:d:/LiteOS_Lab/drivers/third_party/ST/STM32L4xx_HAL_Driver/Src\stm32l4xx_hal_rcc.c **** 
1112:d:/LiteOS_Lab/drivers/third_party/ST/STM32L4xx_HAL_Driver/Src\stm32l4xx_hal_rcc.c ****     /* Check that the new number of wait states is taken into account to access the Flash
1113:d:/LiteOS_Lab/drivers/third_party/ST/STM32L4xx_HAL_Driver/Src\stm32l4xx_hal_rcc.c ****     memory by reading the FLASH_ACR register */
1114:d:/LiteOS_Lab/drivers/third_party/ST/STM32L4xx_HAL_Driver/Src\stm32l4xx_hal_rcc.c ****     if(READ_BIT(FLASH->ACR, FLASH_ACR_LATENCY) != FLatency)
 1665              		.loc 1 1114 8
 1666 01a4 1E4B     		ldr	r3, .L114
 1667 01a6 1B68     		ldr	r3, [r3]
 1668 01a8 03F00703 		and	r3, r3, #7
 1669              		.loc 1 1114 7
 1670 01ac 3A68     		ldr	r2, [r7]
 1671 01ae 9A42     		cmp	r2, r3
 1672 01b0 01D0     		beq	.L111
1115:d:/LiteOS_Lab/drivers/third_party/ST/STM32L4xx_HAL_Driver/Src\stm32l4xx_hal_rcc.c ****     {
1116:d:/LiteOS_Lab/drivers/third_party/ST/STM32L4xx_HAL_Driver/Src\stm32l4xx_hal_rcc.c ****       return HAL_ERROR;
 1673              		.loc 1 1116 14
 1674 01b2 0123     		movs	r3, #1
 1675 01b4 30E0     		b	.L93
 1676              	.L111:
1117:d:/LiteOS_Lab/drivers/third_party/ST/STM32L4xx_HAL_Driver/Src\stm32l4xx_hal_rcc.c ****     }
1118:d:/LiteOS_Lab/drivers/third_party/ST/STM32L4xx_HAL_Driver/Src\stm32l4xx_hal_rcc.c ****   }
1119:d:/LiteOS_Lab/drivers/third_party/ST/STM32L4xx_HAL_Driver/Src\stm32l4xx_hal_rcc.c **** 
1120:d:/LiteOS_Lab/drivers/third_party/ST/STM32L4xx_HAL_Driver/Src\stm32l4xx_hal_rcc.c ****   /*-------------------------- PCLK1 Configuration ---------------------------*/
1121:d:/LiteOS_Lab/drivers/third_party/ST/STM32L4xx_HAL_Driver/Src\stm32l4xx_hal_rcc.c ****   if(((RCC_ClkInitStruct->ClockType) & RCC_CLOCKTYPE_PCLK1) == RCC_CLOCKTYPE_PCLK1)
 1677              		.loc 1 1121 25
 1678 01b6 7B68     		ldr	r3, [r7, #4]
 1679 01b8 1B68     		ldr	r3, [r3]
 1680              		.loc 1 1121 38
 1681 01ba 03F00403 		and	r3, r3, #4
 1682              		.loc 1 1121 5
 1683 01be 002B     		cmp	r3, #0
 1684 01c0 08D0     		beq	.L112
ARM GAS  C:\Users\ADMINI~1\AppData\Local\Temp\cc0pkmxZ.s 			page 51


1122:d:/LiteOS_Lab/drivers/third_party/ST/STM32L4xx_HAL_Driver/Src\stm32l4xx_hal_rcc.c ****   {
1123:d:/LiteOS_Lab/drivers/third_party/ST/STM32L4xx_HAL_Driver/Src\stm32l4xx_hal_rcc.c ****     assert_param(IS_RCC_PCLK(RCC_ClkInitStruct->APB1CLKDivider));
1124:d:/LiteOS_Lab/drivers/third_party/ST/STM32L4xx_HAL_Driver/Src\stm32l4xx_hal_rcc.c ****     MODIFY_REG(RCC->CFGR, RCC_CFGR_PPRE1, RCC_ClkInitStruct->APB1CLKDivider);
 1685              		.loc 1 1124 5
 1686 01c2 184B     		ldr	r3, .L114+4
 1687 01c4 9B68     		ldr	r3, [r3, #8]
 1688 01c6 23F4E062 		bic	r2, r3, #1792
 1689 01ca 7B68     		ldr	r3, [r7, #4]
 1690 01cc DB68     		ldr	r3, [r3, #12]
 1691 01ce 1549     		ldr	r1, .L114+4
 1692 01d0 1343     		orrs	r3, r3, r2
 1693 01d2 8B60     		str	r3, [r1, #8]
 1694              	.L112:
1125:d:/LiteOS_Lab/drivers/third_party/ST/STM32L4xx_HAL_Driver/Src\stm32l4xx_hal_rcc.c ****   }
1126:d:/LiteOS_Lab/drivers/third_party/ST/STM32L4xx_HAL_Driver/Src\stm32l4xx_hal_rcc.c **** 
1127:d:/LiteOS_Lab/drivers/third_party/ST/STM32L4xx_HAL_Driver/Src\stm32l4xx_hal_rcc.c ****   /*-------------------------- PCLK2 Configuration ---------------------------*/
1128:d:/LiteOS_Lab/drivers/third_party/ST/STM32L4xx_HAL_Driver/Src\stm32l4xx_hal_rcc.c ****   if(((RCC_ClkInitStruct->ClockType) & RCC_CLOCKTYPE_PCLK2) == RCC_CLOCKTYPE_PCLK2)
 1695              		.loc 1 1128 25
 1696 01d4 7B68     		ldr	r3, [r7, #4]
 1697 01d6 1B68     		ldr	r3, [r3]
 1698              		.loc 1 1128 38
 1699 01d8 03F00803 		and	r3, r3, #8
 1700              		.loc 1 1128 5
 1701 01dc 002B     		cmp	r3, #0
 1702 01de 09D0     		beq	.L113
1129:d:/LiteOS_Lab/drivers/third_party/ST/STM32L4xx_HAL_Driver/Src\stm32l4xx_hal_rcc.c ****   {
1130:d:/LiteOS_Lab/drivers/third_party/ST/STM32L4xx_HAL_Driver/Src\stm32l4xx_hal_rcc.c ****     assert_param(IS_RCC_PCLK(RCC_ClkInitStruct->APB2CLKDivider));
1131:d:/LiteOS_Lab/drivers/third_party/ST/STM32L4xx_HAL_Driver/Src\stm32l4xx_hal_rcc.c ****     MODIFY_REG(RCC->CFGR, RCC_CFGR_PPRE2, ((RCC_ClkInitStruct->APB2CLKDivider) << 3U));
 1703              		.loc 1 1131 5
 1704 01e0 104B     		ldr	r3, .L114+4
 1705 01e2 9B68     		ldr	r3, [r3, #8]
 1706 01e4 23F46052 		bic	r2, r3, #14336
 1707 01e8 7B68     		ldr	r3, [r7, #4]
 1708 01ea 1B69     		ldr	r3, [r3, #16]
 1709 01ec DB00     		lsls	r3, r3, #3
 1710 01ee 0D49     		ldr	r1, .L114+4
 1711 01f0 1343     		orrs	r3, r3, r2
 1712 01f2 8B60     		str	r3, [r1, #8]
 1713              	.L113:
1132:d:/LiteOS_Lab/drivers/third_party/ST/STM32L4xx_HAL_Driver/Src\stm32l4xx_hal_rcc.c ****   }
1133:d:/LiteOS_Lab/drivers/third_party/ST/STM32L4xx_HAL_Driver/Src\stm32l4xx_hal_rcc.c **** 
1134:d:/LiteOS_Lab/drivers/third_party/ST/STM32L4xx_HAL_Driver/Src\stm32l4xx_hal_rcc.c ****   /* Update the SystemCoreClock global variable */
1135:d:/LiteOS_Lab/drivers/third_party/ST/STM32L4xx_HAL_Driver/Src\stm32l4xx_hal_rcc.c ****   SystemCoreClock = HAL_RCC_GetSysClockFreq() >> AHBPrescTable[READ_BIT(RCC->CFGR, RCC_CFGR_HPRE) >
 1714              		.loc 1 1135 21
 1715 01f4 FFF7FEFF 		bl	HAL_RCC_GetSysClockFreq
 1716 01f8 0246     		mov	r2, r0
 1717              		.loc 1 1135 64
 1718 01fa 0A4B     		ldr	r3, .L114+4
 1719 01fc 9B68     		ldr	r3, [r3, #8]
 1720              		.loc 1 1135 99
 1721 01fe 1B09     		lsrs	r3, r3, #4
 1722 0200 03F00F03 		and	r3, r3, #15
 1723              		.loc 1 1135 63
 1724 0204 0849     		ldr	r1, .L114+8
 1725 0206 CB5C     		ldrb	r3, [r1, r3]	@ zero_extendqisi2
 1726              		.loc 1 1135 47
 1727 0208 22FA03F3 		lsr	r3, r2, r3
ARM GAS  C:\Users\ADMINI~1\AppData\Local\Temp\cc0pkmxZ.s 			page 52


 1728              		.loc 1 1135 19
 1729 020c 074A     		ldr	r2, .L114+12
 1730 020e 1360     		str	r3, [r2]
1136:d:/LiteOS_Lab/drivers/third_party/ST/STM32L4xx_HAL_Driver/Src\stm32l4xx_hal_rcc.c **** 
1137:d:/LiteOS_Lab/drivers/third_party/ST/STM32L4xx_HAL_Driver/Src\stm32l4xx_hal_rcc.c ****   /* Configure the source of time base considering new system clocks settings*/
1138:d:/LiteOS_Lab/drivers/third_party/ST/STM32L4xx_HAL_Driver/Src\stm32l4xx_hal_rcc.c ****   HAL_InitTick (TICK_INT_PRIORITY);
 1731              		.loc 1 1138 3
 1732 0210 0020     		movs	r0, #0
 1733 0212 FFF7FEFF 		bl	HAL_InitTick
1139:d:/LiteOS_Lab/drivers/third_party/ST/STM32L4xx_HAL_Driver/Src\stm32l4xx_hal_rcc.c **** 
1140:d:/LiteOS_Lab/drivers/third_party/ST/STM32L4xx_HAL_Driver/Src\stm32l4xx_hal_rcc.c ****   return HAL_OK;
 1734              		.loc 1 1140 10
 1735 0216 0023     		movs	r3, #0
 1736              	.L93:
1141:d:/LiteOS_Lab/drivers/third_party/ST/STM32L4xx_HAL_Driver/Src\stm32l4xx_hal_rcc.c **** }
 1737              		.loc 1 1141 1
 1738 0218 1846     		mov	r0, r3
 1739 021a 1037     		adds	r7, r7, #16
 1740              	.LCFI13:
 1741              		.cfi_def_cfa_offset 8
 1742 021c BD46     		mov	sp, r7
 1743              	.LCFI14:
 1744              		.cfi_def_cfa_register 13
 1745              		@ sp needed
 1746 021e 80BD     		pop	{r7, pc}
 1747              	.L115:
 1748              		.align	2
 1749              	.L114:
 1750 0220 00200240 		.word	1073881088
 1751 0224 00100240 		.word	1073876992
 1752 0228 00000000 		.word	AHBPrescTable
 1753 022c 00000000 		.word	SystemCoreClock
 1754              		.cfi_endproc
 1755              	.LFE289:
 1757              		.section	.text.HAL_RCC_MCOConfig,"ax",%progbits
 1758              		.align	1
 1759              		.global	HAL_RCC_MCOConfig
 1760              		.syntax unified
 1761              		.thumb
 1762              		.thumb_func
 1763              		.fpu fpv4-sp-d16
 1765              	HAL_RCC_MCOConfig:
 1766              	.LFB290:
1142:d:/LiteOS_Lab/drivers/third_party/ST/STM32L4xx_HAL_Driver/Src\stm32l4xx_hal_rcc.c **** 
1143:d:/LiteOS_Lab/drivers/third_party/ST/STM32L4xx_HAL_Driver/Src\stm32l4xx_hal_rcc.c **** /**
1144:d:/LiteOS_Lab/drivers/third_party/ST/STM32L4xx_HAL_Driver/Src\stm32l4xx_hal_rcc.c ****   * @}
1145:d:/LiteOS_Lab/drivers/third_party/ST/STM32L4xx_HAL_Driver/Src\stm32l4xx_hal_rcc.c ****   */
1146:d:/LiteOS_Lab/drivers/third_party/ST/STM32L4xx_HAL_Driver/Src\stm32l4xx_hal_rcc.c **** 
1147:d:/LiteOS_Lab/drivers/third_party/ST/STM32L4xx_HAL_Driver/Src\stm32l4xx_hal_rcc.c **** /** @defgroup RCC_Exported_Functions_Group2 Peripheral Control functions
1148:d:/LiteOS_Lab/drivers/third_party/ST/STM32L4xx_HAL_Driver/Src\stm32l4xx_hal_rcc.c ****  *  @brief   RCC clocks control functions
1149:d:/LiteOS_Lab/drivers/third_party/ST/STM32L4xx_HAL_Driver/Src\stm32l4xx_hal_rcc.c ****  *
1150:d:/LiteOS_Lab/drivers/third_party/ST/STM32L4xx_HAL_Driver/Src\stm32l4xx_hal_rcc.c **** @verbatim
1151:d:/LiteOS_Lab/drivers/third_party/ST/STM32L4xx_HAL_Driver/Src\stm32l4xx_hal_rcc.c ****  ===============================================================================
1152:d:/LiteOS_Lab/drivers/third_party/ST/STM32L4xx_HAL_Driver/Src\stm32l4xx_hal_rcc.c ****                       ##### Peripheral Control functions #####
1153:d:/LiteOS_Lab/drivers/third_party/ST/STM32L4xx_HAL_Driver/Src\stm32l4xx_hal_rcc.c ****  ===============================================================================
1154:d:/LiteOS_Lab/drivers/third_party/ST/STM32L4xx_HAL_Driver/Src\stm32l4xx_hal_rcc.c ****     [..]
1155:d:/LiteOS_Lab/drivers/third_party/ST/STM32L4xx_HAL_Driver/Src\stm32l4xx_hal_rcc.c ****     This subsection provides a set of functions allowing to:
ARM GAS  C:\Users\ADMINI~1\AppData\Local\Temp\cc0pkmxZ.s 			page 53


1156:d:/LiteOS_Lab/drivers/third_party/ST/STM32L4xx_HAL_Driver/Src\stm32l4xx_hal_rcc.c **** 
1157:d:/LiteOS_Lab/drivers/third_party/ST/STM32L4xx_HAL_Driver/Src\stm32l4xx_hal_rcc.c ****     (+) Ouput clock to MCO pin.
1158:d:/LiteOS_Lab/drivers/third_party/ST/STM32L4xx_HAL_Driver/Src\stm32l4xx_hal_rcc.c ****     (+) Retrieve current clock frequencies.
1159:d:/LiteOS_Lab/drivers/third_party/ST/STM32L4xx_HAL_Driver/Src\stm32l4xx_hal_rcc.c ****     (+) Enable the Clock Security System.
1160:d:/LiteOS_Lab/drivers/third_party/ST/STM32L4xx_HAL_Driver/Src\stm32l4xx_hal_rcc.c **** 
1161:d:/LiteOS_Lab/drivers/third_party/ST/STM32L4xx_HAL_Driver/Src\stm32l4xx_hal_rcc.c **** @endverbatim
1162:d:/LiteOS_Lab/drivers/third_party/ST/STM32L4xx_HAL_Driver/Src\stm32l4xx_hal_rcc.c ****   * @{
1163:d:/LiteOS_Lab/drivers/third_party/ST/STM32L4xx_HAL_Driver/Src\stm32l4xx_hal_rcc.c ****   */
1164:d:/LiteOS_Lab/drivers/third_party/ST/STM32L4xx_HAL_Driver/Src\stm32l4xx_hal_rcc.c **** 
1165:d:/LiteOS_Lab/drivers/third_party/ST/STM32L4xx_HAL_Driver/Src\stm32l4xx_hal_rcc.c **** /**
1166:d:/LiteOS_Lab/drivers/third_party/ST/STM32L4xx_HAL_Driver/Src\stm32l4xx_hal_rcc.c ****   * @brief  Select the clock source to output on MCO pin(PA8).
1167:d:/LiteOS_Lab/drivers/third_party/ST/STM32L4xx_HAL_Driver/Src\stm32l4xx_hal_rcc.c ****   * @note   PA8 should be configured in alternate function mode.
1168:d:/LiteOS_Lab/drivers/third_party/ST/STM32L4xx_HAL_Driver/Src\stm32l4xx_hal_rcc.c ****   * @param  RCC_MCOx  specifies the output direction for the clock source.
1169:d:/LiteOS_Lab/drivers/third_party/ST/STM32L4xx_HAL_Driver/Src\stm32l4xx_hal_rcc.c ****   *          For STM32L4xx family this parameter can have only one value:
1170:d:/LiteOS_Lab/drivers/third_party/ST/STM32L4xx_HAL_Driver/Src\stm32l4xx_hal_rcc.c ****   *            @arg @ref RCC_MCO1  Clock source to output on MCO1 pin(PA8).
1171:d:/LiteOS_Lab/drivers/third_party/ST/STM32L4xx_HAL_Driver/Src\stm32l4xx_hal_rcc.c ****   * @param  RCC_MCOSource  specifies the clock source to output.
1172:d:/LiteOS_Lab/drivers/third_party/ST/STM32L4xx_HAL_Driver/Src\stm32l4xx_hal_rcc.c ****   *          This parameter can be one of the following values:
1173:d:/LiteOS_Lab/drivers/third_party/ST/STM32L4xx_HAL_Driver/Src\stm32l4xx_hal_rcc.c ****   *            @arg @ref RCC_MCO1SOURCE_NOCLOCK  MCO output disabled, no clock on MCO
1174:d:/LiteOS_Lab/drivers/third_party/ST/STM32L4xx_HAL_Driver/Src\stm32l4xx_hal_rcc.c ****   *            @arg @ref RCC_MCO1SOURCE_SYSCLK  system  clock selected as MCO source
1175:d:/LiteOS_Lab/drivers/third_party/ST/STM32L4xx_HAL_Driver/Src\stm32l4xx_hal_rcc.c ****   *            @arg @ref RCC_MCO1SOURCE_MSI  MSI clock selected as MCO source
1176:d:/LiteOS_Lab/drivers/third_party/ST/STM32L4xx_HAL_Driver/Src\stm32l4xx_hal_rcc.c ****   *            @arg @ref RCC_MCO1SOURCE_HSI  HSI clock selected as MCO source
1177:d:/LiteOS_Lab/drivers/third_party/ST/STM32L4xx_HAL_Driver/Src\stm32l4xx_hal_rcc.c ****   *            @arg @ref RCC_MCO1SOURCE_HSE  HSE clock selected as MCO sourcee
1178:d:/LiteOS_Lab/drivers/third_party/ST/STM32L4xx_HAL_Driver/Src\stm32l4xx_hal_rcc.c ****   *            @arg @ref RCC_MCO1SOURCE_PLLCLK  main PLL clock selected as MCO source
1179:d:/LiteOS_Lab/drivers/third_party/ST/STM32L4xx_HAL_Driver/Src\stm32l4xx_hal_rcc.c ****   *            @arg @ref RCC_MCO1SOURCE_LSI  LSI clock selected as MCO source
1180:d:/LiteOS_Lab/drivers/third_party/ST/STM32L4xx_HAL_Driver/Src\stm32l4xx_hal_rcc.c ****   *            @arg @ref RCC_MCO1SOURCE_LSE  LSE clock selected as MCO source
1181:d:/LiteOS_Lab/drivers/third_party/ST/STM32L4xx_HAL_Driver/Src\stm32l4xx_hal_rcc.c ****   @if STM32L443xx
1182:d:/LiteOS_Lab/drivers/third_party/ST/STM32L4xx_HAL_Driver/Src\stm32l4xx_hal_rcc.c ****   *            @arg @ref RCC_MCO1SOURCE_HSI48  HSI48 clock selected as MCO source for devices with 
1183:d:/LiteOS_Lab/drivers/third_party/ST/STM32L4xx_HAL_Driver/Src\stm32l4xx_hal_rcc.c ****   @endif
1184:d:/LiteOS_Lab/drivers/third_party/ST/STM32L4xx_HAL_Driver/Src\stm32l4xx_hal_rcc.c ****   * @param  RCC_MCODiv  specifies the MCO prescaler.
1185:d:/LiteOS_Lab/drivers/third_party/ST/STM32L4xx_HAL_Driver/Src\stm32l4xx_hal_rcc.c ****   *          This parameter can be one of the following values:
1186:d:/LiteOS_Lab/drivers/third_party/ST/STM32L4xx_HAL_Driver/Src\stm32l4xx_hal_rcc.c ****   *            @arg @ref RCC_MCODIV_1  no division applied to MCO clock
1187:d:/LiteOS_Lab/drivers/third_party/ST/STM32L4xx_HAL_Driver/Src\stm32l4xx_hal_rcc.c ****   *            @arg @ref RCC_MCODIV_2  division by 2 applied to MCO clock
1188:d:/LiteOS_Lab/drivers/third_party/ST/STM32L4xx_HAL_Driver/Src\stm32l4xx_hal_rcc.c ****   *            @arg @ref RCC_MCODIV_4  division by 4 applied to MCO clock
1189:d:/LiteOS_Lab/drivers/third_party/ST/STM32L4xx_HAL_Driver/Src\stm32l4xx_hal_rcc.c ****   *            @arg @ref RCC_MCODIV_8  division by 8 applied to MCO clock
1190:d:/LiteOS_Lab/drivers/third_party/ST/STM32L4xx_HAL_Driver/Src\stm32l4xx_hal_rcc.c ****   *            @arg @ref RCC_MCODIV_16  division by 16 applied to MCO clock
1191:d:/LiteOS_Lab/drivers/third_party/ST/STM32L4xx_HAL_Driver/Src\stm32l4xx_hal_rcc.c ****   * @retval None
1192:d:/LiteOS_Lab/drivers/third_party/ST/STM32L4xx_HAL_Driver/Src\stm32l4xx_hal_rcc.c ****   */
1193:d:/LiteOS_Lab/drivers/third_party/ST/STM32L4xx_HAL_Driver/Src\stm32l4xx_hal_rcc.c **** void HAL_RCC_MCOConfig( uint32_t RCC_MCOx, uint32_t RCC_MCOSource, uint32_t RCC_MCODiv)
1194:d:/LiteOS_Lab/drivers/third_party/ST/STM32L4xx_HAL_Driver/Src\stm32l4xx_hal_rcc.c **** {
 1767              		.loc 1 1194 1
 1768              		.cfi_startproc
 1769              		@ args = 0, pretend = 0, frame = 40
 1770              		@ frame_needed = 1, uses_anonymous_args = 0
 1771 0000 80B5     		push	{r7, lr}
 1772              	.LCFI15:
 1773              		.cfi_def_cfa_offset 8
 1774              		.cfi_offset 7, -8
 1775              		.cfi_offset 14, -4
 1776 0002 8AB0     		sub	sp, sp, #40
 1777              	.LCFI16:
 1778              		.cfi_def_cfa_offset 48
 1779 0004 00AF     		add	r7, sp, #0
 1780              	.LCFI17:
 1781              		.cfi_def_cfa_register 7
 1782 0006 F860     		str	r0, [r7, #12]
 1783 0008 B960     		str	r1, [r7, #8]
 1784 000a 7A60     		str	r2, [r7, #4]
ARM GAS  C:\Users\ADMINI~1\AppData\Local\Temp\cc0pkmxZ.s 			page 54


 1785              	.LBB4:
1195:d:/LiteOS_Lab/drivers/third_party/ST/STM32L4xx_HAL_Driver/Src\stm32l4xx_hal_rcc.c ****   GPIO_InitTypeDef GPIO_InitStruct;
1196:d:/LiteOS_Lab/drivers/third_party/ST/STM32L4xx_HAL_Driver/Src\stm32l4xx_hal_rcc.c ****   /* Check the parameters */
1197:d:/LiteOS_Lab/drivers/third_party/ST/STM32L4xx_HAL_Driver/Src\stm32l4xx_hal_rcc.c ****   assert_param(IS_RCC_MCO(RCC_MCOx));
1198:d:/LiteOS_Lab/drivers/third_party/ST/STM32L4xx_HAL_Driver/Src\stm32l4xx_hal_rcc.c ****   assert_param(IS_RCC_MCODIV(RCC_MCODiv));
1199:d:/LiteOS_Lab/drivers/third_party/ST/STM32L4xx_HAL_Driver/Src\stm32l4xx_hal_rcc.c ****   assert_param(IS_RCC_MCO1SOURCE(RCC_MCOSource));
1200:d:/LiteOS_Lab/drivers/third_party/ST/STM32L4xx_HAL_Driver/Src\stm32l4xx_hal_rcc.c **** 
1201:d:/LiteOS_Lab/drivers/third_party/ST/STM32L4xx_HAL_Driver/Src\stm32l4xx_hal_rcc.c ****   /* MCO Clock Enable */
1202:d:/LiteOS_Lab/drivers/third_party/ST/STM32L4xx_HAL_Driver/Src\stm32l4xx_hal_rcc.c ****   __MCO1_CLK_ENABLE();
 1786              		.loc 1 1202 3
 1787 000c 154B     		ldr	r3, .L117
 1788 000e DB6C     		ldr	r3, [r3, #76]
 1789 0010 144A     		ldr	r2, .L117
 1790 0012 43F00103 		orr	r3, r3, #1
 1791 0016 D364     		str	r3, [r2, #76]
 1792 0018 124B     		ldr	r3, .L117
 1793 001a DB6C     		ldr	r3, [r3, #76]
 1794 001c 03F00103 		and	r3, r3, #1
 1795 0020 3B61     		str	r3, [r7, #16]
 1796 0022 3B69     		ldr	r3, [r7, #16]
 1797              	.LBE4:
1203:d:/LiteOS_Lab/drivers/third_party/ST/STM32L4xx_HAL_Driver/Src\stm32l4xx_hal_rcc.c **** 
1204:d:/LiteOS_Lab/drivers/third_party/ST/STM32L4xx_HAL_Driver/Src\stm32l4xx_hal_rcc.c ****   /* Configue the MCO1 pin in alternate function mode */
1205:d:/LiteOS_Lab/drivers/third_party/ST/STM32L4xx_HAL_Driver/Src\stm32l4xx_hal_rcc.c ****   GPIO_InitStruct.Pin = MCO1_PIN;
 1798              		.loc 1 1205 23
 1799 0024 4FF48073 		mov	r3, #256
 1800 0028 7B61     		str	r3, [r7, #20]
1206:d:/LiteOS_Lab/drivers/third_party/ST/STM32L4xx_HAL_Driver/Src\stm32l4xx_hal_rcc.c ****   GPIO_InitStruct.Mode = GPIO_MODE_AF_PP;
 1801              		.loc 1 1206 24
 1802 002a 0223     		movs	r3, #2
 1803 002c BB61     		str	r3, [r7, #24]
1207:d:/LiteOS_Lab/drivers/third_party/ST/STM32L4xx_HAL_Driver/Src\stm32l4xx_hal_rcc.c ****   GPIO_InitStruct.Speed = GPIO_SPEED_FREQ_HIGH;
 1804              		.loc 1 1207 25
 1805 002e 0223     		movs	r3, #2
 1806 0030 3B62     		str	r3, [r7, #32]
1208:d:/LiteOS_Lab/drivers/third_party/ST/STM32L4xx_HAL_Driver/Src\stm32l4xx_hal_rcc.c ****   GPIO_InitStruct.Pull = GPIO_NOPULL;
 1807              		.loc 1 1208 24
 1808 0032 0023     		movs	r3, #0
 1809 0034 FB61     		str	r3, [r7, #28]
1209:d:/LiteOS_Lab/drivers/third_party/ST/STM32L4xx_HAL_Driver/Src\stm32l4xx_hal_rcc.c ****   GPIO_InitStruct.Alternate = GPIO_AF0_MCO;
 1810              		.loc 1 1209 29
 1811 0036 0023     		movs	r3, #0
 1812 0038 7B62     		str	r3, [r7, #36]
1210:d:/LiteOS_Lab/drivers/third_party/ST/STM32L4xx_HAL_Driver/Src\stm32l4xx_hal_rcc.c ****   HAL_GPIO_Init(MCO1_GPIO_PORT, &GPIO_InitStruct);
 1813              		.loc 1 1210 3
 1814 003a 07F11403 		add	r3, r7, #20
 1815 003e 1946     		mov	r1, r3
 1816 0040 4FF09040 		mov	r0, #1207959552
 1817 0044 FFF7FEFF 		bl	HAL_GPIO_Init
1211:d:/LiteOS_Lab/drivers/third_party/ST/STM32L4xx_HAL_Driver/Src\stm32l4xx_hal_rcc.c **** 
1212:d:/LiteOS_Lab/drivers/third_party/ST/STM32L4xx_HAL_Driver/Src\stm32l4xx_hal_rcc.c ****   /* Mask MCOSEL[] and MCOPRE[] bits then set MCO1 clock source and prescaler */
1213:d:/LiteOS_Lab/drivers/third_party/ST/STM32L4xx_HAL_Driver/Src\stm32l4xx_hal_rcc.c ****   MODIFY_REG(RCC->CFGR, (RCC_CFGR_MCOSEL | RCC_CFGR_MCOPRE), (RCC_MCOSource | RCC_MCODiv ));
 1818              		.loc 1 1213 3
 1819 0048 064B     		ldr	r3, .L117
 1820 004a 9B68     		ldr	r3, [r3, #8]
 1821 004c 23F0FE42 		bic	r2, r3, #2130706432
 1822 0050 B968     		ldr	r1, [r7, #8]
ARM GAS  C:\Users\ADMINI~1\AppData\Local\Temp\cc0pkmxZ.s 			page 55


 1823 0052 7B68     		ldr	r3, [r7, #4]
 1824 0054 0B43     		orrs	r3, r3, r1
 1825 0056 0349     		ldr	r1, .L117
 1826 0058 1343     		orrs	r3, r3, r2
 1827 005a 8B60     		str	r3, [r1, #8]
1214:d:/LiteOS_Lab/drivers/third_party/ST/STM32L4xx_HAL_Driver/Src\stm32l4xx_hal_rcc.c **** }
 1828              		.loc 1 1214 1
 1829 005c 00BF     		nop
 1830 005e 2837     		adds	r7, r7, #40
 1831              	.LCFI18:
 1832              		.cfi_def_cfa_offset 8
 1833 0060 BD46     		mov	sp, r7
 1834              	.LCFI19:
 1835              		.cfi_def_cfa_register 13
 1836              		@ sp needed
 1837 0062 80BD     		pop	{r7, pc}
 1838              	.L118:
 1839              		.align	2
 1840              	.L117:
 1841 0064 00100240 		.word	1073876992
 1842              		.cfi_endproc
 1843              	.LFE290:
 1845              		.section	.text.HAL_RCC_GetSysClockFreq,"ax",%progbits
 1846              		.align	1
 1847              		.global	HAL_RCC_GetSysClockFreq
 1848              		.syntax unified
 1849              		.thumb
 1850              		.thumb_func
 1851              		.fpu fpv4-sp-d16
 1853              	HAL_RCC_GetSysClockFreq:
 1854              	.LFB291:
1215:d:/LiteOS_Lab/drivers/third_party/ST/STM32L4xx_HAL_Driver/Src\stm32l4xx_hal_rcc.c **** 
1216:d:/LiteOS_Lab/drivers/third_party/ST/STM32L4xx_HAL_Driver/Src\stm32l4xx_hal_rcc.c **** /**
1217:d:/LiteOS_Lab/drivers/third_party/ST/STM32L4xx_HAL_Driver/Src\stm32l4xx_hal_rcc.c ****   * @brief  Return the SYSCLK frequency.
1218:d:/LiteOS_Lab/drivers/third_party/ST/STM32L4xx_HAL_Driver/Src\stm32l4xx_hal_rcc.c ****   *
1219:d:/LiteOS_Lab/drivers/third_party/ST/STM32L4xx_HAL_Driver/Src\stm32l4xx_hal_rcc.c ****   * @note   The system frequency computed by this function is not the real
1220:d:/LiteOS_Lab/drivers/third_party/ST/STM32L4xx_HAL_Driver/Src\stm32l4xx_hal_rcc.c ****   *         frequency in the chip. It is calculated based on the predefined
1221:d:/LiteOS_Lab/drivers/third_party/ST/STM32L4xx_HAL_Driver/Src\stm32l4xx_hal_rcc.c ****   *         constant and the selected clock source:
1222:d:/LiteOS_Lab/drivers/third_party/ST/STM32L4xx_HAL_Driver/Src\stm32l4xx_hal_rcc.c ****   * @note     If SYSCLK source is MSI, function returns values based on MSI
1223:d:/LiteOS_Lab/drivers/third_party/ST/STM32L4xx_HAL_Driver/Src\stm32l4xx_hal_rcc.c ****   *             Value as defined by the MSI range.
1224:d:/LiteOS_Lab/drivers/third_party/ST/STM32L4xx_HAL_Driver/Src\stm32l4xx_hal_rcc.c ****   * @note     If SYSCLK source is HSI, function returns values based on HSI_VALUE(*)
1225:d:/LiteOS_Lab/drivers/third_party/ST/STM32L4xx_HAL_Driver/Src\stm32l4xx_hal_rcc.c ****   * @note     If SYSCLK source is HSE, function returns values based on HSE_VALUE(**)
1226:d:/LiteOS_Lab/drivers/third_party/ST/STM32L4xx_HAL_Driver/Src\stm32l4xx_hal_rcc.c ****   * @note     If SYSCLK source is PLL, function returns values based on HSE_VALUE(**),
1227:d:/LiteOS_Lab/drivers/third_party/ST/STM32L4xx_HAL_Driver/Src\stm32l4xx_hal_rcc.c ****   *           HSI_VALUE(*) or MSI Value multiplied/divided by the PLL factors.
1228:d:/LiteOS_Lab/drivers/third_party/ST/STM32L4xx_HAL_Driver/Src\stm32l4xx_hal_rcc.c ****   * @note     (*) HSI_VALUE is a constant defined in stm32l4xx_hal_conf.h file (default value
1229:d:/LiteOS_Lab/drivers/third_party/ST/STM32L4xx_HAL_Driver/Src\stm32l4xx_hal_rcc.c ****   *               16 MHz) but the real value may vary depending on the variations
1230:d:/LiteOS_Lab/drivers/third_party/ST/STM32L4xx_HAL_Driver/Src\stm32l4xx_hal_rcc.c ****   *               in voltage and temperature.
1231:d:/LiteOS_Lab/drivers/third_party/ST/STM32L4xx_HAL_Driver/Src\stm32l4xx_hal_rcc.c ****   * @note     (**) HSE_VALUE is a constant defined in stm32l4xx_hal_conf.h file (default value
1232:d:/LiteOS_Lab/drivers/third_party/ST/STM32L4xx_HAL_Driver/Src\stm32l4xx_hal_rcc.c ****   *                8 MHz), user has to ensure that HSE_VALUE is same as the real
1233:d:/LiteOS_Lab/drivers/third_party/ST/STM32L4xx_HAL_Driver/Src\stm32l4xx_hal_rcc.c ****   *                frequency of the crystal used. Otherwise, this function may
1234:d:/LiteOS_Lab/drivers/third_party/ST/STM32L4xx_HAL_Driver/Src\stm32l4xx_hal_rcc.c ****   *                have wrong result.
1235:d:/LiteOS_Lab/drivers/third_party/ST/STM32L4xx_HAL_Driver/Src\stm32l4xx_hal_rcc.c ****   *
1236:d:/LiteOS_Lab/drivers/third_party/ST/STM32L4xx_HAL_Driver/Src\stm32l4xx_hal_rcc.c ****   * @note   The result of this function could be not correct when using fractional
1237:d:/LiteOS_Lab/drivers/third_party/ST/STM32L4xx_HAL_Driver/Src\stm32l4xx_hal_rcc.c ****   *         value for HSE crystal.
1238:d:/LiteOS_Lab/drivers/third_party/ST/STM32L4xx_HAL_Driver/Src\stm32l4xx_hal_rcc.c ****   *
1239:d:/LiteOS_Lab/drivers/third_party/ST/STM32L4xx_HAL_Driver/Src\stm32l4xx_hal_rcc.c ****   * @note   This function can be used by the user application to compute the
1240:d:/LiteOS_Lab/drivers/third_party/ST/STM32L4xx_HAL_Driver/Src\stm32l4xx_hal_rcc.c ****   *         baudrate for the communication peripherals or configure other parameters.
ARM GAS  C:\Users\ADMINI~1\AppData\Local\Temp\cc0pkmxZ.s 			page 56


1241:d:/LiteOS_Lab/drivers/third_party/ST/STM32L4xx_HAL_Driver/Src\stm32l4xx_hal_rcc.c ****   *
1242:d:/LiteOS_Lab/drivers/third_party/ST/STM32L4xx_HAL_Driver/Src\stm32l4xx_hal_rcc.c ****   * @note   Each time SYSCLK changes, this function must be called to update the
1243:d:/LiteOS_Lab/drivers/third_party/ST/STM32L4xx_HAL_Driver/Src\stm32l4xx_hal_rcc.c ****   *         right SYSCLK value. Otherwise, any configuration based on this function will be incorre
1244:d:/LiteOS_Lab/drivers/third_party/ST/STM32L4xx_HAL_Driver/Src\stm32l4xx_hal_rcc.c ****   *
1245:d:/LiteOS_Lab/drivers/third_party/ST/STM32L4xx_HAL_Driver/Src\stm32l4xx_hal_rcc.c ****   *
1246:d:/LiteOS_Lab/drivers/third_party/ST/STM32L4xx_HAL_Driver/Src\stm32l4xx_hal_rcc.c ****   * @retval SYSCLK frequency
1247:d:/LiteOS_Lab/drivers/third_party/ST/STM32L4xx_HAL_Driver/Src\stm32l4xx_hal_rcc.c ****   */
1248:d:/LiteOS_Lab/drivers/third_party/ST/STM32L4xx_HAL_Driver/Src\stm32l4xx_hal_rcc.c **** uint32_t HAL_RCC_GetSysClockFreq(void)
1249:d:/LiteOS_Lab/drivers/third_party/ST/STM32L4xx_HAL_Driver/Src\stm32l4xx_hal_rcc.c **** {
 1855              		.loc 1 1249 1
 1856              		.cfi_startproc
 1857              		@ args = 0, pretend = 0, frame = 24
 1858              		@ frame_needed = 1, uses_anonymous_args = 0
 1859              		@ link register save eliminated.
 1860 0000 80B4     		push	{r7}
 1861              	.LCFI20:
 1862              		.cfi_def_cfa_offset 4
 1863              		.cfi_offset 7, -4
 1864 0002 87B0     		sub	sp, sp, #28
 1865              	.LCFI21:
 1866              		.cfi_def_cfa_offset 32
 1867 0004 00AF     		add	r7, sp, #0
 1868              	.LCFI22:
 1869              		.cfi_def_cfa_register 7
1250:d:/LiteOS_Lab/drivers/third_party/ST/STM32L4xx_HAL_Driver/Src\stm32l4xx_hal_rcc.c ****   uint32_t msirange = 0U, pllvco = 0U, pllsource = 0U, pllr = 2U, pllm = 2U;
 1870              		.loc 1 1250 12
 1871 0006 0023     		movs	r3, #0
 1872 0008 7B61     		str	r3, [r7, #20]
 1873              		.loc 1 1250 27
 1874 000a 0023     		movs	r3, #0
 1875 000c 3B61     		str	r3, [r7, #16]
 1876              		.loc 1 1250 40
 1877 000e 0023     		movs	r3, #0
 1878 0010 BB60     		str	r3, [r7, #8]
 1879              		.loc 1 1250 56
 1880 0012 0223     		movs	r3, #2
 1881 0014 7B60     		str	r3, [r7, #4]
 1882              		.loc 1 1250 67
 1883 0016 0223     		movs	r3, #2
 1884 0018 3B60     		str	r3, [r7]
1251:d:/LiteOS_Lab/drivers/third_party/ST/STM32L4xx_HAL_Driver/Src\stm32l4xx_hal_rcc.c ****   uint32_t sysclockfreq = 0U;
 1885              		.loc 1 1251 12
 1886 001a 0023     		movs	r3, #0
 1887 001c FB60     		str	r3, [r7, #12]
1252:d:/LiteOS_Lab/drivers/third_party/ST/STM32L4xx_HAL_Driver/Src\stm32l4xx_hal_rcc.c **** 
1253:d:/LiteOS_Lab/drivers/third_party/ST/STM32L4xx_HAL_Driver/Src\stm32l4xx_hal_rcc.c ****   if((__HAL_RCC_GET_SYSCLK_SOURCE() == RCC_CFGR_SWS_MSI) ||
 1888              		.loc 1 1253 7
 1889 001e 4C4B     		ldr	r3, .L134
 1890 0020 9B68     		ldr	r3, [r3, #8]
 1891 0022 03F00C03 		and	r3, r3, #12
 1892              		.loc 1 1253 5
 1893 0026 002B     		cmp	r3, #0
 1894 0028 0BD0     		beq	.L120
1254:d:/LiteOS_Lab/drivers/third_party/ST/STM32L4xx_HAL_Driver/Src\stm32l4xx_hal_rcc.c ****      ((__HAL_RCC_GET_SYSCLK_SOURCE() == RCC_CFGR_SWS_PLL) && (__HAL_RCC_GET_PLL_OSCSOURCE() == RCC_
 1895              		.loc 1 1254 8 discriminator 1
 1896 002a 494B     		ldr	r3, .L134
 1897 002c 9B68     		ldr	r3, [r3, #8]
ARM GAS  C:\Users\ADMINI~1\AppData\Local\Temp\cc0pkmxZ.s 			page 57


 1898 002e 03F00C03 		and	r3, r3, #12
1253:d:/LiteOS_Lab/drivers/third_party/ST/STM32L4xx_HAL_Driver/Src\stm32l4xx_hal_rcc.c ****      ((__HAL_RCC_GET_SYSCLK_SOURCE() == RCC_CFGR_SWS_PLL) && (__HAL_RCC_GET_PLL_OSCSOURCE() == RCC_
 1899              		.loc 1 1253 58 discriminator 1
 1900 0032 0C2B     		cmp	r3, #12
 1901 0034 27D1     		bne	.L121
 1902              		.loc 1 1254 63
 1903 0036 464B     		ldr	r3, .L134
 1904 0038 DB68     		ldr	r3, [r3, #12]
 1905 003a 03F00303 		and	r3, r3, #3
 1906              		.loc 1 1254 59
 1907 003e 012B     		cmp	r3, #1
 1908 0040 21D1     		bne	.L121
 1909              	.L120:
1255:d:/LiteOS_Lab/drivers/third_party/ST/STM32L4xx_HAL_Driver/Src\stm32l4xx_hal_rcc.c ****   {
1256:d:/LiteOS_Lab/drivers/third_party/ST/STM32L4xx_HAL_Driver/Src\stm32l4xx_hal_rcc.c ****     /* MSI or PLL with MSI source used as system clock source */
1257:d:/LiteOS_Lab/drivers/third_party/ST/STM32L4xx_HAL_Driver/Src\stm32l4xx_hal_rcc.c **** 
1258:d:/LiteOS_Lab/drivers/third_party/ST/STM32L4xx_HAL_Driver/Src\stm32l4xx_hal_rcc.c ****     /* Get SYSCLK source */
1259:d:/LiteOS_Lab/drivers/third_party/ST/STM32L4xx_HAL_Driver/Src\stm32l4xx_hal_rcc.c ****     if(READ_BIT(RCC->CR, RCC_CR_MSIRGSEL) == RESET)
 1910              		.loc 1 1259 8
 1911 0042 434B     		ldr	r3, .L134
 1912 0044 1B68     		ldr	r3, [r3]
 1913 0046 03F00803 		and	r3, r3, #8
 1914              		.loc 1 1259 7
 1915 004a 002B     		cmp	r3, #0
 1916 004c 07D1     		bne	.L122
1260:d:/LiteOS_Lab/drivers/third_party/ST/STM32L4xx_HAL_Driver/Src\stm32l4xx_hal_rcc.c ****     { /* MSISRANGE from RCC_CSR applies */
1261:d:/LiteOS_Lab/drivers/third_party/ST/STM32L4xx_HAL_Driver/Src\stm32l4xx_hal_rcc.c ****       msirange = READ_BIT(RCC->CSR, RCC_CSR_MSISRANGE) >> RCC_CSR_MSISRANGE_Pos;
 1917              		.loc 1 1261 18
 1918 004e 404B     		ldr	r3, .L134
 1919 0050 D3F89430 		ldr	r3, [r3, #148]
 1920              		.loc 1 1261 56
 1921 0054 1B0A     		lsrs	r3, r3, #8
 1922              		.loc 1 1261 16
 1923 0056 03F00F03 		and	r3, r3, #15
 1924 005a 7B61     		str	r3, [r7, #20]
 1925 005c 05E0     		b	.L123
 1926              	.L122:
1262:d:/LiteOS_Lab/drivers/third_party/ST/STM32L4xx_HAL_Driver/Src\stm32l4xx_hal_rcc.c ****     }
1263:d:/LiteOS_Lab/drivers/third_party/ST/STM32L4xx_HAL_Driver/Src\stm32l4xx_hal_rcc.c ****     else
1264:d:/LiteOS_Lab/drivers/third_party/ST/STM32L4xx_HAL_Driver/Src\stm32l4xx_hal_rcc.c ****     { /* MSIRANGE from RCC_CR applies */
1265:d:/LiteOS_Lab/drivers/third_party/ST/STM32L4xx_HAL_Driver/Src\stm32l4xx_hal_rcc.c ****       msirange = READ_BIT(RCC->CR, RCC_CR_MSIRANGE) >> RCC_CR_MSIRANGE_Pos;
 1927              		.loc 1 1265 18
 1928 005e 3C4B     		ldr	r3, .L134
 1929 0060 1B68     		ldr	r3, [r3]
 1930              		.loc 1 1265 53
 1931 0062 1B09     		lsrs	r3, r3, #4
 1932              		.loc 1 1265 16
 1933 0064 03F00F03 		and	r3, r3, #15
 1934 0068 7B61     		str	r3, [r7, #20]
 1935              	.L123:
1266:d:/LiteOS_Lab/drivers/third_party/ST/STM32L4xx_HAL_Driver/Src\stm32l4xx_hal_rcc.c ****     }
1267:d:/LiteOS_Lab/drivers/third_party/ST/STM32L4xx_HAL_Driver/Src\stm32l4xx_hal_rcc.c ****     /*MSI frequency range in HZ*/
1268:d:/LiteOS_Lab/drivers/third_party/ST/STM32L4xx_HAL_Driver/Src\stm32l4xx_hal_rcc.c ****     msirange = MSIRangeTable[msirange];
 1936              		.loc 1 1268 14
 1937 006a 3A4A     		ldr	r2, .L134+4
 1938 006c 7B69     		ldr	r3, [r7, #20]
 1939 006e 52F82330 		ldr	r3, [r2, r3, lsl #2]
ARM GAS  C:\Users\ADMINI~1\AppData\Local\Temp\cc0pkmxZ.s 			page 58


 1940 0072 7B61     		str	r3, [r7, #20]
1269:d:/LiteOS_Lab/drivers/third_party/ST/STM32L4xx_HAL_Driver/Src\stm32l4xx_hal_rcc.c **** 
1270:d:/LiteOS_Lab/drivers/third_party/ST/STM32L4xx_HAL_Driver/Src\stm32l4xx_hal_rcc.c ****     if(__HAL_RCC_GET_SYSCLK_SOURCE() == RCC_CFGR_SWS_MSI)
 1941              		.loc 1 1270 8
 1942 0074 364B     		ldr	r3, .L134
 1943 0076 9B68     		ldr	r3, [r3, #8]
 1944 0078 03F00C03 		and	r3, r3, #12
 1945              		.loc 1 1270 7
 1946 007c 002B     		cmp	r3, #0
 1947 007e 13D1     		bne	.L125
1271:d:/LiteOS_Lab/drivers/third_party/ST/STM32L4xx_HAL_Driver/Src\stm32l4xx_hal_rcc.c ****     {
1272:d:/LiteOS_Lab/drivers/third_party/ST/STM32L4xx_HAL_Driver/Src\stm32l4xx_hal_rcc.c ****       /* MSI used as system clock source */
1273:d:/LiteOS_Lab/drivers/third_party/ST/STM32L4xx_HAL_Driver/Src\stm32l4xx_hal_rcc.c ****       sysclockfreq = msirange;
 1948              		.loc 1 1273 20
 1949 0080 7B69     		ldr	r3, [r7, #20]
 1950 0082 FB60     		str	r3, [r7, #12]
1270:d:/LiteOS_Lab/drivers/third_party/ST/STM32L4xx_HAL_Driver/Src\stm32l4xx_hal_rcc.c ****     {
 1951              		.loc 1 1270 7
 1952 0084 10E0     		b	.L125
 1953              	.L121:
1274:d:/LiteOS_Lab/drivers/third_party/ST/STM32L4xx_HAL_Driver/Src\stm32l4xx_hal_rcc.c ****     }
1275:d:/LiteOS_Lab/drivers/third_party/ST/STM32L4xx_HAL_Driver/Src\stm32l4xx_hal_rcc.c ****   }
1276:d:/LiteOS_Lab/drivers/third_party/ST/STM32L4xx_HAL_Driver/Src\stm32l4xx_hal_rcc.c ****   else if(__HAL_RCC_GET_SYSCLK_SOURCE() == RCC_CFGR_SWS_HSI)
 1954              		.loc 1 1276 11
 1955 0086 324B     		ldr	r3, .L134
 1956 0088 9B68     		ldr	r3, [r3, #8]
 1957 008a 03F00C03 		and	r3, r3, #12
 1958              		.loc 1 1276 10
 1959 008e 042B     		cmp	r3, #4
 1960 0090 02D1     		bne	.L126
1277:d:/LiteOS_Lab/drivers/third_party/ST/STM32L4xx_HAL_Driver/Src\stm32l4xx_hal_rcc.c ****   {
1278:d:/LiteOS_Lab/drivers/third_party/ST/STM32L4xx_HAL_Driver/Src\stm32l4xx_hal_rcc.c ****     /* HSI used as system clock source */
1279:d:/LiteOS_Lab/drivers/third_party/ST/STM32L4xx_HAL_Driver/Src\stm32l4xx_hal_rcc.c ****     sysclockfreq = HSI_VALUE;
 1961              		.loc 1 1279 18
 1962 0092 314B     		ldr	r3, .L134+8
 1963 0094 FB60     		str	r3, [r7, #12]
 1964 0096 07E0     		b	.L125
 1965              	.L126:
1280:d:/LiteOS_Lab/drivers/third_party/ST/STM32L4xx_HAL_Driver/Src\stm32l4xx_hal_rcc.c ****   }
1281:d:/LiteOS_Lab/drivers/third_party/ST/STM32L4xx_HAL_Driver/Src\stm32l4xx_hal_rcc.c ****   else if(__HAL_RCC_GET_SYSCLK_SOURCE() == RCC_CFGR_SWS_HSE)
 1966              		.loc 1 1281 11
 1967 0098 2D4B     		ldr	r3, .L134
 1968 009a 9B68     		ldr	r3, [r3, #8]
 1969 009c 03F00C03 		and	r3, r3, #12
 1970              		.loc 1 1281 10
 1971 00a0 082B     		cmp	r3, #8
 1972 00a2 01D1     		bne	.L125
1282:d:/LiteOS_Lab/drivers/third_party/ST/STM32L4xx_HAL_Driver/Src\stm32l4xx_hal_rcc.c ****   {
1283:d:/LiteOS_Lab/drivers/third_party/ST/STM32L4xx_HAL_Driver/Src\stm32l4xx_hal_rcc.c ****     /* HSE used as system clock source */
1284:d:/LiteOS_Lab/drivers/third_party/ST/STM32L4xx_HAL_Driver/Src\stm32l4xx_hal_rcc.c ****     sysclockfreq = HSE_VALUE;
 1973              		.loc 1 1284 18
 1974 00a4 2D4B     		ldr	r3, .L134+12
 1975 00a6 FB60     		str	r3, [r7, #12]
 1976              	.L125:
1285:d:/LiteOS_Lab/drivers/third_party/ST/STM32L4xx_HAL_Driver/Src\stm32l4xx_hal_rcc.c ****   }
1286:d:/LiteOS_Lab/drivers/third_party/ST/STM32L4xx_HAL_Driver/Src\stm32l4xx_hal_rcc.c **** 
1287:d:/LiteOS_Lab/drivers/third_party/ST/STM32L4xx_HAL_Driver/Src\stm32l4xx_hal_rcc.c ****   if(__HAL_RCC_GET_SYSCLK_SOURCE() == RCC_CFGR_SWS_PLL)
ARM GAS  C:\Users\ADMINI~1\AppData\Local\Temp\cc0pkmxZ.s 			page 59


 1977              		.loc 1 1287 6
 1978 00a8 294B     		ldr	r3, .L134
 1979 00aa 9B68     		ldr	r3, [r3, #8]
 1980 00ac 03F00C03 		and	r3, r3, #12
 1981              		.loc 1 1287 5
 1982 00b0 0C2B     		cmp	r3, #12
 1983 00b2 46D1     		bne	.L127
1288:d:/LiteOS_Lab/drivers/third_party/ST/STM32L4xx_HAL_Driver/Src\stm32l4xx_hal_rcc.c ****   {
1289:d:/LiteOS_Lab/drivers/third_party/ST/STM32L4xx_HAL_Driver/Src\stm32l4xx_hal_rcc.c ****     /* PLL used as system clock  source */
1290:d:/LiteOS_Lab/drivers/third_party/ST/STM32L4xx_HAL_Driver/Src\stm32l4xx_hal_rcc.c **** 
1291:d:/LiteOS_Lab/drivers/third_party/ST/STM32L4xx_HAL_Driver/Src\stm32l4xx_hal_rcc.c ****     /* PLL_VCO = (HSE_VALUE or HSI_VALUE or MSI_VALUE/ PLLM) * PLLN
1292:d:/LiteOS_Lab/drivers/third_party/ST/STM32L4xx_HAL_Driver/Src\stm32l4xx_hal_rcc.c ****     SYSCLK = PLL_VCO / PLLR
1293:d:/LiteOS_Lab/drivers/third_party/ST/STM32L4xx_HAL_Driver/Src\stm32l4xx_hal_rcc.c ****     */
1294:d:/LiteOS_Lab/drivers/third_party/ST/STM32L4xx_HAL_Driver/Src\stm32l4xx_hal_rcc.c ****     pllsource = READ_BIT(RCC->PLLCFGR, RCC_PLLCFGR_PLLSRC);
 1984              		.loc 1 1294 17
 1985 00b4 264B     		ldr	r3, .L134
 1986 00b6 DB68     		ldr	r3, [r3, #12]
 1987              		.loc 1 1294 15
 1988 00b8 03F00303 		and	r3, r3, #3
 1989 00bc BB60     		str	r3, [r7, #8]
1295:d:/LiteOS_Lab/drivers/third_party/ST/STM32L4xx_HAL_Driver/Src\stm32l4xx_hal_rcc.c ****     pllm = (READ_BIT(RCC->PLLCFGR, RCC_PLLCFGR_PLLM) >> RCC_PLLCFGR_PLLM_Pos) + 1U ;
 1990              		.loc 1 1295 13
 1991 00be 244B     		ldr	r3, .L134
 1992 00c0 DB68     		ldr	r3, [r3, #12]
 1993              		.loc 1 1295 54
 1994 00c2 1B09     		lsrs	r3, r3, #4
 1995 00c4 03F00703 		and	r3, r3, #7
 1996              		.loc 1 1295 10
 1997 00c8 0133     		adds	r3, r3, #1
 1998 00ca 3B60     		str	r3, [r7]
1296:d:/LiteOS_Lab/drivers/third_party/ST/STM32L4xx_HAL_Driver/Src\stm32l4xx_hal_rcc.c **** 
1297:d:/LiteOS_Lab/drivers/third_party/ST/STM32L4xx_HAL_Driver/Src\stm32l4xx_hal_rcc.c ****     switch (pllsource)
 1999              		.loc 1 1297 5
 2000 00cc BB68     		ldr	r3, [r7, #8]
 2001 00ce 022B     		cmp	r3, #2
 2002 00d0 03D0     		beq	.L128
 2003 00d2 BB68     		ldr	r3, [r7, #8]
 2004 00d4 032B     		cmp	r3, #3
 2005 00d6 0DD0     		beq	.L129
 2006 00d8 19E0     		b	.L133
 2007              	.L128:
1298:d:/LiteOS_Lab/drivers/third_party/ST/STM32L4xx_HAL_Driver/Src\stm32l4xx_hal_rcc.c ****     {
1299:d:/LiteOS_Lab/drivers/third_party/ST/STM32L4xx_HAL_Driver/Src\stm32l4xx_hal_rcc.c ****     case RCC_PLLSOURCE_HSI:  /* HSI used as PLL clock source */
1300:d:/LiteOS_Lab/drivers/third_party/ST/STM32L4xx_HAL_Driver/Src\stm32l4xx_hal_rcc.c ****       pllvco = (HSI_VALUE / pllm) * (READ_BIT(RCC->PLLCFGR, RCC_PLLCFGR_PLLN) >> RCC_PLLCFGR_PLLN_P
 2008              		.loc 1 1300 27
 2009 00da 1F4A     		ldr	r2, .L134+8
 2010 00dc 3B68     		ldr	r3, [r7]
 2011 00de B2FBF3F3 		udiv	r3, r2, r3
 2012              		.loc 1 1300 38
 2013 00e2 1B4A     		ldr	r2, .L134
 2014 00e4 D268     		ldr	r2, [r2, #12]
 2015              		.loc 1 1300 79
 2016 00e6 120A     		lsrs	r2, r2, #8
 2017 00e8 02F07F02 		and	r2, r2, #127
 2018              		.loc 1 1300 14
 2019 00ec 02FB03F3 		mul	r3, r2, r3
 2020 00f0 3B61     		str	r3, [r7, #16]
ARM GAS  C:\Users\ADMINI~1\AppData\Local\Temp\cc0pkmxZ.s 			page 60


1301:d:/LiteOS_Lab/drivers/third_party/ST/STM32L4xx_HAL_Driver/Src\stm32l4xx_hal_rcc.c ****       break;
 2021              		.loc 1 1301 7
