ARM GAS  C:\Users\ADMINI~1\AppData\Local\Temp\cccB3BZw.s 			page 1


   1              		.cpu cortex-m4
   2              		.eabi_attribute 27, 1
   3              		.eabi_attribute 28, 1
   4              		.eabi_attribute 20, 1
   5              		.eabi_attribute 21, 1
   6              		.eabi_attribute 23, 3
   7              		.eabi_attribute 24, 1
   8              		.eabi_attribute 25, 1
   9              		.eabi_attribute 26, 1
  10              		.eabi_attribute 30, 6
  11              		.eabi_attribute 34, 1
  12              		.eabi_attribute 18, 4
  13              		.file	"stm32l4xx_hal_tim.c"
  14              		.text
  15              	.Ltext0:
  16              		.cfi_sections	.debug_frame
  17              		.section	.text.HAL_TIM_Base_Init,"ax",%progbits
  18              		.align	1
  19              		.global	HAL_TIM_Base_Init
  20              		.arch armv7e-m
  21              		.syntax unified
  22              		.thumb
  23              		.thumb_func
  24              		.fpu fpv4-sp-d16
  26              	HAL_TIM_Base_Init:
  27              	.LFB287:
  28              		.file 1 "d:/LiteOS_Lab/drivers/third_party/ST/STM32L4xx_HAL_Driver/Src/stm32l4xx_hal_tim.c"
   1:d:/LiteOS_Lab/drivers/third_party/ST/STM32L4xx_HAL_Driver/Src\stm32l4xx_hal_tim.c **** /**
   2:d:/LiteOS_Lab/drivers/third_party/ST/STM32L4xx_HAL_Driver/Src\stm32l4xx_hal_tim.c ****   ******************************************************************************
   3:d:/LiteOS_Lab/drivers/third_party/ST/STM32L4xx_HAL_Driver/Src\stm32l4xx_hal_tim.c ****   * @file    stm32l4xx_hal_tim.c
   4:d:/LiteOS_Lab/drivers/third_party/ST/STM32L4xx_HAL_Driver/Src\stm32l4xx_hal_tim.c ****   * @author  MCD Application Team
   5:d:/LiteOS_Lab/drivers/third_party/ST/STM32L4xx_HAL_Driver/Src\stm32l4xx_hal_tim.c ****   * @brief   TIM HAL module driver.
   6:d:/LiteOS_Lab/drivers/third_party/ST/STM32L4xx_HAL_Driver/Src\stm32l4xx_hal_tim.c ****   *          This file provides firmware functions to manage the following
   7:d:/LiteOS_Lab/drivers/third_party/ST/STM32L4xx_HAL_Driver/Src\stm32l4xx_hal_tim.c ****   *          functionalities of the Timer (TIM) peripheral:
   8:d:/LiteOS_Lab/drivers/third_party/ST/STM32L4xx_HAL_Driver/Src\stm32l4xx_hal_tim.c ****   *           + Time Base Initialization
   9:d:/LiteOS_Lab/drivers/third_party/ST/STM32L4xx_HAL_Driver/Src\stm32l4xx_hal_tim.c ****   *           + Time Base Start
  10:d:/LiteOS_Lab/drivers/third_party/ST/STM32L4xx_HAL_Driver/Src\stm32l4xx_hal_tim.c ****   *           + Time Base Start Interruption
  11:d:/LiteOS_Lab/drivers/third_party/ST/STM32L4xx_HAL_Driver/Src\stm32l4xx_hal_tim.c ****   *           + Time Base Start DMA
  12:d:/LiteOS_Lab/drivers/third_party/ST/STM32L4xx_HAL_Driver/Src\stm32l4xx_hal_tim.c ****   *           + Time Output Compare/PWM Initialization
  13:d:/LiteOS_Lab/drivers/third_party/ST/STM32L4xx_HAL_Driver/Src\stm32l4xx_hal_tim.c ****   *           + Time Output Compare/PWM Channel Configuration
  14:d:/LiteOS_Lab/drivers/third_party/ST/STM32L4xx_HAL_Driver/Src\stm32l4xx_hal_tim.c ****   *           + Time Output Compare/PWM  Start
  15:d:/LiteOS_Lab/drivers/third_party/ST/STM32L4xx_HAL_Driver/Src\stm32l4xx_hal_tim.c ****   *           + Time Output Compare/PWM  Start Interruption
  16:d:/LiteOS_Lab/drivers/third_party/ST/STM32L4xx_HAL_Driver/Src\stm32l4xx_hal_tim.c ****   *           + Time Output Compare/PWM Start DMA
  17:d:/LiteOS_Lab/drivers/third_party/ST/STM32L4xx_HAL_Driver/Src\stm32l4xx_hal_tim.c ****   *           + Time Input Capture Initialization
  18:d:/LiteOS_Lab/drivers/third_party/ST/STM32L4xx_HAL_Driver/Src\stm32l4xx_hal_tim.c ****   *           + Time Input Capture Channel Configuration
  19:d:/LiteOS_Lab/drivers/third_party/ST/STM32L4xx_HAL_Driver/Src\stm32l4xx_hal_tim.c ****   *           + Time Input Capture Start
  20:d:/LiteOS_Lab/drivers/third_party/ST/STM32L4xx_HAL_Driver/Src\stm32l4xx_hal_tim.c ****   *           + Time Input Capture Start Interruption
  21:d:/LiteOS_Lab/drivers/third_party/ST/STM32L4xx_HAL_Driver/Src\stm32l4xx_hal_tim.c ****   *           + Time Input Capture Start DMA
  22:d:/LiteOS_Lab/drivers/third_party/ST/STM32L4xx_HAL_Driver/Src\stm32l4xx_hal_tim.c ****   *           + Time One Pulse Initialization
  23:d:/LiteOS_Lab/drivers/third_party/ST/STM32L4xx_HAL_Driver/Src\stm32l4xx_hal_tim.c ****   *           + Time One Pulse Channel Configuration
  24:d:/LiteOS_Lab/drivers/third_party/ST/STM32L4xx_HAL_Driver/Src\stm32l4xx_hal_tim.c ****   *           + Time One Pulse Start
  25:d:/LiteOS_Lab/drivers/third_party/ST/STM32L4xx_HAL_Driver/Src\stm32l4xx_hal_tim.c ****   *           + Time Encoder Interface Initialization
  26:d:/LiteOS_Lab/drivers/third_party/ST/STM32L4xx_HAL_Driver/Src\stm32l4xx_hal_tim.c ****   *           + Time Encoder Interface Start
  27:d:/LiteOS_Lab/drivers/third_party/ST/STM32L4xx_HAL_Driver/Src\stm32l4xx_hal_tim.c ****   *           + Time Encoder Interface Start Interruption
  28:d:/LiteOS_Lab/drivers/third_party/ST/STM32L4xx_HAL_Driver/Src\stm32l4xx_hal_tim.c ****   *           + Time Encoder Interface Start DMA
  29:d:/LiteOS_Lab/drivers/third_party/ST/STM32L4xx_HAL_Driver/Src\stm32l4xx_hal_tim.c ****   *           + Commutation Event configuration with Interruption and DMA
  30:d:/LiteOS_Lab/drivers/third_party/ST/STM32L4xx_HAL_Driver/Src\stm32l4xx_hal_tim.c ****   *           + Time OCRef clear configuration
ARM GAS  C:\Users\ADMINI~1\AppData\Local\Temp\cccB3BZw.s 			page 2


  31:d:/LiteOS_Lab/drivers/third_party/ST/STM32L4xx_HAL_Driver/Src\stm32l4xx_hal_tim.c ****   *           + Time External Clock configuration
  32:d:/LiteOS_Lab/drivers/third_party/ST/STM32L4xx_HAL_Driver/Src\stm32l4xx_hal_tim.c ****   @verbatim
  33:d:/LiteOS_Lab/drivers/third_party/ST/STM32L4xx_HAL_Driver/Src\stm32l4xx_hal_tim.c ****   ==============================================================================
  34:d:/LiteOS_Lab/drivers/third_party/ST/STM32L4xx_HAL_Driver/Src\stm32l4xx_hal_tim.c ****                       ##### TIMER Generic features #####
  35:d:/LiteOS_Lab/drivers/third_party/ST/STM32L4xx_HAL_Driver/Src\stm32l4xx_hal_tim.c ****   ==============================================================================
  36:d:/LiteOS_Lab/drivers/third_party/ST/STM32L4xx_HAL_Driver/Src\stm32l4xx_hal_tim.c ****   [..] The Timer features include:
  37:d:/LiteOS_Lab/drivers/third_party/ST/STM32L4xx_HAL_Driver/Src\stm32l4xx_hal_tim.c ****        (#) 16-bit up, down, up/down auto-reload counter.
  38:d:/LiteOS_Lab/drivers/third_party/ST/STM32L4xx_HAL_Driver/Src\stm32l4xx_hal_tim.c ****        (#) 16-bit programmable prescaler allowing dividing (also on the fly) the
  39:d:/LiteOS_Lab/drivers/third_party/ST/STM32L4xx_HAL_Driver/Src\stm32l4xx_hal_tim.c ****            counter clock frequency either by any factor between 1 and 65536.
  40:d:/LiteOS_Lab/drivers/third_party/ST/STM32L4xx_HAL_Driver/Src\stm32l4xx_hal_tim.c ****        (#) Up to 4 independent channels for:
  41:d:/LiteOS_Lab/drivers/third_party/ST/STM32L4xx_HAL_Driver/Src\stm32l4xx_hal_tim.c ****            (++) Input Capture
  42:d:/LiteOS_Lab/drivers/third_party/ST/STM32L4xx_HAL_Driver/Src\stm32l4xx_hal_tim.c ****            (++) Output Compare
  43:d:/LiteOS_Lab/drivers/third_party/ST/STM32L4xx_HAL_Driver/Src\stm32l4xx_hal_tim.c ****            (++) PWM generation (Edge and Center-aligned Mode)
  44:d:/LiteOS_Lab/drivers/third_party/ST/STM32L4xx_HAL_Driver/Src\stm32l4xx_hal_tim.c ****            (++) One-pulse mode output
  45:d:/LiteOS_Lab/drivers/third_party/ST/STM32L4xx_HAL_Driver/Src\stm32l4xx_hal_tim.c **** 
  46:d:/LiteOS_Lab/drivers/third_party/ST/STM32L4xx_HAL_Driver/Src\stm32l4xx_hal_tim.c ****             ##### How to use this driver #####
  47:d:/LiteOS_Lab/drivers/third_party/ST/STM32L4xx_HAL_Driver/Src\stm32l4xx_hal_tim.c ****   ==============================================================================
  48:d:/LiteOS_Lab/drivers/third_party/ST/STM32L4xx_HAL_Driver/Src\stm32l4xx_hal_tim.c ****     [..]
  49:d:/LiteOS_Lab/drivers/third_party/ST/STM32L4xx_HAL_Driver/Src\stm32l4xx_hal_tim.c ****      (#) Initialize the TIM low level resources by implementing the following functions
  50:d:/LiteOS_Lab/drivers/third_party/ST/STM32L4xx_HAL_Driver/Src\stm32l4xx_hal_tim.c ****          depending on the selected feature:
  51:d:/LiteOS_Lab/drivers/third_party/ST/STM32L4xx_HAL_Driver/Src\stm32l4xx_hal_tim.c ****            (++) Time Base : HAL_TIM_Base_MspInit()
  52:d:/LiteOS_Lab/drivers/third_party/ST/STM32L4xx_HAL_Driver/Src\stm32l4xx_hal_tim.c ****            (++) Input Capture : HAL_TIM_IC_MspInit()
  53:d:/LiteOS_Lab/drivers/third_party/ST/STM32L4xx_HAL_Driver/Src\stm32l4xx_hal_tim.c ****            (++) Output Compare : HAL_TIM_OC_MspInit()
  54:d:/LiteOS_Lab/drivers/third_party/ST/STM32L4xx_HAL_Driver/Src\stm32l4xx_hal_tim.c ****            (++) PWM generation : HAL_TIM_PWM_MspInit()
  55:d:/LiteOS_Lab/drivers/third_party/ST/STM32L4xx_HAL_Driver/Src\stm32l4xx_hal_tim.c ****            (++) One-pulse mode output : HAL_TIM_OnePulse_MspInit()
  56:d:/LiteOS_Lab/drivers/third_party/ST/STM32L4xx_HAL_Driver/Src\stm32l4xx_hal_tim.c ****            (++) Encoder mode output : HAL_TIM_Encoder_MspInit()
  57:d:/LiteOS_Lab/drivers/third_party/ST/STM32L4xx_HAL_Driver/Src\stm32l4xx_hal_tim.c **** 
  58:d:/LiteOS_Lab/drivers/third_party/ST/STM32L4xx_HAL_Driver/Src\stm32l4xx_hal_tim.c ****      (#) Initialize the TIM low level resources :
  59:d:/LiteOS_Lab/drivers/third_party/ST/STM32L4xx_HAL_Driver/Src\stm32l4xx_hal_tim.c ****         (##) Enable the TIM interface clock using __HAL_RCC_TIMx_CLK_ENABLE();
  60:d:/LiteOS_Lab/drivers/third_party/ST/STM32L4xx_HAL_Driver/Src\stm32l4xx_hal_tim.c ****         (##) TIM pins configuration
  61:d:/LiteOS_Lab/drivers/third_party/ST/STM32L4xx_HAL_Driver/Src\stm32l4xx_hal_tim.c ****             (+++) Enable the clock for the TIM GPIOs using the following function:
  62:d:/LiteOS_Lab/drivers/third_party/ST/STM32L4xx_HAL_Driver/Src\stm32l4xx_hal_tim.c ****              __HAL_RCC_GPIOx_CLK_ENABLE();
  63:d:/LiteOS_Lab/drivers/third_party/ST/STM32L4xx_HAL_Driver/Src\stm32l4xx_hal_tim.c ****             (+++) Configure these TIM pins in Alternate function mode using HAL_GPIO_Init();
  64:d:/LiteOS_Lab/drivers/third_party/ST/STM32L4xx_HAL_Driver/Src\stm32l4xx_hal_tim.c **** 
  65:d:/LiteOS_Lab/drivers/third_party/ST/STM32L4xx_HAL_Driver/Src\stm32l4xx_hal_tim.c ****      (#) The external Clock can be configured, if needed (the default clock is the
  66:d:/LiteOS_Lab/drivers/third_party/ST/STM32L4xx_HAL_Driver/Src\stm32l4xx_hal_tim.c ****          internal clock from the APBx), using the following function:
  67:d:/LiteOS_Lab/drivers/third_party/ST/STM32L4xx_HAL_Driver/Src\stm32l4xx_hal_tim.c ****          HAL_TIM_ConfigClockSource, the clock configuration should be done before
  68:d:/LiteOS_Lab/drivers/third_party/ST/STM32L4xx_HAL_Driver/Src\stm32l4xx_hal_tim.c ****          any start function.
  69:d:/LiteOS_Lab/drivers/third_party/ST/STM32L4xx_HAL_Driver/Src\stm32l4xx_hal_tim.c **** 
  70:d:/LiteOS_Lab/drivers/third_party/ST/STM32L4xx_HAL_Driver/Src\stm32l4xx_hal_tim.c ****      (#) Configure the TIM in the desired functioning mode using one of the
  71:d:/LiteOS_Lab/drivers/third_party/ST/STM32L4xx_HAL_Driver/Src\stm32l4xx_hal_tim.c ****        Initialization function of this driver:
  72:d:/LiteOS_Lab/drivers/third_party/ST/STM32L4xx_HAL_Driver/Src\stm32l4xx_hal_tim.c ****        (++) HAL_TIM_Base_Init: to use the Timer to generate a simple time base
  73:d:/LiteOS_Lab/drivers/third_party/ST/STM32L4xx_HAL_Driver/Src\stm32l4xx_hal_tim.c ****        (++) HAL_TIM_OC_Init and HAL_TIM_OC_ConfigChannel: to use the Timer to generate an
  74:d:/LiteOS_Lab/drivers/third_party/ST/STM32L4xx_HAL_Driver/Src\stm32l4xx_hal_tim.c ****             Output Compare signal.
  75:d:/LiteOS_Lab/drivers/third_party/ST/STM32L4xx_HAL_Driver/Src\stm32l4xx_hal_tim.c ****        (++) HAL_TIM_PWM_Init and HAL_TIM_PWM_ConfigChannel: to use the Timer to generate a
  76:d:/LiteOS_Lab/drivers/third_party/ST/STM32L4xx_HAL_Driver/Src\stm32l4xx_hal_tim.c ****             PWM signal.
  77:d:/LiteOS_Lab/drivers/third_party/ST/STM32L4xx_HAL_Driver/Src\stm32l4xx_hal_tim.c ****        (++) HAL_TIM_IC_Init and HAL_TIM_IC_ConfigChannel: to use the Timer to measure an
  78:d:/LiteOS_Lab/drivers/third_party/ST/STM32L4xx_HAL_Driver/Src\stm32l4xx_hal_tim.c ****             external signal.
  79:d:/LiteOS_Lab/drivers/third_party/ST/STM32L4xx_HAL_Driver/Src\stm32l4xx_hal_tim.c ****          (++) HAL_TIM_OnePulse_Init and HAL_TIM_OnePulse_ConfigChannel: to use the Timer
  80:d:/LiteOS_Lab/drivers/third_party/ST/STM32L4xx_HAL_Driver/Src\stm32l4xx_hal_tim.c ****               in One Pulse Mode.
  81:d:/LiteOS_Lab/drivers/third_party/ST/STM32L4xx_HAL_Driver/Src\stm32l4xx_hal_tim.c ****        (++) HAL_TIM_Encoder_Init: to use the Timer Encoder Interface.
  82:d:/LiteOS_Lab/drivers/third_party/ST/STM32L4xx_HAL_Driver/Src\stm32l4xx_hal_tim.c **** 
  83:d:/LiteOS_Lab/drivers/third_party/ST/STM32L4xx_HAL_Driver/Src\stm32l4xx_hal_tim.c ****      (#) Activate the TIM peripheral using one of the start functions depending from the feature us
  84:d:/LiteOS_Lab/drivers/third_party/ST/STM32L4xx_HAL_Driver/Src\stm32l4xx_hal_tim.c ****            (++) Time Base : HAL_TIM_Base_Start(), HAL_TIM_Base_Start_DMA(), HAL_TIM_Base_Start_IT()
  85:d:/LiteOS_Lab/drivers/third_party/ST/STM32L4xx_HAL_Driver/Src\stm32l4xx_hal_tim.c ****            (++) Input Capture :  HAL_TIM_IC_Start(), HAL_TIM_IC_Start_DMA(), HAL_TIM_IC_Start_IT()
  86:d:/LiteOS_Lab/drivers/third_party/ST/STM32L4xx_HAL_Driver/Src\stm32l4xx_hal_tim.c ****            (++) Output Compare : HAL_TIM_OC_Start(), HAL_TIM_OC_Start_DMA(), HAL_TIM_OC_Start_IT()
  87:d:/LiteOS_Lab/drivers/third_party/ST/STM32L4xx_HAL_Driver/Src\stm32l4xx_hal_tim.c ****            (++) PWM generation : HAL_TIM_PWM_Start(), HAL_TIM_PWM_Start_DMA(), HAL_TIM_PWM_Start_IT
ARM GAS  C:\Users\ADMINI~1\AppData\Local\Temp\cccB3BZw.s 			page 3


  88:d:/LiteOS_Lab/drivers/third_party/ST/STM32L4xx_HAL_Driver/Src\stm32l4xx_hal_tim.c ****            (++) One-pulse mode output : HAL_TIM_OnePulse_Start(), HAL_TIM_OnePulse_Start_IT()
  89:d:/LiteOS_Lab/drivers/third_party/ST/STM32L4xx_HAL_Driver/Src\stm32l4xx_hal_tim.c ****            (++) Encoder mode output : HAL_TIM_Encoder_Start(), HAL_TIM_Encoder_Start_DMA(), HAL_TIM
  90:d:/LiteOS_Lab/drivers/third_party/ST/STM32L4xx_HAL_Driver/Src\stm32l4xx_hal_tim.c **** 
  91:d:/LiteOS_Lab/drivers/third_party/ST/STM32L4xx_HAL_Driver/Src\stm32l4xx_hal_tim.c ****      (#) The DMA Burst is managed with the two following functions:
  92:d:/LiteOS_Lab/drivers/third_party/ST/STM32L4xx_HAL_Driver/Src\stm32l4xx_hal_tim.c ****          HAL_TIM_DMABurst_WriteStart()
  93:d:/LiteOS_Lab/drivers/third_party/ST/STM32L4xx_HAL_Driver/Src\stm32l4xx_hal_tim.c ****          HAL_TIM_DMABurst_ReadStart()
  94:d:/LiteOS_Lab/drivers/third_party/ST/STM32L4xx_HAL_Driver/Src\stm32l4xx_hal_tim.c **** 
  95:d:/LiteOS_Lab/drivers/third_party/ST/STM32L4xx_HAL_Driver/Src\stm32l4xx_hal_tim.c ****   @endverbatim
  96:d:/LiteOS_Lab/drivers/third_party/ST/STM32L4xx_HAL_Driver/Src\stm32l4xx_hal_tim.c ****   ******************************************************************************
  97:d:/LiteOS_Lab/drivers/third_party/ST/STM32L4xx_HAL_Driver/Src\stm32l4xx_hal_tim.c ****   * @attention
  98:d:/LiteOS_Lab/drivers/third_party/ST/STM32L4xx_HAL_Driver/Src\stm32l4xx_hal_tim.c ****   *
  99:d:/LiteOS_Lab/drivers/third_party/ST/STM32L4xx_HAL_Driver/Src\stm32l4xx_hal_tim.c ****   * <h2><center>&copy; COPYRIGHT(c) 2017 STMicroelectronics</center></h2>
 100:d:/LiteOS_Lab/drivers/third_party/ST/STM32L4xx_HAL_Driver/Src\stm32l4xx_hal_tim.c ****   *
 101:d:/LiteOS_Lab/drivers/third_party/ST/STM32L4xx_HAL_Driver/Src\stm32l4xx_hal_tim.c ****   * Redistribution and use in source and binary forms, with or without modification,
 102:d:/LiteOS_Lab/drivers/third_party/ST/STM32L4xx_HAL_Driver/Src\stm32l4xx_hal_tim.c ****   * are permitted provided that the following conditions are met:
 103:d:/LiteOS_Lab/drivers/third_party/ST/STM32L4xx_HAL_Driver/Src\stm32l4xx_hal_tim.c ****   *   1. Redistributions of source code must retain the above copyright notice,
 104:d:/LiteOS_Lab/drivers/third_party/ST/STM32L4xx_HAL_Driver/Src\stm32l4xx_hal_tim.c ****   *      this list of conditions and the following disclaimer.
 105:d:/LiteOS_Lab/drivers/third_party/ST/STM32L4xx_HAL_Driver/Src\stm32l4xx_hal_tim.c ****   *   2. Redistributions in binary form must reproduce the above copyright notice,
 106:d:/LiteOS_Lab/drivers/third_party/ST/STM32L4xx_HAL_Driver/Src\stm32l4xx_hal_tim.c ****   *      this list of conditions and the following disclaimer in the documentation
 107:d:/LiteOS_Lab/drivers/third_party/ST/STM32L4xx_HAL_Driver/Src\stm32l4xx_hal_tim.c ****   *      and/or other materials provided with the distribution.
 108:d:/LiteOS_Lab/drivers/third_party/ST/STM32L4xx_HAL_Driver/Src\stm32l4xx_hal_tim.c ****   *   3. Neither the name of STMicroelectronics nor the names of its contributors
 109:d:/LiteOS_Lab/drivers/third_party/ST/STM32L4xx_HAL_Driver/Src\stm32l4xx_hal_tim.c ****   *      may be used to endorse or promote products derived from this software
 110:d:/LiteOS_Lab/drivers/third_party/ST/STM32L4xx_HAL_Driver/Src\stm32l4xx_hal_tim.c ****   *      without specific prior written permission.
 111:d:/LiteOS_Lab/drivers/third_party/ST/STM32L4xx_HAL_Driver/Src\stm32l4xx_hal_tim.c ****   *
 112:d:/LiteOS_Lab/drivers/third_party/ST/STM32L4xx_HAL_Driver/Src\stm32l4xx_hal_tim.c ****   * THIS SOFTWARE IS PROVIDED BY THE COPYRIGHT HOLDERS AND CONTRIBUTORS "AS IS"
 113:d:/LiteOS_Lab/drivers/third_party/ST/STM32L4xx_HAL_Driver/Src\stm32l4xx_hal_tim.c ****   * AND ANY EXPRESS OR IMPLIED WARRANTIES, INCLUDING, BUT NOT LIMITED TO, THE
 114:d:/LiteOS_Lab/drivers/third_party/ST/STM32L4xx_HAL_Driver/Src\stm32l4xx_hal_tim.c ****   * IMPLIED WARRANTIES OF MERCHANTABILITY AND FITNESS FOR A PARTICULAR PURPOSE ARE
 115:d:/LiteOS_Lab/drivers/third_party/ST/STM32L4xx_HAL_Driver/Src\stm32l4xx_hal_tim.c ****   * DISCLAIMED. IN NO EVENT SHALL THE COPYRIGHT HOLDER OR CONTRIBUTORS BE LIABLE
 116:d:/LiteOS_Lab/drivers/third_party/ST/STM32L4xx_HAL_Driver/Src\stm32l4xx_hal_tim.c ****   * FOR ANY DIRECT, INDIRECT, INCIDENTAL, SPECIAL, EXEMPLARY, OR CONSEQUENTIAL
 117:d:/LiteOS_Lab/drivers/third_party/ST/STM32L4xx_HAL_Driver/Src\stm32l4xx_hal_tim.c ****   * DAMAGES (INCLUDING, BUT NOT LIMITED TO, PROCUREMENT OF SUBSTITUTE GOODS OR
 118:d:/LiteOS_Lab/drivers/third_party/ST/STM32L4xx_HAL_Driver/Src\stm32l4xx_hal_tim.c ****   * SERVICES; LOSS OF USE, DATA, OR PROFITS; OR BUSINESS INTERRUPTION) HOWEVER
 119:d:/LiteOS_Lab/drivers/third_party/ST/STM32L4xx_HAL_Driver/Src\stm32l4xx_hal_tim.c ****   * CAUSED AND ON ANY THEORY OF LIABILITY, WHETHER IN CONTRACT, STRICT LIABILITY,
 120:d:/LiteOS_Lab/drivers/third_party/ST/STM32L4xx_HAL_Driver/Src\stm32l4xx_hal_tim.c ****   * OR TORT (INCLUDING NEGLIGENCE OR OTHERWISE) ARISING IN ANY WAY OUT OF THE USE
 121:d:/LiteOS_Lab/drivers/third_party/ST/STM32L4xx_HAL_Driver/Src\stm32l4xx_hal_tim.c ****   * OF THIS SOFTWARE, EVEN IF ADVISED OF THE POSSIBILITY OF SUCH DAMAGE.
 122:d:/LiteOS_Lab/drivers/third_party/ST/STM32L4xx_HAL_Driver/Src\stm32l4xx_hal_tim.c ****   *
 123:d:/LiteOS_Lab/drivers/third_party/ST/STM32L4xx_HAL_Driver/Src\stm32l4xx_hal_tim.c ****   ******************************************************************************
 124:d:/LiteOS_Lab/drivers/third_party/ST/STM32L4xx_HAL_Driver/Src\stm32l4xx_hal_tim.c ****   */
 125:d:/LiteOS_Lab/drivers/third_party/ST/STM32L4xx_HAL_Driver/Src\stm32l4xx_hal_tim.c **** 
 126:d:/LiteOS_Lab/drivers/third_party/ST/STM32L4xx_HAL_Driver/Src\stm32l4xx_hal_tim.c **** /* Includes ------------------------------------------------------------------*/
 127:d:/LiteOS_Lab/drivers/third_party/ST/STM32L4xx_HAL_Driver/Src\stm32l4xx_hal_tim.c **** #include "stm32l4xx_hal.h"
 128:d:/LiteOS_Lab/drivers/third_party/ST/STM32L4xx_HAL_Driver/Src\stm32l4xx_hal_tim.c **** 
 129:d:/LiteOS_Lab/drivers/third_party/ST/STM32L4xx_HAL_Driver/Src\stm32l4xx_hal_tim.c **** /** @addtogroup STM32L4xx_HAL_Driver
 130:d:/LiteOS_Lab/drivers/third_party/ST/STM32L4xx_HAL_Driver/Src\stm32l4xx_hal_tim.c ****   * @{
 131:d:/LiteOS_Lab/drivers/third_party/ST/STM32L4xx_HAL_Driver/Src\stm32l4xx_hal_tim.c ****   */
 132:d:/LiteOS_Lab/drivers/third_party/ST/STM32L4xx_HAL_Driver/Src\stm32l4xx_hal_tim.c **** 
 133:d:/LiteOS_Lab/drivers/third_party/ST/STM32L4xx_HAL_Driver/Src\stm32l4xx_hal_tim.c **** /** @defgroup TIM TIM
 134:d:/LiteOS_Lab/drivers/third_party/ST/STM32L4xx_HAL_Driver/Src\stm32l4xx_hal_tim.c ****   * @brief TIM HAL module driver
 135:d:/LiteOS_Lab/drivers/third_party/ST/STM32L4xx_HAL_Driver/Src\stm32l4xx_hal_tim.c ****   * @{
 136:d:/LiteOS_Lab/drivers/third_party/ST/STM32L4xx_HAL_Driver/Src\stm32l4xx_hal_tim.c ****   */
 137:d:/LiteOS_Lab/drivers/third_party/ST/STM32L4xx_HAL_Driver/Src\stm32l4xx_hal_tim.c **** 
 138:d:/LiteOS_Lab/drivers/third_party/ST/STM32L4xx_HAL_Driver/Src\stm32l4xx_hal_tim.c **** #ifdef HAL_TIM_MODULE_ENABLED
 139:d:/LiteOS_Lab/drivers/third_party/ST/STM32L4xx_HAL_Driver/Src\stm32l4xx_hal_tim.c **** 
 140:d:/LiteOS_Lab/drivers/third_party/ST/STM32L4xx_HAL_Driver/Src\stm32l4xx_hal_tim.c **** /* Private typedef -----------------------------------------------------------*/
 141:d:/LiteOS_Lab/drivers/third_party/ST/STM32L4xx_HAL_Driver/Src\stm32l4xx_hal_tim.c **** /* Private define ------------------------------------------------------------*/
 142:d:/LiteOS_Lab/drivers/third_party/ST/STM32L4xx_HAL_Driver/Src\stm32l4xx_hal_tim.c **** /* Private macro -------------------------------------------------------------*/
 143:d:/LiteOS_Lab/drivers/third_party/ST/STM32L4xx_HAL_Driver/Src\stm32l4xx_hal_tim.c **** /* Private variables ---------------------------------------------------------*/
 144:d:/LiteOS_Lab/drivers/third_party/ST/STM32L4xx_HAL_Driver/Src\stm32l4xx_hal_tim.c **** /* Private function prototypes -----------------------------------------------*/
ARM GAS  C:\Users\ADMINI~1\AppData\Local\Temp\cccB3BZw.s 			page 4


 145:d:/LiteOS_Lab/drivers/third_party/ST/STM32L4xx_HAL_Driver/Src\stm32l4xx_hal_tim.c **** static void TIM_OC1_SetConfig(TIM_TypeDef *TIMx, TIM_OC_InitTypeDef *OC_Config);
 146:d:/LiteOS_Lab/drivers/third_party/ST/STM32L4xx_HAL_Driver/Src\stm32l4xx_hal_tim.c **** static void TIM_OC3_SetConfig(TIM_TypeDef *TIMx, TIM_OC_InitTypeDef *OC_Config);
 147:d:/LiteOS_Lab/drivers/third_party/ST/STM32L4xx_HAL_Driver/Src\stm32l4xx_hal_tim.c **** static void TIM_OC4_SetConfig(TIM_TypeDef *TIMx, TIM_OC_InitTypeDef *OC_Config);
 148:d:/LiteOS_Lab/drivers/third_party/ST/STM32L4xx_HAL_Driver/Src\stm32l4xx_hal_tim.c **** static void TIM_OC5_SetConfig(TIM_TypeDef *TIMx, TIM_OC_InitTypeDef *OC_Config);
 149:d:/LiteOS_Lab/drivers/third_party/ST/STM32L4xx_HAL_Driver/Src\stm32l4xx_hal_tim.c **** static void TIM_OC6_SetConfig(TIM_TypeDef *TIMx, TIM_OC_InitTypeDef *OC_Config);
 150:d:/LiteOS_Lab/drivers/third_party/ST/STM32L4xx_HAL_Driver/Src\stm32l4xx_hal_tim.c **** static void TIM_TI1_ConfigInputStage(TIM_TypeDef *TIMx, uint32_t TIM_ICPolarity, uint32_t TIM_ICFil
 151:d:/LiteOS_Lab/drivers/third_party/ST/STM32L4xx_HAL_Driver/Src\stm32l4xx_hal_tim.c **** static void TIM_TI2_SetConfig(TIM_TypeDef *TIMx, uint32_t TIM_ICPolarity, uint32_t TIM_ICSelection,
 152:d:/LiteOS_Lab/drivers/third_party/ST/STM32L4xx_HAL_Driver/Src\stm32l4xx_hal_tim.c ****                        uint32_t TIM_ICFilter);
 153:d:/LiteOS_Lab/drivers/third_party/ST/STM32L4xx_HAL_Driver/Src\stm32l4xx_hal_tim.c **** static void TIM_TI2_ConfigInputStage(TIM_TypeDef *TIMx, uint32_t TIM_ICPolarity, uint32_t TIM_ICFil
 154:d:/LiteOS_Lab/drivers/third_party/ST/STM32L4xx_HAL_Driver/Src\stm32l4xx_hal_tim.c **** static void TIM_TI3_SetConfig(TIM_TypeDef *TIMx, uint32_t TIM_ICPolarity, uint32_t TIM_ICSelection,
 155:d:/LiteOS_Lab/drivers/third_party/ST/STM32L4xx_HAL_Driver/Src\stm32l4xx_hal_tim.c ****                        uint32_t TIM_ICFilter);
 156:d:/LiteOS_Lab/drivers/third_party/ST/STM32L4xx_HAL_Driver/Src\stm32l4xx_hal_tim.c **** static void TIM_TI4_SetConfig(TIM_TypeDef *TIMx, uint32_t TIM_ICPolarity, uint32_t TIM_ICSelection,
 157:d:/LiteOS_Lab/drivers/third_party/ST/STM32L4xx_HAL_Driver/Src\stm32l4xx_hal_tim.c ****                        uint32_t TIM_ICFilter);
 158:d:/LiteOS_Lab/drivers/third_party/ST/STM32L4xx_HAL_Driver/Src\stm32l4xx_hal_tim.c **** static void TIM_ITRx_SetConfig(TIM_TypeDef* TIMx, uint16_t InputTriggerSource);
 159:d:/LiteOS_Lab/drivers/third_party/ST/STM32L4xx_HAL_Driver/Src\stm32l4xx_hal_tim.c **** static void TIM_DMAPeriodElapsedCplt(DMA_HandleTypeDef *hdma);
 160:d:/LiteOS_Lab/drivers/third_party/ST/STM32L4xx_HAL_Driver/Src\stm32l4xx_hal_tim.c **** static void TIM_DMATriggerCplt(DMA_HandleTypeDef *hdma);
 161:d:/LiteOS_Lab/drivers/third_party/ST/STM32L4xx_HAL_Driver/Src\stm32l4xx_hal_tim.c **** static void TIM_SlaveTimer_SetConfig(TIM_HandleTypeDef *htim,
 162:d:/LiteOS_Lab/drivers/third_party/ST/STM32L4xx_HAL_Driver/Src\stm32l4xx_hal_tim.c ****                                      TIM_SlaveConfigTypeDef * sSlaveConfig);
 163:d:/LiteOS_Lab/drivers/third_party/ST/STM32L4xx_HAL_Driver/Src\stm32l4xx_hal_tim.c **** /* Exported functions --------------------------------------------------------*/
 164:d:/LiteOS_Lab/drivers/third_party/ST/STM32L4xx_HAL_Driver/Src\stm32l4xx_hal_tim.c **** 
 165:d:/LiteOS_Lab/drivers/third_party/ST/STM32L4xx_HAL_Driver/Src\stm32l4xx_hal_tim.c **** /** @defgroup TIM_Exported_Functions TIM Exported Functions
 166:d:/LiteOS_Lab/drivers/third_party/ST/STM32L4xx_HAL_Driver/Src\stm32l4xx_hal_tim.c ****   * @{
 167:d:/LiteOS_Lab/drivers/third_party/ST/STM32L4xx_HAL_Driver/Src\stm32l4xx_hal_tim.c ****   */
 168:d:/LiteOS_Lab/drivers/third_party/ST/STM32L4xx_HAL_Driver/Src\stm32l4xx_hal_tim.c **** 
 169:d:/LiteOS_Lab/drivers/third_party/ST/STM32L4xx_HAL_Driver/Src\stm32l4xx_hal_tim.c **** /** @defgroup TIM_Exported_Functions_Group1 Time Base functions
 170:d:/LiteOS_Lab/drivers/third_party/ST/STM32L4xx_HAL_Driver/Src\stm32l4xx_hal_tim.c ****  *  @brief    Time Base functions
 171:d:/LiteOS_Lab/drivers/third_party/ST/STM32L4xx_HAL_Driver/Src\stm32l4xx_hal_tim.c ****  *
 172:d:/LiteOS_Lab/drivers/third_party/ST/STM32L4xx_HAL_Driver/Src\stm32l4xx_hal_tim.c **** @verbatim
 173:d:/LiteOS_Lab/drivers/third_party/ST/STM32L4xx_HAL_Driver/Src\stm32l4xx_hal_tim.c ****   ==============================================================================
 174:d:/LiteOS_Lab/drivers/third_party/ST/STM32L4xx_HAL_Driver/Src\stm32l4xx_hal_tim.c ****               ##### Time Base functions #####
 175:d:/LiteOS_Lab/drivers/third_party/ST/STM32L4xx_HAL_Driver/Src\stm32l4xx_hal_tim.c ****   ==============================================================================
 176:d:/LiteOS_Lab/drivers/third_party/ST/STM32L4xx_HAL_Driver/Src\stm32l4xx_hal_tim.c ****   [..]
 177:d:/LiteOS_Lab/drivers/third_party/ST/STM32L4xx_HAL_Driver/Src\stm32l4xx_hal_tim.c ****     This section provides functions allowing to:
 178:d:/LiteOS_Lab/drivers/third_party/ST/STM32L4xx_HAL_Driver/Src\stm32l4xx_hal_tim.c ****     (+) Initialize and configure the TIM base.
 179:d:/LiteOS_Lab/drivers/third_party/ST/STM32L4xx_HAL_Driver/Src\stm32l4xx_hal_tim.c ****     (+) De-initialize the TIM base.
 180:d:/LiteOS_Lab/drivers/third_party/ST/STM32L4xx_HAL_Driver/Src\stm32l4xx_hal_tim.c ****     (+) Start the Time Base.
 181:d:/LiteOS_Lab/drivers/third_party/ST/STM32L4xx_HAL_Driver/Src\stm32l4xx_hal_tim.c ****     (+) Stop the Time Base.
 182:d:/LiteOS_Lab/drivers/third_party/ST/STM32L4xx_HAL_Driver/Src\stm32l4xx_hal_tim.c ****     (+) Start the Time Base and enable interrupt.
 183:d:/LiteOS_Lab/drivers/third_party/ST/STM32L4xx_HAL_Driver/Src\stm32l4xx_hal_tim.c ****     (+) Stop the Time Base and disable interrupt.
 184:d:/LiteOS_Lab/drivers/third_party/ST/STM32L4xx_HAL_Driver/Src\stm32l4xx_hal_tim.c ****     (+) Start the Time Base and enable DMA transfer.
 185:d:/LiteOS_Lab/drivers/third_party/ST/STM32L4xx_HAL_Driver/Src\stm32l4xx_hal_tim.c ****     (+) Stop the Time Base and disable DMA transfer.
 186:d:/LiteOS_Lab/drivers/third_party/ST/STM32L4xx_HAL_Driver/Src\stm32l4xx_hal_tim.c **** 
 187:d:/LiteOS_Lab/drivers/third_party/ST/STM32L4xx_HAL_Driver/Src\stm32l4xx_hal_tim.c **** @endverbatim
 188:d:/LiteOS_Lab/drivers/third_party/ST/STM32L4xx_HAL_Driver/Src\stm32l4xx_hal_tim.c ****   * @{
 189:d:/LiteOS_Lab/drivers/third_party/ST/STM32L4xx_HAL_Driver/Src\stm32l4xx_hal_tim.c ****   */
 190:d:/LiteOS_Lab/drivers/third_party/ST/STM32L4xx_HAL_Driver/Src\stm32l4xx_hal_tim.c **** /**
 191:d:/LiteOS_Lab/drivers/third_party/ST/STM32L4xx_HAL_Driver/Src\stm32l4xx_hal_tim.c ****   * @brief  Initializes the TIM Time base Unit according to the specified
 192:d:/LiteOS_Lab/drivers/third_party/ST/STM32L4xx_HAL_Driver/Src\stm32l4xx_hal_tim.c ****   *         parameters in the TIM_HandleTypeDef and initialize the associated handle.
 193:d:/LiteOS_Lab/drivers/third_party/ST/STM32L4xx_HAL_Driver/Src\stm32l4xx_hal_tim.c ****   * @note Switching from Center Aligned counter mode to Edge counter mode (or reverse)
 194:d:/LiteOS_Lab/drivers/third_party/ST/STM32L4xx_HAL_Driver/Src\stm32l4xx_hal_tim.c ****   *       requires a timer reset to avoid unexpected direction 
 195:d:/LiteOS_Lab/drivers/third_party/ST/STM32L4xx_HAL_Driver/Src\stm32l4xx_hal_tim.c ****   *       due to DIR bit readonly in center aligned mode.
 196:d:/LiteOS_Lab/drivers/third_party/ST/STM32L4xx_HAL_Driver/Src\stm32l4xx_hal_tim.c ****   *       Ex: call @ref HAL_TIM_Base_DeInit() before HAL_TIM_Base_Init()
 197:d:/LiteOS_Lab/drivers/third_party/ST/STM32L4xx_HAL_Driver/Src\stm32l4xx_hal_tim.c ****   * @param  htim TIM Base handle
 198:d:/LiteOS_Lab/drivers/third_party/ST/STM32L4xx_HAL_Driver/Src\stm32l4xx_hal_tim.c ****   * @retval HAL status
 199:d:/LiteOS_Lab/drivers/third_party/ST/STM32L4xx_HAL_Driver/Src\stm32l4xx_hal_tim.c ****   */
 200:d:/LiteOS_Lab/drivers/third_party/ST/STM32L4xx_HAL_Driver/Src\stm32l4xx_hal_tim.c **** HAL_StatusTypeDef HAL_TIM_Base_Init(TIM_HandleTypeDef *htim)
 201:d:/LiteOS_Lab/drivers/third_party/ST/STM32L4xx_HAL_Driver/Src\stm32l4xx_hal_tim.c **** {
ARM GAS  C:\Users\ADMINI~1\AppData\Local\Temp\cccB3BZw.s 			page 5


  29              		.loc 1 201 1
  30              		.cfi_startproc
  31              		@ args = 0, pretend = 0, frame = 8
  32              		@ frame_needed = 1, uses_anonymous_args = 0
  33 0000 80B5     		push	{r7, lr}
  34              	.LCFI0:
  35              		.cfi_def_cfa_offset 8
  36              		.cfi_offset 7, -8
  37              		.cfi_offset 14, -4
  38 0002 82B0     		sub	sp, sp, #8
  39              	.LCFI1:
  40              		.cfi_def_cfa_offset 16
  41 0004 00AF     		add	r7, sp, #0
  42              	.LCFI2:
  43              		.cfi_def_cfa_register 7
  44 0006 7860     		str	r0, [r7, #4]
 202:d:/LiteOS_Lab/drivers/third_party/ST/STM32L4xx_HAL_Driver/Src\stm32l4xx_hal_tim.c ****   /* Check the TIM handle allocation */
 203:d:/LiteOS_Lab/drivers/third_party/ST/STM32L4xx_HAL_Driver/Src\stm32l4xx_hal_tim.c ****   if(htim == NULL)
  45              		.loc 1 203 5
  46 0008 7B68     		ldr	r3, [r7, #4]
  47 000a 002B     		cmp	r3, #0
  48 000c 01D1     		bne	.L2
 204:d:/LiteOS_Lab/drivers/third_party/ST/STM32L4xx_HAL_Driver/Src\stm32l4xx_hal_tim.c ****   {
 205:d:/LiteOS_Lab/drivers/third_party/ST/STM32L4xx_HAL_Driver/Src\stm32l4xx_hal_tim.c ****     return HAL_ERROR;
  49              		.loc 1 205 12
  50 000e 0123     		movs	r3, #1
  51 0010 1DE0     		b	.L3
  52              	.L2:
 206:d:/LiteOS_Lab/drivers/third_party/ST/STM32L4xx_HAL_Driver/Src\stm32l4xx_hal_tim.c ****   }
 207:d:/LiteOS_Lab/drivers/third_party/ST/STM32L4xx_HAL_Driver/Src\stm32l4xx_hal_tim.c **** 
 208:d:/LiteOS_Lab/drivers/third_party/ST/STM32L4xx_HAL_Driver/Src\stm32l4xx_hal_tim.c ****   /* Check the parameters */
 209:d:/LiteOS_Lab/drivers/third_party/ST/STM32L4xx_HAL_Driver/Src\stm32l4xx_hal_tim.c ****   assert_param(IS_TIM_INSTANCE(htim->Instance));
 210:d:/LiteOS_Lab/drivers/third_party/ST/STM32L4xx_HAL_Driver/Src\stm32l4xx_hal_tim.c ****   assert_param(IS_TIM_COUNTER_MODE(htim->Init.CounterMode));
 211:d:/LiteOS_Lab/drivers/third_party/ST/STM32L4xx_HAL_Driver/Src\stm32l4xx_hal_tim.c ****   assert_param(IS_TIM_CLOCKDIVISION_DIV(htim->Init.ClockDivision));
 212:d:/LiteOS_Lab/drivers/third_party/ST/STM32L4xx_HAL_Driver/Src\stm32l4xx_hal_tim.c ****   assert_param(IS_TIM_AUTORELOAD_PRELOAD(htim->Init.AutoReloadPreload));
 213:d:/LiteOS_Lab/drivers/third_party/ST/STM32L4xx_HAL_Driver/Src\stm32l4xx_hal_tim.c **** 
 214:d:/LiteOS_Lab/drivers/third_party/ST/STM32L4xx_HAL_Driver/Src\stm32l4xx_hal_tim.c ****   if(htim->State == HAL_TIM_STATE_RESET)
  53              		.loc 1 214 10
  54 0012 7B68     		ldr	r3, [r7, #4]
  55 0014 93F83D30 		ldrb	r3, [r3, #61]
  56 0018 DBB2     		uxtb	r3, r3
  57              		.loc 1 214 5
  58 001a 002B     		cmp	r3, #0
  59 001c 06D1     		bne	.L4
 215:d:/LiteOS_Lab/drivers/third_party/ST/STM32L4xx_HAL_Driver/Src\stm32l4xx_hal_tim.c ****   {
 216:d:/LiteOS_Lab/drivers/third_party/ST/STM32L4xx_HAL_Driver/Src\stm32l4xx_hal_tim.c ****     /* Allocate lock resource and initialize it */
 217:d:/LiteOS_Lab/drivers/third_party/ST/STM32L4xx_HAL_Driver/Src\stm32l4xx_hal_tim.c ****     htim->Lock = HAL_UNLOCKED;
  60              		.loc 1 217 16
  61 001e 7B68     		ldr	r3, [r7, #4]
  62 0020 0022     		movs	r2, #0
  63 0022 83F83C20 		strb	r2, [r3, #60]
 218:d:/LiteOS_Lab/drivers/third_party/ST/STM32L4xx_HAL_Driver/Src\stm32l4xx_hal_tim.c **** 
 219:d:/LiteOS_Lab/drivers/third_party/ST/STM32L4xx_HAL_Driver/Src\stm32l4xx_hal_tim.c ****     /* Init the low level hardware : GPIO, CLOCK, NVIC */
 220:d:/LiteOS_Lab/drivers/third_party/ST/STM32L4xx_HAL_Driver/Src\stm32l4xx_hal_tim.c ****     HAL_TIM_Base_MspInit(htim);
  64              		.loc 1 220 5
  65 0026 7868     		ldr	r0, [r7, #4]
  66 0028 FFF7FEFF 		bl	HAL_TIM_Base_MspInit
ARM GAS  C:\Users\ADMINI~1\AppData\Local\Temp\cccB3BZw.s 			page 6


  67              	.L4:
 221:d:/LiteOS_Lab/drivers/third_party/ST/STM32L4xx_HAL_Driver/Src\stm32l4xx_hal_tim.c ****   }
 222:d:/LiteOS_Lab/drivers/third_party/ST/STM32L4xx_HAL_Driver/Src\stm32l4xx_hal_tim.c **** 
 223:d:/LiteOS_Lab/drivers/third_party/ST/STM32L4xx_HAL_Driver/Src\stm32l4xx_hal_tim.c ****   /* Set the TIM state */
 224:d:/LiteOS_Lab/drivers/third_party/ST/STM32L4xx_HAL_Driver/Src\stm32l4xx_hal_tim.c ****   htim->State= HAL_TIM_STATE_BUSY;
  68              		.loc 1 224 14
  69 002c 7B68     		ldr	r3, [r7, #4]
  70 002e 0222     		movs	r2, #2
  71 0030 83F83D20 		strb	r2, [r3, #61]
 225:d:/LiteOS_Lab/drivers/third_party/ST/STM32L4xx_HAL_Driver/Src\stm32l4xx_hal_tim.c **** 
 226:d:/LiteOS_Lab/drivers/third_party/ST/STM32L4xx_HAL_Driver/Src\stm32l4xx_hal_tim.c ****   /* Set the Time Base configuration */
 227:d:/LiteOS_Lab/drivers/third_party/ST/STM32L4xx_HAL_Driver/Src\stm32l4xx_hal_tim.c ****   TIM_Base_SetConfig(htim->Instance, &htim->Init);
  72              		.loc 1 227 3
  73 0034 7B68     		ldr	r3, [r7, #4]
  74 0036 1A68     		ldr	r2, [r3]
  75 0038 7B68     		ldr	r3, [r7, #4]
  76 003a 0433     		adds	r3, r3, #4
  77 003c 1946     		mov	r1, r3
  78 003e 1046     		mov	r0, r2
  79 0040 FFF7FEFF 		bl	TIM_Base_SetConfig
 228:d:/LiteOS_Lab/drivers/third_party/ST/STM32L4xx_HAL_Driver/Src\stm32l4xx_hal_tim.c **** 
 229:d:/LiteOS_Lab/drivers/third_party/ST/STM32L4xx_HAL_Driver/Src\stm32l4xx_hal_tim.c ****   /* Initialize the TIM state*/
 230:d:/LiteOS_Lab/drivers/third_party/ST/STM32L4xx_HAL_Driver/Src\stm32l4xx_hal_tim.c ****   htim->State= HAL_TIM_STATE_READY;
  80              		.loc 1 230 14
  81 0044 7B68     		ldr	r3, [r7, #4]
  82 0046 0122     		movs	r2, #1
  83 0048 83F83D20 		strb	r2, [r3, #61]
 231:d:/LiteOS_Lab/drivers/third_party/ST/STM32L4xx_HAL_Driver/Src\stm32l4xx_hal_tim.c **** 
 232:d:/LiteOS_Lab/drivers/third_party/ST/STM32L4xx_HAL_Driver/Src\stm32l4xx_hal_tim.c ****   return HAL_OK;
  84              		.loc 1 232 10
  85 004c 0023     		movs	r3, #0
  86              	.L3:
 233:d:/LiteOS_Lab/drivers/third_party/ST/STM32L4xx_HAL_Driver/Src\stm32l4xx_hal_tim.c **** }
  87              		.loc 1 233 1
  88 004e 1846     		mov	r0, r3
  89 0050 0837     		adds	r7, r7, #8
  90              	.LCFI3:
  91              		.cfi_def_cfa_offset 8
  92 0052 BD46     		mov	sp, r7
  93              	.LCFI4:
  94              		.cfi_def_cfa_register 13
  95              		@ sp needed
  96 0054 80BD     		pop	{r7, pc}
  97              		.cfi_endproc
  98              	.LFE287:
 100              		.section	.text.HAL_TIM_Base_DeInit,"ax",%progbits
 101              		.align	1
 102              		.global	HAL_TIM_Base_DeInit
 103              		.syntax unified
 104              		.thumb
 105              		.thumb_func
 106              		.fpu fpv4-sp-d16
 108              	HAL_TIM_Base_DeInit:
 109              	.LFB288:
 234:d:/LiteOS_Lab/drivers/third_party/ST/STM32L4xx_HAL_Driver/Src\stm32l4xx_hal_tim.c **** 
 235:d:/LiteOS_Lab/drivers/third_party/ST/STM32L4xx_HAL_Driver/Src\stm32l4xx_hal_tim.c **** /**
 236:d:/LiteOS_Lab/drivers/third_party/ST/STM32L4xx_HAL_Driver/Src\stm32l4xx_hal_tim.c ****   * @brief  DeInitialize the TIM Base peripheral
ARM GAS  C:\Users\ADMINI~1\AppData\Local\Temp\cccB3BZw.s 			page 7


 237:d:/LiteOS_Lab/drivers/third_party/ST/STM32L4xx_HAL_Driver/Src\stm32l4xx_hal_tim.c ****   * @param  htim TIM Base handle
 238:d:/LiteOS_Lab/drivers/third_party/ST/STM32L4xx_HAL_Driver/Src\stm32l4xx_hal_tim.c ****   * @retval HAL status
 239:d:/LiteOS_Lab/drivers/third_party/ST/STM32L4xx_HAL_Driver/Src\stm32l4xx_hal_tim.c ****   */
 240:d:/LiteOS_Lab/drivers/third_party/ST/STM32L4xx_HAL_Driver/Src\stm32l4xx_hal_tim.c **** HAL_StatusTypeDef HAL_TIM_Base_DeInit(TIM_HandleTypeDef *htim)
 241:d:/LiteOS_Lab/drivers/third_party/ST/STM32L4xx_HAL_Driver/Src\stm32l4xx_hal_tim.c **** {
 110              		.loc 1 241 1
 111              		.cfi_startproc
 112              		@ args = 0, pretend = 0, frame = 8
 113              		@ frame_needed = 1, uses_anonymous_args = 0
 114 0000 80B5     		push	{r7, lr}
 115              	.LCFI5:
 116              		.cfi_def_cfa_offset 8
 117              		.cfi_offset 7, -8
 118              		.cfi_offset 14, -4
 119 0002 82B0     		sub	sp, sp, #8
 120              	.LCFI6:
 121              		.cfi_def_cfa_offset 16
 122 0004 00AF     		add	r7, sp, #0
 123              	.LCFI7:
 124              		.cfi_def_cfa_register 7
 125 0006 7860     		str	r0, [r7, #4]
 242:d:/LiteOS_Lab/drivers/third_party/ST/STM32L4xx_HAL_Driver/Src\stm32l4xx_hal_tim.c ****   /* Check the parameters */
 243:d:/LiteOS_Lab/drivers/third_party/ST/STM32L4xx_HAL_Driver/Src\stm32l4xx_hal_tim.c ****   assert_param(IS_TIM_INSTANCE(htim->Instance));
 244:d:/LiteOS_Lab/drivers/third_party/ST/STM32L4xx_HAL_Driver/Src\stm32l4xx_hal_tim.c **** 
 245:d:/LiteOS_Lab/drivers/third_party/ST/STM32L4xx_HAL_Driver/Src\stm32l4xx_hal_tim.c ****   htim->State = HAL_TIM_STATE_BUSY;
 126              		.loc 1 245 15
 127 0008 7B68     		ldr	r3, [r7, #4]
 128 000a 0222     		movs	r2, #2
 129 000c 83F83D20 		strb	r2, [r3, #61]
 246:d:/LiteOS_Lab/drivers/third_party/ST/STM32L4xx_HAL_Driver/Src\stm32l4xx_hal_tim.c **** 
 247:d:/LiteOS_Lab/drivers/third_party/ST/STM32L4xx_HAL_Driver/Src\stm32l4xx_hal_tim.c ****   /* Disable the TIM Peripheral Clock */
 248:d:/LiteOS_Lab/drivers/third_party/ST/STM32L4xx_HAL_Driver/Src\stm32l4xx_hal_tim.c ****   __HAL_TIM_DISABLE(htim);
 130              		.loc 1 248 3
 131 0010 7B68     		ldr	r3, [r7, #4]
 132 0012 1B68     		ldr	r3, [r3]
 133 0014 1A6A     		ldr	r2, [r3, #32]
 134 0016 41F21113 		movw	r3, #4369
 135 001a 1340     		ands	r3, r3, r2
 136 001c 002B     		cmp	r3, #0
 137 001e 0FD1     		bne	.L6
 138              		.loc 1 248 3 is_stmt 0 discriminator 1
 139 0020 7B68     		ldr	r3, [r7, #4]
 140 0022 1B68     		ldr	r3, [r3]
 141 0024 1A6A     		ldr	r2, [r3, #32]
 142 0026 40F24443 		movw	r3, #1092
 143 002a 1340     		ands	r3, r3, r2
 144 002c 002B     		cmp	r3, #0
 145 002e 07D1     		bne	.L6
 146              		.loc 1 248 3 discriminator 2
 147 0030 7B68     		ldr	r3, [r7, #4]
 148 0032 1B68     		ldr	r3, [r3]
 149 0034 1A68     		ldr	r2, [r3]
 150 0036 7B68     		ldr	r3, [r7, #4]
 151 0038 1B68     		ldr	r3, [r3]
 152 003a 22F00102 		bic	r2, r2, #1
 153 003e 1A60     		str	r2, [r3]
 154              	.L6:
ARM GAS  C:\Users\ADMINI~1\AppData\Local\Temp\cccB3BZw.s 			page 8


 249:d:/LiteOS_Lab/drivers/third_party/ST/STM32L4xx_HAL_Driver/Src\stm32l4xx_hal_tim.c **** 
 250:d:/LiteOS_Lab/drivers/third_party/ST/STM32L4xx_HAL_Driver/Src\stm32l4xx_hal_tim.c ****   /* DeInit the low level hardware: GPIO, CLOCK, NVIC */
 251:d:/LiteOS_Lab/drivers/third_party/ST/STM32L4xx_HAL_Driver/Src\stm32l4xx_hal_tim.c ****   HAL_TIM_Base_MspDeInit(htim);
 155              		.loc 1 251 3 is_stmt 1
 156 0040 7868     		ldr	r0, [r7, #4]
 157 0042 FFF7FEFF 		bl	HAL_TIM_Base_MspDeInit
 252:d:/LiteOS_Lab/drivers/third_party/ST/STM32L4xx_HAL_Driver/Src\stm32l4xx_hal_tim.c **** 
 253:d:/LiteOS_Lab/drivers/third_party/ST/STM32L4xx_HAL_Driver/Src\stm32l4xx_hal_tim.c ****   /* Change TIM state */
 254:d:/LiteOS_Lab/drivers/third_party/ST/STM32L4xx_HAL_Driver/Src\stm32l4xx_hal_tim.c ****   htim->State = HAL_TIM_STATE_RESET;
 158              		.loc 1 254 15
 159 0046 7B68     		ldr	r3, [r7, #4]
 160 0048 0022     		movs	r2, #0
 161 004a 83F83D20 		strb	r2, [r3, #61]
 255:d:/LiteOS_Lab/drivers/third_party/ST/STM32L4xx_HAL_Driver/Src\stm32l4xx_hal_tim.c **** 
 256:d:/LiteOS_Lab/drivers/third_party/ST/STM32L4xx_HAL_Driver/Src\stm32l4xx_hal_tim.c ****   /* Release Lock */
 257:d:/LiteOS_Lab/drivers/third_party/ST/STM32L4xx_HAL_Driver/Src\stm32l4xx_hal_tim.c ****   __HAL_UNLOCK(htim);
 162              		.loc 1 257 3
 163 004e 7B68     		ldr	r3, [r7, #4]
 164 0050 0022     		movs	r2, #0
 165 0052 83F83C20 		strb	r2, [r3, #60]
 258:d:/LiteOS_Lab/drivers/third_party/ST/STM32L4xx_HAL_Driver/Src\stm32l4xx_hal_tim.c **** 
 259:d:/LiteOS_Lab/drivers/third_party/ST/STM32L4xx_HAL_Driver/Src\stm32l4xx_hal_tim.c ****   return HAL_OK;
 166              		.loc 1 259 10
 167 0056 0023     		movs	r3, #0
 260:d:/LiteOS_Lab/drivers/third_party/ST/STM32L4xx_HAL_Driver/Src\stm32l4xx_hal_tim.c **** }
 168              		.loc 1 260 1
 169 0058 1846     		mov	r0, r3
 170 005a 0837     		adds	r7, r7, #8
 171              	.LCFI8:
 172              		.cfi_def_cfa_offset 8
 173 005c BD46     		mov	sp, r7
 174              	.LCFI9:
 175              		.cfi_def_cfa_register 13
 176              		@ sp needed
 177 005e 80BD     		pop	{r7, pc}
 178              		.cfi_endproc
 179              	.LFE288:
 181              		.section	.text.HAL_TIM_Base_MspInit,"ax",%progbits
 182              		.align	1
 183              		.weak	HAL_TIM_Base_MspInit
 184              		.syntax unified
 185              		.thumb
 186              		.thumb_func
 187              		.fpu fpv4-sp-d16
 189              	HAL_TIM_Base_MspInit:
 190              	.LFB289:
 261:d:/LiteOS_Lab/drivers/third_party/ST/STM32L4xx_HAL_Driver/Src\stm32l4xx_hal_tim.c **** 
 262:d:/LiteOS_Lab/drivers/third_party/ST/STM32L4xx_HAL_Driver/Src\stm32l4xx_hal_tim.c **** /**
 263:d:/LiteOS_Lab/drivers/third_party/ST/STM32L4xx_HAL_Driver/Src\stm32l4xx_hal_tim.c ****   * @brief  Initializes the TIM Base MSP.
 264:d:/LiteOS_Lab/drivers/third_party/ST/STM32L4xx_HAL_Driver/Src\stm32l4xx_hal_tim.c ****   * @param  htim TIM handle
 265:d:/LiteOS_Lab/drivers/third_party/ST/STM32L4xx_HAL_Driver/Src\stm32l4xx_hal_tim.c ****   * @retval None
 266:d:/LiteOS_Lab/drivers/third_party/ST/STM32L4xx_HAL_Driver/Src\stm32l4xx_hal_tim.c ****   */
 267:d:/LiteOS_Lab/drivers/third_party/ST/STM32L4xx_HAL_Driver/Src\stm32l4xx_hal_tim.c **** __weak void HAL_TIM_Base_MspInit(TIM_HandleTypeDef *htim)
 268:d:/LiteOS_Lab/drivers/third_party/ST/STM32L4xx_HAL_Driver/Src\stm32l4xx_hal_tim.c **** {
 191              		.loc 1 268 1
 192              		.cfi_startproc
 193              		@ args = 0, pretend = 0, frame = 8
ARM GAS  C:\Users\ADMINI~1\AppData\Local\Temp\cccB3BZw.s 			page 9


 194              		@ frame_needed = 1, uses_anonymous_args = 0
 195              		@ link register save eliminated.
 196 0000 80B4     		push	{r7}
 197              	.LCFI10:
 198              		.cfi_def_cfa_offset 4
 199              		.cfi_offset 7, -4
 200 0002 83B0     		sub	sp, sp, #12
 201              	.LCFI11:
 202              		.cfi_def_cfa_offset 16
 203 0004 00AF     		add	r7, sp, #0
 204              	.LCFI12:
 205              		.cfi_def_cfa_register 7
 206 0006 7860     		str	r0, [r7, #4]
 269:d:/LiteOS_Lab/drivers/third_party/ST/STM32L4xx_HAL_Driver/Src\stm32l4xx_hal_tim.c ****   /* Prevent unused argument(s) compilation warning */
 270:d:/LiteOS_Lab/drivers/third_party/ST/STM32L4xx_HAL_Driver/Src\stm32l4xx_hal_tim.c ****   UNUSED(htim);
 271:d:/LiteOS_Lab/drivers/third_party/ST/STM32L4xx_HAL_Driver/Src\stm32l4xx_hal_tim.c **** 
 272:d:/LiteOS_Lab/drivers/third_party/ST/STM32L4xx_HAL_Driver/Src\stm32l4xx_hal_tim.c ****   /* NOTE : This function should not be modified, when the callback is needed,
 273:d:/LiteOS_Lab/drivers/third_party/ST/STM32L4xx_HAL_Driver/Src\stm32l4xx_hal_tim.c ****             the HAL_TIM_Base_MspInit could be implemented in the user file
 274:d:/LiteOS_Lab/drivers/third_party/ST/STM32L4xx_HAL_Driver/Src\stm32l4xx_hal_tim.c ****    */
 275:d:/LiteOS_Lab/drivers/third_party/ST/STM32L4xx_HAL_Driver/Src\stm32l4xx_hal_tim.c **** }
 207              		.loc 1 275 1
 208 0008 00BF     		nop
 209 000a 0C37     		adds	r7, r7, #12
 210              	.LCFI13:
 211              		.cfi_def_cfa_offset 4
 212 000c BD46     		mov	sp, r7
 213              	.LCFI14:
 214              		.cfi_def_cfa_register 13
 215              		@ sp needed
 216 000e 5DF8047B 		ldr	r7, [sp], #4
 217              	.LCFI15:
 218              		.cfi_restore 7
 219              		.cfi_def_cfa_offset 0
 220 0012 7047     		bx	lr
 221              		.cfi_endproc
 222              	.LFE289:
 224              		.section	.text.HAL_TIM_Base_MspDeInit,"ax",%progbits
 225              		.align	1
 226              		.weak	HAL_TIM_Base_MspDeInit
 227              		.syntax unified
 228              		.thumb
 229              		.thumb_func
 230              		.fpu fpv4-sp-d16
 232              	HAL_TIM_Base_MspDeInit:
 233              	.LFB290:
 276:d:/LiteOS_Lab/drivers/third_party/ST/STM32L4xx_HAL_Driver/Src\stm32l4xx_hal_tim.c **** 
 277:d:/LiteOS_Lab/drivers/third_party/ST/STM32L4xx_HAL_Driver/Src\stm32l4xx_hal_tim.c **** /**
 278:d:/LiteOS_Lab/drivers/third_party/ST/STM32L4xx_HAL_Driver/Src\stm32l4xx_hal_tim.c ****   * @brief  DeInitialize TIM Base MSP.
 279:d:/LiteOS_Lab/drivers/third_party/ST/STM32L4xx_HAL_Driver/Src\stm32l4xx_hal_tim.c ****   * @param  htim TIM handle
 280:d:/LiteOS_Lab/drivers/third_party/ST/STM32L4xx_HAL_Driver/Src\stm32l4xx_hal_tim.c ****   * @retval None
 281:d:/LiteOS_Lab/drivers/third_party/ST/STM32L4xx_HAL_Driver/Src\stm32l4xx_hal_tim.c ****   */
 282:d:/LiteOS_Lab/drivers/third_party/ST/STM32L4xx_HAL_Driver/Src\stm32l4xx_hal_tim.c **** __weak void HAL_TIM_Base_MspDeInit(TIM_HandleTypeDef *htim)
 283:d:/LiteOS_Lab/drivers/third_party/ST/STM32L4xx_HAL_Driver/Src\stm32l4xx_hal_tim.c **** {
 234              		.loc 1 283 1
 235              		.cfi_startproc
 236              		@ args = 0, pretend = 0, frame = 8
 237              		@ frame_needed = 1, uses_anonymous_args = 0
ARM GAS  C:\Users\ADMINI~1\AppData\Local\Temp\cccB3BZw.s 			page 10


 238              		@ link register save eliminated.
 239 0000 80B4     		push	{r7}
 240              	.LCFI16:
 241              		.cfi_def_cfa_offset 4
 242              		.cfi_offset 7, -4
 243 0002 83B0     		sub	sp, sp, #12
 244              	.LCFI17:
 245              		.cfi_def_cfa_offset 16
 246 0004 00AF     		add	r7, sp, #0
 247              	.LCFI18:
 248              		.cfi_def_cfa_register 7
 249 0006 7860     		str	r0, [r7, #4]
 284:d:/LiteOS_Lab/drivers/third_party/ST/STM32L4xx_HAL_Driver/Src\stm32l4xx_hal_tim.c ****   /* Prevent unused argument(s) compilation warning */
 285:d:/LiteOS_Lab/drivers/third_party/ST/STM32L4xx_HAL_Driver/Src\stm32l4xx_hal_tim.c ****   UNUSED(htim);
 286:d:/LiteOS_Lab/drivers/third_party/ST/STM32L4xx_HAL_Driver/Src\stm32l4xx_hal_tim.c **** 
 287:d:/LiteOS_Lab/drivers/third_party/ST/STM32L4xx_HAL_Driver/Src\stm32l4xx_hal_tim.c ****   /* NOTE : This function should not be modified, when the callback is needed,
 288:d:/LiteOS_Lab/drivers/third_party/ST/STM32L4xx_HAL_Driver/Src\stm32l4xx_hal_tim.c ****             the HAL_TIM_Base_MspDeInit could be implemented in the user file
 289:d:/LiteOS_Lab/drivers/third_party/ST/STM32L4xx_HAL_Driver/Src\stm32l4xx_hal_tim.c ****    */
 290:d:/LiteOS_Lab/drivers/third_party/ST/STM32L4xx_HAL_Driver/Src\stm32l4xx_hal_tim.c **** }
 250              		.loc 1 290 1
 251 0008 00BF     		nop
 252 000a 0C37     		adds	r7, r7, #12
 253              	.LCFI19:
 254              		.cfi_def_cfa_offset 4
 255 000c BD46     		mov	sp, r7
 256              	.LCFI20:
 257              		.cfi_def_cfa_register 13
 258              		@ sp needed
 259 000e 5DF8047B 		ldr	r7, [sp], #4
 260              	.LCFI21:
 261              		.cfi_restore 7
 262              		.cfi_def_cfa_offset 0
 263 0012 7047     		bx	lr
 264              		.cfi_endproc
 265              	.LFE290:
 267              		.section	.text.HAL_TIM_Base_Start,"ax",%progbits
 268              		.align	1
 269              		.global	HAL_TIM_Base_Start
 270              		.syntax unified
 271              		.thumb
 272              		.thumb_func
 273              		.fpu fpv4-sp-d16
 275              	HAL_TIM_Base_Start:
 276              	.LFB291:
 291:d:/LiteOS_Lab/drivers/third_party/ST/STM32L4xx_HAL_Driver/Src\stm32l4xx_hal_tim.c **** 
 292:d:/LiteOS_Lab/drivers/third_party/ST/STM32L4xx_HAL_Driver/Src\stm32l4xx_hal_tim.c **** 
 293:d:/LiteOS_Lab/drivers/third_party/ST/STM32L4xx_HAL_Driver/Src\stm32l4xx_hal_tim.c **** /**
 294:d:/LiteOS_Lab/drivers/third_party/ST/STM32L4xx_HAL_Driver/Src\stm32l4xx_hal_tim.c ****   * @brief  Starts the TIM Base generation.
 295:d:/LiteOS_Lab/drivers/third_party/ST/STM32L4xx_HAL_Driver/Src\stm32l4xx_hal_tim.c ****   * @param  htim TIM handle
 296:d:/LiteOS_Lab/drivers/third_party/ST/STM32L4xx_HAL_Driver/Src\stm32l4xx_hal_tim.c ****   * @retval HAL status
 297:d:/LiteOS_Lab/drivers/third_party/ST/STM32L4xx_HAL_Driver/Src\stm32l4xx_hal_tim.c **** */
 298:d:/LiteOS_Lab/drivers/third_party/ST/STM32L4xx_HAL_Driver/Src\stm32l4xx_hal_tim.c **** HAL_StatusTypeDef HAL_TIM_Base_Start(TIM_HandleTypeDef *htim)
 299:d:/LiteOS_Lab/drivers/third_party/ST/STM32L4xx_HAL_Driver/Src\stm32l4xx_hal_tim.c **** {
 277              		.loc 1 299 1
 278              		.cfi_startproc
 279              		@ args = 0, pretend = 0, frame = 8
 280              		@ frame_needed = 1, uses_anonymous_args = 0
ARM GAS  C:\Users\ADMINI~1\AppData\Local\Temp\cccB3BZw.s 			page 11


 281              		@ link register save eliminated.
 282 0000 80B4     		push	{r7}
 283              	.LCFI22:
 284              		.cfi_def_cfa_offset 4
 285              		.cfi_offset 7, -4
 286 0002 83B0     		sub	sp, sp, #12
 287              	.LCFI23:
 288              		.cfi_def_cfa_offset 16
 289 0004 00AF     		add	r7, sp, #0
 290              	.LCFI24:
 291              		.cfi_def_cfa_register 7
 292 0006 7860     		str	r0, [r7, #4]
 300:d:/LiteOS_Lab/drivers/third_party/ST/STM32L4xx_HAL_Driver/Src\stm32l4xx_hal_tim.c ****   /* Check the parameters */
 301:d:/LiteOS_Lab/drivers/third_party/ST/STM32L4xx_HAL_Driver/Src\stm32l4xx_hal_tim.c ****   assert_param(IS_TIM_INSTANCE(htim->Instance));
 302:d:/LiteOS_Lab/drivers/third_party/ST/STM32L4xx_HAL_Driver/Src\stm32l4xx_hal_tim.c **** 
 303:d:/LiteOS_Lab/drivers/third_party/ST/STM32L4xx_HAL_Driver/Src\stm32l4xx_hal_tim.c ****   /* Set the TIM state */
 304:d:/LiteOS_Lab/drivers/third_party/ST/STM32L4xx_HAL_Driver/Src\stm32l4xx_hal_tim.c ****   htim->State= HAL_TIM_STATE_BUSY;
 293              		.loc 1 304 14
 294 0008 7B68     		ldr	r3, [r7, #4]
 295 000a 0222     		movs	r2, #2
 296 000c 83F83D20 		strb	r2, [r3, #61]
 305:d:/LiteOS_Lab/drivers/third_party/ST/STM32L4xx_HAL_Driver/Src\stm32l4xx_hal_tim.c **** 
 306:d:/LiteOS_Lab/drivers/third_party/ST/STM32L4xx_HAL_Driver/Src\stm32l4xx_hal_tim.c ****   /* Enable the Peripheral */
 307:d:/LiteOS_Lab/drivers/third_party/ST/STM32L4xx_HAL_Driver/Src\stm32l4xx_hal_tim.c ****   __HAL_TIM_ENABLE(htim);
 297              		.loc 1 307 3
 298 0010 7B68     		ldr	r3, [r7, #4]
 299 0012 1B68     		ldr	r3, [r3]
 300 0014 1A68     		ldr	r2, [r3]
 301 0016 7B68     		ldr	r3, [r7, #4]
 302 0018 1B68     		ldr	r3, [r3]
 303 001a 42F00102 		orr	r2, r2, #1
 304 001e 1A60     		str	r2, [r3]
 308:d:/LiteOS_Lab/drivers/third_party/ST/STM32L4xx_HAL_Driver/Src\stm32l4xx_hal_tim.c **** 
 309:d:/LiteOS_Lab/drivers/third_party/ST/STM32L4xx_HAL_Driver/Src\stm32l4xx_hal_tim.c ****   /* Change the TIM state*/
 310:d:/LiteOS_Lab/drivers/third_party/ST/STM32L4xx_HAL_Driver/Src\stm32l4xx_hal_tim.c ****   htim->State= HAL_TIM_STATE_READY;
 305              		.loc 1 310 14
 306 0020 7B68     		ldr	r3, [r7, #4]
 307 0022 0122     		movs	r2, #1
 308 0024 83F83D20 		strb	r2, [r3, #61]
 311:d:/LiteOS_Lab/drivers/third_party/ST/STM32L4xx_HAL_Driver/Src\stm32l4xx_hal_tim.c **** 
 312:d:/LiteOS_Lab/drivers/third_party/ST/STM32L4xx_HAL_Driver/Src\stm32l4xx_hal_tim.c ****   /* Return function status */
 313:d:/LiteOS_Lab/drivers/third_party/ST/STM32L4xx_HAL_Driver/Src\stm32l4xx_hal_tim.c ****   return HAL_OK;
 309              		.loc 1 313 10
 310 0028 0023     		movs	r3, #0
 314:d:/LiteOS_Lab/drivers/third_party/ST/STM32L4xx_HAL_Driver/Src\stm32l4xx_hal_tim.c **** }
 311              		.loc 1 314 1
 312 002a 1846     		mov	r0, r3
 313 002c 0C37     		adds	r7, r7, #12
 314              	.LCFI25:
 315              		.cfi_def_cfa_offset 4
 316 002e BD46     		mov	sp, r7
 317              	.LCFI26:
 318              		.cfi_def_cfa_register 13
 319              		@ sp needed
 320 0030 5DF8047B 		ldr	r7, [sp], #4
 321              	.LCFI27:
 322              		.cfi_restore 7
ARM GAS  C:\Users\ADMINI~1\AppData\Local\Temp\cccB3BZw.s 			page 12


 323              		.cfi_def_cfa_offset 0
 324 0034 7047     		bx	lr
 325              		.cfi_endproc
 326              	.LFE291:
 328              		.section	.text.HAL_TIM_Base_Stop,"ax",%progbits
 329              		.align	1
 330              		.global	HAL_TIM_Base_Stop
 331              		.syntax unified
 332              		.thumb
 333              		.thumb_func
 334              		.fpu fpv4-sp-d16
 336              	HAL_TIM_Base_Stop:
 337              	.LFB292:
 315:d:/LiteOS_Lab/drivers/third_party/ST/STM32L4xx_HAL_Driver/Src\stm32l4xx_hal_tim.c **** 
 316:d:/LiteOS_Lab/drivers/third_party/ST/STM32L4xx_HAL_Driver/Src\stm32l4xx_hal_tim.c **** /**
 317:d:/LiteOS_Lab/drivers/third_party/ST/STM32L4xx_HAL_Driver/Src\stm32l4xx_hal_tim.c ****   * @brief  Stops the TIM Base generation.
 318:d:/LiteOS_Lab/drivers/third_party/ST/STM32L4xx_HAL_Driver/Src\stm32l4xx_hal_tim.c ****   * @param  htim TIM handle
 319:d:/LiteOS_Lab/drivers/third_party/ST/STM32L4xx_HAL_Driver/Src\stm32l4xx_hal_tim.c ****   * @retval HAL status
 320:d:/LiteOS_Lab/drivers/third_party/ST/STM32L4xx_HAL_Driver/Src\stm32l4xx_hal_tim.c **** */
 321:d:/LiteOS_Lab/drivers/third_party/ST/STM32L4xx_HAL_Driver/Src\stm32l4xx_hal_tim.c **** HAL_StatusTypeDef HAL_TIM_Base_Stop(TIM_HandleTypeDef *htim)
 322:d:/LiteOS_Lab/drivers/third_party/ST/STM32L4xx_HAL_Driver/Src\stm32l4xx_hal_tim.c **** {
 338              		.loc 1 322 1
 339              		.cfi_startproc
 340              		@ args = 0, pretend = 0, frame = 8
 341              		@ frame_needed = 1, uses_anonymous_args = 0
 342              		@ link register save eliminated.
 343 0000 80B4     		push	{r7}
 344              	.LCFI28:
 345              		.cfi_def_cfa_offset 4
 346              		.cfi_offset 7, -4
 347 0002 83B0     		sub	sp, sp, #12
 348              	.LCFI29:
 349              		.cfi_def_cfa_offset 16
 350 0004 00AF     		add	r7, sp, #0
 351              	.LCFI30:
 352              		.cfi_def_cfa_register 7
 353 0006 7860     		str	r0, [r7, #4]
 323:d:/LiteOS_Lab/drivers/third_party/ST/STM32L4xx_HAL_Driver/Src\stm32l4xx_hal_tim.c ****   /* Check the parameters */
 324:d:/LiteOS_Lab/drivers/third_party/ST/STM32L4xx_HAL_Driver/Src\stm32l4xx_hal_tim.c ****   assert_param(IS_TIM_INSTANCE(htim->Instance));
 325:d:/LiteOS_Lab/drivers/third_party/ST/STM32L4xx_HAL_Driver/Src\stm32l4xx_hal_tim.c **** 
 326:d:/LiteOS_Lab/drivers/third_party/ST/STM32L4xx_HAL_Driver/Src\stm32l4xx_hal_tim.c ****   /* Set the TIM state */
 327:d:/LiteOS_Lab/drivers/third_party/ST/STM32L4xx_HAL_Driver/Src\stm32l4xx_hal_tim.c ****   htim->State= HAL_TIM_STATE_BUSY;
 354              		.loc 1 327 14
 355 0008 7B68     		ldr	r3, [r7, #4]
 356 000a 0222     		movs	r2, #2
 357 000c 83F83D20 		strb	r2, [r3, #61]
 328:d:/LiteOS_Lab/drivers/third_party/ST/STM32L4xx_HAL_Driver/Src\stm32l4xx_hal_tim.c **** 
 329:d:/LiteOS_Lab/drivers/third_party/ST/STM32L4xx_HAL_Driver/Src\stm32l4xx_hal_tim.c ****   /* Disable the Peripheral */
 330:d:/LiteOS_Lab/drivers/third_party/ST/STM32L4xx_HAL_Driver/Src\stm32l4xx_hal_tim.c ****   __HAL_TIM_DISABLE(htim);
 358              		.loc 1 330 3
 359 0010 7B68     		ldr	r3, [r7, #4]
 360 0012 1B68     		ldr	r3, [r3]
 361 0014 1A6A     		ldr	r2, [r3, #32]
 362 0016 41F21113 		movw	r3, #4369
 363 001a 1340     		ands	r3, r3, r2
 364 001c 002B     		cmp	r3, #0
 365 001e 0FD1     		bne	.L13
ARM GAS  C:\Users\ADMINI~1\AppData\Local\Temp\cccB3BZw.s 			page 13


 366              		.loc 1 330 3 is_stmt 0 discriminator 1
 367 0020 7B68     		ldr	r3, [r7, #4]
 368 0022 1B68     		ldr	r3, [r3]
 369 0024 1A6A     		ldr	r2, [r3, #32]
 370 0026 40F24443 		movw	r3, #1092
 371 002a 1340     		ands	r3, r3, r2
 372 002c 002B     		cmp	r3, #0
 373 002e 07D1     		bne	.L13
 374              		.loc 1 330 3 discriminator 2
 375 0030 7B68     		ldr	r3, [r7, #4]
 376 0032 1B68     		ldr	r3, [r3]
 377 0034 1A68     		ldr	r2, [r3]
 378 0036 7B68     		ldr	r3, [r7, #4]
 379 0038 1B68     		ldr	r3, [r3]
 380 003a 22F00102 		bic	r2, r2, #1
 381 003e 1A60     		str	r2, [r3]
 382              	.L13:
 331:d:/LiteOS_Lab/drivers/third_party/ST/STM32L4xx_HAL_Driver/Src\stm32l4xx_hal_tim.c **** 
 332:d:/LiteOS_Lab/drivers/third_party/ST/STM32L4xx_HAL_Driver/Src\stm32l4xx_hal_tim.c ****   /* Change the TIM state*/
 333:d:/LiteOS_Lab/drivers/third_party/ST/STM32L4xx_HAL_Driver/Src\stm32l4xx_hal_tim.c ****   htim->State= HAL_TIM_STATE_READY;
 383              		.loc 1 333 14 is_stmt 1
 384 0040 7B68     		ldr	r3, [r7, #4]
 385 0042 0122     		movs	r2, #1
 386 0044 83F83D20 		strb	r2, [r3, #61]
 334:d:/LiteOS_Lab/drivers/third_party/ST/STM32L4xx_HAL_Driver/Src\stm32l4xx_hal_tim.c **** 
 335:d:/LiteOS_Lab/drivers/third_party/ST/STM32L4xx_HAL_Driver/Src\stm32l4xx_hal_tim.c ****   /* Return function status */
 336:d:/LiteOS_Lab/drivers/third_party/ST/STM32L4xx_HAL_Driver/Src\stm32l4xx_hal_tim.c ****   return HAL_OK;
 387              		.loc 1 336 10
 388 0048 0023     		movs	r3, #0
 337:d:/LiteOS_Lab/drivers/third_party/ST/STM32L4xx_HAL_Driver/Src\stm32l4xx_hal_tim.c **** }
 389              		.loc 1 337 1
 390 004a 1846     		mov	r0, r3
 391 004c 0C37     		adds	r7, r7, #12
 392              	.LCFI31:
 393              		.cfi_def_cfa_offset 4
 394 004e BD46     		mov	sp, r7
 395              	.LCFI32:
 396              		.cfi_def_cfa_register 13
 397              		@ sp needed
 398 0050 5DF8047B 		ldr	r7, [sp], #4
 399              	.LCFI33:
 400              		.cfi_restore 7
 401              		.cfi_def_cfa_offset 0
 402 0054 7047     		bx	lr
 403              		.cfi_endproc
 404              	.LFE292:
 406              		.section	.text.HAL_TIM_Base_Start_IT,"ax",%progbits
 407              		.align	1
 408              		.global	HAL_TIM_Base_Start_IT
 409              		.syntax unified
 410              		.thumb
 411              		.thumb_func
 412              		.fpu fpv4-sp-d16
 414              	HAL_TIM_Base_Start_IT:
 415              	.LFB293:
 338:d:/LiteOS_Lab/drivers/third_party/ST/STM32L4xx_HAL_Driver/Src\stm32l4xx_hal_tim.c **** 
 339:d:/LiteOS_Lab/drivers/third_party/ST/STM32L4xx_HAL_Driver/Src\stm32l4xx_hal_tim.c **** /**
ARM GAS  C:\Users\ADMINI~1\AppData\Local\Temp\cccB3BZw.s 			page 14


 340:d:/LiteOS_Lab/drivers/third_party/ST/STM32L4xx_HAL_Driver/Src\stm32l4xx_hal_tim.c ****   * @brief  Starts the TIM Base generation in interrupt mode.
 341:d:/LiteOS_Lab/drivers/third_party/ST/STM32L4xx_HAL_Driver/Src\stm32l4xx_hal_tim.c ****   * @param  htim TIM handle
 342:d:/LiteOS_Lab/drivers/third_party/ST/STM32L4xx_HAL_Driver/Src\stm32l4xx_hal_tim.c ****   * @retval HAL status
 343:d:/LiteOS_Lab/drivers/third_party/ST/STM32L4xx_HAL_Driver/Src\stm32l4xx_hal_tim.c **** */
 344:d:/LiteOS_Lab/drivers/third_party/ST/STM32L4xx_HAL_Driver/Src\stm32l4xx_hal_tim.c **** HAL_StatusTypeDef HAL_TIM_Base_Start_IT(TIM_HandleTypeDef *htim)
 345:d:/LiteOS_Lab/drivers/third_party/ST/STM32L4xx_HAL_Driver/Src\stm32l4xx_hal_tim.c **** {
 416              		.loc 1 345 1
 417              		.cfi_startproc
 418              		@ args = 0, pretend = 0, frame = 8
 419              		@ frame_needed = 1, uses_anonymous_args = 0
 420              		@ link register save eliminated.
 421 0000 80B4     		push	{r7}
 422              	.LCFI34:
 423              		.cfi_def_cfa_offset 4
 424              		.cfi_offset 7, -4
 425 0002 83B0     		sub	sp, sp, #12
 426              	.LCFI35:
 427              		.cfi_def_cfa_offset 16
 428 0004 00AF     		add	r7, sp, #0
 429              	.LCFI36:
 430              		.cfi_def_cfa_register 7
 431 0006 7860     		str	r0, [r7, #4]
 346:d:/LiteOS_Lab/drivers/third_party/ST/STM32L4xx_HAL_Driver/Src\stm32l4xx_hal_tim.c ****   /* Check the parameters */
 347:d:/LiteOS_Lab/drivers/third_party/ST/STM32L4xx_HAL_Driver/Src\stm32l4xx_hal_tim.c ****   assert_param(IS_TIM_INSTANCE(htim->Instance));
 348:d:/LiteOS_Lab/drivers/third_party/ST/STM32L4xx_HAL_Driver/Src\stm32l4xx_hal_tim.c **** 
 349:d:/LiteOS_Lab/drivers/third_party/ST/STM32L4xx_HAL_Driver/Src\stm32l4xx_hal_tim.c ****    /* Enable the TIM Update interrupt */
 350:d:/LiteOS_Lab/drivers/third_party/ST/STM32L4xx_HAL_Driver/Src\stm32l4xx_hal_tim.c ****    __HAL_TIM_ENABLE_IT(htim, TIM_IT_UPDATE);
 432              		.loc 1 350 4
 433 0008 7B68     		ldr	r3, [r7, #4]
 434 000a 1B68     		ldr	r3, [r3]
 435 000c DA68     		ldr	r2, [r3, #12]
 436 000e 7B68     		ldr	r3, [r7, #4]
 437 0010 1B68     		ldr	r3, [r3]
 438 0012 42F00102 		orr	r2, r2, #1
 439 0016 DA60     		str	r2, [r3, #12]
 351:d:/LiteOS_Lab/drivers/third_party/ST/STM32L4xx_HAL_Driver/Src\stm32l4xx_hal_tim.c **** 
 352:d:/LiteOS_Lab/drivers/third_party/ST/STM32L4xx_HAL_Driver/Src\stm32l4xx_hal_tim.c ****    /* Enable the Peripheral */
 353:d:/LiteOS_Lab/drivers/third_party/ST/STM32L4xx_HAL_Driver/Src\stm32l4xx_hal_tim.c ****   __HAL_TIM_ENABLE(htim);
 440              		.loc 1 353 3
 441 0018 7B68     		ldr	r3, [r7, #4]
 442 001a 1B68     		ldr	r3, [r3]
 443 001c 1A68     		ldr	r2, [r3]
 444 001e 7B68     		ldr	r3, [r7, #4]
 445 0020 1B68     		ldr	r3, [r3]
 446 0022 42F00102 		orr	r2, r2, #1
 447 0026 1A60     		str	r2, [r3]
 354:d:/LiteOS_Lab/drivers/third_party/ST/STM32L4xx_HAL_Driver/Src\stm32l4xx_hal_tim.c **** 
 355:d:/LiteOS_Lab/drivers/third_party/ST/STM32L4xx_HAL_Driver/Src\stm32l4xx_hal_tim.c ****   /* Return function status */
 356:d:/LiteOS_Lab/drivers/third_party/ST/STM32L4xx_HAL_Driver/Src\stm32l4xx_hal_tim.c ****   return HAL_OK;
 448              		.loc 1 356 10
 449 0028 0023     		movs	r3, #0
 357:d:/LiteOS_Lab/drivers/third_party/ST/STM32L4xx_HAL_Driver/Src\stm32l4xx_hal_tim.c **** }
 450              		.loc 1 357 1
 451 002a 1846     		mov	r0, r3
 452 002c 0C37     		adds	r7, r7, #12
 453              	.LCFI37:
 454              		.cfi_def_cfa_offset 4
ARM GAS  C:\Users\ADMINI~1\AppData\Local\Temp\cccB3BZw.s 			page 15


 455 002e BD46     		mov	sp, r7
 456              	.LCFI38:
 457              		.cfi_def_cfa_register 13
 458              		@ sp needed
 459 0030 5DF8047B 		ldr	r7, [sp], #4
 460              	.LCFI39:
 461              		.cfi_restore 7
 462              		.cfi_def_cfa_offset 0
 463 0034 7047     		bx	lr
 464              		.cfi_endproc
 465              	.LFE293:
 467              		.section	.text.HAL_TIM_Base_Stop_IT,"ax",%progbits
 468              		.align	1
 469              		.global	HAL_TIM_Base_Stop_IT
 470              		.syntax unified
 471              		.thumb
 472              		.thumb_func
 473              		.fpu fpv4-sp-d16
 475              	HAL_TIM_Base_Stop_IT:
 476              	.LFB294:
 358:d:/LiteOS_Lab/drivers/third_party/ST/STM32L4xx_HAL_Driver/Src\stm32l4xx_hal_tim.c **** 
 359:d:/LiteOS_Lab/drivers/third_party/ST/STM32L4xx_HAL_Driver/Src\stm32l4xx_hal_tim.c **** /**
 360:d:/LiteOS_Lab/drivers/third_party/ST/STM32L4xx_HAL_Driver/Src\stm32l4xx_hal_tim.c ****   * @brief  Stops the TIM Base generation in interrupt mode.
 361:d:/LiteOS_Lab/drivers/third_party/ST/STM32L4xx_HAL_Driver/Src\stm32l4xx_hal_tim.c ****   * @param  htim TIM handle
 362:d:/LiteOS_Lab/drivers/third_party/ST/STM32L4xx_HAL_Driver/Src\stm32l4xx_hal_tim.c ****   * @retval HAL status
 363:d:/LiteOS_Lab/drivers/third_party/ST/STM32L4xx_HAL_Driver/Src\stm32l4xx_hal_tim.c **** */
 364:d:/LiteOS_Lab/drivers/third_party/ST/STM32L4xx_HAL_Driver/Src\stm32l4xx_hal_tim.c **** HAL_StatusTypeDef HAL_TIM_Base_Stop_IT(TIM_HandleTypeDef *htim)
 365:d:/LiteOS_Lab/drivers/third_party/ST/STM32L4xx_HAL_Driver/Src\stm32l4xx_hal_tim.c **** {
 477              		.loc 1 365 1
 478              		.cfi_startproc
 479              		@ args = 0, pretend = 0, frame = 8
 480              		@ frame_needed = 1, uses_anonymous_args = 0
 481              		@ link register save eliminated.
 482 0000 80B4     		push	{r7}
 483              	.LCFI40:
 484              		.cfi_def_cfa_offset 4
 485              		.cfi_offset 7, -4
 486 0002 83B0     		sub	sp, sp, #12
 487              	.LCFI41:
 488              		.cfi_def_cfa_offset 16
 489 0004 00AF     		add	r7, sp, #0
 490              	.LCFI42:
 491              		.cfi_def_cfa_register 7
 492 0006 7860     		str	r0, [r7, #4]
 366:d:/LiteOS_Lab/drivers/third_party/ST/STM32L4xx_HAL_Driver/Src\stm32l4xx_hal_tim.c ****   /* Check the parameters */
 367:d:/LiteOS_Lab/drivers/third_party/ST/STM32L4xx_HAL_Driver/Src\stm32l4xx_hal_tim.c ****   assert_param(IS_TIM_INSTANCE(htim->Instance));
 368:d:/LiteOS_Lab/drivers/third_party/ST/STM32L4xx_HAL_Driver/Src\stm32l4xx_hal_tim.c ****   /* Disable the TIM Update interrupt */
 369:d:/LiteOS_Lab/drivers/third_party/ST/STM32L4xx_HAL_Driver/Src\stm32l4xx_hal_tim.c ****   __HAL_TIM_DISABLE_IT(htim, TIM_IT_UPDATE);
 493              		.loc 1 369 3
 494 0008 7B68     		ldr	r3, [r7, #4]
 495 000a 1B68     		ldr	r3, [r3]
 496 000c DA68     		ldr	r2, [r3, #12]
 497 000e 7B68     		ldr	r3, [r7, #4]
 498 0010 1B68     		ldr	r3, [r3]
 499 0012 22F00102 		bic	r2, r2, #1
 500 0016 DA60     		str	r2, [r3, #12]
 370:d:/LiteOS_Lab/drivers/third_party/ST/STM32L4xx_HAL_Driver/Src\stm32l4xx_hal_tim.c **** 
ARM GAS  C:\Users\ADMINI~1\AppData\Local\Temp\cccB3BZw.s 			page 16


 371:d:/LiteOS_Lab/drivers/third_party/ST/STM32L4xx_HAL_Driver/Src\stm32l4xx_hal_tim.c ****   /* Disable the Peripheral */
 372:d:/LiteOS_Lab/drivers/third_party/ST/STM32L4xx_HAL_Driver/Src\stm32l4xx_hal_tim.c ****   __HAL_TIM_DISABLE(htim);
 501              		.loc 1 372 3
 502 0018 7B68     		ldr	r3, [r7, #4]
 503 001a 1B68     		ldr	r3, [r3]
 504 001c 1A6A     		ldr	r2, [r3, #32]
 505 001e 41F21113 		movw	r3, #4369
 506 0022 1340     		ands	r3, r3, r2
 507 0024 002B     		cmp	r3, #0
 508 0026 0FD1     		bne	.L18
 509              		.loc 1 372 3 is_stmt 0 discriminator 1
 510 0028 7B68     		ldr	r3, [r7, #4]
 511 002a 1B68     		ldr	r3, [r3]
 512 002c 1A6A     		ldr	r2, [r3, #32]
 513 002e 40F24443 		movw	r3, #1092
 514 0032 1340     		ands	r3, r3, r2
 515 0034 002B     		cmp	r3, #0
 516 0036 07D1     		bne	.L18
 517              		.loc 1 372 3 discriminator 2
 518 0038 7B68     		ldr	r3, [r7, #4]
 519 003a 1B68     		ldr	r3, [r3]
 520 003c 1A68     		ldr	r2, [r3]
 521 003e 7B68     		ldr	r3, [r7, #4]
 522 0040 1B68     		ldr	r3, [r3]
 523 0042 22F00102 		bic	r2, r2, #1
 524 0046 1A60     		str	r2, [r3]
 525              	.L18:
 373:d:/LiteOS_Lab/drivers/third_party/ST/STM32L4xx_HAL_Driver/Src\stm32l4xx_hal_tim.c **** 
 374:d:/LiteOS_Lab/drivers/third_party/ST/STM32L4xx_HAL_Driver/Src\stm32l4xx_hal_tim.c ****   /* Return function status */
 375:d:/LiteOS_Lab/drivers/third_party/ST/STM32L4xx_HAL_Driver/Src\stm32l4xx_hal_tim.c ****   return HAL_OK;
 526              		.loc 1 375 10 is_stmt 1
 527 0048 0023     		movs	r3, #0
 376:d:/LiteOS_Lab/drivers/third_party/ST/STM32L4xx_HAL_Driver/Src\stm32l4xx_hal_tim.c **** }
 528              		.loc 1 376 1
 529 004a 1846     		mov	r0, r3
 530 004c 0C37     		adds	r7, r7, #12
 531              	.LCFI43:
 532              		.cfi_def_cfa_offset 4
 533 004e BD46     		mov	sp, r7
 534              	.LCFI44:
 535              		.cfi_def_cfa_register 13
 536              		@ sp needed
 537 0050 5DF8047B 		ldr	r7, [sp], #4
 538              	.LCFI45:
 539              		.cfi_restore 7
 540              		.cfi_def_cfa_offset 0
 541 0054 7047     		bx	lr
 542              		.cfi_endproc
 543              	.LFE294:
 545              		.section	.text.HAL_TIM_Base_Start_DMA,"ax",%progbits
 546              		.align	1
 547              		.global	HAL_TIM_Base_Start_DMA
 548              		.syntax unified
 549              		.thumb
 550              		.thumb_func
 551              		.fpu fpv4-sp-d16
 553              	HAL_TIM_Base_Start_DMA:
ARM GAS  C:\Users\ADMINI~1\AppData\Local\Temp\cccB3BZw.s 			page 17


 554              	.LFB295:
 377:d:/LiteOS_Lab/drivers/third_party/ST/STM32L4xx_HAL_Driver/Src\stm32l4xx_hal_tim.c **** 
 378:d:/LiteOS_Lab/drivers/third_party/ST/STM32L4xx_HAL_Driver/Src\stm32l4xx_hal_tim.c **** /**
 379:d:/LiteOS_Lab/drivers/third_party/ST/STM32L4xx_HAL_Driver/Src\stm32l4xx_hal_tim.c ****   * @brief  Starts the TIM Base generation in DMA mode.
 380:d:/LiteOS_Lab/drivers/third_party/ST/STM32L4xx_HAL_Driver/Src\stm32l4xx_hal_tim.c ****   * @param  htim TIM handle
 381:d:/LiteOS_Lab/drivers/third_party/ST/STM32L4xx_HAL_Driver/Src\stm32l4xx_hal_tim.c ****   * @param  pData The source Buffer address.
 382:d:/LiteOS_Lab/drivers/third_party/ST/STM32L4xx_HAL_Driver/Src\stm32l4xx_hal_tim.c ****   * @param  Length The length of data to be transferred from memory to peripheral.
 383:d:/LiteOS_Lab/drivers/third_party/ST/STM32L4xx_HAL_Driver/Src\stm32l4xx_hal_tim.c ****   * @retval HAL status
 384:d:/LiteOS_Lab/drivers/third_party/ST/STM32L4xx_HAL_Driver/Src\stm32l4xx_hal_tim.c **** */
 385:d:/LiteOS_Lab/drivers/third_party/ST/STM32L4xx_HAL_Driver/Src\stm32l4xx_hal_tim.c **** HAL_StatusTypeDef HAL_TIM_Base_Start_DMA(TIM_HandleTypeDef *htim, uint32_t *pData, uint16_t Length)
 386:d:/LiteOS_Lab/drivers/third_party/ST/STM32L4xx_HAL_Driver/Src\stm32l4xx_hal_tim.c **** {
 555              		.loc 1 386 1
 556              		.cfi_startproc
 557              		@ args = 0, pretend = 0, frame = 16
 558              		@ frame_needed = 1, uses_anonymous_args = 0
 559 0000 80B5     		push	{r7, lr}
 560              	.LCFI46:
 561              		.cfi_def_cfa_offset 8
 562              		.cfi_offset 7, -8
 563              		.cfi_offset 14, -4
 564 0002 84B0     		sub	sp, sp, #16
 565              	.LCFI47:
 566              		.cfi_def_cfa_offset 24
 567 0004 00AF     		add	r7, sp, #0
 568              	.LCFI48:
 569              		.cfi_def_cfa_register 7
 570 0006 F860     		str	r0, [r7, #12]
 571 0008 B960     		str	r1, [r7, #8]
 572 000a 1346     		mov	r3, r2
 573 000c FB80     		strh	r3, [r7, #6]	@ movhi
 387:d:/LiteOS_Lab/drivers/third_party/ST/STM32L4xx_HAL_Driver/Src\stm32l4xx_hal_tim.c ****   /* Check the parameters */
 388:d:/LiteOS_Lab/drivers/third_party/ST/STM32L4xx_HAL_Driver/Src\stm32l4xx_hal_tim.c ****   assert_param(IS_TIM_DMA_INSTANCE(htim->Instance));
 389:d:/LiteOS_Lab/drivers/third_party/ST/STM32L4xx_HAL_Driver/Src\stm32l4xx_hal_tim.c **** 
 390:d:/LiteOS_Lab/drivers/third_party/ST/STM32L4xx_HAL_Driver/Src\stm32l4xx_hal_tim.c ****   if((htim->State == HAL_TIM_STATE_BUSY))
 574              		.loc 1 390 11
 575 000e FB68     		ldr	r3, [r7, #12]
 576 0010 93F83D30 		ldrb	r3, [r3, #61]
 577 0014 DBB2     		uxtb	r3, r3
 578              		.loc 1 390 5
 579 0016 022B     		cmp	r3, #2
 580 0018 01D1     		bne	.L21
 391:d:/LiteOS_Lab/drivers/third_party/ST/STM32L4xx_HAL_Driver/Src\stm32l4xx_hal_tim.c ****   {
 392:d:/LiteOS_Lab/drivers/third_party/ST/STM32L4xx_HAL_Driver/Src\stm32l4xx_hal_tim.c ****      return HAL_BUSY;
 581              		.loc 1 392 13
 582 001a 0223     		movs	r3, #2
 583 001c 34E0     		b	.L22
 584              	.L21:
 393:d:/LiteOS_Lab/drivers/third_party/ST/STM32L4xx_HAL_Driver/Src\stm32l4xx_hal_tim.c ****   }
 394:d:/LiteOS_Lab/drivers/third_party/ST/STM32L4xx_HAL_Driver/Src\stm32l4xx_hal_tim.c ****   else if((htim->State == HAL_TIM_STATE_READY))
 585              		.loc 1 394 16
 586 001e FB68     		ldr	r3, [r7, #12]
 587 0020 93F83D30 		ldrb	r3, [r3, #61]
 588 0024 DBB2     		uxtb	r3, r3
 589              		.loc 1 394 10
 590 0026 012B     		cmp	r3, #1
 591 0028 0BD1     		bne	.L23
 395:d:/LiteOS_Lab/drivers/third_party/ST/STM32L4xx_HAL_Driver/Src\stm32l4xx_hal_tim.c ****   {
ARM GAS  C:\Users\ADMINI~1\AppData\Local\Temp\cccB3BZw.s 			page 18


 396:d:/LiteOS_Lab/drivers/third_party/ST/STM32L4xx_HAL_Driver/Src\stm32l4xx_hal_tim.c ****     if((pData == 0 ) && (Length > 0))
 592              		.loc 1 396 7
 593 002a BB68     		ldr	r3, [r7, #8]
 594 002c 002B     		cmp	r3, #0
 595 002e 04D1     		bne	.L24
 596              		.loc 1 396 22 discriminator 1
 597 0030 FB88     		ldrh	r3, [r7, #6]
 598 0032 002B     		cmp	r3, #0
 599 0034 01D0     		beq	.L24
 397:d:/LiteOS_Lab/drivers/third_party/ST/STM32L4xx_HAL_Driver/Src\stm32l4xx_hal_tim.c ****     {
 398:d:/LiteOS_Lab/drivers/third_party/ST/STM32L4xx_HAL_Driver/Src\stm32l4xx_hal_tim.c ****       return HAL_ERROR;
 600              		.loc 1 398 14
 601 0036 0123     		movs	r3, #1
 602 0038 26E0     		b	.L22
 603              	.L24:
 399:d:/LiteOS_Lab/drivers/third_party/ST/STM32L4xx_HAL_Driver/Src\stm32l4xx_hal_tim.c ****     }
 400:d:/LiteOS_Lab/drivers/third_party/ST/STM32L4xx_HAL_Driver/Src\stm32l4xx_hal_tim.c ****     else
 401:d:/LiteOS_Lab/drivers/third_party/ST/STM32L4xx_HAL_Driver/Src\stm32l4xx_hal_tim.c ****     {
 402:d:/LiteOS_Lab/drivers/third_party/ST/STM32L4xx_HAL_Driver/Src\stm32l4xx_hal_tim.c ****       htim->State = HAL_TIM_STATE_BUSY;
 604              		.loc 1 402 19
 605 003a FB68     		ldr	r3, [r7, #12]
 606 003c 0222     		movs	r2, #2
 607 003e 83F83D20 		strb	r2, [r3, #61]
 608              	.L23:
 403:d:/LiteOS_Lab/drivers/third_party/ST/STM32L4xx_HAL_Driver/Src\stm32l4xx_hal_tim.c ****     }
 404:d:/LiteOS_Lab/drivers/third_party/ST/STM32L4xx_HAL_Driver/Src\stm32l4xx_hal_tim.c ****   }
 405:d:/LiteOS_Lab/drivers/third_party/ST/STM32L4xx_HAL_Driver/Src\stm32l4xx_hal_tim.c ****   /* Set the DMA Period elapsed callback */
 406:d:/LiteOS_Lab/drivers/third_party/ST/STM32L4xx_HAL_Driver/Src\stm32l4xx_hal_tim.c ****   htim->hdma[TIM_DMA_ID_UPDATE]->XferCpltCallback = TIM_DMAPeriodElapsedCplt;
 609              		.loc 1 406 13
 610 0042 FB68     		ldr	r3, [r7, #12]
 611 0044 1B6A     		ldr	r3, [r3, #32]
 612              		.loc 1 406 51
 613 0046 124A     		ldr	r2, .L25
 614 0048 DA62     		str	r2, [r3, #44]
 407:d:/LiteOS_Lab/drivers/third_party/ST/STM32L4xx_HAL_Driver/Src\stm32l4xx_hal_tim.c **** 
 408:d:/LiteOS_Lab/drivers/third_party/ST/STM32L4xx_HAL_Driver/Src\stm32l4xx_hal_tim.c ****   /* Set the DMA error callback */
 409:d:/LiteOS_Lab/drivers/third_party/ST/STM32L4xx_HAL_Driver/Src\stm32l4xx_hal_tim.c ****   htim->hdma[TIM_DMA_ID_UPDATE]->XferErrorCallback = TIM_DMAError ;
 615              		.loc 1 409 13
 616 004a FB68     		ldr	r3, [r7, #12]
 617 004c 1B6A     		ldr	r3, [r3, #32]
 618              		.loc 1 409 52
 619 004e 114A     		ldr	r2, .L25+4
 620 0050 5A63     		str	r2, [r3, #52]
 410:d:/LiteOS_Lab/drivers/third_party/ST/STM32L4xx_HAL_Driver/Src\stm32l4xx_hal_tim.c **** 
 411:d:/LiteOS_Lab/drivers/third_party/ST/STM32L4xx_HAL_Driver/Src\stm32l4xx_hal_tim.c ****   /* Enable the DMA channel */
 412:d:/LiteOS_Lab/drivers/third_party/ST/STM32L4xx_HAL_Driver/Src\stm32l4xx_hal_tim.c ****   HAL_DMA_Start_IT(htim->hdma[TIM_DMA_ID_UPDATE], (uint32_t)pData, (uint32_t)&htim->Instance->ARR, 
 621              		.loc 1 412 3
 622 0052 FB68     		ldr	r3, [r7, #12]
 623 0054 186A     		ldr	r0, [r3, #32]
 624 0056 B968     		ldr	r1, [r7, #8]
 625              		.loc 1 412 83
 626 0058 FB68     		ldr	r3, [r7, #12]
 627 005a 1B68     		ldr	r3, [r3]
 628              		.loc 1 412 78
 629 005c 2C33     		adds	r3, r3, #44
 630              		.loc 1 412 3
 631 005e 1A46     		mov	r2, r3
ARM GAS  C:\Users\ADMINI~1\AppData\Local\Temp\cccB3BZw.s 			page 19


 632 0060 FB88     		ldrh	r3, [r7, #6]
 633 0062 FFF7FEFF 		bl	HAL_DMA_Start_IT
 413:d:/LiteOS_Lab/drivers/third_party/ST/STM32L4xx_HAL_Driver/Src\stm32l4xx_hal_tim.c **** 
 414:d:/LiteOS_Lab/drivers/third_party/ST/STM32L4xx_HAL_Driver/Src\stm32l4xx_hal_tim.c ****   /* Enable the TIM Update DMA request */
 415:d:/LiteOS_Lab/drivers/third_party/ST/STM32L4xx_HAL_Driver/Src\stm32l4xx_hal_tim.c ****   __HAL_TIM_ENABLE_DMA(htim, TIM_DMA_UPDATE);
 634              		.loc 1 415 3
 635 0066 FB68     		ldr	r3, [r7, #12]
 636 0068 1B68     		ldr	r3, [r3]
 637 006a DA68     		ldr	r2, [r3, #12]
 638 006c FB68     		ldr	r3, [r7, #12]
 639 006e 1B68     		ldr	r3, [r3]
 640 0070 42F48072 		orr	r2, r2, #256
 641 0074 DA60     		str	r2, [r3, #12]
 416:d:/LiteOS_Lab/drivers/third_party/ST/STM32L4xx_HAL_Driver/Src\stm32l4xx_hal_tim.c **** 
 417:d:/LiteOS_Lab/drivers/third_party/ST/STM32L4xx_HAL_Driver/Src\stm32l4xx_hal_tim.c ****   /* Enable the Peripheral */
 418:d:/LiteOS_Lab/drivers/third_party/ST/STM32L4xx_HAL_Driver/Src\stm32l4xx_hal_tim.c ****   __HAL_TIM_ENABLE(htim);
 642              		.loc 1 418 3
 643 0076 FB68     		ldr	r3, [r7, #12]
 644 0078 1B68     		ldr	r3, [r3]
 645 007a 1A68     		ldr	r2, [r3]
 646 007c FB68     		ldr	r3, [r7, #12]
 647 007e 1B68     		ldr	r3, [r3]
 648 0080 42F00102 		orr	r2, r2, #1
 649 0084 1A60     		str	r2, [r3]
 419:d:/LiteOS_Lab/drivers/third_party/ST/STM32L4xx_HAL_Driver/Src\stm32l4xx_hal_tim.c **** 
 420:d:/LiteOS_Lab/drivers/third_party/ST/STM32L4xx_HAL_Driver/Src\stm32l4xx_hal_tim.c ****   /* Return function status */
 421:d:/LiteOS_Lab/drivers/third_party/ST/STM32L4xx_HAL_Driver/Src\stm32l4xx_hal_tim.c ****   return HAL_OK;
 650              		.loc 1 421 10
 651 0086 0023     		movs	r3, #0
 652              	.L22:
 422:d:/LiteOS_Lab/drivers/third_party/ST/STM32L4xx_HAL_Driver/Src\stm32l4xx_hal_tim.c **** }
 653              		.loc 1 422 1
 654 0088 1846     		mov	r0, r3
 655 008a 1037     		adds	r7, r7, #16
 656              	.LCFI49:
 657              		.cfi_def_cfa_offset 8
 658 008c BD46     		mov	sp, r7
 659              	.LCFI50:
 660              		.cfi_def_cfa_register 13
 661              		@ sp needed
 662 008e 80BD     		pop	{r7, pc}
 663              	.L26:
 664              		.align	2
 665              	.L25:
 666 0090 00000000 		.word	TIM_DMAPeriodElapsedCplt
 667 0094 00000000 		.word	TIM_DMAError
 668              		.cfi_endproc
 669              	.LFE295:
 671              		.section	.text.HAL_TIM_Base_Stop_DMA,"ax",%progbits
 672              		.align	1
 673              		.global	HAL_TIM_Base_Stop_DMA
 674              		.syntax unified
 675              		.thumb
 676              		.thumb_func
 677              		.fpu fpv4-sp-d16
 679              	HAL_TIM_Base_Stop_DMA:
 680              	.LFB296:
ARM GAS  C:\Users\ADMINI~1\AppData\Local\Temp\cccB3BZw.s 			page 20


 423:d:/LiteOS_Lab/drivers/third_party/ST/STM32L4xx_HAL_Driver/Src\stm32l4xx_hal_tim.c **** 
 424:d:/LiteOS_Lab/drivers/third_party/ST/STM32L4xx_HAL_Driver/Src\stm32l4xx_hal_tim.c **** /**
 425:d:/LiteOS_Lab/drivers/third_party/ST/STM32L4xx_HAL_Driver/Src\stm32l4xx_hal_tim.c ****   * @brief  Stops the TIM Base generation in DMA mode.
 426:d:/LiteOS_Lab/drivers/third_party/ST/STM32L4xx_HAL_Driver/Src\stm32l4xx_hal_tim.c ****   * @param  htim TIM handle
 427:d:/LiteOS_Lab/drivers/third_party/ST/STM32L4xx_HAL_Driver/Src\stm32l4xx_hal_tim.c ****   * @retval HAL status
 428:d:/LiteOS_Lab/drivers/third_party/ST/STM32L4xx_HAL_Driver/Src\stm32l4xx_hal_tim.c **** */
 429:d:/LiteOS_Lab/drivers/third_party/ST/STM32L4xx_HAL_Driver/Src\stm32l4xx_hal_tim.c **** HAL_StatusTypeDef HAL_TIM_Base_Stop_DMA(TIM_HandleTypeDef *htim)
 430:d:/LiteOS_Lab/drivers/third_party/ST/STM32L4xx_HAL_Driver/Src\stm32l4xx_hal_tim.c **** {
 681              		.loc 1 430 1
 682              		.cfi_startproc
 683              		@ args = 0, pretend = 0, frame = 8
 684              		@ frame_needed = 1, uses_anonymous_args = 0
 685              		@ link register save eliminated.
 686 0000 80B4     		push	{r7}
 687              	.LCFI51:
 688              		.cfi_def_cfa_offset 4
 689              		.cfi_offset 7, -4
 690 0002 83B0     		sub	sp, sp, #12
 691              	.LCFI52:
 692              		.cfi_def_cfa_offset 16
 693 0004 00AF     		add	r7, sp, #0
 694              	.LCFI53:
 695              		.cfi_def_cfa_register 7
 696 0006 7860     		str	r0, [r7, #4]
 431:d:/LiteOS_Lab/drivers/third_party/ST/STM32L4xx_HAL_Driver/Src\stm32l4xx_hal_tim.c ****   /* Check the parameters */
 432:d:/LiteOS_Lab/drivers/third_party/ST/STM32L4xx_HAL_Driver/Src\stm32l4xx_hal_tim.c ****   assert_param(IS_TIM_DMA_INSTANCE(htim->Instance));
 433:d:/LiteOS_Lab/drivers/third_party/ST/STM32L4xx_HAL_Driver/Src\stm32l4xx_hal_tim.c **** 
 434:d:/LiteOS_Lab/drivers/third_party/ST/STM32L4xx_HAL_Driver/Src\stm32l4xx_hal_tim.c ****   /* Disable the TIM Update DMA request */
 435:d:/LiteOS_Lab/drivers/third_party/ST/STM32L4xx_HAL_Driver/Src\stm32l4xx_hal_tim.c ****   __HAL_TIM_DISABLE_DMA(htim, TIM_DMA_UPDATE);
 697              		.loc 1 435 3
 698 0008 7B68     		ldr	r3, [r7, #4]
 699 000a 1B68     		ldr	r3, [r3]
 700 000c DA68     		ldr	r2, [r3, #12]
 701 000e 7B68     		ldr	r3, [r7, #4]
 702 0010 1B68     		ldr	r3, [r3]
 703 0012 22F48072 		bic	r2, r2, #256
 704 0016 DA60     		str	r2, [r3, #12]
 436:d:/LiteOS_Lab/drivers/third_party/ST/STM32L4xx_HAL_Driver/Src\stm32l4xx_hal_tim.c **** 
 437:d:/LiteOS_Lab/drivers/third_party/ST/STM32L4xx_HAL_Driver/Src\stm32l4xx_hal_tim.c ****   /* Disable the Peripheral */
 438:d:/LiteOS_Lab/drivers/third_party/ST/STM32L4xx_HAL_Driver/Src\stm32l4xx_hal_tim.c ****   __HAL_TIM_DISABLE(htim);
 705              		.loc 1 438 3
 706 0018 7B68     		ldr	r3, [r7, #4]
 707 001a 1B68     		ldr	r3, [r3]
 708 001c 1A6A     		ldr	r2, [r3, #32]
 709 001e 41F21113 		movw	r3, #4369
 710 0022 1340     		ands	r3, r3, r2
 711 0024 002B     		cmp	r3, #0
 712 0026 0FD1     		bne	.L28
 713              		.loc 1 438 3 is_stmt 0 discriminator 1
 714 0028 7B68     		ldr	r3, [r7, #4]
 715 002a 1B68     		ldr	r3, [r3]
 716 002c 1A6A     		ldr	r2, [r3, #32]
 717 002e 40F24443 		movw	r3, #1092
 718 0032 1340     		ands	r3, r3, r2
 719 0034 002B     		cmp	r3, #0
 720 0036 07D1     		bne	.L28
 721              		.loc 1 438 3 discriminator 2
ARM GAS  C:\Users\ADMINI~1\AppData\Local\Temp\cccB3BZw.s 			page 21


 722 0038 7B68     		ldr	r3, [r7, #4]
 723 003a 1B68     		ldr	r3, [r3]
 724 003c 1A68     		ldr	r2, [r3]
 725 003e 7B68     		ldr	r3, [r7, #4]
 726 0040 1B68     		ldr	r3, [r3]
 727 0042 22F00102 		bic	r2, r2, #1
 728 0046 1A60     		str	r2, [r3]
 729              	.L28:
 439:d:/LiteOS_Lab/drivers/third_party/ST/STM32L4xx_HAL_Driver/Src\stm32l4xx_hal_tim.c **** 
 440:d:/LiteOS_Lab/drivers/third_party/ST/STM32L4xx_HAL_Driver/Src\stm32l4xx_hal_tim.c ****   /* Change the htim state */
 441:d:/LiteOS_Lab/drivers/third_party/ST/STM32L4xx_HAL_Driver/Src\stm32l4xx_hal_tim.c ****   htim->State = HAL_TIM_STATE_READY;
 730              		.loc 1 441 15 is_stmt 1
 731 0048 7B68     		ldr	r3, [r7, #4]
 732 004a 0122     		movs	r2, #1
 733 004c 83F83D20 		strb	r2, [r3, #61]
 442:d:/LiteOS_Lab/drivers/third_party/ST/STM32L4xx_HAL_Driver/Src\stm32l4xx_hal_tim.c **** 
 443:d:/LiteOS_Lab/drivers/third_party/ST/STM32L4xx_HAL_Driver/Src\stm32l4xx_hal_tim.c ****   /* Return function status */
 444:d:/LiteOS_Lab/drivers/third_party/ST/STM32L4xx_HAL_Driver/Src\stm32l4xx_hal_tim.c ****   return HAL_OK;
 734              		.loc 1 444 10
 735 0050 0023     		movs	r3, #0
 445:d:/LiteOS_Lab/drivers/third_party/ST/STM32L4xx_HAL_Driver/Src\stm32l4xx_hal_tim.c **** }
 736              		.loc 1 445 1
 737 0052 1846     		mov	r0, r3
 738 0054 0C37     		adds	r7, r7, #12
 739              	.LCFI54:
 740              		.cfi_def_cfa_offset 4
 741 0056 BD46     		mov	sp, r7
 742              	.LCFI55:
 743              		.cfi_def_cfa_register 13
 744              		@ sp needed
 745 0058 5DF8047B 		ldr	r7, [sp], #4
 746              	.LCFI56:
 747              		.cfi_restore 7
 748              		.cfi_def_cfa_offset 0
 749 005c 7047     		bx	lr
 750              		.cfi_endproc
 751              	.LFE296:
 753              		.section	.text.HAL_TIM_OC_Init,"ax",%progbits
 754              		.align	1
 755              		.global	HAL_TIM_OC_Init
 756              		.syntax unified
 757              		.thumb
 758              		.thumb_func
 759              		.fpu fpv4-sp-d16
 761              	HAL_TIM_OC_Init:
 762              	.LFB297:
 446:d:/LiteOS_Lab/drivers/third_party/ST/STM32L4xx_HAL_Driver/Src\stm32l4xx_hal_tim.c **** 
 447:d:/LiteOS_Lab/drivers/third_party/ST/STM32L4xx_HAL_Driver/Src\stm32l4xx_hal_tim.c **** /**
 448:d:/LiteOS_Lab/drivers/third_party/ST/STM32L4xx_HAL_Driver/Src\stm32l4xx_hal_tim.c ****   * @}
 449:d:/LiteOS_Lab/drivers/third_party/ST/STM32L4xx_HAL_Driver/Src\stm32l4xx_hal_tim.c ****   */
 450:d:/LiteOS_Lab/drivers/third_party/ST/STM32L4xx_HAL_Driver/Src\stm32l4xx_hal_tim.c **** 
 451:d:/LiteOS_Lab/drivers/third_party/ST/STM32L4xx_HAL_Driver/Src\stm32l4xx_hal_tim.c **** /** @defgroup TIM_Exported_Functions_Group2 Time Output Compare functions
 452:d:/LiteOS_Lab/drivers/third_party/ST/STM32L4xx_HAL_Driver/Src\stm32l4xx_hal_tim.c ****  *  @brief    Time Output Compare functions
 453:d:/LiteOS_Lab/drivers/third_party/ST/STM32L4xx_HAL_Driver/Src\stm32l4xx_hal_tim.c ****  *
 454:d:/LiteOS_Lab/drivers/third_party/ST/STM32L4xx_HAL_Driver/Src\stm32l4xx_hal_tim.c **** @verbatim
 455:d:/LiteOS_Lab/drivers/third_party/ST/STM32L4xx_HAL_Driver/Src\stm32l4xx_hal_tim.c ****   ==============================================================================
 456:d:/LiteOS_Lab/drivers/third_party/ST/STM32L4xx_HAL_Driver/Src\stm32l4xx_hal_tim.c ****                   ##### Time Output Compare functions #####
ARM GAS  C:\Users\ADMINI~1\AppData\Local\Temp\cccB3BZw.s 			page 22


 457:d:/LiteOS_Lab/drivers/third_party/ST/STM32L4xx_HAL_Driver/Src\stm32l4xx_hal_tim.c ****   ==============================================================================
 458:d:/LiteOS_Lab/drivers/third_party/ST/STM32L4xx_HAL_Driver/Src\stm32l4xx_hal_tim.c ****   [..]
 459:d:/LiteOS_Lab/drivers/third_party/ST/STM32L4xx_HAL_Driver/Src\stm32l4xx_hal_tim.c ****     This section provides functions allowing to:
 460:d:/LiteOS_Lab/drivers/third_party/ST/STM32L4xx_HAL_Driver/Src\stm32l4xx_hal_tim.c ****     (+) Initialize and configure the TIM Output Compare.
 461:d:/LiteOS_Lab/drivers/third_party/ST/STM32L4xx_HAL_Driver/Src\stm32l4xx_hal_tim.c ****     (+) De-initialize the TIM Output Compare.
 462:d:/LiteOS_Lab/drivers/third_party/ST/STM32L4xx_HAL_Driver/Src\stm32l4xx_hal_tim.c ****     (+) Start the Time Output Compare.
 463:d:/LiteOS_Lab/drivers/third_party/ST/STM32L4xx_HAL_Driver/Src\stm32l4xx_hal_tim.c ****     (+) Stop the Time Output Compare.
 464:d:/LiteOS_Lab/drivers/third_party/ST/STM32L4xx_HAL_Driver/Src\stm32l4xx_hal_tim.c ****     (+) Start the Time Output Compare and enable interrupt.
 465:d:/LiteOS_Lab/drivers/third_party/ST/STM32L4xx_HAL_Driver/Src\stm32l4xx_hal_tim.c ****     (+) Stop the Time Output Compare and disable interrupt.
 466:d:/LiteOS_Lab/drivers/third_party/ST/STM32L4xx_HAL_Driver/Src\stm32l4xx_hal_tim.c ****     (+) Start the Time Output Compare and enable DMA transfer.
 467:d:/LiteOS_Lab/drivers/third_party/ST/STM32L4xx_HAL_Driver/Src\stm32l4xx_hal_tim.c ****     (+) Stop the Time Output Compare and disable DMA transfer.
 468:d:/LiteOS_Lab/drivers/third_party/ST/STM32L4xx_HAL_Driver/Src\stm32l4xx_hal_tim.c **** 
 469:d:/LiteOS_Lab/drivers/third_party/ST/STM32L4xx_HAL_Driver/Src\stm32l4xx_hal_tim.c **** @endverbatim
 470:d:/LiteOS_Lab/drivers/third_party/ST/STM32L4xx_HAL_Driver/Src\stm32l4xx_hal_tim.c ****   * @{
 471:d:/LiteOS_Lab/drivers/third_party/ST/STM32L4xx_HAL_Driver/Src\stm32l4xx_hal_tim.c ****   */
 472:d:/LiteOS_Lab/drivers/third_party/ST/STM32L4xx_HAL_Driver/Src\stm32l4xx_hal_tim.c **** /**
 473:d:/LiteOS_Lab/drivers/third_party/ST/STM32L4xx_HAL_Driver/Src\stm32l4xx_hal_tim.c ****   * @brief  Initializes the TIM Output Compare according to the specified
 474:d:/LiteOS_Lab/drivers/third_party/ST/STM32L4xx_HAL_Driver/Src\stm32l4xx_hal_tim.c ****   *         parameters in the TIM_HandleTypeDef and initialize the associated handle.
 475:d:/LiteOS_Lab/drivers/third_party/ST/STM32L4xx_HAL_Driver/Src\stm32l4xx_hal_tim.c ****   * @note Switching from Center Aligned counter mode to Edge counter mode (or reverse)
 476:d:/LiteOS_Lab/drivers/third_party/ST/STM32L4xx_HAL_Driver/Src\stm32l4xx_hal_tim.c ****   *       requires a timer reset to avoid unexpected direction 
 477:d:/LiteOS_Lab/drivers/third_party/ST/STM32L4xx_HAL_Driver/Src\stm32l4xx_hal_tim.c ****   *       due to DIR bit readonly in center aligned mode.
 478:d:/LiteOS_Lab/drivers/third_party/ST/STM32L4xx_HAL_Driver/Src\stm32l4xx_hal_tim.c ****   *       Ex: call @ref HAL_TIM_OC_DeInit() before HAL_TIM_OC_Init()
 479:d:/LiteOS_Lab/drivers/third_party/ST/STM32L4xx_HAL_Driver/Src\stm32l4xx_hal_tim.c ****   * @param  htim TIM Output Compare handle
 480:d:/LiteOS_Lab/drivers/third_party/ST/STM32L4xx_HAL_Driver/Src\stm32l4xx_hal_tim.c ****   * @retval HAL status
 481:d:/LiteOS_Lab/drivers/third_party/ST/STM32L4xx_HAL_Driver/Src\stm32l4xx_hal_tim.c ****   */
 482:d:/LiteOS_Lab/drivers/third_party/ST/STM32L4xx_HAL_Driver/Src\stm32l4xx_hal_tim.c **** HAL_StatusTypeDef HAL_TIM_OC_Init(TIM_HandleTypeDef* htim)
 483:d:/LiteOS_Lab/drivers/third_party/ST/STM32L4xx_HAL_Driver/Src\stm32l4xx_hal_tim.c **** {
 763              		.loc 1 483 1
 764              		.cfi_startproc
 765              		@ args = 0, pretend = 0, frame = 8
 766              		@ frame_needed = 1, uses_anonymous_args = 0
 767 0000 80B5     		push	{r7, lr}
 768              	.LCFI57:
 769              		.cfi_def_cfa_offset 8
 770              		.cfi_offset 7, -8
 771              		.cfi_offset 14, -4
 772 0002 82B0     		sub	sp, sp, #8
 773              	.LCFI58:
 774              		.cfi_def_cfa_offset 16
 775 0004 00AF     		add	r7, sp, #0
 776              	.LCFI59:
 777              		.cfi_def_cfa_register 7
 778 0006 7860     		str	r0, [r7, #4]
 484:d:/LiteOS_Lab/drivers/third_party/ST/STM32L4xx_HAL_Driver/Src\stm32l4xx_hal_tim.c ****   /* Check the TIM handle allocation */
 485:d:/LiteOS_Lab/drivers/third_party/ST/STM32L4xx_HAL_Driver/Src\stm32l4xx_hal_tim.c ****   if(htim == NULL)
 779              		.loc 1 485 5
 780 0008 7B68     		ldr	r3, [r7, #4]
 781 000a 002B     		cmp	r3, #0
 782 000c 01D1     		bne	.L31
 486:d:/LiteOS_Lab/drivers/third_party/ST/STM32L4xx_HAL_Driver/Src\stm32l4xx_hal_tim.c ****   {
 487:d:/LiteOS_Lab/drivers/third_party/ST/STM32L4xx_HAL_Driver/Src\stm32l4xx_hal_tim.c ****     return HAL_ERROR;
 783              		.loc 1 487 12
 784 000e 0123     		movs	r3, #1
 785 0010 1DE0     		b	.L32
 786              	.L31:
 488:d:/LiteOS_Lab/drivers/third_party/ST/STM32L4xx_HAL_Driver/Src\stm32l4xx_hal_tim.c ****   }
 489:d:/LiteOS_Lab/drivers/third_party/ST/STM32L4xx_HAL_Driver/Src\stm32l4xx_hal_tim.c **** 
ARM GAS  C:\Users\ADMINI~1\AppData\Local\Temp\cccB3BZw.s 			page 23


 490:d:/LiteOS_Lab/drivers/third_party/ST/STM32L4xx_HAL_Driver/Src\stm32l4xx_hal_tim.c ****   /* Check the parameters */
 491:d:/LiteOS_Lab/drivers/third_party/ST/STM32L4xx_HAL_Driver/Src\stm32l4xx_hal_tim.c ****   assert_param(IS_TIM_INSTANCE(htim->Instance));
 492:d:/LiteOS_Lab/drivers/third_party/ST/STM32L4xx_HAL_Driver/Src\stm32l4xx_hal_tim.c ****   assert_param(IS_TIM_COUNTER_MODE(htim->Init.CounterMode));
 493:d:/LiteOS_Lab/drivers/third_party/ST/STM32L4xx_HAL_Driver/Src\stm32l4xx_hal_tim.c ****   assert_param(IS_TIM_CLOCKDIVISION_DIV(htim->Init.ClockDivision));
 494:d:/LiteOS_Lab/drivers/third_party/ST/STM32L4xx_HAL_Driver/Src\stm32l4xx_hal_tim.c ****   assert_param(IS_TIM_AUTORELOAD_PRELOAD(htim->Init.AutoReloadPreload));
 495:d:/LiteOS_Lab/drivers/third_party/ST/STM32L4xx_HAL_Driver/Src\stm32l4xx_hal_tim.c **** 
 496:d:/LiteOS_Lab/drivers/third_party/ST/STM32L4xx_HAL_Driver/Src\stm32l4xx_hal_tim.c ****   if(htim->State == HAL_TIM_STATE_RESET)
 787              		.loc 1 496 10
 788 0012 7B68     		ldr	r3, [r7, #4]
 789 0014 93F83D30 		ldrb	r3, [r3, #61]
 790 0018 DBB2     		uxtb	r3, r3
 791              		.loc 1 496 5
 792 001a 002B     		cmp	r3, #0
 793 001c 06D1     		bne	.L33
 497:d:/LiteOS_Lab/drivers/third_party/ST/STM32L4xx_HAL_Driver/Src\stm32l4xx_hal_tim.c ****   {
 498:d:/LiteOS_Lab/drivers/third_party/ST/STM32L4xx_HAL_Driver/Src\stm32l4xx_hal_tim.c ****     /* Allocate lock resource and initialize it */
 499:d:/LiteOS_Lab/drivers/third_party/ST/STM32L4xx_HAL_Driver/Src\stm32l4xx_hal_tim.c ****     htim->Lock = HAL_UNLOCKED;
 794              		.loc 1 499 16
 795 001e 7B68     		ldr	r3, [r7, #4]
 796 0020 0022     		movs	r2, #0
 797 0022 83F83C20 		strb	r2, [r3, #60]
 500:d:/LiteOS_Lab/drivers/third_party/ST/STM32L4xx_HAL_Driver/Src\stm32l4xx_hal_tim.c **** 
 501:d:/LiteOS_Lab/drivers/third_party/ST/STM32L4xx_HAL_Driver/Src\stm32l4xx_hal_tim.c ****     /* Init the low level hardware : GPIO, CLOCK, NVIC and DMA */
 502:d:/LiteOS_Lab/drivers/third_party/ST/STM32L4xx_HAL_Driver/Src\stm32l4xx_hal_tim.c ****     HAL_TIM_OC_MspInit(htim);
 798              		.loc 1 502 5
 799 0026 7868     		ldr	r0, [r7, #4]
 800 0028 FFF7FEFF 		bl	HAL_TIM_OC_MspInit
 801              	.L33:
 503:d:/LiteOS_Lab/drivers/third_party/ST/STM32L4xx_HAL_Driver/Src\stm32l4xx_hal_tim.c ****   }
 504:d:/LiteOS_Lab/drivers/third_party/ST/STM32L4xx_HAL_Driver/Src\stm32l4xx_hal_tim.c **** 
 505:d:/LiteOS_Lab/drivers/third_party/ST/STM32L4xx_HAL_Driver/Src\stm32l4xx_hal_tim.c ****   /* Set the TIM state */
 506:d:/LiteOS_Lab/drivers/third_party/ST/STM32L4xx_HAL_Driver/Src\stm32l4xx_hal_tim.c ****   htim->State= HAL_TIM_STATE_BUSY;
 802              		.loc 1 506 14
 803 002c 7B68     		ldr	r3, [r7, #4]
 804 002e 0222     		movs	r2, #2
 805 0030 83F83D20 		strb	r2, [r3, #61]
 507:d:/LiteOS_Lab/drivers/third_party/ST/STM32L4xx_HAL_Driver/Src\stm32l4xx_hal_tim.c **** 
 508:d:/LiteOS_Lab/drivers/third_party/ST/STM32L4xx_HAL_Driver/Src\stm32l4xx_hal_tim.c ****   /* Init the base time for the Output Compare */
 509:d:/LiteOS_Lab/drivers/third_party/ST/STM32L4xx_HAL_Driver/Src\stm32l4xx_hal_tim.c ****   TIM_Base_SetConfig(htim->Instance,  &htim->Init);
 806              		.loc 1 509 3
 807 0034 7B68     		ldr	r3, [r7, #4]
 808 0036 1A68     		ldr	r2, [r3]
 809 0038 7B68     		ldr	r3, [r7, #4]
 810 003a 0433     		adds	r3, r3, #4
 811 003c 1946     		mov	r1, r3
 812 003e 1046     		mov	r0, r2
 813 0040 FFF7FEFF 		bl	TIM_Base_SetConfig
 510:d:/LiteOS_Lab/drivers/third_party/ST/STM32L4xx_HAL_Driver/Src\stm32l4xx_hal_tim.c **** 
 511:d:/LiteOS_Lab/drivers/third_party/ST/STM32L4xx_HAL_Driver/Src\stm32l4xx_hal_tim.c ****   /* Initialize the TIM state*/
 512:d:/LiteOS_Lab/drivers/third_party/ST/STM32L4xx_HAL_Driver/Src\stm32l4xx_hal_tim.c ****   htim->State= HAL_TIM_STATE_READY;
 814              		.loc 1 512 14
 815 0044 7B68     		ldr	r3, [r7, #4]
 816 0046 0122     		movs	r2, #1
 817 0048 83F83D20 		strb	r2, [r3, #61]
 513:d:/LiteOS_Lab/drivers/third_party/ST/STM32L4xx_HAL_Driver/Src\stm32l4xx_hal_tim.c **** 
 514:d:/LiteOS_Lab/drivers/third_party/ST/STM32L4xx_HAL_Driver/Src\stm32l4xx_hal_tim.c ****   return HAL_OK;
 818              		.loc 1 514 10
ARM GAS  C:\Users\ADMINI~1\AppData\Local\Temp\cccB3BZw.s 			page 24


 819 004c 0023     		movs	r3, #0
 820              	.L32:
 515:d:/LiteOS_Lab/drivers/third_party/ST/STM32L4xx_HAL_Driver/Src\stm32l4xx_hal_tim.c **** }
 821              		.loc 1 515 1
 822 004e 1846     		mov	r0, r3
 823 0050 0837     		adds	r7, r7, #8
 824              	.LCFI60:
 825              		.cfi_def_cfa_offset 8
 826 0052 BD46     		mov	sp, r7
 827              	.LCFI61:
 828              		.cfi_def_cfa_register 13
 829              		@ sp needed
 830 0054 80BD     		pop	{r7, pc}
 831              		.cfi_endproc
 832              	.LFE297:
 834              		.section	.text.HAL_TIM_OC_DeInit,"ax",%progbits
 835              		.align	1
 836              		.global	HAL_TIM_OC_DeInit
 837              		.syntax unified
 838              		.thumb
 839              		.thumb_func
 840              		.fpu fpv4-sp-d16
 842              	HAL_TIM_OC_DeInit:
 843              	.LFB298:
 516:d:/LiteOS_Lab/drivers/third_party/ST/STM32L4xx_HAL_Driver/Src\stm32l4xx_hal_tim.c **** 
 517:d:/LiteOS_Lab/drivers/third_party/ST/STM32L4xx_HAL_Driver/Src\stm32l4xx_hal_tim.c **** /**
 518:d:/LiteOS_Lab/drivers/third_party/ST/STM32L4xx_HAL_Driver/Src\stm32l4xx_hal_tim.c ****   * @brief  DeInitialize the TIM peripheral
 519:d:/LiteOS_Lab/drivers/third_party/ST/STM32L4xx_HAL_Driver/Src\stm32l4xx_hal_tim.c ****   * @param  htim TIM Output Compare handle
 520:d:/LiteOS_Lab/drivers/third_party/ST/STM32L4xx_HAL_Driver/Src\stm32l4xx_hal_tim.c ****   * @retval HAL status
 521:d:/LiteOS_Lab/drivers/third_party/ST/STM32L4xx_HAL_Driver/Src\stm32l4xx_hal_tim.c ****   */
 522:d:/LiteOS_Lab/drivers/third_party/ST/STM32L4xx_HAL_Driver/Src\stm32l4xx_hal_tim.c **** HAL_StatusTypeDef HAL_TIM_OC_DeInit(TIM_HandleTypeDef *htim)
 523:d:/LiteOS_Lab/drivers/third_party/ST/STM32L4xx_HAL_Driver/Src\stm32l4xx_hal_tim.c **** {
 844              		.loc 1 523 1
 845              		.cfi_startproc
 846              		@ args = 0, pretend = 0, frame = 8
 847              		@ frame_needed = 1, uses_anonymous_args = 0
 848 0000 80B5     		push	{r7, lr}
 849              	.LCFI62:
 850              		.cfi_def_cfa_offset 8
 851              		.cfi_offset 7, -8
 852              		.cfi_offset 14, -4
 853 0002 82B0     		sub	sp, sp, #8
 854              	.LCFI63:
 855              		.cfi_def_cfa_offset 16
 856 0004 00AF     		add	r7, sp, #0
 857              	.LCFI64:
 858              		.cfi_def_cfa_register 7
 859 0006 7860     		str	r0, [r7, #4]
 524:d:/LiteOS_Lab/drivers/third_party/ST/STM32L4xx_HAL_Driver/Src\stm32l4xx_hal_tim.c ****   /* Check the parameters */
 525:d:/LiteOS_Lab/drivers/third_party/ST/STM32L4xx_HAL_Driver/Src\stm32l4xx_hal_tim.c ****   assert_param(IS_TIM_INSTANCE(htim->Instance));
 526:d:/LiteOS_Lab/drivers/third_party/ST/STM32L4xx_HAL_Driver/Src\stm32l4xx_hal_tim.c **** 
 527:d:/LiteOS_Lab/drivers/third_party/ST/STM32L4xx_HAL_Driver/Src\stm32l4xx_hal_tim.c ****    htim->State = HAL_TIM_STATE_BUSY;
 860              		.loc 1 527 16
 861 0008 7B68     		ldr	r3, [r7, #4]
 862 000a 0222     		movs	r2, #2
 863 000c 83F83D20 		strb	r2, [r3, #61]
 528:d:/LiteOS_Lab/drivers/third_party/ST/STM32L4xx_HAL_Driver/Src\stm32l4xx_hal_tim.c **** 
ARM GAS  C:\Users\ADMINI~1\AppData\Local\Temp\cccB3BZw.s 			page 25


 529:d:/LiteOS_Lab/drivers/third_party/ST/STM32L4xx_HAL_Driver/Src\stm32l4xx_hal_tim.c ****   /* Disable the TIM Peripheral Clock */
 530:d:/LiteOS_Lab/drivers/third_party/ST/STM32L4xx_HAL_Driver/Src\stm32l4xx_hal_tim.c ****   __HAL_TIM_DISABLE(htim);
 864              		.loc 1 530 3
 865 0010 7B68     		ldr	r3, [r7, #4]
 866 0012 1B68     		ldr	r3, [r3]
 867 0014 1A6A     		ldr	r2, [r3, #32]
 868 0016 41F21113 		movw	r3, #4369
 869 001a 1340     		ands	r3, r3, r2
 870 001c 002B     		cmp	r3, #0
 871 001e 0FD1     		bne	.L35
 872              		.loc 1 530 3 is_stmt 0 discriminator 1
 873 0020 7B68     		ldr	r3, [r7, #4]
 874 0022 1B68     		ldr	r3, [r3]
 875 0024 1A6A     		ldr	r2, [r3, #32]
 876 0026 40F24443 		movw	r3, #1092
 877 002a 1340     		ands	r3, r3, r2
 878 002c 002B     		cmp	r3, #0
 879 002e 07D1     		bne	.L35
 880              		.loc 1 530 3 discriminator 2
 881 0030 7B68     		ldr	r3, [r7, #4]
 882 0032 1B68     		ldr	r3, [r3]
 883 0034 1A68     		ldr	r2, [r3]
 884 0036 7B68     		ldr	r3, [r7, #4]
 885 0038 1B68     		ldr	r3, [r3]
 886 003a 22F00102 		bic	r2, r2, #1
 887 003e 1A60     		str	r2, [r3]
 888              	.L35:
 531:d:/LiteOS_Lab/drivers/third_party/ST/STM32L4xx_HAL_Driver/Src\stm32l4xx_hal_tim.c **** 
 532:d:/LiteOS_Lab/drivers/third_party/ST/STM32L4xx_HAL_Driver/Src\stm32l4xx_hal_tim.c ****   /* DeInit the low level hardware: GPIO, CLOCK, NVIC and DMA */
 533:d:/LiteOS_Lab/drivers/third_party/ST/STM32L4xx_HAL_Driver/Src\stm32l4xx_hal_tim.c ****   HAL_TIM_OC_MspDeInit(htim);
 889              		.loc 1 533 3 is_stmt 1
 890 0040 7868     		ldr	r0, [r7, #4]
 891 0042 FFF7FEFF 		bl	HAL_TIM_OC_MspDeInit
 534:d:/LiteOS_Lab/drivers/third_party/ST/STM32L4xx_HAL_Driver/Src\stm32l4xx_hal_tim.c **** 
 535:d:/LiteOS_Lab/drivers/third_party/ST/STM32L4xx_HAL_Driver/Src\stm32l4xx_hal_tim.c ****   /* Change TIM state */
 536:d:/LiteOS_Lab/drivers/third_party/ST/STM32L4xx_HAL_Driver/Src\stm32l4xx_hal_tim.c ****   htim->State = HAL_TIM_STATE_RESET;
 892              		.loc 1 536 15
 893 0046 7B68     		ldr	r3, [r7, #4]
 894 0048 0022     		movs	r2, #0
 895 004a 83F83D20 		strb	r2, [r3, #61]
 537:d:/LiteOS_Lab/drivers/third_party/ST/STM32L4xx_HAL_Driver/Src\stm32l4xx_hal_tim.c **** 
 538:d:/LiteOS_Lab/drivers/third_party/ST/STM32L4xx_HAL_Driver/Src\stm32l4xx_hal_tim.c ****   /* Release Lock */
 539:d:/LiteOS_Lab/drivers/third_party/ST/STM32L4xx_HAL_Driver/Src\stm32l4xx_hal_tim.c ****   __HAL_UNLOCK(htim);
 896              		.loc 1 539 3
 897 004e 7B68     		ldr	r3, [r7, #4]
 898 0050 0022     		movs	r2, #0
 899 0052 83F83C20 		strb	r2, [r3, #60]
 540:d:/LiteOS_Lab/drivers/third_party/ST/STM32L4xx_HAL_Driver/Src\stm32l4xx_hal_tim.c **** 
 541:d:/LiteOS_Lab/drivers/third_party/ST/STM32L4xx_HAL_Driver/Src\stm32l4xx_hal_tim.c ****   return HAL_OK;
 900              		.loc 1 541 10
 901 0056 0023     		movs	r3, #0
 542:d:/LiteOS_Lab/drivers/third_party/ST/STM32L4xx_HAL_Driver/Src\stm32l4xx_hal_tim.c **** }
 902              		.loc 1 542 1
 903 0058 1846     		mov	r0, r3
 904 005a 0837     		adds	r7, r7, #8
 905              	.LCFI65:
 906              		.cfi_def_cfa_offset 8
ARM GAS  C:\Users\ADMINI~1\AppData\Local\Temp\cccB3BZw.s 			page 26


 907 005c BD46     		mov	sp, r7
 908              	.LCFI66:
 909              		.cfi_def_cfa_register 13
 910              		@ sp needed
 911 005e 80BD     		pop	{r7, pc}
 912              		.cfi_endproc
 913              	.LFE298:
 915              		.section	.text.HAL_TIM_OC_MspInit,"ax",%progbits
 916              		.align	1
 917              		.weak	HAL_TIM_OC_MspInit
 918              		.syntax unified
 919              		.thumb
 920              		.thumb_func
 921              		.fpu fpv4-sp-d16
 923              	HAL_TIM_OC_MspInit:
 924              	.LFB299:
 543:d:/LiteOS_Lab/drivers/third_party/ST/STM32L4xx_HAL_Driver/Src\stm32l4xx_hal_tim.c **** 
 544:d:/LiteOS_Lab/drivers/third_party/ST/STM32L4xx_HAL_Driver/Src\stm32l4xx_hal_tim.c **** /**
 545:d:/LiteOS_Lab/drivers/third_party/ST/STM32L4xx_HAL_Driver/Src\stm32l4xx_hal_tim.c ****   * @brief  Initializes the TIM Output Compare MSP.
 546:d:/LiteOS_Lab/drivers/third_party/ST/STM32L4xx_HAL_Driver/Src\stm32l4xx_hal_tim.c ****   * @param  htim TIM handle
 547:d:/LiteOS_Lab/drivers/third_party/ST/STM32L4xx_HAL_Driver/Src\stm32l4xx_hal_tim.c ****   * @retval None
 548:d:/LiteOS_Lab/drivers/third_party/ST/STM32L4xx_HAL_Driver/Src\stm32l4xx_hal_tim.c ****   */
 549:d:/LiteOS_Lab/drivers/third_party/ST/STM32L4xx_HAL_Driver/Src\stm32l4xx_hal_tim.c **** __weak void HAL_TIM_OC_MspInit(TIM_HandleTypeDef *htim)
 550:d:/LiteOS_Lab/drivers/third_party/ST/STM32L4xx_HAL_Driver/Src\stm32l4xx_hal_tim.c **** {
 925              		.loc 1 550 1
 926              		.cfi_startproc
 927              		@ args = 0, pretend = 0, frame = 8
 928              		@ frame_needed = 1, uses_anonymous_args = 0
 929              		@ link register save eliminated.
 930 0000 80B4     		push	{r7}
 931              	.LCFI67:
 932              		.cfi_def_cfa_offset 4
 933              		.cfi_offset 7, -4
 934 0002 83B0     		sub	sp, sp, #12
 935              	.LCFI68:
 936              		.cfi_def_cfa_offset 16
 937 0004 00AF     		add	r7, sp, #0
 938              	.LCFI69:
 939              		.cfi_def_cfa_register 7
 940 0006 7860     		str	r0, [r7, #4]
 551:d:/LiteOS_Lab/drivers/third_party/ST/STM32L4xx_HAL_Driver/Src\stm32l4xx_hal_tim.c ****   /* Prevent unused argument(s) compilation warning */
 552:d:/LiteOS_Lab/drivers/third_party/ST/STM32L4xx_HAL_Driver/Src\stm32l4xx_hal_tim.c ****   UNUSED(htim);
 553:d:/LiteOS_Lab/drivers/third_party/ST/STM32L4xx_HAL_Driver/Src\stm32l4xx_hal_tim.c **** 
 554:d:/LiteOS_Lab/drivers/third_party/ST/STM32L4xx_HAL_Driver/Src\stm32l4xx_hal_tim.c ****   /* NOTE : This function should not be modified, when the callback is needed,
 555:d:/LiteOS_Lab/drivers/third_party/ST/STM32L4xx_HAL_Driver/Src\stm32l4xx_hal_tim.c ****             the HAL_TIM_OC_MspInit could be implemented in the user file
 556:d:/LiteOS_Lab/drivers/third_party/ST/STM32L4xx_HAL_Driver/Src\stm32l4xx_hal_tim.c ****    */
 557:d:/LiteOS_Lab/drivers/third_party/ST/STM32L4xx_HAL_Driver/Src\stm32l4xx_hal_tim.c **** }
 941              		.loc 1 557 1
 942 0008 00BF     		nop
 943 000a 0C37     		adds	r7, r7, #12
 944              	.LCFI70:
 945              		.cfi_def_cfa_offset 4
 946 000c BD46     		mov	sp, r7
 947              	.LCFI71:
 948              		.cfi_def_cfa_register 13
 949              		@ sp needed
 950 000e 5DF8047B 		ldr	r7, [sp], #4
ARM GAS  C:\Users\ADMINI~1\AppData\Local\Temp\cccB3BZw.s 			page 27


 951              	.LCFI72:
 952              		.cfi_restore 7
 953              		.cfi_def_cfa_offset 0
 954 0012 7047     		bx	lr
 955              		.cfi_endproc
 956              	.LFE299:
 958              		.section	.text.HAL_TIM_OC_MspDeInit,"ax",%progbits
 959              		.align	1
 960              		.weak	HAL_TIM_OC_MspDeInit
 961              		.syntax unified
 962              		.thumb
 963              		.thumb_func
 964              		.fpu fpv4-sp-d16
 966              	HAL_TIM_OC_MspDeInit:
 967              	.LFB300:
 558:d:/LiteOS_Lab/drivers/third_party/ST/STM32L4xx_HAL_Driver/Src\stm32l4xx_hal_tim.c **** 
 559:d:/LiteOS_Lab/drivers/third_party/ST/STM32L4xx_HAL_Driver/Src\stm32l4xx_hal_tim.c **** /**
 560:d:/LiteOS_Lab/drivers/third_party/ST/STM32L4xx_HAL_Driver/Src\stm32l4xx_hal_tim.c ****   * @brief  DeInitialize TIM Output Compare MSP.
 561:d:/LiteOS_Lab/drivers/third_party/ST/STM32L4xx_HAL_Driver/Src\stm32l4xx_hal_tim.c ****   * @param  htim TIM handle
 562:d:/LiteOS_Lab/drivers/third_party/ST/STM32L4xx_HAL_Driver/Src\stm32l4xx_hal_tim.c ****   * @retval None
 563:d:/LiteOS_Lab/drivers/third_party/ST/STM32L4xx_HAL_Driver/Src\stm32l4xx_hal_tim.c ****   */
 564:d:/LiteOS_Lab/drivers/third_party/ST/STM32L4xx_HAL_Driver/Src\stm32l4xx_hal_tim.c **** __weak void HAL_TIM_OC_MspDeInit(TIM_HandleTypeDef *htim)
 565:d:/LiteOS_Lab/drivers/third_party/ST/STM32L4xx_HAL_Driver/Src\stm32l4xx_hal_tim.c **** {
 968              		.loc 1 565 1
 969              		.cfi_startproc
 970              		@ args = 0, pretend = 0, frame = 8
 971              		@ frame_needed = 1, uses_anonymous_args = 0
 972              		@ link register save eliminated.
 973 0000 80B4     		push	{r7}
 974              	.LCFI73:
 975              		.cfi_def_cfa_offset 4
 976              		.cfi_offset 7, -4
 977 0002 83B0     		sub	sp, sp, #12
 978              	.LCFI74:
 979              		.cfi_def_cfa_offset 16
 980 0004 00AF     		add	r7, sp, #0
 981              	.LCFI75:
 982              		.cfi_def_cfa_register 7
 983 0006 7860     		str	r0, [r7, #4]
 566:d:/LiteOS_Lab/drivers/third_party/ST/STM32L4xx_HAL_Driver/Src\stm32l4xx_hal_tim.c ****   /* Prevent unused argument(s) compilation warning */
 567:d:/LiteOS_Lab/drivers/third_party/ST/STM32L4xx_HAL_Driver/Src\stm32l4xx_hal_tim.c ****   UNUSED(htim);
 568:d:/LiteOS_Lab/drivers/third_party/ST/STM32L4xx_HAL_Driver/Src\stm32l4xx_hal_tim.c **** 
 569:d:/LiteOS_Lab/drivers/third_party/ST/STM32L4xx_HAL_Driver/Src\stm32l4xx_hal_tim.c ****   /* NOTE : This function should not be modified, when the callback is needed,
 570:d:/LiteOS_Lab/drivers/third_party/ST/STM32L4xx_HAL_Driver/Src\stm32l4xx_hal_tim.c ****             the HAL_TIM_OC_MspDeInit could be implemented in the user file
 571:d:/LiteOS_Lab/drivers/third_party/ST/STM32L4xx_HAL_Driver/Src\stm32l4xx_hal_tim.c ****    */
 572:d:/LiteOS_Lab/drivers/third_party/ST/STM32L4xx_HAL_Driver/Src\stm32l4xx_hal_tim.c **** }
 984              		.loc 1 572 1
 985 0008 00BF     		nop
 986 000a 0C37     		adds	r7, r7, #12
 987              	.LCFI76:
 988              		.cfi_def_cfa_offset 4
 989 000c BD46     		mov	sp, r7
 990              	.LCFI77:
 991              		.cfi_def_cfa_register 13
 992              		@ sp needed
 993 000e 5DF8047B 		ldr	r7, [sp], #4
 994              	.LCFI78:
ARM GAS  C:\Users\ADMINI~1\AppData\Local\Temp\cccB3BZw.s 			page 28


 995              		.cfi_restore 7
 996              		.cfi_def_cfa_offset 0
 997 0012 7047     		bx	lr
 998              		.cfi_endproc
 999              	.LFE300:
 1001              		.section	.text.HAL_TIM_OC_Start,"ax",%progbits
 1002              		.align	1
 1003              		.global	HAL_TIM_OC_Start
 1004              		.syntax unified
 1005              		.thumb
 1006              		.thumb_func
 1007              		.fpu fpv4-sp-d16
 1009              	HAL_TIM_OC_Start:
 1010              	.LFB301:
 573:d:/LiteOS_Lab/drivers/third_party/ST/STM32L4xx_HAL_Driver/Src\stm32l4xx_hal_tim.c **** 
 574:d:/LiteOS_Lab/drivers/third_party/ST/STM32L4xx_HAL_Driver/Src\stm32l4xx_hal_tim.c **** /**
 575:d:/LiteOS_Lab/drivers/third_party/ST/STM32L4xx_HAL_Driver/Src\stm32l4xx_hal_tim.c ****   * @brief  Starts the TIM Output Compare signal generation.
 576:d:/LiteOS_Lab/drivers/third_party/ST/STM32L4xx_HAL_Driver/Src\stm32l4xx_hal_tim.c ****   * @param  htim TIM Output Compare handle
 577:d:/LiteOS_Lab/drivers/third_party/ST/STM32L4xx_HAL_Driver/Src\stm32l4xx_hal_tim.c ****   * @param  Channel TIM Channel to be enabled
 578:d:/LiteOS_Lab/drivers/third_party/ST/STM32L4xx_HAL_Driver/Src\stm32l4xx_hal_tim.c ****   *          This parameter can be one of the following values:
 579:d:/LiteOS_Lab/drivers/third_party/ST/STM32L4xx_HAL_Driver/Src\stm32l4xx_hal_tim.c ****   *            @arg TIM_CHANNEL_1: TIM Channel 1 selected
 580:d:/LiteOS_Lab/drivers/third_party/ST/STM32L4xx_HAL_Driver/Src\stm32l4xx_hal_tim.c ****   *            @arg TIM_CHANNEL_2: TIM Channel 2 selected
 581:d:/LiteOS_Lab/drivers/third_party/ST/STM32L4xx_HAL_Driver/Src\stm32l4xx_hal_tim.c ****   *            @arg TIM_CHANNEL_3: TIM Channel 3 selected
 582:d:/LiteOS_Lab/drivers/third_party/ST/STM32L4xx_HAL_Driver/Src\stm32l4xx_hal_tim.c ****   *            @arg TIM_CHANNEL_4: TIM Channel 4 selected
 583:d:/LiteOS_Lab/drivers/third_party/ST/STM32L4xx_HAL_Driver/Src\stm32l4xx_hal_tim.c ****   *            @arg TIM_CHANNEL_5: TIM Channel 5 selected
 584:d:/LiteOS_Lab/drivers/third_party/ST/STM32L4xx_HAL_Driver/Src\stm32l4xx_hal_tim.c ****   *            @arg TIM_CHANNEL_6: TIM Channel 6 selected
 585:d:/LiteOS_Lab/drivers/third_party/ST/STM32L4xx_HAL_Driver/Src\stm32l4xx_hal_tim.c ****   * @retval HAL status
 586:d:/LiteOS_Lab/drivers/third_party/ST/STM32L4xx_HAL_Driver/Src\stm32l4xx_hal_tim.c **** */
 587:d:/LiteOS_Lab/drivers/third_party/ST/STM32L4xx_HAL_Driver/Src\stm32l4xx_hal_tim.c **** HAL_StatusTypeDef HAL_TIM_OC_Start(TIM_HandleTypeDef *htim, uint32_t Channel)
 588:d:/LiteOS_Lab/drivers/third_party/ST/STM32L4xx_HAL_Driver/Src\stm32l4xx_hal_tim.c **** {
 1011              		.loc 1 588 1
 1012              		.cfi_startproc
 1013              		@ args = 0, pretend = 0, frame = 8
 1014              		@ frame_needed = 1, uses_anonymous_args = 0
 1015 0000 80B5     		push	{r7, lr}
 1016              	.LCFI79:
 1017              		.cfi_def_cfa_offset 8
 1018              		.cfi_offset 7, -8
 1019              		.cfi_offset 14, -4
 1020 0002 82B0     		sub	sp, sp, #8
 1021              	.LCFI80:
 1022              		.cfi_def_cfa_offset 16
 1023 0004 00AF     		add	r7, sp, #0
 1024              	.LCFI81:
 1025              		.cfi_def_cfa_register 7
 1026 0006 7860     		str	r0, [r7, #4]
 1027 0008 3960     		str	r1, [r7]
 589:d:/LiteOS_Lab/drivers/third_party/ST/STM32L4xx_HAL_Driver/Src\stm32l4xx_hal_tim.c ****   /* Check the parameters */
 590:d:/LiteOS_Lab/drivers/third_party/ST/STM32L4xx_HAL_Driver/Src\stm32l4xx_hal_tim.c ****   assert_param(IS_TIM_CCX_INSTANCE(htim->Instance, Channel));
 591:d:/LiteOS_Lab/drivers/third_party/ST/STM32L4xx_HAL_Driver/Src\stm32l4xx_hal_tim.c **** 
 592:d:/LiteOS_Lab/drivers/third_party/ST/STM32L4xx_HAL_Driver/Src\stm32l4xx_hal_tim.c ****   /* Enable the Output compare channel */
 593:d:/LiteOS_Lab/drivers/third_party/ST/STM32L4xx_HAL_Driver/Src\stm32l4xx_hal_tim.c ****   TIM_CCxChannelCmd(htim->Instance, Channel, TIM_CCx_ENABLE);
 1028              		.loc 1 593 3
 1029 000a 7B68     		ldr	r3, [r7, #4]
 1030 000c 1B68     		ldr	r3, [r3]
 1031 000e 0122     		movs	r2, #1
 1032 0010 3968     		ldr	r1, [r7]
ARM GAS  C:\Users\ADMINI~1\AppData\Local\Temp\cccB3BZw.s 			page 29


 1033 0012 1846     		mov	r0, r3
 1034 0014 FFF7FEFF 		bl	TIM_CCxChannelCmd
 594:d:/LiteOS_Lab/drivers/third_party/ST/STM32L4xx_HAL_Driver/Src\stm32l4xx_hal_tim.c **** 
 595:d:/LiteOS_Lab/drivers/third_party/ST/STM32L4xx_HAL_Driver/Src\stm32l4xx_hal_tim.c ****   if(IS_TIM_BREAK_INSTANCE(htim->Instance) != RESET)
 1035              		.loc 1 595 6
 1036 0018 7B68     		ldr	r3, [r7, #4]
 1037 001a 1B68     		ldr	r3, [r3]
 1038 001c 134A     		ldr	r2, .L45
 1039 001e 9342     		cmp	r3, r2
 1040 0020 09D0     		beq	.L40
 1041              		.loc 1 595 6 is_stmt 0 discriminator 2
 1042 0022 7B68     		ldr	r3, [r7, #4]
 1043 0024 1B68     		ldr	r3, [r3]
 1044 0026 124A     		ldr	r2, .L45+4
 1045 0028 9342     		cmp	r3, r2
 1046 002a 04D0     		beq	.L40
 1047              		.loc 1 595 6 discriminator 4
 1048 002c 7B68     		ldr	r3, [r7, #4]
 1049 002e 1B68     		ldr	r3, [r3]
 1050 0030 104A     		ldr	r2, .L45+8
 1051 0032 9342     		cmp	r3, r2
 1052 0034 01D1     		bne	.L41
 1053              	.L40:
 1054              		.loc 1 595 6 discriminator 5
 1055 0036 0123     		movs	r3, #1
 1056 0038 00E0     		b	.L42
 1057              	.L41:
 1058              		.loc 1 595 6 discriminator 6
 1059 003a 0023     		movs	r3, #0
 1060              	.L42:
 1061              		.loc 1 595 5 is_stmt 1 discriminator 8
 1062 003c 002B     		cmp	r3, #0
 1063 003e 07D0     		beq	.L43
 596:d:/LiteOS_Lab/drivers/third_party/ST/STM32L4xx_HAL_Driver/Src\stm32l4xx_hal_tim.c ****   {
 597:d:/LiteOS_Lab/drivers/third_party/ST/STM32L4xx_HAL_Driver/Src\stm32l4xx_hal_tim.c ****     /* Enable the main output */
 598:d:/LiteOS_Lab/drivers/third_party/ST/STM32L4xx_HAL_Driver/Src\stm32l4xx_hal_tim.c ****     __HAL_TIM_MOE_ENABLE(htim);
 1064              		.loc 1 598 5
 1065 0040 7B68     		ldr	r3, [r7, #4]
 1066 0042 1B68     		ldr	r3, [r3]
 1067 0044 5A6C     		ldr	r2, [r3, #68]
 1068 0046 7B68     		ldr	r3, [r7, #4]
 1069 0048 1B68     		ldr	r3, [r3]
 1070 004a 42F40042 		orr	r2, r2, #32768
 1071 004e 5A64     		str	r2, [r3, #68]
 1072              	.L43:
 599:d:/LiteOS_Lab/drivers/third_party/ST/STM32L4xx_HAL_Driver/Src\stm32l4xx_hal_tim.c ****   }
 600:d:/LiteOS_Lab/drivers/third_party/ST/STM32L4xx_HAL_Driver/Src\stm32l4xx_hal_tim.c **** 
 601:d:/LiteOS_Lab/drivers/third_party/ST/STM32L4xx_HAL_Driver/Src\stm32l4xx_hal_tim.c ****   /* Enable the Peripheral */
 602:d:/LiteOS_Lab/drivers/third_party/ST/STM32L4xx_HAL_Driver/Src\stm32l4xx_hal_tim.c ****   __HAL_TIM_ENABLE(htim);
 1073              		.loc 1 602 3
 1074 0050 7B68     		ldr	r3, [r7, #4]
 1075 0052 1B68     		ldr	r3, [r3]
 1076 0054 1A68     		ldr	r2, [r3]
 1077 0056 7B68     		ldr	r3, [r7, #4]
 1078 0058 1B68     		ldr	r3, [r3]
 1079 005a 42F00102 		orr	r2, r2, #1
 1080 005e 1A60     		str	r2, [r3]
ARM GAS  C:\Users\ADMINI~1\AppData\Local\Temp\cccB3BZw.s 			page 30


 603:d:/LiteOS_Lab/drivers/third_party/ST/STM32L4xx_HAL_Driver/Src\stm32l4xx_hal_tim.c **** 
 604:d:/LiteOS_Lab/drivers/third_party/ST/STM32L4xx_HAL_Driver/Src\stm32l4xx_hal_tim.c ****   /* Return function status */
 605:d:/LiteOS_Lab/drivers/third_party/ST/STM32L4xx_HAL_Driver/Src\stm32l4xx_hal_tim.c ****   return HAL_OK;
 1081              		.loc 1 605 10
 1082 0060 0023     		movs	r3, #0
 606:d:/LiteOS_Lab/drivers/third_party/ST/STM32L4xx_HAL_Driver/Src\stm32l4xx_hal_tim.c **** }
 1083              		.loc 1 606 1
 1084 0062 1846     		mov	r0, r3
 1085 0064 0837     		adds	r7, r7, #8
 1086              	.LCFI82:
 1087              		.cfi_def_cfa_offset 8
 1088 0066 BD46     		mov	sp, r7
 1089              	.LCFI83:
 1090              		.cfi_def_cfa_register 13
 1091              		@ sp needed
 1092 0068 80BD     		pop	{r7, pc}
 1093              	.L46:
 1094 006a 00BF     		.align	2
 1095              	.L45:
 1096 006c 002C0140 		.word	1073818624
 1097 0070 00400140 		.word	1073823744
 1098 0074 00440140 		.word	1073824768
 1099              		.cfi_endproc
 1100              	.LFE301:
 1102              		.section	.text.HAL_TIM_OC_Stop,"ax",%progbits
 1103              		.align	1
 1104              		.global	HAL_TIM_OC_Stop
 1105              		.syntax unified
 1106              		.thumb
 1107              		.thumb_func
 1108              		.fpu fpv4-sp-d16
 1110              	HAL_TIM_OC_Stop:
 1111              	.LFB302:
 607:d:/LiteOS_Lab/drivers/third_party/ST/STM32L4xx_HAL_Driver/Src\stm32l4xx_hal_tim.c **** 
 608:d:/LiteOS_Lab/drivers/third_party/ST/STM32L4xx_HAL_Driver/Src\stm32l4xx_hal_tim.c **** /**
 609:d:/LiteOS_Lab/drivers/third_party/ST/STM32L4xx_HAL_Driver/Src\stm32l4xx_hal_tim.c ****   * @brief  Stops the TIM Output Compare signal generation.
 610:d:/LiteOS_Lab/drivers/third_party/ST/STM32L4xx_HAL_Driver/Src\stm32l4xx_hal_tim.c ****   * @param  htim TIM handle
 611:d:/LiteOS_Lab/drivers/third_party/ST/STM32L4xx_HAL_Driver/Src\stm32l4xx_hal_tim.c ****   * @param  Channel TIM Channel to be disabled
 612:d:/LiteOS_Lab/drivers/third_party/ST/STM32L4xx_HAL_Driver/Src\stm32l4xx_hal_tim.c ****   *          This parameter can be one of the following values:
 613:d:/LiteOS_Lab/drivers/third_party/ST/STM32L4xx_HAL_Driver/Src\stm32l4xx_hal_tim.c ****   *            @arg TIM_CHANNEL_1: TIM Channel 1 selected
 614:d:/LiteOS_Lab/drivers/third_party/ST/STM32L4xx_HAL_Driver/Src\stm32l4xx_hal_tim.c ****   *            @arg TIM_CHANNEL_2: TIM Channel 2 selected
 615:d:/LiteOS_Lab/drivers/third_party/ST/STM32L4xx_HAL_Driver/Src\stm32l4xx_hal_tim.c ****   *            @arg TIM_CHANNEL_3: TIM Channel 3 selected
 616:d:/LiteOS_Lab/drivers/third_party/ST/STM32L4xx_HAL_Driver/Src\stm32l4xx_hal_tim.c ****   *            @arg TIM_CHANNEL_4: TIM Channel 4 selected
 617:d:/LiteOS_Lab/drivers/third_party/ST/STM32L4xx_HAL_Driver/Src\stm32l4xx_hal_tim.c ****   *            @arg TIM_CHANNEL_5: TIM Channel 5 selected
 618:d:/LiteOS_Lab/drivers/third_party/ST/STM32L4xx_HAL_Driver/Src\stm32l4xx_hal_tim.c ****   *            @arg TIM_CHANNEL_6: TIM Channel 6 selected
 619:d:/LiteOS_Lab/drivers/third_party/ST/STM32L4xx_HAL_Driver/Src\stm32l4xx_hal_tim.c ****   * @retval HAL status
 620:d:/LiteOS_Lab/drivers/third_party/ST/STM32L4xx_HAL_Driver/Src\stm32l4xx_hal_tim.c **** */
 621:d:/LiteOS_Lab/drivers/third_party/ST/STM32L4xx_HAL_Driver/Src\stm32l4xx_hal_tim.c **** HAL_StatusTypeDef HAL_TIM_OC_Stop(TIM_HandleTypeDef *htim, uint32_t Channel)
 622:d:/LiteOS_Lab/drivers/third_party/ST/STM32L4xx_HAL_Driver/Src\stm32l4xx_hal_tim.c **** {
 1112              		.loc 1 622 1
 1113              		.cfi_startproc
 1114              		@ args = 0, pretend = 0, frame = 8
 1115              		@ frame_needed = 1, uses_anonymous_args = 0
 1116 0000 80B5     		push	{r7, lr}
 1117              	.LCFI84:
 1118              		.cfi_def_cfa_offset 8
 1119              		.cfi_offset 7, -8
ARM GAS  C:\Users\ADMINI~1\AppData\Local\Temp\cccB3BZw.s 			page 31


 1120              		.cfi_offset 14, -4
 1121 0002 82B0     		sub	sp, sp, #8
 1122              	.LCFI85:
 1123              		.cfi_def_cfa_offset 16
 1124 0004 00AF     		add	r7, sp, #0
 1125              	.LCFI86:
 1126              		.cfi_def_cfa_register 7
 1127 0006 7860     		str	r0, [r7, #4]
 1128 0008 3960     		str	r1, [r7]
 623:d:/LiteOS_Lab/drivers/third_party/ST/STM32L4xx_HAL_Driver/Src\stm32l4xx_hal_tim.c ****   /* Check the parameters */
 624:d:/LiteOS_Lab/drivers/third_party/ST/STM32L4xx_HAL_Driver/Src\stm32l4xx_hal_tim.c ****   assert_param(IS_TIM_CCX_INSTANCE(htim->Instance, Channel));
 625:d:/LiteOS_Lab/drivers/third_party/ST/STM32L4xx_HAL_Driver/Src\stm32l4xx_hal_tim.c **** 
 626:d:/LiteOS_Lab/drivers/third_party/ST/STM32L4xx_HAL_Driver/Src\stm32l4xx_hal_tim.c ****   /* Disable the Output compare channel */
 627:d:/LiteOS_Lab/drivers/third_party/ST/STM32L4xx_HAL_Driver/Src\stm32l4xx_hal_tim.c ****   TIM_CCxChannelCmd(htim->Instance, Channel, TIM_CCx_DISABLE);
 1129              		.loc 1 627 3
 1130 000a 7B68     		ldr	r3, [r7, #4]
 1131 000c 1B68     		ldr	r3, [r3]
 1132 000e 0022     		movs	r2, #0
 1133 0010 3968     		ldr	r1, [r7]
 1134 0012 1846     		mov	r0, r3
 1135 0014 FFF7FEFF 		bl	TIM_CCxChannelCmd
 628:d:/LiteOS_Lab/drivers/third_party/ST/STM32L4xx_HAL_Driver/Src\stm32l4xx_hal_tim.c **** 
 629:d:/LiteOS_Lab/drivers/third_party/ST/STM32L4xx_HAL_Driver/Src\stm32l4xx_hal_tim.c ****   if(IS_TIM_BREAK_INSTANCE(htim->Instance) != RESET)
 1136              		.loc 1 629 6
 1137 0018 7B68     		ldr	r3, [r7, #4]
 1138 001a 1B68     		ldr	r3, [r3]
 1139 001c 234A     		ldr	r2, .L54
 1140 001e 9342     		cmp	r3, r2
 1141 0020 09D0     		beq	.L48
 1142              		.loc 1 629 6 is_stmt 0 discriminator 2
 1143 0022 7B68     		ldr	r3, [r7, #4]
 1144 0024 1B68     		ldr	r3, [r3]
 1145 0026 224A     		ldr	r2, .L54+4
 1146 0028 9342     		cmp	r3, r2
 1147 002a 04D0     		beq	.L48
 1148              		.loc 1 629 6 discriminator 4
 1149 002c 7B68     		ldr	r3, [r7, #4]
 1150 002e 1B68     		ldr	r3, [r3]
 1151 0030 204A     		ldr	r2, .L54+8
 1152 0032 9342     		cmp	r3, r2
 1153 0034 01D1     		bne	.L49
 1154              	.L48:
 1155              		.loc 1 629 6 discriminator 5
 1156 0036 0123     		movs	r3, #1
 1157 0038 00E0     		b	.L50
 1158              	.L49:
 1159              		.loc 1 629 6 discriminator 6
 1160 003a 0023     		movs	r3, #0
 1161              	.L50:
 1162              		.loc 1 629 5 is_stmt 1 discriminator 8
 1163 003c 002B     		cmp	r3, #0
 1164 003e 17D0     		beq	.L51
 630:d:/LiteOS_Lab/drivers/third_party/ST/STM32L4xx_HAL_Driver/Src\stm32l4xx_hal_tim.c ****   {
 631:d:/LiteOS_Lab/drivers/third_party/ST/STM32L4xx_HAL_Driver/Src\stm32l4xx_hal_tim.c ****     /* Disable the Main Ouput */
 632:d:/LiteOS_Lab/drivers/third_party/ST/STM32L4xx_HAL_Driver/Src\stm32l4xx_hal_tim.c ****     __HAL_TIM_MOE_DISABLE(htim);
 1165              		.loc 1 632 5
 1166 0040 7B68     		ldr	r3, [r7, #4]
ARM GAS  C:\Users\ADMINI~1\AppData\Local\Temp\cccB3BZw.s 			page 32


 1167 0042 1B68     		ldr	r3, [r3]
 1168 0044 1A6A     		ldr	r2, [r3, #32]
 1169 0046 41F21113 		movw	r3, #4369
 1170 004a 1340     		ands	r3, r3, r2
 1171 004c 002B     		cmp	r3, #0
 1172 004e 0FD1     		bne	.L51
 1173              		.loc 1 632 5 is_stmt 0 discriminator 1
 1174 0050 7B68     		ldr	r3, [r7, #4]
 1175 0052 1B68     		ldr	r3, [r3]
 1176 0054 1A6A     		ldr	r2, [r3, #32]
 1177 0056 40F24443 		movw	r3, #1092
 1178 005a 1340     		ands	r3, r3, r2
 1179 005c 002B     		cmp	r3, #0
 1180 005e 07D1     		bne	.L51
 1181              		.loc 1 632 5 discriminator 2
 1182 0060 7B68     		ldr	r3, [r7, #4]
 1183 0062 1B68     		ldr	r3, [r3]
 1184 0064 5A6C     		ldr	r2, [r3, #68]
 1185 0066 7B68     		ldr	r3, [r7, #4]
 1186 0068 1B68     		ldr	r3, [r3]
 1187 006a 22F40042 		bic	r2, r2, #32768
 1188 006e 5A64     		str	r2, [r3, #68]
 1189              	.L51:
 633:d:/LiteOS_Lab/drivers/third_party/ST/STM32L4xx_HAL_Driver/Src\stm32l4xx_hal_tim.c ****   }
 634:d:/LiteOS_Lab/drivers/third_party/ST/STM32L4xx_HAL_Driver/Src\stm32l4xx_hal_tim.c **** 
 635:d:/LiteOS_Lab/drivers/third_party/ST/STM32L4xx_HAL_Driver/Src\stm32l4xx_hal_tim.c ****   /* Disable the Peripheral */
 636:d:/LiteOS_Lab/drivers/third_party/ST/STM32L4xx_HAL_Driver/Src\stm32l4xx_hal_tim.c ****   __HAL_TIM_DISABLE(htim);
 1190              		.loc 1 636 3 is_stmt 1
 1191 0070 7B68     		ldr	r3, [r7, #4]
 1192 0072 1B68     		ldr	r3, [r3]
 1193 0074 1A6A     		ldr	r2, [r3, #32]
 1194 0076 41F21113 		movw	r3, #4369
 1195 007a 1340     		ands	r3, r3, r2
 1196 007c 002B     		cmp	r3, #0
 1197 007e 0FD1     		bne	.L52
 1198              		.loc 1 636 3 is_stmt 0 discriminator 1
 1199 0080 7B68     		ldr	r3, [r7, #4]
 1200 0082 1B68     		ldr	r3, [r3]
 1201 0084 1A6A     		ldr	r2, [r3, #32]
 1202 0086 40F24443 		movw	r3, #1092
 1203 008a 1340     		ands	r3, r3, r2
 1204 008c 002B     		cmp	r3, #0
 1205 008e 07D1     		bne	.L52
 1206              		.loc 1 636 3 discriminator 2
 1207 0090 7B68     		ldr	r3, [r7, #4]
 1208 0092 1B68     		ldr	r3, [r3]
 1209 0094 1A68     		ldr	r2, [r3]
 1210 0096 7B68     		ldr	r3, [r7, #4]
 1211 0098 1B68     		ldr	r3, [r3]
 1212 009a 22F00102 		bic	r2, r2, #1
 1213 009e 1A60     		str	r2, [r3]
 1214              	.L52:
 637:d:/LiteOS_Lab/drivers/third_party/ST/STM32L4xx_HAL_Driver/Src\stm32l4xx_hal_tim.c **** 
 638:d:/LiteOS_Lab/drivers/third_party/ST/STM32L4xx_HAL_Driver/Src\stm32l4xx_hal_tim.c ****   /* Return function status */
 639:d:/LiteOS_Lab/drivers/third_party/ST/STM32L4xx_HAL_Driver/Src\stm32l4xx_hal_tim.c ****   return HAL_OK;
 1215              		.loc 1 639 10 is_stmt 1
 1216 00a0 0023     		movs	r3, #0
ARM GAS  C:\Users\ADMINI~1\AppData\Local\Temp\cccB3BZw.s 			page 33


 640:d:/LiteOS_Lab/drivers/third_party/ST/STM32L4xx_HAL_Driver/Src\stm32l4xx_hal_tim.c **** }
 1217              		.loc 1 640 1
 1218 00a2 1846     		mov	r0, r3
 1219 00a4 0837     		adds	r7, r7, #8
 1220              	.LCFI87:
 1221              		.cfi_def_cfa_offset 8
 1222 00a6 BD46     		mov	sp, r7
 1223              	.LCFI88:
 1224              		.cfi_def_cfa_register 13
 1225              		@ sp needed
 1226 00a8 80BD     		pop	{r7, pc}
 1227              	.L55:
 1228 00aa 00BF     		.align	2
 1229              	.L54:
 1230 00ac 002C0140 		.word	1073818624
 1231 00b0 00400140 		.word	1073823744
 1232 00b4 00440140 		.word	1073824768
 1233              		.cfi_endproc
 1234              	.LFE302:
 1236              		.section	.text.HAL_TIM_OC_Start_IT,"ax",%progbits
 1237              		.align	1
 1238              		.global	HAL_TIM_OC_Start_IT
 1239              		.syntax unified
 1240              		.thumb
 1241              		.thumb_func
 1242              		.fpu fpv4-sp-d16
 1244              	HAL_TIM_OC_Start_IT:
 1245              	.LFB303:
 641:d:/LiteOS_Lab/drivers/third_party/ST/STM32L4xx_HAL_Driver/Src\stm32l4xx_hal_tim.c **** 
 642:d:/LiteOS_Lab/drivers/third_party/ST/STM32L4xx_HAL_Driver/Src\stm32l4xx_hal_tim.c **** /**
 643:d:/LiteOS_Lab/drivers/third_party/ST/STM32L4xx_HAL_Driver/Src\stm32l4xx_hal_tim.c ****   * @brief  Starts the TIM Output Compare signal generation in interrupt mode.
 644:d:/LiteOS_Lab/drivers/third_party/ST/STM32L4xx_HAL_Driver/Src\stm32l4xx_hal_tim.c ****   * @param  htim TIM OC handle
 645:d:/LiteOS_Lab/drivers/third_party/ST/STM32L4xx_HAL_Driver/Src\stm32l4xx_hal_tim.c ****   * @param  Channel TIM Channel to be enabled
 646:d:/LiteOS_Lab/drivers/third_party/ST/STM32L4xx_HAL_Driver/Src\stm32l4xx_hal_tim.c ****   *          This parameter can be one of the following values:
 647:d:/LiteOS_Lab/drivers/third_party/ST/STM32L4xx_HAL_Driver/Src\stm32l4xx_hal_tim.c ****   *            @arg TIM_CHANNEL_1: TIM Channel 1 selected
 648:d:/LiteOS_Lab/drivers/third_party/ST/STM32L4xx_HAL_Driver/Src\stm32l4xx_hal_tim.c ****   *            @arg TIM_CHANNEL_2: TIM Channel 2 selected
 649:d:/LiteOS_Lab/drivers/third_party/ST/STM32L4xx_HAL_Driver/Src\stm32l4xx_hal_tim.c ****   *            @arg TIM_CHANNEL_3: TIM Channel 3 selected
 650:d:/LiteOS_Lab/drivers/third_party/ST/STM32L4xx_HAL_Driver/Src\stm32l4xx_hal_tim.c ****   *            @arg TIM_CHANNEL_4: TIM Channel 4 selected
 651:d:/LiteOS_Lab/drivers/third_party/ST/STM32L4xx_HAL_Driver/Src\stm32l4xx_hal_tim.c ****   *            @arg TIM_CHANNEL_5: TIM Channel 5 selected
 652:d:/LiteOS_Lab/drivers/third_party/ST/STM32L4xx_HAL_Driver/Src\stm32l4xx_hal_tim.c ****   *            @arg TIM_CHANNEL_6: TIM Channel 6 selected
 653:d:/LiteOS_Lab/drivers/third_party/ST/STM32L4xx_HAL_Driver/Src\stm32l4xx_hal_tim.c ****   * @retval HAL status
 654:d:/LiteOS_Lab/drivers/third_party/ST/STM32L4xx_HAL_Driver/Src\stm32l4xx_hal_tim.c **** */
 655:d:/LiteOS_Lab/drivers/third_party/ST/STM32L4xx_HAL_Driver/Src\stm32l4xx_hal_tim.c **** HAL_StatusTypeDef HAL_TIM_OC_Start_IT(TIM_HandleTypeDef *htim, uint32_t Channel)
 656:d:/LiteOS_Lab/drivers/third_party/ST/STM32L4xx_HAL_Driver/Src\stm32l4xx_hal_tim.c **** {
 1246              		.loc 1 656 1
 1247              		.cfi_startproc
 1248              		@ args = 0, pretend = 0, frame = 8
 1249              		@ frame_needed = 1, uses_anonymous_args = 0
 1250 0000 80B5     		push	{r7, lr}
 1251              	.LCFI89:
 1252              		.cfi_def_cfa_offset 8
 1253              		.cfi_offset 7, -8
 1254              		.cfi_offset 14, -4
 1255 0002 82B0     		sub	sp, sp, #8
 1256              	.LCFI90:
 1257              		.cfi_def_cfa_offset 16
 1258 0004 00AF     		add	r7, sp, #0
ARM GAS  C:\Users\ADMINI~1\AppData\Local\Temp\cccB3BZw.s 			page 34


 1259              	.LCFI91:
 1260              		.cfi_def_cfa_register 7
 1261 0006 7860     		str	r0, [r7, #4]
 1262 0008 3960     		str	r1, [r7]
 1263 000a 3B68     		ldr	r3, [r7]
 1264 000c 0C2B     		cmp	r3, #12
 1265 000e 41D8     		bhi	.L69
 1266 0010 01A2     		adr	r2, .L59
 1267 0012 52F823F0 		ldr	pc, [r2, r3, lsl #2]
 1268 0016 00BF     		.p2align 2
 1269              	.L59:
 1270 0018 4D000000 		.word	.L62+1
 1271 001c 95000000 		.word	.L69+1
 1272 0020 95000000 		.word	.L69+1
 1273 0024 95000000 		.word	.L69+1
 1274 0028 5F000000 		.word	.L61+1
 1275 002c 95000000 		.word	.L69+1
 1276 0030 95000000 		.word	.L69+1
 1277 0034 95000000 		.word	.L69+1
 1278 0038 71000000 		.word	.L60+1
 1279 003c 95000000 		.word	.L69+1
 1280 0040 95000000 		.word	.L69+1
 1281 0044 95000000 		.word	.L69+1
 1282 0048 83000000 		.word	.L58+1
 1283              		.p2align 1
 1284              	.L62:
 657:d:/LiteOS_Lab/drivers/third_party/ST/STM32L4xx_HAL_Driver/Src\stm32l4xx_hal_tim.c ****   /* Check the parameters */
 658:d:/LiteOS_Lab/drivers/third_party/ST/STM32L4xx_HAL_Driver/Src\stm32l4xx_hal_tim.c ****   assert_param(IS_TIM_CCX_INSTANCE(htim->Instance, Channel));
 659:d:/LiteOS_Lab/drivers/third_party/ST/STM32L4xx_HAL_Driver/Src\stm32l4xx_hal_tim.c **** 
 660:d:/LiteOS_Lab/drivers/third_party/ST/STM32L4xx_HAL_Driver/Src\stm32l4xx_hal_tim.c ****   switch (Channel)
 661:d:/LiteOS_Lab/drivers/third_party/ST/STM32L4xx_HAL_Driver/Src\stm32l4xx_hal_tim.c ****   {
 662:d:/LiteOS_Lab/drivers/third_party/ST/STM32L4xx_HAL_Driver/Src\stm32l4xx_hal_tim.c ****     case TIM_CHANNEL_1:
 663:d:/LiteOS_Lab/drivers/third_party/ST/STM32L4xx_HAL_Driver/Src\stm32l4xx_hal_tim.c ****     {
 664:d:/LiteOS_Lab/drivers/third_party/ST/STM32L4xx_HAL_Driver/Src\stm32l4xx_hal_tim.c ****       /* Enable the TIM Capture/Compare 1 interrupt */
 665:d:/LiteOS_Lab/drivers/third_party/ST/STM32L4xx_HAL_Driver/Src\stm32l4xx_hal_tim.c ****       __HAL_TIM_ENABLE_IT(htim, TIM_IT_CC1);
 1285              		.loc 1 665 7
 1286 004c 7B68     		ldr	r3, [r7, #4]
 1287 004e 1B68     		ldr	r3, [r3]
 1288 0050 DA68     		ldr	r2, [r3, #12]
 1289 0052 7B68     		ldr	r3, [r7, #4]
 1290 0054 1B68     		ldr	r3, [r3]
 1291 0056 42F00202 		orr	r2, r2, #2
 1292 005a DA60     		str	r2, [r3, #12]
 666:d:/LiteOS_Lab/drivers/third_party/ST/STM32L4xx_HAL_Driver/Src\stm32l4xx_hal_tim.c ****     }
 667:d:/LiteOS_Lab/drivers/third_party/ST/STM32L4xx_HAL_Driver/Src\stm32l4xx_hal_tim.c ****     break;
 1293              		.loc 1 667 5
 1294 005c 1BE0     		b	.L63
 1295              	.L61:
 668:d:/LiteOS_Lab/drivers/third_party/ST/STM32L4xx_HAL_Driver/Src\stm32l4xx_hal_tim.c **** 
 669:d:/LiteOS_Lab/drivers/third_party/ST/STM32L4xx_HAL_Driver/Src\stm32l4xx_hal_tim.c ****     case TIM_CHANNEL_2:
 670:d:/LiteOS_Lab/drivers/third_party/ST/STM32L4xx_HAL_Driver/Src\stm32l4xx_hal_tim.c ****     {
 671:d:/LiteOS_Lab/drivers/third_party/ST/STM32L4xx_HAL_Driver/Src\stm32l4xx_hal_tim.c ****       /* Enable the TIM Capture/Compare 2 interrupt */
 672:d:/LiteOS_Lab/drivers/third_party/ST/STM32L4xx_HAL_Driver/Src\stm32l4xx_hal_tim.c ****       __HAL_TIM_ENABLE_IT(htim, TIM_IT_CC2);
 1296              		.loc 1 672 7
 1297 005e 7B68     		ldr	r3, [r7, #4]
 1298 0060 1B68     		ldr	r3, [r3]
 1299 0062 DA68     		ldr	r2, [r3, #12]
ARM GAS  C:\Users\ADMINI~1\AppData\Local\Temp\cccB3BZw.s 			page 35


 1300 0064 7B68     		ldr	r3, [r7, #4]
 1301 0066 1B68     		ldr	r3, [r3]
 1302 0068 42F00402 		orr	r2, r2, #4
 1303 006c DA60     		str	r2, [r3, #12]
 673:d:/LiteOS_Lab/drivers/third_party/ST/STM32L4xx_HAL_Driver/Src\stm32l4xx_hal_tim.c ****     }
 674:d:/LiteOS_Lab/drivers/third_party/ST/STM32L4xx_HAL_Driver/Src\stm32l4xx_hal_tim.c ****     break;
 1304              		.loc 1 674 5
 1305 006e 12E0     		b	.L63
 1306              	.L60:
 675:d:/LiteOS_Lab/drivers/third_party/ST/STM32L4xx_HAL_Driver/Src\stm32l4xx_hal_tim.c **** 
 676:d:/LiteOS_Lab/drivers/third_party/ST/STM32L4xx_HAL_Driver/Src\stm32l4xx_hal_tim.c ****     case TIM_CHANNEL_3:
 677:d:/LiteOS_Lab/drivers/third_party/ST/STM32L4xx_HAL_Driver/Src\stm32l4xx_hal_tim.c ****     {
 678:d:/LiteOS_Lab/drivers/third_party/ST/STM32L4xx_HAL_Driver/Src\stm32l4xx_hal_tim.c ****       /* Enable the TIM Capture/Compare 3 interrupt */
 679:d:/LiteOS_Lab/drivers/third_party/ST/STM32L4xx_HAL_Driver/Src\stm32l4xx_hal_tim.c ****       __HAL_TIM_ENABLE_IT(htim, TIM_IT_CC3);
 1307              		.loc 1 679 7
 1308 0070 7B68     		ldr	r3, [r7, #4]
 1309 0072 1B68     		ldr	r3, [r3]
 1310 0074 DA68     		ldr	r2, [r3, #12]
 1311 0076 7B68     		ldr	r3, [r7, #4]
 1312 0078 1B68     		ldr	r3, [r3]
 1313 007a 42F00802 		orr	r2, r2, #8
 1314 007e DA60     		str	r2, [r3, #12]
 680:d:/LiteOS_Lab/drivers/third_party/ST/STM32L4xx_HAL_Driver/Src\stm32l4xx_hal_tim.c ****     }
 681:d:/LiteOS_Lab/drivers/third_party/ST/STM32L4xx_HAL_Driver/Src\stm32l4xx_hal_tim.c ****     break;
 1315              		.loc 1 681 5
 1316 0080 09E0     		b	.L63
 1317              	.L58:
 682:d:/LiteOS_Lab/drivers/third_party/ST/STM32L4xx_HAL_Driver/Src\stm32l4xx_hal_tim.c **** 
 683:d:/LiteOS_Lab/drivers/third_party/ST/STM32L4xx_HAL_Driver/Src\stm32l4xx_hal_tim.c ****     case TIM_CHANNEL_4:
 684:d:/LiteOS_Lab/drivers/third_party/ST/STM32L4xx_HAL_Driver/Src\stm32l4xx_hal_tim.c ****     {
 685:d:/LiteOS_Lab/drivers/third_party/ST/STM32L4xx_HAL_Driver/Src\stm32l4xx_hal_tim.c ****       /* Enable the TIM Capture/Compare 4 interrupt */
 686:d:/LiteOS_Lab/drivers/third_party/ST/STM32L4xx_HAL_Driver/Src\stm32l4xx_hal_tim.c ****       __HAL_TIM_ENABLE_IT(htim, TIM_IT_CC4);
 1318              		.loc 1 686 7
 1319 0082 7B68     		ldr	r3, [r7, #4]
 1320 0084 1B68     		ldr	r3, [r3]
 1321 0086 DA68     		ldr	r2, [r3, #12]
 1322 0088 7B68     		ldr	r3, [r7, #4]
 1323 008a 1B68     		ldr	r3, [r3]
 1324 008c 42F01002 		orr	r2, r2, #16
 1325 0090 DA60     		str	r2, [r3, #12]
 687:d:/LiteOS_Lab/drivers/third_party/ST/STM32L4xx_HAL_Driver/Src\stm32l4xx_hal_tim.c ****     }
 688:d:/LiteOS_Lab/drivers/third_party/ST/STM32L4xx_HAL_Driver/Src\stm32l4xx_hal_tim.c ****     break;
 1326              		.loc 1 688 5
 1327 0092 00E0     		b	.L63
 1328              	.L69:
 689:d:/LiteOS_Lab/drivers/third_party/ST/STM32L4xx_HAL_Driver/Src\stm32l4xx_hal_tim.c **** 
 690:d:/LiteOS_Lab/drivers/third_party/ST/STM32L4xx_HAL_Driver/Src\stm32l4xx_hal_tim.c ****     default:
 691:d:/LiteOS_Lab/drivers/third_party/ST/STM32L4xx_HAL_Driver/Src\stm32l4xx_hal_tim.c ****     break;
 1329              		.loc 1 691 5
 1330 0094 00BF     		nop
 1331              	.L63:
 692:d:/LiteOS_Lab/drivers/third_party/ST/STM32L4xx_HAL_Driver/Src\stm32l4xx_hal_tim.c ****   }
 693:d:/LiteOS_Lab/drivers/third_party/ST/STM32L4xx_HAL_Driver/Src\stm32l4xx_hal_tim.c **** 
 694:d:/LiteOS_Lab/drivers/third_party/ST/STM32L4xx_HAL_Driver/Src\stm32l4xx_hal_tim.c ****   /* Enable the Output compare channel */
 695:d:/LiteOS_Lab/drivers/third_party/ST/STM32L4xx_HAL_Driver/Src\stm32l4xx_hal_tim.c ****   TIM_CCxChannelCmd(htim->Instance, Channel, TIM_CCx_ENABLE);
 1332              		.loc 1 695 3
 1333 0096 7B68     		ldr	r3, [r7, #4]
ARM GAS  C:\Users\ADMINI~1\AppData\Local\Temp\cccB3BZw.s 			page 36


 1334 0098 1B68     		ldr	r3, [r3]
 1335 009a 0122     		movs	r2, #1
 1336 009c 3968     		ldr	r1, [r7]
 1337 009e 1846     		mov	r0, r3
 1338 00a0 FFF7FEFF 		bl	TIM_CCxChannelCmd
 696:d:/LiteOS_Lab/drivers/third_party/ST/STM32L4xx_HAL_Driver/Src\stm32l4xx_hal_tim.c **** 
 697:d:/LiteOS_Lab/drivers/third_party/ST/STM32L4xx_HAL_Driver/Src\stm32l4xx_hal_tim.c ****   if(IS_TIM_BREAK_INSTANCE(htim->Instance) != RESET)
 1339              		.loc 1 697 6
 1340 00a4 7B68     		ldr	r3, [r7, #4]
 1341 00a6 1B68     		ldr	r3, [r3]
 1342 00a8 134A     		ldr	r2, .L70
 1343 00aa 9342     		cmp	r3, r2
 1344 00ac 09D0     		beq	.L64
 1345              		.loc 1 697 6 is_stmt 0 discriminator 2
 1346 00ae 7B68     		ldr	r3, [r7, #4]
 1347 00b0 1B68     		ldr	r3, [r3]
 1348 00b2 124A     		ldr	r2, .L70+4
 1349 00b4 9342     		cmp	r3, r2
 1350 00b6 04D0     		beq	.L64
 1351              		.loc 1 697 6 discriminator 4
 1352 00b8 7B68     		ldr	r3, [r7, #4]
 1353 00ba 1B68     		ldr	r3, [r3]
 1354 00bc 104A     		ldr	r2, .L70+8
 1355 00be 9342     		cmp	r3, r2
 1356 00c0 01D1     		bne	.L65
 1357              	.L64:
 1358              		.loc 1 697 6 discriminator 5
 1359 00c2 0123     		movs	r3, #1
 1360 00c4 00E0     		b	.L66
 1361              	.L65:
 1362              		.loc 1 697 6 discriminator 6
 1363 00c6 0023     		movs	r3, #0
 1364              	.L66:
 1365              		.loc 1 697 5 is_stmt 1 discriminator 8
 1366 00c8 002B     		cmp	r3, #0
 1367 00ca 07D0     		beq	.L67
 698:d:/LiteOS_Lab/drivers/third_party/ST/STM32L4xx_HAL_Driver/Src\stm32l4xx_hal_tim.c ****   {
 699:d:/LiteOS_Lab/drivers/third_party/ST/STM32L4xx_HAL_Driver/Src\stm32l4xx_hal_tim.c ****     /* Enable the main output */
 700:d:/LiteOS_Lab/drivers/third_party/ST/STM32L4xx_HAL_Driver/Src\stm32l4xx_hal_tim.c ****     __HAL_TIM_MOE_ENABLE(htim);
 1368              		.loc 1 700 5
 1369 00cc 7B68     		ldr	r3, [r7, #4]
 1370 00ce 1B68     		ldr	r3, [r3]
 1371 00d0 5A6C     		ldr	r2, [r3, #68]
 1372 00d2 7B68     		ldr	r3, [r7, #4]
 1373 00d4 1B68     		ldr	r3, [r3]
 1374 00d6 42F40042 		orr	r2, r2, #32768
 1375 00da 5A64     		str	r2, [r3, #68]
 1376              	.L67:
 701:d:/LiteOS_Lab/drivers/third_party/ST/STM32L4xx_HAL_Driver/Src\stm32l4xx_hal_tim.c ****   }
 702:d:/LiteOS_Lab/drivers/third_party/ST/STM32L4xx_HAL_Driver/Src\stm32l4xx_hal_tim.c **** 
 703:d:/LiteOS_Lab/drivers/third_party/ST/STM32L4xx_HAL_Driver/Src\stm32l4xx_hal_tim.c ****   /* Enable the Peripheral */
 704:d:/LiteOS_Lab/drivers/third_party/ST/STM32L4xx_HAL_Driver/Src\stm32l4xx_hal_tim.c ****   __HAL_TIM_ENABLE(htim);
 1377              		.loc 1 704 3
 1378 00dc 7B68     		ldr	r3, [r7, #4]
 1379 00de 1B68     		ldr	r3, [r3]
 1380 00e0 1A68     		ldr	r2, [r3]
 1381 00e2 7B68     		ldr	r3, [r7, #4]
ARM GAS  C:\Users\ADMINI~1\AppData\Local\Temp\cccB3BZw.s 			page 37


 1382 00e4 1B68     		ldr	r3, [r3]
 1383 00e6 42F00102 		orr	r2, r2, #1
 1384 00ea 1A60     		str	r2, [r3]
 705:d:/LiteOS_Lab/drivers/third_party/ST/STM32L4xx_HAL_Driver/Src\stm32l4xx_hal_tim.c **** 
 706:d:/LiteOS_Lab/drivers/third_party/ST/STM32L4xx_HAL_Driver/Src\stm32l4xx_hal_tim.c ****   /* Return function status */
 707:d:/LiteOS_Lab/drivers/third_party/ST/STM32L4xx_HAL_Driver/Src\stm32l4xx_hal_tim.c ****   return HAL_OK;
 1385              		.loc 1 707 10
 1386 00ec 0023     		movs	r3, #0
 708:d:/LiteOS_Lab/drivers/third_party/ST/STM32L4xx_HAL_Driver/Src\stm32l4xx_hal_tim.c **** }
 1387              		.loc 1 708 1
 1388 00ee 1846     		mov	r0, r3
 1389 00f0 0837     		adds	r7, r7, #8
 1390              	.LCFI92:
 1391              		.cfi_def_cfa_offset 8
 1392 00f2 BD46     		mov	sp, r7
 1393              	.LCFI93:
 1394              		.cfi_def_cfa_register 13
 1395              		@ sp needed
 1396 00f4 80BD     		pop	{r7, pc}
 1397              	.L71:
 1398 00f6 00BF     		.align	2
 1399              	.L70:
 1400 00f8 002C0140 		.word	1073818624
 1401 00fc 00400140 		.word	1073823744
 1402 0100 00440140 		.word	1073824768
 1403              		.cfi_endproc
 1404              	.LFE303:
 1406              		.section	.text.HAL_TIM_OC_Stop_IT,"ax",%progbits
 1407              		.align	1
 1408              		.global	HAL_TIM_OC_Stop_IT
 1409              		.syntax unified
 1410              		.thumb
 1411              		.thumb_func
 1412              		.fpu fpv4-sp-d16
 1414              	HAL_TIM_OC_Stop_IT:
 1415              	.LFB304:
 709:d:/LiteOS_Lab/drivers/third_party/ST/STM32L4xx_HAL_Driver/Src\stm32l4xx_hal_tim.c **** 
 710:d:/LiteOS_Lab/drivers/third_party/ST/STM32L4xx_HAL_Driver/Src\stm32l4xx_hal_tim.c **** /**
 711:d:/LiteOS_Lab/drivers/third_party/ST/STM32L4xx_HAL_Driver/Src\stm32l4xx_hal_tim.c ****   * @brief  Stops the TIM Output Compare signal generation in interrupt mode.
 712:d:/LiteOS_Lab/drivers/third_party/ST/STM32L4xx_HAL_Driver/Src\stm32l4xx_hal_tim.c ****   * @param  htim TIM Output Compare handle
 713:d:/LiteOS_Lab/drivers/third_party/ST/STM32L4xx_HAL_Driver/Src\stm32l4xx_hal_tim.c ****   * @param  Channel TIM Channel to be disabled
 714:d:/LiteOS_Lab/drivers/third_party/ST/STM32L4xx_HAL_Driver/Src\stm32l4xx_hal_tim.c ****   *          This parameter can be one of the following values:
 715:d:/LiteOS_Lab/drivers/third_party/ST/STM32L4xx_HAL_Driver/Src\stm32l4xx_hal_tim.c ****   *            @arg TIM_CHANNEL_1: TIM Channel 1 selected
 716:d:/LiteOS_Lab/drivers/third_party/ST/STM32L4xx_HAL_Driver/Src\stm32l4xx_hal_tim.c ****   *            @arg TIM_CHANNEL_2: TIM Channel 2 selected
 717:d:/LiteOS_Lab/drivers/third_party/ST/STM32L4xx_HAL_Driver/Src\stm32l4xx_hal_tim.c ****   *            @arg TIM_CHANNEL_3: TIM Channel 3 selected
 718:d:/LiteOS_Lab/drivers/third_party/ST/STM32L4xx_HAL_Driver/Src\stm32l4xx_hal_tim.c ****   *            @arg TIM_CHANNEL_4: TIM Channel 4 selected
 719:d:/LiteOS_Lab/drivers/third_party/ST/STM32L4xx_HAL_Driver/Src\stm32l4xx_hal_tim.c ****   *            @arg TIM_CHANNEL_5: TIM Channel 5 selected
 720:d:/LiteOS_Lab/drivers/third_party/ST/STM32L4xx_HAL_Driver/Src\stm32l4xx_hal_tim.c ****   *            @arg TIM_CHANNEL_6: TIM Channel 6 selected
 721:d:/LiteOS_Lab/drivers/third_party/ST/STM32L4xx_HAL_Driver/Src\stm32l4xx_hal_tim.c ****   * @retval HAL status
 722:d:/LiteOS_Lab/drivers/third_party/ST/STM32L4xx_HAL_Driver/Src\stm32l4xx_hal_tim.c **** */
 723:d:/LiteOS_Lab/drivers/third_party/ST/STM32L4xx_HAL_Driver/Src\stm32l4xx_hal_tim.c **** HAL_StatusTypeDef HAL_TIM_OC_Stop_IT(TIM_HandleTypeDef *htim, uint32_t Channel)
 724:d:/LiteOS_Lab/drivers/third_party/ST/STM32L4xx_HAL_Driver/Src\stm32l4xx_hal_tim.c **** {
 1416              		.loc 1 724 1
 1417              		.cfi_startproc
 1418              		@ args = 0, pretend = 0, frame = 8
 1419              		@ frame_needed = 1, uses_anonymous_args = 0
 1420 0000 80B5     		push	{r7, lr}
ARM GAS  C:\Users\ADMINI~1\AppData\Local\Temp\cccB3BZw.s 			page 38


 1421              	.LCFI94:
 1422              		.cfi_def_cfa_offset 8
 1423              		.cfi_offset 7, -8
 1424              		.cfi_offset 14, -4
 1425 0002 82B0     		sub	sp, sp, #8
 1426              	.LCFI95:
 1427              		.cfi_def_cfa_offset 16
 1428 0004 00AF     		add	r7, sp, #0
 1429              	.LCFI96:
 1430              		.cfi_def_cfa_register 7
 1431 0006 7860     		str	r0, [r7, #4]
 1432 0008 3960     		str	r1, [r7]
 1433 000a 3B68     		ldr	r3, [r7]
 1434 000c 0C2B     		cmp	r3, #12
 1435 000e 41D8     		bhi	.L86
 1436 0010 01A2     		adr	r2, .L75
 1437 0012 52F823F0 		ldr	pc, [r2, r3, lsl #2]
 1438 0016 00BF     		.p2align 2
 1439              	.L75:
 1440 0018 4D000000 		.word	.L78+1
 1441 001c 95000000 		.word	.L86+1
 1442 0020 95000000 		.word	.L86+1
 1443 0024 95000000 		.word	.L86+1
 1444 0028 5F000000 		.word	.L77+1
 1445 002c 95000000 		.word	.L86+1
 1446 0030 95000000 		.word	.L86+1
 1447 0034 95000000 		.word	.L86+1
 1448 0038 71000000 		.word	.L76+1
 1449 003c 95000000 		.word	.L86+1
 1450 0040 95000000 		.word	.L86+1
 1451 0044 95000000 		.word	.L86+1
 1452 0048 83000000 		.word	.L74+1
 1453              		.p2align 1
 1454              	.L78:
 725:d:/LiteOS_Lab/drivers/third_party/ST/STM32L4xx_HAL_Driver/Src\stm32l4xx_hal_tim.c ****   /* Check the parameters */
 726:d:/LiteOS_Lab/drivers/third_party/ST/STM32L4xx_HAL_Driver/Src\stm32l4xx_hal_tim.c ****   assert_param(IS_TIM_CCX_INSTANCE(htim->Instance, Channel));
 727:d:/LiteOS_Lab/drivers/third_party/ST/STM32L4xx_HAL_Driver/Src\stm32l4xx_hal_tim.c **** 
 728:d:/LiteOS_Lab/drivers/third_party/ST/STM32L4xx_HAL_Driver/Src\stm32l4xx_hal_tim.c ****   switch (Channel)
 729:d:/LiteOS_Lab/drivers/third_party/ST/STM32L4xx_HAL_Driver/Src\stm32l4xx_hal_tim.c ****   {
 730:d:/LiteOS_Lab/drivers/third_party/ST/STM32L4xx_HAL_Driver/Src\stm32l4xx_hal_tim.c ****     case TIM_CHANNEL_1:
 731:d:/LiteOS_Lab/drivers/third_party/ST/STM32L4xx_HAL_Driver/Src\stm32l4xx_hal_tim.c ****     {
 732:d:/LiteOS_Lab/drivers/third_party/ST/STM32L4xx_HAL_Driver/Src\stm32l4xx_hal_tim.c ****       /* Disable the TIM Capture/Compare 1 interrupt */
 733:d:/LiteOS_Lab/drivers/third_party/ST/STM32L4xx_HAL_Driver/Src\stm32l4xx_hal_tim.c ****       __HAL_TIM_DISABLE_IT(htim, TIM_IT_CC1);
 1455              		.loc 1 733 7
 1456 004c 7B68     		ldr	r3, [r7, #4]
 1457 004e 1B68     		ldr	r3, [r3]
 1458 0050 DA68     		ldr	r2, [r3, #12]
 1459 0052 7B68     		ldr	r3, [r7, #4]
 1460 0054 1B68     		ldr	r3, [r3]
 1461 0056 22F00202 		bic	r2, r2, #2
 1462 005a DA60     		str	r2, [r3, #12]
 734:d:/LiteOS_Lab/drivers/third_party/ST/STM32L4xx_HAL_Driver/Src\stm32l4xx_hal_tim.c ****     }
 735:d:/LiteOS_Lab/drivers/third_party/ST/STM32L4xx_HAL_Driver/Src\stm32l4xx_hal_tim.c ****     break;
 1463              		.loc 1 735 5
 1464 005c 1BE0     		b	.L79
 1465              	.L77:
 736:d:/LiteOS_Lab/drivers/third_party/ST/STM32L4xx_HAL_Driver/Src\stm32l4xx_hal_tim.c **** 
ARM GAS  C:\Users\ADMINI~1\AppData\Local\Temp\cccB3BZw.s 			page 39


 737:d:/LiteOS_Lab/drivers/third_party/ST/STM32L4xx_HAL_Driver/Src\stm32l4xx_hal_tim.c ****     case TIM_CHANNEL_2:
 738:d:/LiteOS_Lab/drivers/third_party/ST/STM32L4xx_HAL_Driver/Src\stm32l4xx_hal_tim.c ****     {
 739:d:/LiteOS_Lab/drivers/third_party/ST/STM32L4xx_HAL_Driver/Src\stm32l4xx_hal_tim.c ****       /* Disable the TIM Capture/Compare 2 interrupt */
 740:d:/LiteOS_Lab/drivers/third_party/ST/STM32L4xx_HAL_Driver/Src\stm32l4xx_hal_tim.c ****       __HAL_TIM_DISABLE_IT(htim, TIM_IT_CC2);
 1466              		.loc 1 740 7
 1467 005e 7B68     		ldr	r3, [r7, #4]
 1468 0060 1B68     		ldr	r3, [r3]
 1469 0062 DA68     		ldr	r2, [r3, #12]
 1470 0064 7B68     		ldr	r3, [r7, #4]
 1471 0066 1B68     		ldr	r3, [r3]
 1472 0068 22F00402 		bic	r2, r2, #4
 1473 006c DA60     		str	r2, [r3, #12]
 741:d:/LiteOS_Lab/drivers/third_party/ST/STM32L4xx_HAL_Driver/Src\stm32l4xx_hal_tim.c ****     }
 742:d:/LiteOS_Lab/drivers/third_party/ST/STM32L4xx_HAL_Driver/Src\stm32l4xx_hal_tim.c ****     break;
 1474              		.loc 1 742 5
 1475 006e 12E0     		b	.L79
 1476              	.L76:
 743:d:/LiteOS_Lab/drivers/third_party/ST/STM32L4xx_HAL_Driver/Src\stm32l4xx_hal_tim.c **** 
 744:d:/LiteOS_Lab/drivers/third_party/ST/STM32L4xx_HAL_Driver/Src\stm32l4xx_hal_tim.c ****     case TIM_CHANNEL_3:
 745:d:/LiteOS_Lab/drivers/third_party/ST/STM32L4xx_HAL_Driver/Src\stm32l4xx_hal_tim.c ****     {
 746:d:/LiteOS_Lab/drivers/third_party/ST/STM32L4xx_HAL_Driver/Src\stm32l4xx_hal_tim.c ****       /* Disable the TIM Capture/Compare 3 interrupt */
 747:d:/LiteOS_Lab/drivers/third_party/ST/STM32L4xx_HAL_Driver/Src\stm32l4xx_hal_tim.c ****       __HAL_TIM_DISABLE_IT(htim, TIM_IT_CC3);
 1477              		.loc 1 747 7
 1478 0070 7B68     		ldr	r3, [r7, #4]
 1479 0072 1B68     		ldr	r3, [r3]
 1480 0074 DA68     		ldr	r2, [r3, #12]
 1481 0076 7B68     		ldr	r3, [r7, #4]
 1482 0078 1B68     		ldr	r3, [r3]
 1483 007a 22F00802 		bic	r2, r2, #8
 1484 007e DA60     		str	r2, [r3, #12]
 748:d:/LiteOS_Lab/drivers/third_party/ST/STM32L4xx_HAL_Driver/Src\stm32l4xx_hal_tim.c ****     }
 749:d:/LiteOS_Lab/drivers/third_party/ST/STM32L4xx_HAL_Driver/Src\stm32l4xx_hal_tim.c ****     break;
 1485              		.loc 1 749 5
 1486 0080 09E0     		b	.L79
 1487              	.L74:
 750:d:/LiteOS_Lab/drivers/third_party/ST/STM32L4xx_HAL_Driver/Src\stm32l4xx_hal_tim.c **** 
 751:d:/LiteOS_Lab/drivers/third_party/ST/STM32L4xx_HAL_Driver/Src\stm32l4xx_hal_tim.c ****     case TIM_CHANNEL_4:
 752:d:/LiteOS_Lab/drivers/third_party/ST/STM32L4xx_HAL_Driver/Src\stm32l4xx_hal_tim.c ****     {
 753:d:/LiteOS_Lab/drivers/third_party/ST/STM32L4xx_HAL_Driver/Src\stm32l4xx_hal_tim.c ****       /* Disable the TIM Capture/Compare 4 interrupt */
 754:d:/LiteOS_Lab/drivers/third_party/ST/STM32L4xx_HAL_Driver/Src\stm32l4xx_hal_tim.c ****       __HAL_TIM_DISABLE_IT(htim, TIM_IT_CC4);
 1488              		.loc 1 754 7
 1489 0082 7B68     		ldr	r3, [r7, #4]
 1490 0084 1B68     		ldr	r3, [r3]
 1491 0086 DA68     		ldr	r2, [r3, #12]
 1492 0088 7B68     		ldr	r3, [r7, #4]
 1493 008a 1B68     		ldr	r3, [r3]
 1494 008c 22F01002 		bic	r2, r2, #16
 1495 0090 DA60     		str	r2, [r3, #12]
 755:d:/LiteOS_Lab/drivers/third_party/ST/STM32L4xx_HAL_Driver/Src\stm32l4xx_hal_tim.c ****     }
 756:d:/LiteOS_Lab/drivers/third_party/ST/STM32L4xx_HAL_Driver/Src\stm32l4xx_hal_tim.c ****     break;
 1496              		.loc 1 756 5
 1497 0092 00E0     		b	.L79
 1498              	.L86:
 757:d:/LiteOS_Lab/drivers/third_party/ST/STM32L4xx_HAL_Driver/Src\stm32l4xx_hal_tim.c **** 
 758:d:/LiteOS_Lab/drivers/third_party/ST/STM32L4xx_HAL_Driver/Src\stm32l4xx_hal_tim.c ****     default:
 759:d:/LiteOS_Lab/drivers/third_party/ST/STM32L4xx_HAL_Driver/Src\stm32l4xx_hal_tim.c ****     break;
 1499              		.loc 1 759 5
ARM GAS  C:\Users\ADMINI~1\AppData\Local\Temp\cccB3BZw.s 			page 40


 1500 0094 00BF     		nop
 1501              	.L79:
 760:d:/LiteOS_Lab/drivers/third_party/ST/STM32L4xx_HAL_Driver/Src\stm32l4xx_hal_tim.c ****   }
 761:d:/LiteOS_Lab/drivers/third_party/ST/STM32L4xx_HAL_Driver/Src\stm32l4xx_hal_tim.c **** 
 762:d:/LiteOS_Lab/drivers/third_party/ST/STM32L4xx_HAL_Driver/Src\stm32l4xx_hal_tim.c ****   /* Disable the Output compare channel */
 763:d:/LiteOS_Lab/drivers/third_party/ST/STM32L4xx_HAL_Driver/Src\stm32l4xx_hal_tim.c ****   TIM_CCxChannelCmd(htim->Instance, Channel, TIM_CCx_DISABLE);
 1502              		.loc 1 763 3
 1503 0096 7B68     		ldr	r3, [r7, #4]
 1504 0098 1B68     		ldr	r3, [r3]
 1505 009a 0022     		movs	r2, #0
 1506 009c 3968     		ldr	r1, [r7]
 1507 009e 1846     		mov	r0, r3
 1508 00a0 FFF7FEFF 		bl	TIM_CCxChannelCmd
 764:d:/LiteOS_Lab/drivers/third_party/ST/STM32L4xx_HAL_Driver/Src\stm32l4xx_hal_tim.c **** 
 765:d:/LiteOS_Lab/drivers/third_party/ST/STM32L4xx_HAL_Driver/Src\stm32l4xx_hal_tim.c ****   if(IS_TIM_BREAK_INSTANCE(htim->Instance) != RESET)
 1509              		.loc 1 765 6
 1510 00a4 7B68     		ldr	r3, [r7, #4]
 1511 00a6 1B68     		ldr	r3, [r3]
 1512 00a8 234A     		ldr	r2, .L87
 1513 00aa 9342     		cmp	r3, r2
 1514 00ac 09D0     		beq	.L80
 1515              		.loc 1 765 6 is_stmt 0 discriminator 2
 1516 00ae 7B68     		ldr	r3, [r7, #4]
 1517 00b0 1B68     		ldr	r3, [r3]
 1518 00b2 224A     		ldr	r2, .L87+4
 1519 00b4 9342     		cmp	r3, r2
 1520 00b6 04D0     		beq	.L80
 1521              		.loc 1 765 6 discriminator 4
 1522 00b8 7B68     		ldr	r3, [r7, #4]
 1523 00ba 1B68     		ldr	r3, [r3]
 1524 00bc 204A     		ldr	r2, .L87+8
 1525 00be 9342     		cmp	r3, r2
 1526 00c0 01D1     		bne	.L81
 1527              	.L80:
 1528              		.loc 1 765 6 discriminator 5
 1529 00c2 0123     		movs	r3, #1
 1530 00c4 00E0     		b	.L82
 1531              	.L81:
 1532              		.loc 1 765 6 discriminator 6
 1533 00c6 0023     		movs	r3, #0
 1534              	.L82:
 1535              		.loc 1 765 5 is_stmt 1 discriminator 8
 1536 00c8 002B     		cmp	r3, #0
 1537 00ca 17D0     		beq	.L83
 766:d:/LiteOS_Lab/drivers/third_party/ST/STM32L4xx_HAL_Driver/Src\stm32l4xx_hal_tim.c ****   {
 767:d:/LiteOS_Lab/drivers/third_party/ST/STM32L4xx_HAL_Driver/Src\stm32l4xx_hal_tim.c ****     /* Disable the Main Ouput */
 768:d:/LiteOS_Lab/drivers/third_party/ST/STM32L4xx_HAL_Driver/Src\stm32l4xx_hal_tim.c ****     __HAL_TIM_MOE_DISABLE(htim);
 1538              		.loc 1 768 5
 1539 00cc 7B68     		ldr	r3, [r7, #4]
 1540 00ce 1B68     		ldr	r3, [r3]
 1541 00d0 1A6A     		ldr	r2, [r3, #32]
 1542 00d2 41F21113 		movw	r3, #4369
 1543 00d6 1340     		ands	r3, r3, r2
 1544 00d8 002B     		cmp	r3, #0
 1545 00da 0FD1     		bne	.L83
 1546              		.loc 1 768 5 is_stmt 0 discriminator 1
 1547 00dc 7B68     		ldr	r3, [r7, #4]
ARM GAS  C:\Users\ADMINI~1\AppData\Local\Temp\cccB3BZw.s 			page 41


 1548 00de 1B68     		ldr	r3, [r3]
 1549 00e0 1A6A     		ldr	r2, [r3, #32]
 1550 00e2 40F24443 		movw	r3, #1092
 1551 00e6 1340     		ands	r3, r3, r2
 1552 00e8 002B     		cmp	r3, #0
 1553 00ea 07D1     		bne	.L83
 1554              		.loc 1 768 5 discriminator 2
 1555 00ec 7B68     		ldr	r3, [r7, #4]
 1556 00ee 1B68     		ldr	r3, [r3]
 1557 00f0 5A6C     		ldr	r2, [r3, #68]
 1558 00f2 7B68     		ldr	r3, [r7, #4]
 1559 00f4 1B68     		ldr	r3, [r3]
 1560 00f6 22F40042 		bic	r2, r2, #32768
 1561 00fa 5A64     		str	r2, [r3, #68]
 1562              	.L83:
 769:d:/LiteOS_Lab/drivers/third_party/ST/STM32L4xx_HAL_Driver/Src\stm32l4xx_hal_tim.c ****   }
 770:d:/LiteOS_Lab/drivers/third_party/ST/STM32L4xx_HAL_Driver/Src\stm32l4xx_hal_tim.c **** 
 771:d:/LiteOS_Lab/drivers/third_party/ST/STM32L4xx_HAL_Driver/Src\stm32l4xx_hal_tim.c ****   /* Disable the Peripheral */
 772:d:/LiteOS_Lab/drivers/third_party/ST/STM32L4xx_HAL_Driver/Src\stm32l4xx_hal_tim.c ****   __HAL_TIM_DISABLE(htim);
 1563              		.loc 1 772 3 is_stmt 1
 1564 00fc 7B68     		ldr	r3, [r7, #4]
 1565 00fe 1B68     		ldr	r3, [r3]
 1566 0100 1A6A     		ldr	r2, [r3, #32]
 1567 0102 41F21113 		movw	r3, #4369
 1568 0106 1340     		ands	r3, r3, r2
 1569 0108 002B     		cmp	r3, #0
 1570 010a 0FD1     		bne	.L84
 1571              		.loc 1 772 3 is_stmt 0 discriminator 1
 1572 010c 7B68     		ldr	r3, [r7, #4]
 1573 010e 1B68     		ldr	r3, [r3]
 1574 0110 1A6A     		ldr	r2, [r3, #32]
 1575 0112 40F24443 		movw	r3, #1092
 1576 0116 1340     		ands	r3, r3, r2
 1577 0118 002B     		cmp	r3, #0
 1578 011a 07D1     		bne	.L84
 1579              		.loc 1 772 3 discriminator 2
 1580 011c 7B68     		ldr	r3, [r7, #4]
 1581 011e 1B68     		ldr	r3, [r3]
 1582 0120 1A68     		ldr	r2, [r3]
 1583 0122 7B68     		ldr	r3, [r7, #4]
 1584 0124 1B68     		ldr	r3, [r3]
 1585 0126 22F00102 		bic	r2, r2, #1
 1586 012a 1A60     		str	r2, [r3]
 1587              	.L84:
 773:d:/LiteOS_Lab/drivers/third_party/ST/STM32L4xx_HAL_Driver/Src\stm32l4xx_hal_tim.c **** 
 774:d:/LiteOS_Lab/drivers/third_party/ST/STM32L4xx_HAL_Driver/Src\stm32l4xx_hal_tim.c ****   /* Return function status */
 775:d:/LiteOS_Lab/drivers/third_party/ST/STM32L4xx_HAL_Driver/Src\stm32l4xx_hal_tim.c ****   return HAL_OK;
 1588              		.loc 1 775 10 is_stmt 1
 1589 012c 0023     		movs	r3, #0
 776:d:/LiteOS_Lab/drivers/third_party/ST/STM32L4xx_HAL_Driver/Src\stm32l4xx_hal_tim.c **** }
 1590              		.loc 1 776 1
 1591 012e 1846     		mov	r0, r3
 1592 0130 0837     		adds	r7, r7, #8
 1593              	.LCFI97:
 1594              		.cfi_def_cfa_offset 8
 1595 0132 BD46     		mov	sp, r7
 1596              	.LCFI98:
ARM GAS  C:\Users\ADMINI~1\AppData\Local\Temp\cccB3BZw.s 			page 42


 1597              		.cfi_def_cfa_register 13
 1598              		@ sp needed
 1599 0134 80BD     		pop	{r7, pc}
 1600              	.L88:
 1601 0136 00BF     		.align	2
 1602              	.L87:
 1603 0138 002C0140 		.word	1073818624
 1604 013c 00400140 		.word	1073823744
 1605 0140 00440140 		.word	1073824768
 1606              		.cfi_endproc
 1607              	.LFE304:
 1609              		.section	.text.HAL_TIM_OC_Start_DMA,"ax",%progbits
 1610              		.align	1
 1611              		.global	HAL_TIM_OC_Start_DMA
 1612              		.syntax unified
 1613              		.thumb
 1614              		.thumb_func
 1615              		.fpu fpv4-sp-d16
 1617              	HAL_TIM_OC_Start_DMA:
 1618              	.LFB305:
 777:d:/LiteOS_Lab/drivers/third_party/ST/STM32L4xx_HAL_Driver/Src\stm32l4xx_hal_tim.c **** 
 778:d:/LiteOS_Lab/drivers/third_party/ST/STM32L4xx_HAL_Driver/Src\stm32l4xx_hal_tim.c **** /**
 779:d:/LiteOS_Lab/drivers/third_party/ST/STM32L4xx_HAL_Driver/Src\stm32l4xx_hal_tim.c ****   * @brief  Starts the TIM Output Compare signal generation in DMA mode.
 780:d:/LiteOS_Lab/drivers/third_party/ST/STM32L4xx_HAL_Driver/Src\stm32l4xx_hal_tim.c ****   * @param  htim TIM Output Compare handle
 781:d:/LiteOS_Lab/drivers/third_party/ST/STM32L4xx_HAL_Driver/Src\stm32l4xx_hal_tim.c ****   * @param  Channel TIM Channel to be enabled
 782:d:/LiteOS_Lab/drivers/third_party/ST/STM32L4xx_HAL_Driver/Src\stm32l4xx_hal_tim.c ****   *          This parameter can be one of the following values:
 783:d:/LiteOS_Lab/drivers/third_party/ST/STM32L4xx_HAL_Driver/Src\stm32l4xx_hal_tim.c ****   *            @arg TIM_CHANNEL_1: TIM Channel 1 selected
 784:d:/LiteOS_Lab/drivers/third_party/ST/STM32L4xx_HAL_Driver/Src\stm32l4xx_hal_tim.c ****   *            @arg TIM_CHANNEL_2: TIM Channel 2 selected
 785:d:/LiteOS_Lab/drivers/third_party/ST/STM32L4xx_HAL_Driver/Src\stm32l4xx_hal_tim.c ****   *            @arg TIM_CHANNEL_3: TIM Channel 3 selected
 786:d:/LiteOS_Lab/drivers/third_party/ST/STM32L4xx_HAL_Driver/Src\stm32l4xx_hal_tim.c ****   *            @arg TIM_CHANNEL_4: TIM Channel 4 selected
 787:d:/LiteOS_Lab/drivers/third_party/ST/STM32L4xx_HAL_Driver/Src\stm32l4xx_hal_tim.c ****   *            @arg TIM_CHANNEL_5: TIM Channel 5 selected
 788:d:/LiteOS_Lab/drivers/third_party/ST/STM32L4xx_HAL_Driver/Src\stm32l4xx_hal_tim.c ****   *            @arg TIM_CHANNEL_6: TIM Channel 6 selected
 789:d:/LiteOS_Lab/drivers/third_party/ST/STM32L4xx_HAL_Driver/Src\stm32l4xx_hal_tim.c ****   * @param  pData The source Buffer address.
 790:d:/LiteOS_Lab/drivers/third_party/ST/STM32L4xx_HAL_Driver/Src\stm32l4xx_hal_tim.c ****   * @param  Length The length of data to be transferred from memory to TIM peripheral
 791:d:/LiteOS_Lab/drivers/third_party/ST/STM32L4xx_HAL_Driver/Src\stm32l4xx_hal_tim.c ****   * @retval HAL status
 792:d:/LiteOS_Lab/drivers/third_party/ST/STM32L4xx_HAL_Driver/Src\stm32l4xx_hal_tim.c **** */
 793:d:/LiteOS_Lab/drivers/third_party/ST/STM32L4xx_HAL_Driver/Src\stm32l4xx_hal_tim.c **** HAL_StatusTypeDef HAL_TIM_OC_Start_DMA(TIM_HandleTypeDef *htim, uint32_t Channel, uint32_t *pData, 
 794:d:/LiteOS_Lab/drivers/third_party/ST/STM32L4xx_HAL_Driver/Src\stm32l4xx_hal_tim.c **** {
 1619              		.loc 1 794 1
 1620              		.cfi_startproc
 1621              		@ args = 0, pretend = 0, frame = 16
 1622              		@ frame_needed = 1, uses_anonymous_args = 0
 1623 0000 80B5     		push	{r7, lr}
 1624              	.LCFI99:
 1625              		.cfi_def_cfa_offset 8
 1626              		.cfi_offset 7, -8
 1627              		.cfi_offset 14, -4
 1628 0002 84B0     		sub	sp, sp, #16
 1629              	.LCFI100:
 1630              		.cfi_def_cfa_offset 24
 1631 0004 00AF     		add	r7, sp, #0
 1632              	.LCFI101:
 1633              		.cfi_def_cfa_register 7
 1634 0006 F860     		str	r0, [r7, #12]
 1635 0008 B960     		str	r1, [r7, #8]
 1636 000a 7A60     		str	r2, [r7, #4]
 1637 000c 7B80     		strh	r3, [r7, #2]	@ movhi
ARM GAS  C:\Users\ADMINI~1\AppData\Local\Temp\cccB3BZw.s 			page 43


 795:d:/LiteOS_Lab/drivers/third_party/ST/STM32L4xx_HAL_Driver/Src\stm32l4xx_hal_tim.c ****   /* Check the parameters */
 796:d:/LiteOS_Lab/drivers/third_party/ST/STM32L4xx_HAL_Driver/Src\stm32l4xx_hal_tim.c ****   assert_param(IS_TIM_CCX_INSTANCE(htim->Instance, Channel));
 797:d:/LiteOS_Lab/drivers/third_party/ST/STM32L4xx_HAL_Driver/Src\stm32l4xx_hal_tim.c **** 
 798:d:/LiteOS_Lab/drivers/third_party/ST/STM32L4xx_HAL_Driver/Src\stm32l4xx_hal_tim.c ****   if((htim->State == HAL_TIM_STATE_BUSY))
 1638              		.loc 1 798 11
 1639 000e FB68     		ldr	r3, [r7, #12]
 1640 0010 93F83D30 		ldrb	r3, [r3, #61]
 1641 0014 DBB2     		uxtb	r3, r3
 1642              		.loc 1 798 5
 1643 0016 022B     		cmp	r3, #2
 1644 0018 01D1     		bne	.L90
 799:d:/LiteOS_Lab/drivers/third_party/ST/STM32L4xx_HAL_Driver/Src\stm32l4xx_hal_tim.c ****   {
 800:d:/LiteOS_Lab/drivers/third_party/ST/STM32L4xx_HAL_Driver/Src\stm32l4xx_hal_tim.c ****      return HAL_BUSY;
 1645              		.loc 1 800 13
 1646 001a 0223     		movs	r3, #2
 1647 001c CBE0     		b	.L91
 1648              	.L90:
 801:d:/LiteOS_Lab/drivers/third_party/ST/STM32L4xx_HAL_Driver/Src\stm32l4xx_hal_tim.c ****   }
 802:d:/LiteOS_Lab/drivers/third_party/ST/STM32L4xx_HAL_Driver/Src\stm32l4xx_hal_tim.c ****   else if((htim->State == HAL_TIM_STATE_READY))
 1649              		.loc 1 802 16
 1650 001e FB68     		ldr	r3, [r7, #12]
 1651 0020 93F83D30 		ldrb	r3, [r3, #61]
 1652 0024 DBB2     		uxtb	r3, r3
 1653              		.loc 1 802 10
 1654 0026 012B     		cmp	r3, #1
 1655 0028 0BD1     		bne	.L92
 803:d:/LiteOS_Lab/drivers/third_party/ST/STM32L4xx_HAL_Driver/Src\stm32l4xx_hal_tim.c ****   {
 804:d:/LiteOS_Lab/drivers/third_party/ST/STM32L4xx_HAL_Driver/Src\stm32l4xx_hal_tim.c ****     if(((uint32_t)pData == 0 ) && (Length > 0))
 1656              		.loc 1 804 7
 1657 002a 7B68     		ldr	r3, [r7, #4]
 1658 002c 002B     		cmp	r3, #0
 1659 002e 04D1     		bne	.L93
 1660              		.loc 1 804 32 discriminator 1
 1661 0030 7B88     		ldrh	r3, [r7, #2]
 1662 0032 002B     		cmp	r3, #0
 1663 0034 01D0     		beq	.L93
 805:d:/LiteOS_Lab/drivers/third_party/ST/STM32L4xx_HAL_Driver/Src\stm32l4xx_hal_tim.c ****     {
 806:d:/LiteOS_Lab/drivers/third_party/ST/STM32L4xx_HAL_Driver/Src\stm32l4xx_hal_tim.c ****       return HAL_ERROR;
 1664              		.loc 1 806 14
 1665 0036 0123     		movs	r3, #1
 1666 0038 BDE0     		b	.L91
 1667              	.L93:
 807:d:/LiteOS_Lab/drivers/third_party/ST/STM32L4xx_HAL_Driver/Src\stm32l4xx_hal_tim.c ****     }
 808:d:/LiteOS_Lab/drivers/third_party/ST/STM32L4xx_HAL_Driver/Src\stm32l4xx_hal_tim.c ****     else
 809:d:/LiteOS_Lab/drivers/third_party/ST/STM32L4xx_HAL_Driver/Src\stm32l4xx_hal_tim.c ****     {
 810:d:/LiteOS_Lab/drivers/third_party/ST/STM32L4xx_HAL_Driver/Src\stm32l4xx_hal_tim.c ****       htim->State = HAL_TIM_STATE_BUSY;
 1668              		.loc 1 810 19
 1669 003a FB68     		ldr	r3, [r7, #12]
 1670 003c 0222     		movs	r2, #2
 1671 003e 83F83D20 		strb	r2, [r3, #61]
 1672              	.L92:
 1673 0042 BB68     		ldr	r3, [r7, #8]
 1674 0044 0C2B     		cmp	r3, #12
 1675 0046 00F28980 		bhi	.L105
 1676 004a 01A2     		adr	r2, .L96
 1677 004c 52F823F0 		ldr	pc, [r2, r3, lsl #2]
 1678              		.p2align 2
ARM GAS  C:\Users\ADMINI~1\AppData\Local\Temp\cccB3BZw.s 			page 44


 1679              	.L96:
 1680 0050 85000000 		.word	.L99+1
 1681 0054 5D010000 		.word	.L105+1
 1682 0058 5D010000 		.word	.L105+1
 1683 005c 5D010000 		.word	.L105+1
 1684 0060 BB000000 		.word	.L98+1
 1685 0064 5D010000 		.word	.L105+1
 1686 0068 5D010000 		.word	.L105+1
 1687 006c 5D010000 		.word	.L105+1
 1688 0070 F1000000 		.word	.L97+1
 1689 0074 5D010000 		.word	.L105+1
 1690 0078 5D010000 		.word	.L105+1
 1691 007c 5D010000 		.word	.L105+1
 1692 0080 27010000 		.word	.L95+1
 1693              		.p2align 1
 1694              	.L99:
 811:d:/LiteOS_Lab/drivers/third_party/ST/STM32L4xx_HAL_Driver/Src\stm32l4xx_hal_tim.c ****     }
 812:d:/LiteOS_Lab/drivers/third_party/ST/STM32L4xx_HAL_Driver/Src\stm32l4xx_hal_tim.c ****   }
 813:d:/LiteOS_Lab/drivers/third_party/ST/STM32L4xx_HAL_Driver/Src\stm32l4xx_hal_tim.c ****   switch (Channel)
 814:d:/LiteOS_Lab/drivers/third_party/ST/STM32L4xx_HAL_Driver/Src\stm32l4xx_hal_tim.c ****   {
 815:d:/LiteOS_Lab/drivers/third_party/ST/STM32L4xx_HAL_Driver/Src\stm32l4xx_hal_tim.c ****     case TIM_CHANNEL_1:
 816:d:/LiteOS_Lab/drivers/third_party/ST/STM32L4xx_HAL_Driver/Src\stm32l4xx_hal_tim.c ****     {
 817:d:/LiteOS_Lab/drivers/third_party/ST/STM32L4xx_HAL_Driver/Src\stm32l4xx_hal_tim.c ****       /* Set the DMA Period elapsed callback */
 818:d:/LiteOS_Lab/drivers/third_party/ST/STM32L4xx_HAL_Driver/Src\stm32l4xx_hal_tim.c ****       htim->hdma[TIM_DMA_ID_CC1]->XferCpltCallback = TIM_DMADelayPulseCplt;
 1695              		.loc 1 818 17
 1696 0084 FB68     		ldr	r3, [r7, #12]
 1697 0086 5B6A     		ldr	r3, [r3, #36]
 1698              		.loc 1 818 52
 1699 0088 4D4A     		ldr	r2, .L106
 1700 008a DA62     		str	r2, [r3, #44]
 819:d:/LiteOS_Lab/drivers/third_party/ST/STM32L4xx_HAL_Driver/Src\stm32l4xx_hal_tim.c **** 
 820:d:/LiteOS_Lab/drivers/third_party/ST/STM32L4xx_HAL_Driver/Src\stm32l4xx_hal_tim.c ****       /* Set the DMA error callback */
 821:d:/LiteOS_Lab/drivers/third_party/ST/STM32L4xx_HAL_Driver/Src\stm32l4xx_hal_tim.c ****       htim->hdma[TIM_DMA_ID_CC1]->XferErrorCallback = TIM_DMAError ;
 1701              		.loc 1 821 17
 1702 008c FB68     		ldr	r3, [r7, #12]
 1703 008e 5B6A     		ldr	r3, [r3, #36]
 1704              		.loc 1 821 53
 1705 0090 4C4A     		ldr	r2, .L106+4
 1706 0092 5A63     		str	r2, [r3, #52]
 822:d:/LiteOS_Lab/drivers/third_party/ST/STM32L4xx_HAL_Driver/Src\stm32l4xx_hal_tim.c **** 
 823:d:/LiteOS_Lab/drivers/third_party/ST/STM32L4xx_HAL_Driver/Src\stm32l4xx_hal_tim.c ****       /* Enable the DMA channel */
 824:d:/LiteOS_Lab/drivers/third_party/ST/STM32L4xx_HAL_Driver/Src\stm32l4xx_hal_tim.c ****       HAL_DMA_Start_IT(htim->hdma[TIM_DMA_ID_CC1], (uint32_t)pData, (uint32_t)&htim->Instance->CCR1
 1707              		.loc 1 824 7
 1708 0094 FB68     		ldr	r3, [r7, #12]
 1709 0096 586A     		ldr	r0, [r3, #36]
 1710 0098 7968     		ldr	r1, [r7, #4]
 1711              		.loc 1 824 84
 1712 009a FB68     		ldr	r3, [r7, #12]
 1713 009c 1B68     		ldr	r3, [r3]
 1714              		.loc 1 824 79
 1715 009e 3433     		adds	r3, r3, #52
 1716              		.loc 1 824 7
 1717 00a0 1A46     		mov	r2, r3
 1718 00a2 7B88     		ldrh	r3, [r7, #2]
 1719 00a4 FFF7FEFF 		bl	HAL_DMA_Start_IT
 825:d:/LiteOS_Lab/drivers/third_party/ST/STM32L4xx_HAL_Driver/Src\stm32l4xx_hal_tim.c **** 
 826:d:/LiteOS_Lab/drivers/third_party/ST/STM32L4xx_HAL_Driver/Src\stm32l4xx_hal_tim.c ****       /* Enable the TIM Capture/Compare 1 DMA request */
ARM GAS  C:\Users\ADMINI~1\AppData\Local\Temp\cccB3BZw.s 			page 45


 827:d:/LiteOS_Lab/drivers/third_party/ST/STM32L4xx_HAL_Driver/Src\stm32l4xx_hal_tim.c ****       __HAL_TIM_ENABLE_DMA(htim, TIM_DMA_CC1);
 1720              		.loc 1 827 7
 1721 00a8 FB68     		ldr	r3, [r7, #12]
 1722 00aa 1B68     		ldr	r3, [r3]
 1723 00ac DA68     		ldr	r2, [r3, #12]
 1724 00ae FB68     		ldr	r3, [r7, #12]
 1725 00b0 1B68     		ldr	r3, [r3]
 1726 00b2 42F40072 		orr	r2, r2, #512
 1727 00b6 DA60     		str	r2, [r3, #12]
 828:d:/LiteOS_Lab/drivers/third_party/ST/STM32L4xx_HAL_Driver/Src\stm32l4xx_hal_tim.c ****     }
 829:d:/LiteOS_Lab/drivers/third_party/ST/STM32L4xx_HAL_Driver/Src\stm32l4xx_hal_tim.c ****     break;
 1728              		.loc 1 829 5
 1729 00b8 51E0     		b	.L100
 1730              	.L98:
 830:d:/LiteOS_Lab/drivers/third_party/ST/STM32L4xx_HAL_Driver/Src\stm32l4xx_hal_tim.c **** 
 831:d:/LiteOS_Lab/drivers/third_party/ST/STM32L4xx_HAL_Driver/Src\stm32l4xx_hal_tim.c ****     case TIM_CHANNEL_2:
 832:d:/LiteOS_Lab/drivers/third_party/ST/STM32L4xx_HAL_Driver/Src\stm32l4xx_hal_tim.c ****     {
 833:d:/LiteOS_Lab/drivers/third_party/ST/STM32L4xx_HAL_Driver/Src\stm32l4xx_hal_tim.c ****       /* Set the DMA Period elapsed callback */
 834:d:/LiteOS_Lab/drivers/third_party/ST/STM32L4xx_HAL_Driver/Src\stm32l4xx_hal_tim.c ****       htim->hdma[TIM_DMA_ID_CC2]->XferCpltCallback = TIM_DMADelayPulseCplt;
 1731              		.loc 1 834 17
 1732 00ba FB68     		ldr	r3, [r7, #12]
 1733 00bc 9B6A     		ldr	r3, [r3, #40]
 1734              		.loc 1 834 52
 1735 00be 404A     		ldr	r2, .L106
 1736 00c0 DA62     		str	r2, [r3, #44]
 835:d:/LiteOS_Lab/drivers/third_party/ST/STM32L4xx_HAL_Driver/Src\stm32l4xx_hal_tim.c **** 
 836:d:/LiteOS_Lab/drivers/third_party/ST/STM32L4xx_HAL_Driver/Src\stm32l4xx_hal_tim.c ****       /* Set the DMA error callback */
 837:d:/LiteOS_Lab/drivers/third_party/ST/STM32L4xx_HAL_Driver/Src\stm32l4xx_hal_tim.c ****       htim->hdma[TIM_DMA_ID_CC2]->XferErrorCallback = TIM_DMAError ;
 1737              		.loc 1 837 17
 1738 00c2 FB68     		ldr	r3, [r7, #12]
 1739 00c4 9B6A     		ldr	r3, [r3, #40]
 1740              		.loc 1 837 53
 1741 00c6 3F4A     		ldr	r2, .L106+4
 1742 00c8 5A63     		str	r2, [r3, #52]
 838:d:/LiteOS_Lab/drivers/third_party/ST/STM32L4xx_HAL_Driver/Src\stm32l4xx_hal_tim.c **** 
 839:d:/LiteOS_Lab/drivers/third_party/ST/STM32L4xx_HAL_Driver/Src\stm32l4xx_hal_tim.c ****       /* Enable the DMA channel */
 840:d:/LiteOS_Lab/drivers/third_party/ST/STM32L4xx_HAL_Driver/Src\stm32l4xx_hal_tim.c ****       HAL_DMA_Start_IT(htim->hdma[TIM_DMA_ID_CC2], (uint32_t)pData, (uint32_t)&htim->Instance->CCR2
 1743              		.loc 1 840 7
 1744 00ca FB68     		ldr	r3, [r7, #12]
 1745 00cc 986A     		ldr	r0, [r3, #40]
 1746 00ce 7968     		ldr	r1, [r7, #4]
 1747              		.loc 1 840 84
 1748 00d0 FB68     		ldr	r3, [r7, #12]
 1749 00d2 1B68     		ldr	r3, [r3]
 1750              		.loc 1 840 79
 1751 00d4 3833     		adds	r3, r3, #56
 1752              		.loc 1 840 7
 1753 00d6 1A46     		mov	r2, r3
 1754 00d8 7B88     		ldrh	r3, [r7, #2]
 1755 00da FFF7FEFF 		bl	HAL_DMA_Start_IT
 841:d:/LiteOS_Lab/drivers/third_party/ST/STM32L4xx_HAL_Driver/Src\stm32l4xx_hal_tim.c **** 
 842:d:/LiteOS_Lab/drivers/third_party/ST/STM32L4xx_HAL_Driver/Src\stm32l4xx_hal_tim.c ****       /* Enable the TIM Capture/Compare 2 DMA request */
 843:d:/LiteOS_Lab/drivers/third_party/ST/STM32L4xx_HAL_Driver/Src\stm32l4xx_hal_tim.c ****       __HAL_TIM_ENABLE_DMA(htim, TIM_DMA_CC2);
 1756              		.loc 1 843 7
 1757 00de FB68     		ldr	r3, [r7, #12]
 1758 00e0 1B68     		ldr	r3, [r3]
 1759 00e2 DA68     		ldr	r2, [r3, #12]
ARM GAS  C:\Users\ADMINI~1\AppData\Local\Temp\cccB3BZw.s 			page 46


 1760 00e4 FB68     		ldr	r3, [r7, #12]
 1761 00e6 1B68     		ldr	r3, [r3]
 1762 00e8 42F48062 		orr	r2, r2, #1024
 1763 00ec DA60     		str	r2, [r3, #12]
 844:d:/LiteOS_Lab/drivers/third_party/ST/STM32L4xx_HAL_Driver/Src\stm32l4xx_hal_tim.c ****     }
 845:d:/LiteOS_Lab/drivers/third_party/ST/STM32L4xx_HAL_Driver/Src\stm32l4xx_hal_tim.c ****     break;
 1764              		.loc 1 845 5
 1765 00ee 36E0     		b	.L100
 1766              	.L97:
 846:d:/LiteOS_Lab/drivers/third_party/ST/STM32L4xx_HAL_Driver/Src\stm32l4xx_hal_tim.c **** 
 847:d:/LiteOS_Lab/drivers/third_party/ST/STM32L4xx_HAL_Driver/Src\stm32l4xx_hal_tim.c ****     case TIM_CHANNEL_3:
 848:d:/LiteOS_Lab/drivers/third_party/ST/STM32L4xx_HAL_Driver/Src\stm32l4xx_hal_tim.c ****     {
 849:d:/LiteOS_Lab/drivers/third_party/ST/STM32L4xx_HAL_Driver/Src\stm32l4xx_hal_tim.c ****       /* Set the DMA Period elapsed callback */
 850:d:/LiteOS_Lab/drivers/third_party/ST/STM32L4xx_HAL_Driver/Src\stm32l4xx_hal_tim.c ****       htim->hdma[TIM_DMA_ID_CC3]->XferCpltCallback = TIM_DMADelayPulseCplt;
 1767              		.loc 1 850 17
 1768 00f0 FB68     		ldr	r3, [r7, #12]
 1769 00f2 DB6A     		ldr	r3, [r3, #44]
 1770              		.loc 1 850 52
 1771 00f4 324A     		ldr	r2, .L106
 1772 00f6 DA62     		str	r2, [r3, #44]
 851:d:/LiteOS_Lab/drivers/third_party/ST/STM32L4xx_HAL_Driver/Src\stm32l4xx_hal_tim.c **** 
 852:d:/LiteOS_Lab/drivers/third_party/ST/STM32L4xx_HAL_Driver/Src\stm32l4xx_hal_tim.c ****       /* Set the DMA error callback */
 853:d:/LiteOS_Lab/drivers/third_party/ST/STM32L4xx_HAL_Driver/Src\stm32l4xx_hal_tim.c ****       htim->hdma[TIM_DMA_ID_CC3]->XferErrorCallback = TIM_DMAError ;
 1773              		.loc 1 853 17
 1774 00f8 FB68     		ldr	r3, [r7, #12]
 1775 00fa DB6A     		ldr	r3, [r3, #44]
 1776              		.loc 1 853 53
 1777 00fc 314A     		ldr	r2, .L106+4
 1778 00fe 5A63     		str	r2, [r3, #52]
 854:d:/LiteOS_Lab/drivers/third_party/ST/STM32L4xx_HAL_Driver/Src\stm32l4xx_hal_tim.c **** 
 855:d:/LiteOS_Lab/drivers/third_party/ST/STM32L4xx_HAL_Driver/Src\stm32l4xx_hal_tim.c ****       /* Enable the DMA channel */
 856:d:/LiteOS_Lab/drivers/third_party/ST/STM32L4xx_HAL_Driver/Src\stm32l4xx_hal_tim.c ****       HAL_DMA_Start_IT(htim->hdma[TIM_DMA_ID_CC3], (uint32_t)pData, (uint32_t)&htim->Instance->CCR3
 1779              		.loc 1 856 7
 1780 0100 FB68     		ldr	r3, [r7, #12]
 1781 0102 D86A     		ldr	r0, [r3, #44]
 1782 0104 7968     		ldr	r1, [r7, #4]
 1783              		.loc 1 856 84
 1784 0106 FB68     		ldr	r3, [r7, #12]
 1785 0108 1B68     		ldr	r3, [r3]
 1786              		.loc 1 856 79
 1787 010a 3C33     		adds	r3, r3, #60
 1788              		.loc 1 856 7
 1789 010c 1A46     		mov	r2, r3
 1790 010e 7B88     		ldrh	r3, [r7, #2]
 1791 0110 FFF7FEFF 		bl	HAL_DMA_Start_IT
 857:d:/LiteOS_Lab/drivers/third_party/ST/STM32L4xx_HAL_Driver/Src\stm32l4xx_hal_tim.c **** 
 858:d:/LiteOS_Lab/drivers/third_party/ST/STM32L4xx_HAL_Driver/Src\stm32l4xx_hal_tim.c ****       /* Enable the TIM Capture/Compare 3 DMA request */
 859:d:/LiteOS_Lab/drivers/third_party/ST/STM32L4xx_HAL_Driver/Src\stm32l4xx_hal_tim.c ****       __HAL_TIM_ENABLE_DMA(htim, TIM_DMA_CC3);
 1792              		.loc 1 859 7
 1793 0114 FB68     		ldr	r3, [r7, #12]
 1794 0116 1B68     		ldr	r3, [r3]
 1795 0118 DA68     		ldr	r2, [r3, #12]
 1796 011a FB68     		ldr	r3, [r7, #12]
 1797 011c 1B68     		ldr	r3, [r3]
 1798 011e 42F40062 		orr	r2, r2, #2048
 1799 0122 DA60     		str	r2, [r3, #12]
 860:d:/LiteOS_Lab/drivers/third_party/ST/STM32L4xx_HAL_Driver/Src\stm32l4xx_hal_tim.c ****     }
ARM GAS  C:\Users\ADMINI~1\AppData\Local\Temp\cccB3BZw.s 			page 47


 861:d:/LiteOS_Lab/drivers/third_party/ST/STM32L4xx_HAL_Driver/Src\stm32l4xx_hal_tim.c ****     break;
 1800              		.loc 1 861 5
 1801 0124 1BE0     		b	.L100
 1802              	.L95:
 862:d:/LiteOS_Lab/drivers/third_party/ST/STM32L4xx_HAL_Driver/Src\stm32l4xx_hal_tim.c **** 
 863:d:/LiteOS_Lab/drivers/third_party/ST/STM32L4xx_HAL_Driver/Src\stm32l4xx_hal_tim.c ****     case TIM_CHANNEL_4:
 864:d:/LiteOS_Lab/drivers/third_party/ST/STM32L4xx_HAL_Driver/Src\stm32l4xx_hal_tim.c ****     {
 865:d:/LiteOS_Lab/drivers/third_party/ST/STM32L4xx_HAL_Driver/Src\stm32l4xx_hal_tim.c ****      /* Set the DMA Period elapsed callback */
 866:d:/LiteOS_Lab/drivers/third_party/ST/STM32L4xx_HAL_Driver/Src\stm32l4xx_hal_tim.c ****       htim->hdma[TIM_DMA_ID_CC4]->XferCpltCallback = TIM_DMADelayPulseCplt;
 1803              		.loc 1 866 17
 1804 0126 FB68     		ldr	r3, [r7, #12]
 1805 0128 1B6B     		ldr	r3, [r3, #48]
 1806              		.loc 1 866 52
 1807 012a 254A     		ldr	r2, .L106
 1808 012c DA62     		str	r2, [r3, #44]
 867:d:/LiteOS_Lab/drivers/third_party/ST/STM32L4xx_HAL_Driver/Src\stm32l4xx_hal_tim.c **** 
 868:d:/LiteOS_Lab/drivers/third_party/ST/STM32L4xx_HAL_Driver/Src\stm32l4xx_hal_tim.c ****       /* Set the DMA error callback */
 869:d:/LiteOS_Lab/drivers/third_party/ST/STM32L4xx_HAL_Driver/Src\stm32l4xx_hal_tim.c ****       htim->hdma[TIM_DMA_ID_CC4]->XferErrorCallback = TIM_DMAError ;
 1809              		.loc 1 869 17
 1810 012e FB68     		ldr	r3, [r7, #12]
 1811 0130 1B6B     		ldr	r3, [r3, #48]
 1812              		.loc 1 869 53
 1813 0132 244A     		ldr	r2, .L106+4
 1814 0134 5A63     		str	r2, [r3, #52]
 870:d:/LiteOS_Lab/drivers/third_party/ST/STM32L4xx_HAL_Driver/Src\stm32l4xx_hal_tim.c **** 
 871:d:/LiteOS_Lab/drivers/third_party/ST/STM32L4xx_HAL_Driver/Src\stm32l4xx_hal_tim.c ****       /* Enable the DMA channel */
 872:d:/LiteOS_Lab/drivers/third_party/ST/STM32L4xx_HAL_Driver/Src\stm32l4xx_hal_tim.c ****       HAL_DMA_Start_IT(htim->hdma[TIM_DMA_ID_CC4], (uint32_t)pData, (uint32_t)&htim->Instance->CCR4
 1815              		.loc 1 872 7
 1816 0136 FB68     		ldr	r3, [r7, #12]
 1817 0138 186B     		ldr	r0, [r3, #48]
 1818 013a 7968     		ldr	r1, [r7, #4]
 1819              		.loc 1 872 84
 1820 013c FB68     		ldr	r3, [r7, #12]
 1821 013e 1B68     		ldr	r3, [r3]
 1822              		.loc 1 872 79
 1823 0140 4033     		adds	r3, r3, #64
 1824              		.loc 1 872 7
 1825 0142 1A46     		mov	r2, r3
 1826 0144 7B88     		ldrh	r3, [r7, #2]
 1827 0146 FFF7FEFF 		bl	HAL_DMA_Start_IT
 873:d:/LiteOS_Lab/drivers/third_party/ST/STM32L4xx_HAL_Driver/Src\stm32l4xx_hal_tim.c **** 
 874:d:/LiteOS_Lab/drivers/third_party/ST/STM32L4xx_HAL_Driver/Src\stm32l4xx_hal_tim.c ****       /* Enable the TIM Capture/Compare 4 DMA request */
 875:d:/LiteOS_Lab/drivers/third_party/ST/STM32L4xx_HAL_Driver/Src\stm32l4xx_hal_tim.c ****       __HAL_TIM_ENABLE_DMA(htim, TIM_DMA_CC4);
 1828              		.loc 1 875 7
 1829 014a FB68     		ldr	r3, [r7, #12]
 1830 014c 1B68     		ldr	r3, [r3]
 1831 014e DA68     		ldr	r2, [r3, #12]
 1832 0150 FB68     		ldr	r3, [r7, #12]
 1833 0152 1B68     		ldr	r3, [r3]
 1834 0154 42F48052 		orr	r2, r2, #4096
 1835 0158 DA60     		str	r2, [r3, #12]
 876:d:/LiteOS_Lab/drivers/third_party/ST/STM32L4xx_HAL_Driver/Src\stm32l4xx_hal_tim.c ****     }
 877:d:/LiteOS_Lab/drivers/third_party/ST/STM32L4xx_HAL_Driver/Src\stm32l4xx_hal_tim.c ****     break;
 1836              		.loc 1 877 5
 1837 015a 00E0     		b	.L100
 1838              	.L105:
 878:d:/LiteOS_Lab/drivers/third_party/ST/STM32L4xx_HAL_Driver/Src\stm32l4xx_hal_tim.c **** 
ARM GAS  C:\Users\ADMINI~1\AppData\Local\Temp\cccB3BZw.s 			page 48


 879:d:/LiteOS_Lab/drivers/third_party/ST/STM32L4xx_HAL_Driver/Src\stm32l4xx_hal_tim.c ****   default:
 880:d:/LiteOS_Lab/drivers/third_party/ST/STM32L4xx_HAL_Driver/Src\stm32l4xx_hal_tim.c ****     break;
 1839              		.loc 1 880 5
 1840 015c 00BF     		nop
 1841              	.L100:
 881:d:/LiteOS_Lab/drivers/third_party/ST/STM32L4xx_HAL_Driver/Src\stm32l4xx_hal_tim.c ****   }
 882:d:/LiteOS_Lab/drivers/third_party/ST/STM32L4xx_HAL_Driver/Src\stm32l4xx_hal_tim.c **** 
 883:d:/LiteOS_Lab/drivers/third_party/ST/STM32L4xx_HAL_Driver/Src\stm32l4xx_hal_tim.c ****   /* Enable the Output compare channel */
 884:d:/LiteOS_Lab/drivers/third_party/ST/STM32L4xx_HAL_Driver/Src\stm32l4xx_hal_tim.c ****   TIM_CCxChannelCmd(htim->Instance, Channel, TIM_CCx_ENABLE);
 1842              		.loc 1 884 3
 1843 015e FB68     		ldr	r3, [r7, #12]
 1844 0160 1B68     		ldr	r3, [r3]
 1845 0162 0122     		movs	r2, #1
 1846 0164 B968     		ldr	r1, [r7, #8]
 1847 0166 1846     		mov	r0, r3
 1848 0168 FFF7FEFF 		bl	TIM_CCxChannelCmd
 885:d:/LiteOS_Lab/drivers/third_party/ST/STM32L4xx_HAL_Driver/Src\stm32l4xx_hal_tim.c **** 
 886:d:/LiteOS_Lab/drivers/third_party/ST/STM32L4xx_HAL_Driver/Src\stm32l4xx_hal_tim.c ****   if(IS_TIM_BREAK_INSTANCE(htim->Instance) != RESET)
 1849              		.loc 1 886 6
 1850 016c FB68     		ldr	r3, [r7, #12]
 1851 016e 1B68     		ldr	r3, [r3]
 1852 0170 154A     		ldr	r2, .L106+8
 1853 0172 9342     		cmp	r3, r2
 1854 0174 09D0     		beq	.L101
 1855              		.loc 1 886 6 is_stmt 0 discriminator 2
 1856 0176 FB68     		ldr	r3, [r7, #12]
 1857 0178 1B68     		ldr	r3, [r3]
 1858 017a 144A     		ldr	r2, .L106+12
 1859 017c 9342     		cmp	r3, r2
 1860 017e 04D0     		beq	.L101
 1861              		.loc 1 886 6 discriminator 4
 1862 0180 FB68     		ldr	r3, [r7, #12]
 1863 0182 1B68     		ldr	r3, [r3]
 1864 0184 124A     		ldr	r2, .L106+16
 1865 0186 9342     		cmp	r3, r2
 1866 0188 01D1     		bne	.L102
 1867              	.L101:
 1868              		.loc 1 886 6 discriminator 5
 1869 018a 0123     		movs	r3, #1
 1870 018c 00E0     		b	.L103
 1871              	.L102:
 1872              		.loc 1 886 6 discriminator 6
 1873 018e 0023     		movs	r3, #0
 1874              	.L103:
 1875              		.loc 1 886 5 is_stmt 1 discriminator 8
 1876 0190 002B     		cmp	r3, #0
 1877 0192 07D0     		beq	.L104
 887:d:/LiteOS_Lab/drivers/third_party/ST/STM32L4xx_HAL_Driver/Src\stm32l4xx_hal_tim.c ****   {
 888:d:/LiteOS_Lab/drivers/third_party/ST/STM32L4xx_HAL_Driver/Src\stm32l4xx_hal_tim.c ****     /* Enable the main output */
 889:d:/LiteOS_Lab/drivers/third_party/ST/STM32L4xx_HAL_Driver/Src\stm32l4xx_hal_tim.c ****     __HAL_TIM_MOE_ENABLE(htim);
 1878              		.loc 1 889 5
 1879 0194 FB68     		ldr	r3, [r7, #12]
 1880 0196 1B68     		ldr	r3, [r3]
 1881 0198 5A6C     		ldr	r2, [r3, #68]
 1882 019a FB68     		ldr	r3, [r7, #12]
 1883 019c 1B68     		ldr	r3, [r3]
 1884 019e 42F40042 		orr	r2, r2, #32768
ARM GAS  C:\Users\ADMINI~1\AppData\Local\Temp\cccB3BZw.s 			page 49


 1885 01a2 5A64     		str	r2, [r3, #68]
 1886              	.L104:
 890:d:/LiteOS_Lab/drivers/third_party/ST/STM32L4xx_HAL_Driver/Src\stm32l4xx_hal_tim.c ****   }
 891:d:/LiteOS_Lab/drivers/third_party/ST/STM32L4xx_HAL_Driver/Src\stm32l4xx_hal_tim.c **** 
 892:d:/LiteOS_Lab/drivers/third_party/ST/STM32L4xx_HAL_Driver/Src\stm32l4xx_hal_tim.c ****   /* Enable the Peripheral */
 893:d:/LiteOS_Lab/drivers/third_party/ST/STM32L4xx_HAL_Driver/Src\stm32l4xx_hal_tim.c ****   __HAL_TIM_ENABLE(htim);
 1887              		.loc 1 893 3
 1888 01a4 FB68     		ldr	r3, [r7, #12]
 1889 01a6 1B68     		ldr	r3, [r3]
 1890 01a8 1A68     		ldr	r2, [r3]
 1891 01aa FB68     		ldr	r3, [r7, #12]
 1892 01ac 1B68     		ldr	r3, [r3]
 1893 01ae 42F00102 		orr	r2, r2, #1
 1894 01b2 1A60     		str	r2, [r3]
 894:d:/LiteOS_Lab/drivers/third_party/ST/STM32L4xx_HAL_Driver/Src\stm32l4xx_hal_tim.c **** 
 895:d:/LiteOS_Lab/drivers/third_party/ST/STM32L4xx_HAL_Driver/Src\stm32l4xx_hal_tim.c ****   /* Return function status */
 896:d:/LiteOS_Lab/drivers/third_party/ST/STM32L4xx_HAL_Driver/Src\stm32l4xx_hal_tim.c ****   return HAL_OK;
 1895              		.loc 1 896 10
 1896 01b4 0023     		movs	r3, #0
 1897              	.L91:
 897:d:/LiteOS_Lab/drivers/third_party/ST/STM32L4xx_HAL_Driver/Src\stm32l4xx_hal_tim.c **** }
 1898              		.loc 1 897 1
 1899 01b6 1846     		mov	r0, r3
 1900 01b8 1037     		adds	r7, r7, #16
 1901              	.LCFI102:
 1902              		.cfi_def_cfa_offset 8
 1903 01ba BD46     		mov	sp, r7
 1904              	.LCFI103:
 1905              		.cfi_def_cfa_register 13
 1906              		@ sp needed
 1907 01bc 80BD     		pop	{r7, pc}
 1908              	.L107:
 1909 01be 00BF     		.align	2
 1910              	.L106:
 1911 01c0 00000000 		.word	TIM_DMADelayPulseCplt
 1912 01c4 00000000 		.word	TIM_DMAError
 1913 01c8 002C0140 		.word	1073818624
 1914 01cc 00400140 		.word	1073823744
 1915 01d0 00440140 		.word	1073824768
 1916              		.cfi_endproc
 1917              	.LFE305:
 1919              		.section	.text.HAL_TIM_OC_Stop_DMA,"ax",%progbits
 1920              		.align	1
 1921              		.global	HAL_TIM_OC_Stop_DMA
 1922              		.syntax unified
 1923              		.thumb
 1924              		.thumb_func
 1925              		.fpu fpv4-sp-d16
 1927              	HAL_TIM_OC_Stop_DMA:
 1928              	.LFB306:
 898:d:/LiteOS_Lab/drivers/third_party/ST/STM32L4xx_HAL_Driver/Src\stm32l4xx_hal_tim.c **** 
 899:d:/LiteOS_Lab/drivers/third_party/ST/STM32L4xx_HAL_Driver/Src\stm32l4xx_hal_tim.c **** /**
 900:d:/LiteOS_Lab/drivers/third_party/ST/STM32L4xx_HAL_Driver/Src\stm32l4xx_hal_tim.c ****   * @brief  Stops the TIM Output Compare signal generation in DMA mode.
 901:d:/LiteOS_Lab/drivers/third_party/ST/STM32L4xx_HAL_Driver/Src\stm32l4xx_hal_tim.c ****   * @param  htim TIM Output Compare handle
 902:d:/LiteOS_Lab/drivers/third_party/ST/STM32L4xx_HAL_Driver/Src\stm32l4xx_hal_tim.c ****   * @param  Channel TIM Channel to be disabled
 903:d:/LiteOS_Lab/drivers/third_party/ST/STM32L4xx_HAL_Driver/Src\stm32l4xx_hal_tim.c ****   *          This parameter can be one of the following values:
 904:d:/LiteOS_Lab/drivers/third_party/ST/STM32L4xx_HAL_Driver/Src\stm32l4xx_hal_tim.c ****   *            @arg TIM_CHANNEL_1: TIM Channel 1 selected
ARM GAS  C:\Users\ADMINI~1\AppData\Local\Temp\cccB3BZw.s 			page 50


 905:d:/LiteOS_Lab/drivers/third_party/ST/STM32L4xx_HAL_Driver/Src\stm32l4xx_hal_tim.c ****   *            @arg TIM_CHANNEL_2: TIM Channel 2 selected
 906:d:/LiteOS_Lab/drivers/third_party/ST/STM32L4xx_HAL_Driver/Src\stm32l4xx_hal_tim.c ****   *            @arg TIM_CHANNEL_3: TIM Channel 3 selected
 907:d:/LiteOS_Lab/drivers/third_party/ST/STM32L4xx_HAL_Driver/Src\stm32l4xx_hal_tim.c ****   *            @arg TIM_CHANNEL_4: TIM Channel 4 selected
 908:d:/LiteOS_Lab/drivers/third_party/ST/STM32L4xx_HAL_Driver/Src\stm32l4xx_hal_tim.c ****   *            @arg TIM_CHANNEL_5: TIM Channel 5 selected
 909:d:/LiteOS_Lab/drivers/third_party/ST/STM32L4xx_HAL_Driver/Src\stm32l4xx_hal_tim.c ****   *            @arg TIM_CHANNEL_6: TIM Channel 6 selected
 910:d:/LiteOS_Lab/drivers/third_party/ST/STM32L4xx_HAL_Driver/Src\stm32l4xx_hal_tim.c ****   * @retval HAL status
 911:d:/LiteOS_Lab/drivers/third_party/ST/STM32L4xx_HAL_Driver/Src\stm32l4xx_hal_tim.c **** */
 912:d:/LiteOS_Lab/drivers/third_party/ST/STM32L4xx_HAL_Driver/Src\stm32l4xx_hal_tim.c **** HAL_StatusTypeDef HAL_TIM_OC_Stop_DMA(TIM_HandleTypeDef *htim, uint32_t Channel)
 913:d:/LiteOS_Lab/drivers/third_party/ST/STM32L4xx_HAL_Driver/Src\stm32l4xx_hal_tim.c **** {
 1929              		.loc 1 913 1
 1930              		.cfi_startproc
 1931              		@ args = 0, pretend = 0, frame = 8
 1932              		@ frame_needed = 1, uses_anonymous_args = 0
 1933 0000 80B5     		push	{r7, lr}
 1934              	.LCFI104:
 1935              		.cfi_def_cfa_offset 8
 1936              		.cfi_offset 7, -8
 1937              		.cfi_offset 14, -4
 1938 0002 82B0     		sub	sp, sp, #8
 1939              	.LCFI105:
 1940              		.cfi_def_cfa_offset 16
 1941 0004 00AF     		add	r7, sp, #0
 1942              	.LCFI106:
 1943              		.cfi_def_cfa_register 7
 1944 0006 7860     		str	r0, [r7, #4]
 1945 0008 3960     		str	r1, [r7]
 1946 000a 3B68     		ldr	r3, [r7]
 1947 000c 0C2B     		cmp	r3, #12
 1948 000e 41D8     		bhi	.L122
 1949 0010 01A2     		adr	r2, .L111
 1950 0012 52F823F0 		ldr	pc, [r2, r3, lsl #2]
 1951 0016 00BF     		.p2align 2
 1952              	.L111:
 1953 0018 4D000000 		.word	.L114+1
 1954 001c 95000000 		.word	.L122+1
 1955 0020 95000000 		.word	.L122+1
 1956 0024 95000000 		.word	.L122+1
 1957 0028 5F000000 		.word	.L113+1
 1958 002c 95000000 		.word	.L122+1
 1959 0030 95000000 		.word	.L122+1
 1960 0034 95000000 		.word	.L122+1
 1961 0038 71000000 		.word	.L112+1
 1962 003c 95000000 		.word	.L122+1
 1963 0040 95000000 		.word	.L122+1
 1964 0044 95000000 		.word	.L122+1
 1965 0048 83000000 		.word	.L110+1
 1966              		.p2align 1
 1967              	.L114:
 914:d:/LiteOS_Lab/drivers/third_party/ST/STM32L4xx_HAL_Driver/Src\stm32l4xx_hal_tim.c ****   /* Check the parameters */
 915:d:/LiteOS_Lab/drivers/third_party/ST/STM32L4xx_HAL_Driver/Src\stm32l4xx_hal_tim.c ****   assert_param(IS_TIM_CCX_INSTANCE(htim->Instance, Channel));
 916:d:/LiteOS_Lab/drivers/third_party/ST/STM32L4xx_HAL_Driver/Src\stm32l4xx_hal_tim.c **** 
 917:d:/LiteOS_Lab/drivers/third_party/ST/STM32L4xx_HAL_Driver/Src\stm32l4xx_hal_tim.c ****   switch (Channel)
 918:d:/LiteOS_Lab/drivers/third_party/ST/STM32L4xx_HAL_Driver/Src\stm32l4xx_hal_tim.c ****   {
 919:d:/LiteOS_Lab/drivers/third_party/ST/STM32L4xx_HAL_Driver/Src\stm32l4xx_hal_tim.c ****     case TIM_CHANNEL_1:
 920:d:/LiteOS_Lab/drivers/third_party/ST/STM32L4xx_HAL_Driver/Src\stm32l4xx_hal_tim.c ****     {
 921:d:/LiteOS_Lab/drivers/third_party/ST/STM32L4xx_HAL_Driver/Src\stm32l4xx_hal_tim.c ****       /* Disable the TIM Capture/Compare 1 DMA request */
 922:d:/LiteOS_Lab/drivers/third_party/ST/STM32L4xx_HAL_Driver/Src\stm32l4xx_hal_tim.c ****       __HAL_TIM_DISABLE_DMA(htim, TIM_DMA_CC1);
ARM GAS  C:\Users\ADMINI~1\AppData\Local\Temp\cccB3BZw.s 			page 51


 1968              		.loc 1 922 7
 1969 004c 7B68     		ldr	r3, [r7, #4]
 1970 004e 1B68     		ldr	r3, [r3]
 1971 0050 DA68     		ldr	r2, [r3, #12]
 1972 0052 7B68     		ldr	r3, [r7, #4]
 1973 0054 1B68     		ldr	r3, [r3]
 1974 0056 22F40072 		bic	r2, r2, #512
 1975 005a DA60     		str	r2, [r3, #12]
 923:d:/LiteOS_Lab/drivers/third_party/ST/STM32L4xx_HAL_Driver/Src\stm32l4xx_hal_tim.c ****     }
 924:d:/LiteOS_Lab/drivers/third_party/ST/STM32L4xx_HAL_Driver/Src\stm32l4xx_hal_tim.c ****     break;
 1976              		.loc 1 924 5
 1977 005c 1BE0     		b	.L115
 1978              	.L113:
 925:d:/LiteOS_Lab/drivers/third_party/ST/STM32L4xx_HAL_Driver/Src\stm32l4xx_hal_tim.c **** 
 926:d:/LiteOS_Lab/drivers/third_party/ST/STM32L4xx_HAL_Driver/Src\stm32l4xx_hal_tim.c ****     case TIM_CHANNEL_2:
 927:d:/LiteOS_Lab/drivers/third_party/ST/STM32L4xx_HAL_Driver/Src\stm32l4xx_hal_tim.c ****     {
 928:d:/LiteOS_Lab/drivers/third_party/ST/STM32L4xx_HAL_Driver/Src\stm32l4xx_hal_tim.c ****       /* Disable the TIM Capture/Compare 2 DMA request */
 929:d:/LiteOS_Lab/drivers/third_party/ST/STM32L4xx_HAL_Driver/Src\stm32l4xx_hal_tim.c ****       __HAL_TIM_DISABLE_DMA(htim, TIM_DMA_CC2);
 1979              		.loc 1 929 7
 1980 005e 7B68     		ldr	r3, [r7, #4]
 1981 0060 1B68     		ldr	r3, [r3]
 1982 0062 DA68     		ldr	r2, [r3, #12]
 1983 0064 7B68     		ldr	r3, [r7, #4]
 1984 0066 1B68     		ldr	r3, [r3]
 1985 0068 22F48062 		bic	r2, r2, #1024
 1986 006c DA60     		str	r2, [r3, #12]
 930:d:/LiteOS_Lab/drivers/third_party/ST/STM32L4xx_HAL_Driver/Src\stm32l4xx_hal_tim.c ****     }
 931:d:/LiteOS_Lab/drivers/third_party/ST/STM32L4xx_HAL_Driver/Src\stm32l4xx_hal_tim.c ****     break;
 1987              		.loc 1 931 5
 1988 006e 12E0     		b	.L115
 1989              	.L112:
 932:d:/LiteOS_Lab/drivers/third_party/ST/STM32L4xx_HAL_Driver/Src\stm32l4xx_hal_tim.c **** 
 933:d:/LiteOS_Lab/drivers/third_party/ST/STM32L4xx_HAL_Driver/Src\stm32l4xx_hal_tim.c ****     case TIM_CHANNEL_3:
 934:d:/LiteOS_Lab/drivers/third_party/ST/STM32L4xx_HAL_Driver/Src\stm32l4xx_hal_tim.c ****     {
 935:d:/LiteOS_Lab/drivers/third_party/ST/STM32L4xx_HAL_Driver/Src\stm32l4xx_hal_tim.c ****       /* Disable the TIM Capture/Compare 3 DMA request */
 936:d:/LiteOS_Lab/drivers/third_party/ST/STM32L4xx_HAL_Driver/Src\stm32l4xx_hal_tim.c ****       __HAL_TIM_DISABLE_DMA(htim, TIM_DMA_CC3);
 1990              		.loc 1 936 7
 1991 0070 7B68     		ldr	r3, [r7, #4]
 1992 0072 1B68     		ldr	r3, [r3]
 1993 0074 DA68     		ldr	r2, [r3, #12]
 1994 0076 7B68     		ldr	r3, [r7, #4]
 1995 0078 1B68     		ldr	r3, [r3]
 1996 007a 22F40062 		bic	r2, r2, #2048
 1997 007e DA60     		str	r2, [r3, #12]
 937:d:/LiteOS_Lab/drivers/third_party/ST/STM32L4xx_HAL_Driver/Src\stm32l4xx_hal_tim.c ****     }
 938:d:/LiteOS_Lab/drivers/third_party/ST/STM32L4xx_HAL_Driver/Src\stm32l4xx_hal_tim.c ****     break;
 1998              		.loc 1 938 5
 1999 0080 09E0     		b	.L115
 2000              	.L110:
 939:d:/LiteOS_Lab/drivers/third_party/ST/STM32L4xx_HAL_Driver/Src\stm32l4xx_hal_tim.c **** 
 940:d:/LiteOS_Lab/drivers/third_party/ST/STM32L4xx_HAL_Driver/Src\stm32l4xx_hal_tim.c ****     case TIM_CHANNEL_4:
 941:d:/LiteOS_Lab/drivers/third_party/ST/STM32L4xx_HAL_Driver/Src\stm32l4xx_hal_tim.c ****     {
 942:d:/LiteOS_Lab/drivers/third_party/ST/STM32L4xx_HAL_Driver/Src\stm32l4xx_hal_tim.c ****       /* Disable the TIM Capture/Compare 4 interrupt */
 943:d:/LiteOS_Lab/drivers/third_party/ST/STM32L4xx_HAL_Driver/Src\stm32l4xx_hal_tim.c ****       __HAL_TIM_DISABLE_DMA(htim, TIM_DMA_CC4);
 2001              		.loc 1 943 7
 2002 0082 7B68     		ldr	r3, [r7, #4]
 2003 0084 1B68     		ldr	r3, [r3]
ARM GAS  C:\Users\ADMINI~1\AppData\Local\Temp\cccB3BZw.s 			page 52


 2004 0086 DA68     		ldr	r2, [r3, #12]
 2005 0088 7B68     		ldr	r3, [r7, #4]
 2006 008a 1B68     		ldr	r3, [r3]
 2007 008c 22F48052 		bic	r2, r2, #4096
 2008 0090 DA60     		str	r2, [r3, #12]
 944:d:/LiteOS_Lab/drivers/third_party/ST/STM32L4xx_HAL_Driver/Src\stm32l4xx_hal_tim.c ****     }
 945:d:/LiteOS_Lab/drivers/third_party/ST/STM32L4xx_HAL_Driver/Src\stm32l4xx_hal_tim.c ****     break;
 2009              		.loc 1 945 5
 2010 0092 00E0     		b	.L115
 2011              	.L122:
 946:d:/LiteOS_Lab/drivers/third_party/ST/STM32L4xx_HAL_Driver/Src\stm32l4xx_hal_tim.c **** 
 947:d:/LiteOS_Lab/drivers/third_party/ST/STM32L4xx_HAL_Driver/Src\stm32l4xx_hal_tim.c ****     default:
 948:d:/LiteOS_Lab/drivers/third_party/ST/STM32L4xx_HAL_Driver/Src\stm32l4xx_hal_tim.c ****     break;
 2012              		.loc 1 948 5
 2013 0094 00BF     		nop
 2014              	.L115:
 949:d:/LiteOS_Lab/drivers/third_party/ST/STM32L4xx_HAL_Driver/Src\stm32l4xx_hal_tim.c ****   }
 950:d:/LiteOS_Lab/drivers/third_party/ST/STM32L4xx_HAL_Driver/Src\stm32l4xx_hal_tim.c **** 
 951:d:/LiteOS_Lab/drivers/third_party/ST/STM32L4xx_HAL_Driver/Src\stm32l4xx_hal_tim.c ****   /* Disable the Output compare channel */
 952:d:/LiteOS_Lab/drivers/third_party/ST/STM32L4xx_HAL_Driver/Src\stm32l4xx_hal_tim.c ****   TIM_CCxChannelCmd(htim->Instance, Channel, TIM_CCx_DISABLE);
 2015              		.loc 1 952 3
 2016 0096 7B68     		ldr	r3, [r7, #4]
 2017 0098 1B68     		ldr	r3, [r3]
 2018 009a 0022     		movs	r2, #0
 2019 009c 3968     		ldr	r1, [r7]
 2020 009e 1846     		mov	r0, r3
 2021 00a0 FFF7FEFF 		bl	TIM_CCxChannelCmd
 953:d:/LiteOS_Lab/drivers/third_party/ST/STM32L4xx_HAL_Driver/Src\stm32l4xx_hal_tim.c **** 
 954:d:/LiteOS_Lab/drivers/third_party/ST/STM32L4xx_HAL_Driver/Src\stm32l4xx_hal_tim.c ****   if(IS_TIM_BREAK_INSTANCE(htim->Instance) != RESET)
 2022              		.loc 1 954 6
 2023 00a4 7B68     		ldr	r3, [r7, #4]
 2024 00a6 1B68     		ldr	r3, [r3]
 2025 00a8 254A     		ldr	r2, .L123
 2026 00aa 9342     		cmp	r3, r2
 2027 00ac 09D0     		beq	.L116
 2028              		.loc 1 954 6 is_stmt 0 discriminator 2
 2029 00ae 7B68     		ldr	r3, [r7, #4]
 2030 00b0 1B68     		ldr	r3, [r3]
 2031 00b2 244A     		ldr	r2, .L123+4
 2032 00b4 9342     		cmp	r3, r2
 2033 00b6 04D0     		beq	.L116
 2034              		.loc 1 954 6 discriminator 4
 2035 00b8 7B68     		ldr	r3, [r7, #4]
 2036 00ba 1B68     		ldr	r3, [r3]
 2037 00bc 224A     		ldr	r2, .L123+8
 2038 00be 9342     		cmp	r3, r2
 2039 00c0 01D1     		bne	.L117
 2040              	.L116:
 2041              		.loc 1 954 6 discriminator 5
 2042 00c2 0123     		movs	r3, #1
 2043 00c4 00E0     		b	.L118
 2044              	.L117:
 2045              		.loc 1 954 6 discriminator 6
 2046 00c6 0023     		movs	r3, #0
 2047              	.L118:
 2048              		.loc 1 954 5 is_stmt 1 discriminator 8
 2049 00c8 002B     		cmp	r3, #0
ARM GAS  C:\Users\ADMINI~1\AppData\Local\Temp\cccB3BZw.s 			page 53


 2050 00ca 17D0     		beq	.L119
 955:d:/LiteOS_Lab/drivers/third_party/ST/STM32L4xx_HAL_Driver/Src\stm32l4xx_hal_tim.c ****   {
 956:d:/LiteOS_Lab/drivers/third_party/ST/STM32L4xx_HAL_Driver/Src\stm32l4xx_hal_tim.c ****     /* Disable the Main Ouput */
 957:d:/LiteOS_Lab/drivers/third_party/ST/STM32L4xx_HAL_Driver/Src\stm32l4xx_hal_tim.c ****     __HAL_TIM_MOE_DISABLE(htim);
 2051              		.loc 1 957 5
 2052 00cc 7B68     		ldr	r3, [r7, #4]
 2053 00ce 1B68     		ldr	r3, [r3]
 2054 00d0 1A6A     		ldr	r2, [r3, #32]
 2055 00d2 41F21113 		movw	r3, #4369
 2056 00d6 1340     		ands	r3, r3, r2
 2057 00d8 002B     		cmp	r3, #0
 2058 00da 0FD1     		bne	.L119
 2059              		.loc 1 957 5 is_stmt 0 discriminator 1
 2060 00dc 7B68     		ldr	r3, [r7, #4]
 2061 00de 1B68     		ldr	r3, [r3]
 2062 00e0 1A6A     		ldr	r2, [r3, #32]
 2063 00e2 40F24443 		movw	r3, #1092
 2064 00e6 1340     		ands	r3, r3, r2
 2065 00e8 002B     		cmp	r3, #0
 2066 00ea 07D1     		bne	.L119
 2067              		.loc 1 957 5 discriminator 2
 2068 00ec 7B68     		ldr	r3, [r7, #4]
 2069 00ee 1B68     		ldr	r3, [r3]
 2070 00f0 5A6C     		ldr	r2, [r3, #68]
 2071 00f2 7B68     		ldr	r3, [r7, #4]
 2072 00f4 1B68     		ldr	r3, [r3]
 2073 00f6 22F40042 		bic	r2, r2, #32768
 2074 00fa 5A64     		str	r2, [r3, #68]
 2075              	.L119:
 958:d:/LiteOS_Lab/drivers/third_party/ST/STM32L4xx_HAL_Driver/Src\stm32l4xx_hal_tim.c ****   }
 959:d:/LiteOS_Lab/drivers/third_party/ST/STM32L4xx_HAL_Driver/Src\stm32l4xx_hal_tim.c **** 
 960:d:/LiteOS_Lab/drivers/third_party/ST/STM32L4xx_HAL_Driver/Src\stm32l4xx_hal_tim.c ****   /* Disable the Peripheral */
 961:d:/LiteOS_Lab/drivers/third_party/ST/STM32L4xx_HAL_Driver/Src\stm32l4xx_hal_tim.c ****   __HAL_TIM_DISABLE(htim);
 2076              		.loc 1 961 3 is_stmt 1
 2077 00fc 7B68     		ldr	r3, [r7, #4]
 2078 00fe 1B68     		ldr	r3, [r3]
 2079 0100 1A6A     		ldr	r2, [r3, #32]
 2080 0102 41F21113 		movw	r3, #4369
 2081 0106 1340     		ands	r3, r3, r2
 2082 0108 002B     		cmp	r3, #0
 2083 010a 0FD1     		bne	.L120
 2084              		.loc 1 961 3 is_stmt 0 discriminator 1
 2085 010c 7B68     		ldr	r3, [r7, #4]
 2086 010e 1B68     		ldr	r3, [r3]
 2087 0110 1A6A     		ldr	r2, [r3, #32]
 2088 0112 40F24443 		movw	r3, #1092
 2089 0116 1340     		ands	r3, r3, r2
 2090 0118 002B     		cmp	r3, #0
 2091 011a 07D1     		bne	.L120
 2092              		.loc 1 961 3 discriminator 2
 2093 011c 7B68     		ldr	r3, [r7, #4]
 2094 011e 1B68     		ldr	r3, [r3]
 2095 0120 1A68     		ldr	r2, [r3]
 2096 0122 7B68     		ldr	r3, [r7, #4]
 2097 0124 1B68     		ldr	r3, [r3]
 2098 0126 22F00102 		bic	r2, r2, #1
 2099 012a 1A60     		str	r2, [r3]
ARM GAS  C:\Users\ADMINI~1\AppData\Local\Temp\cccB3BZw.s 			page 54


 2100              	.L120:
 962:d:/LiteOS_Lab/drivers/third_party/ST/STM32L4xx_HAL_Driver/Src\stm32l4xx_hal_tim.c **** 
 963:d:/LiteOS_Lab/drivers/third_party/ST/STM32L4xx_HAL_Driver/Src\stm32l4xx_hal_tim.c ****   /* Change the htim state */
 964:d:/LiteOS_Lab/drivers/third_party/ST/STM32L4xx_HAL_Driver/Src\stm32l4xx_hal_tim.c ****   htim->State = HAL_TIM_STATE_READY;
 2101              		.loc 1 964 15 is_stmt 1
 2102 012c 7B68     		ldr	r3, [r7, #4]
 2103 012e 0122     		movs	r2, #1
 2104 0130 83F83D20 		strb	r2, [r3, #61]
 965:d:/LiteOS_Lab/drivers/third_party/ST/STM32L4xx_HAL_Driver/Src\stm32l4xx_hal_tim.c **** 
 966:d:/LiteOS_Lab/drivers/third_party/ST/STM32L4xx_HAL_Driver/Src\stm32l4xx_hal_tim.c ****   /* Return function status */
 967:d:/LiteOS_Lab/drivers/third_party/ST/STM32L4xx_HAL_Driver/Src\stm32l4xx_hal_tim.c ****   return HAL_OK;
 2105              		.loc 1 967 10
 2106 0134 0023     		movs	r3, #0
 968:d:/LiteOS_Lab/drivers/third_party/ST/STM32L4xx_HAL_Driver/Src\stm32l4xx_hal_tim.c **** }
 2107              		.loc 1 968 1
 2108 0136 1846     		mov	r0, r3
 2109 0138 0837     		adds	r7, r7, #8
 2110              	.LCFI107:
 2111              		.cfi_def_cfa_offset 8
 2112 013a BD46     		mov	sp, r7
 2113              	.LCFI108:
 2114              		.cfi_def_cfa_register 13
 2115              		@ sp needed
 2116 013c 80BD     		pop	{r7, pc}
 2117              	.L124:
 2118 013e 00BF     		.align	2
 2119              	.L123:
 2120 0140 002C0140 		.word	1073818624
 2121 0144 00400140 		.word	1073823744
 2122 0148 00440140 		.word	1073824768
 2123              		.cfi_endproc
 2124              	.LFE306:
 2126              		.section	.text.HAL_TIM_PWM_Init,"ax",%progbits
 2127              		.align	1
 2128              		.global	HAL_TIM_PWM_Init
 2129              		.syntax unified
 2130              		.thumb
 2131              		.thumb_func
 2132              		.fpu fpv4-sp-d16
 2134              	HAL_TIM_PWM_Init:
 2135              	.LFB307:
 969:d:/LiteOS_Lab/drivers/third_party/ST/STM32L4xx_HAL_Driver/Src\stm32l4xx_hal_tim.c **** 
 970:d:/LiteOS_Lab/drivers/third_party/ST/STM32L4xx_HAL_Driver/Src\stm32l4xx_hal_tim.c **** /**
 971:d:/LiteOS_Lab/drivers/third_party/ST/STM32L4xx_HAL_Driver/Src\stm32l4xx_hal_tim.c ****   * @}
 972:d:/LiteOS_Lab/drivers/third_party/ST/STM32L4xx_HAL_Driver/Src\stm32l4xx_hal_tim.c ****   */
 973:d:/LiteOS_Lab/drivers/third_party/ST/STM32L4xx_HAL_Driver/Src\stm32l4xx_hal_tim.c **** 
 974:d:/LiteOS_Lab/drivers/third_party/ST/STM32L4xx_HAL_Driver/Src\stm32l4xx_hal_tim.c **** /** @defgroup TIM_Exported_Functions_Group3 Time PWM functions
 975:d:/LiteOS_Lab/drivers/third_party/ST/STM32L4xx_HAL_Driver/Src\stm32l4xx_hal_tim.c ****  *  @brief    Time PWM functions
 976:d:/LiteOS_Lab/drivers/third_party/ST/STM32L4xx_HAL_Driver/Src\stm32l4xx_hal_tim.c ****  *
 977:d:/LiteOS_Lab/drivers/third_party/ST/STM32L4xx_HAL_Driver/Src\stm32l4xx_hal_tim.c **** @verbatim
 978:d:/LiteOS_Lab/drivers/third_party/ST/STM32L4xx_HAL_Driver/Src\stm32l4xx_hal_tim.c ****   ==============================================================================
 979:d:/LiteOS_Lab/drivers/third_party/ST/STM32L4xx_HAL_Driver/Src\stm32l4xx_hal_tim.c ****                           ##### Time PWM functions #####
 980:d:/LiteOS_Lab/drivers/third_party/ST/STM32L4xx_HAL_Driver/Src\stm32l4xx_hal_tim.c ****   ==============================================================================
 981:d:/LiteOS_Lab/drivers/third_party/ST/STM32L4xx_HAL_Driver/Src\stm32l4xx_hal_tim.c ****   [..]
 982:d:/LiteOS_Lab/drivers/third_party/ST/STM32L4xx_HAL_Driver/Src\stm32l4xx_hal_tim.c ****     This section provides functions allowing to:
 983:d:/LiteOS_Lab/drivers/third_party/ST/STM32L4xx_HAL_Driver/Src\stm32l4xx_hal_tim.c ****     (+) Initialize and configure the TIM OPWM.
 984:d:/LiteOS_Lab/drivers/third_party/ST/STM32L4xx_HAL_Driver/Src\stm32l4xx_hal_tim.c ****     (+) De-initialize the TIM PWM.
ARM GAS  C:\Users\ADMINI~1\AppData\Local\Temp\cccB3BZw.s 			page 55


 985:d:/LiteOS_Lab/drivers/third_party/ST/STM32L4xx_HAL_Driver/Src\stm32l4xx_hal_tim.c ****     (+) Start the Time PWM.
 986:d:/LiteOS_Lab/drivers/third_party/ST/STM32L4xx_HAL_Driver/Src\stm32l4xx_hal_tim.c ****     (+) Stop the Time PWM.
 987:d:/LiteOS_Lab/drivers/third_party/ST/STM32L4xx_HAL_Driver/Src\stm32l4xx_hal_tim.c ****     (+) Start the Time PWM and enable interrupt.
 988:d:/LiteOS_Lab/drivers/third_party/ST/STM32L4xx_HAL_Driver/Src\stm32l4xx_hal_tim.c ****     (+) Stop the Time PWM and disable interrupt.
 989:d:/LiteOS_Lab/drivers/third_party/ST/STM32L4xx_HAL_Driver/Src\stm32l4xx_hal_tim.c ****     (+) Start the Time PWM and enable DMA transfer.
 990:d:/LiteOS_Lab/drivers/third_party/ST/STM32L4xx_HAL_Driver/Src\stm32l4xx_hal_tim.c ****     (+) Stop the Time PWM and disable DMA transfer.
 991:d:/LiteOS_Lab/drivers/third_party/ST/STM32L4xx_HAL_Driver/Src\stm32l4xx_hal_tim.c **** 
 992:d:/LiteOS_Lab/drivers/third_party/ST/STM32L4xx_HAL_Driver/Src\stm32l4xx_hal_tim.c **** @endverbatim
 993:d:/LiteOS_Lab/drivers/third_party/ST/STM32L4xx_HAL_Driver/Src\stm32l4xx_hal_tim.c ****   * @{
 994:d:/LiteOS_Lab/drivers/third_party/ST/STM32L4xx_HAL_Driver/Src\stm32l4xx_hal_tim.c ****   */
 995:d:/LiteOS_Lab/drivers/third_party/ST/STM32L4xx_HAL_Driver/Src\stm32l4xx_hal_tim.c **** /**
 996:d:/LiteOS_Lab/drivers/third_party/ST/STM32L4xx_HAL_Driver/Src\stm32l4xx_hal_tim.c ****   * @brief  Initializes the TIM PWM Time Base according to the specified
 997:d:/LiteOS_Lab/drivers/third_party/ST/STM32L4xx_HAL_Driver/Src\stm32l4xx_hal_tim.c ****   *         parameters in the TIM_HandleTypeDef and initialize the associated handle.
 998:d:/LiteOS_Lab/drivers/third_party/ST/STM32L4xx_HAL_Driver/Src\stm32l4xx_hal_tim.c ****   * @note Switching from Center Aligned counter mode to Edge counter mode (or reverse)
 999:d:/LiteOS_Lab/drivers/third_party/ST/STM32L4xx_HAL_Driver/Src\stm32l4xx_hal_tim.c ****   *       requires a timer reset to avoid unexpected direction 
1000:d:/LiteOS_Lab/drivers/third_party/ST/STM32L4xx_HAL_Driver/Src\stm32l4xx_hal_tim.c ****   *       due to DIR bit readonly in center aligned mode.
1001:d:/LiteOS_Lab/drivers/third_party/ST/STM32L4xx_HAL_Driver/Src\stm32l4xx_hal_tim.c ****   *       Ex: call @ref HAL_TIM_PWM_DeInit() before HAL_TIM_PWM_Init()
1002:d:/LiteOS_Lab/drivers/third_party/ST/STM32L4xx_HAL_Driver/Src\stm32l4xx_hal_tim.c ****   * @param  htim TIM handle
1003:d:/LiteOS_Lab/drivers/third_party/ST/STM32L4xx_HAL_Driver/Src\stm32l4xx_hal_tim.c ****   * @retval HAL status
1004:d:/LiteOS_Lab/drivers/third_party/ST/STM32L4xx_HAL_Driver/Src\stm32l4xx_hal_tim.c ****   */
1005:d:/LiteOS_Lab/drivers/third_party/ST/STM32L4xx_HAL_Driver/Src\stm32l4xx_hal_tim.c **** HAL_StatusTypeDef HAL_TIM_PWM_Init(TIM_HandleTypeDef *htim)
1006:d:/LiteOS_Lab/drivers/third_party/ST/STM32L4xx_HAL_Driver/Src\stm32l4xx_hal_tim.c **** {
 2136              		.loc 1 1006 1
 2137              		.cfi_startproc
 2138              		@ args = 0, pretend = 0, frame = 8
 2139              		@ frame_needed = 1, uses_anonymous_args = 0
 2140 0000 80B5     		push	{r7, lr}
 2141              	.LCFI109:
 2142              		.cfi_def_cfa_offset 8
 2143              		.cfi_offset 7, -8
 2144              		.cfi_offset 14, -4
 2145 0002 82B0     		sub	sp, sp, #8
 2146              	.LCFI110:
 2147              		.cfi_def_cfa_offset 16
 2148 0004 00AF     		add	r7, sp, #0
 2149              	.LCFI111:
 2150              		.cfi_def_cfa_register 7
 2151 0006 7860     		str	r0, [r7, #4]
1007:d:/LiteOS_Lab/drivers/third_party/ST/STM32L4xx_HAL_Driver/Src\stm32l4xx_hal_tim.c ****   /* Check the TIM handle allocation */
1008:d:/LiteOS_Lab/drivers/third_party/ST/STM32L4xx_HAL_Driver/Src\stm32l4xx_hal_tim.c ****   if(htim == NULL)
 2152              		.loc 1 1008 5
 2153 0008 7B68     		ldr	r3, [r7, #4]
 2154 000a 002B     		cmp	r3, #0
 2155 000c 01D1     		bne	.L126
1009:d:/LiteOS_Lab/drivers/third_party/ST/STM32L4xx_HAL_Driver/Src\stm32l4xx_hal_tim.c ****   {
1010:d:/LiteOS_Lab/drivers/third_party/ST/STM32L4xx_HAL_Driver/Src\stm32l4xx_hal_tim.c ****     return HAL_ERROR;
 2156              		.loc 1 1010 12
 2157 000e 0123     		movs	r3, #1
 2158 0010 1DE0     		b	.L127
 2159              	.L126:
1011:d:/LiteOS_Lab/drivers/third_party/ST/STM32L4xx_HAL_Driver/Src\stm32l4xx_hal_tim.c ****   }
1012:d:/LiteOS_Lab/drivers/third_party/ST/STM32L4xx_HAL_Driver/Src\stm32l4xx_hal_tim.c **** 
1013:d:/LiteOS_Lab/drivers/third_party/ST/STM32L4xx_HAL_Driver/Src\stm32l4xx_hal_tim.c ****   /* Check the parameters */
1014:d:/LiteOS_Lab/drivers/third_party/ST/STM32L4xx_HAL_Driver/Src\stm32l4xx_hal_tim.c ****   assert_param(IS_TIM_INSTANCE(htim->Instance));
1015:d:/LiteOS_Lab/drivers/third_party/ST/STM32L4xx_HAL_Driver/Src\stm32l4xx_hal_tim.c ****   assert_param(IS_TIM_COUNTER_MODE(htim->Init.CounterMode));
1016:d:/LiteOS_Lab/drivers/third_party/ST/STM32L4xx_HAL_Driver/Src\stm32l4xx_hal_tim.c ****   assert_param(IS_TIM_CLOCKDIVISION_DIV(htim->Init.ClockDivision));
1017:d:/LiteOS_Lab/drivers/third_party/ST/STM32L4xx_HAL_Driver/Src\stm32l4xx_hal_tim.c ****   assert_param(IS_TIM_AUTORELOAD_PRELOAD(htim->Init.AutoReloadPreload));
ARM GAS  C:\Users\ADMINI~1\AppData\Local\Temp\cccB3BZw.s 			page 56


1018:d:/LiteOS_Lab/drivers/third_party/ST/STM32L4xx_HAL_Driver/Src\stm32l4xx_hal_tim.c **** 
1019:d:/LiteOS_Lab/drivers/third_party/ST/STM32L4xx_HAL_Driver/Src\stm32l4xx_hal_tim.c ****   if(htim->State == HAL_TIM_STATE_RESET)
 2160              		.loc 1 1019 10
 2161 0012 7B68     		ldr	r3, [r7, #4]
 2162 0014 93F83D30 		ldrb	r3, [r3, #61]
 2163 0018 DBB2     		uxtb	r3, r3
 2164              		.loc 1 1019 5
 2165 001a 002B     		cmp	r3, #0
 2166 001c 06D1     		bne	.L128
1020:d:/LiteOS_Lab/drivers/third_party/ST/STM32L4xx_HAL_Driver/Src\stm32l4xx_hal_tim.c ****   {
1021:d:/LiteOS_Lab/drivers/third_party/ST/STM32L4xx_HAL_Driver/Src\stm32l4xx_hal_tim.c ****     /* Allocate lock resource and initialize it */
1022:d:/LiteOS_Lab/drivers/third_party/ST/STM32L4xx_HAL_Driver/Src\stm32l4xx_hal_tim.c ****     htim->Lock = HAL_UNLOCKED;
 2167              		.loc 1 1022 16
 2168 001e 7B68     		ldr	r3, [r7, #4]
 2169 0020 0022     		movs	r2, #0
 2170 0022 83F83C20 		strb	r2, [r3, #60]
1023:d:/LiteOS_Lab/drivers/third_party/ST/STM32L4xx_HAL_Driver/Src\stm32l4xx_hal_tim.c **** 
1024:d:/LiteOS_Lab/drivers/third_party/ST/STM32L4xx_HAL_Driver/Src\stm32l4xx_hal_tim.c ****     /* Init the low level hardware : GPIO, CLOCK, NVIC and DMA */
1025:d:/LiteOS_Lab/drivers/third_party/ST/STM32L4xx_HAL_Driver/Src\stm32l4xx_hal_tim.c ****     HAL_TIM_PWM_MspInit(htim);
 2171              		.loc 1 1025 5
 2172 0026 7868     		ldr	r0, [r7, #4]
 2173 0028 FFF7FEFF 		bl	HAL_TIM_PWM_MspInit
 2174              	.L128:
1026:d:/LiteOS_Lab/drivers/third_party/ST/STM32L4xx_HAL_Driver/Src\stm32l4xx_hal_tim.c ****   }
1027:d:/LiteOS_Lab/drivers/third_party/ST/STM32L4xx_HAL_Driver/Src\stm32l4xx_hal_tim.c **** 
1028:d:/LiteOS_Lab/drivers/third_party/ST/STM32L4xx_HAL_Driver/Src\stm32l4xx_hal_tim.c ****   /* Set the TIM state */
1029:d:/LiteOS_Lab/drivers/third_party/ST/STM32L4xx_HAL_Driver/Src\stm32l4xx_hal_tim.c ****   htim->State= HAL_TIM_STATE_BUSY;
 2175              		.loc 1 1029 14
 2176 002c 7B68     		ldr	r3, [r7, #4]
 2177 002e 0222     		movs	r2, #2
 2178 0030 83F83D20 		strb	r2, [r3, #61]
1030:d:/LiteOS_Lab/drivers/third_party/ST/STM32L4xx_HAL_Driver/Src\stm32l4xx_hal_tim.c **** 
1031:d:/LiteOS_Lab/drivers/third_party/ST/STM32L4xx_HAL_Driver/Src\stm32l4xx_hal_tim.c ****   /* Init the base time for the PWM */
1032:d:/LiteOS_Lab/drivers/third_party/ST/STM32L4xx_HAL_Driver/Src\stm32l4xx_hal_tim.c ****   TIM_Base_SetConfig(htim->Instance, &htim->Init);
 2179              		.loc 1 1032 3
 2180 0034 7B68     		ldr	r3, [r7, #4]
 2181 0036 1A68     		ldr	r2, [r3]
 2182 0038 7B68     		ldr	r3, [r7, #4]
 2183 003a 0433     		adds	r3, r3, #4
 2184 003c 1946     		mov	r1, r3
 2185 003e 1046     		mov	r0, r2
 2186 0040 FFF7FEFF 		bl	TIM_Base_SetConfig
1033:d:/LiteOS_Lab/drivers/third_party/ST/STM32L4xx_HAL_Driver/Src\stm32l4xx_hal_tim.c **** 
1034:d:/LiteOS_Lab/drivers/third_party/ST/STM32L4xx_HAL_Driver/Src\stm32l4xx_hal_tim.c ****   /* Initialize the TIM state*/
1035:d:/LiteOS_Lab/drivers/third_party/ST/STM32L4xx_HAL_Driver/Src\stm32l4xx_hal_tim.c ****   htim->State= HAL_TIM_STATE_READY;
 2187              		.loc 1 1035 14
 2188 0044 7B68     		ldr	r3, [r7, #4]
 2189 0046 0122     		movs	r2, #1
 2190 0048 83F83D20 		strb	r2, [r3, #61]
1036:d:/LiteOS_Lab/drivers/third_party/ST/STM32L4xx_HAL_Driver/Src\stm32l4xx_hal_tim.c **** 
1037:d:/LiteOS_Lab/drivers/third_party/ST/STM32L4xx_HAL_Driver/Src\stm32l4xx_hal_tim.c ****   return HAL_OK;
 2191              		.loc 1 1037 10
 2192 004c 0023     		movs	r3, #0
 2193              	.L127:
1038:d:/LiteOS_Lab/drivers/third_party/ST/STM32L4xx_HAL_Driver/Src\stm32l4xx_hal_tim.c **** }
 2194              		.loc 1 1038 1
 2195 004e 1846     		mov	r0, r3
ARM GAS  C:\Users\ADMINI~1\AppData\Local\Temp\cccB3BZw.s 			page 57


 2196 0050 0837     		adds	r7, r7, #8
 2197              	.LCFI112:
 2198              		.cfi_def_cfa_offset 8
 2199 0052 BD46     		mov	sp, r7
 2200              	.LCFI113:
 2201              		.cfi_def_cfa_register 13
 2202              		@ sp needed
 2203 0054 80BD     		pop	{r7, pc}
 2204              		.cfi_endproc
 2205              	.LFE307:
 2207              		.section	.text.HAL_TIM_PWM_DeInit,"ax",%progbits
 2208              		.align	1
 2209              		.global	HAL_TIM_PWM_DeInit
 2210              		.syntax unified
 2211              		.thumb
 2212              		.thumb_func
 2213              		.fpu fpv4-sp-d16
 2215              	HAL_TIM_PWM_DeInit:
 2216              	.LFB308:
1039:d:/LiteOS_Lab/drivers/third_party/ST/STM32L4xx_HAL_Driver/Src\stm32l4xx_hal_tim.c **** 
1040:d:/LiteOS_Lab/drivers/third_party/ST/STM32L4xx_HAL_Driver/Src\stm32l4xx_hal_tim.c **** /**
1041:d:/LiteOS_Lab/drivers/third_party/ST/STM32L4xx_HAL_Driver/Src\stm32l4xx_hal_tim.c ****   * @brief  DeInitialize the TIM peripheral
1042:d:/LiteOS_Lab/drivers/third_party/ST/STM32L4xx_HAL_Driver/Src\stm32l4xx_hal_tim.c ****   * @param  htim TIM handle
1043:d:/LiteOS_Lab/drivers/third_party/ST/STM32L4xx_HAL_Driver/Src\stm32l4xx_hal_tim.c ****   * @retval HAL status
1044:d:/LiteOS_Lab/drivers/third_party/ST/STM32L4xx_HAL_Driver/Src\stm32l4xx_hal_tim.c ****   */
1045:d:/LiteOS_Lab/drivers/third_party/ST/STM32L4xx_HAL_Driver/Src\stm32l4xx_hal_tim.c **** HAL_StatusTypeDef HAL_TIM_PWM_DeInit(TIM_HandleTypeDef *htim)
1046:d:/LiteOS_Lab/drivers/third_party/ST/STM32L4xx_HAL_Driver/Src\stm32l4xx_hal_tim.c **** {
 2217              		.loc 1 1046 1
 2218              		.cfi_startproc
 2219              		@ args = 0, pretend = 0, frame = 8
 2220              		@ frame_needed = 1, uses_anonymous_args = 0
 2221 0000 80B5     		push	{r7, lr}
 2222              	.LCFI114:
 2223              		.cfi_def_cfa_offset 8
 2224              		.cfi_offset 7, -8
 2225              		.cfi_offset 14, -4
 2226 0002 82B0     		sub	sp, sp, #8
 2227              	.LCFI115:
 2228              		.cfi_def_cfa_offset 16
 2229 0004 00AF     		add	r7, sp, #0
 2230              	.LCFI116:
 2231              		.cfi_def_cfa_register 7
 2232 0006 7860     		str	r0, [r7, #4]
1047:d:/LiteOS_Lab/drivers/third_party/ST/STM32L4xx_HAL_Driver/Src\stm32l4xx_hal_tim.c ****   /* Check the parameters */
1048:d:/LiteOS_Lab/drivers/third_party/ST/STM32L4xx_HAL_Driver/Src\stm32l4xx_hal_tim.c ****   assert_param(IS_TIM_INSTANCE(htim->Instance));
1049:d:/LiteOS_Lab/drivers/third_party/ST/STM32L4xx_HAL_Driver/Src\stm32l4xx_hal_tim.c **** 
1050:d:/LiteOS_Lab/drivers/third_party/ST/STM32L4xx_HAL_Driver/Src\stm32l4xx_hal_tim.c ****   htim->State = HAL_TIM_STATE_BUSY;
 2233              		.loc 1 1050 15
 2234 0008 7B68     		ldr	r3, [r7, #4]
 2235 000a 0222     		movs	r2, #2
 2236 000c 83F83D20 		strb	r2, [r3, #61]
1051:d:/LiteOS_Lab/drivers/third_party/ST/STM32L4xx_HAL_Driver/Src\stm32l4xx_hal_tim.c **** 
1052:d:/LiteOS_Lab/drivers/third_party/ST/STM32L4xx_HAL_Driver/Src\stm32l4xx_hal_tim.c ****   /* Disable the TIM Peripheral Clock */
1053:d:/LiteOS_Lab/drivers/third_party/ST/STM32L4xx_HAL_Driver/Src\stm32l4xx_hal_tim.c ****   __HAL_TIM_DISABLE(htim);
 2237              		.loc 1 1053 3
 2238 0010 7B68     		ldr	r3, [r7, #4]
 2239 0012 1B68     		ldr	r3, [r3]
ARM GAS  C:\Users\ADMINI~1\AppData\Local\Temp\cccB3BZw.s 			page 58


 2240 0014 1A6A     		ldr	r2, [r3, #32]
 2241 0016 41F21113 		movw	r3, #4369
 2242 001a 1340     		ands	r3, r3, r2
 2243 001c 002B     		cmp	r3, #0
 2244 001e 0FD1     		bne	.L130
 2245              		.loc 1 1053 3 is_stmt 0 discriminator 1
 2246 0020 7B68     		ldr	r3, [r7, #4]
 2247 0022 1B68     		ldr	r3, [r3]
 2248 0024 1A6A     		ldr	r2, [r3, #32]
 2249 0026 40F24443 		movw	r3, #1092
 2250 002a 1340     		ands	r3, r3, r2
 2251 002c 002B     		cmp	r3, #0
 2252 002e 07D1     		bne	.L130
 2253              		.loc 1 1053 3 discriminator 2
 2254 0030 7B68     		ldr	r3, [r7, #4]
 2255 0032 1B68     		ldr	r3, [r3]
 2256 0034 1A68     		ldr	r2, [r3]
 2257 0036 7B68     		ldr	r3, [r7, #4]
 2258 0038 1B68     		ldr	r3, [r3]
 2259 003a 22F00102 		bic	r2, r2, #1
 2260 003e 1A60     		str	r2, [r3]
 2261              	.L130:
1054:d:/LiteOS_Lab/drivers/third_party/ST/STM32L4xx_HAL_Driver/Src\stm32l4xx_hal_tim.c **** 
1055:d:/LiteOS_Lab/drivers/third_party/ST/STM32L4xx_HAL_Driver/Src\stm32l4xx_hal_tim.c ****   /* DeInit the low level hardware: GPIO, CLOCK, NVIC and DMA */
1056:d:/LiteOS_Lab/drivers/third_party/ST/STM32L4xx_HAL_Driver/Src\stm32l4xx_hal_tim.c ****   HAL_TIM_PWM_MspDeInit(htim);
 2262              		.loc 1 1056 3 is_stmt 1
 2263 0040 7868     		ldr	r0, [r7, #4]
 2264 0042 FFF7FEFF 		bl	HAL_TIM_PWM_MspDeInit
1057:d:/LiteOS_Lab/drivers/third_party/ST/STM32L4xx_HAL_Driver/Src\stm32l4xx_hal_tim.c **** 
1058:d:/LiteOS_Lab/drivers/third_party/ST/STM32L4xx_HAL_Driver/Src\stm32l4xx_hal_tim.c ****   /* Change TIM state */
1059:d:/LiteOS_Lab/drivers/third_party/ST/STM32L4xx_HAL_Driver/Src\stm32l4xx_hal_tim.c ****   htim->State = HAL_TIM_STATE_RESET;
 2265              		.loc 1 1059 15
 2266 0046 7B68     		ldr	r3, [r7, #4]
 2267 0048 0022     		movs	r2, #0
 2268 004a 83F83D20 		strb	r2, [r3, #61]
1060:d:/LiteOS_Lab/drivers/third_party/ST/STM32L4xx_HAL_Driver/Src\stm32l4xx_hal_tim.c **** 
1061:d:/LiteOS_Lab/drivers/third_party/ST/STM32L4xx_HAL_Driver/Src\stm32l4xx_hal_tim.c ****   /* Release Lock */
1062:d:/LiteOS_Lab/drivers/third_party/ST/STM32L4xx_HAL_Driver/Src\stm32l4xx_hal_tim.c ****   __HAL_UNLOCK(htim);
 2269              		.loc 1 1062 3
 2270 004e 7B68     		ldr	r3, [r7, #4]
 2271 0050 0022     		movs	r2, #0
 2272 0052 83F83C20 		strb	r2, [r3, #60]
1063:d:/LiteOS_Lab/drivers/third_party/ST/STM32L4xx_HAL_Driver/Src\stm32l4xx_hal_tim.c **** 
1064:d:/LiteOS_Lab/drivers/third_party/ST/STM32L4xx_HAL_Driver/Src\stm32l4xx_hal_tim.c ****   return HAL_OK;
 2273              		.loc 1 1064 10
 2274 0056 0023     		movs	r3, #0
1065:d:/LiteOS_Lab/drivers/third_party/ST/STM32L4xx_HAL_Driver/Src\stm32l4xx_hal_tim.c **** }
 2275              		.loc 1 1065 1
 2276 0058 1846     		mov	r0, r3
 2277 005a 0837     		adds	r7, r7, #8
 2278              	.LCFI117:
 2279              		.cfi_def_cfa_offset 8
 2280 005c BD46     		mov	sp, r7
 2281              	.LCFI118:
 2282              		.cfi_def_cfa_register 13
 2283              		@ sp needed
 2284 005e 80BD     		pop	{r7, pc}
ARM GAS  C:\Users\ADMINI~1\AppData\Local\Temp\cccB3BZw.s 			page 59


 2285              		.cfi_endproc
 2286              	.LFE308:
 2288              		.section	.text.HAL_TIM_PWM_MspInit,"ax",%progbits
 2289              		.align	1
 2290              		.weak	HAL_TIM_PWM_MspInit
 2291              		.syntax unified
 2292              		.thumb
 2293              		.thumb_func
 2294              		.fpu fpv4-sp-d16
 2296              	HAL_TIM_PWM_MspInit:
 2297              	.LFB309:
1066:d:/LiteOS_Lab/drivers/third_party/ST/STM32L4xx_HAL_Driver/Src\stm32l4xx_hal_tim.c **** 
1067:d:/LiteOS_Lab/drivers/third_party/ST/STM32L4xx_HAL_Driver/Src\stm32l4xx_hal_tim.c **** /**
1068:d:/LiteOS_Lab/drivers/third_party/ST/STM32L4xx_HAL_Driver/Src\stm32l4xx_hal_tim.c ****   * @brief  Initializes the TIM PWM MSP.
1069:d:/LiteOS_Lab/drivers/third_party/ST/STM32L4xx_HAL_Driver/Src\stm32l4xx_hal_tim.c ****   * @param  htim TIM handle
1070:d:/LiteOS_Lab/drivers/third_party/ST/STM32L4xx_HAL_Driver/Src\stm32l4xx_hal_tim.c ****   * @retval None
1071:d:/LiteOS_Lab/drivers/third_party/ST/STM32L4xx_HAL_Driver/Src\stm32l4xx_hal_tim.c ****   */
1072:d:/LiteOS_Lab/drivers/third_party/ST/STM32L4xx_HAL_Driver/Src\stm32l4xx_hal_tim.c **** __weak void HAL_TIM_PWM_MspInit(TIM_HandleTypeDef *htim)
1073:d:/LiteOS_Lab/drivers/third_party/ST/STM32L4xx_HAL_Driver/Src\stm32l4xx_hal_tim.c **** {
 2298              		.loc 1 1073 1
 2299              		.cfi_startproc
 2300              		@ args = 0, pretend = 0, frame = 8
 2301              		@ frame_needed = 1, uses_anonymous_args = 0
 2302              		@ link register save eliminated.
 2303 0000 80B4     		push	{r7}
 2304              	.LCFI119:
 2305              		.cfi_def_cfa_offset 4
 2306              		.cfi_offset 7, -4
 2307 0002 83B0     		sub	sp, sp, #12
 2308              	.LCFI120:
 2309              		.cfi_def_cfa_offset 16
 2310 0004 00AF     		add	r7, sp, #0
 2311              	.LCFI121:
 2312              		.cfi_def_cfa_register 7
 2313 0006 7860     		str	r0, [r7, #4]
1074:d:/LiteOS_Lab/drivers/third_party/ST/STM32L4xx_HAL_Driver/Src\stm32l4xx_hal_tim.c ****   /* Prevent unused argument(s) compilation warning */
1075:d:/LiteOS_Lab/drivers/third_party/ST/STM32L4xx_HAL_Driver/Src\stm32l4xx_hal_tim.c ****   UNUSED(htim);
1076:d:/LiteOS_Lab/drivers/third_party/ST/STM32L4xx_HAL_Driver/Src\stm32l4xx_hal_tim.c **** 
1077:d:/LiteOS_Lab/drivers/third_party/ST/STM32L4xx_HAL_Driver/Src\stm32l4xx_hal_tim.c ****   /* NOTE : This function should not be modified, when the callback is needed,
1078:d:/LiteOS_Lab/drivers/third_party/ST/STM32L4xx_HAL_Driver/Src\stm32l4xx_hal_tim.c ****             the HAL_TIM_PWM_MspInit could be implemented in the user file
1079:d:/LiteOS_Lab/drivers/third_party/ST/STM32L4xx_HAL_Driver/Src\stm32l4xx_hal_tim.c ****    */
1080:d:/LiteOS_Lab/drivers/third_party/ST/STM32L4xx_HAL_Driver/Src\stm32l4xx_hal_tim.c **** }
 2314              		.loc 1 1080 1
 2315 0008 00BF     		nop
 2316 000a 0C37     		adds	r7, r7, #12
 2317              	.LCFI122:
 2318              		.cfi_def_cfa_offset 4
 2319 000c BD46     		mov	sp, r7
 2320              	.LCFI123:
 2321              		.cfi_def_cfa_register 13
 2322              		@ sp needed
 2323 000e 5DF8047B 		ldr	r7, [sp], #4
 2324              	.LCFI124:
 2325              		.cfi_restore 7
 2326              		.cfi_def_cfa_offset 0
 2327 0012 7047     		bx	lr
 2328              		.cfi_endproc
ARM GAS  C:\Users\ADMINI~1\AppData\Local\Temp\cccB3BZw.s 			page 60


 2329              	.LFE309:
 2331              		.section	.text.HAL_TIM_PWM_MspDeInit,"ax",%progbits
 2332              		.align	1
 2333              		.weak	HAL_TIM_PWM_MspDeInit
 2334              		.syntax unified
 2335              		.thumb
 2336              		.thumb_func
 2337              		.fpu fpv4-sp-d16
 2339              	HAL_TIM_PWM_MspDeInit:
 2340              	.LFB310:
1081:d:/LiteOS_Lab/drivers/third_party/ST/STM32L4xx_HAL_Driver/Src\stm32l4xx_hal_tim.c **** 
1082:d:/LiteOS_Lab/drivers/third_party/ST/STM32L4xx_HAL_Driver/Src\stm32l4xx_hal_tim.c **** /**
1083:d:/LiteOS_Lab/drivers/third_party/ST/STM32L4xx_HAL_Driver/Src\stm32l4xx_hal_tim.c ****   * @brief  DeInitialize TIM PWM MSP.
1084:d:/LiteOS_Lab/drivers/third_party/ST/STM32L4xx_HAL_Driver/Src\stm32l4xx_hal_tim.c ****   * @param  htim TIM handle
1085:d:/LiteOS_Lab/drivers/third_party/ST/STM32L4xx_HAL_Driver/Src\stm32l4xx_hal_tim.c ****   * @retval None
1086:d:/LiteOS_Lab/drivers/third_party/ST/STM32L4xx_HAL_Driver/Src\stm32l4xx_hal_tim.c ****   */
1087:d:/LiteOS_Lab/drivers/third_party/ST/STM32L4xx_HAL_Driver/Src\stm32l4xx_hal_tim.c **** __weak void HAL_TIM_PWM_MspDeInit(TIM_HandleTypeDef *htim)
1088:d:/LiteOS_Lab/drivers/third_party/ST/STM32L4xx_HAL_Driver/Src\stm32l4xx_hal_tim.c **** {
 2341              		.loc 1 1088 1
 2342              		.cfi_startproc
 2343              		@ args = 0, pretend = 0, frame = 8
 2344              		@ frame_needed = 1, uses_anonymous_args = 0
 2345              		@ link register save eliminated.
 2346 0000 80B4     		push	{r7}
 2347              	.LCFI125:
 2348              		.cfi_def_cfa_offset 4
 2349              		.cfi_offset 7, -4
 2350 0002 83B0     		sub	sp, sp, #12
 2351              	.LCFI126:
 2352              		.cfi_def_cfa_offset 16
 2353 0004 00AF     		add	r7, sp, #0
 2354              	.LCFI127:
 2355              		.cfi_def_cfa_register 7
 2356 0006 7860     		str	r0, [r7, #4]
1089:d:/LiteOS_Lab/drivers/third_party/ST/STM32L4xx_HAL_Driver/Src\stm32l4xx_hal_tim.c ****   /* Prevent unused argument(s) compilation warning */
1090:d:/LiteOS_Lab/drivers/third_party/ST/STM32L4xx_HAL_Driver/Src\stm32l4xx_hal_tim.c ****   UNUSED(htim);
1091:d:/LiteOS_Lab/drivers/third_party/ST/STM32L4xx_HAL_Driver/Src\stm32l4xx_hal_tim.c **** 
1092:d:/LiteOS_Lab/drivers/third_party/ST/STM32L4xx_HAL_Driver/Src\stm32l4xx_hal_tim.c ****   /* NOTE : This function should not be modified, when the callback is needed,
1093:d:/LiteOS_Lab/drivers/third_party/ST/STM32L4xx_HAL_Driver/Src\stm32l4xx_hal_tim.c ****             the HAL_TIM_PWM_MspDeInit could be implemented in the user file
1094:d:/LiteOS_Lab/drivers/third_party/ST/STM32L4xx_HAL_Driver/Src\stm32l4xx_hal_tim.c ****    */
1095:d:/LiteOS_Lab/drivers/third_party/ST/STM32L4xx_HAL_Driver/Src\stm32l4xx_hal_tim.c **** }
 2357              		.loc 1 1095 1
 2358 0008 00BF     		nop
 2359 000a 0C37     		adds	r7, r7, #12
 2360              	.LCFI128:
 2361              		.cfi_def_cfa_offset 4
 2362 000c BD46     		mov	sp, r7
 2363              	.LCFI129:
 2364              		.cfi_def_cfa_register 13
 2365              		@ sp needed
 2366 000e 5DF8047B 		ldr	r7, [sp], #4
 2367              	.LCFI130:
 2368              		.cfi_restore 7
 2369              		.cfi_def_cfa_offset 0
 2370 0012 7047     		bx	lr
 2371              		.cfi_endproc
 2372              	.LFE310:
ARM GAS  C:\Users\ADMINI~1\AppData\Local\Temp\cccB3BZw.s 			page 61


 2374              		.section	.text.HAL_TIM_PWM_Start,"ax",%progbits
 2375              		.align	1
 2376              		.global	HAL_TIM_PWM_Start
 2377              		.syntax unified
 2378              		.thumb
 2379              		.thumb_func
 2380              		.fpu fpv4-sp-d16
 2382              	HAL_TIM_PWM_Start:
 2383              	.LFB311:
1096:d:/LiteOS_Lab/drivers/third_party/ST/STM32L4xx_HAL_Driver/Src\stm32l4xx_hal_tim.c **** 
1097:d:/LiteOS_Lab/drivers/third_party/ST/STM32L4xx_HAL_Driver/Src\stm32l4xx_hal_tim.c **** /**
1098:d:/LiteOS_Lab/drivers/third_party/ST/STM32L4xx_HAL_Driver/Src\stm32l4xx_hal_tim.c ****   * @brief  Starts the PWM signal generation.
1099:d:/LiteOS_Lab/drivers/third_party/ST/STM32L4xx_HAL_Driver/Src\stm32l4xx_hal_tim.c ****   * @param  htim TIM handle
1100:d:/LiteOS_Lab/drivers/third_party/ST/STM32L4xx_HAL_Driver/Src\stm32l4xx_hal_tim.c ****   * @param  Channel TIM Channels to be enabled
1101:d:/LiteOS_Lab/drivers/third_party/ST/STM32L4xx_HAL_Driver/Src\stm32l4xx_hal_tim.c ****   *          This parameter can be one of the following values:
1102:d:/LiteOS_Lab/drivers/third_party/ST/STM32L4xx_HAL_Driver/Src\stm32l4xx_hal_tim.c ****   *            @arg TIM_CHANNEL_1: TIM Channel 1 selected
1103:d:/LiteOS_Lab/drivers/third_party/ST/STM32L4xx_HAL_Driver/Src\stm32l4xx_hal_tim.c ****   *            @arg TIM_CHANNEL_2: TIM Channel 2 selected
1104:d:/LiteOS_Lab/drivers/third_party/ST/STM32L4xx_HAL_Driver/Src\stm32l4xx_hal_tim.c ****   *            @arg TIM_CHANNEL_3: TIM Channel 3 selected
1105:d:/LiteOS_Lab/drivers/third_party/ST/STM32L4xx_HAL_Driver/Src\stm32l4xx_hal_tim.c ****   *            @arg TIM_CHANNEL_4: TIM Channel 4 selected
1106:d:/LiteOS_Lab/drivers/third_party/ST/STM32L4xx_HAL_Driver/Src\stm32l4xx_hal_tim.c ****   *            @arg TIM_CHANNEL_5: TIM Channel 5 selected
1107:d:/LiteOS_Lab/drivers/third_party/ST/STM32L4xx_HAL_Driver/Src\stm32l4xx_hal_tim.c ****   *            @arg TIM_CHANNEL_6: TIM Channel 6 selected
1108:d:/LiteOS_Lab/drivers/third_party/ST/STM32L4xx_HAL_Driver/Src\stm32l4xx_hal_tim.c ****   * @retval HAL status
1109:d:/LiteOS_Lab/drivers/third_party/ST/STM32L4xx_HAL_Driver/Src\stm32l4xx_hal_tim.c **** */
1110:d:/LiteOS_Lab/drivers/third_party/ST/STM32L4xx_HAL_Driver/Src\stm32l4xx_hal_tim.c **** HAL_StatusTypeDef HAL_TIM_PWM_Start(TIM_HandleTypeDef *htim, uint32_t Channel)
1111:d:/LiteOS_Lab/drivers/third_party/ST/STM32L4xx_HAL_Driver/Src\stm32l4xx_hal_tim.c **** {
 2384              		.loc 1 1111 1
 2385              		.cfi_startproc
 2386              		@ args = 0, pretend = 0, frame = 8
 2387              		@ frame_needed = 1, uses_anonymous_args = 0
 2388 0000 80B5     		push	{r7, lr}
 2389              	.LCFI131:
 2390              		.cfi_def_cfa_offset 8
 2391              		.cfi_offset 7, -8
 2392              		.cfi_offset 14, -4
 2393 0002 82B0     		sub	sp, sp, #8
 2394              	.LCFI132:
 2395              		.cfi_def_cfa_offset 16
 2396 0004 00AF     		add	r7, sp, #0
 2397              	.LCFI133:
 2398              		.cfi_def_cfa_register 7
 2399 0006 7860     		str	r0, [r7, #4]
 2400 0008 3960     		str	r1, [r7]
1112:d:/LiteOS_Lab/drivers/third_party/ST/STM32L4xx_HAL_Driver/Src\stm32l4xx_hal_tim.c ****   /* Check the parameters */
1113:d:/LiteOS_Lab/drivers/third_party/ST/STM32L4xx_HAL_Driver/Src\stm32l4xx_hal_tim.c ****   assert_param(IS_TIM_CCX_INSTANCE(htim->Instance, Channel));
1114:d:/LiteOS_Lab/drivers/third_party/ST/STM32L4xx_HAL_Driver/Src\stm32l4xx_hal_tim.c **** 
1115:d:/LiteOS_Lab/drivers/third_party/ST/STM32L4xx_HAL_Driver/Src\stm32l4xx_hal_tim.c ****   /* Enable the Capture compare channel */
1116:d:/LiteOS_Lab/drivers/third_party/ST/STM32L4xx_HAL_Driver/Src\stm32l4xx_hal_tim.c ****   TIM_CCxChannelCmd(htim->Instance, Channel, TIM_CCx_ENABLE);
 2401              		.loc 1 1116 3
 2402 000a 7B68     		ldr	r3, [r7, #4]
 2403 000c 1B68     		ldr	r3, [r3]
 2404 000e 0122     		movs	r2, #1
 2405 0010 3968     		ldr	r1, [r7]
 2406 0012 1846     		mov	r0, r3
 2407 0014 FFF7FEFF 		bl	TIM_CCxChannelCmd
1117:d:/LiteOS_Lab/drivers/third_party/ST/STM32L4xx_HAL_Driver/Src\stm32l4xx_hal_tim.c **** 
1118:d:/LiteOS_Lab/drivers/third_party/ST/STM32L4xx_HAL_Driver/Src\stm32l4xx_hal_tim.c ****   if(IS_TIM_BREAK_INSTANCE(htim->Instance) != RESET)
 2408              		.loc 1 1118 6
ARM GAS  C:\Users\ADMINI~1\AppData\Local\Temp\cccB3BZw.s 			page 62


 2409 0018 7B68     		ldr	r3, [r7, #4]
 2410 001a 1B68     		ldr	r3, [r3]
 2411 001c 134A     		ldr	r2, .L140
 2412 001e 9342     		cmp	r3, r2
 2413 0020 09D0     		beq	.L135
 2414              		.loc 1 1118 6 is_stmt 0 discriminator 2
 2415 0022 7B68     		ldr	r3, [r7, #4]
 2416 0024 1B68     		ldr	r3, [r3]
 2417 0026 124A     		ldr	r2, .L140+4
 2418 0028 9342     		cmp	r3, r2
 2419 002a 04D0     		beq	.L135
 2420              		.loc 1 1118 6 discriminator 4
 2421 002c 7B68     		ldr	r3, [r7, #4]
 2422 002e 1B68     		ldr	r3, [r3]
 2423 0030 104A     		ldr	r2, .L140+8
 2424 0032 9342     		cmp	r3, r2
 2425 0034 01D1     		bne	.L136
 2426              	.L135:
 2427              		.loc 1 1118 6 discriminator 5
 2428 0036 0123     		movs	r3, #1
 2429 0038 00E0     		b	.L137
 2430              	.L136:
 2431              		.loc 1 1118 6 discriminator 6
 2432 003a 0023     		movs	r3, #0
 2433              	.L137:
 2434              		.loc 1 1118 5 is_stmt 1 discriminator 8
 2435 003c 002B     		cmp	r3, #0
 2436 003e 07D0     		beq	.L138
1119:d:/LiteOS_Lab/drivers/third_party/ST/STM32L4xx_HAL_Driver/Src\stm32l4xx_hal_tim.c ****   {
1120:d:/LiteOS_Lab/drivers/third_party/ST/STM32L4xx_HAL_Driver/Src\stm32l4xx_hal_tim.c ****     /* Enable the main output */
1121:d:/LiteOS_Lab/drivers/third_party/ST/STM32L4xx_HAL_Driver/Src\stm32l4xx_hal_tim.c ****     __HAL_TIM_MOE_ENABLE(htim);
 2437              		.loc 1 1121 5
 2438 0040 7B68     		ldr	r3, [r7, #4]
 2439 0042 1B68     		ldr	r3, [r3]
 2440 0044 5A6C     		ldr	r2, [r3, #68]
 2441 0046 7B68     		ldr	r3, [r7, #4]
 2442 0048 1B68     		ldr	r3, [r3]
 2443 004a 42F40042 		orr	r2, r2, #32768
 2444 004e 5A64     		str	r2, [r3, #68]
 2445              	.L138:
1122:d:/LiteOS_Lab/drivers/third_party/ST/STM32L4xx_HAL_Driver/Src\stm32l4xx_hal_tim.c ****   }
1123:d:/LiteOS_Lab/drivers/third_party/ST/STM32L4xx_HAL_Driver/Src\stm32l4xx_hal_tim.c **** 
1124:d:/LiteOS_Lab/drivers/third_party/ST/STM32L4xx_HAL_Driver/Src\stm32l4xx_hal_tim.c ****   /* Enable the Peripheral */
1125:d:/LiteOS_Lab/drivers/third_party/ST/STM32L4xx_HAL_Driver/Src\stm32l4xx_hal_tim.c ****   __HAL_TIM_ENABLE(htim);
 2446              		.loc 1 1125 3
 2447 0050 7B68     		ldr	r3, [r7, #4]
 2448 0052 1B68     		ldr	r3, [r3]
 2449 0054 1A68     		ldr	r2, [r3]
 2450 0056 7B68     		ldr	r3, [r7, #4]
 2451 0058 1B68     		ldr	r3, [r3]
 2452 005a 42F00102 		orr	r2, r2, #1
 2453 005e 1A60     		str	r2, [r3]
1126:d:/LiteOS_Lab/drivers/third_party/ST/STM32L4xx_HAL_Driver/Src\stm32l4xx_hal_tim.c **** 
1127:d:/LiteOS_Lab/drivers/third_party/ST/STM32L4xx_HAL_Driver/Src\stm32l4xx_hal_tim.c ****   /* Return function status */
1128:d:/LiteOS_Lab/drivers/third_party/ST/STM32L4xx_HAL_Driver/Src\stm32l4xx_hal_tim.c ****   return HAL_OK;
 2454              		.loc 1 1128 10
 2455 0060 0023     		movs	r3, #0
ARM GAS  C:\Users\ADMINI~1\AppData\Local\Temp\cccB3BZw.s 			page 63


1129:d:/LiteOS_Lab/drivers/third_party/ST/STM32L4xx_HAL_Driver/Src\stm32l4xx_hal_tim.c **** }
 2456              		.loc 1 1129 1
 2457 0062 1846     		mov	r0, r3
 2458 0064 0837     		adds	r7, r7, #8
 2459              	.LCFI134:
 2460              		.cfi_def_cfa_offset 8
 2461 0066 BD46     		mov	sp, r7
 2462              	.LCFI135:
 2463              		.cfi_def_cfa_register 13
 2464              		@ sp needed
 2465 0068 80BD     		pop	{r7, pc}
 2466              	.L141:
 2467 006a 00BF     		.align	2
 2468              	.L140:
 2469 006c 002C0140 		.word	1073818624
 2470 0070 00400140 		.word	1073823744
 2471 0074 00440140 		.word	1073824768
 2472              		.cfi_endproc
 2473              	.LFE311:
 2475              		.section	.text.HAL_TIM_PWM_Stop,"ax",%progbits
 2476              		.align	1
 2477              		.global	HAL_TIM_PWM_Stop
 2478              		.syntax unified
 2479              		.thumb
 2480              		.thumb_func
 2481              		.fpu fpv4-sp-d16
 2483              	HAL_TIM_PWM_Stop:
 2484              	.LFB312:
1130:d:/LiteOS_Lab/drivers/third_party/ST/STM32L4xx_HAL_Driver/Src\stm32l4xx_hal_tim.c **** 
1131:d:/LiteOS_Lab/drivers/third_party/ST/STM32L4xx_HAL_Driver/Src\stm32l4xx_hal_tim.c **** /**
1132:d:/LiteOS_Lab/drivers/third_party/ST/STM32L4xx_HAL_Driver/Src\stm32l4xx_hal_tim.c ****   * @brief  Stops the PWM signal generation.
1133:d:/LiteOS_Lab/drivers/third_party/ST/STM32L4xx_HAL_Driver/Src\stm32l4xx_hal_tim.c ****   * @param  htim TIM handle
1134:d:/LiteOS_Lab/drivers/third_party/ST/STM32L4xx_HAL_Driver/Src\stm32l4xx_hal_tim.c ****   * @param  Channel TIM Channels to be disabled
1135:d:/LiteOS_Lab/drivers/third_party/ST/STM32L4xx_HAL_Driver/Src\stm32l4xx_hal_tim.c ****   *          This parameter can be one of the following values:
1136:d:/LiteOS_Lab/drivers/third_party/ST/STM32L4xx_HAL_Driver/Src\stm32l4xx_hal_tim.c ****   *            @arg TIM_CHANNEL_1: TIM Channel 1 selected
1137:d:/LiteOS_Lab/drivers/third_party/ST/STM32L4xx_HAL_Driver/Src\stm32l4xx_hal_tim.c ****   *            @arg TIM_CHANNEL_2: TIM Channel 2 selected
1138:d:/LiteOS_Lab/drivers/third_party/ST/STM32L4xx_HAL_Driver/Src\stm32l4xx_hal_tim.c ****   *            @arg TIM_CHANNEL_3: TIM Channel 3 selected
1139:d:/LiteOS_Lab/drivers/third_party/ST/STM32L4xx_HAL_Driver/Src\stm32l4xx_hal_tim.c ****   *            @arg TIM_CHANNEL_4: TIM Channel 4 selected
1140:d:/LiteOS_Lab/drivers/third_party/ST/STM32L4xx_HAL_Driver/Src\stm32l4xx_hal_tim.c ****   *            @arg TIM_CHANNEL_5: TIM Channel 5 selected
1141:d:/LiteOS_Lab/drivers/third_party/ST/STM32L4xx_HAL_Driver/Src\stm32l4xx_hal_tim.c ****   *            @arg TIM_CHANNEL_6: TIM Channel 6 selected
1142:d:/LiteOS_Lab/drivers/third_party/ST/STM32L4xx_HAL_Driver/Src\stm32l4xx_hal_tim.c ****   * @retval HAL status
1143:d:/LiteOS_Lab/drivers/third_party/ST/STM32L4xx_HAL_Driver/Src\stm32l4xx_hal_tim.c **** */
1144:d:/LiteOS_Lab/drivers/third_party/ST/STM32L4xx_HAL_Driver/Src\stm32l4xx_hal_tim.c **** HAL_StatusTypeDef HAL_TIM_PWM_Stop(TIM_HandleTypeDef *htim, uint32_t Channel)
1145:d:/LiteOS_Lab/drivers/third_party/ST/STM32L4xx_HAL_Driver/Src\stm32l4xx_hal_tim.c **** {
 2485              		.loc 1 1145 1
 2486              		.cfi_startproc
 2487              		@ args = 0, pretend = 0, frame = 8
 2488              		@ frame_needed = 1, uses_anonymous_args = 0
 2489 0000 80B5     		push	{r7, lr}
 2490              	.LCFI136:
 2491              		.cfi_def_cfa_offset 8
 2492              		.cfi_offset 7, -8
 2493              		.cfi_offset 14, -4
 2494 0002 82B0     		sub	sp, sp, #8
 2495              	.LCFI137:
 2496              		.cfi_def_cfa_offset 16
 2497 0004 00AF     		add	r7, sp, #0
ARM GAS  C:\Users\ADMINI~1\AppData\Local\Temp\cccB3BZw.s 			page 64


 2498              	.LCFI138:
 2499              		.cfi_def_cfa_register 7
 2500 0006 7860     		str	r0, [r7, #4]
 2501 0008 3960     		str	r1, [r7]
1146:d:/LiteOS_Lab/drivers/third_party/ST/STM32L4xx_HAL_Driver/Src\stm32l4xx_hal_tim.c ****   /* Check the parameters */
1147:d:/LiteOS_Lab/drivers/third_party/ST/STM32L4xx_HAL_Driver/Src\stm32l4xx_hal_tim.c ****   assert_param(IS_TIM_CCX_INSTANCE(htim->Instance, Channel));
1148:d:/LiteOS_Lab/drivers/third_party/ST/STM32L4xx_HAL_Driver/Src\stm32l4xx_hal_tim.c **** 
1149:d:/LiteOS_Lab/drivers/third_party/ST/STM32L4xx_HAL_Driver/Src\stm32l4xx_hal_tim.c ****   /* Disable the Capture compare channel */
1150:d:/LiteOS_Lab/drivers/third_party/ST/STM32L4xx_HAL_Driver/Src\stm32l4xx_hal_tim.c ****   TIM_CCxChannelCmd(htim->Instance, Channel, TIM_CCx_DISABLE);
 2502              		.loc 1 1150 3
 2503 000a 7B68     		ldr	r3, [r7, #4]
 2504 000c 1B68     		ldr	r3, [r3]
 2505 000e 0022     		movs	r2, #0
 2506 0010 3968     		ldr	r1, [r7]
 2507 0012 1846     		mov	r0, r3
 2508 0014 FFF7FEFF 		bl	TIM_CCxChannelCmd
1151:d:/LiteOS_Lab/drivers/third_party/ST/STM32L4xx_HAL_Driver/Src\stm32l4xx_hal_tim.c **** 
1152:d:/LiteOS_Lab/drivers/third_party/ST/STM32L4xx_HAL_Driver/Src\stm32l4xx_hal_tim.c ****   if(IS_TIM_BREAK_INSTANCE(htim->Instance) != RESET)
 2509              		.loc 1 1152 6
 2510 0018 7B68     		ldr	r3, [r7, #4]
 2511 001a 1B68     		ldr	r3, [r3]
 2512 001c 254A     		ldr	r2, .L149
 2513 001e 9342     		cmp	r3, r2
 2514 0020 09D0     		beq	.L143
 2515              		.loc 1 1152 6 is_stmt 0 discriminator 2
 2516 0022 7B68     		ldr	r3, [r7, #4]
 2517 0024 1B68     		ldr	r3, [r3]
 2518 0026 244A     		ldr	r2, .L149+4
 2519 0028 9342     		cmp	r3, r2
 2520 002a 04D0     		beq	.L143
 2521              		.loc 1 1152 6 discriminator 4
 2522 002c 7B68     		ldr	r3, [r7, #4]
 2523 002e 1B68     		ldr	r3, [r3]
 2524 0030 224A     		ldr	r2, .L149+8
 2525 0032 9342     		cmp	r3, r2
 2526 0034 01D1     		bne	.L144
 2527              	.L143:
 2528              		.loc 1 1152 6 discriminator 5
 2529 0036 0123     		movs	r3, #1
 2530 0038 00E0     		b	.L145
 2531              	.L144:
 2532              		.loc 1 1152 6 discriminator 6
 2533 003a 0023     		movs	r3, #0
 2534              	.L145:
 2535              		.loc 1 1152 5 is_stmt 1 discriminator 8
 2536 003c 002B     		cmp	r3, #0
 2537 003e 17D0     		beq	.L146
1153:d:/LiteOS_Lab/drivers/third_party/ST/STM32L4xx_HAL_Driver/Src\stm32l4xx_hal_tim.c ****   {
1154:d:/LiteOS_Lab/drivers/third_party/ST/STM32L4xx_HAL_Driver/Src\stm32l4xx_hal_tim.c ****     /* Disable the Main Ouput */
1155:d:/LiteOS_Lab/drivers/third_party/ST/STM32L4xx_HAL_Driver/Src\stm32l4xx_hal_tim.c ****     __HAL_TIM_MOE_DISABLE(htim);
 2538              		.loc 1 1155 5
 2539 0040 7B68     		ldr	r3, [r7, #4]
 2540 0042 1B68     		ldr	r3, [r3]
 2541 0044 1A6A     		ldr	r2, [r3, #32]
 2542 0046 41F21113 		movw	r3, #4369
 2543 004a 1340     		ands	r3, r3, r2
 2544 004c 002B     		cmp	r3, #0
ARM GAS  C:\Users\ADMINI~1\AppData\Local\Temp\cccB3BZw.s 			page 65


 2545 004e 0FD1     		bne	.L146
 2546              		.loc 1 1155 5 is_stmt 0 discriminator 1
 2547 0050 7B68     		ldr	r3, [r7, #4]
 2548 0052 1B68     		ldr	r3, [r3]
 2549 0054 1A6A     		ldr	r2, [r3, #32]
 2550 0056 40F24443 		movw	r3, #1092
 2551 005a 1340     		ands	r3, r3, r2
 2552 005c 002B     		cmp	r3, #0
 2553 005e 07D1     		bne	.L146
 2554              		.loc 1 1155 5 discriminator 2
 2555 0060 7B68     		ldr	r3, [r7, #4]
 2556 0062 1B68     		ldr	r3, [r3]
 2557 0064 5A6C     		ldr	r2, [r3, #68]
 2558 0066 7B68     		ldr	r3, [r7, #4]
 2559 0068 1B68     		ldr	r3, [r3]
 2560 006a 22F40042 		bic	r2, r2, #32768
 2561 006e 5A64     		str	r2, [r3, #68]
 2562              	.L146:
1156:d:/LiteOS_Lab/drivers/third_party/ST/STM32L4xx_HAL_Driver/Src\stm32l4xx_hal_tim.c ****   }
1157:d:/LiteOS_Lab/drivers/third_party/ST/STM32L4xx_HAL_Driver/Src\stm32l4xx_hal_tim.c **** 
1158:d:/LiteOS_Lab/drivers/third_party/ST/STM32L4xx_HAL_Driver/Src\stm32l4xx_hal_tim.c ****   /* Disable the Peripheral */
1159:d:/LiteOS_Lab/drivers/third_party/ST/STM32L4xx_HAL_Driver/Src\stm32l4xx_hal_tim.c ****   __HAL_TIM_DISABLE(htim);
 2563              		.loc 1 1159 3 is_stmt 1
 2564 0070 7B68     		ldr	r3, [r7, #4]
 2565 0072 1B68     		ldr	r3, [r3]
 2566 0074 1A6A     		ldr	r2, [r3, #32]
 2567 0076 41F21113 		movw	r3, #4369
 2568 007a 1340     		ands	r3, r3, r2
 2569 007c 002B     		cmp	r3, #0
 2570 007e 0FD1     		bne	.L147
 2571              		.loc 1 1159 3 is_stmt 0 discriminator 1
 2572 0080 7B68     		ldr	r3, [r7, #4]
 2573 0082 1B68     		ldr	r3, [r3]
 2574 0084 1A6A     		ldr	r2, [r3, #32]
 2575 0086 40F24443 		movw	r3, #1092
 2576 008a 1340     		ands	r3, r3, r2
 2577 008c 002B     		cmp	r3, #0
 2578 008e 07D1     		bne	.L147
 2579              		.loc 1 1159 3 discriminator 2
 2580 0090 7B68     		ldr	r3, [r7, #4]
 2581 0092 1B68     		ldr	r3, [r3]
 2582 0094 1A68     		ldr	r2, [r3]
 2583 0096 7B68     		ldr	r3, [r7, #4]
 2584 0098 1B68     		ldr	r3, [r3]
 2585 009a 22F00102 		bic	r2, r2, #1
 2586 009e 1A60     		str	r2, [r3]
 2587              	.L147:
1160:d:/LiteOS_Lab/drivers/third_party/ST/STM32L4xx_HAL_Driver/Src\stm32l4xx_hal_tim.c **** 
1161:d:/LiteOS_Lab/drivers/third_party/ST/STM32L4xx_HAL_Driver/Src\stm32l4xx_hal_tim.c ****   /* Change the htim state */
1162:d:/LiteOS_Lab/drivers/third_party/ST/STM32L4xx_HAL_Driver/Src\stm32l4xx_hal_tim.c ****   htim->State = HAL_TIM_STATE_READY;
 2588              		.loc 1 1162 15 is_stmt 1
 2589 00a0 7B68     		ldr	r3, [r7, #4]
 2590 00a2 0122     		movs	r2, #1
 2591 00a4 83F83D20 		strb	r2, [r3, #61]
1163:d:/LiteOS_Lab/drivers/third_party/ST/STM32L4xx_HAL_Driver/Src\stm32l4xx_hal_tim.c **** 
1164:d:/LiteOS_Lab/drivers/third_party/ST/STM32L4xx_HAL_Driver/Src\stm32l4xx_hal_tim.c ****   /* Return function status */
1165:d:/LiteOS_Lab/drivers/third_party/ST/STM32L4xx_HAL_Driver/Src\stm32l4xx_hal_tim.c ****   return HAL_OK;
ARM GAS  C:\Users\ADMINI~1\AppData\Local\Temp\cccB3BZw.s 			page 66


 2592              		.loc 1 1165 10
 2593 00a8 0023     		movs	r3, #0
1166:d:/LiteOS_Lab/drivers/third_party/ST/STM32L4xx_HAL_Driver/Src\stm32l4xx_hal_tim.c **** }
 2594              		.loc 1 1166 1
 2595 00aa 1846     		mov	r0, r3
 2596 00ac 0837     		adds	r7, r7, #8
 2597              	.LCFI139:
 2598              		.cfi_def_cfa_offset 8
 2599 00ae BD46     		mov	sp, r7
 2600              	.LCFI140:
 2601              		.cfi_def_cfa_register 13
 2602              		@ sp needed
 2603 00b0 80BD     		pop	{r7, pc}
 2604              	.L150:
 2605 00b2 00BF     		.align	2
 2606              	.L149:
 2607 00b4 002C0140 		.word	1073818624
 2608 00b8 00400140 		.word	1073823744
 2609 00bc 00440140 		.word	1073824768
 2610              		.cfi_endproc
 2611              	.LFE312:
 2613              		.section	.text.HAL_TIM_PWM_Start_IT,"ax",%progbits
 2614              		.align	1
 2615              		.global	HAL_TIM_PWM_Start_IT
 2616              		.syntax unified
 2617              		.thumb
 2618              		.thumb_func
 2619              		.fpu fpv4-sp-d16
 2621              	HAL_TIM_PWM_Start_IT:
 2622              	.LFB313:
1167:d:/LiteOS_Lab/drivers/third_party/ST/STM32L4xx_HAL_Driver/Src\stm32l4xx_hal_tim.c **** 
1168:d:/LiteOS_Lab/drivers/third_party/ST/STM32L4xx_HAL_Driver/Src\stm32l4xx_hal_tim.c **** /**
1169:d:/LiteOS_Lab/drivers/third_party/ST/STM32L4xx_HAL_Driver/Src\stm32l4xx_hal_tim.c ****   * @brief  Starts the PWM signal generation in interrupt mode.
1170:d:/LiteOS_Lab/drivers/third_party/ST/STM32L4xx_HAL_Driver/Src\stm32l4xx_hal_tim.c ****   * @param  htim TIM handle
1171:d:/LiteOS_Lab/drivers/third_party/ST/STM32L4xx_HAL_Driver/Src\stm32l4xx_hal_tim.c ****   * @param  Channel TIM Channel to be enabled
1172:d:/LiteOS_Lab/drivers/third_party/ST/STM32L4xx_HAL_Driver/Src\stm32l4xx_hal_tim.c ****   *          This parameter can be one of the following values:
1173:d:/LiteOS_Lab/drivers/third_party/ST/STM32L4xx_HAL_Driver/Src\stm32l4xx_hal_tim.c ****   *            @arg TIM_CHANNEL_1: TIM Channel 1 selected
1174:d:/LiteOS_Lab/drivers/third_party/ST/STM32L4xx_HAL_Driver/Src\stm32l4xx_hal_tim.c ****   *            @arg TIM_CHANNEL_2: TIM Channel 2 selected
1175:d:/LiteOS_Lab/drivers/third_party/ST/STM32L4xx_HAL_Driver/Src\stm32l4xx_hal_tim.c ****   *            @arg TIM_CHANNEL_3: TIM Channel 3 selected
1176:d:/LiteOS_Lab/drivers/third_party/ST/STM32L4xx_HAL_Driver/Src\stm32l4xx_hal_tim.c ****   *            @arg TIM_CHANNEL_4: TIM Channel 4 selected
1177:d:/LiteOS_Lab/drivers/third_party/ST/STM32L4xx_HAL_Driver/Src\stm32l4xx_hal_tim.c ****   * @retval HAL status
1178:d:/LiteOS_Lab/drivers/third_party/ST/STM32L4xx_HAL_Driver/Src\stm32l4xx_hal_tim.c **** */
1179:d:/LiteOS_Lab/drivers/third_party/ST/STM32L4xx_HAL_Driver/Src\stm32l4xx_hal_tim.c **** HAL_StatusTypeDef HAL_TIM_PWM_Start_IT(TIM_HandleTypeDef *htim, uint32_t Channel)
1180:d:/LiteOS_Lab/drivers/third_party/ST/STM32L4xx_HAL_Driver/Src\stm32l4xx_hal_tim.c **** {
 2623              		.loc 1 1180 1
 2624              		.cfi_startproc
 2625              		@ args = 0, pretend = 0, frame = 8
 2626              		@ frame_needed = 1, uses_anonymous_args = 0
 2627 0000 80B5     		push	{r7, lr}
 2628              	.LCFI141:
 2629              		.cfi_def_cfa_offset 8
 2630              		.cfi_offset 7, -8
 2631              		.cfi_offset 14, -4
 2632 0002 82B0     		sub	sp, sp, #8
 2633              	.LCFI142:
 2634              		.cfi_def_cfa_offset 16
 2635 0004 00AF     		add	r7, sp, #0
ARM GAS  C:\Users\ADMINI~1\AppData\Local\Temp\cccB3BZw.s 			page 67


 2636              	.LCFI143:
 2637              		.cfi_def_cfa_register 7
 2638 0006 7860     		str	r0, [r7, #4]
 2639 0008 3960     		str	r1, [r7]
 2640 000a 3B68     		ldr	r3, [r7]
 2641 000c 0C2B     		cmp	r3, #12
 2642 000e 41D8     		bhi	.L164
 2643 0010 01A2     		adr	r2, .L154
 2644 0012 52F823F0 		ldr	pc, [r2, r3, lsl #2]
 2645 0016 00BF     		.p2align 2
 2646              	.L154:
 2647 0018 4D000000 		.word	.L157+1
 2648 001c 95000000 		.word	.L164+1
 2649 0020 95000000 		.word	.L164+1
 2650 0024 95000000 		.word	.L164+1
 2651 0028 5F000000 		.word	.L156+1
 2652 002c 95000000 		.word	.L164+1
 2653 0030 95000000 		.word	.L164+1
 2654 0034 95000000 		.word	.L164+1
 2655 0038 71000000 		.word	.L155+1
 2656 003c 95000000 		.word	.L164+1
 2657 0040 95000000 		.word	.L164+1
 2658 0044 95000000 		.word	.L164+1
 2659 0048 83000000 		.word	.L153+1
 2660              		.p2align 1
 2661              	.L157:
1181:d:/LiteOS_Lab/drivers/third_party/ST/STM32L4xx_HAL_Driver/Src\stm32l4xx_hal_tim.c ****   /* Check the parameters */
1182:d:/LiteOS_Lab/drivers/third_party/ST/STM32L4xx_HAL_Driver/Src\stm32l4xx_hal_tim.c ****   assert_param(IS_TIM_CCX_INSTANCE(htim->Instance, Channel));
1183:d:/LiteOS_Lab/drivers/third_party/ST/STM32L4xx_HAL_Driver/Src\stm32l4xx_hal_tim.c **** 
1184:d:/LiteOS_Lab/drivers/third_party/ST/STM32L4xx_HAL_Driver/Src\stm32l4xx_hal_tim.c ****   switch (Channel)
1185:d:/LiteOS_Lab/drivers/third_party/ST/STM32L4xx_HAL_Driver/Src\stm32l4xx_hal_tim.c ****   {
1186:d:/LiteOS_Lab/drivers/third_party/ST/STM32L4xx_HAL_Driver/Src\stm32l4xx_hal_tim.c ****     case TIM_CHANNEL_1:
1187:d:/LiteOS_Lab/drivers/third_party/ST/STM32L4xx_HAL_Driver/Src\stm32l4xx_hal_tim.c ****     {
1188:d:/LiteOS_Lab/drivers/third_party/ST/STM32L4xx_HAL_Driver/Src\stm32l4xx_hal_tim.c ****       /* Enable the TIM Capture/Compare 1 interrupt */
1189:d:/LiteOS_Lab/drivers/third_party/ST/STM32L4xx_HAL_Driver/Src\stm32l4xx_hal_tim.c ****       __HAL_TIM_ENABLE_IT(htim, TIM_IT_CC1);
 2662              		.loc 1 1189 7
 2663 004c 7B68     		ldr	r3, [r7, #4]
 2664 004e 1B68     		ldr	r3, [r3]
 2665 0050 DA68     		ldr	r2, [r3, #12]
 2666 0052 7B68     		ldr	r3, [r7, #4]
 2667 0054 1B68     		ldr	r3, [r3]
 2668 0056 42F00202 		orr	r2, r2, #2
 2669 005a DA60     		str	r2, [r3, #12]
1190:d:/LiteOS_Lab/drivers/third_party/ST/STM32L4xx_HAL_Driver/Src\stm32l4xx_hal_tim.c ****     }
1191:d:/LiteOS_Lab/drivers/third_party/ST/STM32L4xx_HAL_Driver/Src\stm32l4xx_hal_tim.c ****     break;
 2670              		.loc 1 1191 5
 2671 005c 1BE0     		b	.L158
 2672              	.L156:
1192:d:/LiteOS_Lab/drivers/third_party/ST/STM32L4xx_HAL_Driver/Src\stm32l4xx_hal_tim.c **** 
1193:d:/LiteOS_Lab/drivers/third_party/ST/STM32L4xx_HAL_Driver/Src\stm32l4xx_hal_tim.c ****     case TIM_CHANNEL_2:
1194:d:/LiteOS_Lab/drivers/third_party/ST/STM32L4xx_HAL_Driver/Src\stm32l4xx_hal_tim.c ****     {
1195:d:/LiteOS_Lab/drivers/third_party/ST/STM32L4xx_HAL_Driver/Src\stm32l4xx_hal_tim.c ****       /* Enable the TIM Capture/Compare 2 interrupt */
1196:d:/LiteOS_Lab/drivers/third_party/ST/STM32L4xx_HAL_Driver/Src\stm32l4xx_hal_tim.c ****       __HAL_TIM_ENABLE_IT(htim, TIM_IT_CC2);
 2673              		.loc 1 1196 7
 2674 005e 7B68     		ldr	r3, [r7, #4]
 2675 0060 1B68     		ldr	r3, [r3]
 2676 0062 DA68     		ldr	r2, [r3, #12]
ARM GAS  C:\Users\ADMINI~1\AppData\Local\Temp\cccB3BZw.s 			page 68


 2677 0064 7B68     		ldr	r3, [r7, #4]
 2678 0066 1B68     		ldr	r3, [r3]
 2679 0068 42F00402 		orr	r2, r2, #4
 2680 006c DA60     		str	r2, [r3, #12]
1197:d:/LiteOS_Lab/drivers/third_party/ST/STM32L4xx_HAL_Driver/Src\stm32l4xx_hal_tim.c ****     }
1198:d:/LiteOS_Lab/drivers/third_party/ST/STM32L4xx_HAL_Driver/Src\stm32l4xx_hal_tim.c ****     break;
 2681              		.loc 1 1198 5
 2682 006e 12E0     		b	.L158
 2683              	.L155:
1199:d:/LiteOS_Lab/drivers/third_party/ST/STM32L4xx_HAL_Driver/Src\stm32l4xx_hal_tim.c **** 
1200:d:/LiteOS_Lab/drivers/third_party/ST/STM32L4xx_HAL_Driver/Src\stm32l4xx_hal_tim.c ****     case TIM_CHANNEL_3:
