ARM GAS  C:\Users\ADMINI~1\AppData\Local\Temp\ccQX2vwO.s 			page 1


   1              		.cpu cortex-m4
   2              		.eabi_attribute 27, 1
   3              		.eabi_attribute 28, 1
   4              		.eabi_attribute 20, 1
   5              		.eabi_attribute 21, 1
   6              		.eabi_attribute 23, 3
   7              		.eabi_attribute 24, 1
   8              		.eabi_attribute 25, 1
   9              		.eabi_attribute 26, 1
  10              		.eabi_attribute 30, 6
  11              		.eabi_attribute 34, 1
  12              		.eabi_attribute 18, 4
  13              		.file	"stm32l4xx_hal_i2c_ex.c"
  14              		.text
  15              	.Ltext0:
  16              		.cfi_sections	.debug_frame
  17              		.section	.text.HAL_I2CEx_ConfigAnalogFilter,"ax",%progbits
  18              		.align	1
  19              		.global	HAL_I2CEx_ConfigAnalogFilter
  20              		.arch armv7e-m
  21              		.syntax unified
  22              		.thumb
  23              		.thumb_func
  24              		.fpu fpv4-sp-d16
  26              	HAL_I2CEx_ConfigAnalogFilter:
  27              	.LFB287:
  28              		.file 1 "d:/LiteOS_Lab/drivers/third_party/ST/STM32L4xx_HAL_Driver/Src/stm32l4xx_hal_i2c_ex.c"
   1:d:/LiteOS_Lab/drivers/third_party/ST/STM32L4xx_HAL_Driver/Src\stm32l4xx_hal_i2c_ex.c **** /**
   2:d:/LiteOS_Lab/drivers/third_party/ST/STM32L4xx_HAL_Driver/Src\stm32l4xx_hal_i2c_ex.c ****   ******************************************************************************
   3:d:/LiteOS_Lab/drivers/third_party/ST/STM32L4xx_HAL_Driver/Src\stm32l4xx_hal_i2c_ex.c ****   * @file    stm32l4xx_hal_i2c_ex.c
   4:d:/LiteOS_Lab/drivers/third_party/ST/STM32L4xx_HAL_Driver/Src\stm32l4xx_hal_i2c_ex.c ****   * @author  MCD Application Team
   5:d:/LiteOS_Lab/drivers/third_party/ST/STM32L4xx_HAL_Driver/Src\stm32l4xx_hal_i2c_ex.c ****   * @brief   I2C Extended HAL module driver.
   6:d:/LiteOS_Lab/drivers/third_party/ST/STM32L4xx_HAL_Driver/Src\stm32l4xx_hal_i2c_ex.c ****   *          This file provides firmware functions to manage the following
   7:d:/LiteOS_Lab/drivers/third_party/ST/STM32L4xx_HAL_Driver/Src\stm32l4xx_hal_i2c_ex.c ****   *          functionalities of I2C Extended peripheral:
   8:d:/LiteOS_Lab/drivers/third_party/ST/STM32L4xx_HAL_Driver/Src\stm32l4xx_hal_i2c_ex.c ****   *           + Extended features functions
   9:d:/LiteOS_Lab/drivers/third_party/ST/STM32L4xx_HAL_Driver/Src\stm32l4xx_hal_i2c_ex.c ****   *
  10:d:/LiteOS_Lab/drivers/third_party/ST/STM32L4xx_HAL_Driver/Src\stm32l4xx_hal_i2c_ex.c ****   @verbatim
  11:d:/LiteOS_Lab/drivers/third_party/ST/STM32L4xx_HAL_Driver/Src\stm32l4xx_hal_i2c_ex.c ****   ==============================================================================
  12:d:/LiteOS_Lab/drivers/third_party/ST/STM32L4xx_HAL_Driver/Src\stm32l4xx_hal_i2c_ex.c ****                ##### I2C peripheral Extended features  #####
  13:d:/LiteOS_Lab/drivers/third_party/ST/STM32L4xx_HAL_Driver/Src\stm32l4xx_hal_i2c_ex.c ****   ==============================================================================
  14:d:/LiteOS_Lab/drivers/third_party/ST/STM32L4xx_HAL_Driver/Src\stm32l4xx_hal_i2c_ex.c **** 
  15:d:/LiteOS_Lab/drivers/third_party/ST/STM32L4xx_HAL_Driver/Src\stm32l4xx_hal_i2c_ex.c ****   [..] Comparing to other previous devices, the I2C interface for STM32L4xx
  16:d:/LiteOS_Lab/drivers/third_party/ST/STM32L4xx_HAL_Driver/Src\stm32l4xx_hal_i2c_ex.c ****        devices contains the following additional features
  17:d:/LiteOS_Lab/drivers/third_party/ST/STM32L4xx_HAL_Driver/Src\stm32l4xx_hal_i2c_ex.c **** 
  18:d:/LiteOS_Lab/drivers/third_party/ST/STM32L4xx_HAL_Driver/Src\stm32l4xx_hal_i2c_ex.c ****        (+) Possibility to disable or enable Analog Noise Filter
  19:d:/LiteOS_Lab/drivers/third_party/ST/STM32L4xx_HAL_Driver/Src\stm32l4xx_hal_i2c_ex.c ****        (+) Use of a configured Digital Noise Filter
  20:d:/LiteOS_Lab/drivers/third_party/ST/STM32L4xx_HAL_Driver/Src\stm32l4xx_hal_i2c_ex.c ****        (+) Disable or enable wakeup from Stop mode(s)
  21:d:/LiteOS_Lab/drivers/third_party/ST/STM32L4xx_HAL_Driver/Src\stm32l4xx_hal_i2c_ex.c ****        (+) Disable or enable Fast Mode Plus
  22:d:/LiteOS_Lab/drivers/third_party/ST/STM32L4xx_HAL_Driver/Src\stm32l4xx_hal_i2c_ex.c **** 
  23:d:/LiteOS_Lab/drivers/third_party/ST/STM32L4xx_HAL_Driver/Src\stm32l4xx_hal_i2c_ex.c ****                      ##### How to use this driver #####
  24:d:/LiteOS_Lab/drivers/third_party/ST/STM32L4xx_HAL_Driver/Src\stm32l4xx_hal_i2c_ex.c ****   ==============================================================================
  25:d:/LiteOS_Lab/drivers/third_party/ST/STM32L4xx_HAL_Driver/Src\stm32l4xx_hal_i2c_ex.c ****   [..] This driver provides functions to configure Noise Filter and Wake Up Feature
  26:d:/LiteOS_Lab/drivers/third_party/ST/STM32L4xx_HAL_Driver/Src\stm32l4xx_hal_i2c_ex.c ****     (#) Configure I2C Analog noise filter using the function HAL_I2CEx_ConfigAnalogFilter()
  27:d:/LiteOS_Lab/drivers/third_party/ST/STM32L4xx_HAL_Driver/Src\stm32l4xx_hal_i2c_ex.c ****     (#) Configure I2C Digital noise filter using the function HAL_I2CEx_ConfigDigitalFilter()
  28:d:/LiteOS_Lab/drivers/third_party/ST/STM32L4xx_HAL_Driver/Src\stm32l4xx_hal_i2c_ex.c ****     (#) Configure the enable or disable of I2C Wake Up Mode using the functions :
  29:d:/LiteOS_Lab/drivers/third_party/ST/STM32L4xx_HAL_Driver/Src\stm32l4xx_hal_i2c_ex.c ****           (++) HAL_I2CEx_EnableWakeUp()
  30:d:/LiteOS_Lab/drivers/third_party/ST/STM32L4xx_HAL_Driver/Src\stm32l4xx_hal_i2c_ex.c ****           (++) HAL_I2CEx_DisableWakeUp()
ARM GAS  C:\Users\ADMINI~1\AppData\Local\Temp\ccQX2vwO.s 			page 2


  31:d:/LiteOS_Lab/drivers/third_party/ST/STM32L4xx_HAL_Driver/Src\stm32l4xx_hal_i2c_ex.c ****     (#) Configure the enable or disable of fast mode plus driving capability using the functions :
  32:d:/LiteOS_Lab/drivers/third_party/ST/STM32L4xx_HAL_Driver/Src\stm32l4xx_hal_i2c_ex.c ****           (++) HAL_I2CEx_EnableFastModePlus()
  33:d:/LiteOS_Lab/drivers/third_party/ST/STM32L4xx_HAL_Driver/Src\stm32l4xx_hal_i2c_ex.c ****           (++) HAL_I2CEx_DisableFastModePlus()
  34:d:/LiteOS_Lab/drivers/third_party/ST/STM32L4xx_HAL_Driver/Src\stm32l4xx_hal_i2c_ex.c ****   @endverbatim
  35:d:/LiteOS_Lab/drivers/third_party/ST/STM32L4xx_HAL_Driver/Src\stm32l4xx_hal_i2c_ex.c ****   ******************************************************************************
  36:d:/LiteOS_Lab/drivers/third_party/ST/STM32L4xx_HAL_Driver/Src\stm32l4xx_hal_i2c_ex.c ****   * @attention
  37:d:/LiteOS_Lab/drivers/third_party/ST/STM32L4xx_HAL_Driver/Src\stm32l4xx_hal_i2c_ex.c ****   *
  38:d:/LiteOS_Lab/drivers/third_party/ST/STM32L4xx_HAL_Driver/Src\stm32l4xx_hal_i2c_ex.c ****   * <h2><center>&copy; COPYRIGHT(c) 2017 STMicroelectronics</center></h2>
  39:d:/LiteOS_Lab/drivers/third_party/ST/STM32L4xx_HAL_Driver/Src\stm32l4xx_hal_i2c_ex.c ****   *
  40:d:/LiteOS_Lab/drivers/third_party/ST/STM32L4xx_HAL_Driver/Src\stm32l4xx_hal_i2c_ex.c ****   * Redistribution and use in source and binary forms, with or without modification,
  41:d:/LiteOS_Lab/drivers/third_party/ST/STM32L4xx_HAL_Driver/Src\stm32l4xx_hal_i2c_ex.c ****   * are permitted provided that the following conditions are met:
  42:d:/LiteOS_Lab/drivers/third_party/ST/STM32L4xx_HAL_Driver/Src\stm32l4xx_hal_i2c_ex.c ****   *   1. Redistributions of source code must retain the above copyright notice,
  43:d:/LiteOS_Lab/drivers/third_party/ST/STM32L4xx_HAL_Driver/Src\stm32l4xx_hal_i2c_ex.c ****   *      this list of conditions and the following disclaimer.
  44:d:/LiteOS_Lab/drivers/third_party/ST/STM32L4xx_HAL_Driver/Src\stm32l4xx_hal_i2c_ex.c ****   *   2. Redistributions in binary form must reproduce the above copyright notice,
  45:d:/LiteOS_Lab/drivers/third_party/ST/STM32L4xx_HAL_Driver/Src\stm32l4xx_hal_i2c_ex.c ****   *      this list of conditions and the following disclaimer in the documentation
  46:d:/LiteOS_Lab/drivers/third_party/ST/STM32L4xx_HAL_Driver/Src\stm32l4xx_hal_i2c_ex.c ****   *      and/or other materials provided with the distribution.
  47:d:/LiteOS_Lab/drivers/third_party/ST/STM32L4xx_HAL_Driver/Src\stm32l4xx_hal_i2c_ex.c ****   *   3. Neither the name of STMicroelectronics nor the names of its contributors
  48:d:/LiteOS_Lab/drivers/third_party/ST/STM32L4xx_HAL_Driver/Src\stm32l4xx_hal_i2c_ex.c ****   *      may be used to endorse or promote products derived from this software
  49:d:/LiteOS_Lab/drivers/third_party/ST/STM32L4xx_HAL_Driver/Src\stm32l4xx_hal_i2c_ex.c ****   *      without specific prior written permission.
  50:d:/LiteOS_Lab/drivers/third_party/ST/STM32L4xx_HAL_Driver/Src\stm32l4xx_hal_i2c_ex.c ****   *
  51:d:/LiteOS_Lab/drivers/third_party/ST/STM32L4xx_HAL_Driver/Src\stm32l4xx_hal_i2c_ex.c ****   * THIS SOFTWARE IS PROVIDED BY THE COPYRIGHT HOLDERS AND CONTRIBUTORS "AS IS"
  52:d:/LiteOS_Lab/drivers/third_party/ST/STM32L4xx_HAL_Driver/Src\stm32l4xx_hal_i2c_ex.c ****   * AND ANY EXPRESS OR IMPLIED WARRANTIES, INCLUDING, BUT NOT LIMITED TO, THE
  53:d:/LiteOS_Lab/drivers/third_party/ST/STM32L4xx_HAL_Driver/Src\stm32l4xx_hal_i2c_ex.c ****   * IMPLIED WARRANTIES OF MERCHANTABILITY AND FITNESS FOR A PARTICULAR PURPOSE ARE
  54:d:/LiteOS_Lab/drivers/third_party/ST/STM32L4xx_HAL_Driver/Src\stm32l4xx_hal_i2c_ex.c ****   * DISCLAIMED. IN NO EVENT SHALL THE COPYRIGHT HOLDER OR CONTRIBUTORS BE LIABLE
  55:d:/LiteOS_Lab/drivers/third_party/ST/STM32L4xx_HAL_Driver/Src\stm32l4xx_hal_i2c_ex.c ****   * FOR ANY DIRECT, INDIRECT, INCIDENTAL, SPECIAL, EXEMPLARY, OR CONSEQUENTIAL
  56:d:/LiteOS_Lab/drivers/third_party/ST/STM32L4xx_HAL_Driver/Src\stm32l4xx_hal_i2c_ex.c ****   * DAMAGES (INCLUDING, BUT NOT LIMITED TO, PROCUREMENT OF SUBSTITUTE GOODS OR
  57:d:/LiteOS_Lab/drivers/third_party/ST/STM32L4xx_HAL_Driver/Src\stm32l4xx_hal_i2c_ex.c ****   * SERVICES; LOSS OF USE, DATA, OR PROFITS; OR BUSINESS INTERRUPTION) HOWEVER
  58:d:/LiteOS_Lab/drivers/third_party/ST/STM32L4xx_HAL_Driver/Src\stm32l4xx_hal_i2c_ex.c ****   * CAUSED AND ON ANY THEORY OF LIABILITY, WHETHER IN CONTRACT, STRICT LIABILITY,
  59:d:/LiteOS_Lab/drivers/third_party/ST/STM32L4xx_HAL_Driver/Src\stm32l4xx_hal_i2c_ex.c ****   * OR TORT (INCLUDING NEGLIGENCE OR OTHERWISE) ARISING IN ANY WAY OUT OF THE USE
  60:d:/LiteOS_Lab/drivers/third_party/ST/STM32L4xx_HAL_Driver/Src\stm32l4xx_hal_i2c_ex.c ****   * OF THIS SOFTWARE, EVEN IF ADVISED OF THE POSSIBILITY OF SUCH DAMAGE.
  61:d:/LiteOS_Lab/drivers/third_party/ST/STM32L4xx_HAL_Driver/Src\stm32l4xx_hal_i2c_ex.c ****   *
  62:d:/LiteOS_Lab/drivers/third_party/ST/STM32L4xx_HAL_Driver/Src\stm32l4xx_hal_i2c_ex.c ****   ******************************************************************************
  63:d:/LiteOS_Lab/drivers/third_party/ST/STM32L4xx_HAL_Driver/Src\stm32l4xx_hal_i2c_ex.c ****   */
  64:d:/LiteOS_Lab/drivers/third_party/ST/STM32L4xx_HAL_Driver/Src\stm32l4xx_hal_i2c_ex.c **** 
  65:d:/LiteOS_Lab/drivers/third_party/ST/STM32L4xx_HAL_Driver/Src\stm32l4xx_hal_i2c_ex.c **** /* Includes ------------------------------------------------------------------*/
  66:d:/LiteOS_Lab/drivers/third_party/ST/STM32L4xx_HAL_Driver/Src\stm32l4xx_hal_i2c_ex.c **** #include "stm32l4xx_hal.h"
  67:d:/LiteOS_Lab/drivers/third_party/ST/STM32L4xx_HAL_Driver/Src\stm32l4xx_hal_i2c_ex.c **** 
  68:d:/LiteOS_Lab/drivers/third_party/ST/STM32L4xx_HAL_Driver/Src\stm32l4xx_hal_i2c_ex.c **** /** @addtogroup STM32L4xx_HAL_Driver
  69:d:/LiteOS_Lab/drivers/third_party/ST/STM32L4xx_HAL_Driver/Src\stm32l4xx_hal_i2c_ex.c ****   * @{
  70:d:/LiteOS_Lab/drivers/third_party/ST/STM32L4xx_HAL_Driver/Src\stm32l4xx_hal_i2c_ex.c ****   */
  71:d:/LiteOS_Lab/drivers/third_party/ST/STM32L4xx_HAL_Driver/Src\stm32l4xx_hal_i2c_ex.c **** 
  72:d:/LiteOS_Lab/drivers/third_party/ST/STM32L4xx_HAL_Driver/Src\stm32l4xx_hal_i2c_ex.c **** /** @defgroup I2CEx I2CEx
  73:d:/LiteOS_Lab/drivers/third_party/ST/STM32L4xx_HAL_Driver/Src\stm32l4xx_hal_i2c_ex.c ****   * @brief I2C Extended HAL module driver
  74:d:/LiteOS_Lab/drivers/third_party/ST/STM32L4xx_HAL_Driver/Src\stm32l4xx_hal_i2c_ex.c ****   * @{
  75:d:/LiteOS_Lab/drivers/third_party/ST/STM32L4xx_HAL_Driver/Src\stm32l4xx_hal_i2c_ex.c ****   */
  76:d:/LiteOS_Lab/drivers/third_party/ST/STM32L4xx_HAL_Driver/Src\stm32l4xx_hal_i2c_ex.c **** 
  77:d:/LiteOS_Lab/drivers/third_party/ST/STM32L4xx_HAL_Driver/Src\stm32l4xx_hal_i2c_ex.c **** #ifdef HAL_I2C_MODULE_ENABLED
  78:d:/LiteOS_Lab/drivers/third_party/ST/STM32L4xx_HAL_Driver/Src\stm32l4xx_hal_i2c_ex.c **** 
  79:d:/LiteOS_Lab/drivers/third_party/ST/STM32L4xx_HAL_Driver/Src\stm32l4xx_hal_i2c_ex.c **** /* Private typedef -----------------------------------------------------------*/
  80:d:/LiteOS_Lab/drivers/third_party/ST/STM32L4xx_HAL_Driver/Src\stm32l4xx_hal_i2c_ex.c **** /* Private define ------------------------------------------------------------*/
  81:d:/LiteOS_Lab/drivers/third_party/ST/STM32L4xx_HAL_Driver/Src\stm32l4xx_hal_i2c_ex.c **** /* Private macro -------------------------------------------------------------*/
  82:d:/LiteOS_Lab/drivers/third_party/ST/STM32L4xx_HAL_Driver/Src\stm32l4xx_hal_i2c_ex.c **** /* Private variables ---------------------------------------------------------*/
  83:d:/LiteOS_Lab/drivers/third_party/ST/STM32L4xx_HAL_Driver/Src\stm32l4xx_hal_i2c_ex.c **** /* Private function prototypes -----------------------------------------------*/
  84:d:/LiteOS_Lab/drivers/third_party/ST/STM32L4xx_HAL_Driver/Src\stm32l4xx_hal_i2c_ex.c **** /* Private functions ---------------------------------------------------------*/
  85:d:/LiteOS_Lab/drivers/third_party/ST/STM32L4xx_HAL_Driver/Src\stm32l4xx_hal_i2c_ex.c **** 
  86:d:/LiteOS_Lab/drivers/third_party/ST/STM32L4xx_HAL_Driver/Src\stm32l4xx_hal_i2c_ex.c **** /** @defgroup I2CEx_Exported_Functions I2C Extended Exported Functions
  87:d:/LiteOS_Lab/drivers/third_party/ST/STM32L4xx_HAL_Driver/Src\stm32l4xx_hal_i2c_ex.c ****   * @{
ARM GAS  C:\Users\ADMINI~1\AppData\Local\Temp\ccQX2vwO.s 			page 3


  88:d:/LiteOS_Lab/drivers/third_party/ST/STM32L4xx_HAL_Driver/Src\stm32l4xx_hal_i2c_ex.c ****   */
  89:d:/LiteOS_Lab/drivers/third_party/ST/STM32L4xx_HAL_Driver/Src\stm32l4xx_hal_i2c_ex.c **** 
  90:d:/LiteOS_Lab/drivers/third_party/ST/STM32L4xx_HAL_Driver/Src\stm32l4xx_hal_i2c_ex.c **** /** @defgroup I2CEx_Exported_Functions_Group1 Extended features functions
  91:d:/LiteOS_Lab/drivers/third_party/ST/STM32L4xx_HAL_Driver/Src\stm32l4xx_hal_i2c_ex.c ****   * @brief    Extended features functions
  92:d:/LiteOS_Lab/drivers/third_party/ST/STM32L4xx_HAL_Driver/Src\stm32l4xx_hal_i2c_ex.c ****  *
  93:d:/LiteOS_Lab/drivers/third_party/ST/STM32L4xx_HAL_Driver/Src\stm32l4xx_hal_i2c_ex.c **** @verbatim
  94:d:/LiteOS_Lab/drivers/third_party/ST/STM32L4xx_HAL_Driver/Src\stm32l4xx_hal_i2c_ex.c ****  ===============================================================================
  95:d:/LiteOS_Lab/drivers/third_party/ST/STM32L4xx_HAL_Driver/Src\stm32l4xx_hal_i2c_ex.c ****                       ##### Extended features functions #####
  96:d:/LiteOS_Lab/drivers/third_party/ST/STM32L4xx_HAL_Driver/Src\stm32l4xx_hal_i2c_ex.c ****  ===============================================================================
  97:d:/LiteOS_Lab/drivers/third_party/ST/STM32L4xx_HAL_Driver/Src\stm32l4xx_hal_i2c_ex.c ****     [..] This section provides functions allowing to:
  98:d:/LiteOS_Lab/drivers/third_party/ST/STM32L4xx_HAL_Driver/Src\stm32l4xx_hal_i2c_ex.c ****       (+) Configure Noise Filters
  99:d:/LiteOS_Lab/drivers/third_party/ST/STM32L4xx_HAL_Driver/Src\stm32l4xx_hal_i2c_ex.c ****       (+) Configure Wake Up Feature
 100:d:/LiteOS_Lab/drivers/third_party/ST/STM32L4xx_HAL_Driver/Src\stm32l4xx_hal_i2c_ex.c ****       (+) Configure Fast Mode Plus
 101:d:/LiteOS_Lab/drivers/third_party/ST/STM32L4xx_HAL_Driver/Src\stm32l4xx_hal_i2c_ex.c **** 
 102:d:/LiteOS_Lab/drivers/third_party/ST/STM32L4xx_HAL_Driver/Src\stm32l4xx_hal_i2c_ex.c **** @endverbatim
 103:d:/LiteOS_Lab/drivers/third_party/ST/STM32L4xx_HAL_Driver/Src\stm32l4xx_hal_i2c_ex.c ****   * @{
 104:d:/LiteOS_Lab/drivers/third_party/ST/STM32L4xx_HAL_Driver/Src\stm32l4xx_hal_i2c_ex.c ****   */
 105:d:/LiteOS_Lab/drivers/third_party/ST/STM32L4xx_HAL_Driver/Src\stm32l4xx_hal_i2c_ex.c **** 
 106:d:/LiteOS_Lab/drivers/third_party/ST/STM32L4xx_HAL_Driver/Src\stm32l4xx_hal_i2c_ex.c **** /**
 107:d:/LiteOS_Lab/drivers/third_party/ST/STM32L4xx_HAL_Driver/Src\stm32l4xx_hal_i2c_ex.c ****   * @brief  Configure I2C Analog noise filter.
 108:d:/LiteOS_Lab/drivers/third_party/ST/STM32L4xx_HAL_Driver/Src\stm32l4xx_hal_i2c_ex.c ****   * @param  hi2c Pointer to a I2C_HandleTypeDef structure that contains
 109:d:/LiteOS_Lab/drivers/third_party/ST/STM32L4xx_HAL_Driver/Src\stm32l4xx_hal_i2c_ex.c ****   *                the configuration information for the specified I2Cx peripheral.
 110:d:/LiteOS_Lab/drivers/third_party/ST/STM32L4xx_HAL_Driver/Src\stm32l4xx_hal_i2c_ex.c ****   * @param  AnalogFilter New state of the Analog filter.
 111:d:/LiteOS_Lab/drivers/third_party/ST/STM32L4xx_HAL_Driver/Src\stm32l4xx_hal_i2c_ex.c ****   * @retval HAL status
 112:d:/LiteOS_Lab/drivers/third_party/ST/STM32L4xx_HAL_Driver/Src\stm32l4xx_hal_i2c_ex.c ****   */
 113:d:/LiteOS_Lab/drivers/third_party/ST/STM32L4xx_HAL_Driver/Src\stm32l4xx_hal_i2c_ex.c **** HAL_StatusTypeDef HAL_I2CEx_ConfigAnalogFilter(I2C_HandleTypeDef *hi2c, uint32_t AnalogFilter)
 114:d:/LiteOS_Lab/drivers/third_party/ST/STM32L4xx_HAL_Driver/Src\stm32l4xx_hal_i2c_ex.c **** {
  29              		.loc 1 114 1
  30              		.cfi_startproc
  31              		@ args = 0, pretend = 0, frame = 8
  32              		@ frame_needed = 1, uses_anonymous_args = 0
  33              		@ link register save eliminated.
  34 0000 80B4     		push	{r7}
  35              	.LCFI0:
  36              		.cfi_def_cfa_offset 4
  37              		.cfi_offset 7, -4
  38 0002 83B0     		sub	sp, sp, #12
  39              	.LCFI1:
  40              		.cfi_def_cfa_offset 16
  41 0004 00AF     		add	r7, sp, #0
  42              	.LCFI2:
  43              		.cfi_def_cfa_register 7
  44 0006 7860     		str	r0, [r7, #4]
  45 0008 3960     		str	r1, [r7]
 115:d:/LiteOS_Lab/drivers/third_party/ST/STM32L4xx_HAL_Driver/Src\stm32l4xx_hal_i2c_ex.c ****   /* Check the parameters */
 116:d:/LiteOS_Lab/drivers/third_party/ST/STM32L4xx_HAL_Driver/Src\stm32l4xx_hal_i2c_ex.c ****   assert_param(IS_I2C_ALL_INSTANCE(hi2c->Instance));
 117:d:/LiteOS_Lab/drivers/third_party/ST/STM32L4xx_HAL_Driver/Src\stm32l4xx_hal_i2c_ex.c ****   assert_param(IS_I2C_ANALOG_FILTER(AnalogFilter));
 118:d:/LiteOS_Lab/drivers/third_party/ST/STM32L4xx_HAL_Driver/Src\stm32l4xx_hal_i2c_ex.c **** 
 119:d:/LiteOS_Lab/drivers/third_party/ST/STM32L4xx_HAL_Driver/Src\stm32l4xx_hal_i2c_ex.c ****   if (hi2c->State == HAL_I2C_STATE_READY)
  46              		.loc 1 119 11
  47 000a 7B68     		ldr	r3, [r7, #4]
  48 000c 93F84130 		ldrb	r3, [r3, #65]
  49 0010 DBB2     		uxtb	r3, r3
  50              		.loc 1 119 6
  51 0012 202B     		cmp	r3, #32
  52 0014 38D1     		bne	.L2
 120:d:/LiteOS_Lab/drivers/third_party/ST/STM32L4xx_HAL_Driver/Src\stm32l4xx_hal_i2c_ex.c ****   {
ARM GAS  C:\Users\ADMINI~1\AppData\Local\Temp\ccQX2vwO.s 			page 4


 121:d:/LiteOS_Lab/drivers/third_party/ST/STM32L4xx_HAL_Driver/Src\stm32l4xx_hal_i2c_ex.c ****     /* Process Locked */
 122:d:/LiteOS_Lab/drivers/third_party/ST/STM32L4xx_HAL_Driver/Src\stm32l4xx_hal_i2c_ex.c ****     __HAL_LOCK(hi2c);
  53              		.loc 1 122 5
  54 0016 7B68     		ldr	r3, [r7, #4]
  55 0018 93F84030 		ldrb	r3, [r3, #64]	@ zero_extendqisi2
  56 001c 012B     		cmp	r3, #1
  57 001e 01D1     		bne	.L3
  58              		.loc 1 122 5 is_stmt 0 discriminator 1
  59 0020 0223     		movs	r3, #2
  60 0022 32E0     		b	.L4
  61              	.L3:
  62              		.loc 1 122 5 discriminator 2
  63 0024 7B68     		ldr	r3, [r7, #4]
  64 0026 0122     		movs	r2, #1
  65 0028 83F84020 		strb	r2, [r3, #64]
 123:d:/LiteOS_Lab/drivers/third_party/ST/STM32L4xx_HAL_Driver/Src\stm32l4xx_hal_i2c_ex.c **** 
 124:d:/LiteOS_Lab/drivers/third_party/ST/STM32L4xx_HAL_Driver/Src\stm32l4xx_hal_i2c_ex.c ****     hi2c->State = HAL_I2C_STATE_BUSY;
  66              		.loc 1 124 17 is_stmt 1 discriminator 2
  67 002c 7B68     		ldr	r3, [r7, #4]
  68 002e 2422     		movs	r2, #36
  69 0030 83F84120 		strb	r2, [r3, #65]
 125:d:/LiteOS_Lab/drivers/third_party/ST/STM32L4xx_HAL_Driver/Src\stm32l4xx_hal_i2c_ex.c **** 
 126:d:/LiteOS_Lab/drivers/third_party/ST/STM32L4xx_HAL_Driver/Src\stm32l4xx_hal_i2c_ex.c ****     /* Disable the selected I2C peripheral */
 127:d:/LiteOS_Lab/drivers/third_party/ST/STM32L4xx_HAL_Driver/Src\stm32l4xx_hal_i2c_ex.c ****     __HAL_I2C_DISABLE(hi2c);
  70              		.loc 1 127 5 discriminator 2
  71 0034 7B68     		ldr	r3, [r7, #4]
  72 0036 1B68     		ldr	r3, [r3]
  73 0038 1A68     		ldr	r2, [r3]
  74 003a 7B68     		ldr	r3, [r7, #4]
  75 003c 1B68     		ldr	r3, [r3]
  76 003e 22F00102 		bic	r2, r2, #1
  77 0042 1A60     		str	r2, [r3]
 128:d:/LiteOS_Lab/drivers/third_party/ST/STM32L4xx_HAL_Driver/Src\stm32l4xx_hal_i2c_ex.c **** 
 129:d:/LiteOS_Lab/drivers/third_party/ST/STM32L4xx_HAL_Driver/Src\stm32l4xx_hal_i2c_ex.c ****     /* Reset I2Cx ANOFF bit */
 130:d:/LiteOS_Lab/drivers/third_party/ST/STM32L4xx_HAL_Driver/Src\stm32l4xx_hal_i2c_ex.c ****     hi2c->Instance->CR1 &= ~(I2C_CR1_ANFOFF);
  78              		.loc 1 130 9 discriminator 2
  79 0044 7B68     		ldr	r3, [r7, #4]
  80 0046 1B68     		ldr	r3, [r3]
  81              		.loc 1 130 25 discriminator 2
  82 0048 1A68     		ldr	r2, [r3]
  83              		.loc 1 130 9 discriminator 2
  84 004a 7B68     		ldr	r3, [r7, #4]
  85 004c 1B68     		ldr	r3, [r3]
  86              		.loc 1 130 25 discriminator 2
  87 004e 22F48052 		bic	r2, r2, #4096
  88 0052 1A60     		str	r2, [r3]
 131:d:/LiteOS_Lab/drivers/third_party/ST/STM32L4xx_HAL_Driver/Src\stm32l4xx_hal_i2c_ex.c **** 
 132:d:/LiteOS_Lab/drivers/third_party/ST/STM32L4xx_HAL_Driver/Src\stm32l4xx_hal_i2c_ex.c ****     /* Set analog filter bit*/
 133:d:/LiteOS_Lab/drivers/third_party/ST/STM32L4xx_HAL_Driver/Src\stm32l4xx_hal_i2c_ex.c ****     hi2c->Instance->CR1 |= AnalogFilter;
  89              		.loc 1 133 9 discriminator 2
  90 0054 7B68     		ldr	r3, [r7, #4]
  91 0056 1B68     		ldr	r3, [r3]
  92              		.loc 1 133 25 discriminator 2
  93 0058 1968     		ldr	r1, [r3]
  94              		.loc 1 133 9 discriminator 2
  95 005a 7B68     		ldr	r3, [r7, #4]
  96 005c 1B68     		ldr	r3, [r3]
ARM GAS  C:\Users\ADMINI~1\AppData\Local\Temp\ccQX2vwO.s 			page 5


  97              		.loc 1 133 25 discriminator 2
  98 005e 3A68     		ldr	r2, [r7]
  99 0060 0A43     		orrs	r2, r2, r1
 100 0062 1A60     		str	r2, [r3]
 134:d:/LiteOS_Lab/drivers/third_party/ST/STM32L4xx_HAL_Driver/Src\stm32l4xx_hal_i2c_ex.c **** 
 135:d:/LiteOS_Lab/drivers/third_party/ST/STM32L4xx_HAL_Driver/Src\stm32l4xx_hal_i2c_ex.c ****     __HAL_I2C_ENABLE(hi2c);
 101              		.loc 1 135 5 discriminator 2
 102 0064 7B68     		ldr	r3, [r7, #4]
 103 0066 1B68     		ldr	r3, [r3]
 104 0068 1A68     		ldr	r2, [r3]
 105 006a 7B68     		ldr	r3, [r7, #4]
 106 006c 1B68     		ldr	r3, [r3]
 107 006e 42F00102 		orr	r2, r2, #1
 108 0072 1A60     		str	r2, [r3]
 136:d:/LiteOS_Lab/drivers/third_party/ST/STM32L4xx_HAL_Driver/Src\stm32l4xx_hal_i2c_ex.c **** 
 137:d:/LiteOS_Lab/drivers/third_party/ST/STM32L4xx_HAL_Driver/Src\stm32l4xx_hal_i2c_ex.c ****     hi2c->State = HAL_I2C_STATE_READY;
 109              		.loc 1 137 17 discriminator 2
 110 0074 7B68     		ldr	r3, [r7, #4]
 111 0076 2022     		movs	r2, #32
 112 0078 83F84120 		strb	r2, [r3, #65]
 138:d:/LiteOS_Lab/drivers/third_party/ST/STM32L4xx_HAL_Driver/Src\stm32l4xx_hal_i2c_ex.c **** 
 139:d:/LiteOS_Lab/drivers/third_party/ST/STM32L4xx_HAL_Driver/Src\stm32l4xx_hal_i2c_ex.c ****     /* Process Unlocked */
 140:d:/LiteOS_Lab/drivers/third_party/ST/STM32L4xx_HAL_Driver/Src\stm32l4xx_hal_i2c_ex.c ****     __HAL_UNLOCK(hi2c);
 113              		.loc 1 140 5 discriminator 2
 114 007c 7B68     		ldr	r3, [r7, #4]
 115 007e 0022     		movs	r2, #0
 116 0080 83F84020 		strb	r2, [r3, #64]
 141:d:/LiteOS_Lab/drivers/third_party/ST/STM32L4xx_HAL_Driver/Src\stm32l4xx_hal_i2c_ex.c **** 
 142:d:/LiteOS_Lab/drivers/third_party/ST/STM32L4xx_HAL_Driver/Src\stm32l4xx_hal_i2c_ex.c ****     return HAL_OK;
 117              		.loc 1 142 12 discriminator 2
 118 0084 0023     		movs	r3, #0
 119 0086 00E0     		b	.L4
 120              	.L2:
 143:d:/LiteOS_Lab/drivers/third_party/ST/STM32L4xx_HAL_Driver/Src\stm32l4xx_hal_i2c_ex.c ****   }
 144:d:/LiteOS_Lab/drivers/third_party/ST/STM32L4xx_HAL_Driver/Src\stm32l4xx_hal_i2c_ex.c ****   else
 145:d:/LiteOS_Lab/drivers/third_party/ST/STM32L4xx_HAL_Driver/Src\stm32l4xx_hal_i2c_ex.c ****   {
 146:d:/LiteOS_Lab/drivers/third_party/ST/STM32L4xx_HAL_Driver/Src\stm32l4xx_hal_i2c_ex.c ****     return HAL_BUSY;
 121              		.loc 1 146 12
 122 0088 0223     		movs	r3, #2
 123              	.L4:
 147:d:/LiteOS_Lab/drivers/third_party/ST/STM32L4xx_HAL_Driver/Src\stm32l4xx_hal_i2c_ex.c ****   }
 148:d:/LiteOS_Lab/drivers/third_party/ST/STM32L4xx_HAL_Driver/Src\stm32l4xx_hal_i2c_ex.c **** }
 124              		.loc 1 148 1
 125 008a 1846     		mov	r0, r3
 126 008c 0C37     		adds	r7, r7, #12
 127              	.LCFI3:
 128              		.cfi_def_cfa_offset 4
 129 008e BD46     		mov	sp, r7
 130              	.LCFI4:
 131              		.cfi_def_cfa_register 13
 132              		@ sp needed
 133 0090 5DF8047B 		ldr	r7, [sp], #4
 134              	.LCFI5:
 135              		.cfi_restore 7
 136              		.cfi_def_cfa_offset 0
 137 0094 7047     		bx	lr
 138              		.cfi_endproc
ARM GAS  C:\Users\ADMINI~1\AppData\Local\Temp\ccQX2vwO.s 			page 6


 139              	.LFE287:
 141              		.section	.text.HAL_I2CEx_ConfigDigitalFilter,"ax",%progbits
 142              		.align	1
 143              		.global	HAL_I2CEx_ConfigDigitalFilter
 144              		.syntax unified
 145              		.thumb
 146              		.thumb_func
 147              		.fpu fpv4-sp-d16
 149              	HAL_I2CEx_ConfigDigitalFilter:
 150              	.LFB288:
 149:d:/LiteOS_Lab/drivers/third_party/ST/STM32L4xx_HAL_Driver/Src\stm32l4xx_hal_i2c_ex.c **** 
 150:d:/LiteOS_Lab/drivers/third_party/ST/STM32L4xx_HAL_Driver/Src\stm32l4xx_hal_i2c_ex.c **** /**
 151:d:/LiteOS_Lab/drivers/third_party/ST/STM32L4xx_HAL_Driver/Src\stm32l4xx_hal_i2c_ex.c ****   * @brief  Configure I2C Digital noise filter.
 152:d:/LiteOS_Lab/drivers/third_party/ST/STM32L4xx_HAL_Driver/Src\stm32l4xx_hal_i2c_ex.c ****   * @param  hi2c Pointer to a I2C_HandleTypeDef structure that contains
 153:d:/LiteOS_Lab/drivers/third_party/ST/STM32L4xx_HAL_Driver/Src\stm32l4xx_hal_i2c_ex.c ****   *                the configuration information for the specified I2Cx peripheral.
 154:d:/LiteOS_Lab/drivers/third_party/ST/STM32L4xx_HAL_Driver/Src\stm32l4xx_hal_i2c_ex.c ****   * @param  DigitalFilter Coefficient of digital noise filter between Min_Data=0x00 and Max_Data=0x
 155:d:/LiteOS_Lab/drivers/third_party/ST/STM32L4xx_HAL_Driver/Src\stm32l4xx_hal_i2c_ex.c ****   * @retval HAL status
 156:d:/LiteOS_Lab/drivers/third_party/ST/STM32L4xx_HAL_Driver/Src\stm32l4xx_hal_i2c_ex.c ****   */
 157:d:/LiteOS_Lab/drivers/third_party/ST/STM32L4xx_HAL_Driver/Src\stm32l4xx_hal_i2c_ex.c **** HAL_StatusTypeDef HAL_I2CEx_ConfigDigitalFilter(I2C_HandleTypeDef *hi2c, uint32_t DigitalFilter)
 158:d:/LiteOS_Lab/drivers/third_party/ST/STM32L4xx_HAL_Driver/Src\stm32l4xx_hal_i2c_ex.c **** {
 151              		.loc 1 158 1
 152              		.cfi_startproc
 153              		@ args = 0, pretend = 0, frame = 16
 154              		@ frame_needed = 1, uses_anonymous_args = 0
 155              		@ link register save eliminated.
 156 0000 80B4     		push	{r7}
 157              	.LCFI6:
 158              		.cfi_def_cfa_offset 4
 159              		.cfi_offset 7, -4
 160 0002 85B0     		sub	sp, sp, #20
 161              	.LCFI7:
 162              		.cfi_def_cfa_offset 24
 163 0004 00AF     		add	r7, sp, #0
 164              	.LCFI8:
 165              		.cfi_def_cfa_register 7
 166 0006 7860     		str	r0, [r7, #4]
 167 0008 3960     		str	r1, [r7]
 159:d:/LiteOS_Lab/drivers/third_party/ST/STM32L4xx_HAL_Driver/Src\stm32l4xx_hal_i2c_ex.c ****   uint32_t tmpreg = 0U;
 168              		.loc 1 159 12
 169 000a 0023     		movs	r3, #0
 170 000c FB60     		str	r3, [r7, #12]
 160:d:/LiteOS_Lab/drivers/third_party/ST/STM32L4xx_HAL_Driver/Src\stm32l4xx_hal_i2c_ex.c **** 
 161:d:/LiteOS_Lab/drivers/third_party/ST/STM32L4xx_HAL_Driver/Src\stm32l4xx_hal_i2c_ex.c ****   /* Check the parameters */
 162:d:/LiteOS_Lab/drivers/third_party/ST/STM32L4xx_HAL_Driver/Src\stm32l4xx_hal_i2c_ex.c ****   assert_param(IS_I2C_ALL_INSTANCE(hi2c->Instance));
 163:d:/LiteOS_Lab/drivers/third_party/ST/STM32L4xx_HAL_Driver/Src\stm32l4xx_hal_i2c_ex.c ****   assert_param(IS_I2C_DIGITAL_FILTER(DigitalFilter));
 164:d:/LiteOS_Lab/drivers/third_party/ST/STM32L4xx_HAL_Driver/Src\stm32l4xx_hal_i2c_ex.c **** 
 165:d:/LiteOS_Lab/drivers/third_party/ST/STM32L4xx_HAL_Driver/Src\stm32l4xx_hal_i2c_ex.c ****   if (hi2c->State == HAL_I2C_STATE_READY)
 171              		.loc 1 165 11
 172 000e 7B68     		ldr	r3, [r7, #4]
 173 0010 93F84130 		ldrb	r3, [r3, #65]
 174 0014 DBB2     		uxtb	r3, r3
 175              		.loc 1 165 6
 176 0016 202B     		cmp	r3, #32
 177 0018 39D1     		bne	.L6
 166:d:/LiteOS_Lab/drivers/third_party/ST/STM32L4xx_HAL_Driver/Src\stm32l4xx_hal_i2c_ex.c ****   {
 167:d:/LiteOS_Lab/drivers/third_party/ST/STM32L4xx_HAL_Driver/Src\stm32l4xx_hal_i2c_ex.c ****     /* Process Locked */
 168:d:/LiteOS_Lab/drivers/third_party/ST/STM32L4xx_HAL_Driver/Src\stm32l4xx_hal_i2c_ex.c ****     __HAL_LOCK(hi2c);
ARM GAS  C:\Users\ADMINI~1\AppData\Local\Temp\ccQX2vwO.s 			page 7


 178              		.loc 1 168 5
 179 001a 7B68     		ldr	r3, [r7, #4]
 180 001c 93F84030 		ldrb	r3, [r3, #64]	@ zero_extendqisi2
 181 0020 012B     		cmp	r3, #1
 182 0022 01D1     		bne	.L7
 183              		.loc 1 168 5 is_stmt 0 discriminator 1
 184 0024 0223     		movs	r3, #2
 185 0026 33E0     		b	.L8
 186              	.L7:
 187              		.loc 1 168 5 discriminator 2
 188 0028 7B68     		ldr	r3, [r7, #4]
 189 002a 0122     		movs	r2, #1
 190 002c 83F84020 		strb	r2, [r3, #64]
 169:d:/LiteOS_Lab/drivers/third_party/ST/STM32L4xx_HAL_Driver/Src\stm32l4xx_hal_i2c_ex.c **** 
 170:d:/LiteOS_Lab/drivers/third_party/ST/STM32L4xx_HAL_Driver/Src\stm32l4xx_hal_i2c_ex.c ****     hi2c->State = HAL_I2C_STATE_BUSY;
 191              		.loc 1 170 17 is_stmt 1 discriminator 2
 192 0030 7B68     		ldr	r3, [r7, #4]
 193 0032 2422     		movs	r2, #36
 194 0034 83F84120 		strb	r2, [r3, #65]
 171:d:/LiteOS_Lab/drivers/third_party/ST/STM32L4xx_HAL_Driver/Src\stm32l4xx_hal_i2c_ex.c **** 
 172:d:/LiteOS_Lab/drivers/third_party/ST/STM32L4xx_HAL_Driver/Src\stm32l4xx_hal_i2c_ex.c ****     /* Disable the selected I2C peripheral */
 173:d:/LiteOS_Lab/drivers/third_party/ST/STM32L4xx_HAL_Driver/Src\stm32l4xx_hal_i2c_ex.c ****     __HAL_I2C_DISABLE(hi2c);
 195              		.loc 1 173 5 discriminator 2
 196 0038 7B68     		ldr	r3, [r7, #4]
 197 003a 1B68     		ldr	r3, [r3]
 198 003c 1A68     		ldr	r2, [r3]
 199 003e 7B68     		ldr	r3, [r7, #4]
 200 0040 1B68     		ldr	r3, [r3]
 201 0042 22F00102 		bic	r2, r2, #1
 202 0046 1A60     		str	r2, [r3]
 174:d:/LiteOS_Lab/drivers/third_party/ST/STM32L4xx_HAL_Driver/Src\stm32l4xx_hal_i2c_ex.c **** 
 175:d:/LiteOS_Lab/drivers/third_party/ST/STM32L4xx_HAL_Driver/Src\stm32l4xx_hal_i2c_ex.c ****     /* Get the old register value */
 176:d:/LiteOS_Lab/drivers/third_party/ST/STM32L4xx_HAL_Driver/Src\stm32l4xx_hal_i2c_ex.c ****     tmpreg = hi2c->Instance->CR1;
 203              		.loc 1 176 18 discriminator 2
 204 0048 7B68     		ldr	r3, [r7, #4]
 205 004a 1B68     		ldr	r3, [r3]
 206              		.loc 1 176 12 discriminator 2
 207 004c 1B68     		ldr	r3, [r3]
 208 004e FB60     		str	r3, [r7, #12]
 177:d:/LiteOS_Lab/drivers/third_party/ST/STM32L4xx_HAL_Driver/Src\stm32l4xx_hal_i2c_ex.c **** 
 178:d:/LiteOS_Lab/drivers/third_party/ST/STM32L4xx_HAL_Driver/Src\stm32l4xx_hal_i2c_ex.c ****     /* Reset I2Cx DNF bits [11:8] */
 179:d:/LiteOS_Lab/drivers/third_party/ST/STM32L4xx_HAL_Driver/Src\stm32l4xx_hal_i2c_ex.c ****     tmpreg &= ~(I2C_CR1_DNF);
 209              		.loc 1 179 12 discriminator 2
 210 0050 FB68     		ldr	r3, [r7, #12]
 211 0052 23F47063 		bic	r3, r3, #3840
 212 0056 FB60     		str	r3, [r7, #12]
 180:d:/LiteOS_Lab/drivers/third_party/ST/STM32L4xx_HAL_Driver/Src\stm32l4xx_hal_i2c_ex.c **** 
 181:d:/LiteOS_Lab/drivers/third_party/ST/STM32L4xx_HAL_Driver/Src\stm32l4xx_hal_i2c_ex.c ****     /* Set I2Cx DNF coefficient */
 182:d:/LiteOS_Lab/drivers/third_party/ST/STM32L4xx_HAL_Driver/Src\stm32l4xx_hal_i2c_ex.c ****     tmpreg |= DigitalFilter << 8U;
 213              		.loc 1 182 29 discriminator 2
 214 0058 3B68     		ldr	r3, [r7]
 215 005a 1B02     		lsls	r3, r3, #8
 216              		.loc 1 182 12 discriminator 2
 217 005c FA68     		ldr	r2, [r7, #12]
 218 005e 1343     		orrs	r3, r3, r2
 219 0060 FB60     		str	r3, [r7, #12]
 183:d:/LiteOS_Lab/drivers/third_party/ST/STM32L4xx_HAL_Driver/Src\stm32l4xx_hal_i2c_ex.c **** 
ARM GAS  C:\Users\ADMINI~1\AppData\Local\Temp\ccQX2vwO.s 			page 8


 184:d:/LiteOS_Lab/drivers/third_party/ST/STM32L4xx_HAL_Driver/Src\stm32l4xx_hal_i2c_ex.c ****     /* Store the new register value */
 185:d:/LiteOS_Lab/drivers/third_party/ST/STM32L4xx_HAL_Driver/Src\stm32l4xx_hal_i2c_ex.c ****     hi2c->Instance->CR1 = tmpreg;
 220              		.loc 1 185 9 discriminator 2
 221 0062 7B68     		ldr	r3, [r7, #4]
 222 0064 1B68     		ldr	r3, [r3]
 223              		.loc 1 185 25 discriminator 2
 224 0066 FA68     		ldr	r2, [r7, #12]
 225 0068 1A60     		str	r2, [r3]
 186:d:/LiteOS_Lab/drivers/third_party/ST/STM32L4xx_HAL_Driver/Src\stm32l4xx_hal_i2c_ex.c **** 
 187:d:/LiteOS_Lab/drivers/third_party/ST/STM32L4xx_HAL_Driver/Src\stm32l4xx_hal_i2c_ex.c ****     __HAL_I2C_ENABLE(hi2c);
 226              		.loc 1 187 5 discriminator 2
 227 006a 7B68     		ldr	r3, [r7, #4]
 228 006c 1B68     		ldr	r3, [r3]
 229 006e 1A68     		ldr	r2, [r3]
 230 0070 7B68     		ldr	r3, [r7, #4]
 231 0072 1B68     		ldr	r3, [r3]
 232 0074 42F00102 		orr	r2, r2, #1
 233 0078 1A60     		str	r2, [r3]
 188:d:/LiteOS_Lab/drivers/third_party/ST/STM32L4xx_HAL_Driver/Src\stm32l4xx_hal_i2c_ex.c **** 
 189:d:/LiteOS_Lab/drivers/third_party/ST/STM32L4xx_HAL_Driver/Src\stm32l4xx_hal_i2c_ex.c ****     hi2c->State = HAL_I2C_STATE_READY;
 234              		.loc 1 189 17 discriminator 2
 235 007a 7B68     		ldr	r3, [r7, #4]
 236 007c 2022     		movs	r2, #32
 237 007e 83F84120 		strb	r2, [r3, #65]
 190:d:/LiteOS_Lab/drivers/third_party/ST/STM32L4xx_HAL_Driver/Src\stm32l4xx_hal_i2c_ex.c **** 
 191:d:/LiteOS_Lab/drivers/third_party/ST/STM32L4xx_HAL_Driver/Src\stm32l4xx_hal_i2c_ex.c ****     /* Process Unlocked */
 192:d:/LiteOS_Lab/drivers/third_party/ST/STM32L4xx_HAL_Driver/Src\stm32l4xx_hal_i2c_ex.c ****     __HAL_UNLOCK(hi2c);
 238              		.loc 1 192 5 discriminator 2
 239 0082 7B68     		ldr	r3, [r7, #4]
 240 0084 0022     		movs	r2, #0
 241 0086 83F84020 		strb	r2, [r3, #64]
 193:d:/LiteOS_Lab/drivers/third_party/ST/STM32L4xx_HAL_Driver/Src\stm32l4xx_hal_i2c_ex.c **** 
 194:d:/LiteOS_Lab/drivers/third_party/ST/STM32L4xx_HAL_Driver/Src\stm32l4xx_hal_i2c_ex.c ****     return HAL_OK;
 242              		.loc 1 194 12 discriminator 2
 243 008a 0023     		movs	r3, #0
 244 008c 00E0     		b	.L8
 245              	.L6:
 195:d:/LiteOS_Lab/drivers/third_party/ST/STM32L4xx_HAL_Driver/Src\stm32l4xx_hal_i2c_ex.c ****   }
 196:d:/LiteOS_Lab/drivers/third_party/ST/STM32L4xx_HAL_Driver/Src\stm32l4xx_hal_i2c_ex.c ****   else
 197:d:/LiteOS_Lab/drivers/third_party/ST/STM32L4xx_HAL_Driver/Src\stm32l4xx_hal_i2c_ex.c ****   {
 198:d:/LiteOS_Lab/drivers/third_party/ST/STM32L4xx_HAL_Driver/Src\stm32l4xx_hal_i2c_ex.c ****     return HAL_BUSY;
 246              		.loc 1 198 12
 247 008e 0223     		movs	r3, #2
 248              	.L8:
 199:d:/LiteOS_Lab/drivers/third_party/ST/STM32L4xx_HAL_Driver/Src\stm32l4xx_hal_i2c_ex.c ****   }
 200:d:/LiteOS_Lab/drivers/third_party/ST/STM32L4xx_HAL_Driver/Src\stm32l4xx_hal_i2c_ex.c **** }
 249              		.loc 1 200 1
 250 0090 1846     		mov	r0, r3
 251 0092 1437     		adds	r7, r7, #20
 252              	.LCFI9:
 253              		.cfi_def_cfa_offset 4
 254 0094 BD46     		mov	sp, r7
 255              	.LCFI10:
 256              		.cfi_def_cfa_register 13
 257              		@ sp needed
 258 0096 5DF8047B 		ldr	r7, [sp], #4
 259              	.LCFI11:
ARM GAS  C:\Users\ADMINI~1\AppData\Local\Temp\ccQX2vwO.s 			page 9


 260              		.cfi_restore 7
 261              		.cfi_def_cfa_offset 0
 262 009a 7047     		bx	lr
 263              		.cfi_endproc
 264              	.LFE288:
 266              		.section	.text.HAL_I2CEx_EnableWakeUp,"ax",%progbits
 267              		.align	1
 268              		.global	HAL_I2CEx_EnableWakeUp
 269              		.syntax unified
 270              		.thumb
 271              		.thumb_func
 272              		.fpu fpv4-sp-d16
 274              	HAL_I2CEx_EnableWakeUp:
 275              	.LFB289:
 201:d:/LiteOS_Lab/drivers/third_party/ST/STM32L4xx_HAL_Driver/Src\stm32l4xx_hal_i2c_ex.c **** 
 202:d:/LiteOS_Lab/drivers/third_party/ST/STM32L4xx_HAL_Driver/Src\stm32l4xx_hal_i2c_ex.c **** /**
 203:d:/LiteOS_Lab/drivers/third_party/ST/STM32L4xx_HAL_Driver/Src\stm32l4xx_hal_i2c_ex.c ****   * @brief  Enable I2C wakeup from Stop mode(s).
 204:d:/LiteOS_Lab/drivers/third_party/ST/STM32L4xx_HAL_Driver/Src\stm32l4xx_hal_i2c_ex.c ****   * @param  hi2c Pointer to a I2C_HandleTypeDef structure that contains
 205:d:/LiteOS_Lab/drivers/third_party/ST/STM32L4xx_HAL_Driver/Src\stm32l4xx_hal_i2c_ex.c ****   *                the configuration information for the specified I2Cx peripheral.
 206:d:/LiteOS_Lab/drivers/third_party/ST/STM32L4xx_HAL_Driver/Src\stm32l4xx_hal_i2c_ex.c ****   * @retval HAL status
 207:d:/LiteOS_Lab/drivers/third_party/ST/STM32L4xx_HAL_Driver/Src\stm32l4xx_hal_i2c_ex.c ****   */
 208:d:/LiteOS_Lab/drivers/third_party/ST/STM32L4xx_HAL_Driver/Src\stm32l4xx_hal_i2c_ex.c **** HAL_StatusTypeDef HAL_I2CEx_EnableWakeUp(I2C_HandleTypeDef *hi2c)
 209:d:/LiteOS_Lab/drivers/third_party/ST/STM32L4xx_HAL_Driver/Src\stm32l4xx_hal_i2c_ex.c **** {
 276              		.loc 1 209 1
 277              		.cfi_startproc
 278              		@ args = 0, pretend = 0, frame = 8
 279              		@ frame_needed = 1, uses_anonymous_args = 0
 280              		@ link register save eliminated.
 281 0000 80B4     		push	{r7}
 282              	.LCFI12:
 283              		.cfi_def_cfa_offset 4
 284              		.cfi_offset 7, -4
 285 0002 83B0     		sub	sp, sp, #12
 286              	.LCFI13:
 287              		.cfi_def_cfa_offset 16
 288 0004 00AF     		add	r7, sp, #0
 289              	.LCFI14:
 290              		.cfi_def_cfa_register 7
 291 0006 7860     		str	r0, [r7, #4]
 210:d:/LiteOS_Lab/drivers/third_party/ST/STM32L4xx_HAL_Driver/Src\stm32l4xx_hal_i2c_ex.c ****   /* Check the parameters */
 211:d:/LiteOS_Lab/drivers/third_party/ST/STM32L4xx_HAL_Driver/Src\stm32l4xx_hal_i2c_ex.c ****   assert_param(IS_I2C_WAKEUP_FROMSTOP_INSTANCE(hi2c->Instance));
 212:d:/LiteOS_Lab/drivers/third_party/ST/STM32L4xx_HAL_Driver/Src\stm32l4xx_hal_i2c_ex.c **** 
 213:d:/LiteOS_Lab/drivers/third_party/ST/STM32L4xx_HAL_Driver/Src\stm32l4xx_hal_i2c_ex.c ****   if (hi2c->State == HAL_I2C_STATE_READY)
 292              		.loc 1 213 11
 293 0008 7B68     		ldr	r3, [r7, #4]
 294 000a 93F84130 		ldrb	r3, [r3, #65]
 295 000e DBB2     		uxtb	r3, r3
 296              		.loc 1 213 6
 297 0010 202B     		cmp	r3, #32
 298 0012 30D1     		bne	.L10
 214:d:/LiteOS_Lab/drivers/third_party/ST/STM32L4xx_HAL_Driver/Src\stm32l4xx_hal_i2c_ex.c ****   {
 215:d:/LiteOS_Lab/drivers/third_party/ST/STM32L4xx_HAL_Driver/Src\stm32l4xx_hal_i2c_ex.c ****     /* Process Locked */
 216:d:/LiteOS_Lab/drivers/third_party/ST/STM32L4xx_HAL_Driver/Src\stm32l4xx_hal_i2c_ex.c ****     __HAL_LOCK(hi2c);
 299              		.loc 1 216 5
 300 0014 7B68     		ldr	r3, [r7, #4]
 301 0016 93F84030 		ldrb	r3, [r3, #64]	@ zero_extendqisi2
 302 001a 012B     		cmp	r3, #1
ARM GAS  C:\Users\ADMINI~1\AppData\Local\Temp\ccQX2vwO.s 			page 10


 303 001c 01D1     		bne	.L11
 304              		.loc 1 216 5 is_stmt 0 discriminator 1
 305 001e 0223     		movs	r3, #2
 306 0020 2AE0     		b	.L12
 307              	.L11:
 308              		.loc 1 216 5 discriminator 2
 309 0022 7B68     		ldr	r3, [r7, #4]
 310 0024 0122     		movs	r2, #1
 311 0026 83F84020 		strb	r2, [r3, #64]
 217:d:/LiteOS_Lab/drivers/third_party/ST/STM32L4xx_HAL_Driver/Src\stm32l4xx_hal_i2c_ex.c **** 
 218:d:/LiteOS_Lab/drivers/third_party/ST/STM32L4xx_HAL_Driver/Src\stm32l4xx_hal_i2c_ex.c ****     hi2c->State = HAL_I2C_STATE_BUSY;
 312              		.loc 1 218 17 is_stmt 1 discriminator 2
 313 002a 7B68     		ldr	r3, [r7, #4]
 314 002c 2422     		movs	r2, #36
 315 002e 83F84120 		strb	r2, [r3, #65]
 219:d:/LiteOS_Lab/drivers/third_party/ST/STM32L4xx_HAL_Driver/Src\stm32l4xx_hal_i2c_ex.c **** 
 220:d:/LiteOS_Lab/drivers/third_party/ST/STM32L4xx_HAL_Driver/Src\stm32l4xx_hal_i2c_ex.c ****     /* Disable the selected I2C peripheral */
 221:d:/LiteOS_Lab/drivers/third_party/ST/STM32L4xx_HAL_Driver/Src\stm32l4xx_hal_i2c_ex.c ****     __HAL_I2C_DISABLE(hi2c);
 316              		.loc 1 221 5 discriminator 2
 317 0032 7B68     		ldr	r3, [r7, #4]
 318 0034 1B68     		ldr	r3, [r3]
 319 0036 1A68     		ldr	r2, [r3]
 320 0038 7B68     		ldr	r3, [r7, #4]
 321 003a 1B68     		ldr	r3, [r3]
 322 003c 22F00102 		bic	r2, r2, #1
 323 0040 1A60     		str	r2, [r3]
 222:d:/LiteOS_Lab/drivers/third_party/ST/STM32L4xx_HAL_Driver/Src\stm32l4xx_hal_i2c_ex.c **** 
 223:d:/LiteOS_Lab/drivers/third_party/ST/STM32L4xx_HAL_Driver/Src\stm32l4xx_hal_i2c_ex.c ****     /* Enable wakeup from stop mode */
 224:d:/LiteOS_Lab/drivers/third_party/ST/STM32L4xx_HAL_Driver/Src\stm32l4xx_hal_i2c_ex.c ****     hi2c->Instance->CR1 |= I2C_CR1_WUPEN;
 324              		.loc 1 224 9 discriminator 2
 325 0042 7B68     		ldr	r3, [r7, #4]
 326 0044 1B68     		ldr	r3, [r3]
 327              		.loc 1 224 25 discriminator 2
 328 0046 1A68     		ldr	r2, [r3]
 329              		.loc 1 224 9 discriminator 2
 330 0048 7B68     		ldr	r3, [r7, #4]
 331 004a 1B68     		ldr	r3, [r3]
 332              		.loc 1 224 25 discriminator 2
 333 004c 42F48022 		orr	r2, r2, #262144
 334 0050 1A60     		str	r2, [r3]
 225:d:/LiteOS_Lab/drivers/third_party/ST/STM32L4xx_HAL_Driver/Src\stm32l4xx_hal_i2c_ex.c **** 
 226:d:/LiteOS_Lab/drivers/third_party/ST/STM32L4xx_HAL_Driver/Src\stm32l4xx_hal_i2c_ex.c ****     __HAL_I2C_ENABLE(hi2c);
 335              		.loc 1 226 5 discriminator 2
 336 0052 7B68     		ldr	r3, [r7, #4]
 337 0054 1B68     		ldr	r3, [r3]
 338 0056 1A68     		ldr	r2, [r3]
 339 0058 7B68     		ldr	r3, [r7, #4]
 340 005a 1B68     		ldr	r3, [r3]
 341 005c 42F00102 		orr	r2, r2, #1
 342 0060 1A60     		str	r2, [r3]
 227:d:/LiteOS_Lab/drivers/third_party/ST/STM32L4xx_HAL_Driver/Src\stm32l4xx_hal_i2c_ex.c **** 
 228:d:/LiteOS_Lab/drivers/third_party/ST/STM32L4xx_HAL_Driver/Src\stm32l4xx_hal_i2c_ex.c ****     hi2c->State = HAL_I2C_STATE_READY;
 343              		.loc 1 228 17 discriminator 2
 344 0062 7B68     		ldr	r3, [r7, #4]
 345 0064 2022     		movs	r2, #32
 346 0066 83F84120 		strb	r2, [r3, #65]
 229:d:/LiteOS_Lab/drivers/third_party/ST/STM32L4xx_HAL_Driver/Src\stm32l4xx_hal_i2c_ex.c **** 
ARM GAS  C:\Users\ADMINI~1\AppData\Local\Temp\ccQX2vwO.s 			page 11


 230:d:/LiteOS_Lab/drivers/third_party/ST/STM32L4xx_HAL_Driver/Src\stm32l4xx_hal_i2c_ex.c ****     /* Process Unlocked */
 231:d:/LiteOS_Lab/drivers/third_party/ST/STM32L4xx_HAL_Driver/Src\stm32l4xx_hal_i2c_ex.c ****     __HAL_UNLOCK(hi2c);
 347              		.loc 1 231 5 discriminator 2
 348 006a 7B68     		ldr	r3, [r7, #4]
 349 006c 0022     		movs	r2, #0
 350 006e 83F84020 		strb	r2, [r3, #64]
 232:d:/LiteOS_Lab/drivers/third_party/ST/STM32L4xx_HAL_Driver/Src\stm32l4xx_hal_i2c_ex.c **** 
 233:d:/LiteOS_Lab/drivers/third_party/ST/STM32L4xx_HAL_Driver/Src\stm32l4xx_hal_i2c_ex.c ****     return HAL_OK;
 351              		.loc 1 233 12 discriminator 2
 352 0072 0023     		movs	r3, #0
 353 0074 00E0     		b	.L12
 354              	.L10:
 234:d:/LiteOS_Lab/drivers/third_party/ST/STM32L4xx_HAL_Driver/Src\stm32l4xx_hal_i2c_ex.c ****   }
 235:d:/LiteOS_Lab/drivers/third_party/ST/STM32L4xx_HAL_Driver/Src\stm32l4xx_hal_i2c_ex.c ****   else
 236:d:/LiteOS_Lab/drivers/third_party/ST/STM32L4xx_HAL_Driver/Src\stm32l4xx_hal_i2c_ex.c ****   {
 237:d:/LiteOS_Lab/drivers/third_party/ST/STM32L4xx_HAL_Driver/Src\stm32l4xx_hal_i2c_ex.c ****     return HAL_BUSY;
 355              		.loc 1 237 12
 356 0076 0223     		movs	r3, #2
 357              	.L12:
 238:d:/LiteOS_Lab/drivers/third_party/ST/STM32L4xx_HAL_Driver/Src\stm32l4xx_hal_i2c_ex.c ****   }
 239:d:/LiteOS_Lab/drivers/third_party/ST/STM32L4xx_HAL_Driver/Src\stm32l4xx_hal_i2c_ex.c **** }
 358              		.loc 1 239 1
 359 0078 1846     		mov	r0, r3
 360 007a 0C37     		adds	r7, r7, #12
 361              	.LCFI15:
 362              		.cfi_def_cfa_offset 4
 363 007c BD46     		mov	sp, r7
 364              	.LCFI16:
 365              		.cfi_def_cfa_register 13
 366              		@ sp needed
 367 007e 5DF8047B 		ldr	r7, [sp], #4
 368              	.LCFI17:
 369              		.cfi_restore 7
 370              		.cfi_def_cfa_offset 0
 371 0082 7047     		bx	lr
 372              		.cfi_endproc
 373              	.LFE289:
 375              		.section	.text.HAL_I2CEx_DisableWakeUp,"ax",%progbits
 376              		.align	1
 377              		.global	HAL_I2CEx_DisableWakeUp
 378              		.syntax unified
 379              		.thumb
 380              		.thumb_func
 381              		.fpu fpv4-sp-d16
 383              	HAL_I2CEx_DisableWakeUp:
 384              	.LFB290:
 240:d:/LiteOS_Lab/drivers/third_party/ST/STM32L4xx_HAL_Driver/Src\stm32l4xx_hal_i2c_ex.c **** 
 241:d:/LiteOS_Lab/drivers/third_party/ST/STM32L4xx_HAL_Driver/Src\stm32l4xx_hal_i2c_ex.c **** /**
 242:d:/LiteOS_Lab/drivers/third_party/ST/STM32L4xx_HAL_Driver/Src\stm32l4xx_hal_i2c_ex.c ****   * @brief  Disable I2C wakeup from Stop mode(s).
 243:d:/LiteOS_Lab/drivers/third_party/ST/STM32L4xx_HAL_Driver/Src\stm32l4xx_hal_i2c_ex.c ****   * @param  hi2c Pointer to a I2C_HandleTypeDef structure that contains
 244:d:/LiteOS_Lab/drivers/third_party/ST/STM32L4xx_HAL_Driver/Src\stm32l4xx_hal_i2c_ex.c ****   *                the configuration information for the specified I2Cx peripheral.
 245:d:/LiteOS_Lab/drivers/third_party/ST/STM32L4xx_HAL_Driver/Src\stm32l4xx_hal_i2c_ex.c ****   * @retval HAL status
 246:d:/LiteOS_Lab/drivers/third_party/ST/STM32L4xx_HAL_Driver/Src\stm32l4xx_hal_i2c_ex.c ****   */
 247:d:/LiteOS_Lab/drivers/third_party/ST/STM32L4xx_HAL_Driver/Src\stm32l4xx_hal_i2c_ex.c **** HAL_StatusTypeDef HAL_I2CEx_DisableWakeUp(I2C_HandleTypeDef *hi2c)
 248:d:/LiteOS_Lab/drivers/third_party/ST/STM32L4xx_HAL_Driver/Src\stm32l4xx_hal_i2c_ex.c **** {
 385              		.loc 1 248 1
 386              		.cfi_startproc
ARM GAS  C:\Users\ADMINI~1\AppData\Local\Temp\ccQX2vwO.s 			page 12


 387              		@ args = 0, pretend = 0, frame = 8
 388              		@ frame_needed = 1, uses_anonymous_args = 0
 389              		@ link register save eliminated.
 390 0000 80B4     		push	{r7}
 391              	.LCFI18:
 392              		.cfi_def_cfa_offset 4
 393              		.cfi_offset 7, -4
 394 0002 83B0     		sub	sp, sp, #12
 395              	.LCFI19:
 396              		.cfi_def_cfa_offset 16
 397 0004 00AF     		add	r7, sp, #0
 398              	.LCFI20:
 399              		.cfi_def_cfa_register 7
 400 0006 7860     		str	r0, [r7, #4]
 249:d:/LiteOS_Lab/drivers/third_party/ST/STM32L4xx_HAL_Driver/Src\stm32l4xx_hal_i2c_ex.c ****   /* Check the parameters */
 250:d:/LiteOS_Lab/drivers/third_party/ST/STM32L4xx_HAL_Driver/Src\stm32l4xx_hal_i2c_ex.c ****   assert_param(IS_I2C_WAKEUP_FROMSTOP_INSTANCE(hi2c->Instance));
 251:d:/LiteOS_Lab/drivers/third_party/ST/STM32L4xx_HAL_Driver/Src\stm32l4xx_hal_i2c_ex.c **** 
 252:d:/LiteOS_Lab/drivers/third_party/ST/STM32L4xx_HAL_Driver/Src\stm32l4xx_hal_i2c_ex.c ****   if (hi2c->State == HAL_I2C_STATE_READY)
 401              		.loc 1 252 11
 402 0008 7B68     		ldr	r3, [r7, #4]
 403 000a 93F84130 		ldrb	r3, [r3, #65]
 404 000e DBB2     		uxtb	r3, r3
 405              		.loc 1 252 6
 406 0010 202B     		cmp	r3, #32
 407 0012 30D1     		bne	.L14
 253:d:/LiteOS_Lab/drivers/third_party/ST/STM32L4xx_HAL_Driver/Src\stm32l4xx_hal_i2c_ex.c ****   {
 254:d:/LiteOS_Lab/drivers/third_party/ST/STM32L4xx_HAL_Driver/Src\stm32l4xx_hal_i2c_ex.c ****     /* Process Locked */
 255:d:/LiteOS_Lab/drivers/third_party/ST/STM32L4xx_HAL_Driver/Src\stm32l4xx_hal_i2c_ex.c ****     __HAL_LOCK(hi2c);
 408              		.loc 1 255 5
 409 0014 7B68     		ldr	r3, [r7, #4]
 410 0016 93F84030 		ldrb	r3, [r3, #64]	@ zero_extendqisi2
 411 001a 012B     		cmp	r3, #1
 412 001c 01D1     		bne	.L15
 413              		.loc 1 255 5 is_stmt 0 discriminator 1
 414 001e 0223     		movs	r3, #2
 415 0020 2AE0     		b	.L16
 416              	.L15:
 417              		.loc 1 255 5 discriminator 2
 418 0022 7B68     		ldr	r3, [r7, #4]
 419 0024 0122     		movs	r2, #1
 420 0026 83F84020 		strb	r2, [r3, #64]
 256:d:/LiteOS_Lab/drivers/third_party/ST/STM32L4xx_HAL_Driver/Src\stm32l4xx_hal_i2c_ex.c **** 
 257:d:/LiteOS_Lab/drivers/third_party/ST/STM32L4xx_HAL_Driver/Src\stm32l4xx_hal_i2c_ex.c ****     hi2c->State = HAL_I2C_STATE_BUSY;
 421              		.loc 1 257 17 is_stmt 1 discriminator 2
 422 002a 7B68     		ldr	r3, [r7, #4]
 423 002c 2422     		movs	r2, #36
 424 002e 83F84120 		strb	r2, [r3, #65]
 258:d:/LiteOS_Lab/drivers/third_party/ST/STM32L4xx_HAL_Driver/Src\stm32l4xx_hal_i2c_ex.c **** 
 259:d:/LiteOS_Lab/drivers/third_party/ST/STM32L4xx_HAL_Driver/Src\stm32l4xx_hal_i2c_ex.c ****     /* Disable the selected I2C peripheral */
 260:d:/LiteOS_Lab/drivers/third_party/ST/STM32L4xx_HAL_Driver/Src\stm32l4xx_hal_i2c_ex.c ****     __HAL_I2C_DISABLE(hi2c);
 425              		.loc 1 260 5 discriminator 2
 426 0032 7B68     		ldr	r3, [r7, #4]
 427 0034 1B68     		ldr	r3, [r3]
 428 0036 1A68     		ldr	r2, [r3]
 429 0038 7B68     		ldr	r3, [r7, #4]
 430 003a 1B68     		ldr	r3, [r3]
 431 003c 22F00102 		bic	r2, r2, #1
ARM GAS  C:\Users\ADMINI~1\AppData\Local\Temp\ccQX2vwO.s 			page 13


 432 0040 1A60     		str	r2, [r3]
 261:d:/LiteOS_Lab/drivers/third_party/ST/STM32L4xx_HAL_Driver/Src\stm32l4xx_hal_i2c_ex.c **** 
 262:d:/LiteOS_Lab/drivers/third_party/ST/STM32L4xx_HAL_Driver/Src\stm32l4xx_hal_i2c_ex.c ****     /* Enable wakeup from stop mode */
 263:d:/LiteOS_Lab/drivers/third_party/ST/STM32L4xx_HAL_Driver/Src\stm32l4xx_hal_i2c_ex.c ****     hi2c->Instance->CR1 &= ~(I2C_CR1_WUPEN);
 433              		.loc 1 263 9 discriminator 2
 434 0042 7B68     		ldr	r3, [r7, #4]
 435 0044 1B68     		ldr	r3, [r3]
 436              		.loc 1 263 25 discriminator 2
 437 0046 1A68     		ldr	r2, [r3]
 438              		.loc 1 263 9 discriminator 2
 439 0048 7B68     		ldr	r3, [r7, #4]
 440 004a 1B68     		ldr	r3, [r3]
 441              		.loc 1 263 25 discriminator 2
 442 004c 22F48022 		bic	r2, r2, #262144
 443 0050 1A60     		str	r2, [r3]
 264:d:/LiteOS_Lab/drivers/third_party/ST/STM32L4xx_HAL_Driver/Src\stm32l4xx_hal_i2c_ex.c **** 
 265:d:/LiteOS_Lab/drivers/third_party/ST/STM32L4xx_HAL_Driver/Src\stm32l4xx_hal_i2c_ex.c ****     __HAL_I2C_ENABLE(hi2c);
 444              		.loc 1 265 5 discriminator 2
 445 0052 7B68     		ldr	r3, [r7, #4]
 446 0054 1B68     		ldr	r3, [r3]
 447 0056 1A68     		ldr	r2, [r3]
 448 0058 7B68     		ldr	r3, [r7, #4]
 449 005a 1B68     		ldr	r3, [r3]
 450 005c 42F00102 		orr	r2, r2, #1
 451 0060 1A60     		str	r2, [r3]
 266:d:/LiteOS_Lab/drivers/third_party/ST/STM32L4xx_HAL_Driver/Src\stm32l4xx_hal_i2c_ex.c **** 
 267:d:/LiteOS_Lab/drivers/third_party/ST/STM32L4xx_HAL_Driver/Src\stm32l4xx_hal_i2c_ex.c ****     hi2c->State = HAL_I2C_STATE_READY;
 452              		.loc 1 267 17 discriminator 2
 453 0062 7B68     		ldr	r3, [r7, #4]
 454 0064 2022     		movs	r2, #32
 455 0066 83F84120 		strb	r2, [r3, #65]
 268:d:/LiteOS_Lab/drivers/third_party/ST/STM32L4xx_HAL_Driver/Src\stm32l4xx_hal_i2c_ex.c **** 
 269:d:/LiteOS_Lab/drivers/third_party/ST/STM32L4xx_HAL_Driver/Src\stm32l4xx_hal_i2c_ex.c ****     /* Process Unlocked */
 270:d:/LiteOS_Lab/drivers/third_party/ST/STM32L4xx_HAL_Driver/Src\stm32l4xx_hal_i2c_ex.c ****     __HAL_UNLOCK(hi2c);
 456              		.loc 1 270 5 discriminator 2
 457 006a 7B68     		ldr	r3, [r7, #4]
 458 006c 0022     		movs	r2, #0
 459 006e 83F84020 		strb	r2, [r3, #64]
 271:d:/LiteOS_Lab/drivers/third_party/ST/STM32L4xx_HAL_Driver/Src\stm32l4xx_hal_i2c_ex.c **** 
 272:d:/LiteOS_Lab/drivers/third_party/ST/STM32L4xx_HAL_Driver/Src\stm32l4xx_hal_i2c_ex.c ****     return HAL_OK;
 460              		.loc 1 272 12 discriminator 2
 461 0072 0023     		movs	r3, #0
 462 0074 00E0     		b	.L16
 463              	.L14:
 273:d:/LiteOS_Lab/drivers/third_party/ST/STM32L4xx_HAL_Driver/Src\stm32l4xx_hal_i2c_ex.c ****   }
 274:d:/LiteOS_Lab/drivers/third_party/ST/STM32L4xx_HAL_Driver/Src\stm32l4xx_hal_i2c_ex.c ****   else
 275:d:/LiteOS_Lab/drivers/third_party/ST/STM32L4xx_HAL_Driver/Src\stm32l4xx_hal_i2c_ex.c ****   {
 276:d:/LiteOS_Lab/drivers/third_party/ST/STM32L4xx_HAL_Driver/Src\stm32l4xx_hal_i2c_ex.c ****     return HAL_BUSY;
 464              		.loc 1 276 12
 465 0076 0223     		movs	r3, #2
 466              	.L16:
 277:d:/LiteOS_Lab/drivers/third_party/ST/STM32L4xx_HAL_Driver/Src\stm32l4xx_hal_i2c_ex.c ****   }
 278:d:/LiteOS_Lab/drivers/third_party/ST/STM32L4xx_HAL_Driver/Src\stm32l4xx_hal_i2c_ex.c **** }
 467              		.loc 1 278 1
 468 0078 1846     		mov	r0, r3
 469 007a 0C37     		adds	r7, r7, #12
 470              	.LCFI21:
ARM GAS  C:\Users\ADMINI~1\AppData\Local\Temp\ccQX2vwO.s 			page 14


 471              		.cfi_def_cfa_offset 4
 472 007c BD46     		mov	sp, r7
 473              	.LCFI22:
 474              		.cfi_def_cfa_register 13
 475              		@ sp needed
 476 007e 5DF8047B 		ldr	r7, [sp], #4
 477              	.LCFI23:
 478              		.cfi_restore 7
 479              		.cfi_def_cfa_offset 0
 480 0082 7047     		bx	lr
 481              		.cfi_endproc
 482              	.LFE290:
 484              		.section	.text.HAL_I2CEx_EnableFastModePlus,"ax",%progbits
 485              		.align	1
 486              		.global	HAL_I2CEx_EnableFastModePlus
 487              		.syntax unified
 488              		.thumb
 489              		.thumb_func
 490              		.fpu fpv4-sp-d16
 492              	HAL_I2CEx_EnableFastModePlus:
 493              	.LFB291:
 279:d:/LiteOS_Lab/drivers/third_party/ST/STM32L4xx_HAL_Driver/Src\stm32l4xx_hal_i2c_ex.c **** 
 280:d:/LiteOS_Lab/drivers/third_party/ST/STM32L4xx_HAL_Driver/Src\stm32l4xx_hal_i2c_ex.c **** /**
 281:d:/LiteOS_Lab/drivers/third_party/ST/STM32L4xx_HAL_Driver/Src\stm32l4xx_hal_i2c_ex.c ****   * @brief Enable the I2C fast mode plus driving capability.
 282:d:/LiteOS_Lab/drivers/third_party/ST/STM32L4xx_HAL_Driver/Src\stm32l4xx_hal_i2c_ex.c ****   * @param ConfigFastModePlus Selects the pin.
 283:d:/LiteOS_Lab/drivers/third_party/ST/STM32L4xx_HAL_Driver/Src\stm32l4xx_hal_i2c_ex.c ****   *   This parameter can be one of the @ref I2CEx_FastModePlus values
 284:d:/LiteOS_Lab/drivers/third_party/ST/STM32L4xx_HAL_Driver/Src\stm32l4xx_hal_i2c_ex.c ****   * @note  For I2C1, fast mode plus driving capability can be enabled on all selected
 285:d:/LiteOS_Lab/drivers/third_party/ST/STM32L4xx_HAL_Driver/Src\stm32l4xx_hal_i2c_ex.c ****   *        I2C1 pins using I2C_FASTMODEPLUS_I2C1 parameter or independently
 286:d:/LiteOS_Lab/drivers/third_party/ST/STM32L4xx_HAL_Driver/Src\stm32l4xx_hal_i2c_ex.c ****   *        on each one of the following pins PB6, PB7, PB8 and PB9.
 287:d:/LiteOS_Lab/drivers/third_party/ST/STM32L4xx_HAL_Driver/Src\stm32l4xx_hal_i2c_ex.c ****   * @note  For remaining I2C1 pins (PA14, PA15...) fast mode plus driving capability
 288:d:/LiteOS_Lab/drivers/third_party/ST/STM32L4xx_HAL_Driver/Src\stm32l4xx_hal_i2c_ex.c ****   *        can be enabled only by using I2C_FASTMODEPLUS_I2C1 parameter.
 289:d:/LiteOS_Lab/drivers/third_party/ST/STM32L4xx_HAL_Driver/Src\stm32l4xx_hal_i2c_ex.c ****   * @note  For all I2C2 pins fast mode plus driving capability can be enabled
 290:d:/LiteOS_Lab/drivers/third_party/ST/STM32L4xx_HAL_Driver/Src\stm32l4xx_hal_i2c_ex.c ****   *        only by using I2C_FASTMODEPLUS_I2C2 parameter.
 291:d:/LiteOS_Lab/drivers/third_party/ST/STM32L4xx_HAL_Driver/Src\stm32l4xx_hal_i2c_ex.c ****   * @note  For all I2C3 pins fast mode plus driving capability can be enabled
 292:d:/LiteOS_Lab/drivers/third_party/ST/STM32L4xx_HAL_Driver/Src\stm32l4xx_hal_i2c_ex.c ****   *        only by using I2C_FASTMODEPLUS_I2C3 parameter.
 293:d:/LiteOS_Lab/drivers/third_party/ST/STM32L4xx_HAL_Driver/Src\stm32l4xx_hal_i2c_ex.c ****   * @note  For all I2C4 pins fast mode plus driving capability can be enabled
 294:d:/LiteOS_Lab/drivers/third_party/ST/STM32L4xx_HAL_Driver/Src\stm32l4xx_hal_i2c_ex.c ****   *        only by using I2C_FASTMODEPLUS_I2C4 parameter.
 295:d:/LiteOS_Lab/drivers/third_party/ST/STM32L4xx_HAL_Driver/Src\stm32l4xx_hal_i2c_ex.c ****   * @retval None
 296:d:/LiteOS_Lab/drivers/third_party/ST/STM32L4xx_HAL_Driver/Src\stm32l4xx_hal_i2c_ex.c ****   */
 297:d:/LiteOS_Lab/drivers/third_party/ST/STM32L4xx_HAL_Driver/Src\stm32l4xx_hal_i2c_ex.c **** void HAL_I2CEx_EnableFastModePlus(uint32_t ConfigFastModePlus)
 298:d:/LiteOS_Lab/drivers/third_party/ST/STM32L4xx_HAL_Driver/Src\stm32l4xx_hal_i2c_ex.c **** {
 494              		.loc 1 298 1
 495              		.cfi_startproc
 496              		@ args = 0, pretend = 0, frame = 16
 497              		@ frame_needed = 1, uses_anonymous_args = 0
 498              		@ link register save eliminated.
 499 0000 80B4     		push	{r7}
 500              	.LCFI24:
 501              		.cfi_def_cfa_offset 4
 502              		.cfi_offset 7, -4
 503 0002 85B0     		sub	sp, sp, #20
 504              	.LCFI25:
 505              		.cfi_def_cfa_offset 24
 506 0004 00AF     		add	r7, sp, #0
 507              	.LCFI26:
 508              		.cfi_def_cfa_register 7
 509 0006 7860     		str	r0, [r7, #4]
ARM GAS  C:\Users\ADMINI~1\AppData\Local\Temp\ccQX2vwO.s 			page 15


 510              	.LBB2:
 299:d:/LiteOS_Lab/drivers/third_party/ST/STM32L4xx_HAL_Driver/Src\stm32l4xx_hal_i2c_ex.c ****   /* Check the parameter */
 300:d:/LiteOS_Lab/drivers/third_party/ST/STM32L4xx_HAL_Driver/Src\stm32l4xx_hal_i2c_ex.c ****   assert_param(IS_I2C_FASTMODEPLUS(ConfigFastModePlus));
 301:d:/LiteOS_Lab/drivers/third_party/ST/STM32L4xx_HAL_Driver/Src\stm32l4xx_hal_i2c_ex.c **** 
 302:d:/LiteOS_Lab/drivers/third_party/ST/STM32L4xx_HAL_Driver/Src\stm32l4xx_hal_i2c_ex.c ****   /* Enable SYSCFG clock */
 303:d:/LiteOS_Lab/drivers/third_party/ST/STM32L4xx_HAL_Driver/Src\stm32l4xx_hal_i2c_ex.c ****   __HAL_RCC_SYSCFG_CLK_ENABLE();
 511              		.loc 1 303 3
 512 0008 0B4B     		ldr	r3, .L18
 513 000a 1B6E     		ldr	r3, [r3, #96]
 514 000c 0A4A     		ldr	r2, .L18
 515 000e 43F00103 		orr	r3, r3, #1
 516 0012 1366     		str	r3, [r2, #96]
 517 0014 084B     		ldr	r3, .L18
 518 0016 1B6E     		ldr	r3, [r3, #96]
 519 0018 03F00103 		and	r3, r3, #1
 520 001c FB60     		str	r3, [r7, #12]
 521 001e FB68     		ldr	r3, [r7, #12]
 522              	.LBE2:
 304:d:/LiteOS_Lab/drivers/third_party/ST/STM32L4xx_HAL_Driver/Src\stm32l4xx_hal_i2c_ex.c **** 
 305:d:/LiteOS_Lab/drivers/third_party/ST/STM32L4xx_HAL_Driver/Src\stm32l4xx_hal_i2c_ex.c ****   /* Enable fast mode plus driving capability for selected pin */
 306:d:/LiteOS_Lab/drivers/third_party/ST/STM32L4xx_HAL_Driver/Src\stm32l4xx_hal_i2c_ex.c ****   SET_BIT(SYSCFG->CFGR1, (uint32_t)ConfigFastModePlus);
 523              		.loc 1 306 3
 524 0020 064B     		ldr	r3, .L18+4
 525 0022 5A68     		ldr	r2, [r3, #4]
 526 0024 0549     		ldr	r1, .L18+4
 527 0026 7B68     		ldr	r3, [r7, #4]
 528 0028 1343     		orrs	r3, r3, r2
 529 002a 4B60     		str	r3, [r1, #4]
 307:d:/LiteOS_Lab/drivers/third_party/ST/STM32L4xx_HAL_Driver/Src\stm32l4xx_hal_i2c_ex.c **** }
 530              		.loc 1 307 1
 531 002c 00BF     		nop
 532 002e 1437     		adds	r7, r7, #20
 533              	.LCFI27:
 534              		.cfi_def_cfa_offset 4
 535 0030 BD46     		mov	sp, r7
 536              	.LCFI28:
 537              		.cfi_def_cfa_register 13
 538              		@ sp needed
 539 0032 5DF8047B 		ldr	r7, [sp], #4
 540              	.LCFI29:
 541              		.cfi_restore 7
 542              		.cfi_def_cfa_offset 0
 543 0036 7047     		bx	lr
 544              	.L19:
 545              		.align	2
 546              	.L18:
 547 0038 00100240 		.word	1073876992
 548 003c 00000140 		.word	1073807360
 549              		.cfi_endproc
 550              	.LFE291:
 552              		.section	.text.HAL_I2CEx_DisableFastModePlus,"ax",%progbits
 553              		.align	1
 554              		.global	HAL_I2CEx_DisableFastModePlus
 555              		.syntax unified
 556              		.thumb
 557              		.thumb_func
 558              		.fpu fpv4-sp-d16
ARM GAS  C:\Users\ADMINI~1\AppData\Local\Temp\ccQX2vwO.s 			page 16


 560              	HAL_I2CEx_DisableFastModePlus:
 561              	.LFB292:
 308:d:/LiteOS_Lab/drivers/third_party/ST/STM32L4xx_HAL_Driver/Src\stm32l4xx_hal_i2c_ex.c **** 
 309:d:/LiteOS_Lab/drivers/third_party/ST/STM32L4xx_HAL_Driver/Src\stm32l4xx_hal_i2c_ex.c **** /**
 310:d:/LiteOS_Lab/drivers/third_party/ST/STM32L4xx_HAL_Driver/Src\stm32l4xx_hal_i2c_ex.c ****   * @brief Disable the I2C fast mode plus driving capability.
 311:d:/LiteOS_Lab/drivers/third_party/ST/STM32L4xx_HAL_Driver/Src\stm32l4xx_hal_i2c_ex.c ****   * @param ConfigFastModePlus Selects the pin.
 312:d:/LiteOS_Lab/drivers/third_party/ST/STM32L4xx_HAL_Driver/Src\stm32l4xx_hal_i2c_ex.c ****   *   This parameter can be one of the @ref I2CEx_FastModePlus values
 313:d:/LiteOS_Lab/drivers/third_party/ST/STM32L4xx_HAL_Driver/Src\stm32l4xx_hal_i2c_ex.c ****   * @note  For I2C1, fast mode plus driving capability can be disabled on all selected
 314:d:/LiteOS_Lab/drivers/third_party/ST/STM32L4xx_HAL_Driver/Src\stm32l4xx_hal_i2c_ex.c ****   *        I2C1 pins using I2C_FASTMODEPLUS_I2C1 parameter or independently
 315:d:/LiteOS_Lab/drivers/third_party/ST/STM32L4xx_HAL_Driver/Src\stm32l4xx_hal_i2c_ex.c ****   *        on each one of the following pins PB6, PB7, PB8 and PB9.
 316:d:/LiteOS_Lab/drivers/third_party/ST/STM32L4xx_HAL_Driver/Src\stm32l4xx_hal_i2c_ex.c ****   * @note  For remaining I2C1 pins (PA14, PA15...) fast mode plus driving capability
 317:d:/LiteOS_Lab/drivers/third_party/ST/STM32L4xx_HAL_Driver/Src\stm32l4xx_hal_i2c_ex.c ****   *        can be disabled only by using I2C_FASTMODEPLUS_I2C1 parameter.
 318:d:/LiteOS_Lab/drivers/third_party/ST/STM32L4xx_HAL_Driver/Src\stm32l4xx_hal_i2c_ex.c ****   * @note  For all I2C2 pins fast mode plus driving capability can be disabled
 319:d:/LiteOS_Lab/drivers/third_party/ST/STM32L4xx_HAL_Driver/Src\stm32l4xx_hal_i2c_ex.c ****   *        only by using I2C_FASTMODEPLUS_I2C2 parameter.
 320:d:/LiteOS_Lab/drivers/third_party/ST/STM32L4xx_HAL_Driver/Src\stm32l4xx_hal_i2c_ex.c ****   * @note  For all I2C3 pins fast mode plus driving capability can be disabled
 321:d:/LiteOS_Lab/drivers/third_party/ST/STM32L4xx_HAL_Driver/Src\stm32l4xx_hal_i2c_ex.c ****   *        only by using I2C_FASTMODEPLUS_I2C3 parameter.
 322:d:/LiteOS_Lab/drivers/third_party/ST/STM32L4xx_HAL_Driver/Src\stm32l4xx_hal_i2c_ex.c ****   * @note  For all I2C4 pins fast mode plus driving capability can be disabled
 323:d:/LiteOS_Lab/drivers/third_party/ST/STM32L4xx_HAL_Driver/Src\stm32l4xx_hal_i2c_ex.c ****   *        only by using I2C_FASTMODEPLUS_I2C4 parameter.
 324:d:/LiteOS_Lab/drivers/third_party/ST/STM32L4xx_HAL_Driver/Src\stm32l4xx_hal_i2c_ex.c ****   * @retval None
 325:d:/LiteOS_Lab/drivers/third_party/ST/STM32L4xx_HAL_Driver/Src\stm32l4xx_hal_i2c_ex.c ****   */
 326:d:/LiteOS_Lab/drivers/third_party/ST/STM32L4xx_HAL_Driver/Src\stm32l4xx_hal_i2c_ex.c **** void HAL_I2CEx_DisableFastModePlus(uint32_t ConfigFastModePlus)
 327:d:/LiteOS_Lab/drivers/third_party/ST/STM32L4xx_HAL_Driver/Src\stm32l4xx_hal_i2c_ex.c **** {
 562              		.loc 1 327 1
 563              		.cfi_startproc
 564              		@ args = 0, pretend = 0, frame = 16
 565              		@ frame_needed = 1, uses_anonymous_args = 0
 566              		@ link register save eliminated.
 567 0000 80B4     		push	{r7}
 568              	.LCFI30:
 569              		.cfi_def_cfa_offset 4
 570              		.cfi_offset 7, -4
 571 0002 85B0     		sub	sp, sp, #20
 572              	.LCFI31:
 573              		.cfi_def_cfa_offset 24
 574 0004 00AF     		add	r7, sp, #0
 575              	.LCFI32:
 576              		.cfi_def_cfa_register 7
 577 0006 7860     		str	r0, [r7, #4]
 578              	.LBB3:
 328:d:/LiteOS_Lab/drivers/third_party/ST/STM32L4xx_HAL_Driver/Src\stm32l4xx_hal_i2c_ex.c ****   /* Check the parameter */
 329:d:/LiteOS_Lab/drivers/third_party/ST/STM32L4xx_HAL_Driver/Src\stm32l4xx_hal_i2c_ex.c ****   assert_param(IS_I2C_FASTMODEPLUS(ConfigFastModePlus));
 330:d:/LiteOS_Lab/drivers/third_party/ST/STM32L4xx_HAL_Driver/Src\stm32l4xx_hal_i2c_ex.c **** 
 331:d:/LiteOS_Lab/drivers/third_party/ST/STM32L4xx_HAL_Driver/Src\stm32l4xx_hal_i2c_ex.c ****   /* Enable SYSCFG clock */
 332:d:/LiteOS_Lab/drivers/third_party/ST/STM32L4xx_HAL_Driver/Src\stm32l4xx_hal_i2c_ex.c ****   __HAL_RCC_SYSCFG_CLK_ENABLE();
 579              		.loc 1 332 3
 580 0008 0C4B     		ldr	r3, .L21
 581 000a 1B6E     		ldr	r3, [r3, #96]
 582 000c 0B4A     		ldr	r2, .L21
 583 000e 43F00103 		orr	r3, r3, #1
 584 0012 1366     		str	r3, [r2, #96]
 585 0014 094B     		ldr	r3, .L21
 586 0016 1B6E     		ldr	r3, [r3, #96]
 587 0018 03F00103 		and	r3, r3, #1
 588 001c FB60     		str	r3, [r7, #12]
 589 001e FB68     		ldr	r3, [r7, #12]
 590              	.LBE3:
 333:d:/LiteOS_Lab/drivers/third_party/ST/STM32L4xx_HAL_Driver/Src\stm32l4xx_hal_i2c_ex.c **** 
ARM GAS  C:\Users\ADMINI~1\AppData\Local\Temp\ccQX2vwO.s 			page 17


 334:d:/LiteOS_Lab/drivers/third_party/ST/STM32L4xx_HAL_Driver/Src\stm32l4xx_hal_i2c_ex.c ****   /* Disable fast mode plus driving capability for selected pin */
 335:d:/LiteOS_Lab/drivers/third_party/ST/STM32L4xx_HAL_Driver/Src\stm32l4xx_hal_i2c_ex.c ****   CLEAR_BIT(SYSCFG->CFGR1, (uint32_t)ConfigFastModePlus);
 591              		.loc 1 335 3
 592 0020 074B     		ldr	r3, .L21+4
 593 0022 5A68     		ldr	r2, [r3, #4]
 594 0024 7B68     		ldr	r3, [r7, #4]
 595 0026 DB43     		mvns	r3, r3
 596 0028 0549     		ldr	r1, .L21+4
 597 002a 1340     		ands	r3, r3, r2
 598 002c 4B60     		str	r3, [r1, #4]
 336:d:/LiteOS_Lab/drivers/third_party/ST/STM32L4xx_HAL_Driver/Src\stm32l4xx_hal_i2c_ex.c **** }
 599              		.loc 1 336 1
 600 002e 00BF     		nop
 601 0030 1437     		adds	r7, r7, #20
 602              	.LCFI33:
 603              		.cfi_def_cfa_offset 4
 604 0032 BD46     		mov	sp, r7
 605              	.LCFI34:
 606              		.cfi_def_cfa_register 13
 607              		@ sp needed
 608 0034 5DF8047B 		ldr	r7, [sp], #4
 609              	.LCFI35:
 610              		.cfi_restore 7
 611              		.cfi_def_cfa_offset 0
 612 0038 7047     		bx	lr
 613              	.L22:
 614 003a 00BF     		.align	2
 615              	.L21:
 616 003c 00100240 		.word	1073876992
 617 0040 00000140 		.word	1073807360
 618              		.cfi_endproc
 619              	.LFE292:
 621              		.text
 622              	.Letext0:
 623              		.file 2 "c:\\users\\administrator\\.huawei-liteos-studio\\tools\\arm-none-eabi\\arm-none-eabi\\inc
 624              		.file 3 "c:\\users\\administrator\\.huawei-liteos-studio\\tools\\arm-none-eabi\\arm-none-eabi\\inc
 625              		.file 4 "c:\\users\\administrator\\.huawei-liteos-studio\\tools\\arm-none-eabi\\arm-none-eabi\\inc
 626              		.file 5 "c:\\users\\administrator\\.huawei-liteos-studio\\tools\\arm-none-eabi\\lib\\gcc\\arm-none
 627              		.file 6 "c:\\users\\administrator\\.huawei-liteos-studio\\tools\\arm-none-eabi\\arm-none-eabi\\inc
 628              		.file 7 "d:/LiteOS_Lab/iot_link/os/liteos/include/los_typedef.h"
 629              		.file 8 "c:\\users\\administrator\\.huawei-liteos-studio\\tools\\arm-none-eabi\\arm-none-eabi\\inc
 630              		.file 9 "d:/LiteOS_Lab/iot_link/os/liteos/arch/arm/common/cmsis/core_cm4.h"
 631              		.file 10 "d:/LiteOS_Lab/targets/STM32L431VCT6_Bossay/Inc/system_stm32l4xx.h"
 632              		.file 11 "d:/LiteOS_Lab/targets/STM32L431VCT6_Bossay/Inc/stm32l431xx.h"
 633              		.file 12 "d:/LiteOS_Lab/iot_link/os/liteos/include/los_config.h"
 634              		.file 13 "d:/LiteOS_Lab/iot_link/os/liteos/include/los_err.h"
 635              		.file 14 "d:/LiteOS_Lab/iot_link/os/liteos/arch/arm/arm-m/include/los_hwi.h"
 636              		.file 15 "d:/LiteOS_Lab/drivers/third_party/ST/STM32L4xx_HAL_Driver/Inc/stm32l4xx_hal_def.h"
 637              		.file 16 "d:/LiteOS_Lab/drivers/third_party/ST/STM32L4xx_HAL_Driver/Inc/stm32l4xx_hal_dma.h"
 638              		.file 17 "d:/LiteOS_Lab/drivers/third_party/ST/STM32L4xx_HAL_Driver/Inc/stm32l4xx_hal_i2c.h"
ARM GAS  C:\Users\ADMINI~1\AppData\Local\Temp\ccQX2vwO.s 			page 18

