GAS LISTING /tmp/ccoF6jRD.s 			page 1


   1              		.file	"oc_mqtt_demo.c"
   2              		.text
   3              	.Ltext0:
   4              		.section	.bss.s_queue_rcvmsg,"aw",@nobits
   5              		.align 8
   8              	s_queue_rcvmsg:
   9 0000 00000000 		.zero	8
   9      00000000 
  10              		.section	.bss.s_device_service,"aw",@nobits
  11              		.align 32
  14              	s_device_service:
  15 0000 00000000 		.zero	32
  15      00000000 
  15      00000000 
  15      00000000 
  15      00000000 
  16              		.section	.rodata.g_data_msg,"a"
  17              		.align 32
  20              	g_data_msg:
  21 0000 202D2D2D 		.ascii	" -----BEGIN CERTIFICATE-----\r\nMIIDrzCCApegAwIBAgIQCDvgVpBC"
  21      2D2D4245 
  21      47494E20 
  21      43455254 
  21      49464943 
  22 003a 52724768 		.ascii	"RrGhdWrJWZHHSjANBgkqhkiG9w0BAQUFADBh\r\nMQswCQYDVQQGEwJVUzEV"
  22      6457724A 
  22      575A4848 
  22      536A414E 
  22      42676B71 
  23 0074 4D424D47 		.ascii	"MBMGA1UEChMMRGlnaUNlcnQgSW5jMRkwFwYDVQQLExB3\r\nd3cuZGlnaWNl"
  23      41315545 
  23      43684D4D 
  23      52476C6E 
  23      61554E6C 
  24 00ae 636E5175 		.ascii	"cnQuY29tMSAwHgYDVQQDExdEaWdpQ2VydCBHbG9iYWwgUm9vdCBD\r\nQTAe"
  24      59323974 
  24      4D534177 
  24      48675944 
  24      56515144 
  25 00e8 46773077 		.ascii	"Fw0wNjExMTAwMDAwMDBaFw0zMTExMTAwMDAwMDBaMGExCzAJBgNVBAYTAlVT"
  25      4E6A4578 
  25      4D544177 
  25      4D444177 
  25      4D444261 
  26 0124 0D0A4D52 		.ascii	"\r\nMRUwEwYDVQQKEwxEaWdpQ2VydCBJbmMxGTAXBgNVBAsTEHd3dy5kaWdp"
  26      55774577 
  26      59445651 
  26      514B4577 
  26      78456157 
  27 015e 59325679 		.ascii	"Y2VydC5j\r\nb20xIDAeBgNVBAMTF0RpZ2lDZXJ0IEdsb2JhbCBSb290IENB"
  27      6443356A 
  27      0D0A6232 
  27      30784944 
  27      41654267 
  28 0198 4D494942 		.ascii	"MIIBIjANBgkqhkiG\r\n9w0BAQEFAAOCAQ8AMIIBCgKCAQEA4jvhEXLeqKTT"
  28      496A414E 
  28      42676B71 
GAS LISTING /tmp/ccoF6jRD.s 			page 2


  28      686B6947 
  28      0D0A3977 
  29 01d2 6F316571 		.ascii	"o1eqUKKPC3eQyaKl7hLOllsB\r\nCSDMAZOnTjC3U/dDxGkAV53ijSLdhwZA"
  29      554B4B50 
  29      43336551 
  29      79614B6C 
  29      37684C4F 
  30 020c 4149454A 		.ascii	"AIEJzs4bg7/fzTtxRuLWZscFs3YnFo97\r\nnh6Vfe63SKMI2tavegw5BmV/"
  30      7A733462 
  30      67372F66 
  30      7A547478 
  30      52754C57 
  31 0246 536C3066 		.ascii	"Sl0fvBf4q77uKNd0f3p4mVmFaG5cIzJLv07A6Fpt\r\n43C/dxC//AH2hdmo"
  31      76426634 
  31      71373775 
  31      4B4E6430 
  31      66337034 
  32 0280 52424259 		.ascii	"RBBYMql1GNXRor5H4idq9Joz+EkIYIvUX7Q6hL+hqkpMfT7P\r\nT19sdl6g"
  32      4D716C31 
  32      474E5852 
  32      6F723548 
  32      34696471 
  33 02ba 537A6552 		.ascii	"SzeRntwi5m3OFBqOasv+zbMUZBfHWymeMr/y7vrTC0LUq7dBMtoM1O/4\r\n"
  33      6E747769 
  33      356D334F 
  33      4642714F 
  33      6173762B 
  34 02f4 67645737 		.ascii	"gdW7jVg/tRvoSSiicNoxBN33shbyTApOB6jtSj1etX+jkMOvJwIDAQABo2Mw"
  34      6A56672F 
  34      7452766F 
  34      53536969 
  34      634E6F78 
  35 0330 5954414F 		.ascii	"YTAO\r\nBgNVHQ8BAf8EBAMCAYYwDwYDVR0TAQH/BAUwAwEB/zAdBgNVHQ4E"
  35      0D0A4267 
  35      4E564851 
  35      38424166 
  35      38454241 
  36 036a 46675155 		.ascii	"FgQUA95QNVbR\r\nTLtm8KPiGxvDl7I90VUwHwYDVR0jBBgwFoAUA95QNVbR"
  36      41393551 
  36      4E566252 
  36      0D0A544C 
  36      746D384B 
  37 03a4 544C746D 		.ascii	"TLtm8KPiGxvDl7I90VUw\r\nDQYJKoZIhvcNAQEFBQADggEBAMucN6pIExIK"
  37      384B5069 
  37      47787644 
  37      6C374939 
  37      30565577 
  38 03de 2B743145 		.ascii	"+t1EnE9SsPTfrgT1eXkIoyQY/Esr\r\nhMAtudXH/vTBH1jLuG2cenTnmCmr"
  38      6E453953 
  38      73505466 
  38      72675431 
  38      65586B49 
  39 0418 4562586A 		.ascii	"EbXjcKChzUyImZOMkXDiqw8cvpOp/2PV5Adg\r\n06O/nVsJ8dWO41P0jmP"
  39      634B4368 
  39      7A557949 
  39      6D5A4F4D 
  39      6B584469 
GAS LISTING /tmp/ccoF6jRD.s 			page 3


  40 0451 36503666 		.string	"6P6fbtGbfYmbW0W5BjfIttep3Sp+dWOIrWcBAI+0tKIJF\r\nPnlUkiaY4IBIqDfv8NZ5YBberOgOzW6sRBc4L0na
  40      62744762 
  40      66596D62 
  40      57305735 
  40      426A6649 
  41              		.section	.rodata
  42              	.LC0:
  43 0000 4E554C4C 		.string	"NULL"
  43      00
  44 0005 000000   		.align 8
  45              	.LC1:
  46 0008 5243564D 		.string	"RCVMSG:type:%d reuqestID:%s payloadlen:%d payload:%s\n\r"
  46      53473A74 
  46      7970653A 
  46      25642072 
  46      65757165 
  47              		.section	.text.app_msg_deal,"ax",@progbits
  49              	app_msg_deal:
  50              	.LFB0:
  51              		.file 1 "/home/xingli/share/LiteOS_Lab/oc/oc_mqtt/oc_mqtt_profile_v5/oc_mqtt_demo.c"
   1:/home/xingli/share/LiteOS_Lab/oc/oc_mqtt/oc_mqtt_profile_v5/oc_mqtt_demo.c **** /* ----------------------------------------------------------------------------
   2:/home/xingli/share/LiteOS_Lab/oc/oc_mqtt/oc_mqtt_profile_v5/oc_mqtt_demo.c ****  * Copyright (c) <2018>, <Huawei Technologies Co., Ltd>
   3:/home/xingli/share/LiteOS_Lab/oc/oc_mqtt/oc_mqtt_profile_v5/oc_mqtt_demo.c ****  * All rights reserved.
   4:/home/xingli/share/LiteOS_Lab/oc/oc_mqtt/oc_mqtt_profile_v5/oc_mqtt_demo.c ****  * Redistribution and use in source and binary forms, with or without modification,
   5:/home/xingli/share/LiteOS_Lab/oc/oc_mqtt/oc_mqtt_profile_v5/oc_mqtt_demo.c ****  * are permitted provided that the following conditions are met:
   6:/home/xingli/share/LiteOS_Lab/oc/oc_mqtt/oc_mqtt_profile_v5/oc_mqtt_demo.c ****  * 1. Redistributions of source code must retain the above copyright notice, this list of
   7:/home/xingli/share/LiteOS_Lab/oc/oc_mqtt/oc_mqtt_profile_v5/oc_mqtt_demo.c ****  * conditions and the following disclaimer.
   8:/home/xingli/share/LiteOS_Lab/oc/oc_mqtt/oc_mqtt_profile_v5/oc_mqtt_demo.c ****  * 2. Redistributions in binary form must reproduce the above copyright notice, this list
   9:/home/xingli/share/LiteOS_Lab/oc/oc_mqtt/oc_mqtt_profile_v5/oc_mqtt_demo.c ****  * of conditions and the following disclaimer in the documentation and/or other materials
  10:/home/xingli/share/LiteOS_Lab/oc/oc_mqtt/oc_mqtt_profile_v5/oc_mqtt_demo.c ****  * provided with the distribution.
  11:/home/xingli/share/LiteOS_Lab/oc/oc_mqtt/oc_mqtt_profile_v5/oc_mqtt_demo.c ****  * 3. Neither the name of the copyright holder nor the names of its contributors may be used
  12:/home/xingli/share/LiteOS_Lab/oc/oc_mqtt/oc_mqtt_profile_v5/oc_mqtt_demo.c ****  * to endorse or promote products derived from this software without specific prior written
  13:/home/xingli/share/LiteOS_Lab/oc/oc_mqtt/oc_mqtt_profile_v5/oc_mqtt_demo.c ****  * permission.
  14:/home/xingli/share/LiteOS_Lab/oc/oc_mqtt/oc_mqtt_profile_v5/oc_mqtt_demo.c ****  * THIS SOFTWARE IS PROVIDED BY THE COPYRIGHT HOLDERS AND CONTRIBUTORS
  15:/home/xingli/share/LiteOS_Lab/oc/oc_mqtt/oc_mqtt_profile_v5/oc_mqtt_demo.c ****  * "AS IS" AND ANY EXPRESS OR IMPLIED WARRANTIES, INCLUDING, BUT NOT LIMITED TO,
  16:/home/xingli/share/LiteOS_Lab/oc/oc_mqtt/oc_mqtt_profile_v5/oc_mqtt_demo.c ****  * THE IMPLIED WARRANTIES OF MERCHANTABILITY AND FITNESS FOR A PARTICULAR
  17:/home/xingli/share/LiteOS_Lab/oc/oc_mqtt/oc_mqtt_profile_v5/oc_mqtt_demo.c ****  * PURPOSE ARE DISCLAIMED. IN NO EVENT SHALL THE COPYRIGHT HOLDER OR
  18:/home/xingli/share/LiteOS_Lab/oc/oc_mqtt/oc_mqtt_profile_v5/oc_mqtt_demo.c ****  * CONTRIBUTORS BE LIABLE FOR ANY DIRECT, INDIRECT, INCIDENTAL, SPECIAL,
  19:/home/xingli/share/LiteOS_Lab/oc/oc_mqtt/oc_mqtt_profile_v5/oc_mqtt_demo.c ****  * EXEMPLARY, OR CONSEQUENTIAL DAMAGES (INCLUDING, BUT NOT LIMITED TO,
  20:/home/xingli/share/LiteOS_Lab/oc/oc_mqtt/oc_mqtt_profile_v5/oc_mqtt_demo.c ****  * PROCUREMENT OF SUBSTITUTE GOODS OR SERVICES; LOSS OF USE, DATA, OR PROFITS;
  21:/home/xingli/share/LiteOS_Lab/oc/oc_mqtt/oc_mqtt_profile_v5/oc_mqtt_demo.c ****  * OR BUSINESS INTERRUPTION) HOWEVER CAUSED AND ON ANY THEORY OF LIABILITY,
  22:/home/xingli/share/LiteOS_Lab/oc/oc_mqtt/oc_mqtt_profile_v5/oc_mqtt_demo.c ****  * WHETHER IN CONTRACT, STRICT LIABILITY, OR TORT (INCLUDING NEGLIGENCE OR
  23:/home/xingli/share/LiteOS_Lab/oc/oc_mqtt/oc_mqtt_profile_v5/oc_mqtt_demo.c ****  * OTHERWISE) ARISING IN ANY WAY OUT OF THE USE OF THIS SOFTWARE, EVEN IF
  24:/home/xingli/share/LiteOS_Lab/oc/oc_mqtt/oc_mqtt_profile_v5/oc_mqtt_demo.c ****  * ADVISED OF THE POSSIBILITY OF SUCH DAMAGE.
  25:/home/xingli/share/LiteOS_Lab/oc/oc_mqtt/oc_mqtt_profile_v5/oc_mqtt_demo.c ****  * --------------------------------------------------------------------------- */
  26:/home/xingli/share/LiteOS_Lab/oc/oc_mqtt/oc_mqtt_profile_v5/oc_mqtt_demo.c **** /* ----------------------------------------------------------------------------
  27:/home/xingli/share/LiteOS_Lab/oc/oc_mqtt/oc_mqtt_profile_v5/oc_mqtt_demo.c ****  * Notice of Export Control Law
  28:/home/xingli/share/LiteOS_Lab/oc/oc_mqtt/oc_mqtt_profile_v5/oc_mqtt_demo.c ****  * ===============================================
  29:/home/xingli/share/LiteOS_Lab/oc/oc_mqtt/oc_mqtt_profile_v5/oc_mqtt_demo.c ****  * Huawei LiteOS may be subject to applicable export control laws and regulations, which might
  30:/home/xingli/share/LiteOS_Lab/oc/oc_mqtt/oc_mqtt_profile_v5/oc_mqtt_demo.c ****  * include those applicable to Huawei LiteOS of U.S. and the country in which you are located.
  31:/home/xingli/share/LiteOS_Lab/oc/oc_mqtt/oc_mqtt_profile_v5/oc_mqtt_demo.c ****  * Import, export and usage of Huawei LiteOS in any manner by you shall be in compliance with such
  32:/home/xingli/share/LiteOS_Lab/oc/oc_mqtt/oc_mqtt_profile_v5/oc_mqtt_demo.c ****  * applicable export control laws and regulations.
  33:/home/xingli/share/LiteOS_Lab/oc/oc_mqtt/oc_mqtt_profile_v5/oc_mqtt_demo.c ****  * --------------------------------------------------------------------------- */
  34:/home/xingli/share/LiteOS_Lab/oc/oc_mqtt/oc_mqtt_profile_v5/oc_mqtt_demo.c **** 
  35:/home/xingli/share/LiteOS_Lab/oc/oc_mqtt/oc_mqtt_profile_v5/oc_mqtt_demo.c **** #include <stdint.h>
  36:/home/xingli/share/LiteOS_Lab/oc/oc_mqtt/oc_mqtt_profile_v5/oc_mqtt_demo.c **** #include <stddef.h>
  37:/home/xingli/share/LiteOS_Lab/oc/oc_mqtt/oc_mqtt_profile_v5/oc_mqtt_demo.c **** #include <stdio.h>
GAS LISTING /tmp/ccoF6jRD.s 			page 4


  38:/home/xingli/share/LiteOS_Lab/oc/oc_mqtt/oc_mqtt_profile_v5/oc_mqtt_demo.c **** #include <string.h>
  39:/home/xingli/share/LiteOS_Lab/oc/oc_mqtt/oc_mqtt_profile_v5/oc_mqtt_demo.c **** #include "iot_link_config.h"
  40:/home/xingli/share/LiteOS_Lab/oc/oc_mqtt/oc_mqtt_profile_v5/oc_mqtt_demo.c **** #include "queue.h"
  41:/home/xingli/share/LiteOS_Lab/oc/oc_mqtt/oc_mqtt_profile_v5/oc_mqtt_demo.c **** #include "oc_mqtt_al.h"
  42:/home/xingli/share/LiteOS_Lab/oc/oc_mqtt/oc_mqtt_profile_v5/oc_mqtt_demo.c **** #include "oc_mqtt_profile.h"
  43:/home/xingli/share/LiteOS_Lab/oc/oc_mqtt/oc_mqtt_profile_v5/oc_mqtt_demo.c **** 
  44:/home/xingli/share/LiteOS_Lab/oc/oc_mqtt/oc_mqtt_profile_v5/oc_mqtt_demo.c **** // /< TAKE CARES:
  45:/home/xingli/share/LiteOS_Lab/oc/oc_mqtt/oc_mqtt_profile_v5/oc_mqtt_demo.c **** // /< 1, for the MCU has weak compute ability, and the new CERT FILE of platform is very big, so sh
  46:/home/xingli/share/LiteOS_Lab/oc/oc_mqtt/oc_mqtt_profile_v5/oc_mqtt_demo.c **** // the MCUS
  47:/home/xingli/share/LiteOS_Lab/oc/oc_mqtt/oc_mqtt_profile_v5/oc_mqtt_demo.c **** // /< 2, please modify the deviceID and passwd, and make sure that they match with the IoT platform
  48:/home/xingli/share/LiteOS_Lab/oc/oc_mqtt/oc_mqtt_profile_v5/oc_mqtt_demo.c **** 
  49:/home/xingli/share/LiteOS_Lab/oc/oc_mqtt/oc_mqtt_profile_v5/oc_mqtt_demo.c **** #ifdef CONFIG_OC_MQTTV5_BS_ENABLE
  50:/home/xingli/share/LiteOS_Lab/oc/oc_mqtt/oc_mqtt_profile_v5/oc_mqtt_demo.c **** #define CN_SERVER_IPV4 "iot-bs.cn-north-4.myhuaweicloud.com"
  51:/home/xingli/share/LiteOS_Lab/oc/oc_mqtt/oc_mqtt_profile_v5/oc_mqtt_demo.c **** // #define CN_SERVER_IPV4         "119.3.251.30"
  52:/home/xingli/share/LiteOS_Lab/oc/oc_mqtt/oc_mqtt_profile_v5/oc_mqtt_demo.c **** #define CN_BOOT_MODE 1
  53:/home/xingli/share/LiteOS_Lab/oc/oc_mqtt/oc_mqtt_profile_v5/oc_mqtt_demo.c **** #else
  54:/home/xingli/share/LiteOS_Lab/oc/oc_mqtt/oc_mqtt_profile_v5/oc_mqtt_demo.c **** // #define CN_SERVER_IPV4       "iot-mqtts.cn-north-4.myhuaweicloud.com"
  55:/home/xingli/share/LiteOS_Lab/oc/oc_mqtt/oc_mqtt_profile_v5/oc_mqtt_demo.c **** #define CN_SERVER_IPV4 "121.36.42.100"
  56:/home/xingli/share/LiteOS_Lab/oc/oc_mqtt/oc_mqtt_profile_v5/oc_mqtt_demo.c **** #define CN_BOOT_MODE 0
  57:/home/xingli/share/LiteOS_Lab/oc/oc_mqtt/oc_mqtt_profile_v5/oc_mqtt_demo.c **** #endif
  58:/home/xingli/share/LiteOS_Lab/oc/oc_mqtt/oc_mqtt_profile_v5/oc_mqtt_demo.c **** 
  59:/home/xingli/share/LiteOS_Lab/oc/oc_mqtt/oc_mqtt_profile_v5/oc_mqtt_demo.c **** #ifdef CONFIG_OC_MQTTV5_DEMO_TLS
  60:/home/xingli/share/LiteOS_Lab/oc/oc_mqtt/oc_mqtt_profile_v5/oc_mqtt_demo.c **** #define CN_SERVER_PORT "8883"
  61:/home/xingli/share/LiteOS_Lab/oc/oc_mqtt/oc_mqtt_profile_v5/oc_mqtt_demo.c **** #define CN_SECURITY_TYPE EN_DTLS_AL_SECURITY_TYPE_CERT
  62:/home/xingli/share/LiteOS_Lab/oc/oc_mqtt/oc_mqtt_profile_v5/oc_mqtt_demo.c **** // /< server key
  63:/home/xingli/share/LiteOS_Lab/oc/oc_mqtt/oc_mqtt_profile_v5/oc_mqtt_demo.c **** static const char s_server_ca[] = " -----BEGIN CERTIFICATE-----\r\n"
  64:/home/xingli/share/LiteOS_Lab/oc/oc_mqtt/oc_mqtt_profile_v5/oc_mqtt_demo.c ****     "MIIDrzCCApegAwIBAgIQCDvgVpBCRrGhdWrJWZHHSjANBgkqhkiG9w0BAQUFADBh\r\n"
  65:/home/xingli/share/LiteOS_Lab/oc/oc_mqtt/oc_mqtt_profile_v5/oc_mqtt_demo.c ****     "MQswCQYDVQQGEwJVUzEVMBMGA1UEChMMRGlnaUNlcnQgSW5jMRkwFwYDVQQLExB3\r\n"
  66:/home/xingli/share/LiteOS_Lab/oc/oc_mqtt/oc_mqtt_profile_v5/oc_mqtt_demo.c ****     "d3cuZGlnaWNlcnQuY29tMSAwHgYDVQQDExdEaWdpQ2VydCBHbG9iYWwgUm9vdCBD\r\n"
  67:/home/xingli/share/LiteOS_Lab/oc/oc_mqtt/oc_mqtt_profile_v5/oc_mqtt_demo.c ****     "QTAeFw0wNjExMTAwMDAwMDBaFw0zMTExMTAwMDAwMDBaMGExCzAJBgNVBAYTAlVT\r\n"
  68:/home/xingli/share/LiteOS_Lab/oc/oc_mqtt/oc_mqtt_profile_v5/oc_mqtt_demo.c ****     "MRUwEwYDVQQKEwxEaWdpQ2VydCBJbmMxGTAXBgNVBAsTEHd3dy5kaWdpY2VydC5j\r\n"
  69:/home/xingli/share/LiteOS_Lab/oc/oc_mqtt/oc_mqtt_profile_v5/oc_mqtt_demo.c ****     "b20xIDAeBgNVBAMTF0RpZ2lDZXJ0IEdsb2JhbCBSb290IENBMIIBIjANBgkqhkiG\r\n"
  70:/home/xingli/share/LiteOS_Lab/oc/oc_mqtt/oc_mqtt_profile_v5/oc_mqtt_demo.c ****     "9w0BAQEFAAOCAQ8AMIIBCgKCAQEA4jvhEXLeqKTTo1eqUKKPC3eQyaKl7hLOllsB\r\n"
  71:/home/xingli/share/LiteOS_Lab/oc/oc_mqtt/oc_mqtt_profile_v5/oc_mqtt_demo.c ****     "CSDMAZOnTjC3U/dDxGkAV53ijSLdhwZAAIEJzs4bg7/fzTtxRuLWZscFs3YnFo97\r\n"
  72:/home/xingli/share/LiteOS_Lab/oc/oc_mqtt/oc_mqtt_profile_v5/oc_mqtt_demo.c ****     "nh6Vfe63SKMI2tavegw5BmV/Sl0fvBf4q77uKNd0f3p4mVmFaG5cIzJLv07A6Fpt\r\n"
  73:/home/xingli/share/LiteOS_Lab/oc/oc_mqtt/oc_mqtt_profile_v5/oc_mqtt_demo.c ****     "43C/dxC//AH2hdmoRBBYMql1GNXRor5H4idq9Joz+EkIYIvUX7Q6hL+hqkpMfT7P\r\n"
  74:/home/xingli/share/LiteOS_Lab/oc/oc_mqtt/oc_mqtt_profile_v5/oc_mqtt_demo.c ****     "T19sdl6gSzeRntwi5m3OFBqOasv+zbMUZBfHWymeMr/y7vrTC0LUq7dBMtoM1O/4\r\n"
  75:/home/xingli/share/LiteOS_Lab/oc/oc_mqtt/oc_mqtt_profile_v5/oc_mqtt_demo.c ****     "gdW7jVg/tRvoSSiicNoxBN33shbyTApOB6jtSj1etX+jkMOvJwIDAQABo2MwYTAO\r\n"
  76:/home/xingli/share/LiteOS_Lab/oc/oc_mqtt/oc_mqtt_profile_v5/oc_mqtt_demo.c ****     "BgNVHQ8BAf8EBAMCAYYwDwYDVR0TAQH/BAUwAwEB/zAdBgNVHQ4EFgQUA95QNVbR\r\n"
  77:/home/xingli/share/LiteOS_Lab/oc/oc_mqtt/oc_mqtt_profile_v5/oc_mqtt_demo.c ****     "TLtm8KPiGxvDl7I90VUwHwYDVR0jBBgwFoAUA95QNVbRTLtm8KPiGxvDl7I90VUw\r\n"
  78:/home/xingli/share/LiteOS_Lab/oc/oc_mqtt/oc_mqtt_profile_v5/oc_mqtt_demo.c ****     "DQYJKoZIhvcNAQEFBQADggEBAMucN6pIExIK+t1EnE9SsPTfrgT1eXkIoyQY/Esr\r\n"
  79:/home/xingli/share/LiteOS_Lab/oc/oc_mqtt/oc_mqtt_profile_v5/oc_mqtt_demo.c ****     "hMAtudXH/vTBH1jLuG2cenTnmCmrEbXjcKChzUyImZOMkXDiqw8cvpOp/2PV5Adg\r\n"
  80:/home/xingli/share/LiteOS_Lab/oc/oc_mqtt/oc_mqtt_profile_v5/oc_mqtt_demo.c ****     "06O/nVsJ8dWO41P0jmP6P6fbtGbfYmbW0W5BjfIttep3Sp+dWOIrWcBAI+0tKIJF\r\n"
  81:/home/xingli/share/LiteOS_Lab/oc/oc_mqtt/oc_mqtt_profile_v5/oc_mqtt_demo.c ****     "PnlUkiaY4IBIqDfv8NZ5YBberOgOzW6sRBc4L0na4UU+Krk2U886UAb3LujEV0ls\r\n"
  82:/home/xingli/share/LiteOS_Lab/oc/oc_mqtt/oc_mqtt_profile_v5/oc_mqtt_demo.c ****     "YSEY1QSteDwsOoBrp+uvFRTp2InBuThs4pFsiv9kuXclVzDAGySj4dzp30d8tbQk\r\n"
  83:/home/xingli/share/LiteOS_Lab/oc/oc_mqtt/oc_mqtt_profile_v5/oc_mqtt_demo.c ****     "CAUw7C29C79Fv1C5qfPrmAESrciIxpg0X40KPMbp1ZWVbd4=\r\n"
  84:/home/xingli/share/LiteOS_Lab/oc/oc_mqtt/oc_mqtt_profile_v5/oc_mqtt_demo.c ****     "-----END CERTIFICATE-----\r\n";
  85:/home/xingli/share/LiteOS_Lab/oc/oc_mqtt/oc_mqtt_profile_v5/oc_mqtt_demo.c **** 
  86:/home/xingli/share/LiteOS_Lab/oc/oc_mqtt/oc_mqtt_profile_v5/oc_mqtt_demo.c **** #ifdef CONFIG_OC_MQTTV5_TLS_BIDIRECTION
  87:/home/xingli/share/LiteOS_Lab/oc/oc_mqtt/oc_mqtt_profile_v5/oc_mqtt_demo.c **** 
  88:/home/xingli/share/LiteOS_Lab/oc/oc_mqtt/oc_mqtt_profile_v5/oc_mqtt_demo.c **** // /< the client use the cert mode  SHA-256
  89:/home/xingli/share/LiteOS_Lab/oc/oc_mqtt/oc_mqtt_profile_v5/oc_mqtt_demo.c **** // 72DC0E75D88CEC38A025E9C48C79D222F608B039D080BCEFC0007DAD1AFFAD00
  90:/home/xingli/share/LiteOS_Lab/oc/oc_mqtt/oc_mqtt_profile_v5/oc_mqtt_demo.c **** // 72dc0e7
  91:/home/xingli/share/LiteOS_Lab/oc/oc_mqtt/oc_mqtt_profile_v5/oc_mqtt_demo.c **** // /< bidirection  mqtt mode
  92:/home/xingli/share/LiteOS_Lab/oc/oc_mqtt/oc_mqtt_profile_v5/oc_mqtt_demo.c **** static const char s_client_ca[] = "-----BEGIN CERTIFICATE-----\r\n"
  93:/home/xingli/share/LiteOS_Lab/oc/oc_mqtt/oc_mqtt_profile_v5/oc_mqtt_demo.c ****     "MIICuDCCAaACCQDAnCoP3W+otTANBgkqhkiG9w0BAQsFADAdMQswCQYDVQQGEwJD\r\n"
  94:/home/xingli/share/LiteOS_Lab/oc/oc_mqtt/oc_mqtt_profile_v5/oc_mqtt_demo.c ****     "QTEOMAwGA1UEAwwFTVkgQ0EwHhcNMjAwMjE3MTEyNTA2WhcNMjEwMjExMTEyNTA2\r\n"
GAS LISTING /tmp/ccoF6jRD.s 			page 5


  95:/home/xingli/share/LiteOS_Lab/oc/oc_mqtt/oc_mqtt_profile_v5/oc_mqtt_demo.c ****     "WjAfMQswCQYDVQQGEwJDTjEQMA4GA1UEAwwHQ0xJRU5UMjCCASIwDQYJKoZIhvcN\r\n"
  96:/home/xingli/share/LiteOS_Lab/oc/oc_mqtt/oc_mqtt_profile_v5/oc_mqtt_demo.c ****     "AQEBBQADggEPADCCAQoCggEBALKOOfeq1QQnwLNsMboqr47ClO24sTd6oLiSjGYe\r\n"
  97:/home/xingli/share/LiteOS_Lab/oc/oc_mqtt/oc_mqtt_profile_v5/oc_mqtt_demo.c ****     "zb7IECnjiEg+sILEH5avi6uKdCR8QZHskIWdQbNqi2h0E01MTxuneTCnFaAdYh2z\r\n"
  98:/home/xingli/share/LiteOS_Lab/oc/oc_mqtt/oc_mqtt_profile_v5/oc_mqtt_demo.c ****     "B8n4IUsGr1gyCayfKCQG8ElDElBkB2JMce/IEuxJvnFdhXy6c9zhj8iU+fusD9hm\r\n"
  99:/home/xingli/share/LiteOS_Lab/oc/oc_mqtt/oc_mqtt_profile_v5/oc_mqtt_demo.c ****     "jvx34zd6Sn2uRl8wdI89pVwkESKyx6J5za/dBWCS0hxvOtDEY2gJA9av8BNYjTxQ\r\n"
 100:/home/xingli/share/LiteOS_Lab/oc/oc_mqtt/oc_mqtt_profile_v5/oc_mqtt_demo.c ****     "tRlwnxGzgaza8aA9LMbnRmv1bML98w4NgNHkVGUtw1eQso0unHnyEF1WhqEu0pLk\r\n"
 101:/home/xingli/share/LiteOS_Lab/oc/oc_mqtt/oc_mqtt_profile_v5/oc_mqtt_demo.c ****     "BJQbdO4s4ajQ1rOr7niVnCT99KtzJuWm3oymNdDT6BHsnn0CAwEAATANBgkqhkiG\r\n"
 102:/home/xingli/share/LiteOS_Lab/oc/oc_mqtt/oc_mqtt_profile_v5/oc_mqtt_demo.c ****     "9w0BAQsFAAOCAQEAPayFtS8du8D+mPdRU96vFqVpDx6oksGhrUIO+3GZ4ruuHjtf\r\n"
 103:/home/xingli/share/LiteOS_Lab/oc/oc_mqtt/oc_mqtt_profile_v5/oc_mqtt_demo.c ****     "A764y6zD1/LxQVw15xN44G+AqUwEi/BZszQ+5rSitwqoZFciKMblaqd0ZJSG6G2d\r\n"
 104:/home/xingli/share/LiteOS_Lab/oc/oc_mqtt/oc_mqtt_profile_v5/oc_mqtt_demo.c ****     "Cqyl87cTL6Tlgpa5cBka4ksaMs2OVU9x1aaNnejrTbX2PvZO7o/pVVimQE8Yh+1J\r\n"
 105:/home/xingli/share/LiteOS_Lab/oc/oc_mqtt/oc_mqtt_profile_v5/oc_mqtt_demo.c ****     "k2D26hg9UoWN4Z3/9LdGC3y4dsmtuQS+Cye61ZfHtT3/XjTRjl9/c+xKtVsQpE6g\r\n"
 106:/home/xingli/share/LiteOS_Lab/oc/oc_mqtt/oc_mqtt_profile_v5/oc_mqtt_demo.c ****     "dpaGVxWpFUCpGe4POrNHjOOAXaFiCHP7o9Kab1UnxuFVKHCtNT9wdJ7v8puCliwB\r\n"
 107:/home/xingli/share/LiteOS_Lab/oc/oc_mqtt/oc_mqtt_profile_v5/oc_mqtt_demo.c ****     "t40h9oegMyUYL/VG+14wOYgEPuCeGqqilht+4w==\r\n"
 108:/home/xingli/share/LiteOS_Lab/oc/oc_mqtt/oc_mqtt_profile_v5/oc_mqtt_demo.c ****     "-----END CERTIFICATE-----\r\n";
 109:/home/xingli/share/LiteOS_Lab/oc/oc_mqtt/oc_mqtt_profile_v5/oc_mqtt_demo.c **** static const char s_client_pk[] = "-----BEGIN PRIVATE KEY-----\r\n"
 110:/home/xingli/share/LiteOS_Lab/oc/oc_mqtt/oc_mqtt_profile_v5/oc_mqtt_demo.c ****     "MIIEvAIBADANBgkqhkiG9w0BAQEFAASCBKYwggSiAgEAAoIBAQCyjjn3qtUEJ8Cz\r\n"
 111:/home/xingli/share/LiteOS_Lab/oc/oc_mqtt/oc_mqtt_profile_v5/oc_mqtt_demo.c ****     "bDG6Kq+OwpTtuLE3eqC4koxmHs2+yBAp44hIPrCCxB+Wr4urinQkfEGR7JCFnUGz\r\n"
 112:/home/xingli/share/LiteOS_Lab/oc/oc_mqtt/oc_mqtt_profile_v5/oc_mqtt_demo.c ****     "aotodBNNTE8bp3kwpxWgHWIdswfJ+CFLBq9YMgmsnygkBvBJQxJQZAdiTHHvyBLs\r\n"
 113:/home/xingli/share/LiteOS_Lab/oc/oc_mqtt/oc_mqtt_profile_v5/oc_mqtt_demo.c ****     "Sb5xXYV8unPc4Y/IlPn7rA/YZo78d+M3ekp9rkZfMHSPPaVcJBEisseiec2v3QVg\r\n"
 114:/home/xingli/share/LiteOS_Lab/oc/oc_mqtt/oc_mqtt_profile_v5/oc_mqtt_demo.c ****     "ktIcbzrQxGNoCQPWr/ATWI08ULUZcJ8Rs4Gs2vGgPSzG50Zr9WzC/fMODYDR5FRl\r\n"
 115:/home/xingli/share/LiteOS_Lab/oc/oc_mqtt/oc_mqtt_profile_v5/oc_mqtt_demo.c ****     "LcNXkLKNLpx58hBdVoahLtKS5ASUG3TuLOGo0Nazq+54lZwk/fSrcyblpt6MpjXQ\r\n"
 116:/home/xingli/share/LiteOS_Lab/oc/oc_mqtt/oc_mqtt_profile_v5/oc_mqtt_demo.c ****     "0+gR7J59AgMBAAECggEAFbjx2myhD6laazmdbx2kUATiI22Vub8kcG/7vqy+sRgb\r\n"
 117:/home/xingli/share/LiteOS_Lab/oc/oc_mqtt/oc_mqtt_profile_v5/oc_mqtt_demo.c ****     "x0zUFp3x0WbUxPtETbFBYfLv8zXJe0ffZ1lt7l44vu2qrh2Yw89/9QO+HQjbyLl0\r\n"
 118:/home/xingli/share/LiteOS_Lab/oc/oc_mqtt/oc_mqtt_profile_v5/oc_mqtt_demo.c ****     "K3F7wYoM3UBbnM5vSypqvvb8YvwT3G0FyFNMZPRQuhTg5Z1XZbqiEvki0Fvhx1sG\r\n"
 119:/home/xingli/share/LiteOS_Lab/oc/oc_mqtt/oc_mqtt_profile_v5/oc_mqtt_demo.c ****     "bksCKK85dPaH/7kXxMTPZ67/2Z3TlwUERo1YSPRnrQXGnDowudLqQjn8ptiPfO39\r\n"
 120:/home/xingli/share/LiteOS_Lab/oc/oc_mqtt/oc_mqtt_profile_v5/oc_mqtt_demo.c ****     "bIMQhM/HI1bTw4F5EevL7sS4rcnhpmQNU6ZeINPvYuel+hP36uPwTHMm1hkZbMgP\r\n"
 121:/home/xingli/share/LiteOS_Lab/oc/oc_mqtt/oc_mqtt_profile_v5/oc_mqtt_demo.c ****     "a69Yk8/meENffl9fQ+T8woYMGgKq0DM+O5ip7QzrLQKBgQDdvwI/9npuwpYkdjWT\r\n"
 122:/home/xingli/share/LiteOS_Lab/oc/oc_mqtt/oc_mqtt_profile_v5/oc_mqtt_demo.c ****     "tLj5BKFNINjn+TjyvN1QQmOhXqzTy1y9HVm7EYh1l0H5PY/WgYadBWNYabgNSIe0\r\n"
 123:/home/xingli/share/LiteOS_Lab/oc/oc_mqtt/oc_mqtt_profile_v5/oc_mqtt_demo.c ****     "vxl7tdDxDX4DBQqDIIEY45sPa3glq6flCgtPzkZxcYTvZpqmdX8/iMYGXHpdOMdm\r\n"
 124:/home/xingli/share/LiteOS_Lab/oc/oc_mqtt/oc_mqtt_profile_v5/oc_mqtt_demo.c ****     "S8jngobFDEgLxFS1lLLs+LtTTwKBgQDOIz08d2zMRX5AW0SkQ+VbdwcO7G5qlTJV\r\n"
 125:/home/xingli/share/LiteOS_Lab/oc/oc_mqtt/oc_mqtt_profile_v5/oc_mqtt_demo.c ****     "42Rf51Dmr0as/bX5eIWAAfcsEi/kG2e5Ozupe4BVZXarw7AL1bzE4mLvfcwZEUiJ\r\n"
 126:/home/xingli/share/LiteOS_Lab/oc/oc_mqtt/oc_mqtt_profile_v5/oc_mqtt_demo.c ****     "Qj56H6QTOiVm/DTZdBz415z60zjCui+59luev6txZBL51ZhoifzfdAfxd8ztucV+\r\n"
 127:/home/xingli/share/LiteOS_Lab/oc/oc_mqtt/oc_mqtt_profile_v5/oc_mqtt_demo.c ****     "mj3kytIucwKBgBSdporl0norsyPOrap+2dek+44dKK1geU/wCS9mDLc7AxxpwsR+\r\n"
 128:/home/xingli/share/LiteOS_Lab/oc/oc_mqtt/oc_mqtt_profile_v5/oc_mqtt_demo.c ****     "TxJaTfKIzoRqmc3amvZMQvE8WvU5Mgy225qpy7QtifKj7FdGlVoIBymG11PBQsnD\r\n"
 129:/home/xingli/share/LiteOS_Lab/oc/oc_mqtt/oc_mqtt_profile_v5/oc_mqtt_demo.c ****     "hku0JM51PGO5iVVChUMV5zs+K84w8jDriNElTHxTaPtXFH0RRxVLBrd3AoGAIYX1\r\n"
 130:/home/xingli/share/LiteOS_Lab/oc/oc_mqtt/oc_mqtt_profile_v5/oc_mqtt_demo.c ****     "lXnOhcHfcFPna9dm22MWEMU+h7LPxsv+LOKPc5SZp9Ry3alN/K1VJyOmCjCyw5rw\r\n"
 131:/home/xingli/share/LiteOS_Lab/oc/oc_mqtt/oc_mqtt_profile_v5/oc_mqtt_demo.c ****     "bvWYv0qK7BAc9y/BTTuL32rT4FfBNiFBy9aNdlsEbiUh6yNI+ucFrnzfRDvHOzTn\r\n"
 132:/home/xingli/share/LiteOS_Lab/oc/oc_mqtt/oc_mqtt_profile_v5/oc_mqtt_demo.c ****     "XX/KP9yIgXzNFmMqbqSODiTvfNGzXo1y91xMpiUCgYAfO+Xb5msOMABiBNGD85qr\r\n"
 133:/home/xingli/share/LiteOS_Lab/oc/oc_mqtt/oc_mqtt_profile_v5/oc_mqtt_demo.c ****     "C+0xpuWoPe4pB5ccgniv1zhPlUJ+8l1vWz/ZWnH/6oVxGGrq5xLtoBgFWM4uSseI\r\n"
 134:/home/xingli/share/LiteOS_Lab/oc/oc_mqtt/oc_mqtt_profile_v5/oc_mqtt_demo.c ****     "Je0fSqZp0XAbaFI7wkEV/uP6VMjjFT5TfJz4idgI+EaE72va2jbFBgg1MyfR3gx4\r\n"
 135:/home/xingli/share/LiteOS_Lab/oc/oc_mqtt/oc_mqtt_profile_v5/oc_mqtt_demo.c ****     "deaXc4ZpE64iV+eAtZ8VVQ==\r\n"
 136:/home/xingli/share/LiteOS_Lab/oc/oc_mqtt/oc_mqtt_profile_v5/oc_mqtt_demo.c ****     "-----END PRIVATE KEY-----\r\n";
 137:/home/xingli/share/LiteOS_Lab/oc/oc_mqtt/oc_mqtt_profile_v5/oc_mqtt_demo.c **** static const char *s_client_pk_pwd = "123456";
 138:/home/xingli/share/LiteOS_Lab/oc/oc_mqtt/oc_mqtt_profile_v5/oc_mqtt_demo.c **** #endif
 139:/home/xingli/share/LiteOS_Lab/oc/oc_mqtt/oc_mqtt_profile_v5/oc_mqtt_demo.c **** 
 140:/home/xingli/share/LiteOS_Lab/oc/oc_mqtt/oc_mqtt_profile_v5/oc_mqtt_demo.c **** #else
 141:/home/xingli/share/LiteOS_Lab/oc/oc_mqtt/oc_mqtt_profile_v5/oc_mqtt_demo.c **** #define CN_SERVER_PORT "1883"
 142:/home/xingli/share/LiteOS_Lab/oc/oc_mqtt/oc_mqtt_profile_v5/oc_mqtt_demo.c **** #define CN_SECURITY_TYPE EN_DTLS_AL_SECURITY_TYPE_NONE
 143:/home/xingli/share/LiteOS_Lab/oc/oc_mqtt/oc_mqtt_profile_v5/oc_mqtt_demo.c **** #endif
 144:/home/xingli/share/LiteOS_Lab/oc/oc_mqtt/oc_mqtt_profile_v5/oc_mqtt_demo.c **** 
 145:/home/xingli/share/LiteOS_Lab/oc/oc_mqtt/oc_mqtt_profile_v5/oc_mqtt_demo.c **** #ifndef CONFIG_OCMQTTV5_DEMO_REPORTCYCLE
 146:/home/xingli/share/LiteOS_Lab/oc/oc_mqtt/oc_mqtt_profile_v5/oc_mqtt_demo.c **** #define CONFIG_OCMQTTV5_DEMO_REPORTCYCLE 1000
 147:/home/xingli/share/LiteOS_Lab/oc/oc_mqtt/oc_mqtt_profile_v5/oc_mqtt_demo.c **** #endif
 148:/home/xingli/share/LiteOS_Lab/oc/oc_mqtt/oc_mqtt_profile_v5/oc_mqtt_demo.c **** 
 149:/home/xingli/share/LiteOS_Lab/oc/oc_mqtt/oc_mqtt_profile_v5/oc_mqtt_demo.c **** #define CN_EP_DEVICEID "5ecb90df65950b07183b58dd_dpmqtt003"
 150:/home/xingli/share/LiteOS_Lab/oc/oc_mqtt/oc_mqtt_profile_v5/oc_mqtt_demo.c **** #define CN_EP_PASSWD "f62fcf47d62c4ed18913"
 151:/home/xingli/share/LiteOS_Lab/oc/oc_mqtt/oc_mqtt_profile_v5/oc_mqtt_demo.c **** #define CN_LIFE_TIME 60                // /< the platform need more
GAS LISTING /tmp/ccoF6jRD.s 			page 6


 152:/home/xingli/share/LiteOS_Lab/oc/oc_mqtt/oc_mqtt_profile_v5/oc_mqtt_demo.c **** static queue_t *s_queue_rcvmsg = NULL; // /< this is used to cached the message
 153:/home/xingli/share/LiteOS_Lab/oc/oc_mqtt/oc_mqtt_profile_v5/oc_mqtt_demo.c **** static oc_mqtt_profile_service_t s_device_service;
 154:/home/xingli/share/LiteOS_Lab/oc/oc_mqtt/oc_mqtt_profile_v5/oc_mqtt_demo.c **** 
 155:/home/xingli/share/LiteOS_Lab/oc/oc_mqtt/oc_mqtt_profile_v5/oc_mqtt_demo.c **** static const char g_data_msg[] = " -----BEGIN CERTIFICATE-----\r\n"
 156:/home/xingli/share/LiteOS_Lab/oc/oc_mqtt/oc_mqtt_profile_v5/oc_mqtt_demo.c ****     "MIIDrzCCApegAwIBAgIQCDvgVpBCRrGhdWrJWZHHSjANBgkqhkiG9w0BAQUFADBh\r\n"
 157:/home/xingli/share/LiteOS_Lab/oc/oc_mqtt/oc_mqtt_profile_v5/oc_mqtt_demo.c ****     "MQswCQYDVQQGEwJVUzEVMBMGA1UEChMMRGlnaUNlcnQgSW5jMRkwFwYDVQQLExB3\r\n"
 158:/home/xingli/share/LiteOS_Lab/oc/oc_mqtt/oc_mqtt_profile_v5/oc_mqtt_demo.c ****     "d3cuZGlnaWNlcnQuY29tMSAwHgYDVQQDExdEaWdpQ2VydCBHbG9iYWwgUm9vdCBD\r\n"
 159:/home/xingli/share/LiteOS_Lab/oc/oc_mqtt/oc_mqtt_profile_v5/oc_mqtt_demo.c ****     "QTAeFw0wNjExMTAwMDAwMDBaFw0zMTExMTAwMDAwMDBaMGExCzAJBgNVBAYTAlVT\r\n"
 160:/home/xingli/share/LiteOS_Lab/oc/oc_mqtt/oc_mqtt_profile_v5/oc_mqtt_demo.c ****     "MRUwEwYDVQQKEwxEaWdpQ2VydCBJbmMxGTAXBgNVBAsTEHd3dy5kaWdpY2VydC5j\r\n"
 161:/home/xingli/share/LiteOS_Lab/oc/oc_mqtt/oc_mqtt_profile_v5/oc_mqtt_demo.c ****     "b20xIDAeBgNVBAMTF0RpZ2lDZXJ0IEdsb2JhbCBSb290IENBMIIBIjANBgkqhkiG\r\n"
 162:/home/xingli/share/LiteOS_Lab/oc/oc_mqtt/oc_mqtt_profile_v5/oc_mqtt_demo.c ****     "9w0BAQEFAAOCAQ8AMIIBCgKCAQEA4jvhEXLeqKTTo1eqUKKPC3eQyaKl7hLOllsB\r\n"
 163:/home/xingli/share/LiteOS_Lab/oc/oc_mqtt/oc_mqtt_profile_v5/oc_mqtt_demo.c ****     "CSDMAZOnTjC3U/dDxGkAV53ijSLdhwZAAIEJzs4bg7/fzTtxRuLWZscFs3YnFo97\r\n"
 164:/home/xingli/share/LiteOS_Lab/oc/oc_mqtt/oc_mqtt_profile_v5/oc_mqtt_demo.c ****     "nh6Vfe63SKMI2tavegw5BmV/Sl0fvBf4q77uKNd0f3p4mVmFaG5cIzJLv07A6Fpt\r\n"
 165:/home/xingli/share/LiteOS_Lab/oc/oc_mqtt/oc_mqtt_profile_v5/oc_mqtt_demo.c ****     "43C/dxC//AH2hdmoRBBYMql1GNXRor5H4idq9Joz+EkIYIvUX7Q6hL+hqkpMfT7P\r\n"
 166:/home/xingli/share/LiteOS_Lab/oc/oc_mqtt/oc_mqtt_profile_v5/oc_mqtt_demo.c ****     "T19sdl6gSzeRntwi5m3OFBqOasv+zbMUZBfHWymeMr/y7vrTC0LUq7dBMtoM1O/4\r\n"
 167:/home/xingli/share/LiteOS_Lab/oc/oc_mqtt/oc_mqtt_profile_v5/oc_mqtt_demo.c ****     "gdW7jVg/tRvoSSiicNoxBN33shbyTApOB6jtSj1etX+jkMOvJwIDAQABo2MwYTAO\r\n"
 168:/home/xingli/share/LiteOS_Lab/oc/oc_mqtt/oc_mqtt_profile_v5/oc_mqtt_demo.c ****     "BgNVHQ8BAf8EBAMCAYYwDwYDVR0TAQH/BAUwAwEB/zAdBgNVHQ4EFgQUA95QNVbR\r\n"
 169:/home/xingli/share/LiteOS_Lab/oc/oc_mqtt/oc_mqtt_profile_v5/oc_mqtt_demo.c ****     "TLtm8KPiGxvDl7I90VUwHwYDVR0jBBgwFoAUA95QNVbRTLtm8KPiGxvDl7I90VUw\r\n"
 170:/home/xingli/share/LiteOS_Lab/oc/oc_mqtt/oc_mqtt_profile_v5/oc_mqtt_demo.c ****     "DQYJKoZIhvcNAQEFBQADggEBAMucN6pIExIK+t1EnE9SsPTfrgT1eXkIoyQY/Esr\r\n"
 171:/home/xingli/share/LiteOS_Lab/oc/oc_mqtt/oc_mqtt_profile_v5/oc_mqtt_demo.c ****     "hMAtudXH/vTBH1jLuG2cenTnmCmrEbXjcKChzUyImZOMkXDiqw8cvpOp/2PV5Adg\r\n"
 172:/home/xingli/share/LiteOS_Lab/oc/oc_mqtt/oc_mqtt_profile_v5/oc_mqtt_demo.c ****     "06O/nVsJ8dWO41P0jmP6P6fbtGbfYmbW0W5BjfIttep3Sp+dWOIrWcBAI+0tKIJF\r\n"
 173:/home/xingli/share/LiteOS_Lab/oc/oc_mqtt/oc_mqtt_profile_v5/oc_mqtt_demo.c ****     "PnlUkiaY4IBIqDfv8NZ5YBberOgOzW6sRBc4L0na4UU+Krk2U886UAb3LujEV0ls\r\n"
 174:/home/xingli/share/LiteOS_Lab/oc/oc_mqtt/oc_mqtt_profile_v5/oc_mqtt_demo.c ****     "YSEY1QSteDwsOoBrp+uvFRTp2InBuThs4pFsiv9kuXclVzDAGySj4dzp30d8tbQk\r\n"
 175:/home/xingli/share/LiteOS_Lab/oc/oc_mqtt/oc_mqtt_profile_v5/oc_mqtt_demo.c ****     "CAUw7C29C79Fv1C5qfPrmAESrciIxpg0X40KPMbp1ZWVbd4=\r\n"
 176:/home/xingli/share/LiteOS_Lab/oc/oc_mqtt/oc_mqtt_profile_v5/oc_mqtt_demo.c ****     "-----END CERTIFICATE-----\r\n";
 177:/home/xingli/share/LiteOS_Lab/oc/oc_mqtt/oc_mqtt_profile_v5/oc_mqtt_demo.c **** 
 178:/home/xingli/share/LiteOS_Lab/oc/oc_mqtt/oc_mqtt_profile_v5/oc_mqtt_demo.c **** // use this function to push all the message to the buffer
 179:/home/xingli/share/LiteOS_Lab/oc/oc_mqtt/oc_mqtt_profile_v5/oc_mqtt_demo.c **** static int app_msg_deal(oc_mqtt_profile_msgrcv_t *msg)
 180:/home/xingli/share/LiteOS_Lab/oc/oc_mqtt/oc_mqtt_profile_v5/oc_mqtt_demo.c **** {
  52              		.loc 1 180 1
  53              		.cfi_startproc
  54 0000 F30F1EFA 		endbr64
  55 0004 55       		pushq	%rbp
  56              	.LCFI0:
  57              		.cfi_def_cfa_offset 16
  58              		.cfi_offset 6, -16
  59 0005 4889E5   		movq	%rsp, %rbp
  60              	.LCFI1:
  61              		.cfi_def_cfa_register 6
  62 0008 4883EC40 		subq	$64, %rsp
  63 000c 48897DC8 		movq	%rdi, -56(%rbp)
  64              		.loc 1 180 1
  65 0010 64488B04 		movq	%fs:40, %rax
  65      25280000 
  65      00
  66 0019 488945F8 		movq	%rax, -8(%rbp)
  67 001d 31C0     		xorl	%eax, %eax
 181:/home/xingli/share/LiteOS_Lab/oc/oc_mqtt/oc_mqtt_profile_v5/oc_mqtt_demo.c ****     int ret = -1;
  68              		.loc 1 181 9
  69 001f C745DCFF 		movl	$-1, -36(%rbp)
  69      FFFFFF
 182:/home/xingli/share/LiteOS_Lab/oc/oc_mqtt/oc_mqtt_profile_v5/oc_mqtt_demo.c ****     char *buf;
 183:/home/xingli/share/LiteOS_Lab/oc/oc_mqtt/oc_mqtt_profile_v5/oc_mqtt_demo.c ****     int buflen;
 184:/home/xingli/share/LiteOS_Lab/oc/oc_mqtt/oc_mqtt_profile_v5/oc_mqtt_demo.c ****     int datalen = 0;
  70              		.loc 1 184 9
  71 0026 C745E400 		movl	$0, -28(%rbp)
  71      000000
GAS LISTING /tmp/ccoF6jRD.s 			page 7


 185:/home/xingli/share/LiteOS_Lab/oc/oc_mqtt/oc_mqtt_profile_v5/oc_mqtt_demo.c ****     oc_mqtt_profile_msgrcv_t *demo_msg;
 186:/home/xingli/share/LiteOS_Lab/oc/oc_mqtt/oc_mqtt_profile_v5/oc_mqtt_demo.c **** 
 187:/home/xingli/share/LiteOS_Lab/oc/oc_mqtt/oc_mqtt_profile_v5/oc_mqtt_demo.c ****     // /< clone the message
 188:/home/xingli/share/LiteOS_Lab/oc/oc_mqtt/oc_mqtt_profile_v5/oc_mqtt_demo.c ****     buflen = sizeof(oc_mqtt_profile_msgrcv_t) + msg->msg_len + 1; // /< we copy with '\0' endings
  72              		.loc 1 188 52
  73 002d 488B45C8 		movq	-56(%rbp), %rax
  74 0031 8B4018   		movl	24(%rax), %eax
  75              		.loc 1 188 62
  76 0034 83C021   		addl	$33, %eax
  77              		.loc 1 188 12
  78 0037 8945E0   		movl	%eax, -32(%rbp)
 189:/home/xingli/share/LiteOS_Lab/oc/oc_mqtt/oc_mqtt_profile_v5/oc_mqtt_demo.c ****     if (NULL != msg->request_id) {
  79              		.loc 1 189 20
  80 003a 488B45C8 		movq	-56(%rbp), %rax
  81 003e 488B4008 		movq	8(%rax), %rax
  82              		.loc 1 189 8
  83 0042 4885C0   		testq	%rax, %rax
  84 0045 741D     		je	.L2
 190:/home/xingli/share/LiteOS_Lab/oc/oc_mqtt/oc_mqtt_profile_v5/oc_mqtt_demo.c ****         buflen += strlen(msg->request_id) + 1; // /< ending with '\0'
  85              		.loc 1 190 29
  86 0047 488B45C8 		movq	-56(%rbp), %rax
  87 004b 488B4008 		movq	8(%rax), %rax
  88              		.loc 1 190 19
  89 004f 4889C7   		movq	%rax, %rdi
  90 0052 E8000000 		call	strlen@PLT
  90      00
  91              		.loc 1 190 16
  92 0057 89C2     		movl	%eax, %edx
  93 0059 8B45E0   		movl	-32(%rbp), %eax
  94 005c 01D0     		addl	%edx, %eax
  95 005e 83C001   		addl	$1, %eax
  96 0061 8945E0   		movl	%eax, -32(%rbp)
  97              	.L2:
 191:/home/xingli/share/LiteOS_Lab/oc/oc_mqtt/oc_mqtt_profile_v5/oc_mqtt_demo.c ****     }
 192:/home/xingli/share/LiteOS_Lab/oc/oc_mqtt/oc_mqtt_profile_v5/oc_mqtt_demo.c **** 
 193:/home/xingli/share/LiteOS_Lab/oc/oc_mqtt/oc_mqtt_profile_v5/oc_mqtt_demo.c ****     buf = osal_malloc(buflen);
  98              		.loc 1 193 11
  99 0064 8B45E0   		movl	-32(%rbp), %eax
 100 0067 4898     		cltq
 101 0069 4889C7   		movq	%rax, %rdi
 102 006c E8000000 		call	osal_malloc@PLT
 102      00
 103 0071 488945E8 		movq	%rax, -24(%rbp)
 194:/home/xingli/share/LiteOS_Lab/oc/oc_mqtt/oc_mqtt_profile_v5/oc_mqtt_demo.c ****     if (NULL != buf) {
 104              		.loc 1 194 8
 105 0075 48837DE8 		cmpq	$0, -24(%rbp)
 105      00
 106 007a 0F845E01 		je	.L3
 106      0000
 195:/home/xingli/share/LiteOS_Lab/oc/oc_mqtt/oc_mqtt_profile_v5/oc_mqtt_demo.c ****         demo_msg = (oc_mqtt_profile_msgrcv_t *)(uintptr_t)buf;
 107              		.loc 1 195 18
 108 0080 488B45E8 		movq	-24(%rbp), %rax
 109 0084 488945F0 		movq	%rax, -16(%rbp)
 196:/home/xingli/share/LiteOS_Lab/oc/oc_mqtt/oc_mqtt_profile_v5/oc_mqtt_demo.c ****         buf += sizeof(oc_mqtt_profile_msgrcv_t);
 110              		.loc 1 196 13
 111 0088 488345E8 		addq	$32, -24(%rbp)
 111      20
GAS LISTING /tmp/ccoF6jRD.s 			page 8


 197:/home/xingli/share/LiteOS_Lab/oc/oc_mqtt/oc_mqtt_profile_v5/oc_mqtt_demo.c ****         // /< copy the message and push it to the queue
 198:/home/xingli/share/LiteOS_Lab/oc/oc_mqtt/oc_mqtt_profile_v5/oc_mqtt_demo.c ****         demo_msg->type = msg->type;
 112              		.loc 1 198 29
 113 008d 488B45C8 		movq	-56(%rbp), %rax
 114 0091 8B10     		movl	(%rax), %edx
 115              		.loc 1 198 24
 116 0093 488B45F0 		movq	-16(%rbp), %rax
 117 0097 8910     		movl	%edx, (%rax)
 199:/home/xingli/share/LiteOS_Lab/oc/oc_mqtt/oc_mqtt_profile_v5/oc_mqtt_demo.c **** 
 200:/home/xingli/share/LiteOS_Lab/oc/oc_mqtt/oc_mqtt_profile_v5/oc_mqtt_demo.c ****         if (NULL != msg->request_id) {
 118              		.loc 1 200 24
 119 0099 488B45C8 		movq	-56(%rbp), %rax
 120 009d 488B4008 		movq	8(%rax), %rax
 121              		.loc 1 200 12
 122 00a1 4885C0   		testq	%rax, %rax
 123 00a4 745B     		je	.L4
 201:/home/xingli/share/LiteOS_Lab/oc/oc_mqtt/oc_mqtt_profile_v5/oc_mqtt_demo.c ****             demo_msg->request_id = buf;
 124              		.loc 1 201 34
 125 00a6 488B45F0 		movq	-16(%rbp), %rax
 126 00aa 488B55E8 		movq	-24(%rbp), %rdx
 127 00ae 48895008 		movq	%rdx, 8(%rax)
 202:/home/xingli/share/LiteOS_Lab/oc/oc_mqtt/oc_mqtt_profile_v5/oc_mqtt_demo.c ****             datalen = strlen(msg->request_id);
 128              		.loc 1 202 33
 129 00b2 488B45C8 		movq	-56(%rbp), %rax
 130 00b6 488B4008 		movq	8(%rax), %rax
 131              		.loc 1 202 23
 132 00ba 4889C7   		movq	%rax, %rdi
 133 00bd E8000000 		call	strlen@PLT
 133      00
 134              		.loc 1 202 21
 135 00c2 8945E4   		movl	%eax, -28(%rbp)
 203:/home/xingli/share/LiteOS_Lab/oc/oc_mqtt/oc_mqtt_profile_v5/oc_mqtt_demo.c ****             (void)memcpy(buf, msg->request_id, datalen);
 136              		.loc 1 203 19
 137 00c5 8B45E4   		movl	-28(%rbp), %eax
 138 00c8 4863D0   		movslq	%eax, %rdx
 139              		.loc 1 203 34
 140 00cb 488B45C8 		movq	-56(%rbp), %rax
 141 00cf 488B4808 		movq	8(%rax), %rcx
 142              		.loc 1 203 19
 143 00d3 488B45E8 		movq	-24(%rbp), %rax
 144 00d7 4889CE   		movq	%rcx, %rsi
 145 00da 4889C7   		movq	%rax, %rdi
 146 00dd E8000000 		call	memcpy@PLT
 146      00
 204:/home/xingli/share/LiteOS_Lab/oc/oc_mqtt/oc_mqtt_profile_v5/oc_mqtt_demo.c ****             buf[datalen] = '\0';
 147              		.loc 1 204 16
 148 00e2 8B45E4   		movl	-28(%rbp), %eax
 149 00e5 4863D0   		movslq	%eax, %rdx
 150 00e8 488B45E8 		movq	-24(%rbp), %rax
 151 00ec 4801D0   		addq	%rdx, %rax
 152              		.loc 1 204 26
 153 00ef C60000   		movb	$0, (%rax)
 205:/home/xingli/share/LiteOS_Lab/oc/oc_mqtt/oc_mqtt_profile_v5/oc_mqtt_demo.c ****             buf += (datalen + 1);
 154              		.loc 1 205 17
 155 00f2 8B45E4   		movl	-28(%rbp), %eax
 156 00f5 4898     		cltq
 157 00f7 4883C001 		addq	$1, %rax
GAS LISTING /tmp/ccoF6jRD.s 			page 9


 158 00fb 480145E8 		addq	%rax, -24(%rbp)
 159 00ff EB0C     		jmp	.L5
 160              	.L4:
 206:/home/xingli/share/LiteOS_Lab/oc/oc_mqtt/oc_mqtt_profile_v5/oc_mqtt_demo.c ****         } else {
 207:/home/xingli/share/LiteOS_Lab/oc/oc_mqtt/oc_mqtt_profile_v5/oc_mqtt_demo.c ****             demo_msg->request_id = NULL;
 161              		.loc 1 207 34
 162 0101 488B45F0 		movq	-16(%rbp), %rax
 163 0105 48C74008 		movq	$0, 8(%rax)
 163      00000000 
 164              	.L5:
 208:/home/xingli/share/LiteOS_Lab/oc/oc_mqtt/oc_mqtt_profile_v5/oc_mqtt_demo.c ****         }
 209:/home/xingli/share/LiteOS_Lab/oc/oc_mqtt/oc_mqtt_profile_v5/oc_mqtt_demo.c **** 
 210:/home/xingli/share/LiteOS_Lab/oc/oc_mqtt/oc_mqtt_profile_v5/oc_mqtt_demo.c ****         demo_msg->msg = buf;
 165              		.loc 1 210 23
 166 010d 488B45F0 		movq	-16(%rbp), %rax
 167 0111 488B55E8 		movq	-24(%rbp), %rdx
 168 0115 48895010 		movq	%rdx, 16(%rax)
 211:/home/xingli/share/LiteOS_Lab/oc/oc_mqtt/oc_mqtt_profile_v5/oc_mqtt_demo.c ****         demo_msg->msg_len = msg->msg_len;
 169              		.loc 1 211 32
 170 0119 488B45C8 		movq	-56(%rbp), %rax
 171 011d 8B5018   		movl	24(%rax), %edx
 172              		.loc 1 211 27
 173 0120 488B45F0 		movq	-16(%rbp), %rax
 174 0124 895018   		movl	%edx, 24(%rax)
 212:/home/xingli/share/LiteOS_Lab/oc/oc_mqtt/oc_mqtt_profile_v5/oc_mqtt_demo.c ****         datalen = msg->msg_len;
 175              		.loc 1 212 17
 176 0127 488B45C8 		movq	-56(%rbp), %rax
 177 012b 8B4018   		movl	24(%rax), %eax
 178 012e 8945E4   		movl	%eax, -28(%rbp)
 213:/home/xingli/share/LiteOS_Lab/oc/oc_mqtt/oc_mqtt_profile_v5/oc_mqtt_demo.c ****         (void)memcpy(buf, msg->msg, datalen);
 179              		.loc 1 213 15
 180 0131 8B45E4   		movl	-28(%rbp), %eax
 181 0134 4863D0   		movslq	%eax, %rdx
 182              		.loc 1 213 30
 183 0137 488B45C8 		movq	-56(%rbp), %rax
 184 013b 488B4810 		movq	16(%rax), %rcx
 185              		.loc 1 213 15
 186 013f 488B45E8 		movq	-24(%rbp), %rax
 187 0143 4889CE   		movq	%rcx, %rsi
 188 0146 4889C7   		movq	%rax, %rdi
 189 0149 E8000000 		call	memcpy@PLT
 189      00
 214:/home/xingli/share/LiteOS_Lab/oc/oc_mqtt/oc_mqtt_profile_v5/oc_mqtt_demo.c ****         buf[datalen] = '\0';
 190              		.loc 1 214 12
 191 014e 8B45E4   		movl	-28(%rbp), %eax
 192 0151 4863D0   		movslq	%eax, %rdx
 193 0154 488B45E8 		movq	-24(%rbp), %rax
 194 0158 4801D0   		addq	%rdx, %rax
 195              		.loc 1 214 22
 196 015b C60000   		movb	$0, (%rax)
 215:/home/xingli/share/LiteOS_Lab/oc/oc_mqtt/oc_mqtt_profile_v5/oc_mqtt_demo.c **** 
 216:/home/xingli/share/LiteOS_Lab/oc/oc_mqtt/oc_mqtt_profile_v5/oc_mqtt_demo.c ****         (void)printf("RCVMSG:type:%d reuqestID:%s payloadlen:%d payload:%s\n\r", (int)demo_msg->typ
 217:/home/xingli/share/LiteOS_Lab/oc/oc_mqtt/oc_mqtt_profile_v5/oc_mqtt_demo.c ****             demo_msg->request_id == NULL ? "NULL" : demo_msg->request_id, demo_msg->msg_len, (char 
 197              		.loc 1 217 110
 198 015e 488B45F0 		movq	-16(%rbp), %rax
 199 0162 488B7010 		movq	16(%rax), %rsi
 216:/home/xingli/share/LiteOS_Lab/oc/oc_mqtt/oc_mqtt_profile_v5/oc_mqtt_demo.c ****             demo_msg->request_id == NULL ? "NULL" : demo_msg->request_id, demo_msg->msg_len, (char 
GAS LISTING /tmp/ccoF6jRD.s 			page 10


 200              		.loc 1 216 15
 201 0166 488B45F0 		movq	-16(%rbp), %rax
 202 016a 8B5018   		movl	24(%rax), %edx
 203              		.loc 1 217 21
 204 016d 488B45F0 		movq	-16(%rbp), %rax
 205 0171 488B4008 		movq	8(%rax), %rax
 216:/home/xingli/share/LiteOS_Lab/oc/oc_mqtt/oc_mqtt_profile_v5/oc_mqtt_demo.c ****             demo_msg->request_id == NULL ? "NULL" : demo_msg->request_id, demo_msg->msg_len, (char 
 206              		.loc 1 216 15
 207 0175 4885C0   		testq	%rax, %rax
 208 0178 740A     		je	.L6
 216:/home/xingli/share/LiteOS_Lab/oc/oc_mqtt/oc_mqtt_profile_v5/oc_mqtt_demo.c ****             demo_msg->request_id == NULL ? "NULL" : demo_msg->request_id, demo_msg->msg_len, (char 
 209              		.loc 1 216 15 is_stmt 0 discriminator 1
 210 017a 488B45F0 		movq	-16(%rbp), %rax
 211 017e 488B4008 		movq	8(%rax), %rax
 212 0182 EB07     		jmp	.L7
 213              	.L6:
 216:/home/xingli/share/LiteOS_Lab/oc/oc_mqtt/oc_mqtt_profile_v5/oc_mqtt_demo.c ****             demo_msg->request_id == NULL ? "NULL" : demo_msg->request_id, demo_msg->msg_len, (char 
 214              		.loc 1 216 15 discriminator 2
 215 0184 488D0500 		leaq	.LC0(%rip), %rax
 215      000000
 216              	.L7:
 216:/home/xingli/share/LiteOS_Lab/oc/oc_mqtt/oc_mqtt_profile_v5/oc_mqtt_demo.c ****             demo_msg->request_id == NULL ? "NULL" : demo_msg->request_id, demo_msg->msg_len, (char 
 217              		.loc 1 216 95 is_stmt 1 discriminator 4
 218 018b 488B4DF0 		movq	-16(%rbp), %rcx
 219 018f 8B09     		movl	(%rcx), %ecx
 216:/home/xingli/share/LiteOS_Lab/oc/oc_mqtt/oc_mqtt_profile_v5/oc_mqtt_demo.c ****             demo_msg->request_id == NULL ? "NULL" : demo_msg->request_id, demo_msg->msg_len, (char 
 220              		.loc 1 216 15 discriminator 4
 221 0191 89CF     		movl	%ecx, %edi
 222 0193 4989F0   		movq	%rsi, %r8
 223 0196 89D1     		movl	%edx, %ecx
 224 0198 4889C2   		movq	%rax, %rdx
 225 019b 89FE     		movl	%edi, %esi
 226 019d 488D3D00 		leaq	.LC1(%rip), %rdi
 226      000000
 227 01a4 B8000000 		movl	$0, %eax
 227      00
 228 01a9 E8000000 		call	printf@PLT
 228      00
 218:/home/xingli/share/LiteOS_Lab/oc/oc_mqtt/oc_mqtt_profile_v5/oc_mqtt_demo.c **** 
 219:/home/xingli/share/LiteOS_Lab/oc/oc_mqtt/oc_mqtt_profile_v5/oc_mqtt_demo.c ****         ret = queue_push(s_queue_rcvmsg, demo_msg, 10);
 229              		.loc 1 219 15 discriminator 4
 230 01ae 488B0500 		movq	s_queue_rcvmsg(%rip), %rax
 230      000000
 231 01b5 488B4DF0 		movq	-16(%rbp), %rcx
 232 01b9 BA0A0000 		movl	$10, %edx
 232      00
 233 01be 4889CE   		movq	%rcx, %rsi
 234 01c1 4889C7   		movq	%rax, %rdi
 235 01c4 E8000000 		call	queue_push@PLT
 235      00
 236 01c9 8945DC   		movl	%eax, -36(%rbp)
 220:/home/xingli/share/LiteOS_Lab/oc/oc_mqtt/oc_mqtt_profile_v5/oc_mqtt_demo.c ****         if (ret != 0) {
 237              		.loc 1 220 12 discriminator 4
 238 01cc 837DDC00 		cmpl	$0, -36(%rbp)
 239 01d0 740C     		je	.L3
 221:/home/xingli/share/LiteOS_Lab/oc/oc_mqtt/oc_mqtt_profile_v5/oc_mqtt_demo.c ****             osal_free(demo_msg);
 240              		.loc 1 221 13
GAS LISTING /tmp/ccoF6jRD.s 			page 11


 241 01d2 488B45F0 		movq	-16(%rbp), %rax
 242 01d6 4889C7   		movq	%rax, %rdi
 243 01d9 E8000000 		call	osal_free@PLT
 243      00
 244              	.L3:
 222:/home/xingli/share/LiteOS_Lab/oc/oc_mqtt/oc_mqtt_profile_v5/oc_mqtt_demo.c ****         }
 223:/home/xingli/share/LiteOS_Lab/oc/oc_mqtt/oc_mqtt_profile_v5/oc_mqtt_demo.c ****     }
 224:/home/xingli/share/LiteOS_Lab/oc/oc_mqtt/oc_mqtt_profile_v5/oc_mqtt_demo.c **** 
 225:/home/xingli/share/LiteOS_Lab/oc/oc_mqtt/oc_mqtt_profile_v5/oc_mqtt_demo.c ****     return ret;
 245              		.loc 1 225 12
 246 01de 8B45DC   		movl	-36(%rbp), %eax
 226:/home/xingli/share/LiteOS_Lab/oc/oc_mqtt/oc_mqtt_profile_v5/oc_mqtt_demo.c **** }
 247              		.loc 1 226 1
 248 01e1 488B75F8 		movq	-8(%rbp), %rsi
 249 01e5 64483334 		xorq	%fs:40, %rsi
 249      25280000 
 249      00
 250 01ee 7405     		je	.L9
 251 01f0 E8000000 		call	__stack_chk_fail@PLT
 251      00
 252              	.L9:
 253 01f5 C9       		leave
 254              	.LCFI2:
 255              		.cfi_def_cfa 7, 8
 256 01f6 C3       		ret
 257              		.cfi_endproc
 258              	.LFE0:
 260              		.section	.rodata
 261              	.LC2:
 262 003f 72616469 		.string	"radioValue"
 262      6F56616C 
 262      756500
 263              		.section	.text.oc_cmd_normal,"ax",@progbits
 265              	oc_cmd_normal:
 266              	.LFB1:
 227:/home/xingli/share/LiteOS_Lab/oc/oc_mqtt/oc_mqtt_profile_v5/oc_mqtt_demo.c **** 
 228:/home/xingli/share/LiteOS_Lab/oc/oc_mqtt/oc_mqtt_profile_v5/oc_mqtt_demo.c **** // /< now we deal the message here
 229:/home/xingli/share/LiteOS_Lab/oc/oc_mqtt/oc_mqtt_profile_v5/oc_mqtt_demo.c **** static int oc_cmd_normal(oc_mqtt_profile_msgrcv_t *demo_msg)
 230:/home/xingli/share/LiteOS_Lab/oc/oc_mqtt/oc_mqtt_profile_v5/oc_mqtt_demo.c **** {
 267              		.loc 1 230 1
 268              		.cfi_startproc
 269 0000 F30F1EFA 		endbr64
 270 0004 55       		pushq	%rbp
 271              	.LCFI3:
 272              		.cfi_def_cfa_offset 16
 273              		.cfi_offset 6, -16
 274 0005 4889E5   		movq	%rsp, %rbp
 275              	.LCFI4:
 276              		.cfi_def_cfa_register 6
 277 0008 4883EC70 		subq	$112, %rsp
 278 000c 48897D98 		movq	%rdi, -104(%rbp)
 279              		.loc 1 230 1
 280 0010 64488B04 		movq	%fs:40, %rax
 280      25280000 
 280      00
 281 0019 488945F8 		movq	%rax, -8(%rbp)
 282 001d 31C0     		xorl	%eax, %eax
GAS LISTING /tmp/ccoF6jRD.s 			page 12


 231:/home/xingli/share/LiteOS_Lab/oc/oc_mqtt/oc_mqtt_profile_v5/oc_mqtt_demo.c ****     static int value = 0;
 232:/home/xingli/share/LiteOS_Lab/oc/oc_mqtt/oc_mqtt_profile_v5/oc_mqtt_demo.c ****     oc_mqtt_profile_cmdresp_t cmdresp;
 233:/home/xingli/share/LiteOS_Lab/oc/oc_mqtt/oc_mqtt_profile_v5/oc_mqtt_demo.c ****     oc_mqtt_profile_propertysetresp_t propertysetresp;
 234:/home/xingli/share/LiteOS_Lab/oc/oc_mqtt/oc_mqtt_profile_v5/oc_mqtt_demo.c ****     oc_mqtt_profile_propertygetresp_t propertygetresp;
 235:/home/xingli/share/LiteOS_Lab/oc/oc_mqtt/oc_mqtt_profile_v5/oc_mqtt_demo.c **** 
 236:/home/xingli/share/LiteOS_Lab/oc/oc_mqtt/oc_mqtt_profile_v5/oc_mqtt_demo.c ****     switch (demo_msg->type) {
 283              		.loc 1 236 21
 284 001f 488B4598 		movq	-104(%rbp), %rax
 285 0023 8B00     		movl	(%rax), %eax
 286 0025 83F805   		cmpl	$5, %eax
 287 0028 0F871B01 		ja	.L22
 287      0000
 288 002e 89C0     		movl	%eax, %eax
 289 0030 488D1485 		leaq	0(,%rax,4), %rdx
 289      00000000 
 290 0038 488D0500 		leaq	.L13(%rip), %rax
 290      000000
 291 003f 8B0402   		movl	(%rdx,%rax), %eax
 292 0042 4898     		cltq
 293 0044 488D1500 		leaq	.L13(%rip), %rdx
 293      000000
 294 004b 4801D0   		addq	%rdx, %rax
 295 004e 3EFFE0   		notrack jmp	*%rax
 296              		.section	.rodata.oc_cmd_normal,"a",@progbits
 297              		.align 4
 298              		.align 4
 299              	.L13:
 300 0000 00000000 		.long	.L23-.L13
 301 0004 00000000 		.long	.L17-.L13
 302 0008 00000000 		.long	.L16-.L13
 303 000c 00000000 		.long	.L15-.L13
 304 0010 00000000 		.long	.L23-.L13
 305 0014 00000000 		.long	.L23-.L13
 306              		.section	.text.oc_cmd_normal
 307              	.L17:
 237:/home/xingli/share/LiteOS_Lab/oc/oc_mqtt/oc_mqtt_profile_v5/oc_mqtt_demo.c ****         case EN_OC_MQTT_PROFILE_MSG_TYPE_DOWN_MSGDOWN:
 238:/home/xingli/share/LiteOS_Lab/oc/oc_mqtt/oc_mqtt_profile_v5/oc_mqtt_demo.c ****             // /< add your own deal here
 239:/home/xingli/share/LiteOS_Lab/oc/oc_mqtt/oc_mqtt_profile_v5/oc_mqtt_demo.c ****             break;
 240:/home/xingli/share/LiteOS_Lab/oc/oc_mqtt/oc_mqtt_profile_v5/oc_mqtt_demo.c ****         case EN_OC_MQTT_PROFILE_MSG_TYPE_DOWN_COMMANDS:
 241:/home/xingli/share/LiteOS_Lab/oc/oc_mqtt/oc_mqtt_profile_v5/oc_mqtt_demo.c ****             // /< add your own deal here
 242:/home/xingli/share/LiteOS_Lab/oc/oc_mqtt/oc_mqtt_profile_v5/oc_mqtt_demo.c **** 
 243:/home/xingli/share/LiteOS_Lab/oc/oc_mqtt/oc_mqtt_profile_v5/oc_mqtt_demo.c ****             // /< do the response
 244:/home/xingli/share/LiteOS_Lab/oc/oc_mqtt/oc_mqtt_profile_v5/oc_mqtt_demo.c ****             cmdresp.paras = NULL;
 308              		.loc 1 244 27
 309 0051 48C745E8 		movq	$0, -24(%rbp)
 309      00000000 
 245:/home/xingli/share/LiteOS_Lab/oc/oc_mqtt/oc_mqtt_profile_v5/oc_mqtt_demo.c ****             cmdresp.request_id = demo_msg->request_id;
 310              		.loc 1 245 42
 311 0059 488B4598 		movq	-104(%rbp), %rax
 312 005d 488B4008 		movq	8(%rax), %rax
 313              		.loc 1 245 32
 314 0061 488945E0 		movq	%rax, -32(%rbp)
 246:/home/xingli/share/LiteOS_Lab/oc/oc_mqtt/oc_mqtt_profile_v5/oc_mqtt_demo.c ****             cmdresp.ret_code = 0;
 315              		.loc 1 246 30
 316 0065 C745D000 		movl	$0, -48(%rbp)
 316      000000
 247:/home/xingli/share/LiteOS_Lab/oc/oc_mqtt/oc_mqtt_profile_v5/oc_mqtt_demo.c ****             cmdresp.ret_name = NULL;
GAS LISTING /tmp/ccoF6jRD.s 			page 13


 317              		.loc 1 247 30
 318 006c 48C745D8 		movq	$0, -40(%rbp)
 318      00000000 
 248:/home/xingli/share/LiteOS_Lab/oc/oc_mqtt/oc_mqtt_profile_v5/oc_mqtt_demo.c ****             (void)oc_mqtt_profile_cmdresp(NULL, &cmdresp);
 319              		.loc 1 248 19
 320 0074 488D45D0 		leaq	-48(%rbp), %rax
 321 0078 4889C6   		movq	%rax, %rsi
 322 007b BF000000 		movl	$0, %edi
 322      00
 323 0080 E8000000 		call	oc_mqtt_profile_cmdresp@PLT
 323      00
 249:/home/xingli/share/LiteOS_Lab/oc/oc_mqtt/oc_mqtt_profile_v5/oc_mqtt_demo.c ****             break;
 324              		.loc 1 249 13
 325 0085 E9C30000 		jmp	.L19
 325      00
 326              	.L16:
 250:/home/xingli/share/LiteOS_Lab/oc/oc_mqtt/oc_mqtt_profile_v5/oc_mqtt_demo.c **** 
 251:/home/xingli/share/LiteOS_Lab/oc/oc_mqtt/oc_mqtt_profile_v5/oc_mqtt_demo.c ****         case EN_OC_MQTT_PROFILE_MSG_TYPE_DOWN_PROPERTYSET:
 252:/home/xingli/share/LiteOS_Lab/oc/oc_mqtt/oc_mqtt_profile_v5/oc_mqtt_demo.c ****             // /< add your own deal here
 253:/home/xingli/share/LiteOS_Lab/oc/oc_mqtt/oc_mqtt_profile_v5/oc_mqtt_demo.c **** 
 254:/home/xingli/share/LiteOS_Lab/oc/oc_mqtt/oc_mqtt_profile_v5/oc_mqtt_demo.c ****             // /< do the response
 255:/home/xingli/share/LiteOS_Lab/oc/oc_mqtt/oc_mqtt_profile_v5/oc_mqtt_demo.c ****             propertysetresp.request_id = demo_msg->request_id;
 327              		.loc 1 255 50
 328 008a 488B4598 		movq	-104(%rbp), %rax
 329 008e 488B4008 		movq	8(%rax), %rax
 330              		.loc 1 255 40
 331 0092 488945C0 		movq	%rax, -64(%rbp)
 256:/home/xingli/share/LiteOS_Lab/oc/oc_mqtt/oc_mqtt_profile_v5/oc_mqtt_demo.c ****             propertysetresp.ret_code = 0;
 332              		.loc 1 256 38
 333 0096 C745B000 		movl	$0, -80(%rbp)
 333      000000
 257:/home/xingli/share/LiteOS_Lab/oc/oc_mqtt/oc_mqtt_profile_v5/oc_mqtt_demo.c ****             propertysetresp.ret_description = NULL;
 334              		.loc 1 257 45
 335 009d 48C745B8 		movq	$0, -72(%rbp)
 335      00000000 
 258:/home/xingli/share/LiteOS_Lab/oc/oc_mqtt/oc_mqtt_profile_v5/oc_mqtt_demo.c ****             (void)oc_mqtt_profile_propertysetresp(NULL, &propertysetresp);
 336              		.loc 1 258 19
 337 00a5 488D45B0 		leaq	-80(%rbp), %rax
 338 00a9 4889C6   		movq	%rax, %rsi
 339 00ac BF000000 		movl	$0, %edi
 339      00
 340 00b1 E8000000 		call	oc_mqtt_profile_propertysetresp@PLT
 340      00
 259:/home/xingli/share/LiteOS_Lab/oc/oc_mqtt/oc_mqtt_profile_v5/oc_mqtt_demo.c ****             break;
 341              		.loc 1 259 13
 342 00b6 E9920000 		jmp	.L19
 342      00
 343              	.L15:
 260:/home/xingli/share/LiteOS_Lab/oc/oc_mqtt/oc_mqtt_profile_v5/oc_mqtt_demo.c **** 
 261:/home/xingli/share/LiteOS_Lab/oc/oc_mqtt/oc_mqtt_profile_v5/oc_mqtt_demo.c ****         case EN_OC_MQTT_PROFILE_MSG_TYPE_DOWN_PROPERTYGET:
 262:/home/xingli/share/LiteOS_Lab/oc/oc_mqtt/oc_mqtt_profile_v5/oc_mqtt_demo.c ****             // /< add your own deal here
 263:/home/xingli/share/LiteOS_Lab/oc/oc_mqtt/oc_mqtt_profile_v5/oc_mqtt_demo.c **** 
 264:/home/xingli/share/LiteOS_Lab/oc/oc_mqtt/oc_mqtt_profile_v5/oc_mqtt_demo.c ****             // /< do the response
 265:/home/xingli/share/LiteOS_Lab/oc/oc_mqtt/oc_mqtt_profile_v5/oc_mqtt_demo.c ****             value = (value + 1) % 100;
 344              		.loc 1 265 28
 345 00bb 8B050000 		movl	value.3174(%rip), %eax
 345      0000
GAS LISTING /tmp/ccoF6jRD.s 			page 14


 346 00c1 8D5001   		leal	1(%rax), %edx
 347              		.loc 1 265 33
 348 00c4 4863C2   		movslq	%edx, %rax
 349 00c7 4869C01F 		imulq	$1374389535, %rax, %rax
 349      85EB51
 350 00ce 48C1E820 		shrq	$32, %rax
 351 00d2 89C1     		movl	%eax, %ecx
 352 00d4 C1F905   		sarl	$5, %ecx
 353 00d7 89D0     		movl	%edx, %eax
 354 00d9 C1F81F   		sarl	$31, %eax
 355 00dc 29C1     		subl	%eax, %ecx
 356 00de 89C8     		movl	%ecx, %eax
 357 00e0 6BC064   		imull	$100, %eax, %eax
 358 00e3 29C2     		subl	%eax, %edx
 359 00e5 89D0     		movl	%edx, %eax
 360              		.loc 1 265 19
 361 00e7 89050000 		movl	%eax, value.3174(%rip)
 361      0000
 266:/home/xingli/share/LiteOS_Lab/oc/oc_mqtt/oc_mqtt_profile_v5/oc_mqtt_demo.c ****             s_device_service.service_property->key = "radioValue";
 362              		.loc 1 266 29
 363 00ed 488B0500 		movq	24+s_device_service(%rip), %rax
 363      000000
 364              		.loc 1 266 52
 365 00f4 488D1500 		leaq	.LC2(%rip), %rdx
 365      000000
 366 00fb 48895008 		movq	%rdx, 8(%rax)
 267:/home/xingli/share/LiteOS_Lab/oc/oc_mqtt/oc_mqtt_profile_v5/oc_mqtt_demo.c ****             s_device_service.service_property->value = &value;
 367              		.loc 1 267 29
 368 00ff 488B0500 		movq	24+s_device_service(%rip), %rax
 368      000000
 369              		.loc 1 267 54
 370 0106 488D1500 		leaq	value.3174(%rip), %rdx
 370      000000
 371 010d 48895018 		movq	%rdx, 24(%rax)
 268:/home/xingli/share/LiteOS_Lab/oc/oc_mqtt/oc_mqtt_profile_v5/oc_mqtt_demo.c ****             s_device_service.service_property->type = EN_OC_MQTT_PROFILE_VALUE_INT;
 372              		.loc 1 268 29
 373 0111 488B0500 		movq	24+s_device_service(%rip), %rax
 373      000000
 374              		.loc 1 268 53
 375 0118 C7401000 		movl	$0, 16(%rax)
 375      000000
 269:/home/xingli/share/LiteOS_Lab/oc/oc_mqtt/oc_mqtt_profile_v5/oc_mqtt_demo.c **** 
 270:/home/xingli/share/LiteOS_Lab/oc/oc_mqtt/oc_mqtt_profile_v5/oc_mqtt_demo.c ****             propertygetresp.request_id = demo_msg->request_id;
 376              		.loc 1 270 50
 377 011f 488B4598 		movq	-104(%rbp), %rax
 378 0123 488B4008 		movq	8(%rax), %rax
 379              		.loc 1 270 40
 380 0127 488945A0 		movq	%rax, -96(%rbp)
 271:/home/xingli/share/LiteOS_Lab/oc/oc_mqtt/oc_mqtt_profile_v5/oc_mqtt_demo.c ****             propertygetresp.services = &s_device_service;
 381              		.loc 1 271 38
 382 012b 488D0500 		leaq	s_device_service(%rip), %rax
 382      000000
 383 0132 488945A8 		movq	%rax, -88(%rbp)
 272:/home/xingli/share/LiteOS_Lab/oc/oc_mqtt/oc_mqtt_profile_v5/oc_mqtt_demo.c ****             (void)oc_mqtt_profile_propertygetresp(NULL, &propertygetresp);
 384              		.loc 1 272 19
 385 0136 488D45A0 		leaq	-96(%rbp), %rax
 386 013a 4889C6   		movq	%rax, %rsi
GAS LISTING /tmp/ccoF6jRD.s 			page 15


 387 013d BF000000 		movl	$0, %edi
 387      00
 388 0142 E8000000 		call	oc_mqtt_profile_propertygetresp@PLT
 388      00
 273:/home/xingli/share/LiteOS_Lab/oc/oc_mqtt/oc_mqtt_profile_v5/oc_mqtt_demo.c ****             break;
 389              		.loc 1 273 13
 390 0147 EB04     		jmp	.L19
 391              	.L22:
 274:/home/xingli/share/LiteOS_Lab/oc/oc_mqtt/oc_mqtt_profile_v5/oc_mqtt_demo.c ****         case EN_OC_MQTT_PROFILE_MSG_TYPE_DOWN_EVENT:
 275:/home/xingli/share/LiteOS_Lab/oc/oc_mqtt/oc_mqtt_profile_v5/oc_mqtt_demo.c ****             break;
 276:/home/xingli/share/LiteOS_Lab/oc/oc_mqtt/oc_mqtt_profile_v5/oc_mqtt_demo.c ****         case EN_OC_MQTT_PROFILE_MSG_TYPE_DOWN_BS:
 277:/home/xingli/share/LiteOS_Lab/oc/oc_mqtt/oc_mqtt_profile_v5/oc_mqtt_demo.c ****             break;
 278:/home/xingli/share/LiteOS_Lab/oc/oc_mqtt/oc_mqtt_profile_v5/oc_mqtt_demo.c ****         default:
 279:/home/xingli/share/LiteOS_Lab/oc/oc_mqtt/oc_mqtt_profile_v5/oc_mqtt_demo.c ****             break;
 392              		.loc 1 279 13
 393 0149 90       		nop
 394 014a EB01     		jmp	.L19
 395              	.L23:
 277:/home/xingli/share/LiteOS_Lab/oc/oc_mqtt/oc_mqtt_profile_v5/oc_mqtt_demo.c ****         default:
 396              		.loc 1 277 13
 397 014c 90       		nop
 398              	.L19:
 280:/home/xingli/share/LiteOS_Lab/oc/oc_mqtt/oc_mqtt_profile_v5/oc_mqtt_demo.c ****     }
 281:/home/xingli/share/LiteOS_Lab/oc/oc_mqtt/oc_mqtt_profile_v5/oc_mqtt_demo.c ****     return 0;
 399              		.loc 1 281 12
 400 014d B8000000 		movl	$0, %eax
 400      00
 282:/home/xingli/share/LiteOS_Lab/oc/oc_mqtt/oc_mqtt_profile_v5/oc_mqtt_demo.c **** }
 401              		.loc 1 282 1
 402 0152 488B75F8 		movq	-8(%rbp), %rsi
 403 0156 64483334 		xorq	%fs:40, %rsi
 403      25280000 
 403      00
 404 015f 7405     		je	.L21
 405 0161 E8000000 		call	__stack_chk_fail@PLT
 405      00
 406              	.L21:
 407 0166 C9       		leave
 408              	.LCFI5:
 409              		.cfi_def_cfa 7, 8
 410 0167 C3       		ret
 411              		.cfi_endproc
 412              	.LFE1:
 414              		.section	.rodata
 415 004a 00000000 		.align 8
 415      0000
 416              	.LC3:
 417 0050 246F632F 		.string	"$oc/devices/5ecb90df65950b07183b58dd_dpmqtt003/user/demo_sub1"
 417      64657669 
 417      6365732F 
 417      35656362 
 417      39306466 
 418 008e 0000     		.align 8
 419              	.LC4:
 420 0090 246F632F 		.string	"$oc/devices/5ecb90df65950b07183b58dd_dpmqtt003/user/demo_sub2"
 420      64657669 
 420      6365732F 
GAS LISTING /tmp/ccoF6jRD.s 			page 16


 420      35656362 
 420      39306466 
 421              		.section	.text.demo_usersub_topic,"ax",@progbits
 423              	demo_usersub_topic:
 424              	.LFB2:
 283:/home/xingli/share/LiteOS_Lab/oc/oc_mqtt/oc_mqtt_profile_v5/oc_mqtt_demo.c **** 
 284:/home/xingli/share/LiteOS_Lab/oc/oc_mqtt/oc_mqtt_profile_v5/oc_mqtt_demo.c **** static int demo_usersub_topic(void)
 285:/home/xingli/share/LiteOS_Lab/oc/oc_mqtt/oc_mqtt_profile_v5/oc_mqtt_demo.c **** {
 425              		.loc 1 285 1
 426              		.cfi_startproc
 427 0000 F30F1EFA 		endbr64
 428 0004 55       		pushq	%rbp
 429              	.LCFI6:
 430              		.cfi_def_cfa_offset 16
 431              		.cfi_offset 6, -16
 432 0005 4889E5   		movq	%rsp, %rbp
 433              	.LCFI7:
 434              		.cfi_def_cfa_register 6
 435 0008 4883EC20 		subq	$32, %rsp
 436              		.loc 1 285 1
 437 000c 64488B04 		movq	%fs:40, %rax
 437      25280000 
 437      00
 438 0015 488945F8 		movq	%rax, -8(%rbp)
 439 0019 31C0     		xorl	%eax, %eax
 286:/home/xingli/share/LiteOS_Lab/oc/oc_mqtt/oc_mqtt_profile_v5/oc_mqtt_demo.c ****     int ret1;
 287:/home/xingli/share/LiteOS_Lab/oc/oc_mqtt/oc_mqtt_profile_v5/oc_mqtt_demo.c ****     int ret2;
 288:/home/xingli/share/LiteOS_Lab/oc/oc_mqtt/oc_mqtt_profile_v5/oc_mqtt_demo.c ****     int ret;
 289:/home/xingli/share/LiteOS_Lab/oc/oc_mqtt/oc_mqtt_profile_v5/oc_mqtt_demo.c ****     char *topic;
 290:/home/xingli/share/LiteOS_Lab/oc/oc_mqtt/oc_mqtt_profile_v5/oc_mqtt_demo.c ****     topic = "$oc/devices/" CN_EP_DEVICEID "/user/demo_sub1";
 440              		.loc 1 290 11
 441 001b 488D0500 		leaq	.LC3(%rip), %rax
 441      000000
 442 0022 488945F0 		movq	%rax, -16(%rbp)
 291:/home/xingli/share/LiteOS_Lab/oc/oc_mqtt/oc_mqtt_profile_v5/oc_mqtt_demo.c ****     ret1 = oc_mqtt_subscribe(topic, 0);
 443              		.loc 1 291 12
 444 0026 488B45F0 		movq	-16(%rbp), %rax
 445 002a BE000000 		movl	$0, %esi
 445      00
 446 002f 4889C7   		movq	%rax, %rdi
 447 0032 E8000000 		call	oc_mqtt_subscribe@PLT
 447      00
 448 0037 8945E4   		movl	%eax, -28(%rbp)
 292:/home/xingli/share/LiteOS_Lab/oc/oc_mqtt/oc_mqtt_profile_v5/oc_mqtt_demo.c **** 
 293:/home/xingli/share/LiteOS_Lab/oc/oc_mqtt/oc_mqtt_profile_v5/oc_mqtt_demo.c ****     topic = "$oc/devices/" CN_EP_DEVICEID "/user/demo_sub2";
 449              		.loc 1 293 11
 450 003a 488D0500 		leaq	.LC4(%rip), %rax
 450      000000
 451 0041 488945F0 		movq	%rax, -16(%rbp)
 294:/home/xingli/share/LiteOS_Lab/oc/oc_mqtt/oc_mqtt_profile_v5/oc_mqtt_demo.c ****     ret2 = oc_mqtt_subscribe(topic, 0);
 452              		.loc 1 294 12
 453 0045 488B45F0 		movq	-16(%rbp), %rax
 454 0049 BE000000 		movl	$0, %esi
 454      00
 455 004e 4889C7   		movq	%rax, %rdi
 456 0051 E8000000 		call	oc_mqtt_subscribe@PLT
 456      00
GAS LISTING /tmp/ccoF6jRD.s 			page 17


 457 0056 8945E8   		movl	%eax, -24(%rbp)
 295:/home/xingli/share/LiteOS_Lab/oc/oc_mqtt/oc_mqtt_profile_v5/oc_mqtt_demo.c ****     ret = ret1 > ret2 ? ret1 : ret2;
 458              		.loc 1 295 9
 459 0059 8B45E4   		movl	-28(%rbp), %eax
 460 005c 3945E8   		cmpl	%eax, -24(%rbp)
 461 005f 0F4D45E8 		cmovge	-24(%rbp), %eax
 462 0063 8945EC   		movl	%eax, -20(%rbp)
 296:/home/xingli/share/LiteOS_Lab/oc/oc_mqtt/oc_mqtt_profile_v5/oc_mqtt_demo.c ****     return ret;
 463              		.loc 1 296 12
 464 0066 8B45EC   		movl	-20(%rbp), %eax
 297:/home/xingli/share/LiteOS_Lab/oc/oc_mqtt/oc_mqtt_profile_v5/oc_mqtt_demo.c **** }
 465              		.loc 1 297 1
 466 0069 488B55F8 		movq	-8(%rbp), %rdx
 467 006d 64483314 		xorq	%fs:40, %rdx
 467      25280000 
 467      00
 468 0076 7405     		je	.L26
 469 0078 E8000000 		call	__stack_chk_fail@PLT
 469      00
 470              	.L26:
 471 007d C9       		leave
 472              	.LCFI8:
 473              		.cfi_def_cfa 7, 8
 474 007e C3       		ret
 475              		.cfi_endproc
 476              	.LFE2:
 478              		.section	.text.demo_userunsub_topic,"ax",@progbits
 480              	demo_userunsub_topic:
 481              	.LFB3:
 298:/home/xingli/share/LiteOS_Lab/oc/oc_mqtt/oc_mqtt_profile_v5/oc_mqtt_demo.c **** 
 299:/home/xingli/share/LiteOS_Lab/oc/oc_mqtt/oc_mqtt_profile_v5/oc_mqtt_demo.c **** static int demo_userunsub_topic(void)
 300:/home/xingli/share/LiteOS_Lab/oc/oc_mqtt/oc_mqtt_profile_v5/oc_mqtt_demo.c **** {
 482              		.loc 1 300 1
 483              		.cfi_startproc
 484 0000 F30F1EFA 		endbr64
 485 0004 55       		pushq	%rbp
 486              	.LCFI9:
 487              		.cfi_def_cfa_offset 16
 488              		.cfi_offset 6, -16
 489 0005 4889E5   		movq	%rsp, %rbp
 490              	.LCFI10:
 491              		.cfi_def_cfa_register 6
 492 0008 4883EC20 		subq	$32, %rsp
 493              		.loc 1 300 1
 494 000c 64488B04 		movq	%fs:40, %rax
 494      25280000 
 494      00
 495 0015 488945F8 		movq	%rax, -8(%rbp)
 496 0019 31C0     		xorl	%eax, %eax
 301:/home/xingli/share/LiteOS_Lab/oc/oc_mqtt/oc_mqtt_profile_v5/oc_mqtt_demo.c ****     int ret;
 302:/home/xingli/share/LiteOS_Lab/oc/oc_mqtt/oc_mqtt_profile_v5/oc_mqtt_demo.c ****     int ret1;
 303:/home/xingli/share/LiteOS_Lab/oc/oc_mqtt/oc_mqtt_profile_v5/oc_mqtt_demo.c ****     int ret2;
 304:/home/xingli/share/LiteOS_Lab/oc/oc_mqtt/oc_mqtt_profile_v5/oc_mqtt_demo.c ****     char *topic;
 305:/home/xingli/share/LiteOS_Lab/oc/oc_mqtt/oc_mqtt_profile_v5/oc_mqtt_demo.c ****     topic = "$oc/devices/" CN_EP_DEVICEID "/user/demo_sub1";
 497              		.loc 1 305 11
 498 001b 488D0500 		leaq	.LC3(%rip), %rax
 498      000000
GAS LISTING /tmp/ccoF6jRD.s 			page 18


 499 0022 488945F0 		movq	%rax, -16(%rbp)
 306:/home/xingli/share/LiteOS_Lab/oc/oc_mqtt/oc_mqtt_profile_v5/oc_mqtt_demo.c ****     ret1 = oc_mqtt_unsubscribe(topic);
 500              		.loc 1 306 12
 501 0026 488B45F0 		movq	-16(%rbp), %rax
 502 002a 4889C7   		movq	%rax, %rdi
 503 002d E8000000 		call	oc_mqtt_unsubscribe@PLT
 503      00
 504 0032 8945E4   		movl	%eax, -28(%rbp)
 307:/home/xingli/share/LiteOS_Lab/oc/oc_mqtt/oc_mqtt_profile_v5/oc_mqtt_demo.c **** 
 308:/home/xingli/share/LiteOS_Lab/oc/oc_mqtt/oc_mqtt_profile_v5/oc_mqtt_demo.c ****     topic = "$oc/devices/" CN_EP_DEVICEID "/user/demo_sub2";
 505              		.loc 1 308 11
 506 0035 488D0500 		leaq	.LC4(%rip), %rax
 506      000000
 507 003c 488945F0 		movq	%rax, -16(%rbp)
 309:/home/xingli/share/LiteOS_Lab/oc/oc_mqtt/oc_mqtt_profile_v5/oc_mqtt_demo.c ****     ret2 = oc_mqtt_unsubscribe(topic);
 508              		.loc 1 309 12
 509 0040 488B45F0 		movq	-16(%rbp), %rax
 510 0044 4889C7   		movq	%rax, %rdi
 511 0047 E8000000 		call	oc_mqtt_unsubscribe@PLT
 511      00
 512 004c 8945E8   		movl	%eax, -24(%rbp)
 310:/home/xingli/share/LiteOS_Lab/oc/oc_mqtt/oc_mqtt_profile_v5/oc_mqtt_demo.c **** 
 311:/home/xingli/share/LiteOS_Lab/oc/oc_mqtt/oc_mqtt_profile_v5/oc_mqtt_demo.c ****     ret = ret1 > ret2 ? ret1 : ret2;
 513              		.loc 1 311 9
 514 004f 8B45E4   		movl	-28(%rbp), %eax
 515 0052 3945E8   		cmpl	%eax, -24(%rbp)
 516 0055 0F4D45E8 		cmovge	-24(%rbp), %eax
 517 0059 8945EC   		movl	%eax, -20(%rbp)
 312:/home/xingli/share/LiteOS_Lab/oc/oc_mqtt/oc_mqtt_profile_v5/oc_mqtt_demo.c ****     return ret;
 518              		.loc 1 312 12
 519 005c 8B45EC   		movl	-20(%rbp), %eax
 313:/home/xingli/share/LiteOS_Lab/oc/oc_mqtt/oc_mqtt_profile_v5/oc_mqtt_demo.c **** }
 520              		.loc 1 313 1
 521 005f 488B55F8 		movq	-8(%rbp), %rdx
 522 0063 64483314 		xorq	%fs:40, %rdx
 522      25280000 
 522      00
 523 006c 7405     		je	.L29
 524 006e E8000000 		call	__stack_chk_fail@PLT
 524      00
 525              	.L29:
 526 0073 C9       		leave
 527              	.LCFI11:
 528              		.cfi_def_cfa 7, 8
 529 0074 C3       		ret
 530              		.cfi_endproc
 531              	.LFE3:
 533              		.section	.rodata
 534 00ce 0000     		.align 8
 535              	.LC5:
 536 00d0 246F632F 		.string	"$oc/devices/5ecb90df65950b07183b58dd_dpmqtt003/user/demo_pub"
 536      64657669 
 536      6365732F 
 536      35656362 
 536      39306466 
 537              	.LC6:
 538 010d 68656C6C 		.string	"hello world"
GAS LISTING /tmp/ccoF6jRD.s 			page 19


 538      6F20776F 
 538      726C6400 
 539              		.section	.text.demo_userpub,"ax",@progbits
 541              	demo_userpub:
 542              	.LFB4:
 314:/home/xingli/share/LiteOS_Lab/oc/oc_mqtt/oc_mqtt_profile_v5/oc_mqtt_demo.c **** 
 315:/home/xingli/share/LiteOS_Lab/oc/oc_mqtt/oc_mqtt_profile_v5/oc_mqtt_demo.c **** static int demo_userpub(void)
 316:/home/xingli/share/LiteOS_Lab/oc/oc_mqtt/oc_mqtt_profile_v5/oc_mqtt_demo.c **** {
 543              		.loc 1 316 1
 544              		.cfi_startproc
 545 0000 F30F1EFA 		endbr64
 546 0004 55       		pushq	%rbp
 547              	.LCFI12:
 548              		.cfi_def_cfa_offset 16
 549              		.cfi_offset 6, -16
 550 0005 4889E5   		movq	%rsp, %rbp
 551              	.LCFI13:
 552              		.cfi_def_cfa_register 6
 553 0008 4883EC20 		subq	$32, %rsp
 554              		.loc 1 316 1
 555 000c 64488B04 		movq	%fs:40, %rax
 555      25280000 
 555      00
 556 0015 488945F8 		movq	%rax, -8(%rbp)
 557 0019 31C0     		xorl	%eax, %eax
 317:/home/xingli/share/LiteOS_Lab/oc/oc_mqtt/oc_mqtt_profile_v5/oc_mqtt_demo.c ****     int ret;
 318:/home/xingli/share/LiteOS_Lab/oc/oc_mqtt/oc_mqtt_profile_v5/oc_mqtt_demo.c ****     char *topic;
 319:/home/xingli/share/LiteOS_Lab/oc/oc_mqtt/oc_mqtt_profile_v5/oc_mqtt_demo.c ****     topic = "$oc/devices/" CN_EP_DEVICEID "/user/demo_pub";
 558              		.loc 1 319 11
 559 001b 488D0500 		leaq	.LC5(%rip), %rax
 559      000000
 560 0022 488945F0 		movq	%rax, -16(%rbp)
 320:/home/xingli/share/LiteOS_Lab/oc/oc_mqtt/oc_mqtt_profile_v5/oc_mqtt_demo.c ****     ret = oc_mqtt_publish(topic, (uint8_t *)"hello world", strlen("hello world"), 1);
 561              		.loc 1 320 11
 562 0026 488B45F0 		movq	-16(%rbp), %rax
 563 002a B9010000 		movl	$1, %ecx
 563      00
 564 002f BA0B0000 		movl	$11, %edx
 564      00
 565 0034 488D3500 		leaq	.LC6(%rip), %rsi
 565      000000
 566 003b 4889C7   		movq	%rax, %rdi
 567 003e E8000000 		call	oc_mqtt_publish@PLT
 567      00
 568 0043 8945EC   		movl	%eax, -20(%rbp)
 321:/home/xingli/share/LiteOS_Lab/oc/oc_mqtt/oc_mqtt_profile_v5/oc_mqtt_demo.c ****     return ret;
 569              		.loc 1 321 12
 570 0046 8B45EC   		movl	-20(%rbp), %eax
 322:/home/xingli/share/LiteOS_Lab/oc/oc_mqtt/oc_mqtt_profile_v5/oc_mqtt_demo.c **** }
 571              		.loc 1 322 1
 572 0049 488B55F8 		movq	-8(%rbp), %rdx
 573 004d 64483314 		xorq	%fs:40, %rdx
 573      25280000 
 573      00
 574 0056 7405     		je	.L32
 575 0058 E8000000 		call	__stack_chk_fail@PLT
 575      00
GAS LISTING /tmp/ccoF6jRD.s 			page 20


 576              	.L32:
 577 005d C9       		leave
 578              	.LCFI14:
 579              		.cfi_def_cfa 7, 8
 580 005e C3       		ret
 581              		.cfi_endproc
 582              	.LFE4:
 584              		.section	.rodata
 585 0119 00000000 		.align 8
 585      000000
 586              	.LC7:
 587 0120 35656362 		.string	"5ecb90df65950b07183b58dd_dpmqtt003"
 587      39306466 
 587      36353935 
 587      30623037 
 587      31383362 
 588              	.LC8:
 589 0143 35343332 		.string	"54321"
 589      3100
 590              	.LC9:
 591 0149 4D534755 		.string	"MSGUP"
 591      5000
 592              	.LC10:
 593 014f 48656C6C 		.string	"Hello, new world"
 593      6F2C206E 
 593      65772077 
 593      6F726C64 
 593      00
 594              		.section	.text.demo_msgup_shortdata,"ax",@progbits
 596              	demo_msgup_shortdata:
 597              	.LFB5:
 323:/home/xingli/share/LiteOS_Lab/oc/oc_mqtt/oc_mqtt_profile_v5/oc_mqtt_demo.c **** 
 324:/home/xingli/share/LiteOS_Lab/oc/oc_mqtt/oc_mqtt_profile_v5/oc_mqtt_demo.c **** static int demo_msgup_shortdata(void) // /< big data test
 325:/home/xingli/share/LiteOS_Lab/oc/oc_mqtt/oc_mqtt_profile_v5/oc_mqtt_demo.c **** {
 598              		.loc 1 325 1
 599              		.cfi_startproc
 600 0000 F30F1EFA 		endbr64
 601 0004 55       		pushq	%rbp
 602              	.LCFI15:
 603              		.cfi_def_cfa_offset 16
 604              		.cfi_offset 6, -16
 605 0005 4889E5   		movq	%rsp, %rbp
 606              	.LCFI16:
 607              		.cfi_def_cfa_register 6
 608 0008 4883EC40 		subq	$64, %rsp
 609              		.loc 1 325 1
 610 000c 64488B04 		movq	%fs:40, %rax
 610      25280000 
 610      00
 611 0015 488945F8 		movq	%rax, -8(%rbp)
 612 0019 31C0     		xorl	%eax, %eax
 326:/home/xingli/share/LiteOS_Lab/oc/oc_mqtt/oc_mqtt_profile_v5/oc_mqtt_demo.c ****     int ret = (int)en_oc_mqtt_err_ok;
 613              		.loc 1 326 9
 614 001b C745CC00 		movl	$0, -52(%rbp)
 614      000000
 327:/home/xingli/share/LiteOS_Lab/oc/oc_mqtt/oc_mqtt_profile_v5/oc_mqtt_demo.c ****     oc_mqtt_profile_msgup_t msgup;
 328:/home/xingli/share/LiteOS_Lab/oc/oc_mqtt/oc_mqtt_profile_v5/oc_mqtt_demo.c **** 
GAS LISTING /tmp/ccoF6jRD.s 			page 21


 329:/home/xingli/share/LiteOS_Lab/oc/oc_mqtt/oc_mqtt_profile_v5/oc_mqtt_demo.c ****     msgup.device_id = CN_EP_DEVICEID;
 615              		.loc 1 329 21
 616 0022 488D0500 		leaq	.LC7(%rip), %rax
 616      000000
 617 0029 488945D0 		movq	%rax, -48(%rbp)
 330:/home/xingli/share/LiteOS_Lab/oc/oc_mqtt/oc_mqtt_profile_v5/oc_mqtt_demo.c ****     msgup.id = "54321";
 618              		.loc 1 330 14
 619 002d 488D0500 		leaq	.LC8(%rip), %rax
 619      000000
 620 0034 488945E0 		movq	%rax, -32(%rbp)
 331:/home/xingli/share/LiteOS_Lab/oc/oc_mqtt/oc_mqtt_profile_v5/oc_mqtt_demo.c ****     msgup.name = "MSGUP";
 621              		.loc 1 331 16
 622 0038 488D0500 		leaq	.LC9(%rip), %rax
 622      000000
 623 003f 488945D8 		movq	%rax, -40(%rbp)
 332:/home/xingli/share/LiteOS_Lab/oc/oc_mqtt/oc_mqtt_profile_v5/oc_mqtt_demo.c ****     msgup.msg = (void *)"Hello, new world";
 624              		.loc 1 332 15
 625 0043 488D0500 		leaq	.LC10(%rip), %rax
 625      000000
 626 004a 488945E8 		movq	%rax, -24(%rbp)
 333:/home/xingli/share/LiteOS_Lab/oc/oc_mqtt/oc_mqtt_profile_v5/oc_mqtt_demo.c ****     msgup.msg_len = strlen(msgup.msg);
 627              		.loc 1 333 33
 628 004e 488B45E8 		movq	-24(%rbp), %rax
 629              		.loc 1 333 21
 630 0052 4889C7   		movq	%rax, %rdi
 631 0055 E8000000 		call	strlen@PLT
 631      00
 632              		.loc 1 333 19
 633 005a 8945F0   		movl	%eax, -16(%rbp)
 334:/home/xingli/share/LiteOS_Lab/oc/oc_mqtt/oc_mqtt_profile_v5/oc_mqtt_demo.c ****     ret = oc_mqtt_profile_msgup(NULL, &msgup);
 634              		.loc 1 334 11
 635 005d 488D45D0 		leaq	-48(%rbp), %rax
 636 0061 4889C6   		movq	%rax, %rsi
 637 0064 BF000000 		movl	$0, %edi
 637      00
 638 0069 E8000000 		call	oc_mqtt_profile_msgup@PLT
 638      00
 639 006e 8945CC   		movl	%eax, -52(%rbp)
 335:/home/xingli/share/LiteOS_Lab/oc/oc_mqtt/oc_mqtt_profile_v5/oc_mqtt_demo.c ****     return ret;
 640              		.loc 1 335 12
 641 0071 8B45CC   		movl	-52(%rbp), %eax
 336:/home/xingli/share/LiteOS_Lab/oc/oc_mqtt/oc_mqtt_profile_v5/oc_mqtt_demo.c **** }
 642              		.loc 1 336 1
 643 0074 488B55F8 		movq	-8(%rbp), %rdx
 644 0078 64483314 		xorq	%fs:40, %rdx
 644      25280000 
 644      00
 645 0081 7405     		je	.L35
 646 0083 E8000000 		call	__stack_chk_fail@PLT
 646      00
 647              	.L35:
 648 0088 C9       		leave
 649              	.LCFI17:
 650              		.cfi_def_cfa 7, 8
 651 0089 C3       		ret
 652              		.cfi_endproc
 653              	.LFE5:
GAS LISTING /tmp/ccoF6jRD.s 			page 22


 655              		.section	.rodata
 656              	.LC11:
 657 0160 31323334 		.string	"12345"
 657      3500
 658              		.section	.text.demo_msgup_longdata,"ax",@progbits
 660              	demo_msgup_longdata:
 661              	.LFB6:
 337:/home/xingli/share/LiteOS_Lab/oc/oc_mqtt/oc_mqtt_profile_v5/oc_mqtt_demo.c **** 
 338:/home/xingli/share/LiteOS_Lab/oc/oc_mqtt/oc_mqtt_profile_v5/oc_mqtt_demo.c **** static int demo_msgup_longdata(void) // /< big data test
 339:/home/xingli/share/LiteOS_Lab/oc/oc_mqtt/oc_mqtt_profile_v5/oc_mqtt_demo.c **** {
 662              		.loc 1 339 1
 663              		.cfi_startproc
 664 0000 F30F1EFA 		endbr64
 665 0004 55       		pushq	%rbp
 666              	.LCFI18:
 667              		.cfi_def_cfa_offset 16
 668              		.cfi_offset 6, -16
 669 0005 4889E5   		movq	%rsp, %rbp
 670              	.LCFI19:
 671              		.cfi_def_cfa_register 6
 672 0008 4883EC40 		subq	$64, %rsp
 673              		.loc 1 339 1
 674 000c 64488B04 		movq	%fs:40, %rax
 674      25280000 
 674      00
 675 0015 488945F8 		movq	%rax, -8(%rbp)
 676 0019 31C0     		xorl	%eax, %eax
 340:/home/xingli/share/LiteOS_Lab/oc/oc_mqtt/oc_mqtt_profile_v5/oc_mqtt_demo.c ****     int ret = (int)en_oc_mqtt_err_ok;
 677              		.loc 1 340 9
 678 001b C745CC00 		movl	$0, -52(%rbp)
 678      000000
 341:/home/xingli/share/LiteOS_Lab/oc/oc_mqtt/oc_mqtt_profile_v5/oc_mqtt_demo.c ****     oc_mqtt_profile_msgup_t msgup;
 342:/home/xingli/share/LiteOS_Lab/oc/oc_mqtt/oc_mqtt_profile_v5/oc_mqtt_demo.c **** 
 343:/home/xingli/share/LiteOS_Lab/oc/oc_mqtt/oc_mqtt_profile_v5/oc_mqtt_demo.c ****     msgup.device_id = CN_EP_DEVICEID;
 679              		.loc 1 343 21
 680 0022 488D0500 		leaq	.LC7(%rip), %rax
 680      000000
 681 0029 488945D0 		movq	%rax, -48(%rbp)
 344:/home/xingli/share/LiteOS_Lab/oc/oc_mqtt/oc_mqtt_profile_v5/oc_mqtt_demo.c ****     msgup.id = "12345";
 682              		.loc 1 344 14
 683 002d 488D0500 		leaq	.LC11(%rip), %rax
 683      000000
 684 0034 488945E0 		movq	%rax, -32(%rbp)
 345:/home/xingli/share/LiteOS_Lab/oc/oc_mqtt/oc_mqtt_profile_v5/oc_mqtt_demo.c ****     msgup.name = "MSGUP";
 685              		.loc 1 345 16
 686 0038 488D0500 		leaq	.LC9(%rip), %rax
 686      000000
 687 003f 488945D8 		movq	%rax, -40(%rbp)
 346:/home/xingli/share/LiteOS_Lab/oc/oc_mqtt/oc_mqtt_profile_v5/oc_mqtt_demo.c ****     msgup.msg = (void *)g_data_msg;
 688              		.loc 1 346 15
 689 0043 488D0500 		leaq	g_data_msg(%rip), %rax
 689      000000
 690 004a 488945E8 		movq	%rax, -24(%rbp)
 347:/home/xingli/share/LiteOS_Lab/oc/oc_mqtt/oc_mqtt_profile_v5/oc_mqtt_demo.c ****     msgup.msg_len = sizeof(g_data_msg);
 691              		.loc 1 347 19
 692 004e C745F052 		movl	$1362, -16(%rbp)
 692      050000
GAS LISTING /tmp/ccoF6jRD.s 			page 23


 348:/home/xingli/share/LiteOS_Lab/oc/oc_mqtt/oc_mqtt_profile_v5/oc_mqtt_demo.c ****     ret = oc_mqtt_profile_msgup(NULL, &msgup);
 693              		.loc 1 348 11
 694 0055 488D45D0 		leaq	-48(%rbp), %rax
 695 0059 4889C6   		movq	%rax, %rsi
 696 005c BF000000 		movl	$0, %edi
 696      00
 697 0061 E8000000 		call	oc_mqtt_profile_msgup@PLT
 697      00
 698 0066 8945CC   		movl	%eax, -52(%rbp)
 349:/home/xingli/share/LiteOS_Lab/oc/oc_mqtt/oc_mqtt_profile_v5/oc_mqtt_demo.c ****     return ret;
 699              		.loc 1 349 12
 700 0069 8B45CC   		movl	-52(%rbp), %eax
 350:/home/xingli/share/LiteOS_Lab/oc/oc_mqtt/oc_mqtt_profile_v5/oc_mqtt_demo.c **** }
 701              		.loc 1 350 1
 702 006c 488B55F8 		movq	-8(%rbp), %rdx
 703 0070 64483314 		xorq	%fs:40, %rdx
 703      25280000 
 703      00
 704 0079 7405     		je	.L38
 705 007b E8000000 		call	__stack_chk_fail@PLT
 705      00
 706              	.L38:
 707 0080 C9       		leave
 708              	.LCFI20:
 709              		.cfi_def_cfa 7, 8
 710 0081 C3       		ret
 711              		.cfi_endproc
 712              	.LFE6:
 714              		.section	.text.demo_propertireport,"ax",@progbits
 716              	demo_propertireport:
 717              	.LFB7:
 351:/home/xingli/share/LiteOS_Lab/oc/oc_mqtt/oc_mqtt_profile_v5/oc_mqtt_demo.c **** 
 352:/home/xingli/share/LiteOS_Lab/oc/oc_mqtt/oc_mqtt_profile_v5/oc_mqtt_demo.c **** static int demo_propertireport(void)
 353:/home/xingli/share/LiteOS_Lab/oc/oc_mqtt/oc_mqtt_profile_v5/oc_mqtt_demo.c **** {
 718              		.loc 1 353 1
 719              		.cfi_startproc
 720 0000 F30F1EFA 		endbr64
 721 0004 55       		pushq	%rbp
 722              	.LCFI21:
 723              		.cfi_def_cfa_offset 16
 724              		.cfi_offset 6, -16
 725 0005 4889E5   		movq	%rsp, %rbp
 726              	.LCFI22:
 727              		.cfi_def_cfa_register 6
 728 0008 4883EC10 		subq	$16, %rsp
 729              		.loc 1 353 1
 730 000c 64488B04 		movq	%fs:40, %rax
 730      25280000 
 730      00
 731 0015 488945F8 		movq	%rax, -8(%rbp)
 732 0019 31C0     		xorl	%eax, %eax
 354:/home/xingli/share/LiteOS_Lab/oc/oc_mqtt/oc_mqtt_profile_v5/oc_mqtt_demo.c ****     int ret;
 355:/home/xingli/share/LiteOS_Lab/oc/oc_mqtt/oc_mqtt_profile_v5/oc_mqtt_demo.c ****     static int value = 1;
 356:/home/xingli/share/LiteOS_Lab/oc/oc_mqtt/oc_mqtt_profile_v5/oc_mqtt_demo.c **** 
 357:/home/xingli/share/LiteOS_Lab/oc/oc_mqtt/oc_mqtt_profile_v5/oc_mqtt_demo.c ****     value++;
 733              		.loc 1 357 10
 734 001b 8B050000 		movl	value.3219(%rip), %eax
GAS LISTING /tmp/ccoF6jRD.s 			page 24


 734      0000
 735 0021 83C001   		addl	$1, %eax
 736 0024 89050000 		movl	%eax, value.3219(%rip)
 736      0000
 358:/home/xingli/share/LiteOS_Lab/oc/oc_mqtt/oc_mqtt_profile_v5/oc_mqtt_demo.c ****     s_device_service.service_property->key = "radioValue";
 737              		.loc 1 358 21
 738 002a 488B0500 		movq	24+s_device_service(%rip), %rax
 738      000000
 739              		.loc 1 358 44
 740 0031 488D1500 		leaq	.LC2(%rip), %rdx
 740      000000
 741 0038 48895008 		movq	%rdx, 8(%rax)
 359:/home/xingli/share/LiteOS_Lab/oc/oc_mqtt/oc_mqtt_profile_v5/oc_mqtt_demo.c ****     s_device_service.service_property->value = &value;
 742              		.loc 1 359 21
 743 003c 488B0500 		movq	24+s_device_service(%rip), %rax
 743      000000
 744              		.loc 1 359 46
 745 0043 488D1500 		leaq	value.3219(%rip), %rdx
 745      000000
 746 004a 48895018 		movq	%rdx, 24(%rax)
 360:/home/xingli/share/LiteOS_Lab/oc/oc_mqtt/oc_mqtt_profile_v5/oc_mqtt_demo.c ****     s_device_service.service_property->type = EN_OC_MQTT_PROFILE_VALUE_INT;
 747              		.loc 1 360 21
 748 004e 488B0500 		movq	24+s_device_service(%rip), %rax
 748      000000
 749              		.loc 1 360 45
 750 0055 C7401000 		movl	$0, 16(%rax)
 750      000000
 361:/home/xingli/share/LiteOS_Lab/oc/oc_mqtt/oc_mqtt_profile_v5/oc_mqtt_demo.c ****     ret = oc_mqtt_profile_propertyreport(NULL, &s_device_service);
 751              		.loc 1 361 11
 752 005c 488D3500 		leaq	s_device_service(%rip), %rsi
 752      000000
 753 0063 BF000000 		movl	$0, %edi
 753      00
 754 0068 E8000000 		call	oc_mqtt_profile_propertyreport@PLT
 754      00
 755 006d 8945F4   		movl	%eax, -12(%rbp)
 362:/home/xingli/share/LiteOS_Lab/oc/oc_mqtt/oc_mqtt_profile_v5/oc_mqtt_demo.c **** 
 363:/home/xingli/share/LiteOS_Lab/oc/oc_mqtt/oc_mqtt_profile_v5/oc_mqtt_demo.c ****     return ret;
 756              		.loc 1 363 12
 757 0070 8B45F4   		movl	-12(%rbp), %eax
 364:/home/xingli/share/LiteOS_Lab/oc/oc_mqtt/oc_mqtt_profile_v5/oc_mqtt_demo.c **** }
 758              		.loc 1 364 1
 759 0073 488B4DF8 		movq	-8(%rbp), %rcx
 760 0077 6448330C 		xorq	%fs:40, %rcx
 760      25280000 
 760      00
 761 0080 7405     		je	.L41
 762 0082 E8000000 		call	__stack_chk_fail@PLT
 762      00
 763              	.L41:
 764 0087 C9       		leave
 765              	.LCFI23:
 766              		.cfi_def_cfa 7, 8
 767 0088 C3       		ret
 768              		.cfi_endproc
 769              	.LFE7:
 771              		.section	.rodata
GAS LISTING /tmp/ccoF6jRD.s 			page 25


 772 0166 0000     		.align 8
 773              	.LC12:
 774 0168 7B227365 		.string	"{\"services\":[{\"service_id\":\"DeviceStatus\",\"properties\":{\"radioValue\":2}}]}"
 774      72766963 
 774      6573223A 
 774      5B7B2273 
 774      65727669 
 775              		.section	.text.demo_pubdefault,"ax",@progbits
 777              	demo_pubdefault:
 778              	.LFB8:
 365:/home/xingli/share/LiteOS_Lab/oc/oc_mqtt/oc_mqtt_profile_v5/oc_mqtt_demo.c **** 
 366:/home/xingli/share/LiteOS_Lab/oc/oc_mqtt/oc_mqtt_profile_v5/oc_mqtt_demo.c **** static int demo_pubdefault(void)
 367:/home/xingli/share/LiteOS_Lab/oc/oc_mqtt/oc_mqtt_profile_v5/oc_mqtt_demo.c **** {
 779              		.loc 1 367 1
 780              		.cfi_startproc
 781 0000 F30F1EFA 		endbr64
 782 0004 55       		pushq	%rbp
 783              	.LCFI24:
 784              		.cfi_def_cfa_offset 16
 785              		.cfi_offset 6, -16
 786 0005 4889E5   		movq	%rsp, %rbp
 787              	.LCFI25:
 788              		.cfi_def_cfa_register 6
 789 0008 4883EC20 		subq	$32, %rsp
 790              		.loc 1 367 1
 791 000c 64488B04 		movq	%fs:40, %rax
 791      25280000 
 791      00
 792 0015 488945F8 		movq	%rax, -8(%rbp)
 793 0019 31C0     		xorl	%eax, %eax
 368:/home/xingli/share/LiteOS_Lab/oc/oc_mqtt/oc_mqtt_profile_v5/oc_mqtt_demo.c ****     int ret;
 369:/home/xingli/share/LiteOS_Lab/oc/oc_mqtt/oc_mqtt_profile_v5/oc_mqtt_demo.c ****     const char *data = "{\"services\":[{\"service_id\":\"DeviceStatus\",\"properties\":{\"radioValu
 794              		.loc 1 369 17
 795 001b 488D0500 		leaq	.LC12(%rip), %rax
 795      000000
 796 0022 488945F0 		movq	%rax, -16(%rbp)
 370:/home/xingli/share/LiteOS_Lab/oc/oc_mqtt/oc_mqtt_profile_v5/oc_mqtt_demo.c ****     ret = oc_mqtt_publish(NULL, (uint8_t *)data, strlen(data), 0);
 797              		.loc 1 370 50
 798 0026 488B45F0 		movq	-16(%rbp), %rax
 799 002a 4889C7   		movq	%rax, %rdi
 800 002d E8000000 		call	strlen@PLT
 800      00
 801              		.loc 1 370 11
 802 0032 89C2     		movl	%eax, %edx
 803 0034 488B45F0 		movq	-16(%rbp), %rax
 804 0038 B9000000 		movl	$0, %ecx
 804      00
 805 003d 4889C6   		movq	%rax, %rsi
 806 0040 BF000000 		movl	$0, %edi
 806      00
 807 0045 E8000000 		call	oc_mqtt_publish@PLT
 807      00
 808 004a 8945EC   		movl	%eax, -20(%rbp)
 371:/home/xingli/share/LiteOS_Lab/oc/oc_mqtt/oc_mqtt_profile_v5/oc_mqtt_demo.c ****     return ret;
 809              		.loc 1 371 12
 810 004d 8B45EC   		movl	-20(%rbp), %eax
 372:/home/xingli/share/LiteOS_Lab/oc/oc_mqtt/oc_mqtt_profile_v5/oc_mqtt_demo.c **** }
GAS LISTING /tmp/ccoF6jRD.s 			page 26


 811              		.loc 1 372 1
 812 0050 488B4DF8 		movq	-8(%rbp), %rcx
 813 0054 6448330C 		xorq	%fs:40, %rcx
 813      25280000 
 813      00
 814 005d 7405     		je	.L44
 815 005f E8000000 		call	__stack_chk_fail@PLT
 815      00
 816              	.L44:
 817 0064 C9       		leave
 818              	.LCFI26:
 819              		.cfi_def_cfa 7, 8
 820 0065 C3       		ret
 821              		.cfi_endproc
 822              	.LFE8:
 824              		.section	.rodata
 825              	.LC13:
 826 01b3 31323334 		.string	"123456789"
 826      35363738 
 826      3900
 827              		.section	.text.demo_getshadow,"ax",@progbits
 829              	demo_getshadow:
 830              	.LFB9:
 373:/home/xingli/share/LiteOS_Lab/oc/oc_mqtt/oc_mqtt_profile_v5/oc_mqtt_demo.c **** 
 374:/home/xingli/share/LiteOS_Lab/oc/oc_mqtt/oc_mqtt_profile_v5/oc_mqtt_demo.c **** static int demo_getshadow(void)
 375:/home/xingli/share/LiteOS_Lab/oc/oc_mqtt/oc_mqtt_profile_v5/oc_mqtt_demo.c **** {
 831              		.loc 1 375 1
 832              		.cfi_startproc
 833 0000 F30F1EFA 		endbr64
 834 0004 55       		pushq	%rbp
 835              	.LCFI27:
 836              		.cfi_def_cfa_offset 16
 837              		.cfi_offset 6, -16
 838 0005 4889E5   		movq	%rsp, %rbp
 839              	.LCFI28:
 840              		.cfi_def_cfa_register 6
 841 0008 4883EC30 		subq	$48, %rsp
 842              		.loc 1 375 1
 843 000c 64488B04 		movq	%fs:40, %rax
 843      25280000 
 843      00
 844 0015 488945F8 		movq	%rax, -8(%rbp)
 845 0019 31C0     		xorl	%eax, %eax
 376:/home/xingli/share/LiteOS_Lab/oc/oc_mqtt/oc_mqtt_profile_v5/oc_mqtt_demo.c ****     int ret;
 377:/home/xingli/share/LiteOS_Lab/oc/oc_mqtt/oc_mqtt_profile_v5/oc_mqtt_demo.c ****     oc_mqtt_profile_shadowget_t payload;
 378:/home/xingli/share/LiteOS_Lab/oc/oc_mqtt/oc_mqtt_profile_v5/oc_mqtt_demo.c ****     payload.object_device_id = NULL;
 846              		.loc 1 378 30
 847 001b 48C745E0 		movq	$0, -32(%rbp)
 847      00000000 
 379:/home/xingli/share/LiteOS_Lab/oc/oc_mqtt/oc_mqtt_profile_v5/oc_mqtt_demo.c ****     payload.request_id = "123456789";
 848              		.loc 1 379 24
 849 0023 488D0500 		leaq	.LC13(%rip), %rax
 849      000000
 850 002a 488945F0 		movq	%rax, -16(%rbp)
 380:/home/xingli/share/LiteOS_Lab/oc/oc_mqtt/oc_mqtt_profile_v5/oc_mqtt_demo.c ****     payload.service_id = NULL;
 851              		.loc 1 380 24
 852 002e 48C745E8 		movq	$0, -24(%rbp)
GAS LISTING /tmp/ccoF6jRD.s 			page 27


 852      00000000 
 381:/home/xingli/share/LiteOS_Lab/oc/oc_mqtt/oc_mqtt_profile_v5/oc_mqtt_demo.c **** 
 382:/home/xingli/share/LiteOS_Lab/oc/oc_mqtt/oc_mqtt_profile_v5/oc_mqtt_demo.c ****     ret = oc_mqtt_profile_getshadow(NULL, &payload);
 853              		.loc 1 382 11
 854 0036 488D45E0 		leaq	-32(%rbp), %rax
 855 003a 4889C6   		movq	%rax, %rsi
 856 003d BF000000 		movl	$0, %edi
 856      00
 857 0042 E8000000 		call	oc_mqtt_profile_getshadow@PLT
 857      00
 858 0047 8945DC   		movl	%eax, -36(%rbp)
 383:/home/xingli/share/LiteOS_Lab/oc/oc_mqtt/oc_mqtt_profile_v5/oc_mqtt_demo.c ****     return ret;
 859              		.loc 1 383 12
 860 004a 8B45DC   		movl	-36(%rbp), %eax
 384:/home/xingli/share/LiteOS_Lab/oc/oc_mqtt/oc_mqtt_profile_v5/oc_mqtt_demo.c **** }
 861              		.loc 1 384 1
 862 004d 488B55F8 		movq	-8(%rbp), %rdx
 863 0051 64483314 		xorq	%fs:40, %rdx
 863      25280000 
 863      00
 864 005a 7405     		je	.L47
 865 005c E8000000 		call	__stack_chk_fail@PLT
 865      00
 866              	.L47:
 867 0061 C9       		leave
 868              	.LCFI29:
 869              		.cfi_def_cfa 7, 8
 870 0062 C3       		ret
 871              		.cfi_endproc
 872              	.LFE9:
 874              		.section	.rodata
 875 01bd 000000   		.align 8
 876              	.LC14:
 877 01c0 246F632F 		.string	"$oc/devices/5ecb90df65950b07183b58dd_dpmqtt003/sys/events/up"
 877      64657669 
 877      6365732F 
 877      35656362 
 877      39306466 
 878 01fd 000000   		.align 8
 879              	.LC15:
 880 0200 7B202273 		.string	"{ \"services\": [{ \"service_id\": \"$ota\", \"event_type\": \"version_report\", \"paras\
 880      65727669 
 880      63657322 
 880      3A205B7B 
 880      20227365 
 881              		.section	.text.demo_reportversion,"ax",@progbits
 883              	demo_reportversion:
 884              	.LFB10:
 385:/home/xingli/share/LiteOS_Lab/oc/oc_mqtt/oc_mqtt_profile_v5/oc_mqtt_demo.c **** 
 386:/home/xingli/share/LiteOS_Lab/oc/oc_mqtt/oc_mqtt_profile_v5/oc_mqtt_demo.c **** static int demo_reportversion(void)
 387:/home/xingli/share/LiteOS_Lab/oc/oc_mqtt/oc_mqtt_profile_v5/oc_mqtt_demo.c **** {
 885              		.loc 1 387 1
 886              		.cfi_startproc
 887 0000 F30F1EFA 		endbr64
 888 0004 55       		pushq	%rbp
 889              	.LCFI30:
 890              		.cfi_def_cfa_offset 16
GAS LISTING /tmp/ccoF6jRD.s 			page 28


 891              		.cfi_offset 6, -16
 892 0005 4889E5   		movq	%rsp, %rbp
 893              	.LCFI31:
 894              		.cfi_def_cfa_register 6
 895 0008 4883EC20 		subq	$32, %rsp
 896              		.loc 1 387 1
 897 000c 64488B04 		movq	%fs:40, %rax
 897      25280000 
 897      00
 898 0015 488945F8 		movq	%rax, -8(%rbp)
 899 0019 31C0     		xorl	%eax, %eax
 388:/home/xingli/share/LiteOS_Lab/oc/oc_mqtt/oc_mqtt_profile_v5/oc_mqtt_demo.c ****     int ret;
 389:/home/xingli/share/LiteOS_Lab/oc/oc_mqtt/oc_mqtt_profile_v5/oc_mqtt_demo.c ****     char *topic = "$oc/devices/" CN_EP_DEVICEID "/sys/events/up";
 900              		.loc 1 389 11
 901 001b 488D0500 		leaq	.LC14(%rip), %rax
 901      000000
 902 0022 488945E8 		movq	%rax, -24(%rbp)
 390:/home/xingli/share/LiteOS_Lab/oc/oc_mqtt/oc_mqtt_profile_v5/oc_mqtt_demo.c ****     char *data = "{ \"services\": [{ \"service_id\": \"$ota\", \"event_type\": \"version_report\", 
 903              		.loc 1 390 11
 904 0026 488D0500 		leaq	.LC15(%rip), %rax
 904      000000
 905 002d 488945F0 		movq	%rax, -16(%rbp)
 391:/home/xingli/share/LiteOS_Lab/oc/oc_mqtt/oc_mqtt_profile_v5/oc_mqtt_demo.c ****                  "\"sw_version\":\"v1.0\",\"fw_version\":\"v1.0\" } }]}";
 392:/home/xingli/share/LiteOS_Lab/oc/oc_mqtt/oc_mqtt_profile_v5/oc_mqtt_demo.c ****     ret = oc_mqtt_publish(topic, (uint8_t *)data, strlen(data), 0);
 906              		.loc 1 392 51
 907 0031 488B45F0 		movq	-16(%rbp), %rax
 908 0035 4889C7   		movq	%rax, %rdi
 909 0038 E8000000 		call	strlen@PLT
 909      00
 910              		.loc 1 392 11
 911 003d 89C2     		movl	%eax, %edx
 912 003f 488B75F0 		movq	-16(%rbp), %rsi
 913 0043 488B45E8 		movq	-24(%rbp), %rax
 914 0047 B9000000 		movl	$0, %ecx
 914      00
 915 004c 4889C7   		movq	%rax, %rdi
 916 004f E8000000 		call	oc_mqtt_publish@PLT
 916      00
 917 0054 8945E4   		movl	%eax, -28(%rbp)
 393:/home/xingli/share/LiteOS_Lab/oc/oc_mqtt/oc_mqtt_profile_v5/oc_mqtt_demo.c **** 
 394:/home/xingli/share/LiteOS_Lab/oc/oc_mqtt/oc_mqtt_profile_v5/oc_mqtt_demo.c ****     return ret;
 918              		.loc 1 394 12
 919 0057 8B45E4   		movl	-28(%rbp), %eax
 395:/home/xingli/share/LiteOS_Lab/oc/oc_mqtt/oc_mqtt_profile_v5/oc_mqtt_demo.c **** }
 920              		.loc 1 395 1
 921 005a 488B4DF8 		movq	-8(%rbp), %rcx
 922 005e 6448330C 		xorq	%fs:40, %rcx
 922      25280000 
 922      00
 923 0067 7405     		je	.L50
 924 0069 E8000000 		call	__stack_chk_fail@PLT
 924      00
 925              	.L50:
 926 006e C9       		leave
 927              	.LCFI32:
 928              		.cfi_def_cfa 7, 8
 929 006f C3       		ret
GAS LISTING /tmp/ccoF6jRD.s 			page 29


 930              		.cfi_endproc
 931              	.LFE10:
 933              		.section	.rodata
 934              	.LC16:
 935 0280 55534552 		.string	"USERSUB"
 935      53554200 
 936              	.LC17:
 937 0288 55534552 		.string	"USERPUB"
 937      50554200 
 938              	.LC18:
 939 0290 55534552 		.string	"USERUNSUB"
 939      554E5355 
 939      4200
 940              	.LC19:
 941 029a 4D534755 		.string	"MSGUP_SHORTDATA"
 941      505F5348 
 941      4F525444 
 941      41544100 
 942              	.LC20:
 943 02aa 4D534755 		.string	"MSGUP_LONGDATA"
 943      505F4C4F 
 943      4E474441 
 943      544100
 944              	.LC21:
 945 02b9 50524F50 		.string	"PROPERTY_REPORT"
 945      45525459 
 945      5F524550 
 945      4F525400 
 946              	.LC22:
 947 02c9 5055424C 		.string	"PUBLISH_DEFAULT"
 947      4953485F 
 947      44454641 
 947      554C5400 
 948              	.LC23:
 949 02d9 47455453 		.string	"GETSHADOW"
 949      4841444F 
 949      5700
 950              	.LC24:
 951 02e3 5245504F 		.string	"REPORTVERSION"
 951      52545645 
 951      5253494F 
 951      4E00
 952              		.section	.data.rel.local.g_ocmqttv5_testarray,"aw"
 953              		.align 32
 956              	g_ocmqttv5_testarray:
 957 0000 00000000 		.quad	.LC16
 957      00000000 
 958 0008 00000000 		.quad	demo_usersub_topic
 958      00000000 
 959 0010 00000000 		.zero	8
 959      00000000 
 960 0018 00000000 		.quad	.LC17
 960      00000000 
 961 0020 00000000 		.quad	demo_userpub
 961      00000000 
 962 0028 00000000 		.zero	8
 962      00000000 
GAS LISTING /tmp/ccoF6jRD.s 			page 30


 963 0030 00000000 		.quad	.LC18
 963      00000000 
 964 0038 00000000 		.quad	demo_userunsub_topic
 964      00000000 
 965 0040 00000000 		.zero	8
 965      00000000 
 966 0048 00000000 		.quad	.LC19
 966      00000000 
 967 0050 00000000 		.quad	demo_msgup_shortdata
 967      00000000 
 968 0058 00000000 		.zero	8
 968      00000000 
 969 0060 00000000 		.quad	.LC20
 969      00000000 
 970 0068 00000000 		.quad	demo_msgup_longdata
 970      00000000 
 971 0070 00000000 		.zero	8
 971      00000000 
 972 0078 00000000 		.quad	.LC21
 972      00000000 
 973 0080 00000000 		.quad	demo_propertireport
 973      00000000 
 974 0088 00000000 		.zero	8
 974      00000000 
 975 0090 00000000 		.quad	.LC22
 975      00000000 
 976 0098 00000000 		.quad	demo_pubdefault
 976      00000000 
 977 00a0 00000000 		.zero	8
 977      00000000 
 978 00a8 00000000 		.quad	.LC23
 978      00000000 
 979 00b0 00000000 		.quad	demo_getshadow
 979      00000000 
 980 00b8 00000000 		.zero	8
 980      00000000 
 981 00c0 00000000 		.quad	.LC24
 981      00000000 
 982 00c8 00000000 		.quad	demo_reportversion
 982      00000000 
 983 00d0 00000000 		.zero	8
 983      00000000 
 984              		.section	.rodata
 985 02f1 00000000 		.align 8
 985      000000
 986              	.LC25:
 987 02f8 44454D4F 		.string	"DEMORUN:%d TIMES CASE:%d RET:%d FAILTTOTAL:%d NAME:%s \r\n"
 987      52554E3A 
 987      25642054 
 987      494D4553 
 987      20434153 
 988              		.section	.text.oc_report_normal,"ax",@progbits
 990              	oc_report_normal:
 991              	.LFB11:
 396:/home/xingli/share/LiteOS_Lab/oc/oc_mqtt/oc_mqtt_profile_v5/oc_mqtt_demo.c **** 
 397:/home/xingli/share/LiteOS_Lab/oc/oc_mqtt/oc_mqtt_profile_v5/oc_mqtt_demo.c **** typedef int (*fn_ocmqttv5_demofunc)(void);
 398:/home/xingli/share/LiteOS_Lab/oc/oc_mqtt/oc_mqtt_profile_v5/oc_mqtt_demo.c **** typedef struct {
GAS LISTING /tmp/ccoF6jRD.s 			page 31


 399:/home/xingli/share/LiteOS_Lab/oc/oc_mqtt/oc_mqtt_profile_v5/oc_mqtt_demo.c ****     const char *name;
 400:/home/xingli/share/LiteOS_Lab/oc/oc_mqtt/oc_mqtt_profile_v5/oc_mqtt_demo.c ****     fn_ocmqttv5_demofunc func;
 401:/home/xingli/share/LiteOS_Lab/oc/oc_mqtt/oc_mqtt_profile_v5/oc_mqtt_demo.c ****     int failtimes;
 402:/home/xingli/share/LiteOS_Lab/oc/oc_mqtt/oc_mqtt_profile_v5/oc_mqtt_demo.c **** } ocmqttv5_democase_t;
 403:/home/xingli/share/LiteOS_Lab/oc/oc_mqtt/oc_mqtt_profile_v5/oc_mqtt_demo.c **** 
 404:/home/xingli/share/LiteOS_Lab/oc/oc_mqtt/oc_mqtt_profile_v5/oc_mqtt_demo.c **** static ocmqttv5_democase_t g_ocmqttv5_testarray []=
 405:/home/xingli/share/LiteOS_Lab/oc/oc_mqtt/oc_mqtt_profile_v5/oc_mqtt_demo.c **** {
 406:/home/xingli/share/LiteOS_Lab/oc/oc_mqtt/oc_mqtt_profile_v5/oc_mqtt_demo.c ****     {"USERSUB", demo_usersub_topic},
 407:/home/xingli/share/LiteOS_Lab/oc/oc_mqtt/oc_mqtt_profile_v5/oc_mqtt_demo.c ****     {"USERPUB", demo_userpub},
 408:/home/xingli/share/LiteOS_Lab/oc/oc_mqtt/oc_mqtt_profile_v5/oc_mqtt_demo.c ****     {"USERUNSUB", demo_userunsub_topic},
 409:/home/xingli/share/LiteOS_Lab/oc/oc_mqtt/oc_mqtt_profile_v5/oc_mqtt_demo.c ****     {"MSGUP_SHORTDATA", demo_msgup_shortdata},
 410:/home/xingli/share/LiteOS_Lab/oc/oc_mqtt/oc_mqtt_profile_v5/oc_mqtt_demo.c ****     {"MSGUP_LONGDATA", demo_msgup_longdata},
 411:/home/xingli/share/LiteOS_Lab/oc/oc_mqtt/oc_mqtt_profile_v5/oc_mqtt_demo.c ****     {"PROPERTY_REPORT", demo_propertireport},
 412:/home/xingli/share/LiteOS_Lab/oc/oc_mqtt/oc_mqtt_profile_v5/oc_mqtt_demo.c ****     {"PUBLISH_DEFAULT", demo_pubdefault},
 413:/home/xingli/share/LiteOS_Lab/oc/oc_mqtt/oc_mqtt_profile_v5/oc_mqtt_demo.c ****     {"GETSHADOW", demo_getshadow},
 414:/home/xingli/share/LiteOS_Lab/oc/oc_mqtt/oc_mqtt_profile_v5/oc_mqtt_demo.c ****     {"REPORTVERSION", demo_reportversion},
 415:/home/xingli/share/LiteOS_Lab/oc/oc_mqtt/oc_mqtt_profile_v5/oc_mqtt_demo.c **** 
 416:/home/xingli/share/LiteOS_Lab/oc/oc_mqtt/oc_mqtt_profile_v5/oc_mqtt_demo.c **** };
 417:/home/xingli/share/LiteOS_Lab/oc/oc_mqtt/oc_mqtt_profile_v5/oc_mqtt_demo.c **** #define CN_OCMQTTV5_DEMOCASENUM (sizeof(g_ocmqttv5_testarray) / sizeof(ocmqttv5_democase_t))
 418:/home/xingli/share/LiteOS_Lab/oc/oc_mqtt/oc_mqtt_profile_v5/oc_mqtt_demo.c **** 
 419:/home/xingli/share/LiteOS_Lab/oc/oc_mqtt/oc_mqtt_profile_v5/oc_mqtt_demo.c **** static void oc_report_normal(void)
 420:/home/xingli/share/LiteOS_Lab/oc/oc_mqtt/oc_mqtt_profile_v5/oc_mqtt_demo.c **** {
 992              		.loc 1 420 1
 993              		.cfi_startproc
 994 0000 F30F1EFA 		endbr64
 995 0004 55       		pushq	%rbp
 996              	.LCFI33:
 997              		.cfi_def_cfa_offset 16
 998              		.cfi_offset 6, -16
 999 0005 4889E5   		movq	%rsp, %rbp
 1000              	.LCFI34:
 1001              		.cfi_def_cfa_register 6
 1002 0008 4883EC10 		subq	$16, %rsp
 1003              		.loc 1 420 1
 1004 000c 64488B04 		movq	%fs:40, %rax
 1004      25280000 
 1004      00
 1005 0015 488945F8 		movq	%rax, -8(%rbp)
 1006 0019 31C0     		xorl	%eax, %eax
 421:/home/xingli/share/LiteOS_Lab/oc/oc_mqtt/oc_mqtt_profile_v5/oc_mqtt_demo.c ****     int i = 0;
 1007              		.loc 1 421 9
 1008 001b C745F000 		movl	$0, -16(%rbp)
 1008      000000
 422:/home/xingli/share/LiteOS_Lab/oc/oc_mqtt/oc_mqtt_profile_v5/oc_mqtt_demo.c ****     int ret;
 423:/home/xingli/share/LiteOS_Lab/oc/oc_mqtt/oc_mqtt_profile_v5/oc_mqtt_demo.c ****     static uint32_t runtimes = 0;
 424:/home/xingli/share/LiteOS_Lab/oc/oc_mqtt/oc_mqtt_profile_v5/oc_mqtt_demo.c ****     runtimes++;
 1009              		.loc 1 424 13
 1010 0022 8B050000 		movl	runtimes.3249(%rip), %eax
 1010      0000
 1011 0028 83C001   		addl	$1, %eax
 1012 002b 89050000 		movl	%eax, runtimes.3249(%rip)
 1012      0000
 425:/home/xingli/share/LiteOS_Lab/oc/oc_mqtt/oc_mqtt_profile_v5/oc_mqtt_demo.c **** 
 426:/home/xingli/share/LiteOS_Lab/oc/oc_mqtt/oc_mqtt_profile_v5/oc_mqtt_demo.c ****     for (i = 0; i < (int)CN_OCMQTTV5_DEMOCASENUM; i++) {
 1013              		.loc 1 426 12
 1014 0031 C745F000 		movl	$0, -16(%rbp)
 1014      000000
GAS LISTING /tmp/ccoF6jRD.s 			page 32


 1015              		.loc 1 426 5
 1016 0038 E9DF0000 		jmp	.L52
 1016      00
 1017              	.L54:
 427:/home/xingli/share/LiteOS_Lab/oc/oc_mqtt/oc_mqtt_profile_v5/oc_mqtt_demo.c ****         ret = g_ocmqttv5_testarray[i].func();
 1018              		.loc 1 427 38
 1019 003d 8B45F0   		movl	-16(%rbp), %eax
 1020 0040 4863D0   		movslq	%eax, %rdx
 1021 0043 4889D0   		movq	%rdx, %rax
 1022 0046 4801C0   		addq	%rax, %rax
 1023 0049 4801D0   		addq	%rdx, %rax
 1024 004c 48C1E003 		salq	$3, %rax
 1025 0050 4889C2   		movq	%rax, %rdx
 1026 0053 488D0500 		leaq	8+g_ocmqttv5_testarray(%rip), %rax
 1026      000000
 1027 005a 488B0402 		movq	(%rdx,%rax), %rax
 1028              		.loc 1 427 15
 1029 005e FFD0     		call	*%rax
 1030              	.LVL0:
 1031 0060 8945F4   		movl	%eax, -12(%rbp)
 428:/home/xingli/share/LiteOS_Lab/oc/oc_mqtt/oc_mqtt_profile_v5/oc_mqtt_demo.c ****         if (ret != 0) {
 1032              		.loc 1 428 12
 1033 0063 837DF400 		cmpl	$0, -12(%rbp)
 1034 0067 7443     		je	.L53
 429:/home/xingli/share/LiteOS_Lab/oc/oc_mqtt/oc_mqtt_profile_v5/oc_mqtt_demo.c ****             g_ocmqttv5_testarray[i].failtimes++;
 1035              		.loc 1 429 36
 1036 0069 8B45F0   		movl	-16(%rbp), %eax
 1037 006c 4863D0   		movslq	%eax, %rdx
 1038 006f 4889D0   		movq	%rdx, %rax
 1039 0072 4801C0   		addq	%rax, %rax
 1040 0075 4801D0   		addq	%rdx, %rax
 1041 0078 48C1E003 		salq	$3, %rax
 1042 007c 4889C2   		movq	%rax, %rdx
 1043 007f 488D0500 		leaq	16+g_ocmqttv5_testarray(%rip), %rax
 1043      000000
 1044 0086 8B0402   		movl	(%rdx,%rax), %eax
 1045              		.loc 1 429 46
 1046 0089 8D4801   		leal	1(%rax), %ecx
 1047 008c 8B45F0   		movl	-16(%rbp), %eax
 1048 008f 4863D0   		movslq	%eax, %rdx
 1049 0092 4889D0   		movq	%rdx, %rax
 1050 0095 4801C0   		addq	%rax, %rax
 1051 0098 4801D0   		addq	%rdx, %rax
 1052 009b 48C1E003 		salq	$3, %rax
 1053 009f 4889C2   		movq	%rax, %rdx
 1054 00a2 488D0500 		leaq	16+g_ocmqttv5_testarray(%rip), %rax
 1054      000000
 1055 00a9 890C02   		movl	%ecx, (%rdx,%rax)
 1056              	.L53:
 430:/home/xingli/share/LiteOS_Lab/oc/oc_mqtt/oc_mqtt_profile_v5/oc_mqtt_demo.c ****         }
 431:/home/xingli/share/LiteOS_Lab/oc/oc_mqtt/oc_mqtt_profile_v5/oc_mqtt_demo.c ****         (void)printf("DEMORUN:%d TIMES CASE:%d RET:%d FAILTTOTAL:%d NAME:%s \r\n", (int)runtimes, i
 1057              		.loc 1 431 15 discriminator 2
 1058 00ac 8B45F0   		movl	-16(%rbp), %eax
 1059 00af 4863D0   		movslq	%eax, %rdx
 1060 00b2 4889D0   		movq	%rdx, %rax
 1061 00b5 4801C0   		addq	%rax, %rax
 1062 00b8 4801D0   		addq	%rdx, %rax
GAS LISTING /tmp/ccoF6jRD.s 			page 33


 1063 00bb 48C1E003 		salq	$3, %rax
 1064 00bf 4889C2   		movq	%rax, %rdx
 1065 00c2 488D0500 		leaq	g_ocmqttv5_testarray(%rip), %rax
 1065      000000
 1066 00c9 488B3402 		movq	(%rdx,%rax), %rsi
 1067 00cd 8B45F0   		movl	-16(%rbp), %eax
 1068 00d0 4863D0   		movslq	%eax, %rdx
 1069 00d3 4889D0   		movq	%rdx, %rax
 1070 00d6 4801C0   		addq	%rax, %rax
 1071 00d9 4801D0   		addq	%rdx, %rax
 1072 00dc 48C1E003 		salq	$3, %rax
 1073 00e0 4889C2   		movq	%rax, %rdx
 1074 00e3 488D0500 		leaq	16+g_ocmqttv5_testarray(%rip), %rax
 1074      000000
 1075 00ea 8B0C02   		movl	(%rdx,%rax), %ecx
 1076 00ed 8B050000 		movl	runtimes.3249(%rip), %eax
 1076      0000
 1077 00f3 89C7     		movl	%eax, %edi
 1078 00f5 8B55F4   		movl	-12(%rbp), %edx
 1079 00f8 8B45F0   		movl	-16(%rbp), %eax
 1080 00fb 4989F1   		movq	%rsi, %r9
 1081 00fe 4189C8   		movl	%ecx, %r8d
 1082 0101 89D1     		movl	%edx, %ecx
 1083 0103 89C2     		movl	%eax, %edx
 1084 0105 89FE     		movl	%edi, %esi
 1085 0107 488D3D00 		leaq	.LC25(%rip), %rdi
 1085      000000
 1086 010e B8000000 		movl	$0, %eax
 1086      00
 1087 0113 E8000000 		call	printf@PLT
 1087      00
 426:/home/xingli/share/LiteOS_Lab/oc/oc_mqtt/oc_mqtt_profile_v5/oc_mqtt_demo.c ****         ret = g_ocmqttv5_testarray[i].func();
 1088              		.loc 1 426 52 discriminator 2
 1089 0118 8345F001 		addl	$1, -16(%rbp)
 1090              	.L52:
 426:/home/xingli/share/LiteOS_Lab/oc/oc_mqtt/oc_mqtt_profile_v5/oc_mqtt_demo.c ****         ret = g_ocmqttv5_testarray[i].func();
 1091              		.loc 1 426 5 discriminator 1
 1092 011c 837DF008 		cmpl	$8, -16(%rbp)
 1093 0120 0F8E17FF 		jle	.L54
 1093      FFFF
 432:/home/xingli/share/LiteOS_Lab/oc/oc_mqtt/oc_mqtt_profile_v5/oc_mqtt_demo.c ****             g_ocmqttv5_testarray[i].failtimes, g_ocmqttv5_testarray[i].name);
 433:/home/xingli/share/LiteOS_Lab/oc/oc_mqtt/oc_mqtt_profile_v5/oc_mqtt_demo.c ****     }
 434:/home/xingli/share/LiteOS_Lab/oc/oc_mqtt/oc_mqtt_profile_v5/oc_mqtt_demo.c ****     return;
 1094              		.loc 1 434 5
 1095 0126 90       		nop
 435:/home/xingli/share/LiteOS_Lab/oc/oc_mqtt/oc_mqtt_profile_v5/oc_mqtt_demo.c **** }
 1096              		.loc 1 435 1
 1097 0127 488B45F8 		movq	-8(%rbp), %rax
 1098 012b 64483304 		xorq	%fs:40, %rax
 1098      25280000 
 1098      00
 1099 0134 7405     		je	.L56
 1100 0136 E8000000 		call	__stack_chk_fail@PLT
 1100      00
 1101              	.L56:
 1102 013b C9       		leave
 1103              	.LCFI35:
GAS LISTING /tmp/ccoF6jRD.s 			page 34


 1104              		.cfi_def_cfa 7, 8
 1105 013c C3       		ret
 1106              		.cfi_endproc
 1107              	.LFE11:
 1109              		.section	.text.task_rcvmsg_entry,"ax",@progbits
 1111              	task_rcvmsg_entry:
 1112              	.LFB12:
 436:/home/xingli/share/LiteOS_Lab/oc/oc_mqtt/oc_mqtt_profile_v5/oc_mqtt_demo.c **** 
 437:/home/xingli/share/LiteOS_Lab/oc/oc_mqtt/oc_mqtt_profile_v5/oc_mqtt_demo.c **** static int task_rcvmsg_entry(void *args)
 438:/home/xingli/share/LiteOS_Lab/oc/oc_mqtt/oc_mqtt_profile_v5/oc_mqtt_demo.c **** {
 1113              		.loc 1 438 1
 1114              		.cfi_startproc
 1115 0000 F30F1EFA 		endbr64
 1116 0004 55       		pushq	%rbp
 1117              	.LCFI36:
 1118              		.cfi_def_cfa_offset 16
 1119              		.cfi_offset 6, -16
 1120 0005 4889E5   		movq	%rsp, %rbp
 1121              	.LCFI37:
 1122              		.cfi_def_cfa_register 6
 1123 0008 4883EC20 		subq	$32, %rsp
 1124 000c 48897DE8 		movq	%rdi, -24(%rbp)
 1125              		.loc 1 438 1
 1126 0010 64488B04 		movq	%fs:40, %rax
 1126      25280000 
 1126      00
 1127 0019 488945F8 		movq	%rax, -8(%rbp)
 1128 001d 31C0     		xorl	%eax, %eax
 1129              	.L59:
 439:/home/xingli/share/LiteOS_Lab/oc/oc_mqtt/oc_mqtt_profile_v5/oc_mqtt_demo.c ****     oc_mqtt_profile_msgrcv_t *demo_msg;
 440:/home/xingli/share/LiteOS_Lab/oc/oc_mqtt/oc_mqtt_profile_v5/oc_mqtt_demo.c ****     while (1) {
 441:/home/xingli/share/LiteOS_Lab/oc/oc_mqtt/oc_mqtt_profile_v5/oc_mqtt_demo.c ****         demo_msg = NULL;
 1130              		.loc 1 441 18
 1131 001f 48C745F0 		movq	$0, -16(%rbp)
 1131      00000000 
 442:/home/xingli/share/LiteOS_Lab/oc/oc_mqtt/oc_mqtt_profile_v5/oc_mqtt_demo.c ****         (void)queue_pop(s_queue_rcvmsg, (void **)&demo_msg, (int)cn_osal_timeout_forever);
 1132              		.loc 1 442 9
 1133 0027 488B0500 		movq	s_queue_rcvmsg(%rip), %rax
 1133      000000
 1134              		.loc 1 442 15
 1135 002e 488D4DF0 		leaq	-16(%rbp), %rcx
 1136 0032 BAFFFFFF 		movl	$-1, %edx
 1136      FF
 1137 0037 4889CE   		movq	%rcx, %rsi
 1138 003a 4889C7   		movq	%rax, %rdi
 1139 003d E8000000 		call	queue_pop@PLT
 1139      00
 443:/home/xingli/share/LiteOS_Lab/oc/oc_mqtt/oc_mqtt_profile_v5/oc_mqtt_demo.c ****         if (NULL != demo_msg) {
 1140              		.loc 1 443 18
 1141 0042 488B45F0 		movq	-16(%rbp), %rax
 1142              		.loc 1 443 12
 1143 0046 4885C0   		testq	%rax, %rax
 1144 0049 74D4     		je	.L59
 444:/home/xingli/share/LiteOS_Lab/oc/oc_mqtt/oc_mqtt_profile_v5/oc_mqtt_demo.c ****             (void)oc_cmd_normal(demo_msg);
 1145              		.loc 1 444 13
 1146 004b 488B45F0 		movq	-16(%rbp), %rax
 1147              		.loc 1 444 19
GAS LISTING /tmp/ccoF6jRD.s 			page 35


 1148 004f 4889C7   		movq	%rax, %rdi
 1149 0052 E8000000 		call	oc_cmd_normal
 1149      00
 445:/home/xingli/share/LiteOS_Lab/oc/oc_mqtt/oc_mqtt_profile_v5/oc_mqtt_demo.c ****             osal_free(demo_msg);
 1150              		.loc 1 445 13
 1151 0057 488B45F0 		movq	-16(%rbp), %rax
 1152 005b 4889C7   		movq	%rax, %rdi
 1153 005e E8000000 		call	osal_free@PLT
 1153      00
 441:/home/xingli/share/LiteOS_Lab/oc/oc_mqtt/oc_mqtt_profile_v5/oc_mqtt_demo.c ****         (void)queue_pop(s_queue_rcvmsg, (void **)&demo_msg, (int)cn_osal_timeout_forever);
 1154              		.loc 1 441 18
 1155 0063 EBBA     		jmp	.L59
 1156              		.cfi_endproc
 1157              	.LFE12:
 1159              		.section	.rodata
 1160              	.LC26:
 1161 0331 25733A63 		.string	"%s:connected %d\n\r"
 1161      6F6E6E65 
 1161      63746564 
 1161      2025640A 
 1161      0D00
 1162              	.LC27:
 1163 0343 25733A64 		.string	"%s:disconnected %d\n\r"
 1163      6973636F 
 1163      6E6E6563 
 1163      74656420 
 1163      25640A0D 
 1164              		.section	.text.hwoc_mqtt_log,"ax",@progbits
 1165              		.globl	hwoc_mqtt_log
 1167              	hwoc_mqtt_log:
 1168              	.LFB13:
 446:/home/xingli/share/LiteOS_Lab/oc/oc_mqtt/oc_mqtt_profile_v5/oc_mqtt_demo.c ****         }
 447:/home/xingli/share/LiteOS_Lab/oc/oc_mqtt/oc_mqtt_profile_v5/oc_mqtt_demo.c ****     }
 448:/home/xingli/share/LiteOS_Lab/oc/oc_mqtt/oc_mqtt_profile_v5/oc_mqtt_demo.c ****     return 0;
 449:/home/xingli/share/LiteOS_Lab/oc/oc_mqtt/oc_mqtt_profile_v5/oc_mqtt_demo.c **** }
 450:/home/xingli/share/LiteOS_Lab/oc/oc_mqtt/oc_mqtt_profile_v5/oc_mqtt_demo.c **** 
 451:/home/xingli/share/LiteOS_Lab/oc/oc_mqtt/oc_mqtt_profile_v5/oc_mqtt_demo.c **** void hwoc_mqtt_log(en_oc_mqtt_log_t logtype)
 452:/home/xingli/share/LiteOS_Lab/oc/oc_mqtt/oc_mqtt_profile_v5/oc_mqtt_demo.c **** {
 1169              		.loc 1 452 1
 1170              		.cfi_startproc
 1171 0000 F30F1EFA 		endbr64
 1172 0004 55       		pushq	%rbp
 1173              	.LCFI38:
 1174              		.cfi_def_cfa_offset 16
 1175              		.cfi_offset 6, -16
 1176 0005 4889E5   		movq	%rsp, %rbp
 1177              	.LCFI39:
 1178              		.cfi_def_cfa_register 6
 1179 0008 4883EC20 		subq	$32, %rsp
 1180 000c 897DEC   		movl	%edi, -20(%rbp)
 1181              		.loc 1 452 1
 1182 000f 64488B04 		movq	%fs:40, %rax
 1182      25280000 
 1182      00
 1183 0018 488945F8 		movq	%rax, -8(%rbp)
 1184 001c 31C0     		xorl	%eax, %eax
 453:/home/xingli/share/LiteOS_Lab/oc/oc_mqtt/oc_mqtt_profile_v5/oc_mqtt_demo.c ****     if (logtype == en_oc_mqtt_log_connected) {
GAS LISTING /tmp/ccoF6jRD.s 			page 36


 1185              		.loc 1 453 8
 1186 001e 837DEC00 		cmpl	$0, -20(%rbp)
 1187 0022 751F     		jne	.L62
 454:/home/xingli/share/LiteOS_Lab/oc/oc_mqtt/oc_mqtt_profile_v5/oc_mqtt_demo.c ****         (void)printf("%s:connected %d\n\r", __FUNCTION__, (int)logtype);
 1188              		.loc 1 454 15
 1189 0024 8B45EC   		movl	-20(%rbp), %eax
 1190 0027 89C2     		movl	%eax, %edx
 1191 0029 488D3500 		leaq	__FUNCTION__.3261(%rip), %rsi
 1191      000000
 1192 0030 488D3D00 		leaq	.LC26(%rip), %rdi
 1192      000000
 1193 0037 B8000000 		movl	$0, %eax
 1193      00
 1194 003c E8000000 		call	printf@PLT
 1194      00
 455:/home/xingli/share/LiteOS_Lab/oc/oc_mqtt/oc_mqtt_profile_v5/oc_mqtt_demo.c ****     } else {
 456:/home/xingli/share/LiteOS_Lab/oc/oc_mqtt/oc_mqtt_profile_v5/oc_mqtt_demo.c ****         (void)printf("%s:disconnected %d\n\r", __FUNCTION__, (int)logtype);
 457:/home/xingli/share/LiteOS_Lab/oc/oc_mqtt/oc_mqtt_profile_v5/oc_mqtt_demo.c ****     }
 458:/home/xingli/share/LiteOS_Lab/oc/oc_mqtt/oc_mqtt_profile_v5/oc_mqtt_demo.c **** 
 459:/home/xingli/share/LiteOS_Lab/oc/oc_mqtt/oc_mqtt_profile_v5/oc_mqtt_demo.c ****     return;
 1195              		.loc 1 459 5
 1196 0041 EB1E     		jmp	.L61
 1197              	.L62:
 456:/home/xingli/share/LiteOS_Lab/oc/oc_mqtt/oc_mqtt_profile_v5/oc_mqtt_demo.c ****     }
 1198              		.loc 1 456 15
 1199 0043 8B45EC   		movl	-20(%rbp), %eax
 1200 0046 89C2     		movl	%eax, %edx
 1201 0048 488D3500 		leaq	__FUNCTION__.3261(%rip), %rsi
 1201      000000
 1202 004f 488D3D00 		leaq	.LC27(%rip), %rdi
 1202      000000
 1203 0056 B8000000 		movl	$0, %eax
 1203      00
 1204 005b E8000000 		call	printf@PLT
 1204      00
 1205              		.loc 1 459 5
 1206 0060 90       		nop
 1207              	.L61:
 460:/home/xingli/share/LiteOS_Lab/oc/oc_mqtt/oc_mqtt_profile_v5/oc_mqtt_demo.c **** }
 1208              		.loc 1 460 1
 1209 0061 488B45F8 		movq	-8(%rbp), %rax
 1210 0065 64483304 		xorq	%fs:40, %rax
 1210      25280000 
 1210      00
 1211 006e 7405     		je	.L65
 1212 0070 E8000000 		call	__stack_chk_fail@PLT
 1212      00
 1213              	.L65:
 1214 0075 C9       		leave
 1215              	.LCFI40:
 1216              		.cfi_def_cfa 7, 8
 1217 0076 C3       		ret
 1218              		.cfi_endproc
 1219              	.LFE13:
 1221              		.section	.rodata
 1222              	.LC28:
 1223 0358 66363266 		.string	"f62fcf47d62c4ed18913"
GAS LISTING /tmp/ccoF6jRD.s 			page 37


 1223      63663437 
 1223      64363263 
 1223      34656431 
 1223      38393133 
 1224              	.LC29:
 1225 036d 3132312E 		.string	"121.36.42.100"
 1225      33362E34 
 1225      322E3130 
 1225      3000
 1226              	.LC30:
 1227 037b 31383833 		.string	"1883"
 1227      00
 1228              	.LC31:
 1229 0380 636F6E66 		.string	"config:err :code:%d\r\n"
 1229      69673A65 
 1229      7272203A 
 1229      636F6465 
 1229      3A25640D 
 1230              		.section	.text.task_reportmsg_entry,"ax",@progbits
 1232              	task_reportmsg_entry:
 1233              	.LFB14:
 461:/home/xingli/share/LiteOS_Lab/oc/oc_mqtt/oc_mqtt_profile_v5/oc_mqtt_demo.c **** 
 462:/home/xingli/share/LiteOS_Lab/oc/oc_mqtt/oc_mqtt_profile_v5/oc_mqtt_demo.c **** static int task_reportmsg_entry(void *args)
 463:/home/xingli/share/LiteOS_Lab/oc/oc_mqtt/oc_mqtt_profile_v5/oc_mqtt_demo.c **** {
 1234              		.loc 1 463 1
 1235              		.cfi_startproc
 1236 0000 F30F1EFA 		endbr64
 1237 0004 55       		pushq	%rbp
 1238              	.LCFI41:
 1239              		.cfi_def_cfa_offset 16
 1240              		.cfi_offset 6, -16
 1241 0005 4889E5   		movq	%rsp, %rbp
 1242              	.LCFI42:
 1243              		.cfi_def_cfa_register 6
 1244 0008 4881ECB0 		subq	$176, %rsp
 1244      000000
 1245 000f 4889BD58 		movq	%rdi, -168(%rbp)
 1245      FFFFFF
 1246              		.loc 1 463 1
 1247 0016 64488B04 		movq	%fs:40, %rax
 1247      25280000 
 1247      00
 1248 001f 488945F8 		movq	%rax, -8(%rbp)
 1249 0023 31C0     		xorl	%eax, %eax
 464:/home/xingli/share/LiteOS_Lab/oc/oc_mqtt/oc_mqtt_profile_v5/oc_mqtt_demo.c ****     int ret;
 465:/home/xingli/share/LiteOS_Lab/oc/oc_mqtt/oc_mqtt_profile_v5/oc_mqtt_demo.c ****     oc_mqtt_profile_connect_t connect_para;
 466:/home/xingli/share/LiteOS_Lab/oc/oc_mqtt/oc_mqtt_profile_v5/oc_mqtt_demo.c **** 
 467:/home/xingli/share/LiteOS_Lab/oc/oc_mqtt/oc_mqtt_profile_v5/oc_mqtt_demo.c ****     (void)memset(&connect_para, 0, sizeof(connect_para));
 1250              		.loc 1 467 11
 1251 0025 488D8570 		leaq	-144(%rbp), %rax
 1251      FFFFFF
 1252 002c BA800000 		movl	$128, %edx
 1252      00
 1253 0031 BE000000 		movl	$0, %esi
 1253      00
 1254 0036 4889C7   		movq	%rax, %rdi
 1255 0039 E8000000 		call	memset@PLT
GAS LISTING /tmp/ccoF6jRD.s 			page 38


 1255      00
 468:/home/xingli/share/LiteOS_Lab/oc/oc_mqtt/oc_mqtt_profile_v5/oc_mqtt_demo.c **** 
 469:/home/xingli/share/LiteOS_Lab/oc/oc_mqtt/oc_mqtt_profile_v5/oc_mqtt_demo.c ****     connect_para.boostrap = CN_BOOT_MODE;
 1256              		.loc 1 469 27
 1257 003e C78570FF 		movl	$0, -144(%rbp)
 1257      FFFF0000 
 1257      0000
 470:/home/xingli/share/LiteOS_Lab/oc/oc_mqtt/oc_mqtt_profile_v5/oc_mqtt_demo.c ****     connect_para.device_id = CN_EP_DEVICEID;
 1258              		.loc 1 470 28
 1259 0048 488D0500 		leaq	.LC7(%rip), %rax
 1259      000000
 1260 004f 48894588 		movq	%rax, -120(%rbp)
 471:/home/xingli/share/LiteOS_Lab/oc/oc_mqtt/oc_mqtt_profile_v5/oc_mqtt_demo.c ****     connect_para.device_passwd = CN_EP_PASSWD;
 1261              		.loc 1 471 32
 1262 0053 488D0500 		leaq	.LC28(%rip), %rax
 1262      000000
 1263 005a 48894590 		movq	%rax, -112(%rbp)
 472:/home/xingli/share/LiteOS_Lab/oc/oc_mqtt/oc_mqtt_profile_v5/oc_mqtt_demo.c ****     connect_para.server_addr = CN_SERVER_IPV4;
 1264              		.loc 1 472 30
 1265 005e 488D0500 		leaq	.LC29(%rip), %rax
 1265      000000
 1266 0065 48898578 		movq	%rax, -136(%rbp)
 1266      FFFFFF
 473:/home/xingli/share/LiteOS_Lab/oc/oc_mqtt/oc_mqtt_profile_v5/oc_mqtt_demo.c ****     connect_para.server_port = CN_SERVER_PORT;
 1267              		.loc 1 473 30
 1268 006c 488D0500 		leaq	.LC30(%rip), %rax
 1268      000000
 1269 0073 48894580 		movq	%rax, -128(%rbp)
 474:/home/xingli/share/LiteOS_Lab/oc/oc_mqtt/oc_mqtt_profile_v5/oc_mqtt_demo.c ****     connect_para.life_time = CN_LIFE_TIME;
 1270              		.loc 1 474 28
 1271 0077 C78574FF 		movl	$60, -140(%rbp)
 1271      FFFF3C00 
 1271      0000
 475:/home/xingli/share/LiteOS_Lab/oc/oc_mqtt/oc_mqtt_profile_v5/oc_mqtt_demo.c ****     connect_para.rcvfunc = app_msg_deal;
 1272              		.loc 1 475 26
 1273 0081 488D0500 		leaq	app_msg_deal(%rip), %rax
 1273      000000
 1274 0088 488945E0 		movq	%rax, -32(%rbp)
 476:/home/xingli/share/LiteOS_Lab/oc/oc_mqtt/oc_mqtt_profile_v5/oc_mqtt_demo.c ****     connect_para.logfunc = hwoc_mqtt_log;
 1275              		.loc 1 476 26
 1276 008c 488D0500 		leaq	hwoc_mqtt_log(%rip), %rax
 1276      000000
 1277 0093 488945E8 		movq	%rax, -24(%rbp)
 477:/home/xingli/share/LiteOS_Lab/oc/oc_mqtt/oc_mqtt_profile_v5/oc_mqtt_demo.c **** 
 478:/home/xingli/share/LiteOS_Lab/oc/oc_mqtt/oc_mqtt_profile_v5/oc_mqtt_demo.c ****     connect_para.security.type = CN_SECURITY_TYPE;
 1278              		.loc 1 478 32
 1279 0097 C745A000 		movl	$0, -96(%rbp)
 1279      000000
 479:/home/xingli/share/LiteOS_Lab/oc/oc_mqtt/oc_mqtt_profile_v5/oc_mqtt_demo.c **** 
 480:/home/xingli/share/LiteOS_Lab/oc/oc_mqtt/oc_mqtt_profile_v5/oc_mqtt_demo.c **** #ifdef CONFIG_OC_MQTTV5_DEMO_TLS
 481:/home/xingli/share/LiteOS_Lab/oc/oc_mqtt/oc_mqtt_profile_v5/oc_mqtt_demo.c ****     connect_para.security.u.cert.server_ca = (uint8_t *)s_server_ca;
 482:/home/xingli/share/LiteOS_Lab/oc/oc_mqtt/oc_mqtt_profile_v5/oc_mqtt_demo.c ****     connect_para.security.u.cert.server_ca_len = sizeof(s_server_ca);
 483:/home/xingli/share/LiteOS_Lab/oc/oc_mqtt/oc_mqtt_profile_v5/oc_mqtt_demo.c **** #ifdef CONFIG_OC_MQTTV5_TLS_BIDIRECTION
 484:/home/xingli/share/LiteOS_Lab/oc/oc_mqtt/oc_mqtt_profile_v5/oc_mqtt_demo.c ****     connect_para.device_passwd = NULL;
 485:/home/xingli/share/LiteOS_Lab/oc/oc_mqtt/oc_mqtt_profile_v5/oc_mqtt_demo.c ****     connect_para.security.u.cert.client_ca = (uint8_t *)s_client_ca;
 486:/home/xingli/share/LiteOS_Lab/oc/oc_mqtt/oc_mqtt_profile_v5/oc_mqtt_demo.c ****     connect_para.security.u.cert.client_ca_len = sizeof(s_client_ca);
 487:/home/xingli/share/LiteOS_Lab/oc/oc_mqtt/oc_mqtt_profile_v5/oc_mqtt_demo.c ****     connect_para.security.u.cert.client_pk = (uint8_t *)s_client_pk;
GAS LISTING /tmp/ccoF6jRD.s 			page 39


 488:/home/xingli/share/LiteOS_Lab/oc/oc_mqtt/oc_mqtt_profile_v5/oc_mqtt_demo.c ****     connect_para.security.u.cert.client_pk_len = sizeof(s_client_pk);
 489:/home/xingli/share/LiteOS_Lab/oc/oc_mqtt/oc_mqtt_profile_v5/oc_mqtt_demo.c ****     connect_para.security.u.cert.client_pk_pwd = (uint8_t *)s_client_pk_pwd;
 490:/home/xingli/share/LiteOS_Lab/oc/oc_mqtt/oc_mqtt_profile_v5/oc_mqtt_demo.c ****     connect_para.security.u.cert.client_pk_pwd_len = strlen(s_client_pk_pwd);
 491:/home/xingli/share/LiteOS_Lab/oc/oc_mqtt/oc_mqtt_profile_v5/oc_mqtt_demo.c **** #endif // /<endfor bidirection
 492:/home/xingli/share/LiteOS_Lab/oc/oc_mqtt/oc_mqtt_profile_v5/oc_mqtt_demo.c **** #endif // /<endfor tls
 493:/home/xingli/share/LiteOS_Lab/oc/oc_mqtt/oc_mqtt_profile_v5/oc_mqtt_demo.c **** 
 494:/home/xingli/share/LiteOS_Lab/oc/oc_mqtt/oc_mqtt_profile_v5/oc_mqtt_demo.c ****     ret = oc_mqtt_profile_connect(&connect_para);
 1280              		.loc 1 494 11
 1281 009e 488D8570 		leaq	-144(%rbp), %rax
 1281      FFFFFF
 1282 00a5 4889C7   		movq	%rax, %rdi
 1283 00a8 E8000000 		call	oc_mqtt_profile_connect@PLT
 1283      00
 1284 00ad 89856CFF 		movl	%eax, -148(%rbp)
 1284      FFFF
 495:/home/xingli/share/LiteOS_Lab/oc/oc_mqtt/oc_mqtt_profile_v5/oc_mqtt_demo.c ****     if ((ret != (int)en_oc_mqtt_err_ok)) {
 1285              		.loc 1 495 8
 1286 00b3 83BD6CFF 		cmpl	$0, -148(%rbp)
 1286      FFFF00
 1287 00ba 742F     		je	.L67
 496:/home/xingli/share/LiteOS_Lab/oc/oc_mqtt/oc_mqtt_profile_v5/oc_mqtt_demo.c ****         (void)printf("config:err :code:%d\r\n", ret);
 1288              		.loc 1 496 15
 1289 00bc 8B856CFF 		movl	-148(%rbp), %eax
 1289      FFFF
 1290 00c2 89C6     		movl	%eax, %esi
 1291 00c4 488D3D00 		leaq	.LC31(%rip), %rdi
 1291      000000
 1292 00cb B8000000 		movl	$0, %eax
 1292      00
 1293 00d0 E8000000 		call	printf@PLT
 1293      00
 497:/home/xingli/share/LiteOS_Lab/oc/oc_mqtt/oc_mqtt_profile_v5/oc_mqtt_demo.c ****         return -1;
 1294              		.loc 1 497 16
 1295 00d5 B8FFFFFF 		movl	$-1, %eax
 1295      FF
 498:/home/xingli/share/LiteOS_Lab/oc/oc_mqtt/oc_mqtt_profile_v5/oc_mqtt_demo.c ****     }
 499:/home/xingli/share/LiteOS_Lab/oc/oc_mqtt/oc_mqtt_profile_v5/oc_mqtt_demo.c ****     while (1) { // do the loop here
 500:/home/xingli/share/LiteOS_Lab/oc/oc_mqtt/oc_mqtt_profile_v5/oc_mqtt_demo.c ****         oc_report_normal();
 501:/home/xingli/share/LiteOS_Lab/oc/oc_mqtt/oc_mqtt_profile_v5/oc_mqtt_demo.c ****         osal_task_sleep(CONFIG_OCMQTTV5_DEMO_REPORTCYCLE);
 502:/home/xingli/share/LiteOS_Lab/oc/oc_mqtt/oc_mqtt_profile_v5/oc_mqtt_demo.c ****     }
 503:/home/xingli/share/LiteOS_Lab/oc/oc_mqtt/oc_mqtt_profile_v5/oc_mqtt_demo.c ****     return 0;
 504:/home/xingli/share/LiteOS_Lab/oc/oc_mqtt/oc_mqtt_profile_v5/oc_mqtt_demo.c **** }
 1296              		.loc 1 504 1
 1297 00da 488B4DF8 		movq	-8(%rbp), %rcx
 1298 00de 6448330C 		xorq	%fs:40, %rcx
 1298      25280000 
 1298      00
 1299 00e7 7418     		je	.L69
 1300 00e9 EB11     		jmp	.L70
 1301              	.L67:
 500:/home/xingli/share/LiteOS_Lab/oc/oc_mqtt/oc_mqtt_profile_v5/oc_mqtt_demo.c ****         osal_task_sleep(CONFIG_OCMQTTV5_DEMO_REPORTCYCLE);
 1302              		.loc 1 500 9 discriminator 1
 1303 00eb E8000000 		call	oc_report_normal
 1303      00
 501:/home/xingli/share/LiteOS_Lab/oc/oc_mqtt/oc_mqtt_profile_v5/oc_mqtt_demo.c ****     }
 1304              		.loc 1 501 9 discriminator 1
 1305 00f0 BFE80300 		movl	$1000, %edi
GAS LISTING /tmp/ccoF6jRD.s 			page 40


 1305      00
 1306 00f5 E8000000 		call	osal_task_sleep@PLT
 1306      00
 500:/home/xingli/share/LiteOS_Lab/oc/oc_mqtt/oc_mqtt_profile_v5/oc_mqtt_demo.c ****         osal_task_sleep(CONFIG_OCMQTTV5_DEMO_REPORTCYCLE);
 1307              		.loc 1 500 9 discriminator 1
 1308 00fa EBEF     		jmp	.L67
 1309              	.L70:
 1310              		.loc 1 504 1
 1311 00fc E8000000 		call	__stack_chk_fail@PLT
 1311      00
 1312              	.L69:
 1313 0101 C9       		leave
 1314              	.LCFI43:
 1315              		.cfi_def_cfa 7, 8
 1316 0102 C3       		ret
 1317              		.cfi_endproc
 1318              	.LFE14:
 1320              		.section	.rodata
 1321              	.LC32:
 1322 0396 444F2054 		.string	"DO THE OC MQTT V5 DEMOS\n\r"
 1322      4845204F 
 1322      43204D51 
 1322      54542056 
 1322      35204445 
 1323              	.LC33:
 1324 03b0 71756575 		.string	"queue_rcvmsg"
 1324      655F7263 
 1324      766D7367 
 1324      00
 1325              	.LC34:
 1326 03bd 44657669 		.string	"DeviceStatus"
 1326      63655374 
 1326      61747573 
 1326      00
 1327              	.LC35:
 1328 03ca 64656D6F 		.string	"demo_reportmsg"
 1328      5F726570 
 1328      6F72746D 
 1328      736700
 1329              	.LC36:
 1330 03d9 64656D6F 		.string	"demo_rcvmsg"
 1330      5F726376 
 1330      6D736700 
 1331              		.section	.text.oc_mqtt_demo_main,"ax",@progbits
 1332              		.globl	oc_mqtt_demo_main
 1334              	oc_mqtt_demo_main:
 1335              	.LFB15:
 505:/home/xingli/share/LiteOS_Lab/oc/oc_mqtt/oc_mqtt_profile_v5/oc_mqtt_demo.c **** 
 506:/home/xingli/share/LiteOS_Lab/oc/oc_mqtt/oc_mqtt_profile_v5/oc_mqtt_demo.c **** int oc_mqtt_demo_main()
 507:/home/xingli/share/LiteOS_Lab/oc/oc_mqtt/oc_mqtt_profile_v5/oc_mqtt_demo.c **** {
 1336              		.loc 1 507 1
 1337              		.cfi_startproc
 1338 0000 F30F1EFA 		endbr64
 1339 0004 55       		pushq	%rbp
 1340              	.LCFI44:
 1341              		.cfi_def_cfa_offset 16
 1342              		.cfi_offset 6, -16
GAS LISTING /tmp/ccoF6jRD.s 			page 41


 1343 0005 4889E5   		movq	%rsp, %rbp
 1344              	.LCFI45:
 1345              		.cfi_def_cfa_register 6
 1346 0008 4883EC10 		subq	$16, %rsp
 1347              		.loc 1 507 1
 1348 000c 64488B04 		movq	%fs:40, %rax
 1348      25280000 
 1348      00
 1349 0015 488945F8 		movq	%rax, -8(%rbp)
 1350 0019 31C0     		xorl	%eax, %eax
 508:/home/xingli/share/LiteOS_Lab/oc/oc_mqtt/oc_mqtt_profile_v5/oc_mqtt_demo.c ****     static oc_mqtt_profile_kv_t property;
 509:/home/xingli/share/LiteOS_Lab/oc/oc_mqtt/oc_mqtt_profile_v5/oc_mqtt_demo.c ****     (void)printf("DO THE OC MQTT V5 DEMOS\n\r");
 1351              		.loc 1 509 11
 1352 001b 488D3D00 		leaq	.LC32(%rip), %rdi
 1352      000000
 1353 0022 B8000000 		movl	$0, %eax
 1353      00
 1354 0027 E8000000 		call	printf@PLT
 1354      00
 510:/home/xingli/share/LiteOS_Lab/oc/oc_mqtt/oc_mqtt_profile_v5/oc_mqtt_demo.c ****     s_queue_rcvmsg = queue_create("queue_rcvmsg", 2, 1);
 1355              		.loc 1 510 22
 1356 002c BA010000 		movl	$1, %edx
 1356      00
 1357 0031 BE020000 		movl	$2, %esi
 1357      00
 1358 0036 488D3D00 		leaq	.LC33(%rip), %rdi
 1358      000000
 1359 003d E8000000 		call	queue_create@PLT
 1359      00
 1360              		.loc 1 510 20
 1361 0042 48890500 		movq	%rax, s_queue_rcvmsg(%rip)
 1361      000000
 511:/home/xingli/share/LiteOS_Lab/oc/oc_mqtt/oc_mqtt_profile_v5/oc_mqtt_demo.c ****     // /< initialize the service
 512:/home/xingli/share/LiteOS_Lab/oc/oc_mqtt/oc_mqtt_profile_v5/oc_mqtt_demo.c ****     property.nxt = NULL;
 1362              		.loc 1 512 18
 1363 0049 48C70500 		movq	$0, property.3270(%rip)
 1363      00000000 
 1363      000000
 513:/home/xingli/share/LiteOS_Lab/oc/oc_mqtt/oc_mqtt_profile_v5/oc_mqtt_demo.c ****     s_device_service.event_time = NULL;
 1364              		.loc 1 513 33
 1365 0054 48C70500 		movq	$0, 16+s_device_service(%rip)
 1365      00000000 
 1365      000000
 514:/home/xingli/share/LiteOS_Lab/oc/oc_mqtt/oc_mqtt_profile_v5/oc_mqtt_demo.c ****     s_device_service.service_id = "DeviceStatus";
 1366              		.loc 1 514 33
 1367 005f 488D0500 		leaq	.LC34(%rip), %rax
 1367      000000
 1368 0066 48890500 		movq	%rax, 8+s_device_service(%rip)
 1368      000000
 515:/home/xingli/share/LiteOS_Lab/oc/oc_mqtt/oc_mqtt_profile_v5/oc_mqtt_demo.c ****     s_device_service.service_property = &property;
 1369              		.loc 1 515 39
 1370 006d 488D0500 		leaq	property.3270(%rip), %rax
 1370      000000
 1371 0074 48890500 		movq	%rax, 24+s_device_service(%rip)
 1371      000000
 516:/home/xingli/share/LiteOS_Lab/oc/oc_mqtt/oc_mqtt_profile_v5/oc_mqtt_demo.c ****     s_device_service.nxt = NULL;
 1372              		.loc 1 516 26
GAS LISTING /tmp/ccoF6jRD.s 			page 42


 1373 007b 48C70500 		movq	$0, s_device_service(%rip)
 1373      00000000 
 1373      000000
 517:/home/xingli/share/LiteOS_Lab/oc/oc_mqtt/oc_mqtt_profile_v5/oc_mqtt_demo.c **** 
 518:/home/xingli/share/LiteOS_Lab/oc/oc_mqtt/oc_mqtt_profile_v5/oc_mqtt_demo.c ****     (void)osal_task_create("demo_reportmsg", task_reportmsg_entry, NULL, 0x800, NULL, 8);
 1374              		.loc 1 518 11
 1375 0086 41B90800 		movl	$8, %r9d
 1375      0000
 1376 008c 41B80000 		movl	$0, %r8d
 1376      0000
 1377 0092 B9000800 		movl	$2048, %ecx
 1377      00
 1378 0097 BA000000 		movl	$0, %edx
 1378      00
 1379 009c 488D3500 		leaq	task_reportmsg_entry(%rip), %rsi
 1379      000000
 1380 00a3 488D3D00 		leaq	.LC35(%rip), %rdi
 1380      000000
 1381 00aa E8000000 		call	osal_task_create@PLT
 1381      00
 519:/home/xingli/share/LiteOS_Lab/oc/oc_mqtt/oc_mqtt_profile_v5/oc_mqtt_demo.c ****     (void)osal_task_create("demo_rcvmsg", task_rcvmsg_entry, NULL, 0x800, NULL, 8);
 1382              		.loc 1 519 11
 1383 00af 41B90800 		movl	$8, %r9d
 1383      0000
 1384 00b5 41B80000 		movl	$0, %r8d
 1384      0000
 1385 00bb B9000800 		movl	$2048, %ecx
 1385      00
 1386 00c0 BA000000 		movl	$0, %edx
 1386      00
 1387 00c5 488D3500 		leaq	task_rcvmsg_entry(%rip), %rsi
 1387      000000
 1388 00cc 488D3D00 		leaq	.LC36(%rip), %rdi
 1388      000000
 1389 00d3 E8000000 		call	osal_task_create@PLT
 1389      00
 520:/home/xingli/share/LiteOS_Lab/oc/oc_mqtt/oc_mqtt_profile_v5/oc_mqtt_demo.c **** 
 521:/home/xingli/share/LiteOS_Lab/oc/oc_mqtt/oc_mqtt_profile_v5/oc_mqtt_demo.c ****     return 0;
 1390              		.loc 1 521 12
 1391 00d8 B8000000 		movl	$0, %eax
 1391      00
 522:/home/xingli/share/LiteOS_Lab/oc/oc_mqtt/oc_mqtt_profile_v5/oc_mqtt_demo.c **** }
 1392              		.loc 1 522 1
 1393 00dd 488B4DF8 		movq	-8(%rbp), %rcx
 1394 00e1 6448330C 		xorq	%fs:40, %rcx
 1394      25280000 
 1394      00
 1395 00ea 7405     		je	.L73
 1396 00ec E8000000 		call	__stack_chk_fail@PLT
 1396      00
 1397              	.L73:
 1398 00f1 C9       		leave
 1399              	.LCFI46:
 1400              		.cfi_def_cfa 7, 8
 1401 00f2 C3       		ret
 1402              		.cfi_endproc
 1403              	.LFE15:
GAS LISTING /tmp/ccoF6jRD.s 			page 43


 1405              		.section	.bss.value.3174,"aw",@nobits
 1406              		.align 4
 1409              	value.3174:
 1410 0000 00000000 		.zero	4
 1411              		.section	.data.value.3219,"aw"
 1412              		.align 4
 1415              	value.3219:
 1416 0000 01000000 		.long	1
 1417              		.section	.bss.runtimes.3249,"aw",@nobits
 1418              		.align 4
 1421              	runtimes.3249:
 1422 0000 00000000 		.zero	4
 1423              		.section	.rodata.__FUNCTION__.3261,"a"
 1424              		.align 8
 1427              	__FUNCTION__.3261:
 1428 0000 68776F63 		.string	"hwoc_mqtt_log"
 1428      5F6D7174 
 1428      745F6C6F 
 1428      6700
 1429              		.section	.bss.property.3270,"aw",@nobits
 1430              		.align 32
 1433              	property.3270:
 1434 0000 00000000 		.zero	40
 1434      00000000 
 1434      00000000 
 1434      00000000 
 1434      00000000 
 1435              		.text
 1436              	.Letext0:
 1437              		.file 2 "/usr/include/x86_64-linux-gnu/bits/types.h"
 1438              		.file 3 "/usr/include/x86_64-linux-gnu/bits/stdint-uintn.h"
 1439              		.file 4 "/usr/include/stdint.h"
 1440              		.file 5 "/usr/lib/gcc/x86_64-linux-gnu/9/include/stddef.h"
 1441              		.file 6 "/usr/include/x86_64-linux-gnu/bits/types/struct_FILE.h"
 1442              		.file 7 "/usr/include/x86_64-linux-gnu/bits/types/FILE.h"
 1443              		.file 8 "/usr/include/stdio.h"
 1444              		.file 9 "/usr/include/x86_64-linux-gnu/bits/sys_errlist.h"
 1445              		.file 10 "/home/xingli/share/LiteOS_Lab/os/osal/osal_types.h"
 1446              		.file 11 "/home/xingli/share/LiteOS_Lab/queue/queue.h"
 1447              		.file 12 "/home/xingli/share/LiteOS_Lab/inc/dtls_al.h"
 1448              		.file 13 "/home/xingli/share/LiteOS_Lab/oc/oc_mqtt/oc_mqtt_al/oc_mqtt_al.h"
 1449              		.file 14 "/home/xingli/share/LiteOS_Lab/oc/oc_mqtt/oc_mqtt_profile_v5/oc_mqtt_profile.h"
 5240              		.section	.note.gnu.property,"a"
 5241              		.align 8
 5242 0000 04000000 		.long	 1f - 0f
 5243 0004 10000000 		.long	 4f - 1f
 5244 0008 05000000 		.long	 5
 5245              	0:
 5246 000c 474E5500 		.string	 "GNU"
 5247              	1:
 5248              		.align 8
 5249 0010 020000C0 		.long	 0xc0000002
 5250 0014 04000000 		.long	 3f - 2f
 5251              	2:
 5252 0018 03000000 		.long	 0x3
 5253              	3:
 5254 001c 00000000 		.align 8
GAS LISTING /tmp/ccoF6jRD.s 			page 44


 5255              	4:
GAS LISTING /tmp/ccoF6jRD.s 			page 45

