ARM GAS  /tmp/ccKdD4IP.s 			page 1


   1              		.cpu cortex-m4
   2              		.eabi_attribute 27, 1
   3              		.eabi_attribute 28, 1
   4              		.eabi_attribute 20, 1
   5              		.eabi_attribute 21, 1
   6              		.eabi_attribute 23, 3
   7              		.eabi_attribute 24, 1
   8              		.eabi_attribute 25, 1
   9              		.eabi_attribute 26, 1
  10              		.eabi_attribute 30, 6
  11              		.eabi_attribute 34, 1
  12              		.eabi_attribute 18, 4
  13              		.file	"cmsis_liteos.c"
  14              		.text
  15              	.Ltext0:
  16              		.cfi_sections	.debug_frame
  17              		.section	.bss.KernelState,"aw",%nobits
  18              		.align	2
  21              	KernelState:
  22 0000 00000000 		.space	4
  23              		.global	g_stLosVersion
  24              		.section	.rodata.g_stLosVersion,"a"
  25              		.align	2
  28              	g_stLosVersion:
  29 0000 01000000 		.word	1
  30 0004 01000000 		.word	1
  31              		.section	.text.osKernelInitialize,"ax",%progbits
  32              		.align	1
  33              		.global	osKernelInitialize
  34              		.arch armv7e-m
  35              		.syntax unified
  36              		.thumb
  37              		.thumb_func
  38              		.fpu fpv4-sp-d16
  40              	osKernelInitialize:
  41              	.LFB135:
  42              		.file 1 "/home/fanxinhao/Work/LiteOS_Lab/iot_link/os/liteos/cmsis/2.0/cmsis_liteos2.c"
   1:/home/fanxinhao/Work/LiteOS_Lab/iot_link/os/liteos/cmsis/2.0/cmsis_liteos2.c **** /*----------------------------------------------------------------------------
   2:/home/fanxinhao/Work/LiteOS_Lab/iot_link/os/liteos/cmsis/2.0/cmsis_liteos2.c ****  * Copyright (c) <2013-2015>, <Huawei Technologies Co., Ltd>
   3:/home/fanxinhao/Work/LiteOS_Lab/iot_link/os/liteos/cmsis/2.0/cmsis_liteos2.c ****  * All rights reserved.
   4:/home/fanxinhao/Work/LiteOS_Lab/iot_link/os/liteos/cmsis/2.0/cmsis_liteos2.c ****  * Redistribution and use in source and binary forms, with or without modification,
   5:/home/fanxinhao/Work/LiteOS_Lab/iot_link/os/liteos/cmsis/2.0/cmsis_liteos2.c ****  * are permitted provided that the following conditions are met:
   6:/home/fanxinhao/Work/LiteOS_Lab/iot_link/os/liteos/cmsis/2.0/cmsis_liteos2.c ****  * 1. Redistributions of source code must retain the above copyright notice, this list of
   7:/home/fanxinhao/Work/LiteOS_Lab/iot_link/os/liteos/cmsis/2.0/cmsis_liteos2.c ****  * conditions and the following disclaimer.
   8:/home/fanxinhao/Work/LiteOS_Lab/iot_link/os/liteos/cmsis/2.0/cmsis_liteos2.c ****  * 2. Redistributions in binary form must reproduce the above copyright notice, this list
   9:/home/fanxinhao/Work/LiteOS_Lab/iot_link/os/liteos/cmsis/2.0/cmsis_liteos2.c ****  * of conditions and the following disclaimer in the documentation and/or other materials
  10:/home/fanxinhao/Work/LiteOS_Lab/iot_link/os/liteos/cmsis/2.0/cmsis_liteos2.c ****  * provided with the distribution.
  11:/home/fanxinhao/Work/LiteOS_Lab/iot_link/os/liteos/cmsis/2.0/cmsis_liteos2.c ****  * 3. Neither the name of the copyright holder nor the names of its contributors may be used
  12:/home/fanxinhao/Work/LiteOS_Lab/iot_link/os/liteos/cmsis/2.0/cmsis_liteos2.c ****  * to endorse or promote products derived from this software without specific prior written
  13:/home/fanxinhao/Work/LiteOS_Lab/iot_link/os/liteos/cmsis/2.0/cmsis_liteos2.c ****  * permission.
  14:/home/fanxinhao/Work/LiteOS_Lab/iot_link/os/liteos/cmsis/2.0/cmsis_liteos2.c ****  * THIS SOFTWARE IS PROVIDED BY THE COPYRIGHT HOLDERS AND CONTRIBUTORS
  15:/home/fanxinhao/Work/LiteOS_Lab/iot_link/os/liteos/cmsis/2.0/cmsis_liteos2.c ****  * "AS IS" AND ANY EXPRESS OR IMPLIED WARRANTIES, INCLUDING, BUT NOT LIMITED TO,
  16:/home/fanxinhao/Work/LiteOS_Lab/iot_link/os/liteos/cmsis/2.0/cmsis_liteos2.c ****  * THE IMPLIED WARRANTIES OF MERCHANTABILITY AND FITNESS FOR A PARTICULAR
  17:/home/fanxinhao/Work/LiteOS_Lab/iot_link/os/liteos/cmsis/2.0/cmsis_liteos2.c ****  * PURPOSE ARE DISCLAIMED. IN NO EVENT SHALL THE COPYRIGHT HOLDER OR
  18:/home/fanxinhao/Work/LiteOS_Lab/iot_link/os/liteos/cmsis/2.0/cmsis_liteos2.c ****  * CONTRIBUTORS BE LIABLE FOR ANY DIRECT, INDIRECT, INCIDENTAL, SPECIAL,
  19:/home/fanxinhao/Work/LiteOS_Lab/iot_link/os/liteos/cmsis/2.0/cmsis_liteos2.c ****  * EXEMPLARY, OR CONSEQUENTIAL DAMAGES (INCLUDING, BUT NOT LIMITED TO,
  20:/home/fanxinhao/Work/LiteOS_Lab/iot_link/os/liteos/cmsis/2.0/cmsis_liteos2.c ****  * PROCUREMENT OF SUBSTITUTE GOODS OR SERVICES; LOSS OF USE, DATA, OR PROFITS;
ARM GAS  /tmp/ccKdD4IP.s 			page 2


  21:/home/fanxinhao/Work/LiteOS_Lab/iot_link/os/liteos/cmsis/2.0/cmsis_liteos2.c ****  * OR BUSINESS INTERRUPTION) HOWEVER CAUSED AND ON ANY THEORY OF LIABILITY,
  22:/home/fanxinhao/Work/LiteOS_Lab/iot_link/os/liteos/cmsis/2.0/cmsis_liteos2.c ****  * WHETHER IN CONTRACT, STRICT LIABILITY, OR TORT (INCLUDING NEGLIGENCE OR
  23:/home/fanxinhao/Work/LiteOS_Lab/iot_link/os/liteos/cmsis/2.0/cmsis_liteos2.c ****  * OTHERWISE) ARISING IN ANY WAY OUT OF THE USE OF THIS SOFTWARE, EVEN IF
  24:/home/fanxinhao/Work/LiteOS_Lab/iot_link/os/liteos/cmsis/2.0/cmsis_liteos2.c ****  * ADVISED OF THE POSSIBILITY OF SUCH DAMAGE.
  25:/home/fanxinhao/Work/LiteOS_Lab/iot_link/os/liteos/cmsis/2.0/cmsis_liteos2.c ****  *---------------------------------------------------------------------------*/
  26:/home/fanxinhao/Work/LiteOS_Lab/iot_link/os/liteos/cmsis/2.0/cmsis_liteos2.c **** /*----------------------------------------------------------------------------
  27:/home/fanxinhao/Work/LiteOS_Lab/iot_link/os/liteos/cmsis/2.0/cmsis_liteos2.c ****  * Notice of Export Control Law
  28:/home/fanxinhao/Work/LiteOS_Lab/iot_link/os/liteos/cmsis/2.0/cmsis_liteos2.c ****  * ===============================================
  29:/home/fanxinhao/Work/LiteOS_Lab/iot_link/os/liteos/cmsis/2.0/cmsis_liteos2.c ****  * Huawei LiteOS may be subject to applicable export control laws and regulations, which might
  30:/home/fanxinhao/Work/LiteOS_Lab/iot_link/os/liteos/cmsis/2.0/cmsis_liteos2.c ****  * include those applicable to Huawei LiteOS of U.S. and the country in which you are located.
  31:/home/fanxinhao/Work/LiteOS_Lab/iot_link/os/liteos/cmsis/2.0/cmsis_liteos2.c ****  * Import, export and usage of Huawei LiteOS in any manner by you shall be in compliance with such
  32:/home/fanxinhao/Work/LiteOS_Lab/iot_link/os/liteos/cmsis/2.0/cmsis_liteos2.c ****  * applicable export control laws and regulations.
  33:/home/fanxinhao/Work/LiteOS_Lab/iot_link/os/liteos/cmsis/2.0/cmsis_liteos2.c ****  *---------------------------------------------------------------------------*/
  34:/home/fanxinhao/Work/LiteOS_Lab/iot_link/os/liteos/cmsis/2.0/cmsis_liteos2.c **** #include "cmsis_os.h"
  35:/home/fanxinhao/Work/LiteOS_Lab/iot_link/os/liteos/cmsis/2.0/cmsis_liteos2.c **** #include "los_typedef.h"
  36:/home/fanxinhao/Work/LiteOS_Lab/iot_link/os/liteos/cmsis/2.0/cmsis_liteos2.c **** #include "los_printf.h"
  37:/home/fanxinhao/Work/LiteOS_Lab/iot_link/os/liteos/cmsis/2.0/cmsis_liteos2.c **** 
  38:/home/fanxinhao/Work/LiteOS_Lab/iot_link/os/liteos/cmsis/2.0/cmsis_liteos2.c **** #include "los_event.h"
  39:/home/fanxinhao/Work/LiteOS_Lab/iot_link/os/liteos/cmsis/2.0/cmsis_liteos2.c **** #include "los_membox.h"
  40:/home/fanxinhao/Work/LiteOS_Lab/iot_link/os/liteos/cmsis/2.0/cmsis_liteos2.c **** #include "los_hwi.h"
  41:/home/fanxinhao/Work/LiteOS_Lab/iot_link/os/liteos/cmsis/2.0/cmsis_liteos2.c **** 
  42:/home/fanxinhao/Work/LiteOS_Lab/iot_link/os/liteos/cmsis/2.0/cmsis_liteos2.c **** #include "los_mux.ph"
  43:/home/fanxinhao/Work/LiteOS_Lab/iot_link/os/liteos/cmsis/2.0/cmsis_liteos2.c **** #include "los_queue.ph"
  44:/home/fanxinhao/Work/LiteOS_Lab/iot_link/os/liteos/cmsis/2.0/cmsis_liteos2.c **** #include "los_sem.ph"
  45:/home/fanxinhao/Work/LiteOS_Lab/iot_link/os/liteos/cmsis/2.0/cmsis_liteos2.c **** #include "los_memory.ph"
  46:/home/fanxinhao/Work/LiteOS_Lab/iot_link/os/liteos/cmsis/2.0/cmsis_liteos2.c **** #include "los_swtmr.ph"
  47:/home/fanxinhao/Work/LiteOS_Lab/iot_link/os/liteos/cmsis/2.0/cmsis_liteos2.c **** #include "los_sys.ph"
  48:/home/fanxinhao/Work/LiteOS_Lab/iot_link/os/liteos/cmsis/2.0/cmsis_liteos2.c **** #include "los_task.ph"
  49:/home/fanxinhao/Work/LiteOS_Lab/iot_link/os/liteos/cmsis/2.0/cmsis_liteos2.c **** #include "los_tick.ph"
  50:/home/fanxinhao/Work/LiteOS_Lab/iot_link/os/liteos/cmsis/2.0/cmsis_liteos2.c **** //#include "los_sleep.h"
  51:/home/fanxinhao/Work/LiteOS_Lab/iot_link/os/liteos/cmsis/2.0/cmsis_liteos2.c **** 
  52:/home/fanxinhao/Work/LiteOS_Lab/iot_link/os/liteos/cmsis/2.0/cmsis_liteos2.c **** //#include "hal_clocks.h"
  53:/home/fanxinhao/Work/LiteOS_Lab/iot_link/os/liteos/cmsis/2.0/cmsis_liteos2.c **** #include "string.h"
  54:/home/fanxinhao/Work/LiteOS_Lab/iot_link/os/liteos/cmsis/2.0/cmsis_liteos2.c **** 
  55:/home/fanxinhao/Work/LiteOS_Lab/iot_link/os/liteos/cmsis/2.0/cmsis_liteos2.c **** #ifdef __cplusplus
  56:/home/fanxinhao/Work/LiteOS_Lab/iot_link/os/liteos/cmsis/2.0/cmsis_liteos2.c **** #if __cplusplus
  57:/home/fanxinhao/Work/LiteOS_Lab/iot_link/os/liteos/cmsis/2.0/cmsis_liteos2.c **** extern "C" {
  58:/home/fanxinhao/Work/LiteOS_Lab/iot_link/os/liteos/cmsis/2.0/cmsis_liteos2.c **** #endif /* __cplusplus */
  59:/home/fanxinhao/Work/LiteOS_Lab/iot_link/os/liteos/cmsis/2.0/cmsis_liteos2.c **** #endif /* __cplusplus */
  60:/home/fanxinhao/Work/LiteOS_Lab/iot_link/os/liteos/cmsis/2.0/cmsis_liteos2.c **** #if (CMSIS_OS_VER == 2)
  61:/home/fanxinhao/Work/LiteOS_Lab/iot_link/os/liteos/cmsis/2.0/cmsis_liteos2.c **** 
  62:/home/fanxinhao/Work/LiteOS_Lab/iot_link/os/liteos/cmsis/2.0/cmsis_liteos2.c **** /* Kernel initialization state */
  63:/home/fanxinhao/Work/LiteOS_Lab/iot_link/os/liteos/cmsis/2.0/cmsis_liteos2.c **** static osKernelState_t KernelState;
  64:/home/fanxinhao/Work/LiteOS_Lab/iot_link/os/liteos/cmsis/2.0/cmsis_liteos2.c **** 
  65:/home/fanxinhao/Work/LiteOS_Lab/iot_link/os/liteos/cmsis/2.0/cmsis_liteos2.c **** extern BOOL g_bTaskScheduled;
  66:/home/fanxinhao/Work/LiteOS_Lab/iot_link/os/liteos/cmsis/2.0/cmsis_liteos2.c **** 
  67:/home/fanxinhao/Work/LiteOS_Lab/iot_link/os/liteos/cmsis/2.0/cmsis_liteos2.c **** #ifdef LOS_RUNSTOP
  68:/home/fanxinhao/Work/LiteOS_Lab/iot_link/os/liteos/cmsis/2.0/cmsis_liteos2.c **** cb_uart_is_need_awake_fn uart_is_need_awake_callback = NULL;
  69:/home/fanxinhao/Work/LiteOS_Lab/iot_link/os/liteos/cmsis/2.0/cmsis_liteos2.c **** #endif
  70:/home/fanxinhao/Work/LiteOS_Lab/iot_link/os/liteos/cmsis/2.0/cmsis_liteos2.c **** #define LOS_PRIORITY_WIN 8
  71:/home/fanxinhao/Work/LiteOS_Lab/iot_link/os/liteos/cmsis/2.0/cmsis_liteos2.c **** 
  72:/home/fanxinhao/Work/LiteOS_Lab/iot_link/os/liteos/cmsis/2.0/cmsis_liteos2.c **** const osVersion_t g_stLosVersion = {001, 001};
  73:/home/fanxinhao/Work/LiteOS_Lab/iot_link/os/liteos/cmsis/2.0/cmsis_liteos2.c **** 
  74:/home/fanxinhao/Work/LiteOS_Lab/iot_link/os/liteos/cmsis/2.0/cmsis_liteos2.c **** #define LITEOS_VERSION_MAJOR    1
  75:/home/fanxinhao/Work/LiteOS_Lab/iot_link/os/liteos/cmsis/2.0/cmsis_liteos2.c **** #define LITEOS_VERSION_MINOR    0
  76:/home/fanxinhao/Work/LiteOS_Lab/iot_link/os/liteos/cmsis/2.0/cmsis_liteos2.c **** #define LITEOS_VERSION_BUILD    0
  77:/home/fanxinhao/Work/LiteOS_Lab/iot_link/os/liteos/cmsis/2.0/cmsis_liteos2.c **** 
ARM GAS  /tmp/ccKdD4IP.s 			page 3


  78:/home/fanxinhao/Work/LiteOS_Lab/iot_link/os/liteos/cmsis/2.0/cmsis_liteos2.c **** /* Kernel version and identification string definition */
  79:/home/fanxinhao/Work/LiteOS_Lab/iot_link/os/liteos/cmsis/2.0/cmsis_liteos2.c **** #define KERNEL_VERSION            (((UINT32)LITEOS_VERSION_MAJOR * 10000000UL) | \
  80:/home/fanxinhao/Work/LiteOS_Lab/iot_link/os/liteos/cmsis/2.0/cmsis_liteos2.c ****                                    ((UINT32)LITEOS_VERSION_MINOR *    10000UL) | \
  81:/home/fanxinhao/Work/LiteOS_Lab/iot_link/os/liteos/cmsis/2.0/cmsis_liteos2.c ****                                    ((UINT32)LITEOS_VERSION_BUILD *        1UL))
  82:/home/fanxinhao/Work/LiteOS_Lab/iot_link/os/liteos/cmsis/2.0/cmsis_liteos2.c **** 
  83:/home/fanxinhao/Work/LiteOS_Lab/iot_link/os/liteos/cmsis/2.0/cmsis_liteos2.c **** #define KERNEL_ID   "HUAWEI-LiteOS"
  84:/home/fanxinhao/Work/LiteOS_Lab/iot_link/os/liteos/cmsis/2.0/cmsis_liteos2.c **** 
  85:/home/fanxinhao/Work/LiteOS_Lab/iot_link/os/liteos/cmsis/2.0/cmsis_liteos2.c **** #ifndef UNUSED
  86:/home/fanxinhao/Work/LiteOS_Lab/iot_link/os/liteos/cmsis/2.0/cmsis_liteos2.c **** #define UNUSED(var) do { (void)var; } while(0)
  87:/home/fanxinhao/Work/LiteOS_Lab/iot_link/os/liteos/cmsis/2.0/cmsis_liteos2.c **** #endif
  88:/home/fanxinhao/Work/LiteOS_Lab/iot_link/os/liteos/cmsis/2.0/cmsis_liteos2.c **** //  ==== Kernel Management Functions ====
  89:/home/fanxinhao/Work/LiteOS_Lab/iot_link/os/liteos/cmsis/2.0/cmsis_liteos2.c **** uint32_t osTaskStackWaterMarkGet(UINT32 uwTaskID);
  90:/home/fanxinhao/Work/LiteOS_Lab/iot_link/os/liteos/cmsis/2.0/cmsis_liteos2.c **** 
  91:/home/fanxinhao/Work/LiteOS_Lab/iot_link/os/liteos/cmsis/2.0/cmsis_liteos2.c **** extern VOID LOS_GetSystickCycle(UINT32 *puwCntHi, UINT32 *puwCntLo);
  92:/home/fanxinhao/Work/LiteOS_Lab/iot_link/os/liteos/cmsis/2.0/cmsis_liteos2.c **** 
  93:/home/fanxinhao/Work/LiteOS_Lab/iot_link/os/liteos/cmsis/2.0/cmsis_liteos2.c **** osStatus_t osKernelInitialize (void)
  94:/home/fanxinhao/Work/LiteOS_Lab/iot_link/os/liteos/cmsis/2.0/cmsis_liteos2.c **** {
  43              		.loc 1 94 1
  44              		.cfi_startproc
  45              		@ args = 0, pretend = 0, frame = 0
  46              		@ frame_needed = 1, uses_anonymous_args = 0
  47 0000 80B5     		push	{r7, lr}
  48              	.LCFI0:
  49              		.cfi_def_cfa_offset 8
  50              		.cfi_offset 7, -8
  51              		.cfi_offset 14, -4
  52 0002 00AF     		add	r7, sp, #0
  53              	.LCFI1:
  54              		.cfi_def_cfa_register 7
  95:/home/fanxinhao/Work/LiteOS_Lab/iot_link/os/liteos/cmsis/2.0/cmsis_liteos2.c ****     if (OS_INT_ACTIVE)
  55              		.loc 1 95 9
  56 0004 0D4B     		ldr	r3, .L6
  57 0006 1B68     		ldr	r3, [r3]
  58              		.loc 1 95 8
  59 0008 002B     		cmp	r3, #0
  60 000a 02D0     		beq	.L2
  96:/home/fanxinhao/Work/LiteOS_Lab/iot_link/os/liteos/cmsis/2.0/cmsis_liteos2.c ****     {
  97:/home/fanxinhao/Work/LiteOS_Lab/iot_link/os/liteos/cmsis/2.0/cmsis_liteos2.c ****         return osErrorISR;
  61              		.loc 1 97 16
  62 000c 6FF00503 		mvn	r3, #5
  63 0010 12E0     		b	.L3
  64              	.L2:
  98:/home/fanxinhao/Work/LiteOS_Lab/iot_link/os/liteos/cmsis/2.0/cmsis_liteos2.c ****     }
  99:/home/fanxinhao/Work/LiteOS_Lab/iot_link/os/liteos/cmsis/2.0/cmsis_liteos2.c **** 
 100:/home/fanxinhao/Work/LiteOS_Lab/iot_link/os/liteos/cmsis/2.0/cmsis_liteos2.c ****     if (KernelState != osKernelInactive)
  65              		.loc 1 100 21
  66 0012 0B4B     		ldr	r3, .L6+4
  67 0014 1B68     		ldr	r3, [r3]
  68              		.loc 1 100 8
  69 0016 002B     		cmp	r3, #0
  70 0018 02D0     		beq	.L4
 101:/home/fanxinhao/Work/LiteOS_Lab/iot_link/os/liteos/cmsis/2.0/cmsis_liteos2.c ****     {
 102:/home/fanxinhao/Work/LiteOS_Lab/iot_link/os/liteos/cmsis/2.0/cmsis_liteos2.c ****         return osError;
  71              		.loc 1 102 16
  72 001a 4FF0FF33 		mov	r3, #-1
  73 001e 0BE0     		b	.L3
  74              	.L4:
ARM GAS  /tmp/ccKdD4IP.s 			page 4


 103:/home/fanxinhao/Work/LiteOS_Lab/iot_link/os/liteos/cmsis/2.0/cmsis_liteos2.c ****     }
 104:/home/fanxinhao/Work/LiteOS_Lab/iot_link/os/liteos/cmsis/2.0/cmsis_liteos2.c **** 
 105:/home/fanxinhao/Work/LiteOS_Lab/iot_link/os/liteos/cmsis/2.0/cmsis_liteos2.c ****     if(LOS_OK == LOS_KernelInit())
  75              		.loc 1 105 18
  76 0020 FFF7FEFF 		bl	LOS_KernelInit
  77 0024 0346     		mov	r3, r0
  78              		.loc 1 105 7
  79 0026 002B     		cmp	r3, #0
  80 0028 04D1     		bne	.L5
 106:/home/fanxinhao/Work/LiteOS_Lab/iot_link/os/liteos/cmsis/2.0/cmsis_liteos2.c ****     {
 107:/home/fanxinhao/Work/LiteOS_Lab/iot_link/os/liteos/cmsis/2.0/cmsis_liteos2.c ****         KernelState = osKernelReady;
  81              		.loc 1 107 21
  82 002a 054B     		ldr	r3, .L6+4
  83 002c 0122     		movs	r2, #1
  84 002e 1A60     		str	r2, [r3]
 108:/home/fanxinhao/Work/LiteOS_Lab/iot_link/os/liteos/cmsis/2.0/cmsis_liteos2.c ****         return osOK;
  85              		.loc 1 108 16
  86 0030 0023     		movs	r3, #0
  87 0032 01E0     		b	.L3
  88              	.L5:
 109:/home/fanxinhao/Work/LiteOS_Lab/iot_link/os/liteos/cmsis/2.0/cmsis_liteos2.c ****     }
 110:/home/fanxinhao/Work/LiteOS_Lab/iot_link/os/liteos/cmsis/2.0/cmsis_liteos2.c ****     else
 111:/home/fanxinhao/Work/LiteOS_Lab/iot_link/os/liteos/cmsis/2.0/cmsis_liteos2.c ****     {
 112:/home/fanxinhao/Work/LiteOS_Lab/iot_link/os/liteos/cmsis/2.0/cmsis_liteos2.c ****         return osError;
  89              		.loc 1 112 16
  90 0034 4FF0FF33 		mov	r3, #-1
  91              	.L3:
 113:/home/fanxinhao/Work/LiteOS_Lab/iot_link/os/liteos/cmsis/2.0/cmsis_liteos2.c ****     }
 114:/home/fanxinhao/Work/LiteOS_Lab/iot_link/os/liteos/cmsis/2.0/cmsis_liteos2.c **** }
  92              		.loc 1 114 1
  93 0038 1846     		mov	r0, r3
  94 003a 80BD     		pop	{r7, pc}
  95              	.L7:
  96              		.align	2
  97              	.L6:
  98 003c 00000000 		.word	g_vuwIntCount
  99 0040 00000000 		.word	KernelState
 100              		.cfi_endproc
 101              	.LFE135:
 103              		.section	.rodata
 104              		.align	2
 105              	.LC0:
 106 0000 48554157 		.ascii	"HUAWEI-LiteOS\000"
 106      45492D4C 
 106      6974654F 
 106      5300
 107              		.section	.text.osKernelGetInfo,"ax",%progbits
 108              		.align	1
 109              		.global	osKernelGetInfo
 110              		.syntax unified
 111              		.thumb
 112              		.thumb_func
 113              		.fpu fpv4-sp-d16
 115              	osKernelGetInfo:
 116              	.LFB136:
 115:/home/fanxinhao/Work/LiteOS_Lab/iot_link/os/liteos/cmsis/2.0/cmsis_liteos2.c **** 
 116:/home/fanxinhao/Work/LiteOS_Lab/iot_link/os/liteos/cmsis/2.0/cmsis_liteos2.c **** 
ARM GAS  /tmp/ccKdD4IP.s 			page 5


 117:/home/fanxinhao/Work/LiteOS_Lab/iot_link/os/liteos/cmsis/2.0/cmsis_liteos2.c **** osStatus_t osKernelGetInfo (osVersion_t *version, char *id_buf, uint32_t id_size)
 118:/home/fanxinhao/Work/LiteOS_Lab/iot_link/os/liteos/cmsis/2.0/cmsis_liteos2.c **** {
 117              		.loc 1 118 1
 118              		.cfi_startproc
 119              		@ args = 0, pretend = 0, frame = 16
 120              		@ frame_needed = 1, uses_anonymous_args = 0
 121 0000 80B5     		push	{r7, lr}
 122              	.LCFI2:
 123              		.cfi_def_cfa_offset 8
 124              		.cfi_offset 7, -8
 125              		.cfi_offset 14, -4
 126 0002 84B0     		sub	sp, sp, #16
 127              	.LCFI3:
 128              		.cfi_def_cfa_offset 24
 129 0004 00AF     		add	r7, sp, #0
 130              	.LCFI4:
 131              		.cfi_def_cfa_register 7
 132 0006 F860     		str	r0, [r7, #12]
 133 0008 B960     		str	r1, [r7, #8]
 134 000a 7A60     		str	r2, [r7, #4]
 119:/home/fanxinhao/Work/LiteOS_Lab/iot_link/os/liteos/cmsis/2.0/cmsis_liteos2.c ****     if (OS_INT_ACTIVE)
 135              		.loc 1 119 9
 136 000c 124B     		ldr	r3, .L14
 137 000e 1B68     		ldr	r3, [r3]
 138              		.loc 1 119 8
 139 0010 002B     		cmp	r3, #0
 140 0012 02D0     		beq	.L9
 120:/home/fanxinhao/Work/LiteOS_Lab/iot_link/os/liteos/cmsis/2.0/cmsis_liteos2.c ****     {
 121:/home/fanxinhao/Work/LiteOS_Lab/iot_link/os/liteos/cmsis/2.0/cmsis_liteos2.c ****         return osErrorISR;
 141              		.loc 1 121 16
 142 0014 6FF00503 		mvn	r3, #5
 143 0018 19E0     		b	.L10
 144              	.L9:
 122:/home/fanxinhao/Work/LiteOS_Lab/iot_link/os/liteos/cmsis/2.0/cmsis_liteos2.c ****     }
 123:/home/fanxinhao/Work/LiteOS_Lab/iot_link/os/liteos/cmsis/2.0/cmsis_liteos2.c **** 
 124:/home/fanxinhao/Work/LiteOS_Lab/iot_link/os/liteos/cmsis/2.0/cmsis_liteos2.c ****     if (version != NULL)
 145              		.loc 1 124 8
 146 001a FB68     		ldr	r3, [r7, #12]
 147 001c 002B     		cmp	r3, #0
 148 001e 05D0     		beq	.L11
 125:/home/fanxinhao/Work/LiteOS_Lab/iot_link/os/liteos/cmsis/2.0/cmsis_liteos2.c ****     {
 126:/home/fanxinhao/Work/LiteOS_Lab/iot_link/os/liteos/cmsis/2.0/cmsis_liteos2.c ****         version->api = g_stLosVersion.api;
 149              		.loc 1 126 38
 150 0020 0122     		movs	r2, #1
 151              		.loc 1 126 22
 152 0022 FB68     		ldr	r3, [r7, #12]
 153 0024 1A60     		str	r2, [r3]
 127:/home/fanxinhao/Work/LiteOS_Lab/iot_link/os/liteos/cmsis/2.0/cmsis_liteos2.c ****         version->kernel = g_stLosVersion.kernel;
 154              		.loc 1 127 41
 155 0026 0122     		movs	r2, #1
 156              		.loc 1 127 25
 157 0028 FB68     		ldr	r3, [r7, #12]
 158 002a 5A60     		str	r2, [r3, #4]
 159              	.L11:
 128:/home/fanxinhao/Work/LiteOS_Lab/iot_link/os/liteos/cmsis/2.0/cmsis_liteos2.c ****     }
 129:/home/fanxinhao/Work/LiteOS_Lab/iot_link/os/liteos/cmsis/2.0/cmsis_liteos2.c **** 
 130:/home/fanxinhao/Work/LiteOS_Lab/iot_link/os/liteos/cmsis/2.0/cmsis_liteos2.c ****     if ((id_buf != NULL) && (id_size != 0U))
ARM GAS  /tmp/ccKdD4IP.s 			page 6


 160              		.loc 1 130 8
 161 002c BB68     		ldr	r3, [r7, #8]
 162 002e 002B     		cmp	r3, #0
 163 0030 0CD0     		beq	.L12
 164              		.loc 1 130 26 discriminator 1
 165 0032 7B68     		ldr	r3, [r7, #4]
 166 0034 002B     		cmp	r3, #0
 167 0036 09D0     		beq	.L12
 131:/home/fanxinhao/Work/LiteOS_Lab/iot_link/os/liteos/cmsis/2.0/cmsis_liteos2.c ****     {
 132:/home/fanxinhao/Work/LiteOS_Lab/iot_link/os/liteos/cmsis/2.0/cmsis_liteos2.c ****         if (id_size > sizeof(KERNEL_ID))
 168              		.loc 1 132 12
 169 0038 7B68     		ldr	r3, [r7, #4]
 170 003a 0E2B     		cmp	r3, #14
 171 003c 01D9     		bls	.L13
 133:/home/fanxinhao/Work/LiteOS_Lab/iot_link/os/liteos/cmsis/2.0/cmsis_liteos2.c ****         {
 134:/home/fanxinhao/Work/LiteOS_Lab/iot_link/os/liteos/cmsis/2.0/cmsis_liteos2.c ****             id_size = sizeof(KERNEL_ID);
 172              		.loc 1 134 21
 173 003e 0E23     		movs	r3, #14
 174 0040 7B60     		str	r3, [r7, #4]
 175              	.L13:
 135:/home/fanxinhao/Work/LiteOS_Lab/iot_link/os/liteos/cmsis/2.0/cmsis_liteos2.c ****         }
 136:/home/fanxinhao/Work/LiteOS_Lab/iot_link/os/liteos/cmsis/2.0/cmsis_liteos2.c ****         memcpy(id_buf, KERNEL_ID, id_size);
 176              		.loc 1 136 9
 177 0042 7A68     		ldr	r2, [r7, #4]
 178 0044 0549     		ldr	r1, .L14+4
 179 0046 B868     		ldr	r0, [r7, #8]
 180 0048 FFF7FEFF 		bl	memcpy
 181              	.L12:
 137:/home/fanxinhao/Work/LiteOS_Lab/iot_link/os/liteos/cmsis/2.0/cmsis_liteos2.c ****     }
 138:/home/fanxinhao/Work/LiteOS_Lab/iot_link/os/liteos/cmsis/2.0/cmsis_liteos2.c **** 
 139:/home/fanxinhao/Work/LiteOS_Lab/iot_link/os/liteos/cmsis/2.0/cmsis_liteos2.c ****     return osOK;
 182              		.loc 1 139 12
 183 004c 0023     		movs	r3, #0
 184              	.L10:
 140:/home/fanxinhao/Work/LiteOS_Lab/iot_link/os/liteos/cmsis/2.0/cmsis_liteos2.c **** }
 185              		.loc 1 140 1
 186 004e 1846     		mov	r0, r3
 187 0050 1037     		adds	r7, r7, #16
 188              	.LCFI5:
 189              		.cfi_def_cfa_offset 8
 190 0052 BD46     		mov	sp, r7
 191              	.LCFI6:
 192              		.cfi_def_cfa_register 13
 193              		@ sp needed
 194 0054 80BD     		pop	{r7, pc}
 195              	.L15:
 196 0056 00BF     		.align	2
 197              	.L14:
 198 0058 00000000 		.word	g_vuwIntCount
 199 005c 00000000 		.word	.LC0
 200              		.cfi_endproc
 201              	.LFE136:
 203              		.section	.text.osKernelGetState,"ax",%progbits
 204              		.align	1
 205              		.global	osKernelGetState
 206              		.syntax unified
 207              		.thumb
ARM GAS  /tmp/ccKdD4IP.s 			page 7


 208              		.thumb_func
 209              		.fpu fpv4-sp-d16
 211              	osKernelGetState:
 212              	.LFB137:
 141:/home/fanxinhao/Work/LiteOS_Lab/iot_link/os/liteos/cmsis/2.0/cmsis_liteos2.c **** 
 142:/home/fanxinhao/Work/LiteOS_Lab/iot_link/os/liteos/cmsis/2.0/cmsis_liteos2.c **** 
 143:/home/fanxinhao/Work/LiteOS_Lab/iot_link/os/liteos/cmsis/2.0/cmsis_liteos2.c **** osKernelState_t osKernelGetState (void)
 144:/home/fanxinhao/Work/LiteOS_Lab/iot_link/os/liteos/cmsis/2.0/cmsis_liteos2.c **** {
 213              		.loc 1 144 1
 214              		.cfi_startproc
 215              		@ args = 0, pretend = 0, frame = 0
 216              		@ frame_needed = 1, uses_anonymous_args = 0
 217              		@ link register save eliminated.
 218 0000 80B4     		push	{r7}
 219              	.LCFI7:
 220              		.cfi_def_cfa_offset 4
 221              		.cfi_offset 7, -4
 222 0002 00AF     		add	r7, sp, #0
 223              	.LCFI8:
 224              		.cfi_def_cfa_register 7
 145:/home/fanxinhao/Work/LiteOS_Lab/iot_link/os/liteos/cmsis/2.0/cmsis_liteos2.c ****     if (OS_INT_ACTIVE)
 225              		.loc 1 145 9
 226 0004 0F4B     		ldr	r3, .L22
 227 0006 1B68     		ldr	r3, [r3]
 228              		.loc 1 145 8
 229 0008 002B     		cmp	r3, #0
 230 000a 02D0     		beq	.L17
 146:/home/fanxinhao/Work/LiteOS_Lab/iot_link/os/liteos/cmsis/2.0/cmsis_liteos2.c ****     {
 147:/home/fanxinhao/Work/LiteOS_Lab/iot_link/os/liteos/cmsis/2.0/cmsis_liteos2.c ****         return osKernelError;
 231              		.loc 1 147 16
 232 000c 4FF0FF33 		mov	r3, #-1
 233 0010 12E0     		b	.L18
 234              	.L17:
 148:/home/fanxinhao/Work/LiteOS_Lab/iot_link/os/liteos/cmsis/2.0/cmsis_liteos2.c ****     }
 149:/home/fanxinhao/Work/LiteOS_Lab/iot_link/os/liteos/cmsis/2.0/cmsis_liteos2.c **** 
 150:/home/fanxinhao/Work/LiteOS_Lab/iot_link/os/liteos/cmsis/2.0/cmsis_liteos2.c ****     if(!g_bTaskScheduled)
 235              		.loc 1 150 8
 236 0012 0D4B     		ldr	r3, .L22+4
 237 0014 1B68     		ldr	r3, [r3]
 238              		.loc 1 150 7
 239 0016 002B     		cmp	r3, #0
 240 0018 07D1     		bne	.L19
 151:/home/fanxinhao/Work/LiteOS_Lab/iot_link/os/liteos/cmsis/2.0/cmsis_liteos2.c ****     {
 152:/home/fanxinhao/Work/LiteOS_Lab/iot_link/os/liteos/cmsis/2.0/cmsis_liteos2.c ****         if (KernelState == osKernelReady)
 241              		.loc 1 152 25
 242 001a 0C4B     		ldr	r3, .L22+8
 243 001c 1B68     		ldr	r3, [r3]
 244              		.loc 1 152 12
 245 001e 012B     		cmp	r3, #1
 246 0020 01D1     		bne	.L20
 153:/home/fanxinhao/Work/LiteOS_Lab/iot_link/os/liteos/cmsis/2.0/cmsis_liteos2.c ****         {
 154:/home/fanxinhao/Work/LiteOS_Lab/iot_link/os/liteos/cmsis/2.0/cmsis_liteos2.c ****             return osKernelReady;
 247              		.loc 1 154 20
 248 0022 0123     		movs	r3, #1
 249 0024 08E0     		b	.L18
 250              	.L20:
 155:/home/fanxinhao/Work/LiteOS_Lab/iot_link/os/liteos/cmsis/2.0/cmsis_liteos2.c ****         }
ARM GAS  /tmp/ccKdD4IP.s 			page 8


 156:/home/fanxinhao/Work/LiteOS_Lab/iot_link/os/liteos/cmsis/2.0/cmsis_liteos2.c ****         else
 157:/home/fanxinhao/Work/LiteOS_Lab/iot_link/os/liteos/cmsis/2.0/cmsis_liteos2.c ****         {
 158:/home/fanxinhao/Work/LiteOS_Lab/iot_link/os/liteos/cmsis/2.0/cmsis_liteos2.c ****             return osKernelInactive;
 251              		.loc 1 158 20
 252 0026 0023     		movs	r3, #0
 253 0028 06E0     		b	.L18
 254              	.L19:
 159:/home/fanxinhao/Work/LiteOS_Lab/iot_link/os/liteos/cmsis/2.0/cmsis_liteos2.c ****         }
 160:/home/fanxinhao/Work/LiteOS_Lab/iot_link/os/liteos/cmsis/2.0/cmsis_liteos2.c ****     }
 161:/home/fanxinhao/Work/LiteOS_Lab/iot_link/os/liteos/cmsis/2.0/cmsis_liteos2.c ****     else if(g_usLosTaskLock > 0)
 255              		.loc 1 161 29
 256 002a 094B     		ldr	r3, .L22+12
 257 002c 1B88     		ldrh	r3, [r3]
 258              		.loc 1 161 12
 259 002e 002B     		cmp	r3, #0
 260 0030 01D0     		beq	.L21
 162:/home/fanxinhao/Work/LiteOS_Lab/iot_link/os/liteos/cmsis/2.0/cmsis_liteos2.c ****     {
 163:/home/fanxinhao/Work/LiteOS_Lab/iot_link/os/liteos/cmsis/2.0/cmsis_liteos2.c ****         return osKernelLocked;
 261              		.loc 1 163 16
 262 0032 0323     		movs	r3, #3
 263 0034 00E0     		b	.L18
 264              	.L21:
 164:/home/fanxinhao/Work/LiteOS_Lab/iot_link/os/liteos/cmsis/2.0/cmsis_liteos2.c ****     }
 165:/home/fanxinhao/Work/LiteOS_Lab/iot_link/os/liteos/cmsis/2.0/cmsis_liteos2.c ****     else
 166:/home/fanxinhao/Work/LiteOS_Lab/iot_link/os/liteos/cmsis/2.0/cmsis_liteos2.c ****     {
 167:/home/fanxinhao/Work/LiteOS_Lab/iot_link/os/liteos/cmsis/2.0/cmsis_liteos2.c ****         return osKernelRunning;
 265              		.loc 1 167 16
 266 0036 0223     		movs	r3, #2
 267              	.L18:
 168:/home/fanxinhao/Work/LiteOS_Lab/iot_link/os/liteos/cmsis/2.0/cmsis_liteos2.c ****     }
 169:/home/fanxinhao/Work/LiteOS_Lab/iot_link/os/liteos/cmsis/2.0/cmsis_liteos2.c **** }
 268              		.loc 1 169 1
 269 0038 1846     		mov	r0, r3
 270 003a BD46     		mov	sp, r7
 271              	.LCFI9:
 272              		.cfi_def_cfa_register 13
 273              		@ sp needed
 274 003c 5DF8047B 		ldr	r7, [sp], #4
 275              	.LCFI10:
 276              		.cfi_restore 7
 277              		.cfi_def_cfa_offset 0
 278 0040 7047     		bx	lr
 279              	.L23:
 280 0042 00BF     		.align	2
 281              	.L22:
 282 0044 00000000 		.word	g_vuwIntCount
 283 0048 00000000 		.word	g_bTaskScheduled
 284 004c 00000000 		.word	KernelState
 285 0050 00000000 		.word	g_usLosTaskLock
 286              		.cfi_endproc
 287              	.LFE137:
 289              		.section	.text.osKernelStart,"ax",%progbits
 290              		.align	1
 291              		.global	osKernelStart
 292              		.syntax unified
 293              		.thumb
 294              		.thumb_func
ARM GAS  /tmp/ccKdD4IP.s 			page 9


 295              		.fpu fpv4-sp-d16
 297              	osKernelStart:
 298              	.LFB138:
 170:/home/fanxinhao/Work/LiteOS_Lab/iot_link/os/liteos/cmsis/2.0/cmsis_liteos2.c **** 
 171:/home/fanxinhao/Work/LiteOS_Lab/iot_link/os/liteos/cmsis/2.0/cmsis_liteos2.c **** 
 172:/home/fanxinhao/Work/LiteOS_Lab/iot_link/os/liteos/cmsis/2.0/cmsis_liteos2.c **** osStatus_t osKernelStart (void)
 173:/home/fanxinhao/Work/LiteOS_Lab/iot_link/os/liteos/cmsis/2.0/cmsis_liteos2.c **** {
 299              		.loc 1 173 1
 300              		.cfi_startproc
 301              		@ args = 0, pretend = 0, frame = 0
 302              		@ frame_needed = 1, uses_anonymous_args = 0
 303 0000 80B5     		push	{r7, lr}
 304              	.LCFI11:
 305              		.cfi_def_cfa_offset 8
 306              		.cfi_offset 7, -8
 307              		.cfi_offset 14, -4
 308 0002 00AF     		add	r7, sp, #0
 309              	.LCFI12:
 310              		.cfi_def_cfa_register 7
 174:/home/fanxinhao/Work/LiteOS_Lab/iot_link/os/liteos/cmsis/2.0/cmsis_liteos2.c ****     if(OS_INT_ACTIVE)
 311              		.loc 1 174 8
 312 0004 0D4B     		ldr	r3, .L29
 313 0006 1B68     		ldr	r3, [r3]
 314              		.loc 1 174 7
 315 0008 002B     		cmp	r3, #0
 316 000a 02D0     		beq	.L25
 175:/home/fanxinhao/Work/LiteOS_Lab/iot_link/os/liteos/cmsis/2.0/cmsis_liteos2.c ****     {
 176:/home/fanxinhao/Work/LiteOS_Lab/iot_link/os/liteos/cmsis/2.0/cmsis_liteos2.c ****         return osErrorISR;
 317              		.loc 1 176 16
 318 000c 6FF00503 		mvn	r3, #5
 319 0010 12E0     		b	.L26
 320              	.L25:
 177:/home/fanxinhao/Work/LiteOS_Lab/iot_link/os/liteos/cmsis/2.0/cmsis_liteos2.c ****     }
 178:/home/fanxinhao/Work/LiteOS_Lab/iot_link/os/liteos/cmsis/2.0/cmsis_liteos2.c **** 
 179:/home/fanxinhao/Work/LiteOS_Lab/iot_link/os/liteos/cmsis/2.0/cmsis_liteos2.c ****     if(KernelState == osKernelReady)
 321              		.loc 1 179 20
 322 0012 0B4B     		ldr	r3, .L29+4
 323 0014 1B68     		ldr	r3, [r3]
 324              		.loc 1 179 7
 325 0016 012B     		cmp	r3, #1
 326 0018 0CD1     		bne	.L27
 180:/home/fanxinhao/Work/LiteOS_Lab/iot_link/os/liteos/cmsis/2.0/cmsis_liteos2.c ****     {
 181:/home/fanxinhao/Work/LiteOS_Lab/iot_link/os/liteos/cmsis/2.0/cmsis_liteos2.c ****         if(LOS_OK == LOS_Start())
 327              		.loc 1 181 22
 328 001a FFF7FEFF 		bl	LOS_Start
 329 001e 0346     		mov	r3, r0
 330              		.loc 1 181 11
 331 0020 002B     		cmp	r3, #0
 332 0022 04D1     		bne	.L28
 182:/home/fanxinhao/Work/LiteOS_Lab/iot_link/os/liteos/cmsis/2.0/cmsis_liteos2.c ****         {
 183:/home/fanxinhao/Work/LiteOS_Lab/iot_link/os/liteos/cmsis/2.0/cmsis_liteos2.c ****             KernelState = osKernelRunning;
 333              		.loc 1 183 25
 334 0024 064B     		ldr	r3, .L29+4
 335 0026 0222     		movs	r2, #2
 336 0028 1A60     		str	r2, [r3]
 184:/home/fanxinhao/Work/LiteOS_Lab/iot_link/os/liteos/cmsis/2.0/cmsis_liteos2.c ****             return osOK;
 337              		.loc 1 184 20
ARM GAS  /tmp/ccKdD4IP.s 			page 10


 338 002a 0023     		movs	r3, #0
 339 002c 04E0     		b	.L26
 340              	.L28:
 185:/home/fanxinhao/Work/LiteOS_Lab/iot_link/os/liteos/cmsis/2.0/cmsis_liteos2.c ****         }
 186:/home/fanxinhao/Work/LiteOS_Lab/iot_link/os/liteos/cmsis/2.0/cmsis_liteos2.c ****         else
 187:/home/fanxinhao/Work/LiteOS_Lab/iot_link/os/liteos/cmsis/2.0/cmsis_liteos2.c ****         {
 188:/home/fanxinhao/Work/LiteOS_Lab/iot_link/os/liteos/cmsis/2.0/cmsis_liteos2.c ****             return osError;
 341              		.loc 1 188 20
 342 002e 4FF0FF33 		mov	r3, #-1
 343 0032 01E0     		b	.L26
 344              	.L27:
 189:/home/fanxinhao/Work/LiteOS_Lab/iot_link/os/liteos/cmsis/2.0/cmsis_liteos2.c ****         }
 190:/home/fanxinhao/Work/LiteOS_Lab/iot_link/os/liteos/cmsis/2.0/cmsis_liteos2.c ****     }
 191:/home/fanxinhao/Work/LiteOS_Lab/iot_link/os/liteos/cmsis/2.0/cmsis_liteos2.c ****     else
 192:/home/fanxinhao/Work/LiteOS_Lab/iot_link/os/liteos/cmsis/2.0/cmsis_liteos2.c ****     {
 193:/home/fanxinhao/Work/LiteOS_Lab/iot_link/os/liteos/cmsis/2.0/cmsis_liteos2.c ****         return osError;
 345              		.loc 1 193 16
 346 0034 4FF0FF33 		mov	r3, #-1
 347              	.L26:
 194:/home/fanxinhao/Work/LiteOS_Lab/iot_link/os/liteos/cmsis/2.0/cmsis_liteos2.c ****     }
 195:/home/fanxinhao/Work/LiteOS_Lab/iot_link/os/liteos/cmsis/2.0/cmsis_liteos2.c **** }
 348              		.loc 1 195 1
 349 0038 1846     		mov	r0, r3
 350 003a 80BD     		pop	{r7, pc}
 351              	.L30:
 352              		.align	2
 353              	.L29:
 354 003c 00000000 		.word	g_vuwIntCount
 355 0040 00000000 		.word	KernelState
 356              		.cfi_endproc
 357              	.LFE138:
 359              		.section	.text.osKernelLock,"ax",%progbits
 360              		.align	1
 361              		.global	osKernelLock
 362              		.syntax unified
 363              		.thumb
 364              		.thumb_func
 365              		.fpu fpv4-sp-d16
 367              	osKernelLock:
 368              	.LFB139:
 196:/home/fanxinhao/Work/LiteOS_Lab/iot_link/os/liteos/cmsis/2.0/cmsis_liteos2.c **** 
 197:/home/fanxinhao/Work/LiteOS_Lab/iot_link/os/liteos/cmsis/2.0/cmsis_liteos2.c **** 
 198:/home/fanxinhao/Work/LiteOS_Lab/iot_link/os/liteos/cmsis/2.0/cmsis_liteos2.c **** int32_t osKernelLock (void)
 199:/home/fanxinhao/Work/LiteOS_Lab/iot_link/os/liteos/cmsis/2.0/cmsis_liteos2.c **** {
 369              		.loc 1 199 1
 370              		.cfi_startproc
 371              		@ args = 0, pretend = 0, frame = 8
 372              		@ frame_needed = 1, uses_anonymous_args = 0
 373 0000 80B5     		push	{r7, lr}
 374              	.LCFI13:
 375              		.cfi_def_cfa_offset 8
 376              		.cfi_offset 7, -8
 377              		.cfi_offset 14, -4
 378 0002 82B0     		sub	sp, sp, #8
 379              	.LCFI14:
 380              		.cfi_def_cfa_offset 16
 381 0004 00AF     		add	r7, sp, #0
ARM GAS  /tmp/ccKdD4IP.s 			page 11


 382              	.LCFI15:
 383              		.cfi_def_cfa_register 7
 200:/home/fanxinhao/Work/LiteOS_Lab/iot_link/os/liteos/cmsis/2.0/cmsis_liteos2.c ****     int32_t lock;
 201:/home/fanxinhao/Work/LiteOS_Lab/iot_link/os/liteos/cmsis/2.0/cmsis_liteos2.c **** 
 202:/home/fanxinhao/Work/LiteOS_Lab/iot_link/os/liteos/cmsis/2.0/cmsis_liteos2.c ****     if(OS_INT_ACTIVE)
 384              		.loc 1 202 8
 385 0006 0F4B     		ldr	r3, .L37
 386 0008 1B68     		ldr	r3, [r3]
 387              		.loc 1 202 7
 388 000a 002B     		cmp	r3, #0
 389 000c 02D0     		beq	.L32
 203:/home/fanxinhao/Work/LiteOS_Lab/iot_link/os/liteos/cmsis/2.0/cmsis_liteos2.c ****     {
 204:/home/fanxinhao/Work/LiteOS_Lab/iot_link/os/liteos/cmsis/2.0/cmsis_liteos2.c ****         return (int32_t)osErrorISR;
 390              		.loc 1 204 16
 391 000e 6FF00503 		mvn	r3, #5
 392 0012 12E0     		b	.L33
 393              	.L32:
 205:/home/fanxinhao/Work/LiteOS_Lab/iot_link/os/liteos/cmsis/2.0/cmsis_liteos2.c ****     }
 206:/home/fanxinhao/Work/LiteOS_Lab/iot_link/os/liteos/cmsis/2.0/cmsis_liteos2.c **** 
 207:/home/fanxinhao/Work/LiteOS_Lab/iot_link/os/liteos/cmsis/2.0/cmsis_liteos2.c ****     if(!g_bTaskScheduled)
 394              		.loc 1 207 8
 395 0014 0C4B     		ldr	r3, .L37+4
 396 0016 1B68     		ldr	r3, [r3]
 397              		.loc 1 207 7
 398 0018 002B     		cmp	r3, #0
 399 001a 02D1     		bne	.L34
 208:/home/fanxinhao/Work/LiteOS_Lab/iot_link/os/liteos/cmsis/2.0/cmsis_liteos2.c ****     {
 209:/home/fanxinhao/Work/LiteOS_Lab/iot_link/os/liteos/cmsis/2.0/cmsis_liteos2.c ****         return (int32_t)osError;
 400              		.loc 1 209 16
 401 001c 4FF0FF33 		mov	r3, #-1
 402 0020 0BE0     		b	.L33
 403              	.L34:
 210:/home/fanxinhao/Work/LiteOS_Lab/iot_link/os/liteos/cmsis/2.0/cmsis_liteos2.c ****     }
 211:/home/fanxinhao/Work/LiteOS_Lab/iot_link/os/liteos/cmsis/2.0/cmsis_liteos2.c **** 
 212:/home/fanxinhao/Work/LiteOS_Lab/iot_link/os/liteos/cmsis/2.0/cmsis_liteos2.c ****     if(g_usLosTaskLock > 0)
 404              		.loc 1 212 24
 405 0022 0A4B     		ldr	r3, .L37+8
 406 0024 1B88     		ldrh	r3, [r3]
 407              		.loc 1 212 7
 408 0026 002B     		cmp	r3, #0
 409 0028 02D0     		beq	.L35
 213:/home/fanxinhao/Work/LiteOS_Lab/iot_link/os/liteos/cmsis/2.0/cmsis_liteos2.c ****     {
 214:/home/fanxinhao/Work/LiteOS_Lab/iot_link/os/liteos/cmsis/2.0/cmsis_liteos2.c ****         lock = 1;
 410              		.loc 1 214 14
 411 002a 0123     		movs	r3, #1
 412 002c 7B60     		str	r3, [r7, #4]
 413 002e 03E0     		b	.L36
 414              	.L35:
 215:/home/fanxinhao/Work/LiteOS_Lab/iot_link/os/liteos/cmsis/2.0/cmsis_liteos2.c ****     }
 216:/home/fanxinhao/Work/LiteOS_Lab/iot_link/os/liteos/cmsis/2.0/cmsis_liteos2.c ****     else
 217:/home/fanxinhao/Work/LiteOS_Lab/iot_link/os/liteos/cmsis/2.0/cmsis_liteos2.c ****     {
 218:/home/fanxinhao/Work/LiteOS_Lab/iot_link/os/liteos/cmsis/2.0/cmsis_liteos2.c ****         LOS_TaskLock();
 415              		.loc 1 218 9
 416 0030 FFF7FEFF 		bl	LOS_TaskLock
 219:/home/fanxinhao/Work/LiteOS_Lab/iot_link/os/liteos/cmsis/2.0/cmsis_liteos2.c ****         lock = 0;
 417              		.loc 1 219 14
 418 0034 0023     		movs	r3, #0
ARM GAS  /tmp/ccKdD4IP.s 			page 12


 419 0036 7B60     		str	r3, [r7, #4]
 420              	.L36:
 220:/home/fanxinhao/Work/LiteOS_Lab/iot_link/os/liteos/cmsis/2.0/cmsis_liteos2.c ****     }
 221:/home/fanxinhao/Work/LiteOS_Lab/iot_link/os/liteos/cmsis/2.0/cmsis_liteos2.c **** 
 222:/home/fanxinhao/Work/LiteOS_Lab/iot_link/os/liteos/cmsis/2.0/cmsis_liteos2.c ****     return lock;
 421              		.loc 1 222 12
 422 0038 7B68     		ldr	r3, [r7, #4]
 423              	.L33:
 223:/home/fanxinhao/Work/LiteOS_Lab/iot_link/os/liteos/cmsis/2.0/cmsis_liteos2.c **** }
 424              		.loc 1 223 1
 425 003a 1846     		mov	r0, r3
 426 003c 0837     		adds	r7, r7, #8
 427              	.LCFI16:
 428              		.cfi_def_cfa_offset 8
 429 003e BD46     		mov	sp, r7
 430              	.LCFI17:
 431              		.cfi_def_cfa_register 13
 432              		@ sp needed
 433 0040 80BD     		pop	{r7, pc}
 434              	.L38:
 435 0042 00BF     		.align	2
 436              	.L37:
 437 0044 00000000 		.word	g_vuwIntCount
 438 0048 00000000 		.word	g_bTaskScheduled
 439 004c 00000000 		.word	g_usLosTaskLock
 440              		.cfi_endproc
 441              	.LFE139:
 443              		.section	.text.osKernelUnlock,"ax",%progbits
 444              		.align	1
 445              		.global	osKernelUnlock
 446              		.syntax unified
 447              		.thumb
 448              		.thumb_func
 449              		.fpu fpv4-sp-d16
 451              	osKernelUnlock:
 452              	.LFB140:
 224:/home/fanxinhao/Work/LiteOS_Lab/iot_link/os/liteos/cmsis/2.0/cmsis_liteos2.c **** 
 225:/home/fanxinhao/Work/LiteOS_Lab/iot_link/os/liteos/cmsis/2.0/cmsis_liteos2.c **** 
 226:/home/fanxinhao/Work/LiteOS_Lab/iot_link/os/liteos/cmsis/2.0/cmsis_liteos2.c **** int32_t osKernelUnlock (void)
 227:/home/fanxinhao/Work/LiteOS_Lab/iot_link/os/liteos/cmsis/2.0/cmsis_liteos2.c **** {
 453              		.loc 1 227 1
 454              		.cfi_startproc
 455              		@ args = 0, pretend = 0, frame = 8
 456              		@ frame_needed = 1, uses_anonymous_args = 0
 457 0000 80B5     		push	{r7, lr}
 458              	.LCFI18:
 459              		.cfi_def_cfa_offset 8
 460              		.cfi_offset 7, -8
 461              		.cfi_offset 14, -4
 462 0002 82B0     		sub	sp, sp, #8
 463              	.LCFI19:
 464              		.cfi_def_cfa_offset 16
 465 0004 00AF     		add	r7, sp, #0
 466              	.LCFI20:
 467              		.cfi_def_cfa_register 7
 228:/home/fanxinhao/Work/LiteOS_Lab/iot_link/os/liteos/cmsis/2.0/cmsis_liteos2.c ****     int32_t lock;
 229:/home/fanxinhao/Work/LiteOS_Lab/iot_link/os/liteos/cmsis/2.0/cmsis_liteos2.c **** 
ARM GAS  /tmp/ccKdD4IP.s 			page 13


 230:/home/fanxinhao/Work/LiteOS_Lab/iot_link/os/liteos/cmsis/2.0/cmsis_liteos2.c ****     if(OS_INT_ACTIVE)
 468              		.loc 1 230 8
 469 0006 124B     		ldr	r3, .L46
 470 0008 1B68     		ldr	r3, [r3]
 471              		.loc 1 230 7
 472 000a 002B     		cmp	r3, #0
 473 000c 02D0     		beq	.L40
 231:/home/fanxinhao/Work/LiteOS_Lab/iot_link/os/liteos/cmsis/2.0/cmsis_liteos2.c ****     {
 232:/home/fanxinhao/Work/LiteOS_Lab/iot_link/os/liteos/cmsis/2.0/cmsis_liteos2.c ****         return (int32_t)osErrorISR;
 474              		.loc 1 232 16
 475 000e 6FF00503 		mvn	r3, #5
 476 0012 19E0     		b	.L41
 477              	.L40:
 233:/home/fanxinhao/Work/LiteOS_Lab/iot_link/os/liteos/cmsis/2.0/cmsis_liteos2.c ****     }
 234:/home/fanxinhao/Work/LiteOS_Lab/iot_link/os/liteos/cmsis/2.0/cmsis_liteos2.c **** 
 235:/home/fanxinhao/Work/LiteOS_Lab/iot_link/os/liteos/cmsis/2.0/cmsis_liteos2.c ****     if(!g_bTaskScheduled)
 478              		.loc 1 235 8
 479 0014 0F4B     		ldr	r3, .L46+4
 480 0016 1B68     		ldr	r3, [r3]
 481              		.loc 1 235 7
 482 0018 002B     		cmp	r3, #0
 483 001a 02D1     		bne	.L42
 236:/home/fanxinhao/Work/LiteOS_Lab/iot_link/os/liteos/cmsis/2.0/cmsis_liteos2.c ****     {
 237:/home/fanxinhao/Work/LiteOS_Lab/iot_link/os/liteos/cmsis/2.0/cmsis_liteos2.c ****         return (int32_t)osError;
 484              		.loc 1 237 16
 485 001c 4FF0FF33 		mov	r3, #-1
 486 0020 12E0     		b	.L41
 487              	.L42:
 238:/home/fanxinhao/Work/LiteOS_Lab/iot_link/os/liteos/cmsis/2.0/cmsis_liteos2.c ****     }
 239:/home/fanxinhao/Work/LiteOS_Lab/iot_link/os/liteos/cmsis/2.0/cmsis_liteos2.c **** 
 240:/home/fanxinhao/Work/LiteOS_Lab/iot_link/os/liteos/cmsis/2.0/cmsis_liteos2.c ****     if(g_usLosTaskLock > 0)
 488              		.loc 1 240 24
 489 0022 0D4B     		ldr	r3, .L46+8
 490 0024 1B88     		ldrh	r3, [r3]
 491              		.loc 1 240 7
 492 0026 002B     		cmp	r3, #0
 493 0028 0BD0     		beq	.L43
 241:/home/fanxinhao/Work/LiteOS_Lab/iot_link/os/liteos/cmsis/2.0/cmsis_liteos2.c ****     {
 242:/home/fanxinhao/Work/LiteOS_Lab/iot_link/os/liteos/cmsis/2.0/cmsis_liteos2.c ****         LOS_TaskUnlock();
 494              		.loc 1 242 9
 495 002a FFF7FEFF 		bl	LOS_TaskUnlock
 243:/home/fanxinhao/Work/LiteOS_Lab/iot_link/os/liteos/cmsis/2.0/cmsis_liteos2.c ****         if (g_usLosTaskLock != 0)
 496              		.loc 1 243 29
 497 002e 0A4B     		ldr	r3, .L46+8
 498 0030 1B88     		ldrh	r3, [r3]
 499              		.loc 1 243 12
 500 0032 002B     		cmp	r3, #0
 501 0034 02D0     		beq	.L44
 244:/home/fanxinhao/Work/LiteOS_Lab/iot_link/os/liteos/cmsis/2.0/cmsis_liteos2.c ****         {
 245:/home/fanxinhao/Work/LiteOS_Lab/iot_link/os/liteos/cmsis/2.0/cmsis_liteos2.c ****             return (int32_t)osError;
 502              		.loc 1 245 20
 503 0036 4FF0FF33 		mov	r3, #-1
 504 003a 05E0     		b	.L41
 505              	.L44:
 246:/home/fanxinhao/Work/LiteOS_Lab/iot_link/os/liteos/cmsis/2.0/cmsis_liteos2.c ****         }
 247:/home/fanxinhao/Work/LiteOS_Lab/iot_link/os/liteos/cmsis/2.0/cmsis_liteos2.c ****         lock = 1;
 506              		.loc 1 247 14
ARM GAS  /tmp/ccKdD4IP.s 			page 14


 507 003c 0123     		movs	r3, #1
 508 003e 7B60     		str	r3, [r7, #4]
 509 0040 01E0     		b	.L45
 510              	.L43:
 248:/home/fanxinhao/Work/LiteOS_Lab/iot_link/os/liteos/cmsis/2.0/cmsis_liteos2.c ****     }
 249:/home/fanxinhao/Work/LiteOS_Lab/iot_link/os/liteos/cmsis/2.0/cmsis_liteos2.c ****     else
 250:/home/fanxinhao/Work/LiteOS_Lab/iot_link/os/liteos/cmsis/2.0/cmsis_liteos2.c ****     {
 251:/home/fanxinhao/Work/LiteOS_Lab/iot_link/os/liteos/cmsis/2.0/cmsis_liteos2.c ****         lock = 0;
 511              		.loc 1 251 14
 512 0042 0023     		movs	r3, #0
 513 0044 7B60     		str	r3, [r7, #4]
 514              	.L45:
 252:/home/fanxinhao/Work/LiteOS_Lab/iot_link/os/liteos/cmsis/2.0/cmsis_liteos2.c ****     }
 253:/home/fanxinhao/Work/LiteOS_Lab/iot_link/os/liteos/cmsis/2.0/cmsis_liteos2.c **** 
 254:/home/fanxinhao/Work/LiteOS_Lab/iot_link/os/liteos/cmsis/2.0/cmsis_liteos2.c ****     return lock;
 515              		.loc 1 254 12
 516 0046 7B68     		ldr	r3, [r7, #4]
 517              	.L41:
 255:/home/fanxinhao/Work/LiteOS_Lab/iot_link/os/liteos/cmsis/2.0/cmsis_liteos2.c **** }
 518              		.loc 1 255 1
 519 0048 1846     		mov	r0, r3
 520 004a 0837     		adds	r7, r7, #8
 521              	.LCFI21:
 522              		.cfi_def_cfa_offset 8
 523 004c BD46     		mov	sp, r7
 524              	.LCFI22:
 525              		.cfi_def_cfa_register 13
 526              		@ sp needed
 527 004e 80BD     		pop	{r7, pc}
 528              	.L47:
 529              		.align	2
 530              	.L46:
 531 0050 00000000 		.word	g_vuwIntCount
 532 0054 00000000 		.word	g_bTaskScheduled
 533 0058 00000000 		.word	g_usLosTaskLock
 534              		.cfi_endproc
 535              	.LFE140:
 537              		.section	.text.osKernelRestoreLock,"ax",%progbits
 538              		.align	1
 539              		.global	osKernelRestoreLock
 540              		.syntax unified
 541              		.thumb
 542              		.thumb_func
 543              		.fpu fpv4-sp-d16
 545              	osKernelRestoreLock:
 546              	.LFB141:
 256:/home/fanxinhao/Work/LiteOS_Lab/iot_link/os/liteos/cmsis/2.0/cmsis_liteos2.c **** 
 257:/home/fanxinhao/Work/LiteOS_Lab/iot_link/os/liteos/cmsis/2.0/cmsis_liteos2.c **** 
 258:/home/fanxinhao/Work/LiteOS_Lab/iot_link/os/liteos/cmsis/2.0/cmsis_liteos2.c **** int32_t osKernelRestoreLock (int32_t lock)
 259:/home/fanxinhao/Work/LiteOS_Lab/iot_link/os/liteos/cmsis/2.0/cmsis_liteos2.c **** {
 547              		.loc 1 259 1
 548              		.cfi_startproc
 549              		@ args = 0, pretend = 0, frame = 8
 550              		@ frame_needed = 1, uses_anonymous_args = 0
 551 0000 80B5     		push	{r7, lr}
 552              	.LCFI23:
 553              		.cfi_def_cfa_offset 8
ARM GAS  /tmp/ccKdD4IP.s 			page 15


 554              		.cfi_offset 7, -8
 555              		.cfi_offset 14, -4
 556 0002 82B0     		sub	sp, sp, #8
 557              	.LCFI24:
 558              		.cfi_def_cfa_offset 16
 559 0004 00AF     		add	r7, sp, #0
 560              	.LCFI25:
 561              		.cfi_def_cfa_register 7
 562 0006 7860     		str	r0, [r7, #4]
 260:/home/fanxinhao/Work/LiteOS_Lab/iot_link/os/liteos/cmsis/2.0/cmsis_liteos2.c ****     if(OS_INT_ACTIVE)
 563              		.loc 1 260 8
 564 0008 134B     		ldr	r3, .L58
 565 000a 1B68     		ldr	r3, [r3]
 566              		.loc 1 260 7
 567 000c 002B     		cmp	r3, #0
 568 000e 02D0     		beq	.L49
 261:/home/fanxinhao/Work/LiteOS_Lab/iot_link/os/liteos/cmsis/2.0/cmsis_liteos2.c ****     {
 262:/home/fanxinhao/Work/LiteOS_Lab/iot_link/os/liteos/cmsis/2.0/cmsis_liteos2.c ****         return (int32_t)osErrorISR;
 569              		.loc 1 262 16
 570 0010 6FF00503 		mvn	r3, #5
 571 0014 1CE0     		b	.L50
 572              	.L49:
 263:/home/fanxinhao/Work/LiteOS_Lab/iot_link/os/liteos/cmsis/2.0/cmsis_liteos2.c ****     }
 264:/home/fanxinhao/Work/LiteOS_Lab/iot_link/os/liteos/cmsis/2.0/cmsis_liteos2.c **** 
 265:/home/fanxinhao/Work/LiteOS_Lab/iot_link/os/liteos/cmsis/2.0/cmsis_liteos2.c ****     if(!g_bTaskScheduled)
 573              		.loc 1 265 8
 574 0016 114B     		ldr	r3, .L58+4
 575 0018 1B68     		ldr	r3, [r3]
 576              		.loc 1 265 7
 577 001a 002B     		cmp	r3, #0
 578 001c 02D1     		bne	.L51
 266:/home/fanxinhao/Work/LiteOS_Lab/iot_link/os/liteos/cmsis/2.0/cmsis_liteos2.c ****     {
 267:/home/fanxinhao/Work/LiteOS_Lab/iot_link/os/liteos/cmsis/2.0/cmsis_liteos2.c ****         return (int32_t)osError;
 579              		.loc 1 267 16
 580 001e 4FF0FF33 		mov	r3, #-1
 581 0022 15E0     		b	.L50
 582              	.L51:
 268:/home/fanxinhao/Work/LiteOS_Lab/iot_link/os/liteos/cmsis/2.0/cmsis_liteos2.c ****     }
 269:/home/fanxinhao/Work/LiteOS_Lab/iot_link/os/liteos/cmsis/2.0/cmsis_liteos2.c **** 
 270:/home/fanxinhao/Work/LiteOS_Lab/iot_link/os/liteos/cmsis/2.0/cmsis_liteos2.c ****     switch (lock)
 583              		.loc 1 270 5
 584 0024 7B68     		ldr	r3, [r7, #4]
 585 0026 002B     		cmp	r3, #0
 586 0028 03D0     		beq	.L52
 587 002a 7B68     		ldr	r3, [r7, #4]
 588 002c 012B     		cmp	r3, #1
 589 002e 08D0     		beq	.L53
 271:/home/fanxinhao/Work/LiteOS_Lab/iot_link/os/liteos/cmsis/2.0/cmsis_liteos2.c ****     {
 272:/home/fanxinhao/Work/LiteOS_Lab/iot_link/os/liteos/cmsis/2.0/cmsis_liteos2.c ****     case 0:
 273:/home/fanxinhao/Work/LiteOS_Lab/iot_link/os/liteos/cmsis/2.0/cmsis_liteos2.c ****         LOS_TaskUnlock();
 274:/home/fanxinhao/Work/LiteOS_Lab/iot_link/os/liteos/cmsis/2.0/cmsis_liteos2.c ****         if (g_usLosTaskLock != 0)
 275:/home/fanxinhao/Work/LiteOS_Lab/iot_link/os/liteos/cmsis/2.0/cmsis_liteos2.c ****         {
 276:/home/fanxinhao/Work/LiteOS_Lab/iot_link/os/liteos/cmsis/2.0/cmsis_liteos2.c ****             break;
 277:/home/fanxinhao/Work/LiteOS_Lab/iot_link/os/liteos/cmsis/2.0/cmsis_liteos2.c ****         }
 278:/home/fanxinhao/Work/LiteOS_Lab/iot_link/os/liteos/cmsis/2.0/cmsis_liteos2.c ****         return 0;
 279:/home/fanxinhao/Work/LiteOS_Lab/iot_link/os/liteos/cmsis/2.0/cmsis_liteos2.c ****     case 1:
 280:/home/fanxinhao/Work/LiteOS_Lab/iot_link/os/liteos/cmsis/2.0/cmsis_liteos2.c ****         LOS_TaskLock();
ARM GAS  /tmp/ccKdD4IP.s 			page 16


 281:/home/fanxinhao/Work/LiteOS_Lab/iot_link/os/liteos/cmsis/2.0/cmsis_liteos2.c ****         return 1;
 282:/home/fanxinhao/Work/LiteOS_Lab/iot_link/os/liteos/cmsis/2.0/cmsis_liteos2.c ****     default:
 283:/home/fanxinhao/Work/LiteOS_Lab/iot_link/os/liteos/cmsis/2.0/cmsis_liteos2.c ****         break;
 590              		.loc 1 283 9
 591 0030 0CE0     		b	.L56
 592              	.L52:
 273:/home/fanxinhao/Work/LiteOS_Lab/iot_link/os/liteos/cmsis/2.0/cmsis_liteos2.c ****         if (g_usLosTaskLock != 0)
 593              		.loc 1 273 9
 594 0032 FFF7FEFF 		bl	LOS_TaskUnlock
 274:/home/fanxinhao/Work/LiteOS_Lab/iot_link/os/liteos/cmsis/2.0/cmsis_liteos2.c ****         {
 595              		.loc 1 274 29
 596 0036 0A4B     		ldr	r3, .L58+8
 597 0038 1B88     		ldrh	r3, [r3]
 274:/home/fanxinhao/Work/LiteOS_Lab/iot_link/os/liteos/cmsis/2.0/cmsis_liteos2.c ****         {
 598              		.loc 1 274 12
 599 003a 002B     		cmp	r3, #0
 600 003c 05D1     		bne	.L57
 278:/home/fanxinhao/Work/LiteOS_Lab/iot_link/os/liteos/cmsis/2.0/cmsis_liteos2.c ****     case 1:
 601              		.loc 1 278 16
 602 003e 0023     		movs	r3, #0
 603 0040 06E0     		b	.L50
 604              	.L53:
 280:/home/fanxinhao/Work/LiteOS_Lab/iot_link/os/liteos/cmsis/2.0/cmsis_liteos2.c ****         return 1;
 605              		.loc 1 280 9
 606 0042 FFF7FEFF 		bl	LOS_TaskLock
 281:/home/fanxinhao/Work/LiteOS_Lab/iot_link/os/liteos/cmsis/2.0/cmsis_liteos2.c ****     default:
 607              		.loc 1 281 16
 608 0046 0123     		movs	r3, #1
 609 0048 02E0     		b	.L50
 610              	.L57:
 276:/home/fanxinhao/Work/LiteOS_Lab/iot_link/os/liteos/cmsis/2.0/cmsis_liteos2.c ****         }
 611              		.loc 1 276 13
 612 004a 00BF     		nop
 613              	.L56:
 284:/home/fanxinhao/Work/LiteOS_Lab/iot_link/os/liteos/cmsis/2.0/cmsis_liteos2.c ****     }
 285:/home/fanxinhao/Work/LiteOS_Lab/iot_link/os/liteos/cmsis/2.0/cmsis_liteos2.c **** 
 286:/home/fanxinhao/Work/LiteOS_Lab/iot_link/os/liteos/cmsis/2.0/cmsis_liteos2.c ****     return (int32_t)osError;
 614              		.loc 1 286 12
 615 004c 4FF0FF33 		mov	r3, #-1
 616              	.L50:
 287:/home/fanxinhao/Work/LiteOS_Lab/iot_link/os/liteos/cmsis/2.0/cmsis_liteos2.c **** 
 288:/home/fanxinhao/Work/LiteOS_Lab/iot_link/os/liteos/cmsis/2.0/cmsis_liteos2.c **** }
 617              		.loc 1 288 1
 618 0050 1846     		mov	r0, r3
 619 0052 0837     		adds	r7, r7, #8
 620              	.LCFI26:
 621              		.cfi_def_cfa_offset 8
 622 0054 BD46     		mov	sp, r7
 623              	.LCFI27:
 624              		.cfi_def_cfa_register 13
 625              		@ sp needed
 626 0056 80BD     		pop	{r7, pc}
 627              	.L59:
 628              		.align	2
 629              	.L58:
 630 0058 00000000 		.word	g_vuwIntCount
 631 005c 00000000 		.word	g_bTaskScheduled
ARM GAS  /tmp/ccKdD4IP.s 			page 17


 632 0060 00000000 		.word	g_usLosTaskLock
 633              		.cfi_endproc
 634              	.LFE141:
 636              		.section	.text.osKernelGetTickCount,"ax",%progbits
 637              		.align	1
 638              		.global	osKernelGetTickCount
 639              		.syntax unified
 640              		.thumb
 641              		.thumb_func
 642              		.fpu fpv4-sp-d16
 644              	osKernelGetTickCount:
 645              	.LFB142:
 289:/home/fanxinhao/Work/LiteOS_Lab/iot_link/os/liteos/cmsis/2.0/cmsis_liteos2.c **** 
 290:/home/fanxinhao/Work/LiteOS_Lab/iot_link/os/liteos/cmsis/2.0/cmsis_liteos2.c **** 
 291:/home/fanxinhao/Work/LiteOS_Lab/iot_link/os/liteos/cmsis/2.0/cmsis_liteos2.c **** uint64_t osKernelGetTickCount (void)
 292:/home/fanxinhao/Work/LiteOS_Lab/iot_link/os/liteos/cmsis/2.0/cmsis_liteos2.c **** {
 646              		.loc 1 292 1
 647              		.cfi_startproc
 648              		@ args = 0, pretend = 0, frame = 16
 649              		@ frame_needed = 1, uses_anonymous_args = 0
 650 0000 80B5     		push	{r7, lr}
 651              	.LCFI28:
 652              		.cfi_def_cfa_offset 8
 653              		.cfi_offset 7, -8
 654              		.cfi_offset 14, -4
 655 0002 84B0     		sub	sp, sp, #16
 656              	.LCFI29:
 657              		.cfi_def_cfa_offset 24
 658 0004 00AF     		add	r7, sp, #0
 659              	.LCFI30:
 660              		.cfi_def_cfa_register 7
 293:/home/fanxinhao/Work/LiteOS_Lab/iot_link/os/liteos/cmsis/2.0/cmsis_liteos2.c ****     uint64_t ticks;
 294:/home/fanxinhao/Work/LiteOS_Lab/iot_link/os/liteos/cmsis/2.0/cmsis_liteos2.c ****     UINTPTR uvIntSave;
 295:/home/fanxinhao/Work/LiteOS_Lab/iot_link/os/liteos/cmsis/2.0/cmsis_liteos2.c **** 
 296:/home/fanxinhao/Work/LiteOS_Lab/iot_link/os/liteos/cmsis/2.0/cmsis_liteos2.c ****     if(OS_INT_ACTIVE)
 661              		.loc 1 296 8
 662 0006 0E4B     		ldr	r3, .L64
 663 0008 1B68     		ldr	r3, [r3]
 664              		.loc 1 296 7
 665 000a 002B     		cmp	r3, #0
 666 000c 06D0     		beq	.L61
 297:/home/fanxinhao/Work/LiteOS_Lab/iot_link/os/liteos/cmsis/2.0/cmsis_liteos2.c ****     {
 298:/home/fanxinhao/Work/LiteOS_Lab/iot_link/os/liteos/cmsis/2.0/cmsis_liteos2.c ****         ticks = 0U;
 667              		.loc 1 298 15
 668 000e 4FF00002 		mov	r2, #0
 669 0012 4FF00003 		mov	r3, #0
 670 0016 C7E90223 		strd	r2, [r7, #8]
 671 001a 0AE0     		b	.L62
 672              	.L61:
 299:/home/fanxinhao/Work/LiteOS_Lab/iot_link/os/liteos/cmsis/2.0/cmsis_liteos2.c ****     }
 300:/home/fanxinhao/Work/LiteOS_Lab/iot_link/os/liteos/cmsis/2.0/cmsis_liteos2.c ****     else
 301:/home/fanxinhao/Work/LiteOS_Lab/iot_link/os/liteos/cmsis/2.0/cmsis_liteos2.c ****     {
 302:/home/fanxinhao/Work/LiteOS_Lab/iot_link/os/liteos/cmsis/2.0/cmsis_liteos2.c ****         uvIntSave = LOS_IntLock();
 673              		.loc 1 302 21
 674 001c FFF7FEFF 		bl	LOS_IntLock
 675 0020 7860     		str	r0, [r7, #4]
 303:/home/fanxinhao/Work/LiteOS_Lab/iot_link/os/liteos/cmsis/2.0/cmsis_liteos2.c ****         ticks = g_ullTickCount;
ARM GAS  /tmp/ccKdD4IP.s 			page 18


 676              		.loc 1 303 15
 677 0022 084B     		ldr	r3, .L64+4
 678 0024 D3E90023 		ldrd	r2, [r3]
 679 0028 C7E90223 		strd	r2, [r7, #8]
 304:/home/fanxinhao/Work/LiteOS_Lab/iot_link/os/liteos/cmsis/2.0/cmsis_liteos2.c ****         LOS_IntRestore(uvIntSave);
 680              		.loc 1 304 9
 681 002c 7868     		ldr	r0, [r7, #4]
 682 002e FFF7FEFF 		bl	LOS_IntRestore
 683              	.L62:
 305:/home/fanxinhao/Work/LiteOS_Lab/iot_link/os/liteos/cmsis/2.0/cmsis_liteos2.c ****     }
 306:/home/fanxinhao/Work/LiteOS_Lab/iot_link/os/liteos/cmsis/2.0/cmsis_liteos2.c **** 
 307:/home/fanxinhao/Work/LiteOS_Lab/iot_link/os/liteos/cmsis/2.0/cmsis_liteos2.c ****     return ticks;
 684              		.loc 1 307 12
 685 0032 D7E90223 		ldrd	r2, [r7, #8]
 308:/home/fanxinhao/Work/LiteOS_Lab/iot_link/os/liteos/cmsis/2.0/cmsis_liteos2.c **** }
 686              		.loc 1 308 1
 687 0036 1046     		mov	r0, r2
 688 0038 1946     		mov	r1, r3
 689 003a 1037     		adds	r7, r7, #16
 690              	.LCFI31:
 691              		.cfi_def_cfa_offset 8
 692 003c BD46     		mov	sp, r7
 693              	.LCFI32:
 694              		.cfi_def_cfa_register 13
 695              		@ sp needed
 696 003e 80BD     		pop	{r7, pc}
 697              	.L65:
 698              		.align	2
 699              	.L64:
 700 0040 00000000 		.word	g_vuwIntCount
 701 0044 00000000 		.word	g_ullTickCount
 702              		.cfi_endproc
 703              	.LFE142:
 705              		.section	.text.osKernelGetTick2ms,"ax",%progbits
 706              		.align	1
 707              		.global	osKernelGetTick2ms
 708              		.syntax unified
 709              		.thumb
 710              		.thumb_func
 711              		.fpu fpv4-sp-d16
 713              	osKernelGetTick2ms:
 714              	.LFB143:
 309:/home/fanxinhao/Work/LiteOS_Lab/iot_link/os/liteos/cmsis/2.0/cmsis_liteos2.c **** 
 310:/home/fanxinhao/Work/LiteOS_Lab/iot_link/os/liteos/cmsis/2.0/cmsis_liteos2.c **** 
 311:/home/fanxinhao/Work/LiteOS_Lab/iot_link/os/liteos/cmsis/2.0/cmsis_liteos2.c **** uint64_t osKernelGetTick2ms(void)
 312:/home/fanxinhao/Work/LiteOS_Lab/iot_link/os/liteos/cmsis/2.0/cmsis_liteos2.c **** {
 715              		.loc 1 312 1
 716              		.cfi_startproc
 717              		@ args = 0, pretend = 0, frame = 0
 718              		@ frame_needed = 1, uses_anonymous_args = 0
 719 0000 80B5     		push	{r7, lr}
 720              	.LCFI33:
 721              		.cfi_def_cfa_offset 8
 722              		.cfi_offset 7, -8
 723              		.cfi_offset 14, -4
 724 0002 00AF     		add	r7, sp, #0
 725              	.LCFI34:
ARM GAS  /tmp/ccKdD4IP.s 			page 19


 726              		.cfi_def_cfa_register 7
 313:/home/fanxinhao/Work/LiteOS_Lab/iot_link/os/liteos/cmsis/2.0/cmsis_liteos2.c ****     return osKernelGetTickCount() * (OS_SYS_MS_PER_SECOND / LOSCFG_BASE_CORE_TICK_PER_SECOND);
 727              		.loc 1 313 35
 728 0004 FFF7FEFF 		bl	osKernelGetTickCount
 729 0008 0246     		mov	r2, r0
 730 000a 0B46     		mov	r3, r1
 314:/home/fanxinhao/Work/LiteOS_Lab/iot_link/os/liteos/cmsis/2.0/cmsis_liteos2.c **** }
 731              		.loc 1 314 1
 732 000c 1046     		mov	r0, r2
 733 000e 1946     		mov	r1, r3
 734 0010 80BD     		pop	{r7, pc}
 735              		.cfi_endproc
 736              	.LFE143:
 738              		.section	.text.osMs2Tick,"ax",%progbits
 739              		.align	1
 740              		.global	osMs2Tick
 741              		.syntax unified
 742              		.thumb
 743              		.thumb_func
 744              		.fpu fpv4-sp-d16
 746              	osMs2Tick:
 747              	.LFB144:
 315:/home/fanxinhao/Work/LiteOS_Lab/iot_link/os/liteos/cmsis/2.0/cmsis_liteos2.c **** 
 316:/home/fanxinhao/Work/LiteOS_Lab/iot_link/os/liteos/cmsis/2.0/cmsis_liteos2.c **** 
 317:/home/fanxinhao/Work/LiteOS_Lab/iot_link/os/liteos/cmsis/2.0/cmsis_liteos2.c **** uint64_t osMs2Tick(uint64_t ms)
 318:/home/fanxinhao/Work/LiteOS_Lab/iot_link/os/liteos/cmsis/2.0/cmsis_liteos2.c **** {
 748              		.loc 1 318 1
 749              		.cfi_startproc
 750              		@ args = 0, pretend = 0, frame = 8
 751              		@ frame_needed = 1, uses_anonymous_args = 0
 752              		@ link register save eliminated.
 753 0000 80B4     		push	{r7}
 754              	.LCFI35:
 755              		.cfi_def_cfa_offset 4
 756              		.cfi_offset 7, -4
 757 0002 83B0     		sub	sp, sp, #12
 758              	.LCFI36:
 759              		.cfi_def_cfa_offset 16
 760 0004 00AF     		add	r7, sp, #0
 761              	.LCFI37:
 762              		.cfi_def_cfa_register 7
 763 0006 C7E90001 		strd	r0, [r7]
 319:/home/fanxinhao/Work/LiteOS_Lab/iot_link/os/liteos/cmsis/2.0/cmsis_liteos2.c **** 
 320:/home/fanxinhao/Work/LiteOS_Lab/iot_link/os/liteos/cmsis/2.0/cmsis_liteos2.c ****     return ms * (LOSCFG_BASE_CORE_TICK_PER_SECOND / OS_SYS_MS_PER_SECOND);
 764              		.loc 1 320 15
 765 000a D7E90023 		ldrd	r2, [r7]
 321:/home/fanxinhao/Work/LiteOS_Lab/iot_link/os/liteos/cmsis/2.0/cmsis_liteos2.c **** }
 766              		.loc 1 321 1
 767 000e 1046     		mov	r0, r2
 768 0010 1946     		mov	r1, r3
 769 0012 0C37     		adds	r7, r7, #12
 770              	.LCFI38:
 771              		.cfi_def_cfa_offset 4
 772 0014 BD46     		mov	sp, r7
 773              	.LCFI39:
 774              		.cfi_def_cfa_register 13
 775              		@ sp needed
ARM GAS  /tmp/ccKdD4IP.s 			page 20


 776 0016 5DF8047B 		ldr	r7, [sp], #4
 777              	.LCFI40:
 778              		.cfi_restore 7
 779              		.cfi_def_cfa_offset 0
 780 001a 7047     		bx	lr
 781              		.cfi_endproc
 782              	.LFE144:
 784              		.section	.text.osKernelGetTickFreq,"ax",%progbits
 785              		.align	1
 786              		.global	osKernelGetTickFreq
 787              		.syntax unified
 788              		.thumb
 789              		.thumb_func
 790              		.fpu fpv4-sp-d16
 792              	osKernelGetTickFreq:
 793              	.LFB145:
 322:/home/fanxinhao/Work/LiteOS_Lab/iot_link/os/liteos/cmsis/2.0/cmsis_liteos2.c **** 
 323:/home/fanxinhao/Work/LiteOS_Lab/iot_link/os/liteos/cmsis/2.0/cmsis_liteos2.c **** 
 324:/home/fanxinhao/Work/LiteOS_Lab/iot_link/os/liteos/cmsis/2.0/cmsis_liteos2.c **** uint32_t osKernelGetTickFreq (void)
 325:/home/fanxinhao/Work/LiteOS_Lab/iot_link/os/liteos/cmsis/2.0/cmsis_liteos2.c **** {
 794              		.loc 1 325 1
 795              		.cfi_startproc
 796              		@ args = 0, pretend = 0, frame = 8
 797              		@ frame_needed = 1, uses_anonymous_args = 0
 798              		@ link register save eliminated.
 799 0000 80B4     		push	{r7}
 800              	.LCFI41:
 801              		.cfi_def_cfa_offset 4
 802              		.cfi_offset 7, -4
 803 0002 83B0     		sub	sp, sp, #12
 804              	.LCFI42:
 805              		.cfi_def_cfa_offset 16
 806 0004 00AF     		add	r7, sp, #0
 807              	.LCFI43:
 808              		.cfi_def_cfa_register 7
 326:/home/fanxinhao/Work/LiteOS_Lab/iot_link/os/liteos/cmsis/2.0/cmsis_liteos2.c ****     uint32_t freq;
 327:/home/fanxinhao/Work/LiteOS_Lab/iot_link/os/liteos/cmsis/2.0/cmsis_liteos2.c **** 
 328:/home/fanxinhao/Work/LiteOS_Lab/iot_link/os/liteos/cmsis/2.0/cmsis_liteos2.c ****     if (OS_INT_ACTIVE)
 809              		.loc 1 328 9
 810 0006 084B     		ldr	r3, .L74
 811 0008 1B68     		ldr	r3, [r3]
 812              		.loc 1 328 8
 813 000a 002B     		cmp	r3, #0
 814 000c 02D0     		beq	.L71
 329:/home/fanxinhao/Work/LiteOS_Lab/iot_link/os/liteos/cmsis/2.0/cmsis_liteos2.c ****     {
 330:/home/fanxinhao/Work/LiteOS_Lab/iot_link/os/liteos/cmsis/2.0/cmsis_liteos2.c ****         freq = 0U;
 815              		.loc 1 330 14
 816 000e 0023     		movs	r3, #0
 817 0010 7B60     		str	r3, [r7, #4]
 818 0012 02E0     		b	.L72
 819              	.L71:
 331:/home/fanxinhao/Work/LiteOS_Lab/iot_link/os/liteos/cmsis/2.0/cmsis_liteos2.c ****     }
 332:/home/fanxinhao/Work/LiteOS_Lab/iot_link/os/liteos/cmsis/2.0/cmsis_liteos2.c ****     else
 333:/home/fanxinhao/Work/LiteOS_Lab/iot_link/os/liteos/cmsis/2.0/cmsis_liteos2.c ****     {
 334:/home/fanxinhao/Work/LiteOS_Lab/iot_link/os/liteos/cmsis/2.0/cmsis_liteos2.c ****         freq = LOSCFG_BASE_CORE_TICK_PER_SECOND;
 820              		.loc 1 334 14
 821 0014 4FF47A73 		mov	r3, #1000
ARM GAS  /tmp/ccKdD4IP.s 			page 21


 822 0018 7B60     		str	r3, [r7, #4]
 823              	.L72:
 335:/home/fanxinhao/Work/LiteOS_Lab/iot_link/os/liteos/cmsis/2.0/cmsis_liteos2.c ****     }
 336:/home/fanxinhao/Work/LiteOS_Lab/iot_link/os/liteos/cmsis/2.0/cmsis_liteos2.c **** 
 337:/home/fanxinhao/Work/LiteOS_Lab/iot_link/os/liteos/cmsis/2.0/cmsis_liteos2.c ****     return (freq);
 824              		.loc 1 337 12
 825 001a 7B68     		ldr	r3, [r7, #4]
 338:/home/fanxinhao/Work/LiteOS_Lab/iot_link/os/liteos/cmsis/2.0/cmsis_liteos2.c **** }
 826              		.loc 1 338 1
 827 001c 1846     		mov	r0, r3
 828 001e 0C37     		adds	r7, r7, #12
 829              	.LCFI44:
 830              		.cfi_def_cfa_offset 4
 831 0020 BD46     		mov	sp, r7
 832              	.LCFI45:
 833              		.cfi_def_cfa_register 13
 834              		@ sp needed
 835 0022 5DF8047B 		ldr	r7, [sp], #4
 836              	.LCFI46:
 837              		.cfi_restore 7
 838              		.cfi_def_cfa_offset 0
 839 0026 7047     		bx	lr
 840              	.L75:
 841              		.align	2
 842              	.L74:
 843 0028 00000000 		.word	g_vuwIntCount
 844              		.cfi_endproc
 845              	.LFE145:
 847              		.section	.text.osKernelGetSysTimerCount,"ax",%progbits
 848              		.align	1
 849              		.global	osKernelGetSysTimerCount
 850              		.syntax unified
 851              		.thumb
 852              		.thumb_func
 853              		.fpu fpv4-sp-d16
 855              	osKernelGetSysTimerCount:
 856              	.LFB146:
 339:/home/fanxinhao/Work/LiteOS_Lab/iot_link/os/liteos/cmsis/2.0/cmsis_liteos2.c **** 
 340:/home/fanxinhao/Work/LiteOS_Lab/iot_link/os/liteos/cmsis/2.0/cmsis_liteos2.c **** 
 341:/home/fanxinhao/Work/LiteOS_Lab/iot_link/os/liteos/cmsis/2.0/cmsis_liteos2.c **** uint32_t osKernelGetSysTimerCount (void)
 342:/home/fanxinhao/Work/LiteOS_Lab/iot_link/os/liteos/cmsis/2.0/cmsis_liteos2.c **** {
 857              		.loc 1 342 1
 858              		.cfi_startproc
 859              		@ args = 0, pretend = 0, frame = 8
 860              		@ frame_needed = 1, uses_anonymous_args = 0
 861 0000 80B5     		push	{r7, lr}
 862              	.LCFI47:
 863              		.cfi_def_cfa_offset 8
 864              		.cfi_offset 7, -8
 865              		.cfi_offset 14, -4
 866 0002 82B0     		sub	sp, sp, #8
 867              	.LCFI48:
 868              		.cfi_def_cfa_offset 16
 869 0004 00AF     		add	r7, sp, #0
 870              	.LCFI49:
 871              		.cfi_def_cfa_register 7
 343:/home/fanxinhao/Work/LiteOS_Lab/iot_link/os/liteos/cmsis/2.0/cmsis_liteos2.c ****     uint32_t count_high = 0;
ARM GAS  /tmp/ccKdD4IP.s 			page 22


 872              		.loc 1 343 14
 873 0006 0023     		movs	r3, #0
 874 0008 7B60     		str	r3, [r7, #4]
 344:/home/fanxinhao/Work/LiteOS_Lab/iot_link/os/liteos/cmsis/2.0/cmsis_liteos2.c ****     uint32_t count_low = 0;
 875              		.loc 1 344 14
 876 000a 0023     		movs	r3, #0
 877 000c 3B60     		str	r3, [r7]
 345:/home/fanxinhao/Work/LiteOS_Lab/iot_link/os/liteos/cmsis/2.0/cmsis_liteos2.c ****     if (OS_INT_ACTIVE)
 878              		.loc 1 345 9
 879 000e 094B     		ldr	r3, .L80
 880 0010 1B68     		ldr	r3, [r3]
 881              		.loc 1 345 8
 882 0012 002B     		cmp	r3, #0
 883 0014 02D0     		beq	.L77
 346:/home/fanxinhao/Work/LiteOS_Lab/iot_link/os/liteos/cmsis/2.0/cmsis_liteos2.c ****     {
 347:/home/fanxinhao/Work/LiteOS_Lab/iot_link/os/liteos/cmsis/2.0/cmsis_liteos2.c ****         count_low = 0U;
 884              		.loc 1 347 19
 885 0016 0023     		movs	r3, #0
 886 0018 3B60     		str	r3, [r7]
 887 001a 05E0     		b	.L78
 888              	.L77:
 348:/home/fanxinhao/Work/LiteOS_Lab/iot_link/os/liteos/cmsis/2.0/cmsis_liteos2.c ****     }
 349:/home/fanxinhao/Work/LiteOS_Lab/iot_link/os/liteos/cmsis/2.0/cmsis_liteos2.c ****     else
 350:/home/fanxinhao/Work/LiteOS_Lab/iot_link/os/liteos/cmsis/2.0/cmsis_liteos2.c ****     {
 351:/home/fanxinhao/Work/LiteOS_Lab/iot_link/os/liteos/cmsis/2.0/cmsis_liteos2.c ****         LOS_GetSystickCycle((UINT32 *)&count_high, (UINT32 *)&count_low);
 889              		.loc 1 351 9
 890 001c 3A46     		mov	r2, r7
 891 001e 3B1D     		adds	r3, r7, #4
 892 0020 1146     		mov	r1, r2
 893 0022 1846     		mov	r0, r3
 894 0024 FFF7FEFF 		bl	LOS_GetSystickCycle
 895              	.L78:
 352:/home/fanxinhao/Work/LiteOS_Lab/iot_link/os/liteos/cmsis/2.0/cmsis_liteos2.c ****     }
 353:/home/fanxinhao/Work/LiteOS_Lab/iot_link/os/liteos/cmsis/2.0/cmsis_liteos2.c ****     return count_low;
 896              		.loc 1 353 12
 897 0028 3B68     		ldr	r3, [r7]
 354:/home/fanxinhao/Work/LiteOS_Lab/iot_link/os/liteos/cmsis/2.0/cmsis_liteos2.c **** }
 898              		.loc 1 354 1
 899 002a 1846     		mov	r0, r3
 900 002c 0837     		adds	r7, r7, #8
 901              	.LCFI50:
 902              		.cfi_def_cfa_offset 8
 903 002e BD46     		mov	sp, r7
 904              	.LCFI51:
 905              		.cfi_def_cfa_register 13
 906              		@ sp needed
 907 0030 80BD     		pop	{r7, pc}
 908              	.L81:
 909 0032 00BF     		.align	2
 910              	.L80:
 911 0034 00000000 		.word	g_vuwIntCount
 912              		.cfi_endproc
 913              	.LFE146:
 915              		.section	.text.osKernelGetSysTimerFreq,"ax",%progbits
 916              		.align	1
 917              		.global	osKernelGetSysTimerFreq
 918              		.syntax unified
ARM GAS  /tmp/ccKdD4IP.s 			page 23


 919              		.thumb
 920              		.thumb_func
 921              		.fpu fpv4-sp-d16
 923              	osKernelGetSysTimerFreq:
 924              	.LFB147:
 355:/home/fanxinhao/Work/LiteOS_Lab/iot_link/os/liteos/cmsis/2.0/cmsis_liteos2.c **** 
 356:/home/fanxinhao/Work/LiteOS_Lab/iot_link/os/liteos/cmsis/2.0/cmsis_liteos2.c **** 
 357:/home/fanxinhao/Work/LiteOS_Lab/iot_link/os/liteos/cmsis/2.0/cmsis_liteos2.c **** uint32_t osKernelGetSysTimerFreq (void)
 358:/home/fanxinhao/Work/LiteOS_Lab/iot_link/os/liteos/cmsis/2.0/cmsis_liteos2.c **** {
 925              		.loc 1 358 1
 926              		.cfi_startproc
 927              		@ args = 0, pretend = 0, frame = 0
 928              		@ frame_needed = 1, uses_anonymous_args = 0
 929              		@ link register save eliminated.
 930 0000 80B4     		push	{r7}
 931              	.LCFI52:
 932              		.cfi_def_cfa_offset 4
 933              		.cfi_offset 7, -4
 934 0002 00AF     		add	r7, sp, #0
 935              	.LCFI53:
 936              		.cfi_def_cfa_register 7
 359:/home/fanxinhao/Work/LiteOS_Lab/iot_link/os/liteos/cmsis/2.0/cmsis_liteos2.c ****     return OS_SYS_CLOCK;
 937              		.loc 1 359 12
 938 0004 034B     		ldr	r3, .L84
 939 0006 1B68     		ldr	r3, [r3]
 360:/home/fanxinhao/Work/LiteOS_Lab/iot_link/os/liteos/cmsis/2.0/cmsis_liteos2.c **** }
 940              		.loc 1 360 1
 941 0008 1846     		mov	r0, r3
 942 000a BD46     		mov	sp, r7
 943              	.LCFI54:
 944              		.cfi_def_cfa_register 13
 945              		@ sp needed
 946 000c 5DF8047B 		ldr	r7, [sp], #4
 947              	.LCFI55:
 948              		.cfi_restore 7
 949              		.cfi_def_cfa_offset 0
 950 0010 7047     		bx	lr
 951              	.L85:
 952 0012 00BF     		.align	2
 953              	.L84:
 954 0014 00000000 		.word	SystemCoreClock
 955              		.cfi_endproc
 956              	.LFE147:
 958              		.section	.text.osThreadNew,"ax",%progbits
 959              		.align	1
 960              		.global	osThreadNew
 961              		.syntax unified
 962              		.thumb
 963              		.thumb_func
 964              		.fpu fpv4-sp-d16
 966              	osThreadNew:
 967              	.LFB148:
 361:/home/fanxinhao/Work/LiteOS_Lab/iot_link/os/liteos/cmsis/2.0/cmsis_liteos2.c **** 
 362:/home/fanxinhao/Work/LiteOS_Lab/iot_link/os/liteos/cmsis/2.0/cmsis_liteos2.c **** 
 363:/home/fanxinhao/Work/LiteOS_Lab/iot_link/os/liteos/cmsis/2.0/cmsis_liteos2.c **** //  ==== Thread Management Functions ====
 364:/home/fanxinhao/Work/LiteOS_Lab/iot_link/os/liteos/cmsis/2.0/cmsis_liteos2.c **** 
 365:/home/fanxinhao/Work/LiteOS_Lab/iot_link/os/liteos/cmsis/2.0/cmsis_liteos2.c **** #if (LOSCFG_STATIC_TASK == NO)
ARM GAS  /tmp/ccKdD4IP.s 			page 24


 366:/home/fanxinhao/Work/LiteOS_Lab/iot_link/os/liteos/cmsis/2.0/cmsis_liteos2.c **** osThreadId_t osThreadNew (osThreadFunc_t func, void *argument, const osThreadAttr_t *attr)
 367:/home/fanxinhao/Work/LiteOS_Lab/iot_link/os/liteos/cmsis/2.0/cmsis_liteos2.c **** {
 968              		.loc 1 367 1
 969              		.cfi_startproc
 970              		@ args = 0, pretend = 0, frame = 56
 971              		@ frame_needed = 1, uses_anonymous_args = 0
 972 0000 80B5     		push	{r7, lr}
 973              	.LCFI56:
 974              		.cfi_def_cfa_offset 8
 975              		.cfi_offset 7, -8
 976              		.cfi_offset 14, -4
 977 0002 8EB0     		sub	sp, sp, #56
 978              	.LCFI57:
 979              		.cfi_def_cfa_offset 64
 980 0004 00AF     		add	r7, sp, #0
 981              	.LCFI58:
 982              		.cfi_def_cfa_register 7
 983 0006 F860     		str	r0, [r7, #12]
 984 0008 B960     		str	r1, [r7, #8]
 985 000a 7A60     		str	r2, [r7, #4]
 368:/home/fanxinhao/Work/LiteOS_Lab/iot_link/os/liteos/cmsis/2.0/cmsis_liteos2.c ****     UNUSED(argument);
 369:/home/fanxinhao/Work/LiteOS_Lab/iot_link/os/liteos/cmsis/2.0/cmsis_liteos2.c **** 
 370:/home/fanxinhao/Work/LiteOS_Lab/iot_link/os/liteos/cmsis/2.0/cmsis_liteos2.c ****     UINT32 uwTid;
 371:/home/fanxinhao/Work/LiteOS_Lab/iot_link/os/liteos/cmsis/2.0/cmsis_liteos2.c ****     UINT32 uwRet;
 372:/home/fanxinhao/Work/LiteOS_Lab/iot_link/os/liteos/cmsis/2.0/cmsis_liteos2.c ****     LOS_TASK_CB *pstTaskCB = NULL;
 986              		.loc 1 372 18
 987 000c 0023     		movs	r3, #0
 988 000e 7B63     		str	r3, [r7, #52]
 373:/home/fanxinhao/Work/LiteOS_Lab/iot_link/os/liteos/cmsis/2.0/cmsis_liteos2.c ****     TSK_INIT_PARAM_S stTskInitParam;
 374:/home/fanxinhao/Work/LiteOS_Lab/iot_link/os/liteos/cmsis/2.0/cmsis_liteos2.c **** 
 375:/home/fanxinhao/Work/LiteOS_Lab/iot_link/os/liteos/cmsis/2.0/cmsis_liteos2.c ****     if (OS_INT_ACTIVE)
 989              		.loc 1 375 9
 990 0010 234B     		ldr	r3, .L93
 991 0012 1B68     		ldr	r3, [r3]
 992              		.loc 1 375 8
 993 0014 002B     		cmp	r3, #0
 994 0016 01D0     		beq	.L87
 376:/home/fanxinhao/Work/LiteOS_Lab/iot_link/os/liteos/cmsis/2.0/cmsis_liteos2.c ****     {
 377:/home/fanxinhao/Work/LiteOS_Lab/iot_link/os/liteos/cmsis/2.0/cmsis_liteos2.c ****         return NULL;
 995              		.loc 1 377 16
 996 0018 0023     		movs	r3, #0
 997 001a 3DE0     		b	.L92
 998              	.L87:
 378:/home/fanxinhao/Work/LiteOS_Lab/iot_link/os/liteos/cmsis/2.0/cmsis_liteos2.c ****     }
 379:/home/fanxinhao/Work/LiteOS_Lab/iot_link/os/liteos/cmsis/2.0/cmsis_liteos2.c **** 
 380:/home/fanxinhao/Work/LiteOS_Lab/iot_link/os/liteos/cmsis/2.0/cmsis_liteos2.c ****     if ((attr == NULL) ||
 999              		.loc 1 380 8
 1000 001c 7B68     		ldr	r3, [r7, #4]
 1001 001e 002B     		cmp	r3, #0
 1002 0020 0AD0     		beq	.L89
 1003              		.loc 1 380 24 discriminator 1
 1004 0022 FB68     		ldr	r3, [r7, #12]
 1005 0024 002B     		cmp	r3, #0
 1006 0026 07D0     		beq	.L89
 381:/home/fanxinhao/Work/LiteOS_Lab/iot_link/os/liteos/cmsis/2.0/cmsis_liteos2.c ****             (func == NULL) ||
 382:/home/fanxinhao/Work/LiteOS_Lab/iot_link/os/liteos/cmsis/2.0/cmsis_liteos2.c ****             (attr->priority < osPriorityLow1) ||
 1007              		.loc 1 382 18
ARM GAS  /tmp/ccKdD4IP.s 			page 25


 1008 0028 7B68     		ldr	r3, [r7, #4]
 1009 002a 9B69     		ldr	r3, [r3, #24]
 381:/home/fanxinhao/Work/LiteOS_Lab/iot_link/os/liteos/cmsis/2.0/cmsis_liteos2.c ****             (func == NULL) ||
 1010              		.loc 1 381 28
 1011 002c 082B     		cmp	r3, #8
 1012 002e 03DD     		ble	.L89
 383:/home/fanxinhao/Work/LiteOS_Lab/iot_link/os/liteos/cmsis/2.0/cmsis_liteos2.c ****             (attr->priority > osPriorityAboveNormal6))
 1013              		.loc 1 383 18
 1014 0030 7B68     		ldr	r3, [r7, #4]
 1015 0032 9B69     		ldr	r3, [r3, #24]
 382:/home/fanxinhao/Work/LiteOS_Lab/iot_link/os/liteos/cmsis/2.0/cmsis_liteos2.c ****             (attr->priority > osPriorityAboveNormal6))
 1016              		.loc 1 382 47
 1017 0034 262B     		cmp	r3, #38
 1018 0036 01DD     		ble	.L90
 1019              	.L89:
 384:/home/fanxinhao/Work/LiteOS_Lab/iot_link/os/liteos/cmsis/2.0/cmsis_liteos2.c ****     {
 385:/home/fanxinhao/Work/LiteOS_Lab/iot_link/os/liteos/cmsis/2.0/cmsis_liteos2.c ****         return (osThreadId_t)NULL;
 1020              		.loc 1 385 16
 1021 0038 0023     		movs	r3, #0
 1022 003a 2DE0     		b	.L92
 1023              	.L90:
 386:/home/fanxinhao/Work/LiteOS_Lab/iot_link/os/liteos/cmsis/2.0/cmsis_liteos2.c ****     }
 387:/home/fanxinhao/Work/LiteOS_Lab/iot_link/os/liteos/cmsis/2.0/cmsis_liteos2.c **** 
 388:/home/fanxinhao/Work/LiteOS_Lab/iot_link/os/liteos/cmsis/2.0/cmsis_liteos2.c ****     memset(&stTskInitParam, 0, sizeof(TSK_INIT_PARAM_S));
 1024              		.loc 1 388 5
 1025 003c 07F11403 		add	r3, r7, #20
 1026 0040 1822     		movs	r2, #24
 1027 0042 0021     		movs	r1, #0
 1028 0044 1846     		mov	r0, r3
 1029 0046 FFF7FEFF 		bl	memset
 389:/home/fanxinhao/Work/LiteOS_Lab/iot_link/os/liteos/cmsis/2.0/cmsis_liteos2.c ****     stTskInitParam.pfnTaskEntry = (TSK_ENTRY_FUNC)func;
 1030              		.loc 1 389 33
 1031 004a FB68     		ldr	r3, [r7, #12]
 1032 004c 7B61     		str	r3, [r7, #20]
 390:/home/fanxinhao/Work/LiteOS_Lab/iot_link/os/liteos/cmsis/2.0/cmsis_liteos2.c ****     stTskInitParam.uwStackSize  = attr->stack_size * 4;
 1033              		.loc 1 390 39
 1034 004e 7B68     		ldr	r3, [r7, #4]
 1035 0050 5B69     		ldr	r3, [r3, #20]
 1036              		.loc 1 390 52
 1037 0052 9B00     		lsls	r3, r3, #2
 1038              		.loc 1 390 33
 1039 0054 3B62     		str	r3, [r7, #32]
 391:/home/fanxinhao/Work/LiteOS_Lab/iot_link/os/liteos/cmsis/2.0/cmsis_liteos2.c ****     stTskInitParam.pcName       = (CHAR *)attr->name;
 1040              		.loc 1 391 47
 1041 0056 7B68     		ldr	r3, [r7, #4]
 1042 0058 1B68     		ldr	r3, [r3]
 1043              		.loc 1 391 33
 1044 005a 7B62     		str	r3, [r7, #36]
 392:/home/fanxinhao/Work/LiteOS_Lab/iot_link/os/liteos/cmsis/2.0/cmsis_liteos2.c ****     stTskInitParam.usTaskPrio   = OS_TASK_PRIORITY_LOWEST - ((UINT16)(attr->priority) - LOS_PRIORIT
 1045              		.loc 1 392 75
 1046 005c 7B68     		ldr	r3, [r7, #4]
 1047 005e 9B69     		ldr	r3, [r3, #24]
 1048              		.loc 1 392 62
 1049 0060 9BB2     		uxth	r3, r3
 1050              		.loc 1 392 59
 1051 0062 C3F12703 		rsb	r3, r3, #39
 1052 0066 9BB2     		uxth	r3, r3
ARM GAS  /tmp/ccKdD4IP.s 			page 26


 1053              		.loc 1 392 33
 1054 0068 3B83     		strh	r3, [r7, #24]	@ movhi
 393:/home/fanxinhao/Work/LiteOS_Lab/iot_link/os/liteos/cmsis/2.0/cmsis_liteos2.c **** 
 394:/home/fanxinhao/Work/LiteOS_Lab/iot_link/os/liteos/cmsis/2.0/cmsis_liteos2.c ****     uwRet = LOS_TaskCreate(&uwTid, &stTskInitParam);
 1055              		.loc 1 394 13
 1056 006a 07F11402 		add	r2, r7, #20
 1057 006e 07F12C03 		add	r3, r7, #44
 1058 0072 1146     		mov	r1, r2
 1059 0074 1846     		mov	r0, r3
 1060 0076 FFF7FEFF 		bl	LOS_TaskCreate
 1061 007a 3863     		str	r0, [r7, #48]
 395:/home/fanxinhao/Work/LiteOS_Lab/iot_link/os/liteos/cmsis/2.0/cmsis_liteos2.c **** 
 396:/home/fanxinhao/Work/LiteOS_Lab/iot_link/os/liteos/cmsis/2.0/cmsis_liteos2.c ****     if (LOS_OK != uwRet)
 1062              		.loc 1 396 8
 1063 007c 3B6B     		ldr	r3, [r7, #48]
 1064 007e 002B     		cmp	r3, #0
 1065 0080 01D0     		beq	.L91
 397:/home/fanxinhao/Work/LiteOS_Lab/iot_link/os/liteos/cmsis/2.0/cmsis_liteos2.c ****     {
 398:/home/fanxinhao/Work/LiteOS_Lab/iot_link/os/liteos/cmsis/2.0/cmsis_liteos2.c ****         return (osThreadId_t)NULL;
 1066              		.loc 1 398 16
 1067 0082 0023     		movs	r3, #0
 1068 0084 08E0     		b	.L92
 1069              	.L91:
 399:/home/fanxinhao/Work/LiteOS_Lab/iot_link/os/liteos/cmsis/2.0/cmsis_liteos2.c ****     }
 400:/home/fanxinhao/Work/LiteOS_Lab/iot_link/os/liteos/cmsis/2.0/cmsis_liteos2.c **** 
 401:/home/fanxinhao/Work/LiteOS_Lab/iot_link/os/liteos/cmsis/2.0/cmsis_liteos2.c ****     pstTaskCB = OS_TCB_FROM_TID(uwTid);
 1070              		.loc 1 401 17
 1071 0086 074B     		ldr	r3, .L93+4
 1072 0088 1A68     		ldr	r2, [r3]
 1073 008a FB6A     		ldr	r3, [r7, #44]
 1074 008c 5421     		movs	r1, #84
 1075 008e 01FB03F3 		mul	r3, r1, r3
 1076              		.loc 1 401 15
 1077 0092 1344     		add	r3, r3, r2
 1078 0094 7B63     		str	r3, [r7, #52]
 402:/home/fanxinhao/Work/LiteOS_Lab/iot_link/os/liteos/cmsis/2.0/cmsis_liteos2.c **** 
 403:/home/fanxinhao/Work/LiteOS_Lab/iot_link/os/liteos/cmsis/2.0/cmsis_liteos2.c ****     return (osThreadId_t)pstTaskCB;
 1079              		.loc 1 403 12
 1080 0096 7B6B     		ldr	r3, [r7, #52]
 1081              	.L92:
 404:/home/fanxinhao/Work/LiteOS_Lab/iot_link/os/liteos/cmsis/2.0/cmsis_liteos2.c **** }
 1082              		.loc 1 404 1 discriminator 1
 1083 0098 1846     		mov	r0, r3
 1084 009a 3837     		adds	r7, r7, #56
 1085              	.LCFI59:
 1086              		.cfi_def_cfa_offset 8
 1087 009c BD46     		mov	sp, r7
 1088              	.LCFI60:
 1089              		.cfi_def_cfa_register 13
 1090              		@ sp needed
 1091 009e 80BD     		pop	{r7, pc}
 1092              	.L94:
 1093              		.align	2
 1094              	.L93:
 1095 00a0 00000000 		.word	g_vuwIntCount
 1096 00a4 00000000 		.word	g_pstTaskCBArray
 1097              		.cfi_endproc
ARM GAS  /tmp/ccKdD4IP.s 			page 27


 1098              	.LFE148:
 1100              		.section	.text.osThreadGetName,"ax",%progbits
 1101              		.align	1
 1102              		.global	osThreadGetName
 1103              		.syntax unified
 1104              		.thumb
 1105              		.thumb_func
 1106              		.fpu fpv4-sp-d16
 1108              	osThreadGetName:
 1109              	.LFB149:
 405:/home/fanxinhao/Work/LiteOS_Lab/iot_link/os/liteos/cmsis/2.0/cmsis_liteos2.c **** #endif
 406:/home/fanxinhao/Work/LiteOS_Lab/iot_link/os/liteos/cmsis/2.0/cmsis_liteos2.c **** 
 407:/home/fanxinhao/Work/LiteOS_Lab/iot_link/os/liteos/cmsis/2.0/cmsis_liteos2.c **** 
 408:/home/fanxinhao/Work/LiteOS_Lab/iot_link/os/liteos/cmsis/2.0/cmsis_liteos2.c **** const char *osThreadGetName (osThreadId_t thread_id)
 409:/home/fanxinhao/Work/LiteOS_Lab/iot_link/os/liteos/cmsis/2.0/cmsis_liteos2.c **** {
 1110              		.loc 1 409 1
 1111              		.cfi_startproc
 1112              		@ args = 0, pretend = 0, frame = 16
 1113              		@ frame_needed = 1, uses_anonymous_args = 0
 1114              		@ link register save eliminated.
 1115 0000 80B4     		push	{r7}
 1116              	.LCFI61:
 1117              		.cfi_def_cfa_offset 4
 1118              		.cfi_offset 7, -4
 1119 0002 85B0     		sub	sp, sp, #20
 1120              	.LCFI62:
 1121              		.cfi_def_cfa_offset 24
 1122 0004 00AF     		add	r7, sp, #0
 1123              	.LCFI63:
 1124              		.cfi_def_cfa_register 7
 1125 0006 7860     		str	r0, [r7, #4]
 410:/home/fanxinhao/Work/LiteOS_Lab/iot_link/os/liteos/cmsis/2.0/cmsis_liteos2.c ****     LOS_TASK_CB *pstTaskCB = NULL;
 1126              		.loc 1 410 18
 1127 0008 0023     		movs	r3, #0
 1128 000a FB60     		str	r3, [r7, #12]
 411:/home/fanxinhao/Work/LiteOS_Lab/iot_link/os/liteos/cmsis/2.0/cmsis_liteos2.c **** 
 412:/home/fanxinhao/Work/LiteOS_Lab/iot_link/os/liteos/cmsis/2.0/cmsis_liteos2.c ****     if (OS_INT_ACTIVE || thread_id == NULL)
 1129              		.loc 1 412 9
 1130 000c 094B     		ldr	r3, .L99
 1131 000e 1B68     		ldr	r3, [r3]
 1132              		.loc 1 412 8
 1133 0010 002B     		cmp	r3, #0
 1134 0012 02D1     		bne	.L96
 1135              		.loc 1 412 23 discriminator 1
 1136 0014 7B68     		ldr	r3, [r7, #4]
 1137 0016 002B     		cmp	r3, #0
 1138 0018 01D1     		bne	.L97
 1139              	.L96:
 413:/home/fanxinhao/Work/LiteOS_Lab/iot_link/os/liteos/cmsis/2.0/cmsis_liteos2.c ****     {
 414:/home/fanxinhao/Work/LiteOS_Lab/iot_link/os/liteos/cmsis/2.0/cmsis_liteos2.c ****         return NULL;
 1140              		.loc 1 414 16
 1141 001a 0023     		movs	r3, #0
 1142 001c 03E0     		b	.L98
 1143              	.L97:
 415:/home/fanxinhao/Work/LiteOS_Lab/iot_link/os/liteos/cmsis/2.0/cmsis_liteos2.c ****     }
 416:/home/fanxinhao/Work/LiteOS_Lab/iot_link/os/liteos/cmsis/2.0/cmsis_liteos2.c **** 
 417:/home/fanxinhao/Work/LiteOS_Lab/iot_link/os/liteos/cmsis/2.0/cmsis_liteos2.c ****     pstTaskCB = (LOS_TASK_CB *)thread_id;
ARM GAS  /tmp/ccKdD4IP.s 			page 28


 1144              		.loc 1 417 15
 1145 001e 7B68     		ldr	r3, [r7, #4]
 1146 0020 FB60     		str	r3, [r7, #12]
 418:/home/fanxinhao/Work/LiteOS_Lab/iot_link/os/liteos/cmsis/2.0/cmsis_liteos2.c **** 
 419:/home/fanxinhao/Work/LiteOS_Lab/iot_link/os/liteos/cmsis/2.0/cmsis_liteos2.c ****     return pstTaskCB->pcTaskName;
 1147              		.loc 1 419 21
 1148 0022 FB68     		ldr	r3, [r7, #12]
 1149 0024 5B6A     		ldr	r3, [r3, #36]
 1150              	.L98:
 420:/home/fanxinhao/Work/LiteOS_Lab/iot_link/os/liteos/cmsis/2.0/cmsis_liteos2.c **** }
 1151              		.loc 1 420 1
 1152 0026 1846     		mov	r0, r3
 1153 0028 1437     		adds	r7, r7, #20
 1154              	.LCFI64:
 1155              		.cfi_def_cfa_offset 4
 1156 002a BD46     		mov	sp, r7
 1157              	.LCFI65:
 1158              		.cfi_def_cfa_register 13
 1159              		@ sp needed
 1160 002c 5DF8047B 		ldr	r7, [sp], #4
 1161              	.LCFI66:
 1162              		.cfi_restore 7
 1163              		.cfi_def_cfa_offset 0
 1164 0030 7047     		bx	lr
 1165              	.L100:
 1166 0032 00BF     		.align	2
 1167              	.L99:
 1168 0034 00000000 		.word	g_vuwIntCount
 1169              		.cfi_endproc
 1170              	.LFE149:
 1172              		.section	.text.osThreadGetId,"ax",%progbits
 1173              		.align	1
 1174              		.global	osThreadGetId
 1175              		.syntax unified
 1176              		.thumb
 1177              		.thumb_func
 1178              		.fpu fpv4-sp-d16
 1180              	osThreadGetId:
 1181              	.LFB150:
 421:/home/fanxinhao/Work/LiteOS_Lab/iot_link/os/liteos/cmsis/2.0/cmsis_liteos2.c **** 
 422:/home/fanxinhao/Work/LiteOS_Lab/iot_link/os/liteos/cmsis/2.0/cmsis_liteos2.c **** 
 423:/home/fanxinhao/Work/LiteOS_Lab/iot_link/os/liteos/cmsis/2.0/cmsis_liteos2.c **** osThreadId_t osThreadGetId (void)
 424:/home/fanxinhao/Work/LiteOS_Lab/iot_link/os/liteos/cmsis/2.0/cmsis_liteos2.c **** {
 1182              		.loc 1 424 1
 1183              		.cfi_startproc
 1184              		@ args = 0, pretend = 0, frame = 0
 1185              		@ frame_needed = 1, uses_anonymous_args = 0
 1186              		@ link register save eliminated.
 1187 0000 80B4     		push	{r7}
 1188              	.LCFI67:
 1189              		.cfi_def_cfa_offset 4
 1190              		.cfi_offset 7, -4
 1191 0002 00AF     		add	r7, sp, #0
 1192              	.LCFI68:
 1193              		.cfi_def_cfa_register 7
 425:/home/fanxinhao/Work/LiteOS_Lab/iot_link/os/liteos/cmsis/2.0/cmsis_liteos2.c ****     if (OS_INT_ACTIVE)
 1194              		.loc 1 425 9
ARM GAS  /tmp/ccKdD4IP.s 			page 29


 1195 0004 064B     		ldr	r3, .L104
 1196 0006 1B68     		ldr	r3, [r3]
 1197              		.loc 1 425 8
 1198 0008 002B     		cmp	r3, #0
 1199 000a 01D0     		beq	.L102
 426:/home/fanxinhao/Work/LiteOS_Lab/iot_link/os/liteos/cmsis/2.0/cmsis_liteos2.c ****     {
 427:/home/fanxinhao/Work/LiteOS_Lab/iot_link/os/liteos/cmsis/2.0/cmsis_liteos2.c ****         return NULL;
 1200              		.loc 1 427 16
 1201 000c 0023     		movs	r3, #0
 1202 000e 01E0     		b	.L103
 1203              	.L102:
 428:/home/fanxinhao/Work/LiteOS_Lab/iot_link/os/liteos/cmsis/2.0/cmsis_liteos2.c ****     }
 429:/home/fanxinhao/Work/LiteOS_Lab/iot_link/os/liteos/cmsis/2.0/cmsis_liteos2.c **** 
 430:/home/fanxinhao/Work/LiteOS_Lab/iot_link/os/liteos/cmsis/2.0/cmsis_liteos2.c ****     return (osThreadId_t)(g_stLosTask.pstRunTask);
 1204              		.loc 1 430 12
 1205 0010 044B     		ldr	r3, .L104+4
 1206 0012 1B68     		ldr	r3, [r3]
 1207              	.L103:
 431:/home/fanxinhao/Work/LiteOS_Lab/iot_link/os/liteos/cmsis/2.0/cmsis_liteos2.c **** }
 1208              		.loc 1 431 1
 1209 0014 1846     		mov	r0, r3
 1210 0016 BD46     		mov	sp, r7
 1211              	.LCFI69:
 1212              		.cfi_def_cfa_register 13
 1213              		@ sp needed
 1214 0018 5DF8047B 		ldr	r7, [sp], #4
 1215              	.LCFI70:
 1216              		.cfi_restore 7
 1217              		.cfi_def_cfa_offset 0
 1218 001c 7047     		bx	lr
 1219              	.L105:
 1220 001e 00BF     		.align	2
 1221              	.L104:
 1222 0020 00000000 		.word	g_vuwIntCount
 1223 0024 00000000 		.word	g_stLosTask
 1224              		.cfi_endproc
 1225              	.LFE150:
 1227              		.section	.text.osThreadGetState,"ax",%progbits
 1228              		.align	1
 1229              		.global	osThreadGetState
 1230              		.syntax unified
 1231              		.thumb
 1232              		.thumb_func
 1233              		.fpu fpv4-sp-d16
 1235              	osThreadGetState:
 1236              	.LFB151:
 432:/home/fanxinhao/Work/LiteOS_Lab/iot_link/os/liteos/cmsis/2.0/cmsis_liteos2.c **** 
 433:/home/fanxinhao/Work/LiteOS_Lab/iot_link/os/liteos/cmsis/2.0/cmsis_liteos2.c **** 
 434:/home/fanxinhao/Work/LiteOS_Lab/iot_link/os/liteos/cmsis/2.0/cmsis_liteos2.c **** osThreadState_t osThreadGetState (osThreadId_t thread_id)
 435:/home/fanxinhao/Work/LiteOS_Lab/iot_link/os/liteos/cmsis/2.0/cmsis_liteos2.c **** {
 1237              		.loc 1 435 1
 1238              		.cfi_startproc
 1239              		@ args = 0, pretend = 0, frame = 24
 1240              		@ frame_needed = 1, uses_anonymous_args = 0
 1241              		@ link register save eliminated.
 1242 0000 80B4     		push	{r7}
 1243              	.LCFI71:
ARM GAS  /tmp/ccKdD4IP.s 			page 30


 1244              		.cfi_def_cfa_offset 4
 1245              		.cfi_offset 7, -4
 1246 0002 87B0     		sub	sp, sp, #28
 1247              	.LCFI72:
 1248              		.cfi_def_cfa_offset 32
 1249 0004 00AF     		add	r7, sp, #0
 1250              	.LCFI73:
 1251              		.cfi_def_cfa_register 7
 1252 0006 7860     		str	r0, [r7, #4]
 436:/home/fanxinhao/Work/LiteOS_Lab/iot_link/os/liteos/cmsis/2.0/cmsis_liteos2.c ****     UINT16 usTaskStatus;
 437:/home/fanxinhao/Work/LiteOS_Lab/iot_link/os/liteos/cmsis/2.0/cmsis_liteos2.c ****     osThreadState_t stState;
 438:/home/fanxinhao/Work/LiteOS_Lab/iot_link/os/liteos/cmsis/2.0/cmsis_liteos2.c ****     LOS_TASK_CB *pstTaskCB = NULL;
 1253              		.loc 1 438 18
 1254 0008 0023     		movs	r3, #0
 1255 000a 3B61     		str	r3, [r7, #16]
 439:/home/fanxinhao/Work/LiteOS_Lab/iot_link/os/liteos/cmsis/2.0/cmsis_liteos2.c **** 
 440:/home/fanxinhao/Work/LiteOS_Lab/iot_link/os/liteos/cmsis/2.0/cmsis_liteos2.c ****     if (OS_INT_ACTIVE || thread_id == NULL)
 1256              		.loc 1 440 9
 1257 000c 1C4B     		ldr	r3, .L115
 1258 000e 1B68     		ldr	r3, [r3]
 1259              		.loc 1 440 8
 1260 0010 002B     		cmp	r3, #0
 1261 0012 02D1     		bne	.L107
 1262              		.loc 1 440 23 discriminator 1
 1263 0014 7B68     		ldr	r3, [r7, #4]
 1264 0016 002B     		cmp	r3, #0
 1265 0018 02D1     		bne	.L108
 1266              	.L107:
 441:/home/fanxinhao/Work/LiteOS_Lab/iot_link/os/liteos/cmsis/2.0/cmsis_liteos2.c ****     {
 442:/home/fanxinhao/Work/LiteOS_Lab/iot_link/os/liteos/cmsis/2.0/cmsis_liteos2.c ****         return osThreadError;
 1267              		.loc 1 442 16
 1268 001a 4FF0FF33 		mov	r3, #-1
 1269 001e 29E0     		b	.L109
 1270              	.L108:
 443:/home/fanxinhao/Work/LiteOS_Lab/iot_link/os/liteos/cmsis/2.0/cmsis_liteos2.c ****     }
 444:/home/fanxinhao/Work/LiteOS_Lab/iot_link/os/liteos/cmsis/2.0/cmsis_liteos2.c **** 
 445:/home/fanxinhao/Work/LiteOS_Lab/iot_link/os/liteos/cmsis/2.0/cmsis_liteos2.c ****     pstTaskCB = (LOS_TASK_CB *)thread_id;
 1271              		.loc 1 445 15
 1272 0020 7B68     		ldr	r3, [r7, #4]
 1273 0022 3B61     		str	r3, [r7, #16]
 446:/home/fanxinhao/Work/LiteOS_Lab/iot_link/os/liteos/cmsis/2.0/cmsis_liteos2.c ****     usTaskStatus = pstTaskCB->usTaskStatus;
 1274              		.loc 1 446 18
 1275 0024 3B69     		ldr	r3, [r7, #16]
 1276 0026 9B88     		ldrh	r3, [r3, #4]	@ movhi
 1277 0028 FB81     		strh	r3, [r7, #14]	@ movhi
 447:/home/fanxinhao/Work/LiteOS_Lab/iot_link/os/liteos/cmsis/2.0/cmsis_liteos2.c **** 
 448:/home/fanxinhao/Work/LiteOS_Lab/iot_link/os/liteos/cmsis/2.0/cmsis_liteos2.c ****     if (usTaskStatus & OS_TASK_STATUS_RUNNING)
 1278              		.loc 1 448 22
 1279 002a FB89     		ldrh	r3, [r7, #14]
 1280 002c 03F01003 		and	r3, r3, #16
 1281              		.loc 1 448 8
 1282 0030 002B     		cmp	r3, #0
 1283 0032 02D0     		beq	.L110
 449:/home/fanxinhao/Work/LiteOS_Lab/iot_link/os/liteos/cmsis/2.0/cmsis_liteos2.c ****     {
 450:/home/fanxinhao/Work/LiteOS_Lab/iot_link/os/liteos/cmsis/2.0/cmsis_liteos2.c ****         stState = osThreadRunning;
 1284              		.loc 1 450 17
 1285 0034 0223     		movs	r3, #2
ARM GAS  /tmp/ccKdD4IP.s 			page 31


 1286 0036 7B61     		str	r3, [r7, #20]
 1287 0038 1BE0     		b	.L111
 1288              	.L110:
 451:/home/fanxinhao/Work/LiteOS_Lab/iot_link/os/liteos/cmsis/2.0/cmsis_liteos2.c ****     }
 452:/home/fanxinhao/Work/LiteOS_Lab/iot_link/os/liteos/cmsis/2.0/cmsis_liteos2.c ****     else if (usTaskStatus & OS_TASK_STATUS_READY)
 1289              		.loc 1 452 27
 1290 003a FB89     		ldrh	r3, [r7, #14]
 1291 003c 03F00403 		and	r3, r3, #4
 1292              		.loc 1 452 13
 1293 0040 002B     		cmp	r3, #0
 1294 0042 02D0     		beq	.L112
 453:/home/fanxinhao/Work/LiteOS_Lab/iot_link/os/liteos/cmsis/2.0/cmsis_liteos2.c ****     {
 454:/home/fanxinhao/Work/LiteOS_Lab/iot_link/os/liteos/cmsis/2.0/cmsis_liteos2.c ****         stState = osThreadReady;
 1295              		.loc 1 454 17
 1296 0044 0123     		movs	r3, #1
 1297 0046 7B61     		str	r3, [r7, #20]
 1298 0048 13E0     		b	.L111
 1299              	.L112:
 455:/home/fanxinhao/Work/LiteOS_Lab/iot_link/os/liteos/cmsis/2.0/cmsis_liteos2.c ****     }
 456:/home/fanxinhao/Work/LiteOS_Lab/iot_link/os/liteos/cmsis/2.0/cmsis_liteos2.c ****     else if (usTaskStatus &
 1300              		.loc 1 456 27
 1301 004a FA89     		ldrh	r2, [r7, #14]
 1302 004c 42F22A03 		movw	r3, #8234
 1303 0050 1340     		ands	r3, r3, r2
 1304              		.loc 1 456 13
 1305 0052 002B     		cmp	r3, #0
 1306 0054 02D0     		beq	.L113
 457:/home/fanxinhao/Work/LiteOS_Lab/iot_link/os/liteos/cmsis/2.0/cmsis_liteos2.c ****              (OS_TASK_STATUS_DELAY | OS_TASK_STATUS_PEND |
 458:/home/fanxinhao/Work/LiteOS_Lab/iot_link/os/liteos/cmsis/2.0/cmsis_liteos2.c ****               OS_TASK_STATUS_SUSPEND | OS_TASK_STATUS_PEND_QUEUE))
 459:/home/fanxinhao/Work/LiteOS_Lab/iot_link/os/liteos/cmsis/2.0/cmsis_liteos2.c ****     {
 460:/home/fanxinhao/Work/LiteOS_Lab/iot_link/os/liteos/cmsis/2.0/cmsis_liteos2.c ****         stState = osThreadBlocked;
 1307              		.loc 1 460 17
 1308 0056 0323     		movs	r3, #3
 1309 0058 7B61     		str	r3, [r7, #20]
 1310 005a 0AE0     		b	.L111
 1311              	.L113:
 461:/home/fanxinhao/Work/LiteOS_Lab/iot_link/os/liteos/cmsis/2.0/cmsis_liteos2.c ****     }
 462:/home/fanxinhao/Work/LiteOS_Lab/iot_link/os/liteos/cmsis/2.0/cmsis_liteos2.c ****     else if (usTaskStatus & OS_TASK_STATUS_UNUSED)
 1312              		.loc 1 462 27
 1313 005c FB89     		ldrh	r3, [r7, #14]
 1314 005e 03F00103 		and	r3, r3, #1
 1315              		.loc 1 462 13
 1316 0062 002B     		cmp	r3, #0
 1317 0064 02D0     		beq	.L114
 463:/home/fanxinhao/Work/LiteOS_Lab/iot_link/os/liteos/cmsis/2.0/cmsis_liteos2.c ****     {
 464:/home/fanxinhao/Work/LiteOS_Lab/iot_link/os/liteos/cmsis/2.0/cmsis_liteos2.c ****         stState = osThreadInactive;
 1318              		.loc 1 464 17
 1319 0066 0023     		movs	r3, #0
 1320 0068 7B61     		str	r3, [r7, #20]
 1321 006a 02E0     		b	.L111
 1322              	.L114:
 465:/home/fanxinhao/Work/LiteOS_Lab/iot_link/os/liteos/cmsis/2.0/cmsis_liteos2.c ****     }
 466:/home/fanxinhao/Work/LiteOS_Lab/iot_link/os/liteos/cmsis/2.0/cmsis_liteos2.c ****     else
 467:/home/fanxinhao/Work/LiteOS_Lab/iot_link/os/liteos/cmsis/2.0/cmsis_liteos2.c ****     {
 468:/home/fanxinhao/Work/LiteOS_Lab/iot_link/os/liteos/cmsis/2.0/cmsis_liteos2.c ****         stState = osThreadError;
 1323              		.loc 1 468 17
 1324 006c 4FF0FF33 		mov	r3, #-1
ARM GAS  /tmp/ccKdD4IP.s 			page 32


 1325 0070 7B61     		str	r3, [r7, #20]
 1326              	.L111:
 469:/home/fanxinhao/Work/LiteOS_Lab/iot_link/os/liteos/cmsis/2.0/cmsis_liteos2.c ****     }
 470:/home/fanxinhao/Work/LiteOS_Lab/iot_link/os/liteos/cmsis/2.0/cmsis_liteos2.c **** 
 471:/home/fanxinhao/Work/LiteOS_Lab/iot_link/os/liteos/cmsis/2.0/cmsis_liteos2.c ****     return stState;
 1327              		.loc 1 471 12
 1328 0072 7B69     		ldr	r3, [r7, #20]
 1329              	.L109:
 472:/home/fanxinhao/Work/LiteOS_Lab/iot_link/os/liteos/cmsis/2.0/cmsis_liteos2.c **** }
 1330              		.loc 1 472 1
 1331 0074 1846     		mov	r0, r3
 1332 0076 1C37     		adds	r7, r7, #28
 1333              	.LCFI74:
 1334              		.cfi_def_cfa_offset 4
 1335 0078 BD46     		mov	sp, r7
 1336              	.LCFI75:
 1337              		.cfi_def_cfa_register 13
 1338              		@ sp needed
 1339 007a 5DF8047B 		ldr	r7, [sp], #4
 1340              	.LCFI76:
 1341              		.cfi_restore 7
 1342              		.cfi_def_cfa_offset 0
 1343 007e 7047     		bx	lr
 1344              	.L116:
 1345              		.align	2
 1346              	.L115:
 1347 0080 00000000 		.word	g_vuwIntCount
 1348              		.cfi_endproc
 1349              	.LFE151:
 1351              		.section	.text.osThreadGetStackSize,"ax",%progbits
 1352              		.align	1
 1353              		.global	osThreadGetStackSize
 1354              		.syntax unified
 1355              		.thumb
 1356              		.thumb_func
 1357              		.fpu fpv4-sp-d16
 1359              	osThreadGetStackSize:
 1360              	.LFB152:
 473:/home/fanxinhao/Work/LiteOS_Lab/iot_link/os/liteos/cmsis/2.0/cmsis_liteos2.c **** 
 474:/home/fanxinhao/Work/LiteOS_Lab/iot_link/os/liteos/cmsis/2.0/cmsis_liteos2.c **** 
 475:/home/fanxinhao/Work/LiteOS_Lab/iot_link/os/liteos/cmsis/2.0/cmsis_liteos2.c **** uint32_t osThreadGetStackSize (osThreadId_t thread_id)
 476:/home/fanxinhao/Work/LiteOS_Lab/iot_link/os/liteos/cmsis/2.0/cmsis_liteos2.c **** {
 1361              		.loc 1 476 1
 1362              		.cfi_startproc
 1363              		@ args = 0, pretend = 0, frame = 16
 1364              		@ frame_needed = 1, uses_anonymous_args = 0
 1365              		@ link register save eliminated.
 1366 0000 80B4     		push	{r7}
 1367              	.LCFI77:
 1368              		.cfi_def_cfa_offset 4
 1369              		.cfi_offset 7, -4
 1370 0002 85B0     		sub	sp, sp, #20
 1371              	.LCFI78:
 1372              		.cfi_def_cfa_offset 24
 1373 0004 00AF     		add	r7, sp, #0
 1374              	.LCFI79:
 1375              		.cfi_def_cfa_register 7
ARM GAS  /tmp/ccKdD4IP.s 			page 33


 1376 0006 7860     		str	r0, [r7, #4]
 477:/home/fanxinhao/Work/LiteOS_Lab/iot_link/os/liteos/cmsis/2.0/cmsis_liteos2.c ****     LOS_TASK_CB *pstTaskCB = NULL;
 1377              		.loc 1 477 18
 1378 0008 0023     		movs	r3, #0
 1379 000a FB60     		str	r3, [r7, #12]
 478:/home/fanxinhao/Work/LiteOS_Lab/iot_link/os/liteos/cmsis/2.0/cmsis_liteos2.c **** 
 479:/home/fanxinhao/Work/LiteOS_Lab/iot_link/os/liteos/cmsis/2.0/cmsis_liteos2.c ****     if (OS_INT_ACTIVE || thread_id == NULL)
 1380              		.loc 1 479 9
 1381 000c 094B     		ldr	r3, .L121
 1382 000e 1B68     		ldr	r3, [r3]
 1383              		.loc 1 479 8
 1384 0010 002B     		cmp	r3, #0
 1385 0012 02D1     		bne	.L118
 1386              		.loc 1 479 23 discriminator 1
 1387 0014 7B68     		ldr	r3, [r7, #4]
 1388 0016 002B     		cmp	r3, #0
 1389 0018 01D1     		bne	.L119
 1390              	.L118:
 480:/home/fanxinhao/Work/LiteOS_Lab/iot_link/os/liteos/cmsis/2.0/cmsis_liteos2.c ****     {
 481:/home/fanxinhao/Work/LiteOS_Lab/iot_link/os/liteos/cmsis/2.0/cmsis_liteos2.c ****         return 0U;
 1391              		.loc 1 481 16
 1392 001a 0023     		movs	r3, #0
 1393 001c 03E0     		b	.L120
 1394              	.L119:
 482:/home/fanxinhao/Work/LiteOS_Lab/iot_link/os/liteos/cmsis/2.0/cmsis_liteos2.c ****     }
 483:/home/fanxinhao/Work/LiteOS_Lab/iot_link/os/liteos/cmsis/2.0/cmsis_liteos2.c **** 
 484:/home/fanxinhao/Work/LiteOS_Lab/iot_link/os/liteos/cmsis/2.0/cmsis_liteos2.c ****     pstTaskCB = (LOS_TASK_CB *)thread_id;
 1395              		.loc 1 484 15
 1396 001e 7B68     		ldr	r3, [r7, #4]
 1397 0020 FB60     		str	r3, [r7, #12]
 485:/home/fanxinhao/Work/LiteOS_Lab/iot_link/os/liteos/cmsis/2.0/cmsis_liteos2.c **** 
 486:/home/fanxinhao/Work/LiteOS_Lab/iot_link/os/liteos/cmsis/2.0/cmsis_liteos2.c ****     return pstTaskCB->uwStackSize;
 1398              		.loc 1 486 21
 1399 0022 FB68     		ldr	r3, [r7, #12]
 1400 0024 9B68     		ldr	r3, [r3, #8]
 1401              	.L120:
 487:/home/fanxinhao/Work/LiteOS_Lab/iot_link/os/liteos/cmsis/2.0/cmsis_liteos2.c **** }
 1402              		.loc 1 487 1
 1403 0026 1846     		mov	r0, r3
 1404 0028 1437     		adds	r7, r7, #20
 1405              	.LCFI80:
 1406              		.cfi_def_cfa_offset 4
 1407 002a BD46     		mov	sp, r7
 1408              	.LCFI81:
 1409              		.cfi_def_cfa_register 13
 1410              		@ sp needed
 1411 002c 5DF8047B 		ldr	r7, [sp], #4
 1412              	.LCFI82:
 1413              		.cfi_restore 7
 1414              		.cfi_def_cfa_offset 0
 1415 0030 7047     		bx	lr
 1416              	.L122:
 1417 0032 00BF     		.align	2
 1418              	.L121:
 1419 0034 00000000 		.word	g_vuwIntCount
 1420              		.cfi_endproc
 1421              	.LFE152:
ARM GAS  /tmp/ccKdD4IP.s 			page 34


 1423              		.section	.text.osTaskStackWaterMarkGet,"ax",%progbits
 1424              		.align	1
 1425              		.global	osTaskStackWaterMarkGet
 1426              		.syntax unified
 1427              		.thumb
 1428              		.thumb_func
 1429              		.fpu fpv4-sp-d16
 1431              	osTaskStackWaterMarkGet:
 1432              	.LFB153:
 488:/home/fanxinhao/Work/LiteOS_Lab/iot_link/os/liteos/cmsis/2.0/cmsis_liteos2.c **** 
 489:/home/fanxinhao/Work/LiteOS_Lab/iot_link/os/liteos/cmsis/2.0/cmsis_liteos2.c **** 
 490:/home/fanxinhao/Work/LiteOS_Lab/iot_link/os/liteos/cmsis/2.0/cmsis_liteos2.c **** uint32_t osTaskStackWaterMarkGet(UINT32 uwTaskID)
 491:/home/fanxinhao/Work/LiteOS_Lab/iot_link/os/liteos/cmsis/2.0/cmsis_liteos2.c **** {
 1433              		.loc 1 491 1
 1434              		.cfi_startproc
 1435              		@ args = 0, pretend = 0, frame = 24
 1436              		@ frame_needed = 1, uses_anonymous_args = 0
 1437 0000 80B5     		push	{r7, lr}
 1438              	.LCFI83:
 1439              		.cfi_def_cfa_offset 8
 1440              		.cfi_offset 7, -8
 1441              		.cfi_offset 14, -4
 1442 0002 86B0     		sub	sp, sp, #24
 1443              	.LCFI84:
 1444              		.cfi_def_cfa_offset 32
 1445 0004 00AF     		add	r7, sp, #0
 1446              	.LCFI85:
 1447              		.cfi_def_cfa_register 7
 1448 0006 7860     		str	r0, [r7, #4]
 492:/home/fanxinhao/Work/LiteOS_Lab/iot_link/os/liteos/cmsis/2.0/cmsis_liteos2.c ****     UINT32 uwCount = 0;
 1449              		.loc 1 492 12
 1450 0008 0023     		movs	r3, #0
 1451 000a 7B61     		str	r3, [r7, #20]
 493:/home/fanxinhao/Work/LiteOS_Lab/iot_link/os/liteos/cmsis/2.0/cmsis_liteos2.c ****     UINT32 *puwTopOfStack;
 494:/home/fanxinhao/Work/LiteOS_Lab/iot_link/os/liteos/cmsis/2.0/cmsis_liteos2.c ****     UINTPTR uvIntSave;
 495:/home/fanxinhao/Work/LiteOS_Lab/iot_link/os/liteos/cmsis/2.0/cmsis_liteos2.c ****     LOS_TASK_CB *pstTaskCB = NULL;
 1452              		.loc 1 495 18
 1453 000c 0023     		movs	r3, #0
 1454 000e FB60     		str	r3, [r7, #12]
 496:/home/fanxinhao/Work/LiteOS_Lab/iot_link/os/liteos/cmsis/2.0/cmsis_liteos2.c **** 
 497:/home/fanxinhao/Work/LiteOS_Lab/iot_link/os/liteos/cmsis/2.0/cmsis_liteos2.c ****     if (uwTaskID > LOSCFG_BASE_CORE_TSK_LIMIT)
 1455              		.loc 1 497 8
 1456 0010 7B68     		ldr	r3, [r7, #4]
 1457 0012 0F2B     		cmp	r3, #15
 1458 0014 01D9     		bls	.L124
 498:/home/fanxinhao/Work/LiteOS_Lab/iot_link/os/liteos/cmsis/2.0/cmsis_liteos2.c ****     {
 499:/home/fanxinhao/Work/LiteOS_Lab/iot_link/os/liteos/cmsis/2.0/cmsis_liteos2.c ****         return 0;
 1459              		.loc 1 499 16
 1460 0016 0023     		movs	r3, #0
 1461 0018 2DE0     		b	.L125
 1462              	.L124:
 500:/home/fanxinhao/Work/LiteOS_Lab/iot_link/os/liteos/cmsis/2.0/cmsis_liteos2.c ****     }
 501:/home/fanxinhao/Work/LiteOS_Lab/iot_link/os/liteos/cmsis/2.0/cmsis_liteos2.c **** 
 502:/home/fanxinhao/Work/LiteOS_Lab/iot_link/os/liteos/cmsis/2.0/cmsis_liteos2.c ****     uvIntSave = LOS_IntLock();
 1463              		.loc 1 502 17
 1464 001a FFF7FEFF 		bl	LOS_IntLock
 1465 001e B860     		str	r0, [r7, #8]
ARM GAS  /tmp/ccKdD4IP.s 			page 35


 503:/home/fanxinhao/Work/LiteOS_Lab/iot_link/os/liteos/cmsis/2.0/cmsis_liteos2.c **** 
 504:/home/fanxinhao/Work/LiteOS_Lab/iot_link/os/liteos/cmsis/2.0/cmsis_liteos2.c ****     pstTaskCB = OS_TCB_FROM_TID(uwTaskID);
 1466              		.loc 1 504 17
 1467 0020 174B     		ldr	r3, .L129
 1468 0022 1A68     		ldr	r2, [r3]
 1469 0024 7B68     		ldr	r3, [r7, #4]
 1470 0026 5421     		movs	r1, #84
 1471 0028 01FB03F3 		mul	r3, r1, r3
 1472              		.loc 1 504 15
 1473 002c 1344     		add	r3, r3, r2
 1474 002e FB60     		str	r3, [r7, #12]
 505:/home/fanxinhao/Work/LiteOS_Lab/iot_link/os/liteos/cmsis/2.0/cmsis_liteos2.c ****     if (OS_TASK_STATUS_UNUSED & (pstTaskCB->usTaskStatus))
 1475              		.loc 1 505 43
 1476 0030 FB68     		ldr	r3, [r7, #12]
 1477 0032 9B88     		ldrh	r3, [r3, #4]
 1478              		.loc 1 505 9
 1479 0034 03F00103 		and	r3, r3, #1
 1480 0038 9BB2     		uxth	r3, r3
 1481              		.loc 1 505 8
 1482 003a 002B     		cmp	r3, #0
 1483 003c 04D0     		beq	.L126
 506:/home/fanxinhao/Work/LiteOS_Lab/iot_link/os/liteos/cmsis/2.0/cmsis_liteos2.c ****     {
 507:/home/fanxinhao/Work/LiteOS_Lab/iot_link/os/liteos/cmsis/2.0/cmsis_liteos2.c ****         (VOID)LOS_IntRestore(uvIntSave);
 1484              		.loc 1 507 9
 1485 003e B868     		ldr	r0, [r7, #8]
 1486 0040 FFF7FEFF 		bl	LOS_IntRestore
 508:/home/fanxinhao/Work/LiteOS_Lab/iot_link/os/liteos/cmsis/2.0/cmsis_liteos2.c ****         return 0;
 1487              		.loc 1 508 16
 1488 0044 0023     		movs	r3, #0
 1489 0046 16E0     		b	.L125
 1490              	.L126:
 509:/home/fanxinhao/Work/LiteOS_Lab/iot_link/os/liteos/cmsis/2.0/cmsis_liteos2.c ****     }
 510:/home/fanxinhao/Work/LiteOS_Lab/iot_link/os/liteos/cmsis/2.0/cmsis_liteos2.c **** 
 511:/home/fanxinhao/Work/LiteOS_Lab/iot_link/os/liteos/cmsis/2.0/cmsis_liteos2.c ****     // first 4 bytes is OS_TASK_MAGIC_WORD, skip
 512:/home/fanxinhao/Work/LiteOS_Lab/iot_link/os/liteos/cmsis/2.0/cmsis_liteos2.c ****     puwTopOfStack = (UINT32 *)pstTaskCB->uwTopOfStack + 1;
 1491              		.loc 1 512 40
 1492 0048 FB68     		ldr	r3, [r7, #12]
 1493 004a DB68     		ldr	r3, [r3, #12]
 1494              		.loc 1 512 55
 1495 004c 0433     		adds	r3, r3, #4
 1496              		.loc 1 512 19
 1497 004e 3B61     		str	r3, [r7, #16]
 513:/home/fanxinhao/Work/LiteOS_Lab/iot_link/os/liteos/cmsis/2.0/cmsis_liteos2.c **** 
 514:/home/fanxinhao/Work/LiteOS_Lab/iot_link/os/liteos/cmsis/2.0/cmsis_liteos2.c ****     while (*puwTopOfStack == (UINT32)OS_TASK_STACK_INIT)
 1498              		.loc 1 514 11
 1499 0050 05E0     		b	.L127
 1500              	.L128:
 515:/home/fanxinhao/Work/LiteOS_Lab/iot_link/os/liteos/cmsis/2.0/cmsis_liteos2.c ****     {
 516:/home/fanxinhao/Work/LiteOS_Lab/iot_link/os/liteos/cmsis/2.0/cmsis_liteos2.c ****         ++puwTopOfStack;
 1501              		.loc 1 516 9
 1502 0052 3B69     		ldr	r3, [r7, #16]
 1503 0054 0433     		adds	r3, r3, #4
 1504 0056 3B61     		str	r3, [r7, #16]
 517:/home/fanxinhao/Work/LiteOS_Lab/iot_link/os/liteos/cmsis/2.0/cmsis_liteos2.c ****         ++uwCount;
 1505              		.loc 1 517 9
 1506 0058 7B69     		ldr	r3, [r7, #20]
 1507 005a 0133     		adds	r3, r3, #1
ARM GAS  /tmp/ccKdD4IP.s 			page 36


 1508 005c 7B61     		str	r3, [r7, #20]
 1509              	.L127:
 514:/home/fanxinhao/Work/LiteOS_Lab/iot_link/os/liteos/cmsis/2.0/cmsis_liteos2.c ****     {
 1510              		.loc 1 514 12
 1511 005e 3B69     		ldr	r3, [r7, #16]
 1512 0060 1B68     		ldr	r3, [r3]
 514:/home/fanxinhao/Work/LiteOS_Lab/iot_link/os/liteos/cmsis/2.0/cmsis_liteos2.c ****     {
 1513              		.loc 1 514 11
 1514 0062 B3F1CA3F 		cmp	r3, #-892679478
 1515 0066 F4D0     		beq	.L128
 518:/home/fanxinhao/Work/LiteOS_Lab/iot_link/os/liteos/cmsis/2.0/cmsis_liteos2.c ****     }
 519:/home/fanxinhao/Work/LiteOS_Lab/iot_link/os/liteos/cmsis/2.0/cmsis_liteos2.c **** 
 520:/home/fanxinhao/Work/LiteOS_Lab/iot_link/os/liteos/cmsis/2.0/cmsis_liteos2.c ****     uwCount *= sizeof(UINT32);
 1516              		.loc 1 520 13
 1517 0068 7B69     		ldr	r3, [r7, #20]
 1518 006a 9B00     		lsls	r3, r3, #2
 1519 006c 7B61     		str	r3, [r7, #20]
 521:/home/fanxinhao/Work/LiteOS_Lab/iot_link/os/liteos/cmsis/2.0/cmsis_liteos2.c **** 
 522:/home/fanxinhao/Work/LiteOS_Lab/iot_link/os/liteos/cmsis/2.0/cmsis_liteos2.c ****     (VOID)LOS_IntRestore(uvIntSave);
 1520              		.loc 1 522 5
 1521 006e B868     		ldr	r0, [r7, #8]
 1522 0070 FFF7FEFF 		bl	LOS_IntRestore
 523:/home/fanxinhao/Work/LiteOS_Lab/iot_link/os/liteos/cmsis/2.0/cmsis_liteos2.c ****     return uwCount;
 1523              		.loc 1 523 12
 1524 0074 7B69     		ldr	r3, [r7, #20]
 1525              	.L125:
 524:/home/fanxinhao/Work/LiteOS_Lab/iot_link/os/liteos/cmsis/2.0/cmsis_liteos2.c **** }
 1526              		.loc 1 524 1
 1527 0076 1846     		mov	r0, r3
 1528 0078 1837     		adds	r7, r7, #24
 1529              	.LCFI86:
 1530              		.cfi_def_cfa_offset 8
 1531 007a BD46     		mov	sp, r7
 1532              	.LCFI87:
 1533              		.cfi_def_cfa_register 13
 1534              		@ sp needed
 1535 007c 80BD     		pop	{r7, pc}
 1536              	.L130:
 1537 007e 00BF     		.align	2
 1538              	.L129:
 1539 0080 00000000 		.word	g_pstTaskCBArray
 1540              		.cfi_endproc
 1541              	.LFE153:
 1543              		.section	.text.osThreadGetStackSpace,"ax",%progbits
 1544              		.align	1
 1545              		.global	osThreadGetStackSpace
 1546              		.syntax unified
 1547              		.thumb
 1548              		.thumb_func
 1549              		.fpu fpv4-sp-d16
 1551              	osThreadGetStackSpace:
 1552              	.LFB154:
 525:/home/fanxinhao/Work/LiteOS_Lab/iot_link/os/liteos/cmsis/2.0/cmsis_liteos2.c **** 
 526:/home/fanxinhao/Work/LiteOS_Lab/iot_link/os/liteos/cmsis/2.0/cmsis_liteos2.c **** 
 527:/home/fanxinhao/Work/LiteOS_Lab/iot_link/os/liteos/cmsis/2.0/cmsis_liteos2.c **** uint32_t osThreadGetStackSpace (osThreadId_t thread_id)
 528:/home/fanxinhao/Work/LiteOS_Lab/iot_link/os/liteos/cmsis/2.0/cmsis_liteos2.c **** {
 1553              		.loc 1 528 1
ARM GAS  /tmp/ccKdD4IP.s 			page 37


 1554              		.cfi_startproc
 1555              		@ args = 0, pretend = 0, frame = 16
 1556              		@ frame_needed = 1, uses_anonymous_args = 0
 1557 0000 80B5     		push	{r7, lr}
 1558              	.LCFI88:
 1559              		.cfi_def_cfa_offset 8
 1560              		.cfi_offset 7, -8
 1561              		.cfi_offset 14, -4
 1562 0002 84B0     		sub	sp, sp, #16
 1563              	.LCFI89:
 1564              		.cfi_def_cfa_offset 24
 1565 0004 00AF     		add	r7, sp, #0
 1566              	.LCFI90:
 1567              		.cfi_def_cfa_register 7
 1568 0006 7860     		str	r0, [r7, #4]
 529:/home/fanxinhao/Work/LiteOS_Lab/iot_link/os/liteos/cmsis/2.0/cmsis_liteos2.c ****     LOS_TASK_CB *pstTaskCB = NULL;
 1569              		.loc 1 529 18
 1570 0008 0023     		movs	r3, #0
 1571 000a FB60     		str	r3, [r7, #12]
 530:/home/fanxinhao/Work/LiteOS_Lab/iot_link/os/liteos/cmsis/2.0/cmsis_liteos2.c **** 
 531:/home/fanxinhao/Work/LiteOS_Lab/iot_link/os/liteos/cmsis/2.0/cmsis_liteos2.c ****     if (OS_INT_ACTIVE || thread_id == NULL)
 1572              		.loc 1 531 9
 1573 000c 0A4B     		ldr	r3, .L135
 1574 000e 1B68     		ldr	r3, [r3]
 1575              		.loc 1 531 8
 1576 0010 002B     		cmp	r3, #0
 1577 0012 02D1     		bne	.L132
 1578              		.loc 1 531 23 discriminator 1
 1579 0014 7B68     		ldr	r3, [r7, #4]
 1580 0016 002B     		cmp	r3, #0
 1581 0018 01D1     		bne	.L133
 1582              	.L132:
 532:/home/fanxinhao/Work/LiteOS_Lab/iot_link/os/liteos/cmsis/2.0/cmsis_liteos2.c ****     {
 533:/home/fanxinhao/Work/LiteOS_Lab/iot_link/os/liteos/cmsis/2.0/cmsis_liteos2.c ****         return 0U;
 1583              		.loc 1 533 16
 1584 001a 0023     		movs	r3, #0
 1585 001c 07E0     		b	.L134
 1586              	.L133:
 534:/home/fanxinhao/Work/LiteOS_Lab/iot_link/os/liteos/cmsis/2.0/cmsis_liteos2.c ****     }
 535:/home/fanxinhao/Work/LiteOS_Lab/iot_link/os/liteos/cmsis/2.0/cmsis_liteos2.c **** 
 536:/home/fanxinhao/Work/LiteOS_Lab/iot_link/os/liteos/cmsis/2.0/cmsis_liteos2.c ****     pstTaskCB = (LOS_TASK_CB *)thread_id;
 1587              		.loc 1 536 15
 1588 001e 7B68     		ldr	r3, [r7, #4]
 1589 0020 FB60     		str	r3, [r7, #12]
 537:/home/fanxinhao/Work/LiteOS_Lab/iot_link/os/liteos/cmsis/2.0/cmsis_liteos2.c **** 
 538:/home/fanxinhao/Work/LiteOS_Lab/iot_link/os/liteos/cmsis/2.0/cmsis_liteos2.c ****     return osTaskStackWaterMarkGet(pstTaskCB->uwTaskID);
 1590              		.loc 1 538 12
 1591 0022 FB68     		ldr	r3, [r7, #12]
 1592 0024 1B69     		ldr	r3, [r3, #16]
 1593 0026 1846     		mov	r0, r3
 1594 0028 FFF7FEFF 		bl	osTaskStackWaterMarkGet
 1595 002c 0346     		mov	r3, r0
 1596              	.L134:
 539:/home/fanxinhao/Work/LiteOS_Lab/iot_link/os/liteos/cmsis/2.0/cmsis_liteos2.c **** }
 1597              		.loc 1 539 1
 1598 002e 1846     		mov	r0, r3
 1599 0030 1037     		adds	r7, r7, #16
ARM GAS  /tmp/ccKdD4IP.s 			page 38


 1600              	.LCFI91:
 1601              		.cfi_def_cfa_offset 8
 1602 0032 BD46     		mov	sp, r7
 1603              	.LCFI92:
 1604              		.cfi_def_cfa_register 13
 1605              		@ sp needed
 1606 0034 80BD     		pop	{r7, pc}
 1607              	.L136:
 1608 0036 00BF     		.align	2
 1609              	.L135:
 1610 0038 00000000 		.word	g_vuwIntCount
 1611              		.cfi_endproc
 1612              	.LFE154:
 1614              		.section	.text.osThreadSetPriority,"ax",%progbits
 1615              		.align	1
 1616              		.global	osThreadSetPriority
 1617              		.syntax unified
 1618              		.thumb
 1619              		.thumb_func
 1620              		.fpu fpv4-sp-d16
 1622              	osThreadSetPriority:
 1623              	.LFB155:
 540:/home/fanxinhao/Work/LiteOS_Lab/iot_link/os/liteos/cmsis/2.0/cmsis_liteos2.c **** 
 541:/home/fanxinhao/Work/LiteOS_Lab/iot_link/os/liteos/cmsis/2.0/cmsis_liteos2.c **** 
 542:/home/fanxinhao/Work/LiteOS_Lab/iot_link/os/liteos/cmsis/2.0/cmsis_liteos2.c **** osStatus_t osThreadSetPriority (osThreadId_t thread_id, osPriority_t priority)
 543:/home/fanxinhao/Work/LiteOS_Lab/iot_link/os/liteos/cmsis/2.0/cmsis_liteos2.c **** {
 1624              		.loc 1 543 1
 1625              		.cfi_startproc
 1626              		@ args = 0, pretend = 0, frame = 24
 1627              		@ frame_needed = 1, uses_anonymous_args = 0
 1628 0000 80B5     		push	{r7, lr}
 1629              	.LCFI93:
 1630              		.cfi_def_cfa_offset 8
 1631              		.cfi_offset 7, -8
 1632              		.cfi_offset 14, -4
 1633 0002 86B0     		sub	sp, sp, #24
 1634              	.LCFI94:
 1635              		.cfi_def_cfa_offset 32
 1636 0004 00AF     		add	r7, sp, #0
 1637              	.LCFI95:
 1638              		.cfi_def_cfa_register 7
 1639 0006 7860     		str	r0, [r7, #4]
 1640 0008 3960     		str	r1, [r7]
 544:/home/fanxinhao/Work/LiteOS_Lab/iot_link/os/liteos/cmsis/2.0/cmsis_liteos2.c ****     UINT32  uwRet;
 545:/home/fanxinhao/Work/LiteOS_Lab/iot_link/os/liteos/cmsis/2.0/cmsis_liteos2.c ****     UINT16  usPriority;
 546:/home/fanxinhao/Work/LiteOS_Lab/iot_link/os/liteos/cmsis/2.0/cmsis_liteos2.c ****     LOS_TASK_CB *pstTaskCB = NULL;
 1641              		.loc 1 546 18
 1642 000a 0023     		movs	r3, #0
 1643 000c 7B61     		str	r3, [r7, #20]
 547:/home/fanxinhao/Work/LiteOS_Lab/iot_link/os/liteos/cmsis/2.0/cmsis_liteos2.c **** 
 548:/home/fanxinhao/Work/LiteOS_Lab/iot_link/os/liteos/cmsis/2.0/cmsis_liteos2.c ****     if (OS_INT_ACTIVE)
 1644              		.loc 1 548 9
 1645 000e 2F4B     		ldr	r3, .L147
 1646 0010 1B68     		ldr	r3, [r3]
 1647              		.loc 1 548 8
 1648 0012 002B     		cmp	r3, #0
 1649 0014 02D0     		beq	.L138
ARM GAS  /tmp/ccKdD4IP.s 			page 39


 549:/home/fanxinhao/Work/LiteOS_Lab/iot_link/os/liteos/cmsis/2.0/cmsis_liteos2.c ****     {
 550:/home/fanxinhao/Work/LiteOS_Lab/iot_link/os/liteos/cmsis/2.0/cmsis_liteos2.c ****         return osErrorISR;
 1650              		.loc 1 550 16
 1651 0016 6FF00503 		mvn	r3, #5
 1652 001a 52E0     		b	.L139
 1653              	.L138:
 551:/home/fanxinhao/Work/LiteOS_Lab/iot_link/os/liteos/cmsis/2.0/cmsis_liteos2.c ****     }
 552:/home/fanxinhao/Work/LiteOS_Lab/iot_link/os/liteos/cmsis/2.0/cmsis_liteos2.c **** 
 553:/home/fanxinhao/Work/LiteOS_Lab/iot_link/os/liteos/cmsis/2.0/cmsis_liteos2.c ****     if (thread_id == NULL)
 1654              		.loc 1 553 8
 1655 001c 7B68     		ldr	r3, [r7, #4]
 1656 001e 002B     		cmp	r3, #0
 1657 0020 02D1     		bne	.L140
 554:/home/fanxinhao/Work/LiteOS_Lab/iot_link/os/liteos/cmsis/2.0/cmsis_liteos2.c ****     {
 555:/home/fanxinhao/Work/LiteOS_Lab/iot_link/os/liteos/cmsis/2.0/cmsis_liteos2.c ****         return osErrorParameter;
 1658              		.loc 1 555 16
 1659 0022 6FF00303 		mvn	r3, #3
 1660 0026 4CE0     		b	.L139
 1661              	.L140:
 556:/home/fanxinhao/Work/LiteOS_Lab/iot_link/os/liteos/cmsis/2.0/cmsis_liteos2.c ****     }
 557:/home/fanxinhao/Work/LiteOS_Lab/iot_link/os/liteos/cmsis/2.0/cmsis_liteos2.c **** 
 558:/home/fanxinhao/Work/LiteOS_Lab/iot_link/os/liteos/cmsis/2.0/cmsis_liteos2.c ****     if (priority < osPriorityLow1 || priority > osPriorityAboveNormal6)
 1662              		.loc 1 558 8
 1663 0028 3B68     		ldr	r3, [r7]
 1664 002a 082B     		cmp	r3, #8
 1665 002c 02DD     		ble	.L141
 1666              		.loc 1 558 35 discriminator 1
 1667 002e 3B68     		ldr	r3, [r7]
 1668 0030 262B     		cmp	r3, #38
 1669 0032 02DD     		ble	.L142
 1670              	.L141:
 559:/home/fanxinhao/Work/LiteOS_Lab/iot_link/os/liteos/cmsis/2.0/cmsis_liteos2.c ****     {
 560:/home/fanxinhao/Work/LiteOS_Lab/iot_link/os/liteos/cmsis/2.0/cmsis_liteos2.c ****         return osErrorParameter;
 1671              		.loc 1 560 16
 1672 0034 6FF00303 		mvn	r3, #3
 1673 0038 43E0     		b	.L139
 1674              	.L142:
 561:/home/fanxinhao/Work/LiteOS_Lab/iot_link/os/liteos/cmsis/2.0/cmsis_liteos2.c ****     }
 562:/home/fanxinhao/Work/LiteOS_Lab/iot_link/os/liteos/cmsis/2.0/cmsis_liteos2.c **** 
 563:/home/fanxinhao/Work/LiteOS_Lab/iot_link/os/liteos/cmsis/2.0/cmsis_liteos2.c ****     pstTaskCB   = (LOS_TASK_CB *)thread_id;
 1675              		.loc 1 563 17
 1676 003a 7B68     		ldr	r3, [r7, #4]
 1677 003c 7B61     		str	r3, [r7, #20]
 564:/home/fanxinhao/Work/LiteOS_Lab/iot_link/os/liteos/cmsis/2.0/cmsis_liteos2.c ****     usPriority  = OS_TASK_PRIORITY_LOWEST - ((UINT16)priority - LOS_PRIORITY_WIN);
 1678              		.loc 1 564 46
 1679 003e 3B68     		ldr	r3, [r7]
 1680 0040 9BB2     		uxth	r3, r3
 1681              		.loc 1 564 17
 1682 0042 C3F12703 		rsb	r3, r3, #39
 1683 0046 7B82     		strh	r3, [r7, #18]	@ movhi
 565:/home/fanxinhao/Work/LiteOS_Lab/iot_link/os/liteos/cmsis/2.0/cmsis_liteos2.c ****     uwRet       = LOS_TaskPriSet(pstTaskCB->uwTaskID, usPriority);
 1684              		.loc 1 565 19
 1685 0048 7B69     		ldr	r3, [r7, #20]
 1686 004a 1B69     		ldr	r3, [r3, #16]
 1687 004c 7A8A     		ldrh	r2, [r7, #18]
 1688 004e 1146     		mov	r1, r2
 1689 0050 1846     		mov	r0, r3
ARM GAS  /tmp/ccKdD4IP.s 			page 40


 1690 0052 FFF7FEFF 		bl	LOS_TaskPriSet
 1691 0056 F860     		str	r0, [r7, #12]
 1692 0058 FB68     		ldr	r3, [r7, #12]
 1693 005a 03F1FD33 		add	r3, r3, #-33686019
 1694 005e 03F50033 		add	r3, r3, #131072
 1695 0062 112B     		cmp	r3, #17
 1696 0064 2CD8     		bhi	.L143
 1697 0066 01A2     		adr	r2, .L145
 1698 0068 52F823F0 		ldr	pc, [r2, r3, lsl #2]
 1699              		.p2align 2
 1700              	.L145:
 1701 006c B5000000 		.word	.L144+1
 1702 0070 C1000000 		.word	.L143+1
 1703 0074 C1000000 		.word	.L143+1
 1704 0078 C1000000 		.word	.L143+1
 1705 007c B5000000 		.word	.L144+1
 1706 0080 C1000000 		.word	.L143+1
 1707 0084 C1000000 		.word	.L143+1
 1708 0088 BB000000 		.word	.L146+1
 1709 008c C1000000 		.word	.L143+1
 1710 0090 C1000000 		.word	.L143+1
 1711 0094 C1000000 		.word	.L143+1
 1712 0098 C1000000 		.word	.L143+1
 1713 009c C1000000 		.word	.L143+1
 1714 00a0 C1000000 		.word	.L143+1
 1715 00a4 C1000000 		.word	.L143+1
 1716 00a8 C1000000 		.word	.L143+1
 1717 00ac C1000000 		.word	.L143+1
 1718 00b0 B5000000 		.word	.L144+1
 1719              		.p2align 1
 1720              	.L144:
 566:/home/fanxinhao/Work/LiteOS_Lab/iot_link/os/liteos/cmsis/2.0/cmsis_liteos2.c ****     switch (uwRet)
 567:/home/fanxinhao/Work/LiteOS_Lab/iot_link/os/liteos/cmsis/2.0/cmsis_liteos2.c ****     {
 568:/home/fanxinhao/Work/LiteOS_Lab/iot_link/os/liteos/cmsis/2.0/cmsis_liteos2.c ****     case LOS_ERRNO_TSK_PRIOR_ERROR:
 569:/home/fanxinhao/Work/LiteOS_Lab/iot_link/os/liteos/cmsis/2.0/cmsis_liteos2.c ****     case LOS_ERRNO_TSK_OPERATE_IDLE:
 570:/home/fanxinhao/Work/LiteOS_Lab/iot_link/os/liteos/cmsis/2.0/cmsis_liteos2.c ****     case LOS_ERRNO_TSK_ID_INVALID:
 571:/home/fanxinhao/Work/LiteOS_Lab/iot_link/os/liteos/cmsis/2.0/cmsis_liteos2.c ****         return osErrorParameter;
 1721              		.loc 1 571 16
 1722 00b4 6FF00303 		mvn	r3, #3
 1723 00b8 03E0     		b	.L139
 1724              	.L146:
 572:/home/fanxinhao/Work/LiteOS_Lab/iot_link/os/liteos/cmsis/2.0/cmsis_liteos2.c **** 
 573:/home/fanxinhao/Work/LiteOS_Lab/iot_link/os/liteos/cmsis/2.0/cmsis_liteos2.c ****     case LOS_ERRNO_TSK_NOT_CREATED:
 574:/home/fanxinhao/Work/LiteOS_Lab/iot_link/os/liteos/cmsis/2.0/cmsis_liteos2.c ****         return osErrorResource;
 1725              		.loc 1 574 16
 1726 00ba 6FF00203 		mvn	r3, #2
 1727 00be 00E0     		b	.L139
 1728              	.L143:
 575:/home/fanxinhao/Work/LiteOS_Lab/iot_link/os/liteos/cmsis/2.0/cmsis_liteos2.c **** 
 576:/home/fanxinhao/Work/LiteOS_Lab/iot_link/os/liteos/cmsis/2.0/cmsis_liteos2.c ****     default:
 577:/home/fanxinhao/Work/LiteOS_Lab/iot_link/os/liteos/cmsis/2.0/cmsis_liteos2.c ****         return osOK;
 1729              		.loc 1 577 16
 1730 00c0 0023     		movs	r3, #0
 1731              	.L139:
 578:/home/fanxinhao/Work/LiteOS_Lab/iot_link/os/liteos/cmsis/2.0/cmsis_liteos2.c ****     }
 579:/home/fanxinhao/Work/LiteOS_Lab/iot_link/os/liteos/cmsis/2.0/cmsis_liteos2.c **** }
 1732              		.loc 1 579 1
ARM GAS  /tmp/ccKdD4IP.s 			page 41


 1733 00c2 1846     		mov	r0, r3
 1734 00c4 1837     		adds	r7, r7, #24
 1735              	.LCFI96:
 1736              		.cfi_def_cfa_offset 8
 1737 00c6 BD46     		mov	sp, r7
 1738              	.LCFI97:
 1739              		.cfi_def_cfa_register 13
 1740              		@ sp needed
 1741 00c8 80BD     		pop	{r7, pc}
 1742              	.L148:
 1743 00ca 00BF     		.align	2
 1744              	.L147:
 1745 00cc 00000000 		.word	g_vuwIntCount
 1746              		.cfi_endproc
 1747              	.LFE155:
 1749              		.section	.text.osThreadGetPriority,"ax",%progbits
 1750              		.align	1
 1751              		.global	osThreadGetPriority
 1752              		.syntax unified
 1753              		.thumb
 1754              		.thumb_func
 1755              		.fpu fpv4-sp-d16
 1757              	osThreadGetPriority:
 1758              	.LFB156:
 580:/home/fanxinhao/Work/LiteOS_Lab/iot_link/os/liteos/cmsis/2.0/cmsis_liteos2.c **** 
 581:/home/fanxinhao/Work/LiteOS_Lab/iot_link/os/liteos/cmsis/2.0/cmsis_liteos2.c **** 
 582:/home/fanxinhao/Work/LiteOS_Lab/iot_link/os/liteos/cmsis/2.0/cmsis_liteos2.c **** osPriority_t osThreadGetPriority (osThreadId_t thread_id)
 583:/home/fanxinhao/Work/LiteOS_Lab/iot_link/os/liteos/cmsis/2.0/cmsis_liteos2.c **** {
 1759              		.loc 1 583 1
 1760              		.cfi_startproc
 1761              		@ args = 0, pretend = 0, frame = 16
 1762              		@ frame_needed = 1, uses_anonymous_args = 0
 1763 0000 80B5     		push	{r7, lr}
 1764              	.LCFI98:
 1765              		.cfi_def_cfa_offset 8
 1766              		.cfi_offset 7, -8
 1767              		.cfi_offset 14, -4
 1768 0002 84B0     		sub	sp, sp, #16
 1769              	.LCFI99:
 1770              		.cfi_def_cfa_offset 24
 1771 0004 00AF     		add	r7, sp, #0
 1772              	.LCFI100:
 1773              		.cfi_def_cfa_register 7
 1774 0006 7860     		str	r0, [r7, #4]
 584:/home/fanxinhao/Work/LiteOS_Lab/iot_link/os/liteos/cmsis/2.0/cmsis_liteos2.c ****     UINT16 usRet;
 585:/home/fanxinhao/Work/LiteOS_Lab/iot_link/os/liteos/cmsis/2.0/cmsis_liteos2.c ****     LOS_TASK_CB *pstTaskCB = NULL;
 1775              		.loc 1 585 18
 1776 0008 0023     		movs	r3, #0
 1777 000a FB60     		str	r3, [r7, #12]
 586:/home/fanxinhao/Work/LiteOS_Lab/iot_link/os/liteos/cmsis/2.0/cmsis_liteos2.c **** 
 587:/home/fanxinhao/Work/LiteOS_Lab/iot_link/os/liteos/cmsis/2.0/cmsis_liteos2.c ****     if (OS_INT_ACTIVE || thread_id == NULL)
 1778              		.loc 1 587 9
 1779 000c 104B     		ldr	r3, .L154
 1780 000e 1B68     		ldr	r3, [r3]
 1781              		.loc 1 587 8
 1782 0010 002B     		cmp	r3, #0
 1783 0012 02D1     		bne	.L150
ARM GAS  /tmp/ccKdD4IP.s 			page 42


 1784              		.loc 1 587 23 discriminator 1
 1785 0014 7B68     		ldr	r3, [r7, #4]
 1786 0016 002B     		cmp	r3, #0
 1787 0018 02D1     		bne	.L151
 1788              	.L150:
 588:/home/fanxinhao/Work/LiteOS_Lab/iot_link/os/liteos/cmsis/2.0/cmsis_liteos2.c ****     {
 589:/home/fanxinhao/Work/LiteOS_Lab/iot_link/os/liteos/cmsis/2.0/cmsis_liteos2.c ****         return osPriorityError;
 1789              		.loc 1 589 16
 1790 001a 4FF0FF33 		mov	r3, #-1
 1791 001e 13E0     		b	.L152
 1792              	.L151:
 590:/home/fanxinhao/Work/LiteOS_Lab/iot_link/os/liteos/cmsis/2.0/cmsis_liteos2.c ****     }
 591:/home/fanxinhao/Work/LiteOS_Lab/iot_link/os/liteos/cmsis/2.0/cmsis_liteos2.c **** 
 592:/home/fanxinhao/Work/LiteOS_Lab/iot_link/os/liteos/cmsis/2.0/cmsis_liteos2.c ****     pstTaskCB = (LOS_TASK_CB *)thread_id;
 1793              		.loc 1 592 15
 1794 0020 7B68     		ldr	r3, [r7, #4]
 1795 0022 FB60     		str	r3, [r7, #12]
 593:/home/fanxinhao/Work/LiteOS_Lab/iot_link/os/liteos/cmsis/2.0/cmsis_liteos2.c ****     usRet = LOS_TaskPriGet(pstTaskCB->uwTaskID);
 1796              		.loc 1 593 13
 1797 0024 FB68     		ldr	r3, [r7, #12]
 1798 0026 1B69     		ldr	r3, [r3, #16]
 1799 0028 1846     		mov	r0, r3
 1800 002a FFF7FEFF 		bl	LOS_TaskPriGet
 1801 002e 0346     		mov	r3, r0
 1802 0030 7B81     		strh	r3, [r7, #10]	@ movhi
 594:/home/fanxinhao/Work/LiteOS_Lab/iot_link/os/liteos/cmsis/2.0/cmsis_liteos2.c **** 
 595:/home/fanxinhao/Work/LiteOS_Lab/iot_link/os/liteos/cmsis/2.0/cmsis_liteos2.c ****     if (usRet == (UINT16)OS_INVALID)
 1803              		.loc 1 595 8
 1804 0032 7B89     		ldrh	r3, [r7, #10]
 1805 0034 4FF6FF72 		movw	r2, #65535
 1806 0038 9342     		cmp	r3, r2
 1807 003a 02D1     		bne	.L153
 596:/home/fanxinhao/Work/LiteOS_Lab/iot_link/os/liteos/cmsis/2.0/cmsis_liteos2.c ****     {
 597:/home/fanxinhao/Work/LiteOS_Lab/iot_link/os/liteos/cmsis/2.0/cmsis_liteos2.c ****         return osPriorityError;
 1808              		.loc 1 597 16
 1809 003c 4FF0FF33 		mov	r3, #-1
 1810 0040 02E0     		b	.L152
 1811              	.L153:
 598:/home/fanxinhao/Work/LiteOS_Lab/iot_link/os/liteos/cmsis/2.0/cmsis_liteos2.c ****     }
 599:/home/fanxinhao/Work/LiteOS_Lab/iot_link/os/liteos/cmsis/2.0/cmsis_liteos2.c **** 
 600:/home/fanxinhao/Work/LiteOS_Lab/iot_link/os/liteos/cmsis/2.0/cmsis_liteos2.c ****     return (osPriority_t)(OS_TASK_PRIORITY_LOWEST - (usRet - LOS_PRIORITY_WIN));
 1812              		.loc 1 600 12
 1813 0042 7B89     		ldrh	r3, [r7, #10]
 1814 0044 C3F12703 		rsb	r3, r3, #39
 1815              	.L152:
 601:/home/fanxinhao/Work/LiteOS_Lab/iot_link/os/liteos/cmsis/2.0/cmsis_liteos2.c **** }
 1816              		.loc 1 601 1
 1817 0048 1846     		mov	r0, r3
 1818 004a 1037     		adds	r7, r7, #16
 1819              	.LCFI101:
 1820              		.cfi_def_cfa_offset 8
 1821 004c BD46     		mov	sp, r7
 1822              	.LCFI102:
 1823              		.cfi_def_cfa_register 13
 1824              		@ sp needed
 1825 004e 80BD     		pop	{r7, pc}
 1826              	.L155:
ARM GAS  /tmp/ccKdD4IP.s 			page 43


 1827              		.align	2
 1828              	.L154:
 1829 0050 00000000 		.word	g_vuwIntCount
 1830              		.cfi_endproc
 1831              	.LFE156:
 1833              		.section	.text.osThreadYield,"ax",%progbits
 1834              		.align	1
 1835              		.global	osThreadYield
 1836              		.syntax unified
 1837              		.thumb
 1838              		.thumb_func
 1839              		.fpu fpv4-sp-d16
 1841              	osThreadYield:
 1842              	.LFB157:
 602:/home/fanxinhao/Work/LiteOS_Lab/iot_link/os/liteos/cmsis/2.0/cmsis_liteos2.c **** 
 603:/home/fanxinhao/Work/LiteOS_Lab/iot_link/os/liteos/cmsis/2.0/cmsis_liteos2.c **** 
 604:/home/fanxinhao/Work/LiteOS_Lab/iot_link/os/liteos/cmsis/2.0/cmsis_liteos2.c **** osStatus_t osThreadYield (void)
 605:/home/fanxinhao/Work/LiteOS_Lab/iot_link/os/liteos/cmsis/2.0/cmsis_liteos2.c **** {
 1843              		.loc 1 605 1
 1844              		.cfi_startproc
 1845              		@ args = 0, pretend = 0, frame = 8
 1846              		@ frame_needed = 1, uses_anonymous_args = 0
 1847 0000 80B5     		push	{r7, lr}
 1848              	.LCFI103:
 1849              		.cfi_def_cfa_offset 8
 1850              		.cfi_offset 7, -8
 1851              		.cfi_offset 14, -4
 1852 0002 82B0     		sub	sp, sp, #8
 1853              	.LCFI104:
 1854              		.cfi_def_cfa_offset 16
 1855 0004 00AF     		add	r7, sp, #0
 1856              	.LCFI105:
 1857              		.cfi_def_cfa_register 7
 606:/home/fanxinhao/Work/LiteOS_Lab/iot_link/os/liteos/cmsis/2.0/cmsis_liteos2.c ****     UINT32 uwRet;
 607:/home/fanxinhao/Work/LiteOS_Lab/iot_link/os/liteos/cmsis/2.0/cmsis_liteos2.c **** 
 608:/home/fanxinhao/Work/LiteOS_Lab/iot_link/os/liteos/cmsis/2.0/cmsis_liteos2.c ****     if (OS_INT_ACTIVE)
 1858              		.loc 1 608 9
 1859 0006 0A4B     		ldr	r3, .L160
 1860 0008 1B68     		ldr	r3, [r3]
 1861              		.loc 1 608 8
 1862 000a 002B     		cmp	r3, #0
 1863 000c 02D0     		beq	.L157
 609:/home/fanxinhao/Work/LiteOS_Lab/iot_link/os/liteos/cmsis/2.0/cmsis_liteos2.c ****     {
 610:/home/fanxinhao/Work/LiteOS_Lab/iot_link/os/liteos/cmsis/2.0/cmsis_liteos2.c ****         return osErrorISR;
 1864              		.loc 1 610 16
 1865 000e 6FF00503 		mvn	r3, #5
 1866 0012 09E0     		b	.L158
 1867              	.L157:
 611:/home/fanxinhao/Work/LiteOS_Lab/iot_link/os/liteos/cmsis/2.0/cmsis_liteos2.c ****     }
 612:/home/fanxinhao/Work/LiteOS_Lab/iot_link/os/liteos/cmsis/2.0/cmsis_liteos2.c **** 
 613:/home/fanxinhao/Work/LiteOS_Lab/iot_link/os/liteos/cmsis/2.0/cmsis_liteos2.c ****     uwRet = LOS_TaskYield();
 1868              		.loc 1 613 13
 1869 0014 FFF7FEFF 		bl	LOS_TaskYield
 1870 0018 7860     		str	r0, [r7, #4]
 614:/home/fanxinhao/Work/LiteOS_Lab/iot_link/os/liteos/cmsis/2.0/cmsis_liteos2.c **** 
 615:/home/fanxinhao/Work/LiteOS_Lab/iot_link/os/liteos/cmsis/2.0/cmsis_liteos2.c ****     if (uwRet == LOS_OK)
 1871              		.loc 1 615 8
ARM GAS  /tmp/ccKdD4IP.s 			page 44


 1872 001a 7B68     		ldr	r3, [r7, #4]
 1873 001c 002B     		cmp	r3, #0
 1874 001e 01D1     		bne	.L159
 616:/home/fanxinhao/Work/LiteOS_Lab/iot_link/os/liteos/cmsis/2.0/cmsis_liteos2.c ****     {
 617:/home/fanxinhao/Work/LiteOS_Lab/iot_link/os/liteos/cmsis/2.0/cmsis_liteos2.c ****         return osOK;
 1875              		.loc 1 617 16
 1876 0020 0023     		movs	r3, #0
 1877 0022 01E0     		b	.L158
 1878              	.L159:
 618:/home/fanxinhao/Work/LiteOS_Lab/iot_link/os/liteos/cmsis/2.0/cmsis_liteos2.c ****     }
 619:/home/fanxinhao/Work/LiteOS_Lab/iot_link/os/liteos/cmsis/2.0/cmsis_liteos2.c **** 
 620:/home/fanxinhao/Work/LiteOS_Lab/iot_link/os/liteos/cmsis/2.0/cmsis_liteos2.c ****     return osError;
 1879              		.loc 1 620 12
 1880 0024 4FF0FF33 		mov	r3, #-1
 1881              	.L158:
 621:/home/fanxinhao/Work/LiteOS_Lab/iot_link/os/liteos/cmsis/2.0/cmsis_liteos2.c **** }
 1882              		.loc 1 621 1
 1883 0028 1846     		mov	r0, r3
 1884 002a 0837     		adds	r7, r7, #8
 1885              	.LCFI106:
 1886              		.cfi_def_cfa_offset 8
 1887 002c BD46     		mov	sp, r7
 1888              	.LCFI107:
 1889              		.cfi_def_cfa_register 13
 1890              		@ sp needed
 1891 002e 80BD     		pop	{r7, pc}
 1892              	.L161:
 1893              		.align	2
 1894              	.L160:
 1895 0030 00000000 		.word	g_vuwIntCount
 1896              		.cfi_endproc
 1897              	.LFE157:
 1899              		.section	.text.osThreadSuspend,"ax",%progbits
 1900              		.align	1
 1901              		.global	osThreadSuspend
 1902              		.syntax unified
 1903              		.thumb
 1904              		.thumb_func
 1905              		.fpu fpv4-sp-d16
 1907              	osThreadSuspend:
 1908              	.LFB158:
 622:/home/fanxinhao/Work/LiteOS_Lab/iot_link/os/liteos/cmsis/2.0/cmsis_liteos2.c **** 
 623:/home/fanxinhao/Work/LiteOS_Lab/iot_link/os/liteos/cmsis/2.0/cmsis_liteos2.c **** 
 624:/home/fanxinhao/Work/LiteOS_Lab/iot_link/os/liteos/cmsis/2.0/cmsis_liteos2.c **** osStatus_t osThreadSuspend (osThreadId_t thread_id)
 625:/home/fanxinhao/Work/LiteOS_Lab/iot_link/os/liteos/cmsis/2.0/cmsis_liteos2.c **** {
 1909              		.loc 1 625 1
 1910              		.cfi_startproc
 1911              		@ args = 0, pretend = 0, frame = 16
 1912              		@ frame_needed = 1, uses_anonymous_args = 0
 1913 0000 80B5     		push	{r7, lr}
 1914              	.LCFI108:
 1915              		.cfi_def_cfa_offset 8
 1916              		.cfi_offset 7, -8
 1917              		.cfi_offset 14, -4
 1918 0002 84B0     		sub	sp, sp, #16
 1919              	.LCFI109:
 1920              		.cfi_def_cfa_offset 24
ARM GAS  /tmp/ccKdD4IP.s 			page 45


 1921 0004 00AF     		add	r7, sp, #0
 1922              	.LCFI110:
 1923              		.cfi_def_cfa_register 7
 1924 0006 7860     		str	r0, [r7, #4]
 626:/home/fanxinhao/Work/LiteOS_Lab/iot_link/os/liteos/cmsis/2.0/cmsis_liteos2.c ****     UINT32 uwRet;
 627:/home/fanxinhao/Work/LiteOS_Lab/iot_link/os/liteos/cmsis/2.0/cmsis_liteos2.c ****     LOS_TASK_CB *pstTaskCB = NULL;
 1925              		.loc 1 627 18
 1926 0008 0023     		movs	r3, #0
 1927 000a FB60     		str	r3, [r7, #12]
 628:/home/fanxinhao/Work/LiteOS_Lab/iot_link/os/liteos/cmsis/2.0/cmsis_liteos2.c **** 
 629:/home/fanxinhao/Work/LiteOS_Lab/iot_link/os/liteos/cmsis/2.0/cmsis_liteos2.c ****     if (OS_INT_ACTIVE)
 1928              		.loc 1 629 9
 1929 000c 354B     		ldr	r3, .L171
 1930 000e 1B68     		ldr	r3, [r3]
 1931              		.loc 1 629 8
 1932 0010 002B     		cmp	r3, #0
 1933 0012 02D0     		beq	.L163
 630:/home/fanxinhao/Work/LiteOS_Lab/iot_link/os/liteos/cmsis/2.0/cmsis_liteos2.c ****     {
 631:/home/fanxinhao/Work/LiteOS_Lab/iot_link/os/liteos/cmsis/2.0/cmsis_liteos2.c ****         return osErrorISR;
 1934              		.loc 1 631 16
 1935 0014 6FF00503 		mvn	r3, #5
 1936 0018 60E0     		b	.L164
 1937              	.L163:
 632:/home/fanxinhao/Work/LiteOS_Lab/iot_link/os/liteos/cmsis/2.0/cmsis_liteos2.c ****     }
 633:/home/fanxinhao/Work/LiteOS_Lab/iot_link/os/liteos/cmsis/2.0/cmsis_liteos2.c **** 
 634:/home/fanxinhao/Work/LiteOS_Lab/iot_link/os/liteos/cmsis/2.0/cmsis_liteos2.c ****     if (thread_id == NULL)
 1938              		.loc 1 634 8
 1939 001a 7B68     		ldr	r3, [r7, #4]
 1940 001c 002B     		cmp	r3, #0
 1941 001e 02D1     		bne	.L165
 635:/home/fanxinhao/Work/LiteOS_Lab/iot_link/os/liteos/cmsis/2.0/cmsis_liteos2.c ****     {
 636:/home/fanxinhao/Work/LiteOS_Lab/iot_link/os/liteos/cmsis/2.0/cmsis_liteos2.c ****         return osErrorParameter;
 1942              		.loc 1 636 16
 1943 0020 6FF00303 		mvn	r3, #3
 1944 0024 5AE0     		b	.L164
 1945              	.L165:
 637:/home/fanxinhao/Work/LiteOS_Lab/iot_link/os/liteos/cmsis/2.0/cmsis_liteos2.c ****     }
 638:/home/fanxinhao/Work/LiteOS_Lab/iot_link/os/liteos/cmsis/2.0/cmsis_liteos2.c **** 
 639:/home/fanxinhao/Work/LiteOS_Lab/iot_link/os/liteos/cmsis/2.0/cmsis_liteos2.c ****     pstTaskCB = (LOS_TASK_CB *)thread_id;
 1946              		.loc 1 639 15
 1947 0026 7B68     		ldr	r3, [r7, #4]
 1948 0028 FB60     		str	r3, [r7, #12]
 640:/home/fanxinhao/Work/LiteOS_Lab/iot_link/os/liteos/cmsis/2.0/cmsis_liteos2.c ****     uwRet = LOS_TaskSuspend(pstTaskCB->uwTaskID);
 1949              		.loc 1 640 13
 1950 002a FB68     		ldr	r3, [r7, #12]
 1951 002c 1B69     		ldr	r3, [r3, #16]
 1952 002e 1846     		mov	r0, r3
 1953 0030 FFF7FEFF 		bl	LOS_TaskSuspend
 1954 0034 B860     		str	r0, [r7, #8]
 641:/home/fanxinhao/Work/LiteOS_Lab/iot_link/os/liteos/cmsis/2.0/cmsis_liteos2.c ****     switch (uwRet)
 1955              		.loc 1 641 5
 1956 0036 BB68     		ldr	r3, [r7, #8]
 1957 0038 2B4A     		ldr	r2, .L171+4
 1958 003a 9342     		cmp	r3, r2
 1959 003c 42D8     		bhi	.L166
 1960 003e BB68     		ldr	r3, [r7, #8]
 1961 0040 2A4A     		ldr	r2, .L171+8
ARM GAS  /tmp/ccKdD4IP.s 			page 46


 1962 0042 9342     		cmp	r3, r2
 1963 0044 49D3     		bcc	.L167
 1964 0046 BB68     		ldr	r3, [r7, #8]
 1965 0048 A3F10223 		sub	r3, r3, #33554944
 1966 004c 073B     		subs	r3, r3, #7
 1967 004e 1A2B     		cmp	r3, #26
 1968 0050 43D8     		bhi	.L167
 1969 0052 01A2     		adr	r2, .L169
 1970 0054 52F823F0 		ldr	pc, [r2, r3, lsl #2]
 1971              		.p2align 2
 1972              	.L169:
 1973 0058 CF000000 		.word	.L168+1
 1974 005c D5000000 		.word	.L170+1
 1975 0060 DB000000 		.word	.L167+1
 1976 0064 D5000000 		.word	.L170+1
 1977 0068 DB000000 		.word	.L167+1
 1978 006c DB000000 		.word	.L167+1
 1979 0070 DB000000 		.word	.L167+1
 1980 0074 DB000000 		.word	.L167+1
 1981 0078 DB000000 		.word	.L167+1
 1982 007c DB000000 		.word	.L167+1
 1983 0080 DB000000 		.word	.L167+1
 1984 0084 DB000000 		.word	.L167+1
 1985 0088 DB000000 		.word	.L167+1
 1986 008c CF000000 		.word	.L168+1
 1987 0090 DB000000 		.word	.L167+1
 1988 0094 DB000000 		.word	.L167+1
 1989 0098 DB000000 		.word	.L167+1
 1990 009c DB000000 		.word	.L167+1
 1991 00a0 DB000000 		.word	.L167+1
 1992 00a4 DB000000 		.word	.L167+1
 1993 00a8 DB000000 		.word	.L167+1
 1994 00ac DB000000 		.word	.L167+1
 1995 00b0 DB000000 		.word	.L167+1
 1996 00b4 DB000000 		.word	.L167+1
 1997 00b8 DB000000 		.word	.L167+1
 1998 00bc DB000000 		.word	.L167+1
 1999 00c0 CF000000 		.word	.L168+1
 2000              		.p2align 1
 2001              	.L166:
 2002 00c4 BB68     		ldr	r3, [r7, #8]
 2003 00c6 0A4A     		ldr	r2, .L171+12
 2004 00c8 9342     		cmp	r3, r2
 2005 00ca 03D0     		beq	.L170
 2006 00cc 05E0     		b	.L167
 2007              	.L168:
 642:/home/fanxinhao/Work/LiteOS_Lab/iot_link/os/liteos/cmsis/2.0/cmsis_liteos2.c ****     {
 643:/home/fanxinhao/Work/LiteOS_Lab/iot_link/os/liteos/cmsis/2.0/cmsis_liteos2.c ****     case LOS_ERRNO_TSK_OPERATE_IDLE:
 644:/home/fanxinhao/Work/LiteOS_Lab/iot_link/os/liteos/cmsis/2.0/cmsis_liteos2.c ****     case LOS_ERRNO_TSK_SUSPEND_SWTMR_NOT_ALLOWED:
 645:/home/fanxinhao/Work/LiteOS_Lab/iot_link/os/liteos/cmsis/2.0/cmsis_liteos2.c ****     case LOS_ERRNO_TSK_ID_INVALID:
 646:/home/fanxinhao/Work/LiteOS_Lab/iot_link/os/liteos/cmsis/2.0/cmsis_liteos2.c ****         return osErrorParameter;
 2008              		.loc 1 646 16
 2009 00ce 6FF00303 		mvn	r3, #3
 2010 00d2 03E0     		b	.L164
 2011              	.L170:
 647:/home/fanxinhao/Work/LiteOS_Lab/iot_link/os/liteos/cmsis/2.0/cmsis_liteos2.c **** 
 648:/home/fanxinhao/Work/LiteOS_Lab/iot_link/os/liteos/cmsis/2.0/cmsis_liteos2.c ****     case LOS_ERRNO_TSK_NOT_CREATED:
ARM GAS  /tmp/ccKdD4IP.s 			page 47


 649:/home/fanxinhao/Work/LiteOS_Lab/iot_link/os/liteos/cmsis/2.0/cmsis_liteos2.c ****     case LOS_ERRNO_TSK_ALREADY_SUSPENDED:
 650:/home/fanxinhao/Work/LiteOS_Lab/iot_link/os/liteos/cmsis/2.0/cmsis_liteos2.c ****     case LOS_ERRNO_TSK_SUSPEND_LOCKED:
 651:/home/fanxinhao/Work/LiteOS_Lab/iot_link/os/liteos/cmsis/2.0/cmsis_liteos2.c ****         return osErrorResource;
 2012              		.loc 1 651 16
 2013 00d4 6FF00203 		mvn	r3, #2
 2014 00d8 00E0     		b	.L164
 2015              	.L167:
 652:/home/fanxinhao/Work/LiteOS_Lab/iot_link/os/liteos/cmsis/2.0/cmsis_liteos2.c **** 
 653:/home/fanxinhao/Work/LiteOS_Lab/iot_link/os/liteos/cmsis/2.0/cmsis_liteos2.c ****     default:
 654:/home/fanxinhao/Work/LiteOS_Lab/iot_link/os/liteos/cmsis/2.0/cmsis_liteos2.c ****         return osOK;
 2016              		.loc 1 654 16
 2017 00da 0023     		movs	r3, #0
 2018              	.L164:
 655:/home/fanxinhao/Work/LiteOS_Lab/iot_link/os/liteos/cmsis/2.0/cmsis_liteos2.c ****     }
 656:/home/fanxinhao/Work/LiteOS_Lab/iot_link/os/liteos/cmsis/2.0/cmsis_liteos2.c **** }
 2019              		.loc 1 656 1
 2020 00dc 1846     		mov	r0, r3
 2021 00de 1037     		adds	r7, r7, #16
 2022              	.LCFI111:
 2023              		.cfi_def_cfa_offset 8
 2024 00e0 BD46     		mov	sp, r7
 2025              	.LCFI112:
 2026              		.cfi_def_cfa_register 13
 2027              		@ sp needed
 2028 00e2 80BD     		pop	{r7, pc}
 2029              	.L172:
 2030              		.align	2
 2031              	.L171:
 2032 00e4 00000000 		.word	g_vuwIntCount
 2033 00e8 21020002 		.word	33554977
 2034 00ec 07020002 		.word	33554951
 2035 00f0 15020003 		.word	50332181
 2036              		.cfi_endproc
 2037              	.LFE158:
 2039              		.section	.text.osThreadResume,"ax",%progbits
 2040              		.align	1
 2041              		.global	osThreadResume
 2042              		.syntax unified
 2043              		.thumb
 2044              		.thumb_func
 2045              		.fpu fpv4-sp-d16
 2047              	osThreadResume:
 2048              	.LFB159:
 657:/home/fanxinhao/Work/LiteOS_Lab/iot_link/os/liteos/cmsis/2.0/cmsis_liteos2.c **** 
 658:/home/fanxinhao/Work/LiteOS_Lab/iot_link/os/liteos/cmsis/2.0/cmsis_liteos2.c **** 
 659:/home/fanxinhao/Work/LiteOS_Lab/iot_link/os/liteos/cmsis/2.0/cmsis_liteos2.c **** osStatus_t osThreadResume (osThreadId_t thread_id)
 660:/home/fanxinhao/Work/LiteOS_Lab/iot_link/os/liteos/cmsis/2.0/cmsis_liteos2.c **** {
 2049              		.loc 1 660 1
 2050              		.cfi_startproc
 2051              		@ args = 0, pretend = 0, frame = 16
 2052              		@ frame_needed = 1, uses_anonymous_args = 0
 2053 0000 80B5     		push	{r7, lr}
 2054              	.LCFI113:
 2055              		.cfi_def_cfa_offset 8
 2056              		.cfi_offset 7, -8
 2057              		.cfi_offset 14, -4
 2058 0002 84B0     		sub	sp, sp, #16
ARM GAS  /tmp/ccKdD4IP.s 			page 48


 2059              	.LCFI114:
 2060              		.cfi_def_cfa_offset 24
 2061 0004 00AF     		add	r7, sp, #0
 2062              	.LCFI115:
 2063              		.cfi_def_cfa_register 7
 2064 0006 7860     		str	r0, [r7, #4]
 661:/home/fanxinhao/Work/LiteOS_Lab/iot_link/os/liteos/cmsis/2.0/cmsis_liteos2.c ****     UINT32 uwRet;
 662:/home/fanxinhao/Work/LiteOS_Lab/iot_link/os/liteos/cmsis/2.0/cmsis_liteos2.c ****     LOS_TASK_CB *pstTaskCB = NULL;
 2065              		.loc 1 662 18
 2066 0008 0023     		movs	r3, #0
 2067 000a FB60     		str	r3, [r7, #12]
 663:/home/fanxinhao/Work/LiteOS_Lab/iot_link/os/liteos/cmsis/2.0/cmsis_liteos2.c **** 
 664:/home/fanxinhao/Work/LiteOS_Lab/iot_link/os/liteos/cmsis/2.0/cmsis_liteos2.c ****     if (OS_INT_ACTIVE)
 2068              		.loc 1 664 9
 2069 000c 174B     		ldr	r3, .L181
 2070 000e 1B68     		ldr	r3, [r3]
 2071              		.loc 1 664 8
 2072 0010 002B     		cmp	r3, #0
 2073 0012 02D0     		beq	.L174
 665:/home/fanxinhao/Work/LiteOS_Lab/iot_link/os/liteos/cmsis/2.0/cmsis_liteos2.c ****     {
 666:/home/fanxinhao/Work/LiteOS_Lab/iot_link/os/liteos/cmsis/2.0/cmsis_liteos2.c ****         return osErrorISR;
 2074              		.loc 1 666 16
 2075 0014 6FF00503 		mvn	r3, #5
 2076 0018 23E0     		b	.L175
 2077              	.L174:
 667:/home/fanxinhao/Work/LiteOS_Lab/iot_link/os/liteos/cmsis/2.0/cmsis_liteos2.c ****     }
 668:/home/fanxinhao/Work/LiteOS_Lab/iot_link/os/liteos/cmsis/2.0/cmsis_liteos2.c **** 
 669:/home/fanxinhao/Work/LiteOS_Lab/iot_link/os/liteos/cmsis/2.0/cmsis_liteos2.c ****     if (thread_id == NULL)
 2078              		.loc 1 669 8
 2079 001a 7B68     		ldr	r3, [r7, #4]
 2080 001c 002B     		cmp	r3, #0
 2081 001e 02D1     		bne	.L176
 670:/home/fanxinhao/Work/LiteOS_Lab/iot_link/os/liteos/cmsis/2.0/cmsis_liteos2.c ****     {
 671:/home/fanxinhao/Work/LiteOS_Lab/iot_link/os/liteos/cmsis/2.0/cmsis_liteos2.c ****         return osErrorParameter;
 2082              		.loc 1 671 16
 2083 0020 6FF00303 		mvn	r3, #3
 2084 0024 1DE0     		b	.L175
 2085              	.L176:
 672:/home/fanxinhao/Work/LiteOS_Lab/iot_link/os/liteos/cmsis/2.0/cmsis_liteos2.c ****     }
 673:/home/fanxinhao/Work/LiteOS_Lab/iot_link/os/liteos/cmsis/2.0/cmsis_liteos2.c **** 
 674:/home/fanxinhao/Work/LiteOS_Lab/iot_link/os/liteos/cmsis/2.0/cmsis_liteos2.c ****     pstTaskCB = (LOS_TASK_CB *)thread_id;
 2086              		.loc 1 674 15
 2087 0026 7B68     		ldr	r3, [r7, #4]
 2088 0028 FB60     		str	r3, [r7, #12]
 675:/home/fanxinhao/Work/LiteOS_Lab/iot_link/os/liteos/cmsis/2.0/cmsis_liteos2.c ****     uwRet = LOS_TaskResume(pstTaskCB->uwTaskID);
 2089              		.loc 1 675 13
 2090 002a FB68     		ldr	r3, [r7, #12]
 2091 002c 1B69     		ldr	r3, [r3, #16]
 2092 002e 1846     		mov	r0, r3
 2093 0030 FFF7FEFF 		bl	LOS_TaskResume
 2094 0034 B860     		str	r0, [r7, #8]
 676:/home/fanxinhao/Work/LiteOS_Lab/iot_link/os/liteos/cmsis/2.0/cmsis_liteos2.c **** 
 677:/home/fanxinhao/Work/LiteOS_Lab/iot_link/os/liteos/cmsis/2.0/cmsis_liteos2.c ****     switch (uwRet)
 2095              		.loc 1 677 5
 2096 0036 BB68     		ldr	r3, [r7, #8]
 2097 0038 0D4A     		ldr	r2, .L181+4
 2098 003a 9342     		cmp	r3, r2
ARM GAS  /tmp/ccKdD4IP.s 			page 49


 2099 003c 0AD0     		beq	.L177
 2100 003e BB68     		ldr	r3, [r7, #8]
 2101 0040 0B4A     		ldr	r2, .L181+4
 2102 0042 9342     		cmp	r3, r2
 2103 0044 0CD3     		bcc	.L178
 2104 0046 BB68     		ldr	r3, [r7, #8]
 2105 0048 A3F10223 		sub	r3, r3, #33554944
 2106 004c 093B     		subs	r3, r3, #9
 2107 004e 012B     		cmp	r3, #1
 2108 0050 06D8     		bhi	.L178
 2109 0052 02E0     		b	.L180
 2110              	.L177:
 678:/home/fanxinhao/Work/LiteOS_Lab/iot_link/os/liteos/cmsis/2.0/cmsis_liteos2.c ****     {
 679:/home/fanxinhao/Work/LiteOS_Lab/iot_link/os/liteos/cmsis/2.0/cmsis_liteos2.c ****     case LOS_ERRNO_TSK_ID_INVALID:
 680:/home/fanxinhao/Work/LiteOS_Lab/iot_link/os/liteos/cmsis/2.0/cmsis_liteos2.c ****         return osErrorParameter;
 2111              		.loc 1 680 16
 2112 0054 6FF00303 		mvn	r3, #3
 2113 0058 03E0     		b	.L175
 2114              	.L180:
 681:/home/fanxinhao/Work/LiteOS_Lab/iot_link/os/liteos/cmsis/2.0/cmsis_liteos2.c **** 
 682:/home/fanxinhao/Work/LiteOS_Lab/iot_link/os/liteos/cmsis/2.0/cmsis_liteos2.c ****     case LOS_ERRNO_TSK_NOT_CREATED:
 683:/home/fanxinhao/Work/LiteOS_Lab/iot_link/os/liteos/cmsis/2.0/cmsis_liteos2.c ****     case LOS_ERRNO_TSK_NOT_SUSPENDED:
 684:/home/fanxinhao/Work/LiteOS_Lab/iot_link/os/liteos/cmsis/2.0/cmsis_liteos2.c ****         return osErrorResource;
 2115              		.loc 1 684 16
 2116 005a 6FF00203 		mvn	r3, #2
 2117 005e 00E0     		b	.L175
 2118              	.L178:
 685:/home/fanxinhao/Work/LiteOS_Lab/iot_link/os/liteos/cmsis/2.0/cmsis_liteos2.c **** 
 686:/home/fanxinhao/Work/LiteOS_Lab/iot_link/os/liteos/cmsis/2.0/cmsis_liteos2.c ****     default:
 687:/home/fanxinhao/Work/LiteOS_Lab/iot_link/os/liteos/cmsis/2.0/cmsis_liteos2.c ****         return osOK;
 2119              		.loc 1 687 16
 2120 0060 0023     		movs	r3, #0
 2121              	.L175:
 688:/home/fanxinhao/Work/LiteOS_Lab/iot_link/os/liteos/cmsis/2.0/cmsis_liteos2.c ****     }
 689:/home/fanxinhao/Work/LiteOS_Lab/iot_link/os/liteos/cmsis/2.0/cmsis_liteos2.c **** 
 690:/home/fanxinhao/Work/LiteOS_Lab/iot_link/os/liteos/cmsis/2.0/cmsis_liteos2.c **** }
 2122              		.loc 1 690 1
 2123 0062 1846     		mov	r0, r3
 2124 0064 1037     		adds	r7, r7, #16
 2125              	.LCFI116:
 2126              		.cfi_def_cfa_offset 8
 2127 0066 BD46     		mov	sp, r7
 2128              	.LCFI117:
 2129              		.cfi_def_cfa_register 13
 2130              		@ sp needed
 2131 0068 80BD     		pop	{r7, pc}
 2132              	.L182:
 2133 006a 00BF     		.align	2
 2134              	.L181:
 2135 006c 00000000 		.word	g_vuwIntCount
 2136 0070 07020002 		.word	33554951
 2137              		.cfi_endproc
 2138              	.LFE159:
 2140              		.section	.text.osThreadTerminate,"ax",%progbits
 2141              		.align	1
 2142              		.global	osThreadTerminate
 2143              		.syntax unified
ARM GAS  /tmp/ccKdD4IP.s 			page 50


 2144              		.thumb
 2145              		.thumb_func
 2146              		.fpu fpv4-sp-d16
 2148              	osThreadTerminate:
 2149              	.LFB160:
 691:/home/fanxinhao/Work/LiteOS_Lab/iot_link/os/liteos/cmsis/2.0/cmsis_liteos2.c **** 
 692:/home/fanxinhao/Work/LiteOS_Lab/iot_link/os/liteos/cmsis/2.0/cmsis_liteos2.c **** 
 693:/home/fanxinhao/Work/LiteOS_Lab/iot_link/os/liteos/cmsis/2.0/cmsis_liteos2.c **** osStatus_t osThreadTerminate (osThreadId_t thread_id)
 694:/home/fanxinhao/Work/LiteOS_Lab/iot_link/os/liteos/cmsis/2.0/cmsis_liteos2.c **** {
 2150              		.loc 1 694 1
 2151              		.cfi_startproc
 2152              		@ args = 0, pretend = 0, frame = 16
 2153              		@ frame_needed = 1, uses_anonymous_args = 0
 2154 0000 80B5     		push	{r7, lr}
 2155              	.LCFI118:
 2156              		.cfi_def_cfa_offset 8
 2157              		.cfi_offset 7, -8
 2158              		.cfi_offset 14, -4
 2159 0002 84B0     		sub	sp, sp, #16
 2160              	.LCFI119:
 2161              		.cfi_def_cfa_offset 24
 2162 0004 00AF     		add	r7, sp, #0
 2163              	.LCFI120:
 2164              		.cfi_def_cfa_register 7
 2165 0006 7860     		str	r0, [r7, #4]
 695:/home/fanxinhao/Work/LiteOS_Lab/iot_link/os/liteos/cmsis/2.0/cmsis_liteos2.c ****     UINT32 uwRet;
 696:/home/fanxinhao/Work/LiteOS_Lab/iot_link/os/liteos/cmsis/2.0/cmsis_liteos2.c ****     LOS_TASK_CB *pstTaskCB = NULL;
 2166              		.loc 1 696 18
 2167 0008 0023     		movs	r3, #0
 2168 000a FB60     		str	r3, [r7, #12]
 697:/home/fanxinhao/Work/LiteOS_Lab/iot_link/os/liteos/cmsis/2.0/cmsis_liteos2.c **** 
 698:/home/fanxinhao/Work/LiteOS_Lab/iot_link/os/liteos/cmsis/2.0/cmsis_liteos2.c ****     if (OS_INT_ACTIVE)
 2169              		.loc 1 698 9
 2170 000c 2F4B     		ldr	r3, .L191
 2171 000e 1B68     		ldr	r3, [r3]
 2172              		.loc 1 698 8
 2173 0010 002B     		cmp	r3, #0
 2174 0012 02D0     		beq	.L184
 699:/home/fanxinhao/Work/LiteOS_Lab/iot_link/os/liteos/cmsis/2.0/cmsis_liteos2.c ****     {
 700:/home/fanxinhao/Work/LiteOS_Lab/iot_link/os/liteos/cmsis/2.0/cmsis_liteos2.c ****         return osErrorISR;
 2175              		.loc 1 700 16
 2176 0014 6FF00503 		mvn	r3, #5
 2177 0018 53E0     		b	.L185
 2178              	.L184:
 701:/home/fanxinhao/Work/LiteOS_Lab/iot_link/os/liteos/cmsis/2.0/cmsis_liteos2.c ****     }
 702:/home/fanxinhao/Work/LiteOS_Lab/iot_link/os/liteos/cmsis/2.0/cmsis_liteos2.c **** 
 703:/home/fanxinhao/Work/LiteOS_Lab/iot_link/os/liteos/cmsis/2.0/cmsis_liteos2.c ****     if (thread_id == NULL)
 2179              		.loc 1 703 8
 2180 001a 7B68     		ldr	r3, [r7, #4]
 2181 001c 002B     		cmp	r3, #0
 2182 001e 02D1     		bne	.L186
 704:/home/fanxinhao/Work/LiteOS_Lab/iot_link/os/liteos/cmsis/2.0/cmsis_liteos2.c ****     {
 705:/home/fanxinhao/Work/LiteOS_Lab/iot_link/os/liteos/cmsis/2.0/cmsis_liteos2.c ****         return osErrorParameter;
 2183              		.loc 1 705 16
 2184 0020 6FF00303 		mvn	r3, #3
 2185 0024 4DE0     		b	.L185
 2186              	.L186:
ARM GAS  /tmp/ccKdD4IP.s 			page 51


 706:/home/fanxinhao/Work/LiteOS_Lab/iot_link/os/liteos/cmsis/2.0/cmsis_liteos2.c ****     }
 707:/home/fanxinhao/Work/LiteOS_Lab/iot_link/os/liteos/cmsis/2.0/cmsis_liteos2.c **** 
 708:/home/fanxinhao/Work/LiteOS_Lab/iot_link/os/liteos/cmsis/2.0/cmsis_liteos2.c ****     pstTaskCB = (LOS_TASK_CB *)thread_id;
 2187              		.loc 1 708 15
 2188 0026 7B68     		ldr	r3, [r7, #4]
 2189 0028 FB60     		str	r3, [r7, #12]
 709:/home/fanxinhao/Work/LiteOS_Lab/iot_link/os/liteos/cmsis/2.0/cmsis_liteos2.c ****     uwRet = LOS_TaskDelete(pstTaskCB->uwTaskID);
 2190              		.loc 1 709 13
 2191 002a FB68     		ldr	r3, [r7, #12]
 2192 002c 1B69     		ldr	r3, [r3, #16]
 2193 002e 1846     		mov	r0, r3
 2194 0030 FFF7FEFF 		bl	LOS_TaskDelete
 2195 0034 B860     		str	r0, [r7, #8]
 2196 0036 BB68     		ldr	r3, [r7, #8]
 2197 0038 A3F10223 		sub	r3, r3, #33554944
 2198 003c 073B     		subs	r3, r3, #7
 2199 003e 1A2B     		cmp	r3, #26
 2200 0040 3ED8     		bhi	.L187
 2201 0042 01A2     		adr	r2, .L189
 2202 0044 52F823F0 		ldr	pc, [r2, r3, lsl #2]
 2203              		.p2align 2
 2204              	.L189:
 2205 0048 B5000000 		.word	.L188+1
 2206 004c C1000000 		.word	.L187+1
 2207 0050 C1000000 		.word	.L187+1
 2208 0054 BB000000 		.word	.L190+1
 2209 0058 C1000000 		.word	.L187+1
 2210 005c C1000000 		.word	.L187+1
 2211 0060 C1000000 		.word	.L187+1
 2212 0064 C1000000 		.word	.L187+1
 2213 0068 C1000000 		.word	.L187+1
 2214 006c C1000000 		.word	.L187+1
 2215 0070 C1000000 		.word	.L187+1
 2216 0074 C1000000 		.word	.L187+1
 2217 0078 C1000000 		.word	.L187+1
 2218 007c B5000000 		.word	.L188+1
 2219 0080 C1000000 		.word	.L187+1
 2220 0084 C1000000 		.word	.L187+1
 2221 0088 C1000000 		.word	.L187+1
 2222 008c C1000000 		.word	.L187+1
 2223 0090 C1000000 		.word	.L187+1
 2224 0094 C1000000 		.word	.L187+1
 2225 0098 C1000000 		.word	.L187+1
 2226 009c C1000000 		.word	.L187+1
 2227 00a0 C1000000 		.word	.L187+1
 2228 00a4 C1000000 		.word	.L187+1
 2229 00a8 C1000000 		.word	.L187+1
 2230 00ac C1000000 		.word	.L187+1
 2231 00b0 B5000000 		.word	.L188+1
 2232              		.p2align 1
 2233              	.L188:
 710:/home/fanxinhao/Work/LiteOS_Lab/iot_link/os/liteos/cmsis/2.0/cmsis_liteos2.c **** 
 711:/home/fanxinhao/Work/LiteOS_Lab/iot_link/os/liteos/cmsis/2.0/cmsis_liteos2.c ****     switch (uwRet)
 712:/home/fanxinhao/Work/LiteOS_Lab/iot_link/os/liteos/cmsis/2.0/cmsis_liteos2.c ****     {
 713:/home/fanxinhao/Work/LiteOS_Lab/iot_link/os/liteos/cmsis/2.0/cmsis_liteos2.c ****     case LOS_ERRNO_TSK_OPERATE_IDLE:
 714:/home/fanxinhao/Work/LiteOS_Lab/iot_link/os/liteos/cmsis/2.0/cmsis_liteos2.c ****     case LOS_ERRNO_TSK_SUSPEND_SWTMR_NOT_ALLOWED:
 715:/home/fanxinhao/Work/LiteOS_Lab/iot_link/os/liteos/cmsis/2.0/cmsis_liteos2.c ****     case LOS_ERRNO_TSK_ID_INVALID:
ARM GAS  /tmp/ccKdD4IP.s 			page 52


 716:/home/fanxinhao/Work/LiteOS_Lab/iot_link/os/liteos/cmsis/2.0/cmsis_liteos2.c ****         return osErrorParameter;
 2234              		.loc 1 716 16
 2235 00b4 6FF00303 		mvn	r3, #3
 2236 00b8 03E0     		b	.L185
 2237              	.L190:
 717:/home/fanxinhao/Work/LiteOS_Lab/iot_link/os/liteos/cmsis/2.0/cmsis_liteos2.c **** 
 718:/home/fanxinhao/Work/LiteOS_Lab/iot_link/os/liteos/cmsis/2.0/cmsis_liteos2.c ****     case LOS_ERRNO_TSK_NOT_CREATED:
 719:/home/fanxinhao/Work/LiteOS_Lab/iot_link/os/liteos/cmsis/2.0/cmsis_liteos2.c ****         return osErrorResource;
 2238              		.loc 1 719 16
 2239 00ba 6FF00203 		mvn	r3, #2
 2240 00be 00E0     		b	.L185
 2241              	.L187:
 720:/home/fanxinhao/Work/LiteOS_Lab/iot_link/os/liteos/cmsis/2.0/cmsis_liteos2.c **** 
 721:/home/fanxinhao/Work/LiteOS_Lab/iot_link/os/liteos/cmsis/2.0/cmsis_liteos2.c ****     default:
 722:/home/fanxinhao/Work/LiteOS_Lab/iot_link/os/liteos/cmsis/2.0/cmsis_liteos2.c ****         return osOK;
 2242              		.loc 1 722 16
 2243 00c0 0023     		movs	r3, #0
 2244              	.L185:
 723:/home/fanxinhao/Work/LiteOS_Lab/iot_link/os/liteos/cmsis/2.0/cmsis_liteos2.c ****     }
 724:/home/fanxinhao/Work/LiteOS_Lab/iot_link/os/liteos/cmsis/2.0/cmsis_liteos2.c **** }
 2245              		.loc 1 724 1
 2246 00c2 1846     		mov	r0, r3
 2247 00c4 1037     		adds	r7, r7, #16
 2248              	.LCFI121:
 2249              		.cfi_def_cfa_offset 8
 2250 00c6 BD46     		mov	sp, r7
 2251              	.LCFI122:
 2252              		.cfi_def_cfa_register 13
 2253              		@ sp needed
 2254 00c8 80BD     		pop	{r7, pc}
 2255              	.L192:
 2256 00ca 00BF     		.align	2
 2257              	.L191:
 2258 00cc 00000000 		.word	g_vuwIntCount
 2259              		.cfi_endproc
 2260              	.LFE160:
 2262              		.section	.text.osThreadGetCount,"ax",%progbits
 2263              		.align	1
 2264              		.global	osThreadGetCount
 2265              		.syntax unified
 2266              		.thumb
 2267              		.thumb_func
 2268              		.fpu fpv4-sp-d16
 2270              	osThreadGetCount:
 2271              	.LFB161:
 725:/home/fanxinhao/Work/LiteOS_Lab/iot_link/os/liteos/cmsis/2.0/cmsis_liteos2.c **** 
 726:/home/fanxinhao/Work/LiteOS_Lab/iot_link/os/liteos/cmsis/2.0/cmsis_liteos2.c **** 
 727:/home/fanxinhao/Work/LiteOS_Lab/iot_link/os/liteos/cmsis/2.0/cmsis_liteos2.c **** uint32_t osThreadGetCount (void)
 728:/home/fanxinhao/Work/LiteOS_Lab/iot_link/os/liteos/cmsis/2.0/cmsis_liteos2.c **** {
 2272              		.loc 1 728 1
 2273              		.cfi_startproc
 2274              		@ args = 0, pretend = 0, frame = 8
 2275              		@ frame_needed = 1, uses_anonymous_args = 0
 2276              		@ link register save eliminated.
 2277 0000 80B4     		push	{r7}
 2278              	.LCFI123:
 2279              		.cfi_def_cfa_offset 4
ARM GAS  /tmp/ccKdD4IP.s 			page 53


 2280              		.cfi_offset 7, -4
 2281 0002 83B0     		sub	sp, sp, #12
 2282              	.LCFI124:
 2283              		.cfi_def_cfa_offset 16
 2284 0004 00AF     		add	r7, sp, #0
 2285              	.LCFI125:
 2286              		.cfi_def_cfa_register 7
 729:/home/fanxinhao/Work/LiteOS_Lab/iot_link/os/liteos/cmsis/2.0/cmsis_liteos2.c ****     uint32_t uwCount = 0;
 2287              		.loc 1 729 14
 2288 0006 0023     		movs	r3, #0
 2289 0008 7B60     		str	r3, [r7, #4]
 730:/home/fanxinhao/Work/LiteOS_Lab/iot_link/os/liteos/cmsis/2.0/cmsis_liteos2.c ****     int index = 0;
 2290              		.loc 1 730 9
 2291 000a 0023     		movs	r3, #0
 2292 000c 3B60     		str	r3, [r7]
 731:/home/fanxinhao/Work/LiteOS_Lab/iot_link/os/liteos/cmsis/2.0/cmsis_liteos2.c **** 
 732:/home/fanxinhao/Work/LiteOS_Lab/iot_link/os/liteos/cmsis/2.0/cmsis_liteos2.c ****     if (OS_INT_ACTIVE)
 2293              		.loc 1 732 9
 2294 000e 114B     		ldr	r3, .L199
 2295 0010 1B68     		ldr	r3, [r3]
 2296              		.loc 1 732 8
 2297 0012 002B     		cmp	r3, #0
 2298 0014 13D0     		beq	.L196
 733:/home/fanxinhao/Work/LiteOS_Lab/iot_link/os/liteos/cmsis/2.0/cmsis_liteos2.c ****     {
 734:/home/fanxinhao/Work/LiteOS_Lab/iot_link/os/liteos/cmsis/2.0/cmsis_liteos2.c ****         return 0U;
 2299              		.loc 1 734 16
 2300 0016 0023     		movs	r3, #0
 2301 0018 15E0     		b	.L195
 2302              	.L198:
 735:/home/fanxinhao/Work/LiteOS_Lab/iot_link/os/liteos/cmsis/2.0/cmsis_liteos2.c ****     }
 736:/home/fanxinhao/Work/LiteOS_Lab/iot_link/os/liteos/cmsis/2.0/cmsis_liteos2.c **** 
 737:/home/fanxinhao/Work/LiteOS_Lab/iot_link/os/liteos/cmsis/2.0/cmsis_liteos2.c ****     for(; index <= LOSCFG_BASE_CORE_TSK_LIMIT; index++)
 738:/home/fanxinhao/Work/LiteOS_Lab/iot_link/os/liteos/cmsis/2.0/cmsis_liteos2.c ****     {
 739:/home/fanxinhao/Work/LiteOS_Lab/iot_link/os/liteos/cmsis/2.0/cmsis_liteos2.c ****         if (!((OS_TCB_FROM_TID(index))->usTaskStatus & OS_TASK_STATUS_UNUSED))
 2303              		.loc 1 739 16
 2304 001a 0F4B     		ldr	r3, .L199+4
 2305 001c 1A68     		ldr	r2, [r3]
 2306 001e 3B68     		ldr	r3, [r7]
 2307 0020 5421     		movs	r1, #84
 2308 0022 01FB03F3 		mul	r3, r1, r3
 2309 0026 1344     		add	r3, r3, r2
 2310              		.loc 1 739 39
 2311 0028 9B88     		ldrh	r3, [r3, #4]
 2312              		.loc 1 739 54
 2313 002a 03F00103 		and	r3, r3, #1
 2314              		.loc 1 739 12
 2315 002e 002B     		cmp	r3, #0
 2316 0030 02D1     		bne	.L197
 740:/home/fanxinhao/Work/LiteOS_Lab/iot_link/os/liteos/cmsis/2.0/cmsis_liteos2.c ****         {
 741:/home/fanxinhao/Work/LiteOS_Lab/iot_link/os/liteos/cmsis/2.0/cmsis_liteos2.c ****             uwCount++;
 2317              		.loc 1 741 20
 2318 0032 7B68     		ldr	r3, [r7, #4]
 2319 0034 0133     		adds	r3, r3, #1
 2320 0036 7B60     		str	r3, [r7, #4]
 2321              	.L197:
 737:/home/fanxinhao/Work/LiteOS_Lab/iot_link/os/liteos/cmsis/2.0/cmsis_liteos2.c ****     {
 2322              		.loc 1 737 53
ARM GAS  /tmp/ccKdD4IP.s 			page 54


 2323 0038 3B68     		ldr	r3, [r7]
 2324 003a 0133     		adds	r3, r3, #1
 2325 003c 3B60     		str	r3, [r7]
 2326              	.L196:
 737:/home/fanxinhao/Work/LiteOS_Lab/iot_link/os/liteos/cmsis/2.0/cmsis_liteos2.c ****     {
 2327              		.loc 1 737 5 discriminator 1
 2328 003e 3B68     		ldr	r3, [r7]
 2329 0040 0F2B     		cmp	r3, #15
 2330 0042 EADD     		ble	.L198
 742:/home/fanxinhao/Work/LiteOS_Lab/iot_link/os/liteos/cmsis/2.0/cmsis_liteos2.c ****         }
 743:/home/fanxinhao/Work/LiteOS_Lab/iot_link/os/liteos/cmsis/2.0/cmsis_liteos2.c ****     }
 744:/home/fanxinhao/Work/LiteOS_Lab/iot_link/os/liteos/cmsis/2.0/cmsis_liteos2.c **** 
 745:/home/fanxinhao/Work/LiteOS_Lab/iot_link/os/liteos/cmsis/2.0/cmsis_liteos2.c ****     return uwCount;
 2331              		.loc 1 745 12
 2332 0044 7B68     		ldr	r3, [r7, #4]
 2333              	.L195:
 746:/home/fanxinhao/Work/LiteOS_Lab/iot_link/os/liteos/cmsis/2.0/cmsis_liteos2.c **** }
 2334              		.loc 1 746 1
 2335 0046 1846     		mov	r0, r3
 2336 0048 0C37     		adds	r7, r7, #12
 2337              	.LCFI126:
 2338              		.cfi_def_cfa_offset 4
 2339 004a BD46     		mov	sp, r7
 2340              	.LCFI127:
 2341              		.cfi_def_cfa_register 13
 2342              		@ sp needed
 2343 004c 5DF8047B 		ldr	r7, [sp], #4
 2344              	.LCFI128:
 2345              		.cfi_restore 7
 2346              		.cfi_def_cfa_offset 0
 2347 0050 7047     		bx	lr
 2348              	.L200:
 2349 0052 00BF     		.align	2
 2350              	.L199:
 2351 0054 00000000 		.word	g_vuwIntCount
 2352 0058 00000000 		.word	g_pstTaskCBArray
 2353              		.cfi_endproc
 2354              	.LFE161:
 2356              		.section	.text.osDelay,"ax",%progbits
 2357              		.align	1
 2358              		.global	osDelay
 2359              		.syntax unified
 2360              		.thumb
 2361              		.thumb_func
 2362              		.fpu fpv4-sp-d16
 2364              	osDelay:
 2365              	.LFB162:
 747:/home/fanxinhao/Work/LiteOS_Lab/iot_link/os/liteos/cmsis/2.0/cmsis_liteos2.c **** 
 748:/home/fanxinhao/Work/LiteOS_Lab/iot_link/os/liteos/cmsis/2.0/cmsis_liteos2.c **** 
 749:/home/fanxinhao/Work/LiteOS_Lab/iot_link/os/liteos/cmsis/2.0/cmsis_liteos2.c **** //  ==== Generic Wait Functions ====
 750:/home/fanxinhao/Work/LiteOS_Lab/iot_link/os/liteos/cmsis/2.0/cmsis_liteos2.c **** 
 751:/home/fanxinhao/Work/LiteOS_Lab/iot_link/os/liteos/cmsis/2.0/cmsis_liteos2.c **** osStatus_t osDelay (uint32_t ticks)
 752:/home/fanxinhao/Work/LiteOS_Lab/iot_link/os/liteos/cmsis/2.0/cmsis_liteos2.c **** {
 2366              		.loc 1 752 1
 2367              		.cfi_startproc
 2368              		@ args = 0, pretend = 0, frame = 16
 2369              		@ frame_needed = 1, uses_anonymous_args = 0
ARM GAS  /tmp/ccKdD4IP.s 			page 55


 2370 0000 80B5     		push	{r7, lr}
 2371              	.LCFI129:
 2372              		.cfi_def_cfa_offset 8
 2373              		.cfi_offset 7, -8
 2374              		.cfi_offset 14, -4
 2375 0002 84B0     		sub	sp, sp, #16
 2376              	.LCFI130:
 2377              		.cfi_def_cfa_offset 24
 2378 0004 00AF     		add	r7, sp, #0
 2379              	.LCFI131:
 2380              		.cfi_def_cfa_register 7
 2381 0006 7860     		str	r0, [r7, #4]
 753:/home/fanxinhao/Work/LiteOS_Lab/iot_link/os/liteos/cmsis/2.0/cmsis_liteos2.c ****     UINT32 uwRet = 0;
 2382              		.loc 1 753 12
 2383 0008 0023     		movs	r3, #0
 2384 000a FB60     		str	r3, [r7, #12]
 754:/home/fanxinhao/Work/LiteOS_Lab/iot_link/os/liteos/cmsis/2.0/cmsis_liteos2.c **** 
 755:/home/fanxinhao/Work/LiteOS_Lab/iot_link/os/liteos/cmsis/2.0/cmsis_liteos2.c ****     uwRet = LOS_TaskDelay(ticks);
 2385              		.loc 1 755 13
 2386 000c 7868     		ldr	r0, [r7, #4]
 2387 000e FFF7FEFF 		bl	LOS_TaskDelay
 2388 0012 F860     		str	r0, [r7, #12]
 756:/home/fanxinhao/Work/LiteOS_Lab/iot_link/os/liteos/cmsis/2.0/cmsis_liteos2.c ****     if(uwRet == LOS_OK)
 2389              		.loc 1 756 7
 2390 0014 FB68     		ldr	r3, [r7, #12]
 2391 0016 002B     		cmp	r3, #0
 2392 0018 01D1     		bne	.L202
 757:/home/fanxinhao/Work/LiteOS_Lab/iot_link/os/liteos/cmsis/2.0/cmsis_liteos2.c ****     {
 758:/home/fanxinhao/Work/LiteOS_Lab/iot_link/os/liteos/cmsis/2.0/cmsis_liteos2.c ****         return osOK;
 2393              		.loc 1 758 16
 2394 001a 0023     		movs	r3, #0
 2395 001c 01E0     		b	.L203
 2396              	.L202:
 759:/home/fanxinhao/Work/LiteOS_Lab/iot_link/os/liteos/cmsis/2.0/cmsis_liteos2.c ****     }
 760:/home/fanxinhao/Work/LiteOS_Lab/iot_link/os/liteos/cmsis/2.0/cmsis_liteos2.c ****     else
 761:/home/fanxinhao/Work/LiteOS_Lab/iot_link/os/liteos/cmsis/2.0/cmsis_liteos2.c ****     {
 762:/home/fanxinhao/Work/LiteOS_Lab/iot_link/os/liteos/cmsis/2.0/cmsis_liteos2.c ****         return osError;
 2397              		.loc 1 762 16
 2398 001e 4FF0FF33 		mov	r3, #-1
 2399              	.L203:
 763:/home/fanxinhao/Work/LiteOS_Lab/iot_link/os/liteos/cmsis/2.0/cmsis_liteos2.c ****     }
 764:/home/fanxinhao/Work/LiteOS_Lab/iot_link/os/liteos/cmsis/2.0/cmsis_liteos2.c **** }
 2400              		.loc 1 764 1
 2401 0022 1846     		mov	r0, r3
 2402 0024 1037     		adds	r7, r7, #16
 2403              	.LCFI132:
 2404              		.cfi_def_cfa_offset 8
 2405 0026 BD46     		mov	sp, r7
 2406              	.LCFI133:
 2407              		.cfi_def_cfa_register 13
 2408              		@ sp needed
 2409 0028 80BD     		pop	{r7, pc}
 2410              		.cfi_endproc
 2411              	.LFE162:
 2413              		.section	.text.osDelayUntil,"ax",%progbits
 2414              		.align	1
 2415              		.global	osDelayUntil
ARM GAS  /tmp/ccKdD4IP.s 			page 56


 2416              		.syntax unified
 2417              		.thumb
 2418              		.thumb_func
 2419              		.fpu fpv4-sp-d16
 2421              	osDelayUntil:
 2422              	.LFB163:
 765:/home/fanxinhao/Work/LiteOS_Lab/iot_link/os/liteos/cmsis/2.0/cmsis_liteos2.c **** 
 766:/home/fanxinhao/Work/LiteOS_Lab/iot_link/os/liteos/cmsis/2.0/cmsis_liteos2.c **** 
 767:/home/fanxinhao/Work/LiteOS_Lab/iot_link/os/liteos/cmsis/2.0/cmsis_liteos2.c **** osStatus_t osDelayUntil (uint64_t ticks)
 768:/home/fanxinhao/Work/LiteOS_Lab/iot_link/os/liteos/cmsis/2.0/cmsis_liteos2.c **** {
 2423              		.loc 1 768 1
 2424              		.cfi_startproc
 2425              		@ args = 0, pretend = 0, frame = 24
 2426              		@ frame_needed = 1, uses_anonymous_args = 0
 2427 0000 80B5     		push	{r7, lr}
 2428              	.LCFI134:
 2429              		.cfi_def_cfa_offset 8
 2430              		.cfi_offset 7, -8
 2431              		.cfi_offset 14, -4
 2432 0002 86B0     		sub	sp, sp, #24
 2433              	.LCFI135:
 2434              		.cfi_def_cfa_offset 32
 2435 0004 00AF     		add	r7, sp, #0
 2436              	.LCFI136:
 2437              		.cfi_def_cfa_register 7
 2438 0006 C7E90001 		strd	r0, [r7]
 769:/home/fanxinhao/Work/LiteOS_Lab/iot_link/os/liteos/cmsis/2.0/cmsis_liteos2.c ****     UINT32 uwRet;
 770:/home/fanxinhao/Work/LiteOS_Lab/iot_link/os/liteos/cmsis/2.0/cmsis_liteos2.c ****     UINT32 uwTicks;
 771:/home/fanxinhao/Work/LiteOS_Lab/iot_link/os/liteos/cmsis/2.0/cmsis_liteos2.c ****     UINT64 tickCount = osKernelGetTickCount();
 2439              		.loc 1 771 24
 2440 000a FFF7FEFF 		bl	osKernelGetTickCount
 2441 000e C7E90401 		strd	r0, [r7, #16]
 772:/home/fanxinhao/Work/LiteOS_Lab/iot_link/os/liteos/cmsis/2.0/cmsis_liteos2.c **** 
 773:/home/fanxinhao/Work/LiteOS_Lab/iot_link/os/liteos/cmsis/2.0/cmsis_liteos2.c ****     if(ticks < tickCount)
 2442              		.loc 1 773 7
 2443 0012 D7E90001 		ldrd	r0, [r7]
 2444 0016 D7E90423 		ldrd	r2, [r7, #16]
 2445 001a 9942     		cmp	r1, r3
 2446 001c 08BF     		it	eq
 2447 001e 9042     		cmpeq	r0, r2
 2448 0020 02D2     		bcs	.L205
 774:/home/fanxinhao/Work/LiteOS_Lab/iot_link/os/liteos/cmsis/2.0/cmsis_liteos2.c ****     {
 775:/home/fanxinhao/Work/LiteOS_Lab/iot_link/os/liteos/cmsis/2.0/cmsis_liteos2.c ****         return osError;
 2449              		.loc 1 775 16
 2450 0022 4FF0FF33 		mov	r3, #-1
 2451 0026 0EE0     		b	.L206
 2452              	.L205:
 776:/home/fanxinhao/Work/LiteOS_Lab/iot_link/os/liteos/cmsis/2.0/cmsis_liteos2.c ****     }
 777:/home/fanxinhao/Work/LiteOS_Lab/iot_link/os/liteos/cmsis/2.0/cmsis_liteos2.c **** 
 778:/home/fanxinhao/Work/LiteOS_Lab/iot_link/os/liteos/cmsis/2.0/cmsis_liteos2.c ****     uwTicks = (UINT32)(ticks - tickCount);
 2453              		.loc 1 778 15
 2454 0028 3A68     		ldr	r2, [r7]
 2455 002a 3B69     		ldr	r3, [r7, #16]
 2456              		.loc 1 778 13
 2457 002c D31A     		subs	r3, r2, r3
 2458 002e FB60     		str	r3, [r7, #12]
 779:/home/fanxinhao/Work/LiteOS_Lab/iot_link/os/liteos/cmsis/2.0/cmsis_liteos2.c **** 
ARM GAS  /tmp/ccKdD4IP.s 			page 57


 780:/home/fanxinhao/Work/LiteOS_Lab/iot_link/os/liteos/cmsis/2.0/cmsis_liteos2.c ****     uwRet = LOS_TaskDelay(uwTicks);
 2459              		.loc 1 780 13
 2460 0030 F868     		ldr	r0, [r7, #12]
 2461 0032 FFF7FEFF 		bl	LOS_TaskDelay
 2462 0036 B860     		str	r0, [r7, #8]
 781:/home/fanxinhao/Work/LiteOS_Lab/iot_link/os/liteos/cmsis/2.0/cmsis_liteos2.c ****     if(uwRet == LOS_OK)
 2463              		.loc 1 781 7
 2464 0038 BB68     		ldr	r3, [r7, #8]
 2465 003a 002B     		cmp	r3, #0
 2466 003c 01D1     		bne	.L207
 782:/home/fanxinhao/Work/LiteOS_Lab/iot_link/os/liteos/cmsis/2.0/cmsis_liteos2.c ****     {
 783:/home/fanxinhao/Work/LiteOS_Lab/iot_link/os/liteos/cmsis/2.0/cmsis_liteos2.c ****         return osOK;
 2467              		.loc 1 783 16
 2468 003e 0023     		movs	r3, #0
 2469 0040 01E0     		b	.L206
 2470              	.L207:
 784:/home/fanxinhao/Work/LiteOS_Lab/iot_link/os/liteos/cmsis/2.0/cmsis_liteos2.c ****     }
 785:/home/fanxinhao/Work/LiteOS_Lab/iot_link/os/liteos/cmsis/2.0/cmsis_liteos2.c ****     else
 786:/home/fanxinhao/Work/LiteOS_Lab/iot_link/os/liteos/cmsis/2.0/cmsis_liteos2.c ****     {
 787:/home/fanxinhao/Work/LiteOS_Lab/iot_link/os/liteos/cmsis/2.0/cmsis_liteos2.c ****         return osError;
 2471              		.loc 1 787 16
 2472 0042 4FF0FF33 		mov	r3, #-1
 2473              	.L206:
 788:/home/fanxinhao/Work/LiteOS_Lab/iot_link/os/liteos/cmsis/2.0/cmsis_liteos2.c ****     }
 789:/home/fanxinhao/Work/LiteOS_Lab/iot_link/os/liteos/cmsis/2.0/cmsis_liteos2.c **** }
 2474              		.loc 1 789 1
 2475 0046 1846     		mov	r0, r3
 2476 0048 1837     		adds	r7, r7, #24
 2477              	.LCFI137:
 2478              		.cfi_def_cfa_offset 8
 2479 004a BD46     		mov	sp, r7
 2480              	.LCFI138:
 2481              		.cfi_def_cfa_register 13
 2482              		@ sp needed
 2483 004c 80BD     		pop	{r7, pc}
 2484              		.cfi_endproc
 2485              	.LFE163:
 2487              		.section	.text.osTimerNew,"ax",%progbits
 2488              		.align	1
 2489              		.global	osTimerNew
 2490              		.syntax unified
 2491              		.thumb
 2492              		.thumb_func
 2493              		.fpu fpv4-sp-d16
 2495              	osTimerNew:
 2496              	.LFB164:
 790:/home/fanxinhao/Work/LiteOS_Lab/iot_link/os/liteos/cmsis/2.0/cmsis_liteos2.c **** 
 791:/home/fanxinhao/Work/LiteOS_Lab/iot_link/os/liteos/cmsis/2.0/cmsis_liteos2.c **** //  ==== Timer Management Functions ====
 792:/home/fanxinhao/Work/LiteOS_Lab/iot_link/os/liteos/cmsis/2.0/cmsis_liteos2.c **** #if (LOSCFG_BASE_CORE_SWTMR == YES)
 793:/home/fanxinhao/Work/LiteOS_Lab/iot_link/os/liteos/cmsis/2.0/cmsis_liteos2.c **** osTimerId_t osTimerNew (osTimerFunc_t func, osTimerType_t type, void *argument, const osTimerAttr_t
 794:/home/fanxinhao/Work/LiteOS_Lab/iot_link/os/liteos/cmsis/2.0/cmsis_liteos2.c **** {
 2497              		.loc 1 794 1
 2498              		.cfi_startproc
 2499              		@ args = 0, pretend = 0, frame = 24
 2500              		@ frame_needed = 1, uses_anonymous_args = 0
 2501 0000 80B5     		push	{r7, lr}
 2502              	.LCFI139:
ARM GAS  /tmp/ccKdD4IP.s 			page 58


 2503              		.cfi_def_cfa_offset 8
 2504              		.cfi_offset 7, -8
 2505              		.cfi_offset 14, -4
 2506 0002 8AB0     		sub	sp, sp, #40
 2507              	.LCFI140:
 2508              		.cfi_def_cfa_offset 48
 2509 0004 04AF     		add	r7, sp, #16
 2510              	.LCFI141:
 2511              		.cfi_def_cfa 7, 32
 2512 0006 F860     		str	r0, [r7, #12]
 2513 0008 7A60     		str	r2, [r7, #4]
 2514 000a 3B60     		str	r3, [r7]
 2515 000c 0B46     		mov	r3, r1
 2516 000e FB72     		strb	r3, [r7, #11]
 795:/home/fanxinhao/Work/LiteOS_Lab/iot_link/os/liteos/cmsis/2.0/cmsis_liteos2.c ****     UNUSED(attr);
 796:/home/fanxinhao/Work/LiteOS_Lab/iot_link/os/liteos/cmsis/2.0/cmsis_liteos2.c ****     UINT16 usSwTmrID;
 797:/home/fanxinhao/Work/LiteOS_Lab/iot_link/os/liteos/cmsis/2.0/cmsis_liteos2.c ****     UINT8 mode;
 798:/home/fanxinhao/Work/LiteOS_Lab/iot_link/os/liteos/cmsis/2.0/cmsis_liteos2.c **** 
 799:/home/fanxinhao/Work/LiteOS_Lab/iot_link/os/liteos/cmsis/2.0/cmsis_liteos2.c ****     if ((OS_INT_ACTIVE) || (NULL == func) ||
 2517              		.loc 1 799 10
 2518 0010 1B4B     		ldr	r3, .L216
 2519 0012 1B68     		ldr	r3, [r3]
 2520              		.loc 1 799 8
 2521 0014 002B     		cmp	r3, #0
 2522 0016 08D1     		bne	.L209
 2523              		.loc 1 799 25 discriminator 1
 2524 0018 FB68     		ldr	r3, [r7, #12]
 2525 001a 002B     		cmp	r3, #0
 2526 001c 05D0     		beq	.L209
 2527              		.loc 1 799 43 discriminator 2
 2528 001e FB7A     		ldrb	r3, [r7, #11]	@ zero_extendqisi2
 2529 0020 002B     		cmp	r3, #0
 2530 0022 04D0     		beq	.L210
 800:/home/fanxinhao/Work/LiteOS_Lab/iot_link/os/liteos/cmsis/2.0/cmsis_liteos2.c ****             ((osTimerOnce != type) && (osTimerPeriodic != type)))
 2531              		.loc 1 800 36
 2532 0024 FB7A     		ldrb	r3, [r7, #11]	@ zero_extendqisi2
 2533 0026 012B     		cmp	r3, #1
 2534 0028 01D0     		beq	.L210
 2535              	.L209:
 801:/home/fanxinhao/Work/LiteOS_Lab/iot_link/os/liteos/cmsis/2.0/cmsis_liteos2.c ****     {
 802:/home/fanxinhao/Work/LiteOS_Lab/iot_link/os/liteos/cmsis/2.0/cmsis_liteos2.c ****         return (osTimerId_t)NULL;
 2536              		.loc 1 802 16
 2537 002a 0023     		movs	r3, #0
 2538 002c 24E0     		b	.L215
 2539              	.L210:
 803:/home/fanxinhao/Work/LiteOS_Lab/iot_link/os/liteos/cmsis/2.0/cmsis_liteos2.c ****     }
 804:/home/fanxinhao/Work/LiteOS_Lab/iot_link/os/liteos/cmsis/2.0/cmsis_liteos2.c **** 
 805:/home/fanxinhao/Work/LiteOS_Lab/iot_link/os/liteos/cmsis/2.0/cmsis_liteos2.c ****     if(osTimerOnce == type)
 2540              		.loc 1 805 7
 2541 002e FB7A     		ldrb	r3, [r7, #11]	@ zero_extendqisi2
 2542 0030 002B     		cmp	r3, #0
 2543 0032 02D1     		bne	.L212
 806:/home/fanxinhao/Work/LiteOS_Lab/iot_link/os/liteos/cmsis/2.0/cmsis_liteos2.c ****     {
 807:/home/fanxinhao/Work/LiteOS_Lab/iot_link/os/liteos/cmsis/2.0/cmsis_liteos2.c ****         mode = LOS_SWTMR_MODE_NO_SELFDELETE;
 2544              		.loc 1 807 14
 2545 0034 0223     		movs	r3, #2
 2546 0036 FB75     		strb	r3, [r7, #23]
ARM GAS  /tmp/ccKdD4IP.s 			page 59


 2547 0038 01E0     		b	.L213
 2548              	.L212:
 808:/home/fanxinhao/Work/LiteOS_Lab/iot_link/os/liteos/cmsis/2.0/cmsis_liteos2.c ****     }
 809:/home/fanxinhao/Work/LiteOS_Lab/iot_link/os/liteos/cmsis/2.0/cmsis_liteos2.c ****     else
 810:/home/fanxinhao/Work/LiteOS_Lab/iot_link/os/liteos/cmsis/2.0/cmsis_liteos2.c ****     {
 811:/home/fanxinhao/Work/LiteOS_Lab/iot_link/os/liteos/cmsis/2.0/cmsis_liteos2.c ****         mode = LOS_SWTMR_MODE_PERIOD;
 2549              		.loc 1 811 14
 2550 003a 0123     		movs	r3, #1
 2551 003c FB75     		strb	r3, [r7, #23]
 2552              	.L213:
 812:/home/fanxinhao/Work/LiteOS_Lab/iot_link/os/liteos/cmsis/2.0/cmsis_liteos2.c ****     }
 813:/home/fanxinhao/Work/LiteOS_Lab/iot_link/os/liteos/cmsis/2.0/cmsis_liteos2.c **** #if (LOSCFG_BASE_CORE_SWTMR_ALIGN == YES)
 814:/home/fanxinhao/Work/LiteOS_Lab/iot_link/os/liteos/cmsis/2.0/cmsis_liteos2.c ****     if (LOS_OK != LOS_SwtmrCreate(1, mode, (SWTMR_PROC_FUNC)func, &usSwTmrID, (UINT32)argument, OS_
 2553              		.loc 1 814 19
 2554 003e 7B68     		ldr	r3, [r7, #4]
 2555 0040 07F11402 		add	r2, r7, #20
 2556 0044 F97D     		ldrb	r1, [r7, #23]	@ zero_extendqisi2
 2557 0046 0020     		movs	r0, #0
 2558 0048 0290     		str	r0, [sp, #8]
 2559 004a 0120     		movs	r0, #1
 2560 004c 0190     		str	r0, [sp, #4]
 2561 004e 0093     		str	r3, [sp]
 2562 0050 1346     		mov	r3, r2
 2563 0052 FA68     		ldr	r2, [r7, #12]
 2564 0054 0120     		movs	r0, #1
 2565 0056 FFF7FEFF 		bl	LOS_SwtmrCreate
 2566 005a 0346     		mov	r3, r0
 2567              		.loc 1 814 8
 2568 005c 002B     		cmp	r3, #0
 2569 005e 01D0     		beq	.L214
 815:/home/fanxinhao/Work/LiteOS_Lab/iot_link/os/liteos/cmsis/2.0/cmsis_liteos2.c ****     {
 816:/home/fanxinhao/Work/LiteOS_Lab/iot_link/os/liteos/cmsis/2.0/cmsis_liteos2.c ****         return (osTimerId_t)NULL;
 2570              		.loc 1 816 16
 2571 0060 0023     		movs	r3, #0
 2572 0062 09E0     		b	.L215
 2573              	.L214:
 817:/home/fanxinhao/Work/LiteOS_Lab/iot_link/os/liteos/cmsis/2.0/cmsis_liteos2.c ****     }
 818:/home/fanxinhao/Work/LiteOS_Lab/iot_link/os/liteos/cmsis/2.0/cmsis_liteos2.c **** #else
 819:/home/fanxinhao/Work/LiteOS_Lab/iot_link/os/liteos/cmsis/2.0/cmsis_liteos2.c ****     if (LOS_OK != LOS_SwtmrCreate(1, mode, (SWTMR_PROC_FUNC)func, &usSwTmrID, (UINT32)argument))
 820:/home/fanxinhao/Work/LiteOS_Lab/iot_link/os/liteos/cmsis/2.0/cmsis_liteos2.c ****     {
 821:/home/fanxinhao/Work/LiteOS_Lab/iot_link/os/liteos/cmsis/2.0/cmsis_liteos2.c ****         return (osTimerId_t)NULL;
 822:/home/fanxinhao/Work/LiteOS_Lab/iot_link/os/liteos/cmsis/2.0/cmsis_liteos2.c ****     }
 823:/home/fanxinhao/Work/LiteOS_Lab/iot_link/os/liteos/cmsis/2.0/cmsis_liteos2.c **** #endif
 824:/home/fanxinhao/Work/LiteOS_Lab/iot_link/os/liteos/cmsis/2.0/cmsis_liteos2.c **** 
 825:/home/fanxinhao/Work/LiteOS_Lab/iot_link/os/liteos/cmsis/2.0/cmsis_liteos2.c ****     return (osTimerId_t)OS_SWT_FROM_SID(usSwTmrID);
 2574              		.loc 1 825 25
 2575 0064 074B     		ldr	r3, .L216+4
 2576 0066 1968     		ldr	r1, [r3]
 2577 0068 BB8A     		ldrh	r3, [r7, #20]
 2578 006a 03F00F02 		and	r2, r3, #15
 2579 006e 1346     		mov	r3, r2
 2580 0070 DB00     		lsls	r3, r3, #3
 2581 0072 9B1A     		subs	r3, r3, r2
 2582 0074 9B00     		lsls	r3, r3, #2
 2583              		.loc 1 825 12
 2584 0076 0B44     		add	r3, r3, r1
 2585              	.L215:
ARM GAS  /tmp/ccKdD4IP.s 			page 60


 826:/home/fanxinhao/Work/LiteOS_Lab/iot_link/os/liteos/cmsis/2.0/cmsis_liteos2.c **** }
 2586              		.loc 1 826 1 discriminator 1
 2587 0078 1846     		mov	r0, r3
 2588 007a 1837     		adds	r7, r7, #24
 2589              	.LCFI142:
 2590              		.cfi_def_cfa_offset 8
 2591 007c BD46     		mov	sp, r7
 2592              	.LCFI143:
 2593              		.cfi_def_cfa_register 13
 2594              		@ sp needed
 2595 007e 80BD     		pop	{r7, pc}
 2596              	.L217:
 2597              		.align	2
 2598              	.L216:
 2599 0080 00000000 		.word	g_vuwIntCount
 2600 0084 00000000 		.word	m_pstSwtmrCBArray
 2601              		.cfi_endproc
 2602              	.LFE164:
 2604              		.section	.text.osTimerStart,"ax",%progbits
 2605              		.align	1
 2606              		.global	osTimerStart
 2607              		.syntax unified
 2608              		.thumb
 2609              		.thumb_func
 2610              		.fpu fpv4-sp-d16
 2612              	osTimerStart:
 2613              	.LFB165:
 827:/home/fanxinhao/Work/LiteOS_Lab/iot_link/os/liteos/cmsis/2.0/cmsis_liteos2.c **** 
 828:/home/fanxinhao/Work/LiteOS_Lab/iot_link/os/liteos/cmsis/2.0/cmsis_liteos2.c **** 
 829:/home/fanxinhao/Work/LiteOS_Lab/iot_link/os/liteos/cmsis/2.0/cmsis_liteos2.c **** osStatus_t osTimerStart (osTimerId_t timer_id, uint32_t ticks)
 830:/home/fanxinhao/Work/LiteOS_Lab/iot_link/os/liteos/cmsis/2.0/cmsis_liteos2.c **** {
 2614              		.loc 1 830 1
 2615              		.cfi_startproc
 2616              		@ args = 0, pretend = 0, frame = 16
 2617              		@ frame_needed = 1, uses_anonymous_args = 0
 2618 0000 80B5     		push	{r7, lr}
 2619              	.LCFI144:
 2620              		.cfi_def_cfa_offset 8
 2621              		.cfi_offset 7, -8
 2622              		.cfi_offset 14, -4
 2623 0002 84B0     		sub	sp, sp, #16
 2624              	.LCFI145:
 2625              		.cfi_def_cfa_offset 24
 2626 0004 00AF     		add	r7, sp, #0
 2627              	.LCFI146:
 2628              		.cfi_def_cfa_register 7
 2629 0006 7860     		str	r0, [r7, #4]
 2630 0008 3960     		str	r1, [r7]
 831:/home/fanxinhao/Work/LiteOS_Lab/iot_link/os/liteos/cmsis/2.0/cmsis_liteos2.c ****     UINT32 uwRet;
 832:/home/fanxinhao/Work/LiteOS_Lab/iot_link/os/liteos/cmsis/2.0/cmsis_liteos2.c ****     SWTMR_CTRL_S *pstSwtmr;
 833:/home/fanxinhao/Work/LiteOS_Lab/iot_link/os/liteos/cmsis/2.0/cmsis_liteos2.c **** 
 834:/home/fanxinhao/Work/LiteOS_Lab/iot_link/os/liteos/cmsis/2.0/cmsis_liteos2.c ****     if ((0 == ticks) || (NULL == timer_id))
 2631              		.loc 1 834 8
 2632 000a 3B68     		ldr	r3, [r7]
 2633 000c 002B     		cmp	r3, #0
 2634 000e 02D0     		beq	.L219
 2635              		.loc 1 834 22 discriminator 1
ARM GAS  /tmp/ccKdD4IP.s 			page 61


 2636 0010 7B68     		ldr	r3, [r7, #4]
 2637 0012 002B     		cmp	r3, #0
 2638 0014 02D1     		bne	.L220
 2639              	.L219:
 835:/home/fanxinhao/Work/LiteOS_Lab/iot_link/os/liteos/cmsis/2.0/cmsis_liteos2.c ****     {
 836:/home/fanxinhao/Work/LiteOS_Lab/iot_link/os/liteos/cmsis/2.0/cmsis_liteos2.c ****         return osErrorParameter;
 2640              		.loc 1 836 16
 2641 0016 6FF00303 		mvn	r3, #3
 2642 001a 1BE0     		b	.L221
 2643              	.L220:
 837:/home/fanxinhao/Work/LiteOS_Lab/iot_link/os/liteos/cmsis/2.0/cmsis_liteos2.c ****     }
 838:/home/fanxinhao/Work/LiteOS_Lab/iot_link/os/liteos/cmsis/2.0/cmsis_liteos2.c **** 
 839:/home/fanxinhao/Work/LiteOS_Lab/iot_link/os/liteos/cmsis/2.0/cmsis_liteos2.c ****     pstSwtmr = (SWTMR_CTRL_S *)timer_id;
 2644              		.loc 1 839 14
 2645 001c 7B68     		ldr	r3, [r7, #4]
 2646 001e FB60     		str	r3, [r7, #12]
 840:/home/fanxinhao/Work/LiteOS_Lab/iot_link/os/liteos/cmsis/2.0/cmsis_liteos2.c ****     pstSwtmr->uwInterval = LOS_Tick2MS(ticks);
 2647              		.loc 1 840 28
 2648 0020 3868     		ldr	r0, [r7]
 2649 0022 FFF7FEFF 		bl	LOS_Tick2MS
 2650 0026 0246     		mov	r2, r0
 2651              		.loc 1 840 26
 2652 0028 FB68     		ldr	r3, [r7, #12]
 2653 002a 1A61     		str	r2, [r3, #16]
 841:/home/fanxinhao/Work/LiteOS_Lab/iot_link/os/liteos/cmsis/2.0/cmsis_liteos2.c ****     //pstSwtmr->uwExpiry = LOS_Tick2MS(ticks);
 842:/home/fanxinhao/Work/LiteOS_Lab/iot_link/os/liteos/cmsis/2.0/cmsis_liteos2.c ****     uwRet = LOS_SwtmrStart(pstSwtmr->usTimerID);
 2654              		.loc 1 842 13
 2655 002c FB68     		ldr	r3, [r7, #12]
 2656 002e 1B89     		ldrh	r3, [r3, #8]
 2657 0030 1846     		mov	r0, r3
 2658 0032 FFF7FEFF 		bl	LOS_SwtmrStart
 2659 0036 B860     		str	r0, [r7, #8]
 843:/home/fanxinhao/Work/LiteOS_Lab/iot_link/os/liteos/cmsis/2.0/cmsis_liteos2.c ****     if (LOS_OK == uwRet)
 2660              		.loc 1 843 8
 2661 0038 BB68     		ldr	r3, [r7, #8]
 2662 003a 002B     		cmp	r3, #0
 2663 003c 01D1     		bne	.L222
 844:/home/fanxinhao/Work/LiteOS_Lab/iot_link/os/liteos/cmsis/2.0/cmsis_liteos2.c ****     {
 845:/home/fanxinhao/Work/LiteOS_Lab/iot_link/os/liteos/cmsis/2.0/cmsis_liteos2.c ****         return osOK;
 2664              		.loc 1 845 16
 2665 003e 0023     		movs	r3, #0
 2666 0040 08E0     		b	.L221
 2667              	.L222:
 846:/home/fanxinhao/Work/LiteOS_Lab/iot_link/os/liteos/cmsis/2.0/cmsis_liteos2.c ****     }
 847:/home/fanxinhao/Work/LiteOS_Lab/iot_link/os/liteos/cmsis/2.0/cmsis_liteos2.c ****     else if (LOS_ERRNO_SWTMR_ID_INVALID == uwRet)
 2668              		.loc 1 847 13
 2669 0042 BB68     		ldr	r3, [r7, #8]
 2670 0044 054A     		ldr	r2, .L224
 2671 0046 9342     		cmp	r3, r2
 2672 0048 02D1     		bne	.L223
 848:/home/fanxinhao/Work/LiteOS_Lab/iot_link/os/liteos/cmsis/2.0/cmsis_liteos2.c ****     {
 849:/home/fanxinhao/Work/LiteOS_Lab/iot_link/os/liteos/cmsis/2.0/cmsis_liteos2.c ****         return osErrorParameter;
 2673              		.loc 1 849 16
 2674 004a 6FF00303 		mvn	r3, #3
 2675 004e 01E0     		b	.L221
 2676              	.L223:
 850:/home/fanxinhao/Work/LiteOS_Lab/iot_link/os/liteos/cmsis/2.0/cmsis_liteos2.c ****     }
ARM GAS  /tmp/ccKdD4IP.s 			page 62


 851:/home/fanxinhao/Work/LiteOS_Lab/iot_link/os/liteos/cmsis/2.0/cmsis_liteos2.c ****     else
 852:/home/fanxinhao/Work/LiteOS_Lab/iot_link/os/liteos/cmsis/2.0/cmsis_liteos2.c ****     {
 853:/home/fanxinhao/Work/LiteOS_Lab/iot_link/os/liteos/cmsis/2.0/cmsis_liteos2.c ****         return osErrorResource;
 2677              		.loc 1 853 16
 2678 0050 6FF00203 		mvn	r3, #2
 2679              	.L221:
 854:/home/fanxinhao/Work/LiteOS_Lab/iot_link/os/liteos/cmsis/2.0/cmsis_liteos2.c ****     }
 855:/home/fanxinhao/Work/LiteOS_Lab/iot_link/os/liteos/cmsis/2.0/cmsis_liteos2.c **** }
 2680              		.loc 1 855 1
 2681 0054 1846     		mov	r0, r3
 2682 0056 1037     		adds	r7, r7, #16
 2683              	.LCFI147:
 2684              		.cfi_def_cfa_offset 8
 2685 0058 BD46     		mov	sp, r7
 2686              	.LCFI148:
 2687              		.cfi_def_cfa_register 13
 2688              		@ sp needed
 2689 005a 80BD     		pop	{r7, pc}
 2690              	.L225:
 2691              		.align	2
 2692              	.L224:
 2693 005c 05030002 		.word	33555205
 2694              		.cfi_endproc
 2695              	.LFE165:
 2697              		.section	.text.osTimerGetName,"ax",%progbits
 2698              		.align	1
 2699              		.global	osTimerGetName
 2700              		.syntax unified
 2701              		.thumb
 2702              		.thumb_func
 2703              		.fpu fpv4-sp-d16
 2705              	osTimerGetName:
 2706              	.LFB166:
 856:/home/fanxinhao/Work/LiteOS_Lab/iot_link/os/liteos/cmsis/2.0/cmsis_liteos2.c **** 
 857:/home/fanxinhao/Work/LiteOS_Lab/iot_link/os/liteos/cmsis/2.0/cmsis_liteos2.c **** 
 858:/home/fanxinhao/Work/LiteOS_Lab/iot_link/os/liteos/cmsis/2.0/cmsis_liteos2.c **** const char *osTimerGetName(osTimerId_t timer_id)
 859:/home/fanxinhao/Work/LiteOS_Lab/iot_link/os/liteos/cmsis/2.0/cmsis_liteos2.c **** {
 2707              		.loc 1 859 1
 2708              		.cfi_startproc
 2709              		@ args = 0, pretend = 0, frame = 8
 2710              		@ frame_needed = 1, uses_anonymous_args = 0
 2711              		@ link register save eliminated.
 2712 0000 80B4     		push	{r7}
 2713              	.LCFI149:
 2714              		.cfi_def_cfa_offset 4
 2715              		.cfi_offset 7, -4
 2716 0002 83B0     		sub	sp, sp, #12
 2717              	.LCFI150:
 2718              		.cfi_def_cfa_offset 16
 2719 0004 00AF     		add	r7, sp, #0
 2720              	.LCFI151:
 2721              		.cfi_def_cfa_register 7
 2722 0006 7860     		str	r0, [r7, #4]
 860:/home/fanxinhao/Work/LiteOS_Lab/iot_link/os/liteos/cmsis/2.0/cmsis_liteos2.c ****     UNUSED(timer_id);
 861:/home/fanxinhao/Work/LiteOS_Lab/iot_link/os/liteos/cmsis/2.0/cmsis_liteos2.c ****     return (const char *)NULL;
 2723              		.loc 1 861 12
 2724 0008 0023     		movs	r3, #0
ARM GAS  /tmp/ccKdD4IP.s 			page 63


 862:/home/fanxinhao/Work/LiteOS_Lab/iot_link/os/liteos/cmsis/2.0/cmsis_liteos2.c **** }
 2725              		.loc 1 862 1
 2726 000a 1846     		mov	r0, r3
 2727 000c 0C37     		adds	r7, r7, #12
 2728              	.LCFI152:
 2729              		.cfi_def_cfa_offset 4
 2730 000e BD46     		mov	sp, r7
 2731              	.LCFI153:
 2732              		.cfi_def_cfa_register 13
 2733              		@ sp needed
 2734 0010 5DF8047B 		ldr	r7, [sp], #4
 2735              	.LCFI154:
 2736              		.cfi_restore 7
 2737              		.cfi_def_cfa_offset 0
 2738 0014 7047     		bx	lr
 2739              		.cfi_endproc
 2740              	.LFE166:
 2742              		.section	.text.osTimerStop,"ax",%progbits
 2743              		.align	1
 2744              		.global	osTimerStop
 2745              		.syntax unified
 2746              		.thumb
 2747              		.thumb_func
 2748              		.fpu fpv4-sp-d16
 2750              	osTimerStop:
 2751              	.LFB167:
 863:/home/fanxinhao/Work/LiteOS_Lab/iot_link/os/liteos/cmsis/2.0/cmsis_liteos2.c **** 
 864:/home/fanxinhao/Work/LiteOS_Lab/iot_link/os/liteos/cmsis/2.0/cmsis_liteos2.c **** 
 865:/home/fanxinhao/Work/LiteOS_Lab/iot_link/os/liteos/cmsis/2.0/cmsis_liteos2.c **** osStatus_t osTimerStop (osTimerId_t timer_id)
 866:/home/fanxinhao/Work/LiteOS_Lab/iot_link/os/liteos/cmsis/2.0/cmsis_liteos2.c **** {
 2752              		.loc 1 866 1
 2753              		.cfi_startproc
 2754              		@ args = 0, pretend = 0, frame = 16
 2755              		@ frame_needed = 1, uses_anonymous_args = 0
 2756 0000 80B5     		push	{r7, lr}
 2757              	.LCFI155:
 2758              		.cfi_def_cfa_offset 8
 2759              		.cfi_offset 7, -8
 2760              		.cfi_offset 14, -4
 2761 0002 84B0     		sub	sp, sp, #16
 2762              	.LCFI156:
 2763              		.cfi_def_cfa_offset 24
 2764 0004 00AF     		add	r7, sp, #0
 2765              	.LCFI157:
 2766              		.cfi_def_cfa_register 7
 2767 0006 7860     		str	r0, [r7, #4]
 867:/home/fanxinhao/Work/LiteOS_Lab/iot_link/os/liteos/cmsis/2.0/cmsis_liteos2.c ****     UINT32 uwRet;
 868:/home/fanxinhao/Work/LiteOS_Lab/iot_link/os/liteos/cmsis/2.0/cmsis_liteos2.c ****     SWTMR_CTRL_S *pstSwtmr = (SWTMR_CTRL_S *)timer_id;
 2768              		.loc 1 868 19
 2769 0008 7B68     		ldr	r3, [r7, #4]
 2770 000a FB60     		str	r3, [r7, #12]
 869:/home/fanxinhao/Work/LiteOS_Lab/iot_link/os/liteos/cmsis/2.0/cmsis_liteos2.c **** 
 870:/home/fanxinhao/Work/LiteOS_Lab/iot_link/os/liteos/cmsis/2.0/cmsis_liteos2.c ****     if (OS_INT_ACTIVE)
 2771              		.loc 1 870 9
 2772 000c 124B     		ldr	r3, .L234
 2773 000e 1B68     		ldr	r3, [r3]
 2774              		.loc 1 870 8
ARM GAS  /tmp/ccKdD4IP.s 			page 64


 2775 0010 002B     		cmp	r3, #0
 2776 0012 02D0     		beq	.L229
 871:/home/fanxinhao/Work/LiteOS_Lab/iot_link/os/liteos/cmsis/2.0/cmsis_liteos2.c ****     {
 872:/home/fanxinhao/Work/LiteOS_Lab/iot_link/os/liteos/cmsis/2.0/cmsis_liteos2.c ****         return osErrorISR;
 2777              		.loc 1 872 16
 2778 0014 6FF00503 		mvn	r3, #5
 2779 0018 19E0     		b	.L230
 2780              	.L229:
 873:/home/fanxinhao/Work/LiteOS_Lab/iot_link/os/liteos/cmsis/2.0/cmsis_liteos2.c ****     }
 874:/home/fanxinhao/Work/LiteOS_Lab/iot_link/os/liteos/cmsis/2.0/cmsis_liteos2.c **** 
 875:/home/fanxinhao/Work/LiteOS_Lab/iot_link/os/liteos/cmsis/2.0/cmsis_liteos2.c ****     if (NULL == pstSwtmr)
 2781              		.loc 1 875 8
 2782 001a FB68     		ldr	r3, [r7, #12]
 2783 001c 002B     		cmp	r3, #0
 2784 001e 02D1     		bne	.L231
 876:/home/fanxinhao/Work/LiteOS_Lab/iot_link/os/liteos/cmsis/2.0/cmsis_liteos2.c ****     {
 877:/home/fanxinhao/Work/LiteOS_Lab/iot_link/os/liteos/cmsis/2.0/cmsis_liteos2.c ****         return osErrorParameter;
 2785              		.loc 1 877 16
 2786 0020 6FF00303 		mvn	r3, #3
 2787 0024 13E0     		b	.L230
 2788              	.L231:
 878:/home/fanxinhao/Work/LiteOS_Lab/iot_link/os/liteos/cmsis/2.0/cmsis_liteos2.c ****     }
 879:/home/fanxinhao/Work/LiteOS_Lab/iot_link/os/liteos/cmsis/2.0/cmsis_liteos2.c **** 
 880:/home/fanxinhao/Work/LiteOS_Lab/iot_link/os/liteos/cmsis/2.0/cmsis_liteos2.c ****     uwRet = LOS_SwtmrStop(pstSwtmr->usTimerID);
 2789              		.loc 1 880 13
 2790 0026 FB68     		ldr	r3, [r7, #12]
 2791 0028 1B89     		ldrh	r3, [r3, #8]
 2792 002a 1846     		mov	r0, r3
 2793 002c FFF7FEFF 		bl	LOS_SwtmrStop
 2794 0030 B860     		str	r0, [r7, #8]
 881:/home/fanxinhao/Work/LiteOS_Lab/iot_link/os/liteos/cmsis/2.0/cmsis_liteos2.c ****     if (LOS_OK == uwRet)
 2795              		.loc 1 881 8
 2796 0032 BB68     		ldr	r3, [r7, #8]
 2797 0034 002B     		cmp	r3, #0
 2798 0036 01D1     		bne	.L232
 882:/home/fanxinhao/Work/LiteOS_Lab/iot_link/os/liteos/cmsis/2.0/cmsis_liteos2.c ****     {
 883:/home/fanxinhao/Work/LiteOS_Lab/iot_link/os/liteos/cmsis/2.0/cmsis_liteos2.c ****         return osOK;
 2799              		.loc 1 883 16
 2800 0038 0023     		movs	r3, #0
 2801 003a 08E0     		b	.L230
 2802              	.L232:
 884:/home/fanxinhao/Work/LiteOS_Lab/iot_link/os/liteos/cmsis/2.0/cmsis_liteos2.c ****     }
 885:/home/fanxinhao/Work/LiteOS_Lab/iot_link/os/liteos/cmsis/2.0/cmsis_liteos2.c ****     else if (LOS_ERRNO_SWTMR_ID_INVALID == uwRet)
 2803              		.loc 1 885 13
 2804 003c BB68     		ldr	r3, [r7, #8]
 2805 003e 074A     		ldr	r2, .L234+4
 2806 0040 9342     		cmp	r3, r2
 2807 0042 02D1     		bne	.L233
 886:/home/fanxinhao/Work/LiteOS_Lab/iot_link/os/liteos/cmsis/2.0/cmsis_liteos2.c ****     {
 887:/home/fanxinhao/Work/LiteOS_Lab/iot_link/os/liteos/cmsis/2.0/cmsis_liteos2.c ****         return osErrorParameter;
 2808              		.loc 1 887 16
 2809 0044 6FF00303 		mvn	r3, #3
 2810 0048 01E0     		b	.L230
 2811              	.L233:
 888:/home/fanxinhao/Work/LiteOS_Lab/iot_link/os/liteos/cmsis/2.0/cmsis_liteos2.c ****     }
 889:/home/fanxinhao/Work/LiteOS_Lab/iot_link/os/liteos/cmsis/2.0/cmsis_liteos2.c ****     else
 890:/home/fanxinhao/Work/LiteOS_Lab/iot_link/os/liteos/cmsis/2.0/cmsis_liteos2.c ****     {
ARM GAS  /tmp/ccKdD4IP.s 			page 65


 891:/home/fanxinhao/Work/LiteOS_Lab/iot_link/os/liteos/cmsis/2.0/cmsis_liteos2.c ****         return osErrorResource;
 2812              		.loc 1 891 16
 2813 004a 6FF00203 		mvn	r3, #2
 2814              	.L230:
 892:/home/fanxinhao/Work/LiteOS_Lab/iot_link/os/liteos/cmsis/2.0/cmsis_liteos2.c ****     }
 893:/home/fanxinhao/Work/LiteOS_Lab/iot_link/os/liteos/cmsis/2.0/cmsis_liteos2.c **** }
 2815              		.loc 1 893 1
 2816 004e 1846     		mov	r0, r3
 2817 0050 1037     		adds	r7, r7, #16
 2818              	.LCFI158:
 2819              		.cfi_def_cfa_offset 8
 2820 0052 BD46     		mov	sp, r7
 2821              	.LCFI159:
 2822              		.cfi_def_cfa_register 13
 2823              		@ sp needed
 2824 0054 80BD     		pop	{r7, pc}
 2825              	.L235:
 2826 0056 00BF     		.align	2
 2827              	.L234:
 2828 0058 00000000 		.word	g_vuwIntCount
 2829 005c 05030002 		.word	33555205
 2830              		.cfi_endproc
 2831              	.LFE167:
 2833              		.section	.text.osTimerIsRunning,"ax",%progbits
 2834              		.align	1
 2835              		.global	osTimerIsRunning
 2836              		.syntax unified
 2837              		.thumb
 2838              		.thumb_func
 2839              		.fpu fpv4-sp-d16
 2841              	osTimerIsRunning:
 2842              	.LFB168:
 894:/home/fanxinhao/Work/LiteOS_Lab/iot_link/os/liteos/cmsis/2.0/cmsis_liteos2.c **** 
 895:/home/fanxinhao/Work/LiteOS_Lab/iot_link/os/liteos/cmsis/2.0/cmsis_liteos2.c **** 
 896:/home/fanxinhao/Work/LiteOS_Lab/iot_link/os/liteos/cmsis/2.0/cmsis_liteos2.c **** uint32_t osTimerIsRunning (osTimerId_t timer_id)
 897:/home/fanxinhao/Work/LiteOS_Lab/iot_link/os/liteos/cmsis/2.0/cmsis_liteos2.c **** {
 2843              		.loc 1 897 1
 2844              		.cfi_startproc
 2845              		@ args = 0, pretend = 0, frame = 8
 2846              		@ frame_needed = 1, uses_anonymous_args = 0
 2847              		@ link register save eliminated.
 2848 0000 80B4     		push	{r7}
 2849              	.LCFI160:
 2850              		.cfi_def_cfa_offset 4
 2851              		.cfi_offset 7, -4
 2852 0002 83B0     		sub	sp, sp, #12
 2853              	.LCFI161:
 2854              		.cfi_def_cfa_offset 16
 2855 0004 00AF     		add	r7, sp, #0
 2856              	.LCFI162:
 2857              		.cfi_def_cfa_register 7
 2858 0006 7860     		str	r0, [r7, #4]
 898:/home/fanxinhao/Work/LiteOS_Lab/iot_link/os/liteos/cmsis/2.0/cmsis_liteos2.c ****     if ((OS_INT_ACTIVE) || (NULL == timer_id))
 2859              		.loc 1 898 10
 2860 0008 0A4B     		ldr	r3, .L240
 2861 000a 1B68     		ldr	r3, [r3]
 2862              		.loc 1 898 8
ARM GAS  /tmp/ccKdD4IP.s 			page 66


 2863 000c 002B     		cmp	r3, #0
 2864 000e 02D1     		bne	.L237
 2865              		.loc 1 898 25 discriminator 1
 2866 0010 7B68     		ldr	r3, [r7, #4]
 2867 0012 002B     		cmp	r3, #0
 2868 0014 01D1     		bne	.L238
 2869              	.L237:
 899:/home/fanxinhao/Work/LiteOS_Lab/iot_link/os/liteos/cmsis/2.0/cmsis_liteos2.c ****     {
 900:/home/fanxinhao/Work/LiteOS_Lab/iot_link/os/liteos/cmsis/2.0/cmsis_liteos2.c ****         return 0;
 2870              		.loc 1 900 16
 2871 0016 0023     		movs	r3, #0
 2872 0018 06E0     		b	.L239
 2873              	.L238:
 901:/home/fanxinhao/Work/LiteOS_Lab/iot_link/os/liteos/cmsis/2.0/cmsis_liteos2.c ****     }
 902:/home/fanxinhao/Work/LiteOS_Lab/iot_link/os/liteos/cmsis/2.0/cmsis_liteos2.c **** 
 903:/home/fanxinhao/Work/LiteOS_Lab/iot_link/os/liteos/cmsis/2.0/cmsis_liteos2.c ****     return (OS_SWTMR_STATUS_TICKING == ((SWTMR_CTRL_S *)timer_id)->ucState);
 2874              		.loc 1 903 66
 2875 001a 7B68     		ldr	r3, [r7, #4]
 2876 001c 1B79     		ldrb	r3, [r3, #4]	@ zero_extendqisi2
 2877              		.loc 1 903 37
 2878 001e 022B     		cmp	r3, #2
 2879 0020 0CBF     		ite	eq
 2880 0022 0123     		moveq	r3, #1
 2881 0024 0023     		movne	r3, #0
 2882 0026 DBB2     		uxtb	r3, r3
 2883              	.L239:
 904:/home/fanxinhao/Work/LiteOS_Lab/iot_link/os/liteos/cmsis/2.0/cmsis_liteos2.c **** }
 2884              		.loc 1 904 1
 2885 0028 1846     		mov	r0, r3
 2886 002a 0C37     		adds	r7, r7, #12
 2887              	.LCFI163:
 2888              		.cfi_def_cfa_offset 4
 2889 002c BD46     		mov	sp, r7
 2890              	.LCFI164:
 2891              		.cfi_def_cfa_register 13
 2892              		@ sp needed
 2893 002e 5DF8047B 		ldr	r7, [sp], #4
 2894              	.LCFI165:
 2895              		.cfi_restore 7
 2896              		.cfi_def_cfa_offset 0
 2897 0032 7047     		bx	lr
 2898              	.L241:
 2899              		.align	2
 2900              	.L240:
 2901 0034 00000000 		.word	g_vuwIntCount
 2902              		.cfi_endproc
 2903              	.LFE168:
 2905              		.section	.text.osTimerDelete,"ax",%progbits
 2906              		.align	1
 2907              		.global	osTimerDelete
 2908              		.syntax unified
 2909              		.thumb
 2910              		.thumb_func
 2911              		.fpu fpv4-sp-d16
 2913              	osTimerDelete:
 2914              	.LFB169:
 905:/home/fanxinhao/Work/LiteOS_Lab/iot_link/os/liteos/cmsis/2.0/cmsis_liteos2.c **** 
ARM GAS  /tmp/ccKdD4IP.s 			page 67


 906:/home/fanxinhao/Work/LiteOS_Lab/iot_link/os/liteos/cmsis/2.0/cmsis_liteos2.c **** 
 907:/home/fanxinhao/Work/LiteOS_Lab/iot_link/os/liteos/cmsis/2.0/cmsis_liteos2.c **** osStatus_t osTimerDelete (osTimerId_t timer_id)
 908:/home/fanxinhao/Work/LiteOS_Lab/iot_link/os/liteos/cmsis/2.0/cmsis_liteos2.c **** {
 2915              		.loc 1 908 1
 2916              		.cfi_startproc
 2917              		@ args = 0, pretend = 0, frame = 16
 2918              		@ frame_needed = 1, uses_anonymous_args = 0
 2919 0000 80B5     		push	{r7, lr}
 2920              	.LCFI166:
 2921              		.cfi_def_cfa_offset 8
 2922              		.cfi_offset 7, -8
 2923              		.cfi_offset 14, -4
 2924 0002 84B0     		sub	sp, sp, #16
 2925              	.LCFI167:
 2926              		.cfi_def_cfa_offset 24
 2927 0004 00AF     		add	r7, sp, #0
 2928              	.LCFI168:
 2929              		.cfi_def_cfa_register 7
 2930 0006 7860     		str	r0, [r7, #4]
 909:/home/fanxinhao/Work/LiteOS_Lab/iot_link/os/liteos/cmsis/2.0/cmsis_liteos2.c ****     UINT32 uwRet;
 910:/home/fanxinhao/Work/LiteOS_Lab/iot_link/os/liteos/cmsis/2.0/cmsis_liteos2.c ****     SWTMR_CTRL_S  *pstSwtmr = (SWTMR_CTRL_S *)timer_id;
 2931              		.loc 1 910 20
 2932 0008 7B68     		ldr	r3, [r7, #4]
 2933 000a FB60     		str	r3, [r7, #12]
 911:/home/fanxinhao/Work/LiteOS_Lab/iot_link/os/liteos/cmsis/2.0/cmsis_liteos2.c **** 
 912:/home/fanxinhao/Work/LiteOS_Lab/iot_link/os/liteos/cmsis/2.0/cmsis_liteos2.c ****     if (OS_INT_ACTIVE)
 2934              		.loc 1 912 9
 2935 000c 124B     		ldr	r3, .L248
 2936 000e 1B68     		ldr	r3, [r3]
 2937              		.loc 1 912 8
 2938 0010 002B     		cmp	r3, #0
 2939 0012 02D0     		beq	.L243
 913:/home/fanxinhao/Work/LiteOS_Lab/iot_link/os/liteos/cmsis/2.0/cmsis_liteos2.c ****     {
 914:/home/fanxinhao/Work/LiteOS_Lab/iot_link/os/liteos/cmsis/2.0/cmsis_liteos2.c ****         return osErrorISR;
 2940              		.loc 1 914 16
 2941 0014 6FF00503 		mvn	r3, #5
 2942 0018 19E0     		b	.L244
 2943              	.L243:
 915:/home/fanxinhao/Work/LiteOS_Lab/iot_link/os/liteos/cmsis/2.0/cmsis_liteos2.c ****     }
 916:/home/fanxinhao/Work/LiteOS_Lab/iot_link/os/liteos/cmsis/2.0/cmsis_liteos2.c **** 
 917:/home/fanxinhao/Work/LiteOS_Lab/iot_link/os/liteos/cmsis/2.0/cmsis_liteos2.c ****     if (NULL == pstSwtmr)
 2944              		.loc 1 917 8
 2945 001a FB68     		ldr	r3, [r7, #12]
 2946 001c 002B     		cmp	r3, #0
 2947 001e 02D1     		bne	.L245
 918:/home/fanxinhao/Work/LiteOS_Lab/iot_link/os/liteos/cmsis/2.0/cmsis_liteos2.c ****     {
 919:/home/fanxinhao/Work/LiteOS_Lab/iot_link/os/liteos/cmsis/2.0/cmsis_liteos2.c ****         return osErrorParameter;
 2948              		.loc 1 919 16
 2949 0020 6FF00303 		mvn	r3, #3
 2950 0024 13E0     		b	.L244
 2951              	.L245:
 920:/home/fanxinhao/Work/LiteOS_Lab/iot_link/os/liteos/cmsis/2.0/cmsis_liteos2.c ****     }
 921:/home/fanxinhao/Work/LiteOS_Lab/iot_link/os/liteos/cmsis/2.0/cmsis_liteos2.c **** 
 922:/home/fanxinhao/Work/LiteOS_Lab/iot_link/os/liteos/cmsis/2.0/cmsis_liteos2.c ****     uwRet = LOS_SwtmrDelete(pstSwtmr->usTimerID);
 2952              		.loc 1 922 13
 2953 0026 FB68     		ldr	r3, [r7, #12]
 2954 0028 1B89     		ldrh	r3, [r3, #8]
ARM GAS  /tmp/ccKdD4IP.s 			page 68


 2955 002a 1846     		mov	r0, r3
 2956 002c FFF7FEFF 		bl	LOS_SwtmrDelete
 2957 0030 B860     		str	r0, [r7, #8]
 923:/home/fanxinhao/Work/LiteOS_Lab/iot_link/os/liteos/cmsis/2.0/cmsis_liteos2.c ****     if (LOS_OK == uwRet)
 2958              		.loc 1 923 8
 2959 0032 BB68     		ldr	r3, [r7, #8]
 2960 0034 002B     		cmp	r3, #0
 2961 0036 01D1     		bne	.L246
 924:/home/fanxinhao/Work/LiteOS_Lab/iot_link/os/liteos/cmsis/2.0/cmsis_liteos2.c ****     {
 925:/home/fanxinhao/Work/LiteOS_Lab/iot_link/os/liteos/cmsis/2.0/cmsis_liteos2.c ****         return osOK;
 2962              		.loc 1 925 16
 2963 0038 0023     		movs	r3, #0
 2964 003a 08E0     		b	.L244
 2965              	.L246:
 926:/home/fanxinhao/Work/LiteOS_Lab/iot_link/os/liteos/cmsis/2.0/cmsis_liteos2.c ****     }
 927:/home/fanxinhao/Work/LiteOS_Lab/iot_link/os/liteos/cmsis/2.0/cmsis_liteos2.c ****     else if (LOS_ERRNO_SWTMR_ID_INVALID == uwRet)
 2966              		.loc 1 927 13
 2967 003c BB68     		ldr	r3, [r7, #8]
 2968 003e 074A     		ldr	r2, .L248+4
 2969 0040 9342     		cmp	r3, r2
 2970 0042 02D1     		bne	.L247
 928:/home/fanxinhao/Work/LiteOS_Lab/iot_link/os/liteos/cmsis/2.0/cmsis_liteos2.c ****     {
 929:/home/fanxinhao/Work/LiteOS_Lab/iot_link/os/liteos/cmsis/2.0/cmsis_liteos2.c ****         return osErrorParameter;
 2971              		.loc 1 929 16
 2972 0044 6FF00303 		mvn	r3, #3
 2973 0048 01E0     		b	.L244
 2974              	.L247:
 930:/home/fanxinhao/Work/LiteOS_Lab/iot_link/os/liteos/cmsis/2.0/cmsis_liteos2.c ****     }
 931:/home/fanxinhao/Work/LiteOS_Lab/iot_link/os/liteos/cmsis/2.0/cmsis_liteos2.c ****     else
 932:/home/fanxinhao/Work/LiteOS_Lab/iot_link/os/liteos/cmsis/2.0/cmsis_liteos2.c ****     {
 933:/home/fanxinhao/Work/LiteOS_Lab/iot_link/os/liteos/cmsis/2.0/cmsis_liteos2.c ****         return osErrorResource;
 2975              		.loc 1 933 16
 2976 004a 6FF00203 		mvn	r3, #2
 2977              	.L244:
 934:/home/fanxinhao/Work/LiteOS_Lab/iot_link/os/liteos/cmsis/2.0/cmsis_liteos2.c ****     }
 935:/home/fanxinhao/Work/LiteOS_Lab/iot_link/os/liteos/cmsis/2.0/cmsis_liteos2.c **** }
 2978              		.loc 1 935 1
 2979 004e 1846     		mov	r0, r3
 2980 0050 1037     		adds	r7, r7, #16
 2981              	.LCFI169:
 2982              		.cfi_def_cfa_offset 8
 2983 0052 BD46     		mov	sp, r7
 2984              	.LCFI170:
 2985              		.cfi_def_cfa_register 13
 2986              		@ sp needed
 2987 0054 80BD     		pop	{r7, pc}
 2988              	.L249:
 2989 0056 00BF     		.align	2
 2990              	.L248:
 2991 0058 00000000 		.word	g_vuwIntCount
 2992 005c 05030002 		.word	33555205
 2993              		.cfi_endproc
 2994              	.LFE169:
 2996              		.section	.text.osEventFlagsNew,"ax",%progbits
 2997              		.align	1
 2998              		.global	osEventFlagsNew
 2999              		.syntax unified
ARM GAS  /tmp/ccKdD4IP.s 			page 69


 3000              		.thumb
 3001              		.thumb_func
 3002              		.fpu fpv4-sp-d16
 3004              	osEventFlagsNew:
 3005              	.LFB170:
 936:/home/fanxinhao/Work/LiteOS_Lab/iot_link/os/liteos/cmsis/2.0/cmsis_liteos2.c **** #endif
 937:/home/fanxinhao/Work/LiteOS_Lab/iot_link/os/liteos/cmsis/2.0/cmsis_liteos2.c **** 
 938:/home/fanxinhao/Work/LiteOS_Lab/iot_link/os/liteos/cmsis/2.0/cmsis_liteos2.c **** osEventFlagsId_t osEventFlagsNew (const osEventFlagsAttr_t *attr)
 939:/home/fanxinhao/Work/LiteOS_Lab/iot_link/os/liteos/cmsis/2.0/cmsis_liteos2.c **** {
 3006              		.loc 1 939 1
 3007              		.cfi_startproc
 3008              		@ args = 0, pretend = 0, frame = 16
 3009              		@ frame_needed = 1, uses_anonymous_args = 0
 3010 0000 80B5     		push	{r7, lr}
 3011              	.LCFI171:
 3012              		.cfi_def_cfa_offset 8
 3013              		.cfi_offset 7, -8
 3014              		.cfi_offset 14, -4
 3015 0002 84B0     		sub	sp, sp, #16
 3016              	.LCFI172:
 3017              		.cfi_def_cfa_offset 24
 3018 0004 00AF     		add	r7, sp, #0
 3019              	.LCFI173:
 3020              		.cfi_def_cfa_register 7
 3021 0006 7860     		str	r0, [r7, #4]
 940:/home/fanxinhao/Work/LiteOS_Lab/iot_link/os/liteos/cmsis/2.0/cmsis_liteos2.c ****     PEVENT_CB_S pstEventCB = NULL;
 3022              		.loc 1 940 17
 3023 0008 0023     		movs	r3, #0
 3024 000a FB60     		str	r3, [r7, #12]
 941:/home/fanxinhao/Work/LiteOS_Lab/iot_link/os/liteos/cmsis/2.0/cmsis_liteos2.c ****     UINT32 uwRet;
 942:/home/fanxinhao/Work/LiteOS_Lab/iot_link/os/liteos/cmsis/2.0/cmsis_liteos2.c **** 
 943:/home/fanxinhao/Work/LiteOS_Lab/iot_link/os/liteos/cmsis/2.0/cmsis_liteos2.c ****     UNUSED(attr);
 944:/home/fanxinhao/Work/LiteOS_Lab/iot_link/os/liteos/cmsis/2.0/cmsis_liteos2.c **** 
 945:/home/fanxinhao/Work/LiteOS_Lab/iot_link/os/liteos/cmsis/2.0/cmsis_liteos2.c ****     if (OS_INT_ACTIVE)
 3025              		.loc 1 945 9
 3026 000c 104B     		ldr	r3, .L255
 3027 000e 1B68     		ldr	r3, [r3]
 3028              		.loc 1 945 8
 3029 0010 002B     		cmp	r3, #0
 3030 0012 01D0     		beq	.L251
 946:/home/fanxinhao/Work/LiteOS_Lab/iot_link/os/liteos/cmsis/2.0/cmsis_liteos2.c ****     {
 947:/home/fanxinhao/Work/LiteOS_Lab/iot_link/os/liteos/cmsis/2.0/cmsis_liteos2.c ****         return (osEventFlagsId_t)NULL;
 3031              		.loc 1 947 16
 3032 0014 0023     		movs	r3, #0
 3033 0016 16E0     		b	.L252
 3034              	.L251:
 948:/home/fanxinhao/Work/LiteOS_Lab/iot_link/os/liteos/cmsis/2.0/cmsis_liteos2.c ****     }
 949:/home/fanxinhao/Work/LiteOS_Lab/iot_link/os/liteos/cmsis/2.0/cmsis_liteos2.c **** 
 950:/home/fanxinhao/Work/LiteOS_Lab/iot_link/os/liteos/cmsis/2.0/cmsis_liteos2.c ****     pstEventCB = (PEVENT_CB_S)LOS_MemAlloc(m_aucSysMem0, sizeof(EVENT_CB_S));
 3035              		.loc 1 950 31
 3036 0018 0E4B     		ldr	r3, .L255+4
 3037 001a 1B68     		ldr	r3, [r3]
 3038 001c 0C21     		movs	r1, #12
 3039 001e 1846     		mov	r0, r3
 3040 0020 FFF7FEFF 		bl	LOS_MemAlloc
 3041 0024 F860     		str	r0, [r7, #12]
 951:/home/fanxinhao/Work/LiteOS_Lab/iot_link/os/liteos/cmsis/2.0/cmsis_liteos2.c ****     if(pstEventCB == NULL )
ARM GAS  /tmp/ccKdD4IP.s 			page 70


 3042              		.loc 1 951 7
 3043 0026 FB68     		ldr	r3, [r7, #12]
 3044 0028 002B     		cmp	r3, #0
 3045 002a 01D1     		bne	.L253
 952:/home/fanxinhao/Work/LiteOS_Lab/iot_link/os/liteos/cmsis/2.0/cmsis_liteos2.c ****     {
 953:/home/fanxinhao/Work/LiteOS_Lab/iot_link/os/liteos/cmsis/2.0/cmsis_liteos2.c ****         return (osEventFlagsId_t)NULL;
 3046              		.loc 1 953 16
 3047 002c 0023     		movs	r3, #0
 3048 002e 0AE0     		b	.L252
 3049              	.L253:
 954:/home/fanxinhao/Work/LiteOS_Lab/iot_link/os/liteos/cmsis/2.0/cmsis_liteos2.c ****     }
 955:/home/fanxinhao/Work/LiteOS_Lab/iot_link/os/liteos/cmsis/2.0/cmsis_liteos2.c **** 
 956:/home/fanxinhao/Work/LiteOS_Lab/iot_link/os/liteos/cmsis/2.0/cmsis_liteos2.c ****     uwRet = LOS_EventInit(pstEventCB);
 3050              		.loc 1 956 13
 3051 0030 F868     		ldr	r0, [r7, #12]
 3052 0032 FFF7FEFF 		bl	LOS_EventInit
 3053 0036 B860     		str	r0, [r7, #8]
 957:/home/fanxinhao/Work/LiteOS_Lab/iot_link/os/liteos/cmsis/2.0/cmsis_liteos2.c ****     if (uwRet == LOS_ERRNO_EVENT_PTR_NULL)
 3054              		.loc 1 957 8
 3055 0038 BB68     		ldr	r3, [r7, #8]
 3056 003a 074A     		ldr	r2, .L255+8
 3057 003c 9342     		cmp	r3, r2
 3058 003e 01D1     		bne	.L254
 958:/home/fanxinhao/Work/LiteOS_Lab/iot_link/os/liteos/cmsis/2.0/cmsis_liteos2.c ****     {
 959:/home/fanxinhao/Work/LiteOS_Lab/iot_link/os/liteos/cmsis/2.0/cmsis_liteos2.c ****         return (osEventFlagsId_t)NULL;
 3059              		.loc 1 959 16
 3060 0040 0023     		movs	r3, #0
 3061 0042 00E0     		b	.L252
 3062              	.L254:
 960:/home/fanxinhao/Work/LiteOS_Lab/iot_link/os/liteos/cmsis/2.0/cmsis_liteos2.c ****     }
 961:/home/fanxinhao/Work/LiteOS_Lab/iot_link/os/liteos/cmsis/2.0/cmsis_liteos2.c ****     else
 962:/home/fanxinhao/Work/LiteOS_Lab/iot_link/os/liteos/cmsis/2.0/cmsis_liteos2.c ****     {
 963:/home/fanxinhao/Work/LiteOS_Lab/iot_link/os/liteos/cmsis/2.0/cmsis_liteos2.c ****         return (osEventFlagsId_t)pstEventCB;
 3063              		.loc 1 963 16
 3064 0044 FB68     		ldr	r3, [r7, #12]
 3065              	.L252:
 964:/home/fanxinhao/Work/LiteOS_Lab/iot_link/os/liteos/cmsis/2.0/cmsis_liteos2.c ****     }
 965:/home/fanxinhao/Work/LiteOS_Lab/iot_link/os/liteos/cmsis/2.0/cmsis_liteos2.c **** }
 3066              		.loc 1 965 1
 3067 0046 1846     		mov	r0, r3
 3068 0048 1037     		adds	r7, r7, #16
 3069              	.LCFI174:
 3070              		.cfi_def_cfa_offset 8
 3071 004a BD46     		mov	sp, r7
 3072              	.LCFI175:
 3073              		.cfi_def_cfa_register 13
 3074              		@ sp needed
 3075 004c 80BD     		pop	{r7, pc}
 3076              	.L256:
 3077 004e 00BF     		.align	2
 3078              	.L255:
 3079 0050 00000000 		.word	g_vuwIntCount
 3080 0054 00000000 		.word	m_aucSysMem0
 3081 0058 061C0002 		.word	33561606
 3082              		.cfi_endproc
 3083              	.LFE170:
 3085              		.section	.text.osEventFlagsGetName,"ax",%progbits
ARM GAS  /tmp/ccKdD4IP.s 			page 71


 3086              		.align	1
 3087              		.global	osEventFlagsGetName
 3088              		.syntax unified
 3089              		.thumb
 3090              		.thumb_func
 3091              		.fpu fpv4-sp-d16
 3093              	osEventFlagsGetName:
 3094              	.LFB171:
 966:/home/fanxinhao/Work/LiteOS_Lab/iot_link/os/liteos/cmsis/2.0/cmsis_liteos2.c **** 
 967:/home/fanxinhao/Work/LiteOS_Lab/iot_link/os/liteos/cmsis/2.0/cmsis_liteos2.c **** 
 968:/home/fanxinhao/Work/LiteOS_Lab/iot_link/os/liteos/cmsis/2.0/cmsis_liteos2.c **** const char *osEventFlagsGetName (osEventFlagsId_t ef_id)
 969:/home/fanxinhao/Work/LiteOS_Lab/iot_link/os/liteos/cmsis/2.0/cmsis_liteos2.c **** {
 3095              		.loc 1 969 1
 3096              		.cfi_startproc
 3097              		@ args = 0, pretend = 0, frame = 8
 3098              		@ frame_needed = 1, uses_anonymous_args = 0
 3099              		@ link register save eliminated.
 3100 0000 80B4     		push	{r7}
 3101              	.LCFI176:
 3102              		.cfi_def_cfa_offset 4
 3103              		.cfi_offset 7, -4
 3104 0002 83B0     		sub	sp, sp, #12
 3105              	.LCFI177:
 3106              		.cfi_def_cfa_offset 16
 3107 0004 00AF     		add	r7, sp, #0
 3108              	.LCFI178:
 3109              		.cfi_def_cfa_register 7
 3110 0006 7860     		str	r0, [r7, #4]
 970:/home/fanxinhao/Work/LiteOS_Lab/iot_link/os/liteos/cmsis/2.0/cmsis_liteos2.c ****     UNUSED(ef_id);
 971:/home/fanxinhao/Work/LiteOS_Lab/iot_link/os/liteos/cmsis/2.0/cmsis_liteos2.c **** 
 972:/home/fanxinhao/Work/LiteOS_Lab/iot_link/os/liteos/cmsis/2.0/cmsis_liteos2.c ****     if (OS_INT_ACTIVE)
 3111              		.loc 1 972 9
 3112 0008 064B     		ldr	r3, .L260
 3113 000a 1B68     		ldr	r3, [r3]
 3114              		.loc 1 972 8
 3115 000c 002B     		cmp	r3, #0
 3116 000e 01D0     		beq	.L258
 973:/home/fanxinhao/Work/LiteOS_Lab/iot_link/os/liteos/cmsis/2.0/cmsis_liteos2.c ****     {
 974:/home/fanxinhao/Work/LiteOS_Lab/iot_link/os/liteos/cmsis/2.0/cmsis_liteos2.c ****         return (const char *)NULL;
 3117              		.loc 1 974 16
 3118 0010 0023     		movs	r3, #0
 3119 0012 00E0     		b	.L259
 3120              	.L258:
 975:/home/fanxinhao/Work/LiteOS_Lab/iot_link/os/liteos/cmsis/2.0/cmsis_liteos2.c ****     }
 976:/home/fanxinhao/Work/LiteOS_Lab/iot_link/os/liteos/cmsis/2.0/cmsis_liteos2.c **** 
 977:/home/fanxinhao/Work/LiteOS_Lab/iot_link/os/liteos/cmsis/2.0/cmsis_liteos2.c ****     return (const char *)NULL;
 3121              		.loc 1 977 12
 3122 0014 0023     		movs	r3, #0
 3123              	.L259:
 978:/home/fanxinhao/Work/LiteOS_Lab/iot_link/os/liteos/cmsis/2.0/cmsis_liteos2.c **** }
 3124              		.loc 1 978 1
 3125 0016 1846     		mov	r0, r3
 3126 0018 0C37     		adds	r7, r7, #12
 3127              	.LCFI179:
 3128              		.cfi_def_cfa_offset 4
 3129 001a BD46     		mov	sp, r7
 3130              	.LCFI180:
ARM GAS  /tmp/ccKdD4IP.s 			page 72


 3131              		.cfi_def_cfa_register 13
 3132              		@ sp needed
 3133 001c 5DF8047B 		ldr	r7, [sp], #4
 3134              	.LCFI181:
 3135              		.cfi_restore 7
 3136              		.cfi_def_cfa_offset 0
 3137 0020 7047     		bx	lr
 3138              	.L261:
 3139 0022 00BF     		.align	2
 3140              	.L260:
 3141 0024 00000000 		.word	g_vuwIntCount
 3142              		.cfi_endproc
 3143              	.LFE171:
 3145              		.section	.text.osEventFlagsSet,"ax",%progbits
 3146              		.align	1
 3147              		.global	osEventFlagsSet
 3148              		.syntax unified
 3149              		.thumb
 3150              		.thumb_func
 3151              		.fpu fpv4-sp-d16
 3153              	osEventFlagsSet:
 3154              	.LFB172:
 979:/home/fanxinhao/Work/LiteOS_Lab/iot_link/os/liteos/cmsis/2.0/cmsis_liteos2.c **** 
 980:/home/fanxinhao/Work/LiteOS_Lab/iot_link/os/liteos/cmsis/2.0/cmsis_liteos2.c **** 
 981:/home/fanxinhao/Work/LiteOS_Lab/iot_link/os/liteos/cmsis/2.0/cmsis_liteos2.c **** uint32_t osEventFlagsSet (osEventFlagsId_t ef_id, uint32_t flags)
 982:/home/fanxinhao/Work/LiteOS_Lab/iot_link/os/liteos/cmsis/2.0/cmsis_liteos2.c **** {
 3155              		.loc 1 982 1
 3156              		.cfi_startproc
 3157              		@ args = 0, pretend = 0, frame = 24
 3158              		@ frame_needed = 1, uses_anonymous_args = 0
 3159 0000 80B5     		push	{r7, lr}
 3160              	.LCFI182:
 3161              		.cfi_def_cfa_offset 8
 3162              		.cfi_offset 7, -8
 3163              		.cfi_offset 14, -4
 3164 0002 86B0     		sub	sp, sp, #24
 3165              	.LCFI183:
 3166              		.cfi_def_cfa_offset 32
 3167 0004 00AF     		add	r7, sp, #0
 3168              	.LCFI184:
 3169              		.cfi_def_cfa_register 7
 3170 0006 7860     		str	r0, [r7, #4]
 3171 0008 3960     		str	r1, [r7]
 983:/home/fanxinhao/Work/LiteOS_Lab/iot_link/os/liteos/cmsis/2.0/cmsis_liteos2.c ****     PEVENT_CB_S pstEventCB = (PEVENT_CB_S)ef_id;
 3172              		.loc 1 983 17
 3173 000a 7B68     		ldr	r3, [r7, #4]
 3174 000c 7B61     		str	r3, [r7, #20]
 984:/home/fanxinhao/Work/LiteOS_Lab/iot_link/os/liteos/cmsis/2.0/cmsis_liteos2.c ****     UINT32 uwRet;
 985:/home/fanxinhao/Work/LiteOS_Lab/iot_link/os/liteos/cmsis/2.0/cmsis_liteos2.c ****     uint32_t rflags;
 986:/home/fanxinhao/Work/LiteOS_Lab/iot_link/os/liteos/cmsis/2.0/cmsis_liteos2.c **** 
 987:/home/fanxinhao/Work/LiteOS_Lab/iot_link/os/liteos/cmsis/2.0/cmsis_liteos2.c ****     uwRet = LOS_EventWrite(pstEventCB, (UINT32)flags);
 3175              		.loc 1 987 13
 3176 000e 3968     		ldr	r1, [r7]
 3177 0010 7869     		ldr	r0, [r7, #20]
 3178 0012 FFF7FEFF 		bl	LOS_EventWrite
 3179 0016 3861     		str	r0, [r7, #16]
 988:/home/fanxinhao/Work/LiteOS_Lab/iot_link/os/liteos/cmsis/2.0/cmsis_liteos2.c ****     if (uwRet != LOS_OK)
ARM GAS  /tmp/ccKdD4IP.s 			page 73


 3180              		.loc 1 988 8
 3181 0018 3B69     		ldr	r3, [r7, #16]
 3182 001a 002B     		cmp	r3, #0
 3183 001c 02D0     		beq	.L263
 989:/home/fanxinhao/Work/LiteOS_Lab/iot_link/os/liteos/cmsis/2.0/cmsis_liteos2.c ****     {
 990:/home/fanxinhao/Work/LiteOS_Lab/iot_link/os/liteos/cmsis/2.0/cmsis_liteos2.c ****         return (uint32_t)osFlagsErrorParameter;
 3184              		.loc 1 990 16
 3185 001e 6FF00303 		mvn	r3, #3
 3186 0022 03E0     		b	.L264
 3187              	.L263:
 991:/home/fanxinhao/Work/LiteOS_Lab/iot_link/os/liteos/cmsis/2.0/cmsis_liteos2.c ****     }
 992:/home/fanxinhao/Work/LiteOS_Lab/iot_link/os/liteos/cmsis/2.0/cmsis_liteos2.c ****     else
 993:/home/fanxinhao/Work/LiteOS_Lab/iot_link/os/liteos/cmsis/2.0/cmsis_liteos2.c ****     {
 994:/home/fanxinhao/Work/LiteOS_Lab/iot_link/os/liteos/cmsis/2.0/cmsis_liteos2.c ****         rflags = pstEventCB->uwEventID;
 3188              		.loc 1 994 16
 3189 0024 7B69     		ldr	r3, [r7, #20]
 3190 0026 1B68     		ldr	r3, [r3]
 3191 0028 FB60     		str	r3, [r7, #12]
 995:/home/fanxinhao/Work/LiteOS_Lab/iot_link/os/liteos/cmsis/2.0/cmsis_liteos2.c ****         return rflags;
 3192              		.loc 1 995 16
 3193 002a FB68     		ldr	r3, [r7, #12]
 3194              	.L264:
 996:/home/fanxinhao/Work/LiteOS_Lab/iot_link/os/liteos/cmsis/2.0/cmsis_liteos2.c ****     }
 997:/home/fanxinhao/Work/LiteOS_Lab/iot_link/os/liteos/cmsis/2.0/cmsis_liteos2.c **** }
 3195              		.loc 1 997 1
 3196 002c 1846     		mov	r0, r3
 3197 002e 1837     		adds	r7, r7, #24
 3198              	.LCFI185:
 3199              		.cfi_def_cfa_offset 8
 3200 0030 BD46     		mov	sp, r7
 3201              	.LCFI186:
 3202              		.cfi_def_cfa_register 13
 3203              		@ sp needed
 3204 0032 80BD     		pop	{r7, pc}
 3205              		.cfi_endproc
 3206              	.LFE172:
 3208              		.section	.text.osEventFlagsClear,"ax",%progbits
 3209              		.align	1
 3210              		.global	osEventFlagsClear
 3211              		.syntax unified
 3212              		.thumb
 3213              		.thumb_func
 3214              		.fpu fpv4-sp-d16
 3216              	osEventFlagsClear:
 3217              	.LFB173:
 998:/home/fanxinhao/Work/LiteOS_Lab/iot_link/os/liteos/cmsis/2.0/cmsis_liteos2.c **** 
 999:/home/fanxinhao/Work/LiteOS_Lab/iot_link/os/liteos/cmsis/2.0/cmsis_liteos2.c **** 
1000:/home/fanxinhao/Work/LiteOS_Lab/iot_link/os/liteos/cmsis/2.0/cmsis_liteos2.c **** uint32_t osEventFlagsClear (osEventFlagsId_t ef_id, uint32_t flags)
1001:/home/fanxinhao/Work/LiteOS_Lab/iot_link/os/liteos/cmsis/2.0/cmsis_liteos2.c **** {
 3218              		.loc 1 1001 1
 3219              		.cfi_startproc
 3220              		@ args = 0, pretend = 0, frame = 24
 3221              		@ frame_needed = 1, uses_anonymous_args = 0
 3222 0000 80B5     		push	{r7, lr}
 3223              	.LCFI187:
 3224              		.cfi_def_cfa_offset 8
 3225              		.cfi_offset 7, -8
ARM GAS  /tmp/ccKdD4IP.s 			page 74


 3226              		.cfi_offset 14, -4
 3227 0002 86B0     		sub	sp, sp, #24
 3228              	.LCFI188:
 3229              		.cfi_def_cfa_offset 32
 3230 0004 00AF     		add	r7, sp, #0
 3231              	.LCFI189:
 3232              		.cfi_def_cfa_register 7
 3233 0006 7860     		str	r0, [r7, #4]
 3234 0008 3960     		str	r1, [r7]
1002:/home/fanxinhao/Work/LiteOS_Lab/iot_link/os/liteos/cmsis/2.0/cmsis_liteos2.c ****     PEVENT_CB_S pstEventCB = (PEVENT_CB_S)ef_id;
 3235              		.loc 1 1002 17
 3236 000a 7B68     		ldr	r3, [r7, #4]
 3237 000c 7B61     		str	r3, [r7, #20]
1003:/home/fanxinhao/Work/LiteOS_Lab/iot_link/os/liteos/cmsis/2.0/cmsis_liteos2.c ****     UINTPTR uwIntSave;
1004:/home/fanxinhao/Work/LiteOS_Lab/iot_link/os/liteos/cmsis/2.0/cmsis_liteos2.c ****     uint32_t rflags;
1005:/home/fanxinhao/Work/LiteOS_Lab/iot_link/os/liteos/cmsis/2.0/cmsis_liteos2.c ****     UINT32 uwRet;
1006:/home/fanxinhao/Work/LiteOS_Lab/iot_link/os/liteos/cmsis/2.0/cmsis_liteos2.c **** 
1007:/home/fanxinhao/Work/LiteOS_Lab/iot_link/os/liteos/cmsis/2.0/cmsis_liteos2.c ****     if (pstEventCB == NULL)
 3238              		.loc 1 1007 8
 3239 000e 7B69     		ldr	r3, [r7, #20]
 3240 0010 002B     		cmp	r3, #0
 3241 0012 02D1     		bne	.L266
1008:/home/fanxinhao/Work/LiteOS_Lab/iot_link/os/liteos/cmsis/2.0/cmsis_liteos2.c ****     {
1009:/home/fanxinhao/Work/LiteOS_Lab/iot_link/os/liteos/cmsis/2.0/cmsis_liteos2.c ****         return (uint32_t)osFlagsErrorParameter;
 3242              		.loc 1 1009 16
 3243 0014 6FF00303 		mvn	r3, #3
 3244 0018 16E0     		b	.L267
 3245              	.L266:
1010:/home/fanxinhao/Work/LiteOS_Lab/iot_link/os/liteos/cmsis/2.0/cmsis_liteos2.c ****     }
1011:/home/fanxinhao/Work/LiteOS_Lab/iot_link/os/liteos/cmsis/2.0/cmsis_liteos2.c **** 
1012:/home/fanxinhao/Work/LiteOS_Lab/iot_link/os/liteos/cmsis/2.0/cmsis_liteos2.c ****     uwIntSave = LOS_IntLock();
 3246              		.loc 1 1012 17
 3247 001a FFF7FEFF 		bl	LOS_IntLock
 3248 001e 3861     		str	r0, [r7, #16]
1013:/home/fanxinhao/Work/LiteOS_Lab/iot_link/os/liteos/cmsis/2.0/cmsis_liteos2.c ****     rflags = pstEventCB->uwEventID;
 3249              		.loc 1 1013 12
 3250 0020 7B69     		ldr	r3, [r7, #20]
 3251 0022 1B68     		ldr	r3, [r3]
 3252 0024 FB60     		str	r3, [r7, #12]
1014:/home/fanxinhao/Work/LiteOS_Lab/iot_link/os/liteos/cmsis/2.0/cmsis_liteos2.c **** 
1015:/home/fanxinhao/Work/LiteOS_Lab/iot_link/os/liteos/cmsis/2.0/cmsis_liteos2.c ****     uwRet = LOS_EventClear(pstEventCB, ~flags);
 3253              		.loc 1 1015 40
 3254 0026 3B68     		ldr	r3, [r7]
 3255 0028 DB43     		mvns	r3, r3
 3256              		.loc 1 1015 13
 3257 002a 1946     		mov	r1, r3
 3258 002c 7869     		ldr	r0, [r7, #20]
 3259 002e FFF7FEFF 		bl	LOS_EventClear
 3260 0032 B860     		str	r0, [r7, #8]
1016:/home/fanxinhao/Work/LiteOS_Lab/iot_link/os/liteos/cmsis/2.0/cmsis_liteos2.c ****     LOS_IntRestore(uwIntSave);
 3261              		.loc 1 1016 5
 3262 0034 3869     		ldr	r0, [r7, #16]
 3263 0036 FFF7FEFF 		bl	LOS_IntRestore
1017:/home/fanxinhao/Work/LiteOS_Lab/iot_link/os/liteos/cmsis/2.0/cmsis_liteos2.c ****     if (uwRet !=  LOS_OK)
 3264              		.loc 1 1017 8
 3265 003a BB68     		ldr	r3, [r7, #8]
 3266 003c 002B     		cmp	r3, #0
ARM GAS  /tmp/ccKdD4IP.s 			page 75


 3267 003e 02D0     		beq	.L268
1018:/home/fanxinhao/Work/LiteOS_Lab/iot_link/os/liteos/cmsis/2.0/cmsis_liteos2.c ****     {
1019:/home/fanxinhao/Work/LiteOS_Lab/iot_link/os/liteos/cmsis/2.0/cmsis_liteos2.c ****         return (uint32_t)osFlagsErrorParameter;
 3268              		.loc 1 1019 16
 3269 0040 6FF00303 		mvn	r3, #3
 3270 0044 00E0     		b	.L267
 3271              	.L268:
1020:/home/fanxinhao/Work/LiteOS_Lab/iot_link/os/liteos/cmsis/2.0/cmsis_liteos2.c ****     }
1021:/home/fanxinhao/Work/LiteOS_Lab/iot_link/os/liteos/cmsis/2.0/cmsis_liteos2.c ****     else
1022:/home/fanxinhao/Work/LiteOS_Lab/iot_link/os/liteos/cmsis/2.0/cmsis_liteos2.c ****     {
1023:/home/fanxinhao/Work/LiteOS_Lab/iot_link/os/liteos/cmsis/2.0/cmsis_liteos2.c ****         return rflags;
 3272              		.loc 1 1023 16
 3273 0046 FB68     		ldr	r3, [r7, #12]
 3274              	.L267:
1024:/home/fanxinhao/Work/LiteOS_Lab/iot_link/os/liteos/cmsis/2.0/cmsis_liteos2.c ****     }
1025:/home/fanxinhao/Work/LiteOS_Lab/iot_link/os/liteos/cmsis/2.0/cmsis_liteos2.c **** }
 3275              		.loc 1 1025 1
 3276 0048 1846     		mov	r0, r3
 3277 004a 1837     		adds	r7, r7, #24
 3278              	.LCFI190:
 3279              		.cfi_def_cfa_offset 8
 3280 004c BD46     		mov	sp, r7
 3281              	.LCFI191:
 3282              		.cfi_def_cfa_register 13
 3283              		@ sp needed
 3284 004e 80BD     		pop	{r7, pc}
 3285              		.cfi_endproc
 3286              	.LFE173:
 3288              		.section	.text.osEventFlagsGet,"ax",%progbits
 3289              		.align	1
 3290              		.global	osEventFlagsGet
 3291              		.syntax unified
 3292              		.thumb
 3293              		.thumb_func
 3294              		.fpu fpv4-sp-d16
 3296              	osEventFlagsGet:
 3297              	.LFB174:
1026:/home/fanxinhao/Work/LiteOS_Lab/iot_link/os/liteos/cmsis/2.0/cmsis_liteos2.c **** 
1027:/home/fanxinhao/Work/LiteOS_Lab/iot_link/os/liteos/cmsis/2.0/cmsis_liteos2.c **** 
1028:/home/fanxinhao/Work/LiteOS_Lab/iot_link/os/liteos/cmsis/2.0/cmsis_liteos2.c **** uint32_t osEventFlagsGet (osEventFlagsId_t ef_id)
1029:/home/fanxinhao/Work/LiteOS_Lab/iot_link/os/liteos/cmsis/2.0/cmsis_liteos2.c **** {
 3298              		.loc 1 1029 1
 3299              		.cfi_startproc
 3300              		@ args = 0, pretend = 0, frame = 24
 3301              		@ frame_needed = 1, uses_anonymous_args = 0
 3302 0000 80B5     		push	{r7, lr}
 3303              	.LCFI192:
 3304              		.cfi_def_cfa_offset 8
 3305              		.cfi_offset 7, -8
 3306              		.cfi_offset 14, -4
 3307 0002 86B0     		sub	sp, sp, #24
 3308              	.LCFI193:
 3309              		.cfi_def_cfa_offset 32
 3310 0004 00AF     		add	r7, sp, #0
 3311              	.LCFI194:
 3312              		.cfi_def_cfa_register 7
 3313 0006 7860     		str	r0, [r7, #4]
ARM GAS  /tmp/ccKdD4IP.s 			page 76


1030:/home/fanxinhao/Work/LiteOS_Lab/iot_link/os/liteos/cmsis/2.0/cmsis_liteos2.c ****     PEVENT_CB_S pstEventCB = (PEVENT_CB_S)ef_id;
 3314              		.loc 1 1030 17
 3315 0008 7B68     		ldr	r3, [r7, #4]
 3316 000a 7B61     		str	r3, [r7, #20]
1031:/home/fanxinhao/Work/LiteOS_Lab/iot_link/os/liteos/cmsis/2.0/cmsis_liteos2.c ****     UINTPTR uwIntSave;
1032:/home/fanxinhao/Work/LiteOS_Lab/iot_link/os/liteos/cmsis/2.0/cmsis_liteos2.c ****     uint32_t rflags;
1033:/home/fanxinhao/Work/LiteOS_Lab/iot_link/os/liteos/cmsis/2.0/cmsis_liteos2.c **** 
1034:/home/fanxinhao/Work/LiteOS_Lab/iot_link/os/liteos/cmsis/2.0/cmsis_liteos2.c ****     if (pstEventCB == NULL)
 3317              		.loc 1 1034 8
 3318 000c 7B69     		ldr	r3, [r7, #20]
 3319 000e 002B     		cmp	r3, #0
 3320 0010 02D1     		bne	.L270
1035:/home/fanxinhao/Work/LiteOS_Lab/iot_link/os/liteos/cmsis/2.0/cmsis_liteos2.c ****     {
1036:/home/fanxinhao/Work/LiteOS_Lab/iot_link/os/liteos/cmsis/2.0/cmsis_liteos2.c ****         return (uint32_t)osFlagsErrorParameter;
 3321              		.loc 1 1036 16
 3322 0012 6FF00303 		mvn	r3, #3
 3323 0016 09E0     		b	.L271
 3324              	.L270:
1037:/home/fanxinhao/Work/LiteOS_Lab/iot_link/os/liteos/cmsis/2.0/cmsis_liteos2.c ****     }
1038:/home/fanxinhao/Work/LiteOS_Lab/iot_link/os/liteos/cmsis/2.0/cmsis_liteos2.c **** 
1039:/home/fanxinhao/Work/LiteOS_Lab/iot_link/os/liteos/cmsis/2.0/cmsis_liteos2.c ****     uwIntSave = LOS_IntLock();
 3325              		.loc 1 1039 17
 3326 0018 FFF7FEFF 		bl	LOS_IntLock
 3327 001c 3861     		str	r0, [r7, #16]
1040:/home/fanxinhao/Work/LiteOS_Lab/iot_link/os/liteos/cmsis/2.0/cmsis_liteos2.c ****     rflags = pstEventCB->uwEventID;
 3328              		.loc 1 1040 12
 3329 001e 7B69     		ldr	r3, [r7, #20]
 3330 0020 1B68     		ldr	r3, [r3]
 3331 0022 FB60     		str	r3, [r7, #12]
1041:/home/fanxinhao/Work/LiteOS_Lab/iot_link/os/liteos/cmsis/2.0/cmsis_liteos2.c ****     LOS_IntRestore(uwIntSave);
 3332              		.loc 1 1041 5
 3333 0024 3869     		ldr	r0, [r7, #16]
 3334 0026 FFF7FEFF 		bl	LOS_IntRestore
1042:/home/fanxinhao/Work/LiteOS_Lab/iot_link/os/liteos/cmsis/2.0/cmsis_liteos2.c **** 
1043:/home/fanxinhao/Work/LiteOS_Lab/iot_link/os/liteos/cmsis/2.0/cmsis_liteos2.c ****     return rflags;
 3335              		.loc 1 1043 12
 3336 002a FB68     		ldr	r3, [r7, #12]
 3337              	.L271:
1044:/home/fanxinhao/Work/LiteOS_Lab/iot_link/os/liteos/cmsis/2.0/cmsis_liteos2.c **** }
 3338              		.loc 1 1044 1
 3339 002c 1846     		mov	r0, r3
 3340 002e 1837     		adds	r7, r7, #24
 3341              	.LCFI195:
 3342              		.cfi_def_cfa_offset 8
 3343 0030 BD46     		mov	sp, r7
 3344              	.LCFI196:
 3345              		.cfi_def_cfa_register 13
 3346              		@ sp needed
 3347 0032 80BD     		pop	{r7, pc}
 3348              		.cfi_endproc
 3349              	.LFE174:
 3351              		.section	.text.osEventFlagsWait,"ax",%progbits
 3352              		.align	1
 3353              		.global	osEventFlagsWait
 3354              		.syntax unified
 3355              		.thumb
 3356              		.thumb_func
ARM GAS  /tmp/ccKdD4IP.s 			page 77


 3357              		.fpu fpv4-sp-d16
 3359              	osEventFlagsWait:
 3360              	.LFB175:
1045:/home/fanxinhao/Work/LiteOS_Lab/iot_link/os/liteos/cmsis/2.0/cmsis_liteos2.c **** 
1046:/home/fanxinhao/Work/LiteOS_Lab/iot_link/os/liteos/cmsis/2.0/cmsis_liteos2.c **** uint32_t osEventFlagsWait (osEventFlagsId_t ef_id, uint32_t flags, uint32_t options, uint32_t timeo
1047:/home/fanxinhao/Work/LiteOS_Lab/iot_link/os/liteos/cmsis/2.0/cmsis_liteos2.c **** {
 3361              		.loc 1 1047 1
 3362              		.cfi_startproc
 3363              		@ args = 0, pretend = 0, frame = 32
 3364              		@ frame_needed = 1, uses_anonymous_args = 0
 3365 0000 80B5     		push	{r7, lr}
 3366              	.LCFI197:
 3367              		.cfi_def_cfa_offset 8
 3368              		.cfi_offset 7, -8
 3369              		.cfi_offset 14, -4
 3370 0002 88B0     		sub	sp, sp, #32
 3371              	.LCFI198:
 3372              		.cfi_def_cfa_offset 40
 3373 0004 00AF     		add	r7, sp, #0
 3374              	.LCFI199:
 3375              		.cfi_def_cfa_register 7
 3376 0006 F860     		str	r0, [r7, #12]
 3377 0008 B960     		str	r1, [r7, #8]
 3378 000a 7A60     		str	r2, [r7, #4]
 3379 000c 3B60     		str	r3, [r7]
1048:/home/fanxinhao/Work/LiteOS_Lab/iot_link/os/liteos/cmsis/2.0/cmsis_liteos2.c ****     PEVENT_CB_S pstEventCB = (PEVENT_CB_S)ef_id;
 3380              		.loc 1 1048 17
 3381 000e FB68     		ldr	r3, [r7, #12]
 3382 0010 BB61     		str	r3, [r7, #24]
1049:/home/fanxinhao/Work/LiteOS_Lab/iot_link/os/liteos/cmsis/2.0/cmsis_liteos2.c ****     UINT32 uwMode = 0;
 3383              		.loc 1 1049 12
 3384 0012 0023     		movs	r3, #0
 3385 0014 FB61     		str	r3, [r7, #28]
1050:/home/fanxinhao/Work/LiteOS_Lab/iot_link/os/liteos/cmsis/2.0/cmsis_liteos2.c ****     UINT32 uwRet;
1051:/home/fanxinhao/Work/LiteOS_Lab/iot_link/os/liteos/cmsis/2.0/cmsis_liteos2.c ****     uint32_t rflags = 0;
 3386              		.loc 1 1051 14
 3387 0016 0023     		movs	r3, #0
 3388 0018 7B61     		str	r3, [r7, #20]
1052:/home/fanxinhao/Work/LiteOS_Lab/iot_link/os/liteos/cmsis/2.0/cmsis_liteos2.c **** 
1053:/home/fanxinhao/Work/LiteOS_Lab/iot_link/os/liteos/cmsis/2.0/cmsis_liteos2.c ****     if (options > (osFlagsWaitAny | osFlagsWaitAll | osFlagsNoClear))
 3389              		.loc 1 1053 8
 3390 001a 7B68     		ldr	r3, [r7, #4]
 3391 001c 032B     		cmp	r3, #3
 3392 001e 02D9     		bls	.L273
1054:/home/fanxinhao/Work/LiteOS_Lab/iot_link/os/liteos/cmsis/2.0/cmsis_liteos2.c ****     {
1055:/home/fanxinhao/Work/LiteOS_Lab/iot_link/os/liteos/cmsis/2.0/cmsis_liteos2.c ****         return (uint32_t)osFlagsErrorParameter;
 3393              		.loc 1 1055 16
 3394 0020 6FF00303 		mvn	r3, #3
 3395 0024 46E0     		b	.L274
 3396              	.L273:
1056:/home/fanxinhao/Work/LiteOS_Lab/iot_link/os/liteos/cmsis/2.0/cmsis_liteos2.c ****     }
1057:/home/fanxinhao/Work/LiteOS_Lab/iot_link/os/liteos/cmsis/2.0/cmsis_liteos2.c **** 
1058:/home/fanxinhao/Work/LiteOS_Lab/iot_link/os/liteos/cmsis/2.0/cmsis_liteos2.c ****     if ((options & osFlagsWaitAll) == osFlagsWaitAll)
 3397              		.loc 1 1058 18
 3398 0026 7B68     		ldr	r3, [r7, #4]
 3399 0028 03F00103 		and	r3, r3, #1
 3400              		.loc 1 1058 8
ARM GAS  /tmp/ccKdD4IP.s 			page 78


 3401 002c 002B     		cmp	r3, #0
 3402 002e 04D0     		beq	.L275
1059:/home/fanxinhao/Work/LiteOS_Lab/iot_link/os/liteos/cmsis/2.0/cmsis_liteos2.c ****     {
1060:/home/fanxinhao/Work/LiteOS_Lab/iot_link/os/liteos/cmsis/2.0/cmsis_liteos2.c ****         uwMode |= LOS_WAITMODE_AND;
 3403              		.loc 1 1060 16
 3404 0030 FB69     		ldr	r3, [r7, #28]
 3405 0032 43F00403 		orr	r3, r3, #4
 3406 0036 FB61     		str	r3, [r7, #28]
 3407 0038 03E0     		b	.L276
 3408              	.L275:
1061:/home/fanxinhao/Work/LiteOS_Lab/iot_link/os/liteos/cmsis/2.0/cmsis_liteos2.c ****     }
1062:/home/fanxinhao/Work/LiteOS_Lab/iot_link/os/liteos/cmsis/2.0/cmsis_liteos2.c ****     else
1063:/home/fanxinhao/Work/LiteOS_Lab/iot_link/os/liteos/cmsis/2.0/cmsis_liteos2.c ****     {
1064:/home/fanxinhao/Work/LiteOS_Lab/iot_link/os/liteos/cmsis/2.0/cmsis_liteos2.c ****         uwMode |= LOS_WAITMODE_OR;
 3409              		.loc 1 1064 16
 3410 003a FB69     		ldr	r3, [r7, #28]
 3411 003c 43F00203 		orr	r3, r3, #2
 3412 0040 FB61     		str	r3, [r7, #28]
 3413              	.L276:
1065:/home/fanxinhao/Work/LiteOS_Lab/iot_link/os/liteos/cmsis/2.0/cmsis_liteos2.c ****     }
1066:/home/fanxinhao/Work/LiteOS_Lab/iot_link/os/liteos/cmsis/2.0/cmsis_liteos2.c **** 
1067:/home/fanxinhao/Work/LiteOS_Lab/iot_link/os/liteos/cmsis/2.0/cmsis_liteos2.c ****     if ((options & osFlagsNoClear)  == osFlagsNoClear)
 3414              		.loc 1 1067 18
 3415 0042 7B68     		ldr	r3, [r7, #4]
 3416 0044 03F00203 		and	r3, r3, #2
 3417              		.loc 1 1067 8
 3418 0048 002B     		cmp	r3, #0
 3419 004a 04D0     		beq	.L277
1068:/home/fanxinhao/Work/LiteOS_Lab/iot_link/os/liteos/cmsis/2.0/cmsis_liteos2.c ****     {
1069:/home/fanxinhao/Work/LiteOS_Lab/iot_link/os/liteos/cmsis/2.0/cmsis_liteos2.c ****         uwMode &= ~LOS_WAITMODE_CLR;
 3420              		.loc 1 1069 16
 3421 004c FB69     		ldr	r3, [r7, #28]
 3422 004e 23F00103 		bic	r3, r3, #1
 3423 0052 FB61     		str	r3, [r7, #28]
 3424 0054 03E0     		b	.L278
 3425              	.L277:
1070:/home/fanxinhao/Work/LiteOS_Lab/iot_link/os/liteos/cmsis/2.0/cmsis_liteos2.c ****     }
1071:/home/fanxinhao/Work/LiteOS_Lab/iot_link/os/liteos/cmsis/2.0/cmsis_liteos2.c ****     else
1072:/home/fanxinhao/Work/LiteOS_Lab/iot_link/os/liteos/cmsis/2.0/cmsis_liteos2.c ****     {
1073:/home/fanxinhao/Work/LiteOS_Lab/iot_link/os/liteos/cmsis/2.0/cmsis_liteos2.c ****         uwMode |= LOS_WAITMODE_CLR;
 3426              		.loc 1 1073 16
 3427 0056 FB69     		ldr	r3, [r7, #28]
 3428 0058 43F00103 		orr	r3, r3, #1
 3429 005c FB61     		str	r3, [r7, #28]
 3430              	.L278:
1074:/home/fanxinhao/Work/LiteOS_Lab/iot_link/os/liteos/cmsis/2.0/cmsis_liteos2.c ****     }
1075:/home/fanxinhao/Work/LiteOS_Lab/iot_link/os/liteos/cmsis/2.0/cmsis_liteos2.c **** 
1076:/home/fanxinhao/Work/LiteOS_Lab/iot_link/os/liteos/cmsis/2.0/cmsis_liteos2.c ****     uwRet = LOS_EventRead(pstEventCB, (UINT32)flags, uwMode, (UINT32)timeout);
 3431              		.loc 1 1076 13
 3432 005e 3B68     		ldr	r3, [r7]
 3433 0060 FA69     		ldr	r2, [r7, #28]
 3434 0062 B968     		ldr	r1, [r7, #8]
 3435 0064 B869     		ldr	r0, [r7, #24]
 3436 0066 FFF7FEFF 		bl	LOS_EventRead
 3437 006a 3861     		str	r0, [r7, #16]
 3438 006c 3B69     		ldr	r3, [r7, #16]
 3439 006e 03F17E43 		add	r3, r3, #-33554432
ARM GAS  /tmp/ccKdD4IP.s 			page 79


 3440 0072 A3F5E053 		sub	r3, r3, #7168
 3441 0076 062B     		cmp	r3, #6
 3442 0078 19D8     		bhi	.L279
 3443 007a 01A2     		adr	r2, .L281
 3444 007c 52F823F0 		ldr	pc, [r2, r3, lsl #2]
 3445              		.p2align 2
 3446              	.L281:
 3447 0080 9D000000 		.word	.L280+1
 3448 0084 A9000000 		.word	.L283+1
 3449 0088 9D000000 		.word	.L280+1
 3450 008c A3000000 		.word	.L282+1
 3451 0090 A3000000 		.word	.L282+1
 3452 0094 A3000000 		.word	.L282+1
 3453 0098 9D000000 		.word	.L280+1
 3454              		.p2align 1
 3455              	.L280:
1077:/home/fanxinhao/Work/LiteOS_Lab/iot_link/os/liteos/cmsis/2.0/cmsis_liteos2.c ****     switch(uwRet)
1078:/home/fanxinhao/Work/LiteOS_Lab/iot_link/os/liteos/cmsis/2.0/cmsis_liteos2.c ****     {
1079:/home/fanxinhao/Work/LiteOS_Lab/iot_link/os/liteos/cmsis/2.0/cmsis_liteos2.c ****     case LOS_ERRNO_EVENT_PTR_NULL:
1080:/home/fanxinhao/Work/LiteOS_Lab/iot_link/os/liteos/cmsis/2.0/cmsis_liteos2.c ****     case LOS_ERRNO_EVENT_EVENTMASK_INVALID:
1081:/home/fanxinhao/Work/LiteOS_Lab/iot_link/os/liteos/cmsis/2.0/cmsis_liteos2.c ****     case LOS_ERRNO_EVENT_SETBIT_INVALID:
1082:/home/fanxinhao/Work/LiteOS_Lab/iot_link/os/liteos/cmsis/2.0/cmsis_liteos2.c ****         return (uint32_t)osFlagsErrorParameter;
 3456              		.loc 1 1082 16
 3457 009c 6FF00303 		mvn	r3, #3
 3458 00a0 08E0     		b	.L274
 3459              	.L282:
1083:/home/fanxinhao/Work/LiteOS_Lab/iot_link/os/liteos/cmsis/2.0/cmsis_liteos2.c **** 
1084:/home/fanxinhao/Work/LiteOS_Lab/iot_link/os/liteos/cmsis/2.0/cmsis_liteos2.c ****     case LOS_ERRNO_EVENT_READ_IN_INTERRUPT:
1085:/home/fanxinhao/Work/LiteOS_Lab/iot_link/os/liteos/cmsis/2.0/cmsis_liteos2.c ****     case LOS_ERRNO_EVENT_FLAGS_INVALID:
1086:/home/fanxinhao/Work/LiteOS_Lab/iot_link/os/liteos/cmsis/2.0/cmsis_liteos2.c ****     case LOS_ERRNO_EVENT_READ_IN_LOCK:
1087:/home/fanxinhao/Work/LiteOS_Lab/iot_link/os/liteos/cmsis/2.0/cmsis_liteos2.c ****         return (uint32_t)osFlagsErrorResource;
 3460              		.loc 1 1087 16
 3461 00a2 6FF00203 		mvn	r3, #2
 3462 00a6 05E0     		b	.L274
 3463              	.L283:
1088:/home/fanxinhao/Work/LiteOS_Lab/iot_link/os/liteos/cmsis/2.0/cmsis_liteos2.c **** 
1089:/home/fanxinhao/Work/LiteOS_Lab/iot_link/os/liteos/cmsis/2.0/cmsis_liteos2.c ****     case LOS_ERRNO_EVENT_READ_TIMEOUT:
1090:/home/fanxinhao/Work/LiteOS_Lab/iot_link/os/liteos/cmsis/2.0/cmsis_liteos2.c ****         return (uint32_t)osFlagsErrorTimeout;
 3464              		.loc 1 1090 16
 3465 00a8 6FF00103 		mvn	r3, #1
 3466 00ac 02E0     		b	.L274
 3467              	.L279:
1091:/home/fanxinhao/Work/LiteOS_Lab/iot_link/os/liteos/cmsis/2.0/cmsis_liteos2.c **** 
1092:/home/fanxinhao/Work/LiteOS_Lab/iot_link/os/liteos/cmsis/2.0/cmsis_liteos2.c ****     default :
1093:/home/fanxinhao/Work/LiteOS_Lab/iot_link/os/liteos/cmsis/2.0/cmsis_liteos2.c ****         rflags = (uint32_t)uwRet;
 3468              		.loc 1 1093 16
 3469 00ae 3B69     		ldr	r3, [r7, #16]
 3470 00b0 7B61     		str	r3, [r7, #20]
1094:/home/fanxinhao/Work/LiteOS_Lab/iot_link/os/liteos/cmsis/2.0/cmsis_liteos2.c ****         return rflags;
 3471              		.loc 1 1094 16
 3472 00b2 7B69     		ldr	r3, [r7, #20]
 3473              	.L274:
1095:/home/fanxinhao/Work/LiteOS_Lab/iot_link/os/liteos/cmsis/2.0/cmsis_liteos2.c ****     }
1096:/home/fanxinhao/Work/LiteOS_Lab/iot_link/os/liteos/cmsis/2.0/cmsis_liteos2.c **** }
 3474              		.loc 1 1096 1
 3475 00b4 1846     		mov	r0, r3
 3476 00b6 2037     		adds	r7, r7, #32
ARM GAS  /tmp/ccKdD4IP.s 			page 80


 3477              	.LCFI200:
 3478              		.cfi_def_cfa_offset 8
 3479 00b8 BD46     		mov	sp, r7
 3480              	.LCFI201:
 3481              		.cfi_def_cfa_register 13
 3482              		@ sp needed
 3483 00ba 80BD     		pop	{r7, pc}
 3484              		.cfi_endproc
 3485              	.LFE175:
 3487              		.section	.text.osEventFlagsDelete,"ax",%progbits
 3488              		.align	1
 3489              		.global	osEventFlagsDelete
 3490              		.syntax unified
 3491              		.thumb
 3492              		.thumb_func
 3493              		.fpu fpv4-sp-d16
 3495              	osEventFlagsDelete:
 3496              	.LFB176:
1097:/home/fanxinhao/Work/LiteOS_Lab/iot_link/os/liteos/cmsis/2.0/cmsis_liteos2.c **** 
1098:/home/fanxinhao/Work/LiteOS_Lab/iot_link/os/liteos/cmsis/2.0/cmsis_liteos2.c **** 
1099:/home/fanxinhao/Work/LiteOS_Lab/iot_link/os/liteos/cmsis/2.0/cmsis_liteos2.c **** osStatus_t osEventFlagsDelete (osEventFlagsId_t ef_id)
1100:/home/fanxinhao/Work/LiteOS_Lab/iot_link/os/liteos/cmsis/2.0/cmsis_liteos2.c **** {
 3497              		.loc 1 1100 1
 3498              		.cfi_startproc
 3499              		@ args = 0, pretend = 0, frame = 24
 3500              		@ frame_needed = 1, uses_anonymous_args = 0
 3501 0000 80B5     		push	{r7, lr}
 3502              	.LCFI202:
 3503              		.cfi_def_cfa_offset 8
 3504              		.cfi_offset 7, -8
 3505              		.cfi_offset 14, -4
 3506 0002 86B0     		sub	sp, sp, #24
 3507              	.LCFI203:
 3508              		.cfi_def_cfa_offset 32
 3509 0004 00AF     		add	r7, sp, #0
 3510              	.LCFI204:
 3511              		.cfi_def_cfa_register 7
 3512 0006 7860     		str	r0, [r7, #4]
1101:/home/fanxinhao/Work/LiteOS_Lab/iot_link/os/liteos/cmsis/2.0/cmsis_liteos2.c ****     PEVENT_CB_S pstEventCB = (PEVENT_CB_S)ef_id;
 3513              		.loc 1 1101 17
 3514 0008 7B68     		ldr	r3, [r7, #4]
 3515 000a 3B61     		str	r3, [r7, #16]
1102:/home/fanxinhao/Work/LiteOS_Lab/iot_link/os/liteos/cmsis/2.0/cmsis_liteos2.c ****     UINTPTR uwIntSave;
1103:/home/fanxinhao/Work/LiteOS_Lab/iot_link/os/liteos/cmsis/2.0/cmsis_liteos2.c ****     osStatus_t uwRet;
1104:/home/fanxinhao/Work/LiteOS_Lab/iot_link/os/liteos/cmsis/2.0/cmsis_liteos2.c **** 
1105:/home/fanxinhao/Work/LiteOS_Lab/iot_link/os/liteos/cmsis/2.0/cmsis_liteos2.c ****     uwIntSave = LOS_IntLock();
 3516              		.loc 1 1105 17
 3517 000c FFF7FEFF 		bl	LOS_IntLock
 3518 0010 F860     		str	r0, [r7, #12]
1106:/home/fanxinhao/Work/LiteOS_Lab/iot_link/os/liteos/cmsis/2.0/cmsis_liteos2.c ****     if (LOS_EventDestroy(pstEventCB) == LOS_OK)
 3519              		.loc 1 1106 9
 3520 0012 3869     		ldr	r0, [r7, #16]
 3521 0014 FFF7FEFF 		bl	LOS_EventDestroy
 3522 0018 0346     		mov	r3, r0
 3523              		.loc 1 1106 8
 3524 001a 002B     		cmp	r3, #0
 3525 001c 02D1     		bne	.L285
ARM GAS  /tmp/ccKdD4IP.s 			page 81


1107:/home/fanxinhao/Work/LiteOS_Lab/iot_link/os/liteos/cmsis/2.0/cmsis_liteos2.c ****     {
1108:/home/fanxinhao/Work/LiteOS_Lab/iot_link/os/liteos/cmsis/2.0/cmsis_liteos2.c ****         uwRet = osOK;
 3526              		.loc 1 1108 15
 3527 001e 0023     		movs	r3, #0
 3528 0020 7B61     		str	r3, [r7, #20]
 3529 0022 02E0     		b	.L286
 3530              	.L285:
1109:/home/fanxinhao/Work/LiteOS_Lab/iot_link/os/liteos/cmsis/2.0/cmsis_liteos2.c ****     }
1110:/home/fanxinhao/Work/LiteOS_Lab/iot_link/os/liteos/cmsis/2.0/cmsis_liteos2.c ****     else
1111:/home/fanxinhao/Work/LiteOS_Lab/iot_link/os/liteos/cmsis/2.0/cmsis_liteos2.c ****     {
1112:/home/fanxinhao/Work/LiteOS_Lab/iot_link/os/liteos/cmsis/2.0/cmsis_liteos2.c ****         uwRet = osErrorParameter;
 3531              		.loc 1 1112 15
 3532 0024 6FF00303 		mvn	r3, #3
 3533 0028 7B61     		str	r3, [r7, #20]
 3534              	.L286:
1113:/home/fanxinhao/Work/LiteOS_Lab/iot_link/os/liteos/cmsis/2.0/cmsis_liteos2.c ****     }
1114:/home/fanxinhao/Work/LiteOS_Lab/iot_link/os/liteos/cmsis/2.0/cmsis_liteos2.c ****     LOS_IntRestore(uwIntSave);
 3535              		.loc 1 1114 5
 3536 002a F868     		ldr	r0, [r7, #12]
 3537 002c FFF7FEFF 		bl	LOS_IntRestore
1115:/home/fanxinhao/Work/LiteOS_Lab/iot_link/os/liteos/cmsis/2.0/cmsis_liteos2.c **** 
1116:/home/fanxinhao/Work/LiteOS_Lab/iot_link/os/liteos/cmsis/2.0/cmsis_liteos2.c ****     if (LOS_MemFree(m_aucSysMem0, (void *)pstEventCB) == LOS_OK)
 3538              		.loc 1 1116 9
 3539 0030 094B     		ldr	r3, .L290
 3540 0032 1B68     		ldr	r3, [r3]
 3541 0034 3969     		ldr	r1, [r7, #16]
 3542 0036 1846     		mov	r0, r3
 3543 0038 FFF7FEFF 		bl	LOS_MemFree
 3544 003c 0346     		mov	r3, r0
 3545              		.loc 1 1116 8
 3546 003e 002B     		cmp	r3, #0
 3547 0040 02D1     		bne	.L287
1117:/home/fanxinhao/Work/LiteOS_Lab/iot_link/os/liteos/cmsis/2.0/cmsis_liteos2.c ****     {
1118:/home/fanxinhao/Work/LiteOS_Lab/iot_link/os/liteos/cmsis/2.0/cmsis_liteos2.c ****         uwRet = osOK;
 3548              		.loc 1 1118 15
 3549 0042 0023     		movs	r3, #0
 3550 0044 7B61     		str	r3, [r7, #20]
 3551 0046 02E0     		b	.L288
 3552              	.L287:
1119:/home/fanxinhao/Work/LiteOS_Lab/iot_link/os/liteos/cmsis/2.0/cmsis_liteos2.c ****     }
1120:/home/fanxinhao/Work/LiteOS_Lab/iot_link/os/liteos/cmsis/2.0/cmsis_liteos2.c ****     else
1121:/home/fanxinhao/Work/LiteOS_Lab/iot_link/os/liteos/cmsis/2.0/cmsis_liteos2.c ****     {
1122:/home/fanxinhao/Work/LiteOS_Lab/iot_link/os/liteos/cmsis/2.0/cmsis_liteos2.c ****         uwRet = osErrorParameter;
 3553              		.loc 1 1122 15
 3554 0048 6FF00303 		mvn	r3, #3
 3555 004c 7B61     		str	r3, [r7, #20]
 3556              	.L288:
1123:/home/fanxinhao/Work/LiteOS_Lab/iot_link/os/liteos/cmsis/2.0/cmsis_liteos2.c ****     }
1124:/home/fanxinhao/Work/LiteOS_Lab/iot_link/os/liteos/cmsis/2.0/cmsis_liteos2.c **** 
1125:/home/fanxinhao/Work/LiteOS_Lab/iot_link/os/liteos/cmsis/2.0/cmsis_liteos2.c ****     return uwRet;
 3557              		.loc 1 1125 12
 3558 004e 7B69     		ldr	r3, [r7, #20]
1126:/home/fanxinhao/Work/LiteOS_Lab/iot_link/os/liteos/cmsis/2.0/cmsis_liteos2.c **** }
 3559              		.loc 1 1126 1
 3560 0050 1846     		mov	r0, r3
 3561 0052 1837     		adds	r7, r7, #24
 3562              	.LCFI205:
ARM GAS  /tmp/ccKdD4IP.s 			page 82


 3563              		.cfi_def_cfa_offset 8
 3564 0054 BD46     		mov	sp, r7
 3565              	.LCFI206:
 3566              		.cfi_def_cfa_register 13
 3567              		@ sp needed
 3568 0056 80BD     		pop	{r7, pc}
