ARM GAS  C:\Users\ADMINI~1\AppData\Local\Temp\ccOg4RIV.s 			page 1


   1              		.cpu cortex-m4
   2              		.eabi_attribute 27, 1
   3              		.eabi_attribute 28, 1
   4              		.eabi_attribute 20, 1
   5              		.eabi_attribute 21, 1
   6              		.eabi_attribute 23, 3
   7              		.eabi_attribute 24, 1
   8              		.eabi_attribute 25, 1
   9              		.eabi_attribute 26, 1
  10              		.eabi_attribute 30, 6
  11              		.eabi_attribute 34, 1
  12              		.eabi_attribute 18, 4
  13              		.file	"los_dispatch.c"
  14              		.text
  15              	.Ltext0:
  16              		.cfi_sections	.debug_frame
  17              		.section	.text.LOS_StartToRun,"ax",%progbits
  18              		.align	1
  19              		.global	LOS_StartToRun
  20              		.arch armv7e-m
  21              		.syntax unified
  22              		.thumb
  23              		.thumb_func
  24              		.fpu fpv4-sp-d16
  26              	LOS_StartToRun:
  27              	.LFB287:
  28              		.file 1 "d:/LiteOS_Lab/iot_link/os/liteos/arch/arm/arm-m/armv7-m/gcc/los_dispatch.c"
   1:d:/LiteOS_Lab/iot_link/os/liteos/arch/arm/arm-m/armv7-m/gcc\los_dispatch.c **** /** ----------------------------------------------------------------------------
   2:d:/LiteOS_Lab/iot_link/os/liteos/arch/arm/arm-m/armv7-m/gcc\los_dispatch.c ****  * Copyright (c) <2019>, <Huawei Technologies Co., Ltd>
   3:d:/LiteOS_Lab/iot_link/os/liteos/arch/arm/arm-m/armv7-m/gcc\los_dispatch.c ****  * All rights reserved.
   4:d:/LiteOS_Lab/iot_link/os/liteos/arch/arm/arm-m/armv7-m/gcc\los_dispatch.c ****  * Redistribution and use in source and binary forms, with or without modification,
   5:d:/LiteOS_Lab/iot_link/os/liteos/arch/arm/arm-m/armv7-m/gcc\los_dispatch.c ****  * are permitted provided that the following conditions are met:
   6:d:/LiteOS_Lab/iot_link/os/liteos/arch/arm/arm-m/armv7-m/gcc\los_dispatch.c ****  * 1. Redistributions of source code must retain the above copyright notice, this list of
   7:d:/LiteOS_Lab/iot_link/os/liteos/arch/arm/arm-m/armv7-m/gcc\los_dispatch.c ****  * conditions and the following disclaimer.
   8:d:/LiteOS_Lab/iot_link/os/liteos/arch/arm/arm-m/armv7-m/gcc\los_dispatch.c ****  * 2. Redistributions in binary form must reproduce the above copyright notice, this list
   9:d:/LiteOS_Lab/iot_link/os/liteos/arch/arm/arm-m/armv7-m/gcc\los_dispatch.c ****  * of conditions and the following disclaimer in the documentation and/or other materials
  10:d:/LiteOS_Lab/iot_link/os/liteos/arch/arm/arm-m/armv7-m/gcc\los_dispatch.c ****  * provided with the distribution.
  11:d:/LiteOS_Lab/iot_link/os/liteos/arch/arm/arm-m/armv7-m/gcc\los_dispatch.c ****  * 3. Neither the name of the copyright holder nor the names of its contributors may be used
  12:d:/LiteOS_Lab/iot_link/os/liteos/arch/arm/arm-m/armv7-m/gcc\los_dispatch.c ****  * to endorse or promote products derived from this software without specific prior written
  13:d:/LiteOS_Lab/iot_link/os/liteos/arch/arm/arm-m/armv7-m/gcc\los_dispatch.c ****  * permission.
  14:d:/LiteOS_Lab/iot_link/os/liteos/arch/arm/arm-m/armv7-m/gcc\los_dispatch.c ****  * THIS SOFTWARE IS PROVIDED BY THE COPYRIGHT HOLDERS AND CONTRIBUTORS
  15:d:/LiteOS_Lab/iot_link/os/liteos/arch/arm/arm-m/armv7-m/gcc\los_dispatch.c ****  * "AS IS" AND ANY EXPRESS OR IMPLIED WARRANTIES, INCLUDING, BUT NOT LIMITED TO,
  16:d:/LiteOS_Lab/iot_link/os/liteos/arch/arm/arm-m/armv7-m/gcc\los_dispatch.c ****  * THE IMPLIED WARRANTIES OF MERCHANTABILITY AND FITNESS FOR A PARTICULAR
  17:d:/LiteOS_Lab/iot_link/os/liteos/arch/arm/arm-m/armv7-m/gcc\los_dispatch.c ****  * PURPOSE ARE DISCLAIMED. IN NO EVENT SHALL THE COPYRIGHT HOLDER OR
  18:d:/LiteOS_Lab/iot_link/os/liteos/arch/arm/arm-m/armv7-m/gcc\los_dispatch.c ****  * CONTRIBUTORS BE LIABLE FOR ANY DIRECT, INDIRECT, INCIDENTAL, SPECIAL,
  19:d:/LiteOS_Lab/iot_link/os/liteos/arch/arm/arm-m/armv7-m/gcc\los_dispatch.c ****  * EXEMPLARY, OR CONSEQUENTIAL DAMAGES (INCLUDING, BUT NOT LIMITED TO,
  20:d:/LiteOS_Lab/iot_link/os/liteos/arch/arm/arm-m/armv7-m/gcc\los_dispatch.c ****  * PROCUREMENT OF SUBSTITUTE GOODS OR SERVICES; LOSS OF USE, DATA, OR PROFITS;
  21:d:/LiteOS_Lab/iot_link/os/liteos/arch/arm/arm-m/armv7-m/gcc\los_dispatch.c ****  * OR BUSINESS INTERRUPTION) HOWEVER CAUSED AND ON ANY THEORY OF LIABILITY,
  22:d:/LiteOS_Lab/iot_link/os/liteos/arch/arm/arm-m/armv7-m/gcc\los_dispatch.c ****  * WHETHER IN CONTRACT, STRICT LIABILITY, OR TORT (INCLUDING NEGLIGENCE OR
  23:d:/LiteOS_Lab/iot_link/os/liteos/arch/arm/arm-m/armv7-m/gcc\los_dispatch.c ****  * OTHERWISE) ARISING IN ANY WAY OUT OF THE USE OF THIS SOFTWARE, EVEN IF
  24:d:/LiteOS_Lab/iot_link/os/liteos/arch/arm/arm-m/armv7-m/gcc\los_dispatch.c ****  * ADVISED OF THE POSSIBILITY OF SUCH DAMAGE.
  25:d:/LiteOS_Lab/iot_link/os/liteos/arch/arm/arm-m/armv7-m/gcc\los_dispatch.c ****  *---------------------------------------------------------------------------*/
  26:d:/LiteOS_Lab/iot_link/os/liteos/arch/arm/arm-m/armv7-m/gcc\los_dispatch.c **** /** ----------------------------------------------------------------------------
  27:d:/LiteOS_Lab/iot_link/os/liteos/arch/arm/arm-m/armv7-m/gcc\los_dispatch.c ****  * Notice of Export Control Law
  28:d:/LiteOS_Lab/iot_link/os/liteos/arch/arm/arm-m/armv7-m/gcc\los_dispatch.c ****  * ===============================================
  29:d:/LiteOS_Lab/iot_link/os/liteos/arch/arm/arm-m/armv7-m/gcc\los_dispatch.c ****  * Huawei LiteOS may be subject to applicable export control laws and regulations, which might
  30:d:/LiteOS_Lab/iot_link/os/liteos/arch/arm/arm-m/armv7-m/gcc\los_dispatch.c ****  * include those applicable to Huawei LiteOS of U.S. and the country in which you are located.
ARM GAS  C:\Users\ADMINI~1\AppData\Local\Temp\ccOg4RIV.s 			page 2


  31:d:/LiteOS_Lab/iot_link/os/liteos/arch/arm/arm-m/armv7-m/gcc\los_dispatch.c ****  * Import, export and usage of Huawei LiteOS in any manner by you shall be in compliance with such
  32:d:/LiteOS_Lab/iot_link/os/liteos/arch/arm/arm-m/armv7-m/gcc\los_dispatch.c ****  * applicable export control laws and regulations.
  33:d:/LiteOS_Lab/iot_link/os/liteos/arch/arm/arm-m/armv7-m/gcc\los_dispatch.c ****  *---------------------------------------------------------------------------*/
  34:d:/LiteOS_Lab/iot_link/os/liteos/arch/arm/arm-m/armv7-m/gcc\los_dispatch.c ****  
  35:d:/LiteOS_Lab/iot_link/os/liteos/arch/arm/arm-m/armv7-m/gcc\los_dispatch.c **** #include <los_config.h>
  36:d:/LiteOS_Lab/iot_link/os/liteos/arch/arm/arm-m/armv7-m/gcc\los_dispatch.c **** #include <los_typedef.h>
  37:d:/LiteOS_Lab/iot_link/os/liteos/arch/arm/arm-m/armv7-m/gcc\los_dispatch.c **** 
  38:d:/LiteOS_Lab/iot_link/os/liteos/arch/arm/arm-m/armv7-m/gcc\los_dispatch.c **** #define NVIC_INT_CTRL                   0xE000ED04  /* Interrupt Control and State Register. */
  39:d:/LiteOS_Lab/iot_link/os/liteos/arch/arm/arm-m/armv7-m/gcc\los_dispatch.c **** #define NVIC_PENDSVSET                  0x10000000  /* Value to trigger PendSV exception. */
  40:d:/LiteOS_Lab/iot_link/os/liteos/arch/arm/arm-m/armv7-m/gcc\los_dispatch.c **** 
  41:d:/LiteOS_Lab/iot_link/os/liteos/arch/arm/arm-m/armv7-m/gcc\los_dispatch.c **** #define NVIC_SYSPRI2                    0xE000ED20  /* System Handler Priority Register 2. */
  42:d:/LiteOS_Lab/iot_link/os/liteos/arch/arm/arm-m/armv7-m/gcc\los_dispatch.c **** #define NVIC_PENDSV_SYSTICK_PRI         0xFFFF0000  /* SysTick + PendSV priority level (lowest). */
  43:d:/LiteOS_Lab/iot_link/os/liteos/arch/arm/arm-m/armv7-m/gcc\los_dispatch.c **** #define MPU_RBAR                        0xE000ED9C  /* MPU Region Base Address register */
  44:d:/LiteOS_Lab/iot_link/os/liteos/arch/arm/arm-m/armv7-m/gcc\los_dispatch.c **** 
  45:d:/LiteOS_Lab/iot_link/os/liteos/arch/arm/arm-m/armv7-m/gcc\los_dispatch.c **** #define OS_TASK_STATUS_RUNNING          0x00000010  /* Task Status Flag (RUNNING). */
  46:d:/LiteOS_Lab/iot_link/os/liteos/arch/arm/arm-m/armv7-m/gcc\los_dispatch.c **** 
  47:d:/LiteOS_Lab/iot_link/os/liteos/arch/arm/arm-m/armv7-m/gcc\los_dispatch.c **** /****************************************************************************************
  48:d:/LiteOS_Lab/iot_link/os/liteos/arch/arm/arm-m/armv7-m/gcc\los_dispatch.c **** * Function:
  49:d:/LiteOS_Lab/iot_link/os/liteos/arch/arm/arm-m/armv7-m/gcc\los_dispatch.c **** *        VOID LOS_StartToRun(VOID);
  50:d:/LiteOS_Lab/iot_link/os/liteos/arch/arm/arm-m/armv7-m/gcc\los_dispatch.c **** * Description:
  51:d:/LiteOS_Lab/iot_link/os/liteos/arch/arm/arm-m/armv7-m/gcc\los_dispatch.c **** *        Start the first task, which is the highest priority task in the priority queue.
  52:d:/LiteOS_Lab/iot_link/os/liteos/arch/arm/arm-m/armv7-m/gcc\los_dispatch.c **** *        Other tasks are started by task scheduling.
  53:d:/LiteOS_Lab/iot_link/os/liteos/arch/arm/arm-m/armv7-m/gcc\los_dispatch.c **** ****************************************************************************************/
  54:d:/LiteOS_Lab/iot_link/os/liteos/arch/arm/arm-m/armv7-m/gcc\los_dispatch.c **** __attribute__((naked)) void LOS_StartToRun(void)
  55:d:/LiteOS_Lab/iot_link/os/liteos/arch/arm/arm-m/armv7-m/gcc\los_dispatch.c **** {
  29              		.loc 1 55 1
  30              		.cfi_startproc
  31              		@ Naked Function: prologue and epilogue provided by programmer.
  32              		@ args = 0, pretend = 0, frame = 0
  33              		@ frame_needed = 1, uses_anonymous_args = 0
  56:d:/LiteOS_Lab/iot_link/os/liteos/arch/arm/arm-m/armv7-m/gcc\los_dispatch.c ****     asm (
  34              		.loc 1 56 5
  35              		.syntax unified
  36              	@ 56 "d:/LiteOS_Lab/iot_link/os/liteos/arch/arm/arm-m/armv7-m/gcc/los_dispatch.c" 1
  37              		.syntax unified
  38 0000 72B6     		CPSID  I
  39 0002 1548     		LDR    R0, =#-536810208                 @ NVIC_SYSPRI2
  40 0004 1549     		LDR    R1, =#-65536                 @ NVIC_PENDSV_SYSTICK_PRI
  41 0006 0268     		LDR    R2, [R0]
  42 0008 41EA0201 		ORR    R1, R1, R2
  43 000c 0160     		STR    R1, [R0]
  44 000e 1448     		LDR    R0, =g_bTaskScheduled
  45 0010 4FF00101 		MOV    R1, #1
  46 0014 0160     		STR    R1, [R0]
  47 0016 1348     		LDR    R0, =g_stLosTask
  48 0018 4168     		LDR    R1, [R0, #4]
  49 001a 0160     		STR    R1, [R0]
  50 001c 0168     		LDR    R1, [R0]
  51 001e 8A88     		LDRH   R2, [R1, #4]
  52 0020 4FF01003 		MOV    R3, #16                  @ OS_TASK_STATUS_RUNNING
  53 0024 42EA0302 		ORR    R2, R2, R3
  54 0028 8A80     		STRH   R2, [R1, #4]
  55 002a D1F800C0 		LDR    R12, [R1]
  56 002e 4FF00203 		MOV    R3, #2
  57 0032 0CF1240C 		ADD    R12, R12, #36           @ skip R4-R11, PRIMASK.
  58 0036 0CF1040C 		ADD    R12, R12, #4            @ if FPU exist, skip EXC_RETURN.
  59 003a DCF80000 		LDR    R0, [R12]
ARM GAS  C:\Users\ADMINI~1\AppData\Local\Temp\ccOg4RIV.s 			page 3


  60 003e DCF814E0 		LDR    LR, [R12, #4 * 5]
  61 0042 DCF81820 		LDR    R2, [R12, #4 * 6]
  62 0046 0CF1200C 		ADD    R12, R12, #4 * 8
  63 004a 8CF30988 		MSR    PSP, R12
  64 004e 62B6     		CPSIE  I
  65 0050 83F31488 		MSR    CONTROL, R3
  66 0054 1047     		BX     R2
  67              		
  68              	@ 0 "" 2
  57:d:/LiteOS_Lab/iot_link/os/liteos/arch/arm/arm-m/armv7-m/gcc\los_dispatch.c ****     ".syntax unified\n\t"
  58:d:/LiteOS_Lab/iot_link/os/liteos/arch/arm/arm-m/armv7-m/gcc\los_dispatch.c **** 
  59:d:/LiteOS_Lab/iot_link/os/liteos/arch/arm/arm-m/armv7-m/gcc\los_dispatch.c ****     "CPSID  I\n\t"
  60:d:/LiteOS_Lab/iot_link/os/liteos/arch/arm/arm-m/armv7-m/gcc\los_dispatch.c **** 
  61:d:/LiteOS_Lab/iot_link/os/liteos/arch/arm/arm-m/armv7-m/gcc\los_dispatch.c ****     /**
  62:d:/LiteOS_Lab/iot_link/os/liteos/arch/arm/arm-m/armv7-m/gcc\los_dispatch.c ****      * Set PendSV and SysTick prority to the lowest.
  63:d:/LiteOS_Lab/iot_link/os/liteos/arch/arm/arm-m/armv7-m/gcc\los_dispatch.c ****      * read ---> modify ---> write-back.
  64:d:/LiteOS_Lab/iot_link/os/liteos/arch/arm/arm-m/armv7-m/gcc\los_dispatch.c ****      */
  65:d:/LiteOS_Lab/iot_link/os/liteos/arch/arm/arm-m/armv7-m/gcc\los_dispatch.c **** 
  66:d:/LiteOS_Lab/iot_link/os/liteos/arch/arm/arm-m/armv7-m/gcc\los_dispatch.c ****     "LDR    R0, =%0                 @ NVIC_SYSPRI2\n\t"
  67:d:/LiteOS_Lab/iot_link/os/liteos/arch/arm/arm-m/armv7-m/gcc\los_dispatch.c ****     "LDR    R1, =%1                 @ NVIC_PENDSV_SYSTICK_PRI\n\t"
  68:d:/LiteOS_Lab/iot_link/os/liteos/arch/arm/arm-m/armv7-m/gcc\los_dispatch.c ****     "LDR    R2, [R0]\n\t"
  69:d:/LiteOS_Lab/iot_link/os/liteos/arch/arm/arm-m/armv7-m/gcc\los_dispatch.c ****     "ORR    R1, R1, R2\n\t"
  70:d:/LiteOS_Lab/iot_link/os/liteos/arch/arm/arm-m/armv7-m/gcc\los_dispatch.c ****     "STR    R1, [R0]\n\t"
  71:d:/LiteOS_Lab/iot_link/os/liteos/arch/arm/arm-m/armv7-m/gcc\los_dispatch.c **** 
  72:d:/LiteOS_Lab/iot_link/os/liteos/arch/arm/arm-m/armv7-m/gcc\los_dispatch.c ****     /**
  73:d:/LiteOS_Lab/iot_link/os/liteos/arch/arm/arm-m/armv7-m/gcc\los_dispatch.c ****      * Set g_bTaskScheduled = 1.
  74:d:/LiteOS_Lab/iot_link/os/liteos/arch/arm/arm-m/armv7-m/gcc\los_dispatch.c ****      */
  75:d:/LiteOS_Lab/iot_link/os/liteos/arch/arm/arm-m/armv7-m/gcc\los_dispatch.c **** 
  76:d:/LiteOS_Lab/iot_link/os/liteos/arch/arm/arm-m/armv7-m/gcc\los_dispatch.c ****     "LDR    R0, =g_bTaskScheduled\n\t"
  77:d:/LiteOS_Lab/iot_link/os/liteos/arch/arm/arm-m/armv7-m/gcc\los_dispatch.c ****     "MOV    R1, #1\n\t"
  78:d:/LiteOS_Lab/iot_link/os/liteos/arch/arm/arm-m/armv7-m/gcc\los_dispatch.c ****     "STR    R1, [R0]\n\t"
  79:d:/LiteOS_Lab/iot_link/os/liteos/arch/arm/arm-m/armv7-m/gcc\los_dispatch.c **** 
  80:d:/LiteOS_Lab/iot_link/os/liteos/arch/arm/arm-m/armv7-m/gcc\los_dispatch.c ****     /**
  81:d:/LiteOS_Lab/iot_link/os/liteos/arch/arm/arm-m/armv7-m/gcc\los_dispatch.c ****      * Set g_stLosTask.pstRunTask = g_stLosTask.pstNewTask.
  82:d:/LiteOS_Lab/iot_link/os/liteos/arch/arm/arm-m/armv7-m/gcc\los_dispatch.c ****      */
  83:d:/LiteOS_Lab/iot_link/os/liteos/arch/arm/arm-m/armv7-m/gcc\los_dispatch.c ****     "LDR    R0, =g_stLosTask\n\t"
  84:d:/LiteOS_Lab/iot_link/os/liteos/arch/arm/arm-m/armv7-m/gcc\los_dispatch.c ****     "LDR    R1, [R0, #4]\n\t"
  85:d:/LiteOS_Lab/iot_link/os/liteos/arch/arm/arm-m/armv7-m/gcc\los_dispatch.c ****     "STR    R1, [R0]\n\t"
  86:d:/LiteOS_Lab/iot_link/os/liteos/arch/arm/arm-m/armv7-m/gcc\los_dispatch.c **** 
  87:d:/LiteOS_Lab/iot_link/os/liteos/arch/arm/arm-m/armv7-m/gcc\los_dispatch.c ****     /**
  88:d:/LiteOS_Lab/iot_link/os/liteos/arch/arm/arm-m/armv7-m/gcc\los_dispatch.c ****      * Set g_stLosTask.pstRunTask->usTaskStatus |= OS_TASK_STATUS_RUNNING.
  89:d:/LiteOS_Lab/iot_link/os/liteos/arch/arm/arm-m/armv7-m/gcc\los_dispatch.c ****      */
  90:d:/LiteOS_Lab/iot_link/os/liteos/arch/arm/arm-m/armv7-m/gcc\los_dispatch.c ****     "LDR    R1, [R0]\n\t"
  91:d:/LiteOS_Lab/iot_link/os/liteos/arch/arm/arm-m/armv7-m/gcc\los_dispatch.c ****     "LDRH   R2, [R1, #4]\n\t"
  92:d:/LiteOS_Lab/iot_link/os/liteos/arch/arm/arm-m/armv7-m/gcc\los_dispatch.c ****     "MOV    R3, %2                  @ OS_TASK_STATUS_RUNNING\n\t"
  93:d:/LiteOS_Lab/iot_link/os/liteos/arch/arm/arm-m/armv7-m/gcc\los_dispatch.c ****     "ORR    R2, R2, R3\n\t"
  94:d:/LiteOS_Lab/iot_link/os/liteos/arch/arm/arm-m/armv7-m/gcc\los_dispatch.c ****     "STRH   R2, [R1, #4]\n\t"
  95:d:/LiteOS_Lab/iot_link/os/liteos/arch/arm/arm-m/armv7-m/gcc\los_dispatch.c **** 
  96:d:/LiteOS_Lab/iot_link/os/liteos/arch/arm/arm-m/armv7-m/gcc\los_dispatch.c ****     /**
  97:d:/LiteOS_Lab/iot_link/os/liteos/arch/arm/arm-m/armv7-m/gcc\los_dispatch.c ****      * Restore the default stack frame(R0-R3,R12,LR,PC,xPSR) of g_stLosTask.pstRunTask to R0-R7.
  98:d:/LiteOS_Lab/iot_link/os/liteos/arch/arm/arm-m/armv7-m/gcc\los_dispatch.c ****      * [Initial EXC_RETURN ignore, if FPU supported] return by setting the CONTROL register.
  99:d:/LiteOS_Lab/iot_link/os/liteos/arch/arm/arm-m/armv7-m/gcc\los_dispatch.c ****      *
 100:d:/LiteOS_Lab/iot_link/os/liteos/arch/arm/arm-m/armv7-m/gcc\los_dispatch.c ****      * The initial stack of the current running task is as follows:
 101:d:/LiteOS_Lab/iot_link/os/liteos/arch/arm/arm-m/armv7-m/gcc\los_dispatch.c ****      *
 102:d:/LiteOS_Lab/iot_link/os/liteos/arch/arm/arm-m/armv7-m/gcc\los_dispatch.c ****      *       POP: Restore the context of the current running task ===>|
 103:d:/LiteOS_Lab/iot_link/os/liteos/arch/arm/arm-m/armv7-m/gcc\los_dispatch.c ****      *                                                   High addr--->|
 104:d:/LiteOS_Lab/iot_link/os/liteos/arch/arm/arm-m/armv7-m/gcc\los_dispatch.c ****      *                                         Bottom of the stack--->|
ARM GAS  C:\Users\ADMINI~1\AppData\Local\Temp\ccOg4RIV.s 			page 4


 105:d:/LiteOS_Lab/iot_link/os/liteos/arch/arm/arm-m/armv7-m/gcc\los_dispatch.c ****      * ----------+-----------------------------+----------------------+
 106:d:/LiteOS_Lab/iot_link/os/liteos/arch/arm/arm-m/armv7-m/gcc\los_dispatch.c ****      *           | R4-R11,PRIMASK[,EXC_RETURN] | R0-R3,R12,LR,PC,xPSR |
 107:d:/LiteOS_Lab/iot_link/os/liteos/arch/arm/arm-m/armv7-m/gcc\los_dispatch.c ****      * ----------+-----------------------------+----------------------+
 108:d:/LiteOS_Lab/iot_link/os/liteos/arch/arm/arm-m/armv7-m/gcc\los_dispatch.c ****      *           |<---Top of the stack, restored from g_stLosTask.pstRunTask->pStackPointer
 109:d:/LiteOS_Lab/iot_link/os/liteos/arch/arm/arm-m/armv7-m/gcc\los_dispatch.c ****      *           |<---         skip        --->|<--- get r0,lr,pc --->|
 110:d:/LiteOS_Lab/iot_link/os/liteos/arch/arm/arm-m/armv7-m/gcc\los_dispatch.c ****      *                                                  R12 to PSP--->|
 111:d:/LiteOS_Lab/iot_link/os/liteos/arch/arm/arm-m/armv7-m/gcc\los_dispatch.c ****      *                          Stack pointer after LOS_StartToRun--->|
 112:d:/LiteOS_Lab/iot_link/os/liteos/arch/arm/arm-m/armv7-m/gcc\los_dispatch.c ****      */
 113:d:/LiteOS_Lab/iot_link/os/liteos/arch/arm/arm-m/armv7-m/gcc\los_dispatch.c **** 
 114:d:/LiteOS_Lab/iot_link/os/liteos/arch/arm/arm-m/armv7-m/gcc\los_dispatch.c ****     "LDR    R12, [R1]\n\t"
 115:d:/LiteOS_Lab/iot_link/os/liteos/arch/arm/arm-m/armv7-m/gcc\los_dispatch.c **** 
 116:d:/LiteOS_Lab/iot_link/os/liteos/arch/arm/arm-m/armv7-m/gcc\los_dispatch.c **** #if (LOSCFG_ENABLE_MPU == YES)
 117:d:/LiteOS_Lab/iot_link/os/liteos/arch/arm/arm-m/armv7-m/gcc\los_dispatch.c ****     "LDR    R0, [R1, #8]            @ TCB->pMpuSettings\n\t"
 118:d:/LiteOS_Lab/iot_link/os/liteos/arch/arm/arm-m/armv7-m/gcc\los_dispatch.c ****     "LDR    R1, =%3                 @ MPU_RBAR\n\t"
 119:d:/LiteOS_Lab/iot_link/os/liteos/arch/arm/arm-m/armv7-m/gcc\los_dispatch.c ****     "LDM    R0!, {R2-R7}\n\t"
 120:d:/LiteOS_Lab/iot_link/os/liteos/arch/arm/arm-m/armv7-m/gcc\los_dispatch.c ****     "STM    R1, {R2-R7}\n\t"
 121:d:/LiteOS_Lab/iot_link/os/liteos/arch/arm/arm-m/armv7-m/gcc\los_dispatch.c ****     "LDM    R0!, {R2-R7}\n\t"
 122:d:/LiteOS_Lab/iot_link/os/liteos/arch/arm/arm-m/armv7-m/gcc\los_dispatch.c ****     "STM    R1, {R2-R7}\n\t"
 123:d:/LiteOS_Lab/iot_link/os/liteos/arch/arm/arm-m/armv7-m/gcc\los_dispatch.c **** 
 124:d:/LiteOS_Lab/iot_link/os/liteos/arch/arm/arm-m/armv7-m/gcc\los_dispatch.c ****     "LDR    R3, [R12], #4           @ get the CONTROL value\n\t"
 125:d:/LiteOS_Lab/iot_link/os/liteos/arch/arm/arm-m/armv7-m/gcc\los_dispatch.c ****     "ORR    R3, #2                  @ set CONTROL.SPSEL\n\t"
 126:d:/LiteOS_Lab/iot_link/os/liteos/arch/arm/arm-m/armv7-m/gcc\los_dispatch.c **** #else
 127:d:/LiteOS_Lab/iot_link/os/liteos/arch/arm/arm-m/armv7-m/gcc\los_dispatch.c ****     "MOV    R3, #2\n\t"
 128:d:/LiteOS_Lab/iot_link/os/liteos/arch/arm/arm-m/armv7-m/gcc\los_dispatch.c **** #endif
 129:d:/LiteOS_Lab/iot_link/os/liteos/arch/arm/arm-m/armv7-m/gcc\los_dispatch.c **** 
 130:d:/LiteOS_Lab/iot_link/os/liteos/arch/arm/arm-m/armv7-m/gcc\los_dispatch.c ****     "ADD    R12, R12, #36           @ skip R4-R11, PRIMASK.\n\t"
 131:d:/LiteOS_Lab/iot_link/os/liteos/arch/arm/arm-m/armv7-m/gcc\los_dispatch.c **** 
 132:d:/LiteOS_Lab/iot_link/os/liteos/arch/arm/arm-m/armv7-m/gcc\los_dispatch.c **** #if defined (__VFP_FP__) && !defined(__SOFTFP__)
 133:d:/LiteOS_Lab/iot_link/os/liteos/arch/arm/arm-m/armv7-m/gcc\los_dispatch.c ****     "ADD    R12, R12, #4            @ if FPU exist, skip EXC_RETURN.\n\t"
 134:d:/LiteOS_Lab/iot_link/os/liteos/arch/arm/arm-m/armv7-m/gcc\los_dispatch.c **** #endif
 135:d:/LiteOS_Lab/iot_link/os/liteos/arch/arm/arm-m/armv7-m/gcc\los_dispatch.c **** 
 136:d:/LiteOS_Lab/iot_link/os/liteos/arch/arm/arm-m/armv7-m/gcc\los_dispatch.c ****     "LDR    R0, [R12]\n\t"
 137:d:/LiteOS_Lab/iot_link/os/liteos/arch/arm/arm-m/armv7-m/gcc\los_dispatch.c ****     "LDR    LR, [R12, #4 * 5]\n\t"
 138:d:/LiteOS_Lab/iot_link/os/liteos/arch/arm/arm-m/armv7-m/gcc\los_dispatch.c ****     "LDR    R2, [R12, #4 * 6]\n\t"
 139:d:/LiteOS_Lab/iot_link/os/liteos/arch/arm/arm-m/armv7-m/gcc\los_dispatch.c **** 
 140:d:/LiteOS_Lab/iot_link/os/liteos/arch/arm/arm-m/armv7-m/gcc\los_dispatch.c ****     "ADD    R12, R12, #4 * 8\n\t"
 141:d:/LiteOS_Lab/iot_link/os/liteos/arch/arm/arm-m/armv7-m/gcc\los_dispatch.c **** 
 142:d:/LiteOS_Lab/iot_link/os/liteos/arch/arm/arm-m/armv7-m/gcc\los_dispatch.c ****     /**
 143:d:/LiteOS_Lab/iot_link/os/liteos/arch/arm/arm-m/armv7-m/gcc\los_dispatch.c ****      * Set the stack pointer of g_stLosTask.pstRunTask to PSP.
 144:d:/LiteOS_Lab/iot_link/os/liteos/arch/arm/arm-m/armv7-m/gcc\los_dispatch.c ****      */
 145:d:/LiteOS_Lab/iot_link/os/liteos/arch/arm/arm-m/armv7-m/gcc\los_dispatch.c ****     "MSR    PSP, R12\n\t"
 146:d:/LiteOS_Lab/iot_link/os/liteos/arch/arm/arm-m/armv7-m/gcc\los_dispatch.c **** 
 147:d:/LiteOS_Lab/iot_link/os/liteos/arch/arm/arm-m/armv7-m/gcc\los_dispatch.c ****     /**
 148:d:/LiteOS_Lab/iot_link/os/liteos/arch/arm/arm-m/armv7-m/gcc\los_dispatch.c ****      * Enable interrupt. (The default PRIMASK value is 0, so enable directly)
 149:d:/LiteOS_Lab/iot_link/os/liteos/arch/arm/arm-m/armv7-m/gcc\los_dispatch.c ****      */
 150:d:/LiteOS_Lab/iot_link/os/liteos/arch/arm/arm-m/armv7-m/gcc\los_dispatch.c ****     "CPSIE  I\n\t"
 151:d:/LiteOS_Lab/iot_link/os/liteos/arch/arm/arm-m/armv7-m/gcc\los_dispatch.c **** 
 152:d:/LiteOS_Lab/iot_link/os/liteos/arch/arm/arm-m/armv7-m/gcc\los_dispatch.c ****     /**
 153:d:/LiteOS_Lab/iot_link/os/liteos/arch/arm/arm-m/armv7-m/gcc\los_dispatch.c ****      * Set the CONTROL register, after schedule start, privilege level and stack = PSP.
 154:d:/LiteOS_Lab/iot_link/os/liteos/arch/arm/arm-m/armv7-m/gcc\los_dispatch.c ****      */
 155:d:/LiteOS_Lab/iot_link/os/liteos/arch/arm/arm-m/armv7-m/gcc\los_dispatch.c ****     "MSR    CONTROL, R3\n\t"
 156:d:/LiteOS_Lab/iot_link/os/liteos/arch/arm/arm-m/armv7-m/gcc\los_dispatch.c **** 
 157:d:/LiteOS_Lab/iot_link/os/liteos/arch/arm/arm-m/armv7-m/gcc\los_dispatch.c ****     /**
 158:d:/LiteOS_Lab/iot_link/os/liteos/arch/arm/arm-m/armv7-m/gcc\los_dispatch.c ****      * Jump directly to the default PC of g_stLosTask.pstRunTask, the field information
 159:d:/LiteOS_Lab/iot_link/os/liteos/arch/arm/arm-m/armv7-m/gcc\los_dispatch.c ****      * of the main function will be destroyed and will never be returned.
 160:d:/LiteOS_Lab/iot_link/os/liteos/arch/arm/arm-m/armv7-m/gcc\los_dispatch.c ****      */
 161:d:/LiteOS_Lab/iot_link/os/liteos/arch/arm/arm-m/armv7-m/gcc\los_dispatch.c ****     "BX     R2\n\t"
ARM GAS  C:\Users\ADMINI~1\AppData\Local\Temp\ccOg4RIV.s 			page 5


 162:d:/LiteOS_Lab/iot_link/os/liteos/arch/arm/arm-m/armv7-m/gcc\los_dispatch.c ****     :
 163:d:/LiteOS_Lab/iot_link/os/liteos/arch/arm/arm-m/armv7-m/gcc\los_dispatch.c ****     : "X" (NVIC_SYSPRI2), "X" (NVIC_PENDSV_SYSTICK_PRI),
 164:d:/LiteOS_Lab/iot_link/os/liteos/arch/arm/arm-m/armv7-m/gcc\los_dispatch.c ****       "I" (OS_TASK_STATUS_RUNNING), "X" (MPU_RBAR)
 165:d:/LiteOS_Lab/iot_link/os/liteos/arch/arm/arm-m/armv7-m/gcc\los_dispatch.c ****     );
 166:d:/LiteOS_Lab/iot_link/os/liteos/arch/arm/arm-m/armv7-m/gcc\los_dispatch.c **** }
  69              		.loc 1 166 1
  70              		.thumb
  71              		.syntax unified
  72 0056 00BF     		nop
  73              		.cfi_endproc
  74              	.LFE287:
  76              		.section	.text.LOS_IntLock,"ax",%progbits
  77              		.align	1
  78              		.global	LOS_IntLock
  79              		.syntax unified
  80              		.thumb
  81              		.thumb_func
  82              		.fpu fpv4-sp-d16
  84              	LOS_IntLock:
  85              	.LFB288:
 167:d:/LiteOS_Lab/iot_link/os/liteos/arch/arm/arm-m/armv7-m/gcc\los_dispatch.c **** 
 168:d:/LiteOS_Lab/iot_link/os/liteos/arch/arm/arm-m/armv7-m/gcc\los_dispatch.c **** /****************************************************************************************
 169:d:/LiteOS_Lab/iot_link/os/liteos/arch/arm/arm-m/armv7-m/gcc\los_dispatch.c **** * Function:
 170:d:/LiteOS_Lab/iot_link/os/liteos/arch/arm/arm-m/armv7-m/gcc\los_dispatch.c **** *        UINTPTR LOS_IntLock(VOID);
 171:d:/LiteOS_Lab/iot_link/os/liteos/arch/arm/arm-m/armv7-m/gcc\los_dispatch.c **** * Description:
 172:d:/LiteOS_Lab/iot_link/os/liteos/arch/arm/arm-m/armv7-m/gcc\los_dispatch.c **** *        Disable all interrupts except Reset,NMI and HardFault.
 173:d:/LiteOS_Lab/iot_link/os/liteos/arch/arm/arm-m/armv7-m/gcc\los_dispatch.c **** *        The value of currnet interruption state will be returned to the caller to save.
 174:d:/LiteOS_Lab/iot_link/os/liteos/arch/arm/arm-m/armv7-m/gcc\los_dispatch.c **** *
 175:d:/LiteOS_Lab/iot_link/os/liteos/arch/arm/arm-m/armv7-m/gcc\los_dispatch.c **** * Function:
 176:d:/LiteOS_Lab/iot_link/os/liteos/arch/arm/arm-m/armv7-m/gcc\los_dispatch.c **** *        VOID LOS_IntRestore(UINTPTR uvIntSave);
 177:d:/LiteOS_Lab/iot_link/os/liteos/arch/arm/arm-m/armv7-m/gcc\los_dispatch.c **** * Description:
 178:d:/LiteOS_Lab/iot_link/os/liteos/arch/arm/arm-m/armv7-m/gcc\los_dispatch.c **** *        Restore the locked interruption of LOS_IntLock.
 179:d:/LiteOS_Lab/iot_link/os/liteos/arch/arm/arm-m/armv7-m/gcc\los_dispatch.c **** *        The caller must pass in the value of interruption state previously saved.
 180:d:/LiteOS_Lab/iot_link/os/liteos/arch/arm/arm-m/armv7-m/gcc\los_dispatch.c **** ****************************************************************************************/
 181:d:/LiteOS_Lab/iot_link/os/liteos/arch/arm/arm-m/armv7-m/gcc\los_dispatch.c **** __attribute__((naked)) UINTPTR LOS_IntLock(void)
 182:d:/LiteOS_Lab/iot_link/os/liteos/arch/arm/arm-m/armv7-m/gcc\los_dispatch.c **** {
  86              		.loc 1 182 1
  87              		.cfi_startproc
  88              		@ Naked Function: prologue and epilogue provided by programmer.
  89              		@ args = 0, pretend = 0, frame = 0
  90              		@ frame_needed = 1, uses_anonymous_args = 0
 183:d:/LiteOS_Lab/iot_link/os/liteos/arch/arm/arm-m/armv7-m/gcc\los_dispatch.c ****     asm (
  91              		.loc 1 183 5
  92              		.syntax unified
  93              	@ 183 "d:/LiteOS_Lab/iot_link/os/liteos/arch/arm/arm-m/armv7-m/gcc/los_dispatch.c" 1
  94              		.syntax unified
  95 0000 EFF31080 		MRS    R0, PRIMASK
  96 0004 72B6     		CPSID  I
  97 0006 7047     		BX     LR
  98              		
  99              	@ 0 "" 2
 184:d:/LiteOS_Lab/iot_link/os/liteos/arch/arm/arm-m/armv7-m/gcc\los_dispatch.c ****     ".syntax unified\n\t"
 185:d:/LiteOS_Lab/iot_link/os/liteos/arch/arm/arm-m/armv7-m/gcc\los_dispatch.c **** 
 186:d:/LiteOS_Lab/iot_link/os/liteos/arch/arm/arm-m/armv7-m/gcc\los_dispatch.c ****     "MRS    R0, PRIMASK\n\t"
 187:d:/LiteOS_Lab/iot_link/os/liteos/arch/arm/arm-m/armv7-m/gcc\los_dispatch.c ****     "CPSID  I\n\t"
 188:d:/LiteOS_Lab/iot_link/os/liteos/arch/arm/arm-m/armv7-m/gcc\los_dispatch.c ****     "BX     LR\n\t"
 189:d:/LiteOS_Lab/iot_link/os/liteos/arch/arm/arm-m/armv7-m/gcc\los_dispatch.c ****     );
ARM GAS  C:\Users\ADMINI~1\AppData\Local\Temp\ccOg4RIV.s 			page 6


 190:d:/LiteOS_Lab/iot_link/os/liteos/arch/arm/arm-m/armv7-m/gcc\los_dispatch.c **** }
 100              		.loc 1 190 1
 101              		.thumb
 102              		.syntax unified
 103 0008 00BF     		nop
 104 000a 1846     		mov	r0, r3
 105              		.cfi_endproc
 106              	.LFE288:
 108              		.section	.text.LOS_IntUnLock,"ax",%progbits
 109              		.align	1
 110              		.global	LOS_IntUnLock
 111              		.syntax unified
 112              		.thumb
 113              		.thumb_func
 114              		.fpu fpv4-sp-d16
 116              	LOS_IntUnLock:
 117              	.LFB289:
 191:d:/LiteOS_Lab/iot_link/os/liteos/arch/arm/arm-m/armv7-m/gcc\los_dispatch.c **** 
 192:d:/LiteOS_Lab/iot_link/os/liteos/arch/arm/arm-m/armv7-m/gcc\los_dispatch.c **** __attribute__((naked)) UINTPTR LOS_IntUnLock(void)
 193:d:/LiteOS_Lab/iot_link/os/liteos/arch/arm/arm-m/armv7-m/gcc\los_dispatch.c **** {
 118              		.loc 1 193 1
 119              		.cfi_startproc
 120              		@ Naked Function: prologue and epilogue provided by programmer.
 121              		@ args = 0, pretend = 0, frame = 0
 122              		@ frame_needed = 1, uses_anonymous_args = 0
 194:d:/LiteOS_Lab/iot_link/os/liteos/arch/arm/arm-m/armv7-m/gcc\los_dispatch.c ****     asm (
 123              		.loc 1 194 5
 124              		.syntax unified
 125              	@ 194 "d:/LiteOS_Lab/iot_link/os/liteos/arch/arm/arm-m/armv7-m/gcc/los_dispatch.c" 1
 126              		.syntax unified
 127 0000 EFF31080 		MRS    R0, PRIMASK
 128 0004 62B6     		CPSIE  I
 129 0006 7047     		BX     LR
 130              		
 131              	@ 0 "" 2
 195:d:/LiteOS_Lab/iot_link/os/liteos/arch/arm/arm-m/armv7-m/gcc\los_dispatch.c ****     ".syntax unified\n\t"
 196:d:/LiteOS_Lab/iot_link/os/liteos/arch/arm/arm-m/armv7-m/gcc\los_dispatch.c **** 
 197:d:/LiteOS_Lab/iot_link/os/liteos/arch/arm/arm-m/armv7-m/gcc\los_dispatch.c ****     "MRS    R0, PRIMASK\n\t"
 198:d:/LiteOS_Lab/iot_link/os/liteos/arch/arm/arm-m/armv7-m/gcc\los_dispatch.c ****     "CPSIE  I\n\t"
 199:d:/LiteOS_Lab/iot_link/os/liteos/arch/arm/arm-m/armv7-m/gcc\los_dispatch.c ****     "BX     LR\n\t"
 200:d:/LiteOS_Lab/iot_link/os/liteos/arch/arm/arm-m/armv7-m/gcc\los_dispatch.c ****     );
 201:d:/LiteOS_Lab/iot_link/os/liteos/arch/arm/arm-m/armv7-m/gcc\los_dispatch.c **** }
 132              		.loc 1 201 1
 133              		.thumb
 134              		.syntax unified
 135 0008 00BF     		nop
 136 000a 1846     		mov	r0, r3
 137              		.cfi_endproc
 138              	.LFE289:
 140              		.section	.text.LOS_IntRestore,"ax",%progbits
 141              		.align	1
 142              		.global	LOS_IntRestore
 143              		.syntax unified
 144              		.thumb
 145              		.thumb_func
 146              		.fpu fpv4-sp-d16
 148              	LOS_IntRestore:
ARM GAS  C:\Users\ADMINI~1\AppData\Local\Temp\ccOg4RIV.s 			page 7


 149              	.LFB290:
 202:d:/LiteOS_Lab/iot_link/os/liteos/arch/arm/arm-m/armv7-m/gcc\los_dispatch.c **** 
 203:d:/LiteOS_Lab/iot_link/os/liteos/arch/arm/arm-m/armv7-m/gcc\los_dispatch.c **** __attribute__((naked)) VOID LOS_IntRestore(UINTPTR key)
 204:d:/LiteOS_Lab/iot_link/os/liteos/arch/arm/arm-m/armv7-m/gcc\los_dispatch.c **** {
 150              		.loc 1 204 1
 151              		.cfi_startproc
 152              		@ Naked Function: prologue and epilogue provided by programmer.
 153              		@ args = 0, pretend = 0, frame = 0
 154              		@ frame_needed = 1, uses_anonymous_args = 0
 205:d:/LiteOS_Lab/iot_link/os/liteos/arch/arm/arm-m/armv7-m/gcc\los_dispatch.c ****     asm (
 155              		.loc 1 205 5
 156              		.syntax unified
 157              	@ 205 "d:/LiteOS_Lab/iot_link/os/liteos/arch/arm/arm-m/armv7-m/gcc/los_dispatch.c" 1
 158              		.syntax unified
 159 0000 80F31088 		MSR    PRIMASK, R0
 160 0004 7047     		BX     LR
 161              		
 162              	@ 0 "" 2
 206:d:/LiteOS_Lab/iot_link/os/liteos/arch/arm/arm-m/armv7-m/gcc\los_dispatch.c ****     ".syntax unified\n\t"
 207:d:/LiteOS_Lab/iot_link/os/liteos/arch/arm/arm-m/armv7-m/gcc\los_dispatch.c **** 
 208:d:/LiteOS_Lab/iot_link/os/liteos/arch/arm/arm-m/armv7-m/gcc\los_dispatch.c ****     "MSR    PRIMASK, R0\n\t"
 209:d:/LiteOS_Lab/iot_link/os/liteos/arch/arm/arm-m/armv7-m/gcc\los_dispatch.c ****     "BX     LR\n\t"
 210:d:/LiteOS_Lab/iot_link/os/liteos/arch/arm/arm-m/armv7-m/gcc\los_dispatch.c ****     );
 211:d:/LiteOS_Lab/iot_link/os/liteos/arch/arm/arm-m/armv7-m/gcc\los_dispatch.c **** }
 163              		.loc 1 211 1
 164              		.thumb
 165              		.syntax unified
 166 0006 00BF     		nop
 167              		.cfi_endproc
 168              	.LFE290:
 170              		.section	.text.osTaskSchedule,"ax",%progbits
 171              		.align	1
 172              		.global	osTaskSchedule
 173              		.syntax unified
 174              		.thumb
 175              		.thumb_func
 176              		.fpu fpv4-sp-d16
 178              	osTaskSchedule:
 179              	.LFB291:
 212:d:/LiteOS_Lab/iot_link/os/liteos/arch/arm/arm-m/armv7-m/gcc\los_dispatch.c **** 
 213:d:/LiteOS_Lab/iot_link/os/liteos/arch/arm/arm-m/armv7-m/gcc\los_dispatch.c **** /****************************************************************************************
 214:d:/LiteOS_Lab/iot_link/os/liteos/arch/arm/arm-m/armv7-m/gcc\los_dispatch.c **** * Function:
 215:d:/LiteOS_Lab/iot_link/os/liteos/arch/arm/arm-m/armv7-m/gcc\los_dispatch.c **** *        VOID osTaskSchedule(VOID);
 216:d:/LiteOS_Lab/iot_link/os/liteos/arch/arm/arm-m/armv7-m/gcc\los_dispatch.c **** * Description:
 217:d:/LiteOS_Lab/iot_link/os/liteos/arch/arm/arm-m/armv7-m/gcc\los_dispatch.c **** *        Start the task swtich process by software trigger PendSV interrupt.
 218:d:/LiteOS_Lab/iot_link/os/liteos/arch/arm/arm-m/armv7-m/gcc\los_dispatch.c **** ****************************************************************************************/
 219:d:/LiteOS_Lab/iot_link/os/liteos/arch/arm/arm-m/armv7-m/gcc\los_dispatch.c **** __attribute__((naked)) VOID osTaskSchedule(VOID)
 220:d:/LiteOS_Lab/iot_link/os/liteos/arch/arm/arm-m/armv7-m/gcc\los_dispatch.c **** {
 180              		.loc 1 220 1
 181              		.cfi_startproc
 182              		@ Naked Function: prologue and epilogue provided by programmer.
 183              		@ args = 0, pretend = 0, frame = 0
 184              		@ frame_needed = 1, uses_anonymous_args = 0
 221:d:/LiteOS_Lab/iot_link/os/liteos/arch/arm/arm-m/armv7-m/gcc\los_dispatch.c ****     asm (
 185              		.loc 1 221 5
 186              		.syntax unified
 187              	@ 221 "d:/LiteOS_Lab/iot_link/os/liteos/arch/arm/arm-m/armv7-m/gcc/los_dispatch.c" 1
ARM GAS  C:\Users\ADMINI~1\AppData\Local\Temp\ccOg4RIV.s 			page 8


 188              		.syntax unified
 189 0000 0248     		LDR    R0, =#-536810236                 @ NVIC_INT_CTRL
 190 0002 4FF08051 		LDR    R1, =#268435456                 @ NVIC_PENDSVSET
 191 0006 0160     		STR    R1, [R0]
 192 0008 7047     		BX     LR
 193              		
 194              	@ 0 "" 2
 222:d:/LiteOS_Lab/iot_link/os/liteos/arch/arm/arm-m/armv7-m/gcc\los_dispatch.c ****     ".syntax unified\n\t"
 223:d:/LiteOS_Lab/iot_link/os/liteos/arch/arm/arm-m/armv7-m/gcc\los_dispatch.c **** 
 224:d:/LiteOS_Lab/iot_link/os/liteos/arch/arm/arm-m/armv7-m/gcc\los_dispatch.c ****     "LDR    R0, =%0                 @ NVIC_INT_CTRL\n\t"
 225:d:/LiteOS_Lab/iot_link/os/liteos/arch/arm/arm-m/armv7-m/gcc\los_dispatch.c ****     "LDR    R1, =%1                 @ NVIC_PENDSVSET\n\t"
 226:d:/LiteOS_Lab/iot_link/os/liteos/arch/arm/arm-m/armv7-m/gcc\los_dispatch.c ****     "STR    R1, [R0]\n\t"
 227:d:/LiteOS_Lab/iot_link/os/liteos/arch/arm/arm-m/armv7-m/gcc\los_dispatch.c ****     "BX     LR\n\t"
 228:d:/LiteOS_Lab/iot_link/os/liteos/arch/arm/arm-m/armv7-m/gcc\los_dispatch.c ****     :
 229:d:/LiteOS_Lab/iot_link/os/liteos/arch/arm/arm-m/armv7-m/gcc\los_dispatch.c ****     : "X" (NVIC_INT_CTRL), "X" (NVIC_PENDSVSET)
 230:d:/LiteOS_Lab/iot_link/os/liteos/arch/arm/arm-m/armv7-m/gcc\los_dispatch.c ****     );
 231:d:/LiteOS_Lab/iot_link/os/liteos/arch/arm/arm-m/armv7-m/gcc\los_dispatch.c **** }
 195              		.loc 1 231 1
 196              		.thumb
 197              		.syntax unified
 198 000a 00BF     		nop
 199              		.cfi_endproc
 200              	.LFE291:
 202              		.section	.text.PendSV_Handler,"ax",%progbits
 203              		.align	1
 204              		.global	PendSV_Handler
 205              		.syntax unified
 206              		.thumb
 207              		.thumb_func
 208              		.fpu fpv4-sp-d16
 210              	PendSV_Handler:
 211              	.LFB292:
 232:d:/LiteOS_Lab/iot_link/os/liteos/arch/arm/arm-m/armv7-m/gcc\los_dispatch.c **** 
 233:d:/LiteOS_Lab/iot_link/os/liteos/arch/arm/arm-m/armv7-m/gcc\los_dispatch.c **** /****************************************************************************************
 234:d:/LiteOS_Lab/iot_link/os/liteos/arch/arm/arm-m/armv7-m/gcc\los_dispatch.c **** * Function:
 235:d:/LiteOS_Lab/iot_link/os/liteos/arch/arm/arm-m/armv7-m/gcc\los_dispatch.c **** *        VOID PendSV_Handler(VOID);
 236:d:/LiteOS_Lab/iot_link/os/liteos/arch/arm/arm-m/armv7-m/gcc\los_dispatch.c **** * Description:
 237:d:/LiteOS_Lab/iot_link/os/liteos/arch/arm/arm-m/armv7-m/gcc\los_dispatch.c **** *        PendSV interrupt handler, switch the context of the task.
 238:d:/LiteOS_Lab/iot_link/os/liteos/arch/arm/arm-m/armv7-m/gcc\los_dispatch.c **** *        First: Save the context of the current running task(g_stLosTask.pstRunTask)
 239:d:/LiteOS_Lab/iot_link/os/liteos/arch/arm/arm-m/armv7-m/gcc\los_dispatch.c **** *               to its own stack.
 240:d:/LiteOS_Lab/iot_link/os/liteos/arch/arm/arm-m/armv7-m/gcc\los_dispatch.c **** *        Second: Restore the context of the next running task(g_stLosTask.pstNewTask)
 241:d:/LiteOS_Lab/iot_link/os/liteos/arch/arm/arm-m/armv7-m/gcc\los_dispatch.c **** *                from its own stack.
 242:d:/LiteOS_Lab/iot_link/os/liteos/arch/arm/arm-m/armv7-m/gcc\los_dispatch.c **** ****************************************************************************************/
 243:d:/LiteOS_Lab/iot_link/os/liteos/arch/arm/arm-m/armv7-m/gcc\los_dispatch.c **** __attribute__((naked)) VOID PendSV_Handler(VOID)
 244:d:/LiteOS_Lab/iot_link/os/liteos/arch/arm/arm-m/armv7-m/gcc\los_dispatch.c **** {
 212              		.loc 1 244 1
 213              		.cfi_startproc
 214              		@ Naked Function: prologue and epilogue provided by programmer.
 215              		@ args = 0, pretend = 0, frame = 0
 216              		@ frame_needed = 1, uses_anonymous_args = 0
 245:d:/LiteOS_Lab/iot_link/os/liteos/arch/arm/arm-m/armv7-m/gcc\los_dispatch.c ****     asm (
 217              		.loc 1 245 5
 218              		.syntax unified
 219              	@ 245 "d:/LiteOS_Lab/iot_link/os/liteos/arch/arm/arm-m/armv7-m/gcc/los_dispatch.c" 1
 220              		.syntax unified
 221 0000 EFF3108C 		MRS    R12, PRIMASK
 222 0004 72B6     		CPSID  I
ARM GAS  C:\Users\ADMINI~1\AppData\Local\Temp\ccOg4RIV.s 			page 9


 223 0006 194A     		LDR    R2, =g_pfnTskSwitchHook
 224 0008 1268     		LDR    R2, [R2]
 225 000a 22B1     		CBZ    R2, 0f
 226 000c 2DE90050 		PUSH   {R12, LR}
 227 0010 9047     		BLX    R2
 228 0012 BDE80050 		POP    {R12, LR}
 229              		0:
 230 0016 EFF30980 		MRS    R0, PSP
 231 001a 1EF0100F 		TST    R14, #0x10              @ if the task using the FPU context
 232 001e 01D1     		BNE    0f
 233 0020 20ED108B 		VSTMDB R0!, {D8-D15}
 234              		0:
 235 0024 40F804ED 		STMFD  R0!, {R14}              @ save EXC_RETURN
 236 0028 20E9F01F 		STMFD  R0!, {R4-R12}           @ save the core registers and PRIMASK.
 237 002c 104D     		LDR    R5, =g_stLosTask
 238 002e 4FF01008 		MOV    R8, #16                 @ OS_TASK_STATUS_RUNNING
 239 0032 2E68     		LDR    R6, [R5]
 240 0034 3060     		STR    R0, [R6]
 241 0036 B788     		LDRH   R7, [R6, #4]
 242 0038 27EA0807 		BIC    R7, R7, R8
 243 003c B780     		STRH   R7, [R6, #4]
 244 003e 6868     		LDR    R0, [R5, #4]
 245 0040 2860     		STR    R0, [R5]
 246 0042 8788     		LDRH   R7, [R0, #4]
 247 0044 47EA0807 		ORR    R7, R7, R8
 248 0048 8780     		STRH   R7, [R0, #4]
 249 004a 0168     		LDR    R1, [R0]
 250 004c B1E8F01F 		LDMFD  R1!, {R4-R12}           @ restore the core registers and PRIMASK
 251 0050 51F804EB 		LDMFD  R1!, {R14}              @ restore EXC_RETURN
 252 0054 1EF0100F 		TST    R14, #0x10              @ if the task using the FPU context
 253 0058 01D1     		BNE    0f
 254 005a B1EC108B 		VLDMIA R1!, {D8-D15}
 255              		0:
 256 005e 81F30988 		MSR    PSP, R1
 257 0062 8CF31088 		MSR    PRIMASK, R12
 258 0066 7047     		BX     LR
 259              		
 260              	@ 0 "" 2
 246:d:/LiteOS_Lab/iot_link/os/liteos/arch/arm/arm-m/armv7-m/gcc\los_dispatch.c ****     ".syntax unified\n\t"
 247:d:/LiteOS_Lab/iot_link/os/liteos/arch/arm/arm-m/armv7-m/gcc\los_dispatch.c **** 
 248:d:/LiteOS_Lab/iot_link/os/liteos/arch/arm/arm-m/armv7-m/gcc\los_dispatch.c ****     /**
 249:d:/LiteOS_Lab/iot_link/os/liteos/arch/arm/arm-m/armv7-m/gcc\los_dispatch.c ****      * R12: Save the interruption state of the current running task.
 250:d:/LiteOS_Lab/iot_link/os/liteos/arch/arm/arm-m/armv7-m/gcc\los_dispatch.c ****      * Disable all interrupts except Reset,NMI and HardFault
 251:d:/LiteOS_Lab/iot_link/os/liteos/arch/arm/arm-m/armv7-m/gcc\los_dispatch.c ****      */
 252:d:/LiteOS_Lab/iot_link/os/liteos/arch/arm/arm-m/armv7-m/gcc\los_dispatch.c ****     "MRS    R12, PRIMASK\n\t"
 253:d:/LiteOS_Lab/iot_link/os/liteos/arch/arm/arm-m/armv7-m/gcc\los_dispatch.c ****     "CPSID  I\n\t"
 254:d:/LiteOS_Lab/iot_link/os/liteos/arch/arm/arm-m/armv7-m/gcc\los_dispatch.c **** 
 255:d:/LiteOS_Lab/iot_link/os/liteos/arch/arm/arm-m/armv7-m/gcc\los_dispatch.c ****     /**
 256:d:/LiteOS_Lab/iot_link/os/liteos/arch/arm/arm-m/armv7-m/gcc\los_dispatch.c ****      * Call task switch hook.
 257:d:/LiteOS_Lab/iot_link/os/liteos/arch/arm/arm-m/armv7-m/gcc\los_dispatch.c ****      */
 258:d:/LiteOS_Lab/iot_link/os/liteos/arch/arm/arm-m/armv7-m/gcc\los_dispatch.c ****     "LDR    R2, =g_pfnTskSwitchHook\n\t"
 259:d:/LiteOS_Lab/iot_link/os/liteos/arch/arm/arm-m/armv7-m/gcc\los_dispatch.c ****     "LDR    R2, [R2]\n\t"
 260:d:/LiteOS_Lab/iot_link/os/liteos/arch/arm/arm-m/armv7-m/gcc\los_dispatch.c ****     "CBZ    R2, 0f\n\t"
 261:d:/LiteOS_Lab/iot_link/os/liteos/arch/arm/arm-m/armv7-m/gcc\los_dispatch.c ****     "PUSH   {R12, LR}\n\t"
 262:d:/LiteOS_Lab/iot_link/os/liteos/arch/arm/arm-m/armv7-m/gcc\los_dispatch.c ****     "BLX    R2\n\t"
 263:d:/LiteOS_Lab/iot_link/os/liteos/arch/arm/arm-m/armv7-m/gcc\los_dispatch.c ****     "POP    {R12, LR}\n\t"
 264:d:/LiteOS_Lab/iot_link/os/liteos/arch/arm/arm-m/armv7-m/gcc\los_dispatch.c **** 
ARM GAS  C:\Users\ADMINI~1\AppData\Local\Temp\ccOg4RIV.s 			page 10


 265:d:/LiteOS_Lab/iot_link/os/liteos/arch/arm/arm-m/armv7-m/gcc\los_dispatch.c ****     "0:\n\t"
 266:d:/LiteOS_Lab/iot_link/os/liteos/arch/arm/arm-m/armv7-m/gcc\los_dispatch.c **** 
 267:d:/LiteOS_Lab/iot_link/os/liteos/arch/arm/arm-m/armv7-m/gcc\los_dispatch.c ****     /**
 268:d:/LiteOS_Lab/iot_link/os/liteos/arch/arm/arm-m/armv7-m/gcc\los_dispatch.c ****      * R0 = now stack pointer of the current running task.
 269:d:/LiteOS_Lab/iot_link/os/liteos/arch/arm/arm-m/armv7-m/gcc\los_dispatch.c ****      */
 270:d:/LiteOS_Lab/iot_link/os/liteos/arch/arm/arm-m/armv7-m/gcc\los_dispatch.c ****     "MRS    R0, PSP\n\t"
 271:d:/LiteOS_Lab/iot_link/os/liteos/arch/arm/arm-m/armv7-m/gcc\los_dispatch.c **** 
 272:d:/LiteOS_Lab/iot_link/os/liteos/arch/arm/arm-m/armv7-m/gcc\los_dispatch.c ****     /**
 273:d:/LiteOS_Lab/iot_link/os/liteos/arch/arm/arm-m/armv7-m/gcc\los_dispatch.c ****      * Save the stack frame([S16-S31,]R4-R11) of the current running task.
 274:d:/LiteOS_Lab/iot_link/os/liteos/arch/arm/arm-m/armv7-m/gcc\los_dispatch.c ****      * R12 save the PRIMASK value of the current running task.
 275:d:/LiteOS_Lab/iot_link/os/liteos/arch/arm/arm-m/armv7-m/gcc\los_dispatch.c ****      * NOTE: 1. Before entering the exception handler function, these registers
 276:d:/LiteOS_Lab/iot_link/os/liteos/arch/arm/arm-m/armv7-m/gcc\los_dispatch.c ****      *       ([NO_NAME,FPSCR,S15-S0],xPSR,PC,LR,R12,R3-R0) have been automatically
 277:d:/LiteOS_Lab/iot_link/os/liteos/arch/arm/arm-m/armv7-m/gcc\los_dispatch.c ****      *       saved by the CPU in the stack of the current running task.
 278:d:/LiteOS_Lab/iot_link/os/liteos/arch/arm/arm-m/armv7-m/gcc\los_dispatch.c ****      *       2. If lazy stacking is enabled, space is reserved on the stack for
 279:d:/LiteOS_Lab/iot_link/os/liteos/arch/arm/arm-m/armv7-m/gcc\los_dispatch.c ****      *       the floating-point context(FPSCR,S15-S0), but the floating-point state
 280:d:/LiteOS_Lab/iot_link/os/liteos/arch/arm/arm-m/armv7-m/gcc\los_dispatch.c ****      *       is not saved. when the floating-point instruction(VSTMDBEQ  R0!, {D8-D15})
 281:d:/LiteOS_Lab/iot_link/os/liteos/arch/arm/arm-m/armv7-m/gcc\los_dispatch.c ****      *       is executed, the floating-point context(FPSCR,S15-S0) is first saved into
 282:d:/LiteOS_Lab/iot_link/os/liteos/arch/arm/arm-m/armv7-m/gcc\los_dispatch.c ****      *       the space reserved on the stack. In other words, the instruction
 283:d:/LiteOS_Lab/iot_link/os/liteos/arch/arm/arm-m/armv7-m/gcc\los_dispatch.c ****      *       'VSTMDBEQ  R0!, {D8-D15}' will trigger the CPU to save 'FPSCR,S15-S0' first.
 284:d:/LiteOS_Lab/iot_link/os/liteos/arch/arm/arm-m/armv7-m/gcc\los_dispatch.c ****      *
 285:d:/LiteOS_Lab/iot_link/os/liteos/arch/arm/arm-m/armv7-m/gcc\los_dispatch.c ****      * The stack of the current running task is as follows:
 286:d:/LiteOS_Lab/iot_link/os/liteos/arch/arm/arm-m/armv7-m/gcc\los_dispatch.c ****      *
 287:d:/LiteOS_Lab/iot_link/os/liteos/arch/arm/arm-m/armv7-m/gcc\los_dispatch.c ****      *   |<=== PUSH: Save the context of the current running task
 288:d:/LiteOS_Lab/iot_link/os/liteos/arch/arm/arm-m/armv7-m/gcc\los_dispatch.c ****      *   |                                                                        High addr--->|
 289:d:/LiteOS_Lab/iot_link/os/liteos/arch/arm/arm-m/armv7-m/gcc\los_dispatch.c ****      * --+---------------------------------------+---------------------------------------------+---
 290:d:/LiteOS_Lab/iot_link/os/liteos/arch/arm/arm-m/armv7-m/gcc\los_dispatch.c ****      *   | R4-R11,PRIMASK[,EXC_RETURN[,S16-S31]] | R0-R3,R12,LR,PC,xPSR[,S0-S15,FPSCR,NO_NAME] |
 291:d:/LiteOS_Lab/iot_link/os/liteos/arch/arm/arm-m/armv7-m/gcc\los_dispatch.c ****      *   |                                                             [    lazy stacking    ] |
 292:d:/LiteOS_Lab/iot_link/os/liteos/arch/arm/arm-m/armv7-m/gcc\los_dispatch.c ****      * --+---------------------------------------+---------------------------------------------+---
 293:d:/LiteOS_Lab/iot_link/os/liteos/arch/arm/arm-m/armv7-m/gcc\los_dispatch.c ****      *                                              Stack pointer before entering exception--->|
 294:d:/LiteOS_Lab/iot_link/os/liteos/arch/arm/arm-m/armv7-m/gcc\los_dispatch.c ****      *                                           |<---            cpu auto saved           --->|
 295:d:/LiteOS_Lab/iot_link/os/liteos/arch/arm/arm-m/armv7-m/gcc\los_dispatch.c ****      *                                           |<---PSP to R0
 296:d:/LiteOS_Lab/iot_link/os/liteos/arch/arm/arm-m/armv7-m/gcc\los_dispatch.c ****      *   |<---Top of the stack, save to g_stLosTask.pstRunTask->pStackPointer
 297:d:/LiteOS_Lab/iot_link/os/liteos/arch/arm/arm-m/armv7-m/gcc\los_dispatch.c ****      */
 298:d:/LiteOS_Lab/iot_link/os/liteos/arch/arm/arm-m/armv7-m/gcc\los_dispatch.c **** #if defined (__VFP_FP__) && !defined(__SOFTFP__)       /* if FPU exist. */
 299:d:/LiteOS_Lab/iot_link/os/liteos/arch/arm/arm-m/armv7-m/gcc\los_dispatch.c ****     "TST    R14, #0x10              @ if the task using the FPU context\n\t"
 300:d:/LiteOS_Lab/iot_link/os/liteos/arch/arm/arm-m/armv7-m/gcc\los_dispatch.c ****     "BNE    0f\n\t"
 301:d:/LiteOS_Lab/iot_link/os/liteos/arch/arm/arm-m/armv7-m/gcc\los_dispatch.c ****     "VSTMDB R0!, {D8-D15}\n\t"
 302:d:/LiteOS_Lab/iot_link/os/liteos/arch/arm/arm-m/armv7-m/gcc\los_dispatch.c ****     "0:\n\t"
 303:d:/LiteOS_Lab/iot_link/os/liteos/arch/arm/arm-m/armv7-m/gcc\los_dispatch.c ****     "STMFD  R0!, {R14}              @ save EXC_RETURN\n\t"
 304:d:/LiteOS_Lab/iot_link/os/liteos/arch/arm/arm-m/armv7-m/gcc\los_dispatch.c **** #endif
 305:d:/LiteOS_Lab/iot_link/os/liteos/arch/arm/arm-m/armv7-m/gcc\los_dispatch.c **** 
 306:d:/LiteOS_Lab/iot_link/os/liteos/arch/arm/arm-m/armv7-m/gcc\los_dispatch.c ****     "STMFD  R0!, {R4-R12}           @ save the core registers and PRIMASK.\n\t"
 307:d:/LiteOS_Lab/iot_link/os/liteos/arch/arm/arm-m/armv7-m/gcc\los_dispatch.c **** 
 308:d:/LiteOS_Lab/iot_link/os/liteos/arch/arm/arm-m/armv7-m/gcc\los_dispatch.c **** #if (LOSCFG_ENABLE_MPU == YES)
 309:d:/LiteOS_Lab/iot_link/os/liteos/arch/arm/arm-m/armv7-m/gcc\los_dispatch.c ****     "MRS    R1, CONTROL\n\t"
 310:d:/LiteOS_Lab/iot_link/os/liteos/arch/arm/arm-m/armv7-m/gcc\los_dispatch.c ****     "STR    R1, [R0, #-4]!\n\t"
 311:d:/LiteOS_Lab/iot_link/os/liteos/arch/arm/arm-m/armv7-m/gcc\los_dispatch.c **** #endif
 312:d:/LiteOS_Lab/iot_link/os/liteos/arch/arm/arm-m/armv7-m/gcc\los_dispatch.c **** 
 313:d:/LiteOS_Lab/iot_link/os/liteos/arch/arm/arm-m/armv7-m/gcc\los_dispatch.c ****     /**
 314:d:/LiteOS_Lab/iot_link/os/liteos/arch/arm/arm-m/armv7-m/gcc\los_dispatch.c ****      * R5,R8.
 315:d:/LiteOS_Lab/iot_link/os/liteos/arch/arm/arm-m/armv7-m/gcc\los_dispatch.c ****      */
 316:d:/LiteOS_Lab/iot_link/os/liteos/arch/arm/arm-m/armv7-m/gcc\los_dispatch.c ****     "LDR    R5, =g_stLosTask\n\t"
 317:d:/LiteOS_Lab/iot_link/os/liteos/arch/arm/arm-m/armv7-m/gcc\los_dispatch.c ****     "MOV    R8, %0                 @ OS_TASK_STATUS_RUNNING\n\t"
 318:d:/LiteOS_Lab/iot_link/os/liteos/arch/arm/arm-m/armv7-m/gcc\los_dispatch.c **** 
 319:d:/LiteOS_Lab/iot_link/os/liteos/arch/arm/arm-m/armv7-m/gcc\los_dispatch.c ****     /**
 320:d:/LiteOS_Lab/iot_link/os/liteos/arch/arm/arm-m/armv7-m/gcc\los_dispatch.c ****      * Save the stack pointer of the current running task to TCB.
 321:d:/LiteOS_Lab/iot_link/os/liteos/arch/arm/arm-m/armv7-m/gcc\los_dispatch.c ****      * (g_stLosTask.pstRunTask->pStackPointer = R0)
ARM GAS  C:\Users\ADMINI~1\AppData\Local\Temp\ccOg4RIV.s 			page 11


 322:d:/LiteOS_Lab/iot_link/os/liteos/arch/arm/arm-m/armv7-m/gcc\los_dispatch.c ****      */
 323:d:/LiteOS_Lab/iot_link/os/liteos/arch/arm/arm-m/armv7-m/gcc\los_dispatch.c ****     "LDR    R6, [R5]\n\t"
 324:d:/LiteOS_Lab/iot_link/os/liteos/arch/arm/arm-m/armv7-m/gcc\los_dispatch.c ****     "STR    R0, [R6]\n\t"
 325:d:/LiteOS_Lab/iot_link/os/liteos/arch/arm/arm-m/armv7-m/gcc\los_dispatch.c **** 
 326:d:/LiteOS_Lab/iot_link/os/liteos/arch/arm/arm-m/armv7-m/gcc\los_dispatch.c ****     /**
 327:d:/LiteOS_Lab/iot_link/os/liteos/arch/arm/arm-m/armv7-m/gcc\los_dispatch.c ****      * Clear the RUNNING state of the current running task.
 328:d:/LiteOS_Lab/iot_link/os/liteos/arch/arm/arm-m/armv7-m/gcc\los_dispatch.c ****      * (g_stLosTask.pstRunTask->usTaskStatus &= ~OS_TASK_STATUS_RUNNING)
 329:d:/LiteOS_Lab/iot_link/os/liteos/arch/arm/arm-m/armv7-m/gcc\los_dispatch.c ****      */
 330:d:/LiteOS_Lab/iot_link/os/liteos/arch/arm/arm-m/armv7-m/gcc\los_dispatch.c ****     "LDRH   R7, [R6, #4]\n\t"
 331:d:/LiteOS_Lab/iot_link/os/liteos/arch/arm/arm-m/armv7-m/gcc\los_dispatch.c ****     "BIC    R7, R7, R8\n\t"
 332:d:/LiteOS_Lab/iot_link/os/liteos/arch/arm/arm-m/armv7-m/gcc\los_dispatch.c ****     "STRH   R7, [R6, #4]\n\t"
 333:d:/LiteOS_Lab/iot_link/os/liteos/arch/arm/arm-m/armv7-m/gcc\los_dispatch.c **** 
 334:d:/LiteOS_Lab/iot_link/os/liteos/arch/arm/arm-m/armv7-m/gcc\los_dispatch.c ****     /**
 335:d:/LiteOS_Lab/iot_link/os/liteos/arch/arm/arm-m/armv7-m/gcc\los_dispatch.c ****      * Switch the current running task to the next running task.
 336:d:/LiteOS_Lab/iot_link/os/liteos/arch/arm/arm-m/armv7-m/gcc\los_dispatch.c ****      * (g_stLosTask.pstRunTask = g_stLosTask.pstNewTask)
 337:d:/LiteOS_Lab/iot_link/os/liteos/arch/arm/arm-m/armv7-m/gcc\los_dispatch.c ****      */
 338:d:/LiteOS_Lab/iot_link/os/liteos/arch/arm/arm-m/armv7-m/gcc\los_dispatch.c ****     "LDR    R0, [R5, #4]\n\t"
 339:d:/LiteOS_Lab/iot_link/os/liteos/arch/arm/arm-m/armv7-m/gcc\los_dispatch.c ****     "STR    R0, [R5]\n\t"
 340:d:/LiteOS_Lab/iot_link/os/liteos/arch/arm/arm-m/armv7-m/gcc\los_dispatch.c **** 
 341:d:/LiteOS_Lab/iot_link/os/liteos/arch/arm/arm-m/armv7-m/gcc\los_dispatch.c ****     /**
 342:d:/LiteOS_Lab/iot_link/os/liteos/arch/arm/arm-m/armv7-m/gcc\los_dispatch.c ****      * Set the RUNNING state of the next running task.
 343:d:/LiteOS_Lab/iot_link/os/liteos/arch/arm/arm-m/armv7-m/gcc\los_dispatch.c ****      * (g_stLosTask.pstNewTask->usTaskStatus |= OS_TASK_STATUS_RUNNING)
 344:d:/LiteOS_Lab/iot_link/os/liteos/arch/arm/arm-m/armv7-m/gcc\los_dispatch.c ****      */
 345:d:/LiteOS_Lab/iot_link/os/liteos/arch/arm/arm-m/armv7-m/gcc\los_dispatch.c ****     "LDRH   R7, [R0, #4]\n\t"
 346:d:/LiteOS_Lab/iot_link/os/liteos/arch/arm/arm-m/armv7-m/gcc\los_dispatch.c ****     "ORR    R7, R7, R8\n\t"
 347:d:/LiteOS_Lab/iot_link/os/liteos/arch/arm/arm-m/armv7-m/gcc\los_dispatch.c ****     "STRH   R7, [R0, #4]\n\t"
 348:d:/LiteOS_Lab/iot_link/os/liteos/arch/arm/arm-m/armv7-m/gcc\los_dispatch.c **** 
 349:d:/LiteOS_Lab/iot_link/os/liteos/arch/arm/arm-m/armv7-m/gcc\los_dispatch.c ****     /**
 350:d:/LiteOS_Lab/iot_link/os/liteos/arch/arm/arm-m/armv7-m/gcc\los_dispatch.c ****      * Restore the stack pointer of the next running task from TCB.
 351:d:/LiteOS_Lab/iot_link/os/liteos/arch/arm/arm-m/armv7-m/gcc\los_dispatch.c ****      * (R1 = g_stLosTask.pstNewTask->pStackPointer)
 352:d:/LiteOS_Lab/iot_link/os/liteos/arch/arm/arm-m/armv7-m/gcc\los_dispatch.c ****      */
 353:d:/LiteOS_Lab/iot_link/os/liteos/arch/arm/arm-m/armv7-m/gcc\los_dispatch.c ****     "LDR    R1, [R0]\n\t"
 354:d:/LiteOS_Lab/iot_link/os/liteos/arch/arm/arm-m/armv7-m/gcc\los_dispatch.c **** 
 355:d:/LiteOS_Lab/iot_link/os/liteos/arch/arm/arm-m/armv7-m/gcc\los_dispatch.c **** #if (LOSCFG_ENABLE_MPU == YES)
 356:d:/LiteOS_Lab/iot_link/os/liteos/arch/arm/arm-m/armv7-m/gcc\los_dispatch.c ****     /**
 357:d:/LiteOS_Lab/iot_link/os/liteos/arch/arm/arm-m/armv7-m/gcc\los_dispatch.c ****      * Set the CONTROL register
 358:d:/LiteOS_Lab/iot_link/os/liteos/arch/arm/arm-m/armv7-m/gcc\los_dispatch.c ****      */
 359:d:/LiteOS_Lab/iot_link/os/liteos/arch/arm/arm-m/armv7-m/gcc\los_dispatch.c **** 
 360:d:/LiteOS_Lab/iot_link/os/liteos/arch/arm/arm-m/armv7-m/gcc\los_dispatch.c ****     "LDR    R4, [R0, #8]            @ TCB->pMpuSettings\n\t"
 361:d:/LiteOS_Lab/iot_link/os/liteos/arch/arm/arm-m/armv7-m/gcc\los_dispatch.c ****     "LDR    R5, =%1                 @ MPU_RBAR\n\t"
 362:d:/LiteOS_Lab/iot_link/os/liteos/arch/arm/arm-m/armv7-m/gcc\los_dispatch.c ****     "LDM    R4!, {R6-R11}\n\t"
 363:d:/LiteOS_Lab/iot_link/os/liteos/arch/arm/arm-m/armv7-m/gcc\los_dispatch.c ****     "STM    R5, {R6-R11}\n\t"
 364:d:/LiteOS_Lab/iot_link/os/liteos/arch/arm/arm-m/armv7-m/gcc\los_dispatch.c ****     "LDM    R4!, {R6-R11}\n\t"
 365:d:/LiteOS_Lab/iot_link/os/liteos/arch/arm/arm-m/armv7-m/gcc\los_dispatch.c ****     "STM    R5, {R6-R11}\n\t"
 366:d:/LiteOS_Lab/iot_link/os/liteos/arch/arm/arm-m/armv7-m/gcc\los_dispatch.c ****     "LDR    R4, [R1], #4\n\t"
 367:d:/LiteOS_Lab/iot_link/os/liteos/arch/arm/arm-m/armv7-m/gcc\los_dispatch.c ****     "MSR    CONTROL, R4\n\t"
 368:d:/LiteOS_Lab/iot_link/os/liteos/arch/arm/arm-m/armv7-m/gcc\los_dispatch.c **** #endif
 369:d:/LiteOS_Lab/iot_link/os/liteos/arch/arm/arm-m/armv7-m/gcc\los_dispatch.c **** 
 370:d:/LiteOS_Lab/iot_link/os/liteos/arch/arm/arm-m/armv7-m/gcc\los_dispatch.c ****     /**
 371:d:/LiteOS_Lab/iot_link/os/liteos/arch/arm/arm-m/armv7-m/gcc\los_dispatch.c ****      * Restore the stack frame(R4-R11[,S16-S31]) of the next running task.
 372:d:/LiteOS_Lab/iot_link/os/liteos/arch/arm/arm-m/armv7-m/gcc\los_dispatch.c ****      * R12 restore the PRIMASK value of the next running task.
 373:d:/LiteOS_Lab/iot_link/os/liteos/arch/arm/arm-m/armv7-m/gcc\los_dispatch.c ****      * NOTE: After exiting the exception handler function, these registers
 374:d:/LiteOS_Lab/iot_link/os/liteos/arch/arm/arm-m/armv7-m/gcc\los_dispatch.c ****      *       (PC,xPSR,R0-R3,R12,LR[,S0-S15,FPSCR,NO_NAME]) will be automatically
 375:d:/LiteOS_Lab/iot_link/os/liteos/arch/arm/arm-m/armv7-m/gcc\los_dispatch.c ****      *       restored by the CPU from the stack of the next running task.
 376:d:/LiteOS_Lab/iot_link/os/liteos/arch/arm/arm-m/armv7-m/gcc\los_dispatch.c ****      *
 377:d:/LiteOS_Lab/iot_link/os/liteos/arch/arm/arm-m/armv7-m/gcc\los_dispatch.c ****      * 1. The stack of the next running task is as follows:
 378:d:/LiteOS_Lab/iot_link/os/liteos/arch/arm/arm-m/armv7-m/gcc\los_dispatch.c ****      *
ARM GAS  C:\Users\ADMINI~1\AppData\Local\Temp\ccOg4RIV.s 			page 12


 379:d:/LiteOS_Lab/iot_link/os/liteos/arch/arm/arm-m/armv7-m/gcc\los_dispatch.c ****      *                                   POP: Restore the context of the next running task ===>|
 380:d:/LiteOS_Lab/iot_link/os/liteos/arch/arm/arm-m/armv7-m/gcc\los_dispatch.c ****      *                                                                            High addr--->|
 381:d:/LiteOS_Lab/iot_link/os/liteos/arch/arm/arm-m/armv7-m/gcc\los_dispatch.c ****      * --+---------------------------------------+---------------------------------------------+---
 382:d:/LiteOS_Lab/iot_link/os/liteos/arch/arm/arm-m/armv7-m/gcc\los_dispatch.c ****      *   | R4-R11,PRIMASK[,EXC_RETURN[,S16-S31]] | R0-R3,R12,LR,PC,xPSR[,S0-S15,FPSCR,NO_NAME] |
 383:d:/LiteOS_Lab/iot_link/os/liteos/arch/arm/arm-m/armv7-m/gcc\los_dispatch.c ****      * --+---------------------------------------+---------------------------------------------+---
 384:d:/LiteOS_Lab/iot_link/os/liteos/arch/arm/arm-m/armv7-m/gcc\los_dispatch.c ****      *   |<---Top of the stack, restored from g_stLosTask.pstNewTask->pStackPointer
 385:d:/LiteOS_Lab/iot_link/os/liteos/arch/arm/arm-m/armv7-m/gcc\los_dispatch.c ****      *                              R1 to PSP--->|
 386:d:/LiteOS_Lab/iot_link/os/liteos/arch/arm/arm-m/armv7-m/gcc\los_dispatch.c ****      *                                           |<---         cpu auto restoring          --->|
 387:d:/LiteOS_Lab/iot_link/os/liteos/arch/arm/arm-m/armv7-m/gcc\los_dispatch.c ****      *                                                Stack pointer after exiting exception--->|
 388:d:/LiteOS_Lab/iot_link/os/liteos/arch/arm/arm-m/armv7-m/gcc\los_dispatch.c ****      *
 389:d:/LiteOS_Lab/iot_link/os/liteos/arch/arm/arm-m/armv7-m/gcc\los_dispatch.c ****      * 2. If the next running task is run for the first time, the stack is as follows:
 390:d:/LiteOS_Lab/iot_link/os/liteos/arch/arm/arm-m/armv7-m/gcc\los_dispatch.c ****      *
 391:d:/LiteOS_Lab/iot_link/os/liteos/arch/arm/arm-m/armv7-m/gcc\los_dispatch.c ****      *          POP: Restore the context of the next running task ===>|
 392:d:/LiteOS_Lab/iot_link/os/liteos/arch/arm/arm-m/armv7-m/gcc\los_dispatch.c ****      *                                                   High addr--->|
 393:d:/LiteOS_Lab/iot_link/os/liteos/arch/arm/arm-m/armv7-m/gcc\los_dispatch.c ****      *                                         Bottom of the stack--->|
 394:d:/LiteOS_Lab/iot_link/os/liteos/arch/arm/arm-m/armv7-m/gcc\los_dispatch.c ****      * ----------+-----------------------------+----------------------+
 395:d:/LiteOS_Lab/iot_link/os/liteos/arch/arm/arm-m/armv7-m/gcc\los_dispatch.c ****      *           | R4-R11,PRIMASK[,EXC_RETURN] | R0-R3,R12,LR,PC,xPSR |
 396:d:/LiteOS_Lab/iot_link/os/liteos/arch/arm/arm-m/armv7-m/gcc\los_dispatch.c ****      * ----------+-----------------------------+----------------------+
 397:d:/LiteOS_Lab/iot_link/os/liteos/arch/arm/arm-m/armv7-m/gcc\los_dispatch.c ****      *           |<---Top of the stack, restored from g_stLosTask.pstNewTask->pStackPointer
 398:d:/LiteOS_Lab/iot_link/os/liteos/arch/arm/arm-m/armv7-m/gcc\los_dispatch.c ****      *                            R1 to PSP--->|
 399:d:/LiteOS_Lab/iot_link/os/liteos/arch/arm/arm-m/armv7-m/gcc\los_dispatch.c ****      *                                         |<---auto restoring--->|
 400:d:/LiteOS_Lab/iot_link/os/liteos/arch/arm/arm-m/armv7-m/gcc\los_dispatch.c ****      *                       Stack pointer after exiting exception--->|
 401:d:/LiteOS_Lab/iot_link/os/liteos/arch/arm/arm-m/armv7-m/gcc\los_dispatch.c ****      */
 402:d:/LiteOS_Lab/iot_link/os/liteos/arch/arm/arm-m/armv7-m/gcc\los_dispatch.c ****     "LDMFD  R1!, {R4-R12}           @ restore the core registers and PRIMASK\n\t"
 403:d:/LiteOS_Lab/iot_link/os/liteos/arch/arm/arm-m/armv7-m/gcc\los_dispatch.c **** 
 404:d:/LiteOS_Lab/iot_link/os/liteos/arch/arm/arm-m/armv7-m/gcc\los_dispatch.c **** #if defined (__VFP_FP__) && !defined(__SOFTFP__)       /* if FPU exist. */
 405:d:/LiteOS_Lab/iot_link/os/liteos/arch/arm/arm-m/armv7-m/gcc\los_dispatch.c ****     "LDMFD  R1!, {R14}              @ restore EXC_RETURN\n\t"
 406:d:/LiteOS_Lab/iot_link/os/liteos/arch/arm/arm-m/armv7-m/gcc\los_dispatch.c ****     "TST    R14, #0x10              @ if the task using the FPU context\n\t"
 407:d:/LiteOS_Lab/iot_link/os/liteos/arch/arm/arm-m/armv7-m/gcc\los_dispatch.c ****     "BNE    0f\n\t"
 408:d:/LiteOS_Lab/iot_link/os/liteos/arch/arm/arm-m/armv7-m/gcc\los_dispatch.c ****     "VLDMIA R1!, {D8-D15}\n\t"
 409:d:/LiteOS_Lab/iot_link/os/liteos/arch/arm/arm-m/armv7-m/gcc\los_dispatch.c ****     "0:\n\t"
 410:d:/LiteOS_Lab/iot_link/os/liteos/arch/arm/arm-m/armv7-m/gcc\los_dispatch.c **** #endif
 411:d:/LiteOS_Lab/iot_link/os/liteos/arch/arm/arm-m/armv7-m/gcc\los_dispatch.c **** 
 412:d:/LiteOS_Lab/iot_link/os/liteos/arch/arm/arm-m/armv7-m/gcc\los_dispatch.c ****     /**
 413:d:/LiteOS_Lab/iot_link/os/liteos/arch/arm/arm-m/armv7-m/gcc\los_dispatch.c ****      * Set the stack pointer of the next running task to PSP.
 414:d:/LiteOS_Lab/iot_link/os/liteos/arch/arm/arm-m/armv7-m/gcc\los_dispatch.c ****      */
 415:d:/LiteOS_Lab/iot_link/os/liteos/arch/arm/arm-m/armv7-m/gcc\los_dispatch.c ****     "MSR    PSP, R1\n\t"
 416:d:/LiteOS_Lab/iot_link/os/liteos/arch/arm/arm-m/armv7-m/gcc\los_dispatch.c **** 
 417:d:/LiteOS_Lab/iot_link/os/liteos/arch/arm/arm-m/armv7-m/gcc\los_dispatch.c ****     /**
 418:d:/LiteOS_Lab/iot_link/os/liteos/arch/arm/arm-m/armv7-m/gcc\los_dispatch.c ****      * Restore the interruption state of the next running task.
 419:d:/LiteOS_Lab/iot_link/os/liteos/arch/arm/arm-m/armv7-m/gcc\los_dispatch.c ****      */
 420:d:/LiteOS_Lab/iot_link/os/liteos/arch/arm/arm-m/armv7-m/gcc\los_dispatch.c ****     "MSR    PRIMASK, R12\n\t"
 421:d:/LiteOS_Lab/iot_link/os/liteos/arch/arm/arm-m/armv7-m/gcc\los_dispatch.c ****     "BX     LR\n\t"
 422:d:/LiteOS_Lab/iot_link/os/liteos/arch/arm/arm-m/armv7-m/gcc\los_dispatch.c ****     :
 423:d:/LiteOS_Lab/iot_link/os/liteos/arch/arm/arm-m/armv7-m/gcc\los_dispatch.c ****     : "I" (OS_TASK_STATUS_RUNNING), "X" (MPU_RBAR)
 424:d:/LiteOS_Lab/iot_link/os/liteos/arch/arm/arm-m/armv7-m/gcc\los_dispatch.c ****     );
 425:d:/LiteOS_Lab/iot_link/os/liteos/arch/arm/arm-m/armv7-m/gcc\los_dispatch.c **** }
 261              		.loc 1 425 1
 262              		.thumb
 263              		.syntax unified
 264 0068 00BF     		nop
 265              		.cfi_endproc
 266              	.LFE292:
 268 006a 0000     		.text
 269              	.Letext0:
 270              		.file 2 "c:\\users\\administrator\\.huawei-liteos-studio\\tools\\arm-none-eabi\\arm-none-eabi\\inc
 271              		.file 3 "c:\\users\\administrator\\.huawei-liteos-studio\\tools\\arm-none-eabi\\arm-none-eabi\\inc
ARM GAS  C:\Users\ADMINI~1\AppData\Local\Temp\ccOg4RIV.s 			page 13


 272              		.file 4 "c:\\users\\administrator\\.huawei-liteos-studio\\tools\\arm-none-eabi\\arm-none-eabi\\inc
 273              		.file 5 "c:\\users\\administrator\\.huawei-liteos-studio\\tools\\arm-none-eabi\\lib\\gcc\\arm-none
 274              		.file 6 "c:\\users\\administrator\\.huawei-liteos-studio\\tools\\arm-none-eabi\\arm-none-eabi\\inc
 275              		.file 7 "d:/LiteOS_Lab/iot_link/os/liteos/include/los_typedef.h"
 276              		.file 8 "c:\\users\\administrator\\.huawei-liteos-studio\\tools\\arm-none-eabi\\arm-none-eabi\\inc
 277              		.file 9 "d:/LiteOS_Lab/iot_link/os/liteos/arch/arm/common/cmsis/core_cm4.h"
 278              		.file 10 "d:/LiteOS_Lab/targets/STM32L431VCT6_Bossay/Inc/system_stm32l4xx.h"
 279              		.file 11 "d:/LiteOS_Lab/iot_link/os/liteos/include/los_err.h"
 280              		.file 12 "d:/LiteOS_Lab/iot_link/os/liteos/arch/arm/arm-m/include/los_hwi.h"
 281              		.file 13 "d:/LiteOS_Lab/iot_link/os/liteos/include/los_config.h"
ARM GAS  C:\Users\ADMINI~1\AppData\Local\Temp\ccOg4RIV.s 			page 14

