ARM GAS  C:\Users\user\AppData\Local\Temp\ccA1XawZ.s 			page 1


   1              		.cpu cortex-m4
   2              		.eabi_attribute 27, 1
   3              		.eabi_attribute 28, 1
   4              		.eabi_attribute 20, 1
   5              		.eabi_attribute 21, 1
   6              		.eabi_attribute 23, 3
   7              		.eabi_attribute 24, 1
   8              		.eabi_attribute 25, 1
   9              		.eabi_attribute 26, 1
  10              		.eabi_attribute 30, 6
  11              		.eabi_attribute 34, 1
  12              		.eabi_attribute 18, 4
  13              		.file	"atiny_log.c"
  14              		.text
  15              	.Ltext0:
  16              		.cfi_sections	.debug_frame
  17              		.section	.data.g_atiny_log_level,"aw",%progbits
  20              	g_atiny_log_level:
  21 0000 03       		.byte	3
  22              		.section	.rodata
  23              		.align	2
  24              	.LC0:
  25 0000 44454255 		.ascii	"DEBUG\000"
  25      4700
  26 0006 0000     		.align	2
  27              	.LC1:
  28 0008 494E464F 		.ascii	"INFO\000"
  28      00
  29 000d 000000   		.align	2
  30              	.LC2:
  31 0010 5741524E 		.ascii	"WARNING\000"
  31      494E4700 
  32              		.align	2
  33              	.LC3:
  34 0018 45525200 		.ascii	"ERR\000"
  35              		.align	2
  36              	.LC4:
  37 001c 46415441 		.ascii	"FATAL\000"
  37      4C00
  38              		.section	.data.g_log_names,"aw",%progbits
  39              		.align	2
  42              	g_log_names:
  43 0000 00000000 		.word	.LC0
  44 0004 08000000 		.word	.LC1
  45 0008 10000000 		.word	.LC2
  46 000c 18000000 		.word	.LC3
  47 0010 1C000000 		.word	.LC4
  48              		.section	.text.atiny_set_log_level,"ax",%progbits
  49              		.align	1
  50              		.global	atiny_set_log_level
  51              		.syntax unified
  52              		.thumb
  53              		.thumb_func
  54              		.fpu fpv4-sp-d16
  56              	atiny_set_log_level:
  57              	.LFB3:
  58              		.file 1 "E:/LiteOS/LiteOS_Lab/iot_link/link_log/atiny_log.c"
ARM GAS  C:\Users\user\AppData\Local\Temp\ccA1XawZ.s 			page 2


   1:E:/LiteOS/LiteOS_Lab/iot_link/link_log\atiny_log.c **** /*----------------------------------------------------------------------------
   2:E:/LiteOS/LiteOS_Lab/iot_link/link_log\atiny_log.c ****  * Copyright (c) <2016-2018>, <Huawei Technologies Co., Ltd>
   3:E:/LiteOS/LiteOS_Lab/iot_link/link_log\atiny_log.c ****  * All rights reserved.
   4:E:/LiteOS/LiteOS_Lab/iot_link/link_log\atiny_log.c ****  * Redistribution and use in source and binary forms, with or without modification,
   5:E:/LiteOS/LiteOS_Lab/iot_link/link_log\atiny_log.c ****  * are permitted provided that the following conditions are met:
   6:E:/LiteOS/LiteOS_Lab/iot_link/link_log\atiny_log.c ****  * 1. Redistributions of source code must retain the above copyright notice, this list of
   7:E:/LiteOS/LiteOS_Lab/iot_link/link_log\atiny_log.c ****  * conditions and the following disclaimer.
   8:E:/LiteOS/LiteOS_Lab/iot_link/link_log\atiny_log.c ****  * 2. Redistributions in binary form must reproduce the above copyright notice, this list
   9:E:/LiteOS/LiteOS_Lab/iot_link/link_log\atiny_log.c ****  * of conditions and the following disclaimer in the documentation and/or other materials
  10:E:/LiteOS/LiteOS_Lab/iot_link/link_log\atiny_log.c ****  * provided with the distribution.
  11:E:/LiteOS/LiteOS_Lab/iot_link/link_log\atiny_log.c ****  * 3. Neither the name of the copyright holder nor the names of its contributors may be used
  12:E:/LiteOS/LiteOS_Lab/iot_link/link_log\atiny_log.c ****  * to endorse or promote products derived from this software without specific prior written
  13:E:/LiteOS/LiteOS_Lab/iot_link/link_log\atiny_log.c ****  * permission.
  14:E:/LiteOS/LiteOS_Lab/iot_link/link_log\atiny_log.c ****  * THIS SOFTWARE IS PROVIDED BY THE COPYRIGHT HOLDERS AND CONTRIBUTORS
  15:E:/LiteOS/LiteOS_Lab/iot_link/link_log\atiny_log.c ****  * "AS IS" AND ANY EXPRESS OR IMPLIED WARRANTIES, INCLUDING, BUT NOT LIMITED TO,
  16:E:/LiteOS/LiteOS_Lab/iot_link/link_log\atiny_log.c ****  * THE IMPLIED WARRANTIES OF MERCHANTABILITY AND FITNESS FOR A PARTICULAR
  17:E:/LiteOS/LiteOS_Lab/iot_link/link_log\atiny_log.c ****  * PURPOSE ARE DISCLAIMED. IN NO EVENT SHALL THE COPYRIGHT HOLDER OR
  18:E:/LiteOS/LiteOS_Lab/iot_link/link_log\atiny_log.c ****  * CONTRIBUTORS BE LIABLE FOR ANY DIRECT, INDIRECT, INCIDENTAL, SPECIAL,
  19:E:/LiteOS/LiteOS_Lab/iot_link/link_log\atiny_log.c ****  * EXEMPLARY, OR CONSEQUENTIAL DAMAGES (INCLUDING, BUT NOT LIMITED TO,
  20:E:/LiteOS/LiteOS_Lab/iot_link/link_log\atiny_log.c ****  * PROCUREMENT OF SUBSTITUTE GOODS OR SERVICES; LOSS OF USE, DATA, OR PROFITS;
  21:E:/LiteOS/LiteOS_Lab/iot_link/link_log\atiny_log.c ****  * OR BUSINESS INTERRUPTION) HOWEVER CAUSED AND ON ANY THEORY OF LIABILITY,
  22:E:/LiteOS/LiteOS_Lab/iot_link/link_log\atiny_log.c ****  * WHETHER IN CONTRACT, STRICT LIABILITY, OR TORT (INCLUDING NEGLIGENCE OR
  23:E:/LiteOS/LiteOS_Lab/iot_link/link_log\atiny_log.c ****  * OTHERWISE) ARISING IN ANY WAY OUT OF THE USE OF THIS SOFTWARE, EVEN IF
  24:E:/LiteOS/LiteOS_Lab/iot_link/link_log\atiny_log.c ****  * ADVISED OF THE POSSIBILITY OF SUCH DAMAGE.
  25:E:/LiteOS/LiteOS_Lab/iot_link/link_log\atiny_log.c ****  *---------------------------------------------------------------------------*/
  26:E:/LiteOS/LiteOS_Lab/iot_link/link_log\atiny_log.c **** /*----------------------------------------------------------------------------
  27:E:/LiteOS/LiteOS_Lab/iot_link/link_log\atiny_log.c ****  * Notice of Export Control Law
  28:E:/LiteOS/LiteOS_Lab/iot_link/link_log\atiny_log.c ****  * ===============================================
  29:E:/LiteOS/LiteOS_Lab/iot_link/link_log\atiny_log.c ****  * Huawei LiteOS may be subject to applicable export control laws and regulations, which might
  30:E:/LiteOS/LiteOS_Lab/iot_link/link_log\atiny_log.c ****  * include those applicable to Huawei LiteOS of U.S. and the country in which you are located.
  31:E:/LiteOS/LiteOS_Lab/iot_link/link_log\atiny_log.c ****  * Import, export and usage of Huawei LiteOS in any manner by you shall be in compliance with such
  32:E:/LiteOS/LiteOS_Lab/iot_link/link_log\atiny_log.c ****  * applicable export control laws and regulations.
  33:E:/LiteOS/LiteOS_Lab/iot_link/link_log\atiny_log.c ****  *---------------------------------------------------------------------------*/
  34:E:/LiteOS/LiteOS_Lab/iot_link/link_log\atiny_log.c **** 
  35:E:/LiteOS/LiteOS_Lab/iot_link/link_log\atiny_log.c **** #include <atiny_log.h>
  36:E:/LiteOS/LiteOS_Lab/iot_link/link_log\atiny_log.c **** 
  37:E:/LiteOS/LiteOS_Lab/iot_link/link_log\atiny_log.c **** static atiny_log_e g_atiny_log_level = LOG_ERR;
  38:E:/LiteOS/LiteOS_Lab/iot_link/link_log\atiny_log.c **** 
  39:E:/LiteOS/LiteOS_Lab/iot_link/link_log\atiny_log.c **** static const char *g_log_names[] =
  40:E:/LiteOS/LiteOS_Lab/iot_link/link_log\atiny_log.c **** {
  41:E:/LiteOS/LiteOS_Lab/iot_link/link_log\atiny_log.c ****     "DEBUG",
  42:E:/LiteOS/LiteOS_Lab/iot_link/link_log\atiny_log.c ****     "INFO",
  43:E:/LiteOS/LiteOS_Lab/iot_link/link_log\atiny_log.c ****     "WARNING",
  44:E:/LiteOS/LiteOS_Lab/iot_link/link_log\atiny_log.c ****     "ERR",
  45:E:/LiteOS/LiteOS_Lab/iot_link/link_log\atiny_log.c ****     "FATAL",
  46:E:/LiteOS/LiteOS_Lab/iot_link/link_log\atiny_log.c **** };
  47:E:/LiteOS/LiteOS_Lab/iot_link/link_log\atiny_log.c **** 
  48:E:/LiteOS/LiteOS_Lab/iot_link/link_log\atiny_log.c **** void atiny_set_log_level(atiny_log_e level)
  49:E:/LiteOS/LiteOS_Lab/iot_link/link_log\atiny_log.c **** {
  59              		.loc 1 49 0
  60              		.cfi_startproc
  61              		@ args = 0, pretend = 0, frame = 8
  62              		@ frame_needed = 1, uses_anonymous_args = 0
  63              		@ link register save eliminated.
  64 0000 80B4     		push	{r7}
  65              	.LCFI0:
  66              		.cfi_def_cfa_offset 4
ARM GAS  C:\Users\user\AppData\Local\Temp\ccA1XawZ.s 			page 3


  67              		.cfi_offset 7, -4
  68 0002 83B0     		sub	sp, sp, #12
  69              	.LCFI1:
  70              		.cfi_def_cfa_offset 16
  71 0004 00AF     		add	r7, sp, #0
  72              	.LCFI2:
  73              		.cfi_def_cfa_register 7
  74 0006 0346     		mov	r3, r0
  75 0008 FB71     		strb	r3, [r7, #7]
  50:E:/LiteOS/LiteOS_Lab/iot_link/link_log\atiny_log.c ****     g_atiny_log_level = level;
  76              		.loc 1 50 0
  77 000a 044A     		ldr	r2, .L2
  78 000c FB79     		ldrb	r3, [r7, #7]
  79 000e 1370     		strb	r3, [r2]
  51:E:/LiteOS/LiteOS_Lab/iot_link/link_log\atiny_log.c **** }
  80              		.loc 1 51 0
  81 0010 00BF     		nop
  82 0012 0C37     		adds	r7, r7, #12
  83              	.LCFI3:
  84              		.cfi_def_cfa_offset 4
  85 0014 BD46     		mov	sp, r7
  86              	.LCFI4:
  87              		.cfi_def_cfa_register 13
  88              		@ sp needed
  89 0016 5DF8047B 		ldr	r7, [sp], #4
  90              	.LCFI5:
  91              		.cfi_restore 7
  92              		.cfi_def_cfa_offset 0
  93 001a 7047     		bx	lr
  94              	.L3:
  95              		.align	2
  96              	.L2:
  97 001c 00000000 		.word	g_atiny_log_level
  98              		.cfi_endproc
  99              	.LFE3:
 101              		.section	.text.atiny_get_log_level,"ax",%progbits
 102              		.align	1
 103              		.global	atiny_get_log_level
 104              		.syntax unified
 105              		.thumb
 106              		.thumb_func
 107              		.fpu fpv4-sp-d16
 109              	atiny_get_log_level:
 110              	.LFB4:
  52:E:/LiteOS/LiteOS_Lab/iot_link/link_log\atiny_log.c **** 
  53:E:/LiteOS/LiteOS_Lab/iot_link/link_log\atiny_log.c **** atiny_log_e atiny_get_log_level(void)
  54:E:/LiteOS/LiteOS_Lab/iot_link/link_log\atiny_log.c **** {
 111              		.loc 1 54 0
 112              		.cfi_startproc
 113              		@ args = 0, pretend = 0, frame = 0
 114              		@ frame_needed = 1, uses_anonymous_args = 0
 115              		@ link register save eliminated.
 116 0000 80B4     		push	{r7}
 117              	.LCFI6:
 118              		.cfi_def_cfa_offset 4
 119              		.cfi_offset 7, -4
 120 0002 00AF     		add	r7, sp, #0
ARM GAS  C:\Users\user\AppData\Local\Temp\ccA1XawZ.s 			page 4


 121              	.LCFI7:
 122              		.cfi_def_cfa_register 7
  55:E:/LiteOS/LiteOS_Lab/iot_link/link_log\atiny_log.c ****     return g_atiny_log_level;
 123              		.loc 1 55 0
 124 0004 034B     		ldr	r3, .L6
 125 0006 1B78     		ldrb	r3, [r3]	@ zero_extendqisi2
  56:E:/LiteOS/LiteOS_Lab/iot_link/link_log\atiny_log.c **** }
 126              		.loc 1 56 0
 127 0008 1846     		mov	r0, r3
 128 000a BD46     		mov	sp, r7
 129              	.LCFI8:
 130              		.cfi_def_cfa_register 13
 131              		@ sp needed
 132 000c 5DF8047B 		ldr	r7, [sp], #4
 133              	.LCFI9:
 134              		.cfi_restore 7
 135              		.cfi_def_cfa_offset 0
 136 0010 7047     		bx	lr
 137              	.L7:
 138 0012 00BF     		.align	2
 139              	.L6:
 140 0014 00000000 		.word	g_atiny_log_level
 141              		.cfi_endproc
 142              	.LFE4:
 144              		.section	.rodata
 145 0022 0000     		.align	2
 146              	.LC5:
 147 0024 554E4B4F 		.ascii	"UNKOWN\000"
 147      574E00
 148              		.section	.text.atiny_get_log_level_name,"ax",%progbits
 149              		.align	1
 150              		.global	atiny_get_log_level_name
 151              		.syntax unified
 152              		.thumb
 153              		.thumb_func
 154              		.fpu fpv4-sp-d16
 156              	atiny_get_log_level_name:
 157              	.LFB5:
  57:E:/LiteOS/LiteOS_Lab/iot_link/link_log\atiny_log.c **** 
  58:E:/LiteOS/LiteOS_Lab/iot_link/link_log\atiny_log.c **** const char *atiny_get_log_level_name(atiny_log_e log_level)
  59:E:/LiteOS/LiteOS_Lab/iot_link/link_log\atiny_log.c **** {
 158              		.loc 1 59 0
 159              		.cfi_startproc
 160              		@ args = 0, pretend = 0, frame = 8
 161              		@ frame_needed = 1, uses_anonymous_args = 0
 162              		@ link register save eliminated.
 163 0000 80B4     		push	{r7}
 164              	.LCFI10:
 165              		.cfi_def_cfa_offset 4
 166              		.cfi_offset 7, -4
 167 0002 83B0     		sub	sp, sp, #12
 168              	.LCFI11:
 169              		.cfi_def_cfa_offset 16
 170 0004 00AF     		add	r7, sp, #0
 171              	.LCFI12:
 172              		.cfi_def_cfa_register 7
 173 0006 0346     		mov	r3, r0
ARM GAS  C:\Users\user\AppData\Local\Temp\ccA1XawZ.s 			page 5


 174 0008 FB71     		strb	r3, [r7, #7]
  60:E:/LiteOS/LiteOS_Lab/iot_link/link_log\atiny_log.c ****     if (log_level >= LOG_MAX)
 175              		.loc 1 60 0
 176 000a FB79     		ldrb	r3, [r7, #7]	@ zero_extendqisi2
 177 000c 042B     		cmp	r3, #4
 178 000e 01D9     		bls	.L9
  61:E:/LiteOS/LiteOS_Lab/iot_link/link_log\atiny_log.c ****     {
  62:E:/LiteOS/LiteOS_Lab/iot_link/link_log\atiny_log.c ****         return "UNKOWN";
 179              		.loc 1 62 0
 180 0010 054B     		ldr	r3, .L11
 181 0012 03E0     		b	.L10
 182              	.L9:
  63:E:/LiteOS/LiteOS_Lab/iot_link/link_log\atiny_log.c ****     }
  64:E:/LiteOS/LiteOS_Lab/iot_link/link_log\atiny_log.c **** 
  65:E:/LiteOS/LiteOS_Lab/iot_link/link_log\atiny_log.c ****     return g_log_names[log_level];
 183              		.loc 1 65 0
 184 0014 FB79     		ldrb	r3, [r7, #7]	@ zero_extendqisi2
 185 0016 054A     		ldr	r2, .L11+4
 186 0018 52F82330 		ldr	r3, [r2, r3, lsl #2]
 187              	.L10:
  66:E:/LiteOS/LiteOS_Lab/iot_link/link_log\atiny_log.c **** }
 188              		.loc 1 66 0
 189 001c 1846     		mov	r0, r3
 190 001e 0C37     		adds	r7, r7, #12
 191              	.LCFI13:
 192              		.cfi_def_cfa_offset 4
 193 0020 BD46     		mov	sp, r7
 194              	.LCFI14:
 195              		.cfi_def_cfa_register 13
 196              		@ sp needed
 197 0022 5DF8047B 		ldr	r7, [sp], #4
 198              	.LCFI15:
 199              		.cfi_restore 7
 200              		.cfi_def_cfa_offset 0
 201 0026 7047     		bx	lr
 202              	.L12:
 203              		.align	2
 204              	.L11:
 205 0028 24000000 		.word	.LC5
 206 002c 00000000 		.word	g_log_names
 207              		.cfi_endproc
 208              	.LFE5:
 210              		.text
 211              	.Letext0:
 212              		.file 2 "e:\\ac6\\systemworkbench\\plugins\\fr.ac6.mcu.externaltools.arm-none.win32_1.16.0.2018071
 213              		.file 3 "e:\\ac6\\systemworkbench\\plugins\\fr.ac6.mcu.externaltools.arm-none.win32_1.16.0.2018071
 214              		.file 4 "e:\\ac6\\systemworkbench\\plugins\\fr.ac6.mcu.externaltools.arm-none.win32_1.16.0.2018071
 215              		.file 5 "e:\\ac6\\systemworkbench\\plugins\\fr.ac6.mcu.externaltools.arm-none.win32_1.16.0.2018071
 216              		.file 6 "E:/LiteOS/LiteOS_Lab/iot_link/link_log/atiny_log.h"
ARM GAS  C:\Users\user\AppData\Local\Temp\ccA1XawZ.s 			page 6

