ARM GAS  C:\Users\user\AppData\Local\Temp\ccQ1o4Rh.s 			page 1


   1              		.cpu cortex-m4
   2              		.eabi_attribute 27, 1
   3              		.eabi_attribute 28, 1
   4              		.eabi_attribute 20, 1
   5              		.eabi_attribute 21, 1
   6              		.eabi_attribute 23, 3
   7              		.eabi_attribute 24, 1
   8              		.eabi_attribute 25, 1
   9              		.eabi_attribute 26, 1
  10              		.eabi_attribute 30, 6
  11              		.eabi_attribute 34, 1
  12              		.eabi_attribute 18, 4
  13              		.file	"boudica150_oc.c"
  14              		.text
  15              	.Ltext0:
  16              		.cfi_sections	.debug_frame
  17              		.section	.bss.s_boudica150_oc_cb,"aw",%nobits
  18              		.align	2
  21              	s_boudica150_oc_cb:
  22 0000 00000000 		.space	344
  22      00000000 
  22      00000000 
  22      00000000 
  22      00000000 
  23              		.global	wireless_stats
  24              		.section	.bss.wireless_stats,"aw",%nobits
  25              		.align	2
  28              	wireless_stats:
  29 0000 00000000 		.space	16
  29      00000000 
  29      00000000 
  29      00000000 
  30              		.section	.text.boudica150_atcmd,"ax",%progbits
  31              		.align	1
  32              		.syntax unified
  33              		.thumb
  34              		.thumb_func
  35              		.fpu fpv4-sp-d16
  37              	boudica150_atcmd:
  38              	.LFB3:
  39              		.file 1 "E:/LiteOS/LiteOS_Lab/iot_link/oc/oc_lwm2m/oc_lwm2m_imp/boudica150/boudica150_oc.c"
   1:E:/LiteOS/LiteOS_Lab/iot_link/oc/oc_lwm2m/oc_lwm2m_imp/boudica150\boudica150_oc.c **** /*----------------------------------------------------------------------------
   2:E:/LiteOS/LiteOS_Lab/iot_link/oc/oc_lwm2m/oc_lwm2m_imp/boudica150\boudica150_oc.c ****  * Copyright (c) <2016-2018>, <Huawei Technologies Co., Ltd>
   3:E:/LiteOS/LiteOS_Lab/iot_link/oc/oc_lwm2m/oc_lwm2m_imp/boudica150\boudica150_oc.c ****  * All rights reserved.
   4:E:/LiteOS/LiteOS_Lab/iot_link/oc/oc_lwm2m/oc_lwm2m_imp/boudica150\boudica150_oc.c ****  * Redistribution and use in source and binary forms, with or without modification,
   5:E:/LiteOS/LiteOS_Lab/iot_link/oc/oc_lwm2m/oc_lwm2m_imp/boudica150\boudica150_oc.c ****  * are permitted provided that the following conditions are met:
   6:E:/LiteOS/LiteOS_Lab/iot_link/oc/oc_lwm2m/oc_lwm2m_imp/boudica150\boudica150_oc.c ****  * 1. Redistributions of source code must retain the above copyright notice, this list of
   7:E:/LiteOS/LiteOS_Lab/iot_link/oc/oc_lwm2m/oc_lwm2m_imp/boudica150\boudica150_oc.c ****  * conditions and the following disclaimer.
   8:E:/LiteOS/LiteOS_Lab/iot_link/oc/oc_lwm2m/oc_lwm2m_imp/boudica150\boudica150_oc.c ****  * 2. Redistributions in binary form must reproduce the above copyright notice, this list
   9:E:/LiteOS/LiteOS_Lab/iot_link/oc/oc_lwm2m/oc_lwm2m_imp/boudica150\boudica150_oc.c ****  * of conditions and the following disclaimer in the documentation and/or other materials
  10:E:/LiteOS/LiteOS_Lab/iot_link/oc/oc_lwm2m/oc_lwm2m_imp/boudica150\boudica150_oc.c ****  * provided with the distribution.
  11:E:/LiteOS/LiteOS_Lab/iot_link/oc/oc_lwm2m/oc_lwm2m_imp/boudica150\boudica150_oc.c ****  * 3. Neither the name of the copyright holder nor the names of its contributors may be used
  12:E:/LiteOS/LiteOS_Lab/iot_link/oc/oc_lwm2m/oc_lwm2m_imp/boudica150\boudica150_oc.c ****  * to endorse or promote products derived from this software without specific prior written
  13:E:/LiteOS/LiteOS_Lab/iot_link/oc/oc_lwm2m/oc_lwm2m_imp/boudica150\boudica150_oc.c ****  * permission.
  14:E:/LiteOS/LiteOS_Lab/iot_link/oc/oc_lwm2m/oc_lwm2m_imp/boudica150\boudica150_oc.c ****  * THIS SOFTWARE IS PROVIDED BY THE COPYRIGHT HOLDERS AND CONTRIBUTORS
  15:E:/LiteOS/LiteOS_Lab/iot_link/oc/oc_lwm2m/oc_lwm2m_imp/boudica150\boudica150_oc.c ****  * "AS IS" AND ANY EXPRESS OR IMPLIED WARRANTIES, INCLUDING, BUT NOT LIMITED TO,
  16:E:/LiteOS/LiteOS_Lab/iot_link/oc/oc_lwm2m/oc_lwm2m_imp/boudica150\boudica150_oc.c ****  * THE IMPLIED WARRANTIES OF MERCHANTABILITY AND FITNESS FOR A PARTICULAR
ARM GAS  C:\Users\user\AppData\Local\Temp\ccQ1o4Rh.s 			page 2


  17:E:/LiteOS/LiteOS_Lab/iot_link/oc/oc_lwm2m/oc_lwm2m_imp/boudica150\boudica150_oc.c ****  * PURPOSE ARE DISCLAIMED. IN NO EVENT SHALL THE COPYRIGHT HOLDER OR
  18:E:/LiteOS/LiteOS_Lab/iot_link/oc/oc_lwm2m/oc_lwm2m_imp/boudica150\boudica150_oc.c ****  * CONTRIBUTORS BE LIABLE FOR ANY DIRECT, INDIRECT, INCIDENTAL, SPECIAL,
  19:E:/LiteOS/LiteOS_Lab/iot_link/oc/oc_lwm2m/oc_lwm2m_imp/boudica150\boudica150_oc.c ****  * EXEMPLARY, OR CONSEQUENTIAL DAMAGES (INCLUDING, BUT NOT LIMITED TO,
  20:E:/LiteOS/LiteOS_Lab/iot_link/oc/oc_lwm2m/oc_lwm2m_imp/boudica150\boudica150_oc.c ****  * PROCUREMENT OF SUBSTITUTE GOODS OR SERVICES; LOSS OF USE, DATA, OR PROFITS;
  21:E:/LiteOS/LiteOS_Lab/iot_link/oc/oc_lwm2m/oc_lwm2m_imp/boudica150\boudica150_oc.c ****  * OR BUSINESS INTERRUPTION) HOWEVER CAUSED AND ON ANY THEORY OF LIABILITY,
  22:E:/LiteOS/LiteOS_Lab/iot_link/oc/oc_lwm2m/oc_lwm2m_imp/boudica150\boudica150_oc.c ****  * WHETHER IN CONTRACT, STRICT LIABILITY, OR TORT (INCLUDING NEGLIGENCE OR
  23:E:/LiteOS/LiteOS_Lab/iot_link/oc/oc_lwm2m/oc_lwm2m_imp/boudica150\boudica150_oc.c ****  * OTHERWISE) ARISING IN ANY WAY OUT OF THE USE OF THIS SOFTWARE, EVEN IF
  24:E:/LiteOS/LiteOS_Lab/iot_link/oc/oc_lwm2m/oc_lwm2m_imp/boudica150\boudica150_oc.c ****  * ADVISED OF THE POSSIBILITY OF SUCH DAMAGE.
  25:E:/LiteOS/LiteOS_Lab/iot_link/oc/oc_lwm2m/oc_lwm2m_imp/boudica150\boudica150_oc.c ****  *---------------------------------------------------------------------------*/
  26:E:/LiteOS/LiteOS_Lab/iot_link/oc/oc_lwm2m/oc_lwm2m_imp/boudica150\boudica150_oc.c **** /*----------------------------------------------------------------------------
  27:E:/LiteOS/LiteOS_Lab/iot_link/oc/oc_lwm2m/oc_lwm2m_imp/boudica150\boudica150_oc.c ****  * Notice of Export Control Law
  28:E:/LiteOS/LiteOS_Lab/iot_link/oc/oc_lwm2m/oc_lwm2m_imp/boudica150\boudica150_oc.c ****  * ===============================================
  29:E:/LiteOS/LiteOS_Lab/iot_link/oc/oc_lwm2m/oc_lwm2m_imp/boudica150\boudica150_oc.c ****  * Huawei LiteOS may be subject to applicable export control laws and regulations, which might
  30:E:/LiteOS/LiteOS_Lab/iot_link/oc/oc_lwm2m/oc_lwm2m_imp/boudica150\boudica150_oc.c ****  * include those applicable to Huawei LiteOS of U.S. and the country in which you are located.
  31:E:/LiteOS/LiteOS_Lab/iot_link/oc/oc_lwm2m/oc_lwm2m_imp/boudica150\boudica150_oc.c ****  * Import, export and usage of Huawei LiteOS in any manner by you shall be in compliance with such
  32:E:/LiteOS/LiteOS_Lab/iot_link/oc/oc_lwm2m/oc_lwm2m_imp/boudica150\boudica150_oc.c ****  * applicable export control laws and regulations.
  33:E:/LiteOS/LiteOS_Lab/iot_link/oc/oc_lwm2m/oc_lwm2m_imp/boudica150\boudica150_oc.c ****  *---------------------------------------------------------------------------*/
  34:E:/LiteOS/LiteOS_Lab/iot_link/oc/oc_lwm2m/oc_lwm2m_imp/boudica150\boudica150_oc.c **** 
  35:E:/LiteOS/LiteOS_Lab/iot_link/oc/oc_lwm2m/oc_lwm2m_imp/boudica150\boudica150_oc.c **** ///< you must config the at module ,for the NB modules need the at
  36:E:/LiteOS/LiteOS_Lab/iot_link/oc/oc_lwm2m/oc_lwm2m_imp/boudica150\boudica150_oc.c **** 
  37:E:/LiteOS/LiteOS_Lab/iot_link/oc/oc_lwm2m/oc_lwm2m_imp/boudica150\boudica150_oc.c **** 
  38:E:/LiteOS/LiteOS_Lab/iot_link/oc/oc_lwm2m/oc_lwm2m_imp/boudica150\boudica150_oc.c **** 
  39:E:/LiteOS/LiteOS_Lab/iot_link/oc/oc_lwm2m/oc_lwm2m_imp/boudica150\boudica150_oc.c **** #include <at.h>
  40:E:/LiteOS/LiteOS_Lab/iot_link/oc/oc_lwm2m/oc_lwm2m_imp/boudica150\boudica150_oc.c **** #include <boudica150_oc.h>
  41:E:/LiteOS/LiteOS_Lab/iot_link/oc/oc_lwm2m/oc_lwm2m_imp/boudica150\boudica150_oc.c **** #include <oc_lwm2m_al.h>
  42:E:/LiteOS/LiteOS_Lab/iot_link/oc/oc_lwm2m/oc_lwm2m_imp/boudica150\boudica150_oc.c **** #include <osal.h>
  43:E:/LiteOS/LiteOS_Lab/iot_link/oc/oc_lwm2m/oc_lwm2m_imp/boudica150\boudica150_oc.c **** 
  44:E:/LiteOS/LiteOS_Lab/iot_link/oc/oc_lwm2m/oc_lwm2m_imp/boudica150\boudica150_oc.c **** ///<  only support the bootstrap mode
  45:E:/LiteOS/LiteOS_Lab/iot_link/oc/oc_lwm2m/oc_lwm2m_imp/boudica150\boudica150_oc.c **** 
  46:E:/LiteOS/LiteOS_Lab/iot_link/oc/oc_lwm2m/oc_lwm2m_imp/boudica150\boudica150_oc.c **** #define cn_boudica150_cmd_timeout  (2*1000)
  47:E:/LiteOS/LiteOS_Lab/iot_link/oc/oc_lwm2m/oc_lwm2m_imp/boudica150\boudica150_oc.c **** #define cn_boudica150_try_times    (32)
  48:E:/LiteOS/LiteOS_Lab/iot_link/oc/oc_lwm2m/oc_lwm2m_imp/boudica150\boudica150_oc.c **** #define cn_boudica150_rcvindex     "\r\n+NNMI:"
  49:E:/LiteOS/LiteOS_Lab/iot_link/oc/oc_lwm2m/oc_lwm2m_imp/boudica150\boudica150_oc.c **** #define cn_urc_qlwevtind           "\r\n+QLWEVTIND:"
  50:E:/LiteOS/LiteOS_Lab/iot_link/oc/oc_lwm2m/oc_lwm2m_imp/boudica150\boudica150_oc.c **** #define cn_boudica150_cachelen     128
  51:E:/LiteOS/LiteOS_Lab/iot_link/oc/oc_lwm2m/oc_lwm2m_imp/boudica150\boudica150_oc.c **** 
  52:E:/LiteOS/LiteOS_Lab/iot_link/oc/oc_lwm2m/oc_lwm2m_imp/boudica150\boudica150_oc.c **** typedef struct
  53:E:/LiteOS/LiteOS_Lab/iot_link/oc/oc_lwm2m/oc_lwm2m_imp/boudica150\boudica150_oc.c **** {
  54:E:/LiteOS/LiteOS_Lab/iot_link/oc/oc_lwm2m/oc_lwm2m_imp/boudica150\boudica150_oc.c ****     //initialize by the NB module init
  55:E:/LiteOS/LiteOS_Lab/iot_link/oc/oc_lwm2m/oc_lwm2m_imp/boudica150\boudica150_oc.c ****     const char *plmn;
  56:E:/LiteOS/LiteOS_Lab/iot_link/oc/oc_lwm2m/oc_lwm2m_imp/boudica150\boudica150_oc.c ****     const char *apn;
  57:E:/LiteOS/LiteOS_Lab/iot_link/oc/oc_lwm2m/oc_lwm2m_imp/boudica150\boudica150_oc.c ****     const char *bands;
  58:E:/LiteOS/LiteOS_Lab/iot_link/oc/oc_lwm2m/oc_lwm2m_imp/boudica150\boudica150_oc.c **** 
  59:E:/LiteOS/LiteOS_Lab/iot_link/oc/oc_lwm2m/oc_lwm2m_imp/boudica150\boudica150_oc.c ****     //initialized by the applicaiton
  60:E:/LiteOS/LiteOS_Lab/iot_link/oc/oc_lwm2m/oc_lwm2m_imp/boudica150\boudica150_oc.c ****     oc_config_param_t  oc_param;
  61:E:/LiteOS/LiteOS_Lab/iot_link/oc/oc_lwm2m/oc_lwm2m_imp/boudica150\boudica150_oc.c **** 
  62:E:/LiteOS/LiteOS_Lab/iot_link/oc/oc_lwm2m/oc_lwm2m_imp/boudica150\boudica150_oc.c ****     //this is the control block
  63:E:/LiteOS/LiteOS_Lab/iot_link/oc/oc_lwm2m/oc_lwm2m_imp/boudica150\boudica150_oc.c ****     bool_t            sndenable;
  64:E:/LiteOS/LiteOS_Lab/iot_link/oc/oc_lwm2m/oc_lwm2m_imp/boudica150\boudica150_oc.c ****     unsigned char     sndbuf[cn_boudica150_cachelen];  //used for the receive
  65:E:/LiteOS/LiteOS_Lab/iot_link/oc/oc_lwm2m/oc_lwm2m_imp/boudica150\boudica150_oc.c ****     unsigned char     rcvbuf[cn_boudica150_cachelen];
  66:E:/LiteOS/LiteOS_Lab/iot_link/oc/oc_lwm2m/oc_lwm2m_imp/boudica150\boudica150_oc.c ****     //for the debug
  67:E:/LiteOS/LiteOS_Lab/iot_link/oc/oc_lwm2m/oc_lwm2m_imp/boudica150\boudica150_oc.c ****     unsigned int   rcvlen;
  68:E:/LiteOS/LiteOS_Lab/iot_link/oc/oc_lwm2m/oc_lwm2m_imp/boudica150\boudica150_oc.c ****     unsigned int   sndlen;
  69:E:/LiteOS/LiteOS_Lab/iot_link/oc/oc_lwm2m/oc_lwm2m_imp/boudica150\boudica150_oc.c ****     //states for the lwm2m
  70:E:/LiteOS/LiteOS_Lab/iot_link/oc/oc_lwm2m/oc_lwm2m_imp/boudica150\boudica150_oc.c ****     bool_t         lwm2m_observe;
  71:E:/LiteOS/LiteOS_Lab/iot_link/oc/oc_lwm2m/oc_lwm2m_imp/boudica150\boudica150_oc.c **** 
  72:E:/LiteOS/LiteOS_Lab/iot_link/oc/oc_lwm2m/oc_lwm2m_imp/boudica150\boudica150_oc.c **** }boudica150_cb_t;
  73:E:/LiteOS/LiteOS_Lab/iot_link/oc/oc_lwm2m/oc_lwm2m_imp/boudica150\boudica150_oc.c **** static boudica150_cb_t   s_boudica150_oc_cb;
ARM GAS  C:\Users\user\AppData\Local\Temp\ccQ1o4Rh.s 			page 3


  74:E:/LiteOS/LiteOS_Lab/iot_link/oc/oc_lwm2m/oc_lwm2m_imp/boudica150\boudica150_oc.c **** int wireless_stats[4] = {0};
  75:E:/LiteOS/LiteOS_Lab/iot_link/oc/oc_lwm2m/oc_lwm2m_imp/boudica150\boudica150_oc.c **** 
  76:E:/LiteOS/LiteOS_Lab/iot_link/oc/oc_lwm2m/oc_lwm2m_imp/boudica150\boudica150_oc.c **** //bc95 common at command
  77:E:/LiteOS/LiteOS_Lab/iot_link/oc/oc_lwm2m/oc_lwm2m_imp/boudica150\boudica150_oc.c **** static bool_t boudica150_atcmd(const char *cmd,const char *index)
  78:E:/LiteOS/LiteOS_Lab/iot_link/oc/oc_lwm2m/oc_lwm2m_imp/boudica150\boudica150_oc.c **** {
  40              		.loc 1 78 0
  41              		.cfi_startproc
  42              		@ args = 0, pretend = 0, frame = 16
  43              		@ frame_needed = 1, uses_anonymous_args = 0
  44 0000 80B5     		push	{r7, lr}
  45              	.LCFI0:
  46              		.cfi_def_cfa_offset 8
  47              		.cfi_offset 7, -8
  48              		.cfi_offset 14, -4
  49 0002 86B0     		sub	sp, sp, #24
  50              	.LCFI1:
  51              		.cfi_def_cfa_offset 32
  52 0004 02AF     		add	r7, sp, #8
  53              	.LCFI2:
  54              		.cfi_def_cfa 7, 24
  55 0006 7860     		str	r0, [r7, #4]
  56 0008 3960     		str	r1, [r7]
  79:E:/LiteOS/LiteOS_Lab/iot_link/oc/oc_lwm2m/oc_lwm2m_imp/boudica150\boudica150_oc.c ****     int ret = 0;
  57              		.loc 1 79 0
  58 000a 0023     		movs	r3, #0
  59 000c FB60     		str	r3, [r7, #12]
  80:E:/LiteOS/LiteOS_Lab/iot_link/oc/oc_lwm2m/oc_lwm2m_imp/boudica150\boudica150_oc.c ****     ret = at_command((unsigned char *)cmd,strlen(cmd),index,NULL,0,cn_boudica150_cmd_timeout);
  60              		.loc 1 80 0
  61 000e 7868     		ldr	r0, [r7, #4]
  62 0010 FFF7FEFF 		bl	strlen
  63 0014 0346     		mov	r3, r0
  64 0016 1946     		mov	r1, r3
  65 0018 4FF4FA63 		mov	r3, #2000
  66 001c 0193     		str	r3, [sp, #4]
  67 001e 0023     		movs	r3, #0
  68 0020 0093     		str	r3, [sp]
  69 0022 0023     		movs	r3, #0
  70 0024 3A68     		ldr	r2, [r7]
  71 0026 7868     		ldr	r0, [r7, #4]
  72 0028 FFF7FEFF 		bl	at_command
  73 002c F860     		str	r0, [r7, #12]
  81:E:/LiteOS/LiteOS_Lab/iot_link/oc/oc_lwm2m/oc_lwm2m_imp/boudica150\boudica150_oc.c ****     if(ret > 0)
  74              		.loc 1 81 0
  75 002e FB68     		ldr	r3, [r7, #12]
  76 0030 002B     		cmp	r3, #0
  77 0032 01DD     		ble	.L2
  82:E:/LiteOS/LiteOS_Lab/iot_link/oc/oc_lwm2m/oc_lwm2m_imp/boudica150\boudica150_oc.c ****     {
  83:E:/LiteOS/LiteOS_Lab/iot_link/oc/oc_lwm2m/oc_lwm2m_imp/boudica150\boudica150_oc.c ****         return true;
  78              		.loc 1 83 0
  79 0034 0123     		movs	r3, #1
  80 0036 00E0     		b	.L3
  81              	.L2:
  84:E:/LiteOS/LiteOS_Lab/iot_link/oc/oc_lwm2m/oc_lwm2m_imp/boudica150\boudica150_oc.c ****     }
  85:E:/LiteOS/LiteOS_Lab/iot_link/oc/oc_lwm2m/oc_lwm2m_imp/boudica150\boudica150_oc.c ****     else
  86:E:/LiteOS/LiteOS_Lab/iot_link/oc/oc_lwm2m/oc_lwm2m_imp/boudica150\boudica150_oc.c ****     {
  87:E:/LiteOS/LiteOS_Lab/iot_link/oc/oc_lwm2m/oc_lwm2m_imp/boudica150\boudica150_oc.c ****         return false;
  82              		.loc 1 87 0
ARM GAS  C:\Users\user\AppData\Local\Temp\ccQ1o4Rh.s 			page 4


  83 0038 0023     		movs	r3, #0
  84              	.L3:
  88:E:/LiteOS/LiteOS_Lab/iot_link/oc/oc_lwm2m/oc_lwm2m_imp/boudica150\boudica150_oc.c ****     }
  89:E:/LiteOS/LiteOS_Lab/iot_link/oc/oc_lwm2m/oc_lwm2m_imp/boudica150\boudica150_oc.c **** }
  85              		.loc 1 89 0
  86 003a 1846     		mov	r0, r3
  87 003c 1037     		adds	r7, r7, #16
  88              	.LCFI3:
  89              		.cfi_def_cfa_offset 8
  90 003e BD46     		mov	sp, r7
  91              	.LCFI4:
  92              		.cfi_def_cfa_register 13
  93              		@ sp needed
  94 0040 80BD     		pop	{r7, pc}
  95              		.cfi_endproc
  96              	.LFE3:
  98              		.section	.text.boudica150_atcmd_response,"ax",%progbits
  99              		.align	1
 100              		.syntax unified
 101              		.thumb
 102              		.thumb_func
 103              		.fpu fpv4-sp-d16
 105              	boudica150_atcmd_response:
 106              	.LFB4:
  90:E:/LiteOS/LiteOS_Lab/iot_link/oc/oc_lwm2m/oc_lwm2m_imp/boudica150\boudica150_oc.c **** 
  91:E:/LiteOS/LiteOS_Lab/iot_link/oc/oc_lwm2m/oc_lwm2m_imp/boudica150\boudica150_oc.c **** //nb command  with response
  92:E:/LiteOS/LiteOS_Lab/iot_link/oc/oc_lwm2m/oc_lwm2m_imp/boudica150\boudica150_oc.c **** //bc95 common at command
  93:E:/LiteOS/LiteOS_Lab/iot_link/oc/oc_lwm2m/oc_lwm2m_imp/boudica150\boudica150_oc.c **** static bool_t boudica150_atcmd_response(const char *cmd,const char *index,char *buf, int len)
  94:E:/LiteOS/LiteOS_Lab/iot_link/oc/oc_lwm2m/oc_lwm2m_imp/boudica150\boudica150_oc.c **** {
 107              		.loc 1 94 0
 108              		.cfi_startproc
 109              		@ args = 0, pretend = 0, frame = 24
 110              		@ frame_needed = 1, uses_anonymous_args = 0
 111 0000 80B5     		push	{r7, lr}
 112              	.LCFI5:
 113              		.cfi_def_cfa_offset 8
 114              		.cfi_offset 7, -8
 115              		.cfi_offset 14, -4
 116 0002 88B0     		sub	sp, sp, #32
 117              	.LCFI6:
 118              		.cfi_def_cfa_offset 40
 119 0004 02AF     		add	r7, sp, #8
 120              	.LCFI7:
 121              		.cfi_def_cfa 7, 32
 122 0006 F860     		str	r0, [r7, #12]
 123 0008 B960     		str	r1, [r7, #8]
 124 000a 7A60     		str	r2, [r7, #4]
 125 000c 3B60     		str	r3, [r7]
  95:E:/LiteOS/LiteOS_Lab/iot_link/oc/oc_lwm2m/oc_lwm2m_imp/boudica150\boudica150_oc.c ****     int ret = 0;
 126              		.loc 1 95 0
 127 000e 0023     		movs	r3, #0
 128 0010 7B61     		str	r3, [r7, #20]
  96:E:/LiteOS/LiteOS_Lab/iot_link/oc/oc_lwm2m/oc_lwm2m_imp/boudica150\boudica150_oc.c ****     ret = at_command((unsigned char *)cmd,strlen(cmd),index,(unsigned char *)buf,len,cn_boudica150_
 129              		.loc 1 96 0
 130 0012 F868     		ldr	r0, [r7, #12]
 131 0014 FFF7FEFF 		bl	strlen
 132 0018 0346     		mov	r3, r0
ARM GAS  C:\Users\user\AppData\Local\Temp\ccQ1o4Rh.s 			page 5


 133 001a 1946     		mov	r1, r3
 134 001c 4FF4FA63 		mov	r3, #2000
 135 0020 0193     		str	r3, [sp, #4]
 136 0022 3B68     		ldr	r3, [r7]
 137 0024 0093     		str	r3, [sp]
 138 0026 7B68     		ldr	r3, [r7, #4]
 139 0028 BA68     		ldr	r2, [r7, #8]
 140 002a F868     		ldr	r0, [r7, #12]
 141 002c FFF7FEFF 		bl	at_command
 142 0030 7861     		str	r0, [r7, #20]
  97:E:/LiteOS/LiteOS_Lab/iot_link/oc/oc_lwm2m/oc_lwm2m_imp/boudica150\boudica150_oc.c ****     if(ret > 0)
 143              		.loc 1 97 0
 144 0032 7B69     		ldr	r3, [r7, #20]
 145 0034 002B     		cmp	r3, #0
 146 0036 01DD     		ble	.L5
  98:E:/LiteOS/LiteOS_Lab/iot_link/oc/oc_lwm2m/oc_lwm2m_imp/boudica150\boudica150_oc.c ****     {
  99:E:/LiteOS/LiteOS_Lab/iot_link/oc/oc_lwm2m/oc_lwm2m_imp/boudica150\boudica150_oc.c ****         return true;
 147              		.loc 1 99 0
 148 0038 0123     		movs	r3, #1
 149 003a 00E0     		b	.L6
 150              	.L5:
 100:E:/LiteOS/LiteOS_Lab/iot_link/oc/oc_lwm2m/oc_lwm2m_imp/boudica150\boudica150_oc.c ****     }
 101:E:/LiteOS/LiteOS_Lab/iot_link/oc/oc_lwm2m/oc_lwm2m_imp/boudica150\boudica150_oc.c ****     else
 102:E:/LiteOS/LiteOS_Lab/iot_link/oc/oc_lwm2m/oc_lwm2m_imp/boudica150\boudica150_oc.c ****     {
 103:E:/LiteOS/LiteOS_Lab/iot_link/oc/oc_lwm2m/oc_lwm2m_imp/boudica150\boudica150_oc.c ****         return false;
 151              		.loc 1 103 0
 152 003c 0023     		movs	r3, #0
 153              	.L6:
 104:E:/LiteOS/LiteOS_Lab/iot_link/oc/oc_lwm2m/oc_lwm2m_imp/boudica150\boudica150_oc.c ****     }
 105:E:/LiteOS/LiteOS_Lab/iot_link/oc/oc_lwm2m/oc_lwm2m_imp/boudica150\boudica150_oc.c **** }
 154              		.loc 1 105 0
 155 003e 1846     		mov	r0, r3
 156 0040 1837     		adds	r7, r7, #24
 157              	.LCFI8:
 158              		.cfi_def_cfa_offset 8
 159 0042 BD46     		mov	sp, r7
 160              	.LCFI9:
 161              		.cfi_def_cfa_register 13
 162              		@ sp needed
 163 0044 80BD     		pop	{r7, pc}
 164              		.cfi_endproc
 165              	.LFE4:
 167              		.section	.rodata
 168              		.align	2
 169              	.LC0:
 170 0000 25303258 		.ascii	"%02X\000"
 170      00
 171              		.section	.text.byte_to_hexstr,"ax",%progbits
 172              		.align	1
 173              		.syntax unified
 174              		.thumb
 175              		.thumb_func
 176              		.fpu fpv4-sp-d16
 178              	byte_to_hexstr:
 179              	.LFB5:
 106:E:/LiteOS/LiteOS_Lab/iot_link/oc/oc_lwm2m/oc_lwm2m_imp/boudica150\boudica150_oc.c **** 
 107:E:/LiteOS/LiteOS_Lab/iot_link/oc/oc_lwm2m/oc_lwm2m_imp/boudica150\boudica150_oc.c **** 
ARM GAS  C:\Users\user\AppData\Local\Temp\ccQ1o4Rh.s 			page 6


 108:E:/LiteOS/LiteOS_Lab/iot_link/oc/oc_lwm2m/oc_lwm2m_imp/boudica150\boudica150_oc.c **** 
 109:E:/LiteOS/LiteOS_Lab/iot_link/oc/oc_lwm2m/oc_lwm2m_imp/boudica150\boudica150_oc.c **** //make a byte to 2 ascii hex
 110:E:/LiteOS/LiteOS_Lab/iot_link/oc/oc_lwm2m/oc_lwm2m_imp/boudica150\boudica150_oc.c **** static int byte_to_hexstr(const unsigned char *bufin, int len, char *bufout)
 111:E:/LiteOS/LiteOS_Lab/iot_link/oc/oc_lwm2m/oc_lwm2m_imp/boudica150\boudica150_oc.c **** {
 180              		.loc 1 111 0
 181              		.cfi_startproc
 182              		@ args = 0, pretend = 0, frame = 24
 183              		@ frame_needed = 1, uses_anonymous_args = 0
 184 0000 80B5     		push	{r7, lr}
 185              	.LCFI10:
 186              		.cfi_def_cfa_offset 8
 187              		.cfi_offset 7, -8
 188              		.cfi_offset 14, -4
 189 0002 86B0     		sub	sp, sp, #24
 190              	.LCFI11:
 191              		.cfi_def_cfa_offset 32
 192 0004 00AF     		add	r7, sp, #0
 193              	.LCFI12:
 194              		.cfi_def_cfa_register 7
 195 0006 F860     		str	r0, [r7, #12]
 196 0008 B960     		str	r1, [r7, #8]
 197 000a 7A60     		str	r2, [r7, #4]
 112:E:/LiteOS/LiteOS_Lab/iot_link/oc/oc_lwm2m/oc_lwm2m_imp/boudica150\boudica150_oc.c ****     int i = 0;
 198              		.loc 1 112 0
 199 000c 0023     		movs	r3, #0
 200 000e 7B61     		str	r3, [r7, #20]
 113:E:/LiteOS/LiteOS_Lab/iot_link/oc/oc_lwm2m/oc_lwm2m_imp/boudica150\boudica150_oc.c ****     if (NULL == bufin || len <= 0 || NULL == bufout)
 201              		.loc 1 113 0
 202 0010 FB68     		ldr	r3, [r7, #12]
 203 0012 002B     		cmp	r3, #0
 204 0014 05D0     		beq	.L8
 205              		.loc 1 113 0 is_stmt 0 discriminator 1
 206 0016 BB68     		ldr	r3, [r7, #8]
 207 0018 002B     		cmp	r3, #0
 208 001a 02DD     		ble	.L8
 209              		.loc 1 113 0 discriminator 2
 210 001c 7B68     		ldr	r3, [r7, #4]
 211 001e 002B     		cmp	r3, #0
 212 0020 02D1     		bne	.L9
 213              	.L8:
 114:E:/LiteOS/LiteOS_Lab/iot_link/oc/oc_lwm2m/oc_lwm2m_imp/boudica150\boudica150_oc.c ****     {
 115:E:/LiteOS/LiteOS_Lab/iot_link/oc/oc_lwm2m/oc_lwm2m_imp/boudica150\boudica150_oc.c ****         return -1;
 214              		.loc 1 115 0 is_stmt 1
 215 0022 4FF0FF33 		mov	r3, #-1
 216 0026 17E0     		b	.L10
 217              	.L9:
 116:E:/LiteOS/LiteOS_Lab/iot_link/oc/oc_lwm2m/oc_lwm2m_imp/boudica150\boudica150_oc.c ****     }
 117:E:/LiteOS/LiteOS_Lab/iot_link/oc/oc_lwm2m/oc_lwm2m_imp/boudica150\boudica150_oc.c ****     for(i = 0; i < len; i++)
 218              		.loc 1 117 0
 219 0028 0023     		movs	r3, #0
 220 002a 7B61     		str	r3, [r7, #20]
 221 002c 0FE0     		b	.L11
 222              	.L12:
 118:E:/LiteOS/LiteOS_Lab/iot_link/oc/oc_lwm2m/oc_lwm2m_imp/boudica150\boudica150_oc.c ****     {
 119:E:/LiteOS/LiteOS_Lab/iot_link/oc/oc_lwm2m/oc_lwm2m_imp/boudica150\boudica150_oc.c ****         sprintf(bufout+i*2, "%02X", bufin[i]);
 223              		.loc 1 119 0 discriminator 3
 224 002e 7B69     		ldr	r3, [r7, #20]
ARM GAS  C:\Users\user\AppData\Local\Temp\ccQ1o4Rh.s 			page 7


 225 0030 5B00     		lsls	r3, r3, #1
 226 0032 1A46     		mov	r2, r3
 227 0034 7B68     		ldr	r3, [r7, #4]
 228 0036 9818     		adds	r0, r3, r2
 229 0038 7B69     		ldr	r3, [r7, #20]
 230 003a FA68     		ldr	r2, [r7, #12]
 231 003c 1344     		add	r3, r3, r2
 232 003e 1B78     		ldrb	r3, [r3]	@ zero_extendqisi2
 233 0040 1A46     		mov	r2, r3
 234 0042 0749     		ldr	r1, .L13
 235 0044 FFF7FEFF 		bl	sprintf
 117:E:/LiteOS/LiteOS_Lab/iot_link/oc/oc_lwm2m/oc_lwm2m_imp/boudica150\boudica150_oc.c ****     {
 236              		.loc 1 117 0 discriminator 3
 237 0048 7B69     		ldr	r3, [r7, #20]
 238 004a 0133     		adds	r3, r3, #1
 239 004c 7B61     		str	r3, [r7, #20]
 240              	.L11:
 117:E:/LiteOS/LiteOS_Lab/iot_link/oc/oc_lwm2m/oc_lwm2m_imp/boudica150\boudica150_oc.c ****     {
 241              		.loc 1 117 0 is_stmt 0 discriminator 1
 242 004e 7A69     		ldr	r2, [r7, #20]
 243 0050 BB68     		ldr	r3, [r7, #8]
 244 0052 9A42     		cmp	r2, r3
 245 0054 EBDB     		blt	.L12
 120:E:/LiteOS/LiteOS_Lab/iot_link/oc/oc_lwm2m/oc_lwm2m_imp/boudica150\boudica150_oc.c ****     }
 121:E:/LiteOS/LiteOS_Lab/iot_link/oc/oc_lwm2m/oc_lwm2m_imp/boudica150\boudica150_oc.c ****     return 0;
 246              		.loc 1 121 0 is_stmt 1
 247 0056 0023     		movs	r3, #0
 248              	.L10:
 122:E:/LiteOS/LiteOS_Lab/iot_link/oc/oc_lwm2m/oc_lwm2m_imp/boudica150\boudica150_oc.c **** }
 249              		.loc 1 122 0
 250 0058 1846     		mov	r0, r3
 251 005a 1837     		adds	r7, r7, #24
 252              	.LCFI13:
 253              		.cfi_def_cfa_offset 8
 254 005c BD46     		mov	sp, r7
 255              	.LCFI14:
 256              		.cfi_def_cfa_register 13
 257              		@ sp needed
 258 005e 80BD     		pop	{r7, pc}
 259              	.L14:
 260              		.align	2
 261              	.L13:
 262 0060 00000000 		.word	.LC0
 263              		.cfi_endproc
 264              	.LFE5:
 266              		.section	.rodata
 267 0005 000000   		.align	2
 268              	.LC1:
 269 0008 41542B4E 		.ascii	"AT+NMGS=\000"
 269      4D47533D 
 269      00
 270 0011 000000   		.align	2
 271              	.LC2:
 272 0014 4F4B00   		.ascii	"OK\000"
 273 0017 00       		.align	2
 274              	.LC3:
 275 0018 25732564 		.ascii	"%s%d,\000"
ARM GAS  C:\Users\user\AppData\Local\Temp\ccQ1o4Rh.s 			page 8


 275      2C00
 276              		.section	.text.boudica150_oc_report,"ax",%progbits
 277              		.align	1
 278              		.syntax unified
 279              		.thumb
 280              		.thumb_func
 281              		.fpu fpv4-sp-d16
 283              	boudica150_oc_report:
 284              	.LFB6:
 123:E:/LiteOS/LiteOS_Lab/iot_link/oc/oc_lwm2m/oc_lwm2m_imp/boudica150\boudica150_oc.c **** 
 124:E:/LiteOS/LiteOS_Lab/iot_link/oc/oc_lwm2m/oc_lwm2m_imp/boudica150\boudica150_oc.c **** 
 125:E:/LiteOS/LiteOS_Lab/iot_link/oc/oc_lwm2m/oc_lwm2m_imp/boudica150\boudica150_oc.c **** static int boudica150_oc_report(void *handle,unsigned char *buf,int len, int timeout)
 126:E:/LiteOS/LiteOS_Lab/iot_link/oc/oc_lwm2m/oc_lwm2m_imp/boudica150\boudica150_oc.c **** {
 285              		.loc 1 126 0
 286              		.cfi_startproc
 287              		@ args = 0, pretend = 0, frame = 32
 288              		@ frame_needed = 1, uses_anonymous_args = 0
 289 0000 80B5     		push	{r7, lr}
 290              	.LCFI15:
 291              		.cfi_def_cfa_offset 8
 292              		.cfi_offset 7, -8
 293              		.cfi_offset 14, -4
 294 0002 8AB0     		sub	sp, sp, #40
 295              	.LCFI16:
 296              		.cfi_def_cfa_offset 48
 297 0004 02AF     		add	r7, sp, #8
 298              	.LCFI17:
 299              		.cfi_def_cfa 7, 40
 300 0006 F860     		str	r0, [r7, #12]
 301 0008 B960     		str	r1, [r7, #8]
 302 000a 7A60     		str	r2, [r7, #4]
 303 000c 3B60     		str	r3, [r7]
 127:E:/LiteOS/LiteOS_Lab/iot_link/oc/oc_lwm2m/oc_lwm2m_imp/boudica150\boudica150_oc.c ****     int ret = -1;
 304              		.loc 1 127 0
 305 000e 4FF0FF33 		mov	r3, #-1
 306 0012 FB61     		str	r3, [r7, #28]
 128:E:/LiteOS/LiteOS_Lab/iot_link/oc/oc_lwm2m/oc_lwm2m_imp/boudica150\boudica150_oc.c ****     const char *cmd = "AT+NMGS=";
 307              		.loc 1 128 0
 308 0014 284B     		ldr	r3, .L21
 309 0016 BB61     		str	r3, [r7, #24]
 129:E:/LiteOS/LiteOS_Lab/iot_link/oc/oc_lwm2m/oc_lwm2m_imp/boudica150\boudica150_oc.c ****     const char *index = "OK";
 310              		.loc 1 129 0
 311 0018 284B     		ldr	r3, .L21+4
 312 001a 7B61     		str	r3, [r7, #20]
 130:E:/LiteOS/LiteOS_Lab/iot_link/oc/oc_lwm2m/oc_lwm2m_imp/boudica150\boudica150_oc.c ****     if ((NULL == buf) || (len >= cn_boudica150_cachelen/2 )||(false == s_boudica150_oc_cb.sndenable
 313              		.loc 1 130 0
 314 001c BB68     		ldr	r3, [r7, #8]
 315 001e 002B     		cmp	r3, #0
 316 0020 06D0     		beq	.L16
 317              		.loc 1 130 0 is_stmt 0 discriminator 1
 318 0022 7B68     		ldr	r3, [r7, #4]
 319 0024 3F2B     		cmp	r3, #63
 320 0026 03DC     		bgt	.L16
 321              		.loc 1 130 0 discriminator 2
 322 0028 254B     		ldr	r3, .L21+8
 323 002a 9B6C     		ldr	r3, [r3, #72]
 324 002c 002B     		cmp	r3, #0
ARM GAS  C:\Users\user\AppData\Local\Temp\ccQ1o4Rh.s 			page 9


 325 002e 01D1     		bne	.L17
 326              	.L16:
 131:E:/LiteOS/LiteOS_Lab/iot_link/oc/oc_lwm2m/oc_lwm2m_imp/boudica150\boudica150_oc.c ****     {
 132:E:/LiteOS/LiteOS_Lab/iot_link/oc/oc_lwm2m/oc_lwm2m_imp/boudica150\boudica150_oc.c ****         return ret;
 327              		.loc 1 132 0 is_stmt 1
 328 0030 FB69     		ldr	r3, [r7, #28]
 329 0032 3CE0     		b	.L18
 330              	.L17:
 133:E:/LiteOS/LiteOS_Lab/iot_link/oc/oc_lwm2m/oc_lwm2m_imp/boudica150\boudica150_oc.c ****     }
 134:E:/LiteOS/LiteOS_Lab/iot_link/oc/oc_lwm2m/oc_lwm2m_imp/boudica150\boudica150_oc.c ****     memset(s_boudica150_oc_cb.sndbuf, 0, cn_boudica150_cachelen);
 331              		.loc 1 134 0
 332 0034 8022     		movs	r2, #128
 333 0036 0021     		movs	r1, #0
 334 0038 2248     		ldr	r0, .L21+12
 335 003a FFF7FEFF 		bl	memset
 135:E:/LiteOS/LiteOS_Lab/iot_link/oc/oc_lwm2m/oc_lwm2m_imp/boudica150\boudica150_oc.c ****     snprintf((char *)s_boudica150_oc_cb.sndbuf,cn_boudica150_cachelen,"%s%d,",cmd,len);
 336              		.loc 1 135 0
 337 003e 7B68     		ldr	r3, [r7, #4]
 338 0040 0093     		str	r3, [sp]
 339 0042 BB69     		ldr	r3, [r7, #24]
 340 0044 204A     		ldr	r2, .L21+16
 341 0046 8021     		movs	r1, #128
 342 0048 1E48     		ldr	r0, .L21+12
 343 004a FFF7FEFF 		bl	snprintf
 136:E:/LiteOS/LiteOS_Lab/iot_link/oc/oc_lwm2m/oc_lwm2m_imp/boudica150\boudica150_oc.c ****     ret = byte_to_hexstr((unsigned char *)buf, len, (char *)&s_boudica150_oc_cb.sndbuf[strlen((char
 344              		.loc 1 136 0
 345 004e 1D48     		ldr	r0, .L21+12
 346 0050 FFF7FEFF 		bl	strlen
 347 0054 0346     		mov	r3, r0
 348 0056 4833     		adds	r3, r3, #72
 349 0058 194A     		ldr	r2, .L21+8
 350 005a 1344     		add	r3, r3, r2
 351 005c 0433     		adds	r3, r3, #4
 352 005e 1A46     		mov	r2, r3
 353 0060 7968     		ldr	r1, [r7, #4]
 354 0062 B868     		ldr	r0, [r7, #8]
 355 0064 FFF7FEFF 		bl	byte_to_hexstr
 356 0068 F861     		str	r0, [r7, #28]
 137:E:/LiteOS/LiteOS_Lab/iot_link/oc/oc_lwm2m/oc_lwm2m_imp/boudica150\boudica150_oc.c ****     s_boudica150_oc_cb.sndbuf[strlen((char *)s_boudica150_oc_cb.sndbuf)]='\r';
 357              		.loc 1 137 0
 358 006a 1648     		ldr	r0, .L21+12
 359 006c FFF7FEFF 		bl	strlen
 360 0070 0246     		mov	r2, r0
 361 0072 134B     		ldr	r3, .L21+8
 362 0074 1344     		add	r3, r3, r2
 363 0076 0D22     		movs	r2, #13
 364 0078 83F84C20 		strb	r2, [r3, #76]
 138:E:/LiteOS/LiteOS_Lab/iot_link/oc/oc_lwm2m/oc_lwm2m_imp/boudica150\boudica150_oc.c ****     ret = at_command((unsigned char *)s_boudica150_oc_cb.sndbuf,strlen((char *)s_boudica150_oc_cb.s
 365              		.loc 1 138 0
 366 007c 1148     		ldr	r0, .L21+12
 367 007e FFF7FEFF 		bl	strlen
 368 0082 0346     		mov	r3, r0
 369 0084 1946     		mov	r1, r3
 370 0086 3B68     		ldr	r3, [r7]
 371 0088 0193     		str	r3, [sp, #4]
 372 008a 0023     		movs	r3, #0
 373 008c 0093     		str	r3, [sp]
ARM GAS  C:\Users\user\AppData\Local\Temp\ccQ1o4Rh.s 			page 10


 374 008e 0023     		movs	r3, #0
 375 0090 7A69     		ldr	r2, [r7, #20]
 376 0092 0C48     		ldr	r0, .L21+12
 377 0094 FFF7FEFF 		bl	at_command
 378 0098 F861     		str	r0, [r7, #28]
 139:E:/LiteOS/LiteOS_Lab/iot_link/oc/oc_lwm2m/oc_lwm2m_imp/boudica150\boudica150_oc.c ****     if(ret > 0)
 379              		.loc 1 139 0
 380 009a FB69     		ldr	r3, [r7, #28]
 381 009c 002B     		cmp	r3, #0
 382 009e 02DD     		ble	.L19
 140:E:/LiteOS/LiteOS_Lab/iot_link/oc/oc_lwm2m/oc_lwm2m_imp/boudica150\boudica150_oc.c ****     {
 141:E:/LiteOS/LiteOS_Lab/iot_link/oc/oc_lwm2m/oc_lwm2m_imp/boudica150\boudica150_oc.c ****         ret = 0;
 383              		.loc 1 141 0
 384 00a0 0023     		movs	r3, #0
 385 00a2 FB61     		str	r3, [r7, #28]
 386 00a4 02E0     		b	.L20
 387              	.L19:
 142:E:/LiteOS/LiteOS_Lab/iot_link/oc/oc_lwm2m/oc_lwm2m_imp/boudica150\boudica150_oc.c ****     }
 143:E:/LiteOS/LiteOS_Lab/iot_link/oc/oc_lwm2m/oc_lwm2m_imp/boudica150\boudica150_oc.c ****     else
 144:E:/LiteOS/LiteOS_Lab/iot_link/oc/oc_lwm2m/oc_lwm2m_imp/boudica150\boudica150_oc.c ****     {
 145:E:/LiteOS/LiteOS_Lab/iot_link/oc/oc_lwm2m/oc_lwm2m_imp/boudica150\boudica150_oc.c ****         ret = -1;
 388              		.loc 1 145 0
 389 00a6 4FF0FF33 		mov	r3, #-1
 390 00aa FB61     		str	r3, [r7, #28]
 391              	.L20:
 146:E:/LiteOS/LiteOS_Lab/iot_link/oc/oc_lwm2m/oc_lwm2m_imp/boudica150\boudica150_oc.c ****     }
 147:E:/LiteOS/LiteOS_Lab/iot_link/oc/oc_lwm2m/oc_lwm2m_imp/boudica150\boudica150_oc.c **** 
 148:E:/LiteOS/LiteOS_Lab/iot_link/oc/oc_lwm2m/oc_lwm2m_imp/boudica150\boudica150_oc.c ****     return ret;
 392              		.loc 1 148 0
 393 00ac FB69     		ldr	r3, [r7, #28]
 394              	.L18:
 149:E:/LiteOS/LiteOS_Lab/iot_link/oc/oc_lwm2m/oc_lwm2m_imp/boudica150\boudica150_oc.c **** }
 395              		.loc 1 149 0
 396 00ae 1846     		mov	r0, r3
 397 00b0 2037     		adds	r7, r7, #32
 398              	.LCFI18:
 399              		.cfi_def_cfa_offset 8
 400 00b2 BD46     		mov	sp, r7
 401              	.LCFI19:
 402              		.cfi_def_cfa_register 13
 403              		@ sp needed
 404 00b4 80BD     		pop	{r7, pc}
 405              	.L22:
 406 00b6 00BF     		.align	2
 407              	.L21:
 408 00b8 08000000 		.word	.LC1
 409 00bc 14000000 		.word	.LC2
 410 00c0 00000000 		.word	s_boudica150_oc_cb
 411 00c4 4C000000 		.word	s_boudica150_oc_cb+76
 412 00c8 18000000 		.word	.LC3
 413              		.cfi_endproc
 414              	.LFE6:
 416              		.section	.text.hexstr_to_byte,"ax",%progbits
 417              		.align	1
 418              		.syntax unified
 419              		.thumb
 420              		.thumb_func
ARM GAS  C:\Users\user\AppData\Local\Temp\ccQ1o4Rh.s 			page 11


 421              		.fpu fpv4-sp-d16
 423              	hexstr_to_byte:
 424              	.LFB7:
 150:E:/LiteOS/LiteOS_Lab/iot_link/oc/oc_lwm2m/oc_lwm2m_imp/boudica150\boudica150_oc.c **** 
 151:E:/LiteOS/LiteOS_Lab/iot_link/oc/oc_lwm2m/oc_lwm2m_imp/boudica150\boudica150_oc.c **** 
 152:E:/LiteOS/LiteOS_Lab/iot_link/oc/oc_lwm2m/oc_lwm2m_imp/boudica150\boudica150_oc.c **** static int hexstr_to_byte(const char *bufin, int len, char *bufout)
 153:E:/LiteOS/LiteOS_Lab/iot_link/oc/oc_lwm2m/oc_lwm2m_imp/boudica150\boudica150_oc.c **** {
 425              		.loc 1 153 0
 426              		.cfi_startproc
 427              		@ args = 0, pretend = 0, frame = 32
 428              		@ frame_needed = 1, uses_anonymous_args = 0
 429              		@ link register save eliminated.
 430 0000 80B4     		push	{r7}
 431              	.LCFI20:
 432              		.cfi_def_cfa_offset 4
 433              		.cfi_offset 7, -4
 434 0002 89B0     		sub	sp, sp, #36
 435              	.LCFI21:
 436              		.cfi_def_cfa_offset 40
 437 0004 00AF     		add	r7, sp, #0
 438              	.LCFI22:
 439              		.cfi_def_cfa_register 7
 440 0006 F860     		str	r0, [r7, #12]
 441 0008 B960     		str	r1, [r7, #8]
 442 000a 7A60     		str	r2, [r7, #4]
 154:E:/LiteOS/LiteOS_Lab/iot_link/oc/oc_lwm2m/oc_lwm2m_imp/boudica150\boudica150_oc.c ****     int i = 0;
 443              		.loc 1 154 0
 444 000c 0023     		movs	r3, #0
 445 000e FB61     		str	r3, [r7, #28]
 155:E:/LiteOS/LiteOS_Lab/iot_link/oc/oc_lwm2m/oc_lwm2m_imp/boudica150\boudica150_oc.c ****     unsigned char tmp2 = 0x0;
 446              		.loc 1 155 0
 447 0010 0023     		movs	r3, #0
 448 0012 FB76     		strb	r3, [r7, #27]
 156:E:/LiteOS/LiteOS_Lab/iot_link/oc/oc_lwm2m/oc_lwm2m_imp/boudica150\boudica150_oc.c ****     unsigned int tmp = 0;
 449              		.loc 1 156 0
 450 0014 0023     		movs	r3, #0
 451 0016 7B61     		str	r3, [r7, #20]
 157:E:/LiteOS/LiteOS_Lab/iot_link/oc/oc_lwm2m/oc_lwm2m_imp/boudica150\boudica150_oc.c ****     if (NULL == bufin || len <= 0 || NULL == bufout)
 452              		.loc 1 157 0
 453 0018 FB68     		ldr	r3, [r7, #12]
 454 001a 002B     		cmp	r3, #0
 455 001c 05D0     		beq	.L24
 456              		.loc 1 157 0 is_stmt 0 discriminator 1
 457 001e BB68     		ldr	r3, [r7, #8]
 458 0020 002B     		cmp	r3, #0
 459 0022 02DD     		ble	.L24
 460              		.loc 1 157 0 discriminator 2
 461 0024 7B68     		ldr	r3, [r7, #4]
 462 0026 002B     		cmp	r3, #0
 463 0028 02D1     		bne	.L25
 464              	.L24:
 158:E:/LiteOS/LiteOS_Lab/iot_link/oc/oc_lwm2m/oc_lwm2m_imp/boudica150\boudica150_oc.c ****     {
 159:E:/LiteOS/LiteOS_Lab/iot_link/oc/oc_lwm2m/oc_lwm2m_imp/boudica150\boudica150_oc.c ****         return -1;
 465              		.loc 1 159 0 is_stmt 1
 466 002a 4FF0FF33 		mov	r3, #-1
 467 002e 3BE0     		b	.L26
 468              	.L25:
ARM GAS  C:\Users\user\AppData\Local\Temp\ccQ1o4Rh.s 			page 12


 160:E:/LiteOS/LiteOS_Lab/iot_link/oc/oc_lwm2m/oc_lwm2m_imp/boudica150\boudica150_oc.c ****     }
 161:E:/LiteOS/LiteOS_Lab/iot_link/oc/oc_lwm2m/oc_lwm2m_imp/boudica150\boudica150_oc.c ****     for(i = 0; i < len; i = i+2)
 469              		.loc 1 161 0
 470 0030 0023     		movs	r3, #0
 471 0032 FB61     		str	r3, [r7, #28]
 472 0034 33E0     		b	.L27
 473              	.L32:
 162:E:/LiteOS/LiteOS_Lab/iot_link/oc/oc_lwm2m/oc_lwm2m_imp/boudica150\boudica150_oc.c ****     {
 163:E:/LiteOS/LiteOS_Lab/iot_link/oc/oc_lwm2m/oc_lwm2m_imp/boudica150\boudica150_oc.c ****         tmp2 =  bufin[i];
 474              		.loc 1 163 0
 475 0036 FB69     		ldr	r3, [r7, #28]
 476 0038 FA68     		ldr	r2, [r7, #12]
 477 003a 1344     		add	r3, r3, r2
 478 003c 1B78     		ldrb	r3, [r3]
 479 003e FB76     		strb	r3, [r7, #27]
 164:E:/LiteOS/LiteOS_Lab/iot_link/oc/oc_lwm2m/oc_lwm2m_imp/boudica150\boudica150_oc.c ****         tmp2 =  tmp2 <= '9'?tmp2-0x30:tmp2-0x37;
 480              		.loc 1 164 0
 481 0040 FB7E     		ldrb	r3, [r7, #27]	@ zero_extendqisi2
 482 0042 392B     		cmp	r3, #57
 483 0044 03D8     		bhi	.L28
 484              		.loc 1 164 0 is_stmt 0 discriminator 1
 485 0046 FB7E     		ldrb	r3, [r7, #27]
 486 0048 303B     		subs	r3, r3, #48
 487 004a DBB2     		uxtb	r3, r3
 488 004c 02E0     		b	.L29
 489              	.L28:
 490              		.loc 1 164 0 discriminator 2
 491 004e FB7E     		ldrb	r3, [r7, #27]
 492 0050 373B     		subs	r3, r3, #55
 493 0052 DBB2     		uxtb	r3, r3
 494              	.L29:
 495              		.loc 1 164 0 discriminator 4
 496 0054 FB76     		strb	r3, [r7, #27]
 165:E:/LiteOS/LiteOS_Lab/iot_link/oc/oc_lwm2m/oc_lwm2m_imp/boudica150\boudica150_oc.c ****         tmp =  bufin[i+1];
 497              		.loc 1 165 0 is_stmt 1 discriminator 4
 498 0056 FB69     		ldr	r3, [r7, #28]
 499 0058 0133     		adds	r3, r3, #1
 500 005a FA68     		ldr	r2, [r7, #12]
 501 005c 1344     		add	r3, r3, r2
 502 005e 1B78     		ldrb	r3, [r3]	@ zero_extendqisi2
 503 0060 7B61     		str	r3, [r7, #20]
 166:E:/LiteOS/LiteOS_Lab/iot_link/oc/oc_lwm2m/oc_lwm2m_imp/boudica150\boudica150_oc.c ****         tmp =  tmp <= '9'?tmp-0x30:tmp-0x37;
 504              		.loc 1 166 0 discriminator 4
 505 0062 7B69     		ldr	r3, [r7, #20]
 506 0064 392B     		cmp	r3, #57
 507 0066 02D8     		bhi	.L30
 508              		.loc 1 166 0 is_stmt 0 discriminator 1
 509 0068 7B69     		ldr	r3, [r7, #20]
 510 006a 303B     		subs	r3, r3, #48
 511 006c 01E0     		b	.L31
 512              	.L30:
 513              		.loc 1 166 0 discriminator 2
 514 006e 7B69     		ldr	r3, [r7, #20]
 515 0070 373B     		subs	r3, r3, #55
 516              	.L31:
 517              		.loc 1 166 0 discriminator 4
 518 0072 7B61     		str	r3, [r7, #20]
ARM GAS  C:\Users\user\AppData\Local\Temp\ccQ1o4Rh.s 			page 13


 167:E:/LiteOS/LiteOS_Lab/iot_link/oc/oc_lwm2m/oc_lwm2m_imp/boudica150\boudica150_oc.c ****         bufout[i/2] =(tmp2<<4)|(tmp&0x0F);
 519              		.loc 1 167 0 is_stmt 1 discriminator 4
 520 0074 FB7E     		ldrb	r3, [r7, #27]
 521 0076 1B01     		lsls	r3, r3, #4
 522 0078 D9B2     		uxtb	r1, r3
 523 007a 7B69     		ldr	r3, [r7, #20]
 524 007c DBB2     		uxtb	r3, r3
 525 007e 03F00F03 		and	r3, r3, #15
 526 0082 DAB2     		uxtb	r2, r3
 527 0084 FB69     		ldr	r3, [r7, #28]
 528 0086 D80F     		lsrs	r0, r3, #31
 529 0088 0344     		add	r3, r3, r0
 530 008a 5B10     		asrs	r3, r3, #1
 531 008c 1846     		mov	r0, r3
 532 008e 7B68     		ldr	r3, [r7, #4]
 533 0090 0344     		add	r3, r3, r0
 534 0092 0A43     		orrs	r2, r2, r1
 535 0094 D2B2     		uxtb	r2, r2
 536 0096 1A70     		strb	r2, [r3]
 161:E:/LiteOS/LiteOS_Lab/iot_link/oc/oc_lwm2m/oc_lwm2m_imp/boudica150\boudica150_oc.c ****     {
 537              		.loc 1 161 0 discriminator 4
 538 0098 FB69     		ldr	r3, [r7, #28]
 539 009a 0233     		adds	r3, r3, #2
 540 009c FB61     		str	r3, [r7, #28]
 541              	.L27:
 161:E:/LiteOS/LiteOS_Lab/iot_link/oc/oc_lwm2m/oc_lwm2m_imp/boudica150\boudica150_oc.c ****     {
 542              		.loc 1 161 0 is_stmt 0 discriminator 2
 543 009e FA69     		ldr	r2, [r7, #28]
 544 00a0 BB68     		ldr	r3, [r7, #8]
 545 00a2 9A42     		cmp	r2, r3
 546 00a4 C7DB     		blt	.L32
 168:E:/LiteOS/LiteOS_Lab/iot_link/oc/oc_lwm2m/oc_lwm2m_imp/boudica150\boudica150_oc.c ****     }
 169:E:/LiteOS/LiteOS_Lab/iot_link/oc/oc_lwm2m/oc_lwm2m_imp/boudica150\boudica150_oc.c ****     return 0;
 547              		.loc 1 169 0 is_stmt 1
 548 00a6 0023     		movs	r3, #0
 549              	.L26:
 170:E:/LiteOS/LiteOS_Lab/iot_link/oc/oc_lwm2m/oc_lwm2m_imp/boudica150\boudica150_oc.c **** }
 550              		.loc 1 170 0
 551 00a8 1846     		mov	r0, r3
 552 00aa 2437     		adds	r7, r7, #36
 553              	.LCFI23:
 554              		.cfi_def_cfa_offset 4
 555 00ac BD46     		mov	sp, r7
 556              	.LCFI24:
 557              		.cfi_def_cfa_register 13
 558              		@ sp needed
 559 00ae 5DF8047B 		ldr	r7, [sp], #4
 560              	.LCFI25:
 561              		.cfi_restore 7
 562              		.cfi_def_cfa_offset 0
 563 00b2 7047     		bx	lr
 564              		.cfi_endproc
 565              	.LFE7:
 567              		.section	.rodata
 568 001e 0000     		.align	2
 569              	.LC4:
 570 0020 25733A69 		.ascii	"%s:invalid frame:%d byte:%s\012\015\000"
ARM GAS  C:\Users\user\AppData\Local\Temp\ccQ1o4Rh.s 			page 14


 570      6E76616C 
 570      69642066 
 570      72616D65 
 570      3A256420 
 571 003e 0000     		.align	2
 572              	.LC5:
 573 0040 25733A66 		.ascii	"%s:format error\012\015\000"
 573      6F726D61 
 573      74206572 
 573      726F720A 
 573      0D00
 574 0052 0000     		.align	2
 575              	.LC6:
 576 0054 25733A69 		.ascii	"%s:implement error\012\015\000"
 576      6D706C65 
 576      6D656E74 
 576      20657272 
 576      6F720A0D 
 577 0069 000000   		.align	2
 578              	.LC7:
 579 006c 25733A66 		.ascii	"%s:frame over: frame:%d  cachelen:%d \012\015\000"
 579      72616D65 
 579      206F7665 
 579      723A2066 
 579      72616D65 
 580              		.section	.text.boudica150_rcvdeal,"ax",%progbits
 581              		.align	1
 582              		.syntax unified
 583              		.thumb
 584              		.thumb_func
 585              		.fpu fpv4-sp-d16
 587              	boudica150_rcvdeal:
 588              	.LFB8:
 171:E:/LiteOS/LiteOS_Lab/iot_link/oc/oc_lwm2m/oc_lwm2m_imp/boudica150\boudica150_oc.c **** 
 172:E:/LiteOS/LiteOS_Lab/iot_link/oc/oc_lwm2m/oc_lwm2m_imp/boudica150\boudica150_oc.c **** static int boudica150_rcvdeal(unsigned char *data,int len)
 173:E:/LiteOS/LiteOS_Lab/iot_link/oc/oc_lwm2m/oc_lwm2m_imp/boudica150\boudica150_oc.c **** {
 589              		.loc 1 173 0
 590              		.cfi_startproc
 591              		@ args = 0, pretend = 0, frame = 24
 592              		@ frame_needed = 1, uses_anonymous_args = 0
 593 0000 80B5     		push	{r7, lr}
 594              	.LCFI26:
 595              		.cfi_def_cfa_offset 8
 596              		.cfi_offset 7, -8
 597              		.cfi_offset 14, -4
 598 0002 86B0     		sub	sp, sp, #24
 599              	.LCFI27:
 600              		.cfi_def_cfa_offset 32
 601 0004 00AF     		add	r7, sp, #0
 602              	.LCFI28:
 603              		.cfi_def_cfa_register 7
 604 0006 7860     		str	r0, [r7, #4]
 605 0008 3960     		str	r1, [r7]
 174:E:/LiteOS/LiteOS_Lab/iot_link/oc/oc_lwm2m/oc_lwm2m_imp/boudica150\boudica150_oc.c ****     int ret = 0;
 606              		.loc 1 174 0
 607 000a 0023     		movs	r3, #0
 608 000c FB60     		str	r3, [r7, #12]
ARM GAS  C:\Users\user\AppData\Local\Temp\ccQ1o4Rh.s 			page 15


 609              	.LBB2:
 175:E:/LiteOS/LiteOS_Lab/iot_link/oc/oc_lwm2m/oc_lwm2m_imp/boudica150\boudica150_oc.c ****     int datalen;
 176:E:/LiteOS/LiteOS_Lab/iot_link/oc/oc_lwm2m/oc_lwm2m_imp/boudica150\boudica150_oc.c **** 
 177:E:/LiteOS/LiteOS_Lab/iot_link/oc/oc_lwm2m/oc_lwm2m_imp/boudica150\boudica150_oc.c ****     char  *str;
 178:E:/LiteOS/LiteOS_Lab/iot_link/oc/oc_lwm2m/oc_lwm2m_imp/boudica150\boudica150_oc.c ****     if(len <strlen(cn_boudica150_rcvindex))
 610              		.loc 1 178 0
 611 000e 3B68     		ldr	r3, [r7]
 612 0010 072B     		cmp	r3, #7
 613 0012 07D8     		bhi	.L34
 179:E:/LiteOS/LiteOS_Lab/iot_link/oc/oc_lwm2m/oc_lwm2m_imp/boudica150\boudica150_oc.c ****     {
 180:E:/LiteOS/LiteOS_Lab/iot_link/oc/oc_lwm2m/oc_lwm2m_imp/boudica150\boudica150_oc.c ****         printf("%s:invalid frame:%d byte:%s\n\r",__FUNCTION__,len,(char *)data);
 614              		.loc 1 180 0
 615 0014 7B68     		ldr	r3, [r7, #4]
 616 0016 3A68     		ldr	r2, [r7]
 617 0018 3549     		ldr	r1, .L43
 618 001a 3648     		ldr	r0, .L43+4
 619 001c FFF7FEFF 		bl	printf
 181:E:/LiteOS/LiteOS_Lab/iot_link/oc/oc_lwm2m/oc_lwm2m_imp/boudica150\boudica150_oc.c ****         return ret;
 620              		.loc 1 181 0
 621 0020 FB68     		ldr	r3, [r7, #12]
 622 0022 60E0     		b	.L35
 623              	.L34:
 624              	.LBE2:
 182:E:/LiteOS/LiteOS_Lab/iot_link/oc/oc_lwm2m/oc_lwm2m_imp/boudica150\boudica150_oc.c ****     }
 183:E:/LiteOS/LiteOS_Lab/iot_link/oc/oc_lwm2m/oc_lwm2m_imp/boudica150\boudica150_oc.c ****     //now deal the data
 184:E:/LiteOS/LiteOS_Lab/iot_link/oc/oc_lwm2m/oc_lwm2m_imp/boudica150\boudica150_oc.c ****     str = strstr((char *)data,":");
 625              		.loc 1 184 0
 626 0024 3A21     		movs	r1, #58
 627 0026 7868     		ldr	r0, [r7, #4]
 628 0028 FFF7FEFF 		bl	strchr
 629 002c 3861     		str	r0, [r7, #16]
 185:E:/LiteOS/LiteOS_Lab/iot_link/oc/oc_lwm2m/oc_lwm2m_imp/boudica150\boudica150_oc.c ****     if(NULL == str)
 630              		.loc 1 185 0
 631 002e 3B69     		ldr	r3, [r7, #16]
 632 0030 002B     		cmp	r3, #0
 633 0032 05D1     		bne	.L36
 186:E:/LiteOS/LiteOS_Lab/iot_link/oc/oc_lwm2m/oc_lwm2m_imp/boudica150\boudica150_oc.c ****     {
 187:E:/LiteOS/LiteOS_Lab/iot_link/oc/oc_lwm2m/oc_lwm2m_imp/boudica150\boudica150_oc.c ****         printf("%s:format error\n\r",__FUNCTION__);
 634              		.loc 1 187 0
 635 0034 2E49     		ldr	r1, .L43
 636 0036 3048     		ldr	r0, .L43+8
 637 0038 FFF7FEFF 		bl	printf
 188:E:/LiteOS/LiteOS_Lab/iot_link/oc/oc_lwm2m/oc_lwm2m_imp/boudica150\boudica150_oc.c ****         return ret; //format error
 638              		.loc 1 188 0
 639 003c FB68     		ldr	r3, [r7, #12]
 640 003e 52E0     		b	.L35
 641              	.L36:
 189:E:/LiteOS/LiteOS_Lab/iot_link/oc/oc_lwm2m/oc_lwm2m_imp/boudica150\boudica150_oc.c ****     }
 190:E:/LiteOS/LiteOS_Lab/iot_link/oc/oc_lwm2m/oc_lwm2m_imp/boudica150\boudica150_oc.c ****     str++;
 642              		.loc 1 190 0
 643 0040 3B69     		ldr	r3, [r7, #16]
 644 0042 0133     		adds	r3, r3, #1
 645 0044 3B61     		str	r3, [r7, #16]
 191:E:/LiteOS/LiteOS_Lab/iot_link/oc/oc_lwm2m/oc_lwm2m_imp/boudica150\boudica150_oc.c ****     datalen = 0;
 646              		.loc 1 191 0
 647 0046 0023     		movs	r3, #0
 648 0048 7B61     		str	r3, [r7, #20]
ARM GAS  C:\Users\user\AppData\Local\Temp\ccQ1o4Rh.s 			page 16


 192:E:/LiteOS/LiteOS_Lab/iot_link/oc/oc_lwm2m/oc_lwm2m_imp/boudica150\boudica150_oc.c ****     for (; *str <= '9' && *str >= '0' ;str++)
 649              		.loc 1 192 0
 650 004a 0DE0     		b	.L37
 651              	.L39:
 193:E:/LiteOS/LiteOS_Lab/iot_link/oc/oc_lwm2m/oc_lwm2m_imp/boudica150\boudica150_oc.c ****     {
 194:E:/LiteOS/LiteOS_Lab/iot_link/oc/oc_lwm2m/oc_lwm2m_imp/boudica150\boudica150_oc.c ****         datalen = (datalen * 10 + (*str - '0'));
 652              		.loc 1 194 0 discriminator 3
 653 004c 7A69     		ldr	r2, [r7, #20]
 654 004e 1346     		mov	r3, r2
 655 0050 9B00     		lsls	r3, r3, #2
 656 0052 1344     		add	r3, r3, r2
 657 0054 5B00     		lsls	r3, r3, #1
 658 0056 1A46     		mov	r2, r3
 659 0058 3B69     		ldr	r3, [r7, #16]
 660 005a 1B78     		ldrb	r3, [r3]	@ zero_extendqisi2
 661 005c 303B     		subs	r3, r3, #48
 662 005e 1344     		add	r3, r3, r2
 663 0060 7B61     		str	r3, [r7, #20]
 192:E:/LiteOS/LiteOS_Lab/iot_link/oc/oc_lwm2m/oc_lwm2m_imp/boudica150\boudica150_oc.c ****     for (; *str <= '9' && *str >= '0' ;str++)
 664              		.loc 1 192 0 discriminator 3
 665 0062 3B69     		ldr	r3, [r7, #16]
 666 0064 0133     		adds	r3, r3, #1
 667 0066 3B61     		str	r3, [r7, #16]
 668              	.L37:
 192:E:/LiteOS/LiteOS_Lab/iot_link/oc/oc_lwm2m/oc_lwm2m_imp/boudica150\boudica150_oc.c ****     for (; *str <= '9' && *str >= '0' ;str++)
 669              		.loc 1 192 0 is_stmt 0 discriminator 1
 670 0068 3B69     		ldr	r3, [r7, #16]
 671 006a 1B78     		ldrb	r3, [r3]	@ zero_extendqisi2
 672 006c 392B     		cmp	r3, #57
 673 006e 03D8     		bhi	.L38
 192:E:/LiteOS/LiteOS_Lab/iot_link/oc/oc_lwm2m/oc_lwm2m_imp/boudica150\boudica150_oc.c ****     for (; *str <= '9' && *str >= '0' ;str++)
 674              		.loc 1 192 0 discriminator 2
 675 0070 3B69     		ldr	r3, [r7, #16]
 676 0072 1B78     		ldrb	r3, [r3]	@ zero_extendqisi2
 677 0074 2F2B     		cmp	r3, #47
 678 0076 E9D8     		bhi	.L39
 679              	.L38:
 195:E:/LiteOS/LiteOS_Lab/iot_link/oc/oc_lwm2m/oc_lwm2m_imp/boudica150\boudica150_oc.c ****     }
 196:E:/LiteOS/LiteOS_Lab/iot_link/oc/oc_lwm2m/oc_lwm2m_imp/boudica150\boudica150_oc.c ****     str++;
 680              		.loc 1 196 0 is_stmt 1
 681 0078 3B69     		ldr	r3, [r7, #16]
 682 007a 0133     		adds	r3, r3, #1
 683 007c 3B61     		str	r3, [r7, #16]
 197:E:/LiteOS/LiteOS_Lab/iot_link/oc/oc_lwm2m/oc_lwm2m_imp/boudica150\boudica150_oc.c ****     //now this is data of hex string
 198:E:/LiteOS/LiteOS_Lab/iot_link/oc/oc_lwm2m/oc_lwm2m_imp/boudica150\boudica150_oc.c ****     if((unsigned int)(str + datalen*2 +2) > (unsigned int)(data + len))
 684              		.loc 1 198 0
 685 007e 7B69     		ldr	r3, [r7, #20]
 686 0080 5B00     		lsls	r3, r3, #1
 687 0082 0233     		adds	r3, r3, #2
 688 0084 3A69     		ldr	r2, [r7, #16]
 689 0086 1344     		add	r3, r3, r2
 690 0088 1946     		mov	r1, r3
 691 008a 3B68     		ldr	r3, [r7]
 692 008c 7A68     		ldr	r2, [r7, #4]
 693 008e 1344     		add	r3, r3, r2
 694 0090 9942     		cmp	r1, r3
 695 0092 05D9     		bls	.L40
ARM GAS  C:\Users\user\AppData\Local\Temp\ccQ1o4Rh.s 			page 17


 199:E:/LiteOS/LiteOS_Lab/iot_link/oc/oc_lwm2m/oc_lwm2m_imp/boudica150\boudica150_oc.c ****     {
 200:E:/LiteOS/LiteOS_Lab/iot_link/oc/oc_lwm2m/oc_lwm2m_imp/boudica150\boudica150_oc.c ****         printf("%s:implement error\n\r",__FUNCTION__);
 696              		.loc 1 200 0
 697 0094 1649     		ldr	r1, .L43
 698 0096 1948     		ldr	r0, .L43+12
 699 0098 FFF7FEFF 		bl	printf
 201:E:/LiteOS/LiteOS_Lab/iot_link/oc/oc_lwm2m/oc_lwm2m_imp/boudica150\boudica150_oc.c ****         return ret; //
 700              		.loc 1 201 0
 701 009c FB68     		ldr	r3, [r7, #12]
 702 009e 22E0     		b	.L35
 703              	.L40:
 202:E:/LiteOS/LiteOS_Lab/iot_link/oc/oc_lwm2m/oc_lwm2m_imp/boudica150\boudica150_oc.c ****     }
 203:E:/LiteOS/LiteOS_Lab/iot_link/oc/oc_lwm2m/oc_lwm2m_imp/boudica150\boudica150_oc.c ****     if(datalen > cn_boudica150_cachelen)
 704              		.loc 1 203 0
 705 00a0 7B69     		ldr	r3, [r7, #20]
 706 00a2 802B     		cmp	r3, #128
 707 00a4 07DD     		ble	.L41
 204:E:/LiteOS/LiteOS_Lab/iot_link/oc/oc_lwm2m/oc_lwm2m_imp/boudica150\boudica150_oc.c ****     {
 205:E:/LiteOS/LiteOS_Lab/iot_link/oc/oc_lwm2m/oc_lwm2m_imp/boudica150\boudica150_oc.c ****         printf("%s:frame over: frame:%d  cachelen:%d \n\r",__FUNCTION__,datalen,cn_boudica150_cache
 708              		.loc 1 205 0
 709 00a6 8023     		movs	r3, #128
 710 00a8 7A69     		ldr	r2, [r7, #20]
 711 00aa 1149     		ldr	r1, .L43
 712 00ac 1448     		ldr	r0, .L43+16
 713 00ae FFF7FEFF 		bl	printf
 206:E:/LiteOS/LiteOS_Lab/iot_link/oc/oc_lwm2m/oc_lwm2m_imp/boudica150\boudica150_oc.c ****         return ret; //
 714              		.loc 1 206 0
 715 00b2 FB68     		ldr	r3, [r7, #12]
 716 00b4 17E0     		b	.L35
 717              	.L41:
 207:E:/LiteOS/LiteOS_Lab/iot_link/oc/oc_lwm2m/oc_lwm2m_imp/boudica150\boudica150_oc.c ****     }
 208:E:/LiteOS/LiteOS_Lab/iot_link/oc/oc_lwm2m/oc_lwm2m_imp/boudica150\boudica150_oc.c ****     memset(s_boudica150_oc_cb.rcvbuf,0,cn_boudica150_cachelen);
 718              		.loc 1 208 0
 719 00b6 8022     		movs	r2, #128
 720 00b8 0021     		movs	r1, #0
 721 00ba 1248     		ldr	r0, .L43+20
 722 00bc FFF7FEFF 		bl	memset
 209:E:/LiteOS/LiteOS_Lab/iot_link/oc/oc_lwm2m/oc_lwm2m_imp/boudica150\boudica150_oc.c ****     hexstr_to_byte(str,datalen*2,(char *)s_boudica150_oc_cb.rcvbuf);
 723              		.loc 1 209 0
 724 00c0 7B69     		ldr	r3, [r7, #20]
 725 00c2 5B00     		lsls	r3, r3, #1
 726 00c4 0F4A     		ldr	r2, .L43+20
 727 00c6 1946     		mov	r1, r3
 728 00c8 3869     		ldr	r0, [r7, #16]
 729 00ca FFF7FEFF 		bl	hexstr_to_byte
 210:E:/LiteOS/LiteOS_Lab/iot_link/oc/oc_lwm2m/oc_lwm2m_imp/boudica150\boudica150_oc.c **** 
 211:E:/LiteOS/LiteOS_Lab/iot_link/oc/oc_lwm2m/oc_lwm2m_imp/boudica150\boudica150_oc.c ****     if(NULL != s_boudica150_oc_cb.oc_param.rcv_func)
 730              		.loc 1 211 0
 731 00ce 0E4B     		ldr	r3, .L43+24
 732 00d0 1B6C     		ldr	r3, [r3, #64]
 733 00d2 002B     		cmp	r3, #0
 734 00d4 06D0     		beq	.L42
 212:E:/LiteOS/LiteOS_Lab/iot_link/oc/oc_lwm2m/oc_lwm2m_imp/boudica150\boudica150_oc.c ****     {
 213:E:/LiteOS/LiteOS_Lab/iot_link/oc/oc_lwm2m/oc_lwm2m_imp/boudica150\boudica150_oc.c ****         s_boudica150_oc_cb.oc_param.rcv_func(s_boudica150_oc_cb.oc_param.usr_data,\
 735              		.loc 1 213 0
 736 00d6 0C4B     		ldr	r3, .L43+24
 737 00d8 1B6C     		ldr	r3, [r3, #64]
ARM GAS  C:\Users\user\AppData\Local\Temp\ccQ1o4Rh.s 			page 18


 738 00da 0B4A     		ldr	r2, .L43+24
 739 00dc 506C     		ldr	r0, [r2, #68]
 740 00de 7A69     		ldr	r2, [r7, #20]
 741 00e0 0849     		ldr	r1, .L43+20
 742 00e2 9847     		blx	r3
 743              	.LVL0:
 744              	.L42:
 214:E:/LiteOS/LiteOS_Lab/iot_link/oc/oc_lwm2m/oc_lwm2m_imp/boudica150\boudica150_oc.c ****                                              s_boudica150_oc_cb.rcvbuf,datalen);
 215:E:/LiteOS/LiteOS_Lab/iot_link/oc/oc_lwm2m/oc_lwm2m_imp/boudica150\boudica150_oc.c ****     }
 216:E:/LiteOS/LiteOS_Lab/iot_link/oc/oc_lwm2m/oc_lwm2m_imp/boudica150\boudica150_oc.c **** 
 217:E:/LiteOS/LiteOS_Lab/iot_link/oc/oc_lwm2m/oc_lwm2m_imp/boudica150\boudica150_oc.c ****     return len;
 745              		.loc 1 217 0
 746 00e4 3B68     		ldr	r3, [r7]
 747              	.L35:
 218:E:/LiteOS/LiteOS_Lab/iot_link/oc/oc_lwm2m/oc_lwm2m_imp/boudica150\boudica150_oc.c **** }
 748              		.loc 1 218 0
 749 00e6 1846     		mov	r0, r3
 750 00e8 1837     		adds	r7, r7, #24
 751              	.LCFI29:
 752              		.cfi_def_cfa_offset 8
 753 00ea BD46     		mov	sp, r7
 754              	.LCFI30:
 755              		.cfi_def_cfa_register 13
 756              		@ sp needed
 757 00ec 80BD     		pop	{r7, pc}
 758              	.L44:
 759 00ee 00BF     		.align	2
 760              	.L43:
 761 00f0 00000000 		.word	__FUNCTION__.6692
 762 00f4 20000000 		.word	.LC4
 763 00f8 40000000 		.word	.LC5
 764 00fc 54000000 		.word	.LC6
 765 0100 6C000000 		.word	.LC7
 766 0104 CC000000 		.word	s_boudica150_oc_cb+204
 767 0108 00000000 		.word	s_boudica150_oc_cb
 768              		.cfi_endproc
 769              	.LFE8:
 771              		.section	.rodata
 772              		.align	2
 773              	.LC8:
 774 0094 41544525 		.ascii	"ATE%d\015\000"
 774      640D00
 775              		.section	.text.boudica150_set_echo,"ax",%progbits
 776              		.align	1
 777              		.syntax unified
 778              		.thumb
 779              		.thumb_func
 780              		.fpu fpv4-sp-d16
 782              	boudica150_set_echo:
 783              	.LFB9:
 219:E:/LiteOS/LiteOS_Lab/iot_link/oc/oc_lwm2m/oc_lwm2m_imp/boudica150\boudica150_oc.c **** 
 220:E:/LiteOS/LiteOS_Lab/iot_link/oc/oc_lwm2m/oc_lwm2m_imp/boudica150\boudica150_oc.c **** //enable the echooff
 221:E:/LiteOS/LiteOS_Lab/iot_link/oc/oc_lwm2m/oc_lwm2m_imp/boudica150\boudica150_oc.c **** static bool_t boudica150_set_echo(int enable)
 222:E:/LiteOS/LiteOS_Lab/iot_link/oc/oc_lwm2m/oc_lwm2m_imp/boudica150\boudica150_oc.c **** {
 784              		.loc 1 222 0
 785              		.cfi_startproc
 786              		@ args = 0, pretend = 0, frame = 80
ARM GAS  C:\Users\user\AppData\Local\Temp\ccQ1o4Rh.s 			page 19


 787              		@ frame_needed = 1, uses_anonymous_args = 0
 788 0000 80B5     		push	{r7, lr}
 789              	.LCFI31:
 790              		.cfi_def_cfa_offset 8
 791              		.cfi_offset 7, -8
 792              		.cfi_offset 14, -4
 793 0002 94B0     		sub	sp, sp, #80
 794              	.LCFI32:
 795              		.cfi_def_cfa_offset 88
 796 0004 00AF     		add	r7, sp, #0
 797              	.LCFI33:
 798              		.cfi_def_cfa_register 7
 799 0006 7860     		str	r0, [r7, #4]
 223:E:/LiteOS/LiteOS_Lab/iot_link/oc/oc_lwm2m/oc_lwm2m_imp/boudica150\boudica150_oc.c ****     bool_t ret ;
 224:E:/LiteOS/LiteOS_Lab/iot_link/oc/oc_lwm2m/oc_lwm2m_imp/boudica150\boudica150_oc.c ****     char cmd[64];
 225:E:/LiteOS/LiteOS_Lab/iot_link/oc/oc_lwm2m/oc_lwm2m_imp/boudica150\boudica150_oc.c ****     memset(cmd,0,64);
 800              		.loc 1 225 0
 801 0008 07F10C03 		add	r3, r7, #12
 802 000c 4022     		movs	r2, #64
 803 000e 0021     		movs	r1, #0
 804 0010 1846     		mov	r0, r3
 805 0012 FFF7FEFF 		bl	memset
 226:E:/LiteOS/LiteOS_Lab/iot_link/oc/oc_lwm2m/oc_lwm2m_imp/boudica150\boudica150_oc.c ****     snprintf(cmd,64,"ATE%d\r",enable);
 806              		.loc 1 226 0
 807 0016 07F10C00 		add	r0, r7, #12
 808 001a 7B68     		ldr	r3, [r7, #4]
 809 001c 074A     		ldr	r2, .L47
 810 001e 4021     		movs	r1, #64
 811 0020 FFF7FEFF 		bl	snprintf
 227:E:/LiteOS/LiteOS_Lab/iot_link/oc/oc_lwm2m/oc_lwm2m_imp/boudica150\boudica150_oc.c **** 
 228:E:/LiteOS/LiteOS_Lab/iot_link/oc/oc_lwm2m/oc_lwm2m_imp/boudica150\boudica150_oc.c ****     ret = boudica150_atcmd(cmd,"OK");
 812              		.loc 1 228 0
 813 0024 07F10C03 		add	r3, r7, #12
 814 0028 0549     		ldr	r1, .L47+4
 815 002a 1846     		mov	r0, r3
 816 002c FFF7FEFF 		bl	boudica150_atcmd
 817 0030 F864     		str	r0, [r7, #76]
 229:E:/LiteOS/LiteOS_Lab/iot_link/oc/oc_lwm2m/oc_lwm2m_imp/boudica150\boudica150_oc.c **** 
 230:E:/LiteOS/LiteOS_Lab/iot_link/oc/oc_lwm2m/oc_lwm2m_imp/boudica150\boudica150_oc.c ****     return ret;
 818              		.loc 1 230 0
 819 0032 FB6C     		ldr	r3, [r7, #76]
 231:E:/LiteOS/LiteOS_Lab/iot_link/oc/oc_lwm2m/oc_lwm2m_imp/boudica150\boudica150_oc.c **** }
 820              		.loc 1 231 0
 821 0034 1846     		mov	r0, r3
 822 0036 5037     		adds	r7, r7, #80
 823              	.LCFI34:
 824              		.cfi_def_cfa_offset 8
 825 0038 BD46     		mov	sp, r7
 826              	.LCFI35:
 827              		.cfi_def_cfa_register 13
 828              		@ sp needed
 829 003a 80BD     		pop	{r7, pc}
 830              	.L48:
 831              		.align	2
 832              	.L47:
 833 003c 94000000 		.word	.LC8
 834 0040 14000000 		.word	.LC2
ARM GAS  C:\Users\user\AppData\Local\Temp\ccQ1o4Rh.s 			page 20


 835              		.cfi_endproc
 836              	.LFE9:
 838              		.section	.rodata
 839 009b 00       		.align	2
 840              	.LC9:
 841 009c 5245424F 		.ascii	"REBOOTING\000"
 841      4F54494E 
 841      4700
 842 00a6 0000     		.align	2
 843              	.LC10:
 844 00a8 41542B4E 		.ascii	"AT+NRB\015\000"
 844      52420D00 
 845              		.section	.text.boudica150_reboot,"ax",%progbits
 846              		.align	1
 847              		.syntax unified
 848              		.thumb
 849              		.thumb_func
 850              		.fpu fpv4-sp-d16
 852              	boudica150_reboot:
 853              	.LFB10:
 232:E:/LiteOS/LiteOS_Lab/iot_link/oc/oc_lwm2m/oc_lwm2m_imp/boudica150\boudica150_oc.c **** 
 233:E:/LiteOS/LiteOS_Lab/iot_link/oc/oc_lwm2m/oc_lwm2m_imp/boudica150\boudica150_oc.c **** //use this function to do the module reboot
 234:E:/LiteOS/LiteOS_Lab/iot_link/oc/oc_lwm2m/oc_lwm2m_imp/boudica150\boudica150_oc.c **** static bool_t boudica150_reboot(void)
 235:E:/LiteOS/LiteOS_Lab/iot_link/oc/oc_lwm2m/oc_lwm2m_imp/boudica150\boudica150_oc.c **** {
 854              		.loc 1 235 0
 855              		.cfi_startproc
 856              		@ args = 0, pretend = 0, frame = 0
 857              		@ frame_needed = 1, uses_anonymous_args = 0
 858 0000 80B5     		push	{r7, lr}
 859              	.LCFI36:
 860              		.cfi_def_cfa_offset 8
 861              		.cfi_offset 7, -8
 862              		.cfi_offset 14, -4
 863 0002 00AF     		add	r7, sp, #0
 864              	.LCFI37:
 865              		.cfi_def_cfa_register 7
 236:E:/LiteOS/LiteOS_Lab/iot_link/oc/oc_lwm2m/oc_lwm2m_imp/boudica150\boudica150_oc.c ****     //do the module reset
 237:E:/LiteOS/LiteOS_Lab/iot_link/oc/oc_lwm2m/oc_lwm2m_imp/boudica150\boudica150_oc.c ****     boudica150_set_echo (0);
 866              		.loc 1 237 0
 867 0004 0020     		movs	r0, #0
 868 0006 FFF7FEFF 		bl	boudica150_set_echo
 238:E:/LiteOS/LiteOS_Lab/iot_link/oc/oc_lwm2m/oc_lwm2m_imp/boudica150\boudica150_oc.c ****     boudica150_set_echo (0);
 869              		.loc 1 238 0
 870 000a 0020     		movs	r0, #0
 871 000c FFF7FEFF 		bl	boudica150_set_echo
 239:E:/LiteOS/LiteOS_Lab/iot_link/oc/oc_lwm2m/oc_lwm2m_imp/boudica150\boudica150_oc.c **** 
 240:E:/LiteOS/LiteOS_Lab/iot_link/oc/oc_lwm2m/oc_lwm2m_imp/boudica150\boudica150_oc.c ****     boudica150_atcmd("AT+NRB\r","REBOOTING");
 872              		.loc 1 240 0
 873 0010 0849     		ldr	r1, .L51
 874 0012 0948     		ldr	r0, .L51+4
 875 0014 FFF7FEFF 		bl	boudica150_atcmd
 241:E:/LiteOS/LiteOS_Lab/iot_link/oc/oc_lwm2m/oc_lwm2m_imp/boudica150\boudica150_oc.c ****     osal_task_sleep(10000); //wait for the module boot
 876              		.loc 1 241 0
 877 0018 42F21070 		movw	r0, #10000
 878 001c FFF7FEFF 		bl	osal_task_sleep
 242:E:/LiteOS/LiteOS_Lab/iot_link/oc/oc_lwm2m/oc_lwm2m_imp/boudica150\boudica150_oc.c ****     //do the module reset
 243:E:/LiteOS/LiteOS_Lab/iot_link/oc/oc_lwm2m/oc_lwm2m_imp/boudica150\boudica150_oc.c ****     boudica150_set_echo (0);
ARM GAS  C:\Users\user\AppData\Local\Temp\ccQ1o4Rh.s 			page 21


 879              		.loc 1 243 0
 880 0020 0020     		movs	r0, #0
 881 0022 FFF7FEFF 		bl	boudica150_set_echo
 244:E:/LiteOS/LiteOS_Lab/iot_link/oc/oc_lwm2m/oc_lwm2m_imp/boudica150\boudica150_oc.c ****     boudica150_set_echo (0);
 882              		.loc 1 244 0
 883 0026 0020     		movs	r0, #0
 884 0028 FFF7FEFF 		bl	boudica150_set_echo
 245:E:/LiteOS/LiteOS_Lab/iot_link/oc/oc_lwm2m/oc_lwm2m_imp/boudica150\boudica150_oc.c **** 
 246:E:/LiteOS/LiteOS_Lab/iot_link/oc/oc_lwm2m/oc_lwm2m_imp/boudica150\boudica150_oc.c ****     return true;
 885              		.loc 1 246 0
 886 002c 0123     		movs	r3, #1
 247:E:/LiteOS/LiteOS_Lab/iot_link/oc/oc_lwm2m/oc_lwm2m_imp/boudica150\boudica150_oc.c **** }
 887              		.loc 1 247 0
 888 002e 1846     		mov	r0, r3
 889 0030 80BD     		pop	{r7, pc}
 890              	.L52:
 891 0032 00BF     		.align	2
 892              	.L51:
 893 0034 9C000000 		.word	.LC9
 894 0038 A8000000 		.word	.LC10
 895              		.cfi_endproc
 896              	.LFE10:
 898              		.section	.rodata
 899              		.align	2
 900              	.LC11:
 901 00b0 41542B43 		.ascii	"AT+CFUN=%d\015\000"
 901      46554E3D 
 901      25640D00 
 902              		.section	.text.boudica150_set_fun,"ax",%progbits
 903              		.align	1
 904              		.syntax unified
 905              		.thumb
 906              		.thumb_func
 907              		.fpu fpv4-sp-d16
 909              	boudica150_set_fun:
 910              	.LFB11:
 248:E:/LiteOS/LiteOS_Lab/iot_link/oc/oc_lwm2m/oc_lwm2m_imp/boudica150\boudica150_oc.c **** 
 249:E:/LiteOS/LiteOS_Lab/iot_link/oc/oc_lwm2m/oc_lwm2m_imp/boudica150\boudica150_oc.c **** //enable the cfun
 250:E:/LiteOS/LiteOS_Lab/iot_link/oc/oc_lwm2m/oc_lwm2m_imp/boudica150\boudica150_oc.c **** static bool_t boudica150_set_fun(int enable)  //unit second
 251:E:/LiteOS/LiteOS_Lab/iot_link/oc/oc_lwm2m/oc_lwm2m_imp/boudica150\boudica150_oc.c **** {
 911              		.loc 1 251 0
 912              		.cfi_startproc
 913              		@ args = 0, pretend = 0, frame = 80
 914              		@ frame_needed = 1, uses_anonymous_args = 0
 915 0000 80B5     		push	{r7, lr}
 916              	.LCFI38:
 917              		.cfi_def_cfa_offset 8
 918              		.cfi_offset 7, -8
 919              		.cfi_offset 14, -4
 920 0002 94B0     		sub	sp, sp, #80
 921              	.LCFI39:
 922              		.cfi_def_cfa_offset 88
 923 0004 00AF     		add	r7, sp, #0
 924              	.LCFI40:
 925              		.cfi_def_cfa_register 7
 926 0006 7860     		str	r0, [r7, #4]
 252:E:/LiteOS/LiteOS_Lab/iot_link/oc/oc_lwm2m/oc_lwm2m_imp/boudica150\boudica150_oc.c ****     bool_t ret ;
ARM GAS  C:\Users\user\AppData\Local\Temp\ccQ1o4Rh.s 			page 22


 253:E:/LiteOS/LiteOS_Lab/iot_link/oc/oc_lwm2m/oc_lwm2m_imp/boudica150\boudica150_oc.c ****     char cmd[64];
 254:E:/LiteOS/LiteOS_Lab/iot_link/oc/oc_lwm2m/oc_lwm2m_imp/boudica150\boudica150_oc.c **** 
 255:E:/LiteOS/LiteOS_Lab/iot_link/oc/oc_lwm2m/oc_lwm2m_imp/boudica150\boudica150_oc.c ****     memset(cmd,0,64);
 927              		.loc 1 255 0
 928 0008 07F10C03 		add	r3, r7, #12
 929 000c 4022     		movs	r2, #64
 930 000e 0021     		movs	r1, #0
 931 0010 1846     		mov	r0, r3
 932 0012 FFF7FEFF 		bl	memset
 256:E:/LiteOS/LiteOS_Lab/iot_link/oc/oc_lwm2m/oc_lwm2m_imp/boudica150\boudica150_oc.c ****     snprintf(cmd,64,"AT+CFUN=%d\r",enable);
 933              		.loc 1 256 0
 934 0016 07F10C00 		add	r0, r7, #12
 935 001a 7B68     		ldr	r3, [r7, #4]
 936 001c 094A     		ldr	r2, .L55
 937 001e 4021     		movs	r1, #64
 938 0020 FFF7FEFF 		bl	snprintf
 257:E:/LiteOS/LiteOS_Lab/iot_link/oc/oc_lwm2m/oc_lwm2m_imp/boudica150\boudica150_oc.c **** 
 258:E:/LiteOS/LiteOS_Lab/iot_link/oc/oc_lwm2m/oc_lwm2m_imp/boudica150\boudica150_oc.c ****     ret = boudica150_atcmd(cmd,"OK");
 939              		.loc 1 258 0
 940 0024 07F10C03 		add	r3, r7, #12
 941 0028 0749     		ldr	r1, .L55+4
 942 002a 1846     		mov	r0, r3
 943 002c FFF7FEFF 		bl	boudica150_atcmd
 944 0030 F864     		str	r0, [r7, #76]
 259:E:/LiteOS/LiteOS_Lab/iot_link/oc/oc_lwm2m/oc_lwm2m_imp/boudica150\boudica150_oc.c ****     //i think we should do some wait here
 260:E:/LiteOS/LiteOS_Lab/iot_link/oc/oc_lwm2m/oc_lwm2m_imp/boudica150\boudica150_oc.c ****     osal_task_sleep(2000);
 945              		.loc 1 260 0
 946 0032 4FF4FA60 		mov	r0, #2000
 947 0036 FFF7FEFF 		bl	osal_task_sleep
 261:E:/LiteOS/LiteOS_Lab/iot_link/oc/oc_lwm2m/oc_lwm2m_imp/boudica150\boudica150_oc.c **** 
 262:E:/LiteOS/LiteOS_Lab/iot_link/oc/oc_lwm2m/oc_lwm2m_imp/boudica150\boudica150_oc.c ****     return ret;
 948              		.loc 1 262 0
 949 003a FB6C     		ldr	r3, [r7, #76]
 263:E:/LiteOS/LiteOS_Lab/iot_link/oc/oc_lwm2m/oc_lwm2m_imp/boudica150\boudica150_oc.c **** }
 950              		.loc 1 263 0
 951 003c 1846     		mov	r0, r3
 952 003e 5037     		adds	r7, r7, #80
 953              	.LCFI41:
 954              		.cfi_def_cfa_offset 8
 955 0040 BD46     		mov	sp, r7
 956              	.LCFI42:
 957              		.cfi_def_cfa_register 13
 958              		@ sp needed
 959 0042 80BD     		pop	{r7, pc}
 960              	.L56:
 961              		.align	2
 962              	.L55:
 963 0044 B0000000 		.word	.LC11
 964 0048 14000000 		.word	.LC2
 965              		.cfi_endproc
 966              	.LFE11:
 968              		.section	.rodata
 969              		.align	2
 970              	.LC12:
 971 00bc 41542B4E 		.ascii	"AT+NBAND?\015\000"
 971      42414E44 
 971      3F0D00
ARM GAS  C:\Users\user\AppData\Local\Temp\ccQ1o4Rh.s 			page 23


 972 00c7 00       		.align	2
 973              	.LC13:
 974 00c8 2B4E4241 		.ascii	"+NBAND:%s\015\000"
 974      4E443A25 
 974      730D00
 975 00d3 00       		.align	2
 976              	.LC14:
 977 00d4 41542B4E 		.ascii	"AT+NBAND=%s\015\000"
 977      42414E44 
 977      3D25730D 
 977      00
 978              		.section	.text.boudica150_set_bands,"ax",%progbits
 979              		.align	1
 980              		.syntax unified
 981              		.thumb
 982              		.thumb_func
 983              		.fpu fpv4-sp-d16
 985              	boudica150_set_bands:
 986              	.LFB12:
 264:E:/LiteOS/LiteOS_Lab/iot_link/oc/oc_lwm2m/oc_lwm2m_imp/boudica150\boudica150_oc.c **** 
 265:E:/LiteOS/LiteOS_Lab/iot_link/oc/oc_lwm2m/oc_lwm2m_imp/boudica150\boudica150_oc.c **** //use this function to set the band
 266:E:/LiteOS/LiteOS_Lab/iot_link/oc/oc_lwm2m/oc_lwm2m_imp/boudica150\boudica150_oc.c **** static bool_t boudica150_set_bands(const char *bands)
 267:E:/LiteOS/LiteOS_Lab/iot_link/oc/oc_lwm2m/oc_lwm2m_imp/boudica150\boudica150_oc.c **** {
 987              		.loc 1 267 0
 988              		.cfi_startproc
 989              		@ args = 0, pretend = 0, frame = 144
 990              		@ frame_needed = 1, uses_anonymous_args = 0
 991 0000 80B5     		push	{r7, lr}
 992              	.LCFI43:
 993              		.cfi_def_cfa_offset 8
 994              		.cfi_offset 7, -8
 995              		.cfi_offset 14, -4
 996 0002 A4B0     		sub	sp, sp, #144
 997              	.LCFI44:
 998              		.cfi_def_cfa_offset 152
 999 0004 00AF     		add	r7, sp, #0
 1000              	.LCFI45:
 1001              		.cfi_def_cfa_register 7
 1002 0006 7860     		str	r0, [r7, #4]
 268:E:/LiteOS/LiteOS_Lab/iot_link/oc/oc_lwm2m/oc_lwm2m_imp/boudica150\boudica150_oc.c ****     char cmd[64];
 269:E:/LiteOS/LiteOS_Lab/iot_link/oc/oc_lwm2m/oc_lwm2m_imp/boudica150\boudica150_oc.c ****     char resp[64];
 270:E:/LiteOS/LiteOS_Lab/iot_link/oc/oc_lwm2m/oc_lwm2m_imp/boudica150\boudica150_oc.c ****     bool_t ret = true;
 1003              		.loc 1 270 0
 1004 0008 0123     		movs	r3, #1
 1005 000a C7F88C30 		str	r3, [r7, #140]
 271:E:/LiteOS/LiteOS_Lab/iot_link/oc/oc_lwm2m/oc_lwm2m_imp/boudica150\boudica150_oc.c **** 
 272:E:/LiteOS/LiteOS_Lab/iot_link/oc/oc_lwm2m/oc_lwm2m_imp/boudica150\boudica150_oc.c ****     if(NULL != bands)  //which means we need to set if the default is not the same
 1006              		.loc 1 272 0
 1007 000e 7B68     		ldr	r3, [r7, #4]
 1008 0010 002B     		cmp	r3, #0
 1009 0012 4CD0     		beq	.L58
 1010              	.LBB3:
 273:E:/LiteOS/LiteOS_Lab/iot_link/oc/oc_lwm2m/oc_lwm2m_imp/boudica150\boudica150_oc.c ****     {
 274:E:/LiteOS/LiteOS_Lab/iot_link/oc/oc_lwm2m/oc_lwm2m_imp/boudica150\boudica150_oc.c ****         memset(resp,0,64);
 1011              		.loc 1 274 0
 1012 0014 07F10C03 		add	r3, r7, #12
 1013 0018 4022     		movs	r2, #64
ARM GAS  C:\Users\user\AppData\Local\Temp\ccQ1o4Rh.s 			page 24


 1014 001a 0021     		movs	r1, #0
 1015 001c 1846     		mov	r0, r3
 1016 001e FFF7FEFF 		bl	memset
 275:E:/LiteOS/LiteOS_Lab/iot_link/oc/oc_lwm2m/oc_lwm2m_imp/boudica150\boudica150_oc.c ****         ret = boudica150_atcmd_response("AT+NBAND?\r","OK",resp,64);
 1017              		.loc 1 275 0
 1018 0022 07F10C02 		add	r2, r7, #12
 1019 0026 4023     		movs	r3, #64
 1020 0028 2449     		ldr	r1, .L62
 1021 002a 2548     		ldr	r0, .L62+4
 1022 002c FFF7FEFF 		bl	boudica150_atcmd_response
 1023 0030 C7F88C00 		str	r0, [r7, #140]
 276:E:/LiteOS/LiteOS_Lab/iot_link/oc/oc_lwm2m/oc_lwm2m_imp/boudica150\boudica150_oc.c **** 
 277:E:/LiteOS/LiteOS_Lab/iot_link/oc/oc_lwm2m/oc_lwm2m_imp/boudica150\boudica150_oc.c ****         memset(cmd,0,64);
 1024              		.loc 1 277 0
 1025 0034 07F14C03 		add	r3, r7, #76
 1026 0038 4022     		movs	r2, #64
 1027 003a 0021     		movs	r1, #0
 1028 003c 1846     		mov	r0, r3
 1029 003e FFF7FEFF 		bl	memset
 278:E:/LiteOS/LiteOS_Lab/iot_link/oc/oc_lwm2m/oc_lwm2m_imp/boudica150\boudica150_oc.c ****         snprintf(cmd,63,"+NBAND:%s\r",bands);
 1030              		.loc 1 278 0
 1031 0042 07F14C00 		add	r0, r7, #76
 1032 0046 7B68     		ldr	r3, [r7, #4]
 1033 0048 1E4A     		ldr	r2, .L62+8
 1034 004a 3F21     		movs	r1, #63
 1035 004c FFF7FEFF 		bl	snprintf
 1036              	.LBB4:
 279:E:/LiteOS/LiteOS_Lab/iot_link/oc/oc_lwm2m/oc_lwm2m_imp/boudica150\boudica150_oc.c **** 
 280:E:/LiteOS/LiteOS_Lab/iot_link/oc/oc_lwm2m/oc_lwm2m_imp/boudica150\boudica150_oc.c ****         if((false == ret)||(NULL == strstr(resp,cmd)))//which means we need to set it
 1037              		.loc 1 280 0
 1038 0050 D7F88C30 		ldr	r3, [r7, #140]
 1039 0054 002B     		cmp	r3, #0
 1040 0056 0AD0     		beq	.L59
 1041              		.loc 1 280 0 is_stmt 0 discriminator 1
 1042 0058 07F14C02 		add	r2, r7, #76
 1043 005c 07F10C03 		add	r3, r7, #12
 1044 0060 1146     		mov	r1, r2
 1045 0062 1846     		mov	r0, r3
 1046 0064 FFF7FEFF 		bl	strstr
 1047 0068 0346     		mov	r3, r0
 1048 006a 002B     		cmp	r3, #0
 1049 006c 1CD1     		bne	.L60
 1050              	.L59:
 281:E:/LiteOS/LiteOS_Lab/iot_link/oc/oc_lwm2m/oc_lwm2m_imp/boudica150\boudica150_oc.c ****         {
 282:E:/LiteOS/LiteOS_Lab/iot_link/oc/oc_lwm2m/oc_lwm2m_imp/boudica150\boudica150_oc.c ****             boudica150_set_fun(0);
 1051              		.loc 1 282 0 is_stmt 1
 1052 006e 0020     		movs	r0, #0
 1053 0070 FFF7FEFF 		bl	boudica150_set_fun
 283:E:/LiteOS/LiteOS_Lab/iot_link/oc/oc_lwm2m/oc_lwm2m_imp/boudica150\boudica150_oc.c **** 
 284:E:/LiteOS/LiteOS_Lab/iot_link/oc/oc_lwm2m/oc_lwm2m_imp/boudica150\boudica150_oc.c ****             memset(cmd,0,64);
 1054              		.loc 1 284 0
 1055 0074 07F14C03 		add	r3, r7, #76
 1056 0078 4022     		movs	r2, #64
 1057 007a 0021     		movs	r1, #0
 1058 007c 1846     		mov	r0, r3
 1059 007e FFF7FEFF 		bl	memset
 285:E:/LiteOS/LiteOS_Lab/iot_link/oc/oc_lwm2m/oc_lwm2m_imp/boudica150\boudica150_oc.c ****             snprintf(cmd,63,"AT+NBAND=%s\r",bands);
ARM GAS  C:\Users\user\AppData\Local\Temp\ccQ1o4Rh.s 			page 25


 1060              		.loc 1 285 0
 1061 0082 07F14C00 		add	r0, r7, #76
 1062 0086 7B68     		ldr	r3, [r7, #4]
 1063 0088 0F4A     		ldr	r2, .L62+12
 1064 008a 3F21     		movs	r1, #63
 1065 008c FFF7FEFF 		bl	snprintf
 286:E:/LiteOS/LiteOS_Lab/iot_link/oc/oc_lwm2m/oc_lwm2m_imp/boudica150\boudica150_oc.c ****             ret = boudica150_atcmd(cmd,"OK");
 1066              		.loc 1 286 0
 1067 0090 07F14C03 		add	r3, r7, #76
 1068 0094 0949     		ldr	r1, .L62
 1069 0096 1846     		mov	r0, r3
 1070 0098 FFF7FEFF 		bl	boudica150_atcmd
 1071 009c C7F88C00 		str	r0, [r7, #140]
 287:E:/LiteOS/LiteOS_Lab/iot_link/oc/oc_lwm2m/oc_lwm2m_imp/boudica150\boudica150_oc.c **** 
 288:E:/LiteOS/LiteOS_Lab/iot_link/oc/oc_lwm2m/oc_lwm2m_imp/boudica150\boudica150_oc.c ****             boudica150_set_fun(1);
 1072              		.loc 1 288 0
 1073 00a0 0120     		movs	r0, #1
 1074 00a2 FFF7FEFF 		bl	boudica150_set_fun
 1075 00a6 02E0     		b	.L58
 1076              	.L60:
 289:E:/LiteOS/LiteOS_Lab/iot_link/oc/oc_lwm2m/oc_lwm2m_imp/boudica150\boudica150_oc.c ****         }
 290:E:/LiteOS/LiteOS_Lab/iot_link/oc/oc_lwm2m/oc_lwm2m_imp/boudica150\boudica150_oc.c ****         else
 291:E:/LiteOS/LiteOS_Lab/iot_link/oc/oc_lwm2m/oc_lwm2m_imp/boudica150\boudica150_oc.c ****         {
 292:E:/LiteOS/LiteOS_Lab/iot_link/oc/oc_lwm2m/oc_lwm2m_imp/boudica150\boudica150_oc.c ****             ret = true;  //we need not to set
 1077              		.loc 1 292 0
 1078 00a8 0123     		movs	r3, #1
 1079 00aa C7F88C30 		str	r3, [r7, #140]
 1080              	.L58:
 1081              	.LBE4:
 1082              	.LBE3:
 293:E:/LiteOS/LiteOS_Lab/iot_link/oc/oc_lwm2m/oc_lwm2m_imp/boudica150\boudica150_oc.c ****         }
 294:E:/LiteOS/LiteOS_Lab/iot_link/oc/oc_lwm2m/oc_lwm2m_imp/boudica150\boudica150_oc.c ****     }
 295:E:/LiteOS/LiteOS_Lab/iot_link/oc/oc_lwm2m/oc_lwm2m_imp/boudica150\boudica150_oc.c ****     return ret;
 1083              		.loc 1 295 0
 1084 00ae D7F88C30 		ldr	r3, [r7, #140]
 296:E:/LiteOS/LiteOS_Lab/iot_link/oc/oc_lwm2m/oc_lwm2m_imp/boudica150\boudica150_oc.c **** }
 1085              		.loc 1 296 0
 1086 00b2 1846     		mov	r0, r3
 1087 00b4 9037     		adds	r7, r7, #144
 1088              	.LCFI46:
 1089              		.cfi_def_cfa_offset 8
 1090 00b6 BD46     		mov	sp, r7
 1091              	.LCFI47:
 1092              		.cfi_def_cfa_register 13
 1093              		@ sp needed
 1094 00b8 80BD     		pop	{r7, pc}
 1095              	.L63:
 1096 00ba 00BF     		.align	2
 1097              	.L62:
 1098 00bc 14000000 		.word	.LC2
 1099 00c0 BC000000 		.word	.LC12
 1100 00c4 C8000000 		.word	.LC13
 1101 00c8 D4000000 		.word	.LC14
 1102              		.cfi_endproc
 1103              	.LFE12:
 1105              		.section	.rodata
 1106 00e1 000000   		.align	2
ARM GAS  C:\Users\user\AppData\Local\Temp\ccQ1o4Rh.s 			page 26


 1107              	.LC15:
 1108 00e4 2B434F50 		.ascii	"+COPS\000"
 1108      5300
 1109 00ea 0000     		.align	2
 1110              	.LC16:
 1111 00ec 41542B43 		.ascii	"AT+COPS?\015\000"
 1111      4F50533F 
 1111      0D00
 1112 00f6 0000     		.align	2
 1113              	.LC17:
 1114 00f8 2B434F50 		.ascii	"+COPS:1,2,\"%s\"\015\000"
 1114      533A312C 
 1114      322C2225 
 1114      73220D00 
 1115              		.align	2
 1116              	.LC18:
 1117 0108 41542B43 		.ascii	"AT+COPS=1,2,\"%s\"\015\000"
 1117      4F50533D 
 1117      312C322C 
 1117      22257322 
 1117      0D00
 1118 011a 0000     		.align	2
 1119              	.LC19:
 1120 011c 41542B43 		.ascii	"AT+COPS=0\015\000"
 1120      4F50533D 
 1120      300D00
 1121              		.section	.text.boudica150_set_plmn,"ax",%progbits
 1122              		.align	1
 1123              		.syntax unified
 1124              		.thumb
 1125              		.thumb_func
 1126              		.fpu fpv4-sp-d16
 1128              	boudica150_set_plmn:
 1129              	.LFB13:
 297:E:/LiteOS/LiteOS_Lab/iot_link/oc/oc_lwm2m/oc_lwm2m_imp/boudica150\boudica150_oc.c **** 
 298:E:/LiteOS/LiteOS_Lab/iot_link/oc/oc_lwm2m/oc_lwm2m_imp/boudica150\boudica150_oc.c **** //set the plmn
 299:E:/LiteOS/LiteOS_Lab/iot_link/oc/oc_lwm2m/oc_lwm2m_imp/boudica150\boudica150_oc.c **** static bool_t boudica150_set_plmn(const char *plmn)
 300:E:/LiteOS/LiteOS_Lab/iot_link/oc/oc_lwm2m/oc_lwm2m_imp/boudica150\boudica150_oc.c **** {
 1130              		.loc 1 300 0
 1131              		.cfi_startproc
 1132              		@ args = 0, pretend = 0, frame = 144
 1133              		@ frame_needed = 1, uses_anonymous_args = 0
 1134 0000 80B5     		push	{r7, lr}
 1135              	.LCFI48:
 1136              		.cfi_def_cfa_offset 8
 1137              		.cfi_offset 7, -8
 1138              		.cfi_offset 14, -4
 1139 0002 A4B0     		sub	sp, sp, #144
 1140              	.LCFI49:
 1141              		.cfi_def_cfa_offset 152
 1142 0004 00AF     		add	r7, sp, #0
 1143              	.LCFI50:
 1144              		.cfi_def_cfa_register 7
 1145 0006 7860     		str	r0, [r7, #4]
 301:E:/LiteOS/LiteOS_Lab/iot_link/oc/oc_lwm2m/oc_lwm2m_imp/boudica150\boudica150_oc.c ****     char cmd[64];
 302:E:/LiteOS/LiteOS_Lab/iot_link/oc/oc_lwm2m/oc_lwm2m_imp/boudica150\boudica150_oc.c ****     char resp[64];
 303:E:/LiteOS/LiteOS_Lab/iot_link/oc/oc_lwm2m/oc_lwm2m_imp/boudica150\boudica150_oc.c ****     bool_t ret;
ARM GAS  C:\Users\user\AppData\Local\Temp\ccQ1o4Rh.s 			page 27


 304:E:/LiteOS/LiteOS_Lab/iot_link/oc/oc_lwm2m/oc_lwm2m_imp/boudica150\boudica150_oc.c **** 
 305:E:/LiteOS/LiteOS_Lab/iot_link/oc/oc_lwm2m/oc_lwm2m_imp/boudica150\boudica150_oc.c ****     if(NULL != plmn)  //which measn we need to set if the default is not the same
 1146              		.loc 1 305 0
 1147 0008 7B68     		ldr	r3, [r7, #4]
 1148 000a 002B     		cmp	r3, #0
 1149 000c 47D0     		beq	.L65
 1150              	.LBB5:
 306:E:/LiteOS/LiteOS_Lab/iot_link/oc/oc_lwm2m/oc_lwm2m_imp/boudica150\boudica150_oc.c ****     {
 307:E:/LiteOS/LiteOS_Lab/iot_link/oc/oc_lwm2m/oc_lwm2m_imp/boudica150\boudica150_oc.c ****         memset(resp,0,64);
 1151              		.loc 1 307 0
 1152 000e 07F10C03 		add	r3, r7, #12
 1153 0012 4022     		movs	r2, #64
 1154 0014 0021     		movs	r1, #0
 1155 0016 1846     		mov	r0, r3
 1156 0018 FFF7FEFF 		bl	memset
 308:E:/LiteOS/LiteOS_Lab/iot_link/oc/oc_lwm2m/oc_lwm2m_imp/boudica150\boudica150_oc.c ****         ret = boudica150_atcmd_response("AT+COPS?\r","+COPS",resp,64);
 1157              		.loc 1 308 0
 1158 001c 07F10C02 		add	r2, r7, #12
 1159 0020 4023     		movs	r3, #64
 1160 0022 2E49     		ldr	r1, .L71
 1161 0024 2E48     		ldr	r0, .L71+4
 1162 0026 FFF7FEFF 		bl	boudica150_atcmd_response
 1163 002a C7F88C00 		str	r0, [r7, #140]
 309:E:/LiteOS/LiteOS_Lab/iot_link/oc/oc_lwm2m/oc_lwm2m_imp/boudica150\boudica150_oc.c **** 
 310:E:/LiteOS/LiteOS_Lab/iot_link/oc/oc_lwm2m/oc_lwm2m_imp/boudica150\boudica150_oc.c ****         memset(cmd,0,64);
 1164              		.loc 1 310 0
 1165 002e 07F14C03 		add	r3, r7, #76
 1166 0032 4022     		movs	r2, #64
 1167 0034 0021     		movs	r1, #0
 1168 0036 1846     		mov	r0, r3
 1169 0038 FFF7FEFF 		bl	memset
 311:E:/LiteOS/LiteOS_Lab/iot_link/oc/oc_lwm2m/oc_lwm2m_imp/boudica150\boudica150_oc.c ****         snprintf(cmd,63,"+COPS:1,2,\"%s\"\r",plmn);
 1170              		.loc 1 311 0
 1171 003c 07F14C00 		add	r0, r7, #76
 1172 0040 7B68     		ldr	r3, [r7, #4]
 1173 0042 284A     		ldr	r2, .L71+8
 1174 0044 3F21     		movs	r1, #63
 1175 0046 FFF7FEFF 		bl	snprintf
 1176              	.LBB6:
 312:E:/LiteOS/LiteOS_Lab/iot_link/oc/oc_lwm2m/oc_lwm2m_imp/boudica150\boudica150_oc.c **** 
 313:E:/LiteOS/LiteOS_Lab/iot_link/oc/oc_lwm2m/oc_lwm2m_imp/boudica150\boudica150_oc.c ****         if((false == ret)||(NULL == strstr(resp,cmd)))//which means we need to set it
 1177              		.loc 1 313 0
 1178 004a D7F88C30 		ldr	r3, [r7, #140]
 1179 004e 002B     		cmp	r3, #0
 1180 0050 0AD0     		beq	.L66
 1181              		.loc 1 313 0 is_stmt 0 discriminator 1
 1182 0052 07F14C02 		add	r2, r7, #76
 1183 0056 07F10C03 		add	r3, r7, #12
 1184 005a 1146     		mov	r1, r2
 1185 005c 1846     		mov	r0, r3
 1186 005e FFF7FEFF 		bl	strstr
 1187 0062 0346     		mov	r3, r0
 1188 0064 002B     		cmp	r3, #0
 1189 0066 16D1     		bne	.L67
 1190              	.L66:
 314:E:/LiteOS/LiteOS_Lab/iot_link/oc/oc_lwm2m/oc_lwm2m_imp/boudica150\boudica150_oc.c ****         {
 315:E:/LiteOS/LiteOS_Lab/iot_link/oc/oc_lwm2m/oc_lwm2m_imp/boudica150\boudica150_oc.c ****             memset(cmd,0,64);
ARM GAS  C:\Users\user\AppData\Local\Temp\ccQ1o4Rh.s 			page 28


 1191              		.loc 1 315 0 is_stmt 1
 1192 0068 07F14C03 		add	r3, r7, #76
 1193 006c 4022     		movs	r2, #64
 1194 006e 0021     		movs	r1, #0
 1195 0070 1846     		mov	r0, r3
 1196 0072 FFF7FEFF 		bl	memset
 316:E:/LiteOS/LiteOS_Lab/iot_link/oc/oc_lwm2m/oc_lwm2m_imp/boudica150\boudica150_oc.c ****             snprintf(cmd,63,"AT+COPS=1,2,\"%s\"\r",plmn);
 1197              		.loc 1 316 0
 1198 0076 07F14C00 		add	r0, r7, #76
 1199 007a 7B68     		ldr	r3, [r7, #4]
 1200 007c 1A4A     		ldr	r2, .L71+12
 1201 007e 3F21     		movs	r1, #63
 1202 0080 FFF7FEFF 		bl	snprintf
 317:E:/LiteOS/LiteOS_Lab/iot_link/oc/oc_lwm2m/oc_lwm2m_imp/boudica150\boudica150_oc.c **** 
 318:E:/LiteOS/LiteOS_Lab/iot_link/oc/oc_lwm2m/oc_lwm2m_imp/boudica150\boudica150_oc.c ****             ret = boudica150_atcmd(cmd,"OK");
 1203              		.loc 1 318 0
 1204 0084 07F14C03 		add	r3, r7, #76
 1205 0088 1849     		ldr	r1, .L71+16
 1206 008a 1846     		mov	r0, r3
 1207 008c FFF7FEFF 		bl	boudica150_atcmd
 1208 0090 C7F88C00 		str	r0, [r7, #140]
 1209 0094 1BE0     		b	.L69
 1210              	.L67:
 319:E:/LiteOS/LiteOS_Lab/iot_link/oc/oc_lwm2m/oc_lwm2m_imp/boudica150\boudica150_oc.c ****         }
 320:E:/LiteOS/LiteOS_Lab/iot_link/oc/oc_lwm2m/oc_lwm2m_imp/boudica150\boudica150_oc.c ****         else
 321:E:/LiteOS/LiteOS_Lab/iot_link/oc/oc_lwm2m/oc_lwm2m_imp/boudica150\boudica150_oc.c ****         {
 322:E:/LiteOS/LiteOS_Lab/iot_link/oc/oc_lwm2m/oc_lwm2m_imp/boudica150\boudica150_oc.c ****             ret = true;  //we need not to set
 1211              		.loc 1 322 0
 1212 0096 0123     		movs	r3, #1
 1213 0098 C7F88C30 		str	r3, [r7, #140]
 1214 009c 17E0     		b	.L69
 1215              	.L65:
 1216              	.LBE6:
 1217              	.LBE5:
 1218              	.LBB7:
 323:E:/LiteOS/LiteOS_Lab/iot_link/oc/oc_lwm2m/oc_lwm2m_imp/boudica150\boudica150_oc.c ****         }
 324:E:/LiteOS/LiteOS_Lab/iot_link/oc/oc_lwm2m/oc_lwm2m_imp/boudica150\boudica150_oc.c ****     }
 325:E:/LiteOS/LiteOS_Lab/iot_link/oc/oc_lwm2m/oc_lwm2m_imp/boudica150\boudica150_oc.c ****     else  //set it to auto
 326:E:/LiteOS/LiteOS_Lab/iot_link/oc/oc_lwm2m/oc_lwm2m_imp/boudica150\boudica150_oc.c ****     {
 327:E:/LiteOS/LiteOS_Lab/iot_link/oc/oc_lwm2m/oc_lwm2m_imp/boudica150\boudica150_oc.c ****         memset(cmd,0,64);
 1219              		.loc 1 327 0
 1220 009e 07F14C03 		add	r3, r7, #76
 1221 00a2 4022     		movs	r2, #64
 1222 00a4 0021     		movs	r1, #0
 1223 00a6 1846     		mov	r0, r3
 1224 00a8 FFF7FEFF 		bl	memset
 328:E:/LiteOS/LiteOS_Lab/iot_link/oc/oc_lwm2m/oc_lwm2m_imp/boudica150\boudica150_oc.c ****         snprintf(cmd,64,"AT+COPS=0\r");
 1225              		.loc 1 328 0
 1226 00ac 07F14C03 		add	r3, r7, #76
 1227 00b0 0F4A     		ldr	r2, .L71+20
 1228 00b2 07CA     		ldm	r2, {r0, r1, r2}
 1229 00b4 03C3     		stmia	r3!, {r0, r1}
 1230 00b6 1A80     		strh	r2, [r3]	@ movhi
 1231 00b8 0233     		adds	r3, r3, #2
 1232 00ba 120C     		lsrs	r2, r2, #16
 1233 00bc 1A70     		strb	r2, [r3]
 329:E:/LiteOS/LiteOS_Lab/iot_link/oc/oc_lwm2m/oc_lwm2m_imp/boudica150\boudica150_oc.c ****         ret = boudica150_atcmd(cmd,"OK");
ARM GAS  C:\Users\user\AppData\Local\Temp\ccQ1o4Rh.s 			page 29


 1234              		.loc 1 329 0
 1235 00be 07F14C03 		add	r3, r7, #76
 1236 00c2 0A49     		ldr	r1, .L71+16
 1237 00c4 1846     		mov	r0, r3
 1238 00c6 FFF7FEFF 		bl	boudica150_atcmd
 1239 00ca C7F88C00 		str	r0, [r7, #140]
 1240              	.L69:
 1241              	.LBE7:
 330:E:/LiteOS/LiteOS_Lab/iot_link/oc/oc_lwm2m/oc_lwm2m_imp/boudica150\boudica150_oc.c ****     }
 331:E:/LiteOS/LiteOS_Lab/iot_link/oc/oc_lwm2m/oc_lwm2m_imp/boudica150\boudica150_oc.c **** 
 332:E:/LiteOS/LiteOS_Lab/iot_link/oc/oc_lwm2m/oc_lwm2m_imp/boudica150\boudica150_oc.c ****     return ret;
 1242              		.loc 1 332 0
 1243 00ce D7F88C30 		ldr	r3, [r7, #140]
 333:E:/LiteOS/LiteOS_Lab/iot_link/oc/oc_lwm2m/oc_lwm2m_imp/boudica150\boudica150_oc.c **** }
 1244              		.loc 1 333 0
 1245 00d2 1846     		mov	r0, r3
 1246 00d4 9037     		adds	r7, r7, #144
 1247              	.LCFI51:
 1248              		.cfi_def_cfa_offset 8
 1249 00d6 BD46     		mov	sp, r7
 1250              	.LCFI52:
 1251              		.cfi_def_cfa_register 13
 1252              		@ sp needed
 1253 00d8 80BD     		pop	{r7, pc}
 1254              	.L72:
 1255 00da 00BF     		.align	2
 1256              	.L71:
 1257 00dc E4000000 		.word	.LC15
 1258 00e0 EC000000 		.word	.LC16
 1259 00e4 F8000000 		.word	.LC17
 1260 00e8 08010000 		.word	.LC18
 1261 00ec 14000000 		.word	.LC2
 1262 00f0 1C010000 		.word	.LC19
 1263              		.cfi_endproc
 1264              	.LFE13:
 1266              		.section	.rodata
 1267 0127 00       		.align	2
 1268              	.LC20:
 1269 0128 41542B43 		.ascii	"AT+CGDCONT?\015\000"
 1269      4744434F 
 1269      4E543F0D 
 1269      00
 1270 0135 000000   		.align	2
 1271              	.LC21:
 1272 0138 2B434744 		.ascii	"+CGDCONT:\"%s\"\015\000"
 1272      434F4E54 
 1272      3A222573 
 1272      220D00
 1273 0147 00       		.align	2
 1274              	.LC22:
 1275 0148 41542B43 		.ascii	"AT+CGDCONT=%s\015\000"
 1275      4744434F 
 1275      4E543D25 
 1275      730D00
 1276              		.section	.text.boudica150_set_apn,"ax",%progbits
 1277              		.align	1
 1278              		.syntax unified
ARM GAS  C:\Users\user\AppData\Local\Temp\ccQ1o4Rh.s 			page 30


 1279              		.thumb
 1280              		.thumb_func
 1281              		.fpu fpv4-sp-d16
 1283              	boudica150_set_apn:
 1284              	.LFB14:
 334:E:/LiteOS/LiteOS_Lab/iot_link/oc/oc_lwm2m/oc_lwm2m_imp/boudica150\boudica150_oc.c **** 
 335:E:/LiteOS/LiteOS_Lab/iot_link/oc/oc_lwm2m/oc_lwm2m_imp/boudica150\boudica150_oc.c **** //set the apn
 336:E:/LiteOS/LiteOS_Lab/iot_link/oc/oc_lwm2m/oc_lwm2m_imp/boudica150\boudica150_oc.c **** static bool_t boudica150_set_apn(const char *apn)
 337:E:/LiteOS/LiteOS_Lab/iot_link/oc/oc_lwm2m/oc_lwm2m_imp/boudica150\boudica150_oc.c **** {
 1285              		.loc 1 337 0
 1286              		.cfi_startproc
 1287              		@ args = 0, pretend = 0, frame = 144
 1288              		@ frame_needed = 1, uses_anonymous_args = 0
 1289 0000 80B5     		push	{r7, lr}
 1290              	.LCFI53:
 1291              		.cfi_def_cfa_offset 8
 1292              		.cfi_offset 7, -8
 1293              		.cfi_offset 14, -4
 1294 0002 A4B0     		sub	sp, sp, #144
 1295              	.LCFI54:
 1296              		.cfi_def_cfa_offset 152
 1297 0004 00AF     		add	r7, sp, #0
 1298              	.LCFI55:
 1299              		.cfi_def_cfa_register 7
 1300 0006 7860     		str	r0, [r7, #4]
 338:E:/LiteOS/LiteOS_Lab/iot_link/oc/oc_lwm2m/oc_lwm2m_imp/boudica150\boudica150_oc.c ****     char cmd[64];
 339:E:/LiteOS/LiteOS_Lab/iot_link/oc/oc_lwm2m/oc_lwm2m_imp/boudica150\boudica150_oc.c ****     char resp[64];
 340:E:/LiteOS/LiteOS_Lab/iot_link/oc/oc_lwm2m/oc_lwm2m_imp/boudica150\boudica150_oc.c **** 
 341:E:/LiteOS/LiteOS_Lab/iot_link/oc/oc_lwm2m/oc_lwm2m_imp/boudica150\boudica150_oc.c ****     bool_t ret = true;
 1301              		.loc 1 341 0
 1302 0008 0123     		movs	r3, #1
 1303 000a C7F88C30 		str	r3, [r7, #140]
 342:E:/LiteOS/LiteOS_Lab/iot_link/oc/oc_lwm2m/oc_lwm2m_imp/boudica150\boudica150_oc.c **** 
 343:E:/LiteOS/LiteOS_Lab/iot_link/oc/oc_lwm2m/oc_lwm2m_imp/boudica150\boudica150_oc.c ****     if(NULL != apn)  //which measn we need to set if the default is not the same
 1304              		.loc 1 343 0
 1305 000e 7B68     		ldr	r3, [r7, #4]
 1306 0010 002B     		cmp	r3, #0
 1307 0012 46D0     		beq	.L74
 1308              	.LBB8:
 344:E:/LiteOS/LiteOS_Lab/iot_link/oc/oc_lwm2m/oc_lwm2m_imp/boudica150\boudica150_oc.c ****     {
 345:E:/LiteOS/LiteOS_Lab/iot_link/oc/oc_lwm2m/oc_lwm2m_imp/boudica150\boudica150_oc.c ****         memset(resp,0,64);
 1309              		.loc 1 345 0
 1310 0014 07F10C03 		add	r3, r7, #12
 1311 0018 4022     		movs	r2, #64
 1312 001a 0021     		movs	r1, #0
 1313 001c 1846     		mov	r0, r3
 1314 001e FFF7FEFF 		bl	memset
 346:E:/LiteOS/LiteOS_Lab/iot_link/oc/oc_lwm2m/oc_lwm2m_imp/boudica150\boudica150_oc.c ****         ret = boudica150_atcmd_response("AT+CGDCONT?\r","OK",resp,64);
 1315              		.loc 1 346 0
 1316 0022 07F10C02 		add	r2, r7, #12
 1317 0026 4023     		movs	r3, #64
 1318 0028 2149     		ldr	r1, .L78
 1319 002a 2248     		ldr	r0, .L78+4
 1320 002c FFF7FEFF 		bl	boudica150_atcmd_response
 1321 0030 C7F88C00 		str	r0, [r7, #140]
 347:E:/LiteOS/LiteOS_Lab/iot_link/oc/oc_lwm2m/oc_lwm2m_imp/boudica150\boudica150_oc.c **** 
 348:E:/LiteOS/LiteOS_Lab/iot_link/oc/oc_lwm2m/oc_lwm2m_imp/boudica150\boudica150_oc.c ****         memset(cmd,0,64);
ARM GAS  C:\Users\user\AppData\Local\Temp\ccQ1o4Rh.s 			page 31


 1322              		.loc 1 348 0
 1323 0034 07F14C03 		add	r3, r7, #76
 1324 0038 4022     		movs	r2, #64
 1325 003a 0021     		movs	r1, #0
 1326 003c 1846     		mov	r0, r3
 1327 003e FFF7FEFF 		bl	memset
 349:E:/LiteOS/LiteOS_Lab/iot_link/oc/oc_lwm2m/oc_lwm2m_imp/boudica150\boudica150_oc.c ****         snprintf(cmd,63,"+CGDCONT:\"%s\"\r",apn); //TODO, check if it is right
 1328              		.loc 1 349 0
 1329 0042 07F14C00 		add	r0, r7, #76
 1330 0046 7B68     		ldr	r3, [r7, #4]
 1331 0048 1B4A     		ldr	r2, .L78+8
 1332 004a 3F21     		movs	r1, #63
 1333 004c FFF7FEFF 		bl	snprintf
 1334              	.LBB9:
 350:E:/LiteOS/LiteOS_Lab/iot_link/oc/oc_lwm2m/oc_lwm2m_imp/boudica150\boudica150_oc.c ****         if((false == ret)||(NULL == strstr(resp,cmd)))//which means we need to set it
 1335              		.loc 1 350 0
 1336 0050 D7F88C30 		ldr	r3, [r7, #140]
 1337 0054 002B     		cmp	r3, #0
 1338 0056 0AD0     		beq	.L75
 1339              		.loc 1 350 0 is_stmt 0 discriminator 1
 1340 0058 07F14C02 		add	r2, r7, #76
 1341 005c 07F10C03 		add	r3, r7, #12
 1342 0060 1146     		mov	r1, r2
 1343 0062 1846     		mov	r0, r3
 1344 0064 FFF7FEFF 		bl	strstr
 1345 0068 0346     		mov	r3, r0
 1346 006a 002B     		cmp	r3, #0
 1347 006c 16D1     		bne	.L76
 1348              	.L75:
 351:E:/LiteOS/LiteOS_Lab/iot_link/oc/oc_lwm2m/oc_lwm2m_imp/boudica150\boudica150_oc.c ****         {
 352:E:/LiteOS/LiteOS_Lab/iot_link/oc/oc_lwm2m/oc_lwm2m_imp/boudica150\boudica150_oc.c ****             memset(cmd,0,64);
 1349              		.loc 1 352 0 is_stmt 1
 1350 006e 07F14C03 		add	r3, r7, #76
 1351 0072 4022     		movs	r2, #64
 1352 0074 0021     		movs	r1, #0
 1353 0076 1846     		mov	r0, r3
 1354 0078 FFF7FEFF 		bl	memset
 353:E:/LiteOS/LiteOS_Lab/iot_link/oc/oc_lwm2m/oc_lwm2m_imp/boudica150\boudica150_oc.c ****             snprintf(cmd,63,"AT+CGDCONT=%s\r",apn);
 1355              		.loc 1 353 0
 1356 007c 07F14C00 		add	r0, r7, #76
 1357 0080 7B68     		ldr	r3, [r7, #4]
 1358 0082 0E4A     		ldr	r2, .L78+12
 1359 0084 3F21     		movs	r1, #63
 1360 0086 FFF7FEFF 		bl	snprintf
 354:E:/LiteOS/LiteOS_Lab/iot_link/oc/oc_lwm2m/oc_lwm2m_imp/boudica150\boudica150_oc.c ****             ret = boudica150_atcmd(cmd,"OK");
 1361              		.loc 1 354 0
 1362 008a 07F14C03 		add	r3, r7, #76
 1363 008e 0849     		ldr	r1, .L78
 1364 0090 1846     		mov	r0, r3
 1365 0092 FFF7FEFF 		bl	boudica150_atcmd
 1366 0096 C7F88C00 		str	r0, [r7, #140]
 1367 009a 02E0     		b	.L74
 1368              	.L76:
 355:E:/LiteOS/LiteOS_Lab/iot_link/oc/oc_lwm2m/oc_lwm2m_imp/boudica150\boudica150_oc.c ****         }
 356:E:/LiteOS/LiteOS_Lab/iot_link/oc/oc_lwm2m/oc_lwm2m_imp/boudica150\boudica150_oc.c ****         else
 357:E:/LiteOS/LiteOS_Lab/iot_link/oc/oc_lwm2m/oc_lwm2m_imp/boudica150\boudica150_oc.c ****         {
 358:E:/LiteOS/LiteOS_Lab/iot_link/oc/oc_lwm2m/oc_lwm2m_imp/boudica150\boudica150_oc.c ****             ret = true;  //we need not to set
ARM GAS  C:\Users\user\AppData\Local\Temp\ccQ1o4Rh.s 			page 32


 1369              		.loc 1 358 0
 1370 009c 0123     		movs	r3, #1
 1371 009e C7F88C30 		str	r3, [r7, #140]
 1372              	.L74:
 1373              	.LBE9:
 1374              	.LBE8:
 359:E:/LiteOS/LiteOS_Lab/iot_link/oc/oc_lwm2m/oc_lwm2m_imp/boudica150\boudica150_oc.c ****         }
 360:E:/LiteOS/LiteOS_Lab/iot_link/oc/oc_lwm2m/oc_lwm2m_imp/boudica150\boudica150_oc.c ****     }
 361:E:/LiteOS/LiteOS_Lab/iot_link/oc/oc_lwm2m/oc_lwm2m_imp/boudica150\boudica150_oc.c ****     return ret;
 1375              		.loc 1 361 0
 1376 00a2 D7F88C30 		ldr	r3, [r7, #140]
 362:E:/LiteOS/LiteOS_Lab/iot_link/oc/oc_lwm2m/oc_lwm2m_imp/boudica150\boudica150_oc.c **** }
 1377              		.loc 1 362 0
 1378 00a6 1846     		mov	r0, r3
 1379 00a8 9037     		adds	r7, r7, #144
 1380              	.LCFI56:
 1381              		.cfi_def_cfa_offset 8
 1382 00aa BD46     		mov	sp, r7
 1383              	.LCFI57:
 1384              		.cfi_def_cfa_register 13
 1385              		@ sp needed
 1386 00ac 80BD     		pop	{r7, pc}
 1387              	.L79:
 1388 00ae 00BF     		.align	2
 1389              	.L78:
 1390 00b0 14000000 		.word	.LC2
 1391 00b4 28010000 		.word	.LC20
 1392 00b8 38010000 		.word	.LC21
 1393 00bc 48010000 		.word	.LC22
 1394              		.cfi_endproc
 1395              	.LFE14:
 1397              		.section	.rodata
 1398 0157 00       		.align	2
 1399              	.LC23:
 1400 0158 41542B4E 		.ascii	"AT+NCDP?\015\000"
 1400      4344503F 
 1400      0D00
 1401 0162 0000     		.align	2
 1402              	.LC24:
 1403 0164 2B4E4344 		.ascii	"+NCDP:%s,%s\015\000"
 1403      503A2573 
 1403      2C25730D 
 1403      00
 1404 0171 000000   		.align	2
 1405              	.LC25:
 1406 0174 41542B4E 		.ascii	"AT+NCDP=%s,%s\015\000"
 1406      4344503D 
 1406      25732C25 
 1406      730D00
 1407              		.section	.text.boudica150_set_cdp,"ax",%progbits
 1408              		.align	1
 1409              		.syntax unified
 1410              		.thumb
 1411              		.thumb_func
 1412              		.fpu fpv4-sp-d16
 1414              	boudica150_set_cdp:
 1415              	.LFB15:
ARM GAS  C:\Users\user\AppData\Local\Temp\ccQ1o4Rh.s 			page 33


 363:E:/LiteOS/LiteOS_Lab/iot_link/oc/oc_lwm2m/oc_lwm2m_imp/boudica150\boudica150_oc.c **** 
 364:E:/LiteOS/LiteOS_Lab/iot_link/oc/oc_lwm2m/oc_lwm2m_imp/boudica150\boudica150_oc.c **** //set the cdp
 365:E:/LiteOS/LiteOS_Lab/iot_link/oc/oc_lwm2m/oc_lwm2m_imp/boudica150\boudica150_oc.c **** static bool_t boudica150_set_cdp(const char *server,const char *port)
 366:E:/LiteOS/LiteOS_Lab/iot_link/oc/oc_lwm2m/oc_lwm2m_imp/boudica150\boudica150_oc.c **** {
 1416              		.loc 1 366 0
 1417              		.cfi_startproc
 1418              		@ args = 0, pretend = 0, frame = 208
 1419              		@ frame_needed = 1, uses_anonymous_args = 0
 1420 0000 80B5     		push	{r7, lr}
 1421              	.LCFI58:
 1422              		.cfi_def_cfa_offset 8
 1423              		.cfi_offset 7, -8
 1424              		.cfi_offset 14, -4
 1425 0002 B6B0     		sub	sp, sp, #216
 1426              	.LCFI59:
 1427              		.cfi_def_cfa_offset 224
 1428 0004 02AF     		add	r7, sp, #8
 1429              	.LCFI60:
 1430              		.cfi_def_cfa 7, 216
 1431 0006 7860     		str	r0, [r7, #4]
 1432 0008 3960     		str	r1, [r7]
 367:E:/LiteOS/LiteOS_Lab/iot_link/oc/oc_lwm2m/oc_lwm2m_imp/boudica150\boudica150_oc.c ****     char cmd[64];
 368:E:/LiteOS/LiteOS_Lab/iot_link/oc/oc_lwm2m/oc_lwm2m_imp/boudica150\boudica150_oc.c ****     char resp[64];
 369:E:/LiteOS/LiteOS_Lab/iot_link/oc/oc_lwm2m/oc_lwm2m_imp/boudica150\boudica150_oc.c ****     char cmp[64];
 370:E:/LiteOS/LiteOS_Lab/iot_link/oc/oc_lwm2m/oc_lwm2m_imp/boudica150\boudica150_oc.c ****     bool_t ret = true;
 1433              		.loc 1 370 0
 1434 000a 0123     		movs	r3, #1
 1435 000c C7F8CC30 		str	r3, [r7, #204]
 371:E:/LiteOS/LiteOS_Lab/iot_link/oc/oc_lwm2m/oc_lwm2m_imp/boudica150\boudica150_oc.c **** 
 372:E:/LiteOS/LiteOS_Lab/iot_link/oc/oc_lwm2m/oc_lwm2m_imp/boudica150\boudica150_oc.c ****     if(NULL != server)  //which measn we need to set if the default is not the same
 1436              		.loc 1 372 0
 1437 0010 7B68     		ldr	r3, [r7, #4]
 1438 0012 002B     		cmp	r3, #0
 1439 0014 51D0     		beq	.L81
 1440              	.LBB10:
 373:E:/LiteOS/LiteOS_Lab/iot_link/oc/oc_lwm2m/oc_lwm2m_imp/boudica150\boudica150_oc.c ****     {
 374:E:/LiteOS/LiteOS_Lab/iot_link/oc/oc_lwm2m/oc_lwm2m_imp/boudica150\boudica150_oc.c ****         memset(resp,0,64);
 1441              		.loc 1 374 0
 1442 0016 07F14C03 		add	r3, r7, #76
 1443 001a 4022     		movs	r2, #64
 1444 001c 0021     		movs	r1, #0
 1445 001e 1846     		mov	r0, r3
 1446 0020 FFF7FEFF 		bl	memset
 375:E:/LiteOS/LiteOS_Lab/iot_link/oc/oc_lwm2m/oc_lwm2m_imp/boudica150\boudica150_oc.c ****         memset(cmp,0,64);
 1447              		.loc 1 375 0
 1448 0024 07F10C03 		add	r3, r7, #12
 1449 0028 4022     		movs	r2, #64
 1450 002a 0021     		movs	r1, #0
 1451 002c 1846     		mov	r0, r3
 1452 002e FFF7FEFF 		bl	memset
 376:E:/LiteOS/LiteOS_Lab/iot_link/oc/oc_lwm2m/oc_lwm2m_imp/boudica150\boudica150_oc.c ****         memset(cmd,0,64);
 1453              		.loc 1 376 0
 1454 0032 07F18C03 		add	r3, r7, #140
 1455 0036 4022     		movs	r2, #64
 1456 0038 0021     		movs	r1, #0
 1457 003a 1846     		mov	r0, r3
 1458 003c FFF7FEFF 		bl	memset
ARM GAS  C:\Users\user\AppData\Local\Temp\ccQ1o4Rh.s 			page 34


 377:E:/LiteOS/LiteOS_Lab/iot_link/oc/oc_lwm2m/oc_lwm2m_imp/boudica150\boudica150_oc.c ****         ret = boudica150_atcmd_response("AT+NCDP?\r","OK",resp,64);
 1459              		.loc 1 377 0
 1460 0040 07F14C02 		add	r2, r7, #76
 1461 0044 4023     		movs	r3, #64
 1462 0046 2049     		ldr	r1, .L85
 1463 0048 2048     		ldr	r0, .L85+4
 1464 004a FFF7FEFF 		bl	boudica150_atcmd_response
 1465 004e C7F8CC00 		str	r0, [r7, #204]
 378:E:/LiteOS/LiteOS_Lab/iot_link/oc/oc_lwm2m/oc_lwm2m_imp/boudica150\boudica150_oc.c ****         snprintf(cmp,64,"+NCDP:%s,%s\r",server,port);
 1466              		.loc 1 378 0
 1467 0052 07F10C00 		add	r0, r7, #12
 1468 0056 3B68     		ldr	r3, [r7]
 1469 0058 0093     		str	r3, [sp]
 1470 005a 7B68     		ldr	r3, [r7, #4]
 1471 005c 1C4A     		ldr	r2, .L85+8
 1472 005e 4021     		movs	r1, #64
 1473 0060 FFF7FEFF 		bl	snprintf
 1474              	.LBB11:
 379:E:/LiteOS/LiteOS_Lab/iot_link/oc/oc_lwm2m/oc_lwm2m_imp/boudica150\boudica150_oc.c ****         if((false == ret)||(NULL == strstr(resp,cmp)))//which means we need to set it
 1475              		.loc 1 379 0
 1476 0064 D7F8CC30 		ldr	r3, [r7, #204]
 1477 0068 002B     		cmp	r3, #0
 1478 006a 0AD0     		beq	.L82
 1479              		.loc 1 379 0 is_stmt 0 discriminator 1
 1480 006c 07F10C02 		add	r2, r7, #12
 1481 0070 07F14C03 		add	r3, r7, #76
 1482 0074 1146     		mov	r1, r2
 1483 0076 1846     		mov	r0, r3
 1484 0078 FFF7FEFF 		bl	strstr
 1485 007c 0346     		mov	r3, r0
 1486 007e 002B     		cmp	r3, #0
 1487 0080 18D1     		bne	.L83
 1488              	.L82:
 380:E:/LiteOS/LiteOS_Lab/iot_link/oc/oc_lwm2m/oc_lwm2m_imp/boudica150\boudica150_oc.c ****         {
 381:E:/LiteOS/LiteOS_Lab/iot_link/oc/oc_lwm2m/oc_lwm2m_imp/boudica150\boudica150_oc.c ****             memset(cmd,0,64);
 1489              		.loc 1 381 0 is_stmt 1
 1490 0082 07F18C03 		add	r3, r7, #140
 1491 0086 4022     		movs	r2, #64
 1492 0088 0021     		movs	r1, #0
 1493 008a 1846     		mov	r0, r3
 1494 008c FFF7FEFF 		bl	memset
 382:E:/LiteOS/LiteOS_Lab/iot_link/oc/oc_lwm2m/oc_lwm2m_imp/boudica150\boudica150_oc.c ****             snprintf(cmd,64,"AT+NCDP=%s,%s\r",server,port);
 1495              		.loc 1 382 0
 1496 0090 07F18C00 		add	r0, r7, #140
 1497 0094 3B68     		ldr	r3, [r7]
 1498 0096 0093     		str	r3, [sp]
 1499 0098 7B68     		ldr	r3, [r7, #4]
 1500 009a 0E4A     		ldr	r2, .L85+12
 1501 009c 4021     		movs	r1, #64
 1502 009e FFF7FEFF 		bl	snprintf
 383:E:/LiteOS/LiteOS_Lab/iot_link/oc/oc_lwm2m/oc_lwm2m_imp/boudica150\boudica150_oc.c ****             ret = boudica150_atcmd(cmd,"OK");
 1503              		.loc 1 383 0
 1504 00a2 07F18C03 		add	r3, r7, #140
 1505 00a6 0849     		ldr	r1, .L85
 1506 00a8 1846     		mov	r0, r3
 1507 00aa FFF7FEFF 		bl	boudica150_atcmd
 1508 00ae C7F8CC00 		str	r0, [r7, #204]
ARM GAS  C:\Users\user\AppData\Local\Temp\ccQ1o4Rh.s 			page 35


 1509 00b2 02E0     		b	.L81
 1510              	.L83:
 384:E:/LiteOS/LiteOS_Lab/iot_link/oc/oc_lwm2m/oc_lwm2m_imp/boudica150\boudica150_oc.c ****         }
 385:E:/LiteOS/LiteOS_Lab/iot_link/oc/oc_lwm2m/oc_lwm2m_imp/boudica150\boudica150_oc.c ****         else
 386:E:/LiteOS/LiteOS_Lab/iot_link/oc/oc_lwm2m/oc_lwm2m_imp/boudica150\boudica150_oc.c ****         {
 387:E:/LiteOS/LiteOS_Lab/iot_link/oc/oc_lwm2m/oc_lwm2m_imp/boudica150\boudica150_oc.c ****             ret = true;  //we need not to set
 1511              		.loc 1 387 0
 1512 00b4 0123     		movs	r3, #1
 1513 00b6 C7F8CC30 		str	r3, [r7, #204]
 1514              	.L81:
 1515              	.LBE11:
 1516              	.LBE10:
 388:E:/LiteOS/LiteOS_Lab/iot_link/oc/oc_lwm2m/oc_lwm2m_imp/boudica150\boudica150_oc.c ****         }
 389:E:/LiteOS/LiteOS_Lab/iot_link/oc/oc_lwm2m/oc_lwm2m_imp/boudica150\boudica150_oc.c ****     }
 390:E:/LiteOS/LiteOS_Lab/iot_link/oc/oc_lwm2m/oc_lwm2m_imp/boudica150\boudica150_oc.c ****     return ret;
 1517              		.loc 1 390 0
 1518 00ba D7F8CC30 		ldr	r3, [r7, #204]
 391:E:/LiteOS/LiteOS_Lab/iot_link/oc/oc_lwm2m/oc_lwm2m_imp/boudica150\boudica150_oc.c **** }
 1519              		.loc 1 391 0
 1520 00be 1846     		mov	r0, r3
 1521 00c0 D037     		adds	r7, r7, #208
 1522              	.LCFI61:
 1523              		.cfi_def_cfa_offset 8
 1524 00c2 BD46     		mov	sp, r7
 1525              	.LCFI62:
 1526              		.cfi_def_cfa_register 13
 1527              		@ sp needed
 1528 00c4 80BD     		pop	{r7, pc}
 1529              	.L86:
 1530 00c6 00BF     		.align	2
 1531              	.L85:
 1532 00c8 14000000 		.word	.LC2
 1533 00cc 58010000 		.word	.LC23
 1534 00d0 64010000 		.word	.LC24
 1535 00d4 74010000 		.word	.LC25
 1536              		.cfi_endproc
 1537              	.LFE15:
 1539              		.section	.rodata
 1540 0183 00       		.align	2
 1541              	.LC26:
 1542 0184 41542B43 		.ascii	"AT+CMEE=%d\015\000"
 1542      4D45453D 
 1542      25640D00 
 1543              		.section	.text.boudica150_set_cmee,"ax",%progbits
 1544              		.align	1
 1545              		.syntax unified
 1546              		.thumb
 1547              		.thumb_func
 1548              		.fpu fpv4-sp-d16
 1550              	boudica150_set_cmee:
 1551              	.LFB16:
 392:E:/LiteOS/LiteOS_Lab/iot_link/oc/oc_lwm2m/oc_lwm2m_imp/boudica150\boudica150_oc.c **** 
 393:E:/LiteOS/LiteOS_Lab/iot_link/oc/oc_lwm2m/oc_lwm2m_imp/boudica150\boudica150_oc.c **** //enable the cmee
 394:E:/LiteOS/LiteOS_Lab/iot_link/oc/oc_lwm2m/oc_lwm2m_imp/boudica150\boudica150_oc.c **** 
 395:E:/LiteOS/LiteOS_Lab/iot_link/oc/oc_lwm2m/oc_lwm2m_imp/boudica150\boudica150_oc.c **** static bool_t boudica150_set_cmee(int enable)
 396:E:/LiteOS/LiteOS_Lab/iot_link/oc/oc_lwm2m/oc_lwm2m_imp/boudica150\boudica150_oc.c **** {
 1552              		.loc 1 396 0
ARM GAS  C:\Users\user\AppData\Local\Temp\ccQ1o4Rh.s 			page 36


 1553              		.cfi_startproc
 1554              		@ args = 0, pretend = 0, frame = 80
 1555              		@ frame_needed = 1, uses_anonymous_args = 0
 1556 0000 80B5     		push	{r7, lr}
 1557              	.LCFI63:
 1558              		.cfi_def_cfa_offset 8
 1559              		.cfi_offset 7, -8
 1560              		.cfi_offset 14, -4
 1561 0002 94B0     		sub	sp, sp, #80
 1562              	.LCFI64:
 1563              		.cfi_def_cfa_offset 88
 1564 0004 00AF     		add	r7, sp, #0
 1565              	.LCFI65:
 1566              		.cfi_def_cfa_register 7
 1567 0006 7860     		str	r0, [r7, #4]
 397:E:/LiteOS/LiteOS_Lab/iot_link/oc/oc_lwm2m/oc_lwm2m_imp/boudica150\boudica150_oc.c ****     bool_t ret;
 398:E:/LiteOS/LiteOS_Lab/iot_link/oc/oc_lwm2m/oc_lwm2m_imp/boudica150\boudica150_oc.c ****     char cmd[64];
 399:E:/LiteOS/LiteOS_Lab/iot_link/oc/oc_lwm2m/oc_lwm2m_imp/boudica150\boudica150_oc.c **** 
 400:E:/LiteOS/LiteOS_Lab/iot_link/oc/oc_lwm2m/oc_lwm2m_imp/boudica150\boudica150_oc.c ****     memset(cmd,0,64);
 1568              		.loc 1 400 0
 1569 0008 07F10C03 		add	r3, r7, #12
 1570 000c 4022     		movs	r2, #64
 1571 000e 0021     		movs	r1, #0
 1572 0010 1846     		mov	r0, r3
 1573 0012 FFF7FEFF 		bl	memset
 401:E:/LiteOS/LiteOS_Lab/iot_link/oc/oc_lwm2m/oc_lwm2m_imp/boudica150\boudica150_oc.c ****     snprintf(cmd,64,"AT+CMEE=%d\r",enable);
 1574              		.loc 1 401 0
 1575 0016 07F10C00 		add	r0, r7, #12
 1576 001a 7B68     		ldr	r3, [r7, #4]
 1577 001c 074A     		ldr	r2, .L89
 1578 001e 4021     		movs	r1, #64
 1579 0020 FFF7FEFF 		bl	snprintf
 402:E:/LiteOS/LiteOS_Lab/iot_link/oc/oc_lwm2m/oc_lwm2m_imp/boudica150\boudica150_oc.c **** 
 403:E:/LiteOS/LiteOS_Lab/iot_link/oc/oc_lwm2m/oc_lwm2m_imp/boudica150\boudica150_oc.c ****     ret = boudica150_atcmd(cmd,"OK");
 1580              		.loc 1 403 0
 1581 0024 07F10C03 		add	r3, r7, #12
 1582 0028 0549     		ldr	r1, .L89+4
 1583 002a 1846     		mov	r0, r3
 1584 002c FFF7FEFF 		bl	boudica150_atcmd
 1585 0030 F864     		str	r0, [r7, #76]
 404:E:/LiteOS/LiteOS_Lab/iot_link/oc/oc_lwm2m/oc_lwm2m_imp/boudica150\boudica150_oc.c **** 
 405:E:/LiteOS/LiteOS_Lab/iot_link/oc/oc_lwm2m/oc_lwm2m_imp/boudica150\boudica150_oc.c ****     return ret;
 1586              		.loc 1 405 0
 1587 0032 FB6C     		ldr	r3, [r7, #76]
 406:E:/LiteOS/LiteOS_Lab/iot_link/oc/oc_lwm2m/oc_lwm2m_imp/boudica150\boudica150_oc.c **** }
 1588              		.loc 1 406 0
 1589 0034 1846     		mov	r0, r3
 1590 0036 5037     		adds	r7, r7, #80
 1591              	.LCFI66:
 1592              		.cfi_def_cfa_offset 8
 1593 0038 BD46     		mov	sp, r7
 1594              	.LCFI67:
 1595              		.cfi_def_cfa_register 13
 1596              		@ sp needed
 1597 003a 80BD     		pop	{r7, pc}
 1598              	.L90:
 1599              		.align	2
ARM GAS  C:\Users\user\AppData\Local\Temp\ccQ1o4Rh.s 			page 37


 1600              	.L89:
 1601 003c 84010000 		.word	.LC26
 1602 0040 14000000 		.word	.LC2
 1603              		.cfi_endproc
 1604              	.LFE16:
 1606              		.section	.rodata
 1607              		.align	2
 1608              	.LC27:
 1609 0190 41542B43 		.ascii	"AT+CGATT=%d\015\000"
 1609      47415454 
 1609      3D25640D 
 1609      00
 1610              		.section	.text.boudica150_set_cgatt,"ax",%progbits
 1611              		.align	1
 1612              		.syntax unified
 1613              		.thumb
 1614              		.thumb_func
 1615              		.fpu fpv4-sp-d16
 1617              	boudica150_set_cgatt:
 1618              	.LFB17:
 407:E:/LiteOS/LiteOS_Lab/iot_link/oc/oc_lwm2m/oc_lwm2m_imp/boudica150\boudica150_oc.c **** 
 408:E:/LiteOS/LiteOS_Lab/iot_link/oc/oc_lwm2m/oc_lwm2m_imp/boudica150\boudica150_oc.c **** //enable the network
 409:E:/LiteOS/LiteOS_Lab/iot_link/oc/oc_lwm2m/oc_lwm2m_imp/boudica150\boudica150_oc.c **** static bool_t boudica150_set_cgatt(int enable)  //unit second
 410:E:/LiteOS/LiteOS_Lab/iot_link/oc/oc_lwm2m/oc_lwm2m_imp/boudica150\boudica150_oc.c **** {
 1619              		.loc 1 410 0
 1620              		.cfi_startproc
 1621              		@ args = 0, pretend = 0, frame = 80
 1622              		@ frame_needed = 1, uses_anonymous_args = 0
 1623 0000 80B5     		push	{r7, lr}
 1624              	.LCFI68:
 1625              		.cfi_def_cfa_offset 8
 1626              		.cfi_offset 7, -8
 1627              		.cfi_offset 14, -4
 1628 0002 94B0     		sub	sp, sp, #80
 1629              	.LCFI69:
 1630              		.cfi_def_cfa_offset 88
 1631 0004 00AF     		add	r7, sp, #0
 1632              	.LCFI70:
 1633              		.cfi_def_cfa_register 7
 1634 0006 7860     		str	r0, [r7, #4]
 411:E:/LiteOS/LiteOS_Lab/iot_link/oc/oc_lwm2m/oc_lwm2m_imp/boudica150\boudica150_oc.c ****     bool_t ret ;
 412:E:/LiteOS/LiteOS_Lab/iot_link/oc/oc_lwm2m/oc_lwm2m_imp/boudica150\boudica150_oc.c ****     char cmd[64];
 413:E:/LiteOS/LiteOS_Lab/iot_link/oc/oc_lwm2m/oc_lwm2m_imp/boudica150\boudica150_oc.c **** 
 414:E:/LiteOS/LiteOS_Lab/iot_link/oc/oc_lwm2m/oc_lwm2m_imp/boudica150\boudica150_oc.c ****     memset(cmd,0,64);
 1635              		.loc 1 414 0
 1636 0008 07F10C03 		add	r3, r7, #12
 1637 000c 4022     		movs	r2, #64
 1638 000e 0021     		movs	r1, #0
 1639 0010 1846     		mov	r0, r3
 1640 0012 FFF7FEFF 		bl	memset
 415:E:/LiteOS/LiteOS_Lab/iot_link/oc/oc_lwm2m/oc_lwm2m_imp/boudica150\boudica150_oc.c ****     snprintf(cmd,64,"AT+CGATT=%d\r",enable);
 1641              		.loc 1 415 0
 1642 0016 07F10C00 		add	r0, r7, #12
 1643 001a 7B68     		ldr	r3, [r7, #4]
 1644 001c 074A     		ldr	r2, .L93
 1645 001e 4021     		movs	r1, #64
 1646 0020 FFF7FEFF 		bl	snprintf
ARM GAS  C:\Users\user\AppData\Local\Temp\ccQ1o4Rh.s 			page 38


 416:E:/LiteOS/LiteOS_Lab/iot_link/oc/oc_lwm2m/oc_lwm2m_imp/boudica150\boudica150_oc.c **** 
 417:E:/LiteOS/LiteOS_Lab/iot_link/oc/oc_lwm2m/oc_lwm2m_imp/boudica150\boudica150_oc.c ****     ret = boudica150_atcmd(cmd,"OK");
 1647              		.loc 1 417 0
 1648 0024 07F10C03 		add	r3, r7, #12
 1649 0028 0549     		ldr	r1, .L93+4
 1650 002a 1846     		mov	r0, r3
 1651 002c FFF7FEFF 		bl	boudica150_atcmd
 1652 0030 F864     		str	r0, [r7, #76]
 418:E:/LiteOS/LiteOS_Lab/iot_link/oc/oc_lwm2m/oc_lwm2m_imp/boudica150\boudica150_oc.c **** 
 419:E:/LiteOS/LiteOS_Lab/iot_link/oc/oc_lwm2m/oc_lwm2m_imp/boudica150\boudica150_oc.c ****     return ret;
 1653              		.loc 1 419 0
 1654 0032 FB6C     		ldr	r3, [r7, #76]
 420:E:/LiteOS/LiteOS_Lab/iot_link/oc/oc_lwm2m/oc_lwm2m_imp/boudica150\boudica150_oc.c **** }
 1655              		.loc 1 420 0
 1656 0034 1846     		mov	r0, r3
 1657 0036 5037     		adds	r7, r7, #80
 1658              	.LCFI71:
 1659              		.cfi_def_cfa_offset 8
 1660 0038 BD46     		mov	sp, r7
 1661              	.LCFI72:
 1662              		.cfi_def_cfa_register 13
 1663              		@ sp needed
 1664 003a 80BD     		pop	{r7, pc}
 1665              	.L94:
 1666              		.align	2
 1667              	.L93:
 1668 003c 90010000 		.word	.LC27
 1669 0040 14000000 		.word	.LC2
 1670              		.cfi_endproc
 1671              	.LFE17:
 1673              		.section	.rodata
 1674 019d 000000   		.align	2
 1675              	.LC28:
 1676 01a0 41542B4E 		.ascii	"AT+NNMI=%d\015\000"
 1676      4E4D493D 
 1676      25640D00 
 1677              		.section	.text.boudica150_set_nnmi,"ax",%progbits
 1678              		.align	1
 1679              		.syntax unified
 1680              		.thumb
 1681              		.thumb_func
 1682              		.fpu fpv4-sp-d16
 1684              	boudica150_set_nnmi:
 1685              	.LFB18:
 421:E:/LiteOS/LiteOS_Lab/iot_link/oc/oc_lwm2m/oc_lwm2m_imp/boudica150\boudica150_oc.c **** 
 422:E:/LiteOS/LiteOS_Lab/iot_link/oc/oc_lwm2m/oc_lwm2m_imp/boudica150\boudica150_oc.c **** //enable the NNMI
 423:E:/LiteOS/LiteOS_Lab/iot_link/oc/oc_lwm2m/oc_lwm2m_imp/boudica150\boudica150_oc.c **** static bool_t boudica150_set_nnmi(int enable)  //unit second
 424:E:/LiteOS/LiteOS_Lab/iot_link/oc/oc_lwm2m/oc_lwm2m_imp/boudica150\boudica150_oc.c **** {
 1686              		.loc 1 424 0
 1687              		.cfi_startproc
 1688              		@ args = 0, pretend = 0, frame = 80
 1689              		@ frame_needed = 1, uses_anonymous_args = 0
 1690 0000 80B5     		push	{r7, lr}
 1691              	.LCFI73:
 1692              		.cfi_def_cfa_offset 8
 1693              		.cfi_offset 7, -8
 1694              		.cfi_offset 14, -4
ARM GAS  C:\Users\user\AppData\Local\Temp\ccQ1o4Rh.s 			page 39


 1695 0002 94B0     		sub	sp, sp, #80
 1696              	.LCFI74:
 1697              		.cfi_def_cfa_offset 88
 1698 0004 00AF     		add	r7, sp, #0
 1699              	.LCFI75:
 1700              		.cfi_def_cfa_register 7
 1701 0006 7860     		str	r0, [r7, #4]
 425:E:/LiteOS/LiteOS_Lab/iot_link/oc/oc_lwm2m/oc_lwm2m_imp/boudica150\boudica150_oc.c ****     bool_t ret ;
 426:E:/LiteOS/LiteOS_Lab/iot_link/oc/oc_lwm2m/oc_lwm2m_imp/boudica150\boudica150_oc.c ****     char cmd[64];
 427:E:/LiteOS/LiteOS_Lab/iot_link/oc/oc_lwm2m/oc_lwm2m_imp/boudica150\boudica150_oc.c **** 
 428:E:/LiteOS/LiteOS_Lab/iot_link/oc/oc_lwm2m/oc_lwm2m_imp/boudica150\boudica150_oc.c ****     memset(cmd,0,64);
 1702              		.loc 1 428 0
 1703 0008 07F10C03 		add	r3, r7, #12
 1704 000c 4022     		movs	r2, #64
 1705 000e 0021     		movs	r1, #0
 1706 0010 1846     		mov	r0, r3
 1707 0012 FFF7FEFF 		bl	memset
 429:E:/LiteOS/LiteOS_Lab/iot_link/oc/oc_lwm2m/oc_lwm2m_imp/boudica150\boudica150_oc.c ****     snprintf(cmd,64,"AT+NNMI=%d\r",enable);
 1708              		.loc 1 429 0
 1709 0016 07F10C00 		add	r0, r7, #12
 1710 001a 7B68     		ldr	r3, [r7, #4]
 1711 001c 074A     		ldr	r2, .L97
 1712 001e 4021     		movs	r1, #64
 1713 0020 FFF7FEFF 		bl	snprintf
 430:E:/LiteOS/LiteOS_Lab/iot_link/oc/oc_lwm2m/oc_lwm2m_imp/boudica150\boudica150_oc.c **** 
 431:E:/LiteOS/LiteOS_Lab/iot_link/oc/oc_lwm2m/oc_lwm2m_imp/boudica150\boudica150_oc.c ****     ret = boudica150_atcmd(cmd,"OK");
 1714              		.loc 1 431 0
 1715 0024 07F10C03 		add	r3, r7, #12
 1716 0028 0549     		ldr	r1, .L97+4
 1717 002a 1846     		mov	r0, r3
 1718 002c FFF7FEFF 		bl	boudica150_atcmd
 1719 0030 F864     		str	r0, [r7, #76]
 432:E:/LiteOS/LiteOS_Lab/iot_link/oc/oc_lwm2m/oc_lwm2m_imp/boudica150\boudica150_oc.c **** 
 433:E:/LiteOS/LiteOS_Lab/iot_link/oc/oc_lwm2m/oc_lwm2m_imp/boudica150\boudica150_oc.c ****     return ret;
 1720              		.loc 1 433 0
 1721 0032 FB6C     		ldr	r3, [r7, #76]
 434:E:/LiteOS/LiteOS_Lab/iot_link/oc/oc_lwm2m/oc_lwm2m_imp/boudica150\boudica150_oc.c **** }
 1722              		.loc 1 434 0
 1723 0034 1846     		mov	r0, r3
 1724 0036 5037     		adds	r7, r7, #80
 1725              	.LCFI76:
 1726              		.cfi_def_cfa_offset 8
 1727 0038 BD46     		mov	sp, r7
 1728              	.LCFI77:
 1729              		.cfi_def_cfa_register 13
 1730              		@ sp needed
 1731 003a 80BD     		pop	{r7, pc}
 1732              	.L98:
 1733              		.align	2
 1734              	.L97:
 1735 003c A0010000 		.word	.LC28
 1736 0040 14000000 		.word	.LC2
 1737              		.cfi_endproc
 1738              	.LFE18:
 1740              		.section	.rodata
 1741              		.align	2
 1742              	.LC29:
ARM GAS  C:\Users\user\AppData\Local\Temp\ccQ1o4Rh.s 			page 40


 1743 01ac 47455420 		.ascii	"GET THE LWM2M:ind:%d\012\015\000"
 1743      54484520 
 1743      4C574D32 
 1743      4D3A696E 
 1743      643A2564 
 1744              		.section	.text.urc_qlwevtind,"ax",%progbits
 1745              		.align	1
 1746              		.syntax unified
 1747              		.thumb
 1748              		.thumb_func
 1749              		.fpu fpv4-sp-d16
 1751              	urc_qlwevtind:
 1752              	.LFB19:
 435:E:/LiteOS/LiteOS_Lab/iot_link/oc/oc_lwm2m/oc_lwm2m_imp/boudica150\boudica150_oc.c **** 
 436:E:/LiteOS/LiteOS_Lab/iot_link/oc/oc_lwm2m/oc_lwm2m_imp/boudica150\boudica150_oc.c **** 
 437:E:/LiteOS/LiteOS_Lab/iot_link/oc/oc_lwm2m/oc_lwm2m_imp/boudica150\boudica150_oc.c **** //wait for the lwm2m observe
 438:E:/LiteOS/LiteOS_Lab/iot_link/oc/oc_lwm2m/oc_lwm2m_imp/boudica150\boudica150_oc.c **** static int urc_qlwevtind(unsigned char *data,int len)
 439:E:/LiteOS/LiteOS_Lab/iot_link/oc/oc_lwm2m/oc_lwm2m_imp/boudica150\boudica150_oc.c **** {
 1753              		.loc 1 439 0
 1754              		.cfi_startproc
 1755              		@ args = 0, pretend = 0, frame = 16
 1756              		@ frame_needed = 1, uses_anonymous_args = 0
 1757 0000 80B5     		push	{r7, lr}
 1758              	.LCFI78:
 1759              		.cfi_def_cfa_offset 8
 1760              		.cfi_offset 7, -8
 1761              		.cfi_offset 14, -4
 1762 0002 84B0     		sub	sp, sp, #16
 1763              	.LCFI79:
 1764              		.cfi_def_cfa_offset 24
 1765 0004 00AF     		add	r7, sp, #0
 1766              	.LCFI80:
 1767              		.cfi_def_cfa_register 7
 1768 0006 7860     		str	r0, [r7, #4]
 1769 0008 3960     		str	r1, [r7]
 440:E:/LiteOS/LiteOS_Lab/iot_link/oc/oc_lwm2m/oc_lwm2m_imp/boudica150\boudica150_oc.c **** 
 441:E:/LiteOS/LiteOS_Lab/iot_link/oc/oc_lwm2m/oc_lwm2m_imp/boudica150\boudica150_oc.c ****     int index_str;
 442:E:/LiteOS/LiteOS_Lab/iot_link/oc/oc_lwm2m/oc_lwm2m_imp/boudica150\boudica150_oc.c ****     int ind;
 443:E:/LiteOS/LiteOS_Lab/iot_link/oc/oc_lwm2m/oc_lwm2m_imp/boudica150\boudica150_oc.c ****     index_str = strlen(cn_urc_qlwevtind);
 1770              		.loc 1 443 0
 1771 000a 0D23     		movs	r3, #13
 1772 000c FB60     		str	r3, [r7, #12]
 444:E:/LiteOS/LiteOS_Lab/iot_link/oc/oc_lwm2m/oc_lwm2m_imp/boudica150\boudica150_oc.c **** 
 445:E:/LiteOS/LiteOS_Lab/iot_link/oc/oc_lwm2m/oc_lwm2m_imp/boudica150\boudica150_oc.c ****     if(len > index_str)
 1773              		.loc 1 445 0
 1774 000e 3A68     		ldr	r2, [r7]
 1775 0010 FB68     		ldr	r3, [r7, #12]
 1776 0012 9A42     		cmp	r2, r3
 1777 0014 10DD     		ble	.L100
 446:E:/LiteOS/LiteOS_Lab/iot_link/oc/oc_lwm2m/oc_lwm2m_imp/boudica150\boudica150_oc.c ****     {
 447:E:/LiteOS/LiteOS_Lab/iot_link/oc/oc_lwm2m/oc_lwm2m_imp/boudica150\boudica150_oc.c ****         ind = data[index_str]-'0';
 1778              		.loc 1 447 0
 1779 0016 FB68     		ldr	r3, [r7, #12]
 1780 0018 7A68     		ldr	r2, [r7, #4]
 1781 001a 1344     		add	r3, r3, r2
 1782 001c 1B78     		ldrb	r3, [r3]	@ zero_extendqisi2
 1783 001e 303B     		subs	r3, r3, #48
ARM GAS  C:\Users\user\AppData\Local\Temp\ccQ1o4Rh.s 			page 41


 1784 0020 BB60     		str	r3, [r7, #8]
 448:E:/LiteOS/LiteOS_Lab/iot_link/oc/oc_lwm2m/oc_lwm2m_imp/boudica150\boudica150_oc.c ****         printf("GET THE LWM2M:ind:%d\n\r",ind);
 1785              		.loc 1 448 0
 1786 0022 B968     		ldr	r1, [r7, #8]
 1787 0024 0748     		ldr	r0, .L102
 1788 0026 FFF7FEFF 		bl	printf
 449:E:/LiteOS/LiteOS_Lab/iot_link/oc/oc_lwm2m/oc_lwm2m_imp/boudica150\boudica150_oc.c ****         if(ind == 3)
 1789              		.loc 1 449 0
 1790 002a BB68     		ldr	r3, [r7, #8]
 1791 002c 032B     		cmp	r3, #3
 1792 002e 03D1     		bne	.L100
 450:E:/LiteOS/LiteOS_Lab/iot_link/oc/oc_lwm2m/oc_lwm2m_imp/boudica150\boudica150_oc.c ****         {
 451:E:/LiteOS/LiteOS_Lab/iot_link/oc/oc_lwm2m/oc_lwm2m_imp/boudica150\boudica150_oc.c ****             s_boudica150_oc_cb.lwm2m_observe = true;
 1793              		.loc 1 451 0
 1794 0030 054B     		ldr	r3, .L102+4
 1795 0032 0122     		movs	r2, #1
 1796 0034 C3F85421 		str	r2, [r3, #340]
 1797              	.L100:
 452:E:/LiteOS/LiteOS_Lab/iot_link/oc/oc_lwm2m/oc_lwm2m_imp/boudica150\boudica150_oc.c ****         }
 453:E:/LiteOS/LiteOS_Lab/iot_link/oc/oc_lwm2m/oc_lwm2m_imp/boudica150\boudica150_oc.c ****     }
 454:E:/LiteOS/LiteOS_Lab/iot_link/oc/oc_lwm2m/oc_lwm2m_imp/boudica150\boudica150_oc.c ****     return len;
 1798              		.loc 1 454 0
 1799 0038 3B68     		ldr	r3, [r7]
 455:E:/LiteOS/LiteOS_Lab/iot_link/oc/oc_lwm2m/oc_lwm2m_imp/boudica150\boudica150_oc.c **** }
 1800              		.loc 1 455 0
 1801 003a 1846     		mov	r0, r3
 1802 003c 1037     		adds	r7, r7, #16
 1803              	.LCFI81:
 1804              		.cfi_def_cfa_offset 8
 1805 003e BD46     		mov	sp, r7
 1806              	.LCFI82:
 1807              		.cfi_def_cfa_register 13
 1808              		@ sp needed
 1809 0040 80BD     		pop	{r7, pc}
 1810              	.L103:
 1811 0042 00BF     		.align	2
 1812              	.L102:
 1813 0044 AC010000 		.word	.LC29
 1814 0048 00000000 		.word	s_boudica150_oc_cb
 1815              		.cfi_endproc
 1816              	.LFE19:
 1818              		.section	.text.boudica150_check_observe,"ax",%progbits
 1819              		.align	1
 1820              		.syntax unified
 1821              		.thumb
 1822              		.thumb_func
 1823              		.fpu fpv4-sp-d16
 1825              	boudica150_check_observe:
 1826              	.LFB20:
 456:E:/LiteOS/LiteOS_Lab/iot_link/oc/oc_lwm2m/oc_lwm2m_imp/boudica150\boudica150_oc.c **** 
 457:E:/LiteOS/LiteOS_Lab/iot_link/oc/oc_lwm2m/oc_lwm2m_imp/boudica150\boudica150_oc.c **** 
 458:E:/LiteOS/LiteOS_Lab/iot_link/oc/oc_lwm2m/oc_lwm2m_imp/boudica150\boudica150_oc.c **** //check the lwm2m server observed
 459:E:/LiteOS/LiteOS_Lab/iot_link/oc/oc_lwm2m/oc_lwm2m_imp/boudica150\boudica150_oc.c **** static bool_t boudica150_check_observe(int time)  //unit second
 460:E:/LiteOS/LiteOS_Lab/iot_link/oc/oc_lwm2m/oc_lwm2m_imp/boudica150\boudica150_oc.c **** {
 1827              		.loc 1 460 0
 1828              		.cfi_startproc
 1829              		@ args = 0, pretend = 0, frame = 16
ARM GAS  C:\Users\user\AppData\Local\Temp\ccQ1o4Rh.s 			page 42


 1830              		@ frame_needed = 1, uses_anonymous_args = 0
 1831 0000 80B5     		push	{r7, lr}
 1832              	.LCFI83:
 1833              		.cfi_def_cfa_offset 8
 1834              		.cfi_offset 7, -8
 1835              		.cfi_offset 14, -4
 1836 0002 84B0     		sub	sp, sp, #16
 1837              	.LCFI84:
 1838              		.cfi_def_cfa_offset 24
 1839 0004 00AF     		add	r7, sp, #0
 1840              	.LCFI85:
 1841              		.cfi_def_cfa_register 7
 1842 0006 7860     		str	r0, [r7, #4]
 461:E:/LiteOS/LiteOS_Lab/iot_link/oc/oc_lwm2m/oc_lwm2m_imp/boudica150\boudica150_oc.c ****     //wait for the server observed
 462:E:/LiteOS/LiteOS_Lab/iot_link/oc/oc_lwm2m/oc_lwm2m_imp/boudica150\boudica150_oc.c ****     bool_t ret = false;
 1843              		.loc 1 462 0
 1844 0008 0023     		movs	r3, #0
 1845 000a FB60     		str	r3, [r7, #12]
 463:E:/LiteOS/LiteOS_Lab/iot_link/oc/oc_lwm2m/oc_lwm2m_imp/boudica150\boudica150_oc.c ****     int times;
 464:E:/LiteOS/LiteOS_Lab/iot_link/oc/oc_lwm2m/oc_lwm2m_imp/boudica150\boudica150_oc.c **** 
 465:E:/LiteOS/LiteOS_Lab/iot_link/oc/oc_lwm2m/oc_lwm2m_imp/boudica150\boudica150_oc.c ****     for(times =0;times <time;times++ )
 1846              		.loc 1 465 0
 1847 000c 0023     		movs	r3, #0
 1848 000e BB60     		str	r3, [r7, #8]
 1849 0010 0EE0     		b	.L105
 1850              	.L108:
 466:E:/LiteOS/LiteOS_Lab/iot_link/oc/oc_lwm2m/oc_lwm2m_imp/boudica150\boudica150_oc.c ****     {
 467:E:/LiteOS/LiteOS_Lab/iot_link/oc/oc_lwm2m/oc_lwm2m_imp/boudica150\boudica150_oc.c ****         if(s_boudica150_oc_cb.lwm2m_observe )
 1851              		.loc 1 467 0
 1852 0012 0C4B     		ldr	r3, .L110
 1853 0014 D3F85431 		ldr	r3, [r3, #340]
 1854 0018 002B     		cmp	r3, #0
 1855 001a 02D0     		beq	.L106
 468:E:/LiteOS/LiteOS_Lab/iot_link/oc/oc_lwm2m/oc_lwm2m_imp/boudica150\boudica150_oc.c ****         {
 469:E:/LiteOS/LiteOS_Lab/iot_link/oc/oc_lwm2m/oc_lwm2m_imp/boudica150\boudica150_oc.c ****             ret = true;
 1856              		.loc 1 469 0
 1857 001c 0123     		movs	r3, #1
 1858 001e FB60     		str	r3, [r7, #12]
 470:E:/LiteOS/LiteOS_Lab/iot_link/oc/oc_lwm2m/oc_lwm2m_imp/boudica150\boudica150_oc.c ****             break;
 1859              		.loc 1 470 0
 1860 0020 0AE0     		b	.L107
 1861              	.L106:
 471:E:/LiteOS/LiteOS_Lab/iot_link/oc/oc_lwm2m/oc_lwm2m_imp/boudica150\boudica150_oc.c ****         }
 472:E:/LiteOS/LiteOS_Lab/iot_link/oc/oc_lwm2m/oc_lwm2m_imp/boudica150\boudica150_oc.c ****         osal_task_sleep(1000);
 1862              		.loc 1 472 0 discriminator 2
 1863 0022 4FF47A70 		mov	r0, #1000
 1864 0026 FFF7FEFF 		bl	osal_task_sleep
 465:E:/LiteOS/LiteOS_Lab/iot_link/oc/oc_lwm2m/oc_lwm2m_imp/boudica150\boudica150_oc.c ****     {
 1865              		.loc 1 465 0 discriminator 2
 1866 002a BB68     		ldr	r3, [r7, #8]
 1867 002c 0133     		adds	r3, r3, #1
 1868 002e BB60     		str	r3, [r7, #8]
 1869              	.L105:
 465:E:/LiteOS/LiteOS_Lab/iot_link/oc/oc_lwm2m/oc_lwm2m_imp/boudica150\boudica150_oc.c ****     {
 1870              		.loc 1 465 0 is_stmt 0 discriminator 1
 1871 0030 BA68     		ldr	r2, [r7, #8]
 1872 0032 7B68     		ldr	r3, [r7, #4]
ARM GAS  C:\Users\user\AppData\Local\Temp\ccQ1o4Rh.s 			page 43


 1873 0034 9A42     		cmp	r2, r3
 1874 0036 ECDB     		blt	.L108
 1875              	.L107:
 473:E:/LiteOS/LiteOS_Lab/iot_link/oc/oc_lwm2m/oc_lwm2m_imp/boudica150\boudica150_oc.c ****     }
 474:E:/LiteOS/LiteOS_Lab/iot_link/oc/oc_lwm2m/oc_lwm2m_imp/boudica150\boudica150_oc.c **** 
 475:E:/LiteOS/LiteOS_Lab/iot_link/oc/oc_lwm2m/oc_lwm2m_imp/boudica150\boudica150_oc.c ****     return ret;
 1876              		.loc 1 475 0 is_stmt 1
 1877 0038 FB68     		ldr	r3, [r7, #12]
 476:E:/LiteOS/LiteOS_Lab/iot_link/oc/oc_lwm2m/oc_lwm2m_imp/boudica150\boudica150_oc.c **** }
 1878              		.loc 1 476 0
 1879 003a 1846     		mov	r0, r3
 1880 003c 1037     		adds	r7, r7, #16
 1881              	.LCFI86:
 1882              		.cfi_def_cfa_offset 8
 1883 003e BD46     		mov	sp, r7
 1884              	.LCFI87:
 1885              		.cfi_def_cfa_register 13
 1886              		@ sp needed
 1887 0040 80BD     		pop	{r7, pc}
 1888              	.L111:
 1889 0042 00BF     		.align	2
 1890              	.L110:
 1891 0044 00000000 		.word	s_boudica150_oc_cb
 1892              		.cfi_endproc
 1893              	.LFE20:
 1895              		.section	.rodata
 1896 01c3 00       		.align	2
 1897              	.LC30:
 1898 01c4 43474154 		.ascii	"CGATT:1\000"
 1898      543A3100 
 1899              		.align	2
 1900              	.LC31:
 1901 01cc 41542B43 		.ascii	"AT+CGATT?\015\000"
 1901      47415454 
 1901      3F0D00
 1902              		.section	.text.boudica150_check_netattach,"ax",%progbits
 1903              		.align	1
 1904              		.syntax unified
 1905              		.thumb
 1906              		.thumb_func
 1907              		.fpu fpv4-sp-d16
 1909              	boudica150_check_netattach:
 1910              	.LFB21:
 477:E:/LiteOS/LiteOS_Lab/iot_link/oc/oc_lwm2m/oc_lwm2m_imp/boudica150\boudica150_oc.c **** 
 478:E:/LiteOS/LiteOS_Lab/iot_link/oc/oc_lwm2m/oc_lwm2m_imp/boudica150\boudica150_oc.c **** //check if attached to the network
 479:E:/LiteOS/LiteOS_Lab/iot_link/oc/oc_lwm2m/oc_lwm2m_imp/boudica150\boudica150_oc.c **** static bool_t boudica150_check_netattach(int time)  //unit second
 480:E:/LiteOS/LiteOS_Lab/iot_link/oc/oc_lwm2m/oc_lwm2m_imp/boudica150\boudica150_oc.c **** {
 1911              		.loc 1 480 0
 1912              		.cfi_startproc
 1913              		@ args = 0, pretend = 0, frame = 16
 1914              		@ frame_needed = 1, uses_anonymous_args = 0
 1915 0000 80B5     		push	{r7, lr}
 1916              	.LCFI88:
 1917              		.cfi_def_cfa_offset 8
 1918              		.cfi_offset 7, -8
 1919              		.cfi_offset 14, -4
 1920 0002 84B0     		sub	sp, sp, #16
ARM GAS  C:\Users\user\AppData\Local\Temp\ccQ1o4Rh.s 			page 44


 1921              	.LCFI89:
 1922              		.cfi_def_cfa_offset 24
 1923 0004 00AF     		add	r7, sp, #0
 1924              	.LCFI90:
 1925              		.cfi_def_cfa_register 7
 1926 0006 7860     		str	r0, [r7, #4]
 481:E:/LiteOS/LiteOS_Lab/iot_link/oc/oc_lwm2m/oc_lwm2m_imp/boudica150\boudica150_oc.c ****     //wait for the server observed
 482:E:/LiteOS/LiteOS_Lab/iot_link/oc/oc_lwm2m/oc_lwm2m_imp/boudica150\boudica150_oc.c ****     bool_t ret = false;
 1927              		.loc 1 482 0
 1928 0008 0023     		movs	r3, #0
 1929 000a FB60     		str	r3, [r7, #12]
 483:E:/LiteOS/LiteOS_Lab/iot_link/oc/oc_lwm2m/oc_lwm2m_imp/boudica150\boudica150_oc.c ****     int times;
 484:E:/LiteOS/LiteOS_Lab/iot_link/oc/oc_lwm2m/oc_lwm2m_imp/boudica150\boudica150_oc.c **** 
 485:E:/LiteOS/LiteOS_Lab/iot_link/oc/oc_lwm2m/oc_lwm2m_imp/boudica150\boudica150_oc.c ****     for(times =0;times <time;times++ )
 1930              		.loc 1 485 0
 1931 000c 0023     		movs	r3, #0
 1932 000e BB60     		str	r3, [r7, #8]
 1933 0010 10E0     		b	.L113
 1934              	.L116:
 486:E:/LiteOS/LiteOS_Lab/iot_link/oc/oc_lwm2m/oc_lwm2m_imp/boudica150\boudica150_oc.c ****     {
 487:E:/LiteOS/LiteOS_Lab/iot_link/oc/oc_lwm2m/oc_lwm2m_imp/boudica150\boudica150_oc.c ****         if(boudica150_atcmd("AT+CGATT?\r", "CGATT:1"))
 1935              		.loc 1 487 0
 1936 0012 0D49     		ldr	r1, .L118
 1937 0014 0D48     		ldr	r0, .L118+4
 1938 0016 FFF7FEFF 		bl	boudica150_atcmd
 1939 001a 0346     		mov	r3, r0
 1940 001c 002B     		cmp	r3, #0
 1941 001e 02D0     		beq	.L114
 488:E:/LiteOS/LiteOS_Lab/iot_link/oc/oc_lwm2m/oc_lwm2m_imp/boudica150\boudica150_oc.c ****         {
 489:E:/LiteOS/LiteOS_Lab/iot_link/oc/oc_lwm2m/oc_lwm2m_imp/boudica150\boudica150_oc.c ****             ret = true;
 1942              		.loc 1 489 0
 1943 0020 0123     		movs	r3, #1
 1944 0022 FB60     		str	r3, [r7, #12]
 490:E:/LiteOS/LiteOS_Lab/iot_link/oc/oc_lwm2m/oc_lwm2m_imp/boudica150\boudica150_oc.c ****             break;
 1945              		.loc 1 490 0
 1946 0024 0AE0     		b	.L115
 1947              	.L114:
 491:E:/LiteOS/LiteOS_Lab/iot_link/oc/oc_lwm2m/oc_lwm2m_imp/boudica150\boudica150_oc.c ****         }
 492:E:/LiteOS/LiteOS_Lab/iot_link/oc/oc_lwm2m/oc_lwm2m_imp/boudica150\boudica150_oc.c ****         osal_task_sleep(1000);
 1948              		.loc 1 492 0 discriminator 2
 1949 0026 4FF47A70 		mov	r0, #1000
 1950 002a FFF7FEFF 		bl	osal_task_sleep
 485:E:/LiteOS/LiteOS_Lab/iot_link/oc/oc_lwm2m/oc_lwm2m_imp/boudica150\boudica150_oc.c ****     {
 1951              		.loc 1 485 0 discriminator 2
 1952 002e BB68     		ldr	r3, [r7, #8]
 1953 0030 0133     		adds	r3, r3, #1
 1954 0032 BB60     		str	r3, [r7, #8]
 1955              	.L113:
 485:E:/LiteOS/LiteOS_Lab/iot_link/oc/oc_lwm2m/oc_lwm2m_imp/boudica150\boudica150_oc.c ****     {
 1956              		.loc 1 485 0 is_stmt 0 discriminator 1
 1957 0034 BA68     		ldr	r2, [r7, #8]
 1958 0036 7B68     		ldr	r3, [r7, #4]
 1959 0038 9A42     		cmp	r2, r3
 1960 003a EADB     		blt	.L116
 1961              	.L115:
 493:E:/LiteOS/LiteOS_Lab/iot_link/oc/oc_lwm2m/oc_lwm2m_imp/boudica150\boudica150_oc.c ****     }
 494:E:/LiteOS/LiteOS_Lab/iot_link/oc/oc_lwm2m/oc_lwm2m_imp/boudica150\boudica150_oc.c **** 
ARM GAS  C:\Users\user\AppData\Local\Temp\ccQ1o4Rh.s 			page 45


 495:E:/LiteOS/LiteOS_Lab/iot_link/oc/oc_lwm2m/oc_lwm2m_imp/boudica150\boudica150_oc.c ****     return ret;
 1962              		.loc 1 495 0 is_stmt 1
 1963 003c FB68     		ldr	r3, [r7, #12]
 496:E:/LiteOS/LiteOS_Lab/iot_link/oc/oc_lwm2m/oc_lwm2m_imp/boudica150\boudica150_oc.c **** }
 1964              		.loc 1 496 0
 1965 003e 1846     		mov	r0, r3
 1966 0040 1037     		adds	r7, r7, #16
 1967              	.LCFI91:
 1968              		.cfi_def_cfa_offset 8
 1969 0042 BD46     		mov	sp, r7
 1970              	.LCFI92:
 1971              		.cfi_def_cfa_register 13
 1972              		@ sp needed
 1973 0044 80BD     		pop	{r7, pc}
 1974              	.L119:
 1975 0046 00BF     		.align	2
 1976              	.L118:
 1977 0048 C4010000 		.word	.LC30
 1978 004c CC010000 		.word	.LC31
 1979              		.cfi_endproc
 1980              	.LFE21:
 1982              		.section	.rodata
 1983 01d7 00       		.align	2
 1984              	.LC32:
 1985 01d8 4155544F 		.ascii	"AUTOCONNECT,TRUE\000"
 1985      434F4E4E 
 1985      4543542C 
 1985      54525545 
 1985      00
 1986 01e9 000000   		.align	2
 1987              	.LC33:
 1988 01ec 4155544F 		.ascii	"AUTOCONNECT,FALSE\000"
 1988      434F4E4E 
 1988      4543542C 
 1988      46414C53 
 1988      4500
 1989 01fe 0000     		.align	2
 1990              	.LC34:
 1991 0200 2B4E434F 		.ascii	"+NCONFIG\000"
 1991      4E464947 
 1991      00
 1992 0209 000000   		.align	2
 1993              	.LC35:
 1994 020c 41542B4E 		.ascii	"AT+NCONFIG?\015\000"
 1994      434F4E46 
 1994      49473F0D 
 1994      00
 1995 0219 000000   		.align	2
 1996              	.LC36:
 1997 021c 41542B4E 		.ascii	"AT+NCONFIG=%s\015\000"
 1997      434F4E46 
 1997      49473D25 
 1997      730D00
 1998              		.section	.text.boudica150_set_autoconnect,"ax",%progbits
 1999              		.align	1
 2000              		.syntax unified
 2001              		.thumb
ARM GAS  C:\Users\user\AppData\Local\Temp\ccQ1o4Rh.s 			page 46


 2002              		.thumb_func
 2003              		.fpu fpv4-sp-d16
 2005              	boudica150_set_autoconnect:
 2006              	.LFB22:
 497:E:/LiteOS/LiteOS_Lab/iot_link/oc/oc_lwm2m/oc_lwm2m_imp/boudica150\boudica150_oc.c **** 
 498:E:/LiteOS/LiteOS_Lab/iot_link/oc/oc_lwm2m/oc_lwm2m_imp/boudica150\boudica150_oc.c **** //set the autoconfig mode
 499:E:/LiteOS/LiteOS_Lab/iot_link/oc/oc_lwm2m/oc_lwm2m_imp/boudica150\boudica150_oc.c **** static bool_t boudica150_set_autoconnect(int enable)
 500:E:/LiteOS/LiteOS_Lab/iot_link/oc/oc_lwm2m/oc_lwm2m_imp/boudica150\boudica150_oc.c **** {
 2007              		.loc 1 500 0
 2008              		.cfi_startproc
 2009              		@ args = 0, pretend = 0, frame = 144
 2010              		@ frame_needed = 1, uses_anonymous_args = 0
 2011 0000 80B5     		push	{r7, lr}
 2012              	.LCFI93:
 2013              		.cfi_def_cfa_offset 8
 2014              		.cfi_offset 7, -8
 2015              		.cfi_offset 14, -4
 2016 0002 A4B0     		sub	sp, sp, #144
 2017              	.LCFI94:
 2018              		.cfi_def_cfa_offset 152
 2019 0004 00AF     		add	r7, sp, #0
 2020              	.LCFI95:
 2021              		.cfi_def_cfa_register 7
 2022 0006 7860     		str	r0, [r7, #4]
 501:E:/LiteOS/LiteOS_Lab/iot_link/oc/oc_lwm2m/oc_lwm2m_imp/boudica150\boudica150_oc.c ****     char cmd[64];
 502:E:/LiteOS/LiteOS_Lab/iot_link/oc/oc_lwm2m/oc_lwm2m_imp/boudica150\boudica150_oc.c ****     char resp[64];
 503:E:/LiteOS/LiteOS_Lab/iot_link/oc/oc_lwm2m/oc_lwm2m_imp/boudica150\boudica150_oc.c ****     bool_t ret = true;
 2023              		.loc 1 503 0
 2024 0008 0123     		movs	r3, #1
 2025 000a C7F88C30 		str	r3, [r7, #140]
 504:E:/LiteOS/LiteOS_Lab/iot_link/oc/oc_lwm2m/oc_lwm2m_imp/boudica150\boudica150_oc.c ****     const char *mode;
 505:E:/LiteOS/LiteOS_Lab/iot_link/oc/oc_lwm2m/oc_lwm2m_imp/boudica150\boudica150_oc.c **** 
 506:E:/LiteOS/LiteOS_Lab/iot_link/oc/oc_lwm2m/oc_lwm2m_imp/boudica150\boudica150_oc.c ****     if(enable)
 2026              		.loc 1 506 0
 2027 000e 7B68     		ldr	r3, [r7, #4]
 2028 0010 002B     		cmp	r3, #0
 2029 0012 03D0     		beq	.L121
 507:E:/LiteOS/LiteOS_Lab/iot_link/oc/oc_lwm2m/oc_lwm2m_imp/boudica150\boudica150_oc.c ****     {
 508:E:/LiteOS/LiteOS_Lab/iot_link/oc/oc_lwm2m/oc_lwm2m_imp/boudica150\boudica150_oc.c ****         mode = "AUTOCONNECT,TRUE";
 2030              		.loc 1 508 0
 2031 0014 234B     		ldr	r3, .L127
 2032 0016 C7F88830 		str	r3, [r7, #136]
 2033 001a 02E0     		b	.L122
 2034              	.L121:
 509:E:/LiteOS/LiteOS_Lab/iot_link/oc/oc_lwm2m/oc_lwm2m_imp/boudica150\boudica150_oc.c ****     }
 510:E:/LiteOS/LiteOS_Lab/iot_link/oc/oc_lwm2m/oc_lwm2m_imp/boudica150\boudica150_oc.c ****     else
 511:E:/LiteOS/LiteOS_Lab/iot_link/oc/oc_lwm2m/oc_lwm2m_imp/boudica150\boudica150_oc.c ****     {
 512:E:/LiteOS/LiteOS_Lab/iot_link/oc/oc_lwm2m/oc_lwm2m_imp/boudica150\boudica150_oc.c ****         mode = "AUTOCONNECT,FALSE";
 2035              		.loc 1 512 0
 2036 001c 224B     		ldr	r3, .L127+4
 2037 001e C7F88830 		str	r3, [r7, #136]
 2038              	.L122:
 513:E:/LiteOS/LiteOS_Lab/iot_link/oc/oc_lwm2m/oc_lwm2m_imp/boudica150\boudica150_oc.c ****     }
 514:E:/LiteOS/LiteOS_Lab/iot_link/oc/oc_lwm2m/oc_lwm2m_imp/boudica150\boudica150_oc.c **** 
 515:E:/LiteOS/LiteOS_Lab/iot_link/oc/oc_lwm2m/oc_lwm2m_imp/boudica150\boudica150_oc.c ****     memset(resp,0,64);
 2039              		.loc 1 515 0
 2040 0022 07F10803 		add	r3, r7, #8
ARM GAS  C:\Users\user\AppData\Local\Temp\ccQ1o4Rh.s 			page 47


 2041 0026 4022     		movs	r2, #64
 2042 0028 0021     		movs	r1, #0
 2043 002a 1846     		mov	r0, r3
 2044 002c FFF7FEFF 		bl	memset
 516:E:/LiteOS/LiteOS_Lab/iot_link/oc/oc_lwm2m/oc_lwm2m_imp/boudica150\boudica150_oc.c ****     ret = boudica150_atcmd_response("AT+NCONFIG?\r","+NCONFIG",resp,64);
 2045              		.loc 1 516 0
 2046 0030 07F10802 		add	r2, r7, #8
 2047 0034 4023     		movs	r3, #64
 2048 0036 1D49     		ldr	r1, .L127+8
 2049 0038 1D48     		ldr	r0, .L127+12
 2050 003a FFF7FEFF 		bl	boudica150_atcmd_response
 2051 003e C7F88C00 		str	r0, [r7, #140]
 2052              	.LBB12:
 517:E:/LiteOS/LiteOS_Lab/iot_link/oc/oc_lwm2m/oc_lwm2m_imp/boudica150\boudica150_oc.c ****     if((false == ret)||(NULL == strstr(resp,mode)))//which means we need to set it
 2053              		.loc 1 517 0
 2054 0042 D7F88C30 		ldr	r3, [r7, #140]
 2055 0046 002B     		cmp	r3, #0
 2056 0048 09D0     		beq	.L123
 2057              		.loc 1 517 0 is_stmt 0 discriminator 1
 2058 004a 07F10803 		add	r3, r7, #8
 2059 004e D7F88810 		ldr	r1, [r7, #136]
 2060 0052 1846     		mov	r0, r3
 2061 0054 FFF7FEFF 		bl	strstr
 2062 0058 0346     		mov	r3, r0
 2063 005a 002B     		cmp	r3, #0
 2064 005c 19D1     		bne	.L124
 2065              	.L123:
 518:E:/LiteOS/LiteOS_Lab/iot_link/oc/oc_lwm2m/oc_lwm2m_imp/boudica150\boudica150_oc.c ****     {
 519:E:/LiteOS/LiteOS_Lab/iot_link/oc/oc_lwm2m/oc_lwm2m_imp/boudica150\boudica150_oc.c ****         memset(cmd,0,64);
 2066              		.loc 1 519 0 is_stmt 1
 2067 005e 07F14803 		add	r3, r7, #72
 2068 0062 4022     		movs	r2, #64
 2069 0064 0021     		movs	r1, #0
 2070 0066 1846     		mov	r0, r3
 2071 0068 FFF7FEFF 		bl	memset
 520:E:/LiteOS/LiteOS_Lab/iot_link/oc/oc_lwm2m/oc_lwm2m_imp/boudica150\boudica150_oc.c ****         snprintf(cmd,64,"AT+NCONFIG=%s\r",mode);
 2072              		.loc 1 520 0
 2073 006c 07F14800 		add	r0, r7, #72
 2074 0070 D7F88830 		ldr	r3, [r7, #136]
 2075 0074 0F4A     		ldr	r2, .L127+16
 2076 0076 4021     		movs	r1, #64
 2077 0078 FFF7FEFF 		bl	snprintf
 521:E:/LiteOS/LiteOS_Lab/iot_link/oc/oc_lwm2m/oc_lwm2m_imp/boudica150\boudica150_oc.c ****         ret = boudica150_atcmd(cmd,"OK");
 2078              		.loc 1 521 0
 2079 007c 07F14803 		add	r3, r7, #72
 2080 0080 0D49     		ldr	r1, .L127+20
 2081 0082 1846     		mov	r0, r3
 2082 0084 FFF7FEFF 		bl	boudica150_atcmd
 2083 0088 C7F88C00 		str	r0, [r7, #140]
 522:E:/LiteOS/LiteOS_Lab/iot_link/oc/oc_lwm2m/oc_lwm2m_imp/boudica150\boudica150_oc.c **** 
 523:E:/LiteOS/LiteOS_Lab/iot_link/oc/oc_lwm2m/oc_lwm2m_imp/boudica150\boudica150_oc.c ****         boudica150_reboot();
 2084              		.loc 1 523 0
 2085 008c FFF7FEFF 		bl	boudica150_reboot
 2086 0090 02E0     		b	.L125
 2087              	.L124:
 524:E:/LiteOS/LiteOS_Lab/iot_link/oc/oc_lwm2m/oc_lwm2m_imp/boudica150\boudica150_oc.c ****     }
 525:E:/LiteOS/LiteOS_Lab/iot_link/oc/oc_lwm2m/oc_lwm2m_imp/boudica150\boudica150_oc.c ****     else
ARM GAS  C:\Users\user\AppData\Local\Temp\ccQ1o4Rh.s 			page 48


 526:E:/LiteOS/LiteOS_Lab/iot_link/oc/oc_lwm2m/oc_lwm2m_imp/boudica150\boudica150_oc.c ****     {
 527:E:/LiteOS/LiteOS_Lab/iot_link/oc/oc_lwm2m/oc_lwm2m_imp/boudica150\boudica150_oc.c ****         ret = true;  //we need not to set
 2088              		.loc 1 527 0
 2089 0092 0123     		movs	r3, #1
 2090 0094 C7F88C30 		str	r3, [r7, #140]
 2091              	.L125:
 2092              	.LBE12:
 528:E:/LiteOS/LiteOS_Lab/iot_link/oc/oc_lwm2m/oc_lwm2m_imp/boudica150\boudica150_oc.c ****     }
 529:E:/LiteOS/LiteOS_Lab/iot_link/oc/oc_lwm2m/oc_lwm2m_imp/boudica150\boudica150_oc.c **** 
 530:E:/LiteOS/LiteOS_Lab/iot_link/oc/oc_lwm2m/oc_lwm2m_imp/boudica150\boudica150_oc.c ****     return ret;
 2093              		.loc 1 530 0
 2094 0098 D7F88C30 		ldr	r3, [r7, #140]
 531:E:/LiteOS/LiteOS_Lab/iot_link/oc/oc_lwm2m/oc_lwm2m_imp/boudica150\boudica150_oc.c **** }
 2095              		.loc 1 531 0
 2096 009c 1846     		mov	r0, r3
 2097 009e 9037     		adds	r7, r7, #144
 2098              	.LCFI96:
 2099              		.cfi_def_cfa_offset 8
 2100 00a0 BD46     		mov	sp, r7
 2101              	.LCFI97:
 2102              		.cfi_def_cfa_register 13
 2103              		@ sp needed
 2104 00a2 80BD     		pop	{r7, pc}
 2105              	.L128:
 2106              		.align	2
 2107              	.L127:
 2108 00a4 D8010000 		.word	.LC32
 2109 00a8 EC010000 		.word	.LC33
 2110 00ac 00020000 		.word	.LC34
 2111 00b0 0C020000 		.word	.LC35
 2112 00b4 1C020000 		.word	.LC36
 2113 00b8 14000000 		.word	.LC2
 2114              		.cfi_endproc
 2115              	.LFE22:
 2117              		.section	.rodata
 2118 022b 00       		.align	2
 2119              	.LC37:
 2120 022c 0D0A2B51 		.ascii	"\015\012+QLWEVTIND:\000"
 2120      4C574556 
 2120      54494E44 
 2120      3A00
 2121 023a 0000     		.align	2
 2122              	.LC38:
 2123 023c 0D0A2B4E 		.ascii	"\015\012+NNMI:\000"
 2123      4E4D493A 
 2123      00
 2124 0245 000000   		.align	2
 2125              	.LC39:
 2126 0248 4E42204D 		.ascii	"NB MODULE RXTX READY NOW\012\015\000"
 2126      4F44554C 
 2126      45205258 
 2126      54582052 
 2126      45414459 
 2127              		.section	.text.boudica150_boot,"ax",%progbits
 2128              		.align	1
 2129              		.syntax unified
 2130              		.thumb
ARM GAS  C:\Users\user\AppData\Local\Temp\ccQ1o4Rh.s 			page 49


 2131              		.thumb_func
 2132              		.fpu fpv4-sp-d16
 2134              	boudica150_boot:
 2135              	.LFB23:
 532:E:/LiteOS/LiteOS_Lab/iot_link/oc/oc_lwm2m/oc_lwm2m_imp/boudica150\boudica150_oc.c **** 
 533:E:/LiteOS/LiteOS_Lab/iot_link/oc/oc_lwm2m/oc_lwm2m_imp/boudica150\boudica150_oc.c **** //use this function to set the band,which corresponding with YUNYINGSHANG AND MOZU
 534:E:/LiteOS/LiteOS_Lab/iot_link/oc/oc_lwm2m/oc_lwm2m_imp/boudica150\boudica150_oc.c **** static bool_t boudica150_boot(const char *plmn, const char *apn, const char *bands,const char *serv
 535:E:/LiteOS/LiteOS_Lab/iot_link/oc/oc_lwm2m/oc_lwm2m_imp/boudica150\boudica150_oc.c **** {
 2136              		.loc 1 535 0
 2137              		.cfi_startproc
 2138              		@ args = 4, pretend = 0, frame = 16
 2139              		@ frame_needed = 1, uses_anonymous_args = 0
 2140 0000 80B5     		push	{r7, lr}
 2141              	.LCFI98:
 2142              		.cfi_def_cfa_offset 8
 2143              		.cfi_offset 7, -8
 2144              		.cfi_offset 14, -4
 2145 0002 84B0     		sub	sp, sp, #16
 2146              	.LCFI99:
 2147              		.cfi_def_cfa_offset 24
 2148 0004 00AF     		add	r7, sp, #0
 2149              	.LCFI100:
 2150              		.cfi_def_cfa_register 7
 2151 0006 F860     		str	r0, [r7, #12]
 2152 0008 B960     		str	r1, [r7, #8]
 2153 000a 7A60     		str	r2, [r7, #4]
 2154 000c 3B60     		str	r3, [r7]
 536:E:/LiteOS/LiteOS_Lab/iot_link/oc/oc_lwm2m/oc_lwm2m_imp/boudica150\boudica150_oc.c ****     memset(&s_boudica150_oc_cb,0,sizeof(s_boudica150_oc_cb));
 2155              		.loc 1 536 0
 2156 000e 4FF4AC72 		mov	r2, #344
 2157 0012 0021     		movs	r1, #0
 2158 0014 2548     		ldr	r0, .L138
 2159 0016 FFF7FEFF 		bl	memset
 537:E:/LiteOS/LiteOS_Lab/iot_link/oc/oc_lwm2m/oc_lwm2m_imp/boudica150\boudica150_oc.c ****     at_oobregister(urc_qlwevtind,cn_urc_qlwevtind);
 2160              		.loc 1 537 0
 2161 001a 2549     		ldr	r1, .L138+4
 2162 001c 2548     		ldr	r0, .L138+8
 2163 001e FFF7FEFF 		bl	at_oobregister
 538:E:/LiteOS/LiteOS_Lab/iot_link/oc/oc_lwm2m/oc_lwm2m_imp/boudica150\boudica150_oc.c ****     at_oobregister(boudica150_rcvdeal,cn_boudica150_rcvindex);
 2164              		.loc 1 538 0
 2165 0022 2549     		ldr	r1, .L138+12
 2166 0024 2548     		ldr	r0, .L138+16
 2167 0026 FFF7FEFF 		bl	at_oobregister
 2168              	.L134:
 539:E:/LiteOS/LiteOS_Lab/iot_link/oc/oc_lwm2m/oc_lwm2m_imp/boudica150\boudica150_oc.c **** 
 540:E:/LiteOS/LiteOS_Lab/iot_link/oc/oc_lwm2m/oc_lwm2m_imp/boudica150\boudica150_oc.c ****     while(1)
 541:E:/LiteOS/LiteOS_Lab/iot_link/oc/oc_lwm2m/oc_lwm2m_imp/boudica150\boudica150_oc.c ****     {
 542:E:/LiteOS/LiteOS_Lab/iot_link/oc/oc_lwm2m/oc_lwm2m_imp/boudica150\boudica150_oc.c **** 
 543:E:/LiteOS/LiteOS_Lab/iot_link/oc/oc_lwm2m/oc_lwm2m_imp/boudica150\boudica150_oc.c ****         s_boudica150_oc_cb.lwm2m_observe = false;
 2169              		.loc 1 543 0
 2170 002a 204B     		ldr	r3, .L138
 2171 002c 0022     		movs	r2, #0
 2172 002e C3F85421 		str	r2, [r3, #340]
 544:E:/LiteOS/LiteOS_Lab/iot_link/oc/oc_lwm2m/oc_lwm2m_imp/boudica150\boudica150_oc.c **** 
 545:E:/LiteOS/LiteOS_Lab/iot_link/oc/oc_lwm2m/oc_lwm2m_imp/boudica150\boudica150_oc.c ****         boudica150_reboot();
 2173              		.loc 1 545 0
 2174 0032 FFF7FEFF 		bl	boudica150_reboot
ARM GAS  C:\Users\user\AppData\Local\Temp\ccQ1o4Rh.s 			page 50


 546:E:/LiteOS/LiteOS_Lab/iot_link/oc/oc_lwm2m/oc_lwm2m_imp/boudica150\boudica150_oc.c **** 
 547:E:/LiteOS/LiteOS_Lab/iot_link/oc/oc_lwm2m/oc_lwm2m_imp/boudica150\boudica150_oc.c ****         boudica150_set_echo (0);
 2175              		.loc 1 547 0
 2176 0036 0020     		movs	r0, #0
 2177 0038 FFF7FEFF 		bl	boudica150_set_echo
 548:E:/LiteOS/LiteOS_Lab/iot_link/oc/oc_lwm2m/oc_lwm2m_imp/boudica150\boudica150_oc.c **** 
 549:E:/LiteOS/LiteOS_Lab/iot_link/oc/oc_lwm2m/oc_lwm2m_imp/boudica150\boudica150_oc.c ****         boudica150_set_cmee(1);
 2178              		.loc 1 549 0
 2179 003c 0120     		movs	r0, #1
 2180 003e FFF7FEFF 		bl	boudica150_set_cmee
 550:E:/LiteOS/LiteOS_Lab/iot_link/oc/oc_lwm2m/oc_lwm2m_imp/boudica150\boudica150_oc.c **** 
 551:E:/LiteOS/LiteOS_Lab/iot_link/oc/oc_lwm2m/oc_lwm2m_imp/boudica150\boudica150_oc.c ****         boudica150_set_autoconnect( 0);     //cgatt and cfun must be called if autoconnect is false
 2181              		.loc 1 551 0
 2182 0042 0020     		movs	r0, #0
 2183 0044 FFF7FEFF 		bl	boudica150_set_autoconnect
 552:E:/LiteOS/LiteOS_Lab/iot_link/oc/oc_lwm2m/oc_lwm2m_imp/boudica150\boudica150_oc.c **** 
 553:E:/LiteOS/LiteOS_Lab/iot_link/oc/oc_lwm2m/oc_lwm2m_imp/boudica150\boudica150_oc.c ****         boudica150_set_bands(bands);
 2184              		.loc 1 553 0
 2185 0048 7868     		ldr	r0, [r7, #4]
 2186 004a FFF7FEFF 		bl	boudica150_set_bands
 554:E:/LiteOS/LiteOS_Lab/iot_link/oc/oc_lwm2m/oc_lwm2m_imp/boudica150\boudica150_oc.c **** 
 555:E:/LiteOS/LiteOS_Lab/iot_link/oc/oc_lwm2m/oc_lwm2m_imp/boudica150\boudica150_oc.c ****         boudica150_set_fun(1);
 2187              		.loc 1 555 0
 2188 004e 0120     		movs	r0, #1
 2189 0050 FFF7FEFF 		bl	boudica150_set_fun
 556:E:/LiteOS/LiteOS_Lab/iot_link/oc/oc_lwm2m/oc_lwm2m_imp/boudica150\boudica150_oc.c **** 
 557:E:/LiteOS/LiteOS_Lab/iot_link/oc/oc_lwm2m/oc_lwm2m_imp/boudica150\boudica150_oc.c ****         boudica150_set_plmn(plmn);
 2190              		.loc 1 557 0
 2191 0054 F868     		ldr	r0, [r7, #12]
 2192 0056 FFF7FEFF 		bl	boudica150_set_plmn
 558:E:/LiteOS/LiteOS_Lab/iot_link/oc/oc_lwm2m/oc_lwm2m_imp/boudica150\boudica150_oc.c **** 
 559:E:/LiteOS/LiteOS_Lab/iot_link/oc/oc_lwm2m/oc_lwm2m_imp/boudica150\boudica150_oc.c ****         boudica150_set_apn(apn);
 2193              		.loc 1 559 0
 2194 005a B868     		ldr	r0, [r7, #8]
 2195 005c FFF7FEFF 		bl	boudica150_set_apn
 560:E:/LiteOS/LiteOS_Lab/iot_link/oc/oc_lwm2m/oc_lwm2m_imp/boudica150\boudica150_oc.c **** 
 561:E:/LiteOS/LiteOS_Lab/iot_link/oc/oc_lwm2m/oc_lwm2m_imp/boudica150\boudica150_oc.c ****         boudica150_set_cdp(server,port);
 2196              		.loc 1 561 0
 2197 0060 B969     		ldr	r1, [r7, #24]
 2198 0062 3868     		ldr	r0, [r7]
 2199 0064 FFF7FEFF 		bl	boudica150_set_cdp
 562:E:/LiteOS/LiteOS_Lab/iot_link/oc/oc_lwm2m/oc_lwm2m_imp/boudica150\boudica150_oc.c **** 
 563:E:/LiteOS/LiteOS_Lab/iot_link/oc/oc_lwm2m/oc_lwm2m_imp/boudica150\boudica150_oc.c ****         boudica150_set_cgatt(1);
 2200              		.loc 1 563 0
 2201 0068 0120     		movs	r0, #1
 2202 006a FFF7FEFF 		bl	boudica150_set_cgatt
 564:E:/LiteOS/LiteOS_Lab/iot_link/oc/oc_lwm2m/oc_lwm2m_imp/boudica150\boudica150_oc.c **** 
 565:E:/LiteOS/LiteOS_Lab/iot_link/oc/oc_lwm2m/oc_lwm2m_imp/boudica150\boudica150_oc.c ****         boudica150_set_nnmi(1);
 2203              		.loc 1 565 0
 2204 006e 0120     		movs	r0, #1
 2205 0070 FFF7FEFF 		bl	boudica150_set_nnmi
 566:E:/LiteOS/LiteOS_Lab/iot_link/oc/oc_lwm2m/oc_lwm2m_imp/boudica150\boudica150_oc.c **** 
 567:E:/LiteOS/LiteOS_Lab/iot_link/oc/oc_lwm2m/oc_lwm2m_imp/boudica150\boudica150_oc.c ****         if(false == boudica150_check_netattach(16))
 2206              		.loc 1 567 0
 2207 0074 1020     		movs	r0, #16
 2208 0076 FFF7FEFF 		bl	boudica150_check_netattach
 2209 007a 0346     		mov	r3, r0
ARM GAS  C:\Users\user\AppData\Local\Temp\ccQ1o4Rh.s 			page 51


 2210 007c 002B     		cmp	r3, #0
 2211 007e 06D0     		beq	.L136
 568:E:/LiteOS/LiteOS_Lab/iot_link/oc/oc_lwm2m/oc_lwm2m_imp/boudica150\boudica150_oc.c ****         {
 569:E:/LiteOS/LiteOS_Lab/iot_link/oc/oc_lwm2m/oc_lwm2m_imp/boudica150\boudica150_oc.c ****             continue;
 570:E:/LiteOS/LiteOS_Lab/iot_link/oc/oc_lwm2m/oc_lwm2m_imp/boudica150\boudica150_oc.c ****         }
 571:E:/LiteOS/LiteOS_Lab/iot_link/oc/oc_lwm2m/oc_lwm2m_imp/boudica150\boudica150_oc.c **** 
 572:E:/LiteOS/LiteOS_Lab/iot_link/oc/oc_lwm2m/oc_lwm2m_imp/boudica150\boudica150_oc.c ****         if(false == boudica150_check_observe(16)) //TODO--maybe this only compatible with QUETEL MO
 2212              		.loc 1 572 0
 2213 0080 1020     		movs	r0, #16
 2214 0082 FFF7FEFF 		bl	boudica150_check_observe
 2215 0086 0346     		mov	r3, r0
 2216 0088 002B     		cmp	r3, #0
 2217 008a 02D1     		bne	.L137
 573:E:/LiteOS/LiteOS_Lab/iot_link/oc/oc_lwm2m/oc_lwm2m_imp/boudica150\boudica150_oc.c ****         {
 574:E:/LiteOS/LiteOS_Lab/iot_link/oc/oc_lwm2m/oc_lwm2m_imp/boudica150\boudica150_oc.c ****             continue; //we should do the reboot for the nB
 2218              		.loc 1 574 0
 2219 008c 00E0     		b	.L131
 2220              	.L136:
 569:E:/LiteOS/LiteOS_Lab/iot_link/oc/oc_lwm2m/oc_lwm2m_imp/boudica150\boudica150_oc.c ****         }
 2221              		.loc 1 569 0
 2222 008e 00BF     		nop
 2223              	.L131:
 543:E:/LiteOS/LiteOS_Lab/iot_link/oc/oc_lwm2m/oc_lwm2m_imp/boudica150\boudica150_oc.c **** 
 2224              		.loc 1 543 0
 2225 0090 CBE7     		b	.L134
 2226              	.L137:
 575:E:/LiteOS/LiteOS_Lab/iot_link/oc/oc_lwm2m/oc_lwm2m_imp/boudica150\boudica150_oc.c ****         }
 576:E:/LiteOS/LiteOS_Lab/iot_link/oc/oc_lwm2m/oc_lwm2m_imp/boudica150\boudica150_oc.c **** 
 577:E:/LiteOS/LiteOS_Lab/iot_link/oc/oc_lwm2m/oc_lwm2m_imp/boudica150\boudica150_oc.c ****         break;
 2227              		.loc 1 577 0
 2228 0092 00BF     		nop
 578:E:/LiteOS/LiteOS_Lab/iot_link/oc/oc_lwm2m/oc_lwm2m_imp/boudica150\boudica150_oc.c ****     }
 579:E:/LiteOS/LiteOS_Lab/iot_link/oc/oc_lwm2m/oc_lwm2m_imp/boudica150\boudica150_oc.c ****    //reach here means everything is ok, we can go now
 580:E:/LiteOS/LiteOS_Lab/iot_link/oc/oc_lwm2m/oc_lwm2m_imp/boudica150\boudica150_oc.c ****     s_boudica150_oc_cb.sndenable = true;
 2229              		.loc 1 580 0
 2230 0094 054B     		ldr	r3, .L138
 2231 0096 0122     		movs	r2, #1
 2232 0098 9A64     		str	r2, [r3, #72]
 581:E:/LiteOS/LiteOS_Lab/iot_link/oc/oc_lwm2m/oc_lwm2m_imp/boudica150\boudica150_oc.c ****     printf("NB MODULE RXTX READY NOW\n\r");
 2233              		.loc 1 581 0
 2234 009a 0948     		ldr	r0, .L138+20
 2235 009c FFF7FEFF 		bl	printf
 582:E:/LiteOS/LiteOS_Lab/iot_link/oc/oc_lwm2m/oc_lwm2m_imp/boudica150\boudica150_oc.c ****     return true;
 2236              		.loc 1 582 0
 2237 00a0 0123     		movs	r3, #1
 583:E:/LiteOS/LiteOS_Lab/iot_link/oc/oc_lwm2m/oc_lwm2m_imp/boudica150\boudica150_oc.c **** }
 2238              		.loc 1 583 0
 2239 00a2 1846     		mov	r0, r3
 2240 00a4 1037     		adds	r7, r7, #16
 2241              	.LCFI101:
 2242              		.cfi_def_cfa_offset 8
 2243 00a6 BD46     		mov	sp, r7
 2244              	.LCFI102:
 2245              		.cfi_def_cfa_register 13
 2246              		@ sp needed
 2247 00a8 80BD     		pop	{r7, pc}
 2248              	.L139:
ARM GAS  C:\Users\user\AppData\Local\Temp\ccQ1o4Rh.s 			page 52


 2249 00aa 00BF     		.align	2
 2250              	.L138:
 2251 00ac 00000000 		.word	s_boudica150_oc_cb
 2252 00b0 2C020000 		.word	.LC37
 2253 00b4 00000000 		.word	urc_qlwevtind
 2254 00b8 3C020000 		.word	.LC38
 2255 00bc 00000000 		.word	boudica150_rcvdeal
 2256 00c0 48020000 		.word	.LC39
 2257              		.cfi_endproc
 2258              	.LFE23:
 2260              		.section	.bss.s_oc_handle,"aw",%nobits
 2261              		.align	2
 2264              	s_oc_handle:
 2265 0000 00000000 		.space	4
 2266              		.section	.text.boudica150_oc_config,"ax",%progbits
 2267              		.align	1
 2268              		.syntax unified
 2269              		.thumb
 2270              		.thumb_func
 2271              		.fpu fpv4-sp-d16
 2273              	boudica150_oc_config:
 2274              	.LFB24:
 584:E:/LiteOS/LiteOS_Lab/iot_link/oc/oc_lwm2m/oc_lwm2m_imp/boudica150\boudica150_oc.c **** 
 585:E:/LiteOS/LiteOS_Lab/iot_link/oc/oc_lwm2m/oc_lwm2m_imp/boudica150\boudica150_oc.c **** static void  *s_oc_handle = NULL;
 586:E:/LiteOS/LiteOS_Lab/iot_link/oc/oc_lwm2m/oc_lwm2m_imp/boudica150\boudica150_oc.c **** 
 587:E:/LiteOS/LiteOS_Lab/iot_link/oc/oc_lwm2m/oc_lwm2m_imp/boudica150\boudica150_oc.c **** static void *boudica150_oc_config(oc_config_param_t *param)
 588:E:/LiteOS/LiteOS_Lab/iot_link/oc/oc_lwm2m/oc_lwm2m_imp/boudica150\boudica150_oc.c **** {
 2275              		.loc 1 588 0
 2276              		.cfi_startproc
 2277              		@ args = 0, pretend = 0, frame = 16
 2278              		@ frame_needed = 1, uses_anonymous_args = 0
 2279 0000 B0B5     		push	{r4, r5, r7, lr}
 2280              	.LCFI103:
 2281              		.cfi_def_cfa_offset 16
 2282              		.cfi_offset 4, -16
 2283              		.cfi_offset 5, -12
 2284              		.cfi_offset 7, -8
 2285              		.cfi_offset 14, -4
 2286 0002 86B0     		sub	sp, sp, #24
 2287              	.LCFI104:
 2288              		.cfi_def_cfa_offset 40
 2289 0004 02AF     		add	r7, sp, #8
 2290              	.LCFI105:
 2291              		.cfi_def_cfa 7, 32
 2292 0006 7860     		str	r0, [r7, #4]
 589:E:/LiteOS/LiteOS_Lab/iot_link/oc/oc_lwm2m/oc_lwm2m_imp/boudica150\boudica150_oc.c ****     void *ret = NULL;
 2293              		.loc 1 589 0
 2294 0008 0023     		movs	r3, #0
 2295 000a FB60     		str	r3, [r7, #12]
 590:E:/LiteOS/LiteOS_Lab/iot_link/oc/oc_lwm2m/oc_lwm2m_imp/boudica150\boudica150_oc.c ****     if((NULL != param) && (NULL == s_oc_handle))
 2296              		.loc 1 590 0
 2297 000c 7B68     		ldr	r3, [r7, #4]
 2298 000e 002B     		cmp	r3, #0
 2299 0010 29D0     		beq	.L141
 2300              		.loc 1 590 0 is_stmt 0 discriminator 1
 2301 0012 174B     		ldr	r3, .L143
 2302 0014 1B68     		ldr	r3, [r3]
ARM GAS  C:\Users\user\AppData\Local\Temp\ccQ1o4Rh.s 			page 53


 2303 0016 002B     		cmp	r3, #0
 2304 0018 25D1     		bne	.L141
 591:E:/LiteOS/LiteOS_Lab/iot_link/oc/oc_lwm2m/oc_lwm2m_imp/boudica150\boudica150_oc.c ****     {
 592:E:/LiteOS/LiteOS_Lab/iot_link/oc/oc_lwm2m/oc_lwm2m_imp/boudica150\boudica150_oc.c ****         s_boudica150_oc_cb.oc_param = *param;
 2305              		.loc 1 592 0 is_stmt 1
 2306 001a 164B     		ldr	r3, .L143+4
 2307 001c 7A68     		ldr	r2, [r7, #4]
 2308 001e 03F10C04 		add	r4, r3, #12
 2309 0022 1546     		mov	r5, r2
 2310 0024 0FCD     		ldmia	r5!, {r0, r1, r2, r3}
 2311 0026 0FC4     		stmia	r4!, {r0, r1, r2, r3}
 2312 0028 0FCD     		ldmia	r5!, {r0, r1, r2, r3}
 2313 002a 0FC4     		stmia	r4!, {r0, r1, r2, r3}
 2314 002c 0FCD     		ldmia	r5!, {r0, r1, r2, r3}
 2315 002e 0FC4     		stmia	r4!, {r0, r1, r2, r3}
 2316 0030 95E80700 		ldm	r5, {r0, r1, r2}
 2317 0034 84E80700 		stm	r4, {r0, r1, r2}
 593:E:/LiteOS/LiteOS_Lab/iot_link/oc/oc_lwm2m/oc_lwm2m_imp/boudica150\boudica150_oc.c **** 
 594:E:/LiteOS/LiteOS_Lab/iot_link/oc/oc_lwm2m/oc_lwm2m_imp/boudica150\boudica150_oc.c ****         if(boudica150_boot(s_boudica150_oc_cb.plmn,s_boudica150_oc_cb.apn,s_boudica150_oc_cb.bands,
 2318              		.loc 1 594 0
 2319 0038 0E4B     		ldr	r3, .L143+4
 2320 003a 1868     		ldr	r0, [r3]
 2321 003c 0D4B     		ldr	r3, .L143+4
 2322 003e 5968     		ldr	r1, [r3, #4]
 2323 0040 0C4B     		ldr	r3, .L143+4
 2324 0042 9A68     		ldr	r2, [r3, #8]
 595:E:/LiteOS/LiteOS_Lab/iot_link/oc/oc_lwm2m/oc_lwm2m_imp/boudica150\boudica150_oc.c ****                 s_boudica150_oc_cb.oc_param.app_server.address,s_boudica150_oc_cb.oc_param.app_serv
 2325              		.loc 1 595 0
 2326 0044 0B4B     		ldr	r3, .L143+4
 2327 0046 DC6A     		ldr	r4, [r3, #44]
 2328 0048 0A4B     		ldr	r3, .L143+4
 2329 004a 1B6B     		ldr	r3, [r3, #48]
 594:E:/LiteOS/LiteOS_Lab/iot_link/oc/oc_lwm2m/oc_lwm2m_imp/boudica150\boudica150_oc.c ****                 s_boudica150_oc_cb.oc_param.app_server.address,s_boudica150_oc_cb.oc_param.app_serv
 2330              		.loc 1 594 0
 2331 004c 0093     		str	r3, [sp]
 2332 004e 2346     		mov	r3, r4
 2333 0050 FFF7FEFF 		bl	boudica150_boot
 2334 0054 0346     		mov	r3, r0
 2335 0056 002B     		cmp	r3, #0
 2336 0058 05D0     		beq	.L141
 596:E:/LiteOS/LiteOS_Lab/iot_link/oc/oc_lwm2m/oc_lwm2m_imp/boudica150\boudica150_oc.c ****         {
 597:E:/LiteOS/LiteOS_Lab/iot_link/oc/oc_lwm2m/oc_lwm2m_imp/boudica150\boudica150_oc.c ****         	s_oc_handle = &s_boudica150_oc_cb;
 2337              		.loc 1 597 0
 2338 005a 054B     		ldr	r3, .L143
 2339 005c 054A     		ldr	r2, .L143+4
 2340 005e 1A60     		str	r2, [r3]
 598:E:/LiteOS/LiteOS_Lab/iot_link/oc/oc_lwm2m/oc_lwm2m_imp/boudica150\boudica150_oc.c ****             ret = s_oc_handle;
 2341              		.loc 1 598 0
 2342 0060 034B     		ldr	r3, .L143
 2343 0062 1B68     		ldr	r3, [r3]
 2344 0064 FB60     		str	r3, [r7, #12]
 2345              	.L141:
 599:E:/LiteOS/LiteOS_Lab/iot_link/oc/oc_lwm2m/oc_lwm2m_imp/boudica150\boudica150_oc.c ****         }
 600:E:/LiteOS/LiteOS_Lab/iot_link/oc/oc_lwm2m/oc_lwm2m_imp/boudica150\boudica150_oc.c ****     }
 601:E:/LiteOS/LiteOS_Lab/iot_link/oc/oc_lwm2m/oc_lwm2m_imp/boudica150\boudica150_oc.c **** 
 602:E:/LiteOS/LiteOS_Lab/iot_link/oc/oc_lwm2m/oc_lwm2m_imp/boudica150\boudica150_oc.c ****     return ret;
 2346              		.loc 1 602 0
ARM GAS  C:\Users\user\AppData\Local\Temp\ccQ1o4Rh.s 			page 54


 2347 0066 FB68     		ldr	r3, [r7, #12]
 603:E:/LiteOS/LiteOS_Lab/iot_link/oc/oc_lwm2m/oc_lwm2m_imp/boudica150\boudica150_oc.c **** }
 2348              		.loc 1 603 0
 2349 0068 1846     		mov	r0, r3
 2350 006a 1037     		adds	r7, r7, #16
 2351              	.LCFI106:
 2352              		.cfi_def_cfa_offset 16
 2353 006c BD46     		mov	sp, r7
 2354              	.LCFI107:
 2355              		.cfi_def_cfa_register 13
 2356              		@ sp needed
 2357 006e B0BD     		pop	{r4, r5, r7, pc}
 2358              	.L144:
 2359              		.align	2
 2360              	.L143:
 2361 0070 00000000 		.word	s_oc_handle
 2362 0074 00000000 		.word	s_boudica150_oc_cb
 2363              		.cfi_endproc
 2364              	.LFE24:
 2366              		.section	.text.boudica150_oc_deconfig,"ax",%progbits
 2367              		.align	1
 2368              		.syntax unified
 2369              		.thumb
 2370              		.thumb_func
 2371              		.fpu fpv4-sp-d16
 2373              	boudica150_oc_deconfig:
 2374              	.LFB25:
 604:E:/LiteOS/LiteOS_Lab/iot_link/oc/oc_lwm2m/oc_lwm2m_imp/boudica150\boudica150_oc.c **** 
 605:E:/LiteOS/LiteOS_Lab/iot_link/oc/oc_lwm2m/oc_lwm2m_imp/boudica150\boudica150_oc.c **** static int boudica150_oc_deconfig(void *handle)
 606:E:/LiteOS/LiteOS_Lab/iot_link/oc/oc_lwm2m/oc_lwm2m_imp/boudica150\boudica150_oc.c **** {
 2375              		.loc 1 606 0
 2376              		.cfi_startproc
 2377              		@ args = 0, pretend = 0, frame = 8
 2378              		@ frame_needed = 1, uses_anonymous_args = 0
 2379              		@ link register save eliminated.
 2380 0000 80B4     		push	{r7}
 2381              	.LCFI108:
 2382              		.cfi_def_cfa_offset 4
 2383              		.cfi_offset 7, -4
 2384 0002 83B0     		sub	sp, sp, #12
 2385              	.LCFI109:
 2386              		.cfi_def_cfa_offset 16
 2387 0004 00AF     		add	r7, sp, #0
 2388              	.LCFI110:
 2389              		.cfi_def_cfa_register 7
 2390 0006 7860     		str	r0, [r7, #4]
 607:E:/LiteOS/LiteOS_Lab/iot_link/oc/oc_lwm2m/oc_lwm2m_imp/boudica150\boudica150_oc.c ****     s_oc_handle = NULL;
 2391              		.loc 1 607 0
 2392 0008 044B     		ldr	r3, .L147
 2393 000a 0022     		movs	r2, #0
 2394 000c 1A60     		str	r2, [r3]
 608:E:/LiteOS/LiteOS_Lab/iot_link/oc/oc_lwm2m/oc_lwm2m_imp/boudica150\boudica150_oc.c ****     return 0;
 2395              		.loc 1 608 0
 2396 000e 0023     		movs	r3, #0
 609:E:/LiteOS/LiteOS_Lab/iot_link/oc/oc_lwm2m/oc_lwm2m_imp/boudica150\boudica150_oc.c **** }
 2397              		.loc 1 609 0
 2398 0010 1846     		mov	r0, r3
ARM GAS  C:\Users\user\AppData\Local\Temp\ccQ1o4Rh.s 			page 55


 2399 0012 0C37     		adds	r7, r7, #12
 2400              	.LCFI111:
 2401              		.cfi_def_cfa_offset 4
 2402 0014 BD46     		mov	sp, r7
 2403              	.LCFI112:
 2404              		.cfi_def_cfa_register 13
 2405              		@ sp needed
 2406 0016 5DF8047B 		ldr	r7, [sp], #4
 2407              	.LCFI113:
 2408              		.cfi_restore 7
 2409              		.cfi_def_cfa_offset 0
 2410 001a 7047     		bx	lr
 2411              	.L148:
 2412              		.align	2
 2413              	.L147:
 2414 001c 00000000 		.word	s_oc_handle
 2415              		.cfi_endproc
 2416              	.LFE25:
 2418              		.section	.rodata
 2419 0263 00       		.align	2
 2420              	.LC40:
 2421 0264 41542B43 		.ascii	"AT+CSQ\015\000"
 2421      53510D00 
 2422              		.align	2
 2423              	.LC41:
 2424 026c 2B435351 		.ascii	"+CSQ:\000"
 2424      3A00
 2425              		.section	.text.boudica150_get_csq,"ax",%progbits
 2426              		.align	1
 2427              		.global	boudica150_get_csq
 2428              		.syntax unified
 2429              		.thumb
 2430              		.thumb_func
 2431              		.fpu fpv4-sp-d16
 2433              	boudica150_get_csq:
 2434              	.LFB26:
 610:E:/LiteOS/LiteOS_Lab/iot_link/oc/oc_lwm2m/oc_lwm2m_imp/boudica150\boudica150_oc.c **** 
 611:E:/LiteOS/LiteOS_Lab/iot_link/oc/oc_lwm2m/oc_lwm2m_imp/boudica150\boudica150_oc.c **** 
 612:E:/LiteOS/LiteOS_Lab/iot_link/oc/oc_lwm2m/oc_lwm2m_imp/boudica150\boudica150_oc.c **** //this function to get the csq
 613:E:/LiteOS/LiteOS_Lab/iot_link/oc/oc_lwm2m/oc_lwm2m_imp/boudica150\boudica150_oc.c **** int boudica150_get_csq(int *value)
 614:E:/LiteOS/LiteOS_Lab/iot_link/oc/oc_lwm2m/oc_lwm2m_imp/boudica150\boudica150_oc.c **** {
 2435              		.loc 1 614 0
 2436              		.cfi_startproc
 2437              		@ args = 0, pretend = 0, frame = 152
 2438              		@ frame_needed = 1, uses_anonymous_args = 0
 2439 0000 80B5     		push	{r7, lr}
 2440              	.LCFI114:
 2441              		.cfi_def_cfa_offset 8
 2442              		.cfi_offset 7, -8
 2443              		.cfi_offset 14, -4
 2444 0002 A6B0     		sub	sp, sp, #152
 2445              	.LCFI115:
 2446              		.cfi_def_cfa_offset 160
 2447 0004 00AF     		add	r7, sp, #0
 2448              	.LCFI116:
 2449              		.cfi_def_cfa_register 7
 2450 0006 7860     		str	r0, [r7, #4]
ARM GAS  C:\Users\user\AppData\Local\Temp\ccQ1o4Rh.s 			page 56


 615:E:/LiteOS/LiteOS_Lab/iot_link/oc/oc_lwm2m/oc_lwm2m_imp/boudica150\boudica150_oc.c ****     char cmd[64];
 616:E:/LiteOS/LiteOS_Lab/iot_link/oc/oc_lwm2m/oc_lwm2m_imp/boudica150\boudica150_oc.c ****     char resp[64];
 617:E:/LiteOS/LiteOS_Lab/iot_link/oc/oc_lwm2m/oc_lwm2m_imp/boudica150\boudica150_oc.c ****     const char *index = "OK";
 2451              		.loc 1 617 0
 2452 0008 384B     		ldr	r3, .L157
 2453 000a C7F88830 		str	r3, [r7, #136]
 618:E:/LiteOS/LiteOS_Lab/iot_link/oc/oc_lwm2m/oc_lwm2m_imp/boudica150\boudica150_oc.c ****     const char *str;
 619:E:/LiteOS/LiteOS_Lab/iot_link/oc/oc_lwm2m/oc_lwm2m_imp/boudica150\boudica150_oc.c ****     int csq = 0;
 2454              		.loc 1 619 0
 2455 000e 0023     		movs	r3, #0
 2456 0010 C7F89030 		str	r3, [r7, #144]
 620:E:/LiteOS/LiteOS_Lab/iot_link/oc/oc_lwm2m/oc_lwm2m_imp/boudica150\boudica150_oc.c ****     int ret = -1;
 2457              		.loc 1 620 0
 2458 0014 4FF0FF33 		mov	r3, #-1
 2459 0018 C7F88C30 		str	r3, [r7, #140]
 621:E:/LiteOS/LiteOS_Lab/iot_link/oc/oc_lwm2m/oc_lwm2m_imp/boudica150\boudica150_oc.c **** 
 622:E:/LiteOS/LiteOS_Lab/iot_link/oc/oc_lwm2m/oc_lwm2m_imp/boudica150\boudica150_oc.c ****     if(NULL == value)
 2460              		.loc 1 622 0
 2461 001c 7B68     		ldr	r3, [r7, #4]
 2462 001e 002B     		cmp	r3, #0
 2463 0020 02D1     		bne	.L150
 623:E:/LiteOS/LiteOS_Lab/iot_link/oc/oc_lwm2m/oc_lwm2m_imp/boudica150\boudica150_oc.c ****     {
 624:E:/LiteOS/LiteOS_Lab/iot_link/oc/oc_lwm2m/oc_lwm2m_imp/boudica150\boudica150_oc.c ****         return ret;
 2464              		.loc 1 624 0
 2465 0022 D7F88C30 		ldr	r3, [r7, #140]
 2466 0026 5CE0     		b	.L156
 2467              	.L150:
 625:E:/LiteOS/LiteOS_Lab/iot_link/oc/oc_lwm2m/oc_lwm2m_imp/boudica150\boudica150_oc.c ****     }
 626:E:/LiteOS/LiteOS_Lab/iot_link/oc/oc_lwm2m/oc_lwm2m_imp/boudica150\boudica150_oc.c **** 
 627:E:/LiteOS/LiteOS_Lab/iot_link/oc/oc_lwm2m/oc_lwm2m_imp/boudica150\boudica150_oc.c ****     memset(cmd,0,64);
 2468              		.loc 1 627 0
 2469 0028 07F14803 		add	r3, r7, #72
 2470 002c 4022     		movs	r2, #64
 2471 002e 0021     		movs	r1, #0
 2472 0030 1846     		mov	r0, r3
 2473 0032 FFF7FEFF 		bl	memset
 628:E:/LiteOS/LiteOS_Lab/iot_link/oc/oc_lwm2m/oc_lwm2m_imp/boudica150\boudica150_oc.c ****     memset(resp,0,64);
 2474              		.loc 1 628 0
 2475 0036 07F10803 		add	r3, r7, #8
 2476 003a 4022     		movs	r2, #64
 2477 003c 0021     		movs	r1, #0
 2478 003e 1846     		mov	r0, r3
 2479 0040 FFF7FEFF 		bl	memset
 629:E:/LiteOS/LiteOS_Lab/iot_link/oc/oc_lwm2m/oc_lwm2m_imp/boudica150\boudica150_oc.c ****     snprintf(cmd,64,"AT+CSQ\r");
 2480              		.loc 1 629 0
 2481 0044 07F14803 		add	r3, r7, #72
 2482 0048 294A     		ldr	r2, .L157+4
 2483 004a 92E80300 		ldm	r2, {r0, r1}
 2484 004e 83E80300 		stm	r3, {r0, r1}
 630:E:/LiteOS/LiteOS_Lab/iot_link/oc/oc_lwm2m/oc_lwm2m_imp/boudica150\boudica150_oc.c ****     if(boudica150_atcmd_response(cmd,index,resp,64))
 2485              		.loc 1 630 0
 2486 0052 07F10802 		add	r2, r7, #8
 2487 0056 07F14800 		add	r0, r7, #72
 2488 005a 4023     		movs	r3, #64
 2489 005c D7F88810 		ldr	r1, [r7, #136]
 2490 0060 FFF7FEFF 		bl	boudica150_atcmd_response
 2491 0064 0346     		mov	r3, r0
ARM GAS  C:\Users\user\AppData\Local\Temp\ccQ1o4Rh.s 			page 57


 2492 0066 002B     		cmp	r3, #0
 2493 0068 39D0     		beq	.L152
 2494              	.LBB13:
 631:E:/LiteOS/LiteOS_Lab/iot_link/oc/oc_lwm2m/oc_lwm2m_imp/boudica150\boudica150_oc.c ****     {
 632:E:/LiteOS/LiteOS_Lab/iot_link/oc/oc_lwm2m/oc_lwm2m_imp/boudica150\boudica150_oc.c ****         str = strstr((char *)resp,"+CSQ:");
 2495              		.loc 1 632 0
 2496 006a 07F10803 		add	r3, r7, #8
 2497 006e 2149     		ldr	r1, .L157+8
 2498 0070 1846     		mov	r0, r3
 2499 0072 FFF7FEFF 		bl	strstr
 2500 0076 C7F89400 		str	r0, [r7, #148]
 633:E:/LiteOS/LiteOS_Lab/iot_link/oc/oc_lwm2m/oc_lwm2m_imp/boudica150\boudica150_oc.c ****         if(NULL != str)
 2501              		.loc 1 633 0
 2502 007a D7F89430 		ldr	r3, [r7, #148]
 2503 007e 002B     		cmp	r3, #0
 2504 0080 2DD0     		beq	.L152
 2505              	.LBB14:
 634:E:/LiteOS/LiteOS_Lab/iot_link/oc/oc_lwm2m/oc_lwm2m_imp/boudica150\boudica150_oc.c ****         {
 635:E:/LiteOS/LiteOS_Lab/iot_link/oc/oc_lwm2m/oc_lwm2m_imp/boudica150\boudica150_oc.c ****             str += strlen("+CSQ:");
 2506              		.loc 1 635 0
 2507 0082 D7F89430 		ldr	r3, [r7, #148]
 2508 0086 0533     		adds	r3, r3, #5
 2509 0088 C7F89430 		str	r3, [r7, #148]
 636:E:/LiteOS/LiteOS_Lab/iot_link/oc/oc_lwm2m/oc_lwm2m_imp/boudica150\boudica150_oc.c ****             for (; *str <= '9' && *str >= '0' ;str++)
 2510              		.loc 1 636 0
 2511 008c 12E0     		b	.L153
 2512              	.L155:
 637:E:/LiteOS/LiteOS_Lab/iot_link/oc/oc_lwm2m/oc_lwm2m_imp/boudica150\boudica150_oc.c ****             {
 638:E:/LiteOS/LiteOS_Lab/iot_link/oc/oc_lwm2m/oc_lwm2m_imp/boudica150\boudica150_oc.c ****                 csq = (csq * 10 + (*str - '0'));
 2513              		.loc 1 638 0 discriminator 3
 2514 008e D7F89020 		ldr	r2, [r7, #144]
 2515 0092 1346     		mov	r3, r2
 2516 0094 9B00     		lsls	r3, r3, #2
 2517 0096 1344     		add	r3, r3, r2
 2518 0098 5B00     		lsls	r3, r3, #1
 2519 009a 1A46     		mov	r2, r3
 2520 009c D7F89430 		ldr	r3, [r7, #148]
 2521 00a0 1B78     		ldrb	r3, [r3]	@ zero_extendqisi2
 2522 00a2 303B     		subs	r3, r3, #48
 2523 00a4 1344     		add	r3, r3, r2
 2524 00a6 C7F89030 		str	r3, [r7, #144]
 636:E:/LiteOS/LiteOS_Lab/iot_link/oc/oc_lwm2m/oc_lwm2m_imp/boudica150\boudica150_oc.c ****             for (; *str <= '9' && *str >= '0' ;str++)
 2525              		.loc 1 636 0 discriminator 3
 2526 00aa D7F89430 		ldr	r3, [r7, #148]
 2527 00ae 0133     		adds	r3, r3, #1
 2528 00b0 C7F89430 		str	r3, [r7, #148]
 2529              	.L153:
 636:E:/LiteOS/LiteOS_Lab/iot_link/oc/oc_lwm2m/oc_lwm2m_imp/boudica150\boudica150_oc.c ****             for (; *str <= '9' && *str >= '0' ;str++)
 2530              		.loc 1 636 0 is_stmt 0 discriminator 1
 2531 00b4 D7F89430 		ldr	r3, [r7, #148]
 2532 00b8 1B78     		ldrb	r3, [r3]	@ zero_extendqisi2
 2533 00ba 392B     		cmp	r3, #57
 2534 00bc 04D8     		bhi	.L154
 636:E:/LiteOS/LiteOS_Lab/iot_link/oc/oc_lwm2m/oc_lwm2m_imp/boudica150\boudica150_oc.c ****             for (; *str <= '9' && *str >= '0' ;str++)
 2535              		.loc 1 636 0 discriminator 2
 2536 00be D7F89430 		ldr	r3, [r7, #148]
 2537 00c2 1B78     		ldrb	r3, [r3]	@ zero_extendqisi2
ARM GAS  C:\Users\user\AppData\Local\Temp\ccQ1o4Rh.s 			page 58


 2538 00c4 2F2B     		cmp	r3, #47
 2539 00c6 E2D8     		bhi	.L155
 2540              	.L154:
 639:E:/LiteOS/LiteOS_Lab/iot_link/oc/oc_lwm2m/oc_lwm2m_imp/boudica150\boudica150_oc.c ****             }
 640:E:/LiteOS/LiteOS_Lab/iot_link/oc/oc_lwm2m/oc_lwm2m_imp/boudica150\boudica150_oc.c ****             if(csq != 99) //99 is invalid
 2541              		.loc 1 640 0 is_stmt 1
 2542 00c8 D7F89030 		ldr	r3, [r7, #144]
 2543 00cc 632B     		cmp	r3, #99
 2544 00ce 06D0     		beq	.L152
 641:E:/LiteOS/LiteOS_Lab/iot_link/oc/oc_lwm2m/oc_lwm2m_imp/boudica150\boudica150_oc.c ****             {
 642:E:/LiteOS/LiteOS_Lab/iot_link/oc/oc_lwm2m/oc_lwm2m_imp/boudica150\boudica150_oc.c ****                 *value = csq;
 2545              		.loc 1 642 0
 2546 00d0 7B68     		ldr	r3, [r7, #4]
 2547 00d2 D7F89020 		ldr	r2, [r7, #144]
 2548 00d6 1A60     		str	r2, [r3]
 643:E:/LiteOS/LiteOS_Lab/iot_link/oc/oc_lwm2m/oc_lwm2m_imp/boudica150\boudica150_oc.c ****                 ret = 0;
 2549              		.loc 1 643 0
 2550 00d8 0023     		movs	r3, #0
 2551 00da C7F88C30 		str	r3, [r7, #140]
 2552              	.L152:
 2553              	.LBE14:
 2554              	.LBE13:
 644:E:/LiteOS/LiteOS_Lab/iot_link/oc/oc_lwm2m/oc_lwm2m_imp/boudica150\boudica150_oc.c ****             }
 645:E:/LiteOS/LiteOS_Lab/iot_link/oc/oc_lwm2m/oc_lwm2m_imp/boudica150\boudica150_oc.c ****         }
 646:E:/LiteOS/LiteOS_Lab/iot_link/oc/oc_lwm2m/oc_lwm2m_imp/boudica150\boudica150_oc.c ****     }
 647:E:/LiteOS/LiteOS_Lab/iot_link/oc/oc_lwm2m/oc_lwm2m_imp/boudica150\boudica150_oc.c ****     return ret;
 2555              		.loc 1 647 0
 2556 00de D7F88C30 		ldr	r3, [r7, #140]
 2557              	.L156:
 648:E:/LiteOS/LiteOS_Lab/iot_link/oc/oc_lwm2m/oc_lwm2m_imp/boudica150\boudica150_oc.c **** }
 2558              		.loc 1 648 0 discriminator 1
 2559 00e2 1846     		mov	r0, r3
 2560 00e4 9837     		adds	r7, r7, #152
 2561              	.LCFI117:
 2562              		.cfi_def_cfa_offset 8
 2563 00e6 BD46     		mov	sp, r7
 2564              	.LCFI118:
 2565              		.cfi_def_cfa_register 13
 2566              		@ sp needed
 2567 00e8 80BD     		pop	{r7, pc}
 2568              	.L158:
 2569 00ea 00BF     		.align	2
 2570              	.L157:
 2571 00ec 14000000 		.word	.LC2
 2572 00f0 64020000 		.word	.LC40
 2573 00f4 6C020000 		.word	.LC41
 2574              		.cfi_endproc
 2575              	.LFE26:
 2577              		.section	.rodata
 2578 0272 0000     		.align	2
 2579              	.LC42:
 2580 0274 41542B4E 		.ascii	"AT+NUESTATS=CELL\015\000"
 2580      55455354 
 2580      4154533D 
 2580      43454C4C 
 2580      0D00
 2581 0286 0000     		.align	2
ARM GAS  C:\Users\user\AppData\Local\Temp\ccQ1o4Rh.s 			page 59


 2582              	.LC43:
 2583 0288 4E554553 		.ascii	"NUESTATS:\000"
 2583      54415453 
 2583      3A00
 2584 0292 0000     		.align	2
 2585              	.LC44:
 2586 0294 4E554553 		.ascii	"NUESTATS:CELL,%d,%d,%d,%d,%d,%d,%d\000"
 2586      54415453 
 2586      3A43454C 
 2586      4C2C2564 
 2586      2C25642C 
 2587 02b7 00       		.align	2
 2588              	.LC45:
 2589 02b8 41542B4E 		.ascii	"AT+NUESTATS\015\000"
 2589      55455354 
 2589      4154530D 
 2589      00
 2590 02c5 000000   		.align	2
 2591              	.LC46:
 2592 02c8 45434C3A 		.ascii	"ECL:\000"
 2592      00
 2593 02cd 000000   		.align	2
 2594              	.LC47:
 2595 02d0 45434C3A 		.ascii	"ECL:%d\000"
 2595      256400
 2596 02d7 00       		.align	2
 2597              	.LC48:
 2598 02d8 534E523A 		.ascii	"SNR:\000"
 2598      00
 2599 02dd 000000   		.align	2
 2600              	.LC49:
 2601 02e0 534E523A 		.ascii	"SNR:%d\000"
 2601      256400
 2602 02e7 00       		.align	2
 2603              	.LC50:
 2604 02e8 43656C6C 		.ascii	"Cell ID:\000"
 2604      2049443A 
 2604      00
 2605 02f1 000000   		.align	2
 2606              	.LC51:
 2607 02f4 43656C6C 		.ascii	"Cell ID:%d\000"
 2607      2049443A 
 2607      256400
 2608              		.section	.text.boudica150_check_nuestats,"ax",%progbits
 2609              		.align	1
 2610              		.global	boudica150_check_nuestats
 2611              		.syntax unified
 2612              		.thumb
 2613              		.thumb_func
 2614              		.fpu fpv4-sp-d16
 2616              	boudica150_check_nuestats:
 2617              	.LFB27:
 649:E:/LiteOS/LiteOS_Lab/iot_link/oc/oc_lwm2m/oc_lwm2m_imp/boudica150\boudica150_oc.c **** 
 650:E:/LiteOS/LiteOS_Lab/iot_link/oc/oc_lwm2m/oc_lwm2m_imp/boudica150\boudica150_oc.c **** int *boudica150_check_nuestats(void)
 651:E:/LiteOS/LiteOS_Lab/iot_link/oc/oc_lwm2m/oc_lwm2m_imp/boudica150\boudica150_oc.c **** {
 2618              		.loc 1 651 0
 2619              		.cfi_startproc
ARM GAS  C:\Users\user\AppData\Local\Temp\ccQ1o4Rh.s 			page 60


 2620              		@ args = 0, pretend = 0, frame = 352
 2621              		@ frame_needed = 1, uses_anonymous_args = 0
 2622 0000 B0B5     		push	{r4, r5, r7, lr}
 2623              	.LCFI119:
 2624              		.cfi_def_cfa_offset 16
 2625              		.cfi_offset 4, -16
 2626              		.cfi_offset 5, -12
 2627              		.cfi_offset 7, -8
 2628              		.cfi_offset 14, -4
 2629 0002 DEB0     		sub	sp, sp, #376
 2630              	.LCFI120:
 2631              		.cfi_def_cfa_offset 392
 2632 0004 06AF     		add	r7, sp, #24
 2633              	.LCFI121:
 2634              		.cfi_def_cfa 7, 368
 652:E:/LiteOS/LiteOS_Lab/iot_link/oc/oc_lwm2m/oc_lwm2m_imp/boudica150\boudica150_oc.c ****     char cmd[64];
 653:E:/LiteOS/LiteOS_Lab/iot_link/oc/oc_lwm2m/oc_lwm2m_imp/boudica150\boudica150_oc.c ****     char resp[256];
 654:E:/LiteOS/LiteOS_Lab/iot_link/oc/oc_lwm2m/oc_lwm2m_imp/boudica150\boudica150_oc.c ****     char *str;
 655:E:/LiteOS/LiteOS_Lab/iot_link/oc/oc_lwm2m/oc_lwm2m_imp/boudica150\boudica150_oc.c **** 
 656:E:/LiteOS/LiteOS_Lab/iot_link/oc/oc_lwm2m/oc_lwm2m_imp/boudica150\boudica150_oc.c ****     memset(cmd,0,64);
 2635              		.loc 1 656 0
 2636 0006 07F58E73 		add	r3, r7, #284
 2637 000a 4022     		movs	r2, #64
 2638 000c 0021     		movs	r1, #0
 2639 000e 1846     		mov	r0, r3
 2640 0010 FFF7FEFF 		bl	memset
 657:E:/LiteOS/LiteOS_Lab/iot_link/oc/oc_lwm2m/oc_lwm2m_imp/boudica150\boudica150_oc.c ****     memset(resp,0,64);
 2641              		.loc 1 657 0
 2642 0014 07F11C03 		add	r3, r7, #28
 2643 0018 4022     		movs	r2, #64
 2644 001a 0021     		movs	r1, #0
 2645 001c 1846     		mov	r0, r3
 2646 001e FFF7FEFF 		bl	memset
 658:E:/LiteOS/LiteOS_Lab/iot_link/oc/oc_lwm2m/oc_lwm2m_imp/boudica150\boudica150_oc.c ****     snprintf(cmd,64,"AT+NUESTATS=CELL\r");
 2647              		.loc 1 658 0
 2648 0022 07F58E73 		add	r3, r7, #284
 2649 0026 504A     		ldr	r2, .L168
 2650 0028 1C46     		mov	r4, r3
 2651 002a 1546     		mov	r5, r2
 2652 002c 0FCD     		ldmia	r5!, {r0, r1, r2, r3}
 2653 002e 0FC4     		stmia	r4!, {r0, r1, r2, r3}
 2654 0030 2B68     		ldr	r3, [r5]
 2655 0032 2380     		strh	r3, [r4]	@ movhi
 659:E:/LiteOS/LiteOS_Lab/iot_link/oc/oc_lwm2m/oc_lwm2m_imp/boudica150\boudica150_oc.c **** 
 660:E:/LiteOS/LiteOS_Lab/iot_link/oc/oc_lwm2m/oc_lwm2m_imp/boudica150\boudica150_oc.c ****     if (boudica150_atcmd_response(cmd,"NUESTATS:",resp,256) < 0)
 2656              		.loc 1 660 0
 2657 0034 07F11C02 		add	r2, r7, #28
 2658 0038 07F58E70 		add	r0, r7, #284
 2659 003c 4FF48073 		mov	r3, #256
 2660 0040 4A49     		ldr	r1, .L168+4
 2661 0042 FFF7FEFF 		bl	boudica150_atcmd_response
 2662 0046 0346     		mov	r3, r0
 2663 0048 002B     		cmp	r3, #0
 2664 004a 01DA     		bge	.L160
 661:E:/LiteOS/LiteOS_Lab/iot_link/oc/oc_lwm2m/oc_lwm2m_imp/boudica150\boudica150_oc.c ****     {
 662:E:/LiteOS/LiteOS_Lab/iot_link/oc/oc_lwm2m/oc_lwm2m_imp/boudica150\boudica150_oc.c ****     	return NULL;
 2665              		.loc 1 662 0
ARM GAS  C:\Users\user\AppData\Local\Temp\ccQ1o4Rh.s 			page 61


 2666 004c 0023     		movs	r3, #0
 2667 004e 86E0     		b	.L167
 2668              	.L160:
 663:E:/LiteOS/LiteOS_Lab/iot_link/oc/oc_lwm2m/oc_lwm2m_imp/boudica150\boudica150_oc.c ****     }
 664:E:/LiteOS/LiteOS_Lab/iot_link/oc/oc_lwm2m/oc_lwm2m_imp/boudica150\boudica150_oc.c ****     str = strstr(resp,"NUESTATS:");
 2669              		.loc 1 664 0
 2670 0050 07F11C03 		add	r3, r7, #28
 2671 0054 4549     		ldr	r1, .L168+4
 2672 0056 1846     		mov	r0, r3
 2673 0058 FFF7FEFF 		bl	strstr
 2674 005c C7F85C01 		str	r0, [r7, #348]
 665:E:/LiteOS/LiteOS_Lab/iot_link/oc/oc_lwm2m/oc_lwm2m_imp/boudica150\boudica150_oc.c ****     if (str == NULL)
 2675              		.loc 1 665 0
 2676 0060 D7F85C31 		ldr	r3, [r7, #348]
 2677 0064 002B     		cmp	r3, #0
 2678 0066 01D1     		bne	.L162
 666:E:/LiteOS/LiteOS_Lab/iot_link/oc/oc_lwm2m/oc_lwm2m_imp/boudica150\boudica150_oc.c ****     {
 667:E:/LiteOS/LiteOS_Lab/iot_link/oc/oc_lwm2m/oc_lwm2m_imp/boudica150\boudica150_oc.c ****     	return NULL;
 2679              		.loc 1 667 0
 2680 0068 0023     		movs	r3, #0
 2681 006a 78E0     		b	.L167
 2682              	.L162:
 668:E:/LiteOS/LiteOS_Lab/iot_link/oc/oc_lwm2m/oc_lwm2m_imp/boudica150\boudica150_oc.c ****     }
 669:E:/LiteOS/LiteOS_Lab/iot_link/oc/oc_lwm2m/oc_lwm2m_imp/boudica150\boudica150_oc.c ****     int earfcn, physical_cellid, primary_cell, rsrp, rsrq, rssi, snr;  //for now only rsrp is neede
 670:E:/LiteOS/LiteOS_Lab/iot_link/oc/oc_lwm2m/oc_lwm2m_imp/boudica150\boudica150_oc.c ****     sscanf(str,"NUESTATS:CELL,%d,%d,%d,%d,%d,%d,%d",&earfcn, &physical_cellid, &primary_cell, &rsrp
 2683              		.loc 1 670 0
 2684 006c 07F11401 		add	r1, r7, #20
 2685 0070 07F11802 		add	r2, r7, #24
 2686 0074 3B46     		mov	r3, r7
 2687 0076 0493     		str	r3, [sp, #16]
 2688 0078 3B1D     		adds	r3, r7, #4
 2689 007a 0393     		str	r3, [sp, #12]
 2690 007c 07F10803 		add	r3, r7, #8
 2691 0080 0293     		str	r3, [sp, #8]
 2692 0082 07F10C03 		add	r3, r7, #12
 2693 0086 0193     		str	r3, [sp, #4]
 2694 0088 07F11003 		add	r3, r7, #16
 2695 008c 0093     		str	r3, [sp]
 2696 008e 0B46     		mov	r3, r1
 2697 0090 3749     		ldr	r1, .L168+8
 2698 0092 D7F85C01 		ldr	r0, [r7, #348]
 2699 0096 FFF7FEFF 		bl	sscanf
 671:E:/LiteOS/LiteOS_Lab/iot_link/oc/oc_lwm2m/oc_lwm2m_imp/boudica150\boudica150_oc.c ****     wireless_stats[0] = rsrp;
 2700              		.loc 1 671 0
 2701 009a 07F10C03 		add	r3, r7, #12
 2702 009e 1B68     		ldr	r3, [r3]
 2703 00a0 344A     		ldr	r2, .L168+12
 2704 00a2 1360     		str	r3, [r2]
 672:E:/LiteOS/LiteOS_Lab/iot_link/oc/oc_lwm2m/oc_lwm2m_imp/boudica150\boudica150_oc.c **** 
 673:E:/LiteOS/LiteOS_Lab/iot_link/oc/oc_lwm2m/oc_lwm2m_imp/boudica150\boudica150_oc.c ****     memset(cmd,0,64);
 2705              		.loc 1 673 0
 2706 00a4 07F58E73 		add	r3, r7, #284
 2707 00a8 4022     		movs	r2, #64
 2708 00aa 0021     		movs	r1, #0
 2709 00ac 1846     		mov	r0, r3
 2710 00ae FFF7FEFF 		bl	memset
 674:E:/LiteOS/LiteOS_Lab/iot_link/oc/oc_lwm2m/oc_lwm2m_imp/boudica150\boudica150_oc.c ****     snprintf(cmd,64,"AT+NUESTATS\r");
ARM GAS  C:\Users\user\AppData\Local\Temp\ccQ1o4Rh.s 			page 62


 2711              		.loc 1 674 0
 2712 00b2 07F58E73 		add	r3, r7, #284
 2713 00b6 304A     		ldr	r2, .L168+16
 2714 00b8 1C46     		mov	r4, r3
 2715 00ba 1346     		mov	r3, r2
 2716 00bc 0FCB     		ldm	r3, {r0, r1, r2, r3}
 2717 00be 07C4     		stmia	r4!, {r0, r1, r2}
 2718 00c0 2370     		strb	r3, [r4]
 675:E:/LiteOS/LiteOS_Lab/iot_link/oc/oc_lwm2m/oc_lwm2m_imp/boudica150\boudica150_oc.c ****     if (boudica150_atcmd_response(cmd,"OK",resp,256) < 0)
 2719              		.loc 1 675 0
 2720 00c2 07F11C02 		add	r2, r7, #28
 2721 00c6 07F58E70 		add	r0, r7, #284
 2722 00ca 4FF48073 		mov	r3, #256
 2723 00ce 2B49     		ldr	r1, .L168+20
 2724 00d0 FFF7FEFF 		bl	boudica150_atcmd_response
 2725 00d4 0346     		mov	r3, r0
 2726 00d6 002B     		cmp	r3, #0
 2727 00d8 01DA     		bge	.L163
 676:E:/LiteOS/LiteOS_Lab/iot_link/oc/oc_lwm2m/oc_lwm2m_imp/boudica150\boudica150_oc.c ****     {
 677:E:/LiteOS/LiteOS_Lab/iot_link/oc/oc_lwm2m/oc_lwm2m_imp/boudica150\boudica150_oc.c ****         return NULL;
 2728              		.loc 1 677 0
 2729 00da 0023     		movs	r3, #0
 2730 00dc 3FE0     		b	.L167
 2731              	.L163:
 678:E:/LiteOS/LiteOS_Lab/iot_link/oc/oc_lwm2m/oc_lwm2m_imp/boudica150\boudica150_oc.c ****     }
 679:E:/LiteOS/LiteOS_Lab/iot_link/oc/oc_lwm2m/oc_lwm2m_imp/boudica150\boudica150_oc.c ****     str = strstr(resp,"ECL:");
 2732              		.loc 1 679 0
 2733 00de 07F11C03 		add	r3, r7, #28
 2734 00e2 2749     		ldr	r1, .L168+24
 2735 00e4 1846     		mov	r0, r3
 2736 00e6 FFF7FEFF 		bl	strstr
 2737 00ea C7F85C01 		str	r0, [r7, #348]
 680:E:/LiteOS/LiteOS_Lab/iot_link/oc/oc_lwm2m/oc_lwm2m_imp/boudica150\boudica150_oc.c ****     if (str == NULL)
 2738              		.loc 1 680 0
 2739 00ee D7F85C31 		ldr	r3, [r7, #348]
 2740 00f2 002B     		cmp	r3, #0
 2741 00f4 02D1     		bne	.L164
 681:E:/LiteOS/LiteOS_Lab/iot_link/oc/oc_lwm2m/oc_lwm2m_imp/boudica150\boudica150_oc.c ****     {
 682:E:/LiteOS/LiteOS_Lab/iot_link/oc/oc_lwm2m/oc_lwm2m_imp/boudica150\boudica150_oc.c ****     	return -1;
 2742              		.loc 1 682 0
 2743 00f6 4FF0FF33 		mov	r3, #-1
 2744 00fa 30E0     		b	.L167
 2745              	.L164:
 683:E:/LiteOS/LiteOS_Lab/iot_link/oc/oc_lwm2m/oc_lwm2m_imp/boudica150\boudica150_oc.c ****     }
 684:E:/LiteOS/LiteOS_Lab/iot_link/oc/oc_lwm2m/oc_lwm2m_imp/boudica150\boudica150_oc.c ****     sscanf(str,"ECL:%d",&wireless_stats[1]);
 2746              		.loc 1 684 0
 2747 00fc 214A     		ldr	r2, .L168+28
 2748 00fe 2249     		ldr	r1, .L168+32
 2749 0100 D7F85C01 		ldr	r0, [r7, #348]
 2750 0104 FFF7FEFF 		bl	sscanf
 685:E:/LiteOS/LiteOS_Lab/iot_link/oc/oc_lwm2m/oc_lwm2m_imp/boudica150\boudica150_oc.c **** 
 686:E:/LiteOS/LiteOS_Lab/iot_link/oc/oc_lwm2m/oc_lwm2m_imp/boudica150\boudica150_oc.c ****     str = strstr(resp,"SNR:");
 2751              		.loc 1 686 0
 2752 0108 07F11C03 		add	r3, r7, #28
 2753 010c 1F49     		ldr	r1, .L168+36
 2754 010e 1846     		mov	r0, r3
 2755 0110 FFF7FEFF 		bl	strstr
ARM GAS  C:\Users\user\AppData\Local\Temp\ccQ1o4Rh.s 			page 63


 2756 0114 C7F85C01 		str	r0, [r7, #348]
 687:E:/LiteOS/LiteOS_Lab/iot_link/oc/oc_lwm2m/oc_lwm2m_imp/boudica150\boudica150_oc.c ****     if (str == NULL)
 2757              		.loc 1 687 0
 2758 0118 D7F85C31 		ldr	r3, [r7, #348]
 2759 011c 002B     		cmp	r3, #0
 2760 011e 02D1     		bne	.L165
 688:E:/LiteOS/LiteOS_Lab/iot_link/oc/oc_lwm2m/oc_lwm2m_imp/boudica150\boudica150_oc.c ****     {
 689:E:/LiteOS/LiteOS_Lab/iot_link/oc/oc_lwm2m/oc_lwm2m_imp/boudica150\boudica150_oc.c ****         return -1;
 2761              		.loc 1 689 0
 2762 0120 4FF0FF33 		mov	r3, #-1
 2763 0124 1BE0     		b	.L167
 2764              	.L165:
 690:E:/LiteOS/LiteOS_Lab/iot_link/oc/oc_lwm2m/oc_lwm2m_imp/boudica150\boudica150_oc.c ****     }
 691:E:/LiteOS/LiteOS_Lab/iot_link/oc/oc_lwm2m/oc_lwm2m_imp/boudica150\boudica150_oc.c ****     sscanf(str,"SNR:%d",&wireless_stats[2]);
 2765              		.loc 1 691 0
 2766 0126 1A4A     		ldr	r2, .L168+40
 2767 0128 1A49     		ldr	r1, .L168+44
 2768 012a D7F85C01 		ldr	r0, [r7, #348]
 2769 012e FFF7FEFF 		bl	sscanf
 692:E:/LiteOS/LiteOS_Lab/iot_link/oc/oc_lwm2m/oc_lwm2m_imp/boudica150\boudica150_oc.c **** 
 693:E:/LiteOS/LiteOS_Lab/iot_link/oc/oc_lwm2m/oc_lwm2m_imp/boudica150\boudica150_oc.c ****     str = strstr(resp,"Cell ID:");
 2770              		.loc 1 693 0
 2771 0132 07F11C03 		add	r3, r7, #28
 2772 0136 1849     		ldr	r1, .L168+48
 2773 0138 1846     		mov	r0, r3
 2774 013a FFF7FEFF 		bl	strstr
 2775 013e C7F85C01 		str	r0, [r7, #348]
 694:E:/LiteOS/LiteOS_Lab/iot_link/oc/oc_lwm2m/oc_lwm2m_imp/boudica150\boudica150_oc.c ****     if (str == NULL)
 2776              		.loc 1 694 0
 2777 0142 D7F85C31 		ldr	r3, [r7, #348]
 2778 0146 002B     		cmp	r3, #0
 2779 0148 02D1     		bne	.L166
 695:E:/LiteOS/LiteOS_Lab/iot_link/oc/oc_lwm2m/oc_lwm2m_imp/boudica150\boudica150_oc.c ****     {
 696:E:/LiteOS/LiteOS_Lab/iot_link/oc/oc_lwm2m/oc_lwm2m_imp/boudica150\boudica150_oc.c ****         return -1;
 2780              		.loc 1 696 0
 2781 014a 4FF0FF33 		mov	r3, #-1
 2782 014e 06E0     		b	.L167
 2783              	.L166:
 697:E:/LiteOS/LiteOS_Lab/iot_link/oc/oc_lwm2m/oc_lwm2m_imp/boudica150\boudica150_oc.c ****     }
 698:E:/LiteOS/LiteOS_Lab/iot_link/oc/oc_lwm2m/oc_lwm2m_imp/boudica150\boudica150_oc.c ****     sscanf(str,"Cell ID:%d",&wireless_stats[3]);
 2784              		.loc 1 698 0
 2785 0150 124A     		ldr	r2, .L168+52
 2786 0152 1349     		ldr	r1, .L168+56
 2787 0154 D7F85C01 		ldr	r0, [r7, #348]
 2788 0158 FFF7FEFF 		bl	sscanf
 699:E:/LiteOS/LiteOS_Lab/iot_link/oc/oc_lwm2m/oc_lwm2m_imp/boudica150\boudica150_oc.c **** 
 700:E:/LiteOS/LiteOS_Lab/iot_link/oc/oc_lwm2m/oc_lwm2m_imp/boudica150\boudica150_oc.c ****     return wireless_stats;
 2789              		.loc 1 700 0
 2790 015c 054B     		ldr	r3, .L168+12
 2791              	.L167:
 701:E:/LiteOS/LiteOS_Lab/iot_link/oc/oc_lwm2m/oc_lwm2m_imp/boudica150\boudica150_oc.c **** }
 2792              		.loc 1 701 0 discriminator 1
 2793 015e 1846     		mov	r0, r3
 2794 0160 07F5B077 		add	r7, r7, #352
 2795              	.LCFI122:
 2796              		.cfi_def_cfa_offset 16
 2797 0164 BD46     		mov	sp, r7
ARM GAS  C:\Users\user\AppData\Local\Temp\ccQ1o4Rh.s 			page 64


 2798              	.LCFI123:
 2799              		.cfi_def_cfa_register 13
 2800              		@ sp needed
 2801 0166 B0BD     		pop	{r4, r5, r7, pc}
 2802              	.L169:
 2803              		.align	2
 2804              	.L168:
 2805 0168 74020000 		.word	.LC42
 2806 016c 88020000 		.word	.LC43
 2807 0170 94020000 		.word	.LC44
 2808 0174 00000000 		.word	wireless_stats
 2809 0178 B8020000 		.word	.LC45
 2810 017c 14000000 		.word	.LC2
 2811 0180 C8020000 		.word	.LC46
 2812 0184 04000000 		.word	wireless_stats+4
 2813 0188 D0020000 		.word	.LC47
 2814 018c D8020000 		.word	.LC48
 2815 0190 08000000 		.word	wireless_stats+8
 2816 0194 E0020000 		.word	.LC49
 2817 0198 E8020000 		.word	.LC50
 2818 019c 0C000000 		.word	wireless_stats+12
 2819 01a0 F4020000 		.word	.LC51
 2820              		.cfi_endproc
 2821              	.LFE27:
 2823              		.global	g_boudica150_oc_opt
 2824              		.section	.rodata.g_boudica150_oc_opt,"a",%progbits
 2825              		.align	2
 2828              	g_boudica150_oc_opt:
 2829 0000 00000000 		.word	boudica150_oc_config
 2830 0004 00000000 		.word	boudica150_oc_report
 2831 0008 00000000 		.word	boudica150_oc_deconfig
 2832              		.section	.rodata
 2833 02ff 00       		.align	2
 2834              	.LC52:
 2835 0300 626F7564 		.ascii	"boudica150\000"
 2835      69636131 
 2835      353000
 2836              		.section	.text.boudica150_init,"ax",%progbits
 2837              		.align	1
 2838              		.global	boudica150_init
 2839              		.syntax unified
 2840              		.thumb
 2841              		.thumb_func
 2842              		.fpu fpv4-sp-d16
 2844              	boudica150_init:
 2845              	.LFB28:
 702:E:/LiteOS/LiteOS_Lab/iot_link/oc/oc_lwm2m/oc_lwm2m_imp/boudica150\boudica150_oc.c **** 
 703:E:/LiteOS/LiteOS_Lab/iot_link/oc/oc_lwm2m/oc_lwm2m_imp/boudica150\boudica150_oc.c **** const oc_lwm2m_opt_t  g_boudica150_oc_opt = \
 704:E:/LiteOS/LiteOS_Lab/iot_link/oc/oc_lwm2m/oc_lwm2m_imp/boudica150\boudica150_oc.c **** {
 705:E:/LiteOS/LiteOS_Lab/iot_link/oc/oc_lwm2m/oc_lwm2m_imp/boudica150\boudica150_oc.c ****     .config = boudica150_oc_config,
 706:E:/LiteOS/LiteOS_Lab/iot_link/oc/oc_lwm2m/oc_lwm2m_imp/boudica150\boudica150_oc.c ****     .deconfig = boudica150_oc_deconfig,
 707:E:/LiteOS/LiteOS_Lab/iot_link/oc/oc_lwm2m/oc_lwm2m_imp/boudica150\boudica150_oc.c ****     .report = boudica150_oc_report,
 708:E:/LiteOS/LiteOS_Lab/iot_link/oc/oc_lwm2m/oc_lwm2m_imp/boudica150\boudica150_oc.c **** };
 709:E:/LiteOS/LiteOS_Lab/iot_link/oc/oc_lwm2m/oc_lwm2m_imp/boudica150\boudica150_oc.c **** 
 710:E:/LiteOS/LiteOS_Lab/iot_link/oc/oc_lwm2m/oc_lwm2m_imp/boudica150\boudica150_oc.c **** 
 711:E:/LiteOS/LiteOS_Lab/iot_link/oc/oc_lwm2m/oc_lwm2m_imp/boudica150\boudica150_oc.c **** int boudica150_init(const char *plmn, const char *apn, const char *bands)
 712:E:/LiteOS/LiteOS_Lab/iot_link/oc/oc_lwm2m/oc_lwm2m_imp/boudica150\boudica150_oc.c **** {
ARM GAS  C:\Users\user\AppData\Local\Temp\ccQ1o4Rh.s 			page 65


 2846              		.loc 1 712 0
 2847              		.cfi_startproc
 2848              		@ args = 0, pretend = 0, frame = 24
 2849              		@ frame_needed = 1, uses_anonymous_args = 0
 2850 0000 80B5     		push	{r7, lr}
 2851              	.LCFI124:
 2852              		.cfi_def_cfa_offset 8
 2853              		.cfi_offset 7, -8
 2854              		.cfi_offset 14, -4
 2855 0002 86B0     		sub	sp, sp, #24
 2856              	.LCFI125:
 2857              		.cfi_def_cfa_offset 32
 2858 0004 00AF     		add	r7, sp, #0
 2859              	.LCFI126:
 2860              		.cfi_def_cfa_register 7
 2861 0006 F860     		str	r0, [r7, #12]
 2862 0008 B960     		str	r1, [r7, #8]
 2863 000a 7A60     		str	r2, [r7, #4]
 713:E:/LiteOS/LiteOS_Lab/iot_link/oc/oc_lwm2m/oc_lwm2m_imp/boudica150\boudica150_oc.c ****     int ret = -1;
 2864              		.loc 1 713 0
 2865 000c 4FF0FF33 		mov	r3, #-1
 2866 0010 7B61     		str	r3, [r7, #20]
 714:E:/LiteOS/LiteOS_Lab/iot_link/oc/oc_lwm2m/oc_lwm2m_imp/boudica150\boudica150_oc.c **** 
 715:E:/LiteOS/LiteOS_Lab/iot_link/oc/oc_lwm2m/oc_lwm2m_imp/boudica150\boudica150_oc.c ****     s_boudica150_oc_cb.plmn = plmn;
 2867              		.loc 1 715 0
 2868 0012 094A     		ldr	r2, .L172
 2869 0014 FB68     		ldr	r3, [r7, #12]
 2870 0016 1360     		str	r3, [r2]
 716:E:/LiteOS/LiteOS_Lab/iot_link/oc/oc_lwm2m/oc_lwm2m_imp/boudica150\boudica150_oc.c ****     s_boudica150_oc_cb.apn = apn;
 2871              		.loc 1 716 0
 2872 0018 074A     		ldr	r2, .L172
 2873 001a BB68     		ldr	r3, [r7, #8]
 2874 001c 5360     		str	r3, [r2, #4]
 717:E:/LiteOS/LiteOS_Lab/iot_link/oc/oc_lwm2m/oc_lwm2m_imp/boudica150\boudica150_oc.c ****     s_boudica150_oc_cb.bands = bands;
 2875              		.loc 1 717 0
 2876 001e 064A     		ldr	r2, .L172
 2877 0020 7B68     		ldr	r3, [r7, #4]
 2878 0022 9360     		str	r3, [r2, #8]
 718:E:/LiteOS/LiteOS_Lab/iot_link/oc/oc_lwm2m/oc_lwm2m_imp/boudica150\boudica150_oc.c **** 
 719:E:/LiteOS/LiteOS_Lab/iot_link/oc/oc_lwm2m/oc_lwm2m_imp/boudica150\boudica150_oc.c ****     ret = oc_lwm2m_register("boudica150",&g_boudica150_oc_opt);
 2879              		.loc 1 719 0
 2880 0024 0549     		ldr	r1, .L172+4
 2881 0026 0648     		ldr	r0, .L172+8
 2882 0028 FFF7FEFF 		bl	oc_lwm2m_register
 2883 002c 7861     		str	r0, [r7, #20]
 720:E:/LiteOS/LiteOS_Lab/iot_link/oc/oc_lwm2m/oc_lwm2m_imp/boudica150\boudica150_oc.c **** 
 721:E:/LiteOS/LiteOS_Lab/iot_link/oc/oc_lwm2m/oc_lwm2m_imp/boudica150\boudica150_oc.c ****     return ret;
 2884              		.loc 1 721 0
 2885 002e 7B69     		ldr	r3, [r7, #20]
 722:E:/LiteOS/LiteOS_Lab/iot_link/oc/oc_lwm2m/oc_lwm2m_imp/boudica150\boudica150_oc.c **** }
 2886              		.loc 1 722 0
 2887 0030 1846     		mov	r0, r3
 2888 0032 1837     		adds	r7, r7, #24
 2889              	.LCFI127:
 2890              		.cfi_def_cfa_offset 8
 2891 0034 BD46     		mov	sp, r7
 2892              	.LCFI128:
ARM GAS  C:\Users\user\AppData\Local\Temp\ccQ1o4Rh.s 			page 66


 2893              		.cfi_def_cfa_register 13
 2894              		@ sp needed
 2895 0036 80BD     		pop	{r7, pc}
 2896              	.L173:
 2897              		.align	2
 2898              	.L172:
 2899 0038 00000000 		.word	s_boudica150_oc_cb
 2900 003c 00000000 		.word	g_boudica150_oc_opt
 2901 0040 00030000 		.word	.LC52
 2902              		.cfi_endproc
 2903              	.LFE28:
 2905              		.section	.rodata.__FUNCTION__.6692,"a",%progbits
 2906              		.align	2
 2909              	__FUNCTION__.6692:
 2910 0000 626F7564 		.ascii	"boudica150_rcvdeal\000"
 2910      69636131 
 2910      35305F72 
 2910      63766465 
 2910      616C00
 2911              		.text
 2912              	.Letext0:
 2913              		.file 2 "e:\\ac6\\systemworkbench\\plugins\\fr.ac6.mcu.externaltools.arm-none.win32_1.16.0.2018071
 2914              		.file 3 "e:\\ac6\\systemworkbench\\plugins\\fr.ac6.mcu.externaltools.arm-none.win32_1.16.0.2018071
 2915              		.file 4 "e:\\ac6\\systemworkbench\\plugins\\fr.ac6.mcu.externaltools.arm-none.win32_1.16.0.2018071
 2916              		.file 5 "e:\\ac6\\systemworkbench\\plugins\\fr.ac6.mcu.externaltools.arm-none.win32_1.16.0.2018071
 2917              		.file 6 "E:/LiteOS/LiteOS_Lab/iot_link/oc/oc_lwm2m/oc_lwm2m_al/oc_lwm2m_al.h"
 2918              		.file 7 "<built-in>"
ARM GAS  C:\Users\user\AppData\Local\Temp\ccQ1o4Rh.s 			page 67

