ARM GAS  C:\Users\user\AppData\Local\Temp\ccGlcwic.s 			page 1


   1              		.cpu cortex-m4
   2              		.eabi_attribute 27, 1
   3              		.eabi_attribute 28, 1
   4              		.eabi_attribute 20, 1
   5              		.eabi_attribute 21, 1
   6              		.eabi_attribute 23, 3
   7              		.eabi_attribute 24, 1
   8              		.eabi_attribute 25, 1
   9              		.eabi_attribute 26, 1
  10              		.eabi_attribute 30, 6
  11              		.eabi_attribute 34, 1
  12              		.eabi_attribute 18, 4
  13              		.file	"hal_qspi_flash.c"
  14              		.text
  15              	.Ltext0:
  16              		.cfi_sections	.debug_frame
  17              		.comm	hqspi,76,4
  18              		.section	.text.HAL_QSPI_MspInit,"ax",%progbits
  19              		.align	1
  20              		.global	HAL_QSPI_MspInit
  21              		.syntax unified
  22              		.thumb
  23              		.thumb_func
  24              		.fpu fpv4-sp-d16
  26              	HAL_QSPI_MspInit:
  27              	.LFB133:
  28              		.file 1 "E:/LiteOS/LiteOS_Lab/targets/STM32L431_BearPi/Hardware/Src/hal_qspi_flash.c"
   1:E:/LiteOS/LiteOS_Lab/targets/STM32L431_BearPi/Hardware/Src\hal_qspi_flash.c **** /*----------------------------------------------------------------------------
   2:E:/LiteOS/LiteOS_Lab/targets/STM32L431_BearPi/Hardware/Src\hal_qspi_flash.c ****  * Copyright (c) <2016-2018>, <Huawei Technologies Co., Ltd>
   3:E:/LiteOS/LiteOS_Lab/targets/STM32L431_BearPi/Hardware/Src\hal_qspi_flash.c ****  * All rights reserved.
   4:E:/LiteOS/LiteOS_Lab/targets/STM32L431_BearPi/Hardware/Src\hal_qspi_flash.c ****  * Redistribution and use in source and binary forms, with or without modification,
   5:E:/LiteOS/LiteOS_Lab/targets/STM32L431_BearPi/Hardware/Src\hal_qspi_flash.c ****  * are permitted provided that the following conditions are met:
   6:E:/LiteOS/LiteOS_Lab/targets/STM32L431_BearPi/Hardware/Src\hal_qspi_flash.c ****  * 1. Redistributions of source code must retain the above copyright notice, this list of
   7:E:/LiteOS/LiteOS_Lab/targets/STM32L431_BearPi/Hardware/Src\hal_qspi_flash.c ****  * conditions and the following disclaimer.
   8:E:/LiteOS/LiteOS_Lab/targets/STM32L431_BearPi/Hardware/Src\hal_qspi_flash.c ****  * 2. Redistributions in binary form must reproduce the above copyright notice, this list
   9:E:/LiteOS/LiteOS_Lab/targets/STM32L431_BearPi/Hardware/Src\hal_qspi_flash.c ****  * of conditions and the following disclaimer in the documentation and/or other materials
  10:E:/LiteOS/LiteOS_Lab/targets/STM32L431_BearPi/Hardware/Src\hal_qspi_flash.c ****  * provided with the distribution.
  11:E:/LiteOS/LiteOS_Lab/targets/STM32L431_BearPi/Hardware/Src\hal_qspi_flash.c ****  * 3. Neither the name of the copyright holder nor the names of its contributors may be used
  12:E:/LiteOS/LiteOS_Lab/targets/STM32L431_BearPi/Hardware/Src\hal_qspi_flash.c ****  * to endorse or promote products derived from this software without specific prior written
  13:E:/LiteOS/LiteOS_Lab/targets/STM32L431_BearPi/Hardware/Src\hal_qspi_flash.c ****  * permission.
  14:E:/LiteOS/LiteOS_Lab/targets/STM32L431_BearPi/Hardware/Src\hal_qspi_flash.c ****  * THIS SOFTWARE IS PROVIDED BY THE COPYRIGHT HOLDERS AND CONTRIBUTORS
  15:E:/LiteOS/LiteOS_Lab/targets/STM32L431_BearPi/Hardware/Src\hal_qspi_flash.c ****  * "AS IS" AND ANY EXPRESS OR IMPLIED WARRANTIES, INCLUDING, BUT NOT LIMITED TO,
  16:E:/LiteOS/LiteOS_Lab/targets/STM32L431_BearPi/Hardware/Src\hal_qspi_flash.c ****  * THE IMPLIED WARRANTIES OF MERCHANTABILITY AND FITNESS FOR A PARTICULAR
  17:E:/LiteOS/LiteOS_Lab/targets/STM32L431_BearPi/Hardware/Src\hal_qspi_flash.c ****  * PURPOSE ARE DISCLAIMED. IN NO EVENT SHALL THE COPYRIGHT HOLDER OR
  18:E:/LiteOS/LiteOS_Lab/targets/STM32L431_BearPi/Hardware/Src\hal_qspi_flash.c ****  * CONTRIBUTORS BE LIABLE FOR ANY DIRECT, INDIRECT, INCIDENTAL, SPECIAL,
  19:E:/LiteOS/LiteOS_Lab/targets/STM32L431_BearPi/Hardware/Src\hal_qspi_flash.c ****  * EXEMPLARY, OR CONSEQUENTIAL DAMAGES (INCLUDING, BUT NOT LIMITED TO,
  20:E:/LiteOS/LiteOS_Lab/targets/STM32L431_BearPi/Hardware/Src\hal_qspi_flash.c ****  * PROCUREMENT OF SUBSTITUTE GOODS OR SERVICES; LOSS OF USE, DATA, OR PROFITS;
  21:E:/LiteOS/LiteOS_Lab/targets/STM32L431_BearPi/Hardware/Src\hal_qspi_flash.c ****  * OR BUSINESS INTERRUPTION) HOWEVER CAUSED AND ON ANY THEORY OF LIABILITY,
  22:E:/LiteOS/LiteOS_Lab/targets/STM32L431_BearPi/Hardware/Src\hal_qspi_flash.c ****  * WHETHER IN CONTRACT, STRICT LIABILITY, OR TORT (INCLUDING NEGLIGENCE OR
  23:E:/LiteOS/LiteOS_Lab/targets/STM32L431_BearPi/Hardware/Src\hal_qspi_flash.c ****  * OTHERWISE) ARISING IN ANY WAY OUT OF THE USE OF THIS SOFTWARE, EVEN IF
  24:E:/LiteOS/LiteOS_Lab/targets/STM32L431_BearPi/Hardware/Src\hal_qspi_flash.c ****  * ADVISED OF THE POSSIBILITY OF SUCH DAMAGE.
  25:E:/LiteOS/LiteOS_Lab/targets/STM32L431_BearPi/Hardware/Src\hal_qspi_flash.c ****  *---------------------------------------------------------------------------*/
  26:E:/LiteOS/LiteOS_Lab/targets/STM32L431_BearPi/Hardware/Src\hal_qspi_flash.c **** /*----------------------------------------------------------------------------
  27:E:/LiteOS/LiteOS_Lab/targets/STM32L431_BearPi/Hardware/Src\hal_qspi_flash.c ****  * Notice of Export Control Law
  28:E:/LiteOS/LiteOS_Lab/targets/STM32L431_BearPi/Hardware/Src\hal_qspi_flash.c ****  * ===============================================
  29:E:/LiteOS/LiteOS_Lab/targets/STM32L431_BearPi/Hardware/Src\hal_qspi_flash.c ****  * Huawei LiteOS may be subject to applicable export control laws and regulations, which might
  30:E:/LiteOS/LiteOS_Lab/targets/STM32L431_BearPi/Hardware/Src\hal_qspi_flash.c ****  * include those applicable to Huawei LiteOS of U.S. and the country in which you are located.
ARM GAS  C:\Users\user\AppData\Local\Temp\ccGlcwic.s 			page 2


  31:E:/LiteOS/LiteOS_Lab/targets/STM32L431_BearPi/Hardware/Src\hal_qspi_flash.c ****  * Import, export and usage of Huawei LiteOS in any manner by you shall be in compliance with such
  32:E:/LiteOS/LiteOS_Lab/targets/STM32L431_BearPi/Hardware/Src\hal_qspi_flash.c ****  * applicable export control laws and regulations.
  33:E:/LiteOS/LiteOS_Lab/targets/STM32L431_BearPi/Hardware/Src\hal_qspi_flash.c ****  *---------------------------------------------------------------------------*/
  34:E:/LiteOS/LiteOS_Lab/targets/STM32L431_BearPi/Hardware/Src\hal_qspi_flash.c **** 
  35:E:/LiteOS/LiteOS_Lab/targets/STM32L431_BearPi/Hardware/Src\hal_qspi_flash.c **** #include "hal_qspi_flash.h"
  36:E:/LiteOS/LiteOS_Lab/targets/STM32L431_BearPi/Hardware/Src\hal_qspi_flash.c **** #include "stm32l4xx.h"
  37:E:/LiteOS/LiteOS_Lab/targets/STM32L431_BearPi/Hardware/Src\hal_qspi_flash.c **** 
  38:E:/LiteOS/LiteOS_Lab/targets/STM32L431_BearPi/Hardware/Src\hal_qspi_flash.c **** #ifdef HAL_QSPI_MODULE_ENABLED
  39:E:/LiteOS/LiteOS_Lab/targets/STM32L431_BearPi/Hardware/Src\hal_qspi_flash.c **** 
  40:E:/LiteOS/LiteOS_Lab/targets/STM32L431_BearPi/Hardware/Src\hal_qspi_flash.c **** #define QSPI_FLASH_PAGESIZE                         256
  41:E:/LiteOS/LiteOS_Lab/targets/STM32L431_BearPi/Hardware/Src\hal_qspi_flash.c **** #define QSPI_FLASH_SECTOR                           4096
  42:E:/LiteOS/LiteOS_Lab/targets/STM32L431_BearPi/Hardware/Src\hal_qspi_flash.c **** #define QSPI_FLASH_ID                               0xEF4017
  43:E:/LiteOS/LiteOS_Lab/targets/STM32L431_BearPi/Hardware/Src\hal_qspi_flash.c **** #define QSPI_FLASH_TOTAL_SIZE                       0x7FFFFF
  44:E:/LiteOS/LiteOS_Lab/targets/STM32L431_BearPi/Hardware/Src\hal_qspi_flash.c **** 
  45:E:/LiteOS/LiteOS_Lab/targets/STM32L431_BearPi/Hardware/Src\hal_qspi_flash.c **** #define QSPI_FLASH_WriteEnable                      0x06
  46:E:/LiteOS/LiteOS_Lab/targets/STM32L431_BearPi/Hardware/Src\hal_qspi_flash.c **** #define QSPI_FLASH_WriteDisable                     0x04
  47:E:/LiteOS/LiteOS_Lab/targets/STM32L431_BearPi/Hardware/Src\hal_qspi_flash.c **** #define QSPI_FLASH_ReadStatusReg                    0x05
  48:E:/LiteOS/LiteOS_Lab/targets/STM32L431_BearPi/Hardware/Src\hal_qspi_flash.c **** #define QSPI_FLASH_WriteStatusReg                   0x01
  49:E:/LiteOS/LiteOS_Lab/targets/STM32L431_BearPi/Hardware/Src\hal_qspi_flash.c **** #define QSPI_FLASH_ReadData                         0x03
  50:E:/LiteOS/LiteOS_Lab/targets/STM32L431_BearPi/Hardware/Src\hal_qspi_flash.c **** #define QSPI_FLASH_FastReadData                     0x0B
  51:E:/LiteOS/LiteOS_Lab/targets/STM32L431_BearPi/Hardware/Src\hal_qspi_flash.c **** #define QSPI_FLASH_FastReadDual                     0x3B
  52:E:/LiteOS/LiteOS_Lab/targets/STM32L431_BearPi/Hardware/Src\hal_qspi_flash.c **** #define QSPI_FLASH_PageProgram                      0x02
  53:E:/LiteOS/LiteOS_Lab/targets/STM32L431_BearPi/Hardware/Src\hal_qspi_flash.c **** #define QSPI_FLASH_BlockErase                       0xD8
  54:E:/LiteOS/LiteOS_Lab/targets/STM32L431_BearPi/Hardware/Src\hal_qspi_flash.c **** #define QSPI_FLASH_SectorErase                      0x20
  55:E:/LiteOS/LiteOS_Lab/targets/STM32L431_BearPi/Hardware/Src\hal_qspi_flash.c **** #define QSPI_FLASH_ChipErase                        0xC7
  56:E:/LiteOS/LiteOS_Lab/targets/STM32L431_BearPi/Hardware/Src\hal_qspi_flash.c **** #define QSPI_FLASH_PowerDown                        0xB9
  57:E:/LiteOS/LiteOS_Lab/targets/STM32L431_BearPi/Hardware/Src\hal_qspi_flash.c **** #define QSPI_FLASH_ReleasePowerDown                 0xAB
  58:E:/LiteOS/LiteOS_Lab/targets/STM32L431_BearPi/Hardware/Src\hal_qspi_flash.c **** #define QSPI_FLASH_DeviceID                         0xAB
  59:E:/LiteOS/LiteOS_Lab/targets/STM32L431_BearPi/Hardware/Src\hal_qspi_flash.c **** #define QSPI_FLASH_ManufactDeviceID                 0x90
  60:E:/LiteOS/LiteOS_Lab/targets/STM32L431_BearPi/Hardware/Src\hal_qspi_flash.c **** #define QSPI_FLASH_JedecDeviceID                    0x9F
  61:E:/LiteOS/LiteOS_Lab/targets/STM32L431_BearPi/Hardware/Src\hal_qspi_flash.c **** #define QSPI_FLASH_WIP_FLAG                         0x01
  62:E:/LiteOS/LiteOS_Lab/targets/STM32L431_BearPi/Hardware/Src\hal_qspi_flash.c **** #define QSPI_FLASH_DUMMY_BYTE                       0xFF
  63:E:/LiteOS/LiteOS_Lab/targets/STM32L431_BearPi/Hardware/Src\hal_qspi_flash.c **** 
  64:E:/LiteOS/LiteOS_Lab/targets/STM32L431_BearPi/Hardware/Src\hal_qspi_flash.c **** #define CHOOSE_BIT_16                              16
  65:E:/LiteOS/LiteOS_Lab/targets/STM32L431_BearPi/Hardware/Src\hal_qspi_flash.c **** #define CHOOSE_BIT_8                               8
  66:E:/LiteOS/LiteOS_Lab/targets/STM32L431_BearPi/Hardware/Src\hal_qspi_flash.c **** 
  67:E:/LiteOS/LiteOS_Lab/targets/STM32L431_BearPi/Hardware/Src\hal_qspi_flash.c **** 
  68:E:/LiteOS/LiteOS_Lab/targets/STM32L431_BearPi/Hardware/Src\hal_qspi_flash.c **** #define CHECK_RET_RETURN(ret) \
  69:E:/LiteOS/LiteOS_Lab/targets/STM32L431_BearPi/Hardware/Src\hal_qspi_flash.c ****     do \
  70:E:/LiteOS/LiteOS_Lab/targets/STM32L431_BearPi/Hardware/Src\hal_qspi_flash.c ****     { \
  71:E:/LiteOS/LiteOS_Lab/targets/STM32L431_BearPi/Hardware/Src\hal_qspi_flash.c ****         if ((ret) < 0) \
  72:E:/LiteOS/LiteOS_Lab/targets/STM32L431_BearPi/Hardware/Src\hal_qspi_flash.c ****         { \
  73:E:/LiteOS/LiteOS_Lab/targets/STM32L431_BearPi/Hardware/Src\hal_qspi_flash.c ****             return ret; \
  74:E:/LiteOS/LiteOS_Lab/targets/STM32L431_BearPi/Hardware/Src\hal_qspi_flash.c ****         } \
  75:E:/LiteOS/LiteOS_Lab/targets/STM32L431_BearPi/Hardware/Src\hal_qspi_flash.c ****     } while (0)
  76:E:/LiteOS/LiteOS_Lab/targets/STM32L431_BearPi/Hardware/Src\hal_qspi_flash.c **** 
  77:E:/LiteOS/LiteOS_Lab/targets/STM32L431_BearPi/Hardware/Src\hal_qspi_flash.c **** QSPI_HandleTypeDef hqspi;
  78:E:/LiteOS/LiteOS_Lab/targets/STM32L431_BearPi/Hardware/Src\hal_qspi_flash.c **** 
  79:E:/LiteOS/LiteOS_Lab/targets/STM32L431_BearPi/Hardware/Src\hal_qspi_flash.c **** /* This function is called by inner-HAL lib */
  80:E:/LiteOS/LiteOS_Lab/targets/STM32L431_BearPi/Hardware/Src\hal_qspi_flash.c **** void HAL_QSPI_MspInit(QSPI_HandleTypeDef* qspiHandle)
  81:E:/LiteOS/LiteOS_Lab/targets/STM32L431_BearPi/Hardware/Src\hal_qspi_flash.c **** {
  29              		.loc 1 81 0
  30              		.cfi_startproc
  31              		@ args = 0, pretend = 0, frame = 32
  32              		@ frame_needed = 1, uses_anonymous_args = 0
  33 0000 80B5     		push	{r7, lr}
  34              	.LCFI0:
ARM GAS  C:\Users\user\AppData\Local\Temp\ccGlcwic.s 			page 3


  35              		.cfi_def_cfa_offset 8
  36              		.cfi_offset 7, -8
  37              		.cfi_offset 14, -4
  38 0002 88B0     		sub	sp, sp, #32
  39              	.LCFI1:
  40              		.cfi_def_cfa_offset 40
  41 0004 00AF     		add	r7, sp, #0
  42              	.LCFI2:
  43              		.cfi_def_cfa_register 7
  44 0006 7860     		str	r0, [r7, #4]
  82:E:/LiteOS/LiteOS_Lab/targets/STM32L431_BearPi/Hardware/Src\hal_qspi_flash.c **** 
  83:E:/LiteOS/LiteOS_Lab/targets/STM32L431_BearPi/Hardware/Src\hal_qspi_flash.c ****   GPIO_InitTypeDef GPIO_InitStruct;
  84:E:/LiteOS/LiteOS_Lab/targets/STM32L431_BearPi/Hardware/Src\hal_qspi_flash.c ****   if(qspiHandle->Instance==QUADSPI)
  45              		.loc 1 84 0
  46 0008 7B68     		ldr	r3, [r7, #4]
  47 000a 1B68     		ldr	r3, [r3]
  48 000c 114A     		ldr	r2, .L4
  49 000e 9342     		cmp	r3, r2
  50 0010 1CD1     		bne	.L3
  51              	.LBB4:
  85:E:/LiteOS/LiteOS_Lab/targets/STM32L431_BearPi/Hardware/Src\hal_qspi_flash.c ****   {
  86:E:/LiteOS/LiteOS_Lab/targets/STM32L431_BearPi/Hardware/Src\hal_qspi_flash.c ****   /* USER CODE BEGIN QUADSPI_MspInit 0 */
  87:E:/LiteOS/LiteOS_Lab/targets/STM32L431_BearPi/Hardware/Src\hal_qspi_flash.c **** 
  88:E:/LiteOS/LiteOS_Lab/targets/STM32L431_BearPi/Hardware/Src\hal_qspi_flash.c ****   /* USER CODE END QUADSPI_MspInit 0 */
  89:E:/LiteOS/LiteOS_Lab/targets/STM32L431_BearPi/Hardware/Src\hal_qspi_flash.c ****     /* QUADSPI clock enable */
  90:E:/LiteOS/LiteOS_Lab/targets/STM32L431_BearPi/Hardware/Src\hal_qspi_flash.c ****     __HAL_RCC_QSPI_CLK_ENABLE();
  52              		.loc 1 90 0
  53 0012 114B     		ldr	r3, .L4+4
  54 0014 1B6D     		ldr	r3, [r3, #80]
  55 0016 104A     		ldr	r2, .L4+4
  56 0018 43F48073 		orr	r3, r3, #256
  57 001c 1365     		str	r3, [r2, #80]
  58 001e 0E4B     		ldr	r3, .L4+4
  59 0020 1B6D     		ldr	r3, [r3, #80]
  60 0022 03F48073 		and	r3, r3, #256
  61 0026 BB60     		str	r3, [r7, #8]
  62 0028 BB68     		ldr	r3, [r7, #8]
  63              	.LBE4:
  91:E:/LiteOS/LiteOS_Lab/targets/STM32L431_BearPi/Hardware/Src\hal_qspi_flash.c ****   
  92:E:/LiteOS/LiteOS_Lab/targets/STM32L431_BearPi/Hardware/Src\hal_qspi_flash.c ****     /**QUADSPI GPIO Configuration    
  93:E:/LiteOS/LiteOS_Lab/targets/STM32L431_BearPi/Hardware/Src\hal_qspi_flash.c ****     PB0     ------> QUADSPI_BK1_IO1
  94:E:/LiteOS/LiteOS_Lab/targets/STM32L431_BearPi/Hardware/Src\hal_qspi_flash.c ****     PB1     ------> QUADSPI_BK1_IO0
  95:E:/LiteOS/LiteOS_Lab/targets/STM32L431_BearPi/Hardware/Src\hal_qspi_flash.c ****     PB10     ------> QUADSPI_CLK
  96:E:/LiteOS/LiteOS_Lab/targets/STM32L431_BearPi/Hardware/Src\hal_qspi_flash.c ****     PB11     ------> QUADSPI_BK1_NCS 
  97:E:/LiteOS/LiteOS_Lab/targets/STM32L431_BearPi/Hardware/Src\hal_qspi_flash.c ****     */
  98:E:/LiteOS/LiteOS_Lab/targets/STM32L431_BearPi/Hardware/Src\hal_qspi_flash.c ****     GPIO_InitStruct.Pin = GPIO_PIN_0|GPIO_PIN_1|GPIO_PIN_10|GPIO_PIN_11;
  64              		.loc 1 98 0
  65 002a 40F60343 		movw	r3, #3075
  66 002e FB60     		str	r3, [r7, #12]
  99:E:/LiteOS/LiteOS_Lab/targets/STM32L431_BearPi/Hardware/Src\hal_qspi_flash.c ****     GPIO_InitStruct.Mode = GPIO_MODE_AF_PP;
  67              		.loc 1 99 0
  68 0030 0223     		movs	r3, #2
  69 0032 3B61     		str	r3, [r7, #16]
 100:E:/LiteOS/LiteOS_Lab/targets/STM32L431_BearPi/Hardware/Src\hal_qspi_flash.c ****     GPIO_InitStruct.Pull = GPIO_NOPULL;
  70              		.loc 1 100 0
  71 0034 0023     		movs	r3, #0
  72 0036 7B61     		str	r3, [r7, #20]
ARM GAS  C:\Users\user\AppData\Local\Temp\ccGlcwic.s 			page 4


 101:E:/LiteOS/LiteOS_Lab/targets/STM32L431_BearPi/Hardware/Src\hal_qspi_flash.c ****     GPIO_InitStruct.Speed = GPIO_SPEED_FREQ_VERY_HIGH;
  73              		.loc 1 101 0
  74 0038 0323     		movs	r3, #3
  75 003a BB61     		str	r3, [r7, #24]
 102:E:/LiteOS/LiteOS_Lab/targets/STM32L431_BearPi/Hardware/Src\hal_qspi_flash.c ****     GPIO_InitStruct.Alternate = GPIO_AF10_QUADSPI;
  76              		.loc 1 102 0
  77 003c 0A23     		movs	r3, #10
  78 003e FB61     		str	r3, [r7, #28]
 103:E:/LiteOS/LiteOS_Lab/targets/STM32L431_BearPi/Hardware/Src\hal_qspi_flash.c ****     HAL_GPIO_Init(GPIOB, &GPIO_InitStruct);
  79              		.loc 1 103 0
  80 0040 07F10C03 		add	r3, r7, #12
  81 0044 1946     		mov	r1, r3
  82 0046 0548     		ldr	r0, .L4+8
  83 0048 FFF7FEFF 		bl	HAL_GPIO_Init
  84              	.L3:
 104:E:/LiteOS/LiteOS_Lab/targets/STM32L431_BearPi/Hardware/Src\hal_qspi_flash.c **** 
 105:E:/LiteOS/LiteOS_Lab/targets/STM32L431_BearPi/Hardware/Src\hal_qspi_flash.c ****   /* USER CODE BEGIN QUADSPI_MspInit 1 */
 106:E:/LiteOS/LiteOS_Lab/targets/STM32L431_BearPi/Hardware/Src\hal_qspi_flash.c **** 
 107:E:/LiteOS/LiteOS_Lab/targets/STM32L431_BearPi/Hardware/Src\hal_qspi_flash.c ****   /* USER CODE END QUADSPI_MspInit 1 */
 108:E:/LiteOS/LiteOS_Lab/targets/STM32L431_BearPi/Hardware/Src\hal_qspi_flash.c ****   }
 109:E:/LiteOS/LiteOS_Lab/targets/STM32L431_BearPi/Hardware/Src\hal_qspi_flash.c **** }
  85              		.loc 1 109 0
  86 004c 00BF     		nop
  87 004e 2037     		adds	r7, r7, #32
  88              	.LCFI3:
  89              		.cfi_def_cfa_offset 8
  90 0050 BD46     		mov	sp, r7
  91              	.LCFI4:
  92              		.cfi_def_cfa_register 13
  93              		@ sp needed
  94 0052 80BD     		pop	{r7, pc}
  95              	.L5:
  96              		.align	2
  97              	.L4:
  98 0054 001000A0 		.word	-1610608640
  99 0058 00100240 		.word	1073876992
 100 005c 00040048 		.word	1207960576
 101              		.cfi_endproc
 102              	.LFE133:
 104              		.section	.text.HAL_QSPI_MspDeInit,"ax",%progbits
 105              		.align	1
 106              		.global	HAL_QSPI_MspDeInit
 107              		.syntax unified
 108              		.thumb
 109              		.thumb_func
 110              		.fpu fpv4-sp-d16
 112              	HAL_QSPI_MspDeInit:
 113              	.LFB134:
 110:E:/LiteOS/LiteOS_Lab/targets/STM32L431_BearPi/Hardware/Src\hal_qspi_flash.c **** 
 111:E:/LiteOS/LiteOS_Lab/targets/STM32L431_BearPi/Hardware/Src\hal_qspi_flash.c **** /* This function is called by inner-HAL lib */
 112:E:/LiteOS/LiteOS_Lab/targets/STM32L431_BearPi/Hardware/Src\hal_qspi_flash.c **** void HAL_QSPI_MspDeInit(QSPI_HandleTypeDef* qspiHandle)
 113:E:/LiteOS/LiteOS_Lab/targets/STM32L431_BearPi/Hardware/Src\hal_qspi_flash.c **** {
 114              		.loc 1 113 0
 115              		.cfi_startproc
 116              		@ args = 0, pretend = 0, frame = 8
 117              		@ frame_needed = 1, uses_anonymous_args = 0
 118 0000 80B5     		push	{r7, lr}
ARM GAS  C:\Users\user\AppData\Local\Temp\ccGlcwic.s 			page 5


 119              	.LCFI5:
 120              		.cfi_def_cfa_offset 8
 121              		.cfi_offset 7, -8
 122              		.cfi_offset 14, -4
 123 0002 82B0     		sub	sp, sp, #8
 124              	.LCFI6:
 125              		.cfi_def_cfa_offset 16
 126 0004 00AF     		add	r7, sp, #0
 127              	.LCFI7:
 128              		.cfi_def_cfa_register 7
 129 0006 7860     		str	r0, [r7, #4]
 114:E:/LiteOS/LiteOS_Lab/targets/STM32L431_BearPi/Hardware/Src\hal_qspi_flash.c **** 
 115:E:/LiteOS/LiteOS_Lab/targets/STM32L431_BearPi/Hardware/Src\hal_qspi_flash.c ****   if(qspiHandle->Instance==QUADSPI)
 130              		.loc 1 115 0
 131 0008 7B68     		ldr	r3, [r7, #4]
 132 000a 1B68     		ldr	r3, [r3]
 133 000c 084A     		ldr	r2, .L9
 134 000e 9342     		cmp	r3, r2
 135 0010 0AD1     		bne	.L8
 116:E:/LiteOS/LiteOS_Lab/targets/STM32L431_BearPi/Hardware/Src\hal_qspi_flash.c ****   {
 117:E:/LiteOS/LiteOS_Lab/targets/STM32L431_BearPi/Hardware/Src\hal_qspi_flash.c ****   /* USER CODE BEGIN QUADSPI_MspDeInit 0 */
 118:E:/LiteOS/LiteOS_Lab/targets/STM32L431_BearPi/Hardware/Src\hal_qspi_flash.c **** 
 119:E:/LiteOS/LiteOS_Lab/targets/STM32L431_BearPi/Hardware/Src\hal_qspi_flash.c ****   /* USER CODE END QUADSPI_MspDeInit 0 */
 120:E:/LiteOS/LiteOS_Lab/targets/STM32L431_BearPi/Hardware/Src\hal_qspi_flash.c ****     /* Peripheral clock disable */
 121:E:/LiteOS/LiteOS_Lab/targets/STM32L431_BearPi/Hardware/Src\hal_qspi_flash.c ****     __HAL_RCC_QSPI_CLK_DISABLE();
 136              		.loc 1 121 0
 137 0012 084B     		ldr	r3, .L9+4
 138 0014 1B6D     		ldr	r3, [r3, #80]
 139 0016 074A     		ldr	r2, .L9+4
 140 0018 23F48073 		bic	r3, r3, #256
 141 001c 1365     		str	r3, [r2, #80]
 122:E:/LiteOS/LiteOS_Lab/targets/STM32L431_BearPi/Hardware/Src\hal_qspi_flash.c ****   
 123:E:/LiteOS/LiteOS_Lab/targets/STM32L431_BearPi/Hardware/Src\hal_qspi_flash.c ****     /**QUADSPI GPIO Configuration    
 124:E:/LiteOS/LiteOS_Lab/targets/STM32L431_BearPi/Hardware/Src\hal_qspi_flash.c ****     PB0     ------> QUADSPI_BK1_IO1
 125:E:/LiteOS/LiteOS_Lab/targets/STM32L431_BearPi/Hardware/Src\hal_qspi_flash.c ****     PB1     ------> QUADSPI_BK1_IO0
 126:E:/LiteOS/LiteOS_Lab/targets/STM32L431_BearPi/Hardware/Src\hal_qspi_flash.c ****     PB10     ------> QUADSPI_CLK
 127:E:/LiteOS/LiteOS_Lab/targets/STM32L431_BearPi/Hardware/Src\hal_qspi_flash.c ****     PB11     ------> QUADSPI_BK1_NCS 
 128:E:/LiteOS/LiteOS_Lab/targets/STM32L431_BearPi/Hardware/Src\hal_qspi_flash.c ****     */
 129:E:/LiteOS/LiteOS_Lab/targets/STM32L431_BearPi/Hardware/Src\hal_qspi_flash.c ****     HAL_GPIO_DeInit(GPIOB, GPIO_PIN_0|GPIO_PIN_1|GPIO_PIN_10|GPIO_PIN_11);
 142              		.loc 1 129 0
 143 001e 40F60341 		movw	r1, #3075
 144 0022 0548     		ldr	r0, .L9+8
 145 0024 FFF7FEFF 		bl	HAL_GPIO_DeInit
 146              	.L8:
 130:E:/LiteOS/LiteOS_Lab/targets/STM32L431_BearPi/Hardware/Src\hal_qspi_flash.c **** 
 131:E:/LiteOS/LiteOS_Lab/targets/STM32L431_BearPi/Hardware/Src\hal_qspi_flash.c ****   /* USER CODE BEGIN QUADSPI_MspDeInit 1 */
 132:E:/LiteOS/LiteOS_Lab/targets/STM32L431_BearPi/Hardware/Src\hal_qspi_flash.c **** 
 133:E:/LiteOS/LiteOS_Lab/targets/STM32L431_BearPi/Hardware/Src\hal_qspi_flash.c ****   /* USER CODE END QUADSPI_MspDeInit 1 */
 134:E:/LiteOS/LiteOS_Lab/targets/STM32L431_BearPi/Hardware/Src\hal_qspi_flash.c ****   }
 135:E:/LiteOS/LiteOS_Lab/targets/STM32L431_BearPi/Hardware/Src\hal_qspi_flash.c **** }
 147              		.loc 1 135 0
 148 0028 00BF     		nop
 149 002a 0837     		adds	r7, r7, #8
 150              	.LCFI8:
 151              		.cfi_def_cfa_offset 8
 152 002c BD46     		mov	sp, r7
 153              	.LCFI9:
ARM GAS  C:\Users\user\AppData\Local\Temp\ccGlcwic.s 			page 6


 154              		.cfi_def_cfa_register 13
 155              		@ sp needed
 156 002e 80BD     		pop	{r7, pc}
 157              	.L10:
 158              		.align	2
 159              	.L9:
 160 0030 001000A0 		.word	-1610608640
 161 0034 00100240 		.word	1073876992
 162 0038 00040048 		.word	1207960576
 163              		.cfi_endproc
 164              	.LFE134:
 166              		.section	.text.QSPI_Send_CMD,"ax",%progbits
 167              		.align	1
 168              		.global	QSPI_Send_CMD
 169              		.syntax unified
 170              		.thumb
 171              		.thumb_func
 172              		.fpu fpv4-sp-d16
 174              	QSPI_Send_CMD:
 175              	.LFB135:
 136:E:/LiteOS/LiteOS_Lab/targets/STM32L431_BearPi/Hardware/Src\hal_qspi_flash.c **** 
 137:E:/LiteOS/LiteOS_Lab/targets/STM32L431_BearPi/Hardware/Src\hal_qspi_flash.c **** 
 138:E:/LiteOS/LiteOS_Lab/targets/STM32L431_BearPi/Hardware/Src\hal_qspi_flash.c **** /**
 139:E:/LiteOS/LiteOS_Lab/targets/STM32L431_BearPi/Hardware/Src\hal_qspi_flash.c ****  * @brief	QSPI发送命令
 140:E:/LiteOS/LiteOS_Lab/targets/STM32L431_BearPi/Hardware/Src\hal_qspi_flash.c ****  *
 141:E:/LiteOS/LiteOS_Lab/targets/STM32L431_BearPi/Hardware/Src\hal_qspi_flash.c ****  * @param   instruction		要发送的指令
 142:E:/LiteOS/LiteOS_Lab/targets/STM32L431_BearPi/Hardware/Src\hal_qspi_flash.c ****  * @param   address			发送到的目的地址
 143:E:/LiteOS/LiteOS_Lab/targets/STM32L431_BearPi/Hardware/Src\hal_qspi_flash.c ****  * @param   dummyCycles		空指令周期数
 144:E:/LiteOS/LiteOS_Lab/targets/STM32L431_BearPi/Hardware/Src\hal_qspi_flash.c ****  * @param   instructionMode	指令模式;QSPI_INSTRUCTION_NONE,QSPI_INSTRUCTION_1_LINE,QSPI_INSTRUCTION
 145:E:/LiteOS/LiteOS_Lab/targets/STM32L431_BearPi/Hardware/Src\hal_qspi_flash.c ****  * @param   addressMode		地址模式; QSPI_ADDRESS_NONE,QSPI_ADDRESS_1_LINE,QSPI_ADDRESS_2_LINE,QSPI_A
 146:E:/LiteOS/LiteOS_Lab/targets/STM32L431_BearPi/Hardware/Src\hal_qspi_flash.c ****  * @param   addressSize		地址长度;QSPI_ADDRESS_8_BITS,QSPI_ADDRESS_16_BITS,QSPI_ADDRESS_24_BITS,QSP
 147:E:/LiteOS/LiteOS_Lab/targets/STM32L431_BearPi/Hardware/Src\hal_qspi_flash.c ****  * @param   dataMode		数据模式; QSPI_DATA_NONE,QSPI_DATA_1_LINE,QSPI_DATA_2_LINE,QSPI_DATA_4_LINE
 148:E:/LiteOS/LiteOS_Lab/targets/STM32L431_BearPi/Hardware/Src\hal_qspi_flash.c ****  *
 149:E:/LiteOS/LiteOS_Lab/targets/STM32L431_BearPi/Hardware/Src\hal_qspi_flash.c ****  * @return  void
 150:E:/LiteOS/LiteOS_Lab/targets/STM32L431_BearPi/Hardware/Src\hal_qspi_flash.c ****  */
 151:E:/LiteOS/LiteOS_Lab/targets/STM32L431_BearPi/Hardware/Src\hal_qspi_flash.c **** uint32_t QSPI_Send_CMD(uint32_t instruction, uint32_t address, uint32_t dummyCycles, uint32_t instr
 152:E:/LiteOS/LiteOS_Lab/targets/STM32L431_BearPi/Hardware/Src\hal_qspi_flash.c **** {
 176              		.loc 1 152 0
 177              		.cfi_startproc
 178              		@ args = 12, pretend = 0, frame = 72
 179              		@ frame_needed = 1, uses_anonymous_args = 0
 180 0000 80B5     		push	{r7, lr}
 181              	.LCFI10:
 182              		.cfi_def_cfa_offset 8
 183              		.cfi_offset 7, -8
 184              		.cfi_offset 14, -4
 185 0002 92B0     		sub	sp, sp, #72
 186              	.LCFI11:
 187              		.cfi_def_cfa_offset 80
 188 0004 00AF     		add	r7, sp, #0
 189              	.LCFI12:
 190              		.cfi_def_cfa_register 7
 191 0006 F860     		str	r0, [r7, #12]
 192 0008 B960     		str	r1, [r7, #8]
 193 000a 7A60     		str	r2, [r7, #4]
 194 000c 3B60     		str	r3, [r7]
 153:E:/LiteOS/LiteOS_Lab/targets/STM32L431_BearPi/Hardware/Src\hal_qspi_flash.c ****     QSPI_CommandTypeDef s_command;
ARM GAS  C:\Users\user\AppData\Local\Temp\ccGlcwic.s 			page 7


 154:E:/LiteOS/LiteOS_Lab/targets/STM32L431_BearPi/Hardware/Src\hal_qspi_flash.c **** 
 155:E:/LiteOS/LiteOS_Lab/targets/STM32L431_BearPi/Hardware/Src\hal_qspi_flash.c ****     s_command.Instruction = instruction;                 	//指令
 195              		.loc 1 155 0
 196 000e FB68     		ldr	r3, [r7, #12]
 197 0010 3B61     		str	r3, [r7, #16]
 156:E:/LiteOS/LiteOS_Lab/targets/STM32L431_BearPi/Hardware/Src\hal_qspi_flash.c ****     s_command.Address = address;                            	//地址
 198              		.loc 1 156 0
 199 0012 BB68     		ldr	r3, [r7, #8]
 200 0014 7B61     		str	r3, [r7, #20]
 157:E:/LiteOS/LiteOS_Lab/targets/STM32L431_BearPi/Hardware/Src\hal_qspi_flash.c ****     s_command.DummyCycles = dummyCycles;                   //设置空指令周期数
 201              		.loc 1 157 0
 202 0016 7B68     		ldr	r3, [r7, #4]
 203 0018 7B62     		str	r3, [r7, #36]
 158:E:/LiteOS/LiteOS_Lab/targets/STM32L431_BearPi/Hardware/Src\hal_qspi_flash.c ****     s_command.InstructionMode = instructionMode;				//指令模式
 204              		.loc 1 158 0
 205 001a 3B68     		ldr	r3, [r7]
 206 001c BB62     		str	r3, [r7, #40]
 159:E:/LiteOS/LiteOS_Lab/targets/STM32L431_BearPi/Hardware/Src\hal_qspi_flash.c ****     s_command.AddressMode = addressMode;   					//地址模式
 207              		.loc 1 159 0
 208 001e 3B6D     		ldr	r3, [r7, #80]
 209 0020 FB62     		str	r3, [r7, #44]
 160:E:/LiteOS/LiteOS_Lab/targets/STM32L431_BearPi/Hardware/Src\hal_qspi_flash.c ****     s_command.AddressSize = addressSize;   					//地址长度
 210              		.loc 1 160 0
 211 0022 7B6D     		ldr	r3, [r7, #84]
 212 0024 FB61     		str	r3, [r7, #28]
 161:E:/LiteOS/LiteOS_Lab/targets/STM32L431_BearPi/Hardware/Src\hal_qspi_flash.c ****     s_command.DataMode = dataMode;             				//数据模式
 213              		.loc 1 161 0
 214 0026 BB6D     		ldr	r3, [r7, #88]
 215 0028 7B63     		str	r3, [r7, #52]
 162:E:/LiteOS/LiteOS_Lab/targets/STM32L431_BearPi/Hardware/Src\hal_qspi_flash.c ****     s_command.SIOOMode = QSPI_SIOO_INST_EVERY_CMD;       	//每次都发送指令
 216              		.loc 1 162 0
 217 002a 0023     		movs	r3, #0
 218 002c 7B64     		str	r3, [r7, #68]
 163:E:/LiteOS/LiteOS_Lab/targets/STM32L431_BearPi/Hardware/Src\hal_qspi_flash.c ****     s_command.AlternateByteMode = QSPI_ALTERNATE_BYTES_NONE; //无交替字节
 219              		.loc 1 163 0
 220 002e 0023     		movs	r3, #0
 221 0030 3B63     		str	r3, [r7, #48]
 164:E:/LiteOS/LiteOS_Lab/targets/STM32L431_BearPi/Hardware/Src\hal_qspi_flash.c ****     s_command.DdrMode = QSPI_DDR_MODE_DISABLE;           	//关闭DDR模式
 222              		.loc 1 164 0
 223 0032 0023     		movs	r3, #0
 224 0034 FB63     		str	r3, [r7, #60]
 165:E:/LiteOS/LiteOS_Lab/targets/STM32L431_BearPi/Hardware/Src\hal_qspi_flash.c ****     s_command.DdrHoldHalfCycle = QSPI_DDR_HHC_ANALOG_DELAY;
 225              		.loc 1 165 0
 226 0036 0023     		movs	r3, #0
 227 0038 3B64     		str	r3, [r7, #64]
 166:E:/LiteOS/LiteOS_Lab/targets/STM32L431_BearPi/Hardware/Src\hal_qspi_flash.c **** 	
 167:E:/LiteOS/LiteOS_Lab/targets/STM32L431_BearPi/Hardware/Src\hal_qspi_flash.c ****     return HAL_QSPI_Command(&hqspi, &s_command, 5000);
 228              		.loc 1 167 0
 229 003a 07F11003 		add	r3, r7, #16
 230 003e 41F28832 		movw	r2, #5000
 231 0042 1946     		mov	r1, r3
 232 0044 0348     		ldr	r0, .L13
 233 0046 FFF7FEFF 		bl	HAL_QSPI_Command
 234 004a 0346     		mov	r3, r0
 168:E:/LiteOS/LiteOS_Lab/targets/STM32L431_BearPi/Hardware/Src\hal_qspi_flash.c **** }
 235              		.loc 1 168 0
 236 004c 1846     		mov	r0, r3
ARM GAS  C:\Users\user\AppData\Local\Temp\ccGlcwic.s 			page 8


 237 004e 4837     		adds	r7, r7, #72
 238              	.LCFI13:
 239              		.cfi_def_cfa_offset 8
 240 0050 BD46     		mov	sp, r7
 241              	.LCFI14:
 242              		.cfi_def_cfa_register 13
 243              		@ sp needed
 244 0052 80BD     		pop	{r7, pc}
 245              	.L14:
 246              		.align	2
 247              	.L13:
 248 0054 00000000 		.word	hqspi
 249              		.cfi_endproc
 250              	.LFE135:
 252              		.section	.text.QSPI_Receive,"ax",%progbits
 253              		.align	1
 254              		.global	QSPI_Receive
 255              		.syntax unified
 256              		.thumb
 257              		.thumb_func
 258              		.fpu fpv4-sp-d16
 260              	QSPI_Receive:
 261              	.LFB136:
 169:E:/LiteOS/LiteOS_Lab/targets/STM32L431_BearPi/Hardware/Src\hal_qspi_flash.c **** 
 170:E:/LiteOS/LiteOS_Lab/targets/STM32L431_BearPi/Hardware/Src\hal_qspi_flash.c **** uint8_t QSPI_Receive(const uint8_t * buf, uint32_t datalen)
 171:E:/LiteOS/LiteOS_Lab/targets/STM32L431_BearPi/Hardware/Src\hal_qspi_flash.c **** {
 262              		.loc 1 171 0
 263              		.cfi_startproc
 264              		@ args = 0, pretend = 0, frame = 8
 265              		@ frame_needed = 1, uses_anonymous_args = 0
 266 0000 80B5     		push	{r7, lr}
 267              	.LCFI15:
 268              		.cfi_def_cfa_offset 8
 269              		.cfi_offset 7, -8
 270              		.cfi_offset 14, -4
 271 0002 82B0     		sub	sp, sp, #8
 272              	.LCFI16:
 273              		.cfi_def_cfa_offset 16
 274 0004 00AF     		add	r7, sp, #0
 275              	.LCFI17:
 276              		.cfi_def_cfa_register 7
 277 0006 7860     		str	r0, [r7, #4]
 278 0008 3960     		str	r1, [r7]
 172:E:/LiteOS/LiteOS_Lab/targets/STM32L431_BearPi/Hardware/Src\hal_qspi_flash.c ****     hqspi.Instance->DLR = datalen - 1;                       //Configuration data length
 279              		.loc 1 172 0
 280 000a 0A4B     		ldr	r3, .L18
 281 000c 1B68     		ldr	r3, [r3]
 282 000e 3A68     		ldr	r2, [r7]
 283 0010 013A     		subs	r2, r2, #1
 284 0012 1A61     		str	r2, [r3, #16]
 173:E:/LiteOS/LiteOS_Lab/targets/STM32L431_BearPi/Hardware/Src\hal_qspi_flash.c ****     if(HAL_QSPI_Receive(&hqspi, (uint8_t * )buf, 5000) == HAL_OK) return 0; //receive data
 285              		.loc 1 173 0
 286 0014 41F28832 		movw	r2, #5000
 287 0018 7968     		ldr	r1, [r7, #4]
 288 001a 0648     		ldr	r0, .L18
 289 001c FFF7FEFF 		bl	HAL_QSPI_Receive
 290 0020 0346     		mov	r3, r0
ARM GAS  C:\Users\user\AppData\Local\Temp\ccGlcwic.s 			page 9


 291 0022 002B     		cmp	r3, #0
 292 0024 01D1     		bne	.L16
 293              		.loc 1 173 0 is_stmt 0 discriminator 1
 294 0026 0023     		movs	r3, #0
 295 0028 00E0     		b	.L17
 296              	.L16:
 174:E:/LiteOS/LiteOS_Lab/targets/STM32L431_BearPi/Hardware/Src\hal_qspi_flash.c **** 
 175:E:/LiteOS/LiteOS_Lab/targets/STM32L431_BearPi/Hardware/Src\hal_qspi_flash.c ****     else return 1;
 297              		.loc 1 175 0 is_stmt 1
 298 002a 0123     		movs	r3, #1
 299              	.L17:
 176:E:/LiteOS/LiteOS_Lab/targets/STM32L431_BearPi/Hardware/Src\hal_qspi_flash.c **** }
 300              		.loc 1 176 0
 301 002c 1846     		mov	r0, r3
 302 002e 0837     		adds	r7, r7, #8
 303              	.LCFI18:
 304              		.cfi_def_cfa_offset 8
 305 0030 BD46     		mov	sp, r7
 306              	.LCFI19:
 307              		.cfi_def_cfa_register 13
 308              		@ sp needed
 309 0032 80BD     		pop	{r7, pc}
 310              	.L19:
 311              		.align	2
 312              	.L18:
 313 0034 00000000 		.word	hqspi
 314              		.cfi_endproc
 315              	.LFE136:
 317              		.section	.text.QSPI_Transmit,"ax",%progbits
 318              		.align	1
 319              		.global	QSPI_Transmit
 320              		.syntax unified
 321              		.thumb
 322              		.thumb_func
 323              		.fpu fpv4-sp-d16
 325              	QSPI_Transmit:
 326              	.LFB137:
 177:E:/LiteOS/LiteOS_Lab/targets/STM32L431_BearPi/Hardware/Src\hal_qspi_flash.c **** 
 178:E:/LiteOS/LiteOS_Lab/targets/STM32L431_BearPi/Hardware/Src\hal_qspi_flash.c **** uint8_t QSPI_Transmit(const int8_t * buf, uint32_t datalen)
 179:E:/LiteOS/LiteOS_Lab/targets/STM32L431_BearPi/Hardware/Src\hal_qspi_flash.c **** {
 327              		.loc 1 179 0
 328              		.cfi_startproc
 329              		@ args = 0, pretend = 0, frame = 8
 330              		@ frame_needed = 1, uses_anonymous_args = 0
 331 0000 80B5     		push	{r7, lr}
 332              	.LCFI20:
 333              		.cfi_def_cfa_offset 8
 334              		.cfi_offset 7, -8
 335              		.cfi_offset 14, -4
 336 0002 82B0     		sub	sp, sp, #8
 337              	.LCFI21:
 338              		.cfi_def_cfa_offset 16
 339 0004 00AF     		add	r7, sp, #0
 340              	.LCFI22:
 341              		.cfi_def_cfa_register 7
 342 0006 7860     		str	r0, [r7, #4]
 343 0008 3960     		str	r1, [r7]
ARM GAS  C:\Users\user\AppData\Local\Temp\ccGlcwic.s 			page 10


 180:E:/LiteOS/LiteOS_Lab/targets/STM32L431_BearPi/Hardware/Src\hal_qspi_flash.c ****     hqspi.Instance->DLR = datalen - 1;                        //Configuration data length
 344              		.loc 1 180 0
 345 000a 0A4B     		ldr	r3, .L23
 346 000c 1B68     		ldr	r3, [r3]
 347 000e 3A68     		ldr	r2, [r7]
 348 0010 013A     		subs	r2, r2, #1
 349 0012 1A61     		str	r2, [r3, #16]
 181:E:/LiteOS/LiteOS_Lab/targets/STM32L431_BearPi/Hardware/Src\hal_qspi_flash.c ****     if(HAL_QSPI_Transmit(&hqspi, (uint8_t * )buf, 5000) == HAL_OK) return 0; //send data
 350              		.loc 1 181 0
 351 0014 41F28832 		movw	r2, #5000
 352 0018 7968     		ldr	r1, [r7, #4]
 353 001a 0648     		ldr	r0, .L23
 354 001c FFF7FEFF 		bl	HAL_QSPI_Transmit
 355 0020 0346     		mov	r3, r0
 356 0022 002B     		cmp	r3, #0
 357 0024 01D1     		bne	.L21
 358              		.loc 1 181 0 is_stmt 0 discriminator 1
 359 0026 0023     		movs	r3, #0
 360 0028 00E0     		b	.L22
 361              	.L21:
 182:E:/LiteOS/LiteOS_Lab/targets/STM32L431_BearPi/Hardware/Src\hal_qspi_flash.c **** 
 183:E:/LiteOS/LiteOS_Lab/targets/STM32L431_BearPi/Hardware/Src\hal_qspi_flash.c ****     else return 1;
 362              		.loc 1 183 0 is_stmt 1
 363 002a 0123     		movs	r3, #1
 364              	.L22:
 184:E:/LiteOS/LiteOS_Lab/targets/STM32L431_BearPi/Hardware/Src\hal_qspi_flash.c **** }
 365              		.loc 1 184 0
 366 002c 1846     		mov	r0, r3
 367 002e 0837     		adds	r7, r7, #8
 368              	.LCFI23:
 369              		.cfi_def_cfa_offset 8
 370 0030 BD46     		mov	sp, r7
 371              	.LCFI24:
 372              		.cfi_def_cfa_register 13
 373              		@ sp needed
 374 0032 80BD     		pop	{r7, pc}
 375              	.L24:
 376              		.align	2
 377              	.L23:
 378 0034 00000000 		.word	hqspi
 379              		.cfi_endproc
 380              	.LFE137:
 382              		.section	.text.prv_spi_flash_write_enable,"ax",%progbits
 383              		.align	1
 384              		.syntax unified
 385              		.thumb
 386              		.thumb_func
 387              		.fpu fpv4-sp-d16
 389              	prv_spi_flash_write_enable:
 390              	.LFB138:
 185:E:/LiteOS/LiteOS_Lab/targets/STM32L431_BearPi/Hardware/Src\hal_qspi_flash.c **** 
 186:E:/LiteOS/LiteOS_Lab/targets/STM32L431_BearPi/Hardware/Src\hal_qspi_flash.c **** static void prv_spi_flash_write_enable(void)
 187:E:/LiteOS/LiteOS_Lab/targets/STM32L431_BearPi/Hardware/Src\hal_qspi_flash.c **** {
 391              		.loc 1 187 0
 392              		.cfi_startproc
 393              		@ args = 0, pretend = 0, frame = 0
 394              		@ frame_needed = 1, uses_anonymous_args = 0
ARM GAS  C:\Users\user\AppData\Local\Temp\ccGlcwic.s 			page 11


 395 0000 80B5     		push	{r7, lr}
 396              	.LCFI25:
 397              		.cfi_def_cfa_offset 8
 398              		.cfi_offset 7, -8
 399              		.cfi_offset 14, -4
 400 0002 84B0     		sub	sp, sp, #16
 401              	.LCFI26:
 402              		.cfi_def_cfa_offset 24
 403 0004 04AF     		add	r7, sp, #16
 404              	.LCFI27:
 405              		.cfi_def_cfa 7, 8
 188:E:/LiteOS/LiteOS_Lab/targets/STM32L431_BearPi/Hardware/Src\hal_qspi_flash.c **** 		QSPI_Send_CMD(QSPI_FLASH_WriteEnable, 0, 0, QSPI_INSTRUCTION_1_LINE, QSPI_ADDRESS_NONE, QSPI_ADDR
 406              		.loc 1 188 0
 407 0006 0023     		movs	r3, #0
 408 0008 0293     		str	r3, [sp, #8]
 409 000a 0023     		movs	r3, #0
 410 000c 0193     		str	r3, [sp, #4]
 411 000e 0023     		movs	r3, #0
 412 0010 0093     		str	r3, [sp]
 413 0012 4FF48073 		mov	r3, #256
 414 0016 0022     		movs	r2, #0
 415 0018 0021     		movs	r1, #0
 416 001a 0620     		movs	r0, #6
 417 001c FFF7FEFF 		bl	QSPI_Send_CMD
 189:E:/LiteOS/LiteOS_Lab/targets/STM32L431_BearPi/Hardware/Src\hal_qspi_flash.c **** }
 418              		.loc 1 189 0
 419 0020 00BF     		nop
 420 0022 BD46     		mov	sp, r7
 421              	.LCFI28:
 422              		.cfi_def_cfa_register 13
 423              		@ sp needed
 424 0024 80BD     		pop	{r7, pc}
 425              		.cfi_endproc
 426              	.LFE138:
 428              		.section	.text.prv_spi_flash_wait_write_end,"ax",%progbits
 429              		.align	1
 430              		.syntax unified
 431              		.thumb
 432              		.thumb_func
 433              		.fpu fpv4-sp-d16
 435              	prv_spi_flash_wait_write_end:
 436              	.LFB139:
 190:E:/LiteOS/LiteOS_Lab/targets/STM32L431_BearPi/Hardware/Src\hal_qspi_flash.c **** 
 191:E:/LiteOS/LiteOS_Lab/targets/STM32L431_BearPi/Hardware/Src\hal_qspi_flash.c **** static void prv_spi_flash_wait_write_end(void)
 192:E:/LiteOS/LiteOS_Lab/targets/STM32L431_BearPi/Hardware/Src\hal_qspi_flash.c **** {
 437              		.loc 1 192 0
 438              		.cfi_startproc
 439              		@ args = 0, pretend = 0, frame = 8
 440              		@ frame_needed = 1, uses_anonymous_args = 0
 441 0000 80B5     		push	{r7, lr}
 442              	.LCFI29:
 443              		.cfi_def_cfa_offset 8
 444              		.cfi_offset 7, -8
 445              		.cfi_offset 14, -4
 446 0002 86B0     		sub	sp, sp, #24
 447              	.LCFI30:
 448              		.cfi_def_cfa_offset 32
ARM GAS  C:\Users\user\AppData\Local\Temp\ccGlcwic.s 			page 12


 449 0004 04AF     		add	r7, sp, #16
 450              	.LCFI31:
 451              		.cfi_def_cfa 7, 16
 193:E:/LiteOS/LiteOS_Lab/targets/STM32L431_BearPi/Hardware/Src\hal_qspi_flash.c ****     uint8_t status = 0;
 452              		.loc 1 193 0
 453 0006 0023     		movs	r3, #0
 454 0008 FB71     		strb	r3, [r7, #7]
 455              	.L27:
 194:E:/LiteOS/LiteOS_Lab/targets/STM32L431_BearPi/Hardware/Src\hal_qspi_flash.c **** 
 195:E:/LiteOS/LiteOS_Lab/targets/STM32L431_BearPi/Hardware/Src\hal_qspi_flash.c **** 
 196:E:/LiteOS/LiteOS_Lab/targets/STM32L431_BearPi/Hardware/Src\hal_qspi_flash.c ****     /* Loop as long as the memory is busy with a write cycle */
 197:E:/LiteOS/LiteOS_Lab/targets/STM32L431_BearPi/Hardware/Src\hal_qspi_flash.c ****     do
 198:E:/LiteOS/LiteOS_Lab/targets/STM32L431_BearPi/Hardware/Src\hal_qspi_flash.c ****     {
 199:E:/LiteOS/LiteOS_Lab/targets/STM32L431_BearPi/Hardware/Src\hal_qspi_flash.c ****         /* Send a dummy byte to generate the clock needed by the FLASH
 200:E:/LiteOS/LiteOS_Lab/targets/STM32L431_BearPi/Hardware/Src\hal_qspi_flash.c ****         and put the value of the status register in status variable */
 201:E:/LiteOS/LiteOS_Lab/targets/STM32L431_BearPi/Hardware/Src\hal_qspi_flash.c **** 		QSPI_Send_CMD(QSPI_FLASH_ReadStatusReg, 0, 0, QSPI_INSTRUCTION_1_LINE, QSPI_ADDRESS_NONE, QSPI_AD
 456              		.loc 1 201 0 discriminator 1
 457 000a 4FF08073 		mov	r3, #16777216
 458 000e 0293     		str	r3, [sp, #8]
 459 0010 0023     		movs	r3, #0
 460 0012 0193     		str	r3, [sp, #4]
 461 0014 0023     		movs	r3, #0
 462 0016 0093     		str	r3, [sp]
 463 0018 4FF48073 		mov	r3, #256
 464 001c 0022     		movs	r2, #0
 465 001e 0021     		movs	r1, #0
 466 0020 0520     		movs	r0, #5
 467 0022 FFF7FEFF 		bl	QSPI_Send_CMD
 202:E:/LiteOS/LiteOS_Lab/targets/STM32L431_BearPi/Hardware/Src\hal_qspi_flash.c ****     QSPI_Receive(&status, 1);
 468              		.loc 1 202 0 discriminator 1
 469 0026 FB1D     		adds	r3, r7, #7
 470 0028 0121     		movs	r1, #1
 471 002a 1846     		mov	r0, r3
 472 002c FFF7FEFF 		bl	QSPI_Receive
 203:E:/LiteOS/LiteOS_Lab/targets/STM32L431_BearPi/Hardware/Src\hal_qspi_flash.c **** 			
 204:E:/LiteOS/LiteOS_Lab/targets/STM32L431_BearPi/Hardware/Src\hal_qspi_flash.c ****     } while ((status & QSPI_FLASH_WIP_FLAG) == SET); /* Write in progress */
 473              		.loc 1 204 0 discriminator 1
 474 0030 FB79     		ldrb	r3, [r7, #7]	@ zero_extendqisi2
 475 0032 03F00103 		and	r3, r3, #1
 476 0036 002B     		cmp	r3, #0
 477 0038 E7D1     		bne	.L27
 205:E:/LiteOS/LiteOS_Lab/targets/STM32L431_BearPi/Hardware/Src\hal_qspi_flash.c **** 
 206:E:/LiteOS/LiteOS_Lab/targets/STM32L431_BearPi/Hardware/Src\hal_qspi_flash.c **** }
 478              		.loc 1 206 0
 479 003a 00BF     		nop
 480 003c 0837     		adds	r7, r7, #8
 481              	.LCFI32:
 482              		.cfi_def_cfa_offset 8
 483 003e BD46     		mov	sp, r7
 484              	.LCFI33:
 485              		.cfi_def_cfa_register 13
 486              		@ sp needed
 487 0040 80BD     		pop	{r7, pc}
 488              		.cfi_endproc
 489              	.LFE139:
 491              		.section	.text.prv_spi_flash_write_page,"ax",%progbits
 492              		.align	1
ARM GAS  C:\Users\user\AppData\Local\Temp\ccGlcwic.s 			page 13


 493              		.syntax unified
 494              		.thumb
 495              		.thumb_func
 496              		.fpu fpv4-sp-d16
 498              	prv_spi_flash_write_page:
 499              	.LFB140:
 207:E:/LiteOS/LiteOS_Lab/targets/STM32L431_BearPi/Hardware/Src\hal_qspi_flash.c **** 
 208:E:/LiteOS/LiteOS_Lab/targets/STM32L431_BearPi/Hardware/Src\hal_qspi_flash.c **** static int prv_spi_flash_write_page(const uint8_t* buf, uint32_t addr, int32_t len)
 209:E:/LiteOS/LiteOS_Lab/targets/STM32L431_BearPi/Hardware/Src\hal_qspi_flash.c **** {
 500              		.loc 1 209 0
 501              		.cfi_startproc
 502              		@ args = 0, pretend = 0, frame = 24
 503              		@ frame_needed = 1, uses_anonymous_args = 0
 504 0000 80B5     		push	{r7, lr}
 505              	.LCFI34:
 506              		.cfi_def_cfa_offset 8
 507              		.cfi_offset 7, -8
 508              		.cfi_offset 14, -4
 509 0002 8AB0     		sub	sp, sp, #40
 510              	.LCFI35:
 511              		.cfi_def_cfa_offset 48
 512 0004 04AF     		add	r7, sp, #16
 513              	.LCFI36:
 514              		.cfi_def_cfa 7, 32
 515 0006 F860     		str	r0, [r7, #12]
 516 0008 B960     		str	r1, [r7, #8]
 517 000a 7A60     		str	r2, [r7, #4]
 210:E:/LiteOS/LiteOS_Lab/targets/STM32L431_BearPi/Hardware/Src\hal_qspi_flash.c ****     int ret = 0;
 518              		.loc 1 210 0
 519 000c 0023     		movs	r3, #0
 520 000e 7B61     		str	r3, [r7, #20]
 211:E:/LiteOS/LiteOS_Lab/targets/STM32L431_BearPi/Hardware/Src\hal_qspi_flash.c **** 
 212:E:/LiteOS/LiteOS_Lab/targets/STM32L431_BearPi/Hardware/Src\hal_qspi_flash.c ****     if(0 == len)
 521              		.loc 1 212 0
 522 0010 7B68     		ldr	r3, [r7, #4]
 523 0012 002B     		cmp	r3, #0
 524 0014 01D1     		bne	.L29
 213:E:/LiteOS/LiteOS_Lab/targets/STM32L431_BearPi/Hardware/Src\hal_qspi_flash.c ****     {
 214:E:/LiteOS/LiteOS_Lab/targets/STM32L431_BearPi/Hardware/Src\hal_qspi_flash.c ****         return 0;
 525              		.loc 1 214 0
 526 0016 0023     		movs	r3, #0
 527 0018 19E0     		b	.L30
 528              	.L29:
 215:E:/LiteOS/LiteOS_Lab/targets/STM32L431_BearPi/Hardware/Src\hal_qspi_flash.c ****     }
 216:E:/LiteOS/LiteOS_Lab/targets/STM32L431_BearPi/Hardware/Src\hal_qspi_flash.c **** 
 217:E:/LiteOS/LiteOS_Lab/targets/STM32L431_BearPi/Hardware/Src\hal_qspi_flash.c ****     prv_spi_flash_write_enable();					//Write enable
 529              		.loc 1 217 0
 530 001a FFF7FEFF 		bl	prv_spi_flash_write_enable
 218:E:/LiteOS/LiteOS_Lab/targets/STM32L431_BearPi/Hardware/Src\hal_qspi_flash.c **** 		
 219:E:/LiteOS/LiteOS_Lab/targets/STM32L431_BearPi/Hardware/Src\hal_qspi_flash.c ****     QSPI_Send_CMD(QSPI_FLASH_PageProgram, addr, 0, QSPI_INSTRUCTION_1_LINE, QSPI_ADDRESS_1_LINE, QS
 531              		.loc 1 219 0
 532 001e 4FF08073 		mov	r3, #16777216
 533 0022 0293     		str	r3, [sp, #8]
 534 0024 4FF40053 		mov	r3, #8192
 535 0028 0193     		str	r3, [sp, #4]
 536 002a 4FF48063 		mov	r3, #1024
 537 002e 0093     		str	r3, [sp]
ARM GAS  C:\Users\user\AppData\Local\Temp\ccGlcwic.s 			page 14


 538 0030 4FF48073 		mov	r3, #256
 539 0034 0022     		movs	r2, #0
 540 0036 B968     		ldr	r1, [r7, #8]
 541 0038 0220     		movs	r0, #2
 542 003a FFF7FEFF 		bl	QSPI_Send_CMD
 220:E:/LiteOS/LiteOS_Lab/targets/STM32L431_BearPi/Hardware/Src\hal_qspi_flash.c ****     QSPI_Transmit((const int8_t *)buf, len);
 543              		.loc 1 220 0
 544 003e 7B68     		ldr	r3, [r7, #4]
 545 0040 1946     		mov	r1, r3
 546 0042 F868     		ldr	r0, [r7, #12]
 547 0044 FFF7FEFF 		bl	QSPI_Transmit
 221:E:/LiteOS/LiteOS_Lab/targets/STM32L431_BearPi/Hardware/Src\hal_qspi_flash.c ****     
 222:E:/LiteOS/LiteOS_Lab/targets/STM32L431_BearPi/Hardware/Src\hal_qspi_flash.c **** 		prv_spi_flash_wait_write_end();					   //Waiting for Writing to End
 548              		.loc 1 222 0
 549 0048 FFF7FEFF 		bl	prv_spi_flash_wait_write_end
 223:E:/LiteOS/LiteOS_Lab/targets/STM32L431_BearPi/Hardware/Src\hal_qspi_flash.c ****    
 224:E:/LiteOS/LiteOS_Lab/targets/STM32L431_BearPi/Hardware/Src\hal_qspi_flash.c **** 		return ret;
 550              		.loc 1 224 0
 551 004c 7B69     		ldr	r3, [r7, #20]
 552              	.L30:
 225:E:/LiteOS/LiteOS_Lab/targets/STM32L431_BearPi/Hardware/Src\hal_qspi_flash.c **** }
 553              		.loc 1 225 0
 554 004e 1846     		mov	r0, r3
 555 0050 1837     		adds	r7, r7, #24
 556              	.LCFI37:
 557              		.cfi_def_cfa_offset 8
 558 0052 BD46     		mov	sp, r7
 559              	.LCFI38:
 560              		.cfi_def_cfa_register 13
 561              		@ sp needed
 562 0054 80BD     		pop	{r7, pc}
 563              		.cfi_endproc
 564              	.LFE140:
 566              		.section	.text.prv_spi_flash_erase_sector,"ax",%progbits
 567              		.align	1
 568              		.global	prv_spi_flash_erase_sector
 569              		.syntax unified
 570              		.thumb
 571              		.thumb_func
 572              		.fpu fpv4-sp-d16
 574              	prv_spi_flash_erase_sector:
 575              	.LFB141:
 226:E:/LiteOS/LiteOS_Lab/targets/STM32L431_BearPi/Hardware/Src\hal_qspi_flash.c **** 
 227:E:/LiteOS/LiteOS_Lab/targets/STM32L431_BearPi/Hardware/Src\hal_qspi_flash.c ****  int prv_spi_flash_erase_sector(uint32_t addr)
 228:E:/LiteOS/LiteOS_Lab/targets/STM32L431_BearPi/Hardware/Src\hal_qspi_flash.c **** {
 576              		.loc 1 228 0
 577              		.cfi_startproc
 578              		@ args = 0, pretend = 0, frame = 16
 579              		@ frame_needed = 1, uses_anonymous_args = 0
 580 0000 80B5     		push	{r7, lr}
 581              	.LCFI39:
 582              		.cfi_def_cfa_offset 8
 583              		.cfi_offset 7, -8
 584              		.cfi_offset 14, -4
 585 0002 88B0     		sub	sp, sp, #32
 586              	.LCFI40:
 587              		.cfi_def_cfa_offset 40
ARM GAS  C:\Users\user\AppData\Local\Temp\ccGlcwic.s 			page 15


 588 0004 04AF     		add	r7, sp, #16
 589              	.LCFI41:
 590              		.cfi_def_cfa 7, 24
 591 0006 7860     		str	r0, [r7, #4]
 229:E:/LiteOS/LiteOS_Lab/targets/STM32L431_BearPi/Hardware/Src\hal_qspi_flash.c **** 		//printf("fe:%x\r\n",addr);			//监视flash擦除情况,测试用  
 230:E:/LiteOS/LiteOS_Lab/targets/STM32L431_BearPi/Hardware/Src\hal_qspi_flash.c **** 		int ret = 0;
 592              		.loc 1 230 0
 593 0008 0023     		movs	r3, #0
 594 000a FB60     		str	r3, [r7, #12]
 231:E:/LiteOS/LiteOS_Lab/targets/STM32L431_BearPi/Hardware/Src\hal_qspi_flash.c ****     prv_spi_flash_write_enable();                  //Write enable
 595              		.loc 1 231 0
 596 000c FFF7FEFF 		bl	prv_spi_flash_write_enable
 232:E:/LiteOS/LiteOS_Lab/targets/STM32L431_BearPi/Hardware/Src\hal_qspi_flash.c ****     prv_spi_flash_wait_write_end();
 597              		.loc 1 232 0
 598 0010 FFF7FEFF 		bl	prv_spi_flash_wait_write_end
 233:E:/LiteOS/LiteOS_Lab/targets/STM32L431_BearPi/Hardware/Src\hal_qspi_flash.c ****     
 234:E:/LiteOS/LiteOS_Lab/targets/STM32L431_BearPi/Hardware/Src\hal_qspi_flash.c **** 		ret=QSPI_Send_CMD(QSPI_FLASH_SectorErase, addr, 0, QSPI_INSTRUCTION_1_LINE, QSPI_ADDRESS_1_LINE, 
 599              		.loc 1 234 0
 600 0014 0023     		movs	r3, #0
 601 0016 0293     		str	r3, [sp, #8]
 602 0018 4FF40053 		mov	r3, #8192
 603 001c 0193     		str	r3, [sp, #4]
 604 001e 4FF48063 		mov	r3, #1024
 605 0022 0093     		str	r3, [sp]
 606 0024 4FF48073 		mov	r3, #256
 607 0028 0022     		movs	r2, #0
 608 002a 7968     		ldr	r1, [r7, #4]
 609 002c 2020     		movs	r0, #32
 610 002e FFF7FEFF 		bl	QSPI_Send_CMD
 611 0032 0346     		mov	r3, r0
 612 0034 FB60     		str	r3, [r7, #12]
 235:E:/LiteOS/LiteOS_Lab/targets/STM32L431_BearPi/Hardware/Src\hal_qspi_flash.c ****     
 236:E:/LiteOS/LiteOS_Lab/targets/STM32L431_BearPi/Hardware/Src\hal_qspi_flash.c **** 		prv_spi_flash_wait_write_end();   				    //Waiting for Writing to End
 613              		.loc 1 236 0
 614 0036 FFF7FEFF 		bl	prv_spi_flash_wait_write_end
 237:E:/LiteOS/LiteOS_Lab/targets/STM32L431_BearPi/Hardware/Src\hal_qspi_flash.c **** 	
 238:E:/LiteOS/LiteOS_Lab/targets/STM32L431_BearPi/Hardware/Src\hal_qspi_flash.c **** 		return ret;
 615              		.loc 1 238 0
 616 003a FB68     		ldr	r3, [r7, #12]
 239:E:/LiteOS/LiteOS_Lab/targets/STM32L431_BearPi/Hardware/Src\hal_qspi_flash.c **** }
 617              		.loc 1 239 0
 618 003c 1846     		mov	r0, r3
 619 003e 1037     		adds	r7, r7, #16
 620              	.LCFI42:
 621              		.cfi_def_cfa_offset 8
 622 0040 BD46     		mov	sp, r7
 623              	.LCFI43:
 624              		.cfi_def_cfa_register 13
 625              		@ sp needed
 626 0042 80BD     		pop	{r7, pc}
 627              		.cfi_endproc
 628              	.LFE141:
 630              		.section	.rodata
 631              		.align	2
 632              	.LC0:
 633 0000 453A2F4C 		.ascii	"E:/LiteOS/LiteOS_Lab/targets/STM32L431_BearPi/Hardw"
 633      6974654F 
ARM GAS  C:\Users\user\AppData\Local\Temp\ccGlcwic.s 			page 16


 633      532F4C69 
 633      74654F53 
 633      5F4C6162 
 634 0033 6172652F 		.ascii	"are/Src/hal_qspi_flash.c\000"
 634      5372632F 
 634      68616C5F 
 634      71737069 
 634      5F666C61 
 635              		.section	.text.hal_spi_flash_config,"ax",%progbits
 636              		.align	1
 637              		.global	hal_spi_flash_config
 638              		.syntax unified
 639              		.thumb
 640              		.thumb_func
 641              		.fpu fpv4-sp-d16
 643              	hal_spi_flash_config:
 644              	.LFB142:
 240:E:/LiteOS/LiteOS_Lab/targets/STM32L431_BearPi/Hardware/Src\hal_qspi_flash.c **** 
 241:E:/LiteOS/LiteOS_Lab/targets/STM32L431_BearPi/Hardware/Src\hal_qspi_flash.c **** void hal_spi_flash_config(void)
 242:E:/LiteOS/LiteOS_Lab/targets/STM32L431_BearPi/Hardware/Src\hal_qspi_flash.c **** {
 645              		.loc 1 242 0
 646              		.cfi_startproc
 647              		@ args = 0, pretend = 0, frame = 8
 648              		@ frame_needed = 1, uses_anonymous_args = 0
 649 0000 80B5     		push	{r7, lr}
 650              	.LCFI44:
 651              		.cfi_def_cfa_offset 8
 652              		.cfi_offset 7, -8
 653              		.cfi_offset 14, -4
 654 0002 82B0     		sub	sp, sp, #8
 655              	.LCFI45:
 656              		.cfi_def_cfa_offset 16
 657 0004 00AF     		add	r7, sp, #0
 658              	.LCFI46:
 659              		.cfi_def_cfa_register 7
 243:E:/LiteOS/LiteOS_Lab/targets/STM32L431_BearPi/Hardware/Src\hal_qspi_flash.c ****   hqspi.Instance = QUADSPI;
 660              		.loc 1 243 0
 661 0006 1A4B     		ldr	r3, .L37
 662 0008 1A4A     		ldr	r2, .L37+4
 663 000a 1A60     		str	r2, [r3]
 244:E:/LiteOS/LiteOS_Lab/targets/STM32L431_BearPi/Hardware/Src\hal_qspi_flash.c ****   hqspi.Init.ClockPrescaler = 0;
 664              		.loc 1 244 0
 665 000c 184B     		ldr	r3, .L37
 666 000e 0022     		movs	r2, #0
 667 0010 5A60     		str	r2, [r3, #4]
 245:E:/LiteOS/LiteOS_Lab/targets/STM32L431_BearPi/Hardware/Src\hal_qspi_flash.c ****   hqspi.Init.FifoThreshold = 4;
 668              		.loc 1 245 0
 669 0012 174B     		ldr	r3, .L37
 670 0014 0422     		movs	r2, #4
 671 0016 9A60     		str	r2, [r3, #8]
 246:E:/LiteOS/LiteOS_Lab/targets/STM32L431_BearPi/Hardware/Src\hal_qspi_flash.c ****   hqspi.Init.SampleShifting = QSPI_SAMPLE_SHIFTING_HALFCYCLE;
 672              		.loc 1 246 0
 673 0018 154B     		ldr	r3, .L37
 674 001a 1022     		movs	r2, #16
 675 001c DA60     		str	r2, [r3, #12]
 676 001e 4FF08073 		mov	r3, #16777216
 677 0022 7B60     		str	r3, [r7, #4]
ARM GAS  C:\Users\user\AppData\Local\Temp\ccGlcwic.s 			page 17


 678              	.LBB5:
 679              	.LBB6:
 680              		.file 2 "E:/LiteOS/LiteOS_Lab/iot_link/os/os_imp/liteos/arch/arm/common/cmsis/cmsis_gcc.h"
   1:E:/LiteOS/LiteOS_Lab/iot_link/os/os_imp/liteos/arch/arm/common/cmsis\cmsis_gcc.h **** /**************************************************************************//**
   2:E:/LiteOS/LiteOS_Lab/iot_link/os/os_imp/liteos/arch/arm/common/cmsis\cmsis_gcc.h ****  * @file     cmsis_gcc.h
   3:E:/LiteOS/LiteOS_Lab/iot_link/os/os_imp/liteos/arch/arm/common/cmsis\cmsis_gcc.h ****  * @brief    CMSIS compiler GCC header file
   4:E:/LiteOS/LiteOS_Lab/iot_link/os/os_imp/liteos/arch/arm/common/cmsis\cmsis_gcc.h ****  * @version  V5.0.1
   5:E:/LiteOS/LiteOS_Lab/iot_link/os/os_imp/liteos/arch/arm/common/cmsis\cmsis_gcc.h ****  * @date     02. February 2017
   6:E:/LiteOS/LiteOS_Lab/iot_link/os/os_imp/liteos/arch/arm/common/cmsis\cmsis_gcc.h ****  ******************************************************************************/
   7:E:/LiteOS/LiteOS_Lab/iot_link/os/os_imp/liteos/arch/arm/common/cmsis\cmsis_gcc.h **** /*
   8:E:/LiteOS/LiteOS_Lab/iot_link/os/os_imp/liteos/arch/arm/common/cmsis\cmsis_gcc.h ****  * Copyright (c) 2009-2017 ARM Limited. All rights reserved.
   9:E:/LiteOS/LiteOS_Lab/iot_link/os/os_imp/liteos/arch/arm/common/cmsis\cmsis_gcc.h ****  *
  10:E:/LiteOS/LiteOS_Lab/iot_link/os/os_imp/liteos/arch/arm/common/cmsis\cmsis_gcc.h ****  * SPDX-License-Identifier: Apache-2.0
  11:E:/LiteOS/LiteOS_Lab/iot_link/os/os_imp/liteos/arch/arm/common/cmsis\cmsis_gcc.h ****  *
  12:E:/LiteOS/LiteOS_Lab/iot_link/os/os_imp/liteos/arch/arm/common/cmsis\cmsis_gcc.h ****  * Licensed under the Apache License, Version 2.0 (the License); you may
  13:E:/LiteOS/LiteOS_Lab/iot_link/os/os_imp/liteos/arch/arm/common/cmsis\cmsis_gcc.h ****  * not use this file except in compliance with the License.
  14:E:/LiteOS/LiteOS_Lab/iot_link/os/os_imp/liteos/arch/arm/common/cmsis\cmsis_gcc.h ****  * You may obtain a copy of the License at
  15:E:/LiteOS/LiteOS_Lab/iot_link/os/os_imp/liteos/arch/arm/common/cmsis\cmsis_gcc.h ****  *
  16:E:/LiteOS/LiteOS_Lab/iot_link/os/os_imp/liteos/arch/arm/common/cmsis\cmsis_gcc.h ****  * www.apache.org/licenses/LICENSE-2.0
  17:E:/LiteOS/LiteOS_Lab/iot_link/os/os_imp/liteos/arch/arm/common/cmsis\cmsis_gcc.h ****  *
  18:E:/LiteOS/LiteOS_Lab/iot_link/os/os_imp/liteos/arch/arm/common/cmsis\cmsis_gcc.h ****  * Unless required by applicable law or agreed to in writing, software
  19:E:/LiteOS/LiteOS_Lab/iot_link/os/os_imp/liteos/arch/arm/common/cmsis\cmsis_gcc.h ****  * distributed under the License is distributed on an AS IS BASIS, WITHOUT
  20:E:/LiteOS/LiteOS_Lab/iot_link/os/os_imp/liteos/arch/arm/common/cmsis\cmsis_gcc.h ****  * WARRANTIES OR CONDITIONS OF ANY KIND, either express or implied.
  21:E:/LiteOS/LiteOS_Lab/iot_link/os/os_imp/liteos/arch/arm/common/cmsis\cmsis_gcc.h ****  * See the License for the specific language governing permissions and
  22:E:/LiteOS/LiteOS_Lab/iot_link/os/os_imp/liteos/arch/arm/common/cmsis\cmsis_gcc.h ****  * limitations under the License.
  23:E:/LiteOS/LiteOS_Lab/iot_link/os/os_imp/liteos/arch/arm/common/cmsis\cmsis_gcc.h ****  */
  24:E:/LiteOS/LiteOS_Lab/iot_link/os/os_imp/liteos/arch/arm/common/cmsis\cmsis_gcc.h **** 
  25:E:/LiteOS/LiteOS_Lab/iot_link/os/os_imp/liteos/arch/arm/common/cmsis\cmsis_gcc.h **** #ifndef __CMSIS_GCC_H
  26:E:/LiteOS/LiteOS_Lab/iot_link/os/os_imp/liteos/arch/arm/common/cmsis\cmsis_gcc.h **** #define __CMSIS_GCC_H
  27:E:/LiteOS/LiteOS_Lab/iot_link/os/os_imp/liteos/arch/arm/common/cmsis\cmsis_gcc.h **** 
  28:E:/LiteOS/LiteOS_Lab/iot_link/os/os_imp/liteos/arch/arm/common/cmsis\cmsis_gcc.h **** /* ignore some GCC warnings */
  29:E:/LiteOS/LiteOS_Lab/iot_link/os/os_imp/liteos/arch/arm/common/cmsis\cmsis_gcc.h **** #pragma GCC diagnostic push
  30:E:/LiteOS/LiteOS_Lab/iot_link/os/os_imp/liteos/arch/arm/common/cmsis\cmsis_gcc.h **** #pragma GCC diagnostic ignored "-Wsign-conversion"
  31:E:/LiteOS/LiteOS_Lab/iot_link/os/os_imp/liteos/arch/arm/common/cmsis\cmsis_gcc.h **** #pragma GCC diagnostic ignored "-Wconversion"
  32:E:/LiteOS/LiteOS_Lab/iot_link/os/os_imp/liteos/arch/arm/common/cmsis\cmsis_gcc.h **** #pragma GCC diagnostic ignored "-Wunused-parameter"
  33:E:/LiteOS/LiteOS_Lab/iot_link/os/os_imp/liteos/arch/arm/common/cmsis\cmsis_gcc.h **** 
  34:E:/LiteOS/LiteOS_Lab/iot_link/os/os_imp/liteos/arch/arm/common/cmsis\cmsis_gcc.h **** /* CMSIS compiler specific defines */
  35:E:/LiteOS/LiteOS_Lab/iot_link/os/os_imp/liteos/arch/arm/common/cmsis\cmsis_gcc.h **** #ifndef   __ASM
  36:E:/LiteOS/LiteOS_Lab/iot_link/os/os_imp/liteos/arch/arm/common/cmsis\cmsis_gcc.h ****   #define __ASM                     __asm
  37:E:/LiteOS/LiteOS_Lab/iot_link/os/os_imp/liteos/arch/arm/common/cmsis\cmsis_gcc.h **** #endif
  38:E:/LiteOS/LiteOS_Lab/iot_link/os/os_imp/liteos/arch/arm/common/cmsis\cmsis_gcc.h **** #ifndef   __INLINE
  39:E:/LiteOS/LiteOS_Lab/iot_link/os/os_imp/liteos/arch/arm/common/cmsis\cmsis_gcc.h ****   #define __INLINE                  inline
  40:E:/LiteOS/LiteOS_Lab/iot_link/os/os_imp/liteos/arch/arm/common/cmsis\cmsis_gcc.h **** #endif
  41:E:/LiteOS/LiteOS_Lab/iot_link/os/os_imp/liteos/arch/arm/common/cmsis\cmsis_gcc.h **** #ifndef   __STATIC_INLINE
  42:E:/LiteOS/LiteOS_Lab/iot_link/os/os_imp/liteos/arch/arm/common/cmsis\cmsis_gcc.h ****   #define __STATIC_INLINE           static inline
  43:E:/LiteOS/LiteOS_Lab/iot_link/os/os_imp/liteos/arch/arm/common/cmsis\cmsis_gcc.h **** #endif
  44:E:/LiteOS/LiteOS_Lab/iot_link/os/os_imp/liteos/arch/arm/common/cmsis\cmsis_gcc.h **** #ifndef   __NO_RETURN
  45:E:/LiteOS/LiteOS_Lab/iot_link/os/os_imp/liteos/arch/arm/common/cmsis\cmsis_gcc.h ****   #define __NO_RETURN               __attribute__((noreturn))
  46:E:/LiteOS/LiteOS_Lab/iot_link/os/os_imp/liteos/arch/arm/common/cmsis\cmsis_gcc.h **** #endif
  47:E:/LiteOS/LiteOS_Lab/iot_link/os/os_imp/liteos/arch/arm/common/cmsis\cmsis_gcc.h **** #ifndef   __USED
  48:E:/LiteOS/LiteOS_Lab/iot_link/os/os_imp/liteos/arch/arm/common/cmsis\cmsis_gcc.h ****   #define __USED                    __attribute__((used))
  49:E:/LiteOS/LiteOS_Lab/iot_link/os/os_imp/liteos/arch/arm/common/cmsis\cmsis_gcc.h **** #endif
  50:E:/LiteOS/LiteOS_Lab/iot_link/os/os_imp/liteos/arch/arm/common/cmsis\cmsis_gcc.h **** #ifndef   __WEAK
  51:E:/LiteOS/LiteOS_Lab/iot_link/os/os_imp/liteos/arch/arm/common/cmsis\cmsis_gcc.h ****   #define __WEAK                    __attribute__((weak))
  52:E:/LiteOS/LiteOS_Lab/iot_link/os/os_imp/liteos/arch/arm/common/cmsis\cmsis_gcc.h **** #endif
  53:E:/LiteOS/LiteOS_Lab/iot_link/os/os_imp/liteos/arch/arm/common/cmsis\cmsis_gcc.h **** #ifndef   __UNALIGNED_UINT32
  54:E:/LiteOS/LiteOS_Lab/iot_link/os/os_imp/liteos/arch/arm/common/cmsis\cmsis_gcc.h **** #pragma GCC diagnostic push
ARM GAS  C:\Users\user\AppData\Local\Temp\ccGlcwic.s 			page 18


  55:E:/LiteOS/LiteOS_Lab/iot_link/os/os_imp/liteos/arch/arm/common/cmsis\cmsis_gcc.h **** #pragma GCC diagnostic ignored "-Wpacked"
  56:E:/LiteOS/LiteOS_Lab/iot_link/os/os_imp/liteos/arch/arm/common/cmsis\cmsis_gcc.h **** #pragma GCC diagnostic ignored "-Wattributes"
  57:E:/LiteOS/LiteOS_Lab/iot_link/os/os_imp/liteos/arch/arm/common/cmsis\cmsis_gcc.h ****   struct __attribute__((packed)) T_UINT32 { uint32_t v; };
  58:E:/LiteOS/LiteOS_Lab/iot_link/os/os_imp/liteos/arch/arm/common/cmsis\cmsis_gcc.h **** #pragma GCC diagnostic pop
  59:E:/LiteOS/LiteOS_Lab/iot_link/os/os_imp/liteos/arch/arm/common/cmsis\cmsis_gcc.h ****   #define __UNALIGNED_UINT32(x)     (((struct T_UINT32 *)(x))->v)
  60:E:/LiteOS/LiteOS_Lab/iot_link/os/os_imp/liteos/arch/arm/common/cmsis\cmsis_gcc.h **** #endif
  61:E:/LiteOS/LiteOS_Lab/iot_link/os/os_imp/liteos/arch/arm/common/cmsis\cmsis_gcc.h **** #ifndef   __ALIGNED
  62:E:/LiteOS/LiteOS_Lab/iot_link/os/os_imp/liteos/arch/arm/common/cmsis\cmsis_gcc.h ****   #define __ALIGNED(x)              __attribute__((aligned(x)))
  63:E:/LiteOS/LiteOS_Lab/iot_link/os/os_imp/liteos/arch/arm/common/cmsis\cmsis_gcc.h **** #endif
  64:E:/LiteOS/LiteOS_Lab/iot_link/os/os_imp/liteos/arch/arm/common/cmsis\cmsis_gcc.h **** #ifndef   __PACKED
  65:E:/LiteOS/LiteOS_Lab/iot_link/os/os_imp/liteos/arch/arm/common/cmsis\cmsis_gcc.h ****   #define __PACKED                  __attribute__((packed, aligned(1)))
  66:E:/LiteOS/LiteOS_Lab/iot_link/os/os_imp/liteos/arch/arm/common/cmsis\cmsis_gcc.h **** #endif
  67:E:/LiteOS/LiteOS_Lab/iot_link/os/os_imp/liteos/arch/arm/common/cmsis\cmsis_gcc.h **** #ifndef   __PACKED_STRUCT
  68:E:/LiteOS/LiteOS_Lab/iot_link/os/os_imp/liteos/arch/arm/common/cmsis\cmsis_gcc.h ****   #define __PACKED_STRUCT           struct __attribute__((packed, aligned(1)))
  69:E:/LiteOS/LiteOS_Lab/iot_link/os/os_imp/liteos/arch/arm/common/cmsis\cmsis_gcc.h **** #endif
  70:E:/LiteOS/LiteOS_Lab/iot_link/os/os_imp/liteos/arch/arm/common/cmsis\cmsis_gcc.h **** 
  71:E:/LiteOS/LiteOS_Lab/iot_link/os/os_imp/liteos/arch/arm/common/cmsis\cmsis_gcc.h **** 
  72:E:/LiteOS/LiteOS_Lab/iot_link/os/os_imp/liteos/arch/arm/common/cmsis\cmsis_gcc.h **** /* ###########################  Core Function Access  ########################### */
  73:E:/LiteOS/LiteOS_Lab/iot_link/os/os_imp/liteos/arch/arm/common/cmsis\cmsis_gcc.h **** /** \ingroup  CMSIS_Core_FunctionInterface
  74:E:/LiteOS/LiteOS_Lab/iot_link/os/os_imp/liteos/arch/arm/common/cmsis\cmsis_gcc.h ****     \defgroup CMSIS_Core_RegAccFunctions CMSIS Core Register Access Functions
  75:E:/LiteOS/LiteOS_Lab/iot_link/os/os_imp/liteos/arch/arm/common/cmsis\cmsis_gcc.h ****   @{
  76:E:/LiteOS/LiteOS_Lab/iot_link/os/os_imp/liteos/arch/arm/common/cmsis\cmsis_gcc.h ****  */
  77:E:/LiteOS/LiteOS_Lab/iot_link/os/os_imp/liteos/arch/arm/common/cmsis\cmsis_gcc.h **** 
  78:E:/LiteOS/LiteOS_Lab/iot_link/os/os_imp/liteos/arch/arm/common/cmsis\cmsis_gcc.h **** /**
  79:E:/LiteOS/LiteOS_Lab/iot_link/os/os_imp/liteos/arch/arm/common/cmsis\cmsis_gcc.h ****   \brief   Enable IRQ Interrupts
  80:E:/LiteOS/LiteOS_Lab/iot_link/os/os_imp/liteos/arch/arm/common/cmsis\cmsis_gcc.h ****   \details Enables IRQ interrupts by clearing the I-bit in the CPSR.
  81:E:/LiteOS/LiteOS_Lab/iot_link/os/os_imp/liteos/arch/arm/common/cmsis\cmsis_gcc.h ****            Can only be executed in Privileged modes.
  82:E:/LiteOS/LiteOS_Lab/iot_link/os/os_imp/liteos/arch/arm/common/cmsis\cmsis_gcc.h ****  */
  83:E:/LiteOS/LiteOS_Lab/iot_link/os/os_imp/liteos/arch/arm/common/cmsis\cmsis_gcc.h **** __attribute__((always_inline)) __STATIC_INLINE void __enable_irq(void)
  84:E:/LiteOS/LiteOS_Lab/iot_link/os/os_imp/liteos/arch/arm/common/cmsis\cmsis_gcc.h **** {
  85:E:/LiteOS/LiteOS_Lab/iot_link/os/os_imp/liteos/arch/arm/common/cmsis\cmsis_gcc.h ****   __ASM volatile ("cpsie i" : : : "memory");
  86:E:/LiteOS/LiteOS_Lab/iot_link/os/os_imp/liteos/arch/arm/common/cmsis\cmsis_gcc.h **** }
  87:E:/LiteOS/LiteOS_Lab/iot_link/os/os_imp/liteos/arch/arm/common/cmsis\cmsis_gcc.h **** 
  88:E:/LiteOS/LiteOS_Lab/iot_link/os/os_imp/liteos/arch/arm/common/cmsis\cmsis_gcc.h **** 
  89:E:/LiteOS/LiteOS_Lab/iot_link/os/os_imp/liteos/arch/arm/common/cmsis\cmsis_gcc.h **** /**
  90:E:/LiteOS/LiteOS_Lab/iot_link/os/os_imp/liteos/arch/arm/common/cmsis\cmsis_gcc.h ****   \brief   Disable IRQ Interrupts
  91:E:/LiteOS/LiteOS_Lab/iot_link/os/os_imp/liteos/arch/arm/common/cmsis\cmsis_gcc.h ****   \details Disables IRQ interrupts by setting the I-bit in the CPSR.
  92:E:/LiteOS/LiteOS_Lab/iot_link/os/os_imp/liteos/arch/arm/common/cmsis\cmsis_gcc.h ****            Can only be executed in Privileged modes.
  93:E:/LiteOS/LiteOS_Lab/iot_link/os/os_imp/liteos/arch/arm/common/cmsis\cmsis_gcc.h ****  */
  94:E:/LiteOS/LiteOS_Lab/iot_link/os/os_imp/liteos/arch/arm/common/cmsis\cmsis_gcc.h **** __attribute__((always_inline)) __STATIC_INLINE void __disable_irq(void)
  95:E:/LiteOS/LiteOS_Lab/iot_link/os/os_imp/liteos/arch/arm/common/cmsis\cmsis_gcc.h **** {
  96:E:/LiteOS/LiteOS_Lab/iot_link/os/os_imp/liteos/arch/arm/common/cmsis\cmsis_gcc.h ****   __ASM volatile ("cpsid i" : : : "memory");
  97:E:/LiteOS/LiteOS_Lab/iot_link/os/os_imp/liteos/arch/arm/common/cmsis\cmsis_gcc.h **** }
  98:E:/LiteOS/LiteOS_Lab/iot_link/os/os_imp/liteos/arch/arm/common/cmsis\cmsis_gcc.h **** 
  99:E:/LiteOS/LiteOS_Lab/iot_link/os/os_imp/liteos/arch/arm/common/cmsis\cmsis_gcc.h **** 
 100:E:/LiteOS/LiteOS_Lab/iot_link/os/os_imp/liteos/arch/arm/common/cmsis\cmsis_gcc.h **** /**
 101:E:/LiteOS/LiteOS_Lab/iot_link/os/os_imp/liteos/arch/arm/common/cmsis\cmsis_gcc.h ****   \brief   Get Control Register
 102:E:/LiteOS/LiteOS_Lab/iot_link/os/os_imp/liteos/arch/arm/common/cmsis\cmsis_gcc.h ****   \details Returns the content of the Control Register.
 103:E:/LiteOS/LiteOS_Lab/iot_link/os/os_imp/liteos/arch/arm/common/cmsis\cmsis_gcc.h ****   \return               Control Register value
 104:E:/LiteOS/LiteOS_Lab/iot_link/os/os_imp/liteos/arch/arm/common/cmsis\cmsis_gcc.h ****  */
 105:E:/LiteOS/LiteOS_Lab/iot_link/os/os_imp/liteos/arch/arm/common/cmsis\cmsis_gcc.h **** __attribute__((always_inline)) __STATIC_INLINE uint32_t __get_CONTROL(void)
 106:E:/LiteOS/LiteOS_Lab/iot_link/os/os_imp/liteos/arch/arm/common/cmsis\cmsis_gcc.h **** {
 107:E:/LiteOS/LiteOS_Lab/iot_link/os/os_imp/liteos/arch/arm/common/cmsis\cmsis_gcc.h ****   uint32_t result;
 108:E:/LiteOS/LiteOS_Lab/iot_link/os/os_imp/liteos/arch/arm/common/cmsis\cmsis_gcc.h **** 
 109:E:/LiteOS/LiteOS_Lab/iot_link/os/os_imp/liteos/arch/arm/common/cmsis\cmsis_gcc.h ****   __ASM volatile ("MRS %0, control" : "=r" (result) );
 110:E:/LiteOS/LiteOS_Lab/iot_link/os/os_imp/liteos/arch/arm/common/cmsis\cmsis_gcc.h ****   return(result);
 111:E:/LiteOS/LiteOS_Lab/iot_link/os/os_imp/liteos/arch/arm/common/cmsis\cmsis_gcc.h **** }
ARM GAS  C:\Users\user\AppData\Local\Temp\ccGlcwic.s 			page 19


 112:E:/LiteOS/LiteOS_Lab/iot_link/os/os_imp/liteos/arch/arm/common/cmsis\cmsis_gcc.h **** 
 113:E:/LiteOS/LiteOS_Lab/iot_link/os/os_imp/liteos/arch/arm/common/cmsis\cmsis_gcc.h **** 
 114:E:/LiteOS/LiteOS_Lab/iot_link/os/os_imp/liteos/arch/arm/common/cmsis\cmsis_gcc.h **** #if (defined (__ARM_FEATURE_CMSE ) && (__ARM_FEATURE_CMSE == 3))
 115:E:/LiteOS/LiteOS_Lab/iot_link/os/os_imp/liteos/arch/arm/common/cmsis\cmsis_gcc.h **** /**
 116:E:/LiteOS/LiteOS_Lab/iot_link/os/os_imp/liteos/arch/arm/common/cmsis\cmsis_gcc.h ****   \brief   Get Control Register (non-secure)
 117:E:/LiteOS/LiteOS_Lab/iot_link/os/os_imp/liteos/arch/arm/common/cmsis\cmsis_gcc.h ****   \details Returns the content of the non-secure Control Register when in secure mode.
 118:E:/LiteOS/LiteOS_Lab/iot_link/os/os_imp/liteos/arch/arm/common/cmsis\cmsis_gcc.h ****   \return               non-secure Control Register value
 119:E:/LiteOS/LiteOS_Lab/iot_link/os/os_imp/liteos/arch/arm/common/cmsis\cmsis_gcc.h ****  */
 120:E:/LiteOS/LiteOS_Lab/iot_link/os/os_imp/liteos/arch/arm/common/cmsis\cmsis_gcc.h **** __attribute__((always_inline)) __STATIC_INLINE uint32_t __TZ_get_CONTROL_NS(void)
 121:E:/LiteOS/LiteOS_Lab/iot_link/os/os_imp/liteos/arch/arm/common/cmsis\cmsis_gcc.h **** {
 122:E:/LiteOS/LiteOS_Lab/iot_link/os/os_imp/liteos/arch/arm/common/cmsis\cmsis_gcc.h ****   uint32_t result;
 123:E:/LiteOS/LiteOS_Lab/iot_link/os/os_imp/liteos/arch/arm/common/cmsis\cmsis_gcc.h **** 
 124:E:/LiteOS/LiteOS_Lab/iot_link/os/os_imp/liteos/arch/arm/common/cmsis\cmsis_gcc.h ****   __ASM volatile ("MRS %0, control_ns" : "=r" (result) );
 125:E:/LiteOS/LiteOS_Lab/iot_link/os/os_imp/liteos/arch/arm/common/cmsis\cmsis_gcc.h ****   return(result);
 126:E:/LiteOS/LiteOS_Lab/iot_link/os/os_imp/liteos/arch/arm/common/cmsis\cmsis_gcc.h **** }
 127:E:/LiteOS/LiteOS_Lab/iot_link/os/os_imp/liteos/arch/arm/common/cmsis\cmsis_gcc.h **** #endif
 128:E:/LiteOS/LiteOS_Lab/iot_link/os/os_imp/liteos/arch/arm/common/cmsis\cmsis_gcc.h **** 
 129:E:/LiteOS/LiteOS_Lab/iot_link/os/os_imp/liteos/arch/arm/common/cmsis\cmsis_gcc.h **** 
 130:E:/LiteOS/LiteOS_Lab/iot_link/os/os_imp/liteos/arch/arm/common/cmsis\cmsis_gcc.h **** /**
 131:E:/LiteOS/LiteOS_Lab/iot_link/os/os_imp/liteos/arch/arm/common/cmsis\cmsis_gcc.h ****   \brief   Set Control Register
 132:E:/LiteOS/LiteOS_Lab/iot_link/os/os_imp/liteos/arch/arm/common/cmsis\cmsis_gcc.h ****   \details Writes the given value to the Control Register.
 133:E:/LiteOS/LiteOS_Lab/iot_link/os/os_imp/liteos/arch/arm/common/cmsis\cmsis_gcc.h ****   \param [in]    control  Control Register value to set
 134:E:/LiteOS/LiteOS_Lab/iot_link/os/os_imp/liteos/arch/arm/common/cmsis\cmsis_gcc.h ****  */
 135:E:/LiteOS/LiteOS_Lab/iot_link/os/os_imp/liteos/arch/arm/common/cmsis\cmsis_gcc.h **** __attribute__((always_inline)) __STATIC_INLINE void __set_CONTROL(uint32_t control)
 136:E:/LiteOS/LiteOS_Lab/iot_link/os/os_imp/liteos/arch/arm/common/cmsis\cmsis_gcc.h **** {
 137:E:/LiteOS/LiteOS_Lab/iot_link/os/os_imp/liteos/arch/arm/common/cmsis\cmsis_gcc.h ****   __ASM volatile ("MSR control, %0" : : "r" (control) : "memory");
 138:E:/LiteOS/LiteOS_Lab/iot_link/os/os_imp/liteos/arch/arm/common/cmsis\cmsis_gcc.h **** }
 139:E:/LiteOS/LiteOS_Lab/iot_link/os/os_imp/liteos/arch/arm/common/cmsis\cmsis_gcc.h **** 
 140:E:/LiteOS/LiteOS_Lab/iot_link/os/os_imp/liteos/arch/arm/common/cmsis\cmsis_gcc.h **** 
 141:E:/LiteOS/LiteOS_Lab/iot_link/os/os_imp/liteos/arch/arm/common/cmsis\cmsis_gcc.h **** #if (defined (__ARM_FEATURE_CMSE ) && (__ARM_FEATURE_CMSE == 3))
 142:E:/LiteOS/LiteOS_Lab/iot_link/os/os_imp/liteos/arch/arm/common/cmsis\cmsis_gcc.h **** /**
 143:E:/LiteOS/LiteOS_Lab/iot_link/os/os_imp/liteos/arch/arm/common/cmsis\cmsis_gcc.h ****   \brief   Set Control Register (non-secure)
 144:E:/LiteOS/LiteOS_Lab/iot_link/os/os_imp/liteos/arch/arm/common/cmsis\cmsis_gcc.h ****   \details Writes the given value to the non-secure Control Register when in secure state.
 145:E:/LiteOS/LiteOS_Lab/iot_link/os/os_imp/liteos/arch/arm/common/cmsis\cmsis_gcc.h ****   \param [in]    control  Control Register value to set
 146:E:/LiteOS/LiteOS_Lab/iot_link/os/os_imp/liteos/arch/arm/common/cmsis\cmsis_gcc.h ****  */
 147:E:/LiteOS/LiteOS_Lab/iot_link/os/os_imp/liteos/arch/arm/common/cmsis\cmsis_gcc.h **** __attribute__((always_inline)) __STATIC_INLINE void __TZ_set_CONTROL_NS(uint32_t control)
 148:E:/LiteOS/LiteOS_Lab/iot_link/os/os_imp/liteos/arch/arm/common/cmsis\cmsis_gcc.h **** {
 149:E:/LiteOS/LiteOS_Lab/iot_link/os/os_imp/liteos/arch/arm/common/cmsis\cmsis_gcc.h ****   __ASM volatile ("MSR control_ns, %0" : : "r" (control) : "memory");
 150:E:/LiteOS/LiteOS_Lab/iot_link/os/os_imp/liteos/arch/arm/common/cmsis\cmsis_gcc.h **** }
 151:E:/LiteOS/LiteOS_Lab/iot_link/os/os_imp/liteos/arch/arm/common/cmsis\cmsis_gcc.h **** #endif
 152:E:/LiteOS/LiteOS_Lab/iot_link/os/os_imp/liteos/arch/arm/common/cmsis\cmsis_gcc.h **** 
 153:E:/LiteOS/LiteOS_Lab/iot_link/os/os_imp/liteos/arch/arm/common/cmsis\cmsis_gcc.h **** 
 154:E:/LiteOS/LiteOS_Lab/iot_link/os/os_imp/liteos/arch/arm/common/cmsis\cmsis_gcc.h **** /**
 155:E:/LiteOS/LiteOS_Lab/iot_link/os/os_imp/liteos/arch/arm/common/cmsis\cmsis_gcc.h ****   \brief   Get IPSR Register
 156:E:/LiteOS/LiteOS_Lab/iot_link/os/os_imp/liteos/arch/arm/common/cmsis\cmsis_gcc.h ****   \details Returns the content of the IPSR Register.
 157:E:/LiteOS/LiteOS_Lab/iot_link/os/os_imp/liteos/arch/arm/common/cmsis\cmsis_gcc.h ****   \return               IPSR Register value
 158:E:/LiteOS/LiteOS_Lab/iot_link/os/os_imp/liteos/arch/arm/common/cmsis\cmsis_gcc.h ****  */
 159:E:/LiteOS/LiteOS_Lab/iot_link/os/os_imp/liteos/arch/arm/common/cmsis\cmsis_gcc.h **** __attribute__((always_inline)) __STATIC_INLINE uint32_t __get_IPSR(void)
 160:E:/LiteOS/LiteOS_Lab/iot_link/os/os_imp/liteos/arch/arm/common/cmsis\cmsis_gcc.h **** {
 161:E:/LiteOS/LiteOS_Lab/iot_link/os/os_imp/liteos/arch/arm/common/cmsis\cmsis_gcc.h ****   uint32_t result;
 162:E:/LiteOS/LiteOS_Lab/iot_link/os/os_imp/liteos/arch/arm/common/cmsis\cmsis_gcc.h **** 
 163:E:/LiteOS/LiteOS_Lab/iot_link/os/os_imp/liteos/arch/arm/common/cmsis\cmsis_gcc.h ****   __ASM volatile ("MRS %0, ipsr" : "=r" (result) );
 164:E:/LiteOS/LiteOS_Lab/iot_link/os/os_imp/liteos/arch/arm/common/cmsis\cmsis_gcc.h ****   return(result);
 165:E:/LiteOS/LiteOS_Lab/iot_link/os/os_imp/liteos/arch/arm/common/cmsis\cmsis_gcc.h **** }
 166:E:/LiteOS/LiteOS_Lab/iot_link/os/os_imp/liteos/arch/arm/common/cmsis\cmsis_gcc.h **** 
 167:E:/LiteOS/LiteOS_Lab/iot_link/os/os_imp/liteos/arch/arm/common/cmsis\cmsis_gcc.h **** 
 168:E:/LiteOS/LiteOS_Lab/iot_link/os/os_imp/liteos/arch/arm/common/cmsis\cmsis_gcc.h **** /**
ARM GAS  C:\Users\user\AppData\Local\Temp\ccGlcwic.s 			page 20


 169:E:/LiteOS/LiteOS_Lab/iot_link/os/os_imp/liteos/arch/arm/common/cmsis\cmsis_gcc.h ****   \brief   Get APSR Register
 170:E:/LiteOS/LiteOS_Lab/iot_link/os/os_imp/liteos/arch/arm/common/cmsis\cmsis_gcc.h ****   \details Returns the content of the APSR Register.
 171:E:/LiteOS/LiteOS_Lab/iot_link/os/os_imp/liteos/arch/arm/common/cmsis\cmsis_gcc.h ****   \return               APSR Register value
 172:E:/LiteOS/LiteOS_Lab/iot_link/os/os_imp/liteos/arch/arm/common/cmsis\cmsis_gcc.h ****  */
 173:E:/LiteOS/LiteOS_Lab/iot_link/os/os_imp/liteos/arch/arm/common/cmsis\cmsis_gcc.h **** __attribute__((always_inline)) __STATIC_INLINE uint32_t __get_APSR(void)
 174:E:/LiteOS/LiteOS_Lab/iot_link/os/os_imp/liteos/arch/arm/common/cmsis\cmsis_gcc.h **** {
 175:E:/LiteOS/LiteOS_Lab/iot_link/os/os_imp/liteos/arch/arm/common/cmsis\cmsis_gcc.h ****   uint32_t result;
 176:E:/LiteOS/LiteOS_Lab/iot_link/os/os_imp/liteos/arch/arm/common/cmsis\cmsis_gcc.h **** 
 177:E:/LiteOS/LiteOS_Lab/iot_link/os/os_imp/liteos/arch/arm/common/cmsis\cmsis_gcc.h ****   __ASM volatile ("MRS %0, apsr" : "=r" (result) );
 178:E:/LiteOS/LiteOS_Lab/iot_link/os/os_imp/liteos/arch/arm/common/cmsis\cmsis_gcc.h ****   return(result);
 179:E:/LiteOS/LiteOS_Lab/iot_link/os/os_imp/liteos/arch/arm/common/cmsis\cmsis_gcc.h **** }
 180:E:/LiteOS/LiteOS_Lab/iot_link/os/os_imp/liteos/arch/arm/common/cmsis\cmsis_gcc.h **** 
 181:E:/LiteOS/LiteOS_Lab/iot_link/os/os_imp/liteos/arch/arm/common/cmsis\cmsis_gcc.h **** 
 182:E:/LiteOS/LiteOS_Lab/iot_link/os/os_imp/liteos/arch/arm/common/cmsis\cmsis_gcc.h **** /**
 183:E:/LiteOS/LiteOS_Lab/iot_link/os/os_imp/liteos/arch/arm/common/cmsis\cmsis_gcc.h ****   \brief   Get xPSR Register
 184:E:/LiteOS/LiteOS_Lab/iot_link/os/os_imp/liteos/arch/arm/common/cmsis\cmsis_gcc.h ****   \details Returns the content of the xPSR Register.
 185:E:/LiteOS/LiteOS_Lab/iot_link/os/os_imp/liteos/arch/arm/common/cmsis\cmsis_gcc.h ****   \return               xPSR Register value
 186:E:/LiteOS/LiteOS_Lab/iot_link/os/os_imp/liteos/arch/arm/common/cmsis\cmsis_gcc.h ****  */
 187:E:/LiteOS/LiteOS_Lab/iot_link/os/os_imp/liteos/arch/arm/common/cmsis\cmsis_gcc.h **** __attribute__((always_inline)) __STATIC_INLINE uint32_t __get_xPSR(void)
 188:E:/LiteOS/LiteOS_Lab/iot_link/os/os_imp/liteos/arch/arm/common/cmsis\cmsis_gcc.h **** {
 189:E:/LiteOS/LiteOS_Lab/iot_link/os/os_imp/liteos/arch/arm/common/cmsis\cmsis_gcc.h ****   uint32_t result;
 190:E:/LiteOS/LiteOS_Lab/iot_link/os/os_imp/liteos/arch/arm/common/cmsis\cmsis_gcc.h **** 
 191:E:/LiteOS/LiteOS_Lab/iot_link/os/os_imp/liteos/arch/arm/common/cmsis\cmsis_gcc.h ****   __ASM volatile ("MRS %0, xpsr" : "=r" (result) );
 192:E:/LiteOS/LiteOS_Lab/iot_link/os/os_imp/liteos/arch/arm/common/cmsis\cmsis_gcc.h ****   return(result);
 193:E:/LiteOS/LiteOS_Lab/iot_link/os/os_imp/liteos/arch/arm/common/cmsis\cmsis_gcc.h **** }
 194:E:/LiteOS/LiteOS_Lab/iot_link/os/os_imp/liteos/arch/arm/common/cmsis\cmsis_gcc.h **** 
 195:E:/LiteOS/LiteOS_Lab/iot_link/os/os_imp/liteos/arch/arm/common/cmsis\cmsis_gcc.h **** 
 196:E:/LiteOS/LiteOS_Lab/iot_link/os/os_imp/liteos/arch/arm/common/cmsis\cmsis_gcc.h **** /**
 197:E:/LiteOS/LiteOS_Lab/iot_link/os/os_imp/liteos/arch/arm/common/cmsis\cmsis_gcc.h ****   \brief   Get Process Stack Pointer
 198:E:/LiteOS/LiteOS_Lab/iot_link/os/os_imp/liteos/arch/arm/common/cmsis\cmsis_gcc.h ****   \details Returns the current value of the Process Stack Pointer (PSP).
 199:E:/LiteOS/LiteOS_Lab/iot_link/os/os_imp/liteos/arch/arm/common/cmsis\cmsis_gcc.h ****   \return               PSP Register value
 200:E:/LiteOS/LiteOS_Lab/iot_link/os/os_imp/liteos/arch/arm/common/cmsis\cmsis_gcc.h ****  */
 201:E:/LiteOS/LiteOS_Lab/iot_link/os/os_imp/liteos/arch/arm/common/cmsis\cmsis_gcc.h **** __attribute__((always_inline)) __STATIC_INLINE uint32_t __get_PSP(void)
 202:E:/LiteOS/LiteOS_Lab/iot_link/os/os_imp/liteos/arch/arm/common/cmsis\cmsis_gcc.h **** {
 203:E:/LiteOS/LiteOS_Lab/iot_link/os/os_imp/liteos/arch/arm/common/cmsis\cmsis_gcc.h ****   register uint32_t result;
 204:E:/LiteOS/LiteOS_Lab/iot_link/os/os_imp/liteos/arch/arm/common/cmsis\cmsis_gcc.h **** 
 205:E:/LiteOS/LiteOS_Lab/iot_link/os/os_imp/liteos/arch/arm/common/cmsis\cmsis_gcc.h ****   __ASM volatile ("MRS %0, psp"  : "=r" (result) );
 206:E:/LiteOS/LiteOS_Lab/iot_link/os/os_imp/liteos/arch/arm/common/cmsis\cmsis_gcc.h ****   return(result);
 207:E:/LiteOS/LiteOS_Lab/iot_link/os/os_imp/liteos/arch/arm/common/cmsis\cmsis_gcc.h **** }
 208:E:/LiteOS/LiteOS_Lab/iot_link/os/os_imp/liteos/arch/arm/common/cmsis\cmsis_gcc.h **** 
 209:E:/LiteOS/LiteOS_Lab/iot_link/os/os_imp/liteos/arch/arm/common/cmsis\cmsis_gcc.h **** 
 210:E:/LiteOS/LiteOS_Lab/iot_link/os/os_imp/liteos/arch/arm/common/cmsis\cmsis_gcc.h **** #if (defined (__ARM_FEATURE_CMSE ) && (__ARM_FEATURE_CMSE == 3))
 211:E:/LiteOS/LiteOS_Lab/iot_link/os/os_imp/liteos/arch/arm/common/cmsis\cmsis_gcc.h **** /**
 212:E:/LiteOS/LiteOS_Lab/iot_link/os/os_imp/liteos/arch/arm/common/cmsis\cmsis_gcc.h ****   \brief   Get Process Stack Pointer (non-secure)
 213:E:/LiteOS/LiteOS_Lab/iot_link/os/os_imp/liteos/arch/arm/common/cmsis\cmsis_gcc.h ****   \details Returns the current value of the non-secure Process Stack Pointer (PSP) when in secure s
 214:E:/LiteOS/LiteOS_Lab/iot_link/os/os_imp/liteos/arch/arm/common/cmsis\cmsis_gcc.h ****   \return               PSP Register value
 215:E:/LiteOS/LiteOS_Lab/iot_link/os/os_imp/liteos/arch/arm/common/cmsis\cmsis_gcc.h ****  */
 216:E:/LiteOS/LiteOS_Lab/iot_link/os/os_imp/liteos/arch/arm/common/cmsis\cmsis_gcc.h **** __attribute__((always_inline)) __STATIC_INLINE uint32_t __TZ_get_PSP_NS(void)
 217:E:/LiteOS/LiteOS_Lab/iot_link/os/os_imp/liteos/arch/arm/common/cmsis\cmsis_gcc.h **** {
 218:E:/LiteOS/LiteOS_Lab/iot_link/os/os_imp/liteos/arch/arm/common/cmsis\cmsis_gcc.h ****   register uint32_t result;
 219:E:/LiteOS/LiteOS_Lab/iot_link/os/os_imp/liteos/arch/arm/common/cmsis\cmsis_gcc.h **** 
 220:E:/LiteOS/LiteOS_Lab/iot_link/os/os_imp/liteos/arch/arm/common/cmsis\cmsis_gcc.h ****   __ASM volatile ("MRS %0, psp_ns"  : "=r" (result) );
 221:E:/LiteOS/LiteOS_Lab/iot_link/os/os_imp/liteos/arch/arm/common/cmsis\cmsis_gcc.h ****   return(result);
 222:E:/LiteOS/LiteOS_Lab/iot_link/os/os_imp/liteos/arch/arm/common/cmsis\cmsis_gcc.h **** }
 223:E:/LiteOS/LiteOS_Lab/iot_link/os/os_imp/liteos/arch/arm/common/cmsis\cmsis_gcc.h **** #endif
 224:E:/LiteOS/LiteOS_Lab/iot_link/os/os_imp/liteos/arch/arm/common/cmsis\cmsis_gcc.h **** 
 225:E:/LiteOS/LiteOS_Lab/iot_link/os/os_imp/liteos/arch/arm/common/cmsis\cmsis_gcc.h **** 
ARM GAS  C:\Users\user\AppData\Local\Temp\ccGlcwic.s 			page 21


 226:E:/LiteOS/LiteOS_Lab/iot_link/os/os_imp/liteos/arch/arm/common/cmsis\cmsis_gcc.h **** /**
 227:E:/LiteOS/LiteOS_Lab/iot_link/os/os_imp/liteos/arch/arm/common/cmsis\cmsis_gcc.h ****   \brief   Set Process Stack Pointer
 228:E:/LiteOS/LiteOS_Lab/iot_link/os/os_imp/liteos/arch/arm/common/cmsis\cmsis_gcc.h ****   \details Assigns the given value to the Process Stack Pointer (PSP).
 229:E:/LiteOS/LiteOS_Lab/iot_link/os/os_imp/liteos/arch/arm/common/cmsis\cmsis_gcc.h ****   \param [in]    topOfProcStack  Process Stack Pointer value to set
 230:E:/LiteOS/LiteOS_Lab/iot_link/os/os_imp/liteos/arch/arm/common/cmsis\cmsis_gcc.h ****  */
 231:E:/LiteOS/LiteOS_Lab/iot_link/os/os_imp/liteos/arch/arm/common/cmsis\cmsis_gcc.h **** __attribute__((always_inline)) __STATIC_INLINE void __set_PSP(uint32_t topOfProcStack)
 232:E:/LiteOS/LiteOS_Lab/iot_link/os/os_imp/liteos/arch/arm/common/cmsis\cmsis_gcc.h **** {
 233:E:/LiteOS/LiteOS_Lab/iot_link/os/os_imp/liteos/arch/arm/common/cmsis\cmsis_gcc.h ****   __ASM volatile ("MSR psp, %0" : : "r" (topOfProcStack) : );
 234:E:/LiteOS/LiteOS_Lab/iot_link/os/os_imp/liteos/arch/arm/common/cmsis\cmsis_gcc.h **** }
 235:E:/LiteOS/LiteOS_Lab/iot_link/os/os_imp/liteos/arch/arm/common/cmsis\cmsis_gcc.h **** 
 236:E:/LiteOS/LiteOS_Lab/iot_link/os/os_imp/liteos/arch/arm/common/cmsis\cmsis_gcc.h **** 
 237:E:/LiteOS/LiteOS_Lab/iot_link/os/os_imp/liteos/arch/arm/common/cmsis\cmsis_gcc.h **** #if (defined (__ARM_FEATURE_CMSE ) && (__ARM_FEATURE_CMSE == 3))
 238:E:/LiteOS/LiteOS_Lab/iot_link/os/os_imp/liteos/arch/arm/common/cmsis\cmsis_gcc.h **** /**
 239:E:/LiteOS/LiteOS_Lab/iot_link/os/os_imp/liteos/arch/arm/common/cmsis\cmsis_gcc.h ****   \brief   Set Process Stack Pointer (non-secure)
 240:E:/LiteOS/LiteOS_Lab/iot_link/os/os_imp/liteos/arch/arm/common/cmsis\cmsis_gcc.h ****   \details Assigns the given value to the non-secure Process Stack Pointer (PSP) when in secure sta
 241:E:/LiteOS/LiteOS_Lab/iot_link/os/os_imp/liteos/arch/arm/common/cmsis\cmsis_gcc.h ****   \param [in]    topOfProcStack  Process Stack Pointer value to set
 242:E:/LiteOS/LiteOS_Lab/iot_link/os/os_imp/liteos/arch/arm/common/cmsis\cmsis_gcc.h ****  */
 243:E:/LiteOS/LiteOS_Lab/iot_link/os/os_imp/liteos/arch/arm/common/cmsis\cmsis_gcc.h **** __attribute__((always_inline)) __STATIC_INLINE void __TZ_set_PSP_NS(uint32_t topOfProcStack)
 244:E:/LiteOS/LiteOS_Lab/iot_link/os/os_imp/liteos/arch/arm/common/cmsis\cmsis_gcc.h **** {
 245:E:/LiteOS/LiteOS_Lab/iot_link/os/os_imp/liteos/arch/arm/common/cmsis\cmsis_gcc.h ****   __ASM volatile ("MSR psp_ns, %0" : : "r" (topOfProcStack) : );
 246:E:/LiteOS/LiteOS_Lab/iot_link/os/os_imp/liteos/arch/arm/common/cmsis\cmsis_gcc.h **** }
 247:E:/LiteOS/LiteOS_Lab/iot_link/os/os_imp/liteos/arch/arm/common/cmsis\cmsis_gcc.h **** #endif
 248:E:/LiteOS/LiteOS_Lab/iot_link/os/os_imp/liteos/arch/arm/common/cmsis\cmsis_gcc.h **** 
 249:E:/LiteOS/LiteOS_Lab/iot_link/os/os_imp/liteos/arch/arm/common/cmsis\cmsis_gcc.h **** 
 250:E:/LiteOS/LiteOS_Lab/iot_link/os/os_imp/liteos/arch/arm/common/cmsis\cmsis_gcc.h **** /**
 251:E:/LiteOS/LiteOS_Lab/iot_link/os/os_imp/liteos/arch/arm/common/cmsis\cmsis_gcc.h ****   \brief   Get Main Stack Pointer
 252:E:/LiteOS/LiteOS_Lab/iot_link/os/os_imp/liteos/arch/arm/common/cmsis\cmsis_gcc.h ****   \details Returns the current value of the Main Stack Pointer (MSP).
 253:E:/LiteOS/LiteOS_Lab/iot_link/os/os_imp/liteos/arch/arm/common/cmsis\cmsis_gcc.h ****   \return               MSP Register value
 254:E:/LiteOS/LiteOS_Lab/iot_link/os/os_imp/liteos/arch/arm/common/cmsis\cmsis_gcc.h ****  */
 255:E:/LiteOS/LiteOS_Lab/iot_link/os/os_imp/liteos/arch/arm/common/cmsis\cmsis_gcc.h **** __attribute__((always_inline)) __STATIC_INLINE uint32_t __get_MSP(void)
 256:E:/LiteOS/LiteOS_Lab/iot_link/os/os_imp/liteos/arch/arm/common/cmsis\cmsis_gcc.h **** {
 257:E:/LiteOS/LiteOS_Lab/iot_link/os/os_imp/liteos/arch/arm/common/cmsis\cmsis_gcc.h ****   register uint32_t result;
 258:E:/LiteOS/LiteOS_Lab/iot_link/os/os_imp/liteos/arch/arm/common/cmsis\cmsis_gcc.h **** 
 259:E:/LiteOS/LiteOS_Lab/iot_link/os/os_imp/liteos/arch/arm/common/cmsis\cmsis_gcc.h ****   __ASM volatile ("MRS %0, msp" : "=r" (result) );
 260:E:/LiteOS/LiteOS_Lab/iot_link/os/os_imp/liteos/arch/arm/common/cmsis\cmsis_gcc.h ****   return(result);
 261:E:/LiteOS/LiteOS_Lab/iot_link/os/os_imp/liteos/arch/arm/common/cmsis\cmsis_gcc.h **** }
 262:E:/LiteOS/LiteOS_Lab/iot_link/os/os_imp/liteos/arch/arm/common/cmsis\cmsis_gcc.h **** 
 263:E:/LiteOS/LiteOS_Lab/iot_link/os/os_imp/liteos/arch/arm/common/cmsis\cmsis_gcc.h **** 
 264:E:/LiteOS/LiteOS_Lab/iot_link/os/os_imp/liteos/arch/arm/common/cmsis\cmsis_gcc.h **** #if (defined (__ARM_FEATURE_CMSE ) && (__ARM_FEATURE_CMSE == 3))
 265:E:/LiteOS/LiteOS_Lab/iot_link/os/os_imp/liteos/arch/arm/common/cmsis\cmsis_gcc.h **** /**
 266:E:/LiteOS/LiteOS_Lab/iot_link/os/os_imp/liteos/arch/arm/common/cmsis\cmsis_gcc.h ****   \brief   Get Main Stack Pointer (non-secure)
 267:E:/LiteOS/LiteOS_Lab/iot_link/os/os_imp/liteos/arch/arm/common/cmsis\cmsis_gcc.h ****   \details Returns the current value of the non-secure Main Stack Pointer (MSP) when in secure stat
 268:E:/LiteOS/LiteOS_Lab/iot_link/os/os_imp/liteos/arch/arm/common/cmsis\cmsis_gcc.h ****   \return               MSP Register value
 269:E:/LiteOS/LiteOS_Lab/iot_link/os/os_imp/liteos/arch/arm/common/cmsis\cmsis_gcc.h ****  */
 270:E:/LiteOS/LiteOS_Lab/iot_link/os/os_imp/liteos/arch/arm/common/cmsis\cmsis_gcc.h **** __attribute__((always_inline)) __STATIC_INLINE uint32_t __TZ_get_MSP_NS(void)
 271:E:/LiteOS/LiteOS_Lab/iot_link/os/os_imp/liteos/arch/arm/common/cmsis\cmsis_gcc.h **** {
 272:E:/LiteOS/LiteOS_Lab/iot_link/os/os_imp/liteos/arch/arm/common/cmsis\cmsis_gcc.h ****   register uint32_t result;
 273:E:/LiteOS/LiteOS_Lab/iot_link/os/os_imp/liteos/arch/arm/common/cmsis\cmsis_gcc.h **** 
 274:E:/LiteOS/LiteOS_Lab/iot_link/os/os_imp/liteos/arch/arm/common/cmsis\cmsis_gcc.h ****   __ASM volatile ("MRS %0, msp_ns" : "=r" (result) );
 275:E:/LiteOS/LiteOS_Lab/iot_link/os/os_imp/liteos/arch/arm/common/cmsis\cmsis_gcc.h ****   return(result);
 276:E:/LiteOS/LiteOS_Lab/iot_link/os/os_imp/liteos/arch/arm/common/cmsis\cmsis_gcc.h **** }
 277:E:/LiteOS/LiteOS_Lab/iot_link/os/os_imp/liteos/arch/arm/common/cmsis\cmsis_gcc.h **** #endif
 278:E:/LiteOS/LiteOS_Lab/iot_link/os/os_imp/liteos/arch/arm/common/cmsis\cmsis_gcc.h **** 
 279:E:/LiteOS/LiteOS_Lab/iot_link/os/os_imp/liteos/arch/arm/common/cmsis\cmsis_gcc.h **** 
 280:E:/LiteOS/LiteOS_Lab/iot_link/os/os_imp/liteos/arch/arm/common/cmsis\cmsis_gcc.h **** /**
 281:E:/LiteOS/LiteOS_Lab/iot_link/os/os_imp/liteos/arch/arm/common/cmsis\cmsis_gcc.h ****   \brief   Set Main Stack Pointer
 282:E:/LiteOS/LiteOS_Lab/iot_link/os/os_imp/liteos/arch/arm/common/cmsis\cmsis_gcc.h ****   \details Assigns the given value to the Main Stack Pointer (MSP).
ARM GAS  C:\Users\user\AppData\Local\Temp\ccGlcwic.s 			page 22


 283:E:/LiteOS/LiteOS_Lab/iot_link/os/os_imp/liteos/arch/arm/common/cmsis\cmsis_gcc.h ****   \param [in]    topOfMainStack  Main Stack Pointer value to set
 284:E:/LiteOS/LiteOS_Lab/iot_link/os/os_imp/liteos/arch/arm/common/cmsis\cmsis_gcc.h ****  */
 285:E:/LiteOS/LiteOS_Lab/iot_link/os/os_imp/liteos/arch/arm/common/cmsis\cmsis_gcc.h **** __attribute__((always_inline)) __STATIC_INLINE void __set_MSP(uint32_t topOfMainStack)
 286:E:/LiteOS/LiteOS_Lab/iot_link/os/os_imp/liteos/arch/arm/common/cmsis\cmsis_gcc.h **** {
 287:E:/LiteOS/LiteOS_Lab/iot_link/os/os_imp/liteos/arch/arm/common/cmsis\cmsis_gcc.h ****   __ASM volatile ("MSR msp, %0" : : "r" (topOfMainStack) : );
 288:E:/LiteOS/LiteOS_Lab/iot_link/os/os_imp/liteos/arch/arm/common/cmsis\cmsis_gcc.h **** }
 289:E:/LiteOS/LiteOS_Lab/iot_link/os/os_imp/liteos/arch/arm/common/cmsis\cmsis_gcc.h **** 
 290:E:/LiteOS/LiteOS_Lab/iot_link/os/os_imp/liteos/arch/arm/common/cmsis\cmsis_gcc.h **** 
 291:E:/LiteOS/LiteOS_Lab/iot_link/os/os_imp/liteos/arch/arm/common/cmsis\cmsis_gcc.h **** #if (defined (__ARM_FEATURE_CMSE ) && (__ARM_FEATURE_CMSE == 3))
 292:E:/LiteOS/LiteOS_Lab/iot_link/os/os_imp/liteos/arch/arm/common/cmsis\cmsis_gcc.h **** /**
 293:E:/LiteOS/LiteOS_Lab/iot_link/os/os_imp/liteos/arch/arm/common/cmsis\cmsis_gcc.h ****   \brief   Set Main Stack Pointer (non-secure)
 294:E:/LiteOS/LiteOS_Lab/iot_link/os/os_imp/liteos/arch/arm/common/cmsis\cmsis_gcc.h ****   \details Assigns the given value to the non-secure Main Stack Pointer (MSP) when in secure state.
 295:E:/LiteOS/LiteOS_Lab/iot_link/os/os_imp/liteos/arch/arm/common/cmsis\cmsis_gcc.h ****   \param [in]    topOfMainStack  Main Stack Pointer value to set
 296:E:/LiteOS/LiteOS_Lab/iot_link/os/os_imp/liteos/arch/arm/common/cmsis\cmsis_gcc.h ****  */
 297:E:/LiteOS/LiteOS_Lab/iot_link/os/os_imp/liteos/arch/arm/common/cmsis\cmsis_gcc.h **** __attribute__((always_inline)) __STATIC_INLINE void __TZ_set_MSP_NS(uint32_t topOfMainStack)
 298:E:/LiteOS/LiteOS_Lab/iot_link/os/os_imp/liteos/arch/arm/common/cmsis\cmsis_gcc.h **** {
 299:E:/LiteOS/LiteOS_Lab/iot_link/os/os_imp/liteos/arch/arm/common/cmsis\cmsis_gcc.h ****   __ASM volatile ("MSR msp_ns, %0" : : "r" (topOfMainStack) : );
 300:E:/LiteOS/LiteOS_Lab/iot_link/os/os_imp/liteos/arch/arm/common/cmsis\cmsis_gcc.h **** }
 301:E:/LiteOS/LiteOS_Lab/iot_link/os/os_imp/liteos/arch/arm/common/cmsis\cmsis_gcc.h **** #endif
 302:E:/LiteOS/LiteOS_Lab/iot_link/os/os_imp/liteos/arch/arm/common/cmsis\cmsis_gcc.h **** 
 303:E:/LiteOS/LiteOS_Lab/iot_link/os/os_imp/liteos/arch/arm/common/cmsis\cmsis_gcc.h **** 
 304:E:/LiteOS/LiteOS_Lab/iot_link/os/os_imp/liteos/arch/arm/common/cmsis\cmsis_gcc.h **** /**
 305:E:/LiteOS/LiteOS_Lab/iot_link/os/os_imp/liteos/arch/arm/common/cmsis\cmsis_gcc.h ****   \brief   Get Priority Mask
 306:E:/LiteOS/LiteOS_Lab/iot_link/os/os_imp/liteos/arch/arm/common/cmsis\cmsis_gcc.h ****   \details Returns the current state of the priority mask bit from the Priority Mask Register.
 307:E:/LiteOS/LiteOS_Lab/iot_link/os/os_imp/liteos/arch/arm/common/cmsis\cmsis_gcc.h ****   \return               Priority Mask value
 308:E:/LiteOS/LiteOS_Lab/iot_link/os/os_imp/liteos/arch/arm/common/cmsis\cmsis_gcc.h ****  */
 309:E:/LiteOS/LiteOS_Lab/iot_link/os/os_imp/liteos/arch/arm/common/cmsis\cmsis_gcc.h **** __attribute__((always_inline)) __STATIC_INLINE uint32_t __get_PRIMASK(void)
 310:E:/LiteOS/LiteOS_Lab/iot_link/os/os_imp/liteos/arch/arm/common/cmsis\cmsis_gcc.h **** {
 311:E:/LiteOS/LiteOS_Lab/iot_link/os/os_imp/liteos/arch/arm/common/cmsis\cmsis_gcc.h ****   uint32_t result;
 312:E:/LiteOS/LiteOS_Lab/iot_link/os/os_imp/liteos/arch/arm/common/cmsis\cmsis_gcc.h **** 
 313:E:/LiteOS/LiteOS_Lab/iot_link/os/os_imp/liteos/arch/arm/common/cmsis\cmsis_gcc.h ****   __ASM volatile ("MRS %0, primask" : "=r" (result) );
 314:E:/LiteOS/LiteOS_Lab/iot_link/os/os_imp/liteos/arch/arm/common/cmsis\cmsis_gcc.h ****   return(result);
 315:E:/LiteOS/LiteOS_Lab/iot_link/os/os_imp/liteos/arch/arm/common/cmsis\cmsis_gcc.h **** }
 316:E:/LiteOS/LiteOS_Lab/iot_link/os/os_imp/liteos/arch/arm/common/cmsis\cmsis_gcc.h **** 
 317:E:/LiteOS/LiteOS_Lab/iot_link/os/os_imp/liteos/arch/arm/common/cmsis\cmsis_gcc.h **** 
 318:E:/LiteOS/LiteOS_Lab/iot_link/os/os_imp/liteos/arch/arm/common/cmsis\cmsis_gcc.h **** #if (defined (__ARM_FEATURE_CMSE ) && (__ARM_FEATURE_CMSE == 3))
 319:E:/LiteOS/LiteOS_Lab/iot_link/os/os_imp/liteos/arch/arm/common/cmsis\cmsis_gcc.h **** /**
 320:E:/LiteOS/LiteOS_Lab/iot_link/os/os_imp/liteos/arch/arm/common/cmsis\cmsis_gcc.h ****   \brief   Get Priority Mask (non-secure)
 321:E:/LiteOS/LiteOS_Lab/iot_link/os/os_imp/liteos/arch/arm/common/cmsis\cmsis_gcc.h ****   \details Returns the current state of the non-secure priority mask bit from the Priority Mask Reg
 322:E:/LiteOS/LiteOS_Lab/iot_link/os/os_imp/liteos/arch/arm/common/cmsis\cmsis_gcc.h ****   \return               Priority Mask value
 323:E:/LiteOS/LiteOS_Lab/iot_link/os/os_imp/liteos/arch/arm/common/cmsis\cmsis_gcc.h ****  */
 324:E:/LiteOS/LiteOS_Lab/iot_link/os/os_imp/liteos/arch/arm/common/cmsis\cmsis_gcc.h **** __attribute__((always_inline)) __STATIC_INLINE uint32_t __TZ_get_PRIMASK_NS(void)
 325:E:/LiteOS/LiteOS_Lab/iot_link/os/os_imp/liteos/arch/arm/common/cmsis\cmsis_gcc.h **** {
 326:E:/LiteOS/LiteOS_Lab/iot_link/os/os_imp/liteos/arch/arm/common/cmsis\cmsis_gcc.h ****   uint32_t result;
 327:E:/LiteOS/LiteOS_Lab/iot_link/os/os_imp/liteos/arch/arm/common/cmsis\cmsis_gcc.h **** 
 328:E:/LiteOS/LiteOS_Lab/iot_link/os/os_imp/liteos/arch/arm/common/cmsis\cmsis_gcc.h ****   __ASM volatile ("MRS %0, primask_ns" : "=r" (result) );
 329:E:/LiteOS/LiteOS_Lab/iot_link/os/os_imp/liteos/arch/arm/common/cmsis\cmsis_gcc.h ****   return(result);
 330:E:/LiteOS/LiteOS_Lab/iot_link/os/os_imp/liteos/arch/arm/common/cmsis\cmsis_gcc.h **** }
 331:E:/LiteOS/LiteOS_Lab/iot_link/os/os_imp/liteos/arch/arm/common/cmsis\cmsis_gcc.h **** #endif
 332:E:/LiteOS/LiteOS_Lab/iot_link/os/os_imp/liteos/arch/arm/common/cmsis\cmsis_gcc.h **** 
 333:E:/LiteOS/LiteOS_Lab/iot_link/os/os_imp/liteos/arch/arm/common/cmsis\cmsis_gcc.h **** 
 334:E:/LiteOS/LiteOS_Lab/iot_link/os/os_imp/liteos/arch/arm/common/cmsis\cmsis_gcc.h **** /**
 335:E:/LiteOS/LiteOS_Lab/iot_link/os/os_imp/liteos/arch/arm/common/cmsis\cmsis_gcc.h ****   \brief   Set Priority Mask
 336:E:/LiteOS/LiteOS_Lab/iot_link/os/os_imp/liteos/arch/arm/common/cmsis\cmsis_gcc.h ****   \details Assigns the given value to the Priority Mask Register.
 337:E:/LiteOS/LiteOS_Lab/iot_link/os/os_imp/liteos/arch/arm/common/cmsis\cmsis_gcc.h ****   \param [in]    priMask  Priority Mask
 338:E:/LiteOS/LiteOS_Lab/iot_link/os/os_imp/liteos/arch/arm/common/cmsis\cmsis_gcc.h ****  */
 339:E:/LiteOS/LiteOS_Lab/iot_link/os/os_imp/liteos/arch/arm/common/cmsis\cmsis_gcc.h **** __attribute__((always_inline)) __STATIC_INLINE void __set_PRIMASK(uint32_t priMask)
ARM GAS  C:\Users\user\AppData\Local\Temp\ccGlcwic.s 			page 23


 340:E:/LiteOS/LiteOS_Lab/iot_link/os/os_imp/liteos/arch/arm/common/cmsis\cmsis_gcc.h **** {
 341:E:/LiteOS/LiteOS_Lab/iot_link/os/os_imp/liteos/arch/arm/common/cmsis\cmsis_gcc.h ****   __ASM volatile ("MSR primask, %0" : : "r" (priMask) : "memory");
 342:E:/LiteOS/LiteOS_Lab/iot_link/os/os_imp/liteos/arch/arm/common/cmsis\cmsis_gcc.h **** }
 343:E:/LiteOS/LiteOS_Lab/iot_link/os/os_imp/liteos/arch/arm/common/cmsis\cmsis_gcc.h **** 
 344:E:/LiteOS/LiteOS_Lab/iot_link/os/os_imp/liteos/arch/arm/common/cmsis\cmsis_gcc.h **** 
 345:E:/LiteOS/LiteOS_Lab/iot_link/os/os_imp/liteos/arch/arm/common/cmsis\cmsis_gcc.h **** #if (defined (__ARM_FEATURE_CMSE ) && (__ARM_FEATURE_CMSE == 3))
 346:E:/LiteOS/LiteOS_Lab/iot_link/os/os_imp/liteos/arch/arm/common/cmsis\cmsis_gcc.h **** /**
 347:E:/LiteOS/LiteOS_Lab/iot_link/os/os_imp/liteos/arch/arm/common/cmsis\cmsis_gcc.h ****   \brief   Set Priority Mask (non-secure)
 348:E:/LiteOS/LiteOS_Lab/iot_link/os/os_imp/liteos/arch/arm/common/cmsis\cmsis_gcc.h ****   \details Assigns the given value to the non-secure Priority Mask Register when in secure state.
 349:E:/LiteOS/LiteOS_Lab/iot_link/os/os_imp/liteos/arch/arm/common/cmsis\cmsis_gcc.h ****   \param [in]    priMask  Priority Mask
 350:E:/LiteOS/LiteOS_Lab/iot_link/os/os_imp/liteos/arch/arm/common/cmsis\cmsis_gcc.h ****  */
 351:E:/LiteOS/LiteOS_Lab/iot_link/os/os_imp/liteos/arch/arm/common/cmsis\cmsis_gcc.h **** __attribute__((always_inline)) __STATIC_INLINE void __TZ_set_PRIMASK_NS(uint32_t priMask)
 352:E:/LiteOS/LiteOS_Lab/iot_link/os/os_imp/liteos/arch/arm/common/cmsis\cmsis_gcc.h **** {
 353:E:/LiteOS/LiteOS_Lab/iot_link/os/os_imp/liteos/arch/arm/common/cmsis\cmsis_gcc.h ****   __ASM volatile ("MSR primask_ns, %0" : : "r" (priMask) : "memory");
 354:E:/LiteOS/LiteOS_Lab/iot_link/os/os_imp/liteos/arch/arm/common/cmsis\cmsis_gcc.h **** }
 355:E:/LiteOS/LiteOS_Lab/iot_link/os/os_imp/liteos/arch/arm/common/cmsis\cmsis_gcc.h **** #endif
 356:E:/LiteOS/LiteOS_Lab/iot_link/os/os_imp/liteos/arch/arm/common/cmsis\cmsis_gcc.h **** 
 357:E:/LiteOS/LiteOS_Lab/iot_link/os/os_imp/liteos/arch/arm/common/cmsis\cmsis_gcc.h **** 
 358:E:/LiteOS/LiteOS_Lab/iot_link/os/os_imp/liteos/arch/arm/common/cmsis\cmsis_gcc.h **** #if ((defined (__ARM_ARCH_7M__      ) && (__ARM_ARCH_7M__      == 1)) || \
 359:E:/LiteOS/LiteOS_Lab/iot_link/os/os_imp/liteos/arch/arm/common/cmsis\cmsis_gcc.h ****      (defined (__ARM_ARCH_7EM__     ) && (__ARM_ARCH_7EM__     == 1)) || \
 360:E:/LiteOS/LiteOS_Lab/iot_link/os/os_imp/liteos/arch/arm/common/cmsis\cmsis_gcc.h ****      (defined (__ARM_ARCH_8M_MAIN__ ) && (__ARM_ARCH_8M_MAIN__ == 1))    )
 361:E:/LiteOS/LiteOS_Lab/iot_link/os/os_imp/liteos/arch/arm/common/cmsis\cmsis_gcc.h **** /**
 362:E:/LiteOS/LiteOS_Lab/iot_link/os/os_imp/liteos/arch/arm/common/cmsis\cmsis_gcc.h ****   \brief   Enable FIQ
 363:E:/LiteOS/LiteOS_Lab/iot_link/os/os_imp/liteos/arch/arm/common/cmsis\cmsis_gcc.h ****   \details Enables FIQ interrupts by clearing the F-bit in the CPSR.
 364:E:/LiteOS/LiteOS_Lab/iot_link/os/os_imp/liteos/arch/arm/common/cmsis\cmsis_gcc.h ****            Can only be executed in Privileged modes.
 365:E:/LiteOS/LiteOS_Lab/iot_link/os/os_imp/liteos/arch/arm/common/cmsis\cmsis_gcc.h ****  */
 366:E:/LiteOS/LiteOS_Lab/iot_link/os/os_imp/liteos/arch/arm/common/cmsis\cmsis_gcc.h **** __attribute__((always_inline)) __STATIC_INLINE void __enable_fault_irq(void)
 367:E:/LiteOS/LiteOS_Lab/iot_link/os/os_imp/liteos/arch/arm/common/cmsis\cmsis_gcc.h **** {
 368:E:/LiteOS/LiteOS_Lab/iot_link/os/os_imp/liteos/arch/arm/common/cmsis\cmsis_gcc.h ****   __ASM volatile ("cpsie f" : : : "memory");
 369:E:/LiteOS/LiteOS_Lab/iot_link/os/os_imp/liteos/arch/arm/common/cmsis\cmsis_gcc.h **** }
 370:E:/LiteOS/LiteOS_Lab/iot_link/os/os_imp/liteos/arch/arm/common/cmsis\cmsis_gcc.h **** 
 371:E:/LiteOS/LiteOS_Lab/iot_link/os/os_imp/liteos/arch/arm/common/cmsis\cmsis_gcc.h **** 
 372:E:/LiteOS/LiteOS_Lab/iot_link/os/os_imp/liteos/arch/arm/common/cmsis\cmsis_gcc.h **** /**
 373:E:/LiteOS/LiteOS_Lab/iot_link/os/os_imp/liteos/arch/arm/common/cmsis\cmsis_gcc.h ****   \brief   Disable FIQ
 374:E:/LiteOS/LiteOS_Lab/iot_link/os/os_imp/liteos/arch/arm/common/cmsis\cmsis_gcc.h ****   \details Disables FIQ interrupts by setting the F-bit in the CPSR.
 375:E:/LiteOS/LiteOS_Lab/iot_link/os/os_imp/liteos/arch/arm/common/cmsis\cmsis_gcc.h ****            Can only be executed in Privileged modes.
 376:E:/LiteOS/LiteOS_Lab/iot_link/os/os_imp/liteos/arch/arm/common/cmsis\cmsis_gcc.h ****  */
 377:E:/LiteOS/LiteOS_Lab/iot_link/os/os_imp/liteos/arch/arm/common/cmsis\cmsis_gcc.h **** __attribute__((always_inline)) __STATIC_INLINE void __disable_fault_irq(void)
 378:E:/LiteOS/LiteOS_Lab/iot_link/os/os_imp/liteos/arch/arm/common/cmsis\cmsis_gcc.h **** {
 379:E:/LiteOS/LiteOS_Lab/iot_link/os/os_imp/liteos/arch/arm/common/cmsis\cmsis_gcc.h ****   __ASM volatile ("cpsid f" : : : "memory");
 380:E:/LiteOS/LiteOS_Lab/iot_link/os/os_imp/liteos/arch/arm/common/cmsis\cmsis_gcc.h **** }
 381:E:/LiteOS/LiteOS_Lab/iot_link/os/os_imp/liteos/arch/arm/common/cmsis\cmsis_gcc.h **** 
 382:E:/LiteOS/LiteOS_Lab/iot_link/os/os_imp/liteos/arch/arm/common/cmsis\cmsis_gcc.h **** 
 383:E:/LiteOS/LiteOS_Lab/iot_link/os/os_imp/liteos/arch/arm/common/cmsis\cmsis_gcc.h **** /**
 384:E:/LiteOS/LiteOS_Lab/iot_link/os/os_imp/liteos/arch/arm/common/cmsis\cmsis_gcc.h ****   \brief   Get Base Priority
 385:E:/LiteOS/LiteOS_Lab/iot_link/os/os_imp/liteos/arch/arm/common/cmsis\cmsis_gcc.h ****   \details Returns the current value of the Base Priority register.
 386:E:/LiteOS/LiteOS_Lab/iot_link/os/os_imp/liteos/arch/arm/common/cmsis\cmsis_gcc.h ****   \return               Base Priority register value
 387:E:/LiteOS/LiteOS_Lab/iot_link/os/os_imp/liteos/arch/arm/common/cmsis\cmsis_gcc.h ****  */
 388:E:/LiteOS/LiteOS_Lab/iot_link/os/os_imp/liteos/arch/arm/common/cmsis\cmsis_gcc.h **** __attribute__((always_inline)) __STATIC_INLINE uint32_t __get_BASEPRI(void)
 389:E:/LiteOS/LiteOS_Lab/iot_link/os/os_imp/liteos/arch/arm/common/cmsis\cmsis_gcc.h **** {
 390:E:/LiteOS/LiteOS_Lab/iot_link/os/os_imp/liteos/arch/arm/common/cmsis\cmsis_gcc.h ****   uint32_t result;
 391:E:/LiteOS/LiteOS_Lab/iot_link/os/os_imp/liteos/arch/arm/common/cmsis\cmsis_gcc.h **** 
 392:E:/LiteOS/LiteOS_Lab/iot_link/os/os_imp/liteos/arch/arm/common/cmsis\cmsis_gcc.h ****   __ASM volatile ("MRS %0, basepri" : "=r" (result) );
 393:E:/LiteOS/LiteOS_Lab/iot_link/os/os_imp/liteos/arch/arm/common/cmsis\cmsis_gcc.h ****   return(result);
 394:E:/LiteOS/LiteOS_Lab/iot_link/os/os_imp/liteos/arch/arm/common/cmsis\cmsis_gcc.h **** }
 395:E:/LiteOS/LiteOS_Lab/iot_link/os/os_imp/liteos/arch/arm/common/cmsis\cmsis_gcc.h **** 
 396:E:/LiteOS/LiteOS_Lab/iot_link/os/os_imp/liteos/arch/arm/common/cmsis\cmsis_gcc.h **** 
ARM GAS  C:\Users\user\AppData\Local\Temp\ccGlcwic.s 			page 24


 397:E:/LiteOS/LiteOS_Lab/iot_link/os/os_imp/liteos/arch/arm/common/cmsis\cmsis_gcc.h **** #if (defined (__ARM_FEATURE_CMSE ) && (__ARM_FEATURE_CMSE == 3))
 398:E:/LiteOS/LiteOS_Lab/iot_link/os/os_imp/liteos/arch/arm/common/cmsis\cmsis_gcc.h **** /**
 399:E:/LiteOS/LiteOS_Lab/iot_link/os/os_imp/liteos/arch/arm/common/cmsis\cmsis_gcc.h ****   \brief   Get Base Priority (non-secure)
 400:E:/LiteOS/LiteOS_Lab/iot_link/os/os_imp/liteos/arch/arm/common/cmsis\cmsis_gcc.h ****   \details Returns the current value of the non-secure Base Priority register when in secure state.
 401:E:/LiteOS/LiteOS_Lab/iot_link/os/os_imp/liteos/arch/arm/common/cmsis\cmsis_gcc.h ****   \return               Base Priority register value
 402:E:/LiteOS/LiteOS_Lab/iot_link/os/os_imp/liteos/arch/arm/common/cmsis\cmsis_gcc.h ****  */
 403:E:/LiteOS/LiteOS_Lab/iot_link/os/os_imp/liteos/arch/arm/common/cmsis\cmsis_gcc.h **** __attribute__((always_inline)) __STATIC_INLINE uint32_t __TZ_get_BASEPRI_NS(void)
 404:E:/LiteOS/LiteOS_Lab/iot_link/os/os_imp/liteos/arch/arm/common/cmsis\cmsis_gcc.h **** {
 405:E:/LiteOS/LiteOS_Lab/iot_link/os/os_imp/liteos/arch/arm/common/cmsis\cmsis_gcc.h ****   uint32_t result;
 406:E:/LiteOS/LiteOS_Lab/iot_link/os/os_imp/liteos/arch/arm/common/cmsis\cmsis_gcc.h **** 
 407:E:/LiteOS/LiteOS_Lab/iot_link/os/os_imp/liteos/arch/arm/common/cmsis\cmsis_gcc.h ****   __ASM volatile ("MRS %0, basepri_ns" : "=r" (result) );
 408:E:/LiteOS/LiteOS_Lab/iot_link/os/os_imp/liteos/arch/arm/common/cmsis\cmsis_gcc.h ****   return(result);
 409:E:/LiteOS/LiteOS_Lab/iot_link/os/os_imp/liteos/arch/arm/common/cmsis\cmsis_gcc.h **** }
 410:E:/LiteOS/LiteOS_Lab/iot_link/os/os_imp/liteos/arch/arm/common/cmsis\cmsis_gcc.h **** #endif
 411:E:/LiteOS/LiteOS_Lab/iot_link/os/os_imp/liteos/arch/arm/common/cmsis\cmsis_gcc.h **** 
 412:E:/LiteOS/LiteOS_Lab/iot_link/os/os_imp/liteos/arch/arm/common/cmsis\cmsis_gcc.h **** 
 413:E:/LiteOS/LiteOS_Lab/iot_link/os/os_imp/liteos/arch/arm/common/cmsis\cmsis_gcc.h **** /**
 414:E:/LiteOS/LiteOS_Lab/iot_link/os/os_imp/liteos/arch/arm/common/cmsis\cmsis_gcc.h ****   \brief   Set Base Priority
 415:E:/LiteOS/LiteOS_Lab/iot_link/os/os_imp/liteos/arch/arm/common/cmsis\cmsis_gcc.h ****   \details Assigns the given value to the Base Priority register.
 416:E:/LiteOS/LiteOS_Lab/iot_link/os/os_imp/liteos/arch/arm/common/cmsis\cmsis_gcc.h ****   \param [in]    basePri  Base Priority value to set
 417:E:/LiteOS/LiteOS_Lab/iot_link/os/os_imp/liteos/arch/arm/common/cmsis\cmsis_gcc.h ****  */
 418:E:/LiteOS/LiteOS_Lab/iot_link/os/os_imp/liteos/arch/arm/common/cmsis\cmsis_gcc.h **** __attribute__((always_inline)) __STATIC_INLINE void __set_BASEPRI(uint32_t basePri)
 419:E:/LiteOS/LiteOS_Lab/iot_link/os/os_imp/liteos/arch/arm/common/cmsis\cmsis_gcc.h **** {
 420:E:/LiteOS/LiteOS_Lab/iot_link/os/os_imp/liteos/arch/arm/common/cmsis\cmsis_gcc.h ****   __ASM volatile ("MSR basepri, %0" : : "r" (basePri) : "memory");
 421:E:/LiteOS/LiteOS_Lab/iot_link/os/os_imp/liteos/arch/arm/common/cmsis\cmsis_gcc.h **** }
 422:E:/LiteOS/LiteOS_Lab/iot_link/os/os_imp/liteos/arch/arm/common/cmsis\cmsis_gcc.h **** 
 423:E:/LiteOS/LiteOS_Lab/iot_link/os/os_imp/liteos/arch/arm/common/cmsis\cmsis_gcc.h **** 
 424:E:/LiteOS/LiteOS_Lab/iot_link/os/os_imp/liteos/arch/arm/common/cmsis\cmsis_gcc.h **** #if (defined (__ARM_FEATURE_CMSE ) && (__ARM_FEATURE_CMSE == 3))
 425:E:/LiteOS/LiteOS_Lab/iot_link/os/os_imp/liteos/arch/arm/common/cmsis\cmsis_gcc.h **** /**
 426:E:/LiteOS/LiteOS_Lab/iot_link/os/os_imp/liteos/arch/arm/common/cmsis\cmsis_gcc.h ****   \brief   Set Base Priority (non-secure)
 427:E:/LiteOS/LiteOS_Lab/iot_link/os/os_imp/liteos/arch/arm/common/cmsis\cmsis_gcc.h ****   \details Assigns the given value to the non-secure Base Priority register when in secure state.
 428:E:/LiteOS/LiteOS_Lab/iot_link/os/os_imp/liteos/arch/arm/common/cmsis\cmsis_gcc.h ****   \param [in]    basePri  Base Priority value to set
 429:E:/LiteOS/LiteOS_Lab/iot_link/os/os_imp/liteos/arch/arm/common/cmsis\cmsis_gcc.h ****  */
 430:E:/LiteOS/LiteOS_Lab/iot_link/os/os_imp/liteos/arch/arm/common/cmsis\cmsis_gcc.h **** __attribute__((always_inline)) __STATIC_INLINE void __TZ_set_BASEPRI_NS(uint32_t basePri)
 431:E:/LiteOS/LiteOS_Lab/iot_link/os/os_imp/liteos/arch/arm/common/cmsis\cmsis_gcc.h **** {
 432:E:/LiteOS/LiteOS_Lab/iot_link/os/os_imp/liteos/arch/arm/common/cmsis\cmsis_gcc.h ****   __ASM volatile ("MSR basepri_ns, %0" : : "r" (basePri) : "memory");
 433:E:/LiteOS/LiteOS_Lab/iot_link/os/os_imp/liteos/arch/arm/common/cmsis\cmsis_gcc.h **** }
 434:E:/LiteOS/LiteOS_Lab/iot_link/os/os_imp/liteos/arch/arm/common/cmsis\cmsis_gcc.h **** #endif
 435:E:/LiteOS/LiteOS_Lab/iot_link/os/os_imp/liteos/arch/arm/common/cmsis\cmsis_gcc.h **** 
 436:E:/LiteOS/LiteOS_Lab/iot_link/os/os_imp/liteos/arch/arm/common/cmsis\cmsis_gcc.h **** 
 437:E:/LiteOS/LiteOS_Lab/iot_link/os/os_imp/liteos/arch/arm/common/cmsis\cmsis_gcc.h **** /**
 438:E:/LiteOS/LiteOS_Lab/iot_link/os/os_imp/liteos/arch/arm/common/cmsis\cmsis_gcc.h ****   \brief   Set Base Priority with condition
 439:E:/LiteOS/LiteOS_Lab/iot_link/os/os_imp/liteos/arch/arm/common/cmsis\cmsis_gcc.h ****   \details Assigns the given value to the Base Priority register only if BASEPRI masking is disable
 440:E:/LiteOS/LiteOS_Lab/iot_link/os/os_imp/liteos/arch/arm/common/cmsis\cmsis_gcc.h ****            or the new value increases the BASEPRI priority level.
 441:E:/LiteOS/LiteOS_Lab/iot_link/os/os_imp/liteos/arch/arm/common/cmsis\cmsis_gcc.h ****   \param [in]    basePri  Base Priority value to set
 442:E:/LiteOS/LiteOS_Lab/iot_link/os/os_imp/liteos/arch/arm/common/cmsis\cmsis_gcc.h ****  */
 443:E:/LiteOS/LiteOS_Lab/iot_link/os/os_imp/liteos/arch/arm/common/cmsis\cmsis_gcc.h **** __attribute__((always_inline)) __STATIC_INLINE void __set_BASEPRI_MAX(uint32_t basePri)
 444:E:/LiteOS/LiteOS_Lab/iot_link/os/os_imp/liteos/arch/arm/common/cmsis\cmsis_gcc.h **** {
 445:E:/LiteOS/LiteOS_Lab/iot_link/os/os_imp/liteos/arch/arm/common/cmsis\cmsis_gcc.h ****   __ASM volatile ("MSR basepri_max, %0" : : "r" (basePri) : "memory");
 446:E:/LiteOS/LiteOS_Lab/iot_link/os/os_imp/liteos/arch/arm/common/cmsis\cmsis_gcc.h **** }
 447:E:/LiteOS/LiteOS_Lab/iot_link/os/os_imp/liteos/arch/arm/common/cmsis\cmsis_gcc.h **** 
 448:E:/LiteOS/LiteOS_Lab/iot_link/os/os_imp/liteos/arch/arm/common/cmsis\cmsis_gcc.h **** 
 449:E:/LiteOS/LiteOS_Lab/iot_link/os/os_imp/liteos/arch/arm/common/cmsis\cmsis_gcc.h **** /**
 450:E:/LiteOS/LiteOS_Lab/iot_link/os/os_imp/liteos/arch/arm/common/cmsis\cmsis_gcc.h ****   \brief   Get Fault Mask
 451:E:/LiteOS/LiteOS_Lab/iot_link/os/os_imp/liteos/arch/arm/common/cmsis\cmsis_gcc.h ****   \details Returns the current value of the Fault Mask register.
 452:E:/LiteOS/LiteOS_Lab/iot_link/os/os_imp/liteos/arch/arm/common/cmsis\cmsis_gcc.h ****   \return               Fault Mask register value
 453:E:/LiteOS/LiteOS_Lab/iot_link/os/os_imp/liteos/arch/arm/common/cmsis\cmsis_gcc.h ****  */
ARM GAS  C:\Users\user\AppData\Local\Temp\ccGlcwic.s 			page 25


 454:E:/LiteOS/LiteOS_Lab/iot_link/os/os_imp/liteos/arch/arm/common/cmsis\cmsis_gcc.h **** __attribute__((always_inline)) __STATIC_INLINE uint32_t __get_FAULTMASK(void)
 455:E:/LiteOS/LiteOS_Lab/iot_link/os/os_imp/liteos/arch/arm/common/cmsis\cmsis_gcc.h **** {
 456:E:/LiteOS/LiteOS_Lab/iot_link/os/os_imp/liteos/arch/arm/common/cmsis\cmsis_gcc.h ****   uint32_t result;
 457:E:/LiteOS/LiteOS_Lab/iot_link/os/os_imp/liteos/arch/arm/common/cmsis\cmsis_gcc.h **** 
 458:E:/LiteOS/LiteOS_Lab/iot_link/os/os_imp/liteos/arch/arm/common/cmsis\cmsis_gcc.h ****   __ASM volatile ("MRS %0, faultmask" : "=r" (result) );
 459:E:/LiteOS/LiteOS_Lab/iot_link/os/os_imp/liteos/arch/arm/common/cmsis\cmsis_gcc.h ****   return(result);
 460:E:/LiteOS/LiteOS_Lab/iot_link/os/os_imp/liteos/arch/arm/common/cmsis\cmsis_gcc.h **** }
 461:E:/LiteOS/LiteOS_Lab/iot_link/os/os_imp/liteos/arch/arm/common/cmsis\cmsis_gcc.h **** 
 462:E:/LiteOS/LiteOS_Lab/iot_link/os/os_imp/liteos/arch/arm/common/cmsis\cmsis_gcc.h **** 
 463:E:/LiteOS/LiteOS_Lab/iot_link/os/os_imp/liteos/arch/arm/common/cmsis\cmsis_gcc.h **** #if (defined (__ARM_FEATURE_CMSE ) && (__ARM_FEATURE_CMSE == 3))
 464:E:/LiteOS/LiteOS_Lab/iot_link/os/os_imp/liteos/arch/arm/common/cmsis\cmsis_gcc.h **** /**
 465:E:/LiteOS/LiteOS_Lab/iot_link/os/os_imp/liteos/arch/arm/common/cmsis\cmsis_gcc.h ****   \brief   Get Fault Mask (non-secure)
 466:E:/LiteOS/LiteOS_Lab/iot_link/os/os_imp/liteos/arch/arm/common/cmsis\cmsis_gcc.h ****   \details Returns the current value of the non-secure Fault Mask register when in secure state.
 467:E:/LiteOS/LiteOS_Lab/iot_link/os/os_imp/liteos/arch/arm/common/cmsis\cmsis_gcc.h ****   \return               Fault Mask register value
 468:E:/LiteOS/LiteOS_Lab/iot_link/os/os_imp/liteos/arch/arm/common/cmsis\cmsis_gcc.h ****  */
 469:E:/LiteOS/LiteOS_Lab/iot_link/os/os_imp/liteos/arch/arm/common/cmsis\cmsis_gcc.h **** __attribute__((always_inline)) __STATIC_INLINE uint32_t __TZ_get_FAULTMASK_NS(void)
 470:E:/LiteOS/LiteOS_Lab/iot_link/os/os_imp/liteos/arch/arm/common/cmsis\cmsis_gcc.h **** {
 471:E:/LiteOS/LiteOS_Lab/iot_link/os/os_imp/liteos/arch/arm/common/cmsis\cmsis_gcc.h ****   uint32_t result;
 472:E:/LiteOS/LiteOS_Lab/iot_link/os/os_imp/liteos/arch/arm/common/cmsis\cmsis_gcc.h **** 
 473:E:/LiteOS/LiteOS_Lab/iot_link/os/os_imp/liteos/arch/arm/common/cmsis\cmsis_gcc.h ****   __ASM volatile ("MRS %0, faultmask_ns" : "=r" (result) );
 474:E:/LiteOS/LiteOS_Lab/iot_link/os/os_imp/liteos/arch/arm/common/cmsis\cmsis_gcc.h ****   return(result);
 475:E:/LiteOS/LiteOS_Lab/iot_link/os/os_imp/liteos/arch/arm/common/cmsis\cmsis_gcc.h **** }
 476:E:/LiteOS/LiteOS_Lab/iot_link/os/os_imp/liteos/arch/arm/common/cmsis\cmsis_gcc.h **** #endif
 477:E:/LiteOS/LiteOS_Lab/iot_link/os/os_imp/liteos/arch/arm/common/cmsis\cmsis_gcc.h **** 
 478:E:/LiteOS/LiteOS_Lab/iot_link/os/os_imp/liteos/arch/arm/common/cmsis\cmsis_gcc.h **** 
 479:E:/LiteOS/LiteOS_Lab/iot_link/os/os_imp/liteos/arch/arm/common/cmsis\cmsis_gcc.h **** /**
 480:E:/LiteOS/LiteOS_Lab/iot_link/os/os_imp/liteos/arch/arm/common/cmsis\cmsis_gcc.h ****   \brief   Set Fault Mask
 481:E:/LiteOS/LiteOS_Lab/iot_link/os/os_imp/liteos/arch/arm/common/cmsis\cmsis_gcc.h ****   \details Assigns the given value to the Fault Mask register.
 482:E:/LiteOS/LiteOS_Lab/iot_link/os/os_imp/liteos/arch/arm/common/cmsis\cmsis_gcc.h ****   \param [in]    faultMask  Fault Mask value to set
 483:E:/LiteOS/LiteOS_Lab/iot_link/os/os_imp/liteos/arch/arm/common/cmsis\cmsis_gcc.h ****  */
 484:E:/LiteOS/LiteOS_Lab/iot_link/os/os_imp/liteos/arch/arm/common/cmsis\cmsis_gcc.h **** __attribute__((always_inline)) __STATIC_INLINE void __set_FAULTMASK(uint32_t faultMask)
 485:E:/LiteOS/LiteOS_Lab/iot_link/os/os_imp/liteos/arch/arm/common/cmsis\cmsis_gcc.h **** {
 486:E:/LiteOS/LiteOS_Lab/iot_link/os/os_imp/liteos/arch/arm/common/cmsis\cmsis_gcc.h ****   __ASM volatile ("MSR faultmask, %0" : : "r" (faultMask) : "memory");
 487:E:/LiteOS/LiteOS_Lab/iot_link/os/os_imp/liteos/arch/arm/common/cmsis\cmsis_gcc.h **** }
 488:E:/LiteOS/LiteOS_Lab/iot_link/os/os_imp/liteos/arch/arm/common/cmsis\cmsis_gcc.h **** 
 489:E:/LiteOS/LiteOS_Lab/iot_link/os/os_imp/liteos/arch/arm/common/cmsis\cmsis_gcc.h **** 
 490:E:/LiteOS/LiteOS_Lab/iot_link/os/os_imp/liteos/arch/arm/common/cmsis\cmsis_gcc.h **** #if (defined (__ARM_FEATURE_CMSE ) && (__ARM_FEATURE_CMSE == 3))
 491:E:/LiteOS/LiteOS_Lab/iot_link/os/os_imp/liteos/arch/arm/common/cmsis\cmsis_gcc.h **** /**
 492:E:/LiteOS/LiteOS_Lab/iot_link/os/os_imp/liteos/arch/arm/common/cmsis\cmsis_gcc.h ****   \brief   Set Fault Mask (non-secure)
 493:E:/LiteOS/LiteOS_Lab/iot_link/os/os_imp/liteos/arch/arm/common/cmsis\cmsis_gcc.h ****   \details Assigns the given value to the non-secure Fault Mask register when in secure state.
 494:E:/LiteOS/LiteOS_Lab/iot_link/os/os_imp/liteos/arch/arm/common/cmsis\cmsis_gcc.h ****   \param [in]    faultMask  Fault Mask value to set
 495:E:/LiteOS/LiteOS_Lab/iot_link/os/os_imp/liteos/arch/arm/common/cmsis\cmsis_gcc.h ****  */
 496:E:/LiteOS/LiteOS_Lab/iot_link/os/os_imp/liteos/arch/arm/common/cmsis\cmsis_gcc.h **** __attribute__((always_inline)) __STATIC_INLINE void __TZ_set_FAULTMASK_NS(uint32_t faultMask)
 497:E:/LiteOS/LiteOS_Lab/iot_link/os/os_imp/liteos/arch/arm/common/cmsis\cmsis_gcc.h **** {
 498:E:/LiteOS/LiteOS_Lab/iot_link/os/os_imp/liteos/arch/arm/common/cmsis\cmsis_gcc.h ****   __ASM volatile ("MSR faultmask_ns, %0" : : "r" (faultMask) : "memory");
 499:E:/LiteOS/LiteOS_Lab/iot_link/os/os_imp/liteos/arch/arm/common/cmsis\cmsis_gcc.h **** }
 500:E:/LiteOS/LiteOS_Lab/iot_link/os/os_imp/liteos/arch/arm/common/cmsis\cmsis_gcc.h **** #endif
 501:E:/LiteOS/LiteOS_Lab/iot_link/os/os_imp/liteos/arch/arm/common/cmsis\cmsis_gcc.h **** 
 502:E:/LiteOS/LiteOS_Lab/iot_link/os/os_imp/liteos/arch/arm/common/cmsis\cmsis_gcc.h **** #endif /* ((defined (__ARM_ARCH_7M__      ) && (__ARM_ARCH_7M__      == 1)) || \
 503:E:/LiteOS/LiteOS_Lab/iot_link/os/os_imp/liteos/arch/arm/common/cmsis\cmsis_gcc.h ****            (defined (__ARM_ARCH_7EM__     ) && (__ARM_ARCH_7EM__     == 1)) || \
 504:E:/LiteOS/LiteOS_Lab/iot_link/os/os_imp/liteos/arch/arm/common/cmsis\cmsis_gcc.h ****            (defined (__ARM_ARCH_8M_MAIN__ ) && (__ARM_ARCH_8M_MAIN__ == 1))    ) */
 505:E:/LiteOS/LiteOS_Lab/iot_link/os/os_imp/liteos/arch/arm/common/cmsis\cmsis_gcc.h **** 
 506:E:/LiteOS/LiteOS_Lab/iot_link/os/os_imp/liteos/arch/arm/common/cmsis\cmsis_gcc.h **** 
 507:E:/LiteOS/LiteOS_Lab/iot_link/os/os_imp/liteos/arch/arm/common/cmsis\cmsis_gcc.h **** #if ((defined (__ARM_ARCH_8M_MAIN__ ) && (__ARM_ARCH_8M_MAIN__ == 1)) || \
 508:E:/LiteOS/LiteOS_Lab/iot_link/os/os_imp/liteos/arch/arm/common/cmsis\cmsis_gcc.h ****      (defined (__ARM_ARCH_8M_BASE__ ) && (__ARM_ARCH_8M_BASE__ == 1))    )
 509:E:/LiteOS/LiteOS_Lab/iot_link/os/os_imp/liteos/arch/arm/common/cmsis\cmsis_gcc.h **** 
 510:E:/LiteOS/LiteOS_Lab/iot_link/os/os_imp/liteos/arch/arm/common/cmsis\cmsis_gcc.h **** /**
ARM GAS  C:\Users\user\AppData\Local\Temp\ccGlcwic.s 			page 26


 511:E:/LiteOS/LiteOS_Lab/iot_link/os/os_imp/liteos/arch/arm/common/cmsis\cmsis_gcc.h ****   \brief   Get Process Stack Pointer Limit
 512:E:/LiteOS/LiteOS_Lab/iot_link/os/os_imp/liteos/arch/arm/common/cmsis\cmsis_gcc.h ****   \details Returns the current value of the Process Stack Pointer Limit (PSPLIM).
 513:E:/LiteOS/LiteOS_Lab/iot_link/os/os_imp/liteos/arch/arm/common/cmsis\cmsis_gcc.h ****   \return               PSPLIM Register value
 514:E:/LiteOS/LiteOS_Lab/iot_link/os/os_imp/liteos/arch/arm/common/cmsis\cmsis_gcc.h ****  */
 515:E:/LiteOS/LiteOS_Lab/iot_link/os/os_imp/liteos/arch/arm/common/cmsis\cmsis_gcc.h **** __attribute__((always_inline)) __STATIC_INLINE uint32_t __get_PSPLIM(void)
 516:E:/LiteOS/LiteOS_Lab/iot_link/os/os_imp/liteos/arch/arm/common/cmsis\cmsis_gcc.h **** {
 517:E:/LiteOS/LiteOS_Lab/iot_link/os/os_imp/liteos/arch/arm/common/cmsis\cmsis_gcc.h ****   register uint32_t result;
 518:E:/LiteOS/LiteOS_Lab/iot_link/os/os_imp/liteos/arch/arm/common/cmsis\cmsis_gcc.h **** 
 519:E:/LiteOS/LiteOS_Lab/iot_link/os/os_imp/liteos/arch/arm/common/cmsis\cmsis_gcc.h ****   __ASM volatile ("MRS %0, psplim"  : "=r" (result) );
 520:E:/LiteOS/LiteOS_Lab/iot_link/os/os_imp/liteos/arch/arm/common/cmsis\cmsis_gcc.h ****   return(result);
 521:E:/LiteOS/LiteOS_Lab/iot_link/os/os_imp/liteos/arch/arm/common/cmsis\cmsis_gcc.h **** }
 522:E:/LiteOS/LiteOS_Lab/iot_link/os/os_imp/liteos/arch/arm/common/cmsis\cmsis_gcc.h **** 
 523:E:/LiteOS/LiteOS_Lab/iot_link/os/os_imp/liteos/arch/arm/common/cmsis\cmsis_gcc.h **** 
 524:E:/LiteOS/LiteOS_Lab/iot_link/os/os_imp/liteos/arch/arm/common/cmsis\cmsis_gcc.h **** #if ((defined (__ARM_FEATURE_CMSE  ) && (__ARM_FEATURE_CMSE   == 3)) && \
 525:E:/LiteOS/LiteOS_Lab/iot_link/os/os_imp/liteos/arch/arm/common/cmsis\cmsis_gcc.h ****      (defined (__ARM_ARCH_8M_MAIN__) && (__ARM_ARCH_8M_MAIN__ == 1))    )
 526:E:/LiteOS/LiteOS_Lab/iot_link/os/os_imp/liteos/arch/arm/common/cmsis\cmsis_gcc.h **** /**
 527:E:/LiteOS/LiteOS_Lab/iot_link/os/os_imp/liteos/arch/arm/common/cmsis\cmsis_gcc.h ****   \brief   Get Process Stack Pointer Limit (non-secure)
 528:E:/LiteOS/LiteOS_Lab/iot_link/os/os_imp/liteos/arch/arm/common/cmsis\cmsis_gcc.h ****   \details Returns the current value of the non-secure Process Stack Pointer Limit (PSPLIM) when in
 529:E:/LiteOS/LiteOS_Lab/iot_link/os/os_imp/liteos/arch/arm/common/cmsis\cmsis_gcc.h ****   \return               PSPLIM Register value
 530:E:/LiteOS/LiteOS_Lab/iot_link/os/os_imp/liteos/arch/arm/common/cmsis\cmsis_gcc.h ****  */
 531:E:/LiteOS/LiteOS_Lab/iot_link/os/os_imp/liteos/arch/arm/common/cmsis\cmsis_gcc.h **** __attribute__((always_inline)) __STATIC_INLINE uint32_t __TZ_get_PSPLIM_NS(void)
 532:E:/LiteOS/LiteOS_Lab/iot_link/os/os_imp/liteos/arch/arm/common/cmsis\cmsis_gcc.h **** {
 533:E:/LiteOS/LiteOS_Lab/iot_link/os/os_imp/liteos/arch/arm/common/cmsis\cmsis_gcc.h ****   register uint32_t result;
 534:E:/LiteOS/LiteOS_Lab/iot_link/os/os_imp/liteos/arch/arm/common/cmsis\cmsis_gcc.h **** 
 535:E:/LiteOS/LiteOS_Lab/iot_link/os/os_imp/liteos/arch/arm/common/cmsis\cmsis_gcc.h ****   __ASM volatile ("MRS %0, psplim_ns"  : "=r" (result) );
 536:E:/LiteOS/LiteOS_Lab/iot_link/os/os_imp/liteos/arch/arm/common/cmsis\cmsis_gcc.h ****   return(result);
 537:E:/LiteOS/LiteOS_Lab/iot_link/os/os_imp/liteos/arch/arm/common/cmsis\cmsis_gcc.h **** }
 538:E:/LiteOS/LiteOS_Lab/iot_link/os/os_imp/liteos/arch/arm/common/cmsis\cmsis_gcc.h **** #endif
 539:E:/LiteOS/LiteOS_Lab/iot_link/os/os_imp/liteos/arch/arm/common/cmsis\cmsis_gcc.h **** 
 540:E:/LiteOS/LiteOS_Lab/iot_link/os/os_imp/liteos/arch/arm/common/cmsis\cmsis_gcc.h **** 
 541:E:/LiteOS/LiteOS_Lab/iot_link/os/os_imp/liteos/arch/arm/common/cmsis\cmsis_gcc.h **** /**
 542:E:/LiteOS/LiteOS_Lab/iot_link/os/os_imp/liteos/arch/arm/common/cmsis\cmsis_gcc.h ****   \brief   Set Process Stack Pointer Limit
 543:E:/LiteOS/LiteOS_Lab/iot_link/os/os_imp/liteos/arch/arm/common/cmsis\cmsis_gcc.h ****   \details Assigns the given value to the Process Stack Pointer Limit (PSPLIM).
 544:E:/LiteOS/LiteOS_Lab/iot_link/os/os_imp/liteos/arch/arm/common/cmsis\cmsis_gcc.h ****   \param [in]    ProcStackPtrLimit  Process Stack Pointer Limit value to set
 545:E:/LiteOS/LiteOS_Lab/iot_link/os/os_imp/liteos/arch/arm/common/cmsis\cmsis_gcc.h ****  */
 546:E:/LiteOS/LiteOS_Lab/iot_link/os/os_imp/liteos/arch/arm/common/cmsis\cmsis_gcc.h **** __attribute__((always_inline)) __STATIC_INLINE void __set_PSPLIM(uint32_t ProcStackPtrLimit)
 547:E:/LiteOS/LiteOS_Lab/iot_link/os/os_imp/liteos/arch/arm/common/cmsis\cmsis_gcc.h **** {
 548:E:/LiteOS/LiteOS_Lab/iot_link/os/os_imp/liteos/arch/arm/common/cmsis\cmsis_gcc.h ****   __ASM volatile ("MSR psplim, %0" : : "r" (ProcStackPtrLimit));
 549:E:/LiteOS/LiteOS_Lab/iot_link/os/os_imp/liteos/arch/arm/common/cmsis\cmsis_gcc.h **** }
 550:E:/LiteOS/LiteOS_Lab/iot_link/os/os_imp/liteos/arch/arm/common/cmsis\cmsis_gcc.h **** 
 551:E:/LiteOS/LiteOS_Lab/iot_link/os/os_imp/liteos/arch/arm/common/cmsis\cmsis_gcc.h **** 
 552:E:/LiteOS/LiteOS_Lab/iot_link/os/os_imp/liteos/arch/arm/common/cmsis\cmsis_gcc.h **** #if ((defined (__ARM_FEATURE_CMSE  ) && (__ARM_FEATURE_CMSE   == 3)) && \
 553:E:/LiteOS/LiteOS_Lab/iot_link/os/os_imp/liteos/arch/arm/common/cmsis\cmsis_gcc.h ****      (defined (__ARM_ARCH_8M_MAIN__) && (__ARM_ARCH_8M_MAIN__ == 1))    )
 554:E:/LiteOS/LiteOS_Lab/iot_link/os/os_imp/liteos/arch/arm/common/cmsis\cmsis_gcc.h **** /**
 555:E:/LiteOS/LiteOS_Lab/iot_link/os/os_imp/liteos/arch/arm/common/cmsis\cmsis_gcc.h ****   \brief   Set Process Stack Pointer (non-secure)
 556:E:/LiteOS/LiteOS_Lab/iot_link/os/os_imp/liteos/arch/arm/common/cmsis\cmsis_gcc.h ****   \details Assigns the given value to the non-secure Process Stack Pointer Limit (PSPLIM) when in s
 557:E:/LiteOS/LiteOS_Lab/iot_link/os/os_imp/liteos/arch/arm/common/cmsis\cmsis_gcc.h ****   \param [in]    ProcStackPtrLimit  Process Stack Pointer Limit value to set
 558:E:/LiteOS/LiteOS_Lab/iot_link/os/os_imp/liteos/arch/arm/common/cmsis\cmsis_gcc.h ****  */
 559:E:/LiteOS/LiteOS_Lab/iot_link/os/os_imp/liteos/arch/arm/common/cmsis\cmsis_gcc.h **** __attribute__((always_inline)) __STATIC_INLINE void __TZ_set_PSPLIM_NS(uint32_t ProcStackPtrLimit)
 560:E:/LiteOS/LiteOS_Lab/iot_link/os/os_imp/liteos/arch/arm/common/cmsis\cmsis_gcc.h **** {
 561:E:/LiteOS/LiteOS_Lab/iot_link/os/os_imp/liteos/arch/arm/common/cmsis\cmsis_gcc.h ****   __ASM volatile ("MSR psplim_ns, %0\n" : : "r" (ProcStackPtrLimit));
 562:E:/LiteOS/LiteOS_Lab/iot_link/os/os_imp/liteos/arch/arm/common/cmsis\cmsis_gcc.h **** }
 563:E:/LiteOS/LiteOS_Lab/iot_link/os/os_imp/liteos/arch/arm/common/cmsis\cmsis_gcc.h **** #endif
 564:E:/LiteOS/LiteOS_Lab/iot_link/os/os_imp/liteos/arch/arm/common/cmsis\cmsis_gcc.h **** 
 565:E:/LiteOS/LiteOS_Lab/iot_link/os/os_imp/liteos/arch/arm/common/cmsis\cmsis_gcc.h **** 
 566:E:/LiteOS/LiteOS_Lab/iot_link/os/os_imp/liteos/arch/arm/common/cmsis\cmsis_gcc.h **** /**
 567:E:/LiteOS/LiteOS_Lab/iot_link/os/os_imp/liteos/arch/arm/common/cmsis\cmsis_gcc.h ****   \brief   Get Main Stack Pointer Limit
ARM GAS  C:\Users\user\AppData\Local\Temp\ccGlcwic.s 			page 27


 568:E:/LiteOS/LiteOS_Lab/iot_link/os/os_imp/liteos/arch/arm/common/cmsis\cmsis_gcc.h ****   \details Returns the current value of the Main Stack Pointer Limit (MSPLIM).
 569:E:/LiteOS/LiteOS_Lab/iot_link/os/os_imp/liteos/arch/arm/common/cmsis\cmsis_gcc.h ****   \return               MSPLIM Register value
 570:E:/LiteOS/LiteOS_Lab/iot_link/os/os_imp/liteos/arch/arm/common/cmsis\cmsis_gcc.h ****  */
 571:E:/LiteOS/LiteOS_Lab/iot_link/os/os_imp/liteos/arch/arm/common/cmsis\cmsis_gcc.h **** __attribute__((always_inline)) __STATIC_INLINE uint32_t __get_MSPLIM(void)
 572:E:/LiteOS/LiteOS_Lab/iot_link/os/os_imp/liteos/arch/arm/common/cmsis\cmsis_gcc.h **** {
 573:E:/LiteOS/LiteOS_Lab/iot_link/os/os_imp/liteos/arch/arm/common/cmsis\cmsis_gcc.h ****   register uint32_t result;
 574:E:/LiteOS/LiteOS_Lab/iot_link/os/os_imp/liteos/arch/arm/common/cmsis\cmsis_gcc.h **** 
 575:E:/LiteOS/LiteOS_Lab/iot_link/os/os_imp/liteos/arch/arm/common/cmsis\cmsis_gcc.h ****   __ASM volatile ("MRS %0, msplim" : "=r" (result) );
 576:E:/LiteOS/LiteOS_Lab/iot_link/os/os_imp/liteos/arch/arm/common/cmsis\cmsis_gcc.h **** 
 577:E:/LiteOS/LiteOS_Lab/iot_link/os/os_imp/liteos/arch/arm/common/cmsis\cmsis_gcc.h ****   return(result);
 578:E:/LiteOS/LiteOS_Lab/iot_link/os/os_imp/liteos/arch/arm/common/cmsis\cmsis_gcc.h **** }
 579:E:/LiteOS/LiteOS_Lab/iot_link/os/os_imp/liteos/arch/arm/common/cmsis\cmsis_gcc.h **** 
 580:E:/LiteOS/LiteOS_Lab/iot_link/os/os_imp/liteos/arch/arm/common/cmsis\cmsis_gcc.h **** 
 581:E:/LiteOS/LiteOS_Lab/iot_link/os/os_imp/liteos/arch/arm/common/cmsis\cmsis_gcc.h **** #if ((defined (__ARM_FEATURE_CMSE  ) && (__ARM_FEATURE_CMSE   == 3)) && \
 582:E:/LiteOS/LiteOS_Lab/iot_link/os/os_imp/liteos/arch/arm/common/cmsis\cmsis_gcc.h ****      (defined (__ARM_ARCH_8M_MAIN__) && (__ARM_ARCH_8M_MAIN__ == 1))    )
 583:E:/LiteOS/LiteOS_Lab/iot_link/os/os_imp/liteos/arch/arm/common/cmsis\cmsis_gcc.h **** /**
 584:E:/LiteOS/LiteOS_Lab/iot_link/os/os_imp/liteos/arch/arm/common/cmsis\cmsis_gcc.h ****   \brief   Get Main Stack Pointer Limit (non-secure)
 585:E:/LiteOS/LiteOS_Lab/iot_link/os/os_imp/liteos/arch/arm/common/cmsis\cmsis_gcc.h ****   \details Returns the current value of the non-secure Main Stack Pointer Limit(MSPLIM) when in sec
 586:E:/LiteOS/LiteOS_Lab/iot_link/os/os_imp/liteos/arch/arm/common/cmsis\cmsis_gcc.h ****   \return               MSPLIM Register value
 587:E:/LiteOS/LiteOS_Lab/iot_link/os/os_imp/liteos/arch/arm/common/cmsis\cmsis_gcc.h ****  */
 588:E:/LiteOS/LiteOS_Lab/iot_link/os/os_imp/liteos/arch/arm/common/cmsis\cmsis_gcc.h **** __attribute__((always_inline)) __STATIC_INLINE uint32_t __TZ_get_MSPLIM_NS(void)
 589:E:/LiteOS/LiteOS_Lab/iot_link/os/os_imp/liteos/arch/arm/common/cmsis\cmsis_gcc.h **** {
 590:E:/LiteOS/LiteOS_Lab/iot_link/os/os_imp/liteos/arch/arm/common/cmsis\cmsis_gcc.h ****   register uint32_t result;
 591:E:/LiteOS/LiteOS_Lab/iot_link/os/os_imp/liteos/arch/arm/common/cmsis\cmsis_gcc.h **** 
 592:E:/LiteOS/LiteOS_Lab/iot_link/os/os_imp/liteos/arch/arm/common/cmsis\cmsis_gcc.h ****   __ASM volatile ("MRS %0, msplim_ns" : "=r" (result) );
 593:E:/LiteOS/LiteOS_Lab/iot_link/os/os_imp/liteos/arch/arm/common/cmsis\cmsis_gcc.h ****   return(result);
 594:E:/LiteOS/LiteOS_Lab/iot_link/os/os_imp/liteos/arch/arm/common/cmsis\cmsis_gcc.h **** }
 595:E:/LiteOS/LiteOS_Lab/iot_link/os/os_imp/liteos/arch/arm/common/cmsis\cmsis_gcc.h **** #endif
 596:E:/LiteOS/LiteOS_Lab/iot_link/os/os_imp/liteos/arch/arm/common/cmsis\cmsis_gcc.h **** 
 597:E:/LiteOS/LiteOS_Lab/iot_link/os/os_imp/liteos/arch/arm/common/cmsis\cmsis_gcc.h **** 
 598:E:/LiteOS/LiteOS_Lab/iot_link/os/os_imp/liteos/arch/arm/common/cmsis\cmsis_gcc.h **** /**
 599:E:/LiteOS/LiteOS_Lab/iot_link/os/os_imp/liteos/arch/arm/common/cmsis\cmsis_gcc.h ****   \brief   Set Main Stack Pointer Limit
 600:E:/LiteOS/LiteOS_Lab/iot_link/os/os_imp/liteos/arch/arm/common/cmsis\cmsis_gcc.h ****   \details Assigns the given value to the Main Stack Pointer Limit (MSPLIM).
 601:E:/LiteOS/LiteOS_Lab/iot_link/os/os_imp/liteos/arch/arm/common/cmsis\cmsis_gcc.h ****   \param [in]    MainStackPtrLimit  Main Stack Pointer Limit value to set
 602:E:/LiteOS/LiteOS_Lab/iot_link/os/os_imp/liteos/arch/arm/common/cmsis\cmsis_gcc.h ****  */
 603:E:/LiteOS/LiteOS_Lab/iot_link/os/os_imp/liteos/arch/arm/common/cmsis\cmsis_gcc.h **** __attribute__((always_inline)) __STATIC_INLINE void __set_MSPLIM(uint32_t MainStackPtrLimit)
 604:E:/LiteOS/LiteOS_Lab/iot_link/os/os_imp/liteos/arch/arm/common/cmsis\cmsis_gcc.h **** {
 605:E:/LiteOS/LiteOS_Lab/iot_link/os/os_imp/liteos/arch/arm/common/cmsis\cmsis_gcc.h ****   __ASM volatile ("MSR msplim, %0" : : "r" (MainStackPtrLimit));
 606:E:/LiteOS/LiteOS_Lab/iot_link/os/os_imp/liteos/arch/arm/common/cmsis\cmsis_gcc.h **** }
 607:E:/LiteOS/LiteOS_Lab/iot_link/os/os_imp/liteos/arch/arm/common/cmsis\cmsis_gcc.h **** 
 608:E:/LiteOS/LiteOS_Lab/iot_link/os/os_imp/liteos/arch/arm/common/cmsis\cmsis_gcc.h **** 
 609:E:/LiteOS/LiteOS_Lab/iot_link/os/os_imp/liteos/arch/arm/common/cmsis\cmsis_gcc.h **** #if ((defined (__ARM_FEATURE_CMSE  ) && (__ARM_FEATURE_CMSE   == 3)) && \
 610:E:/LiteOS/LiteOS_Lab/iot_link/os/os_imp/liteos/arch/arm/common/cmsis\cmsis_gcc.h ****      (defined (__ARM_ARCH_8M_MAIN__) && (__ARM_ARCH_8M_MAIN__ == 1))    )
 611:E:/LiteOS/LiteOS_Lab/iot_link/os/os_imp/liteos/arch/arm/common/cmsis\cmsis_gcc.h **** /**
 612:E:/LiteOS/LiteOS_Lab/iot_link/os/os_imp/liteos/arch/arm/common/cmsis\cmsis_gcc.h ****   \brief   Set Main Stack Pointer Limit (non-secure)
 613:E:/LiteOS/LiteOS_Lab/iot_link/os/os_imp/liteos/arch/arm/common/cmsis\cmsis_gcc.h ****   \details Assigns the given value to the non-secure Main Stack Pointer Limit (MSPLIM) when in secu
 614:E:/LiteOS/LiteOS_Lab/iot_link/os/os_imp/liteos/arch/arm/common/cmsis\cmsis_gcc.h ****   \param [in]    MainStackPtrLimit  Main Stack Pointer value to set
 615:E:/LiteOS/LiteOS_Lab/iot_link/os/os_imp/liteos/arch/arm/common/cmsis\cmsis_gcc.h ****  */
 616:E:/LiteOS/LiteOS_Lab/iot_link/os/os_imp/liteos/arch/arm/common/cmsis\cmsis_gcc.h **** __attribute__((always_inline)) __STATIC_INLINE void __TZ_set_MSPLIM_NS(uint32_t MainStackPtrLimit)
 617:E:/LiteOS/LiteOS_Lab/iot_link/os/os_imp/liteos/arch/arm/common/cmsis\cmsis_gcc.h **** {
 618:E:/LiteOS/LiteOS_Lab/iot_link/os/os_imp/liteos/arch/arm/common/cmsis\cmsis_gcc.h ****   __ASM volatile ("MSR msplim_ns, %0" : : "r" (MainStackPtrLimit));
 619:E:/LiteOS/LiteOS_Lab/iot_link/os/os_imp/liteos/arch/arm/common/cmsis\cmsis_gcc.h **** }
 620:E:/LiteOS/LiteOS_Lab/iot_link/os/os_imp/liteos/arch/arm/common/cmsis\cmsis_gcc.h **** #endif
 621:E:/LiteOS/LiteOS_Lab/iot_link/os/os_imp/liteos/arch/arm/common/cmsis\cmsis_gcc.h **** 
 622:E:/LiteOS/LiteOS_Lab/iot_link/os/os_imp/liteos/arch/arm/common/cmsis\cmsis_gcc.h **** #endif /* ((defined (__ARM_ARCH_8M_MAIN__ ) && (__ARM_ARCH_8M_MAIN__ == 1)) || \
 623:E:/LiteOS/LiteOS_Lab/iot_link/os/os_imp/liteos/arch/arm/common/cmsis\cmsis_gcc.h ****            (defined (__ARM_ARCH_8M_BASE__ ) && (__ARM_ARCH_8M_BASE__ == 1))    ) */
 624:E:/LiteOS/LiteOS_Lab/iot_link/os/os_imp/liteos/arch/arm/common/cmsis\cmsis_gcc.h **** 
ARM GAS  C:\Users\user\AppData\Local\Temp\ccGlcwic.s 			page 28


 625:E:/LiteOS/LiteOS_Lab/iot_link/os/os_imp/liteos/arch/arm/common/cmsis\cmsis_gcc.h **** 
 626:E:/LiteOS/LiteOS_Lab/iot_link/os/os_imp/liteos/arch/arm/common/cmsis\cmsis_gcc.h **** #if ((defined (__ARM_ARCH_7EM__     ) && (__ARM_ARCH_7EM__     == 1)) || \
 627:E:/LiteOS/LiteOS_Lab/iot_link/os/os_imp/liteos/arch/arm/common/cmsis\cmsis_gcc.h ****      (defined (__ARM_ARCH_8M_MAIN__ ) && (__ARM_ARCH_8M_MAIN__ == 1))    )
 628:E:/LiteOS/LiteOS_Lab/iot_link/os/os_imp/liteos/arch/arm/common/cmsis\cmsis_gcc.h **** 
 629:E:/LiteOS/LiteOS_Lab/iot_link/os/os_imp/liteos/arch/arm/common/cmsis\cmsis_gcc.h **** /**
 630:E:/LiteOS/LiteOS_Lab/iot_link/os/os_imp/liteos/arch/arm/common/cmsis\cmsis_gcc.h ****   \brief   Get FPSCR
 631:E:/LiteOS/LiteOS_Lab/iot_link/os/os_imp/liteos/arch/arm/common/cmsis\cmsis_gcc.h ****   \details Returns the current value of the Floating Point Status/Control register.
 632:E:/LiteOS/LiteOS_Lab/iot_link/os/os_imp/liteos/arch/arm/common/cmsis\cmsis_gcc.h ****   \return               Floating Point Status/Control register value
 633:E:/LiteOS/LiteOS_Lab/iot_link/os/os_imp/liteos/arch/arm/common/cmsis\cmsis_gcc.h ****  */
 634:E:/LiteOS/LiteOS_Lab/iot_link/os/os_imp/liteos/arch/arm/common/cmsis\cmsis_gcc.h **** __attribute__((always_inline)) __STATIC_INLINE uint32_t __get_FPSCR(void)
 635:E:/LiteOS/LiteOS_Lab/iot_link/os/os_imp/liteos/arch/arm/common/cmsis\cmsis_gcc.h **** {
 636:E:/LiteOS/LiteOS_Lab/iot_link/os/os_imp/liteos/arch/arm/common/cmsis\cmsis_gcc.h **** #if ((defined (__FPU_PRESENT) && (__FPU_PRESENT == 1U)) && \
 637:E:/LiteOS/LiteOS_Lab/iot_link/os/os_imp/liteos/arch/arm/common/cmsis\cmsis_gcc.h ****      (defined (__FPU_USED   ) && (__FPU_USED    == 1U))     )
 638:E:/LiteOS/LiteOS_Lab/iot_link/os/os_imp/liteos/arch/arm/common/cmsis\cmsis_gcc.h ****   uint32_t result;
 639:E:/LiteOS/LiteOS_Lab/iot_link/os/os_imp/liteos/arch/arm/common/cmsis\cmsis_gcc.h **** 
 640:E:/LiteOS/LiteOS_Lab/iot_link/os/os_imp/liteos/arch/arm/common/cmsis\cmsis_gcc.h ****   __ASM volatile ("VMRS %0, fpscr" : "=r" (result) );
 641:E:/LiteOS/LiteOS_Lab/iot_link/os/os_imp/liteos/arch/arm/common/cmsis\cmsis_gcc.h ****   return(result);
 642:E:/LiteOS/LiteOS_Lab/iot_link/os/os_imp/liteos/arch/arm/common/cmsis\cmsis_gcc.h **** #else
 643:E:/LiteOS/LiteOS_Lab/iot_link/os/os_imp/liteos/arch/arm/common/cmsis\cmsis_gcc.h ****    return(0U);
 644:E:/LiteOS/LiteOS_Lab/iot_link/os/os_imp/liteos/arch/arm/common/cmsis\cmsis_gcc.h **** #endif
 645:E:/LiteOS/LiteOS_Lab/iot_link/os/os_imp/liteos/arch/arm/common/cmsis\cmsis_gcc.h **** }
 646:E:/LiteOS/LiteOS_Lab/iot_link/os/os_imp/liteos/arch/arm/common/cmsis\cmsis_gcc.h **** 
 647:E:/LiteOS/LiteOS_Lab/iot_link/os/os_imp/liteos/arch/arm/common/cmsis\cmsis_gcc.h **** 
 648:E:/LiteOS/LiteOS_Lab/iot_link/os/os_imp/liteos/arch/arm/common/cmsis\cmsis_gcc.h **** /**
 649:E:/LiteOS/LiteOS_Lab/iot_link/os/os_imp/liteos/arch/arm/common/cmsis\cmsis_gcc.h ****   \brief   Set FPSCR
 650:E:/LiteOS/LiteOS_Lab/iot_link/os/os_imp/liteos/arch/arm/common/cmsis\cmsis_gcc.h ****   \details Assigns the given value to the Floating Point Status/Control register.
 651:E:/LiteOS/LiteOS_Lab/iot_link/os/os_imp/liteos/arch/arm/common/cmsis\cmsis_gcc.h ****   \param [in]    fpscr  Floating Point Status/Control value to set
 652:E:/LiteOS/LiteOS_Lab/iot_link/os/os_imp/liteos/arch/arm/common/cmsis\cmsis_gcc.h ****  */
 653:E:/LiteOS/LiteOS_Lab/iot_link/os/os_imp/liteos/arch/arm/common/cmsis\cmsis_gcc.h **** __attribute__((always_inline)) __STATIC_INLINE void __set_FPSCR(uint32_t fpscr)
 654:E:/LiteOS/LiteOS_Lab/iot_link/os/os_imp/liteos/arch/arm/common/cmsis\cmsis_gcc.h **** {
 655:E:/LiteOS/LiteOS_Lab/iot_link/os/os_imp/liteos/arch/arm/common/cmsis\cmsis_gcc.h **** #if ((defined (__FPU_PRESENT) && (__FPU_PRESENT == 1U)) && \
 656:E:/LiteOS/LiteOS_Lab/iot_link/os/os_imp/liteos/arch/arm/common/cmsis\cmsis_gcc.h ****      (defined (__FPU_USED   ) && (__FPU_USED    == 1U))     )
 657:E:/LiteOS/LiteOS_Lab/iot_link/os/os_imp/liteos/arch/arm/common/cmsis\cmsis_gcc.h ****   __ASM volatile ("VMSR fpscr, %0" : : "r" (fpscr) : "vfpcc", "memory");
 658:E:/LiteOS/LiteOS_Lab/iot_link/os/os_imp/liteos/arch/arm/common/cmsis\cmsis_gcc.h **** #else
 659:E:/LiteOS/LiteOS_Lab/iot_link/os/os_imp/liteos/arch/arm/common/cmsis\cmsis_gcc.h ****   (void)fpscr;
 660:E:/LiteOS/LiteOS_Lab/iot_link/os/os_imp/liteos/arch/arm/common/cmsis\cmsis_gcc.h **** #endif
 661:E:/LiteOS/LiteOS_Lab/iot_link/os/os_imp/liteos/arch/arm/common/cmsis\cmsis_gcc.h **** }
 662:E:/LiteOS/LiteOS_Lab/iot_link/os/os_imp/liteos/arch/arm/common/cmsis\cmsis_gcc.h **** 
 663:E:/LiteOS/LiteOS_Lab/iot_link/os/os_imp/liteos/arch/arm/common/cmsis\cmsis_gcc.h **** #endif /* ((defined (__ARM_ARCH_7EM__     ) && (__ARM_ARCH_7EM__     == 1)) || \
 664:E:/LiteOS/LiteOS_Lab/iot_link/os/os_imp/liteos/arch/arm/common/cmsis\cmsis_gcc.h ****            (defined (__ARM_ARCH_8M_MAIN__ ) && (__ARM_ARCH_8M_MAIN__ == 1))    ) */
 665:E:/LiteOS/LiteOS_Lab/iot_link/os/os_imp/liteos/arch/arm/common/cmsis\cmsis_gcc.h **** 
 666:E:/LiteOS/LiteOS_Lab/iot_link/os/os_imp/liteos/arch/arm/common/cmsis\cmsis_gcc.h **** 
 667:E:/LiteOS/LiteOS_Lab/iot_link/os/os_imp/liteos/arch/arm/common/cmsis\cmsis_gcc.h **** 
 668:E:/LiteOS/LiteOS_Lab/iot_link/os/os_imp/liteos/arch/arm/common/cmsis\cmsis_gcc.h **** /*@} end of CMSIS_Core_RegAccFunctions */
 669:E:/LiteOS/LiteOS_Lab/iot_link/os/os_imp/liteos/arch/arm/common/cmsis\cmsis_gcc.h **** 
 670:E:/LiteOS/LiteOS_Lab/iot_link/os/os_imp/liteos/arch/arm/common/cmsis\cmsis_gcc.h **** 
 671:E:/LiteOS/LiteOS_Lab/iot_link/os/os_imp/liteos/arch/arm/common/cmsis\cmsis_gcc.h **** /* ##########################  Core Instruction Access  ######################### */
 672:E:/LiteOS/LiteOS_Lab/iot_link/os/os_imp/liteos/arch/arm/common/cmsis\cmsis_gcc.h **** /** \defgroup CMSIS_Core_InstructionInterface CMSIS Core Instruction Interface
 673:E:/LiteOS/LiteOS_Lab/iot_link/os/os_imp/liteos/arch/arm/common/cmsis\cmsis_gcc.h ****   Access to dedicated instructions
 674:E:/LiteOS/LiteOS_Lab/iot_link/os/os_imp/liteos/arch/arm/common/cmsis\cmsis_gcc.h ****   @{
 675:E:/LiteOS/LiteOS_Lab/iot_link/os/os_imp/liteos/arch/arm/common/cmsis\cmsis_gcc.h **** */
 676:E:/LiteOS/LiteOS_Lab/iot_link/os/os_imp/liteos/arch/arm/common/cmsis\cmsis_gcc.h **** 
 677:E:/LiteOS/LiteOS_Lab/iot_link/os/os_imp/liteos/arch/arm/common/cmsis\cmsis_gcc.h **** /* Define macros for porting to both thumb1 and thumb2.
 678:E:/LiteOS/LiteOS_Lab/iot_link/os/os_imp/liteos/arch/arm/common/cmsis\cmsis_gcc.h ****  * For thumb1, use low register (r0-r7), specified by constraint "l"
 679:E:/LiteOS/LiteOS_Lab/iot_link/os/os_imp/liteos/arch/arm/common/cmsis\cmsis_gcc.h ****  * Otherwise, use general registers, specified by constraint "r" */
 680:E:/LiteOS/LiteOS_Lab/iot_link/os/os_imp/liteos/arch/arm/common/cmsis\cmsis_gcc.h **** #if defined (__thumb__) && !defined (__thumb2__)
 681:E:/LiteOS/LiteOS_Lab/iot_link/os/os_imp/liteos/arch/arm/common/cmsis\cmsis_gcc.h **** #define __CMSIS_GCC_OUT_REG(r) "=l" (r)
ARM GAS  C:\Users\user\AppData\Local\Temp\ccGlcwic.s 			page 29


 682:E:/LiteOS/LiteOS_Lab/iot_link/os/os_imp/liteos/arch/arm/common/cmsis\cmsis_gcc.h **** #define __CMSIS_GCC_RW_REG(r) "+l" (r)
 683:E:/LiteOS/LiteOS_Lab/iot_link/os/os_imp/liteos/arch/arm/common/cmsis\cmsis_gcc.h **** #define __CMSIS_GCC_USE_REG(r) "l" (r)
 684:E:/LiteOS/LiteOS_Lab/iot_link/os/os_imp/liteos/arch/arm/common/cmsis\cmsis_gcc.h **** #else
 685:E:/LiteOS/LiteOS_Lab/iot_link/os/os_imp/liteos/arch/arm/common/cmsis\cmsis_gcc.h **** #define __CMSIS_GCC_OUT_REG(r) "=r" (r)
 686:E:/LiteOS/LiteOS_Lab/iot_link/os/os_imp/liteos/arch/arm/common/cmsis\cmsis_gcc.h **** #define __CMSIS_GCC_RW_REG(r) "+r" (r)
 687:E:/LiteOS/LiteOS_Lab/iot_link/os/os_imp/liteos/arch/arm/common/cmsis\cmsis_gcc.h **** #define __CMSIS_GCC_USE_REG(r) "r" (r)
 688:E:/LiteOS/LiteOS_Lab/iot_link/os/os_imp/liteos/arch/arm/common/cmsis\cmsis_gcc.h **** #endif
 689:E:/LiteOS/LiteOS_Lab/iot_link/os/os_imp/liteos/arch/arm/common/cmsis\cmsis_gcc.h **** 
 690:E:/LiteOS/LiteOS_Lab/iot_link/os/os_imp/liteos/arch/arm/common/cmsis\cmsis_gcc.h **** /**
 691:E:/LiteOS/LiteOS_Lab/iot_link/os/os_imp/liteos/arch/arm/common/cmsis\cmsis_gcc.h ****   \brief   No Operation
 692:E:/LiteOS/LiteOS_Lab/iot_link/os/os_imp/liteos/arch/arm/common/cmsis\cmsis_gcc.h ****   \details No Operation does nothing. This instruction can be used for code alignment purposes.
 693:E:/LiteOS/LiteOS_Lab/iot_link/os/os_imp/liteos/arch/arm/common/cmsis\cmsis_gcc.h ****  */
 694:E:/LiteOS/LiteOS_Lab/iot_link/os/os_imp/liteos/arch/arm/common/cmsis\cmsis_gcc.h **** //__attribute__((always_inline)) __STATIC_INLINE void __NOP(void)
 695:E:/LiteOS/LiteOS_Lab/iot_link/os/os_imp/liteos/arch/arm/common/cmsis\cmsis_gcc.h **** //{
 696:E:/LiteOS/LiteOS_Lab/iot_link/os/os_imp/liteos/arch/arm/common/cmsis\cmsis_gcc.h **** //  __ASM volatile ("nop");
 697:E:/LiteOS/LiteOS_Lab/iot_link/os/os_imp/liteos/arch/arm/common/cmsis\cmsis_gcc.h **** //}
 698:E:/LiteOS/LiteOS_Lab/iot_link/os/os_imp/liteos/arch/arm/common/cmsis\cmsis_gcc.h **** #define __NOP()                             __ASM volatile ("nop")       /* This implementation gen
 699:E:/LiteOS/LiteOS_Lab/iot_link/os/os_imp/liteos/arch/arm/common/cmsis\cmsis_gcc.h **** 
 700:E:/LiteOS/LiteOS_Lab/iot_link/os/os_imp/liteos/arch/arm/common/cmsis\cmsis_gcc.h **** /**
 701:E:/LiteOS/LiteOS_Lab/iot_link/os/os_imp/liteos/arch/arm/common/cmsis\cmsis_gcc.h ****   \brief   Wait For Interrupt
 702:E:/LiteOS/LiteOS_Lab/iot_link/os/os_imp/liteos/arch/arm/common/cmsis\cmsis_gcc.h ****   \details Wait For Interrupt is a hint instruction that suspends execution until one of a number o
 703:E:/LiteOS/LiteOS_Lab/iot_link/os/os_imp/liteos/arch/arm/common/cmsis\cmsis_gcc.h ****  */
 704:E:/LiteOS/LiteOS_Lab/iot_link/os/os_imp/liteos/arch/arm/common/cmsis\cmsis_gcc.h **** //__attribute__((always_inline)) __STATIC_INLINE void __WFI(void)
 705:E:/LiteOS/LiteOS_Lab/iot_link/os/os_imp/liteos/arch/arm/common/cmsis\cmsis_gcc.h **** //{
 706:E:/LiteOS/LiteOS_Lab/iot_link/os/os_imp/liteos/arch/arm/common/cmsis\cmsis_gcc.h **** //  __ASM volatile ("wfi");
 707:E:/LiteOS/LiteOS_Lab/iot_link/os/os_imp/liteos/arch/arm/common/cmsis\cmsis_gcc.h **** //}
 708:E:/LiteOS/LiteOS_Lab/iot_link/os/os_imp/liteos/arch/arm/common/cmsis\cmsis_gcc.h **** #define __WFI()                             __ASM volatile ("wfi")       /* This implementation gen
 709:E:/LiteOS/LiteOS_Lab/iot_link/os/os_imp/liteos/arch/arm/common/cmsis\cmsis_gcc.h **** 
 710:E:/LiteOS/LiteOS_Lab/iot_link/os/os_imp/liteos/arch/arm/common/cmsis\cmsis_gcc.h **** 
 711:E:/LiteOS/LiteOS_Lab/iot_link/os/os_imp/liteos/arch/arm/common/cmsis\cmsis_gcc.h **** /**
 712:E:/LiteOS/LiteOS_Lab/iot_link/os/os_imp/liteos/arch/arm/common/cmsis\cmsis_gcc.h ****   \brief   Wait For Event
 713:E:/LiteOS/LiteOS_Lab/iot_link/os/os_imp/liteos/arch/arm/common/cmsis\cmsis_gcc.h ****   \details Wait For Event is a hint instruction that permits the processor to enter
 714:E:/LiteOS/LiteOS_Lab/iot_link/os/os_imp/liteos/arch/arm/common/cmsis\cmsis_gcc.h ****            a low-power state until one of a number of events occurs.
 715:E:/LiteOS/LiteOS_Lab/iot_link/os/os_imp/liteos/arch/arm/common/cmsis\cmsis_gcc.h ****  */
 716:E:/LiteOS/LiteOS_Lab/iot_link/os/os_imp/liteos/arch/arm/common/cmsis\cmsis_gcc.h **** //__attribute__((always_inline)) __STATIC_INLINE void __WFE(void)
 717:E:/LiteOS/LiteOS_Lab/iot_link/os/os_imp/liteos/arch/arm/common/cmsis\cmsis_gcc.h **** //{
 718:E:/LiteOS/LiteOS_Lab/iot_link/os/os_imp/liteos/arch/arm/common/cmsis\cmsis_gcc.h **** //  __ASM volatile ("wfe");
 719:E:/LiteOS/LiteOS_Lab/iot_link/os/os_imp/liteos/arch/arm/common/cmsis\cmsis_gcc.h **** //}
 720:E:/LiteOS/LiteOS_Lab/iot_link/os/os_imp/liteos/arch/arm/common/cmsis\cmsis_gcc.h **** #define __WFE()                             __ASM volatile ("wfe")       /* This implementation gen
 721:E:/LiteOS/LiteOS_Lab/iot_link/os/os_imp/liteos/arch/arm/common/cmsis\cmsis_gcc.h **** 
 722:E:/LiteOS/LiteOS_Lab/iot_link/os/os_imp/liteos/arch/arm/common/cmsis\cmsis_gcc.h **** 
 723:E:/LiteOS/LiteOS_Lab/iot_link/os/os_imp/liteos/arch/arm/common/cmsis\cmsis_gcc.h **** /**
 724:E:/LiteOS/LiteOS_Lab/iot_link/os/os_imp/liteos/arch/arm/common/cmsis\cmsis_gcc.h ****   \brief   Send Event
 725:E:/LiteOS/LiteOS_Lab/iot_link/os/os_imp/liteos/arch/arm/common/cmsis\cmsis_gcc.h ****   \details Send Event is a hint instruction. It causes an event to be signaled to the CPU.
 726:E:/LiteOS/LiteOS_Lab/iot_link/os/os_imp/liteos/arch/arm/common/cmsis\cmsis_gcc.h ****  */
 727:E:/LiteOS/LiteOS_Lab/iot_link/os/os_imp/liteos/arch/arm/common/cmsis\cmsis_gcc.h **** //__attribute__((always_inline)) __STATIC_INLINE void __SEV(void)
 728:E:/LiteOS/LiteOS_Lab/iot_link/os/os_imp/liteos/arch/arm/common/cmsis\cmsis_gcc.h **** //{
 729:E:/LiteOS/LiteOS_Lab/iot_link/os/os_imp/liteos/arch/arm/common/cmsis\cmsis_gcc.h **** //  __ASM volatile ("sev");
 730:E:/LiteOS/LiteOS_Lab/iot_link/os/os_imp/liteos/arch/arm/common/cmsis\cmsis_gcc.h **** //}
 731:E:/LiteOS/LiteOS_Lab/iot_link/os/os_imp/liteos/arch/arm/common/cmsis\cmsis_gcc.h **** #define __SEV()                             __ASM volatile ("sev")       /* This implementation gen
 732:E:/LiteOS/LiteOS_Lab/iot_link/os/os_imp/liteos/arch/arm/common/cmsis\cmsis_gcc.h **** 
 733:E:/LiteOS/LiteOS_Lab/iot_link/os/os_imp/liteos/arch/arm/common/cmsis\cmsis_gcc.h **** 
 734:E:/LiteOS/LiteOS_Lab/iot_link/os/os_imp/liteos/arch/arm/common/cmsis\cmsis_gcc.h **** /**
 735:E:/LiteOS/LiteOS_Lab/iot_link/os/os_imp/liteos/arch/arm/common/cmsis\cmsis_gcc.h ****   \brief   Instruction Synchronization Barrier
 736:E:/LiteOS/LiteOS_Lab/iot_link/os/os_imp/liteos/arch/arm/common/cmsis\cmsis_gcc.h ****   \details Instruction Synchronization Barrier flushes the pipeline in the processor,
 737:E:/LiteOS/LiteOS_Lab/iot_link/os/os_imp/liteos/arch/arm/common/cmsis\cmsis_gcc.h ****            so that all instructions following the ISB are fetched from cache or memory,
 738:E:/LiteOS/LiteOS_Lab/iot_link/os/os_imp/liteos/arch/arm/common/cmsis\cmsis_gcc.h ****            after the instruction has been completed.
ARM GAS  C:\Users\user\AppData\Local\Temp\ccGlcwic.s 			page 30


 739:E:/LiteOS/LiteOS_Lab/iot_link/os/os_imp/liteos/arch/arm/common/cmsis\cmsis_gcc.h ****  */
 740:E:/LiteOS/LiteOS_Lab/iot_link/os/os_imp/liteos/arch/arm/common/cmsis\cmsis_gcc.h **** __attribute__((always_inline)) __STATIC_INLINE void __ISB(void)
 741:E:/LiteOS/LiteOS_Lab/iot_link/os/os_imp/liteos/arch/arm/common/cmsis\cmsis_gcc.h **** {
 742:E:/LiteOS/LiteOS_Lab/iot_link/os/os_imp/liteos/arch/arm/common/cmsis\cmsis_gcc.h ****   __ASM volatile ("isb 0xF":::"memory");
 743:E:/LiteOS/LiteOS_Lab/iot_link/os/os_imp/liteos/arch/arm/common/cmsis\cmsis_gcc.h **** }
 744:E:/LiteOS/LiteOS_Lab/iot_link/os/os_imp/liteos/arch/arm/common/cmsis\cmsis_gcc.h **** 
 745:E:/LiteOS/LiteOS_Lab/iot_link/os/os_imp/liteos/arch/arm/common/cmsis\cmsis_gcc.h **** 
 746:E:/LiteOS/LiteOS_Lab/iot_link/os/os_imp/liteos/arch/arm/common/cmsis\cmsis_gcc.h **** /**
 747:E:/LiteOS/LiteOS_Lab/iot_link/os/os_imp/liteos/arch/arm/common/cmsis\cmsis_gcc.h ****   \brief   Data Synchronization Barrier
 748:E:/LiteOS/LiteOS_Lab/iot_link/os/os_imp/liteos/arch/arm/common/cmsis\cmsis_gcc.h ****   \details Acts as a special kind of Data Memory Barrier.
 749:E:/LiteOS/LiteOS_Lab/iot_link/os/os_imp/liteos/arch/arm/common/cmsis\cmsis_gcc.h ****            It completes when all explicit memory accesses before this instruction complete.
 750:E:/LiteOS/LiteOS_Lab/iot_link/os/os_imp/liteos/arch/arm/common/cmsis\cmsis_gcc.h ****  */
 751:E:/LiteOS/LiteOS_Lab/iot_link/os/os_imp/liteos/arch/arm/common/cmsis\cmsis_gcc.h **** __attribute__((always_inline)) __STATIC_INLINE void __DSB(void)
 752:E:/LiteOS/LiteOS_Lab/iot_link/os/os_imp/liteos/arch/arm/common/cmsis\cmsis_gcc.h **** {
 753:E:/LiteOS/LiteOS_Lab/iot_link/os/os_imp/liteos/arch/arm/common/cmsis\cmsis_gcc.h ****   __ASM volatile ("dsb 0xF":::"memory");
 754:E:/LiteOS/LiteOS_Lab/iot_link/os/os_imp/liteos/arch/arm/common/cmsis\cmsis_gcc.h **** }
 755:E:/LiteOS/LiteOS_Lab/iot_link/os/os_imp/liteos/arch/arm/common/cmsis\cmsis_gcc.h **** 
 756:E:/LiteOS/LiteOS_Lab/iot_link/os/os_imp/liteos/arch/arm/common/cmsis\cmsis_gcc.h **** 
 757:E:/LiteOS/LiteOS_Lab/iot_link/os/os_imp/liteos/arch/arm/common/cmsis\cmsis_gcc.h **** /**
 758:E:/LiteOS/LiteOS_Lab/iot_link/os/os_imp/liteos/arch/arm/common/cmsis\cmsis_gcc.h ****   \brief   Data Memory Barrier
 759:E:/LiteOS/LiteOS_Lab/iot_link/os/os_imp/liteos/arch/arm/common/cmsis\cmsis_gcc.h ****   \details Ensures the apparent order of the explicit memory operations before
 760:E:/LiteOS/LiteOS_Lab/iot_link/os/os_imp/liteos/arch/arm/common/cmsis\cmsis_gcc.h ****            and after the instruction, without ensuring their completion.
 761:E:/LiteOS/LiteOS_Lab/iot_link/os/os_imp/liteos/arch/arm/common/cmsis\cmsis_gcc.h ****  */
 762:E:/LiteOS/LiteOS_Lab/iot_link/os/os_imp/liteos/arch/arm/common/cmsis\cmsis_gcc.h **** __attribute__((always_inline)) __STATIC_INLINE void __DMB(void)
 763:E:/LiteOS/LiteOS_Lab/iot_link/os/os_imp/liteos/arch/arm/common/cmsis\cmsis_gcc.h **** {
 764:E:/LiteOS/LiteOS_Lab/iot_link/os/os_imp/liteos/arch/arm/common/cmsis\cmsis_gcc.h ****   __ASM volatile ("dmb 0xF":::"memory");
 765:E:/LiteOS/LiteOS_Lab/iot_link/os/os_imp/liteos/arch/arm/common/cmsis\cmsis_gcc.h **** }
 766:E:/LiteOS/LiteOS_Lab/iot_link/os/os_imp/liteos/arch/arm/common/cmsis\cmsis_gcc.h **** 
 767:E:/LiteOS/LiteOS_Lab/iot_link/os/os_imp/liteos/arch/arm/common/cmsis\cmsis_gcc.h **** 
 768:E:/LiteOS/LiteOS_Lab/iot_link/os/os_imp/liteos/arch/arm/common/cmsis\cmsis_gcc.h **** /**
 769:E:/LiteOS/LiteOS_Lab/iot_link/os/os_imp/liteos/arch/arm/common/cmsis\cmsis_gcc.h ****   \brief   Reverse byte order (32 bit)
 770:E:/LiteOS/LiteOS_Lab/iot_link/os/os_imp/liteos/arch/arm/common/cmsis\cmsis_gcc.h ****   \details Reverses the byte order in integer value.
 771:E:/LiteOS/LiteOS_Lab/iot_link/os/os_imp/liteos/arch/arm/common/cmsis\cmsis_gcc.h ****   \param [in]    value  Value to reverse
 772:E:/LiteOS/LiteOS_Lab/iot_link/os/os_imp/liteos/arch/arm/common/cmsis\cmsis_gcc.h ****   \return               Reversed value
 773:E:/LiteOS/LiteOS_Lab/iot_link/os/os_imp/liteos/arch/arm/common/cmsis\cmsis_gcc.h ****  */
 774:E:/LiteOS/LiteOS_Lab/iot_link/os/os_imp/liteos/arch/arm/common/cmsis\cmsis_gcc.h **** __attribute__((always_inline)) __STATIC_INLINE uint32_t __REV(uint32_t value)
 775:E:/LiteOS/LiteOS_Lab/iot_link/os/os_imp/liteos/arch/arm/common/cmsis\cmsis_gcc.h **** {
 776:E:/LiteOS/LiteOS_Lab/iot_link/os/os_imp/liteos/arch/arm/common/cmsis\cmsis_gcc.h **** #if (__GNUC__ > 4) || (__GNUC__ == 4 && __GNUC_MINOR__ >= 5)
 777:E:/LiteOS/LiteOS_Lab/iot_link/os/os_imp/liteos/arch/arm/common/cmsis\cmsis_gcc.h ****   return __builtin_bswap32(value);
 778:E:/LiteOS/LiteOS_Lab/iot_link/os/os_imp/liteos/arch/arm/common/cmsis\cmsis_gcc.h **** #else
 779:E:/LiteOS/LiteOS_Lab/iot_link/os/os_imp/liteos/arch/arm/common/cmsis\cmsis_gcc.h ****   uint32_t result;
 780:E:/LiteOS/LiteOS_Lab/iot_link/os/os_imp/liteos/arch/arm/common/cmsis\cmsis_gcc.h **** 
 781:E:/LiteOS/LiteOS_Lab/iot_link/os/os_imp/liteos/arch/arm/common/cmsis\cmsis_gcc.h ****   __ASM volatile ("rev %0, %1" : __CMSIS_GCC_OUT_REG (result) : __CMSIS_GCC_USE_REG (value) );
 782:E:/LiteOS/LiteOS_Lab/iot_link/os/os_imp/liteos/arch/arm/common/cmsis\cmsis_gcc.h ****   return(result);
 783:E:/LiteOS/LiteOS_Lab/iot_link/os/os_imp/liteos/arch/arm/common/cmsis\cmsis_gcc.h **** #endif
 784:E:/LiteOS/LiteOS_Lab/iot_link/os/os_imp/liteos/arch/arm/common/cmsis\cmsis_gcc.h **** }
 785:E:/LiteOS/LiteOS_Lab/iot_link/os/os_imp/liteos/arch/arm/common/cmsis\cmsis_gcc.h **** 
 786:E:/LiteOS/LiteOS_Lab/iot_link/os/os_imp/liteos/arch/arm/common/cmsis\cmsis_gcc.h **** 
 787:E:/LiteOS/LiteOS_Lab/iot_link/os/os_imp/liteos/arch/arm/common/cmsis\cmsis_gcc.h **** /**
 788:E:/LiteOS/LiteOS_Lab/iot_link/os/os_imp/liteos/arch/arm/common/cmsis\cmsis_gcc.h ****   \brief   Reverse byte order (16 bit)
 789:E:/LiteOS/LiteOS_Lab/iot_link/os/os_imp/liteos/arch/arm/common/cmsis\cmsis_gcc.h ****   \details Reverses the byte order in two unsigned short values.
 790:E:/LiteOS/LiteOS_Lab/iot_link/os/os_imp/liteos/arch/arm/common/cmsis\cmsis_gcc.h ****   \param [in]    value  Value to reverse
 791:E:/LiteOS/LiteOS_Lab/iot_link/os/os_imp/liteos/arch/arm/common/cmsis\cmsis_gcc.h ****   \return               Reversed value
 792:E:/LiteOS/LiteOS_Lab/iot_link/os/os_imp/liteos/arch/arm/common/cmsis\cmsis_gcc.h ****  */
 793:E:/LiteOS/LiteOS_Lab/iot_link/os/os_imp/liteos/arch/arm/common/cmsis\cmsis_gcc.h **** __attribute__((always_inline)) __STATIC_INLINE uint32_t __REV16(uint32_t value)
 794:E:/LiteOS/LiteOS_Lab/iot_link/os/os_imp/liteos/arch/arm/common/cmsis\cmsis_gcc.h **** {
 795:E:/LiteOS/LiteOS_Lab/iot_link/os/os_imp/liteos/arch/arm/common/cmsis\cmsis_gcc.h ****   uint32_t result;
ARM GAS  C:\Users\user\AppData\Local\Temp\ccGlcwic.s 			page 31


 796:E:/LiteOS/LiteOS_Lab/iot_link/os/os_imp/liteos/arch/arm/common/cmsis\cmsis_gcc.h **** 
 797:E:/LiteOS/LiteOS_Lab/iot_link/os/os_imp/liteos/arch/arm/common/cmsis\cmsis_gcc.h ****   __ASM volatile ("rev16 %0, %1" : __CMSIS_GCC_OUT_REG (result) : __CMSIS_GCC_USE_REG (value) );
 798:E:/LiteOS/LiteOS_Lab/iot_link/os/os_imp/liteos/arch/arm/common/cmsis\cmsis_gcc.h ****   return(result);
 799:E:/LiteOS/LiteOS_Lab/iot_link/os/os_imp/liteos/arch/arm/common/cmsis\cmsis_gcc.h **** }
 800:E:/LiteOS/LiteOS_Lab/iot_link/os/os_imp/liteos/arch/arm/common/cmsis\cmsis_gcc.h **** 
 801:E:/LiteOS/LiteOS_Lab/iot_link/os/os_imp/liteos/arch/arm/common/cmsis\cmsis_gcc.h **** 
 802:E:/LiteOS/LiteOS_Lab/iot_link/os/os_imp/liteos/arch/arm/common/cmsis\cmsis_gcc.h **** /**
 803:E:/LiteOS/LiteOS_Lab/iot_link/os/os_imp/liteos/arch/arm/common/cmsis\cmsis_gcc.h ****   \brief   Reverse byte order in signed short value
 804:E:/LiteOS/LiteOS_Lab/iot_link/os/os_imp/liteos/arch/arm/common/cmsis\cmsis_gcc.h ****   \details Reverses the byte order in a signed short value with sign extension to integer.
 805:E:/LiteOS/LiteOS_Lab/iot_link/os/os_imp/liteos/arch/arm/common/cmsis\cmsis_gcc.h ****   \param [in]    value  Value to reverse
 806:E:/LiteOS/LiteOS_Lab/iot_link/os/os_imp/liteos/arch/arm/common/cmsis\cmsis_gcc.h ****   \return               Reversed value
 807:E:/LiteOS/LiteOS_Lab/iot_link/os/os_imp/liteos/arch/arm/common/cmsis\cmsis_gcc.h ****  */
 808:E:/LiteOS/LiteOS_Lab/iot_link/os/os_imp/liteos/arch/arm/common/cmsis\cmsis_gcc.h **** __attribute__((always_inline)) __STATIC_INLINE int32_t __REVSH(int32_t value)
 809:E:/LiteOS/LiteOS_Lab/iot_link/os/os_imp/liteos/arch/arm/common/cmsis\cmsis_gcc.h **** {
 810:E:/LiteOS/LiteOS_Lab/iot_link/os/os_imp/liteos/arch/arm/common/cmsis\cmsis_gcc.h **** #if (__GNUC__ > 4) || (__GNUC__ == 4 && __GNUC_MINOR__ >= 8)
 811:E:/LiteOS/LiteOS_Lab/iot_link/os/os_imp/liteos/arch/arm/common/cmsis\cmsis_gcc.h ****   return (short)__builtin_bswap16(value);
 812:E:/LiteOS/LiteOS_Lab/iot_link/os/os_imp/liteos/arch/arm/common/cmsis\cmsis_gcc.h **** #else
 813:E:/LiteOS/LiteOS_Lab/iot_link/os/os_imp/liteos/arch/arm/common/cmsis\cmsis_gcc.h ****   int32_t result;
 814:E:/LiteOS/LiteOS_Lab/iot_link/os/os_imp/liteos/arch/arm/common/cmsis\cmsis_gcc.h **** 
 815:E:/LiteOS/LiteOS_Lab/iot_link/os/os_imp/liteos/arch/arm/common/cmsis\cmsis_gcc.h ****   __ASM volatile ("revsh %0, %1" : __CMSIS_GCC_OUT_REG (result) : __CMSIS_GCC_USE_REG (value) );
 816:E:/LiteOS/LiteOS_Lab/iot_link/os/os_imp/liteos/arch/arm/common/cmsis\cmsis_gcc.h ****   return(result);
 817:E:/LiteOS/LiteOS_Lab/iot_link/os/os_imp/liteos/arch/arm/common/cmsis\cmsis_gcc.h **** #endif
 818:E:/LiteOS/LiteOS_Lab/iot_link/os/os_imp/liteos/arch/arm/common/cmsis\cmsis_gcc.h **** }
 819:E:/LiteOS/LiteOS_Lab/iot_link/os/os_imp/liteos/arch/arm/common/cmsis\cmsis_gcc.h **** 
 820:E:/LiteOS/LiteOS_Lab/iot_link/os/os_imp/liteos/arch/arm/common/cmsis\cmsis_gcc.h **** 
 821:E:/LiteOS/LiteOS_Lab/iot_link/os/os_imp/liteos/arch/arm/common/cmsis\cmsis_gcc.h **** /**
 822:E:/LiteOS/LiteOS_Lab/iot_link/os/os_imp/liteos/arch/arm/common/cmsis\cmsis_gcc.h ****   \brief   Rotate Right in unsigned value (32 bit)
 823:E:/LiteOS/LiteOS_Lab/iot_link/os/os_imp/liteos/arch/arm/common/cmsis\cmsis_gcc.h ****   \details Rotate Right (immediate) provides the value of the contents of a register rotated by a v
 824:E:/LiteOS/LiteOS_Lab/iot_link/os/os_imp/liteos/arch/arm/common/cmsis\cmsis_gcc.h ****   \param [in]    op1  Value to rotate
 825:E:/LiteOS/LiteOS_Lab/iot_link/os/os_imp/liteos/arch/arm/common/cmsis\cmsis_gcc.h ****   \param [in]    op2  Number of Bits to rotate
 826:E:/LiteOS/LiteOS_Lab/iot_link/os/os_imp/liteos/arch/arm/common/cmsis\cmsis_gcc.h ****   \return               Rotated value
 827:E:/LiteOS/LiteOS_Lab/iot_link/os/os_imp/liteos/arch/arm/common/cmsis\cmsis_gcc.h ****  */
 828:E:/LiteOS/LiteOS_Lab/iot_link/os/os_imp/liteos/arch/arm/common/cmsis\cmsis_gcc.h **** __attribute__((always_inline)) __STATIC_INLINE uint32_t __ROR(uint32_t op1, uint32_t op2)
 829:E:/LiteOS/LiteOS_Lab/iot_link/os/os_imp/liteos/arch/arm/common/cmsis\cmsis_gcc.h **** {
 830:E:/LiteOS/LiteOS_Lab/iot_link/os/os_imp/liteos/arch/arm/common/cmsis\cmsis_gcc.h ****   return (op1 >> op2) | (op1 << (32U - op2));
 831:E:/LiteOS/LiteOS_Lab/iot_link/os/os_imp/liteos/arch/arm/common/cmsis\cmsis_gcc.h **** }
 832:E:/LiteOS/LiteOS_Lab/iot_link/os/os_imp/liteos/arch/arm/common/cmsis\cmsis_gcc.h **** 
 833:E:/LiteOS/LiteOS_Lab/iot_link/os/os_imp/liteos/arch/arm/common/cmsis\cmsis_gcc.h **** 
 834:E:/LiteOS/LiteOS_Lab/iot_link/os/os_imp/liteos/arch/arm/common/cmsis\cmsis_gcc.h **** /**
 835:E:/LiteOS/LiteOS_Lab/iot_link/os/os_imp/liteos/arch/arm/common/cmsis\cmsis_gcc.h ****   \brief   Breakpoint
 836:E:/LiteOS/LiteOS_Lab/iot_link/os/os_imp/liteos/arch/arm/common/cmsis\cmsis_gcc.h ****   \details Causes the processor to enter Debug state.
 837:E:/LiteOS/LiteOS_Lab/iot_link/os/os_imp/liteos/arch/arm/common/cmsis\cmsis_gcc.h ****            Debug tools can use this to investigate system state when the instruction at a particula
 838:E:/LiteOS/LiteOS_Lab/iot_link/os/os_imp/liteos/arch/arm/common/cmsis\cmsis_gcc.h ****   \param [in]    value  is ignored by the processor.
 839:E:/LiteOS/LiteOS_Lab/iot_link/os/os_imp/liteos/arch/arm/common/cmsis\cmsis_gcc.h ****                  If required, a debugger can use it to store additional information about the break
 840:E:/LiteOS/LiteOS_Lab/iot_link/os/os_imp/liteos/arch/arm/common/cmsis\cmsis_gcc.h ****  */
 841:E:/LiteOS/LiteOS_Lab/iot_link/os/os_imp/liteos/arch/arm/common/cmsis\cmsis_gcc.h **** #define __BKPT(value)                       __ASM volatile ("bkpt "#value)
 842:E:/LiteOS/LiteOS_Lab/iot_link/os/os_imp/liteos/arch/arm/common/cmsis\cmsis_gcc.h **** 
 843:E:/LiteOS/LiteOS_Lab/iot_link/os/os_imp/liteos/arch/arm/common/cmsis\cmsis_gcc.h **** 
 844:E:/LiteOS/LiteOS_Lab/iot_link/os/os_imp/liteos/arch/arm/common/cmsis\cmsis_gcc.h **** /**
 845:E:/LiteOS/LiteOS_Lab/iot_link/os/os_imp/liteos/arch/arm/common/cmsis\cmsis_gcc.h ****   \brief   Reverse bit order of value
 846:E:/LiteOS/LiteOS_Lab/iot_link/os/os_imp/liteos/arch/arm/common/cmsis\cmsis_gcc.h ****   \details Reverses the bit order of the given value.
 847:E:/LiteOS/LiteOS_Lab/iot_link/os/os_imp/liteos/arch/arm/common/cmsis\cmsis_gcc.h ****   \param [in]    value  Value to reverse
 848:E:/LiteOS/LiteOS_Lab/iot_link/os/os_imp/liteos/arch/arm/common/cmsis\cmsis_gcc.h ****   \return               Reversed value
 849:E:/LiteOS/LiteOS_Lab/iot_link/os/os_imp/liteos/arch/arm/common/cmsis\cmsis_gcc.h ****  */
 850:E:/LiteOS/LiteOS_Lab/iot_link/os/os_imp/liteos/arch/arm/common/cmsis\cmsis_gcc.h **** __attribute__((always_inline)) __STATIC_INLINE uint32_t __RBIT(uint32_t value)
 851:E:/LiteOS/LiteOS_Lab/iot_link/os/os_imp/liteos/arch/arm/common/cmsis\cmsis_gcc.h **** {
 852:E:/LiteOS/LiteOS_Lab/iot_link/os/os_imp/liteos/arch/arm/common/cmsis\cmsis_gcc.h ****   uint32_t result;
ARM GAS  C:\Users\user\AppData\Local\Temp\ccGlcwic.s 			page 32


 853:E:/LiteOS/LiteOS_Lab/iot_link/os/os_imp/liteos/arch/arm/common/cmsis\cmsis_gcc.h **** 
 854:E:/LiteOS/LiteOS_Lab/iot_link/os/os_imp/liteos/arch/arm/common/cmsis\cmsis_gcc.h **** #if ((defined (__ARM_ARCH_7M__      ) && (__ARM_ARCH_7M__      == 1)) || \
 855:E:/LiteOS/LiteOS_Lab/iot_link/os/os_imp/liteos/arch/arm/common/cmsis\cmsis_gcc.h ****      (defined (__ARM_ARCH_7EM__     ) && (__ARM_ARCH_7EM__     == 1)) || \
 856:E:/LiteOS/LiteOS_Lab/iot_link/os/os_imp/liteos/arch/arm/common/cmsis\cmsis_gcc.h ****      (defined (__ARM_ARCH_8M_MAIN__ ) && (__ARM_ARCH_8M_MAIN__ == 1))    )
 857:E:/LiteOS/LiteOS_Lab/iot_link/os/os_imp/liteos/arch/arm/common/cmsis\cmsis_gcc.h ****    __ASM volatile ("rbit %0, %1" : "=r" (result) : "r" (value) );
 681              		.loc 2 857 0
 682 0024 7B68     		ldr	r3, [r7, #4]
 683              		.syntax unified
 684              	@ 857 "E:/LiteOS/LiteOS_Lab/iot_link/os/os_imp/liteos/arch/arm/common/cmsis/cmsis_gcc.h" 1
 685 0026 93FAA3F3 		rbit r3, r3
 686              	@ 0 "" 2
 687              		.thumb
 688              		.syntax unified
 689 002a 3B60     		str	r3, [r7]
 858:E:/LiteOS/LiteOS_Lab/iot_link/os/os_imp/liteos/arch/arm/common/cmsis\cmsis_gcc.h **** #else
 859:E:/LiteOS/LiteOS_Lab/iot_link/os/os_imp/liteos/arch/arm/common/cmsis\cmsis_gcc.h ****   int32_t s = (4 /*sizeof(v)*/ * 8) - 1; /* extra shift needed at end */
 860:E:/LiteOS/LiteOS_Lab/iot_link/os/os_imp/liteos/arch/arm/common/cmsis\cmsis_gcc.h **** 
 861:E:/LiteOS/LiteOS_Lab/iot_link/os/os_imp/liteos/arch/arm/common/cmsis\cmsis_gcc.h ****   result = value;                      /* r will be reversed bits of v; first get LSB of v */
 862:E:/LiteOS/LiteOS_Lab/iot_link/os/os_imp/liteos/arch/arm/common/cmsis\cmsis_gcc.h ****   for (value >>= 1U; value; value >>= 1U)
 863:E:/LiteOS/LiteOS_Lab/iot_link/os/os_imp/liteos/arch/arm/common/cmsis\cmsis_gcc.h ****   {
 864:E:/LiteOS/LiteOS_Lab/iot_link/os/os_imp/liteos/arch/arm/common/cmsis\cmsis_gcc.h ****     result <<= 1U;
 865:E:/LiteOS/LiteOS_Lab/iot_link/os/os_imp/liteos/arch/arm/common/cmsis\cmsis_gcc.h ****     result |= value & 1U;
 866:E:/LiteOS/LiteOS_Lab/iot_link/os/os_imp/liteos/arch/arm/common/cmsis\cmsis_gcc.h ****     s--;
 867:E:/LiteOS/LiteOS_Lab/iot_link/os/os_imp/liteos/arch/arm/common/cmsis\cmsis_gcc.h ****   }
 868:E:/LiteOS/LiteOS_Lab/iot_link/os/os_imp/liteos/arch/arm/common/cmsis\cmsis_gcc.h ****   result <<= s;                        /* shift when v's highest bits are zero */
 869:E:/LiteOS/LiteOS_Lab/iot_link/os/os_imp/liteos/arch/arm/common/cmsis\cmsis_gcc.h **** #endif
 870:E:/LiteOS/LiteOS_Lab/iot_link/os/os_imp/liteos/arch/arm/common/cmsis\cmsis_gcc.h ****   return(result);
 690              		.loc 2 870 0
 691 002c 3B68     		ldr	r3, [r7]
 692              	.LBE6:
 693              	.LBE5:
 247:E:/LiteOS/LiteOS_Lab/targets/STM32L431_BearPi/Hardware/Src\hal_qspi_flash.c ****   hqspi.Init.FlashSize = POSITION_VAL(0x1000000) - 1;
 694              		.loc 1 247 0
 695 002e B3FA83F3 		clz	r3, r3
 696 0032 013B     		subs	r3, r3, #1
 697 0034 1A46     		mov	r2, r3
 698 0036 0E4B     		ldr	r3, .L37
 699 0038 1A61     		str	r2, [r3, #16]
 248:E:/LiteOS/LiteOS_Lab/targets/STM32L431_BearPi/Hardware/Src\hal_qspi_flash.c ****   hqspi.Init.ChipSelectHighTime = QSPI_CS_HIGH_TIME_4_CYCLE;
 700              		.loc 1 248 0
 701 003a 0D4B     		ldr	r3, .L37
 702 003c 4FF44072 		mov	r2, #768
 703 0040 5A61     		str	r2, [r3, #20]
 249:E:/LiteOS/LiteOS_Lab/targets/STM32L431_BearPi/Hardware/Src\hal_qspi_flash.c ****   hqspi.Init.ClockMode = QSPI_CLOCK_MODE_0;
 704              		.loc 1 249 0
 705 0042 0B4B     		ldr	r3, .L37
 706 0044 0022     		movs	r2, #0
 707 0046 9A61     		str	r2, [r3, #24]
 250:E:/LiteOS/LiteOS_Lab/targets/STM32L431_BearPi/Hardware/Src\hal_qspi_flash.c ****   hqspi.Init.FlashID = QSPI_FLASH_ID_1;
 708              		.loc 1 250 0
 709 0048 094B     		ldr	r3, .L37
 710 004a 0022     		movs	r2, #0
 711 004c DA61     		str	r2, [r3, #28]
 251:E:/LiteOS/LiteOS_Lab/targets/STM32L431_BearPi/Hardware/Src\hal_qspi_flash.c ****   hqspi.Init.DualFlash = QSPI_DUALFLASH_DISABLE;
 712              		.loc 1 251 0
 713 004e 084B     		ldr	r3, .L37
 714 0050 0022     		movs	r2, #0
ARM GAS  C:\Users\user\AppData\Local\Temp\ccGlcwic.s 			page 33


 715 0052 1A62     		str	r2, [r3, #32]
 252:E:/LiteOS/LiteOS_Lab/targets/STM32L431_BearPi/Hardware/Src\hal_qspi_flash.c ****   if (HAL_QSPI_Init(&hqspi) != HAL_OK)
 716              		.loc 1 252 0
 717 0054 0648     		ldr	r0, .L37
 718 0056 FFF7FEFF 		bl	HAL_QSPI_Init
 719 005a 0346     		mov	r3, r0
 720 005c 002B     		cmp	r3, #0
 721 005e 03D0     		beq	.L36
 253:E:/LiteOS/LiteOS_Lab/targets/STM32L431_BearPi/Hardware/Src\hal_qspi_flash.c ****   {
 254:E:/LiteOS/LiteOS_Lab/targets/STM32L431_BearPi/Hardware/Src\hal_qspi_flash.c ****     Error_Handler();
 722              		.loc 1 254 0
 723 0060 FE21     		movs	r1, #254
 724 0062 0548     		ldr	r0, .L37+8
 725 0064 FFF7FEFF 		bl	_Error_Handler
 726              	.L36:
 255:E:/LiteOS/LiteOS_Lab/targets/STM32L431_BearPi/Hardware/Src\hal_qspi_flash.c ****   }
 256:E:/LiteOS/LiteOS_Lab/targets/STM32L431_BearPi/Hardware/Src\hal_qspi_flash.c ****    
 257:E:/LiteOS/LiteOS_Lab/targets/STM32L431_BearPi/Hardware/Src\hal_qspi_flash.c **** }
 727              		.loc 1 257 0
 728 0068 00BF     		nop
 729 006a 0837     		adds	r7, r7, #8
 730              	.LCFI47:
 731              		.cfi_def_cfa_offset 8
 732 006c BD46     		mov	sp, r7
 733              	.LCFI48:
 734              		.cfi_def_cfa_register 13
 735              		@ sp needed
 736 006e 80BD     		pop	{r7, pc}
 737              	.L38:
 738              		.align	2
 739              	.L37:
 740 0070 00000000 		.word	hqspi
 741 0074 001000A0 		.word	-1610608640
 742 0078 00000000 		.word	.LC0
 743              		.cfi_endproc
 744              	.LFE142:
 746              		.section	.text.hal_spi_flash_erase,"ax",%progbits
 747              		.align	1
 748              		.global	hal_spi_flash_erase
 749              		.syntax unified
 750              		.thumb
 751              		.thumb_func
 752              		.fpu fpv4-sp-d16
 754              	hal_spi_flash_erase:
 755              	.LFB143:
 258:E:/LiteOS/LiteOS_Lab/targets/STM32L431_BearPi/Hardware/Src\hal_qspi_flash.c **** 
 259:E:/LiteOS/LiteOS_Lab/targets/STM32L431_BearPi/Hardware/Src\hal_qspi_flash.c **** int hal_spi_flash_erase(uint32_t addr, int32_t len)
 260:E:/LiteOS/LiteOS_Lab/targets/STM32L431_BearPi/Hardware/Src\hal_qspi_flash.c **** {
 756              		.loc 1 260 0
 757              		.cfi_startproc
 758              		@ args = 0, pretend = 0, frame = 24
 759              		@ frame_needed = 1, uses_anonymous_args = 0
 760 0000 80B5     		push	{r7, lr}
 761              	.LCFI49:
 762              		.cfi_def_cfa_offset 8
 763              		.cfi_offset 7, -8
 764              		.cfi_offset 14, -4
ARM GAS  C:\Users\user\AppData\Local\Temp\ccGlcwic.s 			page 34


 765 0002 86B0     		sub	sp, sp, #24
 766              	.LCFI50:
 767              		.cfi_def_cfa_offset 32
 768 0004 00AF     		add	r7, sp, #0
 769              	.LCFI51:
 770              		.cfi_def_cfa_register 7
 771 0006 7860     		str	r0, [r7, #4]
 772 0008 3960     		str	r1, [r7]
 261:E:/LiteOS/LiteOS_Lab/targets/STM32L431_BearPi/Hardware/Src\hal_qspi_flash.c ****     uint32_t begin;
 262:E:/LiteOS/LiteOS_Lab/targets/STM32L431_BearPi/Hardware/Src\hal_qspi_flash.c ****     uint32_t end;
 263:E:/LiteOS/LiteOS_Lab/targets/STM32L431_BearPi/Hardware/Src\hal_qspi_flash.c ****     int i;
 264:E:/LiteOS/LiteOS_Lab/targets/STM32L431_BearPi/Hardware/Src\hal_qspi_flash.c **** 
 265:E:/LiteOS/LiteOS_Lab/targets/STM32L431_BearPi/Hardware/Src\hal_qspi_flash.c ****     if (len < 0
 773              		.loc 1 265 0
 774 000a 3B68     		ldr	r3, [r7]
 775 000c 002B     		cmp	r3, #0
 776 000e 09DB     		blt	.L40
 266:E:/LiteOS/LiteOS_Lab/targets/STM32L431_BearPi/Hardware/Src\hal_qspi_flash.c ****         || addr > QSPI_FLASH_TOTAL_SIZE
 777              		.loc 1 266 0
 778 0010 7B68     		ldr	r3, [r7, #4]
 779 0012 B3F5000F 		cmp	r3, #8388608
 780 0016 05D2     		bcs	.L40
 267:E:/LiteOS/LiteOS_Lab/targets/STM32L431_BearPi/Hardware/Src\hal_qspi_flash.c ****         || addr + len > QSPI_FLASH_TOTAL_SIZE)
 781              		.loc 1 267 0
 782 0018 3A68     		ldr	r2, [r7]
 783 001a 7B68     		ldr	r3, [r7, #4]
 784 001c 1344     		add	r3, r3, r2
 785 001e B3F5000F 		cmp	r3, #8388608
 786 0022 02D3     		bcc	.L41
 787              	.L40:
 268:E:/LiteOS/LiteOS_Lab/targets/STM32L431_BearPi/Hardware/Src\hal_qspi_flash.c ****     {
 269:E:/LiteOS/LiteOS_Lab/targets/STM32L431_BearPi/Hardware/Src\hal_qspi_flash.c ****         return -1;
 788              		.loc 1 269 0
 789 0024 4FF0FF33 		mov	r3, #-1
 790 0028 25E0     		b	.L42
 791              	.L41:
 270:E:/LiteOS/LiteOS_Lab/targets/STM32L431_BearPi/Hardware/Src\hal_qspi_flash.c ****     }
 271:E:/LiteOS/LiteOS_Lab/targets/STM32L431_BearPi/Hardware/Src\hal_qspi_flash.c **** 
 272:E:/LiteOS/LiteOS_Lab/targets/STM32L431_BearPi/Hardware/Src\hal_qspi_flash.c ****     begin = addr / QSPI_FLASH_SECTOR * QSPI_FLASH_SECTOR;
 792              		.loc 1 272 0
 793 002a 7B68     		ldr	r3, [r7, #4]
 794 002c 23F47F63 		bic	r3, r3, #4080
 795 0030 23F00F03 		bic	r3, r3, #15
 796 0034 3B61     		str	r3, [r7, #16]
 273:E:/LiteOS/LiteOS_Lab/targets/STM32L431_BearPi/Hardware/Src\hal_qspi_flash.c ****     end = (addr + len - 1) / QSPI_FLASH_SECTOR * QSPI_FLASH_SECTOR;
 797              		.loc 1 273 0
 798 0036 3A68     		ldr	r2, [r7]
 799 0038 7B68     		ldr	r3, [r7, #4]
 800 003a 1344     		add	r3, r3, r2
 801 003c 013B     		subs	r3, r3, #1
 802 003e 23F47F63 		bic	r3, r3, #4080
 803 0042 23F00F03 		bic	r3, r3, #15
 804 0046 FB60     		str	r3, [r7, #12]
 274:E:/LiteOS/LiteOS_Lab/targets/STM32L431_BearPi/Hardware/Src\hal_qspi_flash.c **** 
 275:E:/LiteOS/LiteOS_Lab/targets/STM32L431_BearPi/Hardware/Src\hal_qspi_flash.c ****     for (i = begin; i <= end; i += QSPI_FLASH_SECTOR)
 805              		.loc 1 275 0
 806 0048 3B69     		ldr	r3, [r7, #16]
ARM GAS  C:\Users\user\AppData\Local\Temp\ccGlcwic.s 			page 35


 807 004a 7B61     		str	r3, [r7, #20]
 808 004c 0EE0     		b	.L43
 809              	.L45:
 276:E:/LiteOS/LiteOS_Lab/targets/STM32L431_BearPi/Hardware/Src\hal_qspi_flash.c ****     {
 277:E:/LiteOS/LiteOS_Lab/targets/STM32L431_BearPi/Hardware/Src\hal_qspi_flash.c ****         if (prv_spi_flash_erase_sector(i) == -1)
 810              		.loc 1 277 0
 811 004e 7B69     		ldr	r3, [r7, #20]
 812 0050 1846     		mov	r0, r3
 813 0052 FFF7FEFF 		bl	prv_spi_flash_erase_sector
 814 0056 0346     		mov	r3, r0
 815 0058 B3F1FF3F 		cmp	r3, #-1
 816 005c 02D1     		bne	.L44
 278:E:/LiteOS/LiteOS_Lab/targets/STM32L431_BearPi/Hardware/Src\hal_qspi_flash.c ****         {
 279:E:/LiteOS/LiteOS_Lab/targets/STM32L431_BearPi/Hardware/Src\hal_qspi_flash.c ****             return -1;
 817              		.loc 1 279 0
 818 005e 4FF0FF33 		mov	r3, #-1
 819 0062 08E0     		b	.L42
 820              	.L44:
 275:E:/LiteOS/LiteOS_Lab/targets/STM32L431_BearPi/Hardware/Src\hal_qspi_flash.c ****     {
 821              		.loc 1 275 0 discriminator 2
 822 0064 7B69     		ldr	r3, [r7, #20]
 823 0066 03F58053 		add	r3, r3, #4096
 824 006a 7B61     		str	r3, [r7, #20]
 825              	.L43:
 275:E:/LiteOS/LiteOS_Lab/targets/STM32L431_BearPi/Hardware/Src\hal_qspi_flash.c ****     {
 826              		.loc 1 275 0 is_stmt 0 discriminator 1
 827 006c 7B69     		ldr	r3, [r7, #20]
 828 006e FA68     		ldr	r2, [r7, #12]
 829 0070 9A42     		cmp	r2, r3
 830 0072 ECD2     		bcs	.L45
 280:E:/LiteOS/LiteOS_Lab/targets/STM32L431_BearPi/Hardware/Src\hal_qspi_flash.c ****         }
 281:E:/LiteOS/LiteOS_Lab/targets/STM32L431_BearPi/Hardware/Src\hal_qspi_flash.c ****     }
 282:E:/LiteOS/LiteOS_Lab/targets/STM32L431_BearPi/Hardware/Src\hal_qspi_flash.c **** 
 283:E:/LiteOS/LiteOS_Lab/targets/STM32L431_BearPi/Hardware/Src\hal_qspi_flash.c ****     return 0;
 831              		.loc 1 283 0 is_stmt 1
 832 0074 0023     		movs	r3, #0
 833              	.L42:
 284:E:/LiteOS/LiteOS_Lab/targets/STM32L431_BearPi/Hardware/Src\hal_qspi_flash.c **** }
 834              		.loc 1 284 0
 835 0076 1846     		mov	r0, r3
 836 0078 1837     		adds	r7, r7, #24
 837              	.LCFI52:
 838              		.cfi_def_cfa_offset 8
 839 007a BD46     		mov	sp, r7
 840              	.LCFI53:
 841              		.cfi_def_cfa_register 13
 842              		@ sp needed
 843 007c 80BD     		pop	{r7, pc}
 844              		.cfi_endproc
 845              	.LFE143:
 847              		.section	.text.hal_spi_flash_write,"ax",%progbits
 848              		.align	1
 849              		.global	hal_spi_flash_write
 850              		.syntax unified
 851              		.thumb
 852              		.thumb_func
 853              		.fpu fpv4-sp-d16
ARM GAS  C:\Users\user\AppData\Local\Temp\ccGlcwic.s 			page 36


 855              	hal_spi_flash_write:
 856              	.LFB144:
 285:E:/LiteOS/LiteOS_Lab/targets/STM32L431_BearPi/Hardware/Src\hal_qspi_flash.c **** 
 286:E:/LiteOS/LiteOS_Lab/targets/STM32L431_BearPi/Hardware/Src\hal_qspi_flash.c **** int hal_spi_flash_write(const void* buf, int32_t len, uint32_t* location)
 287:E:/LiteOS/LiteOS_Lab/targets/STM32L431_BearPi/Hardware/Src\hal_qspi_flash.c **** {
 857              		.loc 1 287 0
 858              		.cfi_startproc
 859              		@ args = 0, pretend = 0, frame = 48
 860              		@ frame_needed = 1, uses_anonymous_args = 0
 861 0000 80B5     		push	{r7, lr}
 862              	.LCFI54:
 863              		.cfi_def_cfa_offset 8
 864              		.cfi_offset 7, -8
 865              		.cfi_offset 14, -4
 866 0002 8CB0     		sub	sp, sp, #48
 867              	.LCFI55:
 868              		.cfi_def_cfa_offset 56
 869 0004 00AF     		add	r7, sp, #0
 870              	.LCFI56:
 871              		.cfi_def_cfa_register 7
 872 0006 F860     		str	r0, [r7, #12]
 873 0008 B960     		str	r1, [r7, #8]
 874 000a 7A60     		str	r2, [r7, #4]
 288:E:/LiteOS/LiteOS_Lab/targets/STM32L431_BearPi/Hardware/Src\hal_qspi_flash.c ****     const uint8_t* pbuf = (const uint8_t*)buf;
 875              		.loc 1 288 0
 876 000c FB68     		ldr	r3, [r7, #12]
 877 000e 3B62     		str	r3, [r7, #32]
 289:E:/LiteOS/LiteOS_Lab/targets/STM32L431_BearPi/Hardware/Src\hal_qspi_flash.c ****     int page_cnt = 0;
 878              		.loc 1 289 0
 879 0010 0023     		movs	r3, #0
 880 0012 FB61     		str	r3, [r7, #28]
 290:E:/LiteOS/LiteOS_Lab/targets/STM32L431_BearPi/Hardware/Src\hal_qspi_flash.c ****     int remain_cnt = 0;
 881              		.loc 1 290 0
 882 0014 0023     		movs	r3, #0
 883 0016 BB61     		str	r3, [r7, #24]
 291:E:/LiteOS/LiteOS_Lab/targets/STM32L431_BearPi/Hardware/Src\hal_qspi_flash.c ****     int temp = 0;
 884              		.loc 1 291 0
 885 0018 0023     		movs	r3, #0
 886 001a 7B61     		str	r3, [r7, #20]
 292:E:/LiteOS/LiteOS_Lab/targets/STM32L431_BearPi/Hardware/Src\hal_qspi_flash.c ****     uint32_t loc_addr;
 293:E:/LiteOS/LiteOS_Lab/targets/STM32L431_BearPi/Hardware/Src\hal_qspi_flash.c ****     uint8_t addr = 0;
 887              		.loc 1 293 0
 888 001c 0023     		movs	r3, #0
 889 001e FB74     		strb	r3, [r7, #19]
 294:E:/LiteOS/LiteOS_Lab/targets/STM32L431_BearPi/Hardware/Src\hal_qspi_flash.c ****     uint8_t count = 0;
 890              		.loc 1 294 0
 891 0020 0023     		movs	r3, #0
 892 0022 BB74     		strb	r3, [r7, #18]
 295:E:/LiteOS/LiteOS_Lab/targets/STM32L431_BearPi/Hardware/Src\hal_qspi_flash.c ****     int i;
 296:E:/LiteOS/LiteOS_Lab/targets/STM32L431_BearPi/Hardware/Src\hal_qspi_flash.c ****     int ret = 0;
 893              		.loc 1 296 0
 894 0024 0023     		movs	r3, #0
 895 0026 7B62     		str	r3, [r7, #36]
 297:E:/LiteOS/LiteOS_Lab/targets/STM32L431_BearPi/Hardware/Src\hal_qspi_flash.c **** 
 298:E:/LiteOS/LiteOS_Lab/targets/STM32L431_BearPi/Hardware/Src\hal_qspi_flash.c ****     if (NULL == pbuf
 896              		.loc 1 298 0
 897 0028 3B6A     		ldr	r3, [r7, #32]
ARM GAS  C:\Users\user\AppData\Local\Temp\ccGlcwic.s 			page 37


 898 002a 002B     		cmp	r3, #0
 899 002c 11D0     		beq	.L47
 299:E:/LiteOS/LiteOS_Lab/targets/STM32L431_BearPi/Hardware/Src\hal_qspi_flash.c ****         || NULL == location
 900              		.loc 1 299 0
 901 002e 7B68     		ldr	r3, [r7, #4]
 902 0030 002B     		cmp	r3, #0
 903 0032 0ED0     		beq	.L47
 300:E:/LiteOS/LiteOS_Lab/targets/STM32L431_BearPi/Hardware/Src\hal_qspi_flash.c ****         || len < 0
 904              		.loc 1 300 0
 905 0034 BB68     		ldr	r3, [r7, #8]
 906 0036 002B     		cmp	r3, #0
 907 0038 0BDB     		blt	.L47
 301:E:/LiteOS/LiteOS_Lab/targets/STM32L431_BearPi/Hardware/Src\hal_qspi_flash.c ****         || *location > QSPI_FLASH_TOTAL_SIZE
 908              		.loc 1 301 0
 909 003a 7B68     		ldr	r3, [r7, #4]
 910 003c 1B68     		ldr	r3, [r3]
 911 003e B3F5000F 		cmp	r3, #8388608
 912 0042 06D2     		bcs	.L47
 302:E:/LiteOS/LiteOS_Lab/targets/STM32L431_BearPi/Hardware/Src\hal_qspi_flash.c ****         || len + *location > QSPI_FLASH_TOTAL_SIZE)
 913              		.loc 1 302 0
 914 0044 7B68     		ldr	r3, [r7, #4]
 915 0046 1A68     		ldr	r2, [r3]
 916 0048 BB68     		ldr	r3, [r7, #8]
 917 004a 1344     		add	r3, r3, r2
 918 004c B3F5000F 		cmp	r3, #8388608
 919 0050 02D3     		bcc	.L48
 920              	.L47:
 303:E:/LiteOS/LiteOS_Lab/targets/STM32L431_BearPi/Hardware/Src\hal_qspi_flash.c ****     {
 304:E:/LiteOS/LiteOS_Lab/targets/STM32L431_BearPi/Hardware/Src\hal_qspi_flash.c ****         return -1;
 921              		.loc 1 304 0
 922 0052 4FF0FF33 		mov	r3, #-1
 923 0056 E4E0     		b	.L49
 924              	.L48:
 305:E:/LiteOS/LiteOS_Lab/targets/STM32L431_BearPi/Hardware/Src\hal_qspi_flash.c ****     }
 306:E:/LiteOS/LiteOS_Lab/targets/STM32L431_BearPi/Hardware/Src\hal_qspi_flash.c **** 
 307:E:/LiteOS/LiteOS_Lab/targets/STM32L431_BearPi/Hardware/Src\hal_qspi_flash.c ****     loc_addr = *location;
 925              		.loc 1 307 0
 926 0058 7B68     		ldr	r3, [r7, #4]
 927 005a 1B68     		ldr	r3, [r3]
 928 005c FB62     		str	r3, [r7, #44]
 308:E:/LiteOS/LiteOS_Lab/targets/STM32L431_BearPi/Hardware/Src\hal_qspi_flash.c ****     addr = loc_addr % QSPI_FLASH_PAGESIZE;
 929              		.loc 1 308 0
 930 005e FB6A     		ldr	r3, [r7, #44]
 931 0060 FB74     		strb	r3, [r7, #19]
 309:E:/LiteOS/LiteOS_Lab/targets/STM32L431_BearPi/Hardware/Src\hal_qspi_flash.c ****     count = QSPI_FLASH_PAGESIZE - addr;
 932              		.loc 1 309 0
 933 0062 FB7C     		ldrb	r3, [r7, #19]
 934 0064 5B42     		negs	r3, r3
 935 0066 BB74     		strb	r3, [r7, #18]
 310:E:/LiteOS/LiteOS_Lab/targets/STM32L431_BearPi/Hardware/Src\hal_qspi_flash.c ****     page_cnt = len / QSPI_FLASH_PAGESIZE;
 936              		.loc 1 310 0
 937 0068 BB68     		ldr	r3, [r7, #8]
 938 006a 002B     		cmp	r3, #0
 939 006c 00DA     		bge	.L50
 940 006e FF33     		adds	r3, r3, #255
 941              	.L50:
 942 0070 1B12     		asrs	r3, r3, #8
ARM GAS  C:\Users\user\AppData\Local\Temp\ccGlcwic.s 			page 38


 943 0072 FB61     		str	r3, [r7, #28]
 311:E:/LiteOS/LiteOS_Lab/targets/STM32L431_BearPi/Hardware/Src\hal_qspi_flash.c ****     remain_cnt = len % QSPI_FLASH_PAGESIZE;
 944              		.loc 1 311 0
 945 0074 BB68     		ldr	r3, [r7, #8]
 946 0076 5A42     		rsbs	r2, r3, #0
 947 0078 DBB2     		uxtb	r3, r3
 948 007a D2B2     		uxtb	r2, r2
 949 007c 58BF     		it	pl
 950 007e 5342     		rsbpl	r3, r2, #0
 951 0080 BB61     		str	r3, [r7, #24]
 312:E:/LiteOS/LiteOS_Lab/targets/STM32L431_BearPi/Hardware/Src\hal_qspi_flash.c **** 
 313:E:/LiteOS/LiteOS_Lab/targets/STM32L431_BearPi/Hardware/Src\hal_qspi_flash.c ****     if (addr == 0) /* addr is aligned to SPI_FLASH_PAGESIZE */
 952              		.loc 1 313 0
 953 0082 FB7C     		ldrb	r3, [r7, #19]	@ zero_extendqisi2
 954 0084 002B     		cmp	r3, #0
 955 0086 3ED1     		bne	.L51
 314:E:/LiteOS/LiteOS_Lab/targets/STM32L431_BearPi/Hardware/Src\hal_qspi_flash.c ****     {
 315:E:/LiteOS/LiteOS_Lab/targets/STM32L431_BearPi/Hardware/Src\hal_qspi_flash.c ****         if (page_cnt == 0) /* len < SPI_FLASH_PAGESIZE */
 956              		.loc 1 315 0
 957 0088 FB69     		ldr	r3, [r7, #28]
 958 008a 002B     		cmp	r3, #0
 959 008c 0BD1     		bne	.L52
 316:E:/LiteOS/LiteOS_Lab/targets/STM32L431_BearPi/Hardware/Src\hal_qspi_flash.c ****         {
 317:E:/LiteOS/LiteOS_Lab/targets/STM32L431_BearPi/Hardware/Src\hal_qspi_flash.c ****             ret = prv_spi_flash_write_page(pbuf, loc_addr, len);
 960              		.loc 1 317 0
 961 008e BA68     		ldr	r2, [r7, #8]
 962 0090 F96A     		ldr	r1, [r7, #44]
 963 0092 386A     		ldr	r0, [r7, #32]
 964 0094 FFF7FEFF 		bl	prv_spi_flash_write_page
 965 0098 7862     		str	r0, [r7, #36]
 318:E:/LiteOS/LiteOS_Lab/targets/STM32L431_BearPi/Hardware/Src\hal_qspi_flash.c ****             CHECK_RET_RETURN(ret);
 966              		.loc 1 318 0
 967 009a 7B6A     		ldr	r3, [r7, #36]
 968 009c 002B     		cmp	r3, #0
 969 009e 80F2B980 		bge	.L53
 970              		.loc 1 318 0 is_stmt 0 discriminator 1
 971 00a2 7B6A     		ldr	r3, [r7, #36]
 972 00a4 BDE0     		b	.L49
 973              	.L52:
 319:E:/LiteOS/LiteOS_Lab/targets/STM32L431_BearPi/Hardware/Src\hal_qspi_flash.c ****         }
 320:E:/LiteOS/LiteOS_Lab/targets/STM32L431_BearPi/Hardware/Src\hal_qspi_flash.c ****         else /* len > SPI_FLASH_PAGESIZE */
 321:E:/LiteOS/LiteOS_Lab/targets/STM32L431_BearPi/Hardware/Src\hal_qspi_flash.c ****         {
 322:E:/LiteOS/LiteOS_Lab/targets/STM32L431_BearPi/Hardware/Src\hal_qspi_flash.c ****             for (i = 0; i < page_cnt; ++i)
 974              		.loc 1 322 0 is_stmt 1
 975 00a6 0023     		movs	r3, #0
 976 00a8 BB62     		str	r3, [r7, #40]
 977 00aa 17E0     		b	.L54
 978              	.L56:
 323:E:/LiteOS/LiteOS_Lab/targets/STM32L431_BearPi/Hardware/Src\hal_qspi_flash.c ****             {
 324:E:/LiteOS/LiteOS_Lab/targets/STM32L431_BearPi/Hardware/Src\hal_qspi_flash.c ****                 ret = prv_spi_flash_write_page(pbuf + i * QSPI_FLASH_PAGESIZE, loc_addr, QSPI_FLASH
 979              		.loc 1 324 0
 980 00ac BB6A     		ldr	r3, [r7, #40]
 981 00ae 1B02     		lsls	r3, r3, #8
 982 00b0 1A46     		mov	r2, r3
 983 00b2 3B6A     		ldr	r3, [r7, #32]
 984 00b4 1344     		add	r3, r3, r2
 985 00b6 4FF48072 		mov	r2, #256
ARM GAS  C:\Users\user\AppData\Local\Temp\ccGlcwic.s 			page 39


 986 00ba F96A     		ldr	r1, [r7, #44]
 987 00bc 1846     		mov	r0, r3
 988 00be FFF7FEFF 		bl	prv_spi_flash_write_page
 989 00c2 7862     		str	r0, [r7, #36]
 325:E:/LiteOS/LiteOS_Lab/targets/STM32L431_BearPi/Hardware/Src\hal_qspi_flash.c ****                 CHECK_RET_RETURN(ret);
 990              		.loc 1 325 0
 991 00c4 7B6A     		ldr	r3, [r7, #36]
 992 00c6 002B     		cmp	r3, #0
 993 00c8 01DA     		bge	.L55
 994              		.loc 1 325 0 is_stmt 0 discriminator 1
 995 00ca 7B6A     		ldr	r3, [r7, #36]
 996 00cc A9E0     		b	.L49
 997              	.L55:
 326:E:/LiteOS/LiteOS_Lab/targets/STM32L431_BearPi/Hardware/Src\hal_qspi_flash.c ****                 loc_addr += QSPI_FLASH_PAGESIZE;
 998              		.loc 1 326 0 is_stmt 1 discriminator 2
 999 00ce FB6A     		ldr	r3, [r7, #44]
 1000 00d0 03F58073 		add	r3, r3, #256
 1001 00d4 FB62     		str	r3, [r7, #44]
 322:E:/LiteOS/LiteOS_Lab/targets/STM32L431_BearPi/Hardware/Src\hal_qspi_flash.c ****             {
 1002              		.loc 1 322 0 discriminator 2
 1003 00d6 BB6A     		ldr	r3, [r7, #40]
 1004 00d8 0133     		adds	r3, r3, #1
 1005 00da BB62     		str	r3, [r7, #40]
 1006              	.L54:
 322:E:/LiteOS/LiteOS_Lab/targets/STM32L431_BearPi/Hardware/Src\hal_qspi_flash.c ****             {
 1007              		.loc 1 322 0 is_stmt 0 discriminator 1
 1008 00dc BA6A     		ldr	r2, [r7, #40]
 1009 00de FB69     		ldr	r3, [r7, #28]
 1010 00e0 9A42     		cmp	r2, r3
 1011 00e2 E3DB     		blt	.L56
 327:E:/LiteOS/LiteOS_Lab/targets/STM32L431_BearPi/Hardware/Src\hal_qspi_flash.c ****             }
 328:E:/LiteOS/LiteOS_Lab/targets/STM32L431_BearPi/Hardware/Src\hal_qspi_flash.c **** 
 329:E:/LiteOS/LiteOS_Lab/targets/STM32L431_BearPi/Hardware/Src\hal_qspi_flash.c ****             ret = prv_spi_flash_write_page(pbuf + page_cnt * QSPI_FLASH_PAGESIZE, loc_addr, remain_
 1012              		.loc 1 329 0 is_stmt 1
 1013 00e4 FB69     		ldr	r3, [r7, #28]
 1014 00e6 1B02     		lsls	r3, r3, #8
 1015 00e8 1A46     		mov	r2, r3
 1016 00ea 3B6A     		ldr	r3, [r7, #32]
 1017 00ec 1344     		add	r3, r3, r2
 1018 00ee BA69     		ldr	r2, [r7, #24]
 1019 00f0 F96A     		ldr	r1, [r7, #44]
 1020 00f2 1846     		mov	r0, r3
 1021 00f4 FFF7FEFF 		bl	prv_spi_flash_write_page
 1022 00f8 7862     		str	r0, [r7, #36]
 330:E:/LiteOS/LiteOS_Lab/targets/STM32L431_BearPi/Hardware/Src\hal_qspi_flash.c ****             CHECK_RET_RETURN(ret);
 1023              		.loc 1 330 0
 1024 00fa 7B6A     		ldr	r3, [r7, #36]
 1025 00fc 002B     		cmp	r3, #0
 1026 00fe 80F28980 		bge	.L53
 1027              		.loc 1 330 0 is_stmt 0 discriminator 1
 1028 0102 7B6A     		ldr	r3, [r7, #36]
 1029 0104 8DE0     		b	.L49
 1030              	.L51:
 331:E:/LiteOS/LiteOS_Lab/targets/STM32L431_BearPi/Hardware/Src\hal_qspi_flash.c ****         }
 332:E:/LiteOS/LiteOS_Lab/targets/STM32L431_BearPi/Hardware/Src\hal_qspi_flash.c ****     }
 333:E:/LiteOS/LiteOS_Lab/targets/STM32L431_BearPi/Hardware/Src\hal_qspi_flash.c ****     else /* addr is not aligned to SPI_FLASH_PAGESIZE */
 334:E:/LiteOS/LiteOS_Lab/targets/STM32L431_BearPi/Hardware/Src\hal_qspi_flash.c ****     {
ARM GAS  C:\Users\user\AppData\Local\Temp\ccGlcwic.s 			page 40


 335:E:/LiteOS/LiteOS_Lab/targets/STM32L431_BearPi/Hardware/Src\hal_qspi_flash.c ****         if (page_cnt == 0) /* len < SPI_FLASH_PAGESIZE */
 1031              		.loc 1 335 0 is_stmt 1
 1032 0106 FB69     		ldr	r3, [r7, #28]
 1033 0108 002B     		cmp	r3, #0
 1034 010a 2ED1     		bne	.L57
 336:E:/LiteOS/LiteOS_Lab/targets/STM32L431_BearPi/Hardware/Src\hal_qspi_flash.c ****         {
 337:E:/LiteOS/LiteOS_Lab/targets/STM32L431_BearPi/Hardware/Src\hal_qspi_flash.c ****             if (remain_cnt > count) /* (len + loc_addr) > SPI_FLASH_PAGESIZE */
 1035              		.loc 1 337 0
 1036 010c BB7C     		ldrb	r3, [r7, #18]	@ zero_extendqisi2
 1037 010e BA69     		ldr	r2, [r7, #24]
 1038 0110 9A42     		cmp	r2, r3
 1039 0112 1FDD     		ble	.L58
 338:E:/LiteOS/LiteOS_Lab/targets/STM32L431_BearPi/Hardware/Src\hal_qspi_flash.c ****             {
 339:E:/LiteOS/LiteOS_Lab/targets/STM32L431_BearPi/Hardware/Src\hal_qspi_flash.c ****                 temp = remain_cnt - count;
 1040              		.loc 1 339 0
 1041 0114 BB7C     		ldrb	r3, [r7, #18]	@ zero_extendqisi2
 1042 0116 BA69     		ldr	r2, [r7, #24]
 1043 0118 D31A     		subs	r3, r2, r3
 1044 011a 7B61     		str	r3, [r7, #20]
 340:E:/LiteOS/LiteOS_Lab/targets/STM32L431_BearPi/Hardware/Src\hal_qspi_flash.c **** 
 341:E:/LiteOS/LiteOS_Lab/targets/STM32L431_BearPi/Hardware/Src\hal_qspi_flash.c ****                 ret = prv_spi_flash_write_page(pbuf, loc_addr, count);
 1045              		.loc 1 341 0
 1046 011c BB7C     		ldrb	r3, [r7, #18]	@ zero_extendqisi2
 1047 011e 1A46     		mov	r2, r3
 1048 0120 F96A     		ldr	r1, [r7, #44]
 1049 0122 386A     		ldr	r0, [r7, #32]
 1050 0124 FFF7FEFF 		bl	prv_spi_flash_write_page
 1051 0128 7862     		str	r0, [r7, #36]
 342:E:/LiteOS/LiteOS_Lab/targets/STM32L431_BearPi/Hardware/Src\hal_qspi_flash.c ****                 CHECK_RET_RETURN(ret);
 1052              		.loc 1 342 0
 1053 012a 7B6A     		ldr	r3, [r7, #36]
 1054 012c 002B     		cmp	r3, #0
 1055 012e 01DA     		bge	.L59
 1056              		.loc 1 342 0 is_stmt 0 discriminator 1
 1057 0130 7B6A     		ldr	r3, [r7, #36]
 1058 0132 76E0     		b	.L49
 1059              	.L59:
 343:E:/LiteOS/LiteOS_Lab/targets/STM32L431_BearPi/Hardware/Src\hal_qspi_flash.c **** 
 344:E:/LiteOS/LiteOS_Lab/targets/STM32L431_BearPi/Hardware/Src\hal_qspi_flash.c ****                 ret = prv_spi_flash_write_page(pbuf + count, loc_addr + count, temp);
 1060              		.loc 1 344 0 is_stmt 1
 1061 0134 BB7C     		ldrb	r3, [r7, #18]	@ zero_extendqisi2
 1062 0136 3A6A     		ldr	r2, [r7, #32]
 1063 0138 D018     		adds	r0, r2, r3
 1064 013a BA7C     		ldrb	r2, [r7, #18]	@ zero_extendqisi2
 1065 013c FB6A     		ldr	r3, [r7, #44]
 1066 013e 1344     		add	r3, r3, r2
 1067 0140 7A69     		ldr	r2, [r7, #20]
 1068 0142 1946     		mov	r1, r3
 1069 0144 FFF7FEFF 		bl	prv_spi_flash_write_page
 1070 0148 7862     		str	r0, [r7, #36]
 345:E:/LiteOS/LiteOS_Lab/targets/STM32L431_BearPi/Hardware/Src\hal_qspi_flash.c ****                 CHECK_RET_RETURN(ret);
 1071              		.loc 1 345 0
 1072 014a 7B6A     		ldr	r3, [r7, #36]
 1073 014c 002B     		cmp	r3, #0
 1074 014e 61DA     		bge	.L53
 1075              		.loc 1 345 0 is_stmt 0 discriminator 1
 1076 0150 7B6A     		ldr	r3, [r7, #36]
ARM GAS  C:\Users\user\AppData\Local\Temp\ccGlcwic.s 			page 41


 1077 0152 66E0     		b	.L49
 1078              	.L58:
 346:E:/LiteOS/LiteOS_Lab/targets/STM32L431_BearPi/Hardware/Src\hal_qspi_flash.c ****             }
 347:E:/LiteOS/LiteOS_Lab/targets/STM32L431_BearPi/Hardware/Src\hal_qspi_flash.c ****             else
 348:E:/LiteOS/LiteOS_Lab/targets/STM32L431_BearPi/Hardware/Src\hal_qspi_flash.c ****             {
 349:E:/LiteOS/LiteOS_Lab/targets/STM32L431_BearPi/Hardware/Src\hal_qspi_flash.c ****                 ret = prv_spi_flash_write_page(pbuf, loc_addr, len);
 1079              		.loc 1 349 0 is_stmt 1
 1080 0154 BA68     		ldr	r2, [r7, #8]
 1081 0156 F96A     		ldr	r1, [r7, #44]
 1082 0158 386A     		ldr	r0, [r7, #32]
 1083 015a FFF7FEFF 		bl	prv_spi_flash_write_page
 1084 015e 7862     		str	r0, [r7, #36]
 350:E:/LiteOS/LiteOS_Lab/targets/STM32L431_BearPi/Hardware/Src\hal_qspi_flash.c ****                 CHECK_RET_RETURN(ret);
 1085              		.loc 1 350 0
 1086 0160 7B6A     		ldr	r3, [r7, #36]
 1087 0162 002B     		cmp	r3, #0
 1088 0164 56DA     		bge	.L53
 1089              		.loc 1 350 0 is_stmt 0 discriminator 1
 1090 0166 7B6A     		ldr	r3, [r7, #36]
 1091 0168 5BE0     		b	.L49
 1092              	.L57:
 351:E:/LiteOS/LiteOS_Lab/targets/STM32L431_BearPi/Hardware/Src\hal_qspi_flash.c ****             }
 352:E:/LiteOS/LiteOS_Lab/targets/STM32L431_BearPi/Hardware/Src\hal_qspi_flash.c ****         }
 353:E:/LiteOS/LiteOS_Lab/targets/STM32L431_BearPi/Hardware/Src\hal_qspi_flash.c ****         else /* len > SPI_FLASH_PAGESIZE */
 354:E:/LiteOS/LiteOS_Lab/targets/STM32L431_BearPi/Hardware/Src\hal_qspi_flash.c ****         {
 355:E:/LiteOS/LiteOS_Lab/targets/STM32L431_BearPi/Hardware/Src\hal_qspi_flash.c ****             len -= count;
 1093              		.loc 1 355 0 is_stmt 1
 1094 016a BB7C     		ldrb	r3, [r7, #18]	@ zero_extendqisi2
 1095 016c BA68     		ldr	r2, [r7, #8]
 1096 016e D31A     		subs	r3, r2, r3
 1097 0170 BB60     		str	r3, [r7, #8]
 356:E:/LiteOS/LiteOS_Lab/targets/STM32L431_BearPi/Hardware/Src\hal_qspi_flash.c ****             page_cnt = len / QSPI_FLASH_PAGESIZE;
 1098              		.loc 1 356 0
 1099 0172 BB68     		ldr	r3, [r7, #8]
 1100 0174 002B     		cmp	r3, #0
 1101 0176 00DA     		bge	.L60
 1102 0178 FF33     		adds	r3, r3, #255
 1103              	.L60:
 1104 017a 1B12     		asrs	r3, r3, #8
 1105 017c FB61     		str	r3, [r7, #28]
 357:E:/LiteOS/LiteOS_Lab/targets/STM32L431_BearPi/Hardware/Src\hal_qspi_flash.c ****             remain_cnt = len % QSPI_FLASH_PAGESIZE;
 1106              		.loc 1 357 0
 1107 017e BB68     		ldr	r3, [r7, #8]
 1108 0180 5A42     		rsbs	r2, r3, #0
 1109 0182 DBB2     		uxtb	r3, r3
 1110 0184 D2B2     		uxtb	r2, r2
 1111 0186 58BF     		it	pl
 1112 0188 5342     		rsbpl	r3, r2, #0
 1113 018a BB61     		str	r3, [r7, #24]
 358:E:/LiteOS/LiteOS_Lab/targets/STM32L431_BearPi/Hardware/Src\hal_qspi_flash.c **** 
 359:E:/LiteOS/LiteOS_Lab/targets/STM32L431_BearPi/Hardware/Src\hal_qspi_flash.c ****             ret = prv_spi_flash_write_page(pbuf, loc_addr, count);
 1114              		.loc 1 359 0
 1115 018c BB7C     		ldrb	r3, [r7, #18]	@ zero_extendqisi2
 1116 018e 1A46     		mov	r2, r3
 1117 0190 F96A     		ldr	r1, [r7, #44]
 1118 0192 386A     		ldr	r0, [r7, #32]
 1119 0194 FFF7FEFF 		bl	prv_spi_flash_write_page
ARM GAS  C:\Users\user\AppData\Local\Temp\ccGlcwic.s 			page 42


 1120 0198 7862     		str	r0, [r7, #36]
 360:E:/LiteOS/LiteOS_Lab/targets/STM32L431_BearPi/Hardware/Src\hal_qspi_flash.c ****             CHECK_RET_RETURN(ret);
 1121              		.loc 1 360 0
 1122 019a 7B6A     		ldr	r3, [r7, #36]
 1123 019c 002B     		cmp	r3, #0
 1124 019e 01DA     		bge	.L61
 1125              		.loc 1 360 0 is_stmt 0 discriminator 1
 1126 01a0 7B6A     		ldr	r3, [r7, #36]
 1127 01a2 3EE0     		b	.L49
 1128              	.L61:
 361:E:/LiteOS/LiteOS_Lab/targets/STM32L431_BearPi/Hardware/Src\hal_qspi_flash.c ****             loc_addr += count;
 1129              		.loc 1 361 0 is_stmt 1
 1130 01a4 BB7C     		ldrb	r3, [r7, #18]	@ zero_extendqisi2
 1131 01a6 FA6A     		ldr	r2, [r7, #44]
 1132 01a8 1344     		add	r3, r3, r2
 1133 01aa FB62     		str	r3, [r7, #44]
 362:E:/LiteOS/LiteOS_Lab/targets/STM32L431_BearPi/Hardware/Src\hal_qspi_flash.c **** 
 363:E:/LiteOS/LiteOS_Lab/targets/STM32L431_BearPi/Hardware/Src\hal_qspi_flash.c ****             for (i = 0; i < page_cnt; ++i)
 1134              		.loc 1 363 0
 1135 01ac 0023     		movs	r3, #0
 1136 01ae BB62     		str	r3, [r7, #40]
 1137 01b0 18E0     		b	.L62
 1138              	.L64:
 364:E:/LiteOS/LiteOS_Lab/targets/STM32L431_BearPi/Hardware/Src\hal_qspi_flash.c ****             {
 365:E:/LiteOS/LiteOS_Lab/targets/STM32L431_BearPi/Hardware/Src\hal_qspi_flash.c ****                 ret = prv_spi_flash_write_page(pbuf + count + i * QSPI_FLASH_PAGESIZE, loc_addr, QS
 1139              		.loc 1 365 0
 1140 01b2 BB7C     		ldrb	r3, [r7, #18]	@ zero_extendqisi2
 1141 01b4 BA6A     		ldr	r2, [r7, #40]
 1142 01b6 1202     		lsls	r2, r2, #8
 1143 01b8 1344     		add	r3, r3, r2
 1144 01ba 3A6A     		ldr	r2, [r7, #32]
 1145 01bc 1344     		add	r3, r3, r2
 1146 01be 4FF48072 		mov	r2, #256
 1147 01c2 F96A     		ldr	r1, [r7, #44]
 1148 01c4 1846     		mov	r0, r3
 1149 01c6 FFF7FEFF 		bl	prv_spi_flash_write_page
 1150 01ca 7862     		str	r0, [r7, #36]
 366:E:/LiteOS/LiteOS_Lab/targets/STM32L431_BearPi/Hardware/Src\hal_qspi_flash.c ****                 CHECK_RET_RETURN(ret);
 1151              		.loc 1 366 0
 1152 01cc 7B6A     		ldr	r3, [r7, #36]
 1153 01ce 002B     		cmp	r3, #0
 1154 01d0 01DA     		bge	.L63
 1155              		.loc 1 366 0 is_stmt 0 discriminator 1
 1156 01d2 7B6A     		ldr	r3, [r7, #36]
 1157 01d4 25E0     		b	.L49
 1158              	.L63:
 367:E:/LiteOS/LiteOS_Lab/targets/STM32L431_BearPi/Hardware/Src\hal_qspi_flash.c ****                 loc_addr += QSPI_FLASH_PAGESIZE;
 1159              		.loc 1 367 0 is_stmt 1 discriminator 2
 1160 01d6 FB6A     		ldr	r3, [r7, #44]
 1161 01d8 03F58073 		add	r3, r3, #256
 1162 01dc FB62     		str	r3, [r7, #44]
 363:E:/LiteOS/LiteOS_Lab/targets/STM32L431_BearPi/Hardware/Src\hal_qspi_flash.c ****             {
 1163              		.loc 1 363 0 discriminator 2
 1164 01de BB6A     		ldr	r3, [r7, #40]
 1165 01e0 0133     		adds	r3, r3, #1
 1166 01e2 BB62     		str	r3, [r7, #40]
 1167              	.L62:
ARM GAS  C:\Users\user\AppData\Local\Temp\ccGlcwic.s 			page 43


 363:E:/LiteOS/LiteOS_Lab/targets/STM32L431_BearPi/Hardware/Src\hal_qspi_flash.c ****             {
 1168              		.loc 1 363 0 is_stmt 0 discriminator 1
 1169 01e4 BA6A     		ldr	r2, [r7, #40]
 1170 01e6 FB69     		ldr	r3, [r7, #28]
 1171 01e8 9A42     		cmp	r2, r3
 1172 01ea E2DB     		blt	.L64
 368:E:/LiteOS/LiteOS_Lab/targets/STM32L431_BearPi/Hardware/Src\hal_qspi_flash.c ****             }
 369:E:/LiteOS/LiteOS_Lab/targets/STM32L431_BearPi/Hardware/Src\hal_qspi_flash.c **** 
 370:E:/LiteOS/LiteOS_Lab/targets/STM32L431_BearPi/Hardware/Src\hal_qspi_flash.c ****             if (remain_cnt != 0)
 1173              		.loc 1 370 0 is_stmt 1
 1174 01ec BB69     		ldr	r3, [r7, #24]
 1175 01ee 002B     		cmp	r3, #0
 1176 01f0 10D0     		beq	.L53
 371:E:/LiteOS/LiteOS_Lab/targets/STM32L431_BearPi/Hardware/Src\hal_qspi_flash.c ****             {
 372:E:/LiteOS/LiteOS_Lab/targets/STM32L431_BearPi/Hardware/Src\hal_qspi_flash.c ****                 ret = prv_spi_flash_write_page(pbuf + count + page_cnt * QSPI_FLASH_PAGESIZE, loc_a
 1177              		.loc 1 372 0
 1178 01f2 BB7C     		ldrb	r3, [r7, #18]	@ zero_extendqisi2
 1179 01f4 FA69     		ldr	r2, [r7, #28]
 1180 01f6 1202     		lsls	r2, r2, #8
 1181 01f8 1344     		add	r3, r3, r2
 1182 01fa 3A6A     		ldr	r2, [r7, #32]
 1183 01fc 1344     		add	r3, r3, r2
 1184 01fe BA69     		ldr	r2, [r7, #24]
 1185 0200 F96A     		ldr	r1, [r7, #44]
 1186 0202 1846     		mov	r0, r3
 1187 0204 FFF7FEFF 		bl	prv_spi_flash_write_page
 1188 0208 7862     		str	r0, [r7, #36]
 373:E:/LiteOS/LiteOS_Lab/targets/STM32L431_BearPi/Hardware/Src\hal_qspi_flash.c ****                 CHECK_RET_RETURN(ret);
 1189              		.loc 1 373 0
 1190 020a 7B6A     		ldr	r3, [r7, #36]
 1191 020c 002B     		cmp	r3, #0
 1192 020e 01DA     		bge	.L53
 1193              		.loc 1 373 0 is_stmt 0 discriminator 1
 1194 0210 7B6A     		ldr	r3, [r7, #36]
 1195 0212 06E0     		b	.L49
 1196              	.L53:
 374:E:/LiteOS/LiteOS_Lab/targets/STM32L431_BearPi/Hardware/Src\hal_qspi_flash.c ****             }
 375:E:/LiteOS/LiteOS_Lab/targets/STM32L431_BearPi/Hardware/Src\hal_qspi_flash.c ****         }
 376:E:/LiteOS/LiteOS_Lab/targets/STM32L431_BearPi/Hardware/Src\hal_qspi_flash.c ****     }
 377:E:/LiteOS/LiteOS_Lab/targets/STM32L431_BearPi/Hardware/Src\hal_qspi_flash.c **** 
 378:E:/LiteOS/LiteOS_Lab/targets/STM32L431_BearPi/Hardware/Src\hal_qspi_flash.c ****     *location += len;
 1197              		.loc 1 378 0 is_stmt 1
 1198 0214 7B68     		ldr	r3, [r7, #4]
 1199 0216 1A68     		ldr	r2, [r3]
 1200 0218 BB68     		ldr	r3, [r7, #8]
 1201 021a 1A44     		add	r2, r2, r3
 1202 021c 7B68     		ldr	r3, [r7, #4]
 1203 021e 1A60     		str	r2, [r3]
 379:E:/LiteOS/LiteOS_Lab/targets/STM32L431_BearPi/Hardware/Src\hal_qspi_flash.c ****     return ret;
 1204              		.loc 1 379 0
 1205 0220 7B6A     		ldr	r3, [r7, #36]
 1206              	.L49:
 380:E:/LiteOS/LiteOS_Lab/targets/STM32L431_BearPi/Hardware/Src\hal_qspi_flash.c **** 		
 381:E:/LiteOS/LiteOS_Lab/targets/STM32L431_BearPi/Hardware/Src\hal_qspi_flash.c **** }
 1207              		.loc 1 381 0
 1208 0222 1846     		mov	r0, r3
 1209 0224 3037     		adds	r7, r7, #48
ARM GAS  C:\Users\user\AppData\Local\Temp\ccGlcwic.s 			page 44


 1210              	.LCFI57:
 1211              		.cfi_def_cfa_offset 8
 1212 0226 BD46     		mov	sp, r7
 1213              	.LCFI58:
 1214              		.cfi_def_cfa_register 13
 1215              		@ sp needed
 1216 0228 80BD     		pop	{r7, pc}
 1217              		.cfi_endproc
 1218              	.LFE144:
 1220              		.section	.text.hal_spi_flash_erase_write,"ax",%progbits
 1221              		.align	1
 1222              		.global	hal_spi_flash_erase_write
 1223              		.syntax unified
 1224              		.thumb
 1225              		.thumb_func
 1226              		.fpu fpv4-sp-d16
 1228              	hal_spi_flash_erase_write:
 1229              	.LFB145:
 382:E:/LiteOS/LiteOS_Lab/targets/STM32L431_BearPi/Hardware/Src\hal_qspi_flash.c **** 
 383:E:/LiteOS/LiteOS_Lab/targets/STM32L431_BearPi/Hardware/Src\hal_qspi_flash.c **** int hal_spi_flash_erase_write(const void* buf, int32_t len, uint32_t location)
 384:E:/LiteOS/LiteOS_Lab/targets/STM32L431_BearPi/Hardware/Src\hal_qspi_flash.c **** {
 1230              		.loc 1 384 0
 1231              		.cfi_startproc
 1232              		@ args = 0, pretend = 0, frame = 24
 1233              		@ frame_needed = 1, uses_anonymous_args = 0
 1234 0000 80B5     		push	{r7, lr}
 1235              	.LCFI59:
 1236              		.cfi_def_cfa_offset 8
 1237              		.cfi_offset 7, -8
 1238              		.cfi_offset 14, -4
 1239 0002 86B0     		sub	sp, sp, #24
 1240              	.LCFI60:
 1241              		.cfi_def_cfa_offset 32
 1242 0004 00AF     		add	r7, sp, #0
 1243              	.LCFI61:
 1244              		.cfi_def_cfa_register 7
 1245 0006 F860     		str	r0, [r7, #12]
 1246 0008 B960     		str	r1, [r7, #8]
 1247 000a 7A60     		str	r2, [r7, #4]
 385:E:/LiteOS/LiteOS_Lab/targets/STM32L431_BearPi/Hardware/Src\hal_qspi_flash.c ****     int ret = 0;
 1248              		.loc 1 385 0
 1249 000c 0023     		movs	r3, #0
 1250 000e 7B61     		str	r3, [r7, #20]
 386:E:/LiteOS/LiteOS_Lab/targets/STM32L431_BearPi/Hardware/Src\hal_qspi_flash.c **** 
 387:E:/LiteOS/LiteOS_Lab/targets/STM32L431_BearPi/Hardware/Src\hal_qspi_flash.c ****     ret = hal_spi_flash_erase(location, len);
 1251              		.loc 1 387 0
 1252 0010 7B68     		ldr	r3, [r7, #4]
 1253 0012 B968     		ldr	r1, [r7, #8]
 1254 0014 1846     		mov	r0, r3
 1255 0016 FFF7FEFF 		bl	hal_spi_flash_erase
 1256 001a 7861     		str	r0, [r7, #20]
 388:E:/LiteOS/LiteOS_Lab/targets/STM32L431_BearPi/Hardware/Src\hal_qspi_flash.c ****     CHECK_RET_RETURN(ret);
 1257              		.loc 1 388 0
 1258 001c 7B69     		ldr	r3, [r7, #20]
 1259 001e 002B     		cmp	r3, #0
 1260 0020 01DA     		bge	.L66
 1261              		.loc 1 388 0 is_stmt 0 discriminator 1
ARM GAS  C:\Users\user\AppData\Local\Temp\ccGlcwic.s 			page 45


 1262 0022 7B69     		ldr	r3, [r7, #20]
 1263 0024 07E0     		b	.L67
 1264              	.L66:
 389:E:/LiteOS/LiteOS_Lab/targets/STM32L431_BearPi/Hardware/Src\hal_qspi_flash.c ****     ret = hal_spi_flash_write(buf, len, &location);
 1265              		.loc 1 389 0 is_stmt 1
 1266 0026 3B1D     		adds	r3, r7, #4
 1267 0028 1A46     		mov	r2, r3
 1268 002a B968     		ldr	r1, [r7, #8]
 1269 002c F868     		ldr	r0, [r7, #12]
 1270 002e FFF7FEFF 		bl	hal_spi_flash_write
 1271 0032 7861     		str	r0, [r7, #20]
 390:E:/LiteOS/LiteOS_Lab/targets/STM32L431_BearPi/Hardware/Src\hal_qspi_flash.c **** 
 391:E:/LiteOS/LiteOS_Lab/targets/STM32L431_BearPi/Hardware/Src\hal_qspi_flash.c ****     return ret;
 1272              		.loc 1 391 0
 1273 0034 7B69     		ldr	r3, [r7, #20]
 1274              	.L67:
 392:E:/LiteOS/LiteOS_Lab/targets/STM32L431_BearPi/Hardware/Src\hal_qspi_flash.c **** }
 1275              		.loc 1 392 0
 1276 0036 1846     		mov	r0, r3
 1277 0038 1837     		adds	r7, r7, #24
 1278              	.LCFI62:
 1279              		.cfi_def_cfa_offset 8
 1280 003a BD46     		mov	sp, r7
 1281              	.LCFI63:
 1282              		.cfi_def_cfa_register 13
 1283              		@ sp needed
 1284 003c 80BD     		pop	{r7, pc}
 1285              		.cfi_endproc
 1286              	.LFE145:
 1288              		.section	.text.hal_spi_flash_read,"ax",%progbits
 1289              		.align	1
 1290              		.global	hal_spi_flash_read
 1291              		.syntax unified
 1292              		.thumb
 1293              		.thumb_func
 1294              		.fpu fpv4-sp-d16
 1296              	hal_spi_flash_read:
 1297              	.LFB146:
 393:E:/LiteOS/LiteOS_Lab/targets/STM32L431_BearPi/Hardware/Src\hal_qspi_flash.c **** 
 394:E:/LiteOS/LiteOS_Lab/targets/STM32L431_BearPi/Hardware/Src\hal_qspi_flash.c **** int hal_spi_flash_read(void* buf, int32_t len, uint32_t location)
 395:E:/LiteOS/LiteOS_Lab/targets/STM32L431_BearPi/Hardware/Src\hal_qspi_flash.c **** {
 1298              		.loc 1 395 0
 1299              		.cfi_startproc
 1300              		@ args = 0, pretend = 0, frame = 24
 1301              		@ frame_needed = 1, uses_anonymous_args = 0
 1302 0000 80B5     		push	{r7, lr}
 1303              	.LCFI64:
 1304              		.cfi_def_cfa_offset 8
 1305              		.cfi_offset 7, -8
 1306              		.cfi_offset 14, -4
 1307 0002 8AB0     		sub	sp, sp, #40
 1308              	.LCFI65:
 1309              		.cfi_def_cfa_offset 48
 1310 0004 04AF     		add	r7, sp, #16
 1311              	.LCFI66:
 1312              		.cfi_def_cfa 7, 32
 1313 0006 F860     		str	r0, [r7, #12]
ARM GAS  C:\Users\user\AppData\Local\Temp\ccGlcwic.s 			page 46


 1314 0008 B960     		str	r1, [r7, #8]
 1315 000a 7A60     		str	r2, [r7, #4]
 396:E:/LiteOS/LiteOS_Lab/targets/STM32L431_BearPi/Hardware/Src\hal_qspi_flash.c ****     int ret = 0;
 1316              		.loc 1 396 0
 1317 000c 0023     		movs	r3, #0
 1318 000e 7B61     		str	r3, [r7, #20]
 397:E:/LiteOS/LiteOS_Lab/targets/STM32L431_BearPi/Hardware/Src\hal_qspi_flash.c ****     uint8_t* pbuf = (uint8_t*)buf;
 1319              		.loc 1 397 0
 1320 0010 FB68     		ldr	r3, [r7, #12]
 1321 0012 3B61     		str	r3, [r7, #16]
 398:E:/LiteOS/LiteOS_Lab/targets/STM32L431_BearPi/Hardware/Src\hal_qspi_flash.c **** 
 399:E:/LiteOS/LiteOS_Lab/targets/STM32L431_BearPi/Hardware/Src\hal_qspi_flash.c ****     if (NULL == pbuf
 1322              		.loc 1 399 0
 1323 0014 3B69     		ldr	r3, [r7, #16]
 1324 0016 002B     		cmp	r3, #0
 1325 0018 0CD0     		beq	.L69
 400:E:/LiteOS/LiteOS_Lab/targets/STM32L431_BearPi/Hardware/Src\hal_qspi_flash.c ****         || len < 0
 1326              		.loc 1 400 0
 1327 001a BB68     		ldr	r3, [r7, #8]
 1328 001c 002B     		cmp	r3, #0
 1329 001e 09DB     		blt	.L69
 401:E:/LiteOS/LiteOS_Lab/targets/STM32L431_BearPi/Hardware/Src\hal_qspi_flash.c ****         || location > QSPI_FLASH_TOTAL_SIZE
 1330              		.loc 1 401 0
 1331 0020 7B68     		ldr	r3, [r7, #4]
 1332 0022 B3F5000F 		cmp	r3, #8388608
 1333 0026 05D2     		bcs	.L69
 402:E:/LiteOS/LiteOS_Lab/targets/STM32L431_BearPi/Hardware/Src\hal_qspi_flash.c ****         || len + location > QSPI_FLASH_TOTAL_SIZE)
 1334              		.loc 1 402 0
 1335 0028 BA68     		ldr	r2, [r7, #8]
 1336 002a 7B68     		ldr	r3, [r7, #4]
 1337 002c 1344     		add	r3, r3, r2
 1338 002e B3F5000F 		cmp	r3, #8388608
 1339 0032 02D3     		bcc	.L70
 1340              	.L69:
 403:E:/LiteOS/LiteOS_Lab/targets/STM32L431_BearPi/Hardware/Src\hal_qspi_flash.c ****     {
 404:E:/LiteOS/LiteOS_Lab/targets/STM32L431_BearPi/Hardware/Src\hal_qspi_flash.c ****         return -1;
 1341              		.loc 1 404 0
 1342 0034 4FF0FF33 		mov	r3, #-1
 1343 0038 15E0     		b	.L71
 1344              	.L70:
 405:E:/LiteOS/LiteOS_Lab/targets/STM32L431_BearPi/Hardware/Src\hal_qspi_flash.c ****     }
 406:E:/LiteOS/LiteOS_Lab/targets/STM32L431_BearPi/Hardware/Src\hal_qspi_flash.c **** 
 407:E:/LiteOS/LiteOS_Lab/targets/STM32L431_BearPi/Hardware/Src\hal_qspi_flash.c **** 		QSPI_Send_CMD(QSPI_FLASH_FastReadData, location, 8, QSPI_INSTRUCTION_1_LINE, QSPI_ADDRESS_1_LINE,
 1345              		.loc 1 407 0
 1346 003a 4FF08073 		mov	r3, #16777216
 1347 003e 0293     		str	r3, [sp, #8]
 1348 0040 4FF40053 		mov	r3, #8192
 1349 0044 0193     		str	r3, [sp, #4]
 1350 0046 4FF48063 		mov	r3, #1024
 1351 004a 0093     		str	r3, [sp]
 1352 004c 4FF48073 		mov	r3, #256
 1353 0050 0822     		movs	r2, #8
 1354 0052 7968     		ldr	r1, [r7, #4]
 1355 0054 0B20     		movs	r0, #11
 1356 0056 FFF7FEFF 		bl	QSPI_Send_CMD
 408:E:/LiteOS/LiteOS_Lab/targets/STM32L431_BearPi/Hardware/Src\hal_qspi_flash.c ****     QSPI_Receive(buf, len);
 1357              		.loc 1 408 0
ARM GAS  C:\Users\user\AppData\Local\Temp\ccGlcwic.s 			page 47


 1358 005a BB68     		ldr	r3, [r7, #8]
 1359 005c 1946     		mov	r1, r3
 1360 005e F868     		ldr	r0, [r7, #12]
 1361 0060 FFF7FEFF 		bl	QSPI_Receive
 409:E:/LiteOS/LiteOS_Lab/targets/STM32L431_BearPi/Hardware/Src\hal_qspi_flash.c **** 		
 410:E:/LiteOS/LiteOS_Lab/targets/STM32L431_BearPi/Hardware/Src\hal_qspi_flash.c ****     return ret;
 1362              		.loc 1 410 0
 1363 0064 7B69     		ldr	r3, [r7, #20]
 1364              	.L71:
 411:E:/LiteOS/LiteOS_Lab/targets/STM32L431_BearPi/Hardware/Src\hal_qspi_flash.c **** 		
 412:E:/LiteOS/LiteOS_Lab/targets/STM32L431_BearPi/Hardware/Src\hal_qspi_flash.c **** }
 1365              		.loc 1 412 0
 1366 0066 1846     		mov	r0, r3
 1367 0068 1837     		adds	r7, r7, #24
 1368              	.LCFI67:
 1369              		.cfi_def_cfa_offset 8
 1370 006a BD46     		mov	sp, r7
 1371              	.LCFI68:
 1372              		.cfi_def_cfa_register 13
 1373              		@ sp needed
 1374 006c 80BD     		pop	{r7, pc}
 1375              		.cfi_endproc
 1376              	.LFE146:
 1378              		.section	.text.hal_spi_flash_get_id,"ax",%progbits
 1379              		.align	1
 1380              		.global	hal_spi_flash_get_id
 1381              		.syntax unified
 1382              		.thumb
 1383              		.thumb_func
 1384              		.fpu fpv4-sp-d16
 1386              	hal_spi_flash_get_id:
 1387              	.LFB147:
 413:E:/LiteOS/LiteOS_Lab/targets/STM32L431_BearPi/Hardware/Src\hal_qspi_flash.c **** 
 414:E:/LiteOS/LiteOS_Lab/targets/STM32L431_BearPi/Hardware/Src\hal_qspi_flash.c **** int hal_spi_flash_get_id(void)
 415:E:/LiteOS/LiteOS_Lab/targets/STM32L431_BearPi/Hardware/Src\hal_qspi_flash.c **** {
 1388              		.loc 1 415 0
 1389              		.cfi_startproc
 1390              		@ args = 0, pretend = 0, frame = 8
 1391              		@ frame_needed = 1, uses_anonymous_args = 0
 1392 0000 80B5     		push	{r7, lr}
 1393              	.LCFI69:
 1394              		.cfi_def_cfa_offset 8
 1395              		.cfi_offset 7, -8
 1396              		.cfi_offset 14, -4
 1397 0002 86B0     		sub	sp, sp, #24
 1398              	.LCFI70:
 1399              		.cfi_def_cfa_offset 32
 1400 0004 04AF     		add	r7, sp, #16
 1401              	.LCFI71:
 1402              		.cfi_def_cfa 7, 16
 416:E:/LiteOS/LiteOS_Lab/targets/STM32L431_BearPi/Hardware/Src\hal_qspi_flash.c **** 		
 417:E:/LiteOS/LiteOS_Lab/targets/STM32L431_BearPi/Hardware/Src\hal_qspi_flash.c **** 		uint8_t temp[2];
 418:E:/LiteOS/LiteOS_Lab/targets/STM32L431_BearPi/Hardware/Src\hal_qspi_flash.c ****     uint16_t deviceid;
 419:E:/LiteOS/LiteOS_Lab/targets/STM32L431_BearPi/Hardware/Src\hal_qspi_flash.c ****     QSPI_Send_CMD(QSPI_FLASH_JedecDeviceID, 0, 0, QSPI_INSTRUCTION_1_LINE, QSPI_ADDRESS_1_LINE, QSP
 1403              		.loc 1 419 0
 1404 0006 4FF08073 		mov	r3, #16777216
 1405 000a 0293     		str	r3, [sp, #8]
ARM GAS  C:\Users\user\AppData\Local\Temp\ccGlcwic.s 			page 48


 1406 000c 4FF40053 		mov	r3, #8192
 1407 0010 0193     		str	r3, [sp, #4]
 1408 0012 4FF48063 		mov	r3, #1024
 1409 0016 0093     		str	r3, [sp]
 1410 0018 4FF48073 		mov	r3, #256
 1411 001c 0022     		movs	r2, #0
 1412 001e 0021     		movs	r1, #0
 1413 0020 9F20     		movs	r0, #159
 1414 0022 FFF7FEFF 		bl	QSPI_Send_CMD
 420:E:/LiteOS/LiteOS_Lab/targets/STM32L431_BearPi/Hardware/Src\hal_qspi_flash.c ****     QSPI_Receive(temp, 2);
 1415              		.loc 1 420 0
 1416 0026 3B1D     		adds	r3, r7, #4
 1417 0028 0221     		movs	r1, #2
 1418 002a 1846     		mov	r0, r3
 1419 002c FFF7FEFF 		bl	QSPI_Receive
 421:E:/LiteOS/LiteOS_Lab/targets/STM32L431_BearPi/Hardware/Src\hal_qspi_flash.c ****     deviceid = (temp[0] << 8) | temp[1];
 1420              		.loc 1 421 0
 1421 0030 3B79     		ldrb	r3, [r7, #4]	@ zero_extendqisi2
 1422 0032 1B02     		lsls	r3, r3, #8
 1423 0034 1AB2     		sxth	r2, r3
 1424 0036 7B79     		ldrb	r3, [r7, #5]	@ zero_extendqisi2
 1425 0038 1BB2     		sxth	r3, r3
 1426 003a 1343     		orrs	r3, r3, r2
 1427 003c 1BB2     		sxth	r3, r3
 1428 003e FB80     		strh	r3, [r7, #6]	@ movhi
 422:E:/LiteOS/LiteOS_Lab/targets/STM32L431_BearPi/Hardware/Src\hal_qspi_flash.c ****     return deviceid;
 1429              		.loc 1 422 0
 1430 0040 FB88     		ldrh	r3, [r7, #6]
 423:E:/LiteOS/LiteOS_Lab/targets/STM32L431_BearPi/Hardware/Src\hal_qspi_flash.c **** }
 1431              		.loc 1 423 0
 1432 0042 1846     		mov	r0, r3
 1433 0044 0837     		adds	r7, r7, #8
 1434              	.LCFI72:
 1435              		.cfi_def_cfa_offset 8
 1436 0046 BD46     		mov	sp, r7
 1437              	.LCFI73:
 1438              		.cfi_def_cfa_register 13
 1439              		@ sp needed
 1440 0048 80BD     		pop	{r7, pc}
 1441              		.cfi_endproc
 1442              	.LFE147:
 1444              		.text
 1445              	.Letext0:
 1446              		.file 3 "e:\\ac6\\systemworkbench\\plugins\\fr.ac6.mcu.externaltools.arm-none.win32_1.16.0.2018071
 1447              		.file 4 "e:\\ac6\\systemworkbench\\plugins\\fr.ac6.mcu.externaltools.arm-none.win32_1.16.0.2018071
 1448              		.file 5 "E:/LiteOS/LiteOS_Lab/iot_link/os/os_imp/liteos/arch/arm/common/cmsis/core_cm4.h"
 1449              		.file 6 "E:/LiteOS/LiteOS_Lab/targets/STM32L431_BearPi/Inc/system_stm32l4xx.h"
 1450              		.file 7 "E:/LiteOS/LiteOS_Lab/targets/STM32L431_BearPi/Inc/stm32l431xx.h"
 1451              		.file 8 "e:\\ac6\\systemworkbench\\plugins\\fr.ac6.mcu.externaltools.arm-none.win32_1.16.0.2018071
 1452              		.file 9 "e:\\ac6\\systemworkbench\\plugins\\fr.ac6.mcu.externaltools.arm-none.win32_1.16.0.2018071
 1453              		.file 10 "e:\\ac6\\systemworkbench\\plugins\\fr.ac6.mcu.externaltools.arm-none.win32_1.16.0.201807
 1454              		.file 11 "e:\\ac6\\systemworkbench\\plugins\\fr.ac6.mcu.externaltools.arm-none.win32_1.16.0.201807
 1455              		.file 12 "E:/LiteOS/LiteOS_Lab/iot_link/os/os_imp/liteos/include/los_typedef.h"
 1456              		.file 13 "E:/LiteOS/LiteOS_Lab/iot_link/os/os_imp/liteos/include/los_config.h"
 1457              		.file 14 "E:/LiteOS/LiteOS_Lab/iot_link/os/os_imp/liteos/include/los_list.h"
 1458              		.file 15 "E:/LiteOS/LiteOS_Lab/iot_link/os/os_imp/liteos/include/los_err.h"
 1459              		.file 16 "E:/LiteOS/LiteOS_Lab/iot_link/os/os_imp/liteos/arch/arm/arm-m/include/los_hwi.h"
ARM GAS  C:\Users\user\AppData\Local\Temp\ccGlcwic.s 			page 49


 1460              		.file 17 "E:/LiteOS/LiteOS_Lab/iot_link/os/os_imp/liteos/include/los_tick.h"
 1461              		.file 18 "E:/LiteOS/LiteOS_Lab/iot_link/os/os_imp/liteos/include/los_event.h"
 1462              		.file 19 "E:/LiteOS/LiteOS_Lab/iot_link/os/os_imp/liteos/include/los_task.h"
 1463              		.file 20 "E:/LiteOS/LiteOS_Lab/iot_link/os/os_imp/liteos/base/include/los_task.ph"
 1464              		.file 21 "E:/LiteOS/LiteOS_Lab/targets/STM32L431_BearPi/Inc/main.h"
 1465              		.file 22 "E:/LiteOS/LiteOS_Lab/targets/STM32L431_BearPi/Inc/stm32l4xx.h"
 1466              		.file 23 "E:/LiteOS/LiteOS_Lab/drivers/third_party/ST/STM32L4xx_HAL_Driver/Inc/stm32l4xx_hal_def.h
 1467              		.file 24 "E:/LiteOS/LiteOS_Lab/drivers/third_party/ST/STM32L4xx_HAL_Driver/Inc/stm32l4xx_hal_gpio.
 1468              		.file 25 "E:/LiteOS/LiteOS_Lab/drivers/third_party/ST/STM32L4xx_HAL_Driver/Inc/stm32l4xx_hal_dma.h
 1469              		.file 26 "E:/LiteOS/LiteOS_Lab/drivers/third_party/ST/STM32L4xx_HAL_Driver/Inc/stm32l4xx_hal_qspi.
ARM GAS  C:\Users\user\AppData\Local\Temp\ccGlcwic.s 			page 50

