ARM GAS  C:\Users\user\AppData\Local\Temp\cch8uioC.s 			page 1


   1              		.cpu cortex-m4
   2              		.eabi_attribute 27, 1
   3              		.eabi_attribute 28, 1
   4              		.eabi_attribute 20, 1
   5              		.eabi_attribute 21, 1
   6              		.eabi_attribute 23, 3
   7              		.eabi_attribute 24, 1
   8              		.eabi_attribute 25, 1
   9              		.eabi_attribute 26, 1
  10              		.eabi_attribute 30, 6
  11              		.eabi_attribute 34, 1
  12              		.eabi_attribute 18, 4
  13              		.file	"i2c.c"
  14              		.text
  15              	.Ltext0:
  16              		.cfi_sections	.debug_frame
  17              		.comm	hi2c1,76,4
  18              		.comm	hi2c2,76,4
  19              		.comm	hi2c3,76,4
  20              		.section	.rodata
  21              		.align	2
  22              	.LC0:
  23 0000 453A2F4C 		.ascii	"E:/LiteOS/LiteOS_Lab/targets/STM32L431_BearPi/Src/i"
  23      6974654F 
  23      532F4C69 
  23      74654F53 
  23      5F4C6162 
  24 0033 32632E63 		.ascii	"2c.c\000"
  24      00
  25              		.section	.text.MX_I2C1_Init,"ax",%progbits
  26              		.align	1
  27              		.global	MX_I2C1_Init
  28              		.syntax unified
  29              		.thumb
  30              		.thumb_func
  31              		.fpu fpv4-sp-d16
  33              	MX_I2C1_Init:
  34              	.LFB133:
  35              		.file 1 "E:/LiteOS/LiteOS_Lab/targets/STM32L431_BearPi/Src/i2c.c"
   1:E:/LiteOS/LiteOS_Lab/targets/STM32L431_BearPi/Src\i2c.c **** /**
   2:E:/LiteOS/LiteOS_Lab/targets/STM32L431_BearPi/Src\i2c.c ****   ******************************************************************************
   3:E:/LiteOS/LiteOS_Lab/targets/STM32L431_BearPi/Src\i2c.c ****   * File Name          : I2C.c
   4:E:/LiteOS/LiteOS_Lab/targets/STM32L431_BearPi/Src\i2c.c ****   * Description        : This file provides code for the configuration
   5:E:/LiteOS/LiteOS_Lab/targets/STM32L431_BearPi/Src\i2c.c ****   *                      of the I2C instances.
   6:E:/LiteOS/LiteOS_Lab/targets/STM32L431_BearPi/Src\i2c.c ****   ******************************************************************************
   7:E:/LiteOS/LiteOS_Lab/targets/STM32L431_BearPi/Src\i2c.c ****   ** This notice applies to any and all portions of this file
   8:E:/LiteOS/LiteOS_Lab/targets/STM32L431_BearPi/Src\i2c.c ****   * that are not between comment pairs USER CODE BEGIN and
   9:E:/LiteOS/LiteOS_Lab/targets/STM32L431_BearPi/Src\i2c.c ****   * USER CODE END. Other portions of this file, whether 
  10:E:/LiteOS/LiteOS_Lab/targets/STM32L431_BearPi/Src\i2c.c ****   * inserted by the user or by software development tools
  11:E:/LiteOS/LiteOS_Lab/targets/STM32L431_BearPi/Src\i2c.c ****   * are owned by their respective copyright owners.
  12:E:/LiteOS/LiteOS_Lab/targets/STM32L431_BearPi/Src\i2c.c ****   *
  13:E:/LiteOS/LiteOS_Lab/targets/STM32L431_BearPi/Src\i2c.c ****   * COPYRIGHT(c) 2019 STMicroelectronics
  14:E:/LiteOS/LiteOS_Lab/targets/STM32L431_BearPi/Src\i2c.c ****   *
  15:E:/LiteOS/LiteOS_Lab/targets/STM32L431_BearPi/Src\i2c.c ****   * Redistribution and use in source and binary forms, with or without modification,
  16:E:/LiteOS/LiteOS_Lab/targets/STM32L431_BearPi/Src\i2c.c ****   * are permitted provided that the following conditions are met:
  17:E:/LiteOS/LiteOS_Lab/targets/STM32L431_BearPi/Src\i2c.c ****   *   1. Redistributions of source code must retain the above copyright notice,
  18:E:/LiteOS/LiteOS_Lab/targets/STM32L431_BearPi/Src\i2c.c ****   *      this list of conditions and the following disclaimer.
ARM GAS  C:\Users\user\AppData\Local\Temp\cch8uioC.s 			page 2


  19:E:/LiteOS/LiteOS_Lab/targets/STM32L431_BearPi/Src\i2c.c ****   *   2. Redistributions in binary form must reproduce the above copyright notice,
  20:E:/LiteOS/LiteOS_Lab/targets/STM32L431_BearPi/Src\i2c.c ****   *      this list of conditions and the following disclaimer in the documentation
  21:E:/LiteOS/LiteOS_Lab/targets/STM32L431_BearPi/Src\i2c.c ****   *      and/or other materials provided with the distribution.
  22:E:/LiteOS/LiteOS_Lab/targets/STM32L431_BearPi/Src\i2c.c ****   *   3. Neither the name of STMicroelectronics nor the names of its contributors
  23:E:/LiteOS/LiteOS_Lab/targets/STM32L431_BearPi/Src\i2c.c ****   *      may be used to endorse or promote products derived from this software
  24:E:/LiteOS/LiteOS_Lab/targets/STM32L431_BearPi/Src\i2c.c ****   *      without specific prior written permission.
  25:E:/LiteOS/LiteOS_Lab/targets/STM32L431_BearPi/Src\i2c.c ****   *
  26:E:/LiteOS/LiteOS_Lab/targets/STM32L431_BearPi/Src\i2c.c ****   * THIS SOFTWARE IS PROVIDED BY THE COPYRIGHT HOLDERS AND CONTRIBUTORS "AS IS"
  27:E:/LiteOS/LiteOS_Lab/targets/STM32L431_BearPi/Src\i2c.c ****   * AND ANY EXPRESS OR IMPLIED WARRANTIES, INCLUDING, BUT NOT LIMITED TO, THE
  28:E:/LiteOS/LiteOS_Lab/targets/STM32L431_BearPi/Src\i2c.c ****   * IMPLIED WARRANTIES OF MERCHANTABILITY AND FITNESS FOR A PARTICULAR PURPOSE ARE
  29:E:/LiteOS/LiteOS_Lab/targets/STM32L431_BearPi/Src\i2c.c ****   * DISCLAIMED. IN NO EVENT SHALL THE COPYRIGHT HOLDER OR CONTRIBUTORS BE LIABLE
  30:E:/LiteOS/LiteOS_Lab/targets/STM32L431_BearPi/Src\i2c.c ****   * FOR ANY DIRECT, INDIRECT, INCIDENTAL, SPECIAL, EXEMPLARY, OR CONSEQUENTIAL
  31:E:/LiteOS/LiteOS_Lab/targets/STM32L431_BearPi/Src\i2c.c ****   * DAMAGES (INCLUDING, BUT NOT LIMITED TO, PROCUREMENT OF SUBSTITUTE GOODS OR
  32:E:/LiteOS/LiteOS_Lab/targets/STM32L431_BearPi/Src\i2c.c ****   * SERVICES; LOSS OF USE, DATA, OR PROFITS; OR BUSINESS INTERRUPTION) HOWEVER
  33:E:/LiteOS/LiteOS_Lab/targets/STM32L431_BearPi/Src\i2c.c ****   * CAUSED AND ON ANY THEORY OF LIABILITY, WHETHER IN CONTRACT, STRICT LIABILITY,
  34:E:/LiteOS/LiteOS_Lab/targets/STM32L431_BearPi/Src\i2c.c ****   * OR TORT (INCLUDING NEGLIGENCE OR OTHERWISE) ARISING IN ANY WAY OUT OF THE USE
  35:E:/LiteOS/LiteOS_Lab/targets/STM32L431_BearPi/Src\i2c.c ****   * OF THIS SOFTWARE, EVEN IF ADVISED OF THE POSSIBILITY OF SUCH DAMAGE.
  36:E:/LiteOS/LiteOS_Lab/targets/STM32L431_BearPi/Src\i2c.c ****   *
  37:E:/LiteOS/LiteOS_Lab/targets/STM32L431_BearPi/Src\i2c.c ****   ******************************************************************************
  38:E:/LiteOS/LiteOS_Lab/targets/STM32L431_BearPi/Src\i2c.c ****   */
  39:E:/LiteOS/LiteOS_Lab/targets/STM32L431_BearPi/Src\i2c.c **** 
  40:E:/LiteOS/LiteOS_Lab/targets/STM32L431_BearPi/Src\i2c.c **** /* Includes ------------------------------------------------------------------*/
  41:E:/LiteOS/LiteOS_Lab/targets/STM32L431_BearPi/Src\i2c.c **** #include "i2c.h"
  42:E:/LiteOS/LiteOS_Lab/targets/STM32L431_BearPi/Src\i2c.c **** 
  43:E:/LiteOS/LiteOS_Lab/targets/STM32L431_BearPi/Src\i2c.c **** #include "gpio.h"
  44:E:/LiteOS/LiteOS_Lab/targets/STM32L431_BearPi/Src\i2c.c **** 
  45:E:/LiteOS/LiteOS_Lab/targets/STM32L431_BearPi/Src\i2c.c **** /* USER CODE BEGIN 0 */
  46:E:/LiteOS/LiteOS_Lab/targets/STM32L431_BearPi/Src\i2c.c **** 
  47:E:/LiteOS/LiteOS_Lab/targets/STM32L431_BearPi/Src\i2c.c **** /* USER CODE END 0 */
  48:E:/LiteOS/LiteOS_Lab/targets/STM32L431_BearPi/Src\i2c.c **** 
  49:E:/LiteOS/LiteOS_Lab/targets/STM32L431_BearPi/Src\i2c.c **** I2C_HandleTypeDef hi2c1;
  50:E:/LiteOS/LiteOS_Lab/targets/STM32L431_BearPi/Src\i2c.c **** I2C_HandleTypeDef hi2c2;
  51:E:/LiteOS/LiteOS_Lab/targets/STM32L431_BearPi/Src\i2c.c **** I2C_HandleTypeDef hi2c3;
  52:E:/LiteOS/LiteOS_Lab/targets/STM32L431_BearPi/Src\i2c.c **** 
  53:E:/LiteOS/LiteOS_Lab/targets/STM32L431_BearPi/Src\i2c.c **** /* I2C1 init function */
  54:E:/LiteOS/LiteOS_Lab/targets/STM32L431_BearPi/Src\i2c.c **** void MX_I2C1_Init(void)
  55:E:/LiteOS/LiteOS_Lab/targets/STM32L431_BearPi/Src\i2c.c **** {
  36              		.loc 1 55 0
  37              		.cfi_startproc
  38              		@ args = 0, pretend = 0, frame = 0
  39              		@ frame_needed = 1, uses_anonymous_args = 0
  40 0000 80B5     		push	{r7, lr}
  41              	.LCFI0:
  42              		.cfi_def_cfa_offset 8
  43              		.cfi_offset 7, -8
  44              		.cfi_offset 14, -4
  45 0002 00AF     		add	r7, sp, #0
  46              	.LCFI1:
  47              		.cfi_def_cfa_register 7
  56:E:/LiteOS/LiteOS_Lab/targets/STM32L431_BearPi/Src\i2c.c **** 
  57:E:/LiteOS/LiteOS_Lab/targets/STM32L431_BearPi/Src\i2c.c ****   hi2c1.Instance = I2C1;
  48              		.loc 1 57 0
  49 0004 1E4B     		ldr	r3, .L6
  50 0006 1F4A     		ldr	r2, .L6+4
  51 0008 1A60     		str	r2, [r3]
  58:E:/LiteOS/LiteOS_Lab/targets/STM32L431_BearPi/Src\i2c.c ****   hi2c1.Init.Timing = 0x10909CEC;
  52              		.loc 1 58 0
ARM GAS  C:\Users\user\AppData\Local\Temp\cch8uioC.s 			page 3


  53 000a 1D4B     		ldr	r3, .L6
  54 000c 1E4A     		ldr	r2, .L6+8
  55 000e 5A60     		str	r2, [r3, #4]
  59:E:/LiteOS/LiteOS_Lab/targets/STM32L431_BearPi/Src\i2c.c ****   hi2c1.Init.OwnAddress1 = 0;
  56              		.loc 1 59 0
  57 0010 1B4B     		ldr	r3, .L6
  58 0012 0022     		movs	r2, #0
  59 0014 9A60     		str	r2, [r3, #8]
  60:E:/LiteOS/LiteOS_Lab/targets/STM32L431_BearPi/Src\i2c.c ****   hi2c1.Init.AddressingMode = I2C_ADDRESSINGMODE_7BIT;
  60              		.loc 1 60 0
  61 0016 1A4B     		ldr	r3, .L6
  62 0018 0122     		movs	r2, #1
  63 001a DA60     		str	r2, [r3, #12]
  61:E:/LiteOS/LiteOS_Lab/targets/STM32L431_BearPi/Src\i2c.c ****   hi2c1.Init.DualAddressMode = I2C_DUALADDRESS_DISABLE;
  64              		.loc 1 61 0
  65 001c 184B     		ldr	r3, .L6
  66 001e 0022     		movs	r2, #0
  67 0020 1A61     		str	r2, [r3, #16]
  62:E:/LiteOS/LiteOS_Lab/targets/STM32L431_BearPi/Src\i2c.c ****   hi2c1.Init.OwnAddress2 = 0;
  68              		.loc 1 62 0
  69 0022 174B     		ldr	r3, .L6
  70 0024 0022     		movs	r2, #0
  71 0026 5A61     		str	r2, [r3, #20]
  63:E:/LiteOS/LiteOS_Lab/targets/STM32L431_BearPi/Src\i2c.c ****   hi2c1.Init.OwnAddress2Masks = I2C_OA2_NOMASK;
  72              		.loc 1 63 0
  73 0028 154B     		ldr	r3, .L6
  74 002a 0022     		movs	r2, #0
  75 002c 9A61     		str	r2, [r3, #24]
  64:E:/LiteOS/LiteOS_Lab/targets/STM32L431_BearPi/Src\i2c.c ****   hi2c1.Init.GeneralCallMode = I2C_GENERALCALL_DISABLE;
  76              		.loc 1 64 0
  77 002e 144B     		ldr	r3, .L6
  78 0030 0022     		movs	r2, #0
  79 0032 DA61     		str	r2, [r3, #28]
  65:E:/LiteOS/LiteOS_Lab/targets/STM32L431_BearPi/Src\i2c.c ****   hi2c1.Init.NoStretchMode = I2C_NOSTRETCH_DISABLE;
  80              		.loc 1 65 0
  81 0034 124B     		ldr	r3, .L6
  82 0036 0022     		movs	r2, #0
  83 0038 1A62     		str	r2, [r3, #32]
  66:E:/LiteOS/LiteOS_Lab/targets/STM32L431_BearPi/Src\i2c.c ****   if (HAL_I2C_Init(&hi2c1) != HAL_OK)
  84              		.loc 1 66 0
  85 003a 1148     		ldr	r0, .L6
  86 003c FFF7FEFF 		bl	HAL_I2C_Init
  87 0040 0346     		mov	r3, r0
  88 0042 002B     		cmp	r3, #0
  89 0044 03D0     		beq	.L2
  67:E:/LiteOS/LiteOS_Lab/targets/STM32L431_BearPi/Src\i2c.c ****   {
  68:E:/LiteOS/LiteOS_Lab/targets/STM32L431_BearPi/Src\i2c.c ****     _Error_Handler(__FILE__, __LINE__);
  90              		.loc 1 68 0
  91 0046 4421     		movs	r1, #68
  92 0048 1048     		ldr	r0, .L6+12
  93 004a FFF7FEFF 		bl	_Error_Handler
  94              	.L2:
  69:E:/LiteOS/LiteOS_Lab/targets/STM32L431_BearPi/Src\i2c.c ****   }
  70:E:/LiteOS/LiteOS_Lab/targets/STM32L431_BearPi/Src\i2c.c **** 
  71:E:/LiteOS/LiteOS_Lab/targets/STM32L431_BearPi/Src\i2c.c ****     /**Configure Analogue filter 
  72:E:/LiteOS/LiteOS_Lab/targets/STM32L431_BearPi/Src\i2c.c ****     */
  73:E:/LiteOS/LiteOS_Lab/targets/STM32L431_BearPi/Src\i2c.c ****   if (HAL_I2CEx_ConfigAnalogFilter(&hi2c1, I2C_ANALOGFILTER_ENABLE) != HAL_OK)
ARM GAS  C:\Users\user\AppData\Local\Temp\cch8uioC.s 			page 4


  95              		.loc 1 73 0
  96 004e 0021     		movs	r1, #0
  97 0050 0B48     		ldr	r0, .L6
  98 0052 FFF7FEFF 		bl	HAL_I2CEx_ConfigAnalogFilter
  99 0056 0346     		mov	r3, r0
 100 0058 002B     		cmp	r3, #0
 101 005a 03D0     		beq	.L3
  74:E:/LiteOS/LiteOS_Lab/targets/STM32L431_BearPi/Src\i2c.c ****   {
  75:E:/LiteOS/LiteOS_Lab/targets/STM32L431_BearPi/Src\i2c.c ****     _Error_Handler(__FILE__, __LINE__);
 102              		.loc 1 75 0
 103 005c 4B21     		movs	r1, #75
 104 005e 0B48     		ldr	r0, .L6+12
 105 0060 FFF7FEFF 		bl	_Error_Handler
 106              	.L3:
  76:E:/LiteOS/LiteOS_Lab/targets/STM32L431_BearPi/Src\i2c.c ****   }
  77:E:/LiteOS/LiteOS_Lab/targets/STM32L431_BearPi/Src\i2c.c **** 
  78:E:/LiteOS/LiteOS_Lab/targets/STM32L431_BearPi/Src\i2c.c ****     /**Configure Digital filter 
  79:E:/LiteOS/LiteOS_Lab/targets/STM32L431_BearPi/Src\i2c.c ****     */
  80:E:/LiteOS/LiteOS_Lab/targets/STM32L431_BearPi/Src\i2c.c ****   if (HAL_I2CEx_ConfigDigitalFilter(&hi2c1, 0) != HAL_OK)
 107              		.loc 1 80 0
 108 0064 0021     		movs	r1, #0
 109 0066 0648     		ldr	r0, .L6
 110 0068 FFF7FEFF 		bl	HAL_I2CEx_ConfigDigitalFilter
 111 006c 0346     		mov	r3, r0
 112 006e 002B     		cmp	r3, #0
 113 0070 03D0     		beq	.L5
  81:E:/LiteOS/LiteOS_Lab/targets/STM32L431_BearPi/Src\i2c.c ****   {
  82:E:/LiteOS/LiteOS_Lab/targets/STM32L431_BearPi/Src\i2c.c ****     _Error_Handler(__FILE__, __LINE__);
 114              		.loc 1 82 0
 115 0072 5221     		movs	r1, #82
 116 0074 0548     		ldr	r0, .L6+12
 117 0076 FFF7FEFF 		bl	_Error_Handler
 118              	.L5:
  83:E:/LiteOS/LiteOS_Lab/targets/STM32L431_BearPi/Src\i2c.c ****   }
  84:E:/LiteOS/LiteOS_Lab/targets/STM32L431_BearPi/Src\i2c.c **** 
  85:E:/LiteOS/LiteOS_Lab/targets/STM32L431_BearPi/Src\i2c.c **** }
 119              		.loc 1 85 0
 120 007a 00BF     		nop
 121 007c 80BD     		pop	{r7, pc}
 122              	.L7:
 123 007e 00BF     		.align	2
 124              	.L6:
 125 0080 00000000 		.word	hi2c1
 126 0084 00540040 		.word	1073763328
 127 0088 EC9C9010 		.word	277912812
 128 008c 00000000 		.word	.LC0
 129              		.cfi_endproc
 130              	.LFE133:
 132              		.section	.text.MX_I2C2_Init,"ax",%progbits
 133              		.align	1
 134              		.global	MX_I2C2_Init
 135              		.syntax unified
 136              		.thumb
 137              		.thumb_func
 138              		.fpu fpv4-sp-d16
 140              	MX_I2C2_Init:
 141              	.LFB134:
ARM GAS  C:\Users\user\AppData\Local\Temp\cch8uioC.s 			page 5


  86:E:/LiteOS/LiteOS_Lab/targets/STM32L431_BearPi/Src\i2c.c **** /* I2C2 init function */
  87:E:/LiteOS/LiteOS_Lab/targets/STM32L431_BearPi/Src\i2c.c **** void MX_I2C2_Init(void)
  88:E:/LiteOS/LiteOS_Lab/targets/STM32L431_BearPi/Src\i2c.c **** {
 142              		.loc 1 88 0
 143              		.cfi_startproc
 144              		@ args = 0, pretend = 0, frame = 0
 145              		@ frame_needed = 1, uses_anonymous_args = 0
 146 0000 80B5     		push	{r7, lr}
 147              	.LCFI2:
 148              		.cfi_def_cfa_offset 8
 149              		.cfi_offset 7, -8
 150              		.cfi_offset 14, -4
 151 0002 00AF     		add	r7, sp, #0
 152              	.LCFI3:
 153              		.cfi_def_cfa_register 7
  89:E:/LiteOS/LiteOS_Lab/targets/STM32L431_BearPi/Src\i2c.c **** 
  90:E:/LiteOS/LiteOS_Lab/targets/STM32L431_BearPi/Src\i2c.c ****   hi2c2.Instance = I2C2;
 154              		.loc 1 90 0
 155 0004 1E4B     		ldr	r3, .L13
 156 0006 1F4A     		ldr	r2, .L13+4
 157 0008 1A60     		str	r2, [r3]
  91:E:/LiteOS/LiteOS_Lab/targets/STM32L431_BearPi/Src\i2c.c ****   hi2c2.Init.Timing = 0x10909CEC;
 158              		.loc 1 91 0
 159 000a 1D4B     		ldr	r3, .L13
 160 000c 1E4A     		ldr	r2, .L13+8
 161 000e 5A60     		str	r2, [r3, #4]
  92:E:/LiteOS/LiteOS_Lab/targets/STM32L431_BearPi/Src\i2c.c ****   hi2c2.Init.OwnAddress1 = 0;
 162              		.loc 1 92 0
 163 0010 1B4B     		ldr	r3, .L13
 164 0012 0022     		movs	r2, #0
 165 0014 9A60     		str	r2, [r3, #8]
  93:E:/LiteOS/LiteOS_Lab/targets/STM32L431_BearPi/Src\i2c.c ****   hi2c2.Init.AddressingMode = I2C_ADDRESSINGMODE_7BIT;
 166              		.loc 1 93 0
 167 0016 1A4B     		ldr	r3, .L13
 168 0018 0122     		movs	r2, #1
 169 001a DA60     		str	r2, [r3, #12]
  94:E:/LiteOS/LiteOS_Lab/targets/STM32L431_BearPi/Src\i2c.c ****   hi2c2.Init.DualAddressMode = I2C_DUALADDRESS_DISABLE;
 170              		.loc 1 94 0
 171 001c 184B     		ldr	r3, .L13
 172 001e 0022     		movs	r2, #0
 173 0020 1A61     		str	r2, [r3, #16]
  95:E:/LiteOS/LiteOS_Lab/targets/STM32L431_BearPi/Src\i2c.c ****   hi2c2.Init.OwnAddress2 = 0;
 174              		.loc 1 95 0
 175 0022 174B     		ldr	r3, .L13
 176 0024 0022     		movs	r2, #0
 177 0026 5A61     		str	r2, [r3, #20]
  96:E:/LiteOS/LiteOS_Lab/targets/STM32L431_BearPi/Src\i2c.c ****   hi2c2.Init.OwnAddress2Masks = I2C_OA2_NOMASK;
 178              		.loc 1 96 0
 179 0028 154B     		ldr	r3, .L13
 180 002a 0022     		movs	r2, #0
 181 002c 9A61     		str	r2, [r3, #24]
  97:E:/LiteOS/LiteOS_Lab/targets/STM32L431_BearPi/Src\i2c.c ****   hi2c2.Init.GeneralCallMode = I2C_GENERALCALL_DISABLE;
 182              		.loc 1 97 0
 183 002e 144B     		ldr	r3, .L13
 184 0030 0022     		movs	r2, #0
 185 0032 DA61     		str	r2, [r3, #28]
  98:E:/LiteOS/LiteOS_Lab/targets/STM32L431_BearPi/Src\i2c.c ****   hi2c2.Init.NoStretchMode = I2C_NOSTRETCH_DISABLE;
ARM GAS  C:\Users\user\AppData\Local\Temp\cch8uioC.s 			page 6


 186              		.loc 1 98 0
 187 0034 124B     		ldr	r3, .L13
 188 0036 0022     		movs	r2, #0
 189 0038 1A62     		str	r2, [r3, #32]
  99:E:/LiteOS/LiteOS_Lab/targets/STM32L431_BearPi/Src\i2c.c ****   if (HAL_I2C_Init(&hi2c2) != HAL_OK)
 190              		.loc 1 99 0
 191 003a 1148     		ldr	r0, .L13
 192 003c FFF7FEFF 		bl	HAL_I2C_Init
 193 0040 0346     		mov	r3, r0
 194 0042 002B     		cmp	r3, #0
 195 0044 03D0     		beq	.L9
 100:E:/LiteOS/LiteOS_Lab/targets/STM32L431_BearPi/Src\i2c.c ****   {
 101:E:/LiteOS/LiteOS_Lab/targets/STM32L431_BearPi/Src\i2c.c ****     _Error_Handler(__FILE__, __LINE__);
 196              		.loc 1 101 0
 197 0046 6521     		movs	r1, #101
 198 0048 1048     		ldr	r0, .L13+12
 199 004a FFF7FEFF 		bl	_Error_Handler
 200              	.L9:
 102:E:/LiteOS/LiteOS_Lab/targets/STM32L431_BearPi/Src\i2c.c ****   }
 103:E:/LiteOS/LiteOS_Lab/targets/STM32L431_BearPi/Src\i2c.c **** 
 104:E:/LiteOS/LiteOS_Lab/targets/STM32L431_BearPi/Src\i2c.c ****     /**Configure Analogue filter 
 105:E:/LiteOS/LiteOS_Lab/targets/STM32L431_BearPi/Src\i2c.c ****     */
 106:E:/LiteOS/LiteOS_Lab/targets/STM32L431_BearPi/Src\i2c.c ****   if (HAL_I2CEx_ConfigAnalogFilter(&hi2c2, I2C_ANALOGFILTER_ENABLE) != HAL_OK)
 201              		.loc 1 106 0
 202 004e 0021     		movs	r1, #0
 203 0050 0B48     		ldr	r0, .L13
 204 0052 FFF7FEFF 		bl	HAL_I2CEx_ConfigAnalogFilter
 205 0056 0346     		mov	r3, r0
 206 0058 002B     		cmp	r3, #0
 207 005a 03D0     		beq	.L10
 107:E:/LiteOS/LiteOS_Lab/targets/STM32L431_BearPi/Src\i2c.c ****   {
 108:E:/LiteOS/LiteOS_Lab/targets/STM32L431_BearPi/Src\i2c.c ****     _Error_Handler(__FILE__, __LINE__);
 208              		.loc 1 108 0
 209 005c 6C21     		movs	r1, #108
 210 005e 0B48     		ldr	r0, .L13+12
 211 0060 FFF7FEFF 		bl	_Error_Handler
 212              	.L10:
 109:E:/LiteOS/LiteOS_Lab/targets/STM32L431_BearPi/Src\i2c.c ****   }
 110:E:/LiteOS/LiteOS_Lab/targets/STM32L431_BearPi/Src\i2c.c **** 
 111:E:/LiteOS/LiteOS_Lab/targets/STM32L431_BearPi/Src\i2c.c ****     /**Configure Digital filter 
 112:E:/LiteOS/LiteOS_Lab/targets/STM32L431_BearPi/Src\i2c.c ****     */
 113:E:/LiteOS/LiteOS_Lab/targets/STM32L431_BearPi/Src\i2c.c ****   if (HAL_I2CEx_ConfigDigitalFilter(&hi2c2, 0) != HAL_OK)
 213              		.loc 1 113 0
 214 0064 0021     		movs	r1, #0
 215 0066 0648     		ldr	r0, .L13
 216 0068 FFF7FEFF 		bl	HAL_I2CEx_ConfigDigitalFilter
 217 006c 0346     		mov	r3, r0
 218 006e 002B     		cmp	r3, #0
 219 0070 03D0     		beq	.L12
 114:E:/LiteOS/LiteOS_Lab/targets/STM32L431_BearPi/Src\i2c.c ****   {
 115:E:/LiteOS/LiteOS_Lab/targets/STM32L431_BearPi/Src\i2c.c ****     _Error_Handler(__FILE__, __LINE__);
 220              		.loc 1 115 0
 221 0072 7321     		movs	r1, #115
 222 0074 0548     		ldr	r0, .L13+12
 223 0076 FFF7FEFF 		bl	_Error_Handler
 224              	.L12:
 116:E:/LiteOS/LiteOS_Lab/targets/STM32L431_BearPi/Src\i2c.c ****   }
ARM GAS  C:\Users\user\AppData\Local\Temp\cch8uioC.s 			page 7


 117:E:/LiteOS/LiteOS_Lab/targets/STM32L431_BearPi/Src\i2c.c **** 
 118:E:/LiteOS/LiteOS_Lab/targets/STM32L431_BearPi/Src\i2c.c **** }
 225              		.loc 1 118 0
 226 007a 00BF     		nop
 227 007c 80BD     		pop	{r7, pc}
 228              	.L14:
 229 007e 00BF     		.align	2
 230              	.L13:
 231 0080 00000000 		.word	hi2c2
 232 0084 00580040 		.word	1073764352
 233 0088 EC9C9010 		.word	277912812
 234 008c 00000000 		.word	.LC0
 235              		.cfi_endproc
 236              	.LFE134:
 238              		.section	.text.MX_I2C3_Init,"ax",%progbits
 239              		.align	1
 240              		.global	MX_I2C3_Init
 241              		.syntax unified
 242              		.thumb
 243              		.thumb_func
 244              		.fpu fpv4-sp-d16
 246              	MX_I2C3_Init:
 247              	.LFB135:
 119:E:/LiteOS/LiteOS_Lab/targets/STM32L431_BearPi/Src\i2c.c **** /* I2C3 init function */
 120:E:/LiteOS/LiteOS_Lab/targets/STM32L431_BearPi/Src\i2c.c **** void MX_I2C3_Init(void)
 121:E:/LiteOS/LiteOS_Lab/targets/STM32L431_BearPi/Src\i2c.c **** {
 248              		.loc 1 121 0
 249              		.cfi_startproc
 250              		@ args = 0, pretend = 0, frame = 0
 251              		@ frame_needed = 1, uses_anonymous_args = 0
 252 0000 80B5     		push	{r7, lr}
 253              	.LCFI4:
 254              		.cfi_def_cfa_offset 8
 255              		.cfi_offset 7, -8
 256              		.cfi_offset 14, -4
 257 0002 00AF     		add	r7, sp, #0
 258              	.LCFI5:
 259              		.cfi_def_cfa_register 7
 122:E:/LiteOS/LiteOS_Lab/targets/STM32L431_BearPi/Src\i2c.c **** 
 123:E:/LiteOS/LiteOS_Lab/targets/STM32L431_BearPi/Src\i2c.c ****   hi2c3.Instance = I2C3;
 260              		.loc 1 123 0
 261 0004 1E4B     		ldr	r3, .L20
 262 0006 1F4A     		ldr	r2, .L20+4
 263 0008 1A60     		str	r2, [r3]
 124:E:/LiteOS/LiteOS_Lab/targets/STM32L431_BearPi/Src\i2c.c ****   hi2c3.Init.Timing = 0x10909CEC;
 264              		.loc 1 124 0
 265 000a 1D4B     		ldr	r3, .L20
 266 000c 1E4A     		ldr	r2, .L20+8
 267 000e 5A60     		str	r2, [r3, #4]
 125:E:/LiteOS/LiteOS_Lab/targets/STM32L431_BearPi/Src\i2c.c ****   hi2c3.Init.OwnAddress1 = 0;
 268              		.loc 1 125 0
 269 0010 1B4B     		ldr	r3, .L20
 270 0012 0022     		movs	r2, #0
 271 0014 9A60     		str	r2, [r3, #8]
 126:E:/LiteOS/LiteOS_Lab/targets/STM32L431_BearPi/Src\i2c.c ****   hi2c3.Init.AddressingMode = I2C_ADDRESSINGMODE_7BIT;
 272              		.loc 1 126 0
 273 0016 1A4B     		ldr	r3, .L20
ARM GAS  C:\Users\user\AppData\Local\Temp\cch8uioC.s 			page 8


 274 0018 0122     		movs	r2, #1
 275 001a DA60     		str	r2, [r3, #12]
 127:E:/LiteOS/LiteOS_Lab/targets/STM32L431_BearPi/Src\i2c.c ****   hi2c3.Init.DualAddressMode = I2C_DUALADDRESS_DISABLE;
 276              		.loc 1 127 0
 277 001c 184B     		ldr	r3, .L20
 278 001e 0022     		movs	r2, #0
 279 0020 1A61     		str	r2, [r3, #16]
 128:E:/LiteOS/LiteOS_Lab/targets/STM32L431_BearPi/Src\i2c.c ****   hi2c3.Init.OwnAddress2 = 0;
 280              		.loc 1 128 0
 281 0022 174B     		ldr	r3, .L20
 282 0024 0022     		movs	r2, #0
 283 0026 5A61     		str	r2, [r3, #20]
 129:E:/LiteOS/LiteOS_Lab/targets/STM32L431_BearPi/Src\i2c.c ****   hi2c3.Init.OwnAddress2Masks = I2C_OA2_NOMASK;
 284              		.loc 1 129 0
 285 0028 154B     		ldr	r3, .L20
 286 002a 0022     		movs	r2, #0
 287 002c 9A61     		str	r2, [r3, #24]
 130:E:/LiteOS/LiteOS_Lab/targets/STM32L431_BearPi/Src\i2c.c ****   hi2c3.Init.GeneralCallMode = I2C_GENERALCALL_DISABLE;
 288              		.loc 1 130 0
 289 002e 144B     		ldr	r3, .L20
 290 0030 0022     		movs	r2, #0
 291 0032 DA61     		str	r2, [r3, #28]
 131:E:/LiteOS/LiteOS_Lab/targets/STM32L431_BearPi/Src\i2c.c ****   hi2c3.Init.NoStretchMode = I2C_NOSTRETCH_DISABLE;
 292              		.loc 1 131 0
 293 0034 124B     		ldr	r3, .L20
 294 0036 0022     		movs	r2, #0
 295 0038 1A62     		str	r2, [r3, #32]
 132:E:/LiteOS/LiteOS_Lab/targets/STM32L431_BearPi/Src\i2c.c ****   if (HAL_I2C_Init(&hi2c3) != HAL_OK)
 296              		.loc 1 132 0
 297 003a 1148     		ldr	r0, .L20
 298 003c FFF7FEFF 		bl	HAL_I2C_Init
 299 0040 0346     		mov	r3, r0
 300 0042 002B     		cmp	r3, #0
 301 0044 03D0     		beq	.L16
 133:E:/LiteOS/LiteOS_Lab/targets/STM32L431_BearPi/Src\i2c.c ****   {
 134:E:/LiteOS/LiteOS_Lab/targets/STM32L431_BearPi/Src\i2c.c ****     _Error_Handler(__FILE__, __LINE__);
 302              		.loc 1 134 0
 303 0046 8621     		movs	r1, #134
 304 0048 1048     		ldr	r0, .L20+12
 305 004a FFF7FEFF 		bl	_Error_Handler
 306              	.L16:
 135:E:/LiteOS/LiteOS_Lab/targets/STM32L431_BearPi/Src\i2c.c ****   }
 136:E:/LiteOS/LiteOS_Lab/targets/STM32L431_BearPi/Src\i2c.c **** 
 137:E:/LiteOS/LiteOS_Lab/targets/STM32L431_BearPi/Src\i2c.c ****     /**Configure Analogue filter 
 138:E:/LiteOS/LiteOS_Lab/targets/STM32L431_BearPi/Src\i2c.c ****     */
 139:E:/LiteOS/LiteOS_Lab/targets/STM32L431_BearPi/Src\i2c.c ****   if (HAL_I2CEx_ConfigAnalogFilter(&hi2c3, I2C_ANALOGFILTER_ENABLE) != HAL_OK)
 307              		.loc 1 139 0
 308 004e 0021     		movs	r1, #0
 309 0050 0B48     		ldr	r0, .L20
 310 0052 FFF7FEFF 		bl	HAL_I2CEx_ConfigAnalogFilter
 311 0056 0346     		mov	r3, r0
 312 0058 002B     		cmp	r3, #0
 313 005a 03D0     		beq	.L17
 140:E:/LiteOS/LiteOS_Lab/targets/STM32L431_BearPi/Src\i2c.c ****   {
 141:E:/LiteOS/LiteOS_Lab/targets/STM32L431_BearPi/Src\i2c.c ****     _Error_Handler(__FILE__, __LINE__);
 314              		.loc 1 141 0
 315 005c 8D21     		movs	r1, #141
ARM GAS  C:\Users\user\AppData\Local\Temp\cch8uioC.s 			page 9


 316 005e 0B48     		ldr	r0, .L20+12
 317 0060 FFF7FEFF 		bl	_Error_Handler
 318              	.L17:
 142:E:/LiteOS/LiteOS_Lab/targets/STM32L431_BearPi/Src\i2c.c ****   }
 143:E:/LiteOS/LiteOS_Lab/targets/STM32L431_BearPi/Src\i2c.c **** 
 144:E:/LiteOS/LiteOS_Lab/targets/STM32L431_BearPi/Src\i2c.c ****     /**Configure Digital filter 
 145:E:/LiteOS/LiteOS_Lab/targets/STM32L431_BearPi/Src\i2c.c ****     */
 146:E:/LiteOS/LiteOS_Lab/targets/STM32L431_BearPi/Src\i2c.c ****   if (HAL_I2CEx_ConfigDigitalFilter(&hi2c3, 0) != HAL_OK)
 319              		.loc 1 146 0
 320 0064 0021     		movs	r1, #0
 321 0066 0648     		ldr	r0, .L20
 322 0068 FFF7FEFF 		bl	HAL_I2CEx_ConfigDigitalFilter
 323 006c 0346     		mov	r3, r0
 324 006e 002B     		cmp	r3, #0
 325 0070 03D0     		beq	.L19
 147:E:/LiteOS/LiteOS_Lab/targets/STM32L431_BearPi/Src\i2c.c ****   {
 148:E:/LiteOS/LiteOS_Lab/targets/STM32L431_BearPi/Src\i2c.c ****     _Error_Handler(__FILE__, __LINE__);
 326              		.loc 1 148 0
 327 0072 9421     		movs	r1, #148
 328 0074 0548     		ldr	r0, .L20+12
 329 0076 FFF7FEFF 		bl	_Error_Handler
 330              	.L19:
 149:E:/LiteOS/LiteOS_Lab/targets/STM32L431_BearPi/Src\i2c.c ****   }
 150:E:/LiteOS/LiteOS_Lab/targets/STM32L431_BearPi/Src\i2c.c **** 
 151:E:/LiteOS/LiteOS_Lab/targets/STM32L431_BearPi/Src\i2c.c **** }
 331              		.loc 1 151 0
 332 007a 00BF     		nop
 333 007c 80BD     		pop	{r7, pc}
 334              	.L21:
 335 007e 00BF     		.align	2
 336              	.L20:
 337 0080 00000000 		.word	hi2c3
 338 0084 005C0040 		.word	1073765376
 339 0088 EC9C9010 		.word	277912812
 340 008c 00000000 		.word	.LC0
 341              		.cfi_endproc
 342              	.LFE135:
 344              		.section	.text.HAL_I2C_MspInit,"ax",%progbits
 345              		.align	1
 346              		.global	HAL_I2C_MspInit
 347              		.syntax unified
 348              		.thumb
 349              		.thumb_func
 350              		.fpu fpv4-sp-d16
 352              	HAL_I2C_MspInit:
 353              	.LFB136:
 152:E:/LiteOS/LiteOS_Lab/targets/STM32L431_BearPi/Src\i2c.c **** 
 153:E:/LiteOS/LiteOS_Lab/targets/STM32L431_BearPi/Src\i2c.c **** void HAL_I2C_MspInit(I2C_HandleTypeDef* i2cHandle)
 154:E:/LiteOS/LiteOS_Lab/targets/STM32L431_BearPi/Src\i2c.c **** {
 354              		.loc 1 154 0
 355              		.cfi_startproc
 356              		@ args = 0, pretend = 0, frame = 40
 357              		@ frame_needed = 1, uses_anonymous_args = 0
 358 0000 80B5     		push	{r7, lr}
 359              	.LCFI6:
 360              		.cfi_def_cfa_offset 8
 361              		.cfi_offset 7, -8
ARM GAS  C:\Users\user\AppData\Local\Temp\cch8uioC.s 			page 10


 362              		.cfi_offset 14, -4
 363 0002 8AB0     		sub	sp, sp, #40
 364              	.LCFI7:
 365              		.cfi_def_cfa_offset 48
 366 0004 00AF     		add	r7, sp, #0
 367              	.LCFI8:
 368              		.cfi_def_cfa_register 7
 369 0006 7860     		str	r0, [r7, #4]
 155:E:/LiteOS/LiteOS_Lab/targets/STM32L431_BearPi/Src\i2c.c **** 
 156:E:/LiteOS/LiteOS_Lab/targets/STM32L431_BearPi/Src\i2c.c ****   GPIO_InitTypeDef GPIO_InitStruct;
 157:E:/LiteOS/LiteOS_Lab/targets/STM32L431_BearPi/Src\i2c.c ****   if(i2cHandle->Instance==I2C1)
 370              		.loc 1 157 0
 371 0008 7B68     		ldr	r3, [r7, #4]
 372 000a 1B68     		ldr	r3, [r3]
 373 000c 3C4A     		ldr	r2, .L27
 374 000e 9342     		cmp	r3, r2
 375 0010 1CD1     		bne	.L23
 158:E:/LiteOS/LiteOS_Lab/targets/STM32L431_BearPi/Src\i2c.c ****   {
 159:E:/LiteOS/LiteOS_Lab/targets/STM32L431_BearPi/Src\i2c.c ****   /* USER CODE BEGIN I2C1_MspInit 0 */
 160:E:/LiteOS/LiteOS_Lab/targets/STM32L431_BearPi/Src\i2c.c **** 
 161:E:/LiteOS/LiteOS_Lab/targets/STM32L431_BearPi/Src\i2c.c ****   /* USER CODE END I2C1_MspInit 0 */
 162:E:/LiteOS/LiteOS_Lab/targets/STM32L431_BearPi/Src\i2c.c ****   
 163:E:/LiteOS/LiteOS_Lab/targets/STM32L431_BearPi/Src\i2c.c ****     /**I2C1 GPIO Configuration    
 164:E:/LiteOS/LiteOS_Lab/targets/STM32L431_BearPi/Src\i2c.c ****     PB6     ------> I2C1_SCL
 165:E:/LiteOS/LiteOS_Lab/targets/STM32L431_BearPi/Src\i2c.c ****     PB7     ------> I2C1_SDA 
 166:E:/LiteOS/LiteOS_Lab/targets/STM32L431_BearPi/Src\i2c.c ****     */
 167:E:/LiteOS/LiteOS_Lab/targets/STM32L431_BearPi/Src\i2c.c ****     GPIO_InitStruct.Pin = GPIO_PIN_6|GPIO_PIN_7;
 376              		.loc 1 167 0
 377 0012 C023     		movs	r3, #192
 378 0014 7B61     		str	r3, [r7, #20]
 168:E:/LiteOS/LiteOS_Lab/targets/STM32L431_BearPi/Src\i2c.c ****     GPIO_InitStruct.Mode = GPIO_MODE_AF_OD;
 379              		.loc 1 168 0
 380 0016 1223     		movs	r3, #18
 381 0018 BB61     		str	r3, [r7, #24]
 169:E:/LiteOS/LiteOS_Lab/targets/STM32L431_BearPi/Src\i2c.c ****     GPIO_InitStruct.Pull = GPIO_PULLUP;
 382              		.loc 1 169 0
 383 001a 0123     		movs	r3, #1
 384 001c FB61     		str	r3, [r7, #28]
 170:E:/LiteOS/LiteOS_Lab/targets/STM32L431_BearPi/Src\i2c.c ****     GPIO_InitStruct.Speed = GPIO_SPEED_FREQ_VERY_HIGH;
 385              		.loc 1 170 0
 386 001e 0323     		movs	r3, #3
 387 0020 3B62     		str	r3, [r7, #32]
 171:E:/LiteOS/LiteOS_Lab/targets/STM32L431_BearPi/Src\i2c.c ****     GPIO_InitStruct.Alternate = GPIO_AF4_I2C1;
 388              		.loc 1 171 0
 389 0022 0423     		movs	r3, #4
 390 0024 7B62     		str	r3, [r7, #36]
 172:E:/LiteOS/LiteOS_Lab/targets/STM32L431_BearPi/Src\i2c.c ****     HAL_GPIO_Init(GPIOB, &GPIO_InitStruct);
 391              		.loc 1 172 0
 392 0026 07F11403 		add	r3, r7, #20
 393 002a 1946     		mov	r1, r3
 394 002c 3548     		ldr	r0, .L27+4
 395 002e FFF7FEFF 		bl	HAL_GPIO_Init
 396              	.LBB2:
 173:E:/LiteOS/LiteOS_Lab/targets/STM32L431_BearPi/Src\i2c.c **** 
 174:E:/LiteOS/LiteOS_Lab/targets/STM32L431_BearPi/Src\i2c.c ****     /* I2C1 clock enable */
 175:E:/LiteOS/LiteOS_Lab/targets/STM32L431_BearPi/Src\i2c.c ****     __HAL_RCC_I2C1_CLK_ENABLE();
 397              		.loc 1 175 0
ARM GAS  C:\Users\user\AppData\Local\Temp\cch8uioC.s 			page 11


 398 0032 354B     		ldr	r3, .L27+8
 399 0034 9B6D     		ldr	r3, [r3, #88]
 400 0036 344A     		ldr	r2, .L27+8
 401 0038 43F40013 		orr	r3, r3, #2097152
 402 003c 9365     		str	r3, [r2, #88]
 403 003e 324B     		ldr	r3, .L27+8
 404 0040 9B6D     		ldr	r3, [r3, #88]
 405 0042 03F40013 		and	r3, r3, #2097152
 406 0046 3B61     		str	r3, [r7, #16]
 407 0048 3B69     		ldr	r3, [r7, #16]
 408              	.LBE2:
 176:E:/LiteOS/LiteOS_Lab/targets/STM32L431_BearPi/Src\i2c.c ****   /* USER CODE BEGIN I2C1_MspInit 1 */
 177:E:/LiteOS/LiteOS_Lab/targets/STM32L431_BearPi/Src\i2c.c **** 
 178:E:/LiteOS/LiteOS_Lab/targets/STM32L431_BearPi/Src\i2c.c ****   /* USER CODE END I2C1_MspInit 1 */
 179:E:/LiteOS/LiteOS_Lab/targets/STM32L431_BearPi/Src\i2c.c ****   }
 180:E:/LiteOS/LiteOS_Lab/targets/STM32L431_BearPi/Src\i2c.c ****   else if(i2cHandle->Instance==I2C2)
 181:E:/LiteOS/LiteOS_Lab/targets/STM32L431_BearPi/Src\i2c.c ****   {
 182:E:/LiteOS/LiteOS_Lab/targets/STM32L431_BearPi/Src\i2c.c ****   /* USER CODE BEGIN I2C2_MspInit 0 */
 183:E:/LiteOS/LiteOS_Lab/targets/STM32L431_BearPi/Src\i2c.c **** 
 184:E:/LiteOS/LiteOS_Lab/targets/STM32L431_BearPi/Src\i2c.c ****   /* USER CODE END I2C2_MspInit 0 */
 185:E:/LiteOS/LiteOS_Lab/targets/STM32L431_BearPi/Src\i2c.c ****   
 186:E:/LiteOS/LiteOS_Lab/targets/STM32L431_BearPi/Src\i2c.c ****     /**I2C2 GPIO Configuration    
 187:E:/LiteOS/LiteOS_Lab/targets/STM32L431_BearPi/Src\i2c.c ****     PB10     ------> I2C2_SCL
 188:E:/LiteOS/LiteOS_Lab/targets/STM32L431_BearPi/Src\i2c.c ****     PB14     ------> I2C2_SDA 
 189:E:/LiteOS/LiteOS_Lab/targets/STM32L431_BearPi/Src\i2c.c ****     */
 190:E:/LiteOS/LiteOS_Lab/targets/STM32L431_BearPi/Src\i2c.c ****     GPIO_InitStruct.Pin = GPIO_PIN_10|GPIO_PIN_14;
 191:E:/LiteOS/LiteOS_Lab/targets/STM32L431_BearPi/Src\i2c.c ****     GPIO_InitStruct.Mode = GPIO_MODE_AF_OD;
 192:E:/LiteOS/LiteOS_Lab/targets/STM32L431_BearPi/Src\i2c.c ****     GPIO_InitStruct.Pull = GPIO_PULLUP;
 193:E:/LiteOS/LiteOS_Lab/targets/STM32L431_BearPi/Src\i2c.c ****     GPIO_InitStruct.Speed = GPIO_SPEED_FREQ_VERY_HIGH;
 194:E:/LiteOS/LiteOS_Lab/targets/STM32L431_BearPi/Src\i2c.c ****     GPIO_InitStruct.Alternate = GPIO_AF4_I2C2;
 195:E:/LiteOS/LiteOS_Lab/targets/STM32L431_BearPi/Src\i2c.c ****     HAL_GPIO_Init(GPIOB, &GPIO_InitStruct);
 196:E:/LiteOS/LiteOS_Lab/targets/STM32L431_BearPi/Src\i2c.c **** 
 197:E:/LiteOS/LiteOS_Lab/targets/STM32L431_BearPi/Src\i2c.c ****     /* I2C2 clock enable */
 198:E:/LiteOS/LiteOS_Lab/targets/STM32L431_BearPi/Src\i2c.c ****     __HAL_RCC_I2C2_CLK_ENABLE();
 199:E:/LiteOS/LiteOS_Lab/targets/STM32L431_BearPi/Src\i2c.c ****   /* USER CODE BEGIN I2C2_MspInit 1 */
 200:E:/LiteOS/LiteOS_Lab/targets/STM32L431_BearPi/Src\i2c.c **** 
 201:E:/LiteOS/LiteOS_Lab/targets/STM32L431_BearPi/Src\i2c.c ****   /* USER CODE END I2C2_MspInit 1 */
 202:E:/LiteOS/LiteOS_Lab/targets/STM32L431_BearPi/Src\i2c.c ****   }
 203:E:/LiteOS/LiteOS_Lab/targets/STM32L431_BearPi/Src\i2c.c ****   else if(i2cHandle->Instance==I2C3)
 204:E:/LiteOS/LiteOS_Lab/targets/STM32L431_BearPi/Src\i2c.c ****   {
 205:E:/LiteOS/LiteOS_Lab/targets/STM32L431_BearPi/Src\i2c.c ****   /* USER CODE BEGIN I2C3_MspInit 0 */
 206:E:/LiteOS/LiteOS_Lab/targets/STM32L431_BearPi/Src\i2c.c **** 
 207:E:/LiteOS/LiteOS_Lab/targets/STM32L431_BearPi/Src\i2c.c ****   /* USER CODE END I2C3_MspInit 0 */
 208:E:/LiteOS/LiteOS_Lab/targets/STM32L431_BearPi/Src\i2c.c ****   
 209:E:/LiteOS/LiteOS_Lab/targets/STM32L431_BearPi/Src\i2c.c ****     /**I2C3 GPIO Configuration    
 210:E:/LiteOS/LiteOS_Lab/targets/STM32L431_BearPi/Src\i2c.c ****     PA7     ------> I2C3_SCL
 211:E:/LiteOS/LiteOS_Lab/targets/STM32L431_BearPi/Src\i2c.c ****     PB4 (NJTRST)     ------> I2C3_SDA 
 212:E:/LiteOS/LiteOS_Lab/targets/STM32L431_BearPi/Src\i2c.c ****     */
 213:E:/LiteOS/LiteOS_Lab/targets/STM32L431_BearPi/Src\i2c.c ****     GPIO_InitStruct.Pin = GPIO_PIN_7;
 214:E:/LiteOS/LiteOS_Lab/targets/STM32L431_BearPi/Src\i2c.c ****     GPIO_InitStruct.Mode = GPIO_MODE_AF_OD;
 215:E:/LiteOS/LiteOS_Lab/targets/STM32L431_BearPi/Src\i2c.c ****     GPIO_InitStruct.Pull = GPIO_PULLUP;
 216:E:/LiteOS/LiteOS_Lab/targets/STM32L431_BearPi/Src\i2c.c ****     GPIO_InitStruct.Speed = GPIO_SPEED_FREQ_VERY_HIGH;
 217:E:/LiteOS/LiteOS_Lab/targets/STM32L431_BearPi/Src\i2c.c ****     GPIO_InitStruct.Alternate = GPIO_AF4_I2C3;
 218:E:/LiteOS/LiteOS_Lab/targets/STM32L431_BearPi/Src\i2c.c ****     HAL_GPIO_Init(GPIOA, &GPIO_InitStruct);
 219:E:/LiteOS/LiteOS_Lab/targets/STM32L431_BearPi/Src\i2c.c **** 
 220:E:/LiteOS/LiteOS_Lab/targets/STM32L431_BearPi/Src\i2c.c ****     GPIO_InitStruct.Pin = GPIO_PIN_4;
 221:E:/LiteOS/LiteOS_Lab/targets/STM32L431_BearPi/Src\i2c.c ****     GPIO_InitStruct.Mode = GPIO_MODE_AF_OD;
ARM GAS  C:\Users\user\AppData\Local\Temp\cch8uioC.s 			page 12


 222:E:/LiteOS/LiteOS_Lab/targets/STM32L431_BearPi/Src\i2c.c ****     GPIO_InitStruct.Pull = GPIO_PULLUP;
 223:E:/LiteOS/LiteOS_Lab/targets/STM32L431_BearPi/Src\i2c.c ****     GPIO_InitStruct.Speed = GPIO_SPEED_FREQ_VERY_HIGH;
 224:E:/LiteOS/LiteOS_Lab/targets/STM32L431_BearPi/Src\i2c.c ****     GPIO_InitStruct.Alternate = GPIO_AF4_I2C3;
 225:E:/LiteOS/LiteOS_Lab/targets/STM32L431_BearPi/Src\i2c.c ****     HAL_GPIO_Init(GPIOB, &GPIO_InitStruct);
 226:E:/LiteOS/LiteOS_Lab/targets/STM32L431_BearPi/Src\i2c.c **** 
 227:E:/LiteOS/LiteOS_Lab/targets/STM32L431_BearPi/Src\i2c.c ****     /* I2C3 clock enable */
 228:E:/LiteOS/LiteOS_Lab/targets/STM32L431_BearPi/Src\i2c.c ****     __HAL_RCC_I2C3_CLK_ENABLE();
 229:E:/LiteOS/LiteOS_Lab/targets/STM32L431_BearPi/Src\i2c.c ****   /* USER CODE BEGIN I2C3_MspInit 1 */
 230:E:/LiteOS/LiteOS_Lab/targets/STM32L431_BearPi/Src\i2c.c **** 
 231:E:/LiteOS/LiteOS_Lab/targets/STM32L431_BearPi/Src\i2c.c ****   /* USER CODE END I2C3_MspInit 1 */
 232:E:/LiteOS/LiteOS_Lab/targets/STM32L431_BearPi/Src\i2c.c ****   }
 233:E:/LiteOS/LiteOS_Lab/targets/STM32L431_BearPi/Src\i2c.c **** }
 409              		.loc 1 233 0
 410 004a 54E0     		b	.L26
 411              	.L23:
 180:E:/LiteOS/LiteOS_Lab/targets/STM32L431_BearPi/Src\i2c.c ****   {
 412              		.loc 1 180 0
 413 004c 7B68     		ldr	r3, [r7, #4]
 414 004e 1B68     		ldr	r3, [r3]
 415 0050 2E4A     		ldr	r2, .L27+12
 416 0052 9342     		cmp	r3, r2
 417 0054 1DD1     		bne	.L25
 190:E:/LiteOS/LiteOS_Lab/targets/STM32L431_BearPi/Src\i2c.c ****     GPIO_InitStruct.Mode = GPIO_MODE_AF_OD;
 418              		.loc 1 190 0
 419 0056 4FF48843 		mov	r3, #17408
 420 005a 7B61     		str	r3, [r7, #20]
 191:E:/LiteOS/LiteOS_Lab/targets/STM32L431_BearPi/Src\i2c.c ****     GPIO_InitStruct.Pull = GPIO_PULLUP;
 421              		.loc 1 191 0
 422 005c 1223     		movs	r3, #18
 423 005e BB61     		str	r3, [r7, #24]
 192:E:/LiteOS/LiteOS_Lab/targets/STM32L431_BearPi/Src\i2c.c ****     GPIO_InitStruct.Speed = GPIO_SPEED_FREQ_VERY_HIGH;
 424              		.loc 1 192 0
 425 0060 0123     		movs	r3, #1
 426 0062 FB61     		str	r3, [r7, #28]
 193:E:/LiteOS/LiteOS_Lab/targets/STM32L431_BearPi/Src\i2c.c ****     GPIO_InitStruct.Alternate = GPIO_AF4_I2C2;
 427              		.loc 1 193 0
 428 0064 0323     		movs	r3, #3
 429 0066 3B62     		str	r3, [r7, #32]
 194:E:/LiteOS/LiteOS_Lab/targets/STM32L431_BearPi/Src\i2c.c ****     HAL_GPIO_Init(GPIOB, &GPIO_InitStruct);
 430              		.loc 1 194 0
 431 0068 0423     		movs	r3, #4
 432 006a 7B62     		str	r3, [r7, #36]
 195:E:/LiteOS/LiteOS_Lab/targets/STM32L431_BearPi/Src\i2c.c **** 
 433              		.loc 1 195 0
 434 006c 07F11403 		add	r3, r7, #20
 435 0070 1946     		mov	r1, r3
 436 0072 2448     		ldr	r0, .L27+4
 437 0074 FFF7FEFF 		bl	HAL_GPIO_Init
 438              	.LBB3:
 198:E:/LiteOS/LiteOS_Lab/targets/STM32L431_BearPi/Src\i2c.c ****   /* USER CODE BEGIN I2C2_MspInit 1 */
 439              		.loc 1 198 0
 440 0078 234B     		ldr	r3, .L27+8
 441 007a 9B6D     		ldr	r3, [r3, #88]
 442 007c 224A     		ldr	r2, .L27+8
 443 007e 43F48003 		orr	r3, r3, #4194304
 444 0082 9365     		str	r3, [r2, #88]
 445 0084 204B     		ldr	r3, .L27+8
ARM GAS  C:\Users\user\AppData\Local\Temp\cch8uioC.s 			page 13


 446 0086 9B6D     		ldr	r3, [r3, #88]
 447 0088 03F48003 		and	r3, r3, #4194304
 448 008c FB60     		str	r3, [r7, #12]
 449 008e FB68     		ldr	r3, [r7, #12]
 450              	.LBE3:
 451              		.loc 1 233 0
 452 0090 31E0     		b	.L26
 453              	.L25:
 203:E:/LiteOS/LiteOS_Lab/targets/STM32L431_BearPi/Src\i2c.c ****   {
 454              		.loc 1 203 0
 455 0092 7B68     		ldr	r3, [r7, #4]
 456 0094 1B68     		ldr	r3, [r3]
 457 0096 1E4A     		ldr	r2, .L27+16
 458 0098 9342     		cmp	r3, r2
 459 009a 2CD1     		bne	.L26
 213:E:/LiteOS/LiteOS_Lab/targets/STM32L431_BearPi/Src\i2c.c ****     GPIO_InitStruct.Mode = GPIO_MODE_AF_OD;
 460              		.loc 1 213 0
 461 009c 8023     		movs	r3, #128
 462 009e 7B61     		str	r3, [r7, #20]
 214:E:/LiteOS/LiteOS_Lab/targets/STM32L431_BearPi/Src\i2c.c ****     GPIO_InitStruct.Pull = GPIO_PULLUP;
 463              		.loc 1 214 0
 464 00a0 1223     		movs	r3, #18
 465 00a2 BB61     		str	r3, [r7, #24]
 215:E:/LiteOS/LiteOS_Lab/targets/STM32L431_BearPi/Src\i2c.c ****     GPIO_InitStruct.Speed = GPIO_SPEED_FREQ_VERY_HIGH;
 466              		.loc 1 215 0
 467 00a4 0123     		movs	r3, #1
 468 00a6 FB61     		str	r3, [r7, #28]
 216:E:/LiteOS/LiteOS_Lab/targets/STM32L431_BearPi/Src\i2c.c ****     GPIO_InitStruct.Alternate = GPIO_AF4_I2C3;
 469              		.loc 1 216 0
 470 00a8 0323     		movs	r3, #3
 471 00aa 3B62     		str	r3, [r7, #32]
 217:E:/LiteOS/LiteOS_Lab/targets/STM32L431_BearPi/Src\i2c.c ****     HAL_GPIO_Init(GPIOA, &GPIO_InitStruct);
 472              		.loc 1 217 0
 473 00ac 0423     		movs	r3, #4
 474 00ae 7B62     		str	r3, [r7, #36]
 218:E:/LiteOS/LiteOS_Lab/targets/STM32L431_BearPi/Src\i2c.c **** 
 475              		.loc 1 218 0
 476 00b0 07F11403 		add	r3, r7, #20
 477 00b4 1946     		mov	r1, r3
 478 00b6 4FF09040 		mov	r0, #1207959552
 479 00ba FFF7FEFF 		bl	HAL_GPIO_Init
 220:E:/LiteOS/LiteOS_Lab/targets/STM32L431_BearPi/Src\i2c.c ****     GPIO_InitStruct.Mode = GPIO_MODE_AF_OD;
 480              		.loc 1 220 0
 481 00be 1023     		movs	r3, #16
 482 00c0 7B61     		str	r3, [r7, #20]
 221:E:/LiteOS/LiteOS_Lab/targets/STM32L431_BearPi/Src\i2c.c ****     GPIO_InitStruct.Pull = GPIO_PULLUP;
 483              		.loc 1 221 0
 484 00c2 1223     		movs	r3, #18
 485 00c4 BB61     		str	r3, [r7, #24]
 222:E:/LiteOS/LiteOS_Lab/targets/STM32L431_BearPi/Src\i2c.c ****     GPIO_InitStruct.Speed = GPIO_SPEED_FREQ_VERY_HIGH;
 486              		.loc 1 222 0
 487 00c6 0123     		movs	r3, #1
 488 00c8 FB61     		str	r3, [r7, #28]
 223:E:/LiteOS/LiteOS_Lab/targets/STM32L431_BearPi/Src\i2c.c ****     GPIO_InitStruct.Alternate = GPIO_AF4_I2C3;
 489              		.loc 1 223 0
 490 00ca 0323     		movs	r3, #3
 491 00cc 3B62     		str	r3, [r7, #32]
ARM GAS  C:\Users\user\AppData\Local\Temp\cch8uioC.s 			page 14


 224:E:/LiteOS/LiteOS_Lab/targets/STM32L431_BearPi/Src\i2c.c ****     HAL_GPIO_Init(GPIOB, &GPIO_InitStruct);
 492              		.loc 1 224 0
 493 00ce 0423     		movs	r3, #4
 494 00d0 7B62     		str	r3, [r7, #36]
 225:E:/LiteOS/LiteOS_Lab/targets/STM32L431_BearPi/Src\i2c.c **** 
 495              		.loc 1 225 0
 496 00d2 07F11403 		add	r3, r7, #20
 497 00d6 1946     		mov	r1, r3
 498 00d8 0A48     		ldr	r0, .L27+4
 499 00da FFF7FEFF 		bl	HAL_GPIO_Init
 500              	.LBB4:
 228:E:/LiteOS/LiteOS_Lab/targets/STM32L431_BearPi/Src\i2c.c ****   /* USER CODE BEGIN I2C3_MspInit 1 */
 501              		.loc 1 228 0
 502 00de 0A4B     		ldr	r3, .L27+8
 503 00e0 9B6D     		ldr	r3, [r3, #88]
 504 00e2 094A     		ldr	r2, .L27+8
 505 00e4 43F40003 		orr	r3, r3, #8388608
 506 00e8 9365     		str	r3, [r2, #88]
 507 00ea 074B     		ldr	r3, .L27+8
 508 00ec 9B6D     		ldr	r3, [r3, #88]
 509 00ee 03F40003 		and	r3, r3, #8388608
 510 00f2 BB60     		str	r3, [r7, #8]
 511 00f4 BB68     		ldr	r3, [r7, #8]
 512              	.L26:
 513              	.LBE4:
 514              		.loc 1 233 0
 515 00f6 00BF     		nop
 516 00f8 2837     		adds	r7, r7, #40
 517              	.LCFI9:
 518              		.cfi_def_cfa_offset 8
 519 00fa BD46     		mov	sp, r7
 520              	.LCFI10:
 521              		.cfi_def_cfa_register 13
 522              		@ sp needed
 523 00fc 80BD     		pop	{r7, pc}
 524              	.L28:
 525 00fe 00BF     		.align	2
 526              	.L27:
 527 0100 00540040 		.word	1073763328
 528 0104 00040048 		.word	1207960576
 529 0108 00100240 		.word	1073876992
 530 010c 00580040 		.word	1073764352
 531 0110 005C0040 		.word	1073765376
 532              		.cfi_endproc
 533              	.LFE136:
 535              		.section	.text.HAL_I2C_MspDeInit,"ax",%progbits
 536              		.align	1
 537              		.global	HAL_I2C_MspDeInit
 538              		.syntax unified
 539              		.thumb
 540              		.thumb_func
 541              		.fpu fpv4-sp-d16
 543              	HAL_I2C_MspDeInit:
 544              	.LFB137:
 234:E:/LiteOS/LiteOS_Lab/targets/STM32L431_BearPi/Src\i2c.c **** 
 235:E:/LiteOS/LiteOS_Lab/targets/STM32L431_BearPi/Src\i2c.c **** void HAL_I2C_MspDeInit(I2C_HandleTypeDef* i2cHandle)
 236:E:/LiteOS/LiteOS_Lab/targets/STM32L431_BearPi/Src\i2c.c **** {
ARM GAS  C:\Users\user\AppData\Local\Temp\cch8uioC.s 			page 15


 545              		.loc 1 236 0
 546              		.cfi_startproc
 547              		@ args = 0, pretend = 0, frame = 8
 548              		@ frame_needed = 1, uses_anonymous_args = 0
 549 0000 80B5     		push	{r7, lr}
 550              	.LCFI11:
 551              		.cfi_def_cfa_offset 8
 552              		.cfi_offset 7, -8
 553              		.cfi_offset 14, -4
 554 0002 82B0     		sub	sp, sp, #8
 555              	.LCFI12:
 556              		.cfi_def_cfa_offset 16
 557 0004 00AF     		add	r7, sp, #0
 558              	.LCFI13:
 559              		.cfi_def_cfa_register 7
 560 0006 7860     		str	r0, [r7, #4]
 237:E:/LiteOS/LiteOS_Lab/targets/STM32L431_BearPi/Src\i2c.c **** 
 238:E:/LiteOS/LiteOS_Lab/targets/STM32L431_BearPi/Src\i2c.c ****   if(i2cHandle->Instance==I2C1)
 561              		.loc 1 238 0
 562 0008 7B68     		ldr	r3, [r7, #4]
 563 000a 1B68     		ldr	r3, [r3]
 564 000c 1B4A     		ldr	r2, .L34
 565 000e 9342     		cmp	r3, r2
 566 0010 0AD1     		bne	.L30
 239:E:/LiteOS/LiteOS_Lab/targets/STM32L431_BearPi/Src\i2c.c ****   {
 240:E:/LiteOS/LiteOS_Lab/targets/STM32L431_BearPi/Src\i2c.c ****   /* USER CODE BEGIN I2C1_MspDeInit 0 */
 241:E:/LiteOS/LiteOS_Lab/targets/STM32L431_BearPi/Src\i2c.c **** 
 242:E:/LiteOS/LiteOS_Lab/targets/STM32L431_BearPi/Src\i2c.c ****   /* USER CODE END I2C1_MspDeInit 0 */
 243:E:/LiteOS/LiteOS_Lab/targets/STM32L431_BearPi/Src\i2c.c ****     /* Peripheral clock disable */
 244:E:/LiteOS/LiteOS_Lab/targets/STM32L431_BearPi/Src\i2c.c ****     __HAL_RCC_I2C1_CLK_DISABLE();
 567              		.loc 1 244 0
 568 0012 1B4B     		ldr	r3, .L34+4
 569 0014 9B6D     		ldr	r3, [r3, #88]
 570 0016 1A4A     		ldr	r2, .L34+4
 571 0018 23F40013 		bic	r3, r3, #2097152
 572 001c 9365     		str	r3, [r2, #88]
 245:E:/LiteOS/LiteOS_Lab/targets/STM32L431_BearPi/Src\i2c.c ****   
 246:E:/LiteOS/LiteOS_Lab/targets/STM32L431_BearPi/Src\i2c.c ****     /**I2C1 GPIO Configuration    
 247:E:/LiteOS/LiteOS_Lab/targets/STM32L431_BearPi/Src\i2c.c ****     PB6     ------> I2C1_SCL
 248:E:/LiteOS/LiteOS_Lab/targets/STM32L431_BearPi/Src\i2c.c ****     PB7     ------> I2C1_SDA 
 249:E:/LiteOS/LiteOS_Lab/targets/STM32L431_BearPi/Src\i2c.c ****     */
 250:E:/LiteOS/LiteOS_Lab/targets/STM32L431_BearPi/Src\i2c.c ****     HAL_GPIO_DeInit(GPIOB, GPIO_PIN_6|GPIO_PIN_7);
 573              		.loc 1 250 0
 574 001e C021     		movs	r1, #192
 575 0020 1848     		ldr	r0, .L34+8
 576 0022 FFF7FEFF 		bl	HAL_GPIO_DeInit
 251:E:/LiteOS/LiteOS_Lab/targets/STM32L431_BearPi/Src\i2c.c **** 
 252:E:/LiteOS/LiteOS_Lab/targets/STM32L431_BearPi/Src\i2c.c ****   /* USER CODE BEGIN I2C1_MspDeInit 1 */
 253:E:/LiteOS/LiteOS_Lab/targets/STM32L431_BearPi/Src\i2c.c **** 
 254:E:/LiteOS/LiteOS_Lab/targets/STM32L431_BearPi/Src\i2c.c ****   /* USER CODE END I2C1_MspDeInit 1 */
 255:E:/LiteOS/LiteOS_Lab/targets/STM32L431_BearPi/Src\i2c.c ****   }
 256:E:/LiteOS/LiteOS_Lab/targets/STM32L431_BearPi/Src\i2c.c ****   else if(i2cHandle->Instance==I2C2)
 257:E:/LiteOS/LiteOS_Lab/targets/STM32L431_BearPi/Src\i2c.c ****   {
 258:E:/LiteOS/LiteOS_Lab/targets/STM32L431_BearPi/Src\i2c.c ****   /* USER CODE BEGIN I2C2_MspDeInit 0 */
 259:E:/LiteOS/LiteOS_Lab/targets/STM32L431_BearPi/Src\i2c.c **** 
 260:E:/LiteOS/LiteOS_Lab/targets/STM32L431_BearPi/Src\i2c.c ****   /* USER CODE END I2C2_MspDeInit 0 */
 261:E:/LiteOS/LiteOS_Lab/targets/STM32L431_BearPi/Src\i2c.c ****     /* Peripheral clock disable */
ARM GAS  C:\Users\user\AppData\Local\Temp\cch8uioC.s 			page 16


 262:E:/LiteOS/LiteOS_Lab/targets/STM32L431_BearPi/Src\i2c.c ****     __HAL_RCC_I2C2_CLK_DISABLE();
 263:E:/LiteOS/LiteOS_Lab/targets/STM32L431_BearPi/Src\i2c.c ****   
 264:E:/LiteOS/LiteOS_Lab/targets/STM32L431_BearPi/Src\i2c.c ****     /**I2C2 GPIO Configuration    
 265:E:/LiteOS/LiteOS_Lab/targets/STM32L431_BearPi/Src\i2c.c ****     PB10     ------> I2C2_SCL
 266:E:/LiteOS/LiteOS_Lab/targets/STM32L431_BearPi/Src\i2c.c ****     PB14     ------> I2C2_SDA 
 267:E:/LiteOS/LiteOS_Lab/targets/STM32L431_BearPi/Src\i2c.c ****     */
 268:E:/LiteOS/LiteOS_Lab/targets/STM32L431_BearPi/Src\i2c.c ****     HAL_GPIO_DeInit(GPIOB, GPIO_PIN_10|GPIO_PIN_14);
 269:E:/LiteOS/LiteOS_Lab/targets/STM32L431_BearPi/Src\i2c.c **** 
 270:E:/LiteOS/LiteOS_Lab/targets/STM32L431_BearPi/Src\i2c.c ****   /* USER CODE BEGIN I2C2_MspDeInit 1 */
 271:E:/LiteOS/LiteOS_Lab/targets/STM32L431_BearPi/Src\i2c.c **** 
 272:E:/LiteOS/LiteOS_Lab/targets/STM32L431_BearPi/Src\i2c.c ****   /* USER CODE END I2C2_MspDeInit 1 */
 273:E:/LiteOS/LiteOS_Lab/targets/STM32L431_BearPi/Src\i2c.c ****   }
 274:E:/LiteOS/LiteOS_Lab/targets/STM32L431_BearPi/Src\i2c.c ****   else if(i2cHandle->Instance==I2C3)
 275:E:/LiteOS/LiteOS_Lab/targets/STM32L431_BearPi/Src\i2c.c ****   {
 276:E:/LiteOS/LiteOS_Lab/targets/STM32L431_BearPi/Src\i2c.c ****   /* USER CODE BEGIN I2C3_MspDeInit 0 */
 277:E:/LiteOS/LiteOS_Lab/targets/STM32L431_BearPi/Src\i2c.c **** 
 278:E:/LiteOS/LiteOS_Lab/targets/STM32L431_BearPi/Src\i2c.c ****   /* USER CODE END I2C3_MspDeInit 0 */
 279:E:/LiteOS/LiteOS_Lab/targets/STM32L431_BearPi/Src\i2c.c ****     /* Peripheral clock disable */
 280:E:/LiteOS/LiteOS_Lab/targets/STM32L431_BearPi/Src\i2c.c ****     __HAL_RCC_I2C3_CLK_DISABLE();
 281:E:/LiteOS/LiteOS_Lab/targets/STM32L431_BearPi/Src\i2c.c ****   
 282:E:/LiteOS/LiteOS_Lab/targets/STM32L431_BearPi/Src\i2c.c ****     /**I2C3 GPIO Configuration    
 283:E:/LiteOS/LiteOS_Lab/targets/STM32L431_BearPi/Src\i2c.c ****     PA7     ------> I2C3_SCL
 284:E:/LiteOS/LiteOS_Lab/targets/STM32L431_BearPi/Src\i2c.c ****     PB4 (NJTRST)     ------> I2C3_SDA 
 285:E:/LiteOS/LiteOS_Lab/targets/STM32L431_BearPi/Src\i2c.c ****     */
 286:E:/LiteOS/LiteOS_Lab/targets/STM32L431_BearPi/Src\i2c.c ****     HAL_GPIO_DeInit(GPIOA, GPIO_PIN_7);
 287:E:/LiteOS/LiteOS_Lab/targets/STM32L431_BearPi/Src\i2c.c **** 
 288:E:/LiteOS/LiteOS_Lab/targets/STM32L431_BearPi/Src\i2c.c ****     HAL_GPIO_DeInit(GPIOB, GPIO_PIN_4);
 289:E:/LiteOS/LiteOS_Lab/targets/STM32L431_BearPi/Src\i2c.c **** 
 290:E:/LiteOS/LiteOS_Lab/targets/STM32L431_BearPi/Src\i2c.c ****   /* USER CODE BEGIN I2C3_MspDeInit 1 */
 291:E:/LiteOS/LiteOS_Lab/targets/STM32L431_BearPi/Src\i2c.c **** 
 292:E:/LiteOS/LiteOS_Lab/targets/STM32L431_BearPi/Src\i2c.c ****   /* USER CODE END I2C3_MspDeInit 1 */
 293:E:/LiteOS/LiteOS_Lab/targets/STM32L431_BearPi/Src\i2c.c ****   }
 294:E:/LiteOS/LiteOS_Lab/targets/STM32L431_BearPi/Src\i2c.c **** } 
 577              		.loc 1 294 0
 578 0026 24E0     		b	.L33
 579              	.L30:
 256:E:/LiteOS/LiteOS_Lab/targets/STM32L431_BearPi/Src\i2c.c ****   {
 580              		.loc 1 256 0
 581 0028 7B68     		ldr	r3, [r7, #4]
 582 002a 1B68     		ldr	r3, [r3]
 583 002c 164A     		ldr	r2, .L34+12
 584 002e 9342     		cmp	r3, r2
 585 0030 0BD1     		bne	.L32
 262:E:/LiteOS/LiteOS_Lab/targets/STM32L431_BearPi/Src\i2c.c ****   
 586              		.loc 1 262 0
 587 0032 134B     		ldr	r3, .L34+4
 588 0034 9B6D     		ldr	r3, [r3, #88]
 589 0036 124A     		ldr	r2, .L34+4
 590 0038 23F48003 		bic	r3, r3, #4194304
 591 003c 9365     		str	r3, [r2, #88]
 268:E:/LiteOS/LiteOS_Lab/targets/STM32L431_BearPi/Src\i2c.c **** 
 592              		.loc 1 268 0
 593 003e 4FF48841 		mov	r1, #17408
 594 0042 1048     		ldr	r0, .L34+8
 595 0044 FFF7FEFF 		bl	HAL_GPIO_DeInit
 596              		.loc 1 294 0
 597 0048 13E0     		b	.L33
ARM GAS  C:\Users\user\AppData\Local\Temp\cch8uioC.s 			page 17


 598              	.L32:
 274:E:/LiteOS/LiteOS_Lab/targets/STM32L431_BearPi/Src\i2c.c ****   {
 599              		.loc 1 274 0
 600 004a 7B68     		ldr	r3, [r7, #4]
 601 004c 1B68     		ldr	r3, [r3]
 602 004e 0F4A     		ldr	r2, .L34+16
 603 0050 9342     		cmp	r3, r2
 604 0052 0ED1     		bne	.L33
 280:E:/LiteOS/LiteOS_Lab/targets/STM32L431_BearPi/Src\i2c.c ****   
 605              		.loc 1 280 0
 606 0054 0A4B     		ldr	r3, .L34+4
 607 0056 9B6D     		ldr	r3, [r3, #88]
 608 0058 094A     		ldr	r2, .L34+4
 609 005a 23F40003 		bic	r3, r3, #8388608
 610 005e 9365     		str	r3, [r2, #88]
 286:E:/LiteOS/LiteOS_Lab/targets/STM32L431_BearPi/Src\i2c.c **** 
 611              		.loc 1 286 0
 612 0060 8021     		movs	r1, #128
 613 0062 4FF09040 		mov	r0, #1207959552
 614 0066 FFF7FEFF 		bl	HAL_GPIO_DeInit
 288:E:/LiteOS/LiteOS_Lab/targets/STM32L431_BearPi/Src\i2c.c **** 
 615              		.loc 1 288 0
 616 006a 1021     		movs	r1, #16
 617 006c 0548     		ldr	r0, .L34+8
 618 006e FFF7FEFF 		bl	HAL_GPIO_DeInit
 619              	.L33:
 620              		.loc 1 294 0
 621 0072 00BF     		nop
 622 0074 0837     		adds	r7, r7, #8
 623              	.LCFI14:
 624              		.cfi_def_cfa_offset 8
 625 0076 BD46     		mov	sp, r7
 626              	.LCFI15:
 627              		.cfi_def_cfa_register 13
 628              		@ sp needed
 629 0078 80BD     		pop	{r7, pc}
 630              	.L35:
 631 007a 00BF     		.align	2
 632              	.L34:
 633 007c 00540040 		.word	1073763328
 634 0080 00100240 		.word	1073876992
 635 0084 00040048 		.word	1207960576
 636 0088 00580040 		.word	1073764352
 637 008c 005C0040 		.word	1073765376
 638              		.cfi_endproc
 639              	.LFE137:
 641              		.text
 642              	.Letext0:
 643              		.file 2 "e:\\ac6\\systemworkbench\\plugins\\fr.ac6.mcu.externaltools.arm-none.win32_1.16.0.2018071
 644              		.file 3 "e:\\ac6\\systemworkbench\\plugins\\fr.ac6.mcu.externaltools.arm-none.win32_1.16.0.2018071
 645              		.file 4 "e:\\ac6\\systemworkbench\\plugins\\fr.ac6.mcu.externaltools.arm-none.win32_1.16.0.2018071
 646              		.file 5 "e:\\ac6\\systemworkbench\\plugins\\fr.ac6.mcu.externaltools.arm-none.win32_1.16.0.2018071
 647              		.file 6 "e:\\ac6\\systemworkbench\\plugins\\fr.ac6.mcu.externaltools.arm-none.win32_1.16.0.2018071
 648              		.file 7 "E:/LiteOS/LiteOS_Lab/iot_link/os/os_imp/liteos/include/los_typedef.h"
 649              		.file 8 "e:\\ac6\\systemworkbench\\plugins\\fr.ac6.mcu.externaltools.arm-none.win32_1.16.0.2018071
 650              		.file 9 "E:/LiteOS/LiteOS_Lab/iot_link/os/os_imp/liteos/arch/arm/common/cmsis/core_cm4.h"
 651              		.file 10 "E:/LiteOS/LiteOS_Lab/targets/STM32L431_BearPi/Inc/system_stm32l4xx.h"
ARM GAS  C:\Users\user\AppData\Local\Temp\cch8uioC.s 			page 18


 652              		.file 11 "E:/LiteOS/LiteOS_Lab/targets/STM32L431_BearPi/Inc/stm32l431xx.h"
 653              		.file 12 "E:/LiteOS/LiteOS_Lab/iot_link/os/os_imp/liteos/include/los_config.h"
 654              		.file 13 "E:/LiteOS/LiteOS_Lab/iot_link/os/os_imp/liteos/include/los_list.h"
 655              		.file 14 "E:/LiteOS/LiteOS_Lab/iot_link/os/os_imp/liteos/include/los_err.h"
 656              		.file 15 "E:/LiteOS/LiteOS_Lab/iot_link/os/os_imp/liteos/arch/arm/arm-m/include/los_hwi.h"
 657              		.file 16 "E:/LiteOS/LiteOS_Lab/iot_link/os/os_imp/liteos/include/los_tick.h"
 658              		.file 17 "E:/LiteOS/LiteOS_Lab/iot_link/os/os_imp/liteos/include/los_event.h"
 659              		.file 18 "E:/LiteOS/LiteOS_Lab/iot_link/os/os_imp/liteos/include/los_task.h"
 660              		.file 19 "E:/LiteOS/LiteOS_Lab/iot_link/os/os_imp/liteos/base/include/los_task.ph"
 661              		.file 20 "E:/LiteOS/LiteOS_Lab/targets/STM32L431_BearPi/Inc/main.h"
 662              		.file 21 "E:/LiteOS/LiteOS_Lab/drivers/third_party/ST/STM32L4xx_HAL_Driver/Inc/stm32l4xx_hal_def.h
 663              		.file 22 "E:/LiteOS/LiteOS_Lab/drivers/third_party/ST/STM32L4xx_HAL_Driver/Inc/stm32l4xx_hal_gpio.
 664              		.file 23 "E:/LiteOS/LiteOS_Lab/drivers/third_party/ST/STM32L4xx_HAL_Driver/Inc/stm32l4xx_hal_dma.h
 665              		.file 24 "E:/LiteOS/LiteOS_Lab/drivers/third_party/ST/STM32L4xx_HAL_Driver/Inc/stm32l4xx_hal_i2c.h
 666              		.file 25 "E:/LiteOS/LiteOS_Lab/targets/STM32L431_BearPi/Inc/i2c.h"
ARM GAS  C:\Users\user\AppData\Local\Temp\cch8uioC.s 			page 19

