ARM GAS  C:\Users\user\AppData\Local\Temp\cc6LYYwo.s 			page 1


   1              		.cpu cortex-m4
   2              		.eabi_attribute 27, 1
   3              		.eabi_attribute 28, 1
   4              		.eabi_attribute 20, 1
   5              		.eabi_attribute 21, 1
   6              		.eabi_attribute 23, 3
   7              		.eabi_attribute 24, 1
   8              		.eabi_attribute 25, 1
   9              		.eabi_attribute 26, 1
  10              		.eabi_attribute 30, 6
  11              		.eabi_attribute 34, 1
  12              		.eabi_attribute 18, 4
  13              		.file	"link_main.c"
  14              		.text
  15              	.Ltext0:
  16              		.cfi_sections	.debug_frame
  17              		.section	.rodata
  18              		.align	2
  19              	.LC0:
  20 0000 706C6561 		.ascii	"please remember to supply a netdriver---- please\012"
  20      73652072 
  20      656D656D 
  20      62657220 
  20      746F2073 
  21 0031 0D00     		.ascii	"\015\000"
  22              		.section	.text.netdriver_install,"ax",%progbits
  23              		.align	1
  24              		.weak	netdriver_install
  25              		.syntax unified
  26              		.thumb
  27              		.thumb_func
  28              		.fpu fpv4-sp-d16
  30              	netdriver_install:
  31              	.LFB3:
  32              		.file 1 "E:/LiteOS/LiteOS_Lab/iot_link/link_main.c"
   1:E:/LiteOS/LiteOS_Lab/iot_link\link_main.c **** /*----------------------------------------------------------------------------
   2:E:/LiteOS/LiteOS_Lab/iot_link\link_main.c ****  * Copyright (c) <2018>, <Huawei Technologies Co., Ltd>
   3:E:/LiteOS/LiteOS_Lab/iot_link\link_main.c ****  * All rights reserved.
   4:E:/LiteOS/LiteOS_Lab/iot_link\link_main.c ****  * Redistribution and use in source and binary forms, with or without modification,
   5:E:/LiteOS/LiteOS_Lab/iot_link\link_main.c ****  * are permitted provided that the following conditions are met:
   6:E:/LiteOS/LiteOS_Lab/iot_link\link_main.c ****  * 1. Redistributions of source code must retain the above copyright notice, this list of
   7:E:/LiteOS/LiteOS_Lab/iot_link\link_main.c ****  * conditions and the following disclaimer.
   8:E:/LiteOS/LiteOS_Lab/iot_link\link_main.c ****  * 2. Redistributions in binary form must reproduce the above copyright notice, this list
   9:E:/LiteOS/LiteOS_Lab/iot_link\link_main.c ****  * of conditions and the following disclaimer in the documentation and/or other materials
  10:E:/LiteOS/LiteOS_Lab/iot_link\link_main.c ****  * provided with the distribution.
  11:E:/LiteOS/LiteOS_Lab/iot_link\link_main.c ****  * 3. Neither the name of the copyright holder nor the names of its contributors may be used
  12:E:/LiteOS/LiteOS_Lab/iot_link\link_main.c ****  * to endorse or promote products derived from this software without specific prior written
  13:E:/LiteOS/LiteOS_Lab/iot_link\link_main.c ****  * permission.
  14:E:/LiteOS/LiteOS_Lab/iot_link\link_main.c ****  * THIS SOFTWARE IS PROVIDED BY THE COPYRIGHT HOLDERS AND CONTRIBUTORS
  15:E:/LiteOS/LiteOS_Lab/iot_link\link_main.c ****  * "AS IS" AND ANY EXPRESS OR IMPLIED WARRANTIES, INCLUDING, BUT NOT LIMITED TO,
  16:E:/LiteOS/LiteOS_Lab/iot_link\link_main.c ****  * THE IMPLIED WARRANTIES OF MERCHANTABILITY AND FITNESS FOR A PARTICULAR
  17:E:/LiteOS/LiteOS_Lab/iot_link\link_main.c ****  * PURPOSE ARE DISCLAIMED. IN NO EVENT SHALL THE COPYRIGHT HOLDER OR
  18:E:/LiteOS/LiteOS_Lab/iot_link\link_main.c ****  * CONTRIBUTORS BE LIABLE FOR ANY DIRECT, INDIRECT, INCIDENTAL, SPECIAL,
  19:E:/LiteOS/LiteOS_Lab/iot_link\link_main.c ****  * EXEMPLARY, OR CONSEQUENTIAL DAMAGES (INCLUDING, BUT NOT LIMITED TO,
  20:E:/LiteOS/LiteOS_Lab/iot_link\link_main.c ****  * PROCUREMENT OF SUBSTITUTE GOODS OR SERVICES; LOSS OF USE, DATA, OR PROFITS;
  21:E:/LiteOS/LiteOS_Lab/iot_link\link_main.c ****  * OR BUSINESS INTERRUPTION) HOWEVER CAUSED AND ON ANY THEORY OF LIABILITY,
  22:E:/LiteOS/LiteOS_Lab/iot_link\link_main.c ****  * WHETHER IN CONTRACT, STRICT LIABILITY, OR TORT (INCLUDING NEGLIGENCE OR
ARM GAS  C:\Users\user\AppData\Local\Temp\cc6LYYwo.s 			page 2


  23:E:/LiteOS/LiteOS_Lab/iot_link\link_main.c ****  * OTHERWISE) ARISING IN ANY WAY OUT OF THE USE OF THIS SOFTWARE, EVEN IF
  24:E:/LiteOS/LiteOS_Lab/iot_link\link_main.c ****  * ADVISED OF THE POSSIBILITY OF SUCH DAMAGE.
  25:E:/LiteOS/LiteOS_Lab/iot_link\link_main.c ****  *---------------------------------------------------------------------------*/
  26:E:/LiteOS/LiteOS_Lab/iot_link\link_main.c **** /*----------------------------------------------------------------------------
  27:E:/LiteOS/LiteOS_Lab/iot_link\link_main.c ****  * Notice of Export Control Law
  28:E:/LiteOS/LiteOS_Lab/iot_link\link_main.c ****  * ===============================================
  29:E:/LiteOS/LiteOS_Lab/iot_link\link_main.c ****  * Huawei LiteOS may be subject to applicable export control laws and regulations, which might
  30:E:/LiteOS/LiteOS_Lab/iot_link\link_main.c ****  * include those applicable to Huawei LiteOS of U.S. and the country in which you are located.
  31:E:/LiteOS/LiteOS_Lab/iot_link\link_main.c ****  * Import, export and usage of Huawei LiteOS in any manner by you shall be in compliance with such
  32:E:/LiteOS/LiteOS_Lab/iot_link\link_main.c ****  * applicable export control laws and regulations.
  33:E:/LiteOS/LiteOS_Lab/iot_link\link_main.c ****  *---------------------------------------------------------------------------*/
  34:E:/LiteOS/LiteOS_Lab/iot_link\link_main.c **** /**
  35:E:/LiteOS/LiteOS_Lab/iot_link\link_main.c ****  *  DATE                AUTHOR      INSTRUCTION
  36:E:/LiteOS/LiteOS_Lab/iot_link\link_main.c ****  *  2019-04-28 15:00  zhangqianfu  The first version  
  37:E:/LiteOS/LiteOS_Lab/iot_link\link_main.c ****  *
  38:E:/LiteOS/LiteOS_Lab/iot_link\link_main.c ****  */
  39:E:/LiteOS/LiteOS_Lab/iot_link\link_main.c **** //RTOS KERNEL
  40:E:/LiteOS/LiteOS_Lab/iot_link\link_main.c **** #include <osal.h>
  41:E:/LiteOS/LiteOS_Lab/iot_link\link_main.c **** //#if cfg_liteos_enable
  42:E:/LiteOS/LiteOS_Lab/iot_link\link_main.c **** //#elif cfg_linux_enable
  43:E:/LiteOS/LiteOS_Lab/iot_link\link_main.c **** //#elif cfg_macos_enable
  44:E:/LiteOS/LiteOS_Lab/iot_link\link_main.c **** //#else
  45:E:/LiteOS/LiteOS_Lab/iot_link\link_main.c **** //#error("no os supplied yet");
  46:E:/LiteOS/LiteOS_Lab/iot_link\link_main.c **** //#endif
  47:E:/LiteOS/LiteOS_Lab/iot_link\link_main.c **** 
  48:E:/LiteOS/LiteOS_Lab/iot_link\link_main.c **** 
  49:E:/LiteOS/LiteOS_Lab/iot_link\link_main.c **** #ifdef WITH_DTLS
  50:E:/LiteOS/LiteOS_Lab/iot_link\link_main.c **** #include <dtls_interface.h>
  51:E:/LiteOS/LiteOS_Lab/iot_link\link_main.c **** 
  52:E:/LiteOS/LiteOS_Lab/iot_link\link_main.c **** #endif
  53:E:/LiteOS/LiteOS_Lab/iot_link\link_main.c **** 
  54:E:/LiteOS/LiteOS_Lab/iot_link\link_main.c **** 
  55:E:/LiteOS/LiteOS_Lab/iot_link\link_main.c **** extern int netdriver_install();
  56:E:/LiteOS/LiteOS_Lab/iot_link\link_main.c **** __attribute__((weak)) int netdriver_install()
  57:E:/LiteOS/LiteOS_Lab/iot_link\link_main.c **** {
  33              		.loc 1 57 0
  34              		.cfi_startproc
  35              		@ args = 0, pretend = 0, frame = 0
  36              		@ frame_needed = 1, uses_anonymous_args = 0
  37 0000 80B5     		push	{r7, lr}
  38              	.LCFI0:
  39              		.cfi_def_cfa_offset 8
  40              		.cfi_offset 7, -8
  41              		.cfi_offset 14, -4
  42 0002 00AF     		add	r7, sp, #0
  43              	.LCFI1:
  44              		.cfi_def_cfa_register 7
  58:E:/LiteOS/LiteOS_Lab/iot_link\link_main.c ****     printf("please remember to supply a netdriver---- please\n\r");
  45              		.loc 1 58 0
  46 0004 0348     		ldr	r0, .L3
  47 0006 FFF7FEFF 		bl	printf
  59:E:/LiteOS/LiteOS_Lab/iot_link\link_main.c **** 
  60:E:/LiteOS/LiteOS_Lab/iot_link\link_main.c ****     return -1;
  48              		.loc 1 60 0
  49 000a 4FF0FF33 		mov	r3, #-1
  61:E:/LiteOS/LiteOS_Lab/iot_link\link_main.c **** }
  50              		.loc 1 61 0
ARM GAS  C:\Users\user\AppData\Local\Temp\cc6LYYwo.s 			page 3


  51 000e 1846     		mov	r0, r3
  52 0010 80BD     		pop	{r7, pc}
  53              	.L4:
  54 0012 00BF     		.align	2
  55              	.L3:
  56 0014 00000000 		.word	.LC0
  57              		.cfi_endproc
  58              	.LFE3:
  60              		.section	.rodata
  61 0033 00       		.align	2
  62              	.LC1:
  63 0034 61746465 		.ascii	"atdev_BC35G\000"
  63      765F4243 
  63      33354700 
  64              		.align	2
  65              	.LC2:
  66 0040 352C382C 		.ascii	"5,8,20\000"
  66      323000
  67              		.section	.text.link_main,"ax",%progbits
  68              		.align	1
  69              		.global	link_main
  70              		.syntax unified
  71              		.thumb
  72              		.thumb_func
  73              		.fpu fpv4-sp-d16
  75              	link_main:
  76              	.LFB4:
  62:E:/LiteOS/LiteOS_Lab/iot_link\link_main.c **** 
  63:E:/LiteOS/LiteOS_Lab/iot_link\link_main.c **** int link_main(void *args)
  64:E:/LiteOS/LiteOS_Lab/iot_link\link_main.c **** {
  77              		.loc 1 64 0
  78              		.cfi_startproc
  79              		@ args = 0, pretend = 0, frame = 8
  80              		@ frame_needed = 1, uses_anonymous_args = 0
  81 0000 80B5     		push	{r7, lr}
  82              	.LCFI2:
  83              		.cfi_def_cfa_offset 8
  84              		.cfi_offset 7, -8
  85              		.cfi_offset 14, -4
  86 0002 82B0     		sub	sp, sp, #8
  87              	.LCFI3:
  88              		.cfi_def_cfa_offset 16
  89 0004 00AF     		add	r7, sp, #0
  90              	.LCFI4:
  91              		.cfi_def_cfa_register 7
  92 0006 7860     		str	r0, [r7, #4]
  65:E:/LiteOS/LiteOS_Lab/iot_link\link_main.c ****     ///< install the RTOS kernel for the link
  66:E:/LiteOS/LiteOS_Lab/iot_link\link_main.c ****     osal_init();
  93              		.loc 1 66 0
  94 0008 FFF7FEFF 		bl	osal_init
  67:E:/LiteOS/LiteOS_Lab/iot_link\link_main.c **** 
  68:E:/LiteOS/LiteOS_Lab/iot_link\link_main.c **** #if cfg_liteos_enable
  69:E:/LiteOS/LiteOS_Lab/iot_link\link_main.c ****     #include <liteos_imp.h>
  70:E:/LiteOS/LiteOS_Lab/iot_link\link_main.c ****     osal_install_liteos();
  95              		.loc 1 70 0
  96 000c FFF7FEFF 		bl	osal_install_liteos
  71:E:/LiteOS/LiteOS_Lab/iot_link\link_main.c **** #elif cfg_linux_enable
ARM GAS  C:\Users\user\AppData\Local\Temp\cc6LYYwo.s 			page 4


  72:E:/LiteOS/LiteOS_Lab/iot_link\link_main.c ****     #include <linux_imp.h>
  73:E:/LiteOS/LiteOS_Lab/iot_link\link_main.c ****     osal_install_linux();
  74:E:/LiteOS/LiteOS_Lab/iot_link\link_main.c **** #elif  cfg_macos_enable
  75:E:/LiteOS/LiteOS_Lab/iot_link\link_main.c ****     #include <macos_imp.h>
  76:E:/LiteOS/LiteOS_Lab/iot_link\link_main.c ****     osal_install_macos();
  77:E:/LiteOS/LiteOS_Lab/iot_link\link_main.c **** #else
  78:E:/LiteOS/LiteOS_Lab/iot_link\link_main.c ****     #error("no os supplied yet");
  79:E:/LiteOS/LiteOS_Lab/iot_link\link_main.c **** #endif
  80:E:/LiteOS/LiteOS_Lab/iot_link\link_main.c **** 
  81:E:/LiteOS/LiteOS_Lab/iot_link\link_main.c **** #if cfg_shell_enable
  82:E:/LiteOS/LiteOS_Lab/iot_link\link_main.c ****     #include <shell.h>
  83:E:/LiteOS/LiteOS_Lab/iot_link\link_main.c ****     ///< install the shell for the link
  84:E:/LiteOS/LiteOS_Lab/iot_link\link_main.c ****     extern void shell_uart_init(int baud);
  85:E:/LiteOS/LiteOS_Lab/iot_link\link_main.c ****     shell_uart_init(115200);
  97              		.loc 1 85 0
  98 0010 4FF4E130 		mov	r0, #115200
  99 0014 FFF7FEFF 		bl	shell_uart_init
  86:E:/LiteOS/LiteOS_Lab/iot_link\link_main.c ****     shell_init();
 100              		.loc 1 86 0
 101 0018 FFF7FEFF 		bl	shell_init
  87:E:/LiteOS/LiteOS_Lab/iot_link\link_main.c **** #endif
  88:E:/LiteOS/LiteOS_Lab/iot_link\link_main.c **** 
  89:E:/LiteOS/LiteOS_Lab/iot_link\link_main.c **** #if cfg_driver_enable
  90:E:/LiteOS/LiteOS_Lab/iot_link\link_main.c ****     #include <driver.h>
  91:E:/LiteOS/LiteOS_Lab/iot_link\link_main.c ****     ///< install the driver framework for the link
  92:E:/LiteOS/LiteOS_Lab/iot_link\link_main.c ****     los_driv_init();
 102              		.loc 1 92 0
 103 001c FFF7FEFF 		bl	los_driv_init
  93:E:/LiteOS/LiteOS_Lab/iot_link\link_main.c **** #endif
  94:E:/LiteOS/LiteOS_Lab/iot_link\link_main.c **** 
  95:E:/LiteOS/LiteOS_Lab/iot_link\link_main.c **** #if cfg_at_enable
  96:E:/LiteOS/LiteOS_Lab/iot_link\link_main.c ****     #include <at.h>
  97:E:/LiteOS/LiteOS_Lab/iot_link\link_main.c ****     ///< install the at framework for the link
  98:E:/LiteOS/LiteOS_Lab/iot_link\link_main.c ****     uart_at_init(9600);
 104              		.loc 1 98 0
 105 0020 4FF41650 		mov	r0, #9600
 106 0024 FFF7FEFF 		bl	uart_at_init
  99:E:/LiteOS/LiteOS_Lab/iot_link\link_main.c ****     at_init("atdev_BC35G");
 107              		.loc 1 99 0
 108 0028 0848     		ldr	r0, .L7
 109 002a FFF7FEFF 		bl	at_init
 100:E:/LiteOS/LiteOS_Lab/iot_link\link_main.c **** #endif
 101:E:/LiteOS/LiteOS_Lab/iot_link\link_main.c **** 
 102:E:/LiteOS/LiteOS_Lab/iot_link\link_main.c ****     ///< install the cJSON, for the oc mqtt agent need the cJSON
 103:E:/LiteOS/LiteOS_Lab/iot_link\link_main.c **** #if cfg_json_enable
 104:E:/LiteOS/LiteOS_Lab/iot_link\link_main.c ****     #include <cJSON.h>
 105:E:/LiteOS/LiteOS_Lab/iot_link\link_main.c **** 
 106:E:/LiteOS/LiteOS_Lab/iot_link\link_main.c ****     cJSON_Hooks  hook;
 107:E:/LiteOS/LiteOS_Lab/iot_link\link_main.c ****     hook.free_fn = osal_free;
 108:E:/LiteOS/LiteOS_Lab/iot_link\link_main.c ****     hook.malloc_fn = osal_malloc;
 109:E:/LiteOS/LiteOS_Lab/iot_link\link_main.c ****     cJSON_InitHooks(&hook);
 110:E:/LiteOS/LiteOS_Lab/iot_link\link_main.c **** #endif
 111:E:/LiteOS/LiteOS_Lab/iot_link\link_main.c ****     ///< install the tcpip stack and net driver for the link
 112:E:/LiteOS/LiteOS_Lab/iot_link\link_main.c **** #if cfg_tcpip_enable
 113:E:/LiteOS/LiteOS_Lab/iot_link\link_main.c ****     #include <sal.h>
 114:E:/LiteOS/LiteOS_Lab/iot_link\link_main.c ****     tcpipstack_init(10);
 115:E:/LiteOS/LiteOS_Lab/iot_link\link_main.c **** 
ARM GAS  C:\Users\user\AppData\Local\Temp\cc6LYYwo.s 			page 5


 116:E:/LiteOS/LiteOS_Lab/iot_link\link_main.c ****     #if cfg_lwip_enable
 117:E:/LiteOS/LiteOS_Lab/iot_link\link_main.c ****         #include <lwip_imp.h>
 118:E:/LiteOS/LiteOS_Lab/iot_link\link_main.c ****         tcpipstack_install_lwip(netdriver_install);
 119:E:/LiteOS/LiteOS_Lab/iot_link\link_main.c ****     #elif cfg_linux_socket_enable
 120:E:/LiteOS/LiteOS_Lab/iot_link\link_main.c ****         #include <linux_socket_imp.h>
 121:E:/LiteOS/LiteOS_Lab/iot_link\link_main.c ****         tcpipstack_install_linux_socket();
 122:E:/LiteOS/LiteOS_Lab/iot_link\link_main.c ****     #elif cfg_macos_socket_enable
 123:E:/LiteOS/LiteOS_Lab/iot_link\link_main.c ****         #include <macos_socket_imp.h>
 124:E:/LiteOS/LiteOS_Lab/iot_link\link_main.c ****         tcpipstack_install_macos_socket();
 125:E:/LiteOS/LiteOS_Lab/iot_link\link_main.c ****     #elif cfg_esp8266_enable
 126:E:/LiteOS/LiteOS_Lab/iot_link\link_main.c ****         //#include <esp8266.h>
 127:E:/LiteOS/LiteOS_Lab/iot_link\link_main.c ****         //tcpipstack_install_esp8266();
 128:E:/LiteOS/LiteOS_Lab/iot_link\link_main.c ****     #else
 129:E:/LiteOS/LiteOS_Lab/iot_link\link_main.c **** 
 130:E:/LiteOS/LiteOS_Lab/iot_link\link_main.c ****     #endif
 131:E:/LiteOS/LiteOS_Lab/iot_link\link_main.c **** 
 132:E:/LiteOS/LiteOS_Lab/iot_link\link_main.c **** #endif
 133:E:/LiteOS/LiteOS_Lab/iot_link\link_main.c **** 
 134:E:/LiteOS/LiteOS_Lab/iot_link\link_main.c **** #ifdef WITH_DTLS
 135:E:/LiteOS/LiteOS_Lab/iot_link\link_main.c **** 
 136:E:/LiteOS/LiteOS_Lab/iot_link\link_main.c ****     dtls_init();
 137:E:/LiteOS/LiteOS_Lab/iot_link\link_main.c **** #endif
 138:E:/LiteOS/LiteOS_Lab/iot_link\link_main.c **** 
 139:E:/LiteOS/LiteOS_Lab/iot_link\link_main.c **** //////////////////////////  MQTT PROTOCOL  /////////////////////////////////////
 140:E:/LiteOS/LiteOS_Lab/iot_link\link_main.c **** #if cfg_mqtt_enable
 141:E:/LiteOS/LiteOS_Lab/iot_link\link_main.c ****     #include <mqtt_al.h>
 142:E:/LiteOS/LiteOS_Lab/iot_link\link_main.c ****     #include <paho_mqtt_port.h>
 143:E:/LiteOS/LiteOS_Lab/iot_link\link_main.c **** 
 144:E:/LiteOS/LiteOS_Lab/iot_link\link_main.c ****     mqtt_init();
 145:E:/LiteOS/LiteOS_Lab/iot_link\link_main.c ****     mqtt_install_pahomqtt();
 146:E:/LiteOS/LiteOS_Lab/iot_link\link_main.c **** #endif
 147:E:/LiteOS/LiteOS_Lab/iot_link\link_main.c **** 
 148:E:/LiteOS/LiteOS_Lab/iot_link\link_main.c **** //////////////////////////  OC MQTT && DEMOS  //////////////////////////////////
 149:E:/LiteOS/LiteOS_Lab/iot_link\link_main.c **** 
 150:E:/LiteOS/LiteOS_Lab/iot_link\link_main.c **** #if cfg_oc_mqtt_enable
 151:E:/LiteOS/LiteOS_Lab/iot_link\link_main.c ****     #include <oc_mqtt_al.h>
 152:E:/LiteOS/LiteOS_Lab/iot_link\link_main.c ****     oc_mqtt_init();
 153:E:/LiteOS/LiteOS_Lab/iot_link\link_main.c **** 
 154:E:/LiteOS/LiteOS_Lab/iot_link\link_main.c **** #if cfg_atiny_mqtt_enable
 155:E:/LiteOS/LiteOS_Lab/iot_link\link_main.c ****     #include <atiny_mqtt.h>
 156:E:/LiteOS/LiteOS_Lab/iot_link\link_main.c ****     oc_mqtt_install_atiny_mqtt();
 157:E:/LiteOS/LiteOS_Lab/iot_link\link_main.c **** #endif
 158:E:/LiteOS/LiteOS_Lab/iot_link\link_main.c **** 
 159:E:/LiteOS/LiteOS_Lab/iot_link\link_main.c **** #if cfg_oc_mqtt_demo_enable
 160:E:/LiteOS/LiteOS_Lab/iot_link\link_main.c ****     #include <oc_mqtt_demo.h>
 161:E:/LiteOS/LiteOS_Lab/iot_link\link_main.c ****     oc_mqtt_demo_main();
 162:E:/LiteOS/LiteOS_Lab/iot_link\link_main.c **** 
 163:E:/LiteOS/LiteOS_Lab/iot_link\link_main.c **** #endif
 164:E:/LiteOS/LiteOS_Lab/iot_link\link_main.c **** 
 165:E:/LiteOS/LiteOS_Lab/iot_link\link_main.c **** #endif
 166:E:/LiteOS/LiteOS_Lab/iot_link\link_main.c **** 
 167:E:/LiteOS/LiteOS_Lab/iot_link\link_main.c **** ////////////////////////////  OC LWM2M && DEMOS     /////////////////////////////
 168:E:/LiteOS/LiteOS_Lab/iot_link\link_main.c **** 
 169:E:/LiteOS/LiteOS_Lab/iot_link\link_main.c **** #if cfg_oc_lwm2m_enable
 170:E:/LiteOS/LiteOS_Lab/iot_link\link_main.c ****     #include <oc_lwm2m_al.h>
 171:E:/LiteOS/LiteOS_Lab/iot_link\link_main.c ****     oc_lwm2m_init();
 110              		.loc 1 171 0
ARM GAS  C:\Users\user\AppData\Local\Temp\cc6LYYwo.s 			page 6


 111 002e FFF7FEFF 		bl	oc_lwm2m_init
 172:E:/LiteOS/LiteOS_Lab/iot_link\link_main.c **** 
 173:E:/LiteOS/LiteOS_Lab/iot_link\link_main.c **** #if cfg_oc_lwm2m_agent_enable
 174:E:/LiteOS/LiteOS_Lab/iot_link\link_main.c ****     #include <agent_lwm2m.h>
 175:E:/LiteOS/LiteOS_Lab/iot_link\link_main.c ****     oc_lwm2m_install_agent();
 176:E:/LiteOS/LiteOS_Lab/iot_link\link_main.c **** #endif
 177:E:/LiteOS/LiteOS_Lab/iot_link\link_main.c **** 
 178:E:/LiteOS/LiteOS_Lab/iot_link\link_main.c **** #if cfg_oc_lwm2m_boudica150_enable
 179:E:/LiteOS/LiteOS_Lab/iot_link\link_main.c ****     #include <boudica150_oc.h>
 180:E:/LiteOS/LiteOS_Lab/iot_link\link_main.c ****     #define cn_app_bands    "5,8,20"
 181:E:/LiteOS/LiteOS_Lab/iot_link\link_main.c ****     boudica150_init(NULL,NULL,cn_app_bands);
 112              		.loc 1 181 0
 113 0032 074A     		ldr	r2, .L7+4
 114 0034 0021     		movs	r1, #0
 115 0036 0020     		movs	r0, #0
 116 0038 FFF7FEFF 		bl	boudica150_init
 182:E:/LiteOS/LiteOS_Lab/iot_link\link_main.c **** #endif
 183:E:/LiteOS/LiteOS_Lab/iot_link\link_main.c **** 
 184:E:/LiteOS/LiteOS_Lab/iot_link\link_main.c **** #if cfg_oc_lwm2m_demo_enable
 185:E:/LiteOS/LiteOS_Lab/iot_link\link_main.c ****     #include <oc_lwm2m_demo.h>
 186:E:/LiteOS/LiteOS_Lab/iot_link\link_main.c ****     oc_lwm2m_demo_main();
 117              		.loc 1 186 0
 118 003c FFF7FEFF 		bl	oc_lwm2m_demo_main
 187:E:/LiteOS/LiteOS_Lab/iot_link\link_main.c **** #endif
 188:E:/LiteOS/LiteOS_Lab/iot_link\link_main.c **** 
 189:E:/LiteOS/LiteOS_Lab/iot_link\link_main.c **** 
 190:E:/LiteOS/LiteOS_Lab/iot_link\link_main.c **** #endif
 191:E:/LiteOS/LiteOS_Lab/iot_link\link_main.c **** 
 192:E:/LiteOS/LiteOS_Lab/iot_link\link_main.c ****     return 0;
 119              		.loc 1 192 0
 120 0040 0023     		movs	r3, #0
 193:E:/LiteOS/LiteOS_Lab/iot_link\link_main.c **** }
 121              		.loc 1 193 0
 122 0042 1846     		mov	r0, r3
 123 0044 0837     		adds	r7, r7, #8
 124              	.LCFI5:
 125              		.cfi_def_cfa_offset 8
 126 0046 BD46     		mov	sp, r7
 127              	.LCFI6:
 128              		.cfi_def_cfa_register 13
 129              		@ sp needed
 130 0048 80BD     		pop	{r7, pc}
 131              	.L8:
 132 004a 00BF     		.align	2
 133              	.L7:
 134 004c 34000000 		.word	.LC1
 135 0050 40000000 		.word	.LC2
 136              		.cfi_endproc
 137              	.LFE4:
 139              		.text
 140              	.Letext0:
 141              		.file 2 "e:\\ac6\\systemworkbench\\plugins\\fr.ac6.mcu.externaltools.arm-none.win32_1.16.0.2018071
 142              		.file 3 "e:\\ac6\\systemworkbench\\plugins\\fr.ac6.mcu.externaltools.arm-none.win32_1.16.0.2018071
 143              		.file 4 "e:\\ac6\\systemworkbench\\plugins\\fr.ac6.mcu.externaltools.arm-none.win32_1.16.0.2018071
 144              		.file 5 "e:\\ac6\\systemworkbench\\plugins\\fr.ac6.mcu.externaltools.arm-none.win32_1.16.0.2018071
 145              		.file 6 "e:\\ac6\\systemworkbench\\plugins\\fr.ac6.mcu.externaltools.arm-none.win32_1.16.0.2018071
 146              		.file 7 "E:/LiteOS/LiteOS_Lab/iot_link/driver/driver.h"
ARM GAS  C:\Users\user\AppData\Local\Temp\cc6LYYwo.s 			page 7


 147              		.file 8 "E:/LiteOS/LiteOS_Lab/iot_link/os/os_imp/liteos/liteos_imp.h"
 148              		.file 9 "E:/LiteOS/LiteOS_Lab/iot_link/at/at.h"
 149              		.file 10 "E:/LiteOS/LiteOS_Lab/iot_link/oc/oc_lwm2m/oc_lwm2m_al/oc_lwm2m_al.h"
 150              		.file 11 "E:/LiteOS/LiteOS_Lab/iot_link/oc/oc_lwm2m/oc_lwm2m_imp/boudica150/boudica150_oc.h"
 151              		.file 12 "E:/LiteOS/LiteOS_Lab/iot_link/shell/shell.h"
 152              		.file 13 "E:/LiteOS/LiteOS_Lab/iot_link/oc/oc_lwm2m/oc_lwm2m_demo/oc_lwm2m_demo.h"
ARM GAS  C:\Users\user\AppData\Local\Temp\cc6LYYwo.s 			page 8

