ARM GAS  C:\Users\user\AppData\Local\Temp\ccNRbxrE.s 			page 1


   1              		.cpu cortex-m4
   2              		.eabi_attribute 27, 1
   3              		.eabi_attribute 28, 1
   4              		.eabi_attribute 20, 1
   5              		.eabi_attribute 21, 1
   6              		.eabi_attribute 23, 3
   7              		.eabi_attribute 24, 1
   8              		.eabi_attribute 25, 1
   9              		.eabi_attribute 26, 1
  10              		.eabi_attribute 30, 6
  11              		.eabi_attribute 34, 1
  12              		.eabi_attribute 18, 4
  13              		.file	"liteos_imp.c"
  14              		.text
  15              	.Ltext0:
  16              		.cfi_sections	.debug_frame
  17              		.section	.text.__task_sleep,"ax",%progbits
  18              		.align	1
  19              		.syntax unified
  20              		.thumb
  21              		.thumb_func
  22              		.fpu fpv4-sp-d16
  24              	__task_sleep:
  25              	.LFB133:
  26              		.file 1 "E:/LiteOS/LiteOS_Lab/iot_link/os/os_imp/liteos/liteos_imp.c"
   1:E:/LiteOS/LiteOS_Lab/iot_link/os/os_imp/liteos\liteos_imp.c **** /*----------------------------------------------------------------------------
   2:E:/LiteOS/LiteOS_Lab/iot_link/os/os_imp/liteos\liteos_imp.c ****  * Copyright (c) <2018>, <Huawei Technologies Co., Ltd>
   3:E:/LiteOS/LiteOS_Lab/iot_link/os/os_imp/liteos\liteos_imp.c ****  * All rights reserved.
   4:E:/LiteOS/LiteOS_Lab/iot_link/os/os_imp/liteos\liteos_imp.c ****  * Redistribution and use in source and binary forms, with or without modification,
   5:E:/LiteOS/LiteOS_Lab/iot_link/os/os_imp/liteos\liteos_imp.c ****  * are permitted provided that the following conditions are met:
   6:E:/LiteOS/LiteOS_Lab/iot_link/os/os_imp/liteos\liteos_imp.c ****  * 1. Redistributions of source code must retain the above copyright notice, this list of
   7:E:/LiteOS/LiteOS_Lab/iot_link/os/os_imp/liteos\liteos_imp.c ****  * conditions and the following disclaimer.
   8:E:/LiteOS/LiteOS_Lab/iot_link/os/os_imp/liteos\liteos_imp.c ****  * 2. Redistributions in binary form must reproduce the above copyright notice, this list
   9:E:/LiteOS/LiteOS_Lab/iot_link/os/os_imp/liteos\liteos_imp.c ****  * of conditions and the following disclaimer in the documentation and/or other materials
  10:E:/LiteOS/LiteOS_Lab/iot_link/os/os_imp/liteos\liteos_imp.c ****  * provided with the distribution.
  11:E:/LiteOS/LiteOS_Lab/iot_link/os/os_imp/liteos\liteos_imp.c ****  * 3. Neither the name of the copyright holder nor the names of its contributors may be used
  12:E:/LiteOS/LiteOS_Lab/iot_link/os/os_imp/liteos\liteos_imp.c ****  * to endorse or promote products derived from this software without specific prior written
  13:E:/LiteOS/LiteOS_Lab/iot_link/os/os_imp/liteos\liteos_imp.c ****  * permission.
  14:E:/LiteOS/LiteOS_Lab/iot_link/os/os_imp/liteos\liteos_imp.c ****  * THIS SOFTWARE IS PROVIDED BY THE COPYRIGHT HOLDERS AND CONTRIBUTORS
  15:E:/LiteOS/LiteOS_Lab/iot_link/os/os_imp/liteos\liteos_imp.c ****  * "AS IS" AND ANY EXPRESS OR IMPLIED WARRANTIES, INCLUDING, BUT NOT LIMITED TO,
  16:E:/LiteOS/LiteOS_Lab/iot_link/os/os_imp/liteos\liteos_imp.c ****  * THE IMPLIED WARRANTIES OF MERCHANTABILITY AND FITNESS FOR A PARTICULAR
  17:E:/LiteOS/LiteOS_Lab/iot_link/os/os_imp/liteos\liteos_imp.c ****  * PURPOSE ARE DISCLAIMED. IN NO EVENT SHALL THE COPYRIGHT HOLDER OR
  18:E:/LiteOS/LiteOS_Lab/iot_link/os/os_imp/liteos\liteos_imp.c ****  * CONTRIBUTORS BE LIABLE FOR ANY DIRECT, INDIRECT, INCIDENTAL, SPECIAL,
  19:E:/LiteOS/LiteOS_Lab/iot_link/os/os_imp/liteos\liteos_imp.c ****  * EXEMPLARY, OR CONSEQUENTIAL DAMAGES (INCLUDING, BUT NOT LIMITED TO,
  20:E:/LiteOS/LiteOS_Lab/iot_link/os/os_imp/liteos\liteos_imp.c ****  * PROCUREMENT OF SUBSTITUTE GOODS OR SERVICES; LOSS OF USE, DATA, OR PROFITS;
  21:E:/LiteOS/LiteOS_Lab/iot_link/os/os_imp/liteos\liteos_imp.c ****  * OR BUSINESS INTERRUPTION) HOWEVER CAUSED AND ON ANY THEORY OF LIABILITY,
  22:E:/LiteOS/LiteOS_Lab/iot_link/os/os_imp/liteos\liteos_imp.c ****  * WHETHER IN CONTRACT, STRICT LIABILITY, OR TORT (INCLUDING NEGLIGENCE OR
  23:E:/LiteOS/LiteOS_Lab/iot_link/os/os_imp/liteos\liteos_imp.c ****  * OTHERWISE) ARISING IN ANY WAY OUT OF THE USE OF THIS SOFTWARE, EVEN IF
  24:E:/LiteOS/LiteOS_Lab/iot_link/os/os_imp/liteos\liteos_imp.c ****  * ADVISED OF THE POSSIBILITY OF SUCH DAMAGE.
  25:E:/LiteOS/LiteOS_Lab/iot_link/os/os_imp/liteos\liteos_imp.c ****  *---------------------------------------------------------------------------*/
  26:E:/LiteOS/LiteOS_Lab/iot_link/os/os_imp/liteos\liteos_imp.c **** /*----------------------------------------------------------------------------
  27:E:/LiteOS/LiteOS_Lab/iot_link/os/os_imp/liteos\liteos_imp.c ****  * Notice of Export Control Law
  28:E:/LiteOS/LiteOS_Lab/iot_link/os/os_imp/liteos\liteos_imp.c ****  * ===============================================
  29:E:/LiteOS/LiteOS_Lab/iot_link/os/os_imp/liteos\liteos_imp.c ****  * Huawei LiteOS may be subject to applicable export control laws and regulations, which might
  30:E:/LiteOS/LiteOS_Lab/iot_link/os/os_imp/liteos\liteos_imp.c ****  * include those applicable to Huawei LiteOS of U.S. and the country in which you are located.
  31:E:/LiteOS/LiteOS_Lab/iot_link/os/os_imp/liteos\liteos_imp.c ****  * Import, export and usage of Huawei LiteOS in any manner by you shall be in compliance with such
  32:E:/LiteOS/LiteOS_Lab/iot_link/os/os_imp/liteos\liteos_imp.c ****  * applicable export control laws and regulations.
ARM GAS  C:\Users\user\AppData\Local\Temp\ccNRbxrE.s 			page 2


  33:E:/LiteOS/LiteOS_Lab/iot_link/os/os_imp/liteos\liteos_imp.c ****  *---------------------------------------------------------------------------*/
  34:E:/LiteOS/LiteOS_Lab/iot_link/os/os_imp/liteos\liteos_imp.c **** /**
  35:E:/LiteOS/LiteOS_Lab/iot_link/os/os_imp/liteos\liteos_imp.c ****  *  DATE                AUTHOR      INSTRUCTION
  36:E:/LiteOS/LiteOS_Lab/iot_link/os/os_imp/liteos\liteos_imp.c ****  *  2019-05-14 17:22  zhangqianfu  The first version
  37:E:/LiteOS/LiteOS_Lab/iot_link/os/os_imp/liteos\liteos_imp.c ****  *
  38:E:/LiteOS/LiteOS_Lab/iot_link/os/os_imp/liteos\liteos_imp.c ****  */
  39:E:/LiteOS/LiteOS_Lab/iot_link/os/os_imp/liteos\liteos_imp.c **** 
  40:E:/LiteOS/LiteOS_Lab/iot_link/os/os_imp/liteos\liteos_imp.c **** //include the file which implement the function
  41:E:/LiteOS/LiteOS_Lab/iot_link/os/os_imp/liteos\liteos_imp.c **** #include  <osal_imp.h>
  42:E:/LiteOS/LiteOS_Lab/iot_link/os/os_imp/liteos\liteos_imp.c **** 
  43:E:/LiteOS/LiteOS_Lab/iot_link/os/os_imp/liteos\liteos_imp.c **** ///< this is implement for the task
  44:E:/LiteOS/LiteOS_Lab/iot_link/os/os_imp/liteos\liteos_imp.c **** #include <los_task.ph>
  45:E:/LiteOS/LiteOS_Lab/iot_link/os/os_imp/liteos\liteos_imp.c **** #include <los_task.h>
  46:E:/LiteOS/LiteOS_Lab/iot_link/os/os_imp/liteos\liteos_imp.c **** static void __task_sleep(int ms)
  47:E:/LiteOS/LiteOS_Lab/iot_link/os/os_imp/liteos\liteos_imp.c **** {
  27              		.loc 1 47 0
  28              		.cfi_startproc
  29              		@ args = 0, pretend = 0, frame = 8
  30              		@ frame_needed = 1, uses_anonymous_args = 0
  31 0000 80B5     		push	{r7, lr}
  32              	.LCFI0:
  33              		.cfi_def_cfa_offset 8
  34              		.cfi_offset 7, -8
  35              		.cfi_offset 14, -4
  36 0002 82B0     		sub	sp, sp, #8
  37              	.LCFI1:
  38              		.cfi_def_cfa_offset 16
  39 0004 00AF     		add	r7, sp, #0
  40              	.LCFI2:
  41              		.cfi_def_cfa_register 7
  42 0006 7860     		str	r0, [r7, #4]
  48:E:/LiteOS/LiteOS_Lab/iot_link/os/os_imp/liteos\liteos_imp.c ****     LOS_TaskDelay(ms);//which tick is ms
  43              		.loc 1 48 0
  44 0008 7B68     		ldr	r3, [r7, #4]
  45 000a 1846     		mov	r0, r3
  46 000c FFF7FEFF 		bl	LOS_TaskDelay
  49:E:/LiteOS/LiteOS_Lab/iot_link/os/os_imp/liteos\liteos_imp.c ****     return;
  47              		.loc 1 49 0
  48 0010 00BF     		nop
  50:E:/LiteOS/LiteOS_Lab/iot_link/os/os_imp/liteos\liteos_imp.c **** }
  49              		.loc 1 50 0
  50 0012 0837     		adds	r7, r7, #8
  51              	.LCFI3:
  52              		.cfi_def_cfa_offset 8
  53 0014 BD46     		mov	sp, r7
  54              	.LCFI4:
  55              		.cfi_def_cfa_register 13
  56              		@ sp needed
  57 0016 80BD     		pop	{r7, pc}
  58              		.cfi_endproc
  59              	.LFE133:
  61              		.section	.text.__task_create,"ax",%progbits
  62              		.align	1
  63              		.syntax unified
  64              		.thumb
  65              		.thumb_func
  66              		.fpu fpv4-sp-d16
ARM GAS  C:\Users\user\AppData\Local\Temp\ccNRbxrE.s 			page 3


  68              	__task_create:
  69              	.LFB134:
  51:E:/LiteOS/LiteOS_Lab/iot_link/os/os_imp/liteos\liteos_imp.c **** 
  52:E:/LiteOS/LiteOS_Lab/iot_link/os/os_imp/liteos\liteos_imp.c **** static void *__task_create(const char *name,int (*task_entry)(void *args),\
  53:E:/LiteOS/LiteOS_Lab/iot_link/os/os_imp/liteos\liteos_imp.c ****         void *args,int stack_size,void *stack,int prior)
  54:E:/LiteOS/LiteOS_Lab/iot_link/os/os_imp/liteos\liteos_imp.c **** {
  70              		.loc 1 54 0
  71              		.cfi_startproc
  72              		@ args = 8, pretend = 0, frame = 56
  73              		@ frame_needed = 1, uses_anonymous_args = 0
  74 0000 80B5     		push	{r7, lr}
  75              	.LCFI5:
  76              		.cfi_def_cfa_offset 8
  77              		.cfi_offset 7, -8
  78              		.cfi_offset 14, -4
  79 0002 8EB0     		sub	sp, sp, #56
  80              	.LCFI6:
  81              		.cfi_def_cfa_offset 64
  82 0004 00AF     		add	r7, sp, #0
  83              	.LCFI7:
  84              		.cfi_def_cfa_register 7
  85 0006 F860     		str	r0, [r7, #12]
  86 0008 B960     		str	r1, [r7, #8]
  87 000a 7A60     		str	r2, [r7, #4]
  88 000c 3B60     		str	r3, [r7]
  55:E:/LiteOS/LiteOS_Lab/iot_link/os/os_imp/liteos\liteos_imp.c ****     void *ret = NULL;
  89              		.loc 1 55 0
  90 000e 0023     		movs	r3, #0
  91 0010 7B63     		str	r3, [r7, #52]
  56:E:/LiteOS/LiteOS_Lab/iot_link/os/os_imp/liteos\liteos_imp.c ****     UINT32 uwRet = LOS_OK;
  92              		.loc 1 56 0
  93 0012 0023     		movs	r3, #0
  94 0014 3B63     		str	r3, [r7, #48]
  57:E:/LiteOS/LiteOS_Lab/iot_link/os/os_imp/liteos\liteos_imp.c ****     UINT32  handle;
  58:E:/LiteOS/LiteOS_Lab/iot_link/os/os_imp/liteos\liteos_imp.c ****     TSK_INIT_PARAM_S task_init_param;
  59:E:/LiteOS/LiteOS_Lab/iot_link/os/os_imp/liteos\liteos_imp.c **** 
  60:E:/LiteOS/LiteOS_Lab/iot_link/os/os_imp/liteos\liteos_imp.c ****     memset (&task_init_param, 0, sizeof (TSK_INIT_PARAM_S));
  95              		.loc 1 60 0
  96 0016 07F11403 		add	r3, r7, #20
  97 001a 1822     		movs	r2, #24
  98 001c 0021     		movs	r1, #0
  99 001e 1846     		mov	r0, r3
 100 0020 FFF7FEFF 		bl	memset
  61:E:/LiteOS/LiteOS_Lab/iot_link/os/os_imp/liteos\liteos_imp.c **** 
  62:E:/LiteOS/LiteOS_Lab/iot_link/os/os_imp/liteos\liteos_imp.c ****     task_init_param.uwArg = (unsigned int)args;
 101              		.loc 1 62 0
 102 0024 7B68     		ldr	r3, [r7, #4]
 103 0026 FB61     		str	r3, [r7, #28]
  63:E:/LiteOS/LiteOS_Lab/iot_link/os/os_imp/liteos\liteos_imp.c ****     task_init_param.usTaskPrio = prior;
 104              		.loc 1 63 0
 105 0028 7B6C     		ldr	r3, [r7, #68]
 106 002a 9BB2     		uxth	r3, r3
 107 002c 3B83     		strh	r3, [r7, #24]	@ movhi
  64:E:/LiteOS/LiteOS_Lab/iot_link/os/os_imp/liteos\liteos_imp.c ****     task_init_param.pcName =(char *) name;
 108              		.loc 1 64 0
 109 002e FB68     		ldr	r3, [r7, #12]
 110 0030 7B62     		str	r3, [r7, #36]
ARM GAS  C:\Users\user\AppData\Local\Temp\ccNRbxrE.s 			page 4


  65:E:/LiteOS/LiteOS_Lab/iot_link/os/os_imp/liteos\liteos_imp.c ****     task_init_param.pfnTaskEntry = (TSK_ENTRY_FUNC)task_entry;
 111              		.loc 1 65 0
 112 0032 BB68     		ldr	r3, [r7, #8]
 113 0034 7B61     		str	r3, [r7, #20]
  66:E:/LiteOS/LiteOS_Lab/iot_link/os/os_imp/liteos\liteos_imp.c ****     task_init_param.uwStackSize = stack_size;
 114              		.loc 1 66 0
 115 0036 3B68     		ldr	r3, [r7]
 116 0038 3B62     		str	r3, [r7, #32]
  67:E:/LiteOS/LiteOS_Lab/iot_link/os/os_imp/liteos\liteos_imp.c ****     uwRet = LOS_TaskCreate(&handle, &task_init_param);
 117              		.loc 1 67 0
 118 003a 07F11402 		add	r2, r7, #20
 119 003e 07F12C03 		add	r3, r7, #44
 120 0042 1146     		mov	r1, r2
 121 0044 1846     		mov	r0, r3
 122 0046 FFF7FEFF 		bl	LOS_TaskCreate
 123 004a 3863     		str	r0, [r7, #48]
  68:E:/LiteOS/LiteOS_Lab/iot_link/os/os_imp/liteos\liteos_imp.c ****     if(LOS_OK != uwRet){
 124              		.loc 1 68 0
 125 004c 3B6B     		ldr	r3, [r7, #48]
 126 004e 002B     		cmp	r3, #0
 127 0050 01D0     		beq	.L4
  69:E:/LiteOS/LiteOS_Lab/iot_link/os/os_imp/liteos\liteos_imp.c ****         return ret;
 128              		.loc 1 69 0
 129 0052 7B6B     		ldr	r3, [r7, #52]
 130 0054 02E0     		b	.L6
 131              	.L4:
  70:E:/LiteOS/LiteOS_Lab/iot_link/os/os_imp/liteos\liteos_imp.c ****     }
  71:E:/LiteOS/LiteOS_Lab/iot_link/os/os_imp/liteos\liteos_imp.c ****     ret = (void *)handle;
 132              		.loc 1 71 0
 133 0056 FB6A     		ldr	r3, [r7, #44]
 134 0058 7B63     		str	r3, [r7, #52]
  72:E:/LiteOS/LiteOS_Lab/iot_link/os/os_imp/liteos\liteos_imp.c ****     return ret;
 135              		.loc 1 72 0
 136 005a 7B6B     		ldr	r3, [r7, #52]
 137              	.L6:
  73:E:/LiteOS/LiteOS_Lab/iot_link/os/os_imp/liteos\liteos_imp.c **** }
 138              		.loc 1 73 0 discriminator 1
 139 005c 1846     		mov	r0, r3
 140 005e 3837     		adds	r7, r7, #56
 141              	.LCFI8:
 142              		.cfi_def_cfa_offset 8
 143 0060 BD46     		mov	sp, r7
 144              	.LCFI9:
 145              		.cfi_def_cfa_register 13
 146              		@ sp needed
 147 0062 80BD     		pop	{r7, pc}
 148              		.cfi_endproc
 149              	.LFE134:
 151              		.section	.text.__task_kill,"ax",%progbits
 152              		.align	1
 153              		.syntax unified
 154              		.thumb
 155              		.thumb_func
 156              		.fpu fpv4-sp-d16
 158              	__task_kill:
 159              	.LFB135:
  74:E:/LiteOS/LiteOS_Lab/iot_link/os/os_imp/liteos\liteos_imp.c **** 
ARM GAS  C:\Users\user\AppData\Local\Temp\ccNRbxrE.s 			page 5


  75:E:/LiteOS/LiteOS_Lab/iot_link/os/os_imp/liteos\liteos_imp.c **** static int __task_kill(void *task)
  76:E:/LiteOS/LiteOS_Lab/iot_link/os/os_imp/liteos\liteos_imp.c **** {
 160              		.loc 1 76 0
 161              		.cfi_startproc
 162              		@ args = 0, pretend = 0, frame = 16
 163              		@ frame_needed = 1, uses_anonymous_args = 0
 164 0000 80B5     		push	{r7, lr}
 165              	.LCFI10:
 166              		.cfi_def_cfa_offset 8
 167              		.cfi_offset 7, -8
 168              		.cfi_offset 14, -4
 169 0002 84B0     		sub	sp, sp, #16
 170              	.LCFI11:
 171              		.cfi_def_cfa_offset 24
 172 0004 00AF     		add	r7, sp, #0
 173              	.LCFI12:
 174              		.cfi_def_cfa_register 7
 175 0006 7860     		str	r0, [r7, #4]
  77:E:/LiteOS/LiteOS_Lab/iot_link/os/os_imp/liteos\liteos_imp.c ****     int ret = -1;
 176              		.loc 1 77 0
 177 0008 4FF0FF33 		mov	r3, #-1
 178 000c FB60     		str	r3, [r7, #12]
  78:E:/LiteOS/LiteOS_Lab/iot_link/os/os_imp/liteos\liteos_imp.c ****     UINT32 handle;
  79:E:/LiteOS/LiteOS_Lab/iot_link/os/os_imp/liteos\liteos_imp.c ****     if(NULL != task)
 179              		.loc 1 79 0
 180 000e 7B68     		ldr	r3, [r7, #4]
 181 0010 002B     		cmp	r3, #0
 182 0012 09D0     		beq	.L8
  80:E:/LiteOS/LiteOS_Lab/iot_link/os/os_imp/liteos\liteos_imp.c ****     {
  81:E:/LiteOS/LiteOS_Lab/iot_link/os/os_imp/liteos\liteos_imp.c ****         handle = (UINT32) task;
 183              		.loc 1 81 0
 184 0014 7B68     		ldr	r3, [r7, #4]
 185 0016 BB60     		str	r3, [r7, #8]
  82:E:/LiteOS/LiteOS_Lab/iot_link/os/os_imp/liteos\liteos_imp.c ****         if(LOS_OK == LOS_TaskDelete(handle))
 186              		.loc 1 82 0
 187 0018 B868     		ldr	r0, [r7, #8]
 188 001a FFF7FEFF 		bl	LOS_TaskDelete
 189 001e 0346     		mov	r3, r0
 190 0020 002B     		cmp	r3, #0
 191 0022 01D1     		bne	.L8
  83:E:/LiteOS/LiteOS_Lab/iot_link/os/os_imp/liteos\liteos_imp.c ****         {
  84:E:/LiteOS/LiteOS_Lab/iot_link/os/os_imp/liteos\liteos_imp.c ****             ret = 0;
 192              		.loc 1 84 0
 193 0024 0023     		movs	r3, #0
 194 0026 FB60     		str	r3, [r7, #12]
 195              	.L8:
  85:E:/LiteOS/LiteOS_Lab/iot_link/os/os_imp/liteos\liteos_imp.c ****         }
  86:E:/LiteOS/LiteOS_Lab/iot_link/os/os_imp/liteos\liteos_imp.c ****     }
  87:E:/LiteOS/LiteOS_Lab/iot_link/os/os_imp/liteos\liteos_imp.c **** 
  88:E:/LiteOS/LiteOS_Lab/iot_link/os/os_imp/liteos\liteos_imp.c ****     return ret;
 196              		.loc 1 88 0
 197 0028 FB68     		ldr	r3, [r7, #12]
  89:E:/LiteOS/LiteOS_Lab/iot_link/os/os_imp/liteos\liteos_imp.c **** }
 198              		.loc 1 89 0
 199 002a 1846     		mov	r0, r3
 200 002c 1037     		adds	r7, r7, #16
 201              	.LCFI13:
ARM GAS  C:\Users\user\AppData\Local\Temp\ccNRbxrE.s 			page 6


 202              		.cfi_def_cfa_offset 8
 203 002e BD46     		mov	sp, r7
 204              	.LCFI14:
 205              		.cfi_def_cfa_register 13
 206              		@ sp needed
 207 0030 80BD     		pop	{r7, pc}
 208              		.cfi_endproc
 209              	.LFE135:
 211              		.section	.text.__task_exit,"ax",%progbits
 212              		.align	1
 213              		.syntax unified
 214              		.thumb
 215              		.thumb_func
 216              		.fpu fpv4-sp-d16
 218              	__task_exit:
 219              	.LFB136:
  90:E:/LiteOS/LiteOS_Lab/iot_link/os/os_imp/liteos\liteos_imp.c **** 
  91:E:/LiteOS/LiteOS_Lab/iot_link/os/os_imp/liteos\liteos_imp.c **** static void __task_exit()
  92:E:/LiteOS/LiteOS_Lab/iot_link/os/os_imp/liteos\liteos_imp.c **** {
 220              		.loc 1 92 0
 221              		.cfi_startproc
 222              		@ args = 0, pretend = 0, frame = 0
 223              		@ frame_needed = 1, uses_anonymous_args = 0
 224              		@ link register save eliminated.
 225 0000 80B4     		push	{r7}
 226              	.LCFI15:
 227              		.cfi_def_cfa_offset 4
 228              		.cfi_offset 7, -4
 229 0002 00AF     		add	r7, sp, #0
 230              	.LCFI16:
 231              		.cfi_def_cfa_register 7
 232              	.L11:
  93:E:/LiteOS/LiteOS_Lab/iot_link/os/os_imp/liteos\liteos_imp.c ****     while(1);  //not supported yet
 233              		.loc 1 93 0 discriminator 1
 234 0004 FEE7     		b	.L11
 235              		.cfi_endproc
 236              	.LFE136:
 238              		.section	.text.__mutex_create,"ax",%progbits
 239              		.align	1
 240              		.syntax unified
 241              		.thumb
 242              		.thumb_func
 243              		.fpu fpv4-sp-d16
 245              	__mutex_create:
 246              	.LFB137:
  94:E:/LiteOS/LiteOS_Lab/iot_link/os/os_imp/liteos\liteos_imp.c **** }
  95:E:/LiteOS/LiteOS_Lab/iot_link/os/os_imp/liteos\liteos_imp.c **** 
  96:E:/LiteOS/LiteOS_Lab/iot_link/os/os_imp/liteos\liteos_imp.c **** ///< this is implement for the mutex
  97:E:/LiteOS/LiteOS_Lab/iot_link/os/os_imp/liteos\liteos_imp.c **** #include <los_mux.h>
  98:E:/LiteOS/LiteOS_Lab/iot_link/os/os_imp/liteos\liteos_imp.c **** //creat a mutex for the os
  99:E:/LiteOS/LiteOS_Lab/iot_link/os/os_imp/liteos\liteos_imp.c **** static bool_t  __mutex_create(osal_mutex_t *mutex)
 100:E:/LiteOS/LiteOS_Lab/iot_link/os/os_imp/liteos\liteos_imp.c **** {
 247              		.loc 1 100 0
 248              		.cfi_startproc
 249              		@ args = 0, pretend = 0, frame = 8
 250              		@ frame_needed = 1, uses_anonymous_args = 0
 251 0000 80B5     		push	{r7, lr}
ARM GAS  C:\Users\user\AppData\Local\Temp\ccNRbxrE.s 			page 7


 252              	.LCFI17:
 253              		.cfi_def_cfa_offset 8
 254              		.cfi_offset 7, -8
 255              		.cfi_offset 14, -4
 256 0002 82B0     		sub	sp, sp, #8
 257              	.LCFI18:
 258              		.cfi_def_cfa_offset 16
 259 0004 00AF     		add	r7, sp, #0
 260              	.LCFI19:
 261              		.cfi_def_cfa_register 7
 262 0006 7860     		str	r0, [r7, #4]
 101:E:/LiteOS/LiteOS_Lab/iot_link/os/os_imp/liteos\liteos_imp.c ****     if(LOS_OK == LOS_MuxCreate((UINT32 *)mutex))
 263              		.loc 1 101 0
 264 0008 7868     		ldr	r0, [r7, #4]
 265 000a FFF7FEFF 		bl	LOS_MuxCreate
 266 000e 0346     		mov	r3, r0
 267 0010 002B     		cmp	r3, #0
 268 0012 01D1     		bne	.L13
 102:E:/LiteOS/LiteOS_Lab/iot_link/os/os_imp/liteos\liteos_imp.c ****     {
 103:E:/LiteOS/LiteOS_Lab/iot_link/os/os_imp/liteos\liteos_imp.c ****         return true;
 269              		.loc 1 103 0
 270 0014 0123     		movs	r3, #1
 271 0016 00E0     		b	.L14
 272              	.L13:
 104:E:/LiteOS/LiteOS_Lab/iot_link/os/os_imp/liteos\liteos_imp.c ****     }
 105:E:/LiteOS/LiteOS_Lab/iot_link/os/os_imp/liteos\liteos_imp.c ****     else
 106:E:/LiteOS/LiteOS_Lab/iot_link/os/os_imp/liteos\liteos_imp.c ****     {
 107:E:/LiteOS/LiteOS_Lab/iot_link/os/os_imp/liteos\liteos_imp.c ****         return false;
 273              		.loc 1 107 0
 274 0018 0023     		movs	r3, #0
 275              	.L14:
 108:E:/LiteOS/LiteOS_Lab/iot_link/os/os_imp/liteos\liteos_imp.c ****     }
 109:E:/LiteOS/LiteOS_Lab/iot_link/os/os_imp/liteos\liteos_imp.c **** }
 276              		.loc 1 109 0
 277 001a 1846     		mov	r0, r3
 278 001c 0837     		adds	r7, r7, #8
 279              	.LCFI20:
 280              		.cfi_def_cfa_offset 8
 281 001e BD46     		mov	sp, r7
 282              	.LCFI21:
 283              		.cfi_def_cfa_register 13
 284              		@ sp needed
 285 0020 80BD     		pop	{r7, pc}
 286              		.cfi_endproc
 287              	.LFE137:
 289              		.section	.text.__mutex_lock,"ax",%progbits
 290              		.align	1
 291              		.syntax unified
 292              		.thumb
 293              		.thumb_func
 294              		.fpu fpv4-sp-d16
 296              	__mutex_lock:
 297              	.LFB138:
 110:E:/LiteOS/LiteOS_Lab/iot_link/os/os_imp/liteos\liteos_imp.c **** //lock the mutex
 111:E:/LiteOS/LiteOS_Lab/iot_link/os/os_imp/liteos\liteos_imp.c **** static bool_t  __mutex_lock(osal_mutex_t mutex)
 112:E:/LiteOS/LiteOS_Lab/iot_link/os/os_imp/liteos\liteos_imp.c **** {
 298              		.loc 1 112 0
ARM GAS  C:\Users\user\AppData\Local\Temp\ccNRbxrE.s 			page 8


 299              		.cfi_startproc
 300              		@ args = 0, pretend = 0, frame = 8
 301              		@ frame_needed = 1, uses_anonymous_args = 0
 302 0000 80B5     		push	{r7, lr}
 303              	.LCFI22:
 304              		.cfi_def_cfa_offset 8
 305              		.cfi_offset 7, -8
 306              		.cfi_offset 14, -4
 307 0002 82B0     		sub	sp, sp, #8
 308              	.LCFI23:
 309              		.cfi_def_cfa_offset 16
 310 0004 00AF     		add	r7, sp, #0
 311              	.LCFI24:
 312              		.cfi_def_cfa_register 7
 313 0006 7860     		str	r0, [r7, #4]
 113:E:/LiteOS/LiteOS_Lab/iot_link/os/os_imp/liteos\liteos_imp.c ****     if(LOS_OK == LOS_MuxPend((UINT32)mutex,LOS_WAIT_FOREVER))
 314              		.loc 1 113 0
 315 0008 7B68     		ldr	r3, [r7, #4]
 316 000a 4FF0FF31 		mov	r1, #-1
 317 000e 1846     		mov	r0, r3
 318 0010 FFF7FEFF 		bl	LOS_MuxPend
 319 0014 0346     		mov	r3, r0
 320 0016 002B     		cmp	r3, #0
 321 0018 01D1     		bne	.L16
 114:E:/LiteOS/LiteOS_Lab/iot_link/os/os_imp/liteos\liteos_imp.c ****     {
 115:E:/LiteOS/LiteOS_Lab/iot_link/os/os_imp/liteos\liteos_imp.c ****         return true;
 322              		.loc 1 115 0
 323 001a 0123     		movs	r3, #1
 324 001c 00E0     		b	.L17
 325              	.L16:
 116:E:/LiteOS/LiteOS_Lab/iot_link/os/os_imp/liteos\liteos_imp.c ****     }
 117:E:/LiteOS/LiteOS_Lab/iot_link/os/os_imp/liteos\liteos_imp.c ****     else
 118:E:/LiteOS/LiteOS_Lab/iot_link/os/os_imp/liteos\liteos_imp.c ****     {
 119:E:/LiteOS/LiteOS_Lab/iot_link/os/os_imp/liteos\liteos_imp.c ****         return false;
 326              		.loc 1 119 0
 327 001e 0023     		movs	r3, #0
 328              	.L17:
 120:E:/LiteOS/LiteOS_Lab/iot_link/os/os_imp/liteos\liteos_imp.c ****     }
 121:E:/LiteOS/LiteOS_Lab/iot_link/os/os_imp/liteos\liteos_imp.c **** }
 329              		.loc 1 121 0
 330 0020 1846     		mov	r0, r3
 331 0022 0837     		adds	r7, r7, #8
 332              	.LCFI25:
 333              		.cfi_def_cfa_offset 8
 334 0024 BD46     		mov	sp, r7
 335              	.LCFI26:
 336              		.cfi_def_cfa_register 13
 337              		@ sp needed
 338 0026 80BD     		pop	{r7, pc}
 339              		.cfi_endproc
 340              	.LFE138:
 342              		.section	.text.__mutex_unlock,"ax",%progbits
 343              		.align	1
 344              		.syntax unified
 345              		.thumb
 346              		.thumb_func
 347              		.fpu fpv4-sp-d16
ARM GAS  C:\Users\user\AppData\Local\Temp\ccNRbxrE.s 			page 9


 349              	__mutex_unlock:
 350              	.LFB139:
 122:E:/LiteOS/LiteOS_Lab/iot_link/os/os_imp/liteos\liteos_imp.c **** 
 123:E:/LiteOS/LiteOS_Lab/iot_link/os/os_imp/liteos\liteos_imp.c **** //unlock the mutex
 124:E:/LiteOS/LiteOS_Lab/iot_link/os/os_imp/liteos\liteos_imp.c **** static bool_t  __mutex_unlock(osal_mutex_t mutex)
 125:E:/LiteOS/LiteOS_Lab/iot_link/os/os_imp/liteos\liteos_imp.c **** {
 351              		.loc 1 125 0
 352              		.cfi_startproc
 353              		@ args = 0, pretend = 0, frame = 8
 354              		@ frame_needed = 1, uses_anonymous_args = 0
 355 0000 80B5     		push	{r7, lr}
 356              	.LCFI27:
 357              		.cfi_def_cfa_offset 8
 358              		.cfi_offset 7, -8
 359              		.cfi_offset 14, -4
 360 0002 82B0     		sub	sp, sp, #8
 361              	.LCFI28:
 362              		.cfi_def_cfa_offset 16
 363 0004 00AF     		add	r7, sp, #0
 364              	.LCFI29:
 365              		.cfi_def_cfa_register 7
 366 0006 7860     		str	r0, [r7, #4]
 126:E:/LiteOS/LiteOS_Lab/iot_link/os/os_imp/liteos\liteos_imp.c ****     if(LOS_OK == LOS_MuxPost((UINT32)mutex))
 367              		.loc 1 126 0
 368 0008 7B68     		ldr	r3, [r7, #4]
 369 000a 1846     		mov	r0, r3
 370 000c FFF7FEFF 		bl	LOS_MuxPost
 371 0010 0346     		mov	r3, r0
 372 0012 002B     		cmp	r3, #0
 373 0014 01D1     		bne	.L19
 127:E:/LiteOS/LiteOS_Lab/iot_link/os/os_imp/liteos\liteos_imp.c ****     {
 128:E:/LiteOS/LiteOS_Lab/iot_link/os/os_imp/liteos\liteos_imp.c ****         return true;
 374              		.loc 1 128 0
 375 0016 0123     		movs	r3, #1
 376 0018 00E0     		b	.L20
 377              	.L19:
 129:E:/LiteOS/LiteOS_Lab/iot_link/os/os_imp/liteos\liteos_imp.c ****     }
 130:E:/LiteOS/LiteOS_Lab/iot_link/os/os_imp/liteos\liteos_imp.c ****     else
 131:E:/LiteOS/LiteOS_Lab/iot_link/os/os_imp/liteos\liteos_imp.c ****     {
 132:E:/LiteOS/LiteOS_Lab/iot_link/os/os_imp/liteos\liteos_imp.c ****         return false;
 378              		.loc 1 132 0
 379 001a 0023     		movs	r3, #0
 380              	.L20:
 133:E:/LiteOS/LiteOS_Lab/iot_link/os/os_imp/liteos\liteos_imp.c ****     }
 134:E:/LiteOS/LiteOS_Lab/iot_link/os/os_imp/liteos\liteos_imp.c **** }
 381              		.loc 1 134 0
 382 001c 1846     		mov	r0, r3
 383 001e 0837     		adds	r7, r7, #8
 384              	.LCFI30:
 385              		.cfi_def_cfa_offset 8
 386 0020 BD46     		mov	sp, r7
 387              	.LCFI31:
 388              		.cfi_def_cfa_register 13
 389              		@ sp needed
 390 0022 80BD     		pop	{r7, pc}
 391              		.cfi_endproc
 392              	.LFE139:
ARM GAS  C:\Users\user\AppData\Local\Temp\ccNRbxrE.s 			page 10


 394              		.section	.text.__mutex_del,"ax",%progbits
 395              		.align	1
 396              		.syntax unified
 397              		.thumb
 398              		.thumb_func
 399              		.fpu fpv4-sp-d16
 401              	__mutex_del:
 402              	.LFB140:
 135:E:/LiteOS/LiteOS_Lab/iot_link/os/os_imp/liteos\liteos_imp.c **** //delete the mutex
 136:E:/LiteOS/LiteOS_Lab/iot_link/os/os_imp/liteos\liteos_imp.c **** static bool_t  __mutex_del(osal_mutex_t mutex)
 137:E:/LiteOS/LiteOS_Lab/iot_link/os/os_imp/liteos\liteos_imp.c **** {
 403              		.loc 1 137 0
 404              		.cfi_startproc
 405              		@ args = 0, pretend = 0, frame = 8
 406              		@ frame_needed = 1, uses_anonymous_args = 0
 407 0000 80B5     		push	{r7, lr}
 408              	.LCFI32:
 409              		.cfi_def_cfa_offset 8
 410              		.cfi_offset 7, -8
 411              		.cfi_offset 14, -4
 412 0002 82B0     		sub	sp, sp, #8
 413              	.LCFI33:
 414              		.cfi_def_cfa_offset 16
 415 0004 00AF     		add	r7, sp, #0
 416              	.LCFI34:
 417              		.cfi_def_cfa_register 7
 418 0006 7860     		str	r0, [r7, #4]
 138:E:/LiteOS/LiteOS_Lab/iot_link/os/os_imp/liteos\liteos_imp.c ****     if(LOS_OK == LOS_MuxDelete((UINT32)mutex))
 419              		.loc 1 138 0
 420 0008 7B68     		ldr	r3, [r7, #4]
 421 000a 1846     		mov	r0, r3
 422 000c FFF7FEFF 		bl	LOS_MuxDelete
 423 0010 0346     		mov	r3, r0
 424 0012 002B     		cmp	r3, #0
 425 0014 01D1     		bne	.L22
 139:E:/LiteOS/LiteOS_Lab/iot_link/os/os_imp/liteos\liteos_imp.c ****     {
 140:E:/LiteOS/LiteOS_Lab/iot_link/os/os_imp/liteos\liteos_imp.c ****         return true;
 426              		.loc 1 140 0
 427 0016 0123     		movs	r3, #1
 428 0018 00E0     		b	.L23
 429              	.L22:
 141:E:/LiteOS/LiteOS_Lab/iot_link/os/os_imp/liteos\liteos_imp.c ****     }
 142:E:/LiteOS/LiteOS_Lab/iot_link/os/os_imp/liteos\liteos_imp.c ****     else
 143:E:/LiteOS/LiteOS_Lab/iot_link/os/os_imp/liteos\liteos_imp.c ****     {
 144:E:/LiteOS/LiteOS_Lab/iot_link/os/os_imp/liteos\liteos_imp.c ****         return false;
 430              		.loc 1 144 0
 431 001a 0023     		movs	r3, #0
 432              	.L23:
 145:E:/LiteOS/LiteOS_Lab/iot_link/os/os_imp/liteos\liteos_imp.c ****     }
 146:E:/LiteOS/LiteOS_Lab/iot_link/os/os_imp/liteos\liteos_imp.c **** }
 433              		.loc 1 146 0
 434 001c 1846     		mov	r0, r3
 435 001e 0837     		adds	r7, r7, #8
 436              	.LCFI35:
 437              		.cfi_def_cfa_offset 8
 438 0020 BD46     		mov	sp, r7
 439              	.LCFI36:
ARM GAS  C:\Users\user\AppData\Local\Temp\ccNRbxrE.s 			page 11


 440              		.cfi_def_cfa_register 13
 441              		@ sp needed
 442 0022 80BD     		pop	{r7, pc}
 443              		.cfi_endproc
 444              	.LFE140:
 446              		.section	.text.__semp_create,"ax",%progbits
 447              		.align	1
 448              		.syntax unified
 449              		.thumb
 450              		.thumb_func
 451              		.fpu fpv4-sp-d16
 453              	__semp_create:
 454              	.LFB141:
 147:E:/LiteOS/LiteOS_Lab/iot_link/os/os_imp/liteos\liteos_imp.c **** 
 148:E:/LiteOS/LiteOS_Lab/iot_link/os/os_imp/liteos\liteos_imp.c **** 
 149:E:/LiteOS/LiteOS_Lab/iot_link/os/os_imp/liteos\liteos_imp.c **** ///< this is implement for the semp
 150:E:/LiteOS/LiteOS_Lab/iot_link/os/os_imp/liteos\liteos_imp.c **** #include <los_sem.h>
 151:E:/LiteOS/LiteOS_Lab/iot_link/os/os_imp/liteos\liteos_imp.c **** 
 152:E:/LiteOS/LiteOS_Lab/iot_link/os/os_imp/liteos\liteos_imp.c **** 
 153:E:/LiteOS/LiteOS_Lab/iot_link/os/os_imp/liteos\liteos_imp.c **** //semp of the os
 154:E:/LiteOS/LiteOS_Lab/iot_link/os/os_imp/liteos\liteos_imp.c **** static bool_t  __semp_create(osal_semp_t *semp,int limit,int initvalue)
 155:E:/LiteOS/LiteOS_Lab/iot_link/os/os_imp/liteos\liteos_imp.c **** {
 455              		.loc 1 155 0
 456              		.cfi_startproc
 457              		@ args = 0, pretend = 0, frame = 16
 458              		@ frame_needed = 1, uses_anonymous_args = 0
 459 0000 80B5     		push	{r7, lr}
 460              	.LCFI37:
 461              		.cfi_def_cfa_offset 8
 462              		.cfi_offset 7, -8
 463              		.cfi_offset 14, -4
 464 0002 84B0     		sub	sp, sp, #16
 465              	.LCFI38:
 466              		.cfi_def_cfa_offset 24
 467 0004 00AF     		add	r7, sp, #0
 468              	.LCFI39:
 469              		.cfi_def_cfa_register 7
 470 0006 F860     		str	r0, [r7, #12]
 471 0008 B960     		str	r1, [r7, #8]
 472 000a 7A60     		str	r2, [r7, #4]
 156:E:/LiteOS/LiteOS_Lab/iot_link/os/os_imp/liteos\liteos_imp.c ****     extern UINT32 osSemCreate (UINT16 usCount, UINT16 usMaxCount, UINT32 *puwSemHandle);
 157:E:/LiteOS/LiteOS_Lab/iot_link/os/os_imp/liteos\liteos_imp.c ****     if(LOS_OK == osSemCreate(initvalue,limit,(UINT32 *)semp))
 473              		.loc 1 157 0
 474 000c 7B68     		ldr	r3, [r7, #4]
 475 000e 9BB2     		uxth	r3, r3
 476 0010 BA68     		ldr	r2, [r7, #8]
 477 0012 91B2     		uxth	r1, r2
 478 0014 FA68     		ldr	r2, [r7, #12]
 479 0016 1846     		mov	r0, r3
 480 0018 FFF7FEFF 		bl	osSemCreate
 481 001c 0346     		mov	r3, r0
 482 001e 002B     		cmp	r3, #0
 483 0020 01D1     		bne	.L25
 158:E:/LiteOS/LiteOS_Lab/iot_link/os/os_imp/liteos\liteos_imp.c ****     {
 159:E:/LiteOS/LiteOS_Lab/iot_link/os/os_imp/liteos\liteos_imp.c ****         return true;
 484              		.loc 1 159 0
 485 0022 0123     		movs	r3, #1
ARM GAS  C:\Users\user\AppData\Local\Temp\ccNRbxrE.s 			page 12


 486 0024 00E0     		b	.L26
 487              	.L25:
 160:E:/LiteOS/LiteOS_Lab/iot_link/os/os_imp/liteos\liteos_imp.c ****     }
 161:E:/LiteOS/LiteOS_Lab/iot_link/os/os_imp/liteos\liteos_imp.c ****     else
 162:E:/LiteOS/LiteOS_Lab/iot_link/os/os_imp/liteos\liteos_imp.c ****     {
 163:E:/LiteOS/LiteOS_Lab/iot_link/os/os_imp/liteos\liteos_imp.c ****         return false;
 488              		.loc 1 163 0
 489 0026 0023     		movs	r3, #0
 490              	.L26:
 164:E:/LiteOS/LiteOS_Lab/iot_link/os/os_imp/liteos\liteos_imp.c ****     }
 165:E:/LiteOS/LiteOS_Lab/iot_link/os/os_imp/liteos\liteos_imp.c **** }
 491              		.loc 1 165 0
 492 0028 1846     		mov	r0, r3
 493 002a 1037     		adds	r7, r7, #16
 494              	.LCFI40:
 495              		.cfi_def_cfa_offset 8
 496 002c BD46     		mov	sp, r7
 497              	.LCFI41:
 498              		.cfi_def_cfa_register 13
 499              		@ sp needed
 500 002e 80BD     		pop	{r7, pc}
 501              		.cfi_endproc
 502              	.LFE141:
 504              		.section	.text.__semp_pend,"ax",%progbits
 505              		.align	1
 506              		.syntax unified
 507              		.thumb
 508              		.thumb_func
 509              		.fpu fpv4-sp-d16
 511              	__semp_pend:
 512              	.LFB142:
 166:E:/LiteOS/LiteOS_Lab/iot_link/os/os_imp/liteos\liteos_imp.c **** static bool_t  __semp_pend(osal_semp_t semp,int timeout)
 167:E:/LiteOS/LiteOS_Lab/iot_link/os/os_imp/liteos\liteos_imp.c **** {
 513              		.loc 1 167 0
 514              		.cfi_startproc
 515              		@ args = 0, pretend = 0, frame = 8
 516              		@ frame_needed = 1, uses_anonymous_args = 0
 517 0000 80B5     		push	{r7, lr}
 518              	.LCFI42:
 519              		.cfi_def_cfa_offset 8
 520              		.cfi_offset 7, -8
 521              		.cfi_offset 14, -4
 522 0002 82B0     		sub	sp, sp, #8
 523              	.LCFI43:
 524              		.cfi_def_cfa_offset 16
 525 0004 00AF     		add	r7, sp, #0
 526              	.LCFI44:
 527              		.cfi_def_cfa_register 7
 528 0006 7860     		str	r0, [r7, #4]
 529 0008 3960     		str	r1, [r7]
 168:E:/LiteOS/LiteOS_Lab/iot_link/os/os_imp/liteos\liteos_imp.c ****     if(timeout == cn_osal_timeout_forever)
 530              		.loc 1 168 0
 531 000a 3B68     		ldr	r3, [r7]
 532 000c B3F1FF3F 		cmp	r3, #-1
 533 0010 02D1     		bne	.L28
 169:E:/LiteOS/LiteOS_Lab/iot_link/os/os_imp/liteos\liteos_imp.c ****     {
 170:E:/LiteOS/LiteOS_Lab/iot_link/os/os_imp/liteos\liteos_imp.c ****         timeout = LOS_WAIT_FOREVER;
ARM GAS  C:\Users\user\AppData\Local\Temp\ccNRbxrE.s 			page 13


 534              		.loc 1 170 0
 535 0012 4FF0FF33 		mov	r3, #-1
 536 0016 3B60     		str	r3, [r7]
 537              	.L28:
 171:E:/LiteOS/LiteOS_Lab/iot_link/os/os_imp/liteos\liteos_imp.c ****     }
 172:E:/LiteOS/LiteOS_Lab/iot_link/os/os_imp/liteos\liteos_imp.c **** 
 173:E:/LiteOS/LiteOS_Lab/iot_link/os/os_imp/liteos\liteos_imp.c ****     if(LOS_OK == LOS_SemPend((UINT32)semp,(UINT32)timeout))
 538              		.loc 1 173 0
 539 0018 7B68     		ldr	r3, [r7, #4]
 540 001a 3A68     		ldr	r2, [r7]
 541 001c 1146     		mov	r1, r2
 542 001e 1846     		mov	r0, r3
 543 0020 FFF7FEFF 		bl	LOS_SemPend
 544 0024 0346     		mov	r3, r0
 545 0026 002B     		cmp	r3, #0
 546 0028 01D1     		bne	.L29
 174:E:/LiteOS/LiteOS_Lab/iot_link/os/os_imp/liteos\liteos_imp.c ****     {
 175:E:/LiteOS/LiteOS_Lab/iot_link/os/os_imp/liteos\liteos_imp.c ****         return true;
 547              		.loc 1 175 0
 548 002a 0123     		movs	r3, #1
 549 002c 00E0     		b	.L30
 550              	.L29:
 176:E:/LiteOS/LiteOS_Lab/iot_link/os/os_imp/liteos\liteos_imp.c ****     }
 177:E:/LiteOS/LiteOS_Lab/iot_link/os/os_imp/liteos\liteos_imp.c ****     else
 178:E:/LiteOS/LiteOS_Lab/iot_link/os/os_imp/liteos\liteos_imp.c ****     {
 179:E:/LiteOS/LiteOS_Lab/iot_link/os/os_imp/liteos\liteos_imp.c ****         return false;
 551              		.loc 1 179 0
 552 002e 0023     		movs	r3, #0
 553              	.L30:
 180:E:/LiteOS/LiteOS_Lab/iot_link/os/os_imp/liteos\liteos_imp.c ****     }
 181:E:/LiteOS/LiteOS_Lab/iot_link/os/os_imp/liteos\liteos_imp.c **** }
 554              		.loc 1 181 0
 555 0030 1846     		mov	r0, r3
 556 0032 0837     		adds	r7, r7, #8
 557              	.LCFI45:
 558              		.cfi_def_cfa_offset 8
 559 0034 BD46     		mov	sp, r7
 560              	.LCFI46:
 561              		.cfi_def_cfa_register 13
 562              		@ sp needed
 563 0036 80BD     		pop	{r7, pc}
 564              		.cfi_endproc
 565              	.LFE142:
 567              		.section	.text.__semp_post,"ax",%progbits
 568              		.align	1
 569              		.syntax unified
 570              		.thumb
 571              		.thumb_func
 572              		.fpu fpv4-sp-d16
 574              	__semp_post:
 575              	.LFB143:
 182:E:/LiteOS/LiteOS_Lab/iot_link/os/os_imp/liteos\liteos_imp.c **** static bool_t  __semp_post(osal_semp_t semp)
 183:E:/LiteOS/LiteOS_Lab/iot_link/os/os_imp/liteos\liteos_imp.c **** {
 576              		.loc 1 183 0
 577              		.cfi_startproc
 578              		@ args = 0, pretend = 0, frame = 8
 579              		@ frame_needed = 1, uses_anonymous_args = 0
ARM GAS  C:\Users\user\AppData\Local\Temp\ccNRbxrE.s 			page 14


 580 0000 80B5     		push	{r7, lr}
 581              	.LCFI47:
 582              		.cfi_def_cfa_offset 8
 583              		.cfi_offset 7, -8
 584              		.cfi_offset 14, -4
 585 0002 82B0     		sub	sp, sp, #8
 586              	.LCFI48:
 587              		.cfi_def_cfa_offset 16
 588 0004 00AF     		add	r7, sp, #0
 589              	.LCFI49:
 590              		.cfi_def_cfa_register 7
 591 0006 7860     		str	r0, [r7, #4]
 184:E:/LiteOS/LiteOS_Lab/iot_link/os/os_imp/liteos\liteos_imp.c ****     if(LOS_OK == LOS_SemPost((UINT32)semp))
 592              		.loc 1 184 0
 593 0008 7B68     		ldr	r3, [r7, #4]
 594 000a 1846     		mov	r0, r3
 595 000c FFF7FEFF 		bl	LOS_SemPost
 596 0010 0346     		mov	r3, r0
 597 0012 002B     		cmp	r3, #0
 598 0014 01D1     		bne	.L32
 185:E:/LiteOS/LiteOS_Lab/iot_link/os/os_imp/liteos\liteos_imp.c ****     {
 186:E:/LiteOS/LiteOS_Lab/iot_link/os/os_imp/liteos\liteos_imp.c ****         return true;
 599              		.loc 1 186 0
 600 0016 0123     		movs	r3, #1
 601 0018 00E0     		b	.L33
 602              	.L32:
 187:E:/LiteOS/LiteOS_Lab/iot_link/os/os_imp/liteos\liteos_imp.c ****     }
 188:E:/LiteOS/LiteOS_Lab/iot_link/os/os_imp/liteos\liteos_imp.c ****     else
 189:E:/LiteOS/LiteOS_Lab/iot_link/os/os_imp/liteos\liteos_imp.c ****     {
 190:E:/LiteOS/LiteOS_Lab/iot_link/os/os_imp/liteos\liteos_imp.c ****         return false;
 603              		.loc 1 190 0
 604 001a 0023     		movs	r3, #0
 605              	.L33:
 191:E:/LiteOS/LiteOS_Lab/iot_link/os/os_imp/liteos\liteos_imp.c ****     }
 192:E:/LiteOS/LiteOS_Lab/iot_link/os/os_imp/liteos\liteos_imp.c **** }
 606              		.loc 1 192 0
 607 001c 1846     		mov	r0, r3
 608 001e 0837     		adds	r7, r7, #8
 609              	.LCFI50:
 610              		.cfi_def_cfa_offset 8
 611 0020 BD46     		mov	sp, r7
 612              	.LCFI51:
 613              		.cfi_def_cfa_register 13
 614              		@ sp needed
 615 0022 80BD     		pop	{r7, pc}
 616              		.cfi_endproc
 617              	.LFE143:
 619              		.section	.text.__semp_del,"ax",%progbits
 620              		.align	1
 621              		.syntax unified
 622              		.thumb
 623              		.thumb_func
 624              		.fpu fpv4-sp-d16
 626              	__semp_del:
 627              	.LFB144:
 193:E:/LiteOS/LiteOS_Lab/iot_link/os/os_imp/liteos\liteos_imp.c **** 
 194:E:/LiteOS/LiteOS_Lab/iot_link/os/os_imp/liteos\liteos_imp.c **** static bool_t  __semp_del(osal_semp_t semp)
ARM GAS  C:\Users\user\AppData\Local\Temp\ccNRbxrE.s 			page 15


 195:E:/LiteOS/LiteOS_Lab/iot_link/os/os_imp/liteos\liteos_imp.c **** {
 628              		.loc 1 195 0
 629              		.cfi_startproc
 630              		@ args = 0, pretend = 0, frame = 8
 631              		@ frame_needed = 1, uses_anonymous_args = 0
 632 0000 80B5     		push	{r7, lr}
 633              	.LCFI52:
 634              		.cfi_def_cfa_offset 8
 635              		.cfi_offset 7, -8
 636              		.cfi_offset 14, -4
 637 0002 82B0     		sub	sp, sp, #8
 638              	.LCFI53:
 639              		.cfi_def_cfa_offset 16
 640 0004 00AF     		add	r7, sp, #0
 641              	.LCFI54:
 642              		.cfi_def_cfa_register 7
 643 0006 7860     		str	r0, [r7, #4]
 196:E:/LiteOS/LiteOS_Lab/iot_link/os/os_imp/liteos\liteos_imp.c ****     if(LOS_OK == LOS_SemDelete((UINT32)semp))
 644              		.loc 1 196 0
 645 0008 7B68     		ldr	r3, [r7, #4]
 646 000a 1846     		mov	r0, r3
 647 000c FFF7FEFF 		bl	LOS_SemDelete
 648 0010 0346     		mov	r3, r0
 649 0012 002B     		cmp	r3, #0
 650 0014 01D1     		bne	.L35
 197:E:/LiteOS/LiteOS_Lab/iot_link/os/os_imp/liteos\liteos_imp.c ****     {
 198:E:/LiteOS/LiteOS_Lab/iot_link/os/os_imp/liteos\liteos_imp.c ****         return true;
 651              		.loc 1 198 0
 652 0016 0123     		movs	r3, #1
 653 0018 00E0     		b	.L36
 654              	.L35:
 199:E:/LiteOS/LiteOS_Lab/iot_link/os/os_imp/liteos\liteos_imp.c ****     }
 200:E:/LiteOS/LiteOS_Lab/iot_link/os/os_imp/liteos\liteos_imp.c ****     else
 201:E:/LiteOS/LiteOS_Lab/iot_link/os/os_imp/liteos\liteos_imp.c ****     {
 202:E:/LiteOS/LiteOS_Lab/iot_link/os/os_imp/liteos\liteos_imp.c ****         return false;
 655              		.loc 1 202 0
 656 001a 0023     		movs	r3, #0
 657              	.L36:
 203:E:/LiteOS/LiteOS_Lab/iot_link/os/os_imp/liteos\liteos_imp.c ****     }
 204:E:/LiteOS/LiteOS_Lab/iot_link/os/os_imp/liteos\liteos_imp.c **** }
 658              		.loc 1 204 0
 659 001c 1846     		mov	r0, r3
 660 001e 0837     		adds	r7, r7, #8
 661              	.LCFI55:
 662              		.cfi_def_cfa_offset 8
 663 0020 BD46     		mov	sp, r7
 664              	.LCFI56:
 665              		.cfi_def_cfa_register 13
 666              		@ sp needed
 667 0022 80BD     		pop	{r7, pc}
 668              		.cfi_endproc
 669              	.LFE144:
 671              		.section	.text.__mem_malloc,"ax",%progbits
 672              		.align	1
 673              		.syntax unified
 674              		.thumb
 675              		.thumb_func
ARM GAS  C:\Users\user\AppData\Local\Temp\ccNRbxrE.s 			page 16


 676              		.fpu fpv4-sp-d16
 678              	__mem_malloc:
 679              	.LFB145:
 205:E:/LiteOS/LiteOS_Lab/iot_link/os/os_imp/liteos\liteos_imp.c **** 
 206:E:/LiteOS/LiteOS_Lab/iot_link/os/os_imp/liteos\liteos_imp.c **** ///< this implement for the memory management
 207:E:/LiteOS/LiteOS_Lab/iot_link/os/os_imp/liteos\liteos_imp.c **** #include <los_memory.h>
 208:E:/LiteOS/LiteOS_Lab/iot_link/os/os_imp/liteos\liteos_imp.c **** 
 209:E:/LiteOS/LiteOS_Lab/iot_link/os/os_imp/liteos\liteos_imp.c **** 
 210:E:/LiteOS/LiteOS_Lab/iot_link/os/os_imp/liteos\liteos_imp.c **** static void *__mem_malloc(int size)
 211:E:/LiteOS/LiteOS_Lab/iot_link/os/os_imp/liteos\liteos_imp.c **** {
 680              		.loc 1 211 0
 681              		.cfi_startproc
 682              		@ args = 0, pretend = 0, frame = 16
 683              		@ frame_needed = 1, uses_anonymous_args = 0
 684 0000 80B5     		push	{r7, lr}
 685              	.LCFI57:
 686              		.cfi_def_cfa_offset 8
 687              		.cfi_offset 7, -8
 688              		.cfi_offset 14, -4
 689 0002 84B0     		sub	sp, sp, #16
 690              	.LCFI58:
 691              		.cfi_def_cfa_offset 24
 692 0004 00AF     		add	r7, sp, #0
 693              	.LCFI59:
 694              		.cfi_def_cfa_register 7
 695 0006 7860     		str	r0, [r7, #4]
 212:E:/LiteOS/LiteOS_Lab/iot_link/os/os_imp/liteos\liteos_imp.c ****     void *ret = NULL;
 696              		.loc 1 212 0
 697 0008 0023     		movs	r3, #0
 698 000a FB60     		str	r3, [r7, #12]
 213:E:/LiteOS/LiteOS_Lab/iot_link/os/os_imp/liteos\liteos_imp.c **** 
 214:E:/LiteOS/LiteOS_Lab/iot_link/os/os_imp/liteos\liteos_imp.c ****     if(size > 0)
 699              		.loc 1 214 0
 700 000c 7B68     		ldr	r3, [r7, #4]
 701 000e 002B     		cmp	r3, #0
 702 0010 07DD     		ble	.L38
 215:E:/LiteOS/LiteOS_Lab/iot_link/os/os_imp/liteos\liteos_imp.c ****     {
 216:E:/LiteOS/LiteOS_Lab/iot_link/os/os_imp/liteos\liteos_imp.c ****          ret = LOS_MemAlloc(m_aucSysMem0,size);
 703              		.loc 1 216 0
 704 0012 064B     		ldr	r3, .L40
 705 0014 1B68     		ldr	r3, [r3]
 706 0016 7A68     		ldr	r2, [r7, #4]
 707 0018 1146     		mov	r1, r2
 708 001a 1846     		mov	r0, r3
 709 001c FFF7FEFF 		bl	LOS_MemAlloc
 710 0020 F860     		str	r0, [r7, #12]
 711              	.L38:
 217:E:/LiteOS/LiteOS_Lab/iot_link/os/os_imp/liteos\liteos_imp.c ****     }
 218:E:/LiteOS/LiteOS_Lab/iot_link/os/os_imp/liteos\liteos_imp.c **** 
 219:E:/LiteOS/LiteOS_Lab/iot_link/os/os_imp/liteos\liteos_imp.c ****     return ret;
 712              		.loc 1 219 0
 713 0022 FB68     		ldr	r3, [r7, #12]
 220:E:/LiteOS/LiteOS_Lab/iot_link/os/os_imp/liteos\liteos_imp.c **** }
 714              		.loc 1 220 0
 715 0024 1846     		mov	r0, r3
 716 0026 1037     		adds	r7, r7, #16
 717              	.LCFI60:
ARM GAS  C:\Users\user\AppData\Local\Temp\ccNRbxrE.s 			page 17


 718              		.cfi_def_cfa_offset 8
 719 0028 BD46     		mov	sp, r7
 720              	.LCFI61:
 721              		.cfi_def_cfa_register 13
 722              		@ sp needed
 723 002a 80BD     		pop	{r7, pc}
 724              	.L41:
 725              		.align	2
 726              	.L40:
 727 002c 00000000 		.word	m_aucSysMem0
 728              		.cfi_endproc
 729              	.LFE145:
 731              		.section	.text.__mem_free,"ax",%progbits
 732              		.align	1
 733              		.syntax unified
 734              		.thumb
 735              		.thumb_func
 736              		.fpu fpv4-sp-d16
 738              	__mem_free:
 739              	.LFB146:
 221:E:/LiteOS/LiteOS_Lab/iot_link/os/os_imp/liteos\liteos_imp.c **** 
 222:E:/LiteOS/LiteOS_Lab/iot_link/os/os_imp/liteos\liteos_imp.c **** static void __mem_free(void *addr)
 223:E:/LiteOS/LiteOS_Lab/iot_link/os/os_imp/liteos\liteos_imp.c **** {
 740              		.loc 1 223 0
 741              		.cfi_startproc
 742              		@ args = 0, pretend = 0, frame = 8
 743              		@ frame_needed = 1, uses_anonymous_args = 0
 744 0000 80B5     		push	{r7, lr}
 745              	.LCFI62:
 746              		.cfi_def_cfa_offset 8
 747              		.cfi_offset 7, -8
 748              		.cfi_offset 14, -4
 749 0002 82B0     		sub	sp, sp, #8
 750              	.LCFI63:
 751              		.cfi_def_cfa_offset 16
 752 0004 00AF     		add	r7, sp, #0
 753              	.LCFI64:
 754              		.cfi_def_cfa_register 7
 755 0006 7860     		str	r0, [r7, #4]
 224:E:/LiteOS/LiteOS_Lab/iot_link/os/os_imp/liteos\liteos_imp.c ****     LOS_MemFree(m_aucSysMem0,addr);
 756              		.loc 1 224 0
 757 0008 044B     		ldr	r3, .L43
 758 000a 1B68     		ldr	r3, [r3]
 759 000c 7968     		ldr	r1, [r7, #4]
 760 000e 1846     		mov	r0, r3
 761 0010 FFF7FEFF 		bl	LOS_MemFree
 225:E:/LiteOS/LiteOS_Lab/iot_link/os/os_imp/liteos\liteos_imp.c **** }
 762              		.loc 1 225 0
 763 0014 00BF     		nop
 764 0016 0837     		adds	r7, r7, #8
 765              	.LCFI65:
 766              		.cfi_def_cfa_offset 8
 767 0018 BD46     		mov	sp, r7
 768              	.LCFI66:
 769              		.cfi_def_cfa_register 13
 770              		@ sp needed
 771 001a 80BD     		pop	{r7, pc}
ARM GAS  C:\Users\user\AppData\Local\Temp\ccNRbxrE.s 			page 18


 772              	.L44:
 773              		.align	2
 774              	.L43:
 775 001c 00000000 		.word	m_aucSysMem0
 776              		.cfi_endproc
 777              	.LFE146:
 779              		.section	.text.__get_sys_time,"ax",%progbits
 780              		.align	1
 781              		.syntax unified
 782              		.thumb
 783              		.thumb_func
 784              		.fpu fpv4-sp-d16
 786              	__get_sys_time:
 787              	.LFB149:
 226:E:/LiteOS/LiteOS_Lab/iot_link/os/os_imp/liteos\liteos_imp.c **** 
 227:E:/LiteOS/LiteOS_Lab/iot_link/os/os_imp/liteos\liteos_imp.c **** ///< sys time
 228:E:/LiteOS/LiteOS_Lab/iot_link/os/os_imp/liteos\liteos_imp.c **** #include <los_sys.ph>
 229:E:/LiteOS/LiteOS_Lab/iot_link/os/os_imp/liteos\liteos_imp.c **** static unsigned long long __get_sys_time()
 230:E:/LiteOS/LiteOS_Lab/iot_link/os/os_imp/liteos\liteos_imp.c **** {
 788              		.loc 1 230 0
 789              		.cfi_startproc
 790              		@ args = 0, pretend = 0, frame = 0
 791              		@ frame_needed = 1, uses_anonymous_args = 0
 792 0000 98B5     		push	{r3, r4, r7, lr}
 793              	.LCFI67:
 794              		.cfi_def_cfa_offset 16
 795              		.cfi_offset 3, -16
 796              		.cfi_offset 4, -12
 797              		.cfi_offset 7, -8
 798              		.cfi_offset 14, -4
 799 0002 00AF     		add	r7, sp, #0
 800              	.LCFI68:
 801              		.cfi_def_cfa_register 7
 231:E:/LiteOS/LiteOS_Lab/iot_link/os/os_imp/liteos\liteos_imp.c ****     return osKernelGetTickCount() * (OS_SYS_MS_PER_SECOND / LOSCFG_BASE_CORE_TICK_PER_SECOND);
 802              		.loc 1 231 0
 803 0004 FFF7FEFF 		bl	osKernelGetTickCount
 804 0008 0346     		mov	r3, r0
 805 000a 4FF00004 		mov	r4, #0
 232:E:/LiteOS/LiteOS_Lab/iot_link/os/os_imp/liteos\liteos_imp.c **** }
 806              		.loc 1 232 0
 807 000e 1846     		mov	r0, r3
 808 0010 2146     		mov	r1, r4
 809 0012 98BD     		pop	{r3, r4, r7, pc}
 810              		.cfi_endproc
 811              	.LFE149:
 813              		.section	.text.liteos_reboot,"ax",%progbits
 814              		.align	1
 815              		.weak	liteos_reboot
 816              		.syntax unified
 817              		.thumb
 818              		.thumb_func
 819              		.fpu fpv4-sp-d16
 821              	liteos_reboot:
 822              	.LFB150:
 233:E:/LiteOS/LiteOS_Lab/iot_link/os/os_imp/liteos\liteos_imp.c **** 
 234:E:/LiteOS/LiteOS_Lab/iot_link/os/os_imp/liteos\liteos_imp.c **** __attribute__((weak)) int liteos_reboot()
 235:E:/LiteOS/LiteOS_Lab/iot_link/os/os_imp/liteos\liteos_imp.c **** {
ARM GAS  C:\Users\user\AppData\Local\Temp\ccNRbxrE.s 			page 19


 823              		.loc 1 235 0
 824              		.cfi_startproc
 825              		@ args = 0, pretend = 0, frame = 0
 826              		@ frame_needed = 1, uses_anonymous_args = 0
 827              		@ link register save eliminated.
 828 0000 80B4     		push	{r7}
 829              	.LCFI69:
 830              		.cfi_def_cfa_offset 4
 831              		.cfi_offset 7, -4
 832 0002 00AF     		add	r7, sp, #0
 833              	.LCFI70:
 834              		.cfi_def_cfa_register 7
 835              	.L48:
 236:E:/LiteOS/LiteOS_Lab/iot_link/os/os_imp/liteos\liteos_imp.c ****     while(1);   ///< waiting for the dog if not impelment. you could implement it your self
 836              		.loc 1 236 0 discriminator 1
 837 0004 FEE7     		b	.L48
 838              		.cfi_endproc
 839              	.LFE150:
 841              		.section	.rodata.s_liteos_ops,"a",%progbits
 842              		.align	2
 845              	s_liteos_ops:
 846 0000 00000000 		.word	__task_create
 847 0004 00000000 		.word	__task_kill
 848 0008 00000000 		.word	__task_exit
 849 000c 00000000 		.word	__task_sleep
 850 0010 00000000 		.word	__mutex_create
 851 0014 00000000 		.word	__mutex_lock
 852 0018 00000000 		.word	__mutex_unlock
 853 001c 00000000 		.word	__mutex_del
 854 0020 00000000 		.word	__semp_create
 855 0024 00000000 		.word	__semp_pend
 856 0028 00000000 		.word	__semp_post
 857 002c 00000000 		.word	__semp_del
 858 0030 00000000 		.word	__mem_malloc
 859 0034 00000000 		.word	__mem_free
 860 0038 00000000 		.space	4
 861 003c 00000000 		.word	__get_sys_time
 862 0040 00000000 		.word	liteos_reboot
 863              		.section	.rodata
 864              		.align	2
 865              	.LC0:
 866 0000 4C697465 		.ascii	"LiteOS\000"
 866      4F5300
 867              		.section	.rodata.s_link_liteos,"a",%progbits
 868              		.align	2
 871              	s_link_liteos:
 872 0000 00000000 		.word	.LC0
 873 0004 00000000 		.word	s_liteos_ops
 874              		.section	.text.osal_install_liteos,"ax",%progbits
 875              		.align	1
 876              		.global	osal_install_liteos
 877              		.syntax unified
 878              		.thumb
 879              		.thumb_func
 880              		.fpu fpv4-sp-d16
 882              	osal_install_liteos:
 883              	.LFB151:
ARM GAS  C:\Users\user\AppData\Local\Temp\ccNRbxrE.s 			page 20


 237:E:/LiteOS/LiteOS_Lab/iot_link/os/os_imp/liteos\liteos_imp.c ****     return 0;
 238:E:/LiteOS/LiteOS_Lab/iot_link/os/os_imp/liteos\liteos_imp.c **** }
 239:E:/LiteOS/LiteOS_Lab/iot_link/os/os_imp/liteos\liteos_imp.c **** 
 240:E:/LiteOS/LiteOS_Lab/iot_link/os/os_imp/liteos\liteos_imp.c **** 
 241:E:/LiteOS/LiteOS_Lab/iot_link/os/os_imp/liteos\liteos_imp.c **** static const tag_os_ops s_liteos_ops =
 242:E:/LiteOS/LiteOS_Lab/iot_link/os/os_imp/liteos\liteos_imp.c **** {
 243:E:/LiteOS/LiteOS_Lab/iot_link/os/os_imp/liteos\liteos_imp.c ****     .task_sleep = __task_sleep,
 244:E:/LiteOS/LiteOS_Lab/iot_link/os/os_imp/liteos\liteos_imp.c ****     .task_create = __task_create,
 245:E:/LiteOS/LiteOS_Lab/iot_link/os/os_imp/liteos\liteos_imp.c ****     .task_kill = __task_kill,
 246:E:/LiteOS/LiteOS_Lab/iot_link/os/os_imp/liteos\liteos_imp.c ****     .task_exit = __task_exit,
 247:E:/LiteOS/LiteOS_Lab/iot_link/os/os_imp/liteos\liteos_imp.c **** 
 248:E:/LiteOS/LiteOS_Lab/iot_link/os/os_imp/liteos\liteos_imp.c ****     .mutex_create = __mutex_create,
 249:E:/LiteOS/LiteOS_Lab/iot_link/os/os_imp/liteos\liteos_imp.c ****     .mutex_lock = __mutex_lock,
 250:E:/LiteOS/LiteOS_Lab/iot_link/os/os_imp/liteos\liteos_imp.c ****     .mutex_unlock = __mutex_unlock,
 251:E:/LiteOS/LiteOS_Lab/iot_link/os/os_imp/liteos\liteos_imp.c ****     .mutex_del = __mutex_del,
 252:E:/LiteOS/LiteOS_Lab/iot_link/os/os_imp/liteos\liteos_imp.c **** 
 253:E:/LiteOS/LiteOS_Lab/iot_link/os/os_imp/liteos\liteos_imp.c ****     .semp_create = __semp_create,
 254:E:/LiteOS/LiteOS_Lab/iot_link/os/os_imp/liteos\liteos_imp.c ****     .semp_pend = __semp_pend,
 255:E:/LiteOS/LiteOS_Lab/iot_link/os/os_imp/liteos\liteos_imp.c ****     .semp_post = __semp_post,
 256:E:/LiteOS/LiteOS_Lab/iot_link/os/os_imp/liteos\liteos_imp.c ****     .semp_del = __semp_del,
 257:E:/LiteOS/LiteOS_Lab/iot_link/os/os_imp/liteos\liteos_imp.c **** 
 258:E:/LiteOS/LiteOS_Lab/iot_link/os/os_imp/liteos\liteos_imp.c ****     .malloc = __mem_malloc,
 259:E:/LiteOS/LiteOS_Lab/iot_link/os/os_imp/liteos\liteos_imp.c ****     .free = __mem_free,
 260:E:/LiteOS/LiteOS_Lab/iot_link/os/os_imp/liteos\liteos_imp.c **** 
 261:E:/LiteOS/LiteOS_Lab/iot_link/os/os_imp/liteos\liteos_imp.c ****     .get_sys_time = __get_sys_time,
 262:E:/LiteOS/LiteOS_Lab/iot_link/os/os_imp/liteos\liteos_imp.c ****     .reboot = liteos_reboot,
 263:E:/LiteOS/LiteOS_Lab/iot_link/os/os_imp/liteos\liteos_imp.c **** };
 264:E:/LiteOS/LiteOS_Lab/iot_link/os/os_imp/liteos\liteos_imp.c **** 
 265:E:/LiteOS/LiteOS_Lab/iot_link/os/os_imp/liteos\liteos_imp.c **** 
 266:E:/LiteOS/LiteOS_Lab/iot_link/os/os_imp/liteos\liteos_imp.c **** 
 267:E:/LiteOS/LiteOS_Lab/iot_link/os/os_imp/liteos\liteos_imp.c **** static const tag_os s_link_liteos =
 268:E:/LiteOS/LiteOS_Lab/iot_link/os/os_imp/liteos\liteos_imp.c **** {
 269:E:/LiteOS/LiteOS_Lab/iot_link/os/os_imp/liteos\liteos_imp.c ****     .name = "LiteOS",
 270:E:/LiteOS/LiteOS_Lab/iot_link/os/os_imp/liteos\liteos_imp.c ****     .ops = &s_liteos_ops,
 271:E:/LiteOS/LiteOS_Lab/iot_link/os/os_imp/liteos\liteos_imp.c **** };
 272:E:/LiteOS/LiteOS_Lab/iot_link/os/os_imp/liteos\liteos_imp.c **** 
 273:E:/LiteOS/LiteOS_Lab/iot_link/os/os_imp/liteos\liteos_imp.c **** int osal_install_liteos(void)
 274:E:/LiteOS/LiteOS_Lab/iot_link/os/os_imp/liteos\liteos_imp.c **** {
 884              		.loc 1 274 0
 885              		.cfi_startproc
 886              		@ args = 0, pretend = 0, frame = 8
 887              		@ frame_needed = 1, uses_anonymous_args = 0
 888 0000 80B5     		push	{r7, lr}
 889              	.LCFI71:
 890              		.cfi_def_cfa_offset 8
 891              		.cfi_offset 7, -8
 892              		.cfi_offset 14, -4
 893 0002 82B0     		sub	sp, sp, #8
 894              	.LCFI72:
 895              		.cfi_def_cfa_offset 16
 896 0004 00AF     		add	r7, sp, #0
 897              	.LCFI73:
 898              		.cfi_def_cfa_register 7
 275:E:/LiteOS/LiteOS_Lab/iot_link/os/os_imp/liteos\liteos_imp.c ****     int ret = -1;
 899              		.loc 1 275 0
 900 0006 4FF0FF33 		mov	r3, #-1
 901 000a 7B60     		str	r3, [r7, #4]
ARM GAS  C:\Users\user\AppData\Local\Temp\ccNRbxrE.s 			page 21


 276:E:/LiteOS/LiteOS_Lab/iot_link/os/os_imp/liteos\liteos_imp.c **** 
 277:E:/LiteOS/LiteOS_Lab/iot_link/os/os_imp/liteos\liteos_imp.c ****     ret = osal_install(&s_link_liteos);
 902              		.loc 1 277 0
 903 000c 0448     		ldr	r0, .L51
 904 000e FFF7FEFF 		bl	osal_install
 905 0012 7860     		str	r0, [r7, #4]
 278:E:/LiteOS/LiteOS_Lab/iot_link/os/os_imp/liteos\liteos_imp.c **** 
 279:E:/LiteOS/LiteOS_Lab/iot_link/os/os_imp/liteos\liteos_imp.c ****     return ret;
 906              		.loc 1 279 0
 907 0014 7B68     		ldr	r3, [r7, #4]
 280:E:/LiteOS/LiteOS_Lab/iot_link/os/os_imp/liteos\liteos_imp.c **** }
 908              		.loc 1 280 0
 909 0016 1846     		mov	r0, r3
 910 0018 0837     		adds	r7, r7, #8
 911              	.LCFI74:
 912              		.cfi_def_cfa_offset 8
 913 001a BD46     		mov	sp, r7
 914              	.LCFI75:
 915              		.cfi_def_cfa_register 13
 916              		@ sp needed
 917 001c 80BD     		pop	{r7, pc}
 918              	.L52:
 919 001e 00BF     		.align	2
 920              	.L51:
 921 0020 00000000 		.word	s_link_liteos
 922              		.cfi_endproc
 923              	.LFE151:
 925              		.text
 926              	.Letext0:
 927              		.file 2 "E:/LiteOS/LiteOS_Lab/iot_link/os/osal/osal_types.h"
 928              		.file 3 "E:/LiteOS/LiteOS_Lab/iot_link/os/osal/osal_imp.h"
 929              		.file 4 "e:\\ac6\\systemworkbench\\plugins\\fr.ac6.mcu.externaltools.arm-none.win32_1.16.0.2018071
 930              		.file 5 "e:\\ac6\\systemworkbench\\plugins\\fr.ac6.mcu.externaltools.arm-none.win32_1.16.0.2018071
 931              		.file 6 "e:\\ac6\\systemworkbench\\plugins\\fr.ac6.mcu.externaltools.arm-none.win32_1.16.0.2018071
 932              		.file 7 "e:\\ac6\\systemworkbench\\plugins\\fr.ac6.mcu.externaltools.arm-none.win32_1.16.0.2018071
 933              		.file 8 "e:\\ac6\\systemworkbench\\plugins\\fr.ac6.mcu.externaltools.arm-none.win32_1.16.0.2018071
 934              		.file 9 "E:/LiteOS/LiteOS_Lab/iot_link/os/os_imp/liteos/include/los_typedef.h"
 935              		.file 10 "e:\\ac6\\systemworkbench\\plugins\\fr.ac6.mcu.externaltools.arm-none.win32_1.16.0.201807
 936              		.file 11 "E:/LiteOS/LiteOS_Lab/iot_link/os/os_imp/liteos/arch/arm/common/cmsis/core_cm4.h"
 937              		.file 12 "E:/LiteOS/LiteOS_Lab/targets/STM32L431_BearPi/Inc/system_stm32l4xx.h"
 938              		.file 13 "E:/LiteOS/LiteOS_Lab/iot_link/os/os_imp/liteos/arch/arm/arm-m/include/los_hwi.h"
 939              		.file 14 "E:/LiteOS/LiteOS_Lab/iot_link/os/os_imp/liteos/include/los_list.h"
 940              		.file 15 "E:/LiteOS/LiteOS_Lab/iot_link/os/os_imp/liteos/include/los_event.h"
 941              		.file 16 "E:/LiteOS/LiteOS_Lab/targets/STM32L431_BearPi/Inc/main.h"
 942              		.file 17 "E:/LiteOS/LiteOS_Lab/iot_link/os/os_imp/liteos/include/los_config.h"
 943              		.file 18 "E:/LiteOS/LiteOS_Lab/iot_link/os/os_imp/liteos/include/los_err.h"
 944              		.file 19 "E:/LiteOS/LiteOS_Lab/iot_link/os/os_imp/liteos/include/los_tick.h"
 945              		.file 20 "E:/LiteOS/LiteOS_Lab/iot_link/os/os_imp/liteos/include/los_task.h"
 946              		.file 21 "E:/LiteOS/LiteOS_Lab/iot_link/os/os_imp/liteos/base/include/los_task.ph"
 947              		.file 22 "E:/LiteOS/LiteOS_Lab/iot_link/os/os_imp/liteos/include/los_memory.h"
ARM GAS  C:\Users\user\AppData\Local\Temp\ccNRbxrE.s 			page 22

