ARM GAS  C:\Users\user\AppData\Local\Temp\ccOPvb7u.s 			page 1


   1              		.cpu cortex-m4
   2              		.eabi_attribute 27, 1
   3              		.eabi_attribute 28, 1
   4              		.eabi_attribute 20, 1
   5              		.eabi_attribute 21, 1
   6              		.eabi_attribute 23, 3
   7              		.eabi_attribute 24, 1
   8              		.eabi_attribute 25, 1
   9              		.eabi_attribute 26, 1
  10              		.eabi_attribute 30, 6
  11              		.eabi_attribute 34, 1
  12              		.eabi_attribute 18, 4
  13              		.file	"los_sem.c"
  14              		.text
  15              	.Ltext0:
  16              		.cfi_sections	.debug_frame
  17              		.section	.text.LOS_ListInit,"ax",%progbits
  18              		.align	1
  19              		.syntax unified
  20              		.thumb
  21              		.thumb_func
  22              		.fpu fpv4-sp-d16
  24              	LOS_ListInit:
  25              	.LFB123:
  26              		.file 1 "E:/LiteOS/LiteOS_Lab/iot_link/os/os_imp/liteos/include/los_list.h"
   1:E:/LiteOS/LiteOS_Lab/iot_link/os/os_imp/liteos/include\los_list.h **** /*----------------------------------------------------------------------------
   2:E:/LiteOS/LiteOS_Lab/iot_link/os/os_imp/liteos/include\los_list.h ****  * Copyright (c) <2013-2015>, <Huawei Technologies Co., Ltd>
   3:E:/LiteOS/LiteOS_Lab/iot_link/os/os_imp/liteos/include\los_list.h ****  * All rights reserved.
   4:E:/LiteOS/LiteOS_Lab/iot_link/os/os_imp/liteos/include\los_list.h ****  * Redistribution and use in source and binary forms, with or without modification,
   5:E:/LiteOS/LiteOS_Lab/iot_link/os/os_imp/liteos/include\los_list.h ****  * are permitted provided that the following conditions are met:
   6:E:/LiteOS/LiteOS_Lab/iot_link/os/os_imp/liteos/include\los_list.h ****  * 1. Redistributions of source code must retain the above copyright notice, this list of
   7:E:/LiteOS/LiteOS_Lab/iot_link/os/os_imp/liteos/include\los_list.h ****  * conditions and the following disclaimer.
   8:E:/LiteOS/LiteOS_Lab/iot_link/os/os_imp/liteos/include\los_list.h ****  * 2. Redistributions in binary form must reproduce the above copyright notice, this list
   9:E:/LiteOS/LiteOS_Lab/iot_link/os/os_imp/liteos/include\los_list.h ****  * of conditions and the following disclaimer in the documentation and/or other materials
  10:E:/LiteOS/LiteOS_Lab/iot_link/os/os_imp/liteos/include\los_list.h ****  * provided with the distribution.
  11:E:/LiteOS/LiteOS_Lab/iot_link/os/os_imp/liteos/include\los_list.h ****  * 3. Neither the name of the copyright holder nor the names of its contributors may be used
  12:E:/LiteOS/LiteOS_Lab/iot_link/os/os_imp/liteos/include\los_list.h ****  * to endorse or promote products derived from this software without specific prior written
  13:E:/LiteOS/LiteOS_Lab/iot_link/os/os_imp/liteos/include\los_list.h ****  * permission.
  14:E:/LiteOS/LiteOS_Lab/iot_link/os/os_imp/liteos/include\los_list.h ****  * THIS SOFTWARE IS PROVIDED BY THE COPYRIGHT HOLDERS AND CONTRIBUTORS
  15:E:/LiteOS/LiteOS_Lab/iot_link/os/os_imp/liteos/include\los_list.h ****  * "AS IS" AND ANY EXPRESS OR IMPLIED WARRANTIES, INCLUDING, BUT NOT LIMITED TO,
  16:E:/LiteOS/LiteOS_Lab/iot_link/os/os_imp/liteos/include\los_list.h ****  * THE IMPLIED WARRANTIES OF MERCHANTABILITY AND FITNESS FOR A PARTICULAR
  17:E:/LiteOS/LiteOS_Lab/iot_link/os/os_imp/liteos/include\los_list.h ****  * PURPOSE ARE DISCLAIMED. IN NO EVENT SHALL THE COPYRIGHT HOLDER OR
  18:E:/LiteOS/LiteOS_Lab/iot_link/os/os_imp/liteos/include\los_list.h ****  * CONTRIBUTORS BE LIABLE FOR ANY DIRECT, INDIRECT, INCIDENTAL, SPECIAL,
  19:E:/LiteOS/LiteOS_Lab/iot_link/os/os_imp/liteos/include\los_list.h ****  * EXEMPLARY, OR CONSEQUENTIAL DAMAGES (INCLUDING, BUT NOT LIMITED TO,
  20:E:/LiteOS/LiteOS_Lab/iot_link/os/os_imp/liteos/include\los_list.h ****  * PROCUREMENT OF SUBSTITUTE GOODS OR SERVICES; LOSS OF USE, DATA, OR PROFITS;
  21:E:/LiteOS/LiteOS_Lab/iot_link/os/os_imp/liteos/include\los_list.h ****  * OR BUSINESS INTERRUPTION) HOWEVER CAUSED AND ON ANY THEORY OF LIABILITY,
  22:E:/LiteOS/LiteOS_Lab/iot_link/os/os_imp/liteos/include\los_list.h ****  * WHETHER IN CONTRACT, STRICT LIABILITY, OR TORT (INCLUDING NEGLIGENCE OR
  23:E:/LiteOS/LiteOS_Lab/iot_link/os/os_imp/liteos/include\los_list.h ****  * OTHERWISE) ARISING IN ANY WAY OUT OF THE USE OF THIS SOFTWARE, EVEN IF
  24:E:/LiteOS/LiteOS_Lab/iot_link/os/os_imp/liteos/include\los_list.h ****  * ADVISED OF THE POSSIBILITY OF SUCH DAMAGE.
  25:E:/LiteOS/LiteOS_Lab/iot_link/os/os_imp/liteos/include\los_list.h ****  *---------------------------------------------------------------------------*/
  26:E:/LiteOS/LiteOS_Lab/iot_link/os/os_imp/liteos/include\los_list.h **** /*----------------------------------------------------------------------------
  27:E:/LiteOS/LiteOS_Lab/iot_link/os/os_imp/liteos/include\los_list.h ****  * Notice of Export Control Law
  28:E:/LiteOS/LiteOS_Lab/iot_link/os/os_imp/liteos/include\los_list.h ****  * ===============================================
  29:E:/LiteOS/LiteOS_Lab/iot_link/os/os_imp/liteos/include\los_list.h ****  * Huawei LiteOS may be subject to applicable export control laws and regulations, which might
  30:E:/LiteOS/LiteOS_Lab/iot_link/os/os_imp/liteos/include\los_list.h ****  * include those applicable to Huawei LiteOS of U.S. and the country in which you are located.
  31:E:/LiteOS/LiteOS_Lab/iot_link/os/os_imp/liteos/include\los_list.h ****  * Import, export and usage of Huawei LiteOS in any manner by you shall be in compliance with such
  32:E:/LiteOS/LiteOS_Lab/iot_link/os/os_imp/liteos/include\los_list.h ****  * applicable export control laws and regulations.
ARM GAS  C:\Users\user\AppData\Local\Temp\ccOPvb7u.s 			page 2


  33:E:/LiteOS/LiteOS_Lab/iot_link/os/os_imp/liteos/include\los_list.h ****  *---------------------------------------------------------------------------*/
  34:E:/LiteOS/LiteOS_Lab/iot_link/os/os_imp/liteos/include\los_list.h **** 
  35:E:/LiteOS/LiteOS_Lab/iot_link/os/os_imp/liteos/include\los_list.h ****  /** @defgroup los_list Doubly linked list
  36:E:/LiteOS/LiteOS_Lab/iot_link/os/os_imp/liteos/include\los_list.h ****  * @ingroup kernel
  37:E:/LiteOS/LiteOS_Lab/iot_link/os/os_imp/liteos/include\los_list.h ****  */
  38:E:/LiteOS/LiteOS_Lab/iot_link/os/os_imp/liteos/include\los_list.h **** 
  39:E:/LiteOS/LiteOS_Lab/iot_link/os/os_imp/liteos/include\los_list.h **** #ifndef _LOS_LIST_H
  40:E:/LiteOS/LiteOS_Lab/iot_link/os/os_imp/liteos/include\los_list.h **** #define _LOS_LIST_H
  41:E:/LiteOS/LiteOS_Lab/iot_link/os/os_imp/liteos/include\los_list.h **** 
  42:E:/LiteOS/LiteOS_Lab/iot_link/os/os_imp/liteos/include\los_list.h **** #include "los_typedef.h"
  43:E:/LiteOS/LiteOS_Lab/iot_link/os/os_imp/liteos/include\los_list.h **** 
  44:E:/LiteOS/LiteOS_Lab/iot_link/os/os_imp/liteos/include\los_list.h **** #ifdef __cplusplus
  45:E:/LiteOS/LiteOS_Lab/iot_link/os/os_imp/liteos/include\los_list.h **** #if __cplusplus
  46:E:/LiteOS/LiteOS_Lab/iot_link/os/os_imp/liteos/include\los_list.h **** extern "C" {
  47:E:/LiteOS/LiteOS_Lab/iot_link/os/os_imp/liteos/include\los_list.h **** #endif /* __cplusplus */
  48:E:/LiteOS/LiteOS_Lab/iot_link/os/os_imp/liteos/include\los_list.h **** #endif /* __cplusplus */
  49:E:/LiteOS/LiteOS_Lab/iot_link/os/os_imp/liteos/include\los_list.h **** 
  50:E:/LiteOS/LiteOS_Lab/iot_link/os/os_imp/liteos/include\los_list.h **** 
  51:E:/LiteOS/LiteOS_Lab/iot_link/os/os_imp/liteos/include\los_list.h **** /**
  52:E:/LiteOS/LiteOS_Lab/iot_link/os/os_imp/liteos/include\los_list.h ****  *@ingroup los_list
  53:E:/LiteOS/LiteOS_Lab/iot_link/os/os_imp/liteos/include\los_list.h ****  *Structure of a node in a doubly linked list.
  54:E:/LiteOS/LiteOS_Lab/iot_link/os/os_imp/liteos/include\los_list.h ****  */
  55:E:/LiteOS/LiteOS_Lab/iot_link/os/os_imp/liteos/include\los_list.h **** typedef struct LOS_DL_LIST
  56:E:/LiteOS/LiteOS_Lab/iot_link/os/os_imp/liteos/include\los_list.h **** {
  57:E:/LiteOS/LiteOS_Lab/iot_link/os/os_imp/liteos/include\los_list.h ****     struct LOS_DL_LIST *pstPrev;            /**< Current node's pointer to the previous node*/
  58:E:/LiteOS/LiteOS_Lab/iot_link/os/os_imp/liteos/include\los_list.h ****     struct LOS_DL_LIST *pstNext;            /**< Current node's pointer to the next node*/
  59:E:/LiteOS/LiteOS_Lab/iot_link/os/os_imp/liteos/include\los_list.h **** } LOS_DL_LIST;
  60:E:/LiteOS/LiteOS_Lab/iot_link/os/os_imp/liteos/include\los_list.h **** 
  61:E:/LiteOS/LiteOS_Lab/iot_link/os/os_imp/liteos/include\los_list.h **** /**
  62:E:/LiteOS/LiteOS_Lab/iot_link/os/os_imp/liteos/include\los_list.h ****  *@ingroup los_list
  63:E:/LiteOS/LiteOS_Lab/iot_link/os/os_imp/liteos/include\los_list.h ****  *@brief Initialize a doubly linked list.
  64:E:/LiteOS/LiteOS_Lab/iot_link/os/os_imp/liteos/include\los_list.h ****  *
  65:E:/LiteOS/LiteOS_Lab/iot_link/os/os_imp/liteos/include\los_list.h ****  *@par Description:
  66:E:/LiteOS/LiteOS_Lab/iot_link/os/os_imp/liteos/include\los_list.h ****  *This API is used to initialize a doubly linked list.
  67:E:/LiteOS/LiteOS_Lab/iot_link/os/os_imp/liteos/include\los_list.h ****  *@attention
  68:E:/LiteOS/LiteOS_Lab/iot_link/os/os_imp/liteos/include\los_list.h ****  *<ul>
  69:E:/LiteOS/LiteOS_Lab/iot_link/os/os_imp/liteos/include\los_list.h ****  *<li>The parameter passed in should be ensured to be a legal pointer.</li>
  70:E:/LiteOS/LiteOS_Lab/iot_link/os/os_imp/liteos/include\los_list.h ****  *</ul>
  71:E:/LiteOS/LiteOS_Lab/iot_link/os/os_imp/liteos/include\los_list.h ****  *
  72:E:/LiteOS/LiteOS_Lab/iot_link/os/os_imp/liteos/include\los_list.h ****  *@param pstList    [IN] Node in a doubly linked list.
  73:E:/LiteOS/LiteOS_Lab/iot_link/os/os_imp/liteos/include\los_list.h ****  *
  74:E:/LiteOS/LiteOS_Lab/iot_link/os/os_imp/liteos/include\los_list.h ****  *@retval None.
  75:E:/LiteOS/LiteOS_Lab/iot_link/os/os_imp/liteos/include\los_list.h ****  *@par Dependency:
  76:E:/LiteOS/LiteOS_Lab/iot_link/os/os_imp/liteos/include\los_list.h ****  *<ul><li>los_list.h: the header file that contains the API declaration.</li></ul>
  77:E:/LiteOS/LiteOS_Lab/iot_link/os/os_imp/liteos/include\los_list.h ****  *@see
  78:E:/LiteOS/LiteOS_Lab/iot_link/os/os_imp/liteos/include\los_list.h ****  *@since Huawei LiteOS V100R001C00
  79:E:/LiteOS/LiteOS_Lab/iot_link/os/os_imp/liteos/include\los_list.h ****  */
  80:E:/LiteOS/LiteOS_Lab/iot_link/os/os_imp/liteos/include\los_list.h **** LITE_OS_SEC_ALW_INLINE STATIC_INLINE VOID LOS_ListInit(LOS_DL_LIST *pstList)
  81:E:/LiteOS/LiteOS_Lab/iot_link/os/os_imp/liteos/include\los_list.h **** {
  27              		.loc 1 81 0
  28              		.cfi_startproc
  29              		@ args = 0, pretend = 0, frame = 8
  30              		@ frame_needed = 1, uses_anonymous_args = 0
  31              		@ link register save eliminated.
  32 0000 80B4     		push	{r7}
  33              	.LCFI0:
  34              		.cfi_def_cfa_offset 4
ARM GAS  C:\Users\user\AppData\Local\Temp\ccOPvb7u.s 			page 3


  35              		.cfi_offset 7, -4
  36 0002 83B0     		sub	sp, sp, #12
  37              	.LCFI1:
  38              		.cfi_def_cfa_offset 16
  39 0004 00AF     		add	r7, sp, #0
  40              	.LCFI2:
  41              		.cfi_def_cfa_register 7
  42 0006 7860     		str	r0, [r7, #4]
  82:E:/LiteOS/LiteOS_Lab/iot_link/os/os_imp/liteos/include\los_list.h ****     pstList->pstNext = pstList;
  43              		.loc 1 82 0
  44 0008 7B68     		ldr	r3, [r7, #4]
  45 000a 7A68     		ldr	r2, [r7, #4]
  46 000c 5A60     		str	r2, [r3, #4]
  83:E:/LiteOS/LiteOS_Lab/iot_link/os/os_imp/liteos/include\los_list.h ****     pstList->pstPrev = pstList;
  47              		.loc 1 83 0
  48 000e 7B68     		ldr	r3, [r7, #4]
  49 0010 7A68     		ldr	r2, [r7, #4]
  50 0012 1A60     		str	r2, [r3]
  84:E:/LiteOS/LiteOS_Lab/iot_link/os/os_imp/liteos/include\los_list.h **** }
  51              		.loc 1 84 0
  52 0014 00BF     		nop
  53 0016 0C37     		adds	r7, r7, #12
  54              	.LCFI3:
  55              		.cfi_def_cfa_offset 4
  56 0018 BD46     		mov	sp, r7
  57              	.LCFI4:
  58              		.cfi_def_cfa_register 13
  59              		@ sp needed
  60 001a 5DF8047B 		ldr	r7, [sp], #4
  61              	.LCFI5:
  62              		.cfi_restore 7
  63              		.cfi_def_cfa_offset 0
  64 001e 7047     		bx	lr
  65              		.cfi_endproc
  66              	.LFE123:
  68              		.section	.text.LOS_ListAdd,"ax",%progbits
  69              		.align	1
  70              		.syntax unified
  71              		.thumb
  72              		.thumb_func
  73              		.fpu fpv4-sp-d16
  75              	LOS_ListAdd:
  76              	.LFB124:
  85:E:/LiteOS/LiteOS_Lab/iot_link/os/os_imp/liteos/include\los_list.h **** 
  86:E:/LiteOS/LiteOS_Lab/iot_link/os/os_imp/liteos/include\los_list.h **** /**
  87:E:/LiteOS/LiteOS_Lab/iot_link/os/os_imp/liteos/include\los_list.h ****  *@ingroup los_list
  88:E:/LiteOS/LiteOS_Lab/iot_link/os/os_imp/liteos/include\los_list.h ****  *@brief Point to the next node pointed to by the current node.
  89:E:/LiteOS/LiteOS_Lab/iot_link/os/os_imp/liteos/include\los_list.h ****  *
  90:E:/LiteOS/LiteOS_Lab/iot_link/os/os_imp/liteos/include\los_list.h ****  *@par Description:
  91:E:/LiteOS/LiteOS_Lab/iot_link/os/os_imp/liteos/include\los_list.h ****  *<ul>
  92:E:/LiteOS/LiteOS_Lab/iot_link/os/os_imp/liteos/include\los_list.h ****  *<li>This API is used to point to the next node pointed to by the current node.</li>
  93:E:/LiteOS/LiteOS_Lab/iot_link/os/os_imp/liteos/include\los_list.h ****  *</ul>
  94:E:/LiteOS/LiteOS_Lab/iot_link/os/os_imp/liteos/include\los_list.h ****  *@attention
  95:E:/LiteOS/LiteOS_Lab/iot_link/os/os_imp/liteos/include\los_list.h ****  *<ul>
  96:E:/LiteOS/LiteOS_Lab/iot_link/os/os_imp/liteos/include\los_list.h ****  *<li>None.</li>
  97:E:/LiteOS/LiteOS_Lab/iot_link/os/os_imp/liteos/include\los_list.h ****  *</ul>
  98:E:/LiteOS/LiteOS_Lab/iot_link/os/os_imp/liteos/include\los_list.h ****  *
ARM GAS  C:\Users\user\AppData\Local\Temp\ccOPvb7u.s 			page 4


  99:E:/LiteOS/LiteOS_Lab/iot_link/os/os_imp/liteos/include\los_list.h ****  *@param pstObject  [IN] Node in the doubly linked list.
 100:E:/LiteOS/LiteOS_Lab/iot_link/os/os_imp/liteos/include\los_list.h ****  *
 101:E:/LiteOS/LiteOS_Lab/iot_link/os/os_imp/liteos/include\los_list.h ****  *@retval None.
 102:E:/LiteOS/LiteOS_Lab/iot_link/os/os_imp/liteos/include\los_list.h ****  *@par Dependency:
 103:E:/LiteOS/LiteOS_Lab/iot_link/os/os_imp/liteos/include\los_list.h ****  *<ul><li>los_list.h: the header file that contains the API declaration.</li></ul>
 104:E:/LiteOS/LiteOS_Lab/iot_link/os/os_imp/liteos/include\los_list.h ****  *@see
 105:E:/LiteOS/LiteOS_Lab/iot_link/os/os_imp/liteos/include\los_list.h ****  *@since Huawei LiteOS V100R001C00
 106:E:/LiteOS/LiteOS_Lab/iot_link/os/os_imp/liteos/include\los_list.h ****  */
 107:E:/LiteOS/LiteOS_Lab/iot_link/os/os_imp/liteos/include\los_list.h **** #define LOS_DL_LIST_FIRST(pstObject) ((pstObject)->pstNext)
 108:E:/LiteOS/LiteOS_Lab/iot_link/os/os_imp/liteos/include\los_list.h **** 
 109:E:/LiteOS/LiteOS_Lab/iot_link/os/os_imp/liteos/include\los_list.h **** /**
 110:E:/LiteOS/LiteOS_Lab/iot_link/os/os_imp/liteos/include\los_list.h ****  *@ingroup los_list
 111:E:/LiteOS/LiteOS_Lab/iot_link/os/os_imp/liteos/include\los_list.h ****  *@brief Insert a new node to a doubly linked list.
 112:E:/LiteOS/LiteOS_Lab/iot_link/os/os_imp/liteos/include\los_list.h ****  *
 113:E:/LiteOS/LiteOS_Lab/iot_link/os/os_imp/liteos/include\los_list.h ****  *@par Description:
 114:E:/LiteOS/LiteOS_Lab/iot_link/os/os_imp/liteos/include\los_list.h ****  *This API is used to insert a new node to a doubly linked list.
 115:E:/LiteOS/LiteOS_Lab/iot_link/os/os_imp/liteos/include\los_list.h ****  *@attention
 116:E:/LiteOS/LiteOS_Lab/iot_link/os/os_imp/liteos/include\los_list.h ****  *<ul>
 117:E:/LiteOS/LiteOS_Lab/iot_link/os/os_imp/liteos/include\los_list.h ****  *<li>The parameters passed in should be ensured to be legal pointers.</li>
 118:E:/LiteOS/LiteOS_Lab/iot_link/os/os_imp/liteos/include\los_list.h ****  *</ul>
 119:E:/LiteOS/LiteOS_Lab/iot_link/os/os_imp/liteos/include\los_list.h ****  *
 120:E:/LiteOS/LiteOS_Lab/iot_link/os/os_imp/liteos/include\los_list.h ****  *@param pstList    [IN]   Doubly linked list where the new node is inserted.
 121:E:/LiteOS/LiteOS_Lab/iot_link/os/os_imp/liteos/include\los_list.h ****  *@param pstNode    [IN]   New node to be inserted.
 122:E:/LiteOS/LiteOS_Lab/iot_link/os/os_imp/liteos/include\los_list.h ****  *
 123:E:/LiteOS/LiteOS_Lab/iot_link/os/os_imp/liteos/include\los_list.h ****  *@retval None
 124:E:/LiteOS/LiteOS_Lab/iot_link/os/os_imp/liteos/include\los_list.h ****  *@par Dependency:
 125:E:/LiteOS/LiteOS_Lab/iot_link/os/os_imp/liteos/include\los_list.h ****  *<ul><li>los_list.h: the header file that contains the API declaration.</li></ul>
 126:E:/LiteOS/LiteOS_Lab/iot_link/os/os_imp/liteos/include\los_list.h ****  *@see LOS_ListDelete
 127:E:/LiteOS/LiteOS_Lab/iot_link/os/os_imp/liteos/include\los_list.h ****  *@since Huawei LiteOS V100R001C00
 128:E:/LiteOS/LiteOS_Lab/iot_link/os/os_imp/liteos/include\los_list.h ****  */
 129:E:/LiteOS/LiteOS_Lab/iot_link/os/os_imp/liteos/include\los_list.h **** LITE_OS_SEC_ALW_INLINE STATIC_INLINE VOID LOS_ListAdd(LOS_DL_LIST *pstList, LOS_DL_LIST *pstNode)
 130:E:/LiteOS/LiteOS_Lab/iot_link/os/os_imp/liteos/include\los_list.h **** {
  77              		.loc 1 130 0
  78              		.cfi_startproc
  79              		@ args = 0, pretend = 0, frame = 8
  80              		@ frame_needed = 1, uses_anonymous_args = 0
  81              		@ link register save eliminated.
  82 0000 80B4     		push	{r7}
  83              	.LCFI6:
  84              		.cfi_def_cfa_offset 4
  85              		.cfi_offset 7, -4
  86 0002 83B0     		sub	sp, sp, #12
  87              	.LCFI7:
  88              		.cfi_def_cfa_offset 16
  89 0004 00AF     		add	r7, sp, #0
  90              	.LCFI8:
  91              		.cfi_def_cfa_register 7
  92 0006 7860     		str	r0, [r7, #4]
  93 0008 3960     		str	r1, [r7]
 131:E:/LiteOS/LiteOS_Lab/iot_link/os/os_imp/liteos/include\los_list.h ****     pstNode->pstNext = pstList->pstNext;
  94              		.loc 1 131 0
  95 000a 7B68     		ldr	r3, [r7, #4]
  96 000c 5A68     		ldr	r2, [r3, #4]
  97 000e 3B68     		ldr	r3, [r7]
  98 0010 5A60     		str	r2, [r3, #4]
 132:E:/LiteOS/LiteOS_Lab/iot_link/os/os_imp/liteos/include\los_list.h ****     pstNode->pstPrev = pstList;
  99              		.loc 1 132 0
ARM GAS  C:\Users\user\AppData\Local\Temp\ccOPvb7u.s 			page 5


 100 0012 3B68     		ldr	r3, [r7]
 101 0014 7A68     		ldr	r2, [r7, #4]
 102 0016 1A60     		str	r2, [r3]
 133:E:/LiteOS/LiteOS_Lab/iot_link/os/os_imp/liteos/include\los_list.h ****     pstList->pstNext->pstPrev = pstNode;
 103              		.loc 1 133 0
 104 0018 7B68     		ldr	r3, [r7, #4]
 105 001a 5B68     		ldr	r3, [r3, #4]
 106 001c 3A68     		ldr	r2, [r7]
 107 001e 1A60     		str	r2, [r3]
 134:E:/LiteOS/LiteOS_Lab/iot_link/os/os_imp/liteos/include\los_list.h ****     pstList->pstNext = pstNode;
 108              		.loc 1 134 0
 109 0020 7B68     		ldr	r3, [r7, #4]
 110 0022 3A68     		ldr	r2, [r7]
 111 0024 5A60     		str	r2, [r3, #4]
 135:E:/LiteOS/LiteOS_Lab/iot_link/os/os_imp/liteos/include\los_list.h **** }
 112              		.loc 1 135 0
 113 0026 00BF     		nop
 114 0028 0C37     		adds	r7, r7, #12
 115              	.LCFI9:
 116              		.cfi_def_cfa_offset 4
 117 002a BD46     		mov	sp, r7
 118              	.LCFI10:
 119              		.cfi_def_cfa_register 13
 120              		@ sp needed
 121 002c 5DF8047B 		ldr	r7, [sp], #4
 122              	.LCFI11:
 123              		.cfi_restore 7
 124              		.cfi_def_cfa_offset 0
 125 0030 7047     		bx	lr
 126              		.cfi_endproc
 127              	.LFE124:
 129              		.section	.text.LOS_ListTailInsert,"ax",%progbits
 130              		.align	1
 131              		.syntax unified
 132              		.thumb
 133              		.thumb_func
 134              		.fpu fpv4-sp-d16
 136              	LOS_ListTailInsert:
 137              	.LFB125:
 136:E:/LiteOS/LiteOS_Lab/iot_link/os/os_imp/liteos/include\los_list.h **** 
 137:E:/LiteOS/LiteOS_Lab/iot_link/os/os_imp/liteos/include\los_list.h **** /**
 138:E:/LiteOS/LiteOS_Lab/iot_link/os/os_imp/liteos/include\los_list.h ****  *@ingroup los_list
 139:E:/LiteOS/LiteOS_Lab/iot_link/os/os_imp/liteos/include\los_list.h ****  *@brief Insert a node to the tail of a doubly linked list.
 140:E:/LiteOS/LiteOS_Lab/iot_link/os/os_imp/liteos/include\los_list.h ****  *
 141:E:/LiteOS/LiteOS_Lab/iot_link/os/os_imp/liteos/include\los_list.h ****  *@par Description:
 142:E:/LiteOS/LiteOS_Lab/iot_link/os/os_imp/liteos/include\los_list.h ****  *This API is used to insert a new node to the tail of a doubly linked list.
 143:E:/LiteOS/LiteOS_Lab/iot_link/os/os_imp/liteos/include\los_list.h ****  *@attention
 144:E:/LiteOS/LiteOS_Lab/iot_link/os/os_imp/liteos/include\los_list.h ****  *<ul>
 145:E:/LiteOS/LiteOS_Lab/iot_link/os/os_imp/liteos/include\los_list.h ****  *<li>The parameters passed in should be ensured to be legal pointers.</li>
 146:E:/LiteOS/LiteOS_Lab/iot_link/os/os_imp/liteos/include\los_list.h ****  *</ul>
 147:E:/LiteOS/LiteOS_Lab/iot_link/os/os_imp/liteos/include\los_list.h ****  *
 148:E:/LiteOS/LiteOS_Lab/iot_link/os/os_imp/liteos/include\los_list.h ****  *@param pstList     [IN] Doubly linked list where the new node is inserted.
 149:E:/LiteOS/LiteOS_Lab/iot_link/os/os_imp/liteos/include\los_list.h ****  *@param pstNode     [IN] New node to be inserted.
 150:E:/LiteOS/LiteOS_Lab/iot_link/os/os_imp/liteos/include\los_list.h ****  *
 151:E:/LiteOS/LiteOS_Lab/iot_link/os/os_imp/liteos/include\los_list.h ****  *@retval None.
 152:E:/LiteOS/LiteOS_Lab/iot_link/os/os_imp/liteos/include\los_list.h ****  *@par Dependency:
 153:E:/LiteOS/LiteOS_Lab/iot_link/os/os_imp/liteos/include\los_list.h ****  *<ul><li>los_list.h: the header file that contains the API declaration.</li></ul>
ARM GAS  C:\Users\user\AppData\Local\Temp\ccOPvb7u.s 			page 6


 154:E:/LiteOS/LiteOS_Lab/iot_link/os/os_imp/liteos/include\los_list.h ****  *@see LOS_ListAdd | LOS_ListHeadInsert
 155:E:/LiteOS/LiteOS_Lab/iot_link/os/os_imp/liteos/include\los_list.h ****  *@since Huawei LiteOS V100R001C00
 156:E:/LiteOS/LiteOS_Lab/iot_link/os/os_imp/liteos/include\los_list.h ****  */
 157:E:/LiteOS/LiteOS_Lab/iot_link/os/os_imp/liteos/include\los_list.h **** LITE_OS_SEC_ALW_INLINE STATIC_INLINE VOID LOS_ListTailInsert(LOS_DL_LIST *pstList, LOS_DL_LIST *pst
 158:E:/LiteOS/LiteOS_Lab/iot_link/os/os_imp/liteos/include\los_list.h **** {
 138              		.loc 1 158 0
 139              		.cfi_startproc
 140              		@ args = 0, pretend = 0, frame = 8
 141              		@ frame_needed = 1, uses_anonymous_args = 0
 142 0000 80B5     		push	{r7, lr}
 143              	.LCFI12:
 144              		.cfi_def_cfa_offset 8
 145              		.cfi_offset 7, -8
 146              		.cfi_offset 14, -4
 147 0002 82B0     		sub	sp, sp, #8
 148              	.LCFI13:
 149              		.cfi_def_cfa_offset 16
 150 0004 00AF     		add	r7, sp, #0
 151              	.LCFI14:
 152              		.cfi_def_cfa_register 7
 153 0006 7860     		str	r0, [r7, #4]
 154 0008 3960     		str	r1, [r7]
 159:E:/LiteOS/LiteOS_Lab/iot_link/os/os_imp/liteos/include\los_list.h ****     LOS_ListAdd(pstList->pstPrev, pstNode);
 155              		.loc 1 159 0
 156 000a 7B68     		ldr	r3, [r7, #4]
 157 000c 1B68     		ldr	r3, [r3]
 158 000e 3968     		ldr	r1, [r7]
 159 0010 1846     		mov	r0, r3
 160 0012 FFF7FEFF 		bl	LOS_ListAdd
 160:E:/LiteOS/LiteOS_Lab/iot_link/os/os_imp/liteos/include\los_list.h **** }
 161              		.loc 1 160 0
 162 0016 00BF     		nop
 163 0018 0837     		adds	r7, r7, #8
 164              	.LCFI15:
 165              		.cfi_def_cfa_offset 8
 166 001a BD46     		mov	sp, r7
 167              	.LCFI16:
 168              		.cfi_def_cfa_register 13
 169              		@ sp needed
 170 001c 80BD     		pop	{r7, pc}
 171              		.cfi_endproc
 172              	.LFE125:
 174              		.section	.text.LOS_ListDelete,"ax",%progbits
 175              		.align	1
 176              		.syntax unified
 177              		.thumb
 178              		.thumb_func
 179              		.fpu fpv4-sp-d16
 181              	LOS_ListDelete:
 182              	.LFB126:
 161:E:/LiteOS/LiteOS_Lab/iot_link/os/os_imp/liteos/include\los_list.h **** 
 162:E:/LiteOS/LiteOS_Lab/iot_link/os/os_imp/liteos/include\los_list.h **** /**
 163:E:/LiteOS/LiteOS_Lab/iot_link/os/os_imp/liteos/include\los_list.h ****  *@ingroup los_list
 164:E:/LiteOS/LiteOS_Lab/iot_link/os/os_imp/liteos/include\los_list.h ****  *@brief Delete a specified node from a doubly linked list.
 165:E:/LiteOS/LiteOS_Lab/iot_link/os/os_imp/liteos/include\los_list.h ****  *
 166:E:/LiteOS/LiteOS_Lab/iot_link/os/os_imp/liteos/include\los_list.h ****  *@par Description:
 167:E:/LiteOS/LiteOS_Lab/iot_link/os/os_imp/liteos/include\los_list.h ****  *<ul>
ARM GAS  C:\Users\user\AppData\Local\Temp\ccOPvb7u.s 			page 7


 168:E:/LiteOS/LiteOS_Lab/iot_link/os/os_imp/liteos/include\los_list.h ****  *<li>This API is used to delete a specified node from a doubly linked list.</li>
 169:E:/LiteOS/LiteOS_Lab/iot_link/os/os_imp/liteos/include\los_list.h ****  *</ul>
 170:E:/LiteOS/LiteOS_Lab/iot_link/os/os_imp/liteos/include\los_list.h ****  *@attention
 171:E:/LiteOS/LiteOS_Lab/iot_link/os/os_imp/liteos/include\los_list.h ****  *<ul>
 172:E:/LiteOS/LiteOS_Lab/iot_link/os/os_imp/liteos/include\los_list.h ****  *<li>The parameter passed in should be ensured to be a legal pointer.</li>
 173:E:/LiteOS/LiteOS_Lab/iot_link/os/os_imp/liteos/include\los_list.h ****  *</ul>
 174:E:/LiteOS/LiteOS_Lab/iot_link/os/os_imp/liteos/include\los_list.h ****  *
 175:E:/LiteOS/LiteOS_Lab/iot_link/os/os_imp/liteos/include\los_list.h ****  *@param pstNode    [IN] Node to be deleted.
 176:E:/LiteOS/LiteOS_Lab/iot_link/os/os_imp/liteos/include\los_list.h ****  *
 177:E:/LiteOS/LiteOS_Lab/iot_link/os/os_imp/liteos/include\los_list.h ****  *@retval None.
 178:E:/LiteOS/LiteOS_Lab/iot_link/os/os_imp/liteos/include\los_list.h ****  *@par Dependency:
 179:E:/LiteOS/LiteOS_Lab/iot_link/os/os_imp/liteos/include\los_list.h ****  *<ul><li>los_list.h: the header file that contains the API declaration.</li></ul>
 180:E:/LiteOS/LiteOS_Lab/iot_link/os/os_imp/liteos/include\los_list.h ****  *@see LOS_ListAdd
 181:E:/LiteOS/LiteOS_Lab/iot_link/os/os_imp/liteos/include\los_list.h ****  *@since Huawei LiteOS V100R001C00
 182:E:/LiteOS/LiteOS_Lab/iot_link/os/os_imp/liteos/include\los_list.h ****  */
 183:E:/LiteOS/LiteOS_Lab/iot_link/os/os_imp/liteos/include\los_list.h **** LITE_OS_SEC_ALW_INLINE STATIC_INLINE VOID LOS_ListDelete(LOS_DL_LIST *pstNode)
 184:E:/LiteOS/LiteOS_Lab/iot_link/os/os_imp/liteos/include\los_list.h **** {
 183              		.loc 1 184 0
 184              		.cfi_startproc
 185              		@ args = 0, pretend = 0, frame = 8
 186              		@ frame_needed = 1, uses_anonymous_args = 0
 187              		@ link register save eliminated.
 188 0000 80B4     		push	{r7}
 189              	.LCFI17:
 190              		.cfi_def_cfa_offset 4
 191              		.cfi_offset 7, -4
 192 0002 83B0     		sub	sp, sp, #12
 193              	.LCFI18:
 194              		.cfi_def_cfa_offset 16
 195 0004 00AF     		add	r7, sp, #0
 196              	.LCFI19:
 197              		.cfi_def_cfa_register 7
 198 0006 7860     		str	r0, [r7, #4]
 185:E:/LiteOS/LiteOS_Lab/iot_link/os/os_imp/liteos/include\los_list.h ****     pstNode->pstNext->pstPrev = pstNode->pstPrev;
 199              		.loc 1 185 0
 200 0008 7B68     		ldr	r3, [r7, #4]
 201 000a 5B68     		ldr	r3, [r3, #4]
 202 000c 7A68     		ldr	r2, [r7, #4]
 203 000e 1268     		ldr	r2, [r2]
 204 0010 1A60     		str	r2, [r3]
 186:E:/LiteOS/LiteOS_Lab/iot_link/os/os_imp/liteos/include\los_list.h ****     pstNode->pstPrev->pstNext = pstNode->pstNext;
 205              		.loc 1 186 0
 206 0012 7B68     		ldr	r3, [r7, #4]
 207 0014 1B68     		ldr	r3, [r3]
 208 0016 7A68     		ldr	r2, [r7, #4]
 209 0018 5268     		ldr	r2, [r2, #4]
 210 001a 5A60     		str	r2, [r3, #4]
 187:E:/LiteOS/LiteOS_Lab/iot_link/os/os_imp/liteos/include\los_list.h ****     pstNode->pstNext = (LOS_DL_LIST *)NULL;
 211              		.loc 1 187 0
 212 001c 7B68     		ldr	r3, [r7, #4]
 213 001e 0022     		movs	r2, #0
 214 0020 5A60     		str	r2, [r3, #4]
 188:E:/LiteOS/LiteOS_Lab/iot_link/os/os_imp/liteos/include\los_list.h ****     pstNode->pstPrev = (LOS_DL_LIST *)NULL;
 215              		.loc 1 188 0
 216 0022 7B68     		ldr	r3, [r7, #4]
 217 0024 0022     		movs	r2, #0
 218 0026 1A60     		str	r2, [r3]
ARM GAS  C:\Users\user\AppData\Local\Temp\ccOPvb7u.s 			page 8


 189:E:/LiteOS/LiteOS_Lab/iot_link/os/os_imp/liteos/include\los_list.h **** }
 219              		.loc 1 189 0
 220 0028 00BF     		nop
 221 002a 0C37     		adds	r7, r7, #12
 222              	.LCFI20:
 223              		.cfi_def_cfa_offset 4
 224 002c BD46     		mov	sp, r7
 225              	.LCFI21:
 226              		.cfi_def_cfa_register 13
 227              		@ sp needed
 228 002e 5DF8047B 		ldr	r7, [sp], #4
 229              	.LCFI22:
 230              		.cfi_restore 7
 231              		.cfi_def_cfa_offset 0
 232 0032 7047     		bx	lr
 233              		.cfi_endproc
 234              	.LFE126:
 236              		.section	.text.LOS_ListEmpty,"ax",%progbits
 237              		.align	1
 238              		.syntax unified
 239              		.thumb
 240              		.thumb_func
 241              		.fpu fpv4-sp-d16
 243              	LOS_ListEmpty:
 244              	.LFB127:
 190:E:/LiteOS/LiteOS_Lab/iot_link/os/os_imp/liteos/include\los_list.h **** 
 191:E:/LiteOS/LiteOS_Lab/iot_link/os/os_imp/liteos/include\los_list.h **** /**
 192:E:/LiteOS/LiteOS_Lab/iot_link/os/os_imp/liteos/include\los_list.h ****  *@ingroup los_list
 193:E:/LiteOS/LiteOS_Lab/iot_link/os/os_imp/liteos/include\los_list.h ****  *@brief Identify whether a specified doubly linked list is empty.
 194:E:/LiteOS/LiteOS_Lab/iot_link/os/os_imp/liteos/include\los_list.h ****  *
 195:E:/LiteOS/LiteOS_Lab/iot_link/os/os_imp/liteos/include\los_list.h ****  *@par Description:
 196:E:/LiteOS/LiteOS_Lab/iot_link/os/os_imp/liteos/include\los_list.h ****  *<ul>
 197:E:/LiteOS/LiteOS_Lab/iot_link/os/os_imp/liteos/include\los_list.h ****  *<li>This API is used to return whether a doubly linked list is empty.</li>
 198:E:/LiteOS/LiteOS_Lab/iot_link/os/os_imp/liteos/include\los_list.h ****  *</ul>
 199:E:/LiteOS/LiteOS_Lab/iot_link/os/os_imp/liteos/include\los_list.h ****  *@attention
 200:E:/LiteOS/LiteOS_Lab/iot_link/os/os_imp/liteos/include\los_list.h ****  *<ul>
 201:E:/LiteOS/LiteOS_Lab/iot_link/os/os_imp/liteos/include\los_list.h ****  *<li>The parameter passed in should be ensured to be a legal pointer.</li>
 202:E:/LiteOS/LiteOS_Lab/iot_link/os/os_imp/liteos/include\los_list.h ****  *</ul>
 203:E:/LiteOS/LiteOS_Lab/iot_link/os/os_imp/liteos/include\los_list.h ****  *
 204:E:/LiteOS/LiteOS_Lab/iot_link/os/os_imp/liteos/include\los_list.h ****  *@param pstList  [IN] Doubly linked list.
 205:E:/LiteOS/LiteOS_Lab/iot_link/os/os_imp/liteos/include\los_list.h ****  *
 206:E:/LiteOS/LiteOS_Lab/iot_link/os/os_imp/liteos/include\los_list.h ****  *@retval TRUE The doubly linked list is empty.
 207:E:/LiteOS/LiteOS_Lab/iot_link/os/os_imp/liteos/include\los_list.h ****  *@retval FALSE The doubly linked list is not empty.
 208:E:/LiteOS/LiteOS_Lab/iot_link/os/os_imp/liteos/include\los_list.h ****  *@par Dependency:
 209:E:/LiteOS/LiteOS_Lab/iot_link/os/os_imp/liteos/include\los_list.h ****  *<ul><li>los_list.h: the header file that contains the API declaration.</li></ul>
 210:E:/LiteOS/LiteOS_Lab/iot_link/os/os_imp/liteos/include\los_list.h ****  *@see
 211:E:/LiteOS/LiteOS_Lab/iot_link/os/os_imp/liteos/include\los_list.h ****  *@since Huawei LiteOS V100R001C00
 212:E:/LiteOS/LiteOS_Lab/iot_link/os/os_imp/liteos/include\los_list.h ****  */
 213:E:/LiteOS/LiteOS_Lab/iot_link/os/os_imp/liteos/include\los_list.h **** LITE_OS_SEC_ALW_INLINE STATIC_INLINE BOOL LOS_ListEmpty(LOS_DL_LIST *pstNode)
 214:E:/LiteOS/LiteOS_Lab/iot_link/os/os_imp/liteos/include\los_list.h **** {
 245              		.loc 1 214 0
 246              		.cfi_startproc
 247              		@ args = 0, pretend = 0, frame = 8
 248              		@ frame_needed = 1, uses_anonymous_args = 0
 249              		@ link register save eliminated.
 250 0000 80B4     		push	{r7}
 251              	.LCFI23:
ARM GAS  C:\Users\user\AppData\Local\Temp\ccOPvb7u.s 			page 9


 252              		.cfi_def_cfa_offset 4
 253              		.cfi_offset 7, -4
 254 0002 83B0     		sub	sp, sp, #12
 255              	.LCFI24:
 256              		.cfi_def_cfa_offset 16
 257 0004 00AF     		add	r7, sp, #0
 258              	.LCFI25:
 259              		.cfi_def_cfa_register 7
 260 0006 7860     		str	r0, [r7, #4]
 215:E:/LiteOS/LiteOS_Lab/iot_link/os/os_imp/liteos/include\los_list.h ****     return (BOOL)(pstNode->pstNext == pstNode);
 261              		.loc 1 215 0
 262 0008 7B68     		ldr	r3, [r7, #4]
 263 000a 5B68     		ldr	r3, [r3, #4]
 264 000c 7A68     		ldr	r2, [r7, #4]
 265 000e 9A42     		cmp	r2, r3
 266 0010 0CBF     		ite	eq
 267 0012 0123     		moveq	r3, #1
 268 0014 0023     		movne	r3, #0
 269 0016 DBB2     		uxtb	r3, r3
 216:E:/LiteOS/LiteOS_Lab/iot_link/os/os_imp/liteos/include\los_list.h **** }
 270              		.loc 1 216 0
 271 0018 1846     		mov	r0, r3
 272 001a 0C37     		adds	r7, r7, #12
 273              	.LCFI26:
 274              		.cfi_def_cfa_offset 4
 275 001c BD46     		mov	sp, r7
 276              	.LCFI27:
 277              		.cfi_def_cfa_register 13
 278              		@ sp needed
 279 001e 5DF8047B 		ldr	r7, [sp], #4
 280              	.LCFI28:
 281              		.cfi_restore 7
 282              		.cfi_def_cfa_offset 0
 283 0022 7047     		bx	lr
 284              		.cfi_endproc
 285              	.LFE127:
 287              		.comm	g_stUnusedSemList,8,4
 288              		.comm	g_pstAllSem,4,4
 289              		.section	.text.osSemInit,"ax",%progbits
 290              		.align	1
 291              		.global	osSemInit
 292              		.syntax unified
 293              		.thumb
 294              		.thumb_func
 295              		.fpu fpv4-sp-d16
 297              	osSemInit:
 298              	.LFB135:
 299              		.file 2 "E:/LiteOS/LiteOS_Lab/iot_link/os/os_imp/liteos/base/ipc/los_sem.c"
   1:E:/LiteOS/LiteOS_Lab/iot_link/os/os_imp/liteos/base/ipc\los_sem.c **** /*----------------------------------------------------------------------------
   2:E:/LiteOS/LiteOS_Lab/iot_link/os/os_imp/liteos/base/ipc\los_sem.c ****  * Copyright (c) <2013-2015>, <Huawei Technologies Co., Ltd>
   3:E:/LiteOS/LiteOS_Lab/iot_link/os/os_imp/liteos/base/ipc\los_sem.c ****  * All rights reserved.
   4:E:/LiteOS/LiteOS_Lab/iot_link/os/os_imp/liteos/base/ipc\los_sem.c ****  * Redistribution and use in source and binary forms, with or without modification,
   5:E:/LiteOS/LiteOS_Lab/iot_link/os/os_imp/liteos/base/ipc\los_sem.c ****  * are permitted provided that the following conditions are met:
   6:E:/LiteOS/LiteOS_Lab/iot_link/os/os_imp/liteos/base/ipc\los_sem.c ****  * 1. Redistributions of source code must retain the above copyright notice, this list of
   7:E:/LiteOS/LiteOS_Lab/iot_link/os/os_imp/liteos/base/ipc\los_sem.c ****  * conditions and the following disclaimer.
   8:E:/LiteOS/LiteOS_Lab/iot_link/os/os_imp/liteos/base/ipc\los_sem.c ****  * 2. Redistributions in binary form must reproduce the above copyright notice, this list
   9:E:/LiteOS/LiteOS_Lab/iot_link/os/os_imp/liteos/base/ipc\los_sem.c ****  * of conditions and the following disclaimer in the documentation and/or other materials
ARM GAS  C:\Users\user\AppData\Local\Temp\ccOPvb7u.s 			page 10


  10:E:/LiteOS/LiteOS_Lab/iot_link/os/os_imp/liteos/base/ipc\los_sem.c ****  * provided with the distribution.
  11:E:/LiteOS/LiteOS_Lab/iot_link/os/os_imp/liteos/base/ipc\los_sem.c ****  * 3. Neither the name of the copyright holder nor the names of its contributors may be used
  12:E:/LiteOS/LiteOS_Lab/iot_link/os/os_imp/liteos/base/ipc\los_sem.c ****  * to endorse or promote products derived from this software without specific prior written
  13:E:/LiteOS/LiteOS_Lab/iot_link/os/os_imp/liteos/base/ipc\los_sem.c ****  * permission.
  14:E:/LiteOS/LiteOS_Lab/iot_link/os/os_imp/liteos/base/ipc\los_sem.c ****  * THIS SOFTWARE IS PROVIDED BY THE COPYRIGHT HOLDERS AND CONTRIBUTORS
  15:E:/LiteOS/LiteOS_Lab/iot_link/os/os_imp/liteos/base/ipc\los_sem.c ****  * "AS IS" AND ANY EXPRESS OR IMPLIED WARRANTIES, INCLUDING, BUT NOT LIMITED TO,
  16:E:/LiteOS/LiteOS_Lab/iot_link/os/os_imp/liteos/base/ipc\los_sem.c ****  * THE IMPLIED WARRANTIES OF MERCHANTABILITY AND FITNESS FOR A PARTICULAR
  17:E:/LiteOS/LiteOS_Lab/iot_link/os/os_imp/liteos/base/ipc\los_sem.c ****  * PURPOSE ARE DISCLAIMED. IN NO EVENT SHALL THE COPYRIGHT HOLDER OR
  18:E:/LiteOS/LiteOS_Lab/iot_link/os/os_imp/liteos/base/ipc\los_sem.c ****  * CONTRIBUTORS BE LIABLE FOR ANY DIRECT, INDIRECT, INCIDENTAL, SPECIAL,
  19:E:/LiteOS/LiteOS_Lab/iot_link/os/os_imp/liteos/base/ipc\los_sem.c ****  * EXEMPLARY, OR CONSEQUENTIAL DAMAGES (INCLUDING, BUT NOT LIMITED TO,
  20:E:/LiteOS/LiteOS_Lab/iot_link/os/os_imp/liteos/base/ipc\los_sem.c ****  * PROCUREMENT OF SUBSTITUTE GOODS OR SERVICES; LOSS OF USE, DATA, OR PROFITS;
  21:E:/LiteOS/LiteOS_Lab/iot_link/os/os_imp/liteos/base/ipc\los_sem.c ****  * OR BUSINESS INTERRUPTION) HOWEVER CAUSED AND ON ANY THEORY OF LIABILITY,
  22:E:/LiteOS/LiteOS_Lab/iot_link/os/os_imp/liteos/base/ipc\los_sem.c ****  * WHETHER IN CONTRACT, STRICT LIABILITY, OR TORT (INCLUDING NEGLIGENCE OR
  23:E:/LiteOS/LiteOS_Lab/iot_link/os/os_imp/liteos/base/ipc\los_sem.c ****  * OTHERWISE) ARISING IN ANY WAY OUT OF THE USE OF THIS SOFTWARE, EVEN IF
  24:E:/LiteOS/LiteOS_Lab/iot_link/os/os_imp/liteos/base/ipc\los_sem.c ****  * ADVISED OF THE POSSIBILITY OF SUCH DAMAGE.
  25:E:/LiteOS/LiteOS_Lab/iot_link/os/os_imp/liteos/base/ipc\los_sem.c ****  *---------------------------------------------------------------------------*/
  26:E:/LiteOS/LiteOS_Lab/iot_link/os/os_imp/liteos/base/ipc\los_sem.c **** /*----------------------------------------------------------------------------
  27:E:/LiteOS/LiteOS_Lab/iot_link/os/os_imp/liteos/base/ipc\los_sem.c ****  * Notice of Export Control Law
  28:E:/LiteOS/LiteOS_Lab/iot_link/os/os_imp/liteos/base/ipc\los_sem.c ****  * ===============================================
  29:E:/LiteOS/LiteOS_Lab/iot_link/os/os_imp/liteos/base/ipc\los_sem.c ****  * Huawei LiteOS may be subject to applicable export control laws and regulations, which might
  30:E:/LiteOS/LiteOS_Lab/iot_link/os/os_imp/liteos/base/ipc\los_sem.c ****  * include those applicable to Huawei LiteOS of U.S. and the country in which you are located.
  31:E:/LiteOS/LiteOS_Lab/iot_link/os/os_imp/liteos/base/ipc\los_sem.c ****  * Import, export and usage of Huawei LiteOS in any manner by you shall be in compliance with such
  32:E:/LiteOS/LiteOS_Lab/iot_link/os/os_imp/liteos/base/ipc\los_sem.c ****  * applicable export control laws and regulations.
  33:E:/LiteOS/LiteOS_Lab/iot_link/os/os_imp/liteos/base/ipc\los_sem.c ****  *---------------------------------------------------------------------------*/
  34:E:/LiteOS/LiteOS_Lab/iot_link/os/os_imp/liteos/base/ipc\los_sem.c **** 
  35:E:/LiteOS/LiteOS_Lab/iot_link/os/os_imp/liteos/base/ipc\los_sem.c **** #include "los_sem.inc"
  36:E:/LiteOS/LiteOS_Lab/iot_link/os/os_imp/liteos/base/ipc\los_sem.c **** #include "los_base.ph"
  37:E:/LiteOS/LiteOS_Lab/iot_link/os/os_imp/liteos/base/ipc\los_sem.c **** #include "los_err.ph"
  38:E:/LiteOS/LiteOS_Lab/iot_link/os/os_imp/liteos/base/ipc\los_sem.c **** #include "los_memory.ph"
  39:E:/LiteOS/LiteOS_Lab/iot_link/os/os_imp/liteos/base/ipc\los_sem.c **** #include "los_priqueue.ph"
  40:E:/LiteOS/LiteOS_Lab/iot_link/os/os_imp/liteos/base/ipc\los_sem.c **** #include "los_sys.ph"
  41:E:/LiteOS/LiteOS_Lab/iot_link/os/os_imp/liteos/base/ipc\los_sem.c **** #include "los_task.ph"
  42:E:/LiteOS/LiteOS_Lab/iot_link/os/os_imp/liteos/base/ipc\los_sem.c **** #if (LOSCFG_PLATFORM_EXC == YES)
  43:E:/LiteOS/LiteOS_Lab/iot_link/os/os_imp/liteos/base/ipc\los_sem.c **** #include "los_exc.h"
  44:E:/LiteOS/LiteOS_Lab/iot_link/os/os_imp/liteos/base/ipc\los_sem.c **** #endif
  45:E:/LiteOS/LiteOS_Lab/iot_link/os/os_imp/liteos/base/ipc\los_sem.c **** 
  46:E:/LiteOS/LiteOS_Lab/iot_link/os/os_imp/liteos/base/ipc\los_sem.c **** #ifdef __cplusplus
  47:E:/LiteOS/LiteOS_Lab/iot_link/os/os_imp/liteos/base/ipc\los_sem.c **** #if __cplusplus
  48:E:/LiteOS/LiteOS_Lab/iot_link/os/os_imp/liteos/base/ipc\los_sem.c **** extern "C"{
  49:E:/LiteOS/LiteOS_Lab/iot_link/os/os_imp/liteos/base/ipc\los_sem.c **** #endif
  50:E:/LiteOS/LiteOS_Lab/iot_link/os/os_imp/liteos/base/ipc\los_sem.c **** #endif /* __cplusplus */
  51:E:/LiteOS/LiteOS_Lab/iot_link/os/os_imp/liteos/base/ipc\los_sem.c **** 
  52:E:/LiteOS/LiteOS_Lab/iot_link/os/os_imp/liteos/base/ipc\los_sem.c **** 
  53:E:/LiteOS/LiteOS_Lab/iot_link/os/os_imp/liteos/base/ipc\los_sem.c **** #if (LOSCFG_BASE_IPC_SEM == YES)
  54:E:/LiteOS/LiteOS_Lab/iot_link/os/os_imp/liteos/base/ipc\los_sem.c **** 
  55:E:/LiteOS/LiteOS_Lab/iot_link/os/os_imp/liteos/base/ipc\los_sem.c **** LITE_OS_SEC_BSS LOS_DL_LIST  g_stUnusedSemList;
  56:E:/LiteOS/LiteOS_Lab/iot_link/os/os_imp/liteos/base/ipc\los_sem.c **** LITE_OS_SEC_BSS SEM_CB_S    *g_pstAllSem;
  57:E:/LiteOS/LiteOS_Lab/iot_link/os/os_imp/liteos/base/ipc\los_sem.c **** 
  58:E:/LiteOS/LiteOS_Lab/iot_link/os/os_imp/liteos/base/ipc\los_sem.c **** /*****************************************************************************
  59:E:/LiteOS/LiteOS_Lab/iot_link/os/os_imp/liteos/base/ipc\los_sem.c ****  Function     : osSemInit
  60:E:/LiteOS/LiteOS_Lab/iot_link/os/os_imp/liteos/base/ipc\los_sem.c ****  Description  : Initialize the  Semaphore doubly linked list,
  61:E:/LiteOS/LiteOS_Lab/iot_link/os/os_imp/liteos/base/ipc\los_sem.c ****  Input        : None,
  62:E:/LiteOS/LiteOS_Lab/iot_link/os/os_imp/liteos/base/ipc\los_sem.c ****  Output       : None,
  63:E:/LiteOS/LiteOS_Lab/iot_link/os/os_imp/liteos/base/ipc\los_sem.c ****  Return       : LOS_OK on success ,or error code on failure
  64:E:/LiteOS/LiteOS_Lab/iot_link/os/os_imp/liteos/base/ipc\los_sem.c ****  *****************************************************************************/
  65:E:/LiteOS/LiteOS_Lab/iot_link/os/os_imp/liteos/base/ipc\los_sem.c **** LITE_OS_SEC_TEXT_INIT UINT32 osSemInit(VOID)
  66:E:/LiteOS/LiteOS_Lab/iot_link/os/os_imp/liteos/base/ipc\los_sem.c **** {
ARM GAS  C:\Users\user\AppData\Local\Temp\ccOPvb7u.s 			page 11


 300              		.loc 2 66 0
 301              		.cfi_startproc
 302              		@ args = 0, pretend = 0, frame = 8
 303              		@ frame_needed = 1, uses_anonymous_args = 0
 304 0000 80B5     		push	{r7, lr}
 305              	.LCFI29:
 306              		.cfi_def_cfa_offset 8
 307              		.cfi_offset 7, -8
 308              		.cfi_offset 14, -4
 309 0002 82B0     		sub	sp, sp, #8
 310              	.LCFI30:
 311              		.cfi_def_cfa_offset 16
 312 0004 00AF     		add	r7, sp, #0
 313              	.LCFI31:
 314              		.cfi_def_cfa_register 7
  67:E:/LiteOS/LiteOS_Lab/iot_link/os/os_imp/liteos/base/ipc\los_sem.c ****     SEM_CB_S    *pstSemNode;
  68:E:/LiteOS/LiteOS_Lab/iot_link/os/os_imp/liteos/base/ipc\los_sem.c ****     UINT16      uwIndex;
  69:E:/LiteOS/LiteOS_Lab/iot_link/os/os_imp/liteos/base/ipc\los_sem.c **** 
  70:E:/LiteOS/LiteOS_Lab/iot_link/os/os_imp/liteos/base/ipc\los_sem.c ****     LOS_ListInit(&g_stUnusedSemList);
 315              		.loc 2 70 0
 316 0006 1948     		ldr	r0, .L12
 317 0008 FFF7FEFF 		bl	LOS_ListInit
  71:E:/LiteOS/LiteOS_Lab/iot_link/os/os_imp/liteos/base/ipc\los_sem.c **** 
  72:E:/LiteOS/LiteOS_Lab/iot_link/os/os_imp/liteos/base/ipc\los_sem.c ****     if (LOSCFG_BASE_IPC_SEM_LIMIT == 0)   /*lint !e506*/
  73:E:/LiteOS/LiteOS_Lab/iot_link/os/os_imp/liteos/base/ipc\los_sem.c ****     {
  74:E:/LiteOS/LiteOS_Lab/iot_link/os/os_imp/liteos/base/ipc\los_sem.c ****         return LOS_ERRNO_SEM_MAXNUM_ZERO;
  75:E:/LiteOS/LiteOS_Lab/iot_link/os/os_imp/liteos/base/ipc\los_sem.c ****     }
  76:E:/LiteOS/LiteOS_Lab/iot_link/os/os_imp/liteos/base/ipc\los_sem.c **** 
  77:E:/LiteOS/LiteOS_Lab/iot_link/os/os_imp/liteos/base/ipc\los_sem.c ****     g_pstAllSem = (SEM_CB_S *)LOS_MemAlloc(m_aucSysMem0, (LOSCFG_BASE_IPC_SEM_LIMIT * sizeof(SEM_CB
 318              		.loc 2 77 0
 319 000c 184B     		ldr	r3, .L12+4
 320 000e 1B68     		ldr	r3, [r3]
 321 0010 4FF4A071 		mov	r1, #320
 322 0014 1846     		mov	r0, r3
 323 0016 FFF7FEFF 		bl	LOS_MemAlloc
 324 001a 0246     		mov	r2, r0
 325 001c 154B     		ldr	r3, .L12+8
 326 001e 1A60     		str	r2, [r3]
  78:E:/LiteOS/LiteOS_Lab/iot_link/os/os_imp/liteos/base/ipc\los_sem.c ****     if (NULL == g_pstAllSem)
 327              		.loc 2 78 0
 328 0020 144B     		ldr	r3, .L12+8
 329 0022 1B68     		ldr	r3, [r3]
 330 0024 002B     		cmp	r3, #0
 331 0026 01D1     		bne	.L8
  79:E:/LiteOS/LiteOS_Lab/iot_link/os/os_imp/liteos/base/ipc\los_sem.c ****     {
  80:E:/LiteOS/LiteOS_Lab/iot_link/os/os_imp/liteos/base/ipc\los_sem.c ****         return LOS_ERRNO_SEM_NO_MEMORY;
 332              		.loc 2 80 0
 333 0028 134B     		ldr	r3, .L12+12
 334 002a 1BE0     		b	.L9
 335              	.L8:
  81:E:/LiteOS/LiteOS_Lab/iot_link/os/os_imp/liteos/base/ipc\los_sem.c ****     }
  82:E:/LiteOS/LiteOS_Lab/iot_link/os/os_imp/liteos/base/ipc\los_sem.c **** 
  83:E:/LiteOS/LiteOS_Lab/iot_link/os/os_imp/liteos/base/ipc\los_sem.c ****     /* Connect all the ECBs in a doubly linked list. */
  84:E:/LiteOS/LiteOS_Lab/iot_link/os/os_imp/liteos/base/ipc\los_sem.c ****     for (uwIndex = 0; uwIndex < LOSCFG_BASE_IPC_SEM_LIMIT; uwIndex++)
 336              		.loc 2 84 0
 337 002c 0023     		movs	r3, #0
 338 002e FB80     		strh	r3, [r7, #6]	@ movhi
ARM GAS  C:\Users\user\AppData\Local\Temp\ccOPvb7u.s 			page 12


 339 0030 14E0     		b	.L10
 340              	.L11:
  85:E:/LiteOS/LiteOS_Lab/iot_link/os/os_imp/liteos/base/ipc\los_sem.c ****     {
  86:E:/LiteOS/LiteOS_Lab/iot_link/os/os_imp/liteos/base/ipc\los_sem.c ****         pstSemNode = ((SEM_CB_S *)g_pstAllSem) + uwIndex;
 341              		.loc 2 86 0 discriminator 3
 342 0032 104B     		ldr	r3, .L12+8
 343 0034 1A68     		ldr	r2, [r3]
 344 0036 FB88     		ldrh	r3, [r7, #6]
 345 0038 1B01     		lsls	r3, r3, #4
 346 003a 1344     		add	r3, r3, r2
 347 003c 3B60     		str	r3, [r7]
  87:E:/LiteOS/LiteOS_Lab/iot_link/os/os_imp/liteos/base/ipc\los_sem.c ****         pstSemNode->usSemID = uwIndex;
 348              		.loc 2 87 0 discriminator 3
 349 003e 3B68     		ldr	r3, [r7]
 350 0040 FA88     		ldrh	r2, [r7, #6]	@ movhi
 351 0042 DA80     		strh	r2, [r3, #6]	@ movhi
  88:E:/LiteOS/LiteOS_Lab/iot_link/os/os_imp/liteos/base/ipc\los_sem.c ****         pstSemNode->usSemStat = OS_SEM_UNUSED;
 352              		.loc 2 88 0 discriminator 3
 353 0044 3B68     		ldr	r3, [r7]
 354 0046 0022     		movs	r2, #0
 355 0048 1A80     		strh	r2, [r3]	@ movhi
  89:E:/LiteOS/LiteOS_Lab/iot_link/os/os_imp/liteos/base/ipc\los_sem.c ****         LOS_ListTailInsert(&g_stUnusedSemList, &pstSemNode->stSemList);
 356              		.loc 2 89 0 discriminator 3
 357 004a 3B68     		ldr	r3, [r7]
 358 004c 0833     		adds	r3, r3, #8
 359 004e 1946     		mov	r1, r3
 360 0050 0648     		ldr	r0, .L12
 361 0052 FFF7FEFF 		bl	LOS_ListTailInsert
  84:E:/LiteOS/LiteOS_Lab/iot_link/os/os_imp/liteos/base/ipc\los_sem.c ****     {
 362              		.loc 2 84 0 discriminator 3
 363 0056 FB88     		ldrh	r3, [r7, #6]
 364 0058 0133     		adds	r3, r3, #1
 365 005a FB80     		strh	r3, [r7, #6]	@ movhi
 366              	.L10:
  84:E:/LiteOS/LiteOS_Lab/iot_link/os/os_imp/liteos/base/ipc\los_sem.c ****     {
 367              		.loc 2 84 0 is_stmt 0 discriminator 1
 368 005c FB88     		ldrh	r3, [r7, #6]
 369 005e 132B     		cmp	r3, #19
 370 0060 E7D9     		bls	.L11
  90:E:/LiteOS/LiteOS_Lab/iot_link/os/os_imp/liteos/base/ipc\los_sem.c ****     }
  91:E:/LiteOS/LiteOS_Lab/iot_link/os/os_imp/liteos/base/ipc\los_sem.c ****     return LOS_OK;
 371              		.loc 2 91 0 is_stmt 1
 372 0062 0023     		movs	r3, #0
 373              	.L9:
  92:E:/LiteOS/LiteOS_Lab/iot_link/os/os_imp/liteos/base/ipc\los_sem.c **** }
 374              		.loc 2 92 0
 375 0064 1846     		mov	r0, r3
 376 0066 0837     		adds	r7, r7, #8
 377              	.LCFI32:
 378              		.cfi_def_cfa_offset 8
 379 0068 BD46     		mov	sp, r7
 380              	.LCFI33:
 381              		.cfi_def_cfa_register 13
 382              		@ sp needed
 383 006a 80BD     		pop	{r7, pc}
 384              	.L13:
 385              		.align	2
ARM GAS  C:\Users\user\AppData\Local\Temp\ccOPvb7u.s 			page 13


 386              	.L12:
 387 006c 00000000 		.word	g_stUnusedSemList
 388 0070 00000000 		.word	m_aucSysMem0
 389 0074 00000000 		.word	g_pstAllSem
 390 0078 00070002 		.word	33556224
 391              		.cfi_endproc
 392              	.LFE135:
 394              		.section	.rodata
 395              		.align	2
 396              	.LC0:
 397 0000 6F735F75 		.ascii	"os_unspecific_file\000"
 397      6E737065 
 397      63696669 
 397      635F6669 
 397      6C6500
 398              		.section	.text.osSemCreate,"ax",%progbits
 399              		.align	1
 400              		.global	osSemCreate
 401              		.syntax unified
 402              		.thumb
 403              		.thumb_func
 404              		.fpu fpv4-sp-d16
 406              	osSemCreate:
 407              	.LFB136:
  93:E:/LiteOS/LiteOS_Lab/iot_link/os/os_imp/liteos/base/ipc\los_sem.c **** 
  94:E:/LiteOS/LiteOS_Lab/iot_link/os/os_imp/liteos/base/ipc\los_sem.c **** 
  95:E:/LiteOS/LiteOS_Lab/iot_link/os/os_imp/liteos/base/ipc\los_sem.c **** /*****************************************************************************
  96:E:/LiteOS/LiteOS_Lab/iot_link/os/os_imp/liteos/base/ipc\los_sem.c ****  Function     : osSemCreate
  97:E:/LiteOS/LiteOS_Lab/iot_link/os/os_imp/liteos/base/ipc\los_sem.c ****  Description  : create the  Semaphore
  98:E:/LiteOS/LiteOS_Lab/iot_link/os/os_imp/liteos/base/ipc\los_sem.c ****  Input        : None,
  99:E:/LiteOS/LiteOS_Lab/iot_link/os/os_imp/liteos/base/ipc\los_sem.c ****  Output       : None,
 100:E:/LiteOS/LiteOS_Lab/iot_link/os/os_imp/liteos/base/ipc\los_sem.c ****  Return       : LOS_OK on success ,or error code on failure
 101:E:/LiteOS/LiteOS_Lab/iot_link/os/os_imp/liteos/base/ipc\los_sem.c ****  *****************************************************************************/
 102:E:/LiteOS/LiteOS_Lab/iot_link/os/os_imp/liteos/base/ipc\los_sem.c **** LITE_OS_SEC_TEXT_INIT UINT32 osSemCreate (UINT16 usCount, UINT16 usMaxCount, UINT32 *puwSemHandle)
 103:E:/LiteOS/LiteOS_Lab/iot_link/os/os_imp/liteos/base/ipc\los_sem.c **** {
 408              		.loc 2 103 0
 409              		.cfi_startproc
 410              		@ args = 0, pretend = 0, frame = 32
 411              		@ frame_needed = 1, uses_anonymous_args = 0
 412 0000 80B5     		push	{r7, lr}
 413              	.LCFI34:
 414              		.cfi_def_cfa_offset 8
 415              		.cfi_offset 7, -8
 416              		.cfi_offset 14, -4
 417 0002 8AB0     		sub	sp, sp, #40
 418              	.LCFI35:
 419              		.cfi_def_cfa_offset 48
 420 0004 02AF     		add	r7, sp, #8
 421              	.LCFI36:
 422              		.cfi_def_cfa 7, 40
 423 0006 0346     		mov	r3, r0
 424 0008 3A60     		str	r2, [r7]
 425 000a FB80     		strh	r3, [r7, #6]	@ movhi
 426 000c 0B46     		mov	r3, r1	@ movhi
 427 000e BB80     		strh	r3, [r7, #4]	@ movhi
 104:E:/LiteOS/LiteOS_Lab/iot_link/os/os_imp/liteos/base/ipc\los_sem.c ****     UINT32      uwIntSave;
 105:E:/LiteOS/LiteOS_Lab/iot_link/os/os_imp/liteos/base/ipc\los_sem.c ****     SEM_CB_S    *pstSemCreated;
ARM GAS  C:\Users\user\AppData\Local\Temp\ccOPvb7u.s 			page 14


 106:E:/LiteOS/LiteOS_Lab/iot_link/os/os_imp/liteos/base/ipc\los_sem.c ****     LOS_DL_LIST *pstUnusedSem;
 107:E:/LiteOS/LiteOS_Lab/iot_link/os/os_imp/liteos/base/ipc\los_sem.c ****     UINT32      uwErrNo;
 108:E:/LiteOS/LiteOS_Lab/iot_link/os/os_imp/liteos/base/ipc\los_sem.c ****     UINT32      uwErrLine;
 109:E:/LiteOS/LiteOS_Lab/iot_link/os/os_imp/liteos/base/ipc\los_sem.c **** 
 110:E:/LiteOS/LiteOS_Lab/iot_link/os/os_imp/liteos/base/ipc\los_sem.c ****     if (NULL == puwSemHandle)
 428              		.loc 2 110 0
 429 0010 3B68     		ldr	r3, [r7]
 430 0012 002B     		cmp	r3, #0
 431 0014 01D1     		bne	.L15
 111:E:/LiteOS/LiteOS_Lab/iot_link/os/os_imp/liteos/base/ipc\los_sem.c ****     {
 112:E:/LiteOS/LiteOS_Lab/iot_link/os/os_imp/liteos/base/ipc\los_sem.c ****         return LOS_ERRNO_SEM_PTR_NULL;
 432              		.loc 2 112 0
 433 0016 254B     		ldr	r3, .L20
 434 0018 43E0     		b	.L16
 435              	.L15:
 113:E:/LiteOS/LiteOS_Lab/iot_link/os/os_imp/liteos/base/ipc\los_sem.c ****     }
 114:E:/LiteOS/LiteOS_Lab/iot_link/os/os_imp/liteos/base/ipc\los_sem.c **** 
 115:E:/LiteOS/LiteOS_Lab/iot_link/os/os_imp/liteos/base/ipc\los_sem.c ****     if (usCount > usMaxCount)
 436              		.loc 2 115 0
 437 001a FA88     		ldrh	r2, [r7, #6]
 438 001c BB88     		ldrh	r3, [r7, #4]
 439 001e 9A42     		cmp	r2, r3
 440 0020 04D9     		bls	.L17
 116:E:/LiteOS/LiteOS_Lab/iot_link/os/os_imp/liteos/base/ipc\los_sem.c ****     {
 117:E:/LiteOS/LiteOS_Lab/iot_link/os/os_imp/liteos/base/ipc\los_sem.c ****         OS_GOTO_ERR_HANDLER(LOS_ERRNO_SEM_OVERFLOW);
 441              		.loc 2 117 0
 442 0022 234B     		ldr	r3, .L20+4
 443 0024 FB61     		str	r3, [r7, #28]
 444 0026 234B     		ldr	r3, .L20+8
 445 0028 BB61     		str	r3, [r7, #24]
 446 002a 31E0     		b	.L18
 447              	.L17:
 118:E:/LiteOS/LiteOS_Lab/iot_link/os/os_imp/liteos/base/ipc\los_sem.c ****     }
 119:E:/LiteOS/LiteOS_Lab/iot_link/os/os_imp/liteos/base/ipc\los_sem.c **** 
 120:E:/LiteOS/LiteOS_Lab/iot_link/os/os_imp/liteos/base/ipc\los_sem.c ****     uwIntSave = LOS_IntLock();
 448              		.loc 2 120 0
 449 002c FFF7FEFF 		bl	LOS_IntLock
 450 0030 7861     		str	r0, [r7, #20]
 121:E:/LiteOS/LiteOS_Lab/iot_link/os/os_imp/liteos/base/ipc\los_sem.c **** 
 122:E:/LiteOS/LiteOS_Lab/iot_link/os/os_imp/liteos/base/ipc\los_sem.c ****     if (LOS_ListEmpty(&g_stUnusedSemList))
 451              		.loc 2 122 0
 452 0032 2148     		ldr	r0, .L20+12
 453 0034 FFF7FEFF 		bl	LOS_ListEmpty
 454 0038 0346     		mov	r3, r0
 455 003a 002B     		cmp	r3, #0
 456 003c 07D0     		beq	.L19
 123:E:/LiteOS/LiteOS_Lab/iot_link/os/os_imp/liteos/base/ipc\los_sem.c ****     {
 124:E:/LiteOS/LiteOS_Lab/iot_link/os/os_imp/liteos/base/ipc\los_sem.c ****         LOS_IntRestore(uwIntSave);
 457              		.loc 2 124 0
 458 003e 7869     		ldr	r0, [r7, #20]
 459 0040 FFF7FEFF 		bl	LOS_IntRestore
 125:E:/LiteOS/LiteOS_Lab/iot_link/os/os_imp/liteos/base/ipc\los_sem.c ****         OS_GOTO_ERR_HANDLER(LOS_ERRNO_SEM_ALL_BUSY);
 460              		.loc 2 125 0
 461 0044 1D4B     		ldr	r3, .L20+16
 462 0046 FB61     		str	r3, [r7, #28]
 463 0048 1A4B     		ldr	r3, .L20+8
 464 004a BB61     		str	r3, [r7, #24]
ARM GAS  C:\Users\user\AppData\Local\Temp\ccOPvb7u.s 			page 15


 465 004c 20E0     		b	.L18
 466              	.L19:
 126:E:/LiteOS/LiteOS_Lab/iot_link/os/os_imp/liteos/base/ipc\los_sem.c ****     }
 127:E:/LiteOS/LiteOS_Lab/iot_link/os/os_imp/liteos/base/ipc\los_sem.c **** 
 128:E:/LiteOS/LiteOS_Lab/iot_link/os/os_imp/liteos/base/ipc\los_sem.c ****     pstUnusedSem = LOS_DL_LIST_FIRST(&(g_stUnusedSemList));
 467              		.loc 2 128 0
 468 004e 1A4B     		ldr	r3, .L20+12
 469 0050 5B68     		ldr	r3, [r3, #4]
 470 0052 3B61     		str	r3, [r7, #16]
 129:E:/LiteOS/LiteOS_Lab/iot_link/os/os_imp/liteos/base/ipc\los_sem.c ****     LOS_ListDelete(pstUnusedSem);
 471              		.loc 2 129 0
 472 0054 3869     		ldr	r0, [r7, #16]
 473 0056 FFF7FEFF 		bl	LOS_ListDelete
 130:E:/LiteOS/LiteOS_Lab/iot_link/os/os_imp/liteos/base/ipc\los_sem.c ****     pstSemCreated = (GET_SEM_LIST(pstUnusedSem)); /*lint !e413*/
 474              		.loc 2 130 0
 475 005a 3B69     		ldr	r3, [r7, #16]
 476 005c 083B     		subs	r3, r3, #8
 477 005e FB60     		str	r3, [r7, #12]
 131:E:/LiteOS/LiteOS_Lab/iot_link/os/os_imp/liteos/base/ipc\los_sem.c ****     pstSemCreated->usSemCount = usCount;
 478              		.loc 2 131 0
 479 0060 FB68     		ldr	r3, [r7, #12]
 480 0062 FA88     		ldrh	r2, [r7, #6]	@ movhi
 481 0064 5A80     		strh	r2, [r3, #2]	@ movhi
 132:E:/LiteOS/LiteOS_Lab/iot_link/os/os_imp/liteos/base/ipc\los_sem.c ****     pstSemCreated->usSemStat = OS_SEM_USED;
 482              		.loc 2 132 0
 483 0066 FB68     		ldr	r3, [r7, #12]
 484 0068 0122     		movs	r2, #1
 485 006a 1A80     		strh	r2, [r3]	@ movhi
 133:E:/LiteOS/LiteOS_Lab/iot_link/os/os_imp/liteos/base/ipc\los_sem.c ****     pstSemCreated->usMaxSemCount = usMaxCount;
 486              		.loc 2 133 0
 487 006c FB68     		ldr	r3, [r7, #12]
 488 006e BA88     		ldrh	r2, [r7, #4]	@ movhi
 489 0070 9A80     		strh	r2, [r3, #4]	@ movhi
 134:E:/LiteOS/LiteOS_Lab/iot_link/os/os_imp/liteos/base/ipc\los_sem.c ****     LOS_ListInit(&pstSemCreated->stSemList);
 490              		.loc 2 134 0
 491 0072 FB68     		ldr	r3, [r7, #12]
 492 0074 0833     		adds	r3, r3, #8
 493 0076 1846     		mov	r0, r3
 494 0078 FFF7FEFF 		bl	LOS_ListInit
 135:E:/LiteOS/LiteOS_Lab/iot_link/os/os_imp/liteos/base/ipc\los_sem.c ****     *puwSemHandle = (UINT32)pstSemCreated->usSemID;
 495              		.loc 2 135 0
 496 007c FB68     		ldr	r3, [r7, #12]
 497 007e DB88     		ldrh	r3, [r3, #6]
 498 0080 1A46     		mov	r2, r3
 499 0082 3B68     		ldr	r3, [r7]
 500 0084 1A60     		str	r2, [r3]
 136:E:/LiteOS/LiteOS_Lab/iot_link/os/os_imp/liteos/base/ipc\los_sem.c ****     LOS_IntRestore(uwIntSave);
 501              		.loc 2 136 0
 502 0086 7869     		ldr	r0, [r7, #20]
 503 0088 FFF7FEFF 		bl	LOS_IntRestore
 137:E:/LiteOS/LiteOS_Lab/iot_link/os/os_imp/liteos/base/ipc\los_sem.c ****     return LOS_OK;
 504              		.loc 2 137 0
 505 008c 0023     		movs	r3, #0
 506 008e 08E0     		b	.L16
 507              	.L18:
 138:E:/LiteOS/LiteOS_Lab/iot_link/os/os_imp/liteos/base/ipc\los_sem.c **** 
 139:E:/LiteOS/LiteOS_Lab/iot_link/os/os_imp/liteos/base/ipc\los_sem.c **** ErrHandler:
ARM GAS  C:\Users\user\AppData\Local\Temp\ccOPvb7u.s 			page 16


 140:E:/LiteOS/LiteOS_Lab/iot_link/os/os_imp/liteos/base/ipc\los_sem.c ****     OS_RETURN_ERROR_P2(uwErrLine, uwErrNo);
 508              		.loc 2 140 0
 509 0090 0023     		movs	r3, #0
 510 0092 0093     		str	r3, [sp]
 511 0094 0023     		movs	r3, #0
 512 0096 FA69     		ldr	r2, [r7, #28]
 513 0098 B969     		ldr	r1, [r7, #24]
 514 009a 0948     		ldr	r0, .L20+20
 515 009c FFF7FEFF 		bl	LOS_ErrHandle
 516 00a0 FB69     		ldr	r3, [r7, #28]
 517              	.L16:
 141:E:/LiteOS/LiteOS_Lab/iot_link/os/os_imp/liteos/base/ipc\los_sem.c **** }
 518              		.loc 2 141 0
 519 00a2 1846     		mov	r0, r3
 520 00a4 2037     		adds	r7, r7, #32
 521              	.LCFI37:
 522              		.cfi_def_cfa_offset 8
 523 00a6 BD46     		mov	sp, r7
 524              	.LCFI38:
 525              		.cfi_def_cfa_register 13
 526              		@ sp needed
 527 00a8 80BD     		pop	{r7, pc}
 528              	.L21:
 529 00aa 00BF     		.align	2
 530              	.L20:
 531 00ac 02070002 		.word	33556226
 532 00b0 08070002 		.word	33556232
 533 00b4 F8C3B2A1 		.word	-1582119944
 534 00b8 00000000 		.word	g_stUnusedSemList
 535 00bc 03070002 		.word	33556227
 536 00c0 00000000 		.word	.LC0
 537              		.cfi_endproc
 538              	.LFE136:
 540              		.section	.text.LOS_SemCreate,"ax",%progbits
 541              		.align	1
 542              		.global	LOS_SemCreate
 543              		.syntax unified
 544              		.thumb
 545              		.thumb_func
 546              		.fpu fpv4-sp-d16
 548              	LOS_SemCreate:
 549              	.LFB137:
 142:E:/LiteOS/LiteOS_Lab/iot_link/os/os_imp/liteos/base/ipc\los_sem.c **** 
 143:E:/LiteOS/LiteOS_Lab/iot_link/os/os_imp/liteos/base/ipc\los_sem.c **** /*****************************************************************************
 144:E:/LiteOS/LiteOS_Lab/iot_link/os/os_imp/liteos/base/ipc\los_sem.c ****  Function     : LOS_SemCreate
 145:E:/LiteOS/LiteOS_Lab/iot_link/os/os_imp/liteos/base/ipc\los_sem.c ****  Description  : Create a semaphore,
 146:E:/LiteOS/LiteOS_Lab/iot_link/os/os_imp/liteos/base/ipc\los_sem.c ****  Input        : uwCount--------- semaphore count,
 147:E:/LiteOS/LiteOS_Lab/iot_link/os/os_imp/liteos/base/ipc\los_sem.c ****  Output       : puwSemHandle-----Index of semaphore,
 148:E:/LiteOS/LiteOS_Lab/iot_link/os/os_imp/liteos/base/ipc\los_sem.c ****  Return       : LOS_OK on success ,or error code on failure
 149:E:/LiteOS/LiteOS_Lab/iot_link/os/os_imp/liteos/base/ipc\los_sem.c ****  *****************************************************************************/
 150:E:/LiteOS/LiteOS_Lab/iot_link/os/os_imp/liteos/base/ipc\los_sem.c **** LITE_OS_SEC_TEXT_INIT UINT32 LOS_SemCreate (UINT16 usCount, UINT32 *puwSemHandle)
 151:E:/LiteOS/LiteOS_Lab/iot_link/os/os_imp/liteos/base/ipc\los_sem.c **** {
 550              		.loc 2 151 0
 551              		.cfi_startproc
 552              		@ args = 0, pretend = 0, frame = 8
 553              		@ frame_needed = 1, uses_anonymous_args = 0
 554 0000 80B5     		push	{r7, lr}
ARM GAS  C:\Users\user\AppData\Local\Temp\ccOPvb7u.s 			page 17


 555              	.LCFI39:
 556              		.cfi_def_cfa_offset 8
 557              		.cfi_offset 7, -8
 558              		.cfi_offset 14, -4
 559 0002 82B0     		sub	sp, sp, #8
 560              	.LCFI40:
 561              		.cfi_def_cfa_offset 16
 562 0004 00AF     		add	r7, sp, #0
 563              	.LCFI41:
 564              		.cfi_def_cfa_register 7
 565 0006 0346     		mov	r3, r0
 566 0008 3960     		str	r1, [r7]
 567 000a FB80     		strh	r3, [r7, #6]	@ movhi
 152:E:/LiteOS/LiteOS_Lab/iot_link/os/os_imp/liteos/base/ipc\los_sem.c ****     return osSemCreate(usCount, OS_SEM_COUNTING_MAX_COUNT, puwSemHandle);
 568              		.loc 2 152 0
 569 000c FB88     		ldrh	r3, [r7, #6]
 570 000e 3A68     		ldr	r2, [r7]
 571 0010 4FF6FF71 		movw	r1, #65535
 572 0014 1846     		mov	r0, r3
 573 0016 FFF7FEFF 		bl	osSemCreate
 574 001a 0346     		mov	r3, r0
 153:E:/LiteOS/LiteOS_Lab/iot_link/os/os_imp/liteos/base/ipc\los_sem.c **** }
 575              		.loc 2 153 0
 576 001c 1846     		mov	r0, r3
 577 001e 0837     		adds	r7, r7, #8
 578              	.LCFI42:
 579              		.cfi_def_cfa_offset 8
 580 0020 BD46     		mov	sp, r7
 581              	.LCFI43:
 582              		.cfi_def_cfa_register 13
 583              		@ sp needed
 584 0022 80BD     		pop	{r7, pc}
 585              		.cfi_endproc
 586              	.LFE137:
 588              		.section	.text.LOS_BinarySemCreate,"ax",%progbits
 589              		.align	1
 590              		.global	LOS_BinarySemCreate
 591              		.syntax unified
 592              		.thumb
 593              		.thumb_func
 594              		.fpu fpv4-sp-d16
 596              	LOS_BinarySemCreate:
 597              	.LFB138:
 154:E:/LiteOS/LiteOS_Lab/iot_link/os/os_imp/liteos/base/ipc\los_sem.c **** 
 155:E:/LiteOS/LiteOS_Lab/iot_link/os/os_imp/liteos/base/ipc\los_sem.c **** /*****************************************************************************
 156:E:/LiteOS/LiteOS_Lab/iot_link/os/os_imp/liteos/base/ipc\los_sem.c ****  Function     : LOS_BinarySemCreate
 157:E:/LiteOS/LiteOS_Lab/iot_link/os/os_imp/liteos/base/ipc\los_sem.c ****  Description  : Create a binary semaphore,
 158:E:/LiteOS/LiteOS_Lab/iot_link/os/os_imp/liteos/base/ipc\los_sem.c ****  Input        : uwCount--------- semaphore count,
 159:E:/LiteOS/LiteOS_Lab/iot_link/os/os_imp/liteos/base/ipc\los_sem.c ****  Output       : puwSemHandle-----Index of semaphore,
 160:E:/LiteOS/LiteOS_Lab/iot_link/os/os_imp/liteos/base/ipc\los_sem.c ****  Return       : LOS_OK on success ,or error code on failure
 161:E:/LiteOS/LiteOS_Lab/iot_link/os/os_imp/liteos/base/ipc\los_sem.c ****  *****************************************************************************/
 162:E:/LiteOS/LiteOS_Lab/iot_link/os/os_imp/liteos/base/ipc\los_sem.c **** LITE_OS_SEC_TEXT_INIT UINT32 LOS_BinarySemCreate (UINT16 usCount, UINT32 *puwSemHandle)
 163:E:/LiteOS/LiteOS_Lab/iot_link/os/os_imp/liteos/base/ipc\los_sem.c **** {
 598              		.loc 2 163 0
 599              		.cfi_startproc
 600              		@ args = 0, pretend = 0, frame = 8
 601              		@ frame_needed = 1, uses_anonymous_args = 0
ARM GAS  C:\Users\user\AppData\Local\Temp\ccOPvb7u.s 			page 18


 602 0000 80B5     		push	{r7, lr}
 603              	.LCFI44:
 604              		.cfi_def_cfa_offset 8
 605              		.cfi_offset 7, -8
 606              		.cfi_offset 14, -4
 607 0002 82B0     		sub	sp, sp, #8
 608              	.LCFI45:
 609              		.cfi_def_cfa_offset 16
 610 0004 00AF     		add	r7, sp, #0
 611              	.LCFI46:
 612              		.cfi_def_cfa_register 7
 613 0006 0346     		mov	r3, r0
 614 0008 3960     		str	r1, [r7]
 615 000a FB80     		strh	r3, [r7, #6]	@ movhi
 164:E:/LiteOS/LiteOS_Lab/iot_link/os/os_imp/liteos/base/ipc\los_sem.c ****     return osSemCreate(usCount, OS_SEM_BINARY_MAX_COUNT, puwSemHandle);
 616              		.loc 2 164 0
 617 000c FB88     		ldrh	r3, [r7, #6]
 618 000e 3A68     		ldr	r2, [r7]
 619 0010 0121     		movs	r1, #1
 620 0012 1846     		mov	r0, r3
 621 0014 FFF7FEFF 		bl	osSemCreate
 622 0018 0346     		mov	r3, r0
 165:E:/LiteOS/LiteOS_Lab/iot_link/os/os_imp/liteos/base/ipc\los_sem.c **** }
 623              		.loc 2 165 0
 624 001a 1846     		mov	r0, r3
 625 001c 0837     		adds	r7, r7, #8
 626              	.LCFI47:
 627              		.cfi_def_cfa_offset 8
 628 001e BD46     		mov	sp, r7
 629              	.LCFI48:
 630              		.cfi_def_cfa_register 13
 631              		@ sp needed
 632 0020 80BD     		pop	{r7, pc}
 633              		.cfi_endproc
 634              	.LFE138:
 636              		.section	.text.LOS_SemDelete,"ax",%progbits
 637              		.align	1
 638              		.global	LOS_SemDelete
 639              		.syntax unified
 640              		.thumb
 641              		.thumb_func
 642              		.fpu fpv4-sp-d16
 644              	LOS_SemDelete:
 645              	.LFB139:
 166:E:/LiteOS/LiteOS_Lab/iot_link/os/os_imp/liteos/base/ipc\los_sem.c **** 
 167:E:/LiteOS/LiteOS_Lab/iot_link/os/os_imp/liteos/base/ipc\los_sem.c **** /*****************************************************************************
 168:E:/LiteOS/LiteOS_Lab/iot_link/os/os_imp/liteos/base/ipc\los_sem.c ****  Function     : LOS_SemDelete
 169:E:/LiteOS/LiteOS_Lab/iot_link/os/os_imp/liteos/base/ipc\los_sem.c ****  Description : Delete a semaphore,
 170:E:/LiteOS/LiteOS_Lab/iot_link/os/os_imp/liteos/base/ipc\los_sem.c ****  Input          : uwSemHandle--------- semaphore operation handle,
 171:E:/LiteOS/LiteOS_Lab/iot_link/os/os_imp/liteos/base/ipc\los_sem.c ****  Output       : None
 172:E:/LiteOS/LiteOS_Lab/iot_link/os/os_imp/liteos/base/ipc\los_sem.c ****  Return       : LOS_OK on success or error code on failure
 173:E:/LiteOS/LiteOS_Lab/iot_link/os/os_imp/liteos/base/ipc\los_sem.c ****  *****************************************************************************/
 174:E:/LiteOS/LiteOS_Lab/iot_link/os/os_imp/liteos/base/ipc\los_sem.c **** LITE_OS_SEC_TEXT_INIT UINT32 LOS_SemDelete(UINT32 uwSemHandle)
 175:E:/LiteOS/LiteOS_Lab/iot_link/os/os_imp/liteos/base/ipc\los_sem.c **** {
 646              		.loc 2 175 0
 647              		.cfi_startproc
 648              		@ args = 0, pretend = 0, frame = 24
ARM GAS  C:\Users\user\AppData\Local\Temp\ccOPvb7u.s 			page 19


 649              		@ frame_needed = 1, uses_anonymous_args = 0
 650 0000 80B5     		push	{r7, lr}
 651              	.LCFI49:
 652              		.cfi_def_cfa_offset 8
 653              		.cfi_offset 7, -8
 654              		.cfi_offset 14, -4
 655 0002 88B0     		sub	sp, sp, #32
 656              	.LCFI50:
 657              		.cfi_def_cfa_offset 40
 658 0004 02AF     		add	r7, sp, #8
 659              	.LCFI51:
 660              		.cfi_def_cfa 7, 32
 661 0006 7860     		str	r0, [r7, #4]
 176:E:/LiteOS/LiteOS_Lab/iot_link/os/os_imp/liteos/base/ipc\los_sem.c ****     UINT32      uwIntSave;
 177:E:/LiteOS/LiteOS_Lab/iot_link/os/os_imp/liteos/base/ipc\los_sem.c ****     SEM_CB_S    *pstSemDeleted;
 178:E:/LiteOS/LiteOS_Lab/iot_link/os/os_imp/liteos/base/ipc\los_sem.c ****     UINT32      uwErrNo;
 179:E:/LiteOS/LiteOS_Lab/iot_link/os/os_imp/liteos/base/ipc\los_sem.c ****     UINT32      uwErrLine;
 180:E:/LiteOS/LiteOS_Lab/iot_link/os/os_imp/liteos/base/ipc\los_sem.c **** 
 181:E:/LiteOS/LiteOS_Lab/iot_link/os/os_imp/liteos/base/ipc\los_sem.c ****     if (uwSemHandle >= (UINT32)LOSCFG_BASE_IPC_SEM_LIMIT)
 662              		.loc 2 181 0
 663 0008 7B68     		ldr	r3, [r7, #4]
 664 000a 132B     		cmp	r3, #19
 665 000c 04D9     		bls	.L27
 182:E:/LiteOS/LiteOS_Lab/iot_link/os/os_imp/liteos/base/ipc\los_sem.c ****     {
 183:E:/LiteOS/LiteOS_Lab/iot_link/os/os_imp/liteos/base/ipc\los_sem.c ****         OS_GOTO_ERR_HANDLER(LOS_ERRNO_SEM_INVALID);
 666              		.loc 2 183 0
 667 000e 224B     		ldr	r3, .L32
 668 0010 7B61     		str	r3, [r7, #20]
 669 0012 224B     		ldr	r3, .L32+4
 670 0014 3B61     		str	r3, [r7, #16]
 671 0016 32E0     		b	.L28
 672              	.L27:
 184:E:/LiteOS/LiteOS_Lab/iot_link/os/os_imp/liteos/base/ipc\los_sem.c ****     }
 185:E:/LiteOS/LiteOS_Lab/iot_link/os/os_imp/liteos/base/ipc\los_sem.c **** 
 186:E:/LiteOS/LiteOS_Lab/iot_link/os/os_imp/liteos/base/ipc\los_sem.c ****     pstSemDeleted = GET_SEM(uwSemHandle);
 673              		.loc 2 186 0
 674 0018 214B     		ldr	r3, .L32+8
 675 001a 1A68     		ldr	r2, [r3]
 676 001c 7B68     		ldr	r3, [r7, #4]
 677 001e 1B01     		lsls	r3, r3, #4
 678 0020 1344     		add	r3, r3, r2
 679 0022 FB60     		str	r3, [r7, #12]
 187:E:/LiteOS/LiteOS_Lab/iot_link/os/os_imp/liteos/base/ipc\los_sem.c ****     uwIntSave = LOS_IntLock();
 680              		.loc 2 187 0
 681 0024 FFF7FEFF 		bl	LOS_IntLock
 682 0028 B860     		str	r0, [r7, #8]
 188:E:/LiteOS/LiteOS_Lab/iot_link/os/os_imp/liteos/base/ipc\los_sem.c ****     if (OS_SEM_UNUSED == pstSemDeleted->usSemStat)
 683              		.loc 2 188 0
 684 002a FB68     		ldr	r3, [r7, #12]
 685 002c 1B88     		ldrh	r3, [r3]
 686 002e 002B     		cmp	r3, #0
 687 0030 07D1     		bne	.L29
 189:E:/LiteOS/LiteOS_Lab/iot_link/os/os_imp/liteos/base/ipc\los_sem.c ****     {
 190:E:/LiteOS/LiteOS_Lab/iot_link/os/os_imp/liteos/base/ipc\los_sem.c ****         LOS_IntRestore(uwIntSave);
 688              		.loc 2 190 0
 689 0032 B868     		ldr	r0, [r7, #8]
 690 0034 FFF7FEFF 		bl	LOS_IntRestore
ARM GAS  C:\Users\user\AppData\Local\Temp\ccOPvb7u.s 			page 20


 191:E:/LiteOS/LiteOS_Lab/iot_link/os/os_imp/liteos/base/ipc\los_sem.c ****         OS_GOTO_ERR_HANDLER(LOS_ERRNO_SEM_INVALID);
 691              		.loc 2 191 0
 692 0038 174B     		ldr	r3, .L32
 693 003a 7B61     		str	r3, [r7, #20]
 694 003c 174B     		ldr	r3, .L32+4
 695 003e 3B61     		str	r3, [r7, #16]
 696 0040 1DE0     		b	.L28
 697              	.L29:
 192:E:/LiteOS/LiteOS_Lab/iot_link/os/os_imp/liteos/base/ipc\los_sem.c ****     }
 193:E:/LiteOS/LiteOS_Lab/iot_link/os/os_imp/liteos/base/ipc\los_sem.c **** 
 194:E:/LiteOS/LiteOS_Lab/iot_link/os/os_imp/liteos/base/ipc\los_sem.c ****     if (!LOS_ListEmpty(&pstSemDeleted->stSemList))
 698              		.loc 2 194 0
 699 0042 FB68     		ldr	r3, [r7, #12]
 700 0044 0833     		adds	r3, r3, #8
 701 0046 1846     		mov	r0, r3
 702 0048 FFF7FEFF 		bl	LOS_ListEmpty
 703 004c 0346     		mov	r3, r0
 704 004e 002B     		cmp	r3, #0
 705 0050 07D1     		bne	.L30
 195:E:/LiteOS/LiteOS_Lab/iot_link/os/os_imp/liteos/base/ipc\los_sem.c ****     {
 196:E:/LiteOS/LiteOS_Lab/iot_link/os/os_imp/liteos/base/ipc\los_sem.c ****         LOS_IntRestore(uwIntSave);
 706              		.loc 2 196 0
 707 0052 B868     		ldr	r0, [r7, #8]
 708 0054 FFF7FEFF 		bl	LOS_IntRestore
 197:E:/LiteOS/LiteOS_Lab/iot_link/os/os_imp/liteos/base/ipc\los_sem.c ****         OS_GOTO_ERR_HANDLER(LOS_ERRNO_SEM_PENDED);
 709              		.loc 2 197 0
 710 0058 124B     		ldr	r3, .L32+12
 711 005a 7B61     		str	r3, [r7, #20]
 712 005c 0F4B     		ldr	r3, .L32+4
 713 005e 3B61     		str	r3, [r7, #16]
 714 0060 0DE0     		b	.L28
 715              	.L30:
 198:E:/LiteOS/LiteOS_Lab/iot_link/os/os_imp/liteos/base/ipc\los_sem.c ****     }
 199:E:/LiteOS/LiteOS_Lab/iot_link/os/os_imp/liteos/base/ipc\los_sem.c **** 
 200:E:/LiteOS/LiteOS_Lab/iot_link/os/os_imp/liteos/base/ipc\los_sem.c ****     LOS_ListAdd(&g_stUnusedSemList, &pstSemDeleted->stSemList);
 716              		.loc 2 200 0
 717 0062 FB68     		ldr	r3, [r7, #12]
 718 0064 0833     		adds	r3, r3, #8
 719 0066 1946     		mov	r1, r3
 720 0068 0F48     		ldr	r0, .L32+16
 721 006a FFF7FEFF 		bl	LOS_ListAdd
 201:E:/LiteOS/LiteOS_Lab/iot_link/os/os_imp/liteos/base/ipc\los_sem.c ****     pstSemDeleted->usSemStat = OS_SEM_UNUSED;
 722              		.loc 2 201 0
 723 006e FB68     		ldr	r3, [r7, #12]
 724 0070 0022     		movs	r2, #0
 725 0072 1A80     		strh	r2, [r3]	@ movhi
 202:E:/LiteOS/LiteOS_Lab/iot_link/os/os_imp/liteos/base/ipc\los_sem.c ****     LOS_IntRestore(uwIntSave);
 726              		.loc 2 202 0
 727 0074 B868     		ldr	r0, [r7, #8]
 728 0076 FFF7FEFF 		bl	LOS_IntRestore
 203:E:/LiteOS/LiteOS_Lab/iot_link/os/os_imp/liteos/base/ipc\los_sem.c ****     return LOS_OK;
 729              		.loc 2 203 0
 730 007a 0023     		movs	r3, #0
 731 007c 08E0     		b	.L31
 732              	.L28:
 204:E:/LiteOS/LiteOS_Lab/iot_link/os/os_imp/liteos/base/ipc\los_sem.c **** ErrHandler:
 205:E:/LiteOS/LiteOS_Lab/iot_link/os/os_imp/liteos/base/ipc\los_sem.c ****     OS_RETURN_ERROR_P2(uwErrLine, uwErrNo);
ARM GAS  C:\Users\user\AppData\Local\Temp\ccOPvb7u.s 			page 21


 733              		.loc 2 205 0
 734 007e 0023     		movs	r3, #0
 735 0080 0093     		str	r3, [sp]
 736 0082 0023     		movs	r3, #0
 737 0084 7A69     		ldr	r2, [r7, #20]
 738 0086 3969     		ldr	r1, [r7, #16]
 739 0088 0848     		ldr	r0, .L32+20
 740 008a FFF7FEFF 		bl	LOS_ErrHandle
 741 008e 7B69     		ldr	r3, [r7, #20]
 742              	.L31:
 206:E:/LiteOS/LiteOS_Lab/iot_link/os/os_imp/liteos/base/ipc\los_sem.c **** }
 743              		.loc 2 206 0
 744 0090 1846     		mov	r0, r3
 745 0092 1837     		adds	r7, r7, #24
 746              	.LCFI52:
 747              		.cfi_def_cfa_offset 8
 748 0094 BD46     		mov	sp, r7
 749              	.LCFI53:
 750              		.cfi_def_cfa_register 13
 751              		@ sp needed
 752 0096 80BD     		pop	{r7, pc}
 753              	.L33:
 754              		.align	2
 755              	.L32:
 756 0098 01070002 		.word	33556225
 757 009c F8C3B2A1 		.word	-1582119944
 758 00a0 00000000 		.word	g_pstAllSem
 759 00a4 09070002 		.word	33556233
 760 00a8 00000000 		.word	g_stUnusedSemList
 761 00ac 00000000 		.word	.LC0
 762              		.cfi_endproc
 763              	.LFE139:
 765              		.section	.rodata
 766 0013 00       		.align	2
 767              	.LC1:
 768 0014 5B455252 		.ascii	"[ERR] \000"
 768      5D2000
 769 001b 00       		.align	2
 770              	.LC2:
 771 001c 2121214C 		.ascii	"!!!LOS_ERRNO_SEM_PEND_INTERR!!!\000"
 771      4F535F45 
 771      52524E4F 
 771      5F53454D 
 771      5F50454E 
 772              		.align	2
 773              	.LC3:
 774 003c 2121214C 		.ascii	"!!!LOS_ERRNO_SEM_PEND_IN_LOCK!!!\000"
 774      4F535F45 
 774      52524E4F 
 774      5F53454D 
 774      5F50454E 
 775              		.section	.text.LOS_SemPend,"ax",%progbits
 776              		.align	1
 777              		.global	LOS_SemPend
 778              		.syntax unified
 779              		.thumb
 780              		.thumb_func
ARM GAS  C:\Users\user\AppData\Local\Temp\ccOPvb7u.s 			page 22


 781              		.fpu fpv4-sp-d16
 783              	LOS_SemPend:
 784              	.LFB140:
 207:E:/LiteOS/LiteOS_Lab/iot_link/os/os_imp/liteos/base/ipc\los_sem.c **** 
 208:E:/LiteOS/LiteOS_Lab/iot_link/os/os_imp/liteos/base/ipc\los_sem.c **** /*****************************************************************************
 209:E:/LiteOS/LiteOS_Lab/iot_link/os/os_imp/liteos/base/ipc\los_sem.c ****  Function     : LOS_SemPend
 210:E:/LiteOS/LiteOS_Lab/iot_link/os/os_imp/liteos/base/ipc\los_sem.c ****  Description : Specified semaphore P operation,
 211:E:/LiteOS/LiteOS_Lab/iot_link/os/os_imp/liteos/base/ipc\los_sem.c ****  Input          : uwSemHandle--------- semaphore operation handle,
 212:E:/LiteOS/LiteOS_Lab/iot_link/os/os_imp/liteos/base/ipc\los_sem.c ****               uwTimeout   ---------- waitting time
 213:E:/LiteOS/LiteOS_Lab/iot_link/os/os_imp/liteos/base/ipc\los_sem.c ****  Output       : None
 214:E:/LiteOS/LiteOS_Lab/iot_link/os/os_imp/liteos/base/ipc\los_sem.c ****  Return       : LOS_OK on success or error code on failure
 215:E:/LiteOS/LiteOS_Lab/iot_link/os/os_imp/liteos/base/ipc\los_sem.c ****  *****************************************************************************/
 216:E:/LiteOS/LiteOS_Lab/iot_link/os/os_imp/liteos/base/ipc\los_sem.c **** LITE_OS_SEC_TEXT UINT32 LOS_SemPend(UINT32 uwSemHandle, UINT32 uwTimeout)
 217:E:/LiteOS/LiteOS_Lab/iot_link/os/os_imp/liteos/base/ipc\los_sem.c **** {
 785              		.loc 2 217 0
 786              		.cfi_startproc
 787              		@ args = 0, pretend = 0, frame = 24
 788              		@ frame_needed = 1, uses_anonymous_args = 0
 789 0000 80B5     		push	{r7, lr}
 790              	.LCFI54:
 791              		.cfi_def_cfa_offset 8
 792              		.cfi_offset 7, -8
 793              		.cfi_offset 14, -4
 794 0002 88B0     		sub	sp, sp, #32
 795              	.LCFI55:
 796              		.cfi_def_cfa_offset 40
 797 0004 02AF     		add	r7, sp, #8
 798              	.LCFI56:
 799              		.cfi_def_cfa 7, 32
 800 0006 7860     		str	r0, [r7, #4]
 801 0008 3960     		str	r1, [r7]
 218:E:/LiteOS/LiteOS_Lab/iot_link/os/os_imp/liteos/base/ipc\los_sem.c ****     UINT32      uwIntSave;
 219:E:/LiteOS/LiteOS_Lab/iot_link/os/os_imp/liteos/base/ipc\los_sem.c ****     SEM_CB_S    *pstSemPended;
 220:E:/LiteOS/LiteOS_Lab/iot_link/os/os_imp/liteos/base/ipc\los_sem.c ****     UINT32      uwRetErr;
 221:E:/LiteOS/LiteOS_Lab/iot_link/os/os_imp/liteos/base/ipc\los_sem.c ****     LOS_TASK_CB *pstRunTsk;
 222:E:/LiteOS/LiteOS_Lab/iot_link/os/os_imp/liteos/base/ipc\los_sem.c **** 
 223:E:/LiteOS/LiteOS_Lab/iot_link/os/os_imp/liteos/base/ipc\los_sem.c ****     if (uwSemHandle >= (UINT32)LOSCFG_BASE_IPC_SEM_LIMIT)
 802              		.loc 2 223 0
 803 000a 7B68     		ldr	r3, [r7, #4]
 804 000c 132B     		cmp	r3, #19
 805 000e 09D9     		bls	.L35
 224:E:/LiteOS/LiteOS_Lab/iot_link/os/os_imp/liteos/base/ipc\los_sem.c ****     {
 225:E:/LiteOS/LiteOS_Lab/iot_link/os/os_imp/liteos/base/ipc\los_sem.c ****         OS_RETURN_ERROR(LOS_ERRNO_SEM_INVALID);
 806              		.loc 2 225 0
 807 0010 0023     		movs	r3, #0
 808 0012 0093     		str	r3, [sp]
 809 0014 0023     		movs	r3, #0
 810 0016 444A     		ldr	r2, .L44
 811 0018 4449     		ldr	r1, .L44+4
 812 001a 4548     		ldr	r0, .L44+8
 813 001c FFF7FEFF 		bl	LOS_ErrHandle
 814 0020 414B     		ldr	r3, .L44
 815 0022 7CE0     		b	.L36
 816              	.L35:
 226:E:/LiteOS/LiteOS_Lab/iot_link/os/os_imp/liteos/base/ipc\los_sem.c ****     }
 227:E:/LiteOS/LiteOS_Lab/iot_link/os/os_imp/liteos/base/ipc\los_sem.c **** 
 228:E:/LiteOS/LiteOS_Lab/iot_link/os/os_imp/liteos/base/ipc\los_sem.c ****     pstSemPended = GET_SEM(uwSemHandle);
ARM GAS  C:\Users\user\AppData\Local\Temp\ccOPvb7u.s 			page 23


 817              		.loc 2 228 0
 818 0024 434B     		ldr	r3, .L44+12
 819 0026 1A68     		ldr	r2, [r3]
 820 0028 7B68     		ldr	r3, [r7, #4]
 821 002a 1B01     		lsls	r3, r3, #4
 822 002c 1344     		add	r3, r3, r2
 823 002e FB60     		str	r3, [r7, #12]
 229:E:/LiteOS/LiteOS_Lab/iot_link/os/os_imp/liteos/base/ipc\los_sem.c ****     uwIntSave = LOS_IntLock();
 824              		.loc 2 229 0
 825 0030 FFF7FEFF 		bl	LOS_IntLock
 826 0034 7861     		str	r0, [r7, #20]
 230:E:/LiteOS/LiteOS_Lab/iot_link/os/os_imp/liteos/base/ipc\los_sem.c ****     if (OS_SEM_UNUSED == pstSemPended->usSemStat)
 827              		.loc 2 230 0
 828 0036 FB68     		ldr	r3, [r7, #12]
 829 0038 1B88     		ldrh	r3, [r3]
 830 003a 002B     		cmp	r3, #0
 831 003c 0CD1     		bne	.L37
 231:E:/LiteOS/LiteOS_Lab/iot_link/os/os_imp/liteos/base/ipc\los_sem.c ****     {
 232:E:/LiteOS/LiteOS_Lab/iot_link/os/os_imp/liteos/base/ipc\los_sem.c ****         LOS_IntRestore(uwIntSave);
 832              		.loc 2 232 0
 833 003e 7869     		ldr	r0, [r7, #20]
 834 0040 FFF7FEFF 		bl	LOS_IntRestore
 233:E:/LiteOS/LiteOS_Lab/iot_link/os/os_imp/liteos/base/ipc\los_sem.c ****         OS_RETURN_ERROR(LOS_ERRNO_SEM_INVALID);
 835              		.loc 2 233 0
 836 0044 0023     		movs	r3, #0
 837 0046 0093     		str	r3, [sp]
 838 0048 0023     		movs	r3, #0
 839 004a 374A     		ldr	r2, .L44
 840 004c 3749     		ldr	r1, .L44+4
 841 004e 3848     		ldr	r0, .L44+8
 842 0050 FFF7FEFF 		bl	LOS_ErrHandle
 843 0054 344B     		ldr	r3, .L44
 844 0056 62E0     		b	.L36
 845              	.L37:
 234:E:/LiteOS/LiteOS_Lab/iot_link/os/os_imp/liteos/base/ipc\los_sem.c ****     }
 235:E:/LiteOS/LiteOS_Lab/iot_link/os/os_imp/liteos/base/ipc\los_sem.c **** 
 236:E:/LiteOS/LiteOS_Lab/iot_link/os/os_imp/liteos/base/ipc\los_sem.c ****     if (pstSemPended->usSemCount > 0)
 846              		.loc 2 236 0
 847 0058 FB68     		ldr	r3, [r7, #12]
 848 005a 5B88     		ldrh	r3, [r3, #2]
 849 005c 002B     		cmp	r3, #0
 850 005e 0AD0     		beq	.L38
 237:E:/LiteOS/LiteOS_Lab/iot_link/os/os_imp/liteos/base/ipc\los_sem.c ****     {
 238:E:/LiteOS/LiteOS_Lab/iot_link/os/os_imp/liteos/base/ipc\los_sem.c ****         pstSemPended->usSemCount--;
 851              		.loc 2 238 0
 852 0060 FB68     		ldr	r3, [r7, #12]
 853 0062 5B88     		ldrh	r3, [r3, #2]
 854 0064 013B     		subs	r3, r3, #1
 855 0066 9AB2     		uxth	r2, r3
 856 0068 FB68     		ldr	r3, [r7, #12]
 857 006a 5A80     		strh	r2, [r3, #2]	@ movhi
 239:E:/LiteOS/LiteOS_Lab/iot_link/os/os_imp/liteos/base/ipc\los_sem.c ****         LOS_IntRestore(uwIntSave);
 858              		.loc 2 239 0
 859 006c 7869     		ldr	r0, [r7, #20]
 860 006e FFF7FEFF 		bl	LOS_IntRestore
 240:E:/LiteOS/LiteOS_Lab/iot_link/os/os_imp/liteos/base/ipc\los_sem.c ****         return LOS_OK;
 861              		.loc 2 240 0
ARM GAS  C:\Users\user\AppData\Local\Temp\ccOPvb7u.s 			page 24


 862 0072 0023     		movs	r3, #0
 863 0074 53E0     		b	.L36
 864              	.L38:
 241:E:/LiteOS/LiteOS_Lab/iot_link/os/os_imp/liteos/base/ipc\los_sem.c ****     }
 242:E:/LiteOS/LiteOS_Lab/iot_link/os/os_imp/liteos/base/ipc\los_sem.c **** 
 243:E:/LiteOS/LiteOS_Lab/iot_link/os/os_imp/liteos/base/ipc\los_sem.c ****     if (!uwTimeout)
 865              		.loc 2 243 0
 866 0076 3B68     		ldr	r3, [r7]
 867 0078 002B     		cmp	r3, #0
 868 007a 02D1     		bne	.L39
 244:E:/LiteOS/LiteOS_Lab/iot_link/os/os_imp/liteos/base/ipc\los_sem.c ****     {
 245:E:/LiteOS/LiteOS_Lab/iot_link/os/os_imp/liteos/base/ipc\los_sem.c ****         uwRetErr = LOS_ERRNO_SEM_UNAVAILABLE;
 869              		.loc 2 245 0
 870 007c 2E4B     		ldr	r3, .L44+16
 871 007e 3B61     		str	r3, [r7, #16]
 246:E:/LiteOS/LiteOS_Lab/iot_link/os/os_imp/liteos/base/ipc\los_sem.c ****         goto errre_uniSemPend;
 872              		.loc 2 246 0
 873 0080 41E0     		b	.L40
 874              	.L39:
 247:E:/LiteOS/LiteOS_Lab/iot_link/os/os_imp/liteos/base/ipc\los_sem.c ****     }
 248:E:/LiteOS/LiteOS_Lab/iot_link/os/os_imp/liteos/base/ipc\los_sem.c **** 
 249:E:/LiteOS/LiteOS_Lab/iot_link/os/os_imp/liteos/base/ipc\los_sem.c ****     if (OS_INT_ACTIVE)
 875              		.loc 2 249 0
 876 0082 FFF7FEFF 		bl	osIntNumGet
 877 0086 0346     		mov	r3, r0
 878 0088 002B     		cmp	r3, #0
 879 008a 08D0     		beq	.L41
 250:E:/LiteOS/LiteOS_Lab/iot_link/os/os_imp/liteos/base/ipc\los_sem.c ****     {
 251:E:/LiteOS/LiteOS_Lab/iot_link/os/os_imp/liteos/base/ipc\los_sem.c ****         uwRetErr = LOS_ERRNO_SEM_PEND_INTERR;
 880              		.loc 2 251 0
 881 008c 2B4B     		ldr	r3, .L44+20
 882 008e 3B61     		str	r3, [r7, #16]
 252:E:/LiteOS/LiteOS_Lab/iot_link/os/os_imp/liteos/base/ipc\los_sem.c ****         PRINT_ERR("!!!LOS_ERRNO_SEM_PEND_INTERR!!!\n");
 883              		.loc 2 252 0
 884 0090 2B48     		ldr	r0, .L44+24
 885 0092 FFF7FEFF 		bl	printf
 886 0096 2B48     		ldr	r0, .L44+28
 887 0098 FFF7FEFF 		bl	puts
 253:E:/LiteOS/LiteOS_Lab/iot_link/os/os_imp/liteos/base/ipc\los_sem.c **** #if (LOSCFG_PLATFORM_EXC == YES)
 254:E:/LiteOS/LiteOS_Lab/iot_link/os/os_imp/liteos/base/ipc\los_sem.c ****         osBackTrace();
 255:E:/LiteOS/LiteOS_Lab/iot_link/os/os_imp/liteos/base/ipc\los_sem.c **** #endif
 256:E:/LiteOS/LiteOS_Lab/iot_link/os/os_imp/liteos/base/ipc\los_sem.c ****         goto errre_uniSemPend;
 888              		.loc 2 256 0
 889 009c 33E0     		b	.L40
 890              	.L41:
 257:E:/LiteOS/LiteOS_Lab/iot_link/os/os_imp/liteos/base/ipc\los_sem.c ****     }
 258:E:/LiteOS/LiteOS_Lab/iot_link/os/os_imp/liteos/base/ipc\los_sem.c **** 
 259:E:/LiteOS/LiteOS_Lab/iot_link/os/os_imp/liteos/base/ipc\los_sem.c ****     if (g_usLosTaskLock)
 891              		.loc 2 259 0
 892 009e 2A4B     		ldr	r3, .L44+32
 893 00a0 1B88     		ldrh	r3, [r3]
 894 00a2 002B     		cmp	r3, #0
 895 00a4 08D0     		beq	.L42
 260:E:/LiteOS/LiteOS_Lab/iot_link/os/os_imp/liteos/base/ipc\los_sem.c ****     {
 261:E:/LiteOS/LiteOS_Lab/iot_link/os/os_imp/liteos/base/ipc\los_sem.c ****         uwRetErr = LOS_ERRNO_SEM_PEND_IN_LOCK;
 896              		.loc 2 261 0
 897 00a6 294B     		ldr	r3, .L44+36
ARM GAS  C:\Users\user\AppData\Local\Temp\ccOPvb7u.s 			page 25


 898 00a8 3B61     		str	r3, [r7, #16]
 262:E:/LiteOS/LiteOS_Lab/iot_link/os/os_imp/liteos/base/ipc\los_sem.c ****         PRINT_ERR("!!!LOS_ERRNO_SEM_PEND_IN_LOCK!!!\n");
 899              		.loc 2 262 0
 900 00aa 2548     		ldr	r0, .L44+24
 901 00ac FFF7FEFF 		bl	printf
 902 00b0 2748     		ldr	r0, .L44+40
 903 00b2 FFF7FEFF 		bl	puts
 263:E:/LiteOS/LiteOS_Lab/iot_link/os/os_imp/liteos/base/ipc\los_sem.c **** #if (LOSCFG_PLATFORM_EXC == YES)
 264:E:/LiteOS/LiteOS_Lab/iot_link/os/os_imp/liteos/base/ipc\los_sem.c ****         osBackTrace();
 265:E:/LiteOS/LiteOS_Lab/iot_link/os/os_imp/liteos/base/ipc\los_sem.c **** #endif
 266:E:/LiteOS/LiteOS_Lab/iot_link/os/os_imp/liteos/base/ipc\los_sem.c ****         goto errre_uniSemPend;
 904              		.loc 2 266 0
 905 00b6 26E0     		b	.L40
 906              	.L42:
 267:E:/LiteOS/LiteOS_Lab/iot_link/os/os_imp/liteos/base/ipc\los_sem.c ****     }
 268:E:/LiteOS/LiteOS_Lab/iot_link/os/os_imp/liteos/base/ipc\los_sem.c **** 
 269:E:/LiteOS/LiteOS_Lab/iot_link/os/os_imp/liteos/base/ipc\los_sem.c ****     pstRunTsk = (LOS_TASK_CB *)g_stLosTask.pstRunTask;
 907              		.loc 2 269 0
 908 00b8 264B     		ldr	r3, .L44+44
 909 00ba 1B68     		ldr	r3, [r3]
 910 00bc BB60     		str	r3, [r7, #8]
 270:E:/LiteOS/LiteOS_Lab/iot_link/os/os_imp/liteos/base/ipc\los_sem.c ****     pstRunTsk->pTaskSem = (VOID *)pstSemPended;
 911              		.loc 2 270 0
 912 00be BB68     		ldr	r3, [r7, #8]
 913 00c0 FA68     		ldr	r2, [r7, #12]
 914 00c2 9A61     		str	r2, [r3, #24]
 271:E:/LiteOS/LiteOS_Lab/iot_link/os/os_imp/liteos/base/ipc\los_sem.c ****     osTaskWait(&pstSemPended->stSemList, OS_TASK_STATUS_PEND, uwTimeout);
 915              		.loc 2 271 0
 916 00c4 FB68     		ldr	r3, [r7, #12]
 917 00c6 0833     		adds	r3, r3, #8
 918 00c8 3A68     		ldr	r2, [r7]
 919 00ca 0821     		movs	r1, #8
 920 00cc 1846     		mov	r0, r3
 921 00ce FFF7FEFF 		bl	osTaskWait
 272:E:/LiteOS/LiteOS_Lab/iot_link/os/os_imp/liteos/base/ipc\los_sem.c ****     (VOID)LOS_IntRestore(uwIntSave);
 922              		.loc 2 272 0
 923 00d2 7869     		ldr	r0, [r7, #20]
 924 00d4 FFF7FEFF 		bl	LOS_IntRestore
 273:E:/LiteOS/LiteOS_Lab/iot_link/os/os_imp/liteos/base/ipc\los_sem.c ****     LOS_Schedule();
 925              		.loc 2 273 0
 926 00d8 FFF7FEFF 		bl	LOS_Schedule
 274:E:/LiteOS/LiteOS_Lab/iot_link/os/os_imp/liteos/base/ipc\los_sem.c **** 
 275:E:/LiteOS/LiteOS_Lab/iot_link/os/os_imp/liteos/base/ipc\los_sem.c ****     if (pstRunTsk->usTaskStatus & OS_TASK_STATUS_TIMEOUT)
 927              		.loc 2 275 0
 928 00dc BB68     		ldr	r3, [r7, #8]
 929 00de 9B88     		ldrh	r3, [r3, #4]
 930 00e0 03F04003 		and	r3, r3, #64
 931 00e4 002B     		cmp	r3, #0
 932 00e6 0CD0     		beq	.L43
 276:E:/LiteOS/LiteOS_Lab/iot_link/os/os_imp/liteos/base/ipc\los_sem.c ****     {
 277:E:/LiteOS/LiteOS_Lab/iot_link/os/os_imp/liteos/base/ipc\los_sem.c ****         uwIntSave = LOS_IntLock();
 933              		.loc 2 277 0
 934 00e8 FFF7FEFF 		bl	LOS_IntLock
 935 00ec 7861     		str	r0, [r7, #20]
 278:E:/LiteOS/LiteOS_Lab/iot_link/os/os_imp/liteos/base/ipc\los_sem.c ****         pstRunTsk->usTaskStatus &= (~OS_TASK_STATUS_TIMEOUT);
 936              		.loc 2 278 0
 937 00ee BB68     		ldr	r3, [r7, #8]
ARM GAS  C:\Users\user\AppData\Local\Temp\ccOPvb7u.s 			page 26


 938 00f0 9B88     		ldrh	r3, [r3, #4]
 939 00f2 23F04003 		bic	r3, r3, #64
 940 00f6 9AB2     		uxth	r2, r3
 941 00f8 BB68     		ldr	r3, [r7, #8]
 942 00fa 9A80     		strh	r2, [r3, #4]	@ movhi
 279:E:/LiteOS/LiteOS_Lab/iot_link/os/os_imp/liteos/base/ipc\los_sem.c ****         uwRetErr = LOS_ERRNO_SEM_TIMEOUT;
 943              		.loc 2 279 0
 944 00fc 164B     		ldr	r3, .L44+48
 945 00fe 3B61     		str	r3, [r7, #16]
 280:E:/LiteOS/LiteOS_Lab/iot_link/os/os_imp/liteos/base/ipc\los_sem.c ****         goto errre_uniSemPend;
 946              		.loc 2 280 0
 947 0100 01E0     		b	.L40
 948              	.L43:
 281:E:/LiteOS/LiteOS_Lab/iot_link/os/os_imp/liteos/base/ipc\los_sem.c ****     }
 282:E:/LiteOS/LiteOS_Lab/iot_link/os/os_imp/liteos/base/ipc\los_sem.c **** 
 283:E:/LiteOS/LiteOS_Lab/iot_link/os/os_imp/liteos/base/ipc\los_sem.c ****     return LOS_OK;
 949              		.loc 2 283 0
 950 0102 0023     		movs	r3, #0
 951 0104 0BE0     		b	.L36
 952              	.L40:
 284:E:/LiteOS/LiteOS_Lab/iot_link/os/os_imp/liteos/base/ipc\los_sem.c **** 
 285:E:/LiteOS/LiteOS_Lab/iot_link/os/os_imp/liteos/base/ipc\los_sem.c **** errre_uniSemPend:
 286:E:/LiteOS/LiteOS_Lab/iot_link/os/os_imp/liteos/base/ipc\los_sem.c ****     (VOID)LOS_IntRestore(uwIntSave);
 953              		.loc 2 286 0
 954 0106 7869     		ldr	r0, [r7, #20]
 955 0108 FFF7FEFF 		bl	LOS_IntRestore
 287:E:/LiteOS/LiteOS_Lab/iot_link/os/os_imp/liteos/base/ipc\los_sem.c ****     OS_RETURN_ERROR(uwRetErr);
 956              		.loc 2 287 0
 957 010c 0023     		movs	r3, #0
 958 010e 0093     		str	r3, [sp]
 959 0110 0023     		movs	r3, #0
 960 0112 3A69     		ldr	r2, [r7, #16]
 961 0114 0549     		ldr	r1, .L44+4
 962 0116 0648     		ldr	r0, .L44+8
 963 0118 FFF7FEFF 		bl	LOS_ErrHandle
 964 011c 3B69     		ldr	r3, [r7, #16]
 965              	.L36:
 288:E:/LiteOS/LiteOS_Lab/iot_link/os/os_imp/liteos/base/ipc\los_sem.c **** }
 966              		.loc 2 288 0
 967 011e 1846     		mov	r0, r3
 968 0120 1837     		adds	r7, r7, #24
 969              	.LCFI57:
 970              		.cfi_def_cfa_offset 8
 971 0122 BD46     		mov	sp, r7
 972              	.LCFI58:
 973              		.cfi_def_cfa_register 13
 974              		@ sp needed
 975 0124 80BD     		pop	{r7, pc}
 976              	.L45:
 977 0126 00BF     		.align	2
 978              	.L44:
 979 0128 01070002 		.word	33556225
 980 012c F8C3B2A1 		.word	-1582119944
 981 0130 00000000 		.word	.LC0
 982 0134 00000000 		.word	g_pstAllSem
 983 0138 04070002 		.word	33556228
 984 013c 05070002 		.word	33556229
ARM GAS  C:\Users\user\AppData\Local\Temp\ccOPvb7u.s 			page 27


 985 0140 14000000 		.word	.LC1
 986 0144 1C000000 		.word	.LC2
 987 0148 00000000 		.word	g_usLosTaskLock
 988 014c 06070002 		.word	33556230
 989 0150 3C000000 		.word	.LC3
 990 0154 00000000 		.word	g_stLosTask
 991 0158 07070002 		.word	33556231
 992              		.cfi_endproc
 993              	.LFE140:
 995              		.section	.text.LOS_SemPost,"ax",%progbits
 996              		.align	1
 997              		.global	LOS_SemPost
 998              		.syntax unified
 999              		.thumb
 1000              		.thumb_func
 1001              		.fpu fpv4-sp-d16
 1003              	LOS_SemPost:
 1004              	.LFB141:
 289:E:/LiteOS/LiteOS_Lab/iot_link/os/os_imp/liteos/base/ipc\los_sem.c **** 
 290:E:/LiteOS/LiteOS_Lab/iot_link/os/os_imp/liteos/base/ipc\los_sem.c **** /*****************************************************************************
 291:E:/LiteOS/LiteOS_Lab/iot_link/os/os_imp/liteos/base/ipc\los_sem.c ****  Function     : LOS_SemPend
 292:E:/LiteOS/LiteOS_Lab/iot_link/os/os_imp/liteos/base/ipc\los_sem.c ****  Description  : Specified semaphore V operation,
 293:E:/LiteOS/LiteOS_Lab/iot_link/os/os_imp/liteos/base/ipc\los_sem.c ****  Input        : uwSemHandle--------- semaphore operation handle,
 294:E:/LiteOS/LiteOS_Lab/iot_link/os/os_imp/liteos/base/ipc\los_sem.c ****  Output       : None
 295:E:/LiteOS/LiteOS_Lab/iot_link/os/os_imp/liteos/base/ipc\los_sem.c ****  Return       : LOS_OK on success or error code on failure
 296:E:/LiteOS/LiteOS_Lab/iot_link/os/os_imp/liteos/base/ipc\los_sem.c ****  *****************************************************************************/
 297:E:/LiteOS/LiteOS_Lab/iot_link/os/os_imp/liteos/base/ipc\los_sem.c **** LITE_OS_SEC_TEXT UINT32 LOS_SemPost(UINT32 uwSemHandle)
 298:E:/LiteOS/LiteOS_Lab/iot_link/os/os_imp/liteos/base/ipc\los_sem.c **** {
 1005              		.loc 2 298 0
 1006              		.cfi_startproc
 1007              		@ args = 0, pretend = 0, frame = 24
 1008              		@ frame_needed = 1, uses_anonymous_args = 0
 1009 0000 80B5     		push	{r7, lr}
 1010              	.LCFI59:
 1011              		.cfi_def_cfa_offset 8
 1012              		.cfi_offset 7, -8
 1013              		.cfi_offset 14, -4
 1014 0002 88B0     		sub	sp, sp, #32
 1015              	.LCFI60:
 1016              		.cfi_def_cfa_offset 40
 1017 0004 02AF     		add	r7, sp, #8
 1018              	.LCFI61:
 1019              		.cfi_def_cfa 7, 32
 1020 0006 7860     		str	r0, [r7, #4]
 299:E:/LiteOS/LiteOS_Lab/iot_link/os/os_imp/liteos/base/ipc\los_sem.c ****     UINT32      uwIntSave;
 300:E:/LiteOS/LiteOS_Lab/iot_link/os/os_imp/liteos/base/ipc\los_sem.c ****     SEM_CB_S    *pstSemPosted = GET_SEM(uwSemHandle);
 1021              		.loc 2 300 0
 1022 0008 2C4B     		ldr	r3, .L53
 1023 000a 1A68     		ldr	r2, [r3]
 1024 000c 7B68     		ldr	r3, [r7, #4]
 1025 000e 1B01     		lsls	r3, r3, #4
 1026 0010 1344     		add	r3, r3, r2
 1027 0012 7B61     		str	r3, [r7, #20]
 301:E:/LiteOS/LiteOS_Lab/iot_link/os/os_imp/liteos/base/ipc\los_sem.c ****     LOS_TASK_CB *pstResumedTask;
 302:E:/LiteOS/LiteOS_Lab/iot_link/os/os_imp/liteos/base/ipc\los_sem.c **** 
 303:E:/LiteOS/LiteOS_Lab/iot_link/os/os_imp/liteos/base/ipc\los_sem.c ****     if (uwSemHandle >= LOSCFG_BASE_IPC_SEM_LIMIT)
 1028              		.loc 2 303 0
ARM GAS  C:\Users\user\AppData\Local\Temp\ccOPvb7u.s 			page 28


 1029 0014 7B68     		ldr	r3, [r7, #4]
 1030 0016 132B     		cmp	r3, #19
 1031 0018 01D9     		bls	.L47
 304:E:/LiteOS/LiteOS_Lab/iot_link/os/os_imp/liteos/base/ipc\los_sem.c ****     {
 305:E:/LiteOS/LiteOS_Lab/iot_link/os/os_imp/liteos/base/ipc\los_sem.c ****         return LOS_ERRNO_SEM_INVALID;
 1032              		.loc 2 305 0
 1033 001a 294B     		ldr	r3, .L53+4
 1034 001c 49E0     		b	.L48
 1035              	.L47:
 306:E:/LiteOS/LiteOS_Lab/iot_link/os/os_imp/liteos/base/ipc\los_sem.c ****     }
 307:E:/LiteOS/LiteOS_Lab/iot_link/os/os_imp/liteos/base/ipc\los_sem.c **** 
 308:E:/LiteOS/LiteOS_Lab/iot_link/os/os_imp/liteos/base/ipc\los_sem.c ****     uwIntSave = LOS_IntLock();
 1036              		.loc 2 308 0
 1037 001e FFF7FEFF 		bl	LOS_IntLock
 1038 0022 3861     		str	r0, [r7, #16]
 309:E:/LiteOS/LiteOS_Lab/iot_link/os/os_imp/liteos/base/ipc\los_sem.c **** 
 310:E:/LiteOS/LiteOS_Lab/iot_link/os/os_imp/liteos/base/ipc\los_sem.c ****     if (OS_SEM_UNUSED == pstSemPosted->usSemStat)
 1039              		.loc 2 310 0
 1040 0024 7B69     		ldr	r3, [r7, #20]
 1041 0026 1B88     		ldrh	r3, [r3]
 1042 0028 002B     		cmp	r3, #0
 1043 002a 0CD1     		bne	.L49
 311:E:/LiteOS/LiteOS_Lab/iot_link/os/os_imp/liteos/base/ipc\los_sem.c ****     {
 312:E:/LiteOS/LiteOS_Lab/iot_link/os/os_imp/liteos/base/ipc\los_sem.c ****         LOS_IntRestore(uwIntSave);
 1044              		.loc 2 312 0
 1045 002c 3869     		ldr	r0, [r7, #16]
 1046 002e FFF7FEFF 		bl	LOS_IntRestore
 313:E:/LiteOS/LiteOS_Lab/iot_link/os/os_imp/liteos/base/ipc\los_sem.c ****         OS_RETURN_ERROR(LOS_ERRNO_SEM_INVALID);
 1047              		.loc 2 313 0
 1048 0032 0023     		movs	r3, #0
 1049 0034 0093     		str	r3, [sp]
 1050 0036 0023     		movs	r3, #0
 1051 0038 214A     		ldr	r2, .L53+4
 1052 003a 2249     		ldr	r1, .L53+8
 1053 003c 2248     		ldr	r0, .L53+12
 1054 003e FFF7FEFF 		bl	LOS_ErrHandle
 1055 0042 1F4B     		ldr	r3, .L53+4
 1056 0044 35E0     		b	.L48
 1057              	.L49:
 314:E:/LiteOS/LiteOS_Lab/iot_link/os/os_imp/liteos/base/ipc\los_sem.c ****     }
 315:E:/LiteOS/LiteOS_Lab/iot_link/os/os_imp/liteos/base/ipc\los_sem.c **** 
 316:E:/LiteOS/LiteOS_Lab/iot_link/os/os_imp/liteos/base/ipc\los_sem.c ****     if (pstSemPosted->usMaxSemCount == pstSemPosted->usSemCount)
 1058              		.loc 2 316 0
 1059 0046 7B69     		ldr	r3, [r7, #20]
 1060 0048 9A88     		ldrh	r2, [r3, #4]
 1061 004a 7B69     		ldr	r3, [r7, #20]
 1062 004c 5B88     		ldrh	r3, [r3, #2]
 1063 004e 9A42     		cmp	r2, r3
 1064 0050 0CD1     		bne	.L50
 317:E:/LiteOS/LiteOS_Lab/iot_link/os/os_imp/liteos/base/ipc\los_sem.c ****     {
 318:E:/LiteOS/LiteOS_Lab/iot_link/os/os_imp/liteos/base/ipc\los_sem.c ****         (VOID)LOS_IntRestore(uwIntSave);
 1065              		.loc 2 318 0
 1066 0052 3869     		ldr	r0, [r7, #16]
 1067 0054 FFF7FEFF 		bl	LOS_IntRestore
 319:E:/LiteOS/LiteOS_Lab/iot_link/os/os_imp/liteos/base/ipc\los_sem.c ****         OS_RETURN_ERROR(LOS_ERRNO_SEM_OVERFLOW);
 1068              		.loc 2 319 0
 1069 0058 0023     		movs	r3, #0
ARM GAS  C:\Users\user\AppData\Local\Temp\ccOPvb7u.s 			page 29


 1070 005a 0093     		str	r3, [sp]
 1071 005c 0023     		movs	r3, #0
 1072 005e 1B4A     		ldr	r2, .L53+16
 1073 0060 1849     		ldr	r1, .L53+8
 1074 0062 1948     		ldr	r0, .L53+12
 1075 0064 FFF7FEFF 		bl	LOS_ErrHandle
 1076 0068 184B     		ldr	r3, .L53+16
 1077 006a 22E0     		b	.L48
 1078              	.L50:
 320:E:/LiteOS/LiteOS_Lab/iot_link/os/os_imp/liteos/base/ipc\los_sem.c ****     }
 321:E:/LiteOS/LiteOS_Lab/iot_link/os/os_imp/liteos/base/ipc\los_sem.c ****     if (!LOS_ListEmpty(&pstSemPosted->stSemList))
 1079              		.loc 2 321 0
 1080 006c 7B69     		ldr	r3, [r7, #20]
 1081 006e 0833     		adds	r3, r3, #8
 1082 0070 1846     		mov	r0, r3
 1083 0072 FFF7FEFF 		bl	LOS_ListEmpty
 1084 0076 0346     		mov	r3, r0
 1085 0078 002B     		cmp	r3, #0
 1086 007a 10D1     		bne	.L51
 322:E:/LiteOS/LiteOS_Lab/iot_link/os/os_imp/liteos/base/ipc\los_sem.c ****     {
 323:E:/LiteOS/LiteOS_Lab/iot_link/os/os_imp/liteos/base/ipc\los_sem.c ****         pstResumedTask = OS_TCB_FROM_PENDLIST(LOS_DL_LIST_FIRST(&(pstSemPosted->stSemList))); /*lin
 1087              		.loc 2 323 0
 1088 007c 7B69     		ldr	r3, [r7, #20]
 1089 007e DB68     		ldr	r3, [r3, #12]
 1090 0080 283B     		subs	r3, r3, #40
 1091 0082 FB60     		str	r3, [r7, #12]
 324:E:/LiteOS/LiteOS_Lab/iot_link/os/os_imp/liteos/base/ipc\los_sem.c ****         pstResumedTask->pTaskSem = NULL;
 1092              		.loc 2 324 0
 1093 0084 FB68     		ldr	r3, [r7, #12]
 1094 0086 0022     		movs	r2, #0
 1095 0088 9A61     		str	r2, [r3, #24]
 325:E:/LiteOS/LiteOS_Lab/iot_link/os/os_imp/liteos/base/ipc\los_sem.c ****         osTaskWake(pstResumedTask, OS_TASK_STATUS_PEND);
 1096              		.loc 2 325 0
 1097 008a 0821     		movs	r1, #8
 1098 008c F868     		ldr	r0, [r7, #12]
 1099 008e FFF7FEFF 		bl	osTaskWake
 326:E:/LiteOS/LiteOS_Lab/iot_link/os/os_imp/liteos/base/ipc\los_sem.c **** 
 327:E:/LiteOS/LiteOS_Lab/iot_link/os/os_imp/liteos/base/ipc\los_sem.c ****         (VOID)LOS_IntRestore(uwIntSave);
 1100              		.loc 2 327 0
 1101 0092 3869     		ldr	r0, [r7, #16]
 1102 0094 FFF7FEFF 		bl	LOS_IntRestore
 328:E:/LiteOS/LiteOS_Lab/iot_link/os/os_imp/liteos/base/ipc\los_sem.c ****         LOS_Schedule();
 1103              		.loc 2 328 0
 1104 0098 FFF7FEFF 		bl	LOS_Schedule
 1105 009c 08E0     		b	.L52
 1106              	.L51:
 329:E:/LiteOS/LiteOS_Lab/iot_link/os/os_imp/liteos/base/ipc\los_sem.c ****     }
 330:E:/LiteOS/LiteOS_Lab/iot_link/os/os_imp/liteos/base/ipc\los_sem.c ****     else
 331:E:/LiteOS/LiteOS_Lab/iot_link/os/os_imp/liteos/base/ipc\los_sem.c ****     {
 332:E:/LiteOS/LiteOS_Lab/iot_link/os/os_imp/liteos/base/ipc\los_sem.c ****         pstSemPosted->usSemCount++;
 1107              		.loc 2 332 0
 1108 009e 7B69     		ldr	r3, [r7, #20]
 1109 00a0 5B88     		ldrh	r3, [r3, #2]
 1110 00a2 0133     		adds	r3, r3, #1
 1111 00a4 9AB2     		uxth	r2, r3
 1112 00a6 7B69     		ldr	r3, [r7, #20]
 1113 00a8 5A80     		strh	r2, [r3, #2]	@ movhi
ARM GAS  C:\Users\user\AppData\Local\Temp\ccOPvb7u.s 			page 30


 333:E:/LiteOS/LiteOS_Lab/iot_link/os/os_imp/liteos/base/ipc\los_sem.c ****         (VOID)LOS_IntRestore(uwIntSave);
 1114              		.loc 2 333 0
 1115 00aa 3869     		ldr	r0, [r7, #16]
 1116 00ac FFF7FEFF 		bl	LOS_IntRestore
 1117              	.L52:
 334:E:/LiteOS/LiteOS_Lab/iot_link/os/os_imp/liteos/base/ipc\los_sem.c ****     }
 335:E:/LiteOS/LiteOS_Lab/iot_link/os/os_imp/liteos/base/ipc\los_sem.c **** 
 336:E:/LiteOS/LiteOS_Lab/iot_link/os/os_imp/liteos/base/ipc\los_sem.c ****     return LOS_OK;
 1118              		.loc 2 336 0
 1119 00b0 0023     		movs	r3, #0
 1120              	.L48:
 337:E:/LiteOS/LiteOS_Lab/iot_link/os/os_imp/liteos/base/ipc\los_sem.c **** }
 1121              		.loc 2 337 0
 1122 00b2 1846     		mov	r0, r3
 1123 00b4 1837     		adds	r7, r7, #24
 1124              	.LCFI62:
 1125              		.cfi_def_cfa_offset 8
 1126 00b6 BD46     		mov	sp, r7
 1127              	.LCFI63:
 1128              		.cfi_def_cfa_register 13
 1129              		@ sp needed
 1130 00b8 80BD     		pop	{r7, pc}
 1131              	.L54:
 1132 00ba 00BF     		.align	2
 1133              	.L53:
 1134 00bc 00000000 		.word	g_pstAllSem
 1135 00c0 01070002 		.word	33556225
 1136 00c4 F8C3B2A1 		.word	-1582119944
 1137 00c8 00000000 		.word	.LC0
 1138 00cc 08070002 		.word	33556232
 1139              		.cfi_endproc
 1140              	.LFE141:
 1142              		.text
 1143              	.Letext0:
 1144              		.file 3 "e:\\ac6\\systemworkbench\\plugins\\fr.ac6.mcu.externaltools.arm-none.win32_1.16.0.2018071
 1145              		.file 4 "e:\\ac6\\systemworkbench\\plugins\\fr.ac6.mcu.externaltools.arm-none.win32_1.16.0.2018071
 1146              		.file 5 "e:\\ac6\\systemworkbench\\plugins\\fr.ac6.mcu.externaltools.arm-none.win32_1.16.0.2018071
 1147              		.file 6 "e:\\ac6\\systemworkbench\\plugins\\fr.ac6.mcu.externaltools.arm-none.win32_1.16.0.2018071
 1148              		.file 7 "e:\\ac6\\systemworkbench\\plugins\\fr.ac6.mcu.externaltools.arm-none.win32_1.16.0.2018071
 1149              		.file 8 "E:/LiteOS/LiteOS_Lab/iot_link/os/os_imp/liteos/include/los_typedef.h"
 1150              		.file 9 "e:\\ac6\\systemworkbench\\plugins\\fr.ac6.mcu.externaltools.arm-none.win32_1.16.0.2018071
 1151              		.file 10 "E:/LiteOS/LiteOS_Lab/iot_link/os/os_imp/liteos/arch/arm/common/cmsis/core_cm4.h"
 1152              		.file 11 "E:/LiteOS/LiteOS_Lab/targets/STM32L431_BearPi/Inc/system_stm32l4xx.h"
 1153              		.file 12 "E:/LiteOS/LiteOS_Lab/iot_link/os/os_imp/liteos/arch/arm/arm-m/include/los_hwi.h"
 1154              		.file 13 "E:/LiteOS/LiteOS_Lab/iot_link/os/os_imp/liteos/include/los_err.h"
 1155              		.file 14 "E:/LiteOS/LiteOS_Lab/iot_link/os/os_imp/liteos/include/los_tick.h"
 1156              		.file 15 "E:/LiteOS/LiteOS_Lab/iot_link/os/os_imp/liteos/include/los_event.h"
 1157              		.file 16 "E:/LiteOS/LiteOS_Lab/iot_link/os/os_imp/liteos/include/los_task.h"
 1158              		.file 17 "E:/LiteOS/LiteOS_Lab/iot_link/os/os_imp/liteos/base/include/los_task.ph"
 1159              		.file 18 "E:/LiteOS/LiteOS_Lab/targets/STM32L431_BearPi/Inc/main.h"
 1160              		.file 19 "E:/LiteOS/LiteOS_Lab/iot_link/os/os_imp/liteos/include/los_config.h"
 1161              		.file 20 "E:/LiteOS/LiteOS_Lab/iot_link/os/os_imp/liteos/base/include/los_sem.ph"
 1162              		.file 21 "E:/LiteOS/LiteOS_Lab/iot_link/os/os_imp/liteos/include/los_memory.h"
ARM GAS  C:\Users\user\AppData\Local\Temp\ccOPvb7u.s 			page 31

