ARM GAS  C:\Users\user\AppData\Local\Temp\ccizJgFX.s 			page 1


   1              		.cpu cortex-m4
   2              		.eabi_attribute 27, 1
   3              		.eabi_attribute 28, 1
   4              		.eabi_attribute 20, 1
   5              		.eabi_attribute 21, 1
   6              		.eabi_attribute 23, 3
   7              		.eabi_attribute 24, 1
   8              		.eabi_attribute 25, 1
   9              		.eabi_attribute 26, 1
  10              		.eabi_attribute 30, 6
  11              		.eabi_attribute 34, 1
  12              		.eabi_attribute 18, 4
  13              		.file	"los_heap.c"
  14              		.text
  15              	.Ltext0:
  16              		.cfi_sections	.debug_frame
  17              		.section	.text.dlist_init,"ax",%progbits
  18              		.align	1
  19              		.syntax unified
  20              		.thumb
  21              		.thumb_func
  22              		.fpu fpv4-sp-d16
  24              	dlist_init:
  25              	.LFB133:
  26              		.file 1 "E:/LiteOS/LiteOS_Lab/iot_link/os/os_imp/liteos/include/list.h"
   1:E:/LiteOS/LiteOS_Lab/iot_link/os/os_imp/liteos/include\list.h **** /*----------------------------------------------------------------------------
   2:E:/LiteOS/LiteOS_Lab/iot_link/os/os_imp/liteos/include\list.h ****  * Copyright (c) <2018>, <Huawei Technologies Co., Ltd>
   3:E:/LiteOS/LiteOS_Lab/iot_link/os/os_imp/liteos/include\list.h ****  * All rights reserved.
   4:E:/LiteOS/LiteOS_Lab/iot_link/os/os_imp/liteos/include\list.h ****  * Redistribution and use in source and binary forms, with or without modification,
   5:E:/LiteOS/LiteOS_Lab/iot_link/os/os_imp/liteos/include\list.h ****  * are permitted provided that the following conditions are met:
   6:E:/LiteOS/LiteOS_Lab/iot_link/os/os_imp/liteos/include\list.h ****  * 1. Redistributions of source code must retain the above copyright notice, this list of
   7:E:/LiteOS/LiteOS_Lab/iot_link/os/os_imp/liteos/include\list.h ****  * conditions and the following disclaimer.
   8:E:/LiteOS/LiteOS_Lab/iot_link/os/os_imp/liteos/include\list.h ****  * 2. Redistributions in binary form must reproduce the above copyright notice, this list
   9:E:/LiteOS/LiteOS_Lab/iot_link/os/os_imp/liteos/include\list.h ****  * of conditions and the following disclaimer in the documentation and/or other materials
  10:E:/LiteOS/LiteOS_Lab/iot_link/os/os_imp/liteos/include\list.h ****  * provided with the distribution.
  11:E:/LiteOS/LiteOS_Lab/iot_link/os/os_imp/liteos/include\list.h ****  * 3. Neither the name of the copyright holder nor the names of its contributors may be used
  12:E:/LiteOS/LiteOS_Lab/iot_link/os/os_imp/liteos/include\list.h ****  * to endorse or promote products derived from this software without specific prior written
  13:E:/LiteOS/LiteOS_Lab/iot_link/os/os_imp/liteos/include\list.h ****  * permission.
  14:E:/LiteOS/LiteOS_Lab/iot_link/os/os_imp/liteos/include\list.h ****  * THIS SOFTWARE IS PROVIDED BY THE COPYRIGHT HOLDERS AND CONTRIBUTORS
  15:E:/LiteOS/LiteOS_Lab/iot_link/os/os_imp/liteos/include\list.h ****  * "AS IS" AND ANY EXPRESS OR IMPLIED WARRANTIES, INCLUDING, BUT NOT LIMITED TO,
  16:E:/LiteOS/LiteOS_Lab/iot_link/os/os_imp/liteos/include\list.h ****  * THE IMPLIED WARRANTIES OF MERCHANTABILITY AND FITNESS FOR A PARTICULAR
  17:E:/LiteOS/LiteOS_Lab/iot_link/os/os_imp/liteos/include\list.h ****  * PURPOSE ARE DISCLAIMED. IN NO EVENT SHALL THE COPYRIGHT HOLDER OR
  18:E:/LiteOS/LiteOS_Lab/iot_link/os/os_imp/liteos/include\list.h ****  * CONTRIBUTORS BE LIABLE FOR ANY DIRECT, INDIRECT, INCIDENTAL, SPECIAL,
  19:E:/LiteOS/LiteOS_Lab/iot_link/os/os_imp/liteos/include\list.h ****  * EXEMPLARY, OR CONSEQUENTIAL DAMAGES (INCLUDING, BUT NOT LIMITED TO,
  20:E:/LiteOS/LiteOS_Lab/iot_link/os/os_imp/liteos/include\list.h ****  * PROCUREMENT OF SUBSTITUTE GOODS OR SERVICES; LOSS OF USE, DATA, OR PROFITS;
  21:E:/LiteOS/LiteOS_Lab/iot_link/os/os_imp/liteos/include\list.h ****  * OR BUSINESS INTERRUPTION) HOWEVER CAUSED AND ON ANY THEORY OF LIABILITY,
  22:E:/LiteOS/LiteOS_Lab/iot_link/os/os_imp/liteos/include\list.h ****  * WHETHER IN CONTRACT, STRICT LIABILITY, OR TORT (INCLUDING NEGLIGENCE OR
  23:E:/LiteOS/LiteOS_Lab/iot_link/os/os_imp/liteos/include\list.h ****  * OTHERWISE) ARISING IN ANY WAY OUT OF THE USE OF THIS SOFTWARE, EVEN IF
  24:E:/LiteOS/LiteOS_Lab/iot_link/os/os_imp/liteos/include\list.h ****  * ADVISED OF THE POSSIBILITY OF SUCH DAMAGE.
  25:E:/LiteOS/LiteOS_Lab/iot_link/os/os_imp/liteos/include\list.h ****  *---------------------------------------------------------------------------*/
  26:E:/LiteOS/LiteOS_Lab/iot_link/os/os_imp/liteos/include\list.h **** /*----------------------------------------------------------------------------
  27:E:/LiteOS/LiteOS_Lab/iot_link/os/os_imp/liteos/include\list.h ****  * Notice of Export Control Law
  28:E:/LiteOS/LiteOS_Lab/iot_link/os/os_imp/liteos/include\list.h ****  * ===============================================
  29:E:/LiteOS/LiteOS_Lab/iot_link/os/os_imp/liteos/include\list.h ****  * Huawei LiteOS may be subject to applicable export control laws and regulations, which might
  30:E:/LiteOS/LiteOS_Lab/iot_link/os/os_imp/liteos/include\list.h ****  * include those applicable to Huawei LiteOS of U.S. and the country in which you are located.
  31:E:/LiteOS/LiteOS_Lab/iot_link/os/os_imp/liteos/include\list.h ****  * Import, export and usage of Huawei LiteOS in any manner by you shall be in compliance with such
  32:E:/LiteOS/LiteOS_Lab/iot_link/os/os_imp/liteos/include\list.h ****  * applicable export control laws and regulations.
ARM GAS  C:\Users\user\AppData\Local\Temp\ccizJgFX.s 			page 2


  33:E:/LiteOS/LiteOS_Lab/iot_link/os/os_imp/liteos/include\list.h ****  *---------------------------------------------------------------------------*/
  34:E:/LiteOS/LiteOS_Lab/iot_link/os/os_imp/liteos/include\list.h **** 
  35:E:/LiteOS/LiteOS_Lab/iot_link/os/os_imp/liteos/include\list.h **** #ifndef __LIST_H__
  36:E:/LiteOS/LiteOS_Lab/iot_link/os/os_imp/liteos/include\list.h **** #define __LIST_H__
  37:E:/LiteOS/LiteOS_Lab/iot_link/os/os_imp/liteos/include\list.h **** 
  38:E:/LiteOS/LiteOS_Lab/iot_link/os/os_imp/liteos/include\list.h **** /* double list */
  39:E:/LiteOS/LiteOS_Lab/iot_link/os/os_imp/liteos/include\list.h **** 
  40:E:/LiteOS/LiteOS_Lab/iot_link/os/os_imp/liteos/include\list.h **** typedef struct dlist
  41:E:/LiteOS/LiteOS_Lab/iot_link/os/os_imp/liteos/include\list.h ****     {
  42:E:/LiteOS/LiteOS_Lab/iot_link/os/os_imp/liteos/include\list.h ****     struct dlist * prev, * next;
  43:E:/LiteOS/LiteOS_Lab/iot_link/os/os_imp/liteos/include\list.h ****     } dlist_t;
  44:E:/LiteOS/LiteOS_Lab/iot_link/os/os_imp/liteos/include\list.h **** 
  45:E:/LiteOS/LiteOS_Lab/iot_link/os/os_imp/liteos/include\list.h **** /* macros */
  46:E:/LiteOS/LiteOS_Lab/iot_link/os/os_imp/liteos/include\list.h **** 
  47:E:/LiteOS/LiteOS_Lab/iot_link/os/os_imp/liteos/include\list.h **** /**
  48:E:/LiteOS/LiteOS_Lab/iot_link/os/os_imp/liteos/include\list.h ****  * DLIST_INIT - create a empty list head body
  49:E:/LiteOS/LiteOS_Lab/iot_link/os/os_imp/liteos/include\list.h ****  */
  50:E:/LiteOS/LiteOS_Lab/iot_link/os/os_imp/liteos/include\list.h **** 
  51:E:/LiteOS/LiteOS_Lab/iot_link/os/os_imp/liteos/include\list.h **** #define DLIST_INIT(h)           { &(h), &(h) }
  52:E:/LiteOS/LiteOS_Lab/iot_link/os/os_imp/liteos/include\list.h **** 
  53:E:/LiteOS/LiteOS_Lab/iot_link/os/os_imp/liteos/include\list.h **** /**
  54:E:/LiteOS/LiteOS_Lab/iot_link/os/os_imp/liteos/include\list.h ****  * DLIST_DEF - define a empty list head
  55:E:/LiteOS/LiteOS_Lab/iot_link/os/os_imp/liteos/include\list.h ****  */
  56:E:/LiteOS/LiteOS_Lab/iot_link/os/os_imp/liteos/include\list.h **** 
  57:E:/LiteOS/LiteOS_Lab/iot_link/os/os_imp/liteos/include\list.h **** #define DLIST_DEF(name)         dlist_t name = DLIST_INIT (name)
  58:E:/LiteOS/LiteOS_Lab/iot_link/os/os_imp/liteos/include\list.h **** 
  59:E:/LiteOS/LiteOS_Lab/iot_link/os/os_imp/liteos/include\list.h **** /* inlines */
  60:E:/LiteOS/LiteOS_Lab/iot_link/os/os_imp/liteos/include\list.h **** 
  61:E:/LiteOS/LiteOS_Lab/iot_link/os/os_imp/liteos/include\list.h **** /* list operations */
  62:E:/LiteOS/LiteOS_Lab/iot_link/os/os_imp/liteos/include\list.h **** 
  63:E:/LiteOS/LiteOS_Lab/iot_link/os/os_imp/liteos/include\list.h **** static inline void dlist_init (dlist_t * head)
  64:E:/LiteOS/LiteOS_Lab/iot_link/os/os_imp/liteos/include\list.h ****     {
  27              		.loc 1 64 0
  28              		.cfi_startproc
  29              		@ args = 0, pretend = 0, frame = 8
  30              		@ frame_needed = 1, uses_anonymous_args = 0
  31              		@ link register save eliminated.
  32 0000 80B4     		push	{r7}
  33              	.LCFI0:
  34              		.cfi_def_cfa_offset 4
  35              		.cfi_offset 7, -4
  36 0002 83B0     		sub	sp, sp, #12
  37              	.LCFI1:
  38              		.cfi_def_cfa_offset 16
  39 0004 00AF     		add	r7, sp, #0
  40              	.LCFI2:
  41              		.cfi_def_cfa_register 7
  42 0006 7860     		str	r0, [r7, #4]
  65:E:/LiteOS/LiteOS_Lab/iot_link/os/os_imp/liteos/include\list.h ****     head->prev = head->next = head;
  43              		.loc 1 65 0
  44 0008 7B68     		ldr	r3, [r7, #4]
  45 000a 7A68     		ldr	r2, [r7, #4]
  46 000c 5A60     		str	r2, [r3, #4]
  47 000e 7B68     		ldr	r3, [r7, #4]
  48 0010 5A68     		ldr	r2, [r3, #4]
  49 0012 7B68     		ldr	r3, [r7, #4]
  50 0014 1A60     		str	r2, [r3]
ARM GAS  C:\Users\user\AppData\Local\Temp\ccizJgFX.s 			page 3


  66:E:/LiteOS/LiteOS_Lab/iot_link/os/os_imp/liteos/include\list.h ****     }
  51              		.loc 1 66 0
  52 0016 00BF     		nop
  53 0018 0C37     		adds	r7, r7, #12
  54              	.LCFI3:
  55              		.cfi_def_cfa_offset 4
  56 001a BD46     		mov	sp, r7
  57              	.LCFI4:
  58              		.cfi_def_cfa_register 13
  59              		@ sp needed
  60 001c 5DF8047B 		ldr	r7, [sp], #4
  61              	.LCFI5:
  62              		.cfi_restore 7
  63              		.cfi_def_cfa_offset 0
  64 0020 7047     		bx	lr
  65              		.cfi_endproc
  66              	.LFE133:
  68              		.section	.text.__dlist_add_at,"ax",%progbits
  69              		.align	1
  70              		.syntax unified
  71              		.thumb
  72              		.thumb_func
  73              		.fpu fpv4-sp-d16
  75              	__dlist_add_at:
  76              	.LFB134:
  67:E:/LiteOS/LiteOS_Lab/iot_link/os/os_imp/liteos/include\list.h **** 
  68:E:/LiteOS/LiteOS_Lab/iot_link/os/os_imp/liteos/include\list.h **** /**
  69:E:/LiteOS/LiteOS_Lab/iot_link/os/os_imp/liteos/include\list.h ****  * __dlist_add_at - insert a new entry between two known consecutive entries
  70:E:/LiteOS/LiteOS_Lab/iot_link/os/os_imp/liteos/include\list.h ****  *
  71:E:/LiteOS/LiteOS_Lab/iot_link/os/os_imp/liteos/include\list.h ****  * This is only for internal list manipulation where we know
  72:E:/LiteOS/LiteOS_Lab/iot_link/os/os_imp/liteos/include\list.h ****  * the prev/next entries already!
  73:E:/LiteOS/LiteOS_Lab/iot_link/os/os_imp/liteos/include\list.h ****  */
  74:E:/LiteOS/LiteOS_Lab/iot_link/os/os_imp/liteos/include\list.h **** 
  75:E:/LiteOS/LiteOS_Lab/iot_link/os/os_imp/liteos/include\list.h **** static inline void __dlist_add_at (dlist_t * prev, dlist_t * next, dlist_t * new)
  76:E:/LiteOS/LiteOS_Lab/iot_link/os/os_imp/liteos/include\list.h ****     {
  77              		.loc 1 76 0
  78              		.cfi_startproc
  79              		@ args = 0, pretend = 0, frame = 16
  80              		@ frame_needed = 1, uses_anonymous_args = 0
  81              		@ link register save eliminated.
  82 0000 80B4     		push	{r7}
  83              	.LCFI6:
  84              		.cfi_def_cfa_offset 4
  85              		.cfi_offset 7, -4
  86 0002 85B0     		sub	sp, sp, #20
  87              	.LCFI7:
  88              		.cfi_def_cfa_offset 24
  89 0004 00AF     		add	r7, sp, #0
  90              	.LCFI8:
  91              		.cfi_def_cfa_register 7
  92 0006 F860     		str	r0, [r7, #12]
  93 0008 B960     		str	r1, [r7, #8]
  94 000a 7A60     		str	r2, [r7, #4]
  77:E:/LiteOS/LiteOS_Lab/iot_link/os/os_imp/liteos/include\list.h ****     new->prev  = prev;
  95              		.loc 1 77 0
  96 000c 7B68     		ldr	r3, [r7, #4]
  97 000e FA68     		ldr	r2, [r7, #12]
ARM GAS  C:\Users\user\AppData\Local\Temp\ccizJgFX.s 			page 4


  98 0010 1A60     		str	r2, [r3]
  78:E:/LiteOS/LiteOS_Lab/iot_link/os/os_imp/liteos/include\list.h ****     new->next  = next;
  99              		.loc 1 78 0
 100 0012 7B68     		ldr	r3, [r7, #4]
 101 0014 BA68     		ldr	r2, [r7, #8]
 102 0016 5A60     		str	r2, [r3, #4]
  79:E:/LiteOS/LiteOS_Lab/iot_link/os/os_imp/liteos/include\list.h ****     prev->next = new;
 103              		.loc 1 79 0
 104 0018 FB68     		ldr	r3, [r7, #12]
 105 001a 7A68     		ldr	r2, [r7, #4]
 106 001c 5A60     		str	r2, [r3, #4]
  80:E:/LiteOS/LiteOS_Lab/iot_link/os/os_imp/liteos/include\list.h ****     next->prev = new;
 107              		.loc 1 80 0
 108 001e BB68     		ldr	r3, [r7, #8]
 109 0020 7A68     		ldr	r2, [r7, #4]
 110 0022 1A60     		str	r2, [r3]
  81:E:/LiteOS/LiteOS_Lab/iot_link/os/os_imp/liteos/include\list.h ****     }
 111              		.loc 1 81 0
 112 0024 00BF     		nop
 113 0026 1437     		adds	r7, r7, #20
 114              	.LCFI9:
 115              		.cfi_def_cfa_offset 4
 116 0028 BD46     		mov	sp, r7
 117              	.LCFI10:
 118              		.cfi_def_cfa_register 13
 119              		@ sp needed
 120 002a 5DF8047B 		ldr	r7, [sp], #4
 121              	.LCFI11:
 122              		.cfi_restore 7
 123              		.cfi_def_cfa_offset 0
 124 002e 7047     		bx	lr
 125              		.cfi_endproc
 126              	.LFE134:
 128              		.section	.text.dlist_add_tail,"ax",%progbits
 129              		.align	1
 130              		.syntax unified
 131              		.thumb
 132              		.thumb_func
 133              		.fpu fpv4-sp-d16
 135              	dlist_add_tail:
 136              	.LFB136:
  82:E:/LiteOS/LiteOS_Lab/iot_link/os/os_imp/liteos/include\list.h **** 
  83:E:/LiteOS/LiteOS_Lab/iot_link/os/os_imp/liteos/include\list.h **** /**
  84:E:/LiteOS/LiteOS_Lab/iot_link/os/os_imp/liteos/include\list.h ****  * dlist_add - add a new entry at the front of the list
  85:E:/LiteOS/LiteOS_Lab/iot_link/os/os_imp/liteos/include\list.h ****  * @new: new entry to be added
  86:E:/LiteOS/LiteOS_Lab/iot_link/os/os_imp/liteos/include\list.h ****  * @head: list head to add it after
  87:E:/LiteOS/LiteOS_Lab/iot_link/os/os_imp/liteos/include\list.h ****  *
  88:E:/LiteOS/LiteOS_Lab/iot_link/os/os_imp/liteos/include\list.h ****  * Insert a new entry after the specified head
  89:E:/LiteOS/LiteOS_Lab/iot_link/os/os_imp/liteos/include\list.h ****  * This is good for implementing stacks
  90:E:/LiteOS/LiteOS_Lab/iot_link/os/os_imp/liteos/include\list.h ****  */
  91:E:/LiteOS/LiteOS_Lab/iot_link/os/os_imp/liteos/include\list.h **** 
  92:E:/LiteOS/LiteOS_Lab/iot_link/os/os_imp/liteos/include\list.h **** static inline void dlist_add (dlist_t * head, dlist_t * new)
  93:E:/LiteOS/LiteOS_Lab/iot_link/os/os_imp/liteos/include\list.h ****     {
  94:E:/LiteOS/LiteOS_Lab/iot_link/os/os_imp/liteos/include\list.h ****     __dlist_add_at (head, head->next, new);
  95:E:/LiteOS/LiteOS_Lab/iot_link/os/os_imp/liteos/include\list.h ****     }
  96:E:/LiteOS/LiteOS_Lab/iot_link/os/os_imp/liteos/include\list.h **** 
  97:E:/LiteOS/LiteOS_Lab/iot_link/os/os_imp/liteos/include\list.h **** /**
ARM GAS  C:\Users\user\AppData\Local\Temp\ccizJgFX.s 			page 5


  98:E:/LiteOS/LiteOS_Lab/iot_link/os/os_imp/liteos/include\list.h ****  * dlist_add_tail - add a new entry at the tail of the list
  99:E:/LiteOS/LiteOS_Lab/iot_link/os/os_imp/liteos/include\list.h ****  * @new: new entry to be added
 100:E:/LiteOS/LiteOS_Lab/iot_link/os/os_imp/liteos/include\list.h ****  * @head: list head to add it before
 101:E:/LiteOS/LiteOS_Lab/iot_link/os/os_imp/liteos/include\list.h ****  *
 102:E:/LiteOS/LiteOS_Lab/iot_link/os/os_imp/liteos/include\list.h ****  * Insert a new entry before the specified head
 103:E:/LiteOS/LiteOS_Lab/iot_link/os/os_imp/liteos/include\list.h ****  * This is useful for implementing queues
 104:E:/LiteOS/LiteOS_Lab/iot_link/os/os_imp/liteos/include\list.h ****  */
 105:E:/LiteOS/LiteOS_Lab/iot_link/os/os_imp/liteos/include\list.h **** 
 106:E:/LiteOS/LiteOS_Lab/iot_link/os/os_imp/liteos/include\list.h **** static inline void dlist_add_tail (dlist_t * head, dlist_t * new)
 107:E:/LiteOS/LiteOS_Lab/iot_link/os/os_imp/liteos/include\list.h ****     {
 137              		.loc 1 107 0
 138              		.cfi_startproc
 139              		@ args = 0, pretend = 0, frame = 8
 140              		@ frame_needed = 1, uses_anonymous_args = 0
 141 0000 80B5     		push	{r7, lr}
 142              	.LCFI12:
 143              		.cfi_def_cfa_offset 8
 144              		.cfi_offset 7, -8
 145              		.cfi_offset 14, -4
 146 0002 82B0     		sub	sp, sp, #8
 147              	.LCFI13:
 148              		.cfi_def_cfa_offset 16
 149 0004 00AF     		add	r7, sp, #0
 150              	.LCFI14:
 151              		.cfi_def_cfa_register 7
 152 0006 7860     		str	r0, [r7, #4]
 153 0008 3960     		str	r1, [r7]
 108:E:/LiteOS/LiteOS_Lab/iot_link/os/os_imp/liteos/include\list.h ****     __dlist_add_at (head->prev, head, new);
 154              		.loc 1 108 0
 155 000a 7B68     		ldr	r3, [r7, #4]
 156 000c 1B68     		ldr	r3, [r3]
 157 000e 3A68     		ldr	r2, [r7]
 158 0010 7968     		ldr	r1, [r7, #4]
 159 0012 1846     		mov	r0, r3
 160 0014 FFF7FEFF 		bl	__dlist_add_at
 109:E:/LiteOS/LiteOS_Lab/iot_link/os/os_imp/liteos/include\list.h ****     }
 161              		.loc 1 109 0
 162 0018 00BF     		nop
 163 001a 0837     		adds	r7, r7, #8
 164              	.LCFI15:
 165              		.cfi_def_cfa_offset 8
 166 001c BD46     		mov	sp, r7
 167              	.LCFI16:
 168              		.cfi_def_cfa_register 13
 169              		@ sp needed
 170 001e 80BD     		pop	{r7, pc}
 171              		.cfi_endproc
 172              	.LFE136:
 174              		.section	.text.dlist_del,"ax",%progbits
 175              		.align	1
 176              		.syntax unified
 177              		.thumb
 178              		.thumb_func
 179              		.fpu fpv4-sp-d16
 181              	dlist_del:
 182              	.LFB137:
 110:E:/LiteOS/LiteOS_Lab/iot_link/os/os_imp/liteos/include\list.h **** 
ARM GAS  C:\Users\user\AppData\Local\Temp\ccizJgFX.s 			page 6


 111:E:/LiteOS/LiteOS_Lab/iot_link/os/os_imp/liteos/include\list.h **** /**
 112:E:/LiteOS/LiteOS_Lab/iot_link/os/os_imp/liteos/include\list.h ****  * dlist_del - deletes entry from list.
 113:E:/LiteOS/LiteOS_Lab/iot_link/os/os_imp/liteos/include\list.h ****  * @entry: the element to delete from the list
 114:E:/LiteOS/LiteOS_Lab/iot_link/os/os_imp/liteos/include\list.h ****  * Note: dlist_empty() on entry does not return true after this, the entry is
 115:E:/LiteOS/LiteOS_Lab/iot_link/os/os_imp/liteos/include\list.h ****  * in an undefined state
 116:E:/LiteOS/LiteOS_Lab/iot_link/os/os_imp/liteos/include\list.h ****  */
 117:E:/LiteOS/LiteOS_Lab/iot_link/os/os_imp/liteos/include\list.h **** 
 118:E:/LiteOS/LiteOS_Lab/iot_link/os/os_imp/liteos/include\list.h **** static inline void dlist_del (dlist_t * node)
 119:E:/LiteOS/LiteOS_Lab/iot_link/os/os_imp/liteos/include\list.h ****     {
 183              		.loc 1 119 0
 184              		.cfi_startproc
 185              		@ args = 0, pretend = 0, frame = 8
 186              		@ frame_needed = 1, uses_anonymous_args = 0
 187              		@ link register save eliminated.
 188 0000 80B4     		push	{r7}
 189              	.LCFI17:
 190              		.cfi_def_cfa_offset 4
 191              		.cfi_offset 7, -4
 192 0002 83B0     		sub	sp, sp, #12
 193              	.LCFI18:
 194              		.cfi_def_cfa_offset 16
 195 0004 00AF     		add	r7, sp, #0
 196              	.LCFI19:
 197              		.cfi_def_cfa_register 7
 198 0006 7860     		str	r0, [r7, #4]
 120:E:/LiteOS/LiteOS_Lab/iot_link/os/os_imp/liteos/include\list.h ****     node->prev->next = node->next;
 199              		.loc 1 120 0
 200 0008 7B68     		ldr	r3, [r7, #4]
 201 000a 1B68     		ldr	r3, [r3]
 202 000c 7A68     		ldr	r2, [r7, #4]
 203 000e 5268     		ldr	r2, [r2, #4]
 204 0010 5A60     		str	r2, [r3, #4]
 121:E:/LiteOS/LiteOS_Lab/iot_link/os/os_imp/liteos/include\list.h ****     node->next->prev = node->prev;
 205              		.loc 1 121 0
 206 0012 7B68     		ldr	r3, [r7, #4]
 207 0014 5B68     		ldr	r3, [r3, #4]
 208 0016 7A68     		ldr	r2, [r7, #4]
 209 0018 1268     		ldr	r2, [r2]
 210 001a 1A60     		str	r2, [r3]
 122:E:/LiteOS/LiteOS_Lab/iot_link/os/os_imp/liteos/include\list.h ****     }
 211              		.loc 1 122 0
 212 001c 00BF     		nop
 213 001e 0C37     		adds	r7, r7, #12
 214              	.LCFI20:
 215              		.cfi_def_cfa_offset 4
 216 0020 BD46     		mov	sp, r7
 217              	.LCFI21:
 218              		.cfi_def_cfa_register 13
 219              		@ sp needed
 220 0022 5DF8047B 		ldr	r7, [sp], #4
 221              	.LCFI22:
 222              		.cfi_restore 7
 223              		.cfi_def_cfa_offset 0
 224 0026 7047     		bx	lr
 225              		.cfi_endproc
 226              	.LFE137:
 228              		.section	.text.dlist_empty,"ax",%progbits
ARM GAS  C:\Users\user\AppData\Local\Temp\ccizJgFX.s 			page 7


 229              		.align	1
 230              		.syntax unified
 231              		.thumb
 232              		.thumb_func
 233              		.fpu fpv4-sp-d16
 235              	dlist_empty:
 236              	.LFB138:
 123:E:/LiteOS/LiteOS_Lab/iot_link/os/os_imp/liteos/include\list.h **** 
 124:E:/LiteOS/LiteOS_Lab/iot_link/os/os_imp/liteos/include\list.h **** /**
 125:E:/LiteOS/LiteOS_Lab/iot_link/os/os_imp/liteos/include\list.h ****  * dlist_empty - check if a list is empty
 126:E:/LiteOS/LiteOS_Lab/iot_link/os/os_imp/liteos/include\list.h ****  * @head: the list head to check
 127:E:/LiteOS/LiteOS_Lab/iot_link/os/os_imp/liteos/include\list.h ****  */
 128:E:/LiteOS/LiteOS_Lab/iot_link/os/os_imp/liteos/include\list.h **** 
 129:E:/LiteOS/LiteOS_Lab/iot_link/os/os_imp/liteos/include\list.h **** static inline int dlist_empty (dlist_t * head)
 130:E:/LiteOS/LiteOS_Lab/iot_link/os/os_imp/liteos/include\list.h ****     {
 237              		.loc 1 130 0
 238              		.cfi_startproc
 239              		@ args = 0, pretend = 0, frame = 8
 240              		@ frame_needed = 1, uses_anonymous_args = 0
 241              		@ link register save eliminated.
 242 0000 80B4     		push	{r7}
 243              	.LCFI23:
 244              		.cfi_def_cfa_offset 4
 245              		.cfi_offset 7, -4
 246 0002 83B0     		sub	sp, sp, #12
 247              	.LCFI24:
 248              		.cfi_def_cfa_offset 16
 249 0004 00AF     		add	r7, sp, #0
 250              	.LCFI25:
 251              		.cfi_def_cfa_register 7
 252 0006 7860     		str	r0, [r7, #4]
 131:E:/LiteOS/LiteOS_Lab/iot_link/os/os_imp/liteos/include\list.h ****     return head->prev == head;
 253              		.loc 1 131 0
 254 0008 7B68     		ldr	r3, [r7, #4]
 255 000a 1B68     		ldr	r3, [r3]
 256 000c 7A68     		ldr	r2, [r7, #4]
 257 000e 9A42     		cmp	r2, r3
 258 0010 0CBF     		ite	eq
 259 0012 0123     		moveq	r3, #1
 260 0014 0023     		movne	r3, #0
 261 0016 DBB2     		uxtb	r3, r3
 132:E:/LiteOS/LiteOS_Lab/iot_link/os/os_imp/liteos/include\list.h ****     }
 262              		.loc 1 132 0
 263 0018 1846     		mov	r0, r3
 264 001a 0C37     		adds	r7, r7, #12
 265              	.LCFI26:
 266              		.cfi_def_cfa_offset 4
 267 001c BD46     		mov	sp, r7
 268              	.LCFI27:
 269              		.cfi_def_cfa_register 13
 270              		@ sp needed
 271 001e 5DF8047B 		ldr	r7, [sp], #4
 272              	.LCFI28:
 273              		.cfi_restore 7
 274              		.cfi_def_cfa_offset 0
 275 0022 7047     		bx	lr
 276              		.cfi_endproc
ARM GAS  C:\Users\user\AppData\Local\Temp\ccizJgFX.s 			page 8


 277              	.LFE138:
 279              		.section	.text.__is_free,"ax",%progbits
 280              		.align	1
 281              		.syntax unified
 282              		.thumb
 283              		.thumb_func
 284              		.fpu fpv4-sp-d16
 286              	__is_free:
 287              	.LFB139:
 288              		.file 2 "E:/LiteOS/LiteOS_Lab/iot_link/os/os_imp/liteos/base/include/chunk.h"
   1:E:/LiteOS/LiteOS_Lab/iot_link/os/os_imp/liteos/base/include\chunk.h **** /*----------------------------------------------------------------------------
   2:E:/LiteOS/LiteOS_Lab/iot_link/os/os_imp/liteos/base/include\chunk.h ****  * Copyright (c) <2018>, <Huawei Technologies Co., Ltd>
   3:E:/LiteOS/LiteOS_Lab/iot_link/os/os_imp/liteos/base/include\chunk.h ****  * All rights reserved.
   4:E:/LiteOS/LiteOS_Lab/iot_link/os/os_imp/liteos/base/include\chunk.h ****  * Redistribution and use in source and binary forms, with or without modification,
   5:E:/LiteOS/LiteOS_Lab/iot_link/os/os_imp/liteos/base/include\chunk.h ****  * are permitted provided that the following conditions are met:
   6:E:/LiteOS/LiteOS_Lab/iot_link/os/os_imp/liteos/base/include\chunk.h ****  * 1. Redistributions of source code must retain the above copyright notice, this list of
   7:E:/LiteOS/LiteOS_Lab/iot_link/os/os_imp/liteos/base/include\chunk.h ****  * conditions and the following disclaimer.
   8:E:/LiteOS/LiteOS_Lab/iot_link/os/os_imp/liteos/base/include\chunk.h ****  * 2. Redistributions in binary form must reproduce the above copyright notice, this list
   9:E:/LiteOS/LiteOS_Lab/iot_link/os/os_imp/liteos/base/include\chunk.h ****  * of conditions and the following disclaimer in the documentation and/or other materials
  10:E:/LiteOS/LiteOS_Lab/iot_link/os/os_imp/liteos/base/include\chunk.h ****  * provided with the distribution.
  11:E:/LiteOS/LiteOS_Lab/iot_link/os/os_imp/liteos/base/include\chunk.h ****  * 3. Neither the name of the copyright holder nor the names of its contributors may be used
  12:E:/LiteOS/LiteOS_Lab/iot_link/os/os_imp/liteos/base/include\chunk.h ****  * to endorse or promote products derived from this software without specific prior written
  13:E:/LiteOS/LiteOS_Lab/iot_link/os/os_imp/liteos/base/include\chunk.h ****  * permission.
  14:E:/LiteOS/LiteOS_Lab/iot_link/os/os_imp/liteos/base/include\chunk.h ****  * THIS SOFTWARE IS PROVIDED BY THE COPYRIGHT HOLDERS AND CONTRIBUTORS
  15:E:/LiteOS/LiteOS_Lab/iot_link/os/os_imp/liteos/base/include\chunk.h ****  * "AS IS" AND ANY EXPRESS OR IMPLIED WARRANTIES, INCLUDING, BUT NOT LIMITED TO,
  16:E:/LiteOS/LiteOS_Lab/iot_link/os/os_imp/liteos/base/include\chunk.h ****  * THE IMPLIED WARRANTIES OF MERCHANTABILITY AND FITNESS FOR A PARTICULAR
  17:E:/LiteOS/LiteOS_Lab/iot_link/os/os_imp/liteos/base/include\chunk.h ****  * PURPOSE ARE DISCLAIMED. IN NO EVENT SHALL THE COPYRIGHT HOLDER OR
  18:E:/LiteOS/LiteOS_Lab/iot_link/os/os_imp/liteos/base/include\chunk.h ****  * CONTRIBUTORS BE LIABLE FOR ANY DIRECT, INDIRECT, INCIDENTAL, SPECIAL,
  19:E:/LiteOS/LiteOS_Lab/iot_link/os/os_imp/liteos/base/include\chunk.h ****  * EXEMPLARY, OR CONSEQUENTIAL DAMAGES (INCLUDING, BUT NOT LIMITED TO,
  20:E:/LiteOS/LiteOS_Lab/iot_link/os/os_imp/liteos/base/include\chunk.h ****  * PROCUREMENT OF SUBSTITUTE GOODS OR SERVICES; LOSS OF USE, DATA, OR PROFITS;
  21:E:/LiteOS/LiteOS_Lab/iot_link/os/os_imp/liteos/base/include\chunk.h ****  * OR BUSINESS INTERRUPTION) HOWEVER CAUSED AND ON ANY THEORY OF LIABILITY,
  22:E:/LiteOS/LiteOS_Lab/iot_link/os/os_imp/liteos/base/include\chunk.h ****  * WHETHER IN CONTRACT, STRICT LIABILITY, OR TORT (INCLUDING NEGLIGENCE OR
  23:E:/LiteOS/LiteOS_Lab/iot_link/os/os_imp/liteos/base/include\chunk.h ****  * OTHERWISE) ARISING IN ANY WAY OUT OF THE USE OF THIS SOFTWARE, EVEN IF
  24:E:/LiteOS/LiteOS_Lab/iot_link/os/os_imp/liteos/base/include\chunk.h ****  * ADVISED OF THE POSSIBILITY OF SUCH DAMAGE.
  25:E:/LiteOS/LiteOS_Lab/iot_link/os/os_imp/liteos/base/include\chunk.h ****  *---------------------------------------------------------------------------*/
  26:E:/LiteOS/LiteOS_Lab/iot_link/os/os_imp/liteos/base/include\chunk.h **** /*----------------------------------------------------------------------------
  27:E:/LiteOS/LiteOS_Lab/iot_link/os/os_imp/liteos/base/include\chunk.h ****  * Notice of Export Control Law
  28:E:/LiteOS/LiteOS_Lab/iot_link/os/os_imp/liteos/base/include\chunk.h ****  * ===============================================
  29:E:/LiteOS/LiteOS_Lab/iot_link/os/os_imp/liteos/base/include\chunk.h ****  * Huawei LiteOS may be subject to applicable export control laws and regulations, which might
  30:E:/LiteOS/LiteOS_Lab/iot_link/os/os_imp/liteos/base/include\chunk.h ****  * include those applicable to Huawei LiteOS of U.S. and the country in which you are located.
  31:E:/LiteOS/LiteOS_Lab/iot_link/os/os_imp/liteos/base/include\chunk.h ****  * Import, export and usage of Huawei LiteOS in any manner by you shall be in compliance with such
  32:E:/LiteOS/LiteOS_Lab/iot_link/os/os_imp/liteos/base/include\chunk.h ****  * applicable export control laws and regulations.
  33:E:/LiteOS/LiteOS_Lab/iot_link/os/os_imp/liteos/base/include\chunk.h ****  *---------------------------------------------------------------------------*/
  34:E:/LiteOS/LiteOS_Lab/iot_link/os/os_imp/liteos/base/include\chunk.h **** 
  35:E:/LiteOS/LiteOS_Lab/iot_link/os/os_imp/liteos/base/include\chunk.h **** #ifndef __CHUNK_H__
  36:E:/LiteOS/LiteOS_Lab/iot_link/os/os_imp/liteos/base/include\chunk.h **** #define __CHUNK_H__
  37:E:/LiteOS/LiteOS_Lab/iot_link/os/os_imp/liteos/base/include\chunk.h **** 
  38:E:/LiteOS/LiteOS_Lab/iot_link/os/os_imp/liteos/base/include\chunk.h **** #include <stddef.h>
  39:E:/LiteOS/LiteOS_Lab/iot_link/os/os_imp/liteos/base/include\chunk.h **** #include <stdint.h>
  40:E:/LiteOS/LiteOS_Lab/iot_link/os/os_imp/liteos/base/include\chunk.h **** 
  41:E:/LiteOS/LiteOS_Lab/iot_link/os/os_imp/liteos/base/include\chunk.h **** #include <list.h>
  42:E:/LiteOS/LiteOS_Lab/iot_link/os/os_imp/liteos/base/include\chunk.h **** 
  43:E:/LiteOS/LiteOS_Lab/iot_link/os/os_imp/liteos/base/include\chunk.h **** #ifndef ALLOC_ALIGN_SIZE
  44:E:/LiteOS/LiteOS_Lab/iot_link/os/os_imp/liteos/base/include\chunk.h **** #define ALLOC_ALIGN_SIZE        (4)
  45:E:/LiteOS/LiteOS_Lab/iot_link/os/os_imp/liteos/base/include\chunk.h **** #endif
  46:E:/LiteOS/LiteOS_Lab/iot_link/os/os_imp/liteos/base/include\chunk.h **** 
  47:E:/LiteOS/LiteOS_Lab/iot_link/os/os_imp/liteos/base/include\chunk.h **** #define ALLOC_ALIGN_MASK        (ALLOC_ALIGN_SIZE - 1)
ARM GAS  C:\Users\user\AppData\Local\Temp\ccizJgFX.s 			page 9


  48:E:/LiteOS/LiteOS_Lab/iot_link/os/os_imp/liteos/base/include\chunk.h **** 
  49:E:/LiteOS/LiteOS_Lab/iot_link/os/os_imp/liteos/base/include\chunk.h **** #define ALLOC_MIN_SIZE          (sizeof (chunk_t) - sizeof (ach_t))
  50:E:/LiteOS/LiteOS_Lab/iot_link/os/os_imp/liteos/base/include\chunk.h **** 
  51:E:/LiteOS/LiteOS_Lab/iot_link/os/os_imp/liteos/base/include\chunk.h **** typedef struct chunk
  52:E:/LiteOS/LiteOS_Lab/iot_link/os/os_imp/liteos/base/include\chunk.h **** {
  53:E:/LiteOS/LiteOS_Lab/iot_link/os/os_imp/liteos/base/include\chunk.h ****     struct chunk * prev;
  54:E:/LiteOS/LiteOS_Lab/iot_link/os/os_imp/liteos/base/include\chunk.h ****     uintptr_t      size;        /* bit[0] means is_allocated */
  55:E:/LiteOS/LiteOS_Lab/iot_link/os/os_imp/liteos/base/include\chunk.h ****     dlist_t        node;        /* used for free chunks only */
  56:E:/LiteOS/LiteOS_Lab/iot_link/os/os_imp/liteos/base/include\chunk.h **** } fch_t, chunk_t;
  57:E:/LiteOS/LiteOS_Lab/iot_link/os/os_imp/liteos/base/include\chunk.h **** 
  58:E:/LiteOS/LiteOS_Lab/iot_link/os/os_imp/liteos/base/include\chunk.h **** typedef struct ach
  59:E:/LiteOS/LiteOS_Lab/iot_link/os/os_imp/liteos/base/include\chunk.h **** {
  60:E:/LiteOS/LiteOS_Lab/iot_link/os/os_imp/liteos/base/include\chunk.h ****     struct chunk * prev;
  61:E:/LiteOS/LiteOS_Lab/iot_link/os/os_imp/liteos/base/include\chunk.h ****     uintptr_t      size;        /* bit[0] means is_allocated */
  62:E:/LiteOS/LiteOS_Lab/iot_link/os/os_imp/liteos/base/include\chunk.h **** } ach_t;
  63:E:/LiteOS/LiteOS_Lab/iot_link/os/os_imp/liteos/base/include\chunk.h **** 
  64:E:/LiteOS/LiteOS_Lab/iot_link/os/os_imp/liteos/base/include\chunk.h **** /* inlines */
  65:E:/LiteOS/LiteOS_Lab/iot_link/os/os_imp/liteos/base/include\chunk.h **** 
  66:E:/LiteOS/LiteOS_Lab/iot_link/os/os_imp/liteos/base/include\chunk.h **** /**
  67:E:/LiteOS/LiteOS_Lab/iot_link/os/os_imp/liteos/base/include\chunk.h ****  * __is_free - check if a chunk is free
  68:E:/LiteOS/LiteOS_Lab/iot_link/os/os_imp/liteos/base/include\chunk.h ****  * @chunk: the given chunk
  69:E:/LiteOS/LiteOS_Lab/iot_link/os/os_imp/liteos/base/include\chunk.h ****  *
  70:E:/LiteOS/LiteOS_Lab/iot_link/os/os_imp/liteos/base/include\chunk.h ****  * return: true if the chunk is free, false if not
  71:E:/LiteOS/LiteOS_Lab/iot_link/os/os_imp/liteos/base/include\chunk.h ****  */
  72:E:/LiteOS/LiteOS_Lab/iot_link/os/os_imp/liteos/base/include\chunk.h **** 
  73:E:/LiteOS/LiteOS_Lab/iot_link/os/os_imp/liteos/base/include\chunk.h **** static inline int __is_free (chunk_t * chunk)
  74:E:/LiteOS/LiteOS_Lab/iot_link/os/os_imp/liteos/base/include\chunk.h **** {
 289              		.loc 2 74 0
 290              		.cfi_startproc
 291              		@ args = 0, pretend = 0, frame = 8
 292              		@ frame_needed = 1, uses_anonymous_args = 0
 293              		@ link register save eliminated.
 294 0000 80B4     		push	{r7}
 295              	.LCFI29:
 296              		.cfi_def_cfa_offset 4
 297              		.cfi_offset 7, -4
 298 0002 83B0     		sub	sp, sp, #12
 299              	.LCFI30:
 300              		.cfi_def_cfa_offset 16
 301 0004 00AF     		add	r7, sp, #0
 302              	.LCFI31:
 303              		.cfi_def_cfa_register 7
 304 0006 7860     		str	r0, [r7, #4]
  75:E:/LiteOS/LiteOS_Lab/iot_link/os/os_imp/liteos/base/include\chunk.h ****     return (chunk->size & 1) == 0;
 305              		.loc 2 75 0
 306 0008 7B68     		ldr	r3, [r7, #4]
 307 000a 5B68     		ldr	r3, [r3, #4]
 308 000c 03F00103 		and	r3, r3, #1
 309 0010 002B     		cmp	r3, #0
 310 0012 0CBF     		ite	eq
 311 0014 0123     		moveq	r3, #1
 312 0016 0023     		movne	r3, #0
 313 0018 DBB2     		uxtb	r3, r3
  76:E:/LiteOS/LiteOS_Lab/iot_link/os/os_imp/liteos/base/include\chunk.h **** }
 314              		.loc 2 76 0
 315 001a 1846     		mov	r0, r3
 316 001c 0C37     		adds	r7, r7, #12
ARM GAS  C:\Users\user\AppData\Local\Temp\ccizJgFX.s 			page 10


 317              	.LCFI32:
 318              		.cfi_def_cfa_offset 4
 319 001e BD46     		mov	sp, r7
 320              	.LCFI33:
 321              		.cfi_def_cfa_register 13
 322              		@ sp needed
 323 0020 5DF8047B 		ldr	r7, [sp], #4
 324              	.LCFI34:
 325              		.cfi_restore 7
 326              		.cfi_def_cfa_offset 0
 327 0024 7047     		bx	lr
 328              		.cfi_endproc
 329              	.LFE139:
 331              		.section	.text.__set_chunk_allocated,"ax",%progbits
 332              		.align	1
 333              		.syntax unified
 334              		.thumb
 335              		.thumb_func
 336              		.fpu fpv4-sp-d16
 338              	__set_chunk_allocated:
 339              	.LFB140:
  77:E:/LiteOS/LiteOS_Lab/iot_link/os/os_imp/liteos/base/include\chunk.h **** 
  78:E:/LiteOS/LiteOS_Lab/iot_link/os/os_imp/liteos/base/include\chunk.h **** /**
  79:E:/LiteOS/LiteOS_Lab/iot_link/os/os_imp/liteos/base/include\chunk.h ****  * __set_chunk_allocated - set a chunk as allocated
  80:E:/LiteOS/LiteOS_Lab/iot_link/os/os_imp/liteos/base/include\chunk.h ****  * @chunk: the given chunk
  81:E:/LiteOS/LiteOS_Lab/iot_link/os/os_imp/liteos/base/include\chunk.h ****  */
  82:E:/LiteOS/LiteOS_Lab/iot_link/os/os_imp/liteos/base/include\chunk.h **** 
  83:E:/LiteOS/LiteOS_Lab/iot_link/os/os_imp/liteos/base/include\chunk.h **** static inline void __set_chunk_allocated (chunk_t * chunk)
  84:E:/LiteOS/LiteOS_Lab/iot_link/os/os_imp/liteos/base/include\chunk.h **** {
 340              		.loc 2 84 0
 341              		.cfi_startproc
 342              		@ args = 0, pretend = 0, frame = 8
 343              		@ frame_needed = 1, uses_anonymous_args = 0
 344              		@ link register save eliminated.
 345 0000 80B4     		push	{r7}
 346              	.LCFI35:
 347              		.cfi_def_cfa_offset 4
 348              		.cfi_offset 7, -4
 349 0002 83B0     		sub	sp, sp, #12
 350              	.LCFI36:
 351              		.cfi_def_cfa_offset 16
 352 0004 00AF     		add	r7, sp, #0
 353              	.LCFI37:
 354              		.cfi_def_cfa_register 7
 355 0006 7860     		str	r0, [r7, #4]
  85:E:/LiteOS/LiteOS_Lab/iot_link/os/os_imp/liteos/base/include\chunk.h ****     chunk->size |= 1;
 356              		.loc 2 85 0
 357 0008 7B68     		ldr	r3, [r7, #4]
 358 000a 5B68     		ldr	r3, [r3, #4]
 359 000c 43F00102 		orr	r2, r3, #1
 360 0010 7B68     		ldr	r3, [r7, #4]
 361 0012 5A60     		str	r2, [r3, #4]
  86:E:/LiteOS/LiteOS_Lab/iot_link/os/os_imp/liteos/base/include\chunk.h **** }
 362              		.loc 2 86 0
 363 0014 00BF     		nop
 364 0016 0C37     		adds	r7, r7, #12
 365              	.LCFI38:
ARM GAS  C:\Users\user\AppData\Local\Temp\ccizJgFX.s 			page 11


 366              		.cfi_def_cfa_offset 4
 367 0018 BD46     		mov	sp, r7
 368              	.LCFI39:
 369              		.cfi_def_cfa_register 13
 370              		@ sp needed
 371 001a 5DF8047B 		ldr	r7, [sp], #4
 372              	.LCFI40:
 373              		.cfi_restore 7
 374              		.cfi_def_cfa_offset 0
 375 001e 7047     		bx	lr
 376              		.cfi_endproc
 377              	.LFE140:
 379              		.section	.text.__set_chunk_free,"ax",%progbits
 380              		.align	1
 381              		.syntax unified
 382              		.thumb
 383              		.thumb_func
 384              		.fpu fpv4-sp-d16
 386              	__set_chunk_free:
 387              	.LFB141:
  87:E:/LiteOS/LiteOS_Lab/iot_link/os/os_imp/liteos/base/include\chunk.h **** 
  88:E:/LiteOS/LiteOS_Lab/iot_link/os/os_imp/liteos/base/include\chunk.h **** /**
  89:E:/LiteOS/LiteOS_Lab/iot_link/os/os_imp/liteos/base/include\chunk.h ****  * __set_chunk_free - set a chunk as free
  90:E:/LiteOS/LiteOS_Lab/iot_link/os/os_imp/liteos/base/include\chunk.h ****  * @chunk: the given chunk
  91:E:/LiteOS/LiteOS_Lab/iot_link/os/os_imp/liteos/base/include\chunk.h ****  */
  92:E:/LiteOS/LiteOS_Lab/iot_link/os/os_imp/liteos/base/include\chunk.h **** 
  93:E:/LiteOS/LiteOS_Lab/iot_link/os/os_imp/liteos/base/include\chunk.h **** static inline void __set_chunk_free (chunk_t * chunk)
  94:E:/LiteOS/LiteOS_Lab/iot_link/os/os_imp/liteos/base/include\chunk.h **** {
 388              		.loc 2 94 0
 389              		.cfi_startproc
 390              		@ args = 0, pretend = 0, frame = 8
 391              		@ frame_needed = 1, uses_anonymous_args = 0
 392              		@ link register save eliminated.
 393 0000 80B4     		push	{r7}
 394              	.LCFI41:
 395              		.cfi_def_cfa_offset 4
 396              		.cfi_offset 7, -4
 397 0002 83B0     		sub	sp, sp, #12
 398              	.LCFI42:
 399              		.cfi_def_cfa_offset 16
 400 0004 00AF     		add	r7, sp, #0
 401              	.LCFI43:
 402              		.cfi_def_cfa_register 7
 403 0006 7860     		str	r0, [r7, #4]
  95:E:/LiteOS/LiteOS_Lab/iot_link/os/os_imp/liteos/base/include\chunk.h ****     chunk->size &= ~1;
 404              		.loc 2 95 0
 405 0008 7B68     		ldr	r3, [r7, #4]
 406 000a 5B68     		ldr	r3, [r3, #4]
 407 000c 23F00102 		bic	r2, r3, #1
 408 0010 7B68     		ldr	r3, [r7, #4]
 409 0012 5A60     		str	r2, [r3, #4]
  96:E:/LiteOS/LiteOS_Lab/iot_link/os/os_imp/liteos/base/include\chunk.h **** }
 410              		.loc 2 96 0
 411 0014 00BF     		nop
 412 0016 0C37     		adds	r7, r7, #12
 413              	.LCFI44:
 414              		.cfi_def_cfa_offset 4
ARM GAS  C:\Users\user\AppData\Local\Temp\ccizJgFX.s 			page 12


 415 0018 BD46     		mov	sp, r7
 416              	.LCFI45:
 417              		.cfi_def_cfa_register 13
 418              		@ sp needed
 419 001a 5DF8047B 		ldr	r7, [sp], #4
 420              	.LCFI46:
 421              		.cfi_restore 7
 422              		.cfi_def_cfa_offset 0
 423 001e 7047     		bx	lr
 424              		.cfi_endproc
 425              	.LFE141:
 427              		.section	.text.__get_next_chunk,"ax",%progbits
 428              		.align	1
 429              		.syntax unified
 430              		.thumb
 431              		.thumb_func
 432              		.fpu fpv4-sp-d16
 434              	__get_next_chunk:
 435              	.LFB142:
  97:E:/LiteOS/LiteOS_Lab/iot_link/os/os_imp/liteos/base/include\chunk.h **** 
  98:E:/LiteOS/LiteOS_Lab/iot_link/os/os_imp/liteos/base/include\chunk.h **** /**
  99:E:/LiteOS/LiteOS_Lab/iot_link/os/os_imp/liteos/base/include\chunk.h ****  * __get_next_chunk - get the next chunk
 100:E:/LiteOS/LiteOS_Lab/iot_link/os/os_imp/liteos/base/include\chunk.h ****  * @chunk: the current chunk
 101:E:/LiteOS/LiteOS_Lab/iot_link/os/os_imp/liteos/base/include\chunk.h ****  *
 102:E:/LiteOS/LiteOS_Lab/iot_link/os/os_imp/liteos/base/include\chunk.h ****  * return: next chunk
 103:E:/LiteOS/LiteOS_Lab/iot_link/os/os_imp/liteos/base/include\chunk.h ****  */
 104:E:/LiteOS/LiteOS_Lab/iot_link/os/os_imp/liteos/base/include\chunk.h **** 
 105:E:/LiteOS/LiteOS_Lab/iot_link/os/os_imp/liteos/base/include\chunk.h **** static inline chunk_t * __get_next_chunk (chunk_t * chunk)
 106:E:/LiteOS/LiteOS_Lab/iot_link/os/os_imp/liteos/base/include\chunk.h **** {
 436              		.loc 2 106 0
 437              		.cfi_startproc
 438              		@ args = 0, pretend = 0, frame = 8
 439              		@ frame_needed = 1, uses_anonymous_args = 0
 440              		@ link register save eliminated.
 441 0000 80B4     		push	{r7}
 442              	.LCFI47:
 443              		.cfi_def_cfa_offset 4
 444              		.cfi_offset 7, -4
 445 0002 83B0     		sub	sp, sp, #12
 446              	.LCFI48:
 447              		.cfi_def_cfa_offset 16
 448 0004 00AF     		add	r7, sp, #0
 449              	.LCFI49:
 450              		.cfi_def_cfa_register 7
 451 0006 7860     		str	r0, [r7, #4]
 107:E:/LiteOS/LiteOS_Lab/iot_link/os/os_imp/liteos/base/include\chunk.h ****     return (chunk_t *) (((char *) chunk) + (chunk->size & ~1));
 452              		.loc 2 107 0
 453 0008 7B68     		ldr	r3, [r7, #4]
 454 000a 5B68     		ldr	r3, [r3, #4]
 455 000c 23F00103 		bic	r3, r3, #1
 456 0010 7A68     		ldr	r2, [r7, #4]
 457 0012 1344     		add	r3, r3, r2
 108:E:/LiteOS/LiteOS_Lab/iot_link/os/os_imp/liteos/base/include\chunk.h **** }
 458              		.loc 2 108 0
 459 0014 1846     		mov	r0, r3
 460 0016 0C37     		adds	r7, r7, #12
 461              	.LCFI50:
ARM GAS  C:\Users\user\AppData\Local\Temp\ccizJgFX.s 			page 13


 462              		.cfi_def_cfa_offset 4
 463 0018 BD46     		mov	sp, r7
 464              	.LCFI51:
 465              		.cfi_def_cfa_register 13
 466              		@ sp needed
 467 001a 5DF8047B 		ldr	r7, [sp], #4
 468              	.LCFI52:
 469              		.cfi_restore 7
 470              		.cfi_def_cfa_offset 0
 471 001e 7047     		bx	lr
 472              		.cfi_endproc
 473              	.LFE142:
 475              		.section	.text.__get_prev_chunk,"ax",%progbits
 476              		.align	1
 477              		.syntax unified
 478              		.thumb
 479              		.thumb_func
 480              		.fpu fpv4-sp-d16
 482              	__get_prev_chunk:
 483              	.LFB143:
 109:E:/LiteOS/LiteOS_Lab/iot_link/os/os_imp/liteos/base/include\chunk.h **** 
 110:E:/LiteOS/LiteOS_Lab/iot_link/os/os_imp/liteos/base/include\chunk.h **** /**
 111:E:/LiteOS/LiteOS_Lab/iot_link/os/os_imp/liteos/base/include\chunk.h ****  * __get_prev_chunk - get the previous chunk
 112:E:/LiteOS/LiteOS_Lab/iot_link/os/os_imp/liteos/base/include\chunk.h ****  * @chunk: the current chunk
 113:E:/LiteOS/LiteOS_Lab/iot_link/os/os_imp/liteos/base/include\chunk.h ****  *
 114:E:/LiteOS/LiteOS_Lab/iot_link/os/os_imp/liteos/base/include\chunk.h ****  * return: previous chunk
 115:E:/LiteOS/LiteOS_Lab/iot_link/os/os_imp/liteos/base/include\chunk.h ****  */
 116:E:/LiteOS/LiteOS_Lab/iot_link/os/os_imp/liteos/base/include\chunk.h **** 
 117:E:/LiteOS/LiteOS_Lab/iot_link/os/os_imp/liteos/base/include\chunk.h **** static inline chunk_t * __get_prev_chunk (chunk_t * chunk)
 118:E:/LiteOS/LiteOS_Lab/iot_link/os/os_imp/liteos/base/include\chunk.h **** {
 484              		.loc 2 118 0
 485              		.cfi_startproc
 486              		@ args = 0, pretend = 0, frame = 8
 487              		@ frame_needed = 1, uses_anonymous_args = 0
 488              		@ link register save eliminated.
 489 0000 80B4     		push	{r7}
 490              	.LCFI53:
 491              		.cfi_def_cfa_offset 4
 492              		.cfi_offset 7, -4
 493 0002 83B0     		sub	sp, sp, #12
 494              	.LCFI54:
 495              		.cfi_def_cfa_offset 16
 496 0004 00AF     		add	r7, sp, #0
 497              	.LCFI55:
 498              		.cfi_def_cfa_register 7
 499 0006 7860     		str	r0, [r7, #4]
 119:E:/LiteOS/LiteOS_Lab/iot_link/os/os_imp/liteos/base/include\chunk.h ****     return chunk->prev;
 500              		.loc 2 119 0
 501 0008 7B68     		ldr	r3, [r7, #4]
 502 000a 1B68     		ldr	r3, [r3]
 120:E:/LiteOS/LiteOS_Lab/iot_link/os/os_imp/liteos/base/include\chunk.h **** }
 503              		.loc 2 120 0
 504 000c 1846     		mov	r0, r3
 505 000e 0C37     		adds	r7, r7, #12
 506              	.LCFI56:
 507              		.cfi_def_cfa_offset 4
 508 0010 BD46     		mov	sp, r7
ARM GAS  C:\Users\user\AppData\Local\Temp\ccizJgFX.s 			page 14


 509              	.LCFI57:
 510              		.cfi_def_cfa_register 13
 511              		@ sp needed
 512 0012 5DF8047B 		ldr	r7, [sp], #4
 513              	.LCFI58:
 514              		.cfi_restore 7
 515              		.cfi_def_cfa_offset 0
 516 0016 7047     		bx	lr
 517              		.cfi_endproc
 518              	.LFE143:
 520              		.section	.text.__get_mem_block,"ax",%progbits
 521              		.align	1
 522              		.syntax unified
 523              		.thumb
 524              		.thumb_func
 525              		.fpu fpv4-sp-d16
 527              	__get_mem_block:
 528              	.LFB144:
 121:E:/LiteOS/LiteOS_Lab/iot_link/os/os_imp/liteos/base/include\chunk.h **** 
 122:E:/LiteOS/LiteOS_Lab/iot_link/os/os_imp/liteos/base/include\chunk.h **** /**
 123:E:/LiteOS/LiteOS_Lab/iot_link/os/os_imp/liteos/base/include\chunk.h ****  * __get_mem_block - get the memory block in a chunk
 124:E:/LiteOS/LiteOS_Lab/iot_link/os/os_imp/liteos/base/include\chunk.h ****  * @chunk: the chunk
 125:E:/LiteOS/LiteOS_Lab/iot_link/os/os_imp/liteos/base/include\chunk.h ****  *
 126:E:/LiteOS/LiteOS_Lab/iot_link/os/os_imp/liteos/base/include\chunk.h ****  * return: the memory block in the chunk
 127:E:/LiteOS/LiteOS_Lab/iot_link/os/os_imp/liteos/base/include\chunk.h ****  */
 128:E:/LiteOS/LiteOS_Lab/iot_link/os/os_imp/liteos/base/include\chunk.h **** 
 129:E:/LiteOS/LiteOS_Lab/iot_link/os/os_imp/liteos/base/include\chunk.h **** static inline char * __get_mem_block (chunk_t * chunk)
 130:E:/LiteOS/LiteOS_Lab/iot_link/os/os_imp/liteos/base/include\chunk.h **** {
 529              		.loc 2 130 0
 530              		.cfi_startproc
 531              		@ args = 0, pretend = 0, frame = 8
 532              		@ frame_needed = 1, uses_anonymous_args = 0
 533              		@ link register save eliminated.
 534 0000 80B4     		push	{r7}
 535              	.LCFI59:
 536              		.cfi_def_cfa_offset 4
 537              		.cfi_offset 7, -4
 538 0002 83B0     		sub	sp, sp, #12
 539              	.LCFI60:
 540              		.cfi_def_cfa_offset 16
 541 0004 00AF     		add	r7, sp, #0
 542              	.LCFI61:
 543              		.cfi_def_cfa_register 7
 544 0006 7860     		str	r0, [r7, #4]
 131:E:/LiteOS/LiteOS_Lab/iot_link/os/os_imp/liteos/base/include\chunk.h ****     return (char *) chunk + sizeof (ach_t);
 545              		.loc 2 131 0
 546 0008 7B68     		ldr	r3, [r7, #4]
 547 000a 0833     		adds	r3, r3, #8
 132:E:/LiteOS/LiteOS_Lab/iot_link/os/os_imp/liteos/base/include\chunk.h **** }
 548              		.loc 2 132 0
 549 000c 1846     		mov	r0, r3
 550 000e 0C37     		adds	r7, r7, #12
 551              	.LCFI62:
 552              		.cfi_def_cfa_offset 4
 553 0010 BD46     		mov	sp, r7
 554              	.LCFI63:
 555              		.cfi_def_cfa_register 13
ARM GAS  C:\Users\user\AppData\Local\Temp\ccizJgFX.s 			page 15


 556              		@ sp needed
 557 0012 5DF8047B 		ldr	r7, [sp], #4
 558              	.LCFI64:
 559              		.cfi_restore 7
 560              		.cfi_def_cfa_offset 0
 561 0016 7047     		bx	lr
 562              		.cfi_endproc
 563              	.LFE144:
 565              		.section	.text.__get_ach_from_mem,"ax",%progbits
 566              		.align	1
 567              		.syntax unified
 568              		.thumb
 569              		.thumb_func
 570              		.fpu fpv4-sp-d16
 572              	__get_ach_from_mem:
 573              	.LFB146:
 133:E:/LiteOS/LiteOS_Lab/iot_link/os/os_imp/liteos/base/include\chunk.h **** 
 134:E:/LiteOS/LiteOS_Lab/iot_link/os/os_imp/liteos/base/include\chunk.h **** /**
 135:E:/LiteOS/LiteOS_Lab/iot_link/os/os_imp/liteos/base/include\chunk.h ****  * __get_fch_from_mem - create a new chunk for a memory block
 136:E:/LiteOS/LiteOS_Lab/iot_link/os/os_imp/liteos/base/include\chunk.h ****  * @mem: the memory block
 137:E:/LiteOS/LiteOS_Lab/iot_link/os/os_imp/liteos/base/include\chunk.h ****  *
 138:E:/LiteOS/LiteOS_Lab/iot_link/os/os_imp/liteos/base/include\chunk.h ****  * return: the new chunk containing the memory block
 139:E:/LiteOS/LiteOS_Lab/iot_link/os/os_imp/liteos/base/include\chunk.h ****  */
 140:E:/LiteOS/LiteOS_Lab/iot_link/os/os_imp/liteos/base/include\chunk.h **** 
 141:E:/LiteOS/LiteOS_Lab/iot_link/os/os_imp/liteos/base/include\chunk.h **** static inline chunk_t * __get_fch_from_mem (char * mem)
 142:E:/LiteOS/LiteOS_Lab/iot_link/os/os_imp/liteos/base/include\chunk.h **** {
 143:E:/LiteOS/LiteOS_Lab/iot_link/os/os_imp/liteos/base/include\chunk.h ****     return &((chunk_t *) mem) [-1];
 144:E:/LiteOS/LiteOS_Lab/iot_link/os/os_imp/liteos/base/include\chunk.h **** }
 145:E:/LiteOS/LiteOS_Lab/iot_link/os/os_imp/liteos/base/include\chunk.h **** 
 146:E:/LiteOS/LiteOS_Lab/iot_link/os/os_imp/liteos/base/include\chunk.h **** /**
 147:E:/LiteOS/LiteOS_Lab/iot_link/os/os_imp/liteos/base/include\chunk.h ****  * __get_ach_from_mem - get the chunk of a allocated memory block
 148:E:/LiteOS/LiteOS_Lab/iot_link/os/os_imp/liteos/base/include\chunk.h ****  * @mem: the memory block
 149:E:/LiteOS/LiteOS_Lab/iot_link/os/os_imp/liteos/base/include\chunk.h ****  *
 150:E:/LiteOS/LiteOS_Lab/iot_link/os/os_imp/liteos/base/include\chunk.h ****  * return: the chunk containing the memory block
 151:E:/LiteOS/LiteOS_Lab/iot_link/os/os_imp/liteos/base/include\chunk.h ****  */
 152:E:/LiteOS/LiteOS_Lab/iot_link/os/os_imp/liteos/base/include\chunk.h **** 
 153:E:/LiteOS/LiteOS_Lab/iot_link/os/os_imp/liteos/base/include\chunk.h **** static inline ach_t * __get_ach_from_mem (char * mem)
 154:E:/LiteOS/LiteOS_Lab/iot_link/os/os_imp/liteos/base/include\chunk.h **** {
 574              		.loc 2 154 0
 575              		.cfi_startproc
 576              		@ args = 0, pretend = 0, frame = 16
 577              		@ frame_needed = 1, uses_anonymous_args = 0
 578              		@ link register save eliminated.
 579 0000 80B4     		push	{r7}
 580              	.LCFI65:
 581              		.cfi_def_cfa_offset 4
 582              		.cfi_offset 7, -4
 583 0002 85B0     		sub	sp, sp, #20
 584              	.LCFI66:
 585              		.cfi_def_cfa_offset 24
 586 0004 00AF     		add	r7, sp, #0
 587              	.LCFI67:
 588              		.cfi_def_cfa_register 7
 589 0006 7860     		str	r0, [r7, #4]
 155:E:/LiteOS/LiteOS_Lab/iot_link/os/os_imp/liteos/base/include\chunk.h ****     uintptr_t szorptr;
 156:E:/LiteOS/LiteOS_Lab/iot_link/os/os_imp/liteos/base/include\chunk.h **** 
 157:E:/LiteOS/LiteOS_Lab/iot_link/os/os_imp/liteos/base/include\chunk.h ****     /*
ARM GAS  C:\Users\user\AppData\Local\Temp\ccizJgFX.s 			page 16


 158:E:/LiteOS/LiteOS_Lab/iot_link/os/os_imp/liteos/base/include\chunk.h ****      * there are two possible cases here:
 159:E:/LiteOS/LiteOS_Lab/iot_link/os/os_imp/liteos/base/include\chunk.h ****      *
 160:E:/LiteOS/LiteOS_Lab/iot_link/os/os_imp/liteos/base/include\chunk.h ****      * 1) chunk->head is just behind the 'mem':
 161:E:/LiteOS/LiteOS_Lab/iot_link/os/os_imp/liteos/base/include\chunk.h ****      *
 162:E:/LiteOS/LiteOS_Lab/iot_link/os/os_imp/liteos/base/include\chunk.h ****      *    +-------------+--------------+
 163:E:/LiteOS/LiteOS_Lab/iot_link/os/os_imp/liteos/base/include\chunk.h ****      *    | prev | size | memory block |
 164:E:/LiteOS/LiteOS_Lab/iot_link/os/os_imp/liteos/base/include\chunk.h ****      *    +-------------+--------------+
 165:E:/LiteOS/LiteOS_Lab/iot_link/os/os_imp/liteos/base/include\chunk.h ****      *
 166:E:/LiteOS/LiteOS_Lab/iot_link/os/os_imp/liteos/base/include\chunk.h ****      * 2) after an aligned alloc, there may extra memory in the front but the
 167:E:/LiteOS/LiteOS_Lab/iot_link/os/os_imp/liteos/base/include\chunk.h ****      *    size is less than sizeof (chunk_t), there will be a pointer in the
 168:E:/LiteOS/LiteOS_Lab/iot_link/os/os_imp/liteos/base/include\chunk.h ****      *    'extra mem':
 169:E:/LiteOS/LiteOS_Lab/iot_link/os/os_imp/liteos/base/include\chunk.h ****      *
 170:E:/LiteOS/LiteOS_Lab/iot_link/os/os_imp/liteos/base/include\chunk.h ****      *    +-------------+-----------+----------------------+
 171:E:/LiteOS/LiteOS_Lab/iot_link/os/os_imp/liteos/base/include\chunk.h ****      *    | prev | size | extra mem | aligned memory block |
 172:E:/LiteOS/LiteOS_Lab/iot_link/os/os_imp/liteos/base/include\chunk.h ****      *    +-------------+-----------+----------------------+
 173:E:/LiteOS/LiteOS_Lab/iot_link/os/os_imp/liteos/base/include\chunk.h ****      *
 174:E:/LiteOS/LiteOS_Lab/iot_link/os/os_imp/liteos/base/include\chunk.h ****      *    please refer to the routine of <__carve_head> for this case
 175:E:/LiteOS/LiteOS_Lab/iot_link/os/os_imp/liteos/base/include\chunk.h ****      *
 176:E:/LiteOS/LiteOS_Lab/iot_link/os/os_imp/liteos/base/include\chunk.h ****      * for both cases, this routine just works fine
 177:E:/LiteOS/LiteOS_Lab/iot_link/os/os_imp/liteos/base/include\chunk.h ****      */
 178:E:/LiteOS/LiteOS_Lab/iot_link/os/os_imp/liteos/base/include\chunk.h **** 
 179:E:/LiteOS/LiteOS_Lab/iot_link/os/os_imp/liteos/base/include\chunk.h ****     szorptr = ((uintptr_t *) mem) [-1];
 590              		.loc 2 179 0
 591 0008 7B68     		ldr	r3, [r7, #4]
 592 000a 53F8043C 		ldr	r3, [r3, #-4]
 593 000e FB60     		str	r3, [r7, #12]
 180:E:/LiteOS/LiteOS_Lab/iot_link/os/os_imp/liteos/base/include\chunk.h **** 
 181:E:/LiteOS/LiteOS_Lab/iot_link/os/os_imp/liteos/base/include\chunk.h ****     if (szorptr & 1)
 594              		.loc 2 181 0
 595 0010 FB68     		ldr	r3, [r7, #12]
 596 0012 03F00103 		and	r3, r3, #1
 597 0016 002B     		cmp	r3, #0
 598 0018 02D0     		beq	.L18
 182:E:/LiteOS/LiteOS_Lab/iot_link/os/os_imp/liteos/base/include\chunk.h ****     {
 183:E:/LiteOS/LiteOS_Lab/iot_link/os/os_imp/liteos/base/include\chunk.h **** 
 184:E:/LiteOS/LiteOS_Lab/iot_link/os/os_imp/liteos/base/include\chunk.h ****         /* case 1, chunk->size */
 185:E:/LiteOS/LiteOS_Lab/iot_link/os/os_imp/liteos/base/include\chunk.h **** 
 186:E:/LiteOS/LiteOS_Lab/iot_link/os/os_imp/liteos/base/include\chunk.h ****         return &((ach_t *) mem) [-1];
 599              		.loc 2 186 0
 600 001a 7B68     		ldr	r3, [r7, #4]
 601 001c 083B     		subs	r3, r3, #8
 602 001e 00E0     		b	.L19
 603              	.L18:
 187:E:/LiteOS/LiteOS_Lab/iot_link/os/os_imp/liteos/base/include\chunk.h ****     }
 188:E:/LiteOS/LiteOS_Lab/iot_link/os/os_imp/liteos/base/include\chunk.h **** 
 189:E:/LiteOS/LiteOS_Lab/iot_link/os/os_imp/liteos/base/include\chunk.h ****     /* case 2, a pointer to the chunk */
 190:E:/LiteOS/LiteOS_Lab/iot_link/os/os_imp/liteos/base/include\chunk.h **** 
 191:E:/LiteOS/LiteOS_Lab/iot_link/os/os_imp/liteos/base/include\chunk.h ****     return (ach_t *) szorptr;
 604              		.loc 2 191 0
 605 0020 FB68     		ldr	r3, [r7, #12]
 606              	.L19:
 192:E:/LiteOS/LiteOS_Lab/iot_link/os/os_imp/liteos/base/include\chunk.h **** }
 607              		.loc 2 192 0
 608 0022 1846     		mov	r0, r3
 609 0024 1437     		adds	r7, r7, #20
 610              	.LCFI68:
 611              		.cfi_def_cfa_offset 4
ARM GAS  C:\Users\user\AppData\Local\Temp\ccizJgFX.s 			page 17


 612 0026 BD46     		mov	sp, r7
 613              	.LCFI69:
 614              		.cfi_def_cfa_register 13
 615              		@ sp needed
 616 0028 5DF8047B 		ldr	r7, [sp], #4
 617              	.LCFI70:
 618              		.cfi_restore 7
 619              		.cfi_def_cfa_offset 0
 620 002c 7047     		bx	lr
 621              		.cfi_endproc
 622              	.LFE146:
 624              		.section	.text.__set_ach_to_mem,"ax",%progbits
 625              		.align	1
 626              		.syntax unified
 627              		.thumb
 628              		.thumb_func
 629              		.fpu fpv4-sp-d16
 631              	__set_ach_to_mem:
 632              	.LFB147:
 193:E:/LiteOS/LiteOS_Lab/iot_link/os/os_imp/liteos/base/include\chunk.h **** 
 194:E:/LiteOS/LiteOS_Lab/iot_link/os/os_imp/liteos/base/include\chunk.h **** /**
 195:E:/LiteOS/LiteOS_Lab/iot_link/os/os_imp/liteos/base/include\chunk.h ****  * __set_ach_to_mem - set chunk in the front of memory block
 196:E:/LiteOS/LiteOS_Lab/iot_link/os/os_imp/liteos/base/include\chunk.h ****  * @mem: the memory block
 197:E:/LiteOS/LiteOS_Lab/iot_link/os/os_imp/liteos/base/include\chunk.h ****  *
 198:E:/LiteOS/LiteOS_Lab/iot_link/os/os_imp/liteos/base/include\chunk.h ****  * return: NA
 199:E:/LiteOS/LiteOS_Lab/iot_link/os/os_imp/liteos/base/include\chunk.h ****  */
 200:E:/LiteOS/LiteOS_Lab/iot_link/os/os_imp/liteos/base/include\chunk.h **** 
 201:E:/LiteOS/LiteOS_Lab/iot_link/os/os_imp/liteos/base/include\chunk.h **** static inline void __set_ach_to_mem (char * mem, chunk_t * chunk)
 202:E:/LiteOS/LiteOS_Lab/iot_link/os/os_imp/liteos/base/include\chunk.h **** {
 633              		.loc 2 202 0
 634              		.cfi_startproc
 635              		@ args = 0, pretend = 0, frame = 8
 636              		@ frame_needed = 1, uses_anonymous_args = 0
 637              		@ link register save eliminated.
 638 0000 80B4     		push	{r7}
 639              	.LCFI71:
 640              		.cfi_def_cfa_offset 4
 641              		.cfi_offset 7, -4
 642 0002 83B0     		sub	sp, sp, #12
 643              	.LCFI72:
 644              		.cfi_def_cfa_offset 16
 645 0004 00AF     		add	r7, sp, #0
 646              	.LCFI73:
 647              		.cfi_def_cfa_register 7
 648 0006 7860     		str	r0, [r7, #4]
 649 0008 3960     		str	r1, [r7]
 203:E:/LiteOS/LiteOS_Lab/iot_link/os/os_imp/liteos/base/include\chunk.h ****     ((chunk_t **) mem) [-1] = chunk;
 650              		.loc 2 203 0
 651 000a 7B68     		ldr	r3, [r7, #4]
 652 000c 043B     		subs	r3, r3, #4
 653 000e 3A68     		ldr	r2, [r7]
 654 0010 1A60     		str	r2, [r3]
 204:E:/LiteOS/LiteOS_Lab/iot_link/os/os_imp/liteos/base/include\chunk.h **** }
 655              		.loc 2 204 0
 656 0012 00BF     		nop
 657 0014 0C37     		adds	r7, r7, #12
 658              	.LCFI74:
ARM GAS  C:\Users\user\AppData\Local\Temp\ccizJgFX.s 			page 18


 659              		.cfi_def_cfa_offset 4
 660 0016 BD46     		mov	sp, r7
 661              	.LCFI75:
 662              		.cfi_def_cfa_register 13
 663              		@ sp needed
 664 0018 5DF8047B 		ldr	r7, [sp], #4
 665              	.LCFI76:
 666              		.cfi_restore 7
 667              		.cfi_def_cfa_offset 0
 668 001c 7047     		bx	lr
 669              		.cfi_endproc
 670              	.LFE147:
 672              		.section	.text.__cm_init,"ax",%progbits
 673              		.align	1
 674              		.syntax unified
 675              		.thumb
 676              		.thumb_func
 677              		.fpu fpv4-sp-d16
 679              	__cm_init:
 680              	.LFB149:
 681              		.file 3 "E:/LiteOS/LiteOS_Lab/iot_link/os/os_imp/liteos/base/include/cm-tlsf.h"
   1:E:/LiteOS/LiteOS_Lab/iot_link/os/os_imp/liteos/base/include\cm-tlsf.h **** /*----------------------------------------------------------------------------
   2:E:/LiteOS/LiteOS_Lab/iot_link/os/os_imp/liteos/base/include\cm-tlsf.h ****  * Copyright (c) <2018>, <Huawei Technologies Co., Ltd>
   3:E:/LiteOS/LiteOS_Lab/iot_link/os/os_imp/liteos/base/include\cm-tlsf.h ****  * All rights reserved.
   4:E:/LiteOS/LiteOS_Lab/iot_link/os/os_imp/liteos/base/include\cm-tlsf.h ****  * Redistribution and use in source and binary forms, with or without modification,
   5:E:/LiteOS/LiteOS_Lab/iot_link/os/os_imp/liteos/base/include\cm-tlsf.h ****  * are permitted provided that the following conditions are met:
   6:E:/LiteOS/LiteOS_Lab/iot_link/os/os_imp/liteos/base/include\cm-tlsf.h ****  * 1. Redistributions of source code must retain the above copyright notice, this list of
   7:E:/LiteOS/LiteOS_Lab/iot_link/os/os_imp/liteos/base/include\cm-tlsf.h ****  * conditions and the following disclaimer.
   8:E:/LiteOS/LiteOS_Lab/iot_link/os/os_imp/liteos/base/include\cm-tlsf.h ****  * 2. Redistributions in binary form must reproduce the above copyright notice, this list
   9:E:/LiteOS/LiteOS_Lab/iot_link/os/os_imp/liteos/base/include\cm-tlsf.h ****  * of conditions and the following disclaimer in the documentation and/or other materials
  10:E:/LiteOS/LiteOS_Lab/iot_link/os/os_imp/liteos/base/include\cm-tlsf.h ****  * provided with the distribution.
  11:E:/LiteOS/LiteOS_Lab/iot_link/os/os_imp/liteos/base/include\cm-tlsf.h ****  * 3. Neither the name of the copyright holder nor the names of its contributors may be used
  12:E:/LiteOS/LiteOS_Lab/iot_link/os/os_imp/liteos/base/include\cm-tlsf.h ****  * to endorse or promote products derived from this software without specific prior written
  13:E:/LiteOS/LiteOS_Lab/iot_link/os/os_imp/liteos/base/include\cm-tlsf.h ****  * permission.
  14:E:/LiteOS/LiteOS_Lab/iot_link/os/os_imp/liteos/base/include\cm-tlsf.h ****  * THIS SOFTWARE IS PROVIDED BY THE COPYRIGHT HOLDERS AND CONTRIBUTORS
  15:E:/LiteOS/LiteOS_Lab/iot_link/os/os_imp/liteos/base/include\cm-tlsf.h ****  * "AS IS" AND ANY EXPRESS OR IMPLIED WARRANTIES, INCLUDING, BUT NOT LIMITED TO,
  16:E:/LiteOS/LiteOS_Lab/iot_link/os/os_imp/liteos/base/include\cm-tlsf.h ****  * THE IMPLIED WARRANTIES OF MERCHANTABILITY AND FITNESS FOR A PARTICULAR
  17:E:/LiteOS/LiteOS_Lab/iot_link/os/os_imp/liteos/base/include\cm-tlsf.h ****  * PURPOSE ARE DISCLAIMED. IN NO EVENT SHALL THE COPYRIGHT HOLDER OR
  18:E:/LiteOS/LiteOS_Lab/iot_link/os/os_imp/liteos/base/include\cm-tlsf.h ****  * CONTRIBUTORS BE LIABLE FOR ANY DIRECT, INDIRECT, INCIDENTAL, SPECIAL,
  19:E:/LiteOS/LiteOS_Lab/iot_link/os/os_imp/liteos/base/include\cm-tlsf.h ****  * EXEMPLARY, OR CONSEQUENTIAL DAMAGES (INCLUDING, BUT NOT LIMITED TO,
  20:E:/LiteOS/LiteOS_Lab/iot_link/os/os_imp/liteos/base/include\cm-tlsf.h ****  * PROCUREMENT OF SUBSTITUTE GOODS OR SERVICES; LOSS OF USE, DATA, OR PROFITS;
  21:E:/LiteOS/LiteOS_Lab/iot_link/os/os_imp/liteos/base/include\cm-tlsf.h ****  * OR BUSINESS INTERRUPTION) HOWEVER CAUSED AND ON ANY THEORY OF LIABILITY,
  22:E:/LiteOS/LiteOS_Lab/iot_link/os/os_imp/liteos/base/include\cm-tlsf.h ****  * WHETHER IN CONTRACT, STRICT LIABILITY, OR TORT (INCLUDING NEGLIGENCE OR
  23:E:/LiteOS/LiteOS_Lab/iot_link/os/os_imp/liteos/base/include\cm-tlsf.h ****  * OTHERWISE) ARISING IN ANY WAY OUT OF THE USE OF THIS SOFTWARE, EVEN IF
  24:E:/LiteOS/LiteOS_Lab/iot_link/os/os_imp/liteos/base/include\cm-tlsf.h ****  * ADVISED OF THE POSSIBILITY OF SUCH DAMAGE.
  25:E:/LiteOS/LiteOS_Lab/iot_link/os/os_imp/liteos/base/include\cm-tlsf.h ****  *---------------------------------------------------------------------------*/
  26:E:/LiteOS/LiteOS_Lab/iot_link/os/os_imp/liteos/base/include\cm-tlsf.h **** /*----------------------------------------------------------------------------
  27:E:/LiteOS/LiteOS_Lab/iot_link/os/os_imp/liteos/base/include\cm-tlsf.h ****  * Notice of Export Control Law
  28:E:/LiteOS/LiteOS_Lab/iot_link/os/os_imp/liteos/base/include\cm-tlsf.h ****  * ===============================================
  29:E:/LiteOS/LiteOS_Lab/iot_link/os/os_imp/liteos/base/include\cm-tlsf.h ****  * Huawei LiteOS may be subject to applicable export control laws and regulations, which might
  30:E:/LiteOS/LiteOS_Lab/iot_link/os/os_imp/liteos/base/include\cm-tlsf.h ****  * include those applicable to Huawei LiteOS of U.S. and the country in which you are located.
  31:E:/LiteOS/LiteOS_Lab/iot_link/os/os_imp/liteos/base/include\cm-tlsf.h ****  * Import, export and usage of Huawei LiteOS in any manner by you shall be in compliance with such
  32:E:/LiteOS/LiteOS_Lab/iot_link/os/os_imp/liteos/base/include\cm-tlsf.h ****  * applicable export control laws and regulations.
  33:E:/LiteOS/LiteOS_Lab/iot_link/os/os_imp/liteos/base/include\cm-tlsf.h ****  *---------------------------------------------------------------------------*/
  34:E:/LiteOS/LiteOS_Lab/iot_link/os/os_imp/liteos/base/include\cm-tlsf.h **** 
  35:E:/LiteOS/LiteOS_Lab/iot_link/os/os_imp/liteos/base/include\cm-tlsf.h **** #ifndef __CM_TLSF_H__
  36:E:/LiteOS/LiteOS_Lab/iot_link/os/os_imp/liteos/base/include\cm-tlsf.h **** #define __CM_TLSF_H__
ARM GAS  C:\Users\user\AppData\Local\Temp\ccizJgFX.s 			page 19


  37:E:/LiteOS/LiteOS_Lab/iot_link/os/os_imp/liteos/base/include\cm-tlsf.h **** 
  38:E:/LiteOS/LiteOS_Lab/iot_link/os/os_imp/liteos/base/include\cm-tlsf.h **** #include <list.h>
  39:E:/LiteOS/LiteOS_Lab/iot_link/os/os_imp/liteos/base/include\cm-tlsf.h **** #include "los_common.h"
  40:E:/LiteOS/LiteOS_Lab/iot_link/os/os_imp/liteos/base/include\cm-tlsf.h **** 
  41:E:/LiteOS/LiteOS_Lab/iot_link/os/os_imp/liteos/base/include\cm-tlsf.h **** #include "chunk.h"
  42:E:/LiteOS/LiteOS_Lab/iot_link/os/os_imp/liteos/base/include\cm-tlsf.h **** 
  43:E:/LiteOS/LiteOS_Lab/iot_link/os/os_imp/liteos/base/include\cm-tlsf.h **** /*
  44:E:/LiteOS/LiteOS_Lab/iot_link/os/os_imp/liteos/base/include\cm-tlsf.h ****  * chunks are inserted to chunk lists in a 2d "chunk_t *" array,
  45:E:/LiteOS/LiteOS_Lab/iot_link/os/os_imp/liteos/base/include\cm-tlsf.h ****  * "chunks [max_nr_fl] [max_nr_sl]" according to their size:
  46:E:/LiteOS/LiteOS_Lab/iot_link/os/os_imp/liteos/base/include\cm-tlsf.h ****  *
  47:E:/LiteOS/LiteOS_Lab/iot_link/os/os_imp/liteos/base/include\cm-tlsf.h ****  * the index in the 1st level is the last (most-significant) bit set:
  48:E:/LiteOS/LiteOS_Lab/iot_link/os/os_imp/liteos/base/include\cm-tlsf.h ****  *
  49:E:/LiteOS/LiteOS_Lab/iot_link/os/os_imp/liteos/base/include\cm-tlsf.h ****  *     fl_idx = fls (size);
  50:E:/LiteOS/LiteOS_Lab/iot_link/os/os_imp/liteos/base/include\cm-tlsf.h ****  *
  51:E:/LiteOS/LiteOS_Lab/iot_link/os/os_imp/liteos/base/include\cm-tlsf.h ****  * the index in the 2nd level is SL_BITS bits followed the bit:
  52:E:/LiteOS/LiteOS_Lab/iot_link/os/os_imp/liteos/base/include\cm-tlsf.h ****  *
  53:E:/LiteOS/LiteOS_Lab/iot_link/os/os_imp/liteos/base/include\cm-tlsf.h ****  *     sl_idx = (size - (1 << fl_idx)) >> (fl_idx - SL_BITS) =
  54:E:/LiteOS/LiteOS_Lab/iot_link/os/os_imp/liteos/base/include\cm-tlsf.h ****  *            = (size >> (fl_idx - SL_BITS)) - (1 << SL_BITS);
  55:E:/LiteOS/LiteOS_Lab/iot_link/os/os_imp/liteos/base/include\cm-tlsf.h ****  *
  56:E:/LiteOS/LiteOS_Lab/iot_link/os/os_imp/liteos/base/include\cm-tlsf.h ****  * given a size with the value of 74, its binary value is:
  57:E:/LiteOS/LiteOS_Lab/iot_link/os/os_imp/liteos/base/include\cm-tlsf.h ****  *
  58:E:/LiteOS/LiteOS_Lab/iot_link/os/os_imp/liteos/base/include\cm-tlsf.h ****  *     size = 74 = 0b01001010:
  59:E:/LiteOS/LiteOS_Lab/iot_link/os/os_imp/liteos/base/include\cm-tlsf.h ****  *
  60:E:/LiteOS/LiteOS_Lab/iot_link/os/os_imp/liteos/base/include\cm-tlsf.h ****  * fl_idx = 6
  61:E:/LiteOS/LiteOS_Lab/iot_link/os/os_imp/liteos/base/include\cm-tlsf.h ****  *          |
  62:E:/LiteOS/LiteOS_Lab/iot_link/os/os_imp/liteos/base/include\cm-tlsf.h ****  *        7 6 5 4 3 2 1 0
  63:E:/LiteOS/LiteOS_Lab/iot_link/os/os_imp/liteos/base/include\cm-tlsf.h ****  *      +-----------------+
  64:E:/LiteOS/LiteOS_Lab/iot_link/os/os_imp/liteos/base/include\cm-tlsf.h ****  *      | 0 1 0 0 1 0 1 0 |
  65:E:/LiteOS/LiteOS_Lab/iot_link/os/os_imp/liteos/base/include\cm-tlsf.h ****  *      +-----------------+
  66:E:/LiteOS/LiteOS_Lab/iot_link/os/os_imp/liteos/base/include\cm-tlsf.h ****  *        7 6 5 4 3 2 1 0
  67:E:/LiteOS/LiteOS_Lab/iot_link/os/os_imp/liteos/base/include\cm-tlsf.h ****  * sl_idx =   0 0          0 if SL_BITS = 2
  68:E:/LiteOS/LiteOS_Lab/iot_link/os/os_imp/liteos/base/include\cm-tlsf.h ****  * sl_idx =   0 0 1        1 if SL_BITS = 3
  69:E:/LiteOS/LiteOS_Lab/iot_link/os/os_imp/liteos/base/include\cm-tlsf.h ****  * sl_idx =   0 0 1 0      2 if SL_BITS = 4
  70:E:/LiteOS/LiteOS_Lab/iot_link/os/os_imp/liteos/base/include\cm-tlsf.h ****  *
  71:E:/LiteOS/LiteOS_Lab/iot_link/os/os_imp/liteos/base/include\cm-tlsf.h ****  * but we only support 2 or 3 as the value of SL_BITS, so sl_bmap can be a
  72:E:/LiteOS/LiteOS_Lab/iot_link/os/os_imp/liteos/base/include\cm-tlsf.h ****  * array of uint8_t
  73:E:/LiteOS/LiteOS_Lab/iot_link/os/os_imp/liteos/base/include\cm-tlsf.h ****  */
  74:E:/LiteOS/LiteOS_Lab/iot_link/os/os_imp/liteos/base/include\cm-tlsf.h **** 
  75:E:/LiteOS/LiteOS_Lab/iot_link/os/os_imp/liteos/base/include\cm-tlsf.h **** #define SL_BITS                 2   /* valid value only 2 or 3 */
  76:E:/LiteOS/LiteOS_Lab/iot_link/os/os_imp/liteos/base/include\cm-tlsf.h **** 
  77:E:/LiteOS/LiteOS_Lab/iot_link/os/os_imp/liteos/base/include\cm-tlsf.h **** /*
  78:E:/LiteOS/LiteOS_Lab/iot_link/os/os_imp/liteos/base/include\cm-tlsf.h ****  * the minimum chunks managed is sizeof (chunk_t) which size is:
  79:E:/LiteOS/LiteOS_Lab/iot_link/os/os_imp/liteos/base/include\cm-tlsf.h ****  *
  80:E:/LiteOS/LiteOS_Lab/iot_link/os/os_imp/liteos/base/include\cm-tlsf.h ****  *     4 * sizeof (uintptr_t)
  81:E:/LiteOS/LiteOS_Lab/iot_link/os/os_imp/liteos/base/include\cm-tlsf.h ****  *
  82:E:/LiteOS/LiteOS_Lab/iot_link/os/os_imp/liteos/base/include\cm-tlsf.h ****  * so fl_idx is always greater or equal to:
  83:E:/LiteOS/LiteOS_Lab/iot_link/os/os_imp/liteos/base/include\cm-tlsf.h ****  *
  84:E:/LiteOS/LiteOS_Lab/iot_link/os/os_imp/liteos/base/include\cm-tlsf.h ****  *     fls (sizeof (chunk_t))
  85:E:/LiteOS/LiteOS_Lab/iot_link/os/os_imp/liteos/base/include\cm-tlsf.h ****  *
  86:E:/LiteOS/LiteOS_Lab/iot_link/os/os_imp/liteos/base/include\cm-tlsf.h ****  * so fl_idx from [0 ~ fls (sizeof (chunk_t)) - 1] will never be used for
  87:E:/LiteOS/LiteOS_Lab/iot_link/os/os_imp/liteos/base/include\cm-tlsf.h ****  * space saving purpose, we use the following index map:
  88:E:/LiteOS/LiteOS_Lab/iot_link/os/os_imp/liteos/base/include\cm-tlsf.h ****  *
  89:E:/LiteOS/LiteOS_Lab/iot_link/os/os_imp/liteos/base/include\cm-tlsf.h ****  *     real idx - fl_idx
  90:E:/LiteOS/LiteOS_Lab/iot_link/os/os_imp/liteos/base/include\cm-tlsf.h ****  *            0 - fls (sizeof (chunk_t))
  91:E:/LiteOS/LiteOS_Lab/iot_link/os/os_imp/liteos/base/include\cm-tlsf.h ****  *            1 - fls (sizeof (chunk_t)) + 1
  92:E:/LiteOS/LiteOS_Lab/iot_link/os/os_imp/liteos/base/include\cm-tlsf.h ****  *          ... - ...
  93:E:/LiteOS/LiteOS_Lab/iot_link/os/os_imp/liteos/base/include\cm-tlsf.h ****  *
ARM GAS  C:\Users\user\AppData\Local\Temp\ccizJgFX.s 			page 20


  94:E:/LiteOS/LiteOS_Lab/iot_link/os/os_imp/liteos/base/include\cm-tlsf.h ****  * so the 'real idx' to fl_idx have a fixed gap (called 'bias' here):
  95:E:/LiteOS/LiteOS_Lab/iot_link/os/os_imp/liteos/base/include\cm-tlsf.h ****  *
  96:E:/LiteOS/LiteOS_Lab/iot_link/os/os_imp/liteos/base/include\cm-tlsf.h ****  *     bias = fls (sizeof (chunk_t)) == log2 (sizeof (chunk_t))
  97:E:/LiteOS/LiteOS_Lab/iot_link/os/os_imp/liteos/base/include\cm-tlsf.h ****  */
  98:E:/LiteOS/LiteOS_Lab/iot_link/os/os_imp/liteos/base/include\cm-tlsf.h **** 
  99:E:/LiteOS/LiteOS_Lab/iot_link/os/os_imp/liteos/base/include\cm-tlsf.h **** enum
 100:E:/LiteOS/LiteOS_Lab/iot_link/os/os_imp/liteos/base/include\cm-tlsf.h **** {
 101:E:/LiteOS/LiteOS_Lab/iot_link/os/os_imp/liteos/base/include\cm-tlsf.h ****     MIN_CHUNK_SIZE_LOG2 = sizeof (chunk_t) ==  8 ? 3    /* 16-bit target */
 102:E:/LiteOS/LiteOS_Lab/iot_link/os/os_imp/liteos/base/include\cm-tlsf.h ****                         : sizeof (chunk_t) == 16 ? 4    /* 32-bit target */
 103:E:/LiteOS/LiteOS_Lab/iot_link/os/os_imp/liteos/base/include\cm-tlsf.h ****                         : sizeof (chunk_t) == 32 ? 5    /* 64-bit target */
 104:E:/LiteOS/LiteOS_Lab/iot_link/os/os_imp/liteos/base/include\cm-tlsf.h ****                         : 0,
 105:E:/LiteOS/LiteOS_Lab/iot_link/os/os_imp/liteos/base/include\cm-tlsf.h **** };
 106:E:/LiteOS/LiteOS_Lab/iot_link/os/os_imp/liteos/base/include\cm-tlsf.h **** 
 107:E:/LiteOS/LiteOS_Lab/iot_link/os/os_imp/liteos/base/include\cm-tlsf.h **** enum
 108:E:/LiteOS/LiteOS_Lab/iot_link/os/os_imp/liteos/base/include\cm-tlsf.h **** {
 109:E:/LiteOS/LiteOS_Lab/iot_link/os/os_imp/liteos/base/include\cm-tlsf.h ****     FL_IDX_MAX_008K = 13,
 110:E:/LiteOS/LiteOS_Lab/iot_link/os/os_imp/liteos/base/include\cm-tlsf.h ****     FL_IDX_MAX_016K,
 111:E:/LiteOS/LiteOS_Lab/iot_link/os/os_imp/liteos/base/include\cm-tlsf.h ****     FL_IDX_MAX_032K,
 112:E:/LiteOS/LiteOS_Lab/iot_link/os/os_imp/liteos/base/include\cm-tlsf.h ****     FL_IDX_MAX_064K,
 113:E:/LiteOS/LiteOS_Lab/iot_link/os/os_imp/liteos/base/include\cm-tlsf.h ****     FL_IDX_MAX_128K,
 114:E:/LiteOS/LiteOS_Lab/iot_link/os/os_imp/liteos/base/include\cm-tlsf.h ****     FL_IDX_MAX_256K,
 115:E:/LiteOS/LiteOS_Lab/iot_link/os/os_imp/liteos/base/include\cm-tlsf.h ****     FL_IDX_MAX_512K,
 116:E:/LiteOS/LiteOS_Lab/iot_link/os/os_imp/liteos/base/include\cm-tlsf.h ****     FL_IDX_MAX_001M,
 117:E:/LiteOS/LiteOS_Lab/iot_link/os/os_imp/liteos/base/include\cm-tlsf.h ****     FL_IDX_MAX_002M,
 118:E:/LiteOS/LiteOS_Lab/iot_link/os/os_imp/liteos/base/include\cm-tlsf.h ****     FL_IDX_MAX_004M,
 119:E:/LiteOS/LiteOS_Lab/iot_link/os/os_imp/liteos/base/include\cm-tlsf.h ****     FL_IDX_MAX_008M,
 120:E:/LiteOS/LiteOS_Lab/iot_link/os/os_imp/liteos/base/include\cm-tlsf.h ****     FL_IDX_MAX_016M,
 121:E:/LiteOS/LiteOS_Lab/iot_link/os/os_imp/liteos/base/include\cm-tlsf.h ****     FL_IDX_MAX_032M,
 122:E:/LiteOS/LiteOS_Lab/iot_link/os/os_imp/liteos/base/include\cm-tlsf.h ****     FL_IDX_MAX_064M,
 123:E:/LiteOS/LiteOS_Lab/iot_link/os/os_imp/liteos/base/include\cm-tlsf.h ****     FL_IDX_MAX_128M,
 124:E:/LiteOS/LiteOS_Lab/iot_link/os/os_imp/liteos/base/include\cm-tlsf.h ****     FL_IDX_MAX_256M,
 125:E:/LiteOS/LiteOS_Lab/iot_link/os/os_imp/liteos/base/include\cm-tlsf.h ****     FL_IDX_MAX_512M,
 126:E:/LiteOS/LiteOS_Lab/iot_link/os/os_imp/liteos/base/include\cm-tlsf.h ****     FL_IDX_MAX_001G,
 127:E:/LiteOS/LiteOS_Lab/iot_link/os/os_imp/liteos/base/include\cm-tlsf.h ****     FL_IDX_MAX_002G,
 128:E:/LiteOS/LiteOS_Lab/iot_link/os/os_imp/liteos/base/include\cm-tlsf.h **** };
 129:E:/LiteOS/LiteOS_Lab/iot_link/os/os_imp/liteos/base/include\cm-tlsf.h **** 
 130:E:/LiteOS/LiteOS_Lab/iot_link/os/os_imp/liteos/base/include\cm-tlsf.h **** #define FL_IDX_MAX              (FL_IDX_MAX_512M)
 131:E:/LiteOS/LiteOS_Lab/iot_link/os/os_imp/liteos/base/include\cm-tlsf.h **** #define FL_IDX_BIAS             (MIN_CHUNK_SIZE_LOG2)
 132:E:/LiteOS/LiteOS_Lab/iot_link/os/os_imp/liteos/base/include\cm-tlsf.h **** #define FL_IDXES                (FL_IDX_MAX - FL_IDX_BIAS)
 133:E:/LiteOS/LiteOS_Lab/iot_link/os/os_imp/liteos/base/include\cm-tlsf.h **** #define SL_IDXES                (1 << SL_BITS)
 134:E:/LiteOS/LiteOS_Lab/iot_link/os/os_imp/liteos/base/include\cm-tlsf.h **** 
 135:E:/LiteOS/LiteOS_Lab/iot_link/os/os_imp/liteos/base/include\cm-tlsf.h **** #define SL_IDX_MAX              (SL_IDXES - 1)
 136:E:/LiteOS/LiteOS_Lab/iot_link/os/os_imp/liteos/base/include\cm-tlsf.h **** 
 137:E:/LiteOS/LiteOS_Lab/iot_link/os/os_imp/liteos/base/include\cm-tlsf.h **** typedef struct chunk_mgr
 138:E:/LiteOS/LiteOS_Lab/iot_link/os/os_imp/liteos/base/include\cm-tlsf.h **** {
 139:E:/LiteOS/LiteOS_Lab/iot_link/os/os_imp/liteos/base/include\cm-tlsf.h ****     uint32_t  fl_bmap;
 140:E:/LiteOS/LiteOS_Lab/iot_link/os/os_imp/liteos/base/include\cm-tlsf.h ****     uint8_t   sl_bmap [FL_IDXES];
 141:E:/LiteOS/LiteOS_Lab/iot_link/os/os_imp/liteos/base/include\cm-tlsf.h ****     chunk_t * chunks  [FL_IDXES] [SL_IDXES];
 142:E:/LiteOS/LiteOS_Lab/iot_link/os/os_imp/liteos/base/include\cm-tlsf.h **** } chunk_mgr_t;
 143:E:/LiteOS/LiteOS_Lab/iot_link/os/os_imp/liteos/base/include\cm-tlsf.h **** 
 144:E:/LiteOS/LiteOS_Lab/iot_link/os/os_imp/liteos/base/include\cm-tlsf.h **** #define CTZ(x)                  (32 - CLZ (~(x) & ((x) - 1)))
 145:E:/LiteOS/LiteOS_Lab/iot_link/os/os_imp/liteos/base/include\cm-tlsf.h **** 
 146:E:/LiteOS/LiteOS_Lab/iot_link/os/os_imp/liteos/base/include\cm-tlsf.h **** /**
 147:E:/LiteOS/LiteOS_Lab/iot_link/os/os_imp/liteos/base/include\cm-tlsf.h ****  * __cm_init - initialize chunk manager
 148:E:/LiteOS/LiteOS_Lab/iot_link/os/os_imp/liteos/base/include\cm-tlsf.h ****  * @cm: the given chunk manager
 149:E:/LiteOS/LiteOS_Lab/iot_link/os/os_imp/liteos/base/include\cm-tlsf.h ****  *
 150:E:/LiteOS/LiteOS_Lab/iot_link/os/os_imp/liteos/base/include\cm-tlsf.h ****  * return: 0 on success, negtive value on error
ARM GAS  C:\Users\user\AppData\Local\Temp\ccizJgFX.s 			page 21


 151:E:/LiteOS/LiteOS_Lab/iot_link/os/os_imp/liteos/base/include\cm-tlsf.h ****  */
 152:E:/LiteOS/LiteOS_Lab/iot_link/os/os_imp/liteos/base/include\cm-tlsf.h **** 
 153:E:/LiteOS/LiteOS_Lab/iot_link/os/os_imp/liteos/base/include\cm-tlsf.h **** static inline int __cm_init (chunk_mgr_t * cm)
 154:E:/LiteOS/LiteOS_Lab/iot_link/os/os_imp/liteos/base/include\cm-tlsf.h **** {
 682              		.loc 3 154 0
 683              		.cfi_startproc
 684              		@ args = 0, pretend = 0, frame = 8
 685              		@ frame_needed = 1, uses_anonymous_args = 0
 686              		@ link register save eliminated.
 687 0000 80B4     		push	{r7}
 688              	.LCFI77:
 689              		.cfi_def_cfa_offset 4
 690              		.cfi_offset 7, -4
 691 0002 83B0     		sub	sp, sp, #12
 692              	.LCFI78:
 693              		.cfi_def_cfa_offset 16
 694 0004 00AF     		add	r7, sp, #0
 695              	.LCFI79:
 696              		.cfi_def_cfa_register 7
 697 0006 7860     		str	r0, [r7, #4]
 155:E:/LiteOS/LiteOS_Lab/iot_link/os/os_imp/liteos/base/include\cm-tlsf.h ****     return 0;
 698              		.loc 3 155 0
 699 0008 0023     		movs	r3, #0
 156:E:/LiteOS/LiteOS_Lab/iot_link/os/os_imp/liteos/base/include\cm-tlsf.h **** }
 700              		.loc 3 156 0
 701 000a 1846     		mov	r0, r3
 702 000c 0C37     		adds	r7, r7, #12
 703              	.LCFI80:
 704              		.cfi_def_cfa_offset 4
 705 000e BD46     		mov	sp, r7
 706              	.LCFI81:
 707              		.cfi_def_cfa_register 13
 708              		@ sp needed
 709 0010 5DF8047B 		ldr	r7, [sp], #4
 710              	.LCFI82:
 711              		.cfi_restore 7
 712              		.cfi_def_cfa_offset 0
 713 0014 7047     		bx	lr
 714              		.cfi_endproc
 715              	.LFE149:
 717              		.section	.text.__get_fl_idx,"ax",%progbits
 718              		.align	1
 719              		.syntax unified
 720              		.thumb
 721              		.thumb_func
 722              		.fpu fpv4-sp-d16
 724              	__get_fl_idx:
 725              	.LFB150:
 157:E:/LiteOS/LiteOS_Lab/iot_link/os/os_imp/liteos/base/include\cm-tlsf.h **** 
 158:E:/LiteOS/LiteOS_Lab/iot_link/os/os_imp/liteos/base/include\cm-tlsf.h **** static inline int __get_fl_idx (size_t size)
 159:E:/LiteOS/LiteOS_Lab/iot_link/os/os_imp/liteos/base/include\cm-tlsf.h **** {
 726              		.loc 3 159 0
 727              		.cfi_startproc
 728              		@ args = 0, pretend = 0, frame = 8
 729              		@ frame_needed = 1, uses_anonymous_args = 0
 730              		@ link register save eliminated.
 731 0000 80B4     		push	{r7}
ARM GAS  C:\Users\user\AppData\Local\Temp\ccizJgFX.s 			page 22


 732              	.LCFI83:
 733              		.cfi_def_cfa_offset 4
 734              		.cfi_offset 7, -4
 735 0002 83B0     		sub	sp, sp, #12
 736              	.LCFI84:
 737              		.cfi_def_cfa_offset 16
 738 0004 00AF     		add	r7, sp, #0
 739              	.LCFI85:
 740              		.cfi_def_cfa_register 7
 741 0006 7860     		str	r0, [r7, #4]
 160:E:/LiteOS/LiteOS_Lab/iot_link/os/os_imp/liteos/base/include\cm-tlsf.h ****     return 31 - CLZ (size);     /* size is never 0 */
 742              		.loc 3 160 0
 743 0008 7B68     		ldr	r3, [r7, #4]
 744 000a B3FA83F3 		clz	r3, r3
 745 000e C3F11F03 		rsb	r3, r3, #31
 161:E:/LiteOS/LiteOS_Lab/iot_link/os/os_imp/liteos/base/include\cm-tlsf.h **** }
 746              		.loc 3 161 0
 747 0012 1846     		mov	r0, r3
 748 0014 0C37     		adds	r7, r7, #12
 749              	.LCFI86:
 750              		.cfi_def_cfa_offset 4
 751 0016 BD46     		mov	sp, r7
 752              	.LCFI87:
 753              		.cfi_def_cfa_register 13
 754              		@ sp needed
 755 0018 5DF8047B 		ldr	r7, [sp], #4
 756              	.LCFI88:
 757              		.cfi_restore 7
 758              		.cfi_def_cfa_offset 0
 759 001c 7047     		bx	lr
 760              		.cfi_endproc
 761              	.LFE150:
 763              		.section	.text.__get_sl_idx,"ax",%progbits
 764              		.align	1
 765              		.syntax unified
 766              		.thumb
 767              		.thumb_func
 768              		.fpu fpv4-sp-d16
 770              	__get_sl_idx:
 771              	.LFB151:
 162:E:/LiteOS/LiteOS_Lab/iot_link/os/os_imp/liteos/base/include\cm-tlsf.h **** 
 163:E:/LiteOS/LiteOS_Lab/iot_link/os/os_imp/liteos/base/include\cm-tlsf.h **** static inline int __get_sl_idx (size_t size, int fl_idx)
 164:E:/LiteOS/LiteOS_Lab/iot_link/os/os_imp/liteos/base/include\cm-tlsf.h **** {
 772              		.loc 3 164 0
 773              		.cfi_startproc
 774              		@ args = 0, pretend = 0, frame = 8
 775              		@ frame_needed = 1, uses_anonymous_args = 0
 776              		@ link register save eliminated.
 777 0000 80B4     		push	{r7}
 778              	.LCFI89:
 779              		.cfi_def_cfa_offset 4
 780              		.cfi_offset 7, -4
 781 0002 83B0     		sub	sp, sp, #12
 782              	.LCFI90:
 783              		.cfi_def_cfa_offset 16
 784 0004 00AF     		add	r7, sp, #0
 785              	.LCFI91:
ARM GAS  C:\Users\user\AppData\Local\Temp\ccizJgFX.s 			page 23


 786              		.cfi_def_cfa_register 7
 787 0006 7860     		str	r0, [r7, #4]
 788 0008 3960     		str	r1, [r7]
 165:E:/LiteOS/LiteOS_Lab/iot_link/os/os_imp/liteos/base/include\cm-tlsf.h ****     return (size >> (fl_idx - SL_BITS)) - (1 << SL_BITS);
 789              		.loc 3 165 0
 790 000a 3B68     		ldr	r3, [r7]
 791 000c 023B     		subs	r3, r3, #2
 792 000e 7A68     		ldr	r2, [r7, #4]
 793 0010 22FA03F3 		lsr	r3, r2, r3
 794 0014 043B     		subs	r3, r3, #4
 166:E:/LiteOS/LiteOS_Lab/iot_link/os/os_imp/liteos/base/include\cm-tlsf.h **** }
 795              		.loc 3 166 0
 796 0016 1846     		mov	r0, r3
 797 0018 0C37     		adds	r7, r7, #12
 798              	.LCFI92:
 799              		.cfi_def_cfa_offset 4
 800 001a BD46     		mov	sp, r7
 801              	.LCFI93:
 802              		.cfi_def_cfa_register 13
 803              		@ sp needed
 804 001c 5DF8047B 		ldr	r7, [sp], #4
 805              	.LCFI94:
 806              		.cfi_restore 7
 807              		.cfi_def_cfa_offset 0
 808 0020 7047     		bx	lr
 809              		.cfi_endproc
 810              	.LFE151:
 812              		.section	.text.__cm_put_chunk,"ax",%progbits
 813              		.align	1
 814              		.syntax unified
 815              		.thumb
 816              		.thumb_func
 817              		.fpu fpv4-sp-d16
 819              	__cm_put_chunk:
 820              	.LFB152:
 167:E:/LiteOS/LiteOS_Lab/iot_link/os/os_imp/liteos/base/include\cm-tlsf.h **** 
 168:E:/LiteOS/LiteOS_Lab/iot_link/os/os_imp/liteos/base/include\cm-tlsf.h **** static inline int __cm_put_chunk (chunk_mgr_t * cm, chunk_t * chunk)
 169:E:/LiteOS/LiteOS_Lab/iot_link/os/os_imp/liteos/base/include\cm-tlsf.h **** {
 821              		.loc 3 169 0
 822              		.cfi_startproc
 823              		@ args = 0, pretend = 0, frame = 16
 824              		@ frame_needed = 1, uses_anonymous_args = 0
 825 0000 80B5     		push	{r7, lr}
 826              	.LCFI95:
 827              		.cfi_def_cfa_offset 8
 828              		.cfi_offset 7, -8
 829              		.cfi_offset 14, -4
 830 0002 84B0     		sub	sp, sp, #16
 831              	.LCFI96:
 832              		.cfi_def_cfa_offset 24
 833 0004 00AF     		add	r7, sp, #0
 834              	.LCFI97:
 835              		.cfi_def_cfa_register 7
 836 0006 7860     		str	r0, [r7, #4]
 837 0008 3960     		str	r1, [r7]
 170:E:/LiteOS/LiteOS_Lab/iot_link/os/os_imp/liteos/base/include\cm-tlsf.h ****     int fl_idx = __get_fl_idx (chunk->size);
 838              		.loc 3 170 0
ARM GAS  C:\Users\user\AppData\Local\Temp\ccizJgFX.s 			page 24


 839 000a 3B68     		ldr	r3, [r7]
 840 000c 5B68     		ldr	r3, [r3, #4]
 841 000e 1846     		mov	r0, r3
 842 0010 FFF7FEFF 		bl	__get_fl_idx
 843 0014 F860     		str	r0, [r7, #12]
 171:E:/LiteOS/LiteOS_Lab/iot_link/os/os_imp/liteos/base/include\cm-tlsf.h ****     int sl_idx = __get_sl_idx (chunk->size, fl_idx);
 844              		.loc 3 171 0
 845 0016 3B68     		ldr	r3, [r7]
 846 0018 5B68     		ldr	r3, [r3, #4]
 847 001a F968     		ldr	r1, [r7, #12]
 848 001c 1846     		mov	r0, r3
 849 001e FFF7FEFF 		bl	__get_sl_idx
 850 0022 B860     		str	r0, [r7, #8]
 172:E:/LiteOS/LiteOS_Lab/iot_link/os/os_imp/liteos/base/include\cm-tlsf.h **** 
 173:E:/LiteOS/LiteOS_Lab/iot_link/os/os_imp/liteos/base/include\cm-tlsf.h ****     if (fl_idx >= FL_IDX_MAX)
 851              		.loc 3 173 0
 852 0024 FB68     		ldr	r3, [r7, #12]
 853 0026 1C2B     		cmp	r3, #28
 854 0028 02DD     		ble	.L28
 174:E:/LiteOS/LiteOS_Lab/iot_link/os/os_imp/liteos/base/include\cm-tlsf.h ****     {
 175:E:/LiteOS/LiteOS_Lab/iot_link/os/os_imp/liteos/base/include\cm-tlsf.h ****         return -1;
 855              		.loc 3 175 0
 856 002a 4FF0FF33 		mov	r3, #-1
 857 002e 49E0     		b	.L29
 858              	.L28:
 176:E:/LiteOS/LiteOS_Lab/iot_link/os/os_imp/liteos/base/include\cm-tlsf.h ****     }
 177:E:/LiteOS/LiteOS_Lab/iot_link/os/os_imp/liteos/base/include\cm-tlsf.h **** 
 178:E:/LiteOS/LiteOS_Lab/iot_link/os/os_imp/liteos/base/include\cm-tlsf.h ****     cm->fl_bmap |= 1 << fl_idx;
 859              		.loc 3 178 0
 860 0030 7B68     		ldr	r3, [r7, #4]
 861 0032 1B68     		ldr	r3, [r3]
 862 0034 0121     		movs	r1, #1
 863 0036 FA68     		ldr	r2, [r7, #12]
 864 0038 01FA02F2 		lsl	r2, r1, r2
 865 003c 1A43     		orrs	r2, r2, r3
 866 003e 7B68     		ldr	r3, [r7, #4]
 867 0040 1A60     		str	r2, [r3]
 179:E:/LiteOS/LiteOS_Lab/iot_link/os/os_imp/liteos/base/include\cm-tlsf.h ****     cm->sl_bmap [fl_idx - FL_IDX_BIAS] |= 1 << sl_idx;
 868              		.loc 3 179 0
 869 0042 FB68     		ldr	r3, [r7, #12]
 870 0044 043B     		subs	r3, r3, #4
 871 0046 7A68     		ldr	r2, [r7, #4]
 872 0048 1344     		add	r3, r3, r2
 873 004a 1B79     		ldrb	r3, [r3, #4]	@ zero_extendqisi2
 874 004c 5AB2     		sxtb	r2, r3
 875 004e 0121     		movs	r1, #1
 876 0050 BB68     		ldr	r3, [r7, #8]
 877 0052 01FA03F3 		lsl	r3, r1, r3
 878 0056 5BB2     		sxtb	r3, r3
 879 0058 1343     		orrs	r3, r3, r2
 880 005a 5AB2     		sxtb	r2, r3
 881 005c FB68     		ldr	r3, [r7, #12]
 882 005e 043B     		subs	r3, r3, #4
 883 0060 D1B2     		uxtb	r1, r2
 884 0062 7A68     		ldr	r2, [r7, #4]
 885 0064 1344     		add	r3, r3, r2
 886 0066 0A46     		mov	r2, r1
ARM GAS  C:\Users\user\AppData\Local\Temp\ccizJgFX.s 			page 25


 887 0068 1A71     		strb	r2, [r3, #4]
 180:E:/LiteOS/LiteOS_Lab/iot_link/os/os_imp/liteos/base/include\cm-tlsf.h **** 
 181:E:/LiteOS/LiteOS_Lab/iot_link/os/os_imp/liteos/base/include\cm-tlsf.h ****     fl_idx -= FL_IDX_BIAS;
 888              		.loc 3 181 0
 889 006a FB68     		ldr	r3, [r7, #12]
 890 006c 043B     		subs	r3, r3, #4
 891 006e FB60     		str	r3, [r7, #12]
 182:E:/LiteOS/LiteOS_Lab/iot_link/os/os_imp/liteos/base/include\cm-tlsf.h **** 
 183:E:/LiteOS/LiteOS_Lab/iot_link/os/os_imp/liteos/base/include\cm-tlsf.h ****     if (cm->chunks [fl_idx][sl_idx] == NULL)
 892              		.loc 3 183 0
 893 0070 7B68     		ldr	r3, [r7, #4]
 894 0072 FA68     		ldr	r2, [r7, #12]
 895 0074 9100     		lsls	r1, r2, #2
 896 0076 BA68     		ldr	r2, [r7, #8]
 897 0078 0A44     		add	r2, r2, r1
 898 007a 0832     		adds	r2, r2, #8
 899 007c 53F82230 		ldr	r3, [r3, r2, lsl #2]
 900 0080 002B     		cmp	r3, #0
 901 0082 0ED1     		bne	.L30
 184:E:/LiteOS/LiteOS_Lab/iot_link/os/os_imp/liteos/base/include\cm-tlsf.h ****     {
 185:E:/LiteOS/LiteOS_Lab/iot_link/os/os_imp/liteos/base/include\cm-tlsf.h ****         dlist_init (&chunk->node);
 902              		.loc 3 185 0
 903 0084 3B68     		ldr	r3, [r7]
 904 0086 0833     		adds	r3, r3, #8
 905 0088 1846     		mov	r0, r3
 906 008a FFF7FEFF 		bl	dlist_init
 186:E:/LiteOS/LiteOS_Lab/iot_link/os/os_imp/liteos/base/include\cm-tlsf.h ****         cm->chunks [fl_idx][sl_idx] = chunk;
 907              		.loc 3 186 0
 908 008e 7B68     		ldr	r3, [r7, #4]
 909 0090 FA68     		ldr	r2, [r7, #12]
 910 0092 9100     		lsls	r1, r2, #2
 911 0094 BA68     		ldr	r2, [r7, #8]
 912 0096 0A44     		add	r2, r2, r1
 913 0098 0832     		adds	r2, r2, #8
 914 009a 3968     		ldr	r1, [r7]
 915 009c 43F82210 		str	r1, [r3, r2, lsl #2]
 916 00a0 0FE0     		b	.L31
 917              	.L30:
 187:E:/LiteOS/LiteOS_Lab/iot_link/os/os_imp/liteos/base/include\cm-tlsf.h ****     }
 188:E:/LiteOS/LiteOS_Lab/iot_link/os/os_imp/liteos/base/include\cm-tlsf.h ****     else
 189:E:/LiteOS/LiteOS_Lab/iot_link/os/os_imp/liteos/base/include\cm-tlsf.h ****     {
 190:E:/LiteOS/LiteOS_Lab/iot_link/os/os_imp/liteos/base/include\cm-tlsf.h ****         dlist_add_tail (&cm->chunks [fl_idx][sl_idx]->node, &chunk->node);
 918              		.loc 3 190 0
 919 00a2 7B68     		ldr	r3, [r7, #4]
 920 00a4 FA68     		ldr	r2, [r7, #12]
 921 00a6 9100     		lsls	r1, r2, #2
 922 00a8 BA68     		ldr	r2, [r7, #8]
 923 00aa 0A44     		add	r2, r2, r1
 924 00ac 0832     		adds	r2, r2, #8
 925 00ae 53F82230 		ldr	r3, [r3, r2, lsl #2]
 926 00b2 03F10802 		add	r2, r3, #8
 927 00b6 3B68     		ldr	r3, [r7]
 928 00b8 0833     		adds	r3, r3, #8
 929 00ba 1946     		mov	r1, r3
 930 00bc 1046     		mov	r0, r2
 931 00be FFF7FEFF 		bl	dlist_add_tail
 932              	.L31:
ARM GAS  C:\Users\user\AppData\Local\Temp\ccizJgFX.s 			page 26


 191:E:/LiteOS/LiteOS_Lab/iot_link/os/os_imp/liteos/base/include\cm-tlsf.h ****     }
 192:E:/LiteOS/LiteOS_Lab/iot_link/os/os_imp/liteos/base/include\cm-tlsf.h **** 
 193:E:/LiteOS/LiteOS_Lab/iot_link/os/os_imp/liteos/base/include\cm-tlsf.h ****     return 0;
 933              		.loc 3 193 0
 934 00c2 0023     		movs	r3, #0
 935              	.L29:
 194:E:/LiteOS/LiteOS_Lab/iot_link/os/os_imp/liteos/base/include\cm-tlsf.h **** }
 936              		.loc 3 194 0
 937 00c4 1846     		mov	r0, r3
 938 00c6 1037     		adds	r7, r7, #16
 939              	.LCFI98:
 940              		.cfi_def_cfa_offset 8
 941 00c8 BD46     		mov	sp, r7
 942              	.LCFI99:
 943              		.cfi_def_cfa_register 13
 944              		@ sp needed
 945 00ca 80BD     		pop	{r7, pc}
 946              		.cfi_endproc
 947              	.LFE152:
 949              		.section	.text.__cm_del_chunk,"ax",%progbits
 950              		.align	1
 951              		.syntax unified
 952              		.thumb
 953              		.thumb_func
 954              		.fpu fpv4-sp-d16
 956              	__cm_del_chunk:
 957              	.LFB153:
 195:E:/LiteOS/LiteOS_Lab/iot_link/os/os_imp/liteos/base/include\cm-tlsf.h **** 
 196:E:/LiteOS/LiteOS_Lab/iot_link/os/os_imp/liteos/base/include\cm-tlsf.h **** /**
 197:E:/LiteOS/LiteOS_Lab/iot_link/os/os_imp/liteos/base/include\cm-tlsf.h ****  * __cm_del_chunk - delete a chunk from a heap (for allocating or merging)
 198:E:/LiteOS/LiteOS_Lab/iot_link/os/os_imp/liteos/base/include\cm-tlsf.h ****  * @heap:  the given heap
 199:E:/LiteOS/LiteOS_Lab/iot_link/os/os_imp/liteos/base/include\cm-tlsf.h ****  * @chunk: the chunk to delete
 200:E:/LiteOS/LiteOS_Lab/iot_link/os/os_imp/liteos/base/include\cm-tlsf.h ****  *
 201:E:/LiteOS/LiteOS_Lab/iot_link/os/os_imp/liteos/base/include\cm-tlsf.h ****  * return: NA
 202:E:/LiteOS/LiteOS_Lab/iot_link/os/os_imp/liteos/base/include\cm-tlsf.h ****  */
 203:E:/LiteOS/LiteOS_Lab/iot_link/os/os_imp/liteos/base/include\cm-tlsf.h **** 
 204:E:/LiteOS/LiteOS_Lab/iot_link/os/os_imp/liteos/base/include\cm-tlsf.h **** static inline void __cm_del_chunk (chunk_mgr_t * cm, chunk_t * chunk)
 205:E:/LiteOS/LiteOS_Lab/iot_link/os/os_imp/liteos/base/include\cm-tlsf.h **** {
 958              		.loc 3 205 0
 959              		.cfi_startproc
 960              		@ args = 0, pretend = 0, frame = 16
 961              		@ frame_needed = 1, uses_anonymous_args = 0
 962 0000 80B5     		push	{r7, lr}
 963              	.LCFI100:
 964              		.cfi_def_cfa_offset 8
 965              		.cfi_offset 7, -8
 966              		.cfi_offset 14, -4
 967 0002 84B0     		sub	sp, sp, #16
 968              	.LCFI101:
 969              		.cfi_def_cfa_offset 24
 970 0004 00AF     		add	r7, sp, #0
 971              	.LCFI102:
 972              		.cfi_def_cfa_register 7
 973 0006 7860     		str	r0, [r7, #4]
 974 0008 3960     		str	r1, [r7]
 206:E:/LiteOS/LiteOS_Lab/iot_link/os/os_imp/liteos/base/include\cm-tlsf.h ****     int fl_idx = __get_fl_idx (chunk->size);
 975              		.loc 3 206 0
ARM GAS  C:\Users\user\AppData\Local\Temp\ccizJgFX.s 			page 27


 976 000a 3B68     		ldr	r3, [r7]
 977 000c 5B68     		ldr	r3, [r3, #4]
 978 000e 1846     		mov	r0, r3
 979 0010 FFF7FEFF 		bl	__get_fl_idx
 980 0014 F860     		str	r0, [r7, #12]
 207:E:/LiteOS/LiteOS_Lab/iot_link/os/os_imp/liteos/base/include\cm-tlsf.h ****     int sl_idx = __get_sl_idx (chunk->size, fl_idx);
 981              		.loc 3 207 0
 982 0016 3B68     		ldr	r3, [r7]
 983 0018 5B68     		ldr	r3, [r3, #4]
 984 001a F968     		ldr	r1, [r7, #12]
 985 001c 1846     		mov	r0, r3
 986 001e FFF7FEFF 		bl	__get_sl_idx
 987 0022 B860     		str	r0, [r7, #8]
 208:E:/LiteOS/LiteOS_Lab/iot_link/os/os_imp/liteos/base/include\cm-tlsf.h **** 
 209:E:/LiteOS/LiteOS_Lab/iot_link/os/os_imp/liteos/base/include\cm-tlsf.h ****     fl_idx -= FL_IDX_BIAS;
 988              		.loc 3 209 0
 989 0024 FB68     		ldr	r3, [r7, #12]
 990 0026 043B     		subs	r3, r3, #4
 991 0028 FB60     		str	r3, [r7, #12]
 210:E:/LiteOS/LiteOS_Lab/iot_link/os/os_imp/liteos/base/include\cm-tlsf.h **** 
 211:E:/LiteOS/LiteOS_Lab/iot_link/os/os_imp/liteos/base/include\cm-tlsf.h ****     if (!dlist_empty (&chunk->node))
 992              		.loc 3 211 0
 993 002a 3B68     		ldr	r3, [r7]
 994 002c 0833     		adds	r3, r3, #8
 995 002e 1846     		mov	r0, r3
 996 0030 FFF7FEFF 		bl	dlist_empty
 997 0034 0346     		mov	r3, r0
 998 0036 002B     		cmp	r3, #0
 999 0038 1CD1     		bne	.L33
 212:E:/LiteOS/LiteOS_Lab/iot_link/os/os_imp/liteos/base/include\cm-tlsf.h ****     {
 213:E:/LiteOS/LiteOS_Lab/iot_link/os/os_imp/liteos/base/include\cm-tlsf.h ****         if (cm->chunks [fl_idx][sl_idx] == chunk)
 1000              		.loc 3 213 0
 1001 003a 7B68     		ldr	r3, [r7, #4]
 1002 003c FA68     		ldr	r2, [r7, #12]
 1003 003e 9100     		lsls	r1, r2, #2
 1004 0040 BA68     		ldr	r2, [r7, #8]
 1005 0042 0A44     		add	r2, r2, r1
 1006 0044 0832     		adds	r2, r2, #8
 1007 0046 53F82230 		ldr	r3, [r3, r2, lsl #2]
 1008 004a 3A68     		ldr	r2, [r7]
 1009 004c 9A42     		cmp	r2, r3
 1010 004e 0BD1     		bne	.L34
 214:E:/LiteOS/LiteOS_Lab/iot_link/os/os_imp/liteos/base/include\cm-tlsf.h ****         {
 215:E:/LiteOS/LiteOS_Lab/iot_link/os/os_imp/liteos/base/include\cm-tlsf.h ****             cm->chunks [fl_idx][sl_idx] = container_of (chunk->node.next, chunk_t, node);
 1011              		.loc 3 215 0
 1012 0050 3B68     		ldr	r3, [r7]
 1013 0052 DB68     		ldr	r3, [r3, #12]
 1014 0054 A3F10801 		sub	r1, r3, #8
 1015 0058 7B68     		ldr	r3, [r7, #4]
 1016 005a FA68     		ldr	r2, [r7, #12]
 1017 005c 9000     		lsls	r0, r2, #2
 1018 005e BA68     		ldr	r2, [r7, #8]
 1019 0060 0244     		add	r2, r2, r0
 1020 0062 0832     		adds	r2, r2, #8
 1021 0064 43F82210 		str	r1, [r3, r2, lsl #2]
 1022              	.L34:
 216:E:/LiteOS/LiteOS_Lab/iot_link/os/os_imp/liteos/base/include\cm-tlsf.h ****         }
ARM GAS  C:\Users\user\AppData\Local\Temp\ccizJgFX.s 			page 28


 217:E:/LiteOS/LiteOS_Lab/iot_link/os/os_imp/liteos/base/include\cm-tlsf.h **** 
 218:E:/LiteOS/LiteOS_Lab/iot_link/os/os_imp/liteos/base/include\cm-tlsf.h ****         dlist_del (&chunk->node);
 1023              		.loc 3 218 0
 1024 0068 3B68     		ldr	r3, [r7]
 1025 006a 0833     		adds	r3, r3, #8
 1026 006c 1846     		mov	r0, r3
 1027 006e FFF7FEFF 		bl	dlist_del
 219:E:/LiteOS/LiteOS_Lab/iot_link/os/os_imp/liteos/base/include\cm-tlsf.h **** 
 220:E:/LiteOS/LiteOS_Lab/iot_link/os/os_imp/liteos/base/include\cm-tlsf.h ****         return;
 1028              		.loc 3 220 0
 1029 0072 30E0     		b	.L32
 1030              	.L33:
 221:E:/LiteOS/LiteOS_Lab/iot_link/os/os_imp/liteos/base/include\cm-tlsf.h ****     }
 222:E:/LiteOS/LiteOS_Lab/iot_link/os/os_imp/liteos/base/include\cm-tlsf.h **** 
 223:E:/LiteOS/LiteOS_Lab/iot_link/os/os_imp/liteos/base/include\cm-tlsf.h ****     cm->chunks [fl_idx][sl_idx] = NULL;
 1031              		.loc 3 223 0
 1032 0074 7B68     		ldr	r3, [r7, #4]
 1033 0076 FA68     		ldr	r2, [r7, #12]
 1034 0078 9100     		lsls	r1, r2, #2
 1035 007a BA68     		ldr	r2, [r7, #8]
 1036 007c 0A44     		add	r2, r2, r1
 1037 007e 0832     		adds	r2, r2, #8
 1038 0080 0021     		movs	r1, #0
 1039 0082 43F82210 		str	r1, [r3, r2, lsl #2]
 224:E:/LiteOS/LiteOS_Lab/iot_link/os/os_imp/liteos/base/include\cm-tlsf.h **** 
 225:E:/LiteOS/LiteOS_Lab/iot_link/os/os_imp/liteos/base/include\cm-tlsf.h ****     cm->sl_bmap [fl_idx] &= ~(1 << sl_idx);
 1040              		.loc 3 225 0
 1041 0086 7A68     		ldr	r2, [r7, #4]
 1042 0088 FB68     		ldr	r3, [r7, #12]
 1043 008a 1344     		add	r3, r3, r2
 1044 008c 0433     		adds	r3, r3, #4
 1045 008e 1B78     		ldrb	r3, [r3]	@ zero_extendqisi2
 1046 0090 5AB2     		sxtb	r2, r3
 1047 0092 0121     		movs	r1, #1
 1048 0094 BB68     		ldr	r3, [r7, #8]
 1049 0096 01FA03F3 		lsl	r3, r1, r3
 1050 009a 5BB2     		sxtb	r3, r3
 1051 009c DB43     		mvns	r3, r3
 1052 009e 5BB2     		sxtb	r3, r3
 1053 00a0 1340     		ands	r3, r3, r2
 1054 00a2 5BB2     		sxtb	r3, r3
 1055 00a4 D9B2     		uxtb	r1, r3
 1056 00a6 7A68     		ldr	r2, [r7, #4]
 1057 00a8 FB68     		ldr	r3, [r7, #12]
 1058 00aa 1344     		add	r3, r3, r2
 1059 00ac 0433     		adds	r3, r3, #4
 1060 00ae 0A46     		mov	r2, r1
 1061 00b0 1A70     		strb	r2, [r3]
 226:E:/LiteOS/LiteOS_Lab/iot_link/os/os_imp/liteos/base/include\cm-tlsf.h **** 
 227:E:/LiteOS/LiteOS_Lab/iot_link/os/os_imp/liteos/base/include\cm-tlsf.h ****     if (cm->sl_bmap [fl_idx] == 0)
 1062              		.loc 3 227 0
 1063 00b2 7A68     		ldr	r2, [r7, #4]
 1064 00b4 FB68     		ldr	r3, [r7, #12]
 1065 00b6 1344     		add	r3, r3, r2
 1066 00b8 0433     		adds	r3, r3, #4
 1067 00ba 1B78     		ldrb	r3, [r3]	@ zero_extendqisi2
 1068 00bc 002B     		cmp	r3, #0
ARM GAS  C:\Users\user\AppData\Local\Temp\ccizJgFX.s 			page 29


 1069 00be 0AD1     		bne	.L32
 228:E:/LiteOS/LiteOS_Lab/iot_link/os/os_imp/liteos/base/include\cm-tlsf.h ****     {
 229:E:/LiteOS/LiteOS_Lab/iot_link/os/os_imp/liteos/base/include\cm-tlsf.h ****         cm->fl_bmap &= ~(1 << (fl_idx + FL_IDX_BIAS));
 1070              		.loc 3 229 0
 1071 00c0 7B68     		ldr	r3, [r7, #4]
 1072 00c2 1B68     		ldr	r3, [r3]
 1073 00c4 FA68     		ldr	r2, [r7, #12]
 1074 00c6 0432     		adds	r2, r2, #4
 1075 00c8 0121     		movs	r1, #1
 1076 00ca 01FA02F2 		lsl	r2, r1, r2
 1077 00ce D243     		mvns	r2, r2
 1078 00d0 1A40     		ands	r2, r2, r3
 1079 00d2 7B68     		ldr	r3, [r7, #4]
 1080 00d4 1A60     		str	r2, [r3]
 1081              	.L32:
 230:E:/LiteOS/LiteOS_Lab/iot_link/os/os_imp/liteos/base/include\cm-tlsf.h ****     }
 231:E:/LiteOS/LiteOS_Lab/iot_link/os/os_imp/liteos/base/include\cm-tlsf.h **** }
 1082              		.loc 3 231 0
 1083 00d6 1037     		adds	r7, r7, #16
 1084              	.LCFI103:
 1085              		.cfi_def_cfa_offset 8
 1086 00d8 BD46     		mov	sp, r7
 1087              	.LCFI104:
 1088              		.cfi_def_cfa_register 13
 1089              		@ sp needed
 1090 00da 80BD     		pop	{r7, pc}
 1091              		.cfi_endproc
 1092              	.LFE153:
 1094              		.section	.text.__cm_get_chunk,"ax",%progbits
 1095              		.align	1
 1096              		.syntax unified
 1097              		.thumb
 1098              		.thumb_func
 1099              		.fpu fpv4-sp-d16
 1101              	__cm_get_chunk:
 1102              	.LFB154:
 232:E:/LiteOS/LiteOS_Lab/iot_link/os/os_imp/liteos/base/include\cm-tlsf.h **** 
 233:E:/LiteOS/LiteOS_Lab/iot_link/os/os_imp/liteos/base/include\cm-tlsf.h **** /**
 234:E:/LiteOS/LiteOS_Lab/iot_link/os/os_imp/liteos/base/include\cm-tlsf.h ****  * __cm_get_chunk - get a proper chunk in the heap
 235:E:/LiteOS/LiteOS_Lab/iot_link/os/os_imp/liteos/base/include\cm-tlsf.h ****  * @heap:  the heap to allocate from
 236:E:/LiteOS/LiteOS_Lab/iot_link/os/os_imp/liteos/base/include\cm-tlsf.h ****  * @bytes: size of memory in bytes to allocate
 237:E:/LiteOS/LiteOS_Lab/iot_link/os/os_imp/liteos/base/include\cm-tlsf.h ****  *
 238:E:/LiteOS/LiteOS_Lab/iot_link/os/os_imp/liteos/base/include\cm-tlsf.h ****  * return: the proper chunk found, or NULL if not found
 239:E:/LiteOS/LiteOS_Lab/iot_link/os/os_imp/liteos/base/include\cm-tlsf.h ****  */
 240:E:/LiteOS/LiteOS_Lab/iot_link/os/os_imp/liteos/base/include\cm-tlsf.h **** 
 241:E:/LiteOS/LiteOS_Lab/iot_link/os/os_imp/liteos/base/include\cm-tlsf.h **** static inline chunk_t * __cm_get_chunk (chunk_mgr_t * cm, size_t bytes)
 242:E:/LiteOS/LiteOS_Lab/iot_link/os/os_imp/liteos/base/include\cm-tlsf.h **** {
 1103              		.loc 3 242 0
 1104              		.cfi_startproc
 1105              		@ args = 0, pretend = 0, frame = 24
 1106              		@ frame_needed = 1, uses_anonymous_args = 0
 1107 0000 80B5     		push	{r7, lr}
 1108              	.LCFI105:
 1109              		.cfi_def_cfa_offset 8
 1110              		.cfi_offset 7, -8
 1111              		.cfi_offset 14, -4
 1112 0002 86B0     		sub	sp, sp, #24
ARM GAS  C:\Users\user\AppData\Local\Temp\ccizJgFX.s 			page 30


 1113              	.LCFI106:
 1114              		.cfi_def_cfa_offset 32
 1115 0004 00AF     		add	r7, sp, #0
 1116              	.LCFI107:
 1117              		.cfi_def_cfa_register 7
 1118 0006 7860     		str	r0, [r7, #4]
 1119 0008 3960     		str	r1, [r7]
 243:E:/LiteOS/LiteOS_Lab/iot_link/os/os_imp/liteos/base/include\cm-tlsf.h ****     int       fl_idx;
 244:E:/LiteOS/LiteOS_Lab/iot_link/os/os_imp/liteos/base/include\cm-tlsf.h ****     int       sl_idx;
 245:E:/LiteOS/LiteOS_Lab/iot_link/os/os_imp/liteos/base/include\cm-tlsf.h ****     uint32_t  fl_bmap;
 246:E:/LiteOS/LiteOS_Lab/iot_link/os/os_imp/liteos/base/include\cm-tlsf.h ****     uint32_t  sl_bmap;
 247:E:/LiteOS/LiteOS_Lab/iot_link/os/os_imp/liteos/base/include\cm-tlsf.h **** 
 248:E:/LiteOS/LiteOS_Lab/iot_link/os/os_imp/liteos/base/include\cm-tlsf.h ****     fl_idx = __get_fl_idx (bytes);
 1120              		.loc 3 248 0
 1121 000a 3868     		ldr	r0, [r7]
 1122 000c FFF7FEFF 		bl	__get_fl_idx
 1123 0010 7861     		str	r0, [r7, #20]
 249:E:/LiteOS/LiteOS_Lab/iot_link/os/os_imp/liteos/base/include\cm-tlsf.h **** 
 250:E:/LiteOS/LiteOS_Lab/iot_link/os/os_imp/liteos/base/include\cm-tlsf.h ****     bytes += (1 << (fl_idx - SL_BITS)) - 1;
 1124              		.loc 3 250 0
 1125 0012 7B69     		ldr	r3, [r7, #20]
 1126 0014 023B     		subs	r3, r3, #2
 1127 0016 0122     		movs	r2, #1
 1128 0018 02FA03F3 		lsl	r3, r2, r3
 1129 001c 1A46     		mov	r2, r3
 1130 001e 3B68     		ldr	r3, [r7]
 1131 0020 1344     		add	r3, r3, r2
 1132 0022 013B     		subs	r3, r3, #1
 1133 0024 3B60     		str	r3, [r7]
 251:E:/LiteOS/LiteOS_Lab/iot_link/os/os_imp/liteos/base/include\cm-tlsf.h **** 
 252:E:/LiteOS/LiteOS_Lab/iot_link/os/os_imp/liteos/base/include\cm-tlsf.h ****     fl_idx = __get_fl_idx (bytes);
 1134              		.loc 3 252 0
 1135 0026 3868     		ldr	r0, [r7]
 1136 0028 FFF7FEFF 		bl	__get_fl_idx
 1137 002c 7861     		str	r0, [r7, #20]
 253:E:/LiteOS/LiteOS_Lab/iot_link/os/os_imp/liteos/base/include\cm-tlsf.h ****     sl_idx = __get_sl_idx (bytes, fl_idx);
 1138              		.loc 3 253 0
 1139 002e 7969     		ldr	r1, [r7, #20]
 1140 0030 3868     		ldr	r0, [r7]
 1141 0032 FFF7FEFF 		bl	__get_sl_idx
 1142 0036 F860     		str	r0, [r7, #12]
 254:E:/LiteOS/LiteOS_Lab/iot_link/os/os_imp/liteos/base/include\cm-tlsf.h **** 
 255:E:/LiteOS/LiteOS_Lab/iot_link/os/os_imp/liteos/base/include\cm-tlsf.h ****     if (fl_idx > FL_IDX_MAX)
 1143              		.loc 3 255 0
 1144 0038 7B69     		ldr	r3, [r7, #20]
 1145 003a 1D2B     		cmp	r3, #29
 1146 003c 01DD     		ble	.L37
 256:E:/LiteOS/LiteOS_Lab/iot_link/os/os_imp/liteos/base/include\cm-tlsf.h ****     {
 257:E:/LiteOS/LiteOS_Lab/iot_link/os/os_imp/liteos/base/include\cm-tlsf.h ****         return NULL;
 1147              		.loc 3 257 0
 1148 003e 0023     		movs	r3, #0
 1149 0040 41E0     		b	.L38
 1150              	.L37:
 258:E:/LiteOS/LiteOS_Lab/iot_link/os/os_imp/liteos/base/include\cm-tlsf.h ****     }
 259:E:/LiteOS/LiteOS_Lab/iot_link/os/os_imp/liteos/base/include\cm-tlsf.h **** 
 260:E:/LiteOS/LiteOS_Lab/iot_link/os/os_imp/liteos/base/include\cm-tlsf.h ****     sl_bmap = cm->sl_bmap [fl_idx - FL_IDX_BIAS] & (0xffffffffu << sl_idx);
 1151              		.loc 3 260 0
ARM GAS  C:\Users\user\AppData\Local\Temp\ccizJgFX.s 			page 31


 1152 0042 7B69     		ldr	r3, [r7, #20]
 1153 0044 043B     		subs	r3, r3, #4
 1154 0046 7A68     		ldr	r2, [r7, #4]
 1155 0048 1344     		add	r3, r3, r2
 1156 004a 1B79     		ldrb	r3, [r3, #4]	@ zero_extendqisi2
 1157 004c 1946     		mov	r1, r3
 1158 004e 4FF0FF32 		mov	r2, #-1
 1159 0052 FB68     		ldr	r3, [r7, #12]
 1160 0054 02FA03F3 		lsl	r3, r2, r3
 1161 0058 0B40     		ands	r3, r3, r1
 1162 005a 3B61     		str	r3, [r7, #16]
 261:E:/LiteOS/LiteOS_Lab/iot_link/os/os_imp/liteos/base/include\cm-tlsf.h **** 
 262:E:/LiteOS/LiteOS_Lab/iot_link/os/os_imp/liteos/base/include\cm-tlsf.h ****     if (sl_bmap == 0)
 1163              		.loc 3 262 0
 1164 005c 3B69     		ldr	r3, [r7, #16]
 1165 005e 002B     		cmp	r3, #0
 1166 0060 1ED1     		bne	.L39
 263:E:/LiteOS/LiteOS_Lab/iot_link/os/os_imp/liteos/base/include\cm-tlsf.h ****     {
 264:E:/LiteOS/LiteOS_Lab/iot_link/os/os_imp/liteos/base/include\cm-tlsf.h ****         fl_bmap = cm->fl_bmap & (0xffffffffu << (fl_idx + 1));
 1167              		.loc 3 264 0
 1168 0062 7B68     		ldr	r3, [r7, #4]
 1169 0064 1A68     		ldr	r2, [r3]
 1170 0066 7B69     		ldr	r3, [r7, #20]
 1171 0068 0133     		adds	r3, r3, #1
 1172 006a 4FF0FF31 		mov	r1, #-1
 1173 006e 01FA03F3 		lsl	r3, r1, r3
 1174 0072 1340     		ands	r3, r3, r2
 1175 0074 BB60     		str	r3, [r7, #8]
 265:E:/LiteOS/LiteOS_Lab/iot_link/os/os_imp/liteos/base/include\cm-tlsf.h **** 
 266:E:/LiteOS/LiteOS_Lab/iot_link/os/os_imp/liteos/base/include\cm-tlsf.h ****         if (fl_bmap == 0)
 1176              		.loc 3 266 0
 1177 0076 BB68     		ldr	r3, [r7, #8]
 1178 0078 002B     		cmp	r3, #0
 1179 007a 01D1     		bne	.L40
 267:E:/LiteOS/LiteOS_Lab/iot_link/os/os_imp/liteos/base/include\cm-tlsf.h ****         {
 268:E:/LiteOS/LiteOS_Lab/iot_link/os/os_imp/liteos/base/include\cm-tlsf.h ****             return NULL;
 1180              		.loc 3 268 0
 1181 007c 0023     		movs	r3, #0
 1182 007e 22E0     		b	.L38
 1183              	.L40:
 269:E:/LiteOS/LiteOS_Lab/iot_link/os/os_imp/liteos/base/include\cm-tlsf.h ****         }
 270:E:/LiteOS/LiteOS_Lab/iot_link/os/os_imp/liteos/base/include\cm-tlsf.h **** 
 271:E:/LiteOS/LiteOS_Lab/iot_link/os/os_imp/liteos/base/include\cm-tlsf.h ****         fl_idx  = CTZ (fl_bmap);
 1184              		.loc 3 271 0
 1185 0080 BB68     		ldr	r3, [r7, #8]
 1186 0082 DA43     		mvns	r2, r3
 1187 0084 BB68     		ldr	r3, [r7, #8]
 1188 0086 013B     		subs	r3, r3, #1
 1189 0088 1340     		ands	r3, r3, r2
 1190 008a B3FA83F3 		clz	r3, r3
 1191 008e C3F12003 		rsb	r3, r3, #32
 1192 0092 7B61     		str	r3, [r7, #20]
 272:E:/LiteOS/LiteOS_Lab/iot_link/os/os_imp/liteos/base/include\cm-tlsf.h ****         sl_bmap = cm->sl_bmap [fl_idx - FL_IDX_BIAS];
 1193              		.loc 3 272 0
 1194 0094 7B69     		ldr	r3, [r7, #20]
 1195 0096 043B     		subs	r3, r3, #4
 1196 0098 7A68     		ldr	r2, [r7, #4]
ARM GAS  C:\Users\user\AppData\Local\Temp\ccizJgFX.s 			page 32


 1197 009a 1344     		add	r3, r3, r2
 1198 009c 1B79     		ldrb	r3, [r3, #4]	@ zero_extendqisi2
 1199 009e 3B61     		str	r3, [r7, #16]
 1200              	.L39:
 273:E:/LiteOS/LiteOS_Lab/iot_link/os/os_imp/liteos/base/include\cm-tlsf.h ****     }
 274:E:/LiteOS/LiteOS_Lab/iot_link/os/os_imp/liteos/base/include\cm-tlsf.h **** 
 275:E:/LiteOS/LiteOS_Lab/iot_link/os/os_imp/liteos/base/include\cm-tlsf.h ****     sl_idx = CTZ (sl_bmap);
 1201              		.loc 3 275 0
 1202 00a0 3B69     		ldr	r3, [r7, #16]
 1203 00a2 DA43     		mvns	r2, r3
 1204 00a4 3B69     		ldr	r3, [r7, #16]
 1205 00a6 013B     		subs	r3, r3, #1
 1206 00a8 1340     		ands	r3, r3, r2
 1207 00aa B3FA83F3 		clz	r3, r3
 1208 00ae C3F12003 		rsb	r3, r3, #32
 1209 00b2 FB60     		str	r3, [r7, #12]
 276:E:/LiteOS/LiteOS_Lab/iot_link/os/os_imp/liteos/base/include\cm-tlsf.h **** 
 277:E:/LiteOS/LiteOS_Lab/iot_link/os/os_imp/liteos/base/include\cm-tlsf.h ****     return cm->chunks [fl_idx - FL_IDX_BIAS] [sl_idx];
 1210              		.loc 3 277 0
 1211 00b4 7B69     		ldr	r3, [r7, #20]
 1212 00b6 1A1F     		subs	r2, r3, #4
 1213 00b8 7B68     		ldr	r3, [r7, #4]
 1214 00ba 9100     		lsls	r1, r2, #2
 1215 00bc FA68     		ldr	r2, [r7, #12]
 1216 00be 0A44     		add	r2, r2, r1
 1217 00c0 0832     		adds	r2, r2, #8
 1218 00c2 53F82230 		ldr	r3, [r3, r2, lsl #2]
 1219              	.L38:
 278:E:/LiteOS/LiteOS_Lab/iot_link/os/os_imp/liteos/base/include\cm-tlsf.h **** }
 1220              		.loc 3 278 0
 1221 00c6 1846     		mov	r0, r3
 1222 00c8 1837     		adds	r7, r7, #24
 1223              	.LCFI108:
 1224              		.cfi_def_cfa_offset 8
 1225 00ca BD46     		mov	sp, r7
 1226              	.LCFI109:
 1227              		.cfi_def_cfa_register 13
 1228              		@ sp needed
 1229 00cc 80BD     		pop	{r7, pc}
 1230              		.cfi_endproc
 1231              	.LFE154:
 1233              		.section	.text.__get_max_free,"ax",%progbits
 1234              		.align	1
 1235              		.syntax unified
 1236              		.thumb
 1237              		.thumb_func
 1238              		.fpu fpv4-sp-d16
 1240              	__get_max_free:
 1241              	.LFB155:
 279:E:/LiteOS/LiteOS_Lab/iot_link/os/os_imp/liteos/base/include\cm-tlsf.h **** 
 280:E:/LiteOS/LiteOS_Lab/iot_link/os/os_imp/liteos/base/include\cm-tlsf.h **** #if (LOSCFG_MEM_STATISTICS == YES)
 281:E:/LiteOS/LiteOS_Lab/iot_link/os/os_imp/liteos/base/include\cm-tlsf.h **** static inline size_t __get_max_free (chunk_mgr_t * cm)
 282:E:/LiteOS/LiteOS_Lab/iot_link/os/os_imp/liteos/base/include\cm-tlsf.h **** {
 1242              		.loc 3 282 0
 1243              		.cfi_startproc
 1244              		@ args = 0, pretend = 0, frame = 32
 1245              		@ frame_needed = 1, uses_anonymous_args = 0
ARM GAS  C:\Users\user\AppData\Local\Temp\ccizJgFX.s 			page 33


 1246              		@ link register save eliminated.
 1247 0000 80B4     		push	{r7}
 1248              	.LCFI110:
 1249              		.cfi_def_cfa_offset 4
 1250              		.cfi_offset 7, -4
 1251 0002 89B0     		sub	sp, sp, #36
 1252              	.LCFI111:
 1253              		.cfi_def_cfa_offset 40
 1254 0004 00AF     		add	r7, sp, #0
 1255              	.LCFI112:
 1256              		.cfi_def_cfa_register 7
 1257 0006 7860     		str	r0, [r7, #4]
 283:E:/LiteOS/LiteOS_Lab/iot_link/os/os_imp/liteos/base/include\cm-tlsf.h ****     int       fl_idx;
 284:E:/LiteOS/LiteOS_Lab/iot_link/os/os_imp/liteos/base/include\cm-tlsf.h ****     int       sl_idx;
 285:E:/LiteOS/LiteOS_Lab/iot_link/os/os_imp/liteos/base/include\cm-tlsf.h ****     dlist_t * itr;
 286:E:/LiteOS/LiteOS_Lab/iot_link/os/os_imp/liteos/base/include\cm-tlsf.h ****     size_t    max;
 287:E:/LiteOS/LiteOS_Lab/iot_link/os/os_imp/liteos/base/include\cm-tlsf.h **** 
 288:E:/LiteOS/LiteOS_Lab/iot_link/os/os_imp/liteos/base/include\cm-tlsf.h ****     if (cm->fl_bmap == 0)
 1258              		.loc 3 288 0
 1259 0008 7B68     		ldr	r3, [r7, #4]
 1260 000a 1B68     		ldr	r3, [r3]
 1261 000c 002B     		cmp	r3, #0
 1262 000e 01D1     		bne	.L42
 289:E:/LiteOS/LiteOS_Lab/iot_link/os/os_imp/liteos/base/include\cm-tlsf.h ****     {
 290:E:/LiteOS/LiteOS_Lab/iot_link/os/os_imp/liteos/base/include\cm-tlsf.h ****         return 0;
 1263              		.loc 3 290 0
 1264 0010 0023     		movs	r3, #0
 1265 0012 4AE0     		b	.L43
 1266              	.L42:
 291:E:/LiteOS/LiteOS_Lab/iot_link/os/os_imp/liteos/base/include\cm-tlsf.h ****     }
 292:E:/LiteOS/LiteOS_Lab/iot_link/os/os_imp/liteos/base/include\cm-tlsf.h **** 
 293:E:/LiteOS/LiteOS_Lab/iot_link/os/os_imp/liteos/base/include\cm-tlsf.h ****     /* find the highest bit in fl_bmap */
 294:E:/LiteOS/LiteOS_Lab/iot_link/os/os_imp/liteos/base/include\cm-tlsf.h **** 
 295:E:/LiteOS/LiteOS_Lab/iot_link/os/os_imp/liteos/base/include\cm-tlsf.h ****     fl_idx = CLZ (1) - CLZ (cm->fl_bmap) - FL_IDX_BIAS;
 1267              		.loc 3 295 0
 1268 0014 7B68     		ldr	r3, [r7, #4]
 1269 0016 1B68     		ldr	r3, [r3]
 1270 0018 B3FA83F3 		clz	r3, r3
 1271 001c C3F11B03 		rsb	r3, r3, #27
 1272 0020 7B61     		str	r3, [r7, #20]
 296:E:/LiteOS/LiteOS_Lab/iot_link/os/os_imp/liteos/base/include\cm-tlsf.h ****     sl_idx = CLZ (1) - CLZ (cm->sl_bmap [fl_idx]);
 1273              		.loc 3 296 0
 1274 0022 7A68     		ldr	r2, [r7, #4]
 1275 0024 7B69     		ldr	r3, [r7, #20]
 1276 0026 1344     		add	r3, r3, r2
 1277 0028 0433     		adds	r3, r3, #4
 1278 002a 1B78     		ldrb	r3, [r3]	@ zero_extendqisi2
 1279 002c B3FA83F3 		clz	r3, r3
 1280 0030 C3F11F03 		rsb	r3, r3, #31
 1281 0034 3B61     		str	r3, [r7, #16]
 297:E:/LiteOS/LiteOS_Lab/iot_link/os/os_imp/liteos/base/include\cm-tlsf.h **** 
 298:E:/LiteOS/LiteOS_Lab/iot_link/os/os_imp/liteos/base/include\cm-tlsf.h ****     if (fl_idx >= FL_IDXES)
 1282              		.loc 3 298 0
 1283 0036 7B69     		ldr	r3, [r7, #20]
 1284 0038 182B     		cmp	r3, #24
 1285 003a 01DD     		ble	.L44
 299:E:/LiteOS/LiteOS_Lab/iot_link/os/os_imp/liteos/base/include\cm-tlsf.h ****     {
ARM GAS  C:\Users\user\AppData\Local\Temp\ccizJgFX.s 			page 34


 300:E:/LiteOS/LiteOS_Lab/iot_link/os/os_imp/liteos/base/include\cm-tlsf.h ****         return 0;
 1286              		.loc 3 300 0
 1287 003c 0023     		movs	r3, #0
 1288 003e 34E0     		b	.L43
 1289              	.L44:
 301:E:/LiteOS/LiteOS_Lab/iot_link/os/os_imp/liteos/base/include\cm-tlsf.h ****     }
 302:E:/LiteOS/LiteOS_Lab/iot_link/os/os_imp/liteos/base/include\cm-tlsf.h **** 
 303:E:/LiteOS/LiteOS_Lab/iot_link/os/os_imp/liteos/base/include\cm-tlsf.h ****     if (sl_idx >= SL_IDXES)
 1290              		.loc 3 303 0
 1291 0040 3B69     		ldr	r3, [r7, #16]
 1292 0042 032B     		cmp	r3, #3
 1293 0044 01DD     		ble	.L45
 304:E:/LiteOS/LiteOS_Lab/iot_link/os/os_imp/liteos/base/include\cm-tlsf.h ****     {
 305:E:/LiteOS/LiteOS_Lab/iot_link/os/os_imp/liteos/base/include\cm-tlsf.h ****         return 0;
 1294              		.loc 3 305 0
 1295 0046 0023     		movs	r3, #0
 1296 0048 2FE0     		b	.L43
 1297              	.L45:
 306:E:/LiteOS/LiteOS_Lab/iot_link/os/os_imp/liteos/base/include\cm-tlsf.h ****     }
 307:E:/LiteOS/LiteOS_Lab/iot_link/os/os_imp/liteos/base/include\cm-tlsf.h **** 
 308:E:/LiteOS/LiteOS_Lab/iot_link/os/os_imp/liteos/base/include\cm-tlsf.h ****     max = (cm->chunks [fl_idx][sl_idx])->size;
 1298              		.loc 3 308 0
 1299 004a 7B68     		ldr	r3, [r7, #4]
 1300 004c 7A69     		ldr	r2, [r7, #20]
 1301 004e 9100     		lsls	r1, r2, #2
 1302 0050 3A69     		ldr	r2, [r7, #16]
 1303 0052 0A44     		add	r2, r2, r1
 1304 0054 0832     		adds	r2, r2, #8
 1305 0056 53F82230 		ldr	r3, [r3, r2, lsl #2]
 1306 005a 5B68     		ldr	r3, [r3, #4]
 1307 005c BB61     		str	r3, [r7, #24]
 309:E:/LiteOS/LiteOS_Lab/iot_link/os/os_imp/liteos/base/include\cm-tlsf.h **** 
 310:E:/LiteOS/LiteOS_Lab/iot_link/os/os_imp/liteos/base/include\cm-tlsf.h ****     dlist_foreach (itr, &cm->chunks [fl_idx][sl_idx]->node)
 1308              		.loc 3 310 0
 1309 005e 7B68     		ldr	r3, [r7, #4]
 1310 0060 7A69     		ldr	r2, [r7, #20]
 1311 0062 9100     		lsls	r1, r2, #2
 1312 0064 3A69     		ldr	r2, [r7, #16]
 1313 0066 0A44     		add	r2, r2, r1
 1314 0068 0832     		adds	r2, r2, #8
 1315 006a 53F82230 		ldr	r3, [r3, r2, lsl #2]
 1316 006e DB68     		ldr	r3, [r3, #12]
 1317 0070 FB61     		str	r3, [r7, #28]
 1318 0072 0DE0     		b	.L46
 1319              	.L48:
 1320              	.LBB2:
 311:E:/LiteOS/LiteOS_Lab/iot_link/os/os_imp/liteos/base/include\cm-tlsf.h ****     {
 312:E:/LiteOS/LiteOS_Lab/iot_link/os/os_imp/liteos/base/include\cm-tlsf.h ****         chunk_t * chunk = container_of (itr, chunk_t, node);
 1321              		.loc 3 312 0
 1322 0074 FB69     		ldr	r3, [r7, #28]
 1323 0076 083B     		subs	r3, r3, #8
 1324 0078 FB60     		str	r3, [r7, #12]
 313:E:/LiteOS/LiteOS_Lab/iot_link/os/os_imp/liteos/base/include\cm-tlsf.h **** 
 314:E:/LiteOS/LiteOS_Lab/iot_link/os/os_imp/liteos/base/include\cm-tlsf.h ****         if (chunk->size > max)
 1325              		.loc 3 314 0
 1326 007a FB68     		ldr	r3, [r7, #12]
 1327 007c 5B68     		ldr	r3, [r3, #4]
ARM GAS  C:\Users\user\AppData\Local\Temp\ccizJgFX.s 			page 35


 1328 007e BA69     		ldr	r2, [r7, #24]
 1329 0080 9A42     		cmp	r2, r3
 1330 0082 02D2     		bcs	.L47
 315:E:/LiteOS/LiteOS_Lab/iot_link/os/os_imp/liteos/base/include\cm-tlsf.h ****         {
 316:E:/LiteOS/LiteOS_Lab/iot_link/os/os_imp/liteos/base/include\cm-tlsf.h ****             max = chunk->size;
 1331              		.loc 3 316 0
 1332 0084 FB68     		ldr	r3, [r7, #12]
 1333 0086 5B68     		ldr	r3, [r3, #4]
 1334 0088 BB61     		str	r3, [r7, #24]
 1335              	.L47:
 1336              	.LBE2:
 310:E:/LiteOS/LiteOS_Lab/iot_link/os/os_imp/liteos/base/include\cm-tlsf.h ****     {
 1337              		.loc 3 310 0 discriminator 2
 1338 008a FB69     		ldr	r3, [r7, #28]
 1339 008c 5B68     		ldr	r3, [r3, #4]
 1340 008e FB61     		str	r3, [r7, #28]
 1341              	.L46:
 310:E:/LiteOS/LiteOS_Lab/iot_link/os/os_imp/liteos/base/include\cm-tlsf.h ****     {
 1342              		.loc 3 310 0 is_stmt 0 discriminator 1
 1343 0090 7B68     		ldr	r3, [r7, #4]
 1344 0092 7A69     		ldr	r2, [r7, #20]
 1345 0094 9100     		lsls	r1, r2, #2
 1346 0096 3A69     		ldr	r2, [r7, #16]
 1347 0098 0A44     		add	r2, r2, r1
 1348 009a 0832     		adds	r2, r2, #8
 1349 009c 53F82230 		ldr	r3, [r3, r2, lsl #2]
 1350 00a0 0833     		adds	r3, r3, #8
 1351 00a2 FA69     		ldr	r2, [r7, #28]
 1352 00a4 9A42     		cmp	r2, r3
 1353 00a6 E5D1     		bne	.L48
 317:E:/LiteOS/LiteOS_Lab/iot_link/os/os_imp/liteos/base/include\cm-tlsf.h ****         }
 318:E:/LiteOS/LiteOS_Lab/iot_link/os/os_imp/liteos/base/include\cm-tlsf.h ****     }
 319:E:/LiteOS/LiteOS_Lab/iot_link/os/os_imp/liteos/base/include\cm-tlsf.h **** 
 320:E:/LiteOS/LiteOS_Lab/iot_link/os/os_imp/liteos/base/include\cm-tlsf.h ****     return max;
 1354              		.loc 3 320 0 is_stmt 1
 1355 00a8 BB69     		ldr	r3, [r7, #24]
 1356              	.L43:
 321:E:/LiteOS/LiteOS_Lab/iot_link/os/os_imp/liteos/base/include\cm-tlsf.h **** }
 1357              		.loc 3 321 0
 1358 00aa 1846     		mov	r0, r3
 1359 00ac 2437     		adds	r7, r7, #36
 1360              	.LCFI113:
 1361              		.cfi_def_cfa_offset 4
 1362 00ae BD46     		mov	sp, r7
 1363              	.LCFI114:
 1364              		.cfi_def_cfa_register 13
 1365              		@ sp needed
 1366 00b0 5DF8047B 		ldr	r7, [sp], #4
 1367              	.LCFI115:
 1368              		.cfi_restore 7
 1369              		.cfi_def_cfa_offset 0
 1370 00b4 7047     		bx	lr
 1371              		.cfi_endproc
 1372              	.LFE155:
 1374              		.section	.text.__stat_chunk_add,"ax",%progbits
 1375              		.align	1
 1376              		.syntax unified
ARM GAS  C:\Users\user\AppData\Local\Temp\ccizJgFX.s 			page 36


 1377              		.thumb
 1378              		.thumb_func
 1379              		.fpu fpv4-sp-d16
 1381              	__stat_chunk_add:
 1382              	.LFB156:
 1383              		.file 4 "E:/LiteOS/LiteOS_Lab/iot_link/os/os_imp/liteos/base/include/heap.h"
   1:E:/LiteOS/LiteOS_Lab/iot_link/os/os_imp/liteos/base/include\heap.h **** /*----------------------------------------------------------------------------
   2:E:/LiteOS/LiteOS_Lab/iot_link/os/os_imp/liteos/base/include\heap.h ****  * Copyright (c) <2018>, <Huawei Technologies Co., Ltd>
   3:E:/LiteOS/LiteOS_Lab/iot_link/os/os_imp/liteos/base/include\heap.h ****  * All rights reserved.
   4:E:/LiteOS/LiteOS_Lab/iot_link/os/os_imp/liteos/base/include\heap.h ****  * Redistribution and use in source and binary forms, with or without modification,
   5:E:/LiteOS/LiteOS_Lab/iot_link/os/os_imp/liteos/base/include\heap.h ****  * are permitted provided that the following conditions are met:
   6:E:/LiteOS/LiteOS_Lab/iot_link/os/os_imp/liteos/base/include\heap.h ****  * 1. Redistributions of source code must retain the above copyright notice, this list of
   7:E:/LiteOS/LiteOS_Lab/iot_link/os/os_imp/liteos/base/include\heap.h ****  * conditions and the following disclaimer.
   8:E:/LiteOS/LiteOS_Lab/iot_link/os/os_imp/liteos/base/include\heap.h ****  * 2. Redistributions in binary form must reproduce the above copyright notice, this list
   9:E:/LiteOS/LiteOS_Lab/iot_link/os/os_imp/liteos/base/include\heap.h ****  * of conditions and the following disclaimer in the documentation and/or other materials
  10:E:/LiteOS/LiteOS_Lab/iot_link/os/os_imp/liteos/base/include\heap.h ****  * provided with the distribution.
  11:E:/LiteOS/LiteOS_Lab/iot_link/os/os_imp/liteos/base/include\heap.h ****  * 3. Neither the name of the copyright holder nor the names of its contributors may be used
  12:E:/LiteOS/LiteOS_Lab/iot_link/os/os_imp/liteos/base/include\heap.h ****  * to endorse or promote products derived from this software without specific prior written
  13:E:/LiteOS/LiteOS_Lab/iot_link/os/os_imp/liteos/base/include\heap.h ****  * permission.
  14:E:/LiteOS/LiteOS_Lab/iot_link/os/os_imp/liteos/base/include\heap.h ****  * THIS SOFTWARE IS PROVIDED BY THE COPYRIGHT HOLDERS AND CONTRIBUTORS
  15:E:/LiteOS/LiteOS_Lab/iot_link/os/os_imp/liteos/base/include\heap.h ****  * "AS IS" AND ANY EXPRESS OR IMPLIED WARRANTIES, INCLUDING, BUT NOT LIMITED TO,
  16:E:/LiteOS/LiteOS_Lab/iot_link/os/os_imp/liteos/base/include\heap.h ****  * THE IMPLIED WARRANTIES OF MERCHANTABILITY AND FITNESS FOR A PARTICULAR
  17:E:/LiteOS/LiteOS_Lab/iot_link/os/os_imp/liteos/base/include\heap.h ****  * PURPOSE ARE DISCLAIMED. IN NO EVENT SHALL THE COPYRIGHT HOLDER OR
  18:E:/LiteOS/LiteOS_Lab/iot_link/os/os_imp/liteos/base/include\heap.h ****  * CONTRIBUTORS BE LIABLE FOR ANY DIRECT, INDIRECT, INCIDENTAL, SPECIAL,
  19:E:/LiteOS/LiteOS_Lab/iot_link/os/os_imp/liteos/base/include\heap.h ****  * EXEMPLARY, OR CONSEQUENTIAL DAMAGES (INCLUDING, BUT NOT LIMITED TO,
  20:E:/LiteOS/LiteOS_Lab/iot_link/os/os_imp/liteos/base/include\heap.h ****  * PROCUREMENT OF SUBSTITUTE GOODS OR SERVICES; LOSS OF USE, DATA, OR PROFITS;
  21:E:/LiteOS/LiteOS_Lab/iot_link/os/os_imp/liteos/base/include\heap.h ****  * OR BUSINESS INTERRUPTION) HOWEVER CAUSED AND ON ANY THEORY OF LIABILITY,
  22:E:/LiteOS/LiteOS_Lab/iot_link/os/os_imp/liteos/base/include\heap.h ****  * WHETHER IN CONTRACT, STRICT LIABILITY, OR TORT (INCLUDING NEGLIGENCE OR
  23:E:/LiteOS/LiteOS_Lab/iot_link/os/os_imp/liteos/base/include\heap.h ****  * OTHERWISE) ARISING IN ANY WAY OUT OF THE USE OF THIS SOFTWARE, EVEN IF
  24:E:/LiteOS/LiteOS_Lab/iot_link/os/os_imp/liteos/base/include\heap.h ****  * ADVISED OF THE POSSIBILITY OF SUCH DAMAGE.
  25:E:/LiteOS/LiteOS_Lab/iot_link/os/os_imp/liteos/base/include\heap.h ****  *---------------------------------------------------------------------------*/
  26:E:/LiteOS/LiteOS_Lab/iot_link/os/os_imp/liteos/base/include\heap.h **** /*----------------------------------------------------------------------------
  27:E:/LiteOS/LiteOS_Lab/iot_link/os/os_imp/liteos/base/include\heap.h ****  * Notice of Export Control Law
  28:E:/LiteOS/LiteOS_Lab/iot_link/os/os_imp/liteos/base/include\heap.h ****  * ===============================================
  29:E:/LiteOS/LiteOS_Lab/iot_link/os/os_imp/liteos/base/include\heap.h ****  * Huawei LiteOS may be subject to applicable export control laws and regulations, which might
  30:E:/LiteOS/LiteOS_Lab/iot_link/os/os_imp/liteos/base/include\heap.h ****  * include those applicable to Huawei LiteOS of U.S. and the country in which you are located.
  31:E:/LiteOS/LiteOS_Lab/iot_link/os/os_imp/liteos/base/include\heap.h ****  * Import, export and usage of Huawei LiteOS in any manner by you shall be in compliance with such
  32:E:/LiteOS/LiteOS_Lab/iot_link/os/os_imp/liteos/base/include\heap.h ****  * applicable export control laws and regulations.
  33:E:/LiteOS/LiteOS_Lab/iot_link/os/os_imp/liteos/base/include\heap.h ****  *---------------------------------------------------------------------------*/
  34:E:/LiteOS/LiteOS_Lab/iot_link/os/os_imp/liteos/base/include\heap.h **** 
  35:E:/LiteOS/LiteOS_Lab/iot_link/os/os_imp/liteos/base/include\heap.h **** #ifndef __HEAP_H__
  36:E:/LiteOS/LiteOS_Lab/iot_link/os/os_imp/liteos/base/include\heap.h **** #define __HEAP_H__
  37:E:/LiteOS/LiteOS_Lab/iot_link/os/os_imp/liteos/base/include\heap.h **** 
  38:E:/LiteOS/LiteOS_Lab/iot_link/os/os_imp/liteos/base/include\heap.h **** #include <los_config.h>
  39:E:/LiteOS/LiteOS_Lab/iot_link/os/os_imp/liteos/base/include\heap.h **** 
  40:E:/LiteOS/LiteOS_Lab/iot_link/os/os_imp/liteos/base/include\heap.h **** #include <stddef.h>
  41:E:/LiteOS/LiteOS_Lab/iot_link/os/os_imp/liteos/base/include\heap.h **** #include <stdbool.h>
  42:E:/LiteOS/LiteOS_Lab/iot_link/os/os_imp/liteos/base/include\heap.h **** 
  43:E:/LiteOS/LiteOS_Lab/iot_link/os/os_imp/liteos/base/include\heap.h **** #include <los_mux.h>
  44:E:/LiteOS/LiteOS_Lab/iot_link/os/os_imp/liteos/base/include\heap.h **** 
  45:E:/LiteOS/LiteOS_Lab/iot_link/os/os_imp/liteos/base/include\heap.h **** #include <los_slab.ph>
  46:E:/LiteOS/LiteOS_Lab/iot_link/os/os_imp/liteos/base/include\heap.h **** 
  47:E:/LiteOS/LiteOS_Lab/iot_link/os/os_imp/liteos/base/include\heap.h **** #include "chunk.h"
  48:E:/LiteOS/LiteOS_Lab/iot_link/os/os_imp/liteos/base/include\heap.h **** 
  49:E:/LiteOS/LiteOS_Lab/iot_link/os/os_imp/liteos/base/include\heap.h **** #if !defined (LOSCFG_CONFIG_CM_TLSF) && !defined (LOSCFG_CONFIG_CM_BESTFIT)
  50:E:/LiteOS/LiteOS_Lab/iot_link/os/os_imp/liteos/base/include\heap.h **** #define LOSCFG_CONFIG_CM_BESTFIT
  51:E:/LiteOS/LiteOS_Lab/iot_link/os/os_imp/liteos/base/include\heap.h **** #endif
ARM GAS  C:\Users\user\AppData\Local\Temp\ccizJgFX.s 			page 37


  52:E:/LiteOS/LiteOS_Lab/iot_link/os/os_imp/liteos/base/include\heap.h **** 
  53:E:/LiteOS/LiteOS_Lab/iot_link/os/os_imp/liteos/base/include\heap.h **** #if   defined (LOSCFG_CONFIG_CM_TLSF)
  54:E:/LiteOS/LiteOS_Lab/iot_link/os/os_imp/liteos/base/include\heap.h **** #include "cm-tlsf.h"
  55:E:/LiteOS/LiteOS_Lab/iot_link/os/os_imp/liteos/base/include\heap.h **** #elif defined (LOSCFG_CONFIG_CM_BESTFIT)
  56:E:/LiteOS/LiteOS_Lab/iot_link/os/os_imp/liteos/base/include\heap.h **** #include "cm-bestfit.h"
  57:E:/LiteOS/LiteOS_Lab/iot_link/os/os_imp/liteos/base/include\heap.h **** #endif
  58:E:/LiteOS/LiteOS_Lab/iot_link/os/os_imp/liteos/base/include\heap.h **** 
  59:E:/LiteOS/LiteOS_Lab/iot_link/os/os_imp/liteos/base/include\heap.h **** #define MIN_BLOCK_SIZE          (sizeof (block_t) + sizeof (ach_t) * 2 + \
  60:E:/LiteOS/LiteOS_Lab/iot_link/os/os_imp/liteos/base/include\heap.h ****                                  sizeof (fch_t))
  61:E:/LiteOS/LiteOS_Lab/iot_link/os/os_imp/liteos/base/include\heap.h **** 
  62:E:/LiteOS/LiteOS_Lab/iot_link/os/os_imp/liteos/base/include\heap.h **** #ifndef ALLOC_ALIGN
  63:E:/LiteOS/LiteOS_Lab/iot_link/os/os_imp/liteos/base/include\heap.h **** #define ALLOC_ALIGN             8
  64:E:/LiteOS/LiteOS_Lab/iot_link/os/os_imp/liteos/base/include\heap.h **** #endif
  65:E:/LiteOS/LiteOS_Lab/iot_link/os/os_imp/liteos/base/include\heap.h **** 
  66:E:/LiteOS/LiteOS_Lab/iot_link/os/os_imp/liteos/base/include\heap.h **** typedef struct block
  67:E:/LiteOS/LiteOS_Lab/iot_link/os/os_imp/liteos/base/include\heap.h **** {
  68:E:/LiteOS/LiteOS_Lab/iot_link/os/os_imp/liteos/base/include\heap.h ****     struct block * next;        /* link into next block      */
  69:E:/LiteOS/LiteOS_Lab/iot_link/os/os_imp/liteos/base/include\heap.h ****     size_t         size;
  70:E:/LiteOS/LiteOS_Lab/iot_link/os/os_imp/liteos/base/include\heap.h **** } block_t;
  71:E:/LiteOS/LiteOS_Lab/iot_link/os/os_imp/liteos/base/include\heap.h **** 
  72:E:/LiteOS/LiteOS_Lab/iot_link/os/os_imp/liteos/base/include\heap.h **** #if (LOSCFG_MEM_STATISTICS == YES)
  73:E:/LiteOS/LiteOS_Lab/iot_link/os/os_imp/liteos/base/include\heap.h **** typedef struct mem_stat
  74:E:/LiteOS/LiteOS_Lab/iot_link/os/os_imp/liteos/base/include\heap.h **** {
  75:E:/LiteOS/LiteOS_Lab/iot_link/os/os_imp/liteos/base/include\heap.h ****     unsigned int       free_chunks;
  76:E:/LiteOS/LiteOS_Lab/iot_link/os/os_imp/liteos/base/include\heap.h ****     size_t             free_size;
  77:E:/LiteOS/LiteOS_Lab/iot_link/os/os_imp/liteos/base/include\heap.h ****     unsigned int       busy_chunks;
  78:E:/LiteOS/LiteOS_Lab/iot_link/os/os_imp/liteos/base/include\heap.h ****     size_t             busy_size;
  79:E:/LiteOS/LiteOS_Lab/iot_link/os/os_imp/liteos/base/include\heap.h ****     size_t             max_busy_size;
  80:E:/LiteOS/LiteOS_Lab/iot_link/os/os_imp/liteos/base/include\heap.h ****     size_t             max_free_size;
  81:E:/LiteOS/LiteOS_Lab/iot_link/os/os_imp/liteos/base/include\heap.h ****     unsigned long long cum_allocated;
  82:E:/LiteOS/LiteOS_Lab/iot_link/os/os_imp/liteos/base/include\heap.h ****     unsigned long long cum_size_allocated;
  83:E:/LiteOS/LiteOS_Lab/iot_link/os/os_imp/liteos/base/include\heap.h ****     unsigned long long cum_freed;
  84:E:/LiteOS/LiteOS_Lab/iot_link/os/os_imp/liteos/base/include\heap.h ****     unsigned long long cum_size_freed;
  85:E:/LiteOS/LiteOS_Lab/iot_link/os/os_imp/liteos/base/include\heap.h **** } mem_stat_t;
  86:E:/LiteOS/LiteOS_Lab/iot_link/os/os_imp/liteos/base/include\heap.h **** #endif
  87:E:/LiteOS/LiteOS_Lab/iot_link/os/os_imp/liteos/base/include\heap.h **** 
  88:E:/LiteOS/LiteOS_Lab/iot_link/os/os_imp/liteos/base/include\heap.h **** typedef struct heap
  89:E:/LiteOS/LiteOS_Lab/iot_link/os/os_imp/liteos/base/include\heap.h **** {
  90:E:/LiteOS/LiteOS_Lab/iot_link/os/os_imp/liteos/base/include\heap.h ****     chunk_mgr_t        cm;
  91:E:/LiteOS/LiteOS_Lab/iot_link/os/os_imp/liteos/base/include\heap.h ****     block_t          * blocks;
  92:E:/LiteOS/LiteOS_Lab/iot_link/os/os_imp/liteos/base/include\heap.h ****     UINT32             mux;
  93:E:/LiteOS/LiteOS_Lab/iot_link/os/os_imp/liteos/base/include\heap.h **** #if (LOSCFG_MEM_STATISTICS == YES)
  94:E:/LiteOS/LiteOS_Lab/iot_link/os/os_imp/liteos/base/include\heap.h ****     struct mem_stat    stat;
  95:E:/LiteOS/LiteOS_Lab/iot_link/os/os_imp/liteos/base/include\heap.h **** #endif
  96:E:/LiteOS/LiteOS_Lab/iot_link/os/os_imp/liteos/base/include\heap.h **** #if (LOSCFG_KERNEL_MEM_SLAB == YES)
  97:E:/LiteOS/LiteOS_Lab/iot_link/os/os_imp/liteos/base/include\heap.h ****     struct LOS_SLAB_CONTROL_HEADER stSlabCtrlHdr;
  98:E:/LiteOS/LiteOS_Lab/iot_link/os/os_imp/liteos/base/include\heap.h **** #endif
  99:E:/LiteOS/LiteOS_Lab/iot_link/os/os_imp/liteos/base/include\heap.h **** } heap_t;
 100:E:/LiteOS/LiteOS_Lab/iot_link/os/os_imp/liteos/base/include\heap.h **** 
 101:E:/LiteOS/LiteOS_Lab/iot_link/os/os_imp/liteos/base/include\heap.h **** /* inlines */
 102:E:/LiteOS/LiteOS_Lab/iot_link/os/os_imp/liteos/base/include\heap.h **** 
 103:E:/LiteOS/LiteOS_Lab/iot_link/os/os_imp/liteos/base/include\heap.h **** #if (LOSCFG_MEM_STATISTICS == YES)
 104:E:/LiteOS/LiteOS_Lab/iot_link/os/os_imp/liteos/base/include\heap.h **** static inline void __stat_chunk_add (mem_stat_t * stat, chunk_t * chunk)
 105:E:/LiteOS/LiteOS_Lab/iot_link/os/os_imp/liteos/base/include\heap.h **** {
 1384              		.loc 4 105 0
 1385              		.cfi_startproc
 1386              		@ args = 0, pretend = 0, frame = 8
ARM GAS  C:\Users\user\AppData\Local\Temp\ccizJgFX.s 			page 38


 1387              		@ frame_needed = 1, uses_anonymous_args = 0
 1388              		@ link register save eliminated.
 1389 0000 80B4     		push	{r7}
 1390              	.LCFI116:
 1391              		.cfi_def_cfa_offset 4
 1392              		.cfi_offset 7, -4
 1393 0002 83B0     		sub	sp, sp, #12
 1394              	.LCFI117:
 1395              		.cfi_def_cfa_offset 16
 1396 0004 00AF     		add	r7, sp, #0
 1397              	.LCFI118:
 1398              		.cfi_def_cfa_register 7
 1399 0006 7860     		str	r0, [r7, #4]
 1400 0008 3960     		str	r1, [r7]
 106:E:/LiteOS/LiteOS_Lab/iot_link/os/os_imp/liteos/base/include\heap.h ****     stat->free_chunks++;
 1401              		.loc 4 106 0
 1402 000a 7B68     		ldr	r3, [r7, #4]
 1403 000c 1B68     		ldr	r3, [r3]
 1404 000e 5A1C     		adds	r2, r3, #1
 1405 0010 7B68     		ldr	r3, [r7, #4]
 1406 0012 1A60     		str	r2, [r3]
 107:E:/LiteOS/LiteOS_Lab/iot_link/os/os_imp/liteos/base/include\heap.h ****     stat->free_size += (chunk->size - sizeof (ach_t));
 1407              		.loc 4 107 0
 1408 0014 7B68     		ldr	r3, [r7, #4]
 1409 0016 5A68     		ldr	r2, [r3, #4]
 1410 0018 3B68     		ldr	r3, [r7]
 1411 001a 5B68     		ldr	r3, [r3, #4]
 1412 001c 1344     		add	r3, r3, r2
 1413 001e A3F10802 		sub	r2, r3, #8
 1414 0022 7B68     		ldr	r3, [r7, #4]
 1415 0024 5A60     		str	r2, [r3, #4]
 108:E:/LiteOS/LiteOS_Lab/iot_link/os/os_imp/liteos/base/include\heap.h **** }
 1416              		.loc 4 108 0
 1417 0026 00BF     		nop
 1418 0028 0C37     		adds	r7, r7, #12
 1419              	.LCFI119:
 1420              		.cfi_def_cfa_offset 4
 1421 002a BD46     		mov	sp, r7
 1422              	.LCFI120:
 1423              		.cfi_def_cfa_register 13
 1424              		@ sp needed
 1425 002c 5DF8047B 		ldr	r7, [sp], #4
 1426              	.LCFI121:
 1427              		.cfi_restore 7
 1428              		.cfi_def_cfa_offset 0
 1429 0030 7047     		bx	lr
 1430              		.cfi_endproc
 1431              	.LFE156:
 1433              		.section	.text.__stat_chunk_del,"ax",%progbits
 1434              		.align	1
 1435              		.syntax unified
 1436              		.thumb
 1437              		.thumb_func
 1438              		.fpu fpv4-sp-d16
 1440              	__stat_chunk_del:
 1441              	.LFB157:
 109:E:/LiteOS/LiteOS_Lab/iot_link/os/os_imp/liteos/base/include\heap.h **** 
ARM GAS  C:\Users\user\AppData\Local\Temp\ccizJgFX.s 			page 39


 110:E:/LiteOS/LiteOS_Lab/iot_link/os/os_imp/liteos/base/include\heap.h **** static inline void __stat_chunk_del (mem_stat_t * stat, chunk_t * chunk)
 111:E:/LiteOS/LiteOS_Lab/iot_link/os/os_imp/liteos/base/include\heap.h **** {
 1442              		.loc 4 111 0
 1443              		.cfi_startproc
 1444              		@ args = 0, pretend = 0, frame = 8
 1445              		@ frame_needed = 1, uses_anonymous_args = 0
 1446              		@ link register save eliminated.
 1447 0000 80B4     		push	{r7}
 1448              	.LCFI122:
 1449              		.cfi_def_cfa_offset 4
 1450              		.cfi_offset 7, -4
 1451 0002 83B0     		sub	sp, sp, #12
 1452              	.LCFI123:
 1453              		.cfi_def_cfa_offset 16
 1454 0004 00AF     		add	r7, sp, #0
 1455              	.LCFI124:
 1456              		.cfi_def_cfa_register 7
 1457 0006 7860     		str	r0, [r7, #4]
 1458 0008 3960     		str	r1, [r7]
 112:E:/LiteOS/LiteOS_Lab/iot_link/os/os_imp/liteos/base/include\heap.h ****     stat->free_chunks--;
 1459              		.loc 4 112 0
 1460 000a 7B68     		ldr	r3, [r7, #4]
 1461 000c 1B68     		ldr	r3, [r3]
 1462 000e 5A1E     		subs	r2, r3, #1
 1463 0010 7B68     		ldr	r3, [r7, #4]
 1464 0012 1A60     		str	r2, [r3]
 113:E:/LiteOS/LiteOS_Lab/iot_link/os/os_imp/liteos/base/include\heap.h ****     stat->free_size -= (chunk->size - sizeof (ach_t));
 1465              		.loc 4 113 0
 1466 0014 7B68     		ldr	r3, [r7, #4]
 1467 0016 5A68     		ldr	r2, [r3, #4]
 1468 0018 3B68     		ldr	r3, [r7]
 1469 001a 5B68     		ldr	r3, [r3, #4]
 1470 001c D31A     		subs	r3, r2, r3
 1471 001e 03F10802 		add	r2, r3, #8
 1472 0022 7B68     		ldr	r3, [r7, #4]
 1473 0024 5A60     		str	r2, [r3, #4]
 114:E:/LiteOS/LiteOS_Lab/iot_link/os/os_imp/liteos/base/include\heap.h **** }
 1474              		.loc 4 114 0
 1475 0026 00BF     		nop
 1476 0028 0C37     		adds	r7, r7, #12
 1477              	.LCFI125:
 1478              		.cfi_def_cfa_offset 4
 1479 002a BD46     		mov	sp, r7
 1480              	.LCFI126:
 1481              		.cfi_def_cfa_register 13
 1482              		@ sp needed
 1483 002c 5DF8047B 		ldr	r7, [sp], #4
 1484              	.LCFI127:
 1485              		.cfi_restore 7
 1486              		.cfi_def_cfa_offset 0
 1487 0030 7047     		bx	lr
 1488              		.cfi_endproc
 1489              	.LFE157:
 1491              		.section	.text.__stat_chunk_alloc,"ax",%progbits
 1492              		.align	1
 1493              		.syntax unified
 1494              		.thumb
ARM GAS  C:\Users\user\AppData\Local\Temp\ccizJgFX.s 			page 40


 1495              		.thumb_func
 1496              		.fpu fpv4-sp-d16
 1498              	__stat_chunk_alloc:
 1499              	.LFB158:
 115:E:/LiteOS/LiteOS_Lab/iot_link/os/os_imp/liteos/base/include\heap.h **** 
 116:E:/LiteOS/LiteOS_Lab/iot_link/os/os_imp/liteos/base/include\heap.h **** static inline void __stat_chunk_alloc (mem_stat_t * stat, chunk_t * chunk)
 117:E:/LiteOS/LiteOS_Lab/iot_link/os/os_imp/liteos/base/include\heap.h **** {
 1500              		.loc 4 117 0
 1501              		.cfi_startproc
 1502              		@ args = 0, pretend = 0, frame = 8
 1503              		@ frame_needed = 1, uses_anonymous_args = 0
 1504              		@ link register save eliminated.
 1505 0000 2DE99008 		push	{r4, r7, fp}
 1506              	.LCFI128:
 1507              		.cfi_def_cfa_offset 12
 1508              		.cfi_offset 4, -12
 1509              		.cfi_offset 7, -8
 1510              		.cfi_offset 11, -4
 1511 0004 83B0     		sub	sp, sp, #12
 1512              	.LCFI129:
 1513              		.cfi_def_cfa_offset 24
 1514 0006 00AF     		add	r7, sp, #0
 1515              	.LCFI130:
 1516              		.cfi_def_cfa_register 7
 1517 0008 7860     		str	r0, [r7, #4]
 1518 000a 3960     		str	r1, [r7]
 118:E:/LiteOS/LiteOS_Lab/iot_link/os/os_imp/liteos/base/include\heap.h ****     stat->busy_chunks++;
 1519              		.loc 4 118 0
 1520 000c 7B68     		ldr	r3, [r7, #4]
 1521 000e 9B68     		ldr	r3, [r3, #8]
 1522 0010 5A1C     		adds	r2, r3, #1
 1523 0012 7B68     		ldr	r3, [r7, #4]
 1524 0014 9A60     		str	r2, [r3, #8]
 119:E:/LiteOS/LiteOS_Lab/iot_link/os/os_imp/liteos/base/include\heap.h ****     stat->busy_size += chunk->size;
 1525              		.loc 4 119 0
 1526 0016 7B68     		ldr	r3, [r7, #4]
 1527 0018 DA68     		ldr	r2, [r3, #12]
 1528 001a 3B68     		ldr	r3, [r7]
 1529 001c 5B68     		ldr	r3, [r3, #4]
 1530 001e 1A44     		add	r2, r2, r3
 1531 0020 7B68     		ldr	r3, [r7, #4]
 1532 0022 DA60     		str	r2, [r3, #12]
 120:E:/LiteOS/LiteOS_Lab/iot_link/os/os_imp/liteos/base/include\heap.h ****     stat->cum_allocated++;
 1533              		.loc 4 120 0
 1534 0024 7B68     		ldr	r3, [r7, #4]
 1535 0026 D3E90612 		ldrd	r1, [r3, #24]
 1536 002a 4B1C     		adds	r3, r1, #1
 1537 002c 42F10004 		adc	r4, r2, #0
 1538 0030 7A68     		ldr	r2, [r7, #4]
 1539 0032 C2E90634 		strd	r3, [r2, #24]
 121:E:/LiteOS/LiteOS_Lab/iot_link/os/os_imp/liteos/base/include\heap.h ****     stat->cum_size_allocated += chunk->size;
 1540              		.loc 4 121 0
 1541 0036 7B68     		ldr	r3, [r7, #4]
 1542 0038 D3E90812 		ldrd	r1, [r3, #32]
 1543 003c 3B68     		ldr	r3, [r7]
 1544 003e 5B68     		ldr	r3, [r3, #4]
 1545 0040 9B46     		mov	fp, r3
ARM GAS  C:\Users\user\AppData\Local\Temp\ccizJgFX.s 			page 41


 1546 0042 4FF0000C 		mov	ip, #0
 1547 0046 1BEB0103 		adds	r3, fp, r1
 1548 004a 4CEB0204 		adc	r4, ip, r2
 1549 004e 7A68     		ldr	r2, [r7, #4]
 1550 0050 C2E90834 		strd	r3, [r2, #32]
 122:E:/LiteOS/LiteOS_Lab/iot_link/os/os_imp/liteos/base/include\heap.h **** 
 123:E:/LiteOS/LiteOS_Lab/iot_link/os/os_imp/liteos/base/include\heap.h ****     if (stat->busy_size > stat->max_busy_size)
 1551              		.loc 4 123 0
 1552 0054 7B68     		ldr	r3, [r7, #4]
 1553 0056 DA68     		ldr	r2, [r3, #12]
 1554 0058 7B68     		ldr	r3, [r7, #4]
 1555 005a 1B69     		ldr	r3, [r3, #16]
 1556 005c 9A42     		cmp	r2, r3
 1557 005e 03D9     		bls	.L53
 124:E:/LiteOS/LiteOS_Lab/iot_link/os/os_imp/liteos/base/include\heap.h ****     {
 125:E:/LiteOS/LiteOS_Lab/iot_link/os/os_imp/liteos/base/include\heap.h ****         stat->max_busy_size = stat->busy_size;
 1558              		.loc 4 125 0
 1559 0060 7B68     		ldr	r3, [r7, #4]
 1560 0062 DA68     		ldr	r2, [r3, #12]
 1561 0064 7B68     		ldr	r3, [r7, #4]
 1562 0066 1A61     		str	r2, [r3, #16]
 1563              	.L53:
 126:E:/LiteOS/LiteOS_Lab/iot_link/os/os_imp/liteos/base/include\heap.h ****     }
 127:E:/LiteOS/LiteOS_Lab/iot_link/os/os_imp/liteos/base/include\heap.h **** }
 1564              		.loc 4 127 0
 1565 0068 00BF     		nop
 1566 006a 0C37     		adds	r7, r7, #12
 1567              	.LCFI131:
 1568              		.cfi_def_cfa_offset 12
 1569 006c BD46     		mov	sp, r7
 1570              	.LCFI132:
 1571              		.cfi_def_cfa_register 13
 1572              		@ sp needed
 1573 006e BDE89008 		pop	{r4, r7, fp}
 1574              	.LCFI133:
 1575              		.cfi_restore 11
 1576              		.cfi_restore 7
 1577              		.cfi_restore 4
 1578              		.cfi_def_cfa_offset 0
 1579 0072 7047     		bx	lr
 1580              		.cfi_endproc
 1581              	.LFE158:
 1583              		.section	.text.__stat_chunk_free,"ax",%progbits
 1584              		.align	1
 1585              		.syntax unified
 1586              		.thumb
 1587              		.thumb_func
 1588              		.fpu fpv4-sp-d16
 1590              	__stat_chunk_free:
 1591              	.LFB159:
 128:E:/LiteOS/LiteOS_Lab/iot_link/os/os_imp/liteos/base/include\heap.h **** 
 129:E:/LiteOS/LiteOS_Lab/iot_link/os/os_imp/liteos/base/include\heap.h **** static inline void __stat_chunk_free (mem_stat_t * stat, chunk_t * chunk)
 130:E:/LiteOS/LiteOS_Lab/iot_link/os/os_imp/liteos/base/include\heap.h **** {
 1592              		.loc 4 130 0
 1593              		.cfi_startproc
 1594              		@ args = 0, pretend = 0, frame = 8
 1595              		@ frame_needed = 1, uses_anonymous_args = 0
ARM GAS  C:\Users\user\AppData\Local\Temp\ccizJgFX.s 			page 42


 1596              		@ link register save eliminated.
 1597 0000 2DE99008 		push	{r4, r7, fp}
 1598              	.LCFI134:
 1599              		.cfi_def_cfa_offset 12
 1600              		.cfi_offset 4, -12
 1601              		.cfi_offset 7, -8
 1602              		.cfi_offset 11, -4
 1603 0004 83B0     		sub	sp, sp, #12
 1604              	.LCFI135:
 1605              		.cfi_def_cfa_offset 24
 1606 0006 00AF     		add	r7, sp, #0
 1607              	.LCFI136:
 1608              		.cfi_def_cfa_register 7
 1609 0008 7860     		str	r0, [r7, #4]
 1610 000a 3960     		str	r1, [r7]
 131:E:/LiteOS/LiteOS_Lab/iot_link/os/os_imp/liteos/base/include\heap.h ****     stat->busy_chunks--;
 1611              		.loc 4 131 0
 1612 000c 7B68     		ldr	r3, [r7, #4]
 1613 000e 9B68     		ldr	r3, [r3, #8]
 1614 0010 5A1E     		subs	r2, r3, #1
 1615 0012 7B68     		ldr	r3, [r7, #4]
 1616 0014 9A60     		str	r2, [r3, #8]
 132:E:/LiteOS/LiteOS_Lab/iot_link/os/os_imp/liteos/base/include\heap.h ****     stat->busy_size -= chunk->size;
 1617              		.loc 4 132 0
 1618 0016 7B68     		ldr	r3, [r7, #4]
 1619 0018 DA68     		ldr	r2, [r3, #12]
 1620 001a 3B68     		ldr	r3, [r7]
 1621 001c 5B68     		ldr	r3, [r3, #4]
 1622 001e D21A     		subs	r2, r2, r3
 1623 0020 7B68     		ldr	r3, [r7, #4]
 1624 0022 DA60     		str	r2, [r3, #12]
 133:E:/LiteOS/LiteOS_Lab/iot_link/os/os_imp/liteos/base/include\heap.h ****     stat->cum_freed++;
 1625              		.loc 4 133 0
 1626 0024 7B68     		ldr	r3, [r7, #4]
 1627 0026 D3E90A12 		ldrd	r1, [r3, #40]
 1628 002a 4B1C     		adds	r3, r1, #1
 1629 002c 42F10004 		adc	r4, r2, #0
 1630 0030 7A68     		ldr	r2, [r7, #4]
 1631 0032 C2E90A34 		strd	r3, [r2, #40]
 134:E:/LiteOS/LiteOS_Lab/iot_link/os/os_imp/liteos/base/include\heap.h ****     stat->cum_size_freed += chunk->size;
 1632              		.loc 4 134 0
 1633 0036 7B68     		ldr	r3, [r7, #4]
 1634 0038 D3E90C12 		ldrd	r1, [r3, #48]
 1635 003c 3B68     		ldr	r3, [r7]
 1636 003e 5B68     		ldr	r3, [r3, #4]
 1637 0040 9B46     		mov	fp, r3
 1638 0042 4FF0000C 		mov	ip, #0
 1639 0046 1BEB0103 		adds	r3, fp, r1
 1640 004a 4CEB0204 		adc	r4, ip, r2
 1641 004e 7A68     		ldr	r2, [r7, #4]
 1642 0050 C2E90C34 		strd	r3, [r2, #48]
 135:E:/LiteOS/LiteOS_Lab/iot_link/os/os_imp/liteos/base/include\heap.h **** }
 1643              		.loc 4 135 0
 1644 0054 00BF     		nop
 1645 0056 0C37     		adds	r7, r7, #12
 1646              	.LCFI137:
 1647              		.cfi_def_cfa_offset 12
ARM GAS  C:\Users\user\AppData\Local\Temp\ccizJgFX.s 			page 43


 1648 0058 BD46     		mov	sp, r7
 1649              	.LCFI138:
 1650              		.cfi_def_cfa_register 13
 1651              		@ sp needed
 1652 005a BDE89008 		pop	{r4, r7, fp}
 1653              	.LCFI139:
 1654              		.cfi_restore 11
 1655              		.cfi_restore 7
 1656              		.cfi_restore 4
 1657              		.cfi_def_cfa_offset 0
 1658 005e 7047     		bx	lr
 1659              		.cfi_endproc
 1660              	.LFE159:
 1662              		.section	.text.__put_chunk,"ax",%progbits
 1663              		.align	1
 1664              		.syntax unified
 1665              		.thumb
 1666              		.thumb_func
 1667              		.fpu fpv4-sp-d16
 1669              	__put_chunk:
 1670              	.LFB160:
 1671              		.file 5 "E:/LiteOS/LiteOS_Lab/iot_link/os/os_imp/liteos/base/mem/heap/los_heap.c"
   1:E:/LiteOS/LiteOS_Lab/iot_link/os/os_imp/liteos/base/mem/heap\los_heap.c **** /*----------------------------------------------------------------------------
   2:E:/LiteOS/LiteOS_Lab/iot_link/os/os_imp/liteos/base/mem/heap\los_heap.c ****  * Copyright (c) <2013-2015>, <Huawei Technologies Co., Ltd>
   3:E:/LiteOS/LiteOS_Lab/iot_link/os/os_imp/liteos/base/mem/heap\los_heap.c ****  * All rights reserved.
   4:E:/LiteOS/LiteOS_Lab/iot_link/os/os_imp/liteos/base/mem/heap\los_heap.c ****  * Redistribution and use in source and binary forms, with or without modification,
   5:E:/LiteOS/LiteOS_Lab/iot_link/os/os_imp/liteos/base/mem/heap\los_heap.c ****  * are permitted provided that the following conditions are met:
   6:E:/LiteOS/LiteOS_Lab/iot_link/os/os_imp/liteos/base/mem/heap\los_heap.c ****  * 1. Redistributions of source code must retain the above copyright notice, this list of
   7:E:/LiteOS/LiteOS_Lab/iot_link/os/os_imp/liteos/base/mem/heap\los_heap.c ****  * conditions and the following disclaimer.
   8:E:/LiteOS/LiteOS_Lab/iot_link/os/os_imp/liteos/base/mem/heap\los_heap.c ****  * 2. Redistributions in binary form must reproduce the above copyright notice, this list
   9:E:/LiteOS/LiteOS_Lab/iot_link/os/os_imp/liteos/base/mem/heap\los_heap.c ****  * of conditions and the following disclaimer in the documentation and/or other materials
  10:E:/LiteOS/LiteOS_Lab/iot_link/os/os_imp/liteos/base/mem/heap\los_heap.c ****  * provided with the distribution.
  11:E:/LiteOS/LiteOS_Lab/iot_link/os/os_imp/liteos/base/mem/heap\los_heap.c ****  * 3. Neither the name of the copyright holder nor the names of its contributors may be used
  12:E:/LiteOS/LiteOS_Lab/iot_link/os/os_imp/liteos/base/mem/heap\los_heap.c ****  * to endorse or promote products derived from this software without specific prior written
  13:E:/LiteOS/LiteOS_Lab/iot_link/os/os_imp/liteos/base/mem/heap\los_heap.c ****  * permission.
  14:E:/LiteOS/LiteOS_Lab/iot_link/os/os_imp/liteos/base/mem/heap\los_heap.c ****  * THIS SOFTWARE IS PROVIDED BY THE COPYRIGHT HOLDERS AND CONTRIBUTORS
  15:E:/LiteOS/LiteOS_Lab/iot_link/os/os_imp/liteos/base/mem/heap\los_heap.c ****  * "AS IS" AND ANY EXPRESS OR IMPLIED WARRANTIES, INCLUDING, BUT NOT LIMITED TO,
  16:E:/LiteOS/LiteOS_Lab/iot_link/os/os_imp/liteos/base/mem/heap\los_heap.c ****  * THE IMPLIED WARRANTIES OF MERCHANTABILITY AND FITNESS FOR A PARTICULAR
  17:E:/LiteOS/LiteOS_Lab/iot_link/os/os_imp/liteos/base/mem/heap\los_heap.c ****  * PURPOSE ARE DISCLAIMED. IN NO EVENT SHALL THE COPYRIGHT HOLDER OR
  18:E:/LiteOS/LiteOS_Lab/iot_link/os/os_imp/liteos/base/mem/heap\los_heap.c ****  * CONTRIBUTORS BE LIABLE FOR ANY DIRECT, INDIRECT, INCIDENTAL, SPECIAL,
  19:E:/LiteOS/LiteOS_Lab/iot_link/os/os_imp/liteos/base/mem/heap\los_heap.c ****  * EXEMPLARY, OR CONSEQUENTIAL DAMAGES (INCLUDING, BUT NOT LIMITED TO,
  20:E:/LiteOS/LiteOS_Lab/iot_link/os/os_imp/liteos/base/mem/heap\los_heap.c ****  * PROCUREMENT OF SUBSTITUTE GOODS OR SERVICES; LOSS OF USE, DATA, OR PROFITS;
  21:E:/LiteOS/LiteOS_Lab/iot_link/os/os_imp/liteos/base/mem/heap\los_heap.c ****  * OR BUSINESS INTERRUPTION) HOWEVER CAUSED AND ON ANY THEORY OF LIABILITY,
  22:E:/LiteOS/LiteOS_Lab/iot_link/os/os_imp/liteos/base/mem/heap\los_heap.c ****  * WHETHER IN CONTRACT, STRICT LIABILITY, OR TORT (INCLUDING NEGLIGENCE OR
  23:E:/LiteOS/LiteOS_Lab/iot_link/os/os_imp/liteos/base/mem/heap\los_heap.c ****  * OTHERWISE) ARISING IN ANY WAY OUT OF THE USE OF THIS SOFTWARE, EVEN IF
  24:E:/LiteOS/LiteOS_Lab/iot_link/os/os_imp/liteos/base/mem/heap\los_heap.c ****  * ADVISED OF THE POSSIBILITY OF SUCH DAMAGE.
  25:E:/LiteOS/LiteOS_Lab/iot_link/os/os_imp/liteos/base/mem/heap\los_heap.c ****  *---------------------------------------------------------------------------*/
  26:E:/LiteOS/LiteOS_Lab/iot_link/os/os_imp/liteos/base/mem/heap\los_heap.c **** /*----------------------------------------------------------------------------
  27:E:/LiteOS/LiteOS_Lab/iot_link/os/os_imp/liteos/base/mem/heap\los_heap.c ****  * Notice of Export Control Law
  28:E:/LiteOS/LiteOS_Lab/iot_link/os/os_imp/liteos/base/mem/heap\los_heap.c ****  * ===============================================
  29:E:/LiteOS/LiteOS_Lab/iot_link/os/os_imp/liteos/base/mem/heap\los_heap.c ****  * Huawei LiteOS may be subject to applicable export control laws and regulations, which might
  30:E:/LiteOS/LiteOS_Lab/iot_link/os/os_imp/liteos/base/mem/heap\los_heap.c ****  * include those applicable to Huawei LiteOS of U.S. and the country in which you are located.
  31:E:/LiteOS/LiteOS_Lab/iot_link/os/os_imp/liteos/base/mem/heap\los_heap.c ****  * Import, export and usage of Huawei LiteOS in any manner by you shall be in compliance with such
  32:E:/LiteOS/LiteOS_Lab/iot_link/os/os_imp/liteos/base/mem/heap\los_heap.c ****  * applicable export control laws and regulations.
  33:E:/LiteOS/LiteOS_Lab/iot_link/os/os_imp/liteos/base/mem/heap\los_heap.c ****  *---------------------------------------------------------------------------*/
  34:E:/LiteOS/LiteOS_Lab/iot_link/os/os_imp/liteos/base/mem/heap\los_heap.c **** 
  35:E:/LiteOS/LiteOS_Lab/iot_link/os/os_imp/liteos/base/mem/heap\los_heap.c **** #include <los_config.h>
ARM GAS  C:\Users\user\AppData\Local\Temp\ccizJgFX.s 			page 44


  36:E:/LiteOS/LiteOS_Lab/iot_link/os/os_imp/liteos/base/mem/heap\los_heap.c **** #include <los_printf.h>
  37:E:/LiteOS/LiteOS_Lab/iot_link/os/os_imp/liteos/base/mem/heap\los_heap.c **** 
  38:E:/LiteOS/LiteOS_Lab/iot_link/os/os_imp/liteos/base/mem/heap\los_heap.c **** #if (LOSCFG_HEAP_IMPROVED == YES)
  39:E:/LiteOS/LiteOS_Lab/iot_link/os/os_imp/liteos/base/mem/heap\los_heap.c **** 
  40:E:/LiteOS/LiteOS_Lab/iot_link/os/os_imp/liteos/base/mem/heap\los_heap.c **** #include <string.h>
  41:E:/LiteOS/LiteOS_Lab/iot_link/os/os_imp/liteos/base/mem/heap\los_heap.c **** 
  42:E:/LiteOS/LiteOS_Lab/iot_link/os/os_imp/liteos/base/mem/heap\los_heap.c **** #include <heap.h>
  43:E:/LiteOS/LiteOS_Lab/iot_link/os/os_imp/liteos/base/mem/heap\los_heap.c **** #include <mem.h>
  44:E:/LiteOS/LiteOS_Lab/iot_link/os/os_imp/liteos/base/mem/heap\los_heap.c **** 
  45:E:/LiteOS/LiteOS_Lab/iot_link/os/os_imp/liteos/base/mem/heap\los_heap.c **** static inline int __put_chunk (heap_t * heap, chunk_t * chunk)
  46:E:/LiteOS/LiteOS_Lab/iot_link/os/os_imp/liteos/base/mem/heap\los_heap.c **** {
 1672              		.loc 5 46 0
 1673              		.cfi_startproc
 1674              		@ args = 0, pretend = 0, frame = 8
 1675              		@ frame_needed = 1, uses_anonymous_args = 0
 1676 0000 80B5     		push	{r7, lr}
 1677              	.LCFI140:
 1678              		.cfi_def_cfa_offset 8
 1679              		.cfi_offset 7, -8
 1680              		.cfi_offset 14, -4
 1681 0002 82B0     		sub	sp, sp, #8
 1682              	.LCFI141:
 1683              		.cfi_def_cfa_offset 16
 1684 0004 00AF     		add	r7, sp, #0
 1685              	.LCFI142:
 1686              		.cfi_def_cfa_register 7
 1687 0006 7860     		str	r0, [r7, #4]
 1688 0008 3960     		str	r1, [r7]
  47:E:/LiteOS/LiteOS_Lab/iot_link/os/os_imp/liteos/base/mem/heap\los_heap.c ****     if (__cm_put_chunk (&heap->cm, chunk) != 0)
 1689              		.loc 5 47 0
 1690 000a 7B68     		ldr	r3, [r7, #4]
 1691 000c 3968     		ldr	r1, [r7]
 1692 000e 1846     		mov	r0, r3
 1693 0010 FFF7FEFF 		bl	__cm_put_chunk
 1694 0014 0346     		mov	r3, r0
 1695 0016 002B     		cmp	r3, #0
 1696 0018 02D0     		beq	.L56
  48:E:/LiteOS/LiteOS_Lab/iot_link/os/os_imp/liteos/base/mem/heap\los_heap.c ****     {
  49:E:/LiteOS/LiteOS_Lab/iot_link/os/os_imp/liteos/base/mem/heap\los_heap.c ****         return -1;
 1697              		.loc 5 49 0
 1698 001a 4FF0FF33 		mov	r3, #-1
 1699 001e 07E0     		b	.L57
 1700              	.L56:
  50:E:/LiteOS/LiteOS_Lab/iot_link/os/os_imp/liteos/base/mem/heap\los_heap.c ****     }
  51:E:/LiteOS/LiteOS_Lab/iot_link/os/os_imp/liteos/base/mem/heap\los_heap.c **** 
  52:E:/LiteOS/LiteOS_Lab/iot_link/os/os_imp/liteos/base/mem/heap\los_heap.c **** #if (LOSCFG_MEM_STATISTICS == YES)
  53:E:/LiteOS/LiteOS_Lab/iot_link/os/os_imp/liteos/base/mem/heap\los_heap.c ****     __stat_chunk_add (&heap->stat, chunk);
 1701              		.loc 5 53 0
 1702 0020 7B68     		ldr	r3, [r7, #4]
 1703 0022 03F5DC73 		add	r3, r3, #440
 1704 0026 3968     		ldr	r1, [r7]
 1705 0028 1846     		mov	r0, r3
 1706 002a FFF7FEFF 		bl	__stat_chunk_add
  54:E:/LiteOS/LiteOS_Lab/iot_link/os/os_imp/liteos/base/mem/heap\los_heap.c **** #endif
  55:E:/LiteOS/LiteOS_Lab/iot_link/os/os_imp/liteos/base/mem/heap\los_heap.c **** 
  56:E:/LiteOS/LiteOS_Lab/iot_link/os/os_imp/liteos/base/mem/heap\los_heap.c ****     return 0;
 1707              		.loc 5 56 0
ARM GAS  C:\Users\user\AppData\Local\Temp\ccizJgFX.s 			page 45


 1708 002e 0023     		movs	r3, #0
 1709              	.L57:
  57:E:/LiteOS/LiteOS_Lab/iot_link/os/os_imp/liteos/base/mem/heap\los_heap.c **** }
 1710              		.loc 5 57 0
 1711 0030 1846     		mov	r0, r3
 1712 0032 0837     		adds	r7, r7, #8
 1713              	.LCFI143:
 1714              		.cfi_def_cfa_offset 8
 1715 0034 BD46     		mov	sp, r7
 1716              	.LCFI144:
 1717              		.cfi_def_cfa_register 13
 1718              		@ sp needed
 1719 0036 80BD     		pop	{r7, pc}
 1720              		.cfi_endproc
 1721              	.LFE160:
 1723              		.section	.text.__del_chunk,"ax",%progbits
 1724              		.align	1
 1725              		.syntax unified
 1726              		.thumb
 1727              		.thumb_func
 1728              		.fpu fpv4-sp-d16
 1730              	__del_chunk:
 1731              	.LFB161:
  58:E:/LiteOS/LiteOS_Lab/iot_link/os/os_imp/liteos/base/mem/heap\los_heap.c **** 
  59:E:/LiteOS/LiteOS_Lab/iot_link/os/os_imp/liteos/base/mem/heap\los_heap.c **** static inline void __del_chunk (heap_t * heap, chunk_t * chunk)
  60:E:/LiteOS/LiteOS_Lab/iot_link/os/os_imp/liteos/base/mem/heap\los_heap.c **** {
 1732              		.loc 5 60 0
 1733              		.cfi_startproc
 1734              		@ args = 0, pretend = 0, frame = 8
 1735              		@ frame_needed = 1, uses_anonymous_args = 0
 1736 0000 80B5     		push	{r7, lr}
 1737              	.LCFI145:
 1738              		.cfi_def_cfa_offset 8
 1739              		.cfi_offset 7, -8
 1740              		.cfi_offset 14, -4
 1741 0002 82B0     		sub	sp, sp, #8
 1742              	.LCFI146:
 1743              		.cfi_def_cfa_offset 16
 1744 0004 00AF     		add	r7, sp, #0
 1745              	.LCFI147:
 1746              		.cfi_def_cfa_register 7
 1747 0006 7860     		str	r0, [r7, #4]
 1748 0008 3960     		str	r1, [r7]
  61:E:/LiteOS/LiteOS_Lab/iot_link/os/os_imp/liteos/base/mem/heap\los_heap.c ****     __cm_del_chunk (&heap->cm, chunk);
 1749              		.loc 5 61 0
 1750 000a 7B68     		ldr	r3, [r7, #4]
 1751 000c 3968     		ldr	r1, [r7]
 1752 000e 1846     		mov	r0, r3
 1753 0010 FFF7FEFF 		bl	__cm_del_chunk
  62:E:/LiteOS/LiteOS_Lab/iot_link/os/os_imp/liteos/base/mem/heap\los_heap.c **** 
  63:E:/LiteOS/LiteOS_Lab/iot_link/os/os_imp/liteos/base/mem/heap\los_heap.c **** #if (LOSCFG_MEM_STATISTICS == YES)
  64:E:/LiteOS/LiteOS_Lab/iot_link/os/os_imp/liteos/base/mem/heap\los_heap.c ****     __stat_chunk_del (&heap->stat, chunk);
 1754              		.loc 5 64 0
 1755 0014 7B68     		ldr	r3, [r7, #4]
 1756 0016 03F5DC73 		add	r3, r3, #440
 1757 001a 3968     		ldr	r1, [r7]
 1758 001c 1846     		mov	r0, r3
ARM GAS  C:\Users\user\AppData\Local\Temp\ccizJgFX.s 			page 46


 1759 001e FFF7FEFF 		bl	__stat_chunk_del
  65:E:/LiteOS/LiteOS_Lab/iot_link/os/os_imp/liteos/base/mem/heap\los_heap.c **** #endif
  66:E:/LiteOS/LiteOS_Lab/iot_link/os/os_imp/liteos/base/mem/heap\los_heap.c **** }
 1760              		.loc 5 66 0
 1761 0022 00BF     		nop
 1762 0024 0837     		adds	r7, r7, #8
 1763              	.LCFI148:
 1764              		.cfi_def_cfa_offset 8
 1765 0026 BD46     		mov	sp, r7
 1766              	.LCFI149:
 1767              		.cfi_def_cfa_register 13
 1768              		@ sp needed
 1769 0028 80BD     		pop	{r7, pc}
 1770              		.cfi_endproc
 1771              	.LFE161:
 1773              		.section	.text.__get_chunk,"ax",%progbits
 1774              		.align	1
 1775              		.syntax unified
 1776              		.thumb
 1777              		.thumb_func
 1778              		.fpu fpv4-sp-d16
 1780              	__get_chunk:
 1781              	.LFB162:
  67:E:/LiteOS/LiteOS_Lab/iot_link/os/os_imp/liteos/base/mem/heap\los_heap.c **** 
  68:E:/LiteOS/LiteOS_Lab/iot_link/os/os_imp/liteos/base/mem/heap\los_heap.c **** static inline chunk_t * __get_chunk (heap_t * heap, size_t size)
  69:E:/LiteOS/LiteOS_Lab/iot_link/os/os_imp/liteos/base/mem/heap\los_heap.c **** {
 1782              		.loc 5 69 0
 1783              		.cfi_startproc
 1784              		@ args = 0, pretend = 0, frame = 16
 1785              		@ frame_needed = 1, uses_anonymous_args = 0
 1786 0000 80B5     		push	{r7, lr}
 1787              	.LCFI150:
 1788              		.cfi_def_cfa_offset 8
 1789              		.cfi_offset 7, -8
 1790              		.cfi_offset 14, -4
 1791 0002 84B0     		sub	sp, sp, #16
 1792              	.LCFI151:
 1793              		.cfi_def_cfa_offset 24
 1794 0004 00AF     		add	r7, sp, #0
 1795              	.LCFI152:
 1796              		.cfi_def_cfa_register 7
 1797 0006 7860     		str	r0, [r7, #4]
 1798 0008 3960     		str	r1, [r7]
  70:E:/LiteOS/LiteOS_Lab/iot_link/os/os_imp/liteos/base/mem/heap\los_heap.c ****     chunk_t * chunk = __cm_get_chunk (&heap->cm, size);
 1799              		.loc 5 70 0
 1800 000a 7B68     		ldr	r3, [r7, #4]
 1801 000c 3968     		ldr	r1, [r7]
 1802 000e 1846     		mov	r0, r3
 1803 0010 FFF7FEFF 		bl	__cm_get_chunk
 1804 0014 F860     		str	r0, [r7, #12]
  71:E:/LiteOS/LiteOS_Lab/iot_link/os/os_imp/liteos/base/mem/heap\los_heap.c **** 
  72:E:/LiteOS/LiteOS_Lab/iot_link/os/os_imp/liteos/base/mem/heap\los_heap.c ****     if (chunk != NULL)
 1805              		.loc 5 72 0
 1806 0016 FB68     		ldr	r3, [r7, #12]
 1807 0018 002B     		cmp	r3, #0
 1808 001a 03D0     		beq	.L60
  73:E:/LiteOS/LiteOS_Lab/iot_link/os/os_imp/liteos/base/mem/heap\los_heap.c ****     {
ARM GAS  C:\Users\user\AppData\Local\Temp\ccizJgFX.s 			page 47


  74:E:/LiteOS/LiteOS_Lab/iot_link/os/os_imp/liteos/base/mem/heap\los_heap.c ****         __del_chunk (heap, chunk);
 1809              		.loc 5 74 0
 1810 001c F968     		ldr	r1, [r7, #12]
 1811 001e 7868     		ldr	r0, [r7, #4]
 1812 0020 FFF7FEFF 		bl	__del_chunk
 1813              	.L60:
  75:E:/LiteOS/LiteOS_Lab/iot_link/os/os_imp/liteos/base/mem/heap\los_heap.c ****     }
  76:E:/LiteOS/LiteOS_Lab/iot_link/os/os_imp/liteos/base/mem/heap\los_heap.c **** 
  77:E:/LiteOS/LiteOS_Lab/iot_link/os/os_imp/liteos/base/mem/heap\los_heap.c ****     return chunk;
 1814              		.loc 5 77 0
 1815 0024 FB68     		ldr	r3, [r7, #12]
  78:E:/LiteOS/LiteOS_Lab/iot_link/os/os_imp/liteos/base/mem/heap\los_heap.c **** }
 1816              		.loc 5 78 0
 1817 0026 1846     		mov	r0, r3
 1818 0028 1037     		adds	r7, r7, #16
 1819              	.LCFI153:
 1820              		.cfi_def_cfa_offset 8
 1821 002a BD46     		mov	sp, r7
 1822              	.LCFI154:
 1823              		.cfi_def_cfa_register 13
 1824              		@ sp needed
 1825 002c 80BD     		pop	{r7, pc}
 1826              		.cfi_endproc
 1827              	.LFE162:
 1829              		.section	.text.heap_init,"ax",%progbits
 1830              		.align	1
 1831              		.global	heap_init
 1832              		.syntax unified
 1833              		.thumb
 1834              		.thumb_func
 1835              		.fpu fpv4-sp-d16
 1837              	heap_init:
 1838              	.LFB163:
  79:E:/LiteOS/LiteOS_Lab/iot_link/os/os_imp/liteos/base/mem/heap\los_heap.c **** 
  80:E:/LiteOS/LiteOS_Lab/iot_link/os/os_imp/liteos/base/mem/heap\los_heap.c **** /**
  81:E:/LiteOS/LiteOS_Lab/iot_link/os/os_imp/liteos/base/mem/heap\los_heap.c ****  * heap_init - initialize a heap struct
  82:E:/LiteOS/LiteOS_Lab/iot_link/os/os_imp/liteos/base/mem/heap\los_heap.c ****  * @heap: the given heap
  83:E:/LiteOS/LiteOS_Lab/iot_link/os/os_imp/liteos/base/mem/heap\los_heap.c ****  *
  84:E:/LiteOS/LiteOS_Lab/iot_link/os/os_imp/liteos/base/mem/heap\los_heap.c ****  * return: 0 on success, negtive value on error
  85:E:/LiteOS/LiteOS_Lab/iot_link/os/os_imp/liteos/base/mem/heap\los_heap.c ****  */
  86:E:/LiteOS/LiteOS_Lab/iot_link/os/os_imp/liteos/base/mem/heap\los_heap.c **** 
  87:E:/LiteOS/LiteOS_Lab/iot_link/os/os_imp/liteos/base/mem/heap\los_heap.c **** int heap_init (heap_t * heap)
  88:E:/LiteOS/LiteOS_Lab/iot_link/os/os_imp/liteos/base/mem/heap\los_heap.c **** {
 1839              		.loc 5 88 0
 1840              		.cfi_startproc
 1841              		@ args = 0, pretend = 0, frame = 16
 1842              		@ frame_needed = 1, uses_anonymous_args = 0
 1843 0000 80B5     		push	{r7, lr}
 1844              	.LCFI155:
 1845              		.cfi_def_cfa_offset 8
 1846              		.cfi_offset 7, -8
 1847              		.cfi_offset 14, -4
 1848 0002 84B0     		sub	sp, sp, #16
 1849              	.LCFI156:
 1850              		.cfi_def_cfa_offset 24
 1851 0004 00AF     		add	r7, sp, #0
 1852              	.LCFI157:
ARM GAS  C:\Users\user\AppData\Local\Temp\ccizJgFX.s 			page 48


 1853              		.cfi_def_cfa_register 7
 1854 0006 7860     		str	r0, [r7, #4]
  89:E:/LiteOS/LiteOS_Lab/iot_link/os/os_imp/liteos/base/mem/heap\los_heap.c ****     UINT32 ret;
  90:E:/LiteOS/LiteOS_Lab/iot_link/os/os_imp/liteos/base/mem/heap\los_heap.c **** 
  91:E:/LiteOS/LiteOS_Lab/iot_link/os/os_imp/liteos/base/mem/heap\los_heap.c ****     if (heap == NULL)
 1855              		.loc 5 91 0
 1856 0008 7B68     		ldr	r3, [r7, #4]
 1857 000a 002B     		cmp	r3, #0
 1858 000c 02D1     		bne	.L63
  92:E:/LiteOS/LiteOS_Lab/iot_link/os/os_imp/liteos/base/mem/heap\los_heap.c ****     {
  93:E:/LiteOS/LiteOS_Lab/iot_link/os/os_imp/liteos/base/mem/heap\los_heap.c ****         return -1;
 1859              		.loc 5 93 0
 1860 000e 4FF0FF33 		mov	r3, #-1
 1861 0012 16E0     		b	.L64
 1862              	.L63:
  94:E:/LiteOS/LiteOS_Lab/iot_link/os/os_imp/liteos/base/mem/heap\los_heap.c ****     }
  95:E:/LiteOS/LiteOS_Lab/iot_link/os/os_imp/liteos/base/mem/heap\los_heap.c **** 
  96:E:/LiteOS/LiteOS_Lab/iot_link/os/os_imp/liteos/base/mem/heap\los_heap.c ****     memset (heap, 0, sizeof (heap_t));
 1863              		.loc 5 96 0
 1864 0014 4FF40C72 		mov	r2, #560
 1865 0018 0021     		movs	r1, #0
 1866 001a 7868     		ldr	r0, [r7, #4]
 1867 001c FFF7FEFF 		bl	memset
  97:E:/LiteOS/LiteOS_Lab/iot_link/os/os_imp/liteos/base/mem/heap\los_heap.c **** 
  98:E:/LiteOS/LiteOS_Lab/iot_link/os/os_imp/liteos/base/mem/heap\los_heap.c ****     ret = LOS_MuxCreate (&heap->mux);
 1868              		.loc 5 98 0
 1869 0020 7B68     		ldr	r3, [r7, #4]
 1870 0022 03F5DA73 		add	r3, r3, #436
 1871 0026 1846     		mov	r0, r3
 1872 0028 FFF7FEFF 		bl	LOS_MuxCreate
 1873 002c F860     		str	r0, [r7, #12]
  99:E:/LiteOS/LiteOS_Lab/iot_link/os/os_imp/liteos/base/mem/heap\los_heap.c **** 
 100:E:/LiteOS/LiteOS_Lab/iot_link/os/os_imp/liteos/base/mem/heap\los_heap.c ****     if (ret != LOS_OK)
 1874              		.loc 5 100 0
 1875 002e FB68     		ldr	r3, [r7, #12]
 1876 0030 002B     		cmp	r3, #0
 1877 0032 01D0     		beq	.L65
 101:E:/LiteOS/LiteOS_Lab/iot_link/os/os_imp/liteos/base/mem/heap\los_heap.c ****     {
 102:E:/LiteOS/LiteOS_Lab/iot_link/os/os_imp/liteos/base/mem/heap\los_heap.c ****         return ret;
 1878              		.loc 5 102 0
 1879 0034 FB68     		ldr	r3, [r7, #12]
 1880 0036 04E0     		b	.L64
 1881              	.L65:
 103:E:/LiteOS/LiteOS_Lab/iot_link/os/os_imp/liteos/base/mem/heap\los_heap.c ****     }
 104:E:/LiteOS/LiteOS_Lab/iot_link/os/os_imp/liteos/base/mem/heap\los_heap.c **** 
 105:E:/LiteOS/LiteOS_Lab/iot_link/os/os_imp/liteos/base/mem/heap\los_heap.c ****     __cm_init (&heap->cm);
 1882              		.loc 5 105 0
 1883 0038 7B68     		ldr	r3, [r7, #4]
 1884 003a 1846     		mov	r0, r3
 1885 003c FFF7FEFF 		bl	__cm_init
 106:E:/LiteOS/LiteOS_Lab/iot_link/os/os_imp/liteos/base/mem/heap\los_heap.c **** 
 107:E:/LiteOS/LiteOS_Lab/iot_link/os/os_imp/liteos/base/mem/heap\los_heap.c ****     return LOS_OK;
 1886              		.loc 5 107 0
 1887 0040 0023     		movs	r3, #0
 1888              	.L64:
 108:E:/LiteOS/LiteOS_Lab/iot_link/os/os_imp/liteos/base/mem/heap\los_heap.c **** }
 1889              		.loc 5 108 0
ARM GAS  C:\Users\user\AppData\Local\Temp\ccizJgFX.s 			page 49


 1890 0042 1846     		mov	r0, r3
 1891 0044 1037     		adds	r7, r7, #16
 1892              	.LCFI158:
 1893              		.cfi_def_cfa_offset 8
 1894 0046 BD46     		mov	sp, r7
 1895              	.LCFI159:
 1896              		.cfi_def_cfa_register 13
 1897              		@ sp needed
 1898 0048 80BD     		pop	{r7, pc}
 1899              		.cfi_endproc
 1900              	.LFE163:
 1902              		.section	.text.heap_add,"ax",%progbits
 1903              		.align	1
 1904              		.global	heap_add
 1905              		.syntax unified
 1906              		.thumb
 1907              		.thumb_func
 1908              		.fpu fpv4-sp-d16
 1910              	heap_add:
 1911              	.LFB164:
 109:E:/LiteOS/LiteOS_Lab/iot_link/os/os_imp/liteos/base/mem/heap\los_heap.c **** 
 110:E:/LiteOS/LiteOS_Lab/iot_link/os/os_imp/liteos/base/mem/heap\los_heap.c **** /**
 111:E:/LiteOS/LiteOS_Lab/iot_link/os/os_imp/liteos/base/mem/heap\los_heap.c ****  * heap_add - add a block of memory to a heap
 112:E:/LiteOS/LiteOS_Lab/iot_link/os/os_imp/liteos/base/mem/heap\los_heap.c ****  * @heap: the heap to add in
 113:E:/LiteOS/LiteOS_Lab/iot_link/os/os_imp/liteos/base/mem/heap\los_heap.c ****  * @buff: the memory address to add
 114:E:/LiteOS/LiteOS_Lab/iot_link/os/os_imp/liteos/base/mem/heap\los_heap.c ****  * @size: the memory block size
 115:E:/LiteOS/LiteOS_Lab/iot_link/os/os_imp/liteos/base/mem/heap\los_heap.c ****  *
 116:E:/LiteOS/LiteOS_Lab/iot_link/os/os_imp/liteos/base/mem/heap\los_heap.c ****  * return: 0 on success, negtive value on error
 117:E:/LiteOS/LiteOS_Lab/iot_link/os/os_imp/liteos/base/mem/heap\los_heap.c ****  */
 118:E:/LiteOS/LiteOS_Lab/iot_link/os/os_imp/liteos/base/mem/heap\los_heap.c **** 
 119:E:/LiteOS/LiteOS_Lab/iot_link/os/os_imp/liteos/base/mem/heap\los_heap.c **** int heap_add (heap_t * heap, char * buff, size_t size)
 120:E:/LiteOS/LiteOS_Lab/iot_link/os/os_imp/liteos/base/mem/heap\los_heap.c **** {
 1912              		.loc 5 120 0
 1913              		.cfi_startproc
 1914              		@ args = 0, pretend = 0, frame = 32
 1915              		@ frame_needed = 1, uses_anonymous_args = 0
 1916 0000 80B5     		push	{r7, lr}
 1917              	.LCFI160:
 1918              		.cfi_def_cfa_offset 8
 1919              		.cfi_offset 7, -8
 1920              		.cfi_offset 14, -4
 1921 0002 88B0     		sub	sp, sp, #32
 1922              	.LCFI161:
 1923              		.cfi_def_cfa_offset 40
 1924 0004 00AF     		add	r7, sp, #0
 1925              	.LCFI162:
 1926              		.cfi_def_cfa_register 7
 1927 0006 F860     		str	r0, [r7, #12]
 1928 0008 B960     		str	r1, [r7, #8]
 1929 000a 7A60     		str	r2, [r7, #4]
 121:E:/LiteOS/LiteOS_Lab/iot_link/os/os_imp/liteos/base/mem/heap\los_heap.c ****     int       ret;
 122:E:/LiteOS/LiteOS_Lab/iot_link/os/os_imp/liteos/base/mem/heap\los_heap.c ****     block_t * cb;
 123:E:/LiteOS/LiteOS_Lab/iot_link/os/os_imp/liteos/base/mem/heap\los_heap.c ****     chunk_t * chunk, * last;
 124:E:/LiteOS/LiteOS_Lab/iot_link/os/os_imp/liteos/base/mem/heap\los_heap.c **** 
 125:E:/LiteOS/LiteOS_Lab/iot_link/os/os_imp/liteos/base/mem/heap\los_heap.c ****     if ((heap == NULL) || (buff == NULL))
 1930              		.loc 5 125 0
 1931 000c FB68     		ldr	r3, [r7, #12]
ARM GAS  C:\Users\user\AppData\Local\Temp\ccizJgFX.s 			page 50


 1932 000e 002B     		cmp	r3, #0
 1933 0010 02D0     		beq	.L67
 1934              		.loc 5 125 0 is_stmt 0 discriminator 1
 1935 0012 BB68     		ldr	r3, [r7, #8]
 1936 0014 002B     		cmp	r3, #0
 1937 0016 02D1     		bne	.L68
 1938              	.L67:
 126:E:/LiteOS/LiteOS_Lab/iot_link/os/os_imp/liteos/base/mem/heap\los_heap.c ****     {
 127:E:/LiteOS/LiteOS_Lab/iot_link/os/os_imp/liteos/base/mem/heap\los_heap.c ****         return -1;
 1939              		.loc 5 127 0 is_stmt 1
 1940 0018 4FF0FF33 		mov	r3, #-1
 1941 001c 71E0     		b	.L69
 1942              	.L68:
 128:E:/LiteOS/LiteOS_Lab/iot_link/os/os_imp/liteos/base/mem/heap\los_heap.c ****     }
 129:E:/LiteOS/LiteOS_Lab/iot_link/os/os_imp/liteos/base/mem/heap\los_heap.c **** 
 130:E:/LiteOS/LiteOS_Lab/iot_link/os/os_imp/liteos/base/mem/heap\los_heap.c ****     size -= (uintptr_t) buff & ALLOC_ALIGN_MASK;
 1943              		.loc 5 130 0
 1944 001e BB68     		ldr	r3, [r7, #8]
 1945 0020 03F00303 		and	r3, r3, #3
 1946 0024 7A68     		ldr	r2, [r7, #4]
 1947 0026 D31A     		subs	r3, r2, r3
 1948 0028 7B60     		str	r3, [r7, #4]
 131:E:/LiteOS/LiteOS_Lab/iot_link/os/os_imp/liteos/base/mem/heap\los_heap.c ****     size &= ~ALLOC_ALIGN_MASK;
 1949              		.loc 5 131 0
 1950 002a 7B68     		ldr	r3, [r7, #4]
 1951 002c 23F00303 		bic	r3, r3, #3
 1952 0030 7B60     		str	r3, [r7, #4]
 132:E:/LiteOS/LiteOS_Lab/iot_link/os/os_imp/liteos/base/mem/heap\los_heap.c ****     buff  = (char *) ((uintptr_t) buff & ~ALLOC_ALIGN_MASK);
 1953              		.loc 5 132 0
 1954 0032 BB68     		ldr	r3, [r7, #8]
 1955 0034 23F00303 		bic	r3, r3, #3
 1956 0038 BB60     		str	r3, [r7, #8]
 133:E:/LiteOS/LiteOS_Lab/iot_link/os/os_imp/liteos/base/mem/heap\los_heap.c **** 
 134:E:/LiteOS/LiteOS_Lab/iot_link/os/os_imp/liteos/base/mem/heap\los_heap.c ****     if (buff > (buff + size))
 1957              		.loc 5 134 0
 1958 003a BA68     		ldr	r2, [r7, #8]
 1959 003c 7B68     		ldr	r3, [r7, #4]
 1960 003e 1344     		add	r3, r3, r2
 1961 0040 BA68     		ldr	r2, [r7, #8]
 1962 0042 9A42     		cmp	r2, r3
 1963 0044 02D9     		bls	.L70
 135:E:/LiteOS/LiteOS_Lab/iot_link/os/os_imp/liteos/base/mem/heap\los_heap.c ****     {
 136:E:/LiteOS/LiteOS_Lab/iot_link/os/os_imp/liteos/base/mem/heap\los_heap.c ****         return -1;
 1964              		.loc 5 136 0
 1965 0046 4FF0FF33 		mov	r3, #-1
 1966 004a 5AE0     		b	.L69
 1967              	.L70:
 137:E:/LiteOS/LiteOS_Lab/iot_link/os/os_imp/liteos/base/mem/heap\los_heap.c ****     }
 138:E:/LiteOS/LiteOS_Lab/iot_link/os/os_imp/liteos/base/mem/heap\los_heap.c **** 
 139:E:/LiteOS/LiteOS_Lab/iot_link/os/os_imp/liteos/base/mem/heap\los_heap.c ****     if (size < MIN_BLOCK_SIZE)
 1968              		.loc 5 139 0
 1969 004c 7B68     		ldr	r3, [r7, #4]
 1970 004e 272B     		cmp	r3, #39
 1971 0050 02D8     		bhi	.L71
 140:E:/LiteOS/LiteOS_Lab/iot_link/os/os_imp/liteos/base/mem/heap\los_heap.c ****     {
 141:E:/LiteOS/LiteOS_Lab/iot_link/os/os_imp/liteos/base/mem/heap\los_heap.c ****         return -1;
 1972              		.loc 5 141 0
ARM GAS  C:\Users\user\AppData\Local\Temp\ccizJgFX.s 			page 51


 1973 0052 4FF0FF33 		mov	r3, #-1
 1974 0056 54E0     		b	.L69
 1975              	.L71:
 142:E:/LiteOS/LiteOS_Lab/iot_link/os/os_imp/liteos/base/mem/heap\los_heap.c ****     }
 143:E:/LiteOS/LiteOS_Lab/iot_link/os/os_imp/liteos/base/mem/heap\los_heap.c **** 
 144:E:/LiteOS/LiteOS_Lab/iot_link/os/os_imp/liteos/base/mem/heap\los_heap.c ****     ret = LOS_MuxPend (heap->mux, LOS_WAIT_FOREVER);
 1976              		.loc 5 144 0
 1977 0058 FB68     		ldr	r3, [r7, #12]
 1978 005a D3F8B431 		ldr	r3, [r3, #436]
 1979 005e 4FF0FF31 		mov	r1, #-1
 1980 0062 1846     		mov	r0, r3
 1981 0064 FFF7FEFF 		bl	LOS_MuxPend
 1982 0068 0346     		mov	r3, r0
 1983 006a FB61     		str	r3, [r7, #28]
 145:E:/LiteOS/LiteOS_Lab/iot_link/os/os_imp/liteos/base/mem/heap\los_heap.c **** 
 146:E:/LiteOS/LiteOS_Lab/iot_link/os/os_imp/liteos/base/mem/heap\los_heap.c ****     if (ret != LOS_OK)
 1984              		.loc 5 146 0
 1985 006c FB69     		ldr	r3, [r7, #28]
 1986 006e 002B     		cmp	r3, #0
 1987 0070 01D0     		beq	.L72
 147:E:/LiteOS/LiteOS_Lab/iot_link/os/os_imp/liteos/base/mem/heap\los_heap.c ****     {
 148:E:/LiteOS/LiteOS_Lab/iot_link/os/os_imp/liteos/base/mem/heap\los_heap.c ****         return ret;
 1988              		.loc 5 148 0
 1989 0072 FB69     		ldr	r3, [r7, #28]
 1990 0074 45E0     		b	.L69
 1991              	.L72:
 149:E:/LiteOS/LiteOS_Lab/iot_link/os/os_imp/liteos/base/mem/heap\los_heap.c ****     }
 150:E:/LiteOS/LiteOS_Lab/iot_link/os/os_imp/liteos/base/mem/heap\los_heap.c **** 
 151:E:/LiteOS/LiteOS_Lab/iot_link/os/os_imp/liteos/base/mem/heap\los_heap.c ****     /*
 152:E:/LiteOS/LiteOS_Lab/iot_link/os/os_imp/liteos/base/mem/heap\los_heap.c ****      * this block of memory will be initialized as:
 153:E:/LiteOS/LiteOS_Lab/iot_link/os/os_imp/liteos/base/mem/heap\los_heap.c ****      *
 154:E:/LiteOS/LiteOS_Lab/iot_link/os/os_imp/liteos/base/mem/heap\los_heap.c ****      * +----+-----+-----+-----+
 155:E:/LiteOS/LiteOS_Lab/iot_link/os/os_imp/liteos/base/mem/heap\los_heap.c ****      * | CB | ACH | FCH | ACH |
 156:E:/LiteOS/LiteOS_Lab/iot_link/os/os_imp/liteos/base/mem/heap\los_heap.c ****      * +----+-----+-----+-----+
 157:E:/LiteOS/LiteOS_Lab/iot_link/os/os_imp/liteos/base/mem/heap\los_heap.c ****      *
 158:E:/LiteOS/LiteOS_Lab/iot_link/os/os_imp/liteos/base/mem/heap\los_heap.c ****      * CB  - chunk block
 159:E:/LiteOS/LiteOS_Lab/iot_link/os/os_imp/liteos/base/mem/heap\los_heap.c ****      * ACH - allocated chunk header
 160:E:/LiteOS/LiteOS_Lab/iot_link/os/os_imp/liteos/base/mem/heap\los_heap.c ****      * FCH - free chunk header
 161:E:/LiteOS/LiteOS_Lab/iot_link/os/os_imp/liteos/base/mem/heap\los_heap.c ****      *
 162:E:/LiteOS/LiteOS_Lab/iot_link/os/os_imp/liteos/base/mem/heap\los_heap.c ****      * These two ACH at the beginning and ending are guards.
 163:E:/LiteOS/LiteOS_Lab/iot_link/os/os_imp/liteos/base/mem/heap\los_heap.c ****      */
 164:E:/LiteOS/LiteOS_Lab/iot_link/os/os_imp/liteos/base/mem/heap\los_heap.c **** 
 165:E:/LiteOS/LiteOS_Lab/iot_link/os/os_imp/liteos/base/mem/heap\los_heap.c ****     cb           = (block_t *) (buff);
 1992              		.loc 5 165 0
 1993 0076 BB68     		ldr	r3, [r7, #8]
 1994 0078 BB61     		str	r3, [r7, #24]
 166:E:/LiteOS/LiteOS_Lab/iot_link/os/os_imp/liteos/base/mem/heap\los_heap.c ****     cb->size     = size;
 1995              		.loc 5 166 0
 1996 007a BB69     		ldr	r3, [r7, #24]
 1997 007c 7A68     		ldr	r2, [r7, #4]
 1998 007e 5A60     		str	r2, [r3, #4]
 167:E:/LiteOS/LiteOS_Lab/iot_link/os/os_imp/liteos/base/mem/heap\los_heap.c **** 
 168:E:/LiteOS/LiteOS_Lab/iot_link/os/os_imp/liteos/base/mem/heap\los_heap.c ****     cb->next     = heap->blocks;
 1999              		.loc 5 168 0
 2000 0080 FB68     		ldr	r3, [r7, #12]
 2001 0082 D3F8B021 		ldr	r2, [r3, #432]
 2002 0086 BB69     		ldr	r3, [r7, #24]
ARM GAS  C:\Users\user\AppData\Local\Temp\ccizJgFX.s 			page 52


 2003 0088 1A60     		str	r2, [r3]
 169:E:/LiteOS/LiteOS_Lab/iot_link/os/os_imp/liteos/base/mem/heap\los_heap.c ****     heap->blocks = cb;
 2004              		.loc 5 169 0
 2005 008a FB68     		ldr	r3, [r7, #12]
 2006 008c BA69     		ldr	r2, [r7, #24]
 2007 008e C3F8B021 		str	r2, [r3, #432]
 170:E:/LiteOS/LiteOS_Lab/iot_link/os/os_imp/liteos/base/mem/heap\los_heap.c **** 
 171:E:/LiteOS/LiteOS_Lab/iot_link/os/os_imp/liteos/base/mem/heap\los_heap.c ****     chunk        = (chunk_t *) (cb + 1);
 2008              		.loc 5 171 0
 2009 0092 BB69     		ldr	r3, [r7, #24]
 2010 0094 0833     		adds	r3, r3, #8
 2011 0096 7B61     		str	r3, [r7, #20]
 172:E:/LiteOS/LiteOS_Lab/iot_link/os/os_imp/liteos/base/mem/heap\los_heap.c **** 
 173:E:/LiteOS/LiteOS_Lab/iot_link/os/os_imp/liteos/base/mem/heap\los_heap.c ****     chunk->prev  = NULL;
 2012              		.loc 5 173 0
 2013 0098 7B69     		ldr	r3, [r7, #20]
 2014 009a 0022     		movs	r2, #0
 2015 009c 1A60     		str	r2, [r3]
 174:E:/LiteOS/LiteOS_Lab/iot_link/os/os_imp/liteos/base/mem/heap\los_heap.c ****     chunk->size  = sizeof (ach_t);
 2016              		.loc 5 174 0
 2017 009e 7B69     		ldr	r3, [r7, #20]
 2018 00a0 0822     		movs	r2, #8
 2019 00a2 5A60     		str	r2, [r3, #4]
 175:E:/LiteOS/LiteOS_Lab/iot_link/os/os_imp/liteos/base/mem/heap\los_heap.c ****     __set_chunk_allocated (chunk);
 2020              		.loc 5 175 0
 2021 00a4 7869     		ldr	r0, [r7, #20]
 2022 00a6 FFF7FEFF 		bl	__set_chunk_allocated
 176:E:/LiteOS/LiteOS_Lab/iot_link/os/os_imp/liteos/base/mem/heap\los_heap.c **** 
 177:E:/LiteOS/LiteOS_Lab/iot_link/os/os_imp/liteos/base/mem/heap\los_heap.c ****     chunk        = __get_next_chunk (chunk);
 2023              		.loc 5 177 0
 2024 00aa 7869     		ldr	r0, [r7, #20]
 2025 00ac FFF7FEFF 		bl	__get_next_chunk
 2026 00b0 7861     		str	r0, [r7, #20]
 178:E:/LiteOS/LiteOS_Lab/iot_link/os/os_imp/liteos/base/mem/heap\los_heap.c ****     chunk->prev  = (chunk_t *) (cb + 1);
 2027              		.loc 5 178 0
 2028 00b2 BB69     		ldr	r3, [r7, #24]
 2029 00b4 03F10802 		add	r2, r3, #8
 2030 00b8 7B69     		ldr	r3, [r7, #20]
 2031 00ba 1A60     		str	r2, [r3]
 179:E:/LiteOS/LiteOS_Lab/iot_link/os/os_imp/liteos/base/mem/heap\los_heap.c ****     chunk->size  = (size - sizeof (block_t) - 2 * sizeof (ach_t));
 2032              		.loc 5 179 0
 2033 00bc 7B68     		ldr	r3, [r7, #4]
 2034 00be A3F11802 		sub	r2, r3, #24
 2035 00c2 7B69     		ldr	r3, [r7, #20]
 2036 00c4 5A60     		str	r2, [r3, #4]
 180:E:/LiteOS/LiteOS_Lab/iot_link/os/os_imp/liteos/base/mem/heap\los_heap.c **** 
 181:E:/LiteOS/LiteOS_Lab/iot_link/os/os_imp/liteos/base/mem/heap\los_heap.c ****     if (__put_chunk (heap, chunk) != 0)
 2037              		.loc 5 181 0
 2038 00c6 7969     		ldr	r1, [r7, #20]
 2039 00c8 F868     		ldr	r0, [r7, #12]
 2040 00ca FFF7FEFF 		bl	__put_chunk
 2041 00ce 0346     		mov	r3, r0
 2042 00d0 002B     		cmp	r3, #0
 2043 00d2 02D0     		beq	.L73
 182:E:/LiteOS/LiteOS_Lab/iot_link/os/os_imp/liteos/base/mem/heap\los_heap.c ****     {
 183:E:/LiteOS/LiteOS_Lab/iot_link/os/os_imp/liteos/base/mem/heap\los_heap.c ****         return -1;
 2044              		.loc 5 183 0
ARM GAS  C:\Users\user\AppData\Local\Temp\ccizJgFX.s 			page 53


 2045 00d4 4FF0FF33 		mov	r3, #-1
 2046 00d8 13E0     		b	.L69
 2047              	.L73:
 184:E:/LiteOS/LiteOS_Lab/iot_link/os/os_imp/liteos/base/mem/heap\los_heap.c ****     }
 185:E:/LiteOS/LiteOS_Lab/iot_link/os/os_imp/liteos/base/mem/heap\los_heap.c **** 
 186:E:/LiteOS/LiteOS_Lab/iot_link/os/os_imp/liteos/base/mem/heap\los_heap.c ****     last         = __get_next_chunk (chunk);
 2048              		.loc 5 186 0
 2049 00da 7869     		ldr	r0, [r7, #20]
 2050 00dc FFF7FEFF 		bl	__get_next_chunk
 2051 00e0 3861     		str	r0, [r7, #16]
 187:E:/LiteOS/LiteOS_Lab/iot_link/os/os_imp/liteos/base/mem/heap\los_heap.c **** 
 188:E:/LiteOS/LiteOS_Lab/iot_link/os/os_imp/liteos/base/mem/heap\los_heap.c ****     last->prev   = chunk;
 2052              		.loc 5 188 0
 2053 00e2 3B69     		ldr	r3, [r7, #16]
 2054 00e4 7A69     		ldr	r2, [r7, #20]
 2055 00e6 1A60     		str	r2, [r3]
 189:E:/LiteOS/LiteOS_Lab/iot_link/os/os_imp/liteos/base/mem/heap\los_heap.c ****     last->size   = sizeof (ach_t);
 2056              		.loc 5 189 0
 2057 00e8 3B69     		ldr	r3, [r7, #16]
 2058 00ea 0822     		movs	r2, #8
 2059 00ec 5A60     		str	r2, [r3, #4]
 190:E:/LiteOS/LiteOS_Lab/iot_link/os/os_imp/liteos/base/mem/heap\los_heap.c ****     __set_chunk_allocated (last);
 2060              		.loc 5 190 0
 2061 00ee 3869     		ldr	r0, [r7, #16]
 2062 00f0 FFF7FEFF 		bl	__set_chunk_allocated
 191:E:/LiteOS/LiteOS_Lab/iot_link/os/os_imp/liteos/base/mem/heap\los_heap.c **** 
 192:E:/LiteOS/LiteOS_Lab/iot_link/os/os_imp/liteos/base/mem/heap\los_heap.c ****     (void) LOS_MuxPost (heap->mux);
 2063              		.loc 5 192 0
 2064 00f4 FB68     		ldr	r3, [r7, #12]
 2065 00f6 D3F8B431 		ldr	r3, [r3, #436]
 2066 00fa 1846     		mov	r0, r3
 2067 00fc FFF7FEFF 		bl	LOS_MuxPost
 193:E:/LiteOS/LiteOS_Lab/iot_link/os/os_imp/liteos/base/mem/heap\los_heap.c **** 
 194:E:/LiteOS/LiteOS_Lab/iot_link/os/os_imp/liteos/base/mem/heap\los_heap.c ****     return 0;
 2068              		.loc 5 194 0
 2069 0100 0023     		movs	r3, #0
 2070              	.L69:
 195:E:/LiteOS/LiteOS_Lab/iot_link/os/os_imp/liteos/base/mem/heap\los_heap.c **** }
 2071              		.loc 5 195 0
 2072 0102 1846     		mov	r0, r3
 2073 0104 2037     		adds	r7, r7, #32
 2074              	.LCFI163:
 2075              		.cfi_def_cfa_offset 8
 2076 0106 BD46     		mov	sp, r7
 2077              	.LCFI164:
 2078              		.cfi_def_cfa_register 13
 2079              		@ sp needed
 2080 0108 80BD     		pop	{r7, pc}
 2081              		.cfi_endproc
 2082              	.LFE164:
 2084              		.section	.text.__carve_extra,"ax",%progbits
 2085              		.align	1
 2086              		.syntax unified
 2087              		.thumb
 2088              		.thumb_func
 2089              		.fpu fpv4-sp-d16
 2091              	__carve_extra:
ARM GAS  C:\Users\user\AppData\Local\Temp\ccizJgFX.s 			page 54


 2092              	.LFB165:
 196:E:/LiteOS/LiteOS_Lab/iot_link/os/os_imp/liteos/base/mem/heap\los_heap.c **** 
 197:E:/LiteOS/LiteOS_Lab/iot_link/os/os_imp/liteos/base/mem/heap\los_heap.c **** /**
 198:E:/LiteOS/LiteOS_Lab/iot_link/os/os_imp/liteos/base/mem/heap\los_heap.c ****  * __carve_extra - round up a block of memory and carve the unused memory at
 199:E:/LiteOS/LiteOS_Lab/iot_link/os/os_imp/liteos/base/mem/heap\los_heap.c ****  *                 the beginning and ending
 200:E:/LiteOS/LiteOS_Lab/iot_link/os/os_imp/liteos/base/mem/heap\los_heap.c ****  * @heap:  the heap used
 201:E:/LiteOS/LiteOS_Lab/iot_link/os/os_imp/liteos/base/mem/heap\los_heap.c ****  * @chunk: the chunk which hold the memory block to round up and carve
 202:E:/LiteOS/LiteOS_Lab/iot_link/os/os_imp/liteos/base/mem/heap\los_heap.c ****  * @align: the alignment to round up
 203:E:/LiteOS/LiteOS_Lab/iot_link/os/os_imp/liteos/base/mem/heap\los_heap.c ****  *
 204:E:/LiteOS/LiteOS_Lab/iot_link/os/os_imp/liteos/base/mem/heap\los_heap.c ****  * return: the new aligned memory block
 205:E:/LiteOS/LiteOS_Lab/iot_link/os/os_imp/liteos/base/mem/heap\los_heap.c ****  */
 206:E:/LiteOS/LiteOS_Lab/iot_link/os/os_imp/liteos/base/mem/heap\los_heap.c **** 
 207:E:/LiteOS/LiteOS_Lab/iot_link/os/os_imp/liteos/base/mem/heap\los_heap.c **** static inline char * __carve_extra (heap_t * heap, chunk_t * chunk,
 208:E:/LiteOS/LiteOS_Lab/iot_link/os/os_imp/liteos/base/mem/heap\los_heap.c ****                                     size_t align, size_t size)
 209:E:/LiteOS/LiteOS_Lab/iot_link/os/os_imp/liteos/base/mem/heap\los_heap.c **** {
 2093              		.loc 5 209 0
 2094              		.cfi_startproc
 2095              		@ args = 0, pretend = 0, frame = 40
 2096              		@ frame_needed = 1, uses_anonymous_args = 0
 2097 0000 80B5     		push	{r7, lr}
 2098              	.LCFI165:
 2099              		.cfi_def_cfa_offset 8
 2100              		.cfi_offset 7, -8
 2101              		.cfi_offset 14, -4
 2102 0002 8AB0     		sub	sp, sp, #40
 2103              	.LCFI166:
 2104              		.cfi_def_cfa_offset 48
 2105 0004 00AF     		add	r7, sp, #0
 2106              	.LCFI167:
 2107              		.cfi_def_cfa_register 7
 2108 0006 F860     		str	r0, [r7, #12]
 2109 0008 B960     		str	r1, [r7, #8]
 2110 000a 7A60     		str	r2, [r7, #4]
 2111 000c 3B60     		str	r3, [r7]
 210:E:/LiteOS/LiteOS_Lab/iot_link/os/os_imp/liteos/base/mem/heap\los_heap.c ****     char    * mem         = __get_mem_block (chunk);
 2112              		.loc 5 210 0
 2113 000e B868     		ldr	r0, [r7, #8]
 2114 0010 FFF7FEFF 		bl	__get_mem_block
 2115 0014 3862     		str	r0, [r7, #32]
 211:E:/LiteOS/LiteOS_Lab/iot_link/os/os_imp/liteos/base/mem/heap\los_heap.c ****     char    * aligned_mem = (char *) round_up (mem, align);
 2116              		.loc 5 211 0
 2117 0016 3A6A     		ldr	r2, [r7, #32]
 2118 0018 7B68     		ldr	r3, [r7, #4]
 2119 001a 1344     		add	r3, r3, r2
 2120 001c 5A1E     		subs	r2, r3, #1
 2121 001e 7B68     		ldr	r3, [r7, #4]
 2122 0020 5B42     		negs	r3, r3
 2123 0022 1340     		ands	r3, r3, r2
 2124 0024 FB61     		str	r3, [r7, #28]
 212:E:/LiteOS/LiteOS_Lab/iot_link/os/os_imp/liteos/base/mem/heap\los_heap.c ****     ach_t   * ach         = (ach_t *) chunk;
 2125              		.loc 5 212 0
 2126 0026 BB68     		ldr	r3, [r7, #8]
 2127 0028 7B62     		str	r3, [r7, #36]
 213:E:/LiteOS/LiteOS_Lab/iot_link/os/os_imp/liteos/base/mem/heap\los_heap.c ****     chunk_t * next;
 214:E:/LiteOS/LiteOS_Lab/iot_link/os/os_imp/liteos/base/mem/heap\los_heap.c ****     size_t    usable_size;
 215:E:/LiteOS/LiteOS_Lab/iot_link/os/os_imp/liteos/base/mem/heap\los_heap.c **** 
 216:E:/LiteOS/LiteOS_Lab/iot_link/os/os_imp/liteos/base/mem/heap\los_heap.c ****     if (aligned_mem != mem)
ARM GAS  C:\Users\user\AppData\Local\Temp\ccizJgFX.s 			page 55


 2128              		.loc 5 216 0
 2129 002a FA69     		ldr	r2, [r7, #28]
 2130 002c 3B6A     		ldr	r3, [r7, #32]
 2131 002e 9A42     		cmp	r2, r3
 2132 0030 27D0     		beq	.L75
 217:E:/LiteOS/LiteOS_Lab/iot_link/os/os_imp/liteos/base/mem/heap\los_heap.c ****     {
 218:E:/LiteOS/LiteOS_Lab/iot_link/os/os_imp/liteos/base/mem/heap\los_heap.c **** 
 219:E:/LiteOS/LiteOS_Lab/iot_link/os/os_imp/liteos/base/mem/heap\los_heap.c ****         /*
 220:E:/LiteOS/LiteOS_Lab/iot_link/os/os_imp/liteos/base/mem/heap\los_heap.c ****          * carve at the begining (carve head)
 221:E:/LiteOS/LiteOS_Lab/iot_link/os/os_imp/liteos/base/mem/heap\los_heap.c ****          *
 222:E:/LiteOS/LiteOS_Lab/iot_link/os/os_imp/liteos/base/mem/heap\los_heap.c ****          *   .-chunk(FCH)-.
 223:E:/LiteOS/LiteOS_Lab/iot_link/os/os_imp/liteos/base/mem/heap\los_heap.c ****          *  /              \
 224:E:/LiteOS/LiteOS_Lab/iot_link/os/os_imp/liteos/base/mem/heap\los_heap.c ****          * +---+---+---+---+~~~+---+---+~~
 225:E:/LiteOS/LiteOS_Lab/iot_link/os/os_imp/liteos/base/mem/heap\los_heap.c ****          * | p | s |   l   | ~ | p | s |
 226:E:/LiteOS/LiteOS_Lab/iot_link/os/os_imp/liteos/base/mem/heap\los_heap.c ****          * | r | i |   i   | ~ | r | i |
 227:E:/LiteOS/LiteOS_Lab/iot_link/os/os_imp/liteos/base/mem/heap\los_heap.c ****          * | e | z |   s   | ~ | e | z |
 228:E:/LiteOS/LiteOS_Lab/iot_link/os/os_imp/liteos/base/mem/heap\los_heap.c ****          * | v | e |   t   | ~ | v | e |
 229:E:/LiteOS/LiteOS_Lab/iot_link/os/os_imp/liteos/base/mem/heap\los_heap.c ****          * +---+---+---+---+~~~+---+---+~~
 230:E:/LiteOS/LiteOS_Lab/iot_link/os/os_imp/liteos/base/mem/heap\los_heap.c ****          *         \           \       /\
 231:E:/LiteOS/LiteOS_Lab/iot_link/os/os_imp/liteos/base/mem/heap\los_heap.c ****          *          `-- mem     `-ach-' `-- aligned_mem
 232:E:/LiteOS/LiteOS_Lab/iot_link/os/os_imp/liteos/base/mem/heap\los_heap.c ****          *
 233:E:/LiteOS/LiteOS_Lab/iot_link/os/os_imp/liteos/base/mem/heap\los_heap.c ****          * now "mem != aligned_mem", so there must be "chunk < ach" so there are
 234:E:/LiteOS/LiteOS_Lab/iot_link/os/os_imp/liteos/base/mem/heap\los_heap.c ****          * memory space in front of ach (chunk ~ ach), if "(ach - chunk) <= chunk",
 235:E:/LiteOS/LiteOS_Lab/iot_link/os/os_imp/liteos/base/mem/heap\los_heap.c ****          * needless create new chunk, it is not worse to add logic save such memory
 236:E:/LiteOS/LiteOS_Lab/iot_link/os/os_imp/liteos/base/mem/heap\los_heap.c ****          * block, because for any method to save such memory block we must allocate
 237:E:/LiteOS/LiteOS_Lab/iot_link/os/os_imp/liteos/base/mem/heap\los_heap.c ****          * a chunk head for it, the chunk head itself waste more memory
 238:E:/LiteOS/LiteOS_Lab/iot_link/os/os_imp/liteos/base/mem/heap\los_heap.c ****          */
 239:E:/LiteOS/LiteOS_Lab/iot_link/os/os_imp/liteos/base/mem/heap\los_heap.c **** 
 240:E:/LiteOS/LiteOS_Lab/iot_link/os/os_imp/liteos/base/mem/heap\los_heap.c ****         if ((aligned_mem - (char *) chunk) <= (sizeof (chunk_t) + sizeof (ach_t)))
 2133              		.loc 5 240 0
 2134 0032 FA69     		ldr	r2, [r7, #28]
 2135 0034 BB68     		ldr	r3, [r7, #8]
 2136 0036 D31A     		subs	r3, r2, r3
 2137 0038 182B     		cmp	r3, #24
 2138 003a 04D8     		bhi	.L76
 241:E:/LiteOS/LiteOS_Lab/iot_link/os/os_imp/liteos/base/mem/heap\los_heap.c ****         {
 242:E:/LiteOS/LiteOS_Lab/iot_link/os/os_imp/liteos/base/mem/heap\los_heap.c ****             __set_ach_to_mem (aligned_mem, chunk);
 2139              		.loc 5 242 0
 2140 003c B968     		ldr	r1, [r7, #8]
 2141 003e F869     		ldr	r0, [r7, #28]
 2142 0040 FFF7FEFF 		bl	__set_ach_to_mem
 2143 0044 1DE0     		b	.L75
 2144              	.L76:
 243:E:/LiteOS/LiteOS_Lab/iot_link/os/os_imp/liteos/base/mem/heap\los_heap.c ****         }
 244:E:/LiteOS/LiteOS_Lab/iot_link/os/os_imp/liteos/base/mem/heap\los_heap.c ****         else
 245:E:/LiteOS/LiteOS_Lab/iot_link/os/os_imp/liteos/base/mem/heap\los_heap.c ****         {
 246:E:/LiteOS/LiteOS_Lab/iot_link/os/os_imp/liteos/base/mem/heap\los_heap.c ****             ach = (ach_t *) (aligned_mem - sizeof (ach_t));
 2145              		.loc 5 246 0
 2146 0046 FB69     		ldr	r3, [r7, #28]
 2147 0048 083B     		subs	r3, r3, #8
 2148 004a 7B62     		str	r3, [r7, #36]
 247:E:/LiteOS/LiteOS_Lab/iot_link/os/os_imp/liteos/base/mem/heap\los_heap.c **** 
 248:E:/LiteOS/LiteOS_Lab/iot_link/os/os_imp/liteos/base/mem/heap\los_heap.c ****             ach->prev = chunk;
 2149              		.loc 5 248 0
 2150 004c 7B6A     		ldr	r3, [r7, #36]
 2151 004e BA68     		ldr	r2, [r7, #8]
 2152 0050 1A60     		str	r2, [r3]
ARM GAS  C:\Users\user\AppData\Local\Temp\ccizJgFX.s 			page 56


 249:E:/LiteOS/LiteOS_Lab/iot_link/os/os_imp/liteos/base/mem/heap\los_heap.c ****             ach->size = chunk->size - ((char *) ach - (char *) chunk);
 2153              		.loc 5 249 0
 2154 0052 BB68     		ldr	r3, [r7, #8]
 2155 0054 5B68     		ldr	r3, [r3, #4]
 2156 0056 796A     		ldr	r1, [r7, #36]
 2157 0058 BA68     		ldr	r2, [r7, #8]
 2158 005a 8A1A     		subs	r2, r1, r2
 2159 005c 9A1A     		subs	r2, r3, r2
 2160 005e 7B6A     		ldr	r3, [r7, #36]
 2161 0060 5A60     		str	r2, [r3, #4]
 250:E:/LiteOS/LiteOS_Lab/iot_link/os/os_imp/liteos/base/mem/heap\los_heap.c **** 
 251:E:/LiteOS/LiteOS_Lab/iot_link/os/os_imp/liteos/base/mem/heap\los_heap.c ****             __get_next_chunk ((chunk_t *) ach)->prev = (chunk_t *) ach;
 2162              		.loc 5 251 0
 2163 0062 786A     		ldr	r0, [r7, #36]
 2164 0064 FFF7FEFF 		bl	__get_next_chunk
 2165 0068 0246     		mov	r2, r0
 2166 006a 7B6A     		ldr	r3, [r7, #36]
 2167 006c 1360     		str	r3, [r2]
 252:E:/LiteOS/LiteOS_Lab/iot_link/os/os_imp/liteos/base/mem/heap\los_heap.c **** 
 253:E:/LiteOS/LiteOS_Lab/iot_link/os/os_imp/liteos/base/mem/heap\los_heap.c ****             chunk->size = (char *) ach - (char *) chunk;
 2168              		.loc 5 253 0
 2169 006e 7A6A     		ldr	r2, [r7, #36]
 2170 0070 BB68     		ldr	r3, [r7, #8]
 2171 0072 D31A     		subs	r3, r2, r3
 2172 0074 1A46     		mov	r2, r3
 2173 0076 BB68     		ldr	r3, [r7, #8]
 2174 0078 5A60     		str	r2, [r3, #4]
 254:E:/LiteOS/LiteOS_Lab/iot_link/os/os_imp/liteos/base/mem/heap\los_heap.c **** 
 255:E:/LiteOS/LiteOS_Lab/iot_link/os/os_imp/liteos/base/mem/heap\los_heap.c ****             __put_chunk (heap, chunk);
 2175              		.loc 5 255 0
 2176 007a B968     		ldr	r1, [r7, #8]
 2177 007c F868     		ldr	r0, [r7, #12]
 2178 007e FFF7FEFF 		bl	__put_chunk
 2179              	.L75:
 256:E:/LiteOS/LiteOS_Lab/iot_link/os/os_imp/liteos/base/mem/heap\los_heap.c ****         }
 257:E:/LiteOS/LiteOS_Lab/iot_link/os/os_imp/liteos/base/mem/heap\los_heap.c ****     }
 258:E:/LiteOS/LiteOS_Lab/iot_link/os/os_imp/liteos/base/mem/heap\los_heap.c **** 
 259:E:/LiteOS/LiteOS_Lab/iot_link/os/os_imp/liteos/base/mem/heap\los_heap.c ****     /*
 260:E:/LiteOS/LiteOS_Lab/iot_link/os/os_imp/liteos/base/mem/heap\los_heap.c ****      * carve at the ending (carve tail)
 261:E:/LiteOS/LiteOS_Lab/iot_link/os/os_imp/liteos/base/mem/heap\los_heap.c ****      *
 262:E:/LiteOS/LiteOS_Lab/iot_link/os/os_imp/liteos/base/mem/heap\los_heap.c ****      * there may be small memory gap (less than a chunk head size) betwen
 263:E:/LiteOS/LiteOS_Lab/iot_link/os/os_imp/liteos/base/mem/heap\los_heap.c ****      * __get_mem_block (chunk) and mem, see above "carve head" for details
 264:E:/LiteOS/LiteOS_Lab/iot_link/os/os_imp/liteos/base/mem/heap\los_heap.c ****      *
 265:E:/LiteOS/LiteOS_Lab/iot_link/os/os_imp/liteos/base/mem/heap\los_heap.c ****      *                     .-- total size is chunk->size
 266:E:/LiteOS/LiteOS_Lab/iot_link/os/os_imp/liteos/base/mem/heap\los_heap.c ****      *                    /
 267:E:/LiteOS/LiteOS_Lab/iot_link/os/os_imp/liteos/base/mem/heap\los_heap.c ****      *  ..................+....................
 268:E:/LiteOS/LiteOS_Lab/iot_link/os/os_imp/liteos/base/mem/heap\los_heap.c ****      * /                                       \
 269:E:/LiteOS/LiteOS_Lab/iot_link/os/os_imp/liteos/base/mem/heap\los_heap.c ****      * +-----+-----+----------------------------+------------+ ~ ...
 270:E:/LiteOS/LiteOS_Lab/iot_link/os/os_imp/liteos/base/mem/heap\los_heap.c ****      * | ACH | GAP |        usable memory       | next chunk | ~ ...
 271:E:/LiteOS/LiteOS_Lab/iot_link/os/os_imp/liteos/base/mem/heap\los_heap.c ****      * +-----+-----+----------------------------+------------+ ~ ...
 272:E:/LiteOS/LiteOS_Lab/iot_link/os/os_imp/liteos/base/mem/heap\los_heap.c ****      * \            \
 273:E:/LiteOS/LiteOS_Lab/iot_link/os/os_imp/liteos/base/mem/heap\los_heap.c ****      *  \            `-------- mem
 274:E:/LiteOS/LiteOS_Lab/iot_link/os/os_imp/liteos/base/mem/heap\los_heap.c ****      *   `-------------------- chunk
 275:E:/LiteOS/LiteOS_Lab/iot_link/os/os_imp/liteos/base/mem/heap\los_heap.c ****      *
 276:E:/LiteOS/LiteOS_Lab/iot_link/os/os_imp/liteos/base/mem/heap\los_heap.c ****      * so, the usable memory size is (chunk->size - (addr (mem) - (addr) chunk))
 277:E:/LiteOS/LiteOS_Lab/iot_link/os/os_imp/liteos/base/mem/heap\los_heap.c ****      *
 278:E:/LiteOS/LiteOS_Lab/iot_link/os/os_imp/liteos/base/mem/heap\los_heap.c ****      * we are going to carve extra memory block at the end of the usable memory
ARM GAS  C:\Users\user\AppData\Local\Temp\ccizJgFX.s 			page 57


 279:E:/LiteOS/LiteOS_Lab/iot_link/os/os_imp/liteos/base/mem/heap\los_heap.c ****      */
 280:E:/LiteOS/LiteOS_Lab/iot_link/os/os_imp/liteos/base/mem/heap\los_heap.c **** 
 281:E:/LiteOS/LiteOS_Lab/iot_link/os/os_imp/liteos/base/mem/heap\los_heap.c ****     usable_size = ach->size - (aligned_mem - (char *) ach);
 2180              		.loc 5 281 0
 2181 0082 7B6A     		ldr	r3, [r7, #36]
 2182 0084 5B68     		ldr	r3, [r3, #4]
 2183 0086 F969     		ldr	r1, [r7, #28]
 2184 0088 7A6A     		ldr	r2, [r7, #36]
 2185 008a 8A1A     		subs	r2, r1, r2
 2186 008c 9B1A     		subs	r3, r3, r2
 2187 008e BB61     		str	r3, [r7, #24]
 282:E:/LiteOS/LiteOS_Lab/iot_link/os/os_imp/liteos/base/mem/heap\los_heap.c **** 
 283:E:/LiteOS/LiteOS_Lab/iot_link/os/os_imp/liteos/base/mem/heap\los_heap.c ****     /*
 284:E:/LiteOS/LiteOS_Lab/iot_link/os/os_imp/liteos/base/mem/heap\los_heap.c ****      * if the extra memory at the end is smaller than a chunk head size, do not
 285:E:/LiteOS/LiteOS_Lab/iot_link/os/os_imp/liteos/base/mem/heap\los_heap.c ****      * create new chunk
 286:E:/LiteOS/LiteOS_Lab/iot_link/os/os_imp/liteos/base/mem/heap\los_heap.c ****      */
 287:E:/LiteOS/LiteOS_Lab/iot_link/os/os_imp/liteos/base/mem/heap\los_heap.c **** 
 288:E:/LiteOS/LiteOS_Lab/iot_link/os/os_imp/liteos/base/mem/heap\los_heap.c ****     if ((usable_size - size) >= sizeof (chunk_t))
 2188              		.loc 5 288 0
 2189 0090 BA69     		ldr	r2, [r7, #24]
 2190 0092 3B68     		ldr	r3, [r7]
 2191 0094 D31A     		subs	r3, r2, r3
 2192 0096 0F2B     		cmp	r3, #15
 2193 0098 1ED9     		bls	.L77
 289:E:/LiteOS/LiteOS_Lab/iot_link/os/os_imp/liteos/base/mem/heap\los_heap.c ****     {
 290:E:/LiteOS/LiteOS_Lab/iot_link/os/os_imp/liteos/base/mem/heap\los_heap.c **** 
 291:E:/LiteOS/LiteOS_Lab/iot_link/os/os_imp/liteos/base/mem/heap\los_heap.c ****         /*
 292:E:/LiteOS/LiteOS_Lab/iot_link/os/os_imp/liteos/base/mem/heap\los_heap.c ****          * there is extra memory at the end of usable memory greater than chunk size:
 293:E:/LiteOS/LiteOS_Lab/iot_link/os/os_imp/liteos/base/mem/heap\los_heap.c ****          *
 294:E:/LiteOS/LiteOS_Lab/iot_link/os/os_imp/liteos/base/mem/heap\los_heap.c ****          *                              .----- usable memory
 295:E:/LiteOS/LiteOS_Lab/iot_link/os/os_imp/liteos/base/mem/heap\los_heap.c ****          *                             /
 296:E:/LiteOS/LiteOS_Lab/iot_link/os/os_imp/liteos/base/mem/heap\los_heap.c ****          *                   .........+........
 297:E:/LiteOS/LiteOS_Lab/iot_link/os/os_imp/liteos/base/mem/heap\los_heap.c ****          *                  /                  \
 298:E:/LiteOS/LiteOS_Lab/iot_link/os/os_imp/liteos/base/mem/heap\los_heap.c ****          *                 /      .- size       \
 299:E:/LiteOS/LiteOS_Lab/iot_link/os/os_imp/liteos/base/mem/heap\los_heap.c ****          *                /      /               \
 300:E:/LiteOS/LiteOS_Lab/iot_link/os/os_imp/liteos/base/mem/heap\los_heap.c ****          *               .......+......           \
 301:E:/LiteOS/LiteOS_Lab/iot_link/os/os_imp/liteos/base/mem/heap\los_heap.c ****          *              /              \           \
 302:E:/LiteOS/LiteOS_Lab/iot_link/os/os_imp/liteos/base/mem/heap\los_heap.c ****          * +-----+-----+----------------+-----------+------------+ ~ ...
 303:E:/LiteOS/LiteOS_Lab/iot_link/os/os_imp/liteos/base/mem/heap\los_heap.c ****          * | ACH | GAP | wanted memory  | extra mem | next chunk | ~ ...
 304:E:/LiteOS/LiteOS_Lab/iot_link/os/os_imp/liteos/base/mem/heap\los_heap.c ****          * +-----+-----+----------------+-----------+------------+ ~ ...
 305:E:/LiteOS/LiteOS_Lab/iot_link/os/os_imp/liteos/base/mem/heap\los_heap.c ****          *  \           \                 \
 306:E:/LiteOS/LiteOS_Lab/iot_link/os/os_imp/liteos/base/mem/heap\los_heap.c ****          *   \           \                 `-- extra memory at the end
 307:E:/LiteOS/LiteOS_Lab/iot_link/os/os_imp/liteos/base/mem/heap\los_heap.c ****          *    \           `------------------- mem
 308:E:/LiteOS/LiteOS_Lab/iot_link/os/os_imp/liteos/base/mem/heap\los_heap.c ****          *     `------------------------------ ach
 309:E:/LiteOS/LiteOS_Lab/iot_link/os/os_imp/liteos/base/mem/heap\los_heap.c ****          *
 310:E:/LiteOS/LiteOS_Lab/iot_link/os/os_imp/liteos/base/mem/heap\los_heap.c ****          * ==>
 311:E:/LiteOS/LiteOS_Lab/iot_link/os/os_imp/liteos/base/mem/heap\los_heap.c ****          *
 312:E:/LiteOS/LiteOS_Lab/iot_link/os/os_imp/liteos/base/mem/heap\los_heap.c ****          * +-----+-----+----------------+-----+-----+------------+ ~ ...
 313:E:/LiteOS/LiteOS_Lab/iot_link/os/os_imp/liteos/base/mem/heap\los_heap.c ****          * | ACH | GAP | wanted memory  | FCH | mem | next chunk | ~ ...
 314:E:/LiteOS/LiteOS_Lab/iot_link/os/os_imp/liteos/base/mem/heap\los_heap.c ****          * +-----+-----+----------------+-----+-----+------------+ ~ ...
 315:E:/LiteOS/LiteOS_Lab/iot_link/os/os_imp/liteos/base/mem/heap\los_heap.c ****          *  \           \                \
 316:E:/LiteOS/LiteOS_Lab/iot_link/os/os_imp/liteos/base/mem/heap\los_heap.c ****          *   \           \                `--- new_chunk, will return to heap
 317:E:/LiteOS/LiteOS_Lab/iot_link/os/os_imp/liteos/base/mem/heap\los_heap.c ****          *    \           `------------------- mem, will return to user
 318:E:/LiteOS/LiteOS_Lab/iot_link/os/os_imp/liteos/base/mem/heap\los_heap.c ****          *     `------------------------------ ach
 319:E:/LiteOS/LiteOS_Lab/iot_link/os/os_imp/liteos/base/mem/heap\los_heap.c ****          */
 320:E:/LiteOS/LiteOS_Lab/iot_link/os/os_imp/liteos/base/mem/heap\los_heap.c **** 
 321:E:/LiteOS/LiteOS_Lab/iot_link/os/os_imp/liteos/base/mem/heap\los_heap.c ****         ach->size  -= (usable_size - size);
ARM GAS  C:\Users\user\AppData\Local\Temp\ccizJgFX.s 			page 58


 2194              		.loc 5 321 0
 2195 009a 7B6A     		ldr	r3, [r7, #36]
 2196 009c 5A68     		ldr	r2, [r3, #4]
 2197 009e 3968     		ldr	r1, [r7]
 2198 00a0 BB69     		ldr	r3, [r7, #24]
 2199 00a2 CB1A     		subs	r3, r1, r3
 2200 00a4 1A44     		add	r2, r2, r3
 2201 00a6 7B6A     		ldr	r3, [r7, #36]
 2202 00a8 5A60     		str	r2, [r3, #4]
 322:E:/LiteOS/LiteOS_Lab/iot_link/os/os_imp/liteos/base/mem/heap\los_heap.c **** 
 323:E:/LiteOS/LiteOS_Lab/iot_link/os/os_imp/liteos/base/mem/heap\los_heap.c ****         chunk       = (chunk_t *) (aligned_mem + size);
 2203              		.loc 5 323 0
 2204 00aa FA69     		ldr	r2, [r7, #28]
 2205 00ac 3B68     		ldr	r3, [r7]
 2206 00ae 1344     		add	r3, r3, r2
 2207 00b0 BB60     		str	r3, [r7, #8]
 324:E:/LiteOS/LiteOS_Lab/iot_link/os/os_imp/liteos/base/mem/heap\los_heap.c ****         chunk->prev = (chunk_t *) ach;
 2208              		.loc 5 324 0
 2209 00b2 BB68     		ldr	r3, [r7, #8]
 2210 00b4 7A6A     		ldr	r2, [r7, #36]
 2211 00b6 1A60     		str	r2, [r3]
 325:E:/LiteOS/LiteOS_Lab/iot_link/os/os_imp/liteos/base/mem/heap\los_heap.c ****         chunk->size = (usable_size - size);
 2212              		.loc 5 325 0
 2213 00b8 BA69     		ldr	r2, [r7, #24]
 2214 00ba 3B68     		ldr	r3, [r7]
 2215 00bc D21A     		subs	r2, r2, r3
 2216 00be BB68     		ldr	r3, [r7, #8]
 2217 00c0 5A60     		str	r2, [r3, #4]
 326:E:/LiteOS/LiteOS_Lab/iot_link/os/os_imp/liteos/base/mem/heap\los_heap.c **** 
 327:E:/LiteOS/LiteOS_Lab/iot_link/os/os_imp/liteos/base/mem/heap\los_heap.c ****         next        = __get_next_chunk (chunk);
 2218              		.loc 5 327 0
 2219 00c2 B868     		ldr	r0, [r7, #8]
 2220 00c4 FFF7FEFF 		bl	__get_next_chunk
 2221 00c8 7861     		str	r0, [r7, #20]
 328:E:/LiteOS/LiteOS_Lab/iot_link/os/os_imp/liteos/base/mem/heap\los_heap.c **** 
 329:E:/LiteOS/LiteOS_Lab/iot_link/os/os_imp/liteos/base/mem/heap\los_heap.c ****         next->prev  = chunk;
 2222              		.loc 5 329 0
 2223 00ca 7B69     		ldr	r3, [r7, #20]
 2224 00cc BA68     		ldr	r2, [r7, #8]
 2225 00ce 1A60     		str	r2, [r3]
 330:E:/LiteOS/LiteOS_Lab/iot_link/os/os_imp/liteos/base/mem/heap\los_heap.c **** 
 331:E:/LiteOS/LiteOS_Lab/iot_link/os/os_imp/liteos/base/mem/heap\los_heap.c ****         __put_chunk (heap, chunk);
 2226              		.loc 5 331 0
 2227 00d0 B968     		ldr	r1, [r7, #8]
 2228 00d2 F868     		ldr	r0, [r7, #12]
 2229 00d4 FFF7FEFF 		bl	__put_chunk
 2230              	.L77:
 332:E:/LiteOS/LiteOS_Lab/iot_link/os/os_imp/liteos/base/mem/heap\los_heap.c ****     }
 333:E:/LiteOS/LiteOS_Lab/iot_link/os/os_imp/liteos/base/mem/heap\los_heap.c **** 
 334:E:/LiteOS/LiteOS_Lab/iot_link/os/os_imp/liteos/base/mem/heap\los_heap.c **** #if (LOSCFG_MEM_STATISTICS == YES)
 335:E:/LiteOS/LiteOS_Lab/iot_link/os/os_imp/liteos/base/mem/heap\los_heap.c ****     __stat_chunk_alloc (&heap->stat, (chunk_t *) ach);
 2231              		.loc 5 335 0
 2232 00d8 FB68     		ldr	r3, [r7, #12]
 2233 00da 03F5DC73 		add	r3, r3, #440
 2234 00de 796A     		ldr	r1, [r7, #36]
 2235 00e0 1846     		mov	r0, r3
 2236 00e2 FFF7FEFF 		bl	__stat_chunk_alloc
ARM GAS  C:\Users\user\AppData\Local\Temp\ccizJgFX.s 			page 59


 336:E:/LiteOS/LiteOS_Lab/iot_link/os/os_imp/liteos/base/mem/heap\los_heap.c **** #endif
 337:E:/LiteOS/LiteOS_Lab/iot_link/os/os_imp/liteos/base/mem/heap\los_heap.c **** 
 338:E:/LiteOS/LiteOS_Lab/iot_link/os/os_imp/liteos/base/mem/heap\los_heap.c ****     __set_chunk_allocated ((chunk_t *) ach);
 2237              		.loc 5 338 0
 2238 00e6 786A     		ldr	r0, [r7, #36]
 2239 00e8 FFF7FEFF 		bl	__set_chunk_allocated
 339:E:/LiteOS/LiteOS_Lab/iot_link/os/os_imp/liteos/base/mem/heap\los_heap.c **** 
 340:E:/LiteOS/LiteOS_Lab/iot_link/os/os_imp/liteos/base/mem/heap\los_heap.c ****     return aligned_mem;
 2240              		.loc 5 340 0
 2241 00ec FB69     		ldr	r3, [r7, #28]
 341:E:/LiteOS/LiteOS_Lab/iot_link/os/os_imp/liteos/base/mem/heap\los_heap.c **** }
 2242              		.loc 5 341 0
 2243 00ee 1846     		mov	r0, r3
 2244 00f0 2837     		adds	r7, r7, #40
 2245              	.LCFI168:
 2246              		.cfi_def_cfa_offset 8
 2247 00f2 BD46     		mov	sp, r7
 2248              	.LCFI169:
 2249              		.cfi_def_cfa_register 13
 2250              		@ sp needed
 2251 00f4 80BD     		pop	{r7, pc}
 2252              		.cfi_endproc
 2253              	.LFE165:
 2255              		.section	.text.heap_alloc_align,"ax",%progbits
 2256              		.align	1
 2257              		.global	heap_alloc_align
 2258              		.syntax unified
 2259              		.thumb
 2260              		.thumb_func
 2261              		.fpu fpv4-sp-d16
 2263              	heap_alloc_align:
 2264              	.LFB166:
 342:E:/LiteOS/LiteOS_Lab/iot_link/os/os_imp/liteos/base/mem/heap\los_heap.c **** 
 343:E:/LiteOS/LiteOS_Lab/iot_link/os/os_imp/liteos/base/mem/heap\los_heap.c **** /**
 344:E:/LiteOS/LiteOS_Lab/iot_link/os/os_imp/liteos/base/mem/heap\los_heap.c ****  * heap_alloc_align - allocate a block of memory from a heap with alignment
 345:E:/LiteOS/LiteOS_Lab/iot_link/os/os_imp/liteos/base/mem/heap\los_heap.c ****  * @heap:  the heap to allocate from
 346:E:/LiteOS/LiteOS_Lab/iot_link/os/os_imp/liteos/base/mem/heap\los_heap.c ****  * @bytes: size of memory in bytes to allocate
 347:E:/LiteOS/LiteOS_Lab/iot_link/os/os_imp/liteos/base/mem/heap\los_heap.c ****  * @align: the expected alignment value
 348:E:/LiteOS/LiteOS_Lab/iot_link/os/os_imp/liteos/base/mem/heap\los_heap.c ****  *
 349:E:/LiteOS/LiteOS_Lab/iot_link/os/os_imp/liteos/base/mem/heap\los_heap.c ****  * return: the allocated memory block or NULL if fail
 350:E:/LiteOS/LiteOS_Lab/iot_link/os/os_imp/liteos/base/mem/heap\los_heap.c ****  */
 351:E:/LiteOS/LiteOS_Lab/iot_link/os/os_imp/liteos/base/mem/heap\los_heap.c **** 
 352:E:/LiteOS/LiteOS_Lab/iot_link/os/os_imp/liteos/base/mem/heap\los_heap.c **** char * heap_alloc_align (heap_t * heap, size_t align, size_t bytes)
 353:E:/LiteOS/LiteOS_Lab/iot_link/os/os_imp/liteos/base/mem/heap\los_heap.c **** {
 2265              		.loc 5 353 0
 2266              		.cfi_startproc
 2267              		@ args = 0, pretend = 0, frame = 24
 2268              		@ frame_needed = 1, uses_anonymous_args = 0
 2269 0000 80B5     		push	{r7, lr}
 2270              	.LCFI170:
 2271              		.cfi_def_cfa_offset 8
 2272              		.cfi_offset 7, -8
 2273              		.cfi_offset 14, -4
 2274 0002 86B0     		sub	sp, sp, #24
 2275              	.LCFI171:
 2276              		.cfi_def_cfa_offset 32
 2277 0004 00AF     		add	r7, sp, #0
ARM GAS  C:\Users\user\AppData\Local\Temp\ccizJgFX.s 			page 60


 2278              	.LCFI172:
 2279              		.cfi_def_cfa_register 7
 2280 0006 F860     		str	r0, [r7, #12]
 2281 0008 B960     		str	r1, [r7, #8]
 2282 000a 7A60     		str	r2, [r7, #4]
 354:E:/LiteOS/LiteOS_Lab/iot_link/os/os_imp/liteos/base/mem/heap\los_heap.c ****     chunk_t * chunk;
 355:E:/LiteOS/LiteOS_Lab/iot_link/os/os_imp/liteos/base/mem/heap\los_heap.c ****     char    * mem = NULL;
 2283              		.loc 5 355 0
 2284 000c 0023     		movs	r3, #0
 2285 000e 7B61     		str	r3, [r7, #20]
 356:E:/LiteOS/LiteOS_Lab/iot_link/os/os_imp/liteos/base/mem/heap\los_heap.c **** 
 357:E:/LiteOS/LiteOS_Lab/iot_link/os/os_imp/liteos/base/mem/heap\los_heap.c ****     if (heap == NULL)
 2286              		.loc 5 357 0
 2287 0010 FB68     		ldr	r3, [r7, #12]
 2288 0012 002B     		cmp	r3, #0
 2289 0014 01D1     		bne	.L80
 358:E:/LiteOS/LiteOS_Lab/iot_link/os/os_imp/liteos/base/mem/heap\los_heap.c ****     {
 359:E:/LiteOS/LiteOS_Lab/iot_link/os/os_imp/liteos/base/mem/heap\los_heap.c ****         return NULL;
 2290              		.loc 5 359 0
 2291 0016 0023     		movs	r3, #0
 2292 0018 44E0     		b	.L81
 2293              	.L80:
 360:E:/LiteOS/LiteOS_Lab/iot_link/os/os_imp/liteos/base/mem/heap\los_heap.c ****     }
 361:E:/LiteOS/LiteOS_Lab/iot_link/os/os_imp/liteos/base/mem/heap\los_heap.c **** 
 362:E:/LiteOS/LiteOS_Lab/iot_link/os/os_imp/liteos/base/mem/heap\los_heap.c ****     /* align must be power of 2 */
 363:E:/LiteOS/LiteOS_Lab/iot_link/os/os_imp/liteos/base/mem/heap\los_heap.c **** 
 364:E:/LiteOS/LiteOS_Lab/iot_link/os/os_imp/liteos/base/mem/heap\los_heap.c ****     if (align & (align - 1))
 2294              		.loc 5 364 0
 2295 001a BB68     		ldr	r3, [r7, #8]
 2296 001c 5A1E     		subs	r2, r3, #1
 2297 001e BB68     		ldr	r3, [r7, #8]
 2298 0020 1340     		ands	r3, r3, r2
 2299 0022 002B     		cmp	r3, #0
 2300 0024 01D0     		beq	.L82
 365:E:/LiteOS/LiteOS_Lab/iot_link/os/os_imp/liteos/base/mem/heap\los_heap.c ****     {
 366:E:/LiteOS/LiteOS_Lab/iot_link/os/os_imp/liteos/base/mem/heap\los_heap.c ****         return NULL;
 2301              		.loc 5 366 0
 2302 0026 0023     		movs	r3, #0
 2303 0028 3CE0     		b	.L81
 2304              	.L82:
 367:E:/LiteOS/LiteOS_Lab/iot_link/os/os_imp/liteos/base/mem/heap\los_heap.c ****     }
 368:E:/LiteOS/LiteOS_Lab/iot_link/os/os_imp/liteos/base/mem/heap\los_heap.c **** 
 369:E:/LiteOS/LiteOS_Lab/iot_link/os/os_imp/liteos/base/mem/heap\los_heap.c ****     bytes = bytes == 0 ? 1 : bytes;
 2305              		.loc 5 369 0
 2306 002a 7B68     		ldr	r3, [r7, #4]
 2307 002c 002B     		cmp	r3, #0
 2308 002e 01D0     		beq	.L83
 2309              		.loc 5 369 0 is_stmt 0 discriminator 1
 2310 0030 7B68     		ldr	r3, [r7, #4]
 2311 0032 00E0     		b	.L84
 2312              	.L83:
 2313              		.loc 5 369 0 discriminator 2
 2314 0034 0123     		movs	r3, #1
 2315              	.L84:
 2316              		.loc 5 369 0 discriminator 4
 2317 0036 7B60     		str	r3, [r7, #4]
 370:E:/LiteOS/LiteOS_Lab/iot_link/os/os_imp/liteos/base/mem/heap\los_heap.c **** 
ARM GAS  C:\Users\user\AppData\Local\Temp\ccizJgFX.s 			page 61


 371:E:/LiteOS/LiteOS_Lab/iot_link/os/os_imp/liteos/base/mem/heap\los_heap.c ****     align = align < ALLOC_ALIGN_SIZE ? ALLOC_ALIGN_SIZE : align;
 2318              		.loc 5 371 0 is_stmt 1 discriminator 4
 2319 0038 BB68     		ldr	r3, [r7, #8]
 2320 003a 042B     		cmp	r3, #4
 2321 003c 38BF     		it	cc
 2322 003e 0423     		movcc	r3, #4
 2323 0040 BB60     		str	r3, [r7, #8]
 372:E:/LiteOS/LiteOS_Lab/iot_link/os/os_imp/liteos/base/mem/heap\los_heap.c **** 
 373:E:/LiteOS/LiteOS_Lab/iot_link/os/os_imp/liteos/base/mem/heap\los_heap.c ****     if (bytes < ALLOC_MIN_SIZE)
 2324              		.loc 5 373 0 discriminator 4
 2325 0042 7B68     		ldr	r3, [r7, #4]
 2326 0044 072B     		cmp	r3, #7
 2327 0046 01D8     		bhi	.L85
 374:E:/LiteOS/LiteOS_Lab/iot_link/os/os_imp/liteos/base/mem/heap\los_heap.c ****     {
 375:E:/LiteOS/LiteOS_Lab/iot_link/os/os_imp/liteos/base/mem/heap\los_heap.c ****         bytes = ALLOC_MIN_SIZE;
 2328              		.loc 5 375 0
 2329 0048 0823     		movs	r3, #8
 2330 004a 7B60     		str	r3, [r7, #4]
 2331              	.L85:
 376:E:/LiteOS/LiteOS_Lab/iot_link/os/os_imp/liteos/base/mem/heap\los_heap.c ****     }
 377:E:/LiteOS/LiteOS_Lab/iot_link/os/os_imp/liteos/base/mem/heap\los_heap.c **** 
 378:E:/LiteOS/LiteOS_Lab/iot_link/os/os_imp/liteos/base/mem/heap\los_heap.c ****     bytes = round_up (bytes, ALLOC_ALIGN_SIZE);
 2332              		.loc 5 378 0
 2333 004c 7B68     		ldr	r3, [r7, #4]
 2334 004e 0333     		adds	r3, r3, #3
 2335 0050 23F00303 		bic	r3, r3, #3
 2336 0054 7B60     		str	r3, [r7, #4]
 379:E:/LiteOS/LiteOS_Lab/iot_link/os/os_imp/liteos/base/mem/heap\los_heap.c **** 
 380:E:/LiteOS/LiteOS_Lab/iot_link/os/os_imp/liteos/base/mem/heap\los_heap.c ****     if (LOS_MuxPend (heap->mux, LOS_WAIT_FOREVER) != LOS_OK)
 2337              		.loc 5 380 0
 2338 0056 FB68     		ldr	r3, [r7, #12]
 2339 0058 D3F8B431 		ldr	r3, [r3, #436]
 2340 005c 4FF0FF31 		mov	r1, #-1
 2341 0060 1846     		mov	r0, r3
 2342 0062 FFF7FEFF 		bl	LOS_MuxPend
 2343 0066 0346     		mov	r3, r0
 2344 0068 002B     		cmp	r3, #0
 2345 006a 01D0     		beq	.L86
 381:E:/LiteOS/LiteOS_Lab/iot_link/os/os_imp/liteos/base/mem/heap\los_heap.c ****     {
 382:E:/LiteOS/LiteOS_Lab/iot_link/os/os_imp/liteos/base/mem/heap\los_heap.c ****         return NULL;
 2346              		.loc 5 382 0
 2347 006c 0023     		movs	r3, #0
 2348 006e 19E0     		b	.L81
 2349              	.L86:
 383:E:/LiteOS/LiteOS_Lab/iot_link/os/os_imp/liteos/base/mem/heap\los_heap.c ****     }
 384:E:/LiteOS/LiteOS_Lab/iot_link/os/os_imp/liteos/base/mem/heap\los_heap.c **** 
 385:E:/LiteOS/LiteOS_Lab/iot_link/os/os_imp/liteos/base/mem/heap\los_heap.c ****     /* find a big enough memory chunk */
 386:E:/LiteOS/LiteOS_Lab/iot_link/os/os_imp/liteos/base/mem/heap\los_heap.c **** 
 387:E:/LiteOS/LiteOS_Lab/iot_link/os/os_imp/liteos/base/mem/heap\los_heap.c ****     chunk = __get_chunk (heap, bytes + sizeof (ach_t) + align - ALLOC_ALIGN_SIZE);
 2350              		.loc 5 387 0
 2351 0070 7A68     		ldr	r2, [r7, #4]
 2352 0072 BB68     		ldr	r3, [r7, #8]
 2353 0074 1344     		add	r3, r3, r2
 2354 0076 0433     		adds	r3, r3, #4
 2355 0078 1946     		mov	r1, r3
 2356 007a F868     		ldr	r0, [r7, #12]
 2357 007c FFF7FEFF 		bl	__get_chunk
ARM GAS  C:\Users\user\AppData\Local\Temp\ccizJgFX.s 			page 62


 2358 0080 3861     		str	r0, [r7, #16]
 388:E:/LiteOS/LiteOS_Lab/iot_link/os/os_imp/liteos/base/mem/heap\los_heap.c **** 
 389:E:/LiteOS/LiteOS_Lab/iot_link/os/os_imp/liteos/base/mem/heap\los_heap.c ****     if (chunk != NULL)
 2359              		.loc 5 389 0
 2360 0082 3B69     		ldr	r3, [r7, #16]
 2361 0084 002B     		cmp	r3, #0
 2362 0086 06D0     		beq	.L87
 390:E:/LiteOS/LiteOS_Lab/iot_link/os/os_imp/liteos/base/mem/heap\los_heap.c ****     {
 391:E:/LiteOS/LiteOS_Lab/iot_link/os/os_imp/liteos/base/mem/heap\los_heap.c ****         mem = __carve_extra (heap, chunk, align, bytes);
 2363              		.loc 5 391 0
 2364 0088 7B68     		ldr	r3, [r7, #4]
 2365 008a BA68     		ldr	r2, [r7, #8]
 2366 008c 3969     		ldr	r1, [r7, #16]
 2367 008e F868     		ldr	r0, [r7, #12]
 2368 0090 FFF7FEFF 		bl	__carve_extra
 2369 0094 7861     		str	r0, [r7, #20]
 2370              	.L87:
 392:E:/LiteOS/LiteOS_Lab/iot_link/os/os_imp/liteos/base/mem/heap\los_heap.c ****     }
 393:E:/LiteOS/LiteOS_Lab/iot_link/os/os_imp/liteos/base/mem/heap\los_heap.c **** 
 394:E:/LiteOS/LiteOS_Lab/iot_link/os/os_imp/liteos/base/mem/heap\los_heap.c ****     (void) LOS_MuxPost (heap->mux);
 2371              		.loc 5 394 0
 2372 0096 FB68     		ldr	r3, [r7, #12]
 2373 0098 D3F8B431 		ldr	r3, [r3, #436]
 2374 009c 1846     		mov	r0, r3
 2375 009e FFF7FEFF 		bl	LOS_MuxPost
 395:E:/LiteOS/LiteOS_Lab/iot_link/os/os_imp/liteos/base/mem/heap\los_heap.c **** 
 396:E:/LiteOS/LiteOS_Lab/iot_link/os/os_imp/liteos/base/mem/heap\los_heap.c ****     return mem;
 2376              		.loc 5 396 0
 2377 00a2 7B69     		ldr	r3, [r7, #20]
 2378              	.L81:
 397:E:/LiteOS/LiteOS_Lab/iot_link/os/os_imp/liteos/base/mem/heap\los_heap.c **** }
 2379              		.loc 5 397 0
 2380 00a4 1846     		mov	r0, r3
 2381 00a6 1837     		adds	r7, r7, #24
 2382              	.LCFI173:
 2383              		.cfi_def_cfa_offset 8
 2384 00a8 BD46     		mov	sp, r7
 2385              	.LCFI174:
 2386              		.cfi_def_cfa_register 13
 2387              		@ sp needed
 2388 00aa 80BD     		pop	{r7, pc}
 2389              		.cfi_endproc
 2390              	.LFE166:
 2392              		.section	.text.heap_alloc,"ax",%progbits
 2393              		.align	1
 2394              		.global	heap_alloc
 2395              		.syntax unified
 2396              		.thumb
 2397              		.thumb_func
 2398              		.fpu fpv4-sp-d16
 2400              	heap_alloc:
 2401              	.LFB167:
 398:E:/LiteOS/LiteOS_Lab/iot_link/os/os_imp/liteos/base/mem/heap\los_heap.c **** 
 399:E:/LiteOS/LiteOS_Lab/iot_link/os/os_imp/liteos/base/mem/heap\los_heap.c **** /**
 400:E:/LiteOS/LiteOS_Lab/iot_link/os/os_imp/liteos/base/mem/heap\los_heap.c ****  * heap_alloc - allocate a block of memory from a heap
 401:E:/LiteOS/LiteOS_Lab/iot_link/os/os_imp/liteos/base/mem/heap\los_heap.c ****  * @heap:  the heap to allocate from
 402:E:/LiteOS/LiteOS_Lab/iot_link/os/os_imp/liteos/base/mem/heap\los_heap.c ****  * @bytes: size of memory in bytes to allocate
ARM GAS  C:\Users\user\AppData\Local\Temp\ccizJgFX.s 			page 63


 403:E:/LiteOS/LiteOS_Lab/iot_link/os/os_imp/liteos/base/mem/heap\los_heap.c ****  *
 404:E:/LiteOS/LiteOS_Lab/iot_link/os/os_imp/liteos/base/mem/heap\los_heap.c ****  * return: the allocated memory block or NULL if fail
 405:E:/LiteOS/LiteOS_Lab/iot_link/os/os_imp/liteos/base/mem/heap\los_heap.c ****  */
 406:E:/LiteOS/LiteOS_Lab/iot_link/os/os_imp/liteos/base/mem/heap\los_heap.c **** 
 407:E:/LiteOS/LiteOS_Lab/iot_link/os/os_imp/liteos/base/mem/heap\los_heap.c **** char * heap_alloc (heap_t * heap, size_t bytes)
 408:E:/LiteOS/LiteOS_Lab/iot_link/os/os_imp/liteos/base/mem/heap\los_heap.c **** {
 2402              		.loc 5 408 0
 2403              		.cfi_startproc
 2404              		@ args = 0, pretend = 0, frame = 8
 2405              		@ frame_needed = 1, uses_anonymous_args = 0
 2406 0000 80B5     		push	{r7, lr}
 2407              	.LCFI175:
 2408              		.cfi_def_cfa_offset 8
 2409              		.cfi_offset 7, -8
 2410              		.cfi_offset 14, -4
 2411 0002 82B0     		sub	sp, sp, #8
 2412              	.LCFI176:
 2413              		.cfi_def_cfa_offset 16
 2414 0004 00AF     		add	r7, sp, #0
 2415              	.LCFI177:
 2416              		.cfi_def_cfa_register 7
 2417 0006 7860     		str	r0, [r7, #4]
 2418 0008 3960     		str	r1, [r7]
 409:E:/LiteOS/LiteOS_Lab/iot_link/os/os_imp/liteos/base/mem/heap\los_heap.c ****     return heap_alloc_align (heap, ALLOC_ALIGN_SIZE, bytes);
 2419              		.loc 5 409 0
 2420 000a 3A68     		ldr	r2, [r7]
 2421 000c 0421     		movs	r1, #4
 2422 000e 7868     		ldr	r0, [r7, #4]
 2423 0010 FFF7FEFF 		bl	heap_alloc_align
 2424 0014 0346     		mov	r3, r0
 410:E:/LiteOS/LiteOS_Lab/iot_link/os/os_imp/liteos/base/mem/heap\los_heap.c **** }
 2425              		.loc 5 410 0
 2426 0016 1846     		mov	r0, r3
 2427 0018 0837     		adds	r7, r7, #8
 2428              	.LCFI178:
 2429              		.cfi_def_cfa_offset 8
 2430 001a BD46     		mov	sp, r7
 2431              	.LCFI179:
 2432              		.cfi_def_cfa_register 13
 2433              		@ sp needed
 2434 001c 80BD     		pop	{r7, pc}
 2435              		.cfi_endproc
 2436              	.LFE167:
 2438              		.section	.text.heap_free,"ax",%progbits
 2439              		.align	1
 2440              		.global	heap_free
 2441              		.syntax unified
 2442              		.thumb
 2443              		.thumb_func
 2444              		.fpu fpv4-sp-d16
 2446              	heap_free:
 2447              	.LFB168:
 411:E:/LiteOS/LiteOS_Lab/iot_link/os/os_imp/liteos/base/mem/heap\los_heap.c **** 
 412:E:/LiteOS/LiteOS_Lab/iot_link/os/os_imp/liteos/base/mem/heap\los_heap.c **** /**
 413:E:/LiteOS/LiteOS_Lab/iot_link/os/os_imp/liteos/base/mem/heap\los_heap.c ****  * heap_free - free a block of memory
 414:E:/LiteOS/LiteOS_Lab/iot_link/os/os_imp/liteos/base/mem/heap\los_heap.c ****  * @heap:  the heap to allocate from
 415:E:/LiteOS/LiteOS_Lab/iot_link/os/os_imp/liteos/base/mem/heap\los_heap.c ****  *
ARM GAS  C:\Users\user\AppData\Local\Temp\ccizJgFX.s 			page 64


 416:E:/LiteOS/LiteOS_Lab/iot_link/os/os_imp/liteos/base/mem/heap\los_heap.c ****  * return: 0 on sucess
 417:E:/LiteOS/LiteOS_Lab/iot_link/os/os_imp/liteos/base/mem/heap\los_heap.c ****  */
 418:E:/LiteOS/LiteOS_Lab/iot_link/os/os_imp/liteos/base/mem/heap\los_heap.c **** 
 419:E:/LiteOS/LiteOS_Lab/iot_link/os/os_imp/liteos/base/mem/heap\los_heap.c **** int heap_free (heap_t * heap, char * mem)
 420:E:/LiteOS/LiteOS_Lab/iot_link/os/os_imp/liteos/base/mem/heap\los_heap.c **** {
 2448              		.loc 5 420 0
 2449              		.cfi_startproc
 2450              		@ args = 0, pretend = 0, frame = 24
 2451              		@ frame_needed = 1, uses_anonymous_args = 0
 2452 0000 80B5     		push	{r7, lr}
 2453              	.LCFI180:
 2454              		.cfi_def_cfa_offset 8
 2455              		.cfi_offset 7, -8
 2456              		.cfi_offset 14, -4
 2457 0002 86B0     		sub	sp, sp, #24
 2458              	.LCFI181:
 2459              		.cfi_def_cfa_offset 32
 2460 0004 00AF     		add	r7, sp, #0
 2461              	.LCFI182:
 2462              		.cfi_def_cfa_register 7
 2463 0006 7860     		str	r0, [r7, #4]
 2464 0008 3960     		str	r1, [r7]
 421:E:/LiteOS/LiteOS_Lab/iot_link/os/os_imp/liteos/base/mem/heap\los_heap.c ****     chunk_t * chunk;
 422:E:/LiteOS/LiteOS_Lab/iot_link/os/os_imp/liteos/base/mem/heap\los_heap.c ****     chunk_t * prev_chunk;
 423:E:/LiteOS/LiteOS_Lab/iot_link/os/os_imp/liteos/base/mem/heap\los_heap.c ****     chunk_t * next_chunk;
 424:E:/LiteOS/LiteOS_Lab/iot_link/os/os_imp/liteos/base/mem/heap\los_heap.c **** 
 425:E:/LiteOS/LiteOS_Lab/iot_link/os/os_imp/liteos/base/mem/heap\los_heap.c ****     if (heap == NULL)
 2465              		.loc 5 425 0
 2466 000a 7B68     		ldr	r3, [r7, #4]
 2467 000c 002B     		cmp	r3, #0
 2468 000e 02D1     		bne	.L91
 426:E:/LiteOS/LiteOS_Lab/iot_link/os/os_imp/liteos/base/mem/heap\los_heap.c ****     {
 427:E:/LiteOS/LiteOS_Lab/iot_link/os/os_imp/liteos/base/mem/heap\los_heap.c ****         return -1;
 2469              		.loc 5 427 0
 2470 0010 4FF0FF33 		mov	r3, #-1
 2471 0014 5EE0     		b	.L92
 2472              	.L91:
 428:E:/LiteOS/LiteOS_Lab/iot_link/os/os_imp/liteos/base/mem/heap\los_heap.c ****     }
 429:E:/LiteOS/LiteOS_Lab/iot_link/os/os_imp/liteos/base/mem/heap\los_heap.c **** 
 430:E:/LiteOS/LiteOS_Lab/iot_link/os/os_imp/liteos/base/mem/heap\los_heap.c ****     /* ANSI C - free of NULL is OK */
 431:E:/LiteOS/LiteOS_Lab/iot_link/os/os_imp/liteos/base/mem/heap\los_heap.c **** 
 432:E:/LiteOS/LiteOS_Lab/iot_link/os/os_imp/liteos/base/mem/heap\los_heap.c ****     if (mem == NULL)
 2473              		.loc 5 432 0
 2474 0016 3B68     		ldr	r3, [r7]
 2475 0018 002B     		cmp	r3, #0
 2476 001a 01D1     		bne	.L93
 433:E:/LiteOS/LiteOS_Lab/iot_link/os/os_imp/liteos/base/mem/heap\los_heap.c ****     {
 434:E:/LiteOS/LiteOS_Lab/iot_link/os/os_imp/liteos/base/mem/heap\los_heap.c ****         return 0;
 2477              		.loc 5 434 0
 2478 001c 0023     		movs	r3, #0
 2479 001e 59E0     		b	.L92
 2480              	.L93:
 435:E:/LiteOS/LiteOS_Lab/iot_link/os/os_imp/liteos/base/mem/heap\los_heap.c ****     }
 436:E:/LiteOS/LiteOS_Lab/iot_link/os/os_imp/liteos/base/mem/heap\los_heap.c **** 
 437:E:/LiteOS/LiteOS_Lab/iot_link/os/os_imp/liteos/base/mem/heap\los_heap.c ****     chunk = (chunk_t *) __get_ach_from_mem (mem);
 2481              		.loc 5 437 0
 2482 0020 3868     		ldr	r0, [r7]
ARM GAS  C:\Users\user\AppData\Local\Temp\ccizJgFX.s 			page 65


 2483 0022 FFF7FEFF 		bl	__get_ach_from_mem
 2484 0026 7861     		str	r0, [r7, #20]
 438:E:/LiteOS/LiteOS_Lab/iot_link/os/os_imp/liteos/base/mem/heap\los_heap.c **** 
 439:E:/LiteOS/LiteOS_Lab/iot_link/os/os_imp/liteos/base/mem/heap\los_heap.c ****     if (LOS_MuxPend (heap->mux, LOS_WAIT_FOREVER) != LOS_OK)
 2485              		.loc 5 439 0
 2486 0028 7B68     		ldr	r3, [r7, #4]
 2487 002a D3F8B431 		ldr	r3, [r3, #436]
 2488 002e 4FF0FF31 		mov	r1, #-1
 2489 0032 1846     		mov	r0, r3
 2490 0034 FFF7FEFF 		bl	LOS_MuxPend
 2491 0038 0346     		mov	r3, r0
 2492 003a 002B     		cmp	r3, #0
 2493 003c 02D0     		beq	.L94
 440:E:/LiteOS/LiteOS_Lab/iot_link/os/os_imp/liteos/base/mem/heap\los_heap.c ****     {
 441:E:/LiteOS/LiteOS_Lab/iot_link/os/os_imp/liteos/base/mem/heap\los_heap.c ****         return -1;
 2494              		.loc 5 441 0
 2495 003e 4FF0FF33 		mov	r3, #-1
 2496 0042 47E0     		b	.L92
 2497              	.L94:
 442:E:/LiteOS/LiteOS_Lab/iot_link/os/os_imp/liteos/base/mem/heap\los_heap.c ****     }
 443:E:/LiteOS/LiteOS_Lab/iot_link/os/os_imp/liteos/base/mem/heap\los_heap.c **** 
 444:E:/LiteOS/LiteOS_Lab/iot_link/os/os_imp/liteos/base/mem/heap\los_heap.c ****     __set_chunk_free (chunk);
 2498              		.loc 5 444 0
 2499 0044 7869     		ldr	r0, [r7, #20]
 2500 0046 FFF7FEFF 		bl	__set_chunk_free
 445:E:/LiteOS/LiteOS_Lab/iot_link/os/os_imp/liteos/base/mem/heap\los_heap.c **** 
 446:E:/LiteOS/LiteOS_Lab/iot_link/os/os_imp/liteos/base/mem/heap\los_heap.c **** #if (LOSCFG_MEM_STATISTICS == YES)
 447:E:/LiteOS/LiteOS_Lab/iot_link/os/os_imp/liteos/base/mem/heap\los_heap.c ****     __stat_chunk_free (&heap->stat, chunk);
 2501              		.loc 5 447 0
 2502 004a 7B68     		ldr	r3, [r7, #4]
 2503 004c 03F5DC73 		add	r3, r3, #440
 2504 0050 7969     		ldr	r1, [r7, #20]
 2505 0052 1846     		mov	r0, r3
 2506 0054 FFF7FEFF 		bl	__stat_chunk_free
 448:E:/LiteOS/LiteOS_Lab/iot_link/os/os_imp/liteos/base/mem/heap\los_heap.c **** #endif
 449:E:/LiteOS/LiteOS_Lab/iot_link/os/os_imp/liteos/base/mem/heap\los_heap.c **** 
 450:E:/LiteOS/LiteOS_Lab/iot_link/os/os_imp/liteos/base/mem/heap\los_heap.c ****     prev_chunk = __get_prev_chunk (chunk);
 2507              		.loc 5 450 0
 2508 0058 7869     		ldr	r0, [r7, #20]
 2509 005a FFF7FEFF 		bl	__get_prev_chunk
 2510 005e F860     		str	r0, [r7, #12]
 451:E:/LiteOS/LiteOS_Lab/iot_link/os/os_imp/liteos/base/mem/heap\los_heap.c ****     next_chunk = __get_next_chunk (chunk);
 2511              		.loc 5 451 0
 2512 0060 7869     		ldr	r0, [r7, #20]
 2513 0062 FFF7FEFF 		bl	__get_next_chunk
 2514 0066 3861     		str	r0, [r7, #16]
 452:E:/LiteOS/LiteOS_Lab/iot_link/os/os_imp/liteos/base/mem/heap\los_heap.c **** 
 453:E:/LiteOS/LiteOS_Lab/iot_link/os/os_imp/liteos/base/mem/heap\los_heap.c ****     if (__is_free (prev_chunk))
 2515              		.loc 5 453 0
 2516 0068 F868     		ldr	r0, [r7, #12]
 2517 006a FFF7FEFF 		bl	__is_free
 2518 006e 0346     		mov	r3, r0
 2519 0070 002B     		cmp	r3, #0
 2520 0072 0CD0     		beq	.L95
 454:E:/LiteOS/LiteOS_Lab/iot_link/os/os_imp/liteos/base/mem/heap\los_heap.c ****     {
 455:E:/LiteOS/LiteOS_Lab/iot_link/os/os_imp/liteos/base/mem/heap\los_heap.c ****         __del_chunk (heap, prev_chunk);
 2521              		.loc 5 455 0
ARM GAS  C:\Users\user\AppData\Local\Temp\ccizJgFX.s 			page 66


 2522 0074 F968     		ldr	r1, [r7, #12]
 2523 0076 7868     		ldr	r0, [r7, #4]
 2524 0078 FFF7FEFF 		bl	__del_chunk
 456:E:/LiteOS/LiteOS_Lab/iot_link/os/os_imp/liteos/base/mem/heap\los_heap.c ****         prev_chunk->size += chunk->size;
 2525              		.loc 5 456 0
 2526 007c FB68     		ldr	r3, [r7, #12]
 2527 007e 5A68     		ldr	r2, [r3, #4]
 2528 0080 7B69     		ldr	r3, [r7, #20]
 2529 0082 5B68     		ldr	r3, [r3, #4]
 2530 0084 1A44     		add	r2, r2, r3
 2531 0086 FB68     		ldr	r3, [r7, #12]
 2532 0088 5A60     		str	r2, [r3, #4]
 457:E:/LiteOS/LiteOS_Lab/iot_link/os/os_imp/liteos/base/mem/heap\los_heap.c ****         chunk = prev_chunk;
 2533              		.loc 5 457 0
 2534 008a FB68     		ldr	r3, [r7, #12]
 2535 008c 7B61     		str	r3, [r7, #20]
 2536              	.L95:
 458:E:/LiteOS/LiteOS_Lab/iot_link/os/os_imp/liteos/base/mem/heap\los_heap.c ****     }
 459:E:/LiteOS/LiteOS_Lab/iot_link/os/os_imp/liteos/base/mem/heap\los_heap.c **** 
 460:E:/LiteOS/LiteOS_Lab/iot_link/os/os_imp/liteos/base/mem/heap\los_heap.c ****     if (__is_free (next_chunk))
 2537              		.loc 5 460 0
 2538 008e 3869     		ldr	r0, [r7, #16]
 2539 0090 FFF7FEFF 		bl	__is_free
 2540 0094 0346     		mov	r3, r0
 2541 0096 002B     		cmp	r3, #0
 2542 0098 0ED0     		beq	.L96
 461:E:/LiteOS/LiteOS_Lab/iot_link/os/os_imp/liteos/base/mem/heap\los_heap.c ****     {
 462:E:/LiteOS/LiteOS_Lab/iot_link/os/os_imp/liteos/base/mem/heap\los_heap.c ****         __del_chunk (heap, next_chunk);
 2543              		.loc 5 462 0
 2544 009a 3969     		ldr	r1, [r7, #16]
 2545 009c 7868     		ldr	r0, [r7, #4]
 2546 009e FFF7FEFF 		bl	__del_chunk
 463:E:/LiteOS/LiteOS_Lab/iot_link/os/os_imp/liteos/base/mem/heap\los_heap.c ****         chunk->size += next_chunk->size;
 2547              		.loc 5 463 0
 2548 00a2 7B69     		ldr	r3, [r7, #20]
 2549 00a4 5A68     		ldr	r2, [r3, #4]
 2550 00a6 3B69     		ldr	r3, [r7, #16]
 2551 00a8 5B68     		ldr	r3, [r3, #4]
 2552 00aa 1A44     		add	r2, r2, r3
 2553 00ac 7B69     		ldr	r3, [r7, #20]
 2554 00ae 5A60     		str	r2, [r3, #4]
 464:E:/LiteOS/LiteOS_Lab/iot_link/os/os_imp/liteos/base/mem/heap\los_heap.c **** 
 465:E:/LiteOS/LiteOS_Lab/iot_link/os/os_imp/liteos/base/mem/heap\los_heap.c ****         next_chunk = __get_next_chunk (chunk);
 2555              		.loc 5 465 0
 2556 00b0 7869     		ldr	r0, [r7, #20]
 2557 00b2 FFF7FEFF 		bl	__get_next_chunk
 2558 00b6 3861     		str	r0, [r7, #16]
 2559              	.L96:
 466:E:/LiteOS/LiteOS_Lab/iot_link/os/os_imp/liteos/base/mem/heap\los_heap.c ****     }
 467:E:/LiteOS/LiteOS_Lab/iot_link/os/os_imp/liteos/base/mem/heap\los_heap.c **** 
 468:E:/LiteOS/LiteOS_Lab/iot_link/os/os_imp/liteos/base/mem/heap\los_heap.c ****     next_chunk->prev = chunk;
 2560              		.loc 5 468 0
 2561 00b8 3B69     		ldr	r3, [r7, #16]
 2562 00ba 7A69     		ldr	r2, [r7, #20]
 2563 00bc 1A60     		str	r2, [r3]
 469:E:/LiteOS/LiteOS_Lab/iot_link/os/os_imp/liteos/base/mem/heap\los_heap.c **** 
 470:E:/LiteOS/LiteOS_Lab/iot_link/os/os_imp/liteos/base/mem/heap\los_heap.c ****     __put_chunk (heap, chunk);
ARM GAS  C:\Users\user\AppData\Local\Temp\ccizJgFX.s 			page 67


 2564              		.loc 5 470 0
 2565 00be 7969     		ldr	r1, [r7, #20]
 2566 00c0 7868     		ldr	r0, [r7, #4]
 2567 00c2 FFF7FEFF 		bl	__put_chunk
 471:E:/LiteOS/LiteOS_Lab/iot_link/os/os_imp/liteos/base/mem/heap\los_heap.c **** 
 472:E:/LiteOS/LiteOS_Lab/iot_link/os/os_imp/liteos/base/mem/heap\los_heap.c ****     (void) LOS_MuxPost (heap->mux);
 2568              		.loc 5 472 0
 2569 00c6 7B68     		ldr	r3, [r7, #4]
 2570 00c8 D3F8B431 		ldr	r3, [r3, #436]
 2571 00cc 1846     		mov	r0, r3
 2572 00ce FFF7FEFF 		bl	LOS_MuxPost
 473:E:/LiteOS/LiteOS_Lab/iot_link/os/os_imp/liteos/base/mem/heap\los_heap.c **** 
 474:E:/LiteOS/LiteOS_Lab/iot_link/os/os_imp/liteos/base/mem/heap\los_heap.c ****     return 0;
 2573              		.loc 5 474 0
 2574 00d2 0023     		movs	r3, #0
 2575              	.L92:
 475:E:/LiteOS/LiteOS_Lab/iot_link/os/os_imp/liteos/base/mem/heap\los_heap.c **** }
 2576              		.loc 5 475 0
 2577 00d4 1846     		mov	r0, r3
 2578 00d6 1837     		adds	r7, r7, #24
 2579              	.LCFI183:
 2580              		.cfi_def_cfa_offset 8
 2581 00d8 BD46     		mov	sp, r7
 2582              	.LCFI184:
 2583              		.cfi_def_cfa_register 13
 2584              		@ sp needed
 2585 00da 80BD     		pop	{r7, pc}
 2586              		.cfi_endproc
 2587              	.LFE168:
 2589              		.section	.text.heap_realloc,"ax",%progbits
 2590              		.align	1
 2591              		.global	heap_realloc
 2592              		.syntax unified
 2593              		.thumb
 2594              		.thumb_func
 2595              		.fpu fpv4-sp-d16
 2597              	heap_realloc:
 2598              	.LFB169:
 476:E:/LiteOS/LiteOS_Lab/iot_link/os/os_imp/liteos/base/mem/heap\los_heap.c **** 
 477:E:/LiteOS/LiteOS_Lab/iot_link/os/os_imp/liteos/base/mem/heap\los_heap.c **** /**
 478:E:/LiteOS/LiteOS_Lab/iot_link/os/os_imp/liteos/base/mem/heap\los_heap.c ****  * heap_realloc - realloc memory from a heap
 479:E:/LiteOS/LiteOS_Lab/iot_link/os/os_imp/liteos/base/mem/heap\los_heap.c ****  * @heap: the heap to allocate from
 480:E:/LiteOS/LiteOS_Lab/iot_link/os/os_imp/liteos/base/mem/heap\los_heap.c ****  * @ptr:  the original memory
 481:E:/LiteOS/LiteOS_Lab/iot_link/os/os_imp/liteos/base/mem/heap\los_heap.c ****  * @size: the new size
 482:E:/LiteOS/LiteOS_Lab/iot_link/os/os_imp/liteos/base/mem/heap\los_heap.c ****  *
 483:E:/LiteOS/LiteOS_Lab/iot_link/os/os_imp/liteos/base/mem/heap\los_heap.c ****  * return: the allocated memory block or NULL if fail
 484:E:/LiteOS/LiteOS_Lab/iot_link/os/os_imp/liteos/base/mem/heap\los_heap.c ****  */
 485:E:/LiteOS/LiteOS_Lab/iot_link/os/os_imp/liteos/base/mem/heap\los_heap.c **** 
 486:E:/LiteOS/LiteOS_Lab/iot_link/os/os_imp/liteos/base/mem/heap\los_heap.c **** char * heap_realloc (heap_t * heap, char * ptr, size_t size)
 487:E:/LiteOS/LiteOS_Lab/iot_link/os/os_imp/liteos/base/mem/heap\los_heap.c **** {
 2599              		.loc 5 487 0
 2600              		.cfi_startproc
 2601              		@ args = 0, pretend = 0, frame = 40
 2602              		@ frame_needed = 1, uses_anonymous_args = 0
 2603 0000 80B5     		push	{r7, lr}
 2604              	.LCFI185:
 2605              		.cfi_def_cfa_offset 8
ARM GAS  C:\Users\user\AppData\Local\Temp\ccizJgFX.s 			page 68


 2606              		.cfi_offset 7, -8
 2607              		.cfi_offset 14, -4
 2608 0002 8AB0     		sub	sp, sp, #40
 2609              	.LCFI186:
 2610              		.cfi_def_cfa_offset 48
 2611 0004 00AF     		add	r7, sp, #0
 2612              	.LCFI187:
 2613              		.cfi_def_cfa_register 7
 2614 0006 F860     		str	r0, [r7, #12]
 2615 0008 B960     		str	r1, [r7, #8]
 2616 000a 7A60     		str	r2, [r7, #4]
 488:E:/LiteOS/LiteOS_Lab/iot_link/os/os_imp/liteos/base/mem/heap\los_heap.c ****     char    * mem;
 489:E:/LiteOS/LiteOS_Lab/iot_link/os/os_imp/liteos/base/mem/heap\los_heap.c ****     size_t    usable_size;
 490:E:/LiteOS/LiteOS_Lab/iot_link/os/os_imp/liteos/base/mem/heap\los_heap.c ****     size_t    left_size;
 491:E:/LiteOS/LiteOS_Lab/iot_link/os/os_imp/liteos/base/mem/heap\los_heap.c ****     chunk_t * chunk;
 492:E:/LiteOS/LiteOS_Lab/iot_link/os/os_imp/liteos/base/mem/heap\los_heap.c ****     chunk_t * new;
 493:E:/LiteOS/LiteOS_Lab/iot_link/os/os_imp/liteos/base/mem/heap\los_heap.c ****     chunk_t * next;
 494:E:/LiteOS/LiteOS_Lab/iot_link/os/os_imp/liteos/base/mem/heap\los_heap.c **** 
 495:E:/LiteOS/LiteOS_Lab/iot_link/os/os_imp/liteos/base/mem/heap\los_heap.c ****     if (ptr == NULL)
 2617              		.loc 5 495 0
 2618 000c BB68     		ldr	r3, [r7, #8]
 2619 000e 002B     		cmp	r3, #0
 2620 0010 05D1     		bne	.L98
 496:E:/LiteOS/LiteOS_Lab/iot_link/os/os_imp/liteos/base/mem/heap\los_heap.c ****     {
 497:E:/LiteOS/LiteOS_Lab/iot_link/os/os_imp/liteos/base/mem/heap\los_heap.c ****         return heap_alloc (heap, size);
 2621              		.loc 5 497 0
 2622 0012 7968     		ldr	r1, [r7, #4]
 2623 0014 F868     		ldr	r0, [r7, #12]
 2624 0016 FFF7FEFF 		bl	heap_alloc
 2625 001a 0346     		mov	r3, r0
 2626 001c 80E0     		b	.L99
 2627              	.L98:
 498:E:/LiteOS/LiteOS_Lab/iot_link/os/os_imp/liteos/base/mem/heap\los_heap.c ****     }
 499:E:/LiteOS/LiteOS_Lab/iot_link/os/os_imp/liteos/base/mem/heap\los_heap.c **** 
 500:E:/LiteOS/LiteOS_Lab/iot_link/os/os_imp/liteos/base/mem/heap\los_heap.c ****     if (size == 0)
 2628              		.loc 5 500 0
 2629 001e 7B68     		ldr	r3, [r7, #4]
 2630 0020 002B     		cmp	r3, #0
 2631 0022 05D1     		bne	.L100
 501:E:/LiteOS/LiteOS_Lab/iot_link/os/os_imp/liteos/base/mem/heap\los_heap.c ****     {
 502:E:/LiteOS/LiteOS_Lab/iot_link/os/os_imp/liteos/base/mem/heap\los_heap.c ****         heap_free (heap, ptr);
 2632              		.loc 5 502 0
 2633 0024 B968     		ldr	r1, [r7, #8]
 2634 0026 F868     		ldr	r0, [r7, #12]
 2635 0028 FFF7FEFF 		bl	heap_free
 503:E:/LiteOS/LiteOS_Lab/iot_link/os/os_imp/liteos/base/mem/heap\los_heap.c ****         return NULL;
 2636              		.loc 5 503 0
 2637 002c 0023     		movs	r3, #0
 2638 002e 77E0     		b	.L99
 2639              	.L100:
 504:E:/LiteOS/LiteOS_Lab/iot_link/os/os_imp/liteos/base/mem/heap\los_heap.c ****     }
 505:E:/LiteOS/LiteOS_Lab/iot_link/os/os_imp/liteos/base/mem/heap\los_heap.c **** 
 506:E:/LiteOS/LiteOS_Lab/iot_link/os/os_imp/liteos/base/mem/heap\los_heap.c ****     if (size < ALLOC_MIN_SIZE)
 2640              		.loc 5 506 0
 2641 0030 7B68     		ldr	r3, [r7, #4]
 2642 0032 072B     		cmp	r3, #7
 2643 0034 02D8     		bhi	.L101
ARM GAS  C:\Users\user\AppData\Local\Temp\ccizJgFX.s 			page 69


 507:E:/LiteOS/LiteOS_Lab/iot_link/os/os_imp/liteos/base/mem/heap\los_heap.c ****     {
 508:E:/LiteOS/LiteOS_Lab/iot_link/os/os_imp/liteos/base/mem/heap\los_heap.c ****         size = ALLOC_MIN_SIZE;
 2644              		.loc 5 508 0
 2645 0036 0823     		movs	r3, #8
 2646 0038 7B60     		str	r3, [r7, #4]
 2647 003a 04E0     		b	.L102
 2648              	.L101:
 509:E:/LiteOS/LiteOS_Lab/iot_link/os/os_imp/liteos/base/mem/heap\los_heap.c ****     }
 510:E:/LiteOS/LiteOS_Lab/iot_link/os/os_imp/liteos/base/mem/heap\los_heap.c ****     else
 511:E:/LiteOS/LiteOS_Lab/iot_link/os/os_imp/liteos/base/mem/heap\los_heap.c ****     {
 512:E:/LiteOS/LiteOS_Lab/iot_link/os/os_imp/liteos/base/mem/heap\los_heap.c ****         size  = round_up (size, ALLOC_ALIGN);
 2649              		.loc 5 512 0
 2650 003c 7B68     		ldr	r3, [r7, #4]
 2651 003e 0733     		adds	r3, r3, #7
 2652 0040 23F00703 		bic	r3, r3, #7
 2653 0044 7B60     		str	r3, [r7, #4]
 2654              	.L102:
 513:E:/LiteOS/LiteOS_Lab/iot_link/os/os_imp/liteos/base/mem/heap\los_heap.c ****     }
 514:E:/LiteOS/LiteOS_Lab/iot_link/os/os_imp/liteos/base/mem/heap\los_heap.c **** 
 515:E:/LiteOS/LiteOS_Lab/iot_link/os/os_imp/liteos/base/mem/heap\los_heap.c ****     chunk = (chunk_t *) __get_ach_from_mem (ptr);
 2655              		.loc 5 515 0
 2656 0046 B868     		ldr	r0, [r7, #8]
 2657 0048 FFF7FEFF 		bl	__get_ach_from_mem
 2658 004c 3862     		str	r0, [r7, #32]
 516:E:/LiteOS/LiteOS_Lab/iot_link/os/os_imp/liteos/base/mem/heap\los_heap.c ****     next  = __get_next_chunk (chunk);
 2659              		.loc 5 516 0
 2660 004e 386A     		ldr	r0, [r7, #32]
 2661 0050 FFF7FEFF 		bl	__get_next_chunk
 2662 0054 7862     		str	r0, [r7, #36]
 517:E:/LiteOS/LiteOS_Lab/iot_link/os/os_imp/liteos/base/mem/heap\los_heap.c **** 
 518:E:/LiteOS/LiteOS_Lab/iot_link/os/os_imp/liteos/base/mem/heap\los_heap.c ****     usable_size = ((char *) next) - ptr;
 2663              		.loc 5 518 0
 2664 0056 7A6A     		ldr	r2, [r7, #36]
 2665 0058 BB68     		ldr	r3, [r7, #8]
 2666 005a D31A     		subs	r3, r2, r3
 2667 005c FB61     		str	r3, [r7, #28]
 519:E:/LiteOS/LiteOS_Lab/iot_link/os/os_imp/liteos/base/mem/heap\los_heap.c **** 
 520:E:/LiteOS/LiteOS_Lab/iot_link/os/os_imp/liteos/base/mem/heap\los_heap.c ****     if (usable_size < size)
 2668              		.loc 5 520 0
 2669 005e FA69     		ldr	r2, [r7, #28]
 2670 0060 7B68     		ldr	r3, [r7, #4]
 2671 0062 9A42     		cmp	r2, r3
 2672 0064 12D2     		bcs	.L103
 521:E:/LiteOS/LiteOS_Lab/iot_link/os/os_imp/liteos/base/mem/heap\los_heap.c ****     {
 522:E:/LiteOS/LiteOS_Lab/iot_link/os/os_imp/liteos/base/mem/heap\los_heap.c ****         mem = heap_alloc (heap, size);
 2673              		.loc 5 522 0
 2674 0066 7968     		ldr	r1, [r7, #4]
 2675 0068 F868     		ldr	r0, [r7, #12]
 2676 006a FFF7FEFF 		bl	heap_alloc
 2677 006e 3861     		str	r0, [r7, #16]
 523:E:/LiteOS/LiteOS_Lab/iot_link/os/os_imp/liteos/base/mem/heap\los_heap.c **** 
 524:E:/LiteOS/LiteOS_Lab/iot_link/os/os_imp/liteos/base/mem/heap\los_heap.c ****         if (mem != NULL)
 2678              		.loc 5 524 0
 2679 0070 3B69     		ldr	r3, [r7, #16]
 2680 0072 002B     		cmp	r3, #0
 2681 0074 08D0     		beq	.L104
 525:E:/LiteOS/LiteOS_Lab/iot_link/os/os_imp/liteos/base/mem/heap\los_heap.c ****         {
ARM GAS  C:\Users\user\AppData\Local\Temp\ccizJgFX.s 			page 70


 526:E:/LiteOS/LiteOS_Lab/iot_link/os/os_imp/liteos/base/mem/heap\los_heap.c ****             memcpy (mem, ptr, usable_size);
 2682              		.loc 5 526 0
 2683 0076 FA69     		ldr	r2, [r7, #28]
 2684 0078 B968     		ldr	r1, [r7, #8]
 2685 007a 3869     		ldr	r0, [r7, #16]
 2686 007c FFF7FEFF 		bl	memcpy
 527:E:/LiteOS/LiteOS_Lab/iot_link/os/os_imp/liteos/base/mem/heap\los_heap.c ****             heap_free (heap, ptr);
 2687              		.loc 5 527 0
 2688 0080 B968     		ldr	r1, [r7, #8]
 2689 0082 F868     		ldr	r0, [r7, #12]
 2690 0084 FFF7FEFF 		bl	heap_free
 2691              	.L104:
 528:E:/LiteOS/LiteOS_Lab/iot_link/os/os_imp/liteos/base/mem/heap\los_heap.c ****         }
 529:E:/LiteOS/LiteOS_Lab/iot_link/os/os_imp/liteos/base/mem/heap\los_heap.c **** 
 530:E:/LiteOS/LiteOS_Lab/iot_link/os/os_imp/liteos/base/mem/heap\los_heap.c ****         return mem;
 2692              		.loc 5 530 0
 2693 0088 3B69     		ldr	r3, [r7, #16]
 2694 008a 49E0     		b	.L99
 2695              	.L103:
 531:E:/LiteOS/LiteOS_Lab/iot_link/os/os_imp/liteos/base/mem/heap\los_heap.c ****     }
 532:E:/LiteOS/LiteOS_Lab/iot_link/os/os_imp/liteos/base/mem/heap\los_heap.c **** 
 533:E:/LiteOS/LiteOS_Lab/iot_link/os/os_imp/liteos/base/mem/heap\los_heap.c ****     /* memory in this chunk is enough, needless alloc new one */
 534:E:/LiteOS/LiteOS_Lab/iot_link/os/os_imp/liteos/base/mem/heap\los_heap.c **** 
 535:E:/LiteOS/LiteOS_Lab/iot_link/os/os_imp/liteos/base/mem/heap\los_heap.c ****     left_size = usable_size - size;
 2696              		.loc 5 535 0
 2697 008c FA69     		ldr	r2, [r7, #28]
 2698 008e 7B68     		ldr	r3, [r7, #4]
 2699 0090 D31A     		subs	r3, r2, r3
 2700 0092 BB61     		str	r3, [r7, #24]
 536:E:/LiteOS/LiteOS_Lab/iot_link/os/os_imp/liteos/base/mem/heap\los_heap.c **** 
 537:E:/LiteOS/LiteOS_Lab/iot_link/os/os_imp/liteos/base/mem/heap\los_heap.c ****     if (left_size < sizeof (chunk_t))
 2701              		.loc 5 537 0
 2702 0094 BB69     		ldr	r3, [r7, #24]
 2703 0096 0F2B     		cmp	r3, #15
 2704 0098 01D8     		bhi	.L105
 538:E:/LiteOS/LiteOS_Lab/iot_link/os/os_imp/liteos/base/mem/heap\los_heap.c ****     {
 539:E:/LiteOS/LiteOS_Lab/iot_link/os/os_imp/liteos/base/mem/heap\los_heap.c ****         return ptr;
 2705              		.loc 5 539 0
 2706 009a BB68     		ldr	r3, [r7, #8]
 2707 009c 40E0     		b	.L99
 2708              	.L105:
 540:E:/LiteOS/LiteOS_Lab/iot_link/os/os_imp/liteos/base/mem/heap\los_heap.c ****     }
 541:E:/LiteOS/LiteOS_Lab/iot_link/os/os_imp/liteos/base/mem/heap\los_heap.c **** 
 542:E:/LiteOS/LiteOS_Lab/iot_link/os/os_imp/liteos/base/mem/heap\los_heap.c ****     /* extra memory in the end and can be released */
 543:E:/LiteOS/LiteOS_Lab/iot_link/os/os_imp/liteos/base/mem/heap\los_heap.c **** 
 544:E:/LiteOS/LiteOS_Lab/iot_link/os/os_imp/liteos/base/mem/heap\los_heap.c ****     new = (chunk_t *) ((char *) next - left_size);
 2709              		.loc 5 544 0
 2710 009e BB69     		ldr	r3, [r7, #24]
 2711 00a0 5B42     		negs	r3, r3
 2712 00a2 7A6A     		ldr	r2, [r7, #36]
 2713 00a4 1344     		add	r3, r3, r2
 2714 00a6 7B61     		str	r3, [r7, #20]
 545:E:/LiteOS/LiteOS_Lab/iot_link/os/os_imp/liteos/base/mem/heap\los_heap.c **** 
 546:E:/LiteOS/LiteOS_Lab/iot_link/os/os_imp/liteos/base/mem/heap\los_heap.c ****     new->prev = chunk;
 2715              		.loc 5 546 0
 2716 00a8 7B69     		ldr	r3, [r7, #20]
 2717 00aa 3A6A     		ldr	r2, [r7, #32]
ARM GAS  C:\Users\user\AppData\Local\Temp\ccizJgFX.s 			page 71


 2718 00ac 1A60     		str	r2, [r3]
 547:E:/LiteOS/LiteOS_Lab/iot_link/os/os_imp/liteos/base/mem/heap\los_heap.c **** 
 548:E:/LiteOS/LiteOS_Lab/iot_link/os/os_imp/liteos/base/mem/heap\los_heap.c ****     if (LOS_MuxPend (heap->mux, LOS_WAIT_FOREVER) != LOS_OK)
 2719              		.loc 5 548 0
 2720 00ae FB68     		ldr	r3, [r7, #12]
 2721 00b0 D3F8B431 		ldr	r3, [r3, #436]
 2722 00b4 4FF0FF31 		mov	r1, #-1
 2723 00b8 1846     		mov	r0, r3
 2724 00ba FFF7FEFF 		bl	LOS_MuxPend
 2725 00be 0346     		mov	r3, r0
 2726 00c0 002B     		cmp	r3, #0
 2727 00c2 01D0     		beq	.L106
 549:E:/LiteOS/LiteOS_Lab/iot_link/os/os_imp/liteos/base/mem/heap\los_heap.c ****     {
 550:E:/LiteOS/LiteOS_Lab/iot_link/os/os_imp/liteos/base/mem/heap\los_heap.c ****         return ptr;
 2728              		.loc 5 550 0
 2729 00c4 BB68     		ldr	r3, [r7, #8]
 2730 00c6 2BE0     		b	.L99
 2731              	.L106:
 551:E:/LiteOS/LiteOS_Lab/iot_link/os/os_imp/liteos/base/mem/heap\los_heap.c ****     }
 552:E:/LiteOS/LiteOS_Lab/iot_link/os/os_imp/liteos/base/mem/heap\los_heap.c **** 
 553:E:/LiteOS/LiteOS_Lab/iot_link/os/os_imp/liteos/base/mem/heap\los_heap.c ****     chunk->size -= left_size;
 2732              		.loc 5 553 0
 2733 00c8 3B6A     		ldr	r3, [r7, #32]
 2734 00ca 5A68     		ldr	r2, [r3, #4]
 2735 00cc BB69     		ldr	r3, [r7, #24]
 2736 00ce D21A     		subs	r2, r2, r3
 2737 00d0 3B6A     		ldr	r3, [r7, #32]
 2738 00d2 5A60     		str	r2, [r3, #4]
 554:E:/LiteOS/LiteOS_Lab/iot_link/os/os_imp/liteos/base/mem/heap\los_heap.c **** 
 555:E:/LiteOS/LiteOS_Lab/iot_link/os/os_imp/liteos/base/mem/heap\los_heap.c ****     if (__is_free (next))
 2739              		.loc 5 555 0
 2740 00d4 786A     		ldr	r0, [r7, #36]
 2741 00d6 FFF7FEFF 		bl	__is_free
 2742 00da 0346     		mov	r3, r0
 2743 00dc 002B     		cmp	r3, #0
 2744 00de 0ED0     		beq	.L107
 556:E:/LiteOS/LiteOS_Lab/iot_link/os/os_imp/liteos/base/mem/heap\los_heap.c ****     {
 557:E:/LiteOS/LiteOS_Lab/iot_link/os/os_imp/liteos/base/mem/heap\los_heap.c ****         new->size = left_size + next->size;
 2745              		.loc 5 557 0
 2746 00e0 7B6A     		ldr	r3, [r7, #36]
 2747 00e2 5A68     		ldr	r2, [r3, #4]
 2748 00e4 BB69     		ldr	r3, [r7, #24]
 2749 00e6 1A44     		add	r2, r2, r3
 2750 00e8 7B69     		ldr	r3, [r7, #20]
 2751 00ea 5A60     		str	r2, [r3, #4]
 558:E:/LiteOS/LiteOS_Lab/iot_link/os/os_imp/liteos/base/mem/heap\los_heap.c ****         __del_chunk (heap, next);
 2752              		.loc 5 558 0
 2753 00ec 796A     		ldr	r1, [r7, #36]
 2754 00ee F868     		ldr	r0, [r7, #12]
 2755 00f0 FFF7FEFF 		bl	__del_chunk
 559:E:/LiteOS/LiteOS_Lab/iot_link/os/os_imp/liteos/base/mem/heap\los_heap.c ****         next = __get_next_chunk (new);
 2756              		.loc 5 559 0
 2757 00f4 7869     		ldr	r0, [r7, #20]
 2758 00f6 FFF7FEFF 		bl	__get_next_chunk
 2759 00fa 7862     		str	r0, [r7, #36]
 2760 00fc 02E0     		b	.L108
 2761              	.L107:
ARM GAS  C:\Users\user\AppData\Local\Temp\ccizJgFX.s 			page 72


 560:E:/LiteOS/LiteOS_Lab/iot_link/os/os_imp/liteos/base/mem/heap\los_heap.c ****     }
 561:E:/LiteOS/LiteOS_Lab/iot_link/os/os_imp/liteos/base/mem/heap\los_heap.c ****     else
 562:E:/LiteOS/LiteOS_Lab/iot_link/os/os_imp/liteos/base/mem/heap\los_heap.c ****     {
