ARM GAS  C:\Users\user\AppData\Local\Temp\ccw9xwtY.s 			page 1


   1              		.cpu cortex-m4
   2              		.eabi_attribute 27, 1
   3              		.eabi_attribute 28, 1
   4              		.eabi_attribute 20, 1
   5              		.eabi_attribute 21, 1
   6              		.eabi_attribute 23, 3
   7              		.eabi_attribute 24, 1
   8              		.eabi_attribute 25, 1
   9              		.eabi_attribute 26, 1
  10              		.eabi_attribute 30, 6
  11              		.eabi_attribute 34, 1
  12              		.eabi_attribute 18, 4
  13              		.file	"los_dispatch.c"
  14              		.text
  15              	.Ltext0:
  16              		.cfi_sections	.debug_frame
  17              		.section	.text.LOS_StartToRun,"ax",%progbits
  18              		.align	1
  19              		.global	LOS_StartToRun
  20              		.syntax unified
  21              		.thumb
  22              		.thumb_func
  23              		.fpu fpv4-sp-d16
  25              	LOS_StartToRun:
  26              	.LFB133:
  27              		.file 1 "E:/LiteOS/LiteOS_Lab/iot_link/os/os_imp/liteos/arch/arm/arm-m/armv7-m/gcc/los_dispatch.c"
   1:E:/LiteOS/LiteOS_Lab/iot_link/os/os_imp/liteos/arch/arm/arm-m/armv7-m/gcc\los_dispatch.c **** /** ----------------------------------------------------------------------------
   2:E:/LiteOS/LiteOS_Lab/iot_link/os/os_imp/liteos/arch/arm/arm-m/armv7-m/gcc\los_dispatch.c ****  * Copyright (c) <2019>, <Huawei Technologies Co., Ltd>
   3:E:/LiteOS/LiteOS_Lab/iot_link/os/os_imp/liteos/arch/arm/arm-m/armv7-m/gcc\los_dispatch.c ****  * All rights reserved.
   4:E:/LiteOS/LiteOS_Lab/iot_link/os/os_imp/liteos/arch/arm/arm-m/armv7-m/gcc\los_dispatch.c ****  * Redistribution and use in source and binary forms, with or without modification,
   5:E:/LiteOS/LiteOS_Lab/iot_link/os/os_imp/liteos/arch/arm/arm-m/armv7-m/gcc\los_dispatch.c ****  * are permitted provided that the following conditions are met:
   6:E:/LiteOS/LiteOS_Lab/iot_link/os/os_imp/liteos/arch/arm/arm-m/armv7-m/gcc\los_dispatch.c ****  * 1. Redistributions of source code must retain the above copyright notice, this list of
   7:E:/LiteOS/LiteOS_Lab/iot_link/os/os_imp/liteos/arch/arm/arm-m/armv7-m/gcc\los_dispatch.c ****  * conditions and the following disclaimer.
   8:E:/LiteOS/LiteOS_Lab/iot_link/os/os_imp/liteos/arch/arm/arm-m/armv7-m/gcc\los_dispatch.c ****  * 2. Redistributions in binary form must reproduce the above copyright notice, this list
   9:E:/LiteOS/LiteOS_Lab/iot_link/os/os_imp/liteos/arch/arm/arm-m/armv7-m/gcc\los_dispatch.c ****  * of conditions and the following disclaimer in the documentation and/or other materials
  10:E:/LiteOS/LiteOS_Lab/iot_link/os/os_imp/liteos/arch/arm/arm-m/armv7-m/gcc\los_dispatch.c ****  * provided with the distribution.
  11:E:/LiteOS/LiteOS_Lab/iot_link/os/os_imp/liteos/arch/arm/arm-m/armv7-m/gcc\los_dispatch.c ****  * 3. Neither the name of the copyright holder nor the names of its contributors may be used
  12:E:/LiteOS/LiteOS_Lab/iot_link/os/os_imp/liteos/arch/arm/arm-m/armv7-m/gcc\los_dispatch.c ****  * to endorse or promote products derived from this software without specific prior written
  13:E:/LiteOS/LiteOS_Lab/iot_link/os/os_imp/liteos/arch/arm/arm-m/armv7-m/gcc\los_dispatch.c ****  * permission.
  14:E:/LiteOS/LiteOS_Lab/iot_link/os/os_imp/liteos/arch/arm/arm-m/armv7-m/gcc\los_dispatch.c ****  * THIS SOFTWARE IS PROVIDED BY THE COPYRIGHT HOLDERS AND CONTRIBUTORS
  15:E:/LiteOS/LiteOS_Lab/iot_link/os/os_imp/liteos/arch/arm/arm-m/armv7-m/gcc\los_dispatch.c ****  * "AS IS" AND ANY EXPRESS OR IMPLIED WARRANTIES, INCLUDING, BUT NOT LIMITED TO,
  16:E:/LiteOS/LiteOS_Lab/iot_link/os/os_imp/liteos/arch/arm/arm-m/armv7-m/gcc\los_dispatch.c ****  * THE IMPLIED WARRANTIES OF MERCHANTABILITY AND FITNESS FOR A PARTICULAR
  17:E:/LiteOS/LiteOS_Lab/iot_link/os/os_imp/liteos/arch/arm/arm-m/armv7-m/gcc\los_dispatch.c ****  * PURPOSE ARE DISCLAIMED. IN NO EVENT SHALL THE COPYRIGHT HOLDER OR
  18:E:/LiteOS/LiteOS_Lab/iot_link/os/os_imp/liteos/arch/arm/arm-m/armv7-m/gcc\los_dispatch.c ****  * CONTRIBUTORS BE LIABLE FOR ANY DIRECT, INDIRECT, INCIDENTAL, SPECIAL,
  19:E:/LiteOS/LiteOS_Lab/iot_link/os/os_imp/liteos/arch/arm/arm-m/armv7-m/gcc\los_dispatch.c ****  * EXEMPLARY, OR CONSEQUENTIAL DAMAGES (INCLUDING, BUT NOT LIMITED TO,
  20:E:/LiteOS/LiteOS_Lab/iot_link/os/os_imp/liteos/arch/arm/arm-m/armv7-m/gcc\los_dispatch.c ****  * PROCUREMENT OF SUBSTITUTE GOODS OR SERVICES; LOSS OF USE, DATA, OR PROFITS;
  21:E:/LiteOS/LiteOS_Lab/iot_link/os/os_imp/liteos/arch/arm/arm-m/armv7-m/gcc\los_dispatch.c ****  * OR BUSINESS INTERRUPTION) HOWEVER CAUSED AND ON ANY THEORY OF LIABILITY,
  22:E:/LiteOS/LiteOS_Lab/iot_link/os/os_imp/liteos/arch/arm/arm-m/armv7-m/gcc\los_dispatch.c ****  * WHETHER IN CONTRACT, STRICT LIABILITY, OR TORT (INCLUDING NEGLIGENCE OR
  23:E:/LiteOS/LiteOS_Lab/iot_link/os/os_imp/liteos/arch/arm/arm-m/armv7-m/gcc\los_dispatch.c ****  * OTHERWISE) ARISING IN ANY WAY OUT OF THE USE OF THIS SOFTWARE, EVEN IF
  24:E:/LiteOS/LiteOS_Lab/iot_link/os/os_imp/liteos/arch/arm/arm-m/armv7-m/gcc\los_dispatch.c ****  * ADVISED OF THE POSSIBILITY OF SUCH DAMAGE.
  25:E:/LiteOS/LiteOS_Lab/iot_link/os/os_imp/liteos/arch/arm/arm-m/armv7-m/gcc\los_dispatch.c ****  *---------------------------------------------------------------------------*/
  26:E:/LiteOS/LiteOS_Lab/iot_link/os/os_imp/liteos/arch/arm/arm-m/armv7-m/gcc\los_dispatch.c **** /** ----------------------------------------------------------------------------
  27:E:/LiteOS/LiteOS_Lab/iot_link/os/os_imp/liteos/arch/arm/arm-m/armv7-m/gcc\los_dispatch.c ****  * Notice of Export Control Law
  28:E:/LiteOS/LiteOS_Lab/iot_link/os/os_imp/liteos/arch/arm/arm-m/armv7-m/gcc\los_dispatch.c ****  * ===============================================
  29:E:/LiteOS/LiteOS_Lab/iot_link/os/os_imp/liteos/arch/arm/arm-m/armv7-m/gcc\los_dispatch.c ****  * Huawei LiteOS may be subject to applicable export control laws and regulations, which might
  30:E:/LiteOS/LiteOS_Lab/iot_link/os/os_imp/liteos/arch/arm/arm-m/armv7-m/gcc\los_dispatch.c ****  * include those applicable to Huawei LiteOS of U.S. and the country in which you are located.
  31:E:/LiteOS/LiteOS_Lab/iot_link/os/os_imp/liteos/arch/arm/arm-m/armv7-m/gcc\los_dispatch.c ****  * Import, export and usage of Huawei LiteOS in any manner by you shall be in compliance with such
ARM GAS  C:\Users\user\AppData\Local\Temp\ccw9xwtY.s 			page 2


  32:E:/LiteOS/LiteOS_Lab/iot_link/os/os_imp/liteos/arch/arm/arm-m/armv7-m/gcc\los_dispatch.c ****  * applicable export control laws and regulations.
  33:E:/LiteOS/LiteOS_Lab/iot_link/os/os_imp/liteos/arch/arm/arm-m/armv7-m/gcc\los_dispatch.c ****  *---------------------------------------------------------------------------*/
  34:E:/LiteOS/LiteOS_Lab/iot_link/os/os_imp/liteos/arch/arm/arm-m/armv7-m/gcc\los_dispatch.c ****  
  35:E:/LiteOS/LiteOS_Lab/iot_link/os/os_imp/liteos/arch/arm/arm-m/armv7-m/gcc\los_dispatch.c **** #include <los_config.h>
  36:E:/LiteOS/LiteOS_Lab/iot_link/os/os_imp/liteos/arch/arm/arm-m/armv7-m/gcc\los_dispatch.c **** #include <los_typedef.h>
  37:E:/LiteOS/LiteOS_Lab/iot_link/os/os_imp/liteos/arch/arm/arm-m/armv7-m/gcc\los_dispatch.c **** 
  38:E:/LiteOS/LiteOS_Lab/iot_link/os/os_imp/liteos/arch/arm/arm-m/armv7-m/gcc\los_dispatch.c **** #define NVIC_INT_CTRL                   0xE000ED04  /* Interrupt Control and State Register. */
  39:E:/LiteOS/LiteOS_Lab/iot_link/os/os_imp/liteos/arch/arm/arm-m/armv7-m/gcc\los_dispatch.c **** #define NVIC_PENDSVSET                  0x10000000  /* Value to trigger PendSV exception. */
  40:E:/LiteOS/LiteOS_Lab/iot_link/os/os_imp/liteos/arch/arm/arm-m/armv7-m/gcc\los_dispatch.c **** 
  41:E:/LiteOS/LiteOS_Lab/iot_link/os/os_imp/liteos/arch/arm/arm-m/armv7-m/gcc\los_dispatch.c **** #define NVIC_SYSPRI2                    0xE000ED20  /* System Handler Priority Register 2. */
  42:E:/LiteOS/LiteOS_Lab/iot_link/os/os_imp/liteos/arch/arm/arm-m/armv7-m/gcc\los_dispatch.c **** #define NVIC_PENDSV_SYSTICK_PRI         0xFFFF0000  /* SysTick + PendSV priority level (lowest). */
  43:E:/LiteOS/LiteOS_Lab/iot_link/os/os_imp/liteos/arch/arm/arm-m/armv7-m/gcc\los_dispatch.c **** #define MPU_RBAR                        0xE000ED9C  /* MPU Region Base Address register */
  44:E:/LiteOS/LiteOS_Lab/iot_link/os/os_imp/liteos/arch/arm/arm-m/armv7-m/gcc\los_dispatch.c **** 
  45:E:/LiteOS/LiteOS_Lab/iot_link/os/os_imp/liteos/arch/arm/arm-m/armv7-m/gcc\los_dispatch.c **** #define OS_TASK_STATUS_RUNNING          0x00000010  /* Task Status Flag (RUNNING). */
  46:E:/LiteOS/LiteOS_Lab/iot_link/os/os_imp/liteos/arch/arm/arm-m/armv7-m/gcc\los_dispatch.c **** 
  47:E:/LiteOS/LiteOS_Lab/iot_link/os/os_imp/liteos/arch/arm/arm-m/armv7-m/gcc\los_dispatch.c **** /****************************************************************************************
  48:E:/LiteOS/LiteOS_Lab/iot_link/os/os_imp/liteos/arch/arm/arm-m/armv7-m/gcc\los_dispatch.c **** * Function:
  49:E:/LiteOS/LiteOS_Lab/iot_link/os/os_imp/liteos/arch/arm/arm-m/armv7-m/gcc\los_dispatch.c **** *        VOID LOS_StartToRun(VOID);
  50:E:/LiteOS/LiteOS_Lab/iot_link/os/os_imp/liteos/arch/arm/arm-m/armv7-m/gcc\los_dispatch.c **** * Description:
  51:E:/LiteOS/LiteOS_Lab/iot_link/os/os_imp/liteos/arch/arm/arm-m/armv7-m/gcc\los_dispatch.c **** *        Start the first task, which is the highest priority task in the priority queue.
  52:E:/LiteOS/LiteOS_Lab/iot_link/os/os_imp/liteos/arch/arm/arm-m/armv7-m/gcc\los_dispatch.c **** *        Other tasks are started by task scheduling.
  53:E:/LiteOS/LiteOS_Lab/iot_link/os/os_imp/liteos/arch/arm/arm-m/armv7-m/gcc\los_dispatch.c **** ****************************************************************************************/
  54:E:/LiteOS/LiteOS_Lab/iot_link/os/os_imp/liteos/arch/arm/arm-m/armv7-m/gcc\los_dispatch.c **** __attribute__((naked)) void LOS_StartToRun(void)
  55:E:/LiteOS/LiteOS_Lab/iot_link/os/os_imp/liteos/arch/arm/arm-m/armv7-m/gcc\los_dispatch.c **** {
  28              		.loc 1 55 0
  29              		.cfi_startproc
  30              		@ Naked Function: prologue and epilogue provided by programmer.
  31              		@ args = 0, pretend = 0, frame = 0
  32              		@ frame_needed = 1, uses_anonymous_args = 0
  56:E:/LiteOS/LiteOS_Lab/iot_link/os/os_imp/liteos/arch/arm/arm-m/armv7-m/gcc\los_dispatch.c ****     asm (
  33              		.loc 1 56 0
  34              		.syntax unified
  35              	@ 56 "E:/LiteOS/LiteOS_Lab/iot_link/os/os_imp/liteos/arch/arm/arm-m/armv7-m/gcc/los_dispatch.c" 1
  36              		.syntax unified
  37 0000 72B6     		CPSID  I
  38 0002 1548     		LDR    R0, =#-536810208                 @ NVIC_SYSPRI2
  39 0004 1549     		LDR    R1, =#-65536                 @ NVIC_PENDSV_SYSTICK_PRI
  40 0006 0268     		LDR    R2, [R0]
  41 0008 41EA0201 		ORR    R1, R1, R2
  42 000c 0160     		STR    R1, [R0]
  43 000e 1448     		LDR    R0, =g_bTaskScheduled
  44 0010 4FF00101 		MOV    R1, #1
  45 0014 0160     		STR    R1, [R0]
  46 0016 1348     		LDR    R0, =g_stLosTask
  47 0018 4168     		LDR    R1, [R0, #4]
  48 001a 0160     		STR    R1, [R0]
  49 001c 0168     		LDR    R1, [R0]
  50 001e 8A88     		LDRH   R2, [R1, #4]
  51 0020 4FF01003 		MOV    R3, #16                  @ OS_TASK_STATUS_RUNNING
  52 0024 42EA0302 		ORR    R2, R2, R3
  53 0028 8A80     		STRH   R2, [R1, #4]
  54 002a D1F800C0 		LDR    R12, [R1]
  55 002e 4FF00203 		MOV    R3, #2
  56 0032 0CF1240C 		ADD    R12, R12, #36           @ skip R4-R11, PRIMASK.
  57 0036 0CF1040C 		ADD    R12, R12, #4            @ if FPU exist, skip EXC_RETURN.
  58 003a DCF80000 		LDR    R0, [R12]
  59 003e DCF814E0 		LDR    LR, [R12, #4 * 5]
ARM GAS  C:\Users\user\AppData\Local\Temp\ccw9xwtY.s 			page 3


  60 0042 DCF81820 		LDR    R2, [R12, #4 * 6]
  61 0046 0CF1200C 		ADD    R12, R12, #4 * 8
  62 004a 8CF30988 		MSR    PSP, R12
  63 004e 62B6     		CPSIE  I
  64 0050 83F31488 		MSR    CONTROL, R3
  65 0054 1047     		BX     R2
  66              		
  67              	@ 0 "" 2
  57:E:/LiteOS/LiteOS_Lab/iot_link/os/os_imp/liteos/arch/arm/arm-m/armv7-m/gcc\los_dispatch.c ****     ".syntax unified\n\t"
  58:E:/LiteOS/LiteOS_Lab/iot_link/os/os_imp/liteos/arch/arm/arm-m/armv7-m/gcc\los_dispatch.c **** 
  59:E:/LiteOS/LiteOS_Lab/iot_link/os/os_imp/liteos/arch/arm/arm-m/armv7-m/gcc\los_dispatch.c ****     "CPSID  I\n\t"
  60:E:/LiteOS/LiteOS_Lab/iot_link/os/os_imp/liteos/arch/arm/arm-m/armv7-m/gcc\los_dispatch.c **** 
  61:E:/LiteOS/LiteOS_Lab/iot_link/os/os_imp/liteos/arch/arm/arm-m/armv7-m/gcc\los_dispatch.c ****     /**
  62:E:/LiteOS/LiteOS_Lab/iot_link/os/os_imp/liteos/arch/arm/arm-m/armv7-m/gcc\los_dispatch.c ****      * Set PendSV and SysTick prority to the lowest.
  63:E:/LiteOS/LiteOS_Lab/iot_link/os/os_imp/liteos/arch/arm/arm-m/armv7-m/gcc\los_dispatch.c ****      * read ---> modify ---> write-back.
  64:E:/LiteOS/LiteOS_Lab/iot_link/os/os_imp/liteos/arch/arm/arm-m/armv7-m/gcc\los_dispatch.c ****      */
  65:E:/LiteOS/LiteOS_Lab/iot_link/os/os_imp/liteos/arch/arm/arm-m/armv7-m/gcc\los_dispatch.c **** 
  66:E:/LiteOS/LiteOS_Lab/iot_link/os/os_imp/liteos/arch/arm/arm-m/armv7-m/gcc\los_dispatch.c ****     "LDR    R0, =%0                 @ NVIC_SYSPRI2\n\t"
  67:E:/LiteOS/LiteOS_Lab/iot_link/os/os_imp/liteos/arch/arm/arm-m/armv7-m/gcc\los_dispatch.c ****     "LDR    R1, =%1                 @ NVIC_PENDSV_SYSTICK_PRI\n\t"
  68:E:/LiteOS/LiteOS_Lab/iot_link/os/os_imp/liteos/arch/arm/arm-m/armv7-m/gcc\los_dispatch.c ****     "LDR    R2, [R0]\n\t"
  69:E:/LiteOS/LiteOS_Lab/iot_link/os/os_imp/liteos/arch/arm/arm-m/armv7-m/gcc\los_dispatch.c ****     "ORR    R1, R1, R2\n\t"
  70:E:/LiteOS/LiteOS_Lab/iot_link/os/os_imp/liteos/arch/arm/arm-m/armv7-m/gcc\los_dispatch.c ****     "STR    R1, [R0]\n\t"
  71:E:/LiteOS/LiteOS_Lab/iot_link/os/os_imp/liteos/arch/arm/arm-m/armv7-m/gcc\los_dispatch.c **** 
  72:E:/LiteOS/LiteOS_Lab/iot_link/os/os_imp/liteos/arch/arm/arm-m/armv7-m/gcc\los_dispatch.c ****     /**
  73:E:/LiteOS/LiteOS_Lab/iot_link/os/os_imp/liteos/arch/arm/arm-m/armv7-m/gcc\los_dispatch.c ****      * Set g_bTaskScheduled = 1.
  74:E:/LiteOS/LiteOS_Lab/iot_link/os/os_imp/liteos/arch/arm/arm-m/armv7-m/gcc\los_dispatch.c ****      */
  75:E:/LiteOS/LiteOS_Lab/iot_link/os/os_imp/liteos/arch/arm/arm-m/armv7-m/gcc\los_dispatch.c **** 
  76:E:/LiteOS/LiteOS_Lab/iot_link/os/os_imp/liteos/arch/arm/arm-m/armv7-m/gcc\los_dispatch.c ****     "LDR    R0, =g_bTaskScheduled\n\t"
  77:E:/LiteOS/LiteOS_Lab/iot_link/os/os_imp/liteos/arch/arm/arm-m/armv7-m/gcc\los_dispatch.c ****     "MOV    R1, #1\n\t"
  78:E:/LiteOS/LiteOS_Lab/iot_link/os/os_imp/liteos/arch/arm/arm-m/armv7-m/gcc\los_dispatch.c ****     "STR    R1, [R0]\n\t"
  79:E:/LiteOS/LiteOS_Lab/iot_link/os/os_imp/liteos/arch/arm/arm-m/armv7-m/gcc\los_dispatch.c **** 
  80:E:/LiteOS/LiteOS_Lab/iot_link/os/os_imp/liteos/arch/arm/arm-m/armv7-m/gcc\los_dispatch.c ****     /**
  81:E:/LiteOS/LiteOS_Lab/iot_link/os/os_imp/liteos/arch/arm/arm-m/armv7-m/gcc\los_dispatch.c ****      * Set g_stLosTask.pstRunTask = g_stLosTask.pstNewTask.
  82:E:/LiteOS/LiteOS_Lab/iot_link/os/os_imp/liteos/arch/arm/arm-m/armv7-m/gcc\los_dispatch.c ****      */
  83:E:/LiteOS/LiteOS_Lab/iot_link/os/os_imp/liteos/arch/arm/arm-m/armv7-m/gcc\los_dispatch.c ****     "LDR    R0, =g_stLosTask\n\t"
  84:E:/LiteOS/LiteOS_Lab/iot_link/os/os_imp/liteos/arch/arm/arm-m/armv7-m/gcc\los_dispatch.c ****     "LDR    R1, [R0, #4]\n\t"
  85:E:/LiteOS/LiteOS_Lab/iot_link/os/os_imp/liteos/arch/arm/arm-m/armv7-m/gcc\los_dispatch.c ****     "STR    R1, [R0]\n\t"
  86:E:/LiteOS/LiteOS_Lab/iot_link/os/os_imp/liteos/arch/arm/arm-m/armv7-m/gcc\los_dispatch.c **** 
  87:E:/LiteOS/LiteOS_Lab/iot_link/os/os_imp/liteos/arch/arm/arm-m/armv7-m/gcc\los_dispatch.c ****     /**
  88:E:/LiteOS/LiteOS_Lab/iot_link/os/os_imp/liteos/arch/arm/arm-m/armv7-m/gcc\los_dispatch.c ****      * Set g_stLosTask.pstRunTask->usTaskStatus |= OS_TASK_STATUS_RUNNING.
  89:E:/LiteOS/LiteOS_Lab/iot_link/os/os_imp/liteos/arch/arm/arm-m/armv7-m/gcc\los_dispatch.c ****      */
  90:E:/LiteOS/LiteOS_Lab/iot_link/os/os_imp/liteos/arch/arm/arm-m/armv7-m/gcc\los_dispatch.c ****     "LDR    R1, [R0]\n\t"
  91:E:/LiteOS/LiteOS_Lab/iot_link/os/os_imp/liteos/arch/arm/arm-m/armv7-m/gcc\los_dispatch.c ****     "LDRH   R2, [R1, #4]\n\t"
  92:E:/LiteOS/LiteOS_Lab/iot_link/os/os_imp/liteos/arch/arm/arm-m/armv7-m/gcc\los_dispatch.c ****     "MOV    R3, %2                  @ OS_TASK_STATUS_RUNNING\n\t"
  93:E:/LiteOS/LiteOS_Lab/iot_link/os/os_imp/liteos/arch/arm/arm-m/armv7-m/gcc\los_dispatch.c ****     "ORR    R2, R2, R3\n\t"
  94:E:/LiteOS/LiteOS_Lab/iot_link/os/os_imp/liteos/arch/arm/arm-m/armv7-m/gcc\los_dispatch.c ****     "STRH   R2, [R1, #4]\n\t"
  95:E:/LiteOS/LiteOS_Lab/iot_link/os/os_imp/liteos/arch/arm/arm-m/armv7-m/gcc\los_dispatch.c **** 
  96:E:/LiteOS/LiteOS_Lab/iot_link/os/os_imp/liteos/arch/arm/arm-m/armv7-m/gcc\los_dispatch.c ****     /**
  97:E:/LiteOS/LiteOS_Lab/iot_link/os/os_imp/liteos/arch/arm/arm-m/armv7-m/gcc\los_dispatch.c ****      * Restore the default stack frame(R0-R3,R12,LR,PC,xPSR) of g_stLosTask.pstRunTask to R0-R7.
  98:E:/LiteOS/LiteOS_Lab/iot_link/os/os_imp/liteos/arch/arm/arm-m/armv7-m/gcc\los_dispatch.c ****      * [Initial EXC_RETURN ignore, if FPU supported] return by setting the CONTROL register.
  99:E:/LiteOS/LiteOS_Lab/iot_link/os/os_imp/liteos/arch/arm/arm-m/armv7-m/gcc\los_dispatch.c ****      *
 100:E:/LiteOS/LiteOS_Lab/iot_link/os/os_imp/liteos/arch/arm/arm-m/armv7-m/gcc\los_dispatch.c ****      * The initial stack of the current running task is as follows:
 101:E:/LiteOS/LiteOS_Lab/iot_link/os/os_imp/liteos/arch/arm/arm-m/armv7-m/gcc\los_dispatch.c ****      *
 102:E:/LiteOS/LiteOS_Lab/iot_link/os/os_imp/liteos/arch/arm/arm-m/armv7-m/gcc\los_dispatch.c ****      *       POP: Restore the context of the current running task ===>|
 103:E:/LiteOS/LiteOS_Lab/iot_link/os/os_imp/liteos/arch/arm/arm-m/armv7-m/gcc\los_dispatch.c ****      *                                                   High addr--->|
 104:E:/LiteOS/LiteOS_Lab/iot_link/os/os_imp/liteos/arch/arm/arm-m/armv7-m/gcc\los_dispatch.c ****      *                                         Bottom of the stack--->|
 105:E:/LiteOS/LiteOS_Lab/iot_link/os/os_imp/liteos/arch/arm/arm-m/armv7-m/gcc\los_dispatch.c ****      * ----------+-----------------------------+----------------------+
ARM GAS  C:\Users\user\AppData\Local\Temp\ccw9xwtY.s 			page 4


 106:E:/LiteOS/LiteOS_Lab/iot_link/os/os_imp/liteos/arch/arm/arm-m/armv7-m/gcc\los_dispatch.c ****      *           | R4-R11,PRIMASK[,EXC_RETURN] | R0-R3,R12,LR,PC,xPSR |
 107:E:/LiteOS/LiteOS_Lab/iot_link/os/os_imp/liteos/arch/arm/arm-m/armv7-m/gcc\los_dispatch.c ****      * ----------+-----------------------------+----------------------+
 108:E:/LiteOS/LiteOS_Lab/iot_link/os/os_imp/liteos/arch/arm/arm-m/armv7-m/gcc\los_dispatch.c ****      *           |<---Top of the stack, restored from g_stLosTask.pstRunTask->pStackPointer
 109:E:/LiteOS/LiteOS_Lab/iot_link/os/os_imp/liteos/arch/arm/arm-m/armv7-m/gcc\los_dispatch.c ****      *           |<---         skip        --->|<--- get r0,lr,pc --->|
 110:E:/LiteOS/LiteOS_Lab/iot_link/os/os_imp/liteos/arch/arm/arm-m/armv7-m/gcc\los_dispatch.c ****      *                                                  R12 to PSP--->|
 111:E:/LiteOS/LiteOS_Lab/iot_link/os/os_imp/liteos/arch/arm/arm-m/armv7-m/gcc\los_dispatch.c ****      *                          Stack pointer after LOS_StartToRun--->|
 112:E:/LiteOS/LiteOS_Lab/iot_link/os/os_imp/liteos/arch/arm/arm-m/armv7-m/gcc\los_dispatch.c ****      */
 113:E:/LiteOS/LiteOS_Lab/iot_link/os/os_imp/liteos/arch/arm/arm-m/armv7-m/gcc\los_dispatch.c **** 
 114:E:/LiteOS/LiteOS_Lab/iot_link/os/os_imp/liteos/arch/arm/arm-m/armv7-m/gcc\los_dispatch.c ****     "LDR    R12, [R1]\n\t"
 115:E:/LiteOS/LiteOS_Lab/iot_link/os/os_imp/liteos/arch/arm/arm-m/armv7-m/gcc\los_dispatch.c **** 
 116:E:/LiteOS/LiteOS_Lab/iot_link/os/os_imp/liteos/arch/arm/arm-m/armv7-m/gcc\los_dispatch.c **** #if (LOSCFG_ENABLE_MPU == YES)
 117:E:/LiteOS/LiteOS_Lab/iot_link/os/os_imp/liteos/arch/arm/arm-m/armv7-m/gcc\los_dispatch.c ****     "LDR    R0, [R1, #8]            @ TCB->pMpuSettings\n\t"
 118:E:/LiteOS/LiteOS_Lab/iot_link/os/os_imp/liteos/arch/arm/arm-m/armv7-m/gcc\los_dispatch.c ****     "LDR    R1, =%3                 @ MPU_RBAR\n\t"
 119:E:/LiteOS/LiteOS_Lab/iot_link/os/os_imp/liteos/arch/arm/arm-m/armv7-m/gcc\los_dispatch.c ****     "LDM    R0!, {R2-R7}\n\t"
 120:E:/LiteOS/LiteOS_Lab/iot_link/os/os_imp/liteos/arch/arm/arm-m/armv7-m/gcc\los_dispatch.c ****     "STM    R1, {R2-R7}\n\t"
 121:E:/LiteOS/LiteOS_Lab/iot_link/os/os_imp/liteos/arch/arm/arm-m/armv7-m/gcc\los_dispatch.c ****     "LDM    R0!, {R2-R7}\n\t"
 122:E:/LiteOS/LiteOS_Lab/iot_link/os/os_imp/liteos/arch/arm/arm-m/armv7-m/gcc\los_dispatch.c ****     "STM    R1, {R2-R7}\n\t"
 123:E:/LiteOS/LiteOS_Lab/iot_link/os/os_imp/liteos/arch/arm/arm-m/armv7-m/gcc\los_dispatch.c **** 
 124:E:/LiteOS/LiteOS_Lab/iot_link/os/os_imp/liteos/arch/arm/arm-m/armv7-m/gcc\los_dispatch.c ****     "LDR    R3, [R12], #4           @ get the CONTROL value\n\t"
 125:E:/LiteOS/LiteOS_Lab/iot_link/os/os_imp/liteos/arch/arm/arm-m/armv7-m/gcc\los_dispatch.c ****     "ORR    R3, #2                  @ set CONTROL.SPSEL\n\t"
 126:E:/LiteOS/LiteOS_Lab/iot_link/os/os_imp/liteos/arch/arm/arm-m/armv7-m/gcc\los_dispatch.c **** #else
 127:E:/LiteOS/LiteOS_Lab/iot_link/os/os_imp/liteos/arch/arm/arm-m/armv7-m/gcc\los_dispatch.c ****     "MOV    R3, #2\n\t"
 128:E:/LiteOS/LiteOS_Lab/iot_link/os/os_imp/liteos/arch/arm/arm-m/armv7-m/gcc\los_dispatch.c **** #endif
 129:E:/LiteOS/LiteOS_Lab/iot_link/os/os_imp/liteos/arch/arm/arm-m/armv7-m/gcc\los_dispatch.c **** 
 130:E:/LiteOS/LiteOS_Lab/iot_link/os/os_imp/liteos/arch/arm/arm-m/armv7-m/gcc\los_dispatch.c ****     "ADD    R12, R12, #36           @ skip R4-R11, PRIMASK.\n\t"
 131:E:/LiteOS/LiteOS_Lab/iot_link/os/os_imp/liteos/arch/arm/arm-m/armv7-m/gcc\los_dispatch.c **** 
 132:E:/LiteOS/LiteOS_Lab/iot_link/os/os_imp/liteos/arch/arm/arm-m/armv7-m/gcc\los_dispatch.c **** #if defined (__VFP_FP__) && !defined(__SOFTFP__)
 133:E:/LiteOS/LiteOS_Lab/iot_link/os/os_imp/liteos/arch/arm/arm-m/armv7-m/gcc\los_dispatch.c ****     "ADD    R12, R12, #4            @ if FPU exist, skip EXC_RETURN.\n\t"
 134:E:/LiteOS/LiteOS_Lab/iot_link/os/os_imp/liteos/arch/arm/arm-m/armv7-m/gcc\los_dispatch.c **** #endif
 135:E:/LiteOS/LiteOS_Lab/iot_link/os/os_imp/liteos/arch/arm/arm-m/armv7-m/gcc\los_dispatch.c **** 
 136:E:/LiteOS/LiteOS_Lab/iot_link/os/os_imp/liteos/arch/arm/arm-m/armv7-m/gcc\los_dispatch.c ****     "LDR    R0, [R12]\n\t"
 137:E:/LiteOS/LiteOS_Lab/iot_link/os/os_imp/liteos/arch/arm/arm-m/armv7-m/gcc\los_dispatch.c ****     "LDR    LR, [R12, #4 * 5]\n\t"
 138:E:/LiteOS/LiteOS_Lab/iot_link/os/os_imp/liteos/arch/arm/arm-m/armv7-m/gcc\los_dispatch.c ****     "LDR    R2, [R12, #4 * 6]\n\t"
 139:E:/LiteOS/LiteOS_Lab/iot_link/os/os_imp/liteos/arch/arm/arm-m/armv7-m/gcc\los_dispatch.c **** 
 140:E:/LiteOS/LiteOS_Lab/iot_link/os/os_imp/liteos/arch/arm/arm-m/armv7-m/gcc\los_dispatch.c ****     "ADD    R12, R12, #4 * 8\n\t"
 141:E:/LiteOS/LiteOS_Lab/iot_link/os/os_imp/liteos/arch/arm/arm-m/armv7-m/gcc\los_dispatch.c **** 
 142:E:/LiteOS/LiteOS_Lab/iot_link/os/os_imp/liteos/arch/arm/arm-m/armv7-m/gcc\los_dispatch.c ****     /**
 143:E:/LiteOS/LiteOS_Lab/iot_link/os/os_imp/liteos/arch/arm/arm-m/armv7-m/gcc\los_dispatch.c ****      * Set the stack pointer of g_stLosTask.pstRunTask to PSP.
 144:E:/LiteOS/LiteOS_Lab/iot_link/os/os_imp/liteos/arch/arm/arm-m/armv7-m/gcc\los_dispatch.c ****      */
 145:E:/LiteOS/LiteOS_Lab/iot_link/os/os_imp/liteos/arch/arm/arm-m/armv7-m/gcc\los_dispatch.c ****     "MSR    PSP, R12\n\t"
 146:E:/LiteOS/LiteOS_Lab/iot_link/os/os_imp/liteos/arch/arm/arm-m/armv7-m/gcc\los_dispatch.c **** 
 147:E:/LiteOS/LiteOS_Lab/iot_link/os/os_imp/liteos/arch/arm/arm-m/armv7-m/gcc\los_dispatch.c ****     /**
 148:E:/LiteOS/LiteOS_Lab/iot_link/os/os_imp/liteos/arch/arm/arm-m/armv7-m/gcc\los_dispatch.c ****      * Enable interrupt. (The default PRIMASK value is 0, so enable directly)
 149:E:/LiteOS/LiteOS_Lab/iot_link/os/os_imp/liteos/arch/arm/arm-m/armv7-m/gcc\los_dispatch.c ****      */
 150:E:/LiteOS/LiteOS_Lab/iot_link/os/os_imp/liteos/arch/arm/arm-m/armv7-m/gcc\los_dispatch.c ****     "CPSIE  I\n\t"
 151:E:/LiteOS/LiteOS_Lab/iot_link/os/os_imp/liteos/arch/arm/arm-m/armv7-m/gcc\los_dispatch.c **** 
 152:E:/LiteOS/LiteOS_Lab/iot_link/os/os_imp/liteos/arch/arm/arm-m/armv7-m/gcc\los_dispatch.c ****     /**
 153:E:/LiteOS/LiteOS_Lab/iot_link/os/os_imp/liteos/arch/arm/arm-m/armv7-m/gcc\los_dispatch.c ****      * Set the CONTROL register, after schedule start, privilege level and stack = PSP.
 154:E:/LiteOS/LiteOS_Lab/iot_link/os/os_imp/liteos/arch/arm/arm-m/armv7-m/gcc\los_dispatch.c ****      */
 155:E:/LiteOS/LiteOS_Lab/iot_link/os/os_imp/liteos/arch/arm/arm-m/armv7-m/gcc\los_dispatch.c ****     "MSR    CONTROL, R3\n\t"
 156:E:/LiteOS/LiteOS_Lab/iot_link/os/os_imp/liteos/arch/arm/arm-m/armv7-m/gcc\los_dispatch.c **** 
 157:E:/LiteOS/LiteOS_Lab/iot_link/os/os_imp/liteos/arch/arm/arm-m/armv7-m/gcc\los_dispatch.c ****     /**
 158:E:/LiteOS/LiteOS_Lab/iot_link/os/os_imp/liteos/arch/arm/arm-m/armv7-m/gcc\los_dispatch.c ****      * Jump directly to the default PC of g_stLosTask.pstRunTask, the field information
 159:E:/LiteOS/LiteOS_Lab/iot_link/os/os_imp/liteos/arch/arm/arm-m/armv7-m/gcc\los_dispatch.c ****      * of the main function will be destroyed and will never be returned.
 160:E:/LiteOS/LiteOS_Lab/iot_link/os/os_imp/liteos/arch/arm/arm-m/armv7-m/gcc\los_dispatch.c ****      */
 161:E:/LiteOS/LiteOS_Lab/iot_link/os/os_imp/liteos/arch/arm/arm-m/armv7-m/gcc\los_dispatch.c ****     "BX     R2\n\t"
 162:E:/LiteOS/LiteOS_Lab/iot_link/os/os_imp/liteos/arch/arm/arm-m/armv7-m/gcc\los_dispatch.c ****     :
ARM GAS  C:\Users\user\AppData\Local\Temp\ccw9xwtY.s 			page 5


 163:E:/LiteOS/LiteOS_Lab/iot_link/os/os_imp/liteos/arch/arm/arm-m/armv7-m/gcc\los_dispatch.c ****     : "X" (NVIC_SYSPRI2), "X" (NVIC_PENDSV_SYSTICK_PRI),
 164:E:/LiteOS/LiteOS_Lab/iot_link/os/os_imp/liteos/arch/arm/arm-m/armv7-m/gcc\los_dispatch.c ****       "I" (OS_TASK_STATUS_RUNNING), "X" (MPU_RBAR)
 165:E:/LiteOS/LiteOS_Lab/iot_link/os/os_imp/liteos/arch/arm/arm-m/armv7-m/gcc\los_dispatch.c ****     );
 166:E:/LiteOS/LiteOS_Lab/iot_link/os/os_imp/liteos/arch/arm/arm-m/armv7-m/gcc\los_dispatch.c **** }
  68              		.loc 1 166 0
  69              		.thumb
  70              		.syntax unified
  71 0056 00BF     		nop
  72              		.cfi_endproc
  73              	.LFE133:
  75              		.section	.text.LOS_IntLock,"ax",%progbits
  76              		.align	1
  77              		.global	LOS_IntLock
  78              		.syntax unified
  79              		.thumb
  80              		.thumb_func
  81              		.fpu fpv4-sp-d16
  83              	LOS_IntLock:
  84              	.LFB134:
 167:E:/LiteOS/LiteOS_Lab/iot_link/os/os_imp/liteos/arch/arm/arm-m/armv7-m/gcc\los_dispatch.c **** 
 168:E:/LiteOS/LiteOS_Lab/iot_link/os/os_imp/liteos/arch/arm/arm-m/armv7-m/gcc\los_dispatch.c **** /****************************************************************************************
 169:E:/LiteOS/LiteOS_Lab/iot_link/os/os_imp/liteos/arch/arm/arm-m/armv7-m/gcc\los_dispatch.c **** * Function:
 170:E:/LiteOS/LiteOS_Lab/iot_link/os/os_imp/liteos/arch/arm/arm-m/armv7-m/gcc\los_dispatch.c **** *        UINTPTR LOS_IntLock(VOID);
 171:E:/LiteOS/LiteOS_Lab/iot_link/os/os_imp/liteos/arch/arm/arm-m/armv7-m/gcc\los_dispatch.c **** * Description:
 172:E:/LiteOS/LiteOS_Lab/iot_link/os/os_imp/liteos/arch/arm/arm-m/armv7-m/gcc\los_dispatch.c **** *        Disable all interrupts except Reset,NMI and HardFault.
 173:E:/LiteOS/LiteOS_Lab/iot_link/os/os_imp/liteos/arch/arm/arm-m/armv7-m/gcc\los_dispatch.c **** *        The value of currnet interruption state will be returned to the caller to save.
 174:E:/LiteOS/LiteOS_Lab/iot_link/os/os_imp/liteos/arch/arm/arm-m/armv7-m/gcc\los_dispatch.c **** *
 175:E:/LiteOS/LiteOS_Lab/iot_link/os/os_imp/liteos/arch/arm/arm-m/armv7-m/gcc\los_dispatch.c **** * Function:
 176:E:/LiteOS/LiteOS_Lab/iot_link/os/os_imp/liteos/arch/arm/arm-m/armv7-m/gcc\los_dispatch.c **** *        VOID LOS_IntRestore(UINTPTR uvIntSave);
 177:E:/LiteOS/LiteOS_Lab/iot_link/os/os_imp/liteos/arch/arm/arm-m/armv7-m/gcc\los_dispatch.c **** * Description:
 178:E:/LiteOS/LiteOS_Lab/iot_link/os/os_imp/liteos/arch/arm/arm-m/armv7-m/gcc\los_dispatch.c **** *        Restore the locked interruption of LOS_IntLock.
 179:E:/LiteOS/LiteOS_Lab/iot_link/os/os_imp/liteos/arch/arm/arm-m/armv7-m/gcc\los_dispatch.c **** *        The caller must pass in the value of interruption state previously saved.
 180:E:/LiteOS/LiteOS_Lab/iot_link/os/os_imp/liteos/arch/arm/arm-m/armv7-m/gcc\los_dispatch.c **** ****************************************************************************************/
 181:E:/LiteOS/LiteOS_Lab/iot_link/os/os_imp/liteos/arch/arm/arm-m/armv7-m/gcc\los_dispatch.c **** __attribute__((naked)) UINTPTR LOS_IntLock(void)
 182:E:/LiteOS/LiteOS_Lab/iot_link/os/os_imp/liteos/arch/arm/arm-m/armv7-m/gcc\los_dispatch.c **** {
  85              		.loc 1 182 0
  86              		.cfi_startproc
  87              		@ Naked Function: prologue and epilogue provided by programmer.
  88              		@ args = 0, pretend = 0, frame = 0
  89              		@ frame_needed = 1, uses_anonymous_args = 0
 183:E:/LiteOS/LiteOS_Lab/iot_link/os/os_imp/liteos/arch/arm/arm-m/armv7-m/gcc\los_dispatch.c ****     asm (
  90              		.loc 1 183 0
  91              		.syntax unified
  92              	@ 183 "E:/LiteOS/LiteOS_Lab/iot_link/os/os_imp/liteos/arch/arm/arm-m/armv7-m/gcc/los_dispatch.c" 1
  93              		.syntax unified
  94 0000 EFF31080 		MRS    R0, PRIMASK
  95 0004 72B6     		CPSID  I
  96 0006 7047     		BX     LR
  97              		
  98              	@ 0 "" 2
 184:E:/LiteOS/LiteOS_Lab/iot_link/os/os_imp/liteos/arch/arm/arm-m/armv7-m/gcc\los_dispatch.c ****     ".syntax unified\n\t"
 185:E:/LiteOS/LiteOS_Lab/iot_link/os/os_imp/liteos/arch/arm/arm-m/armv7-m/gcc\los_dispatch.c **** 
 186:E:/LiteOS/LiteOS_Lab/iot_link/os/os_imp/liteos/arch/arm/arm-m/armv7-m/gcc\los_dispatch.c ****     "MRS    R0, PRIMASK\n\t"
 187:E:/LiteOS/LiteOS_Lab/iot_link/os/os_imp/liteos/arch/arm/arm-m/armv7-m/gcc\los_dispatch.c ****     "CPSID  I\n\t"
 188:E:/LiteOS/LiteOS_Lab/iot_link/os/os_imp/liteos/arch/arm/arm-m/armv7-m/gcc\los_dispatch.c ****     "BX     LR\n\t"
 189:E:/LiteOS/LiteOS_Lab/iot_link/os/os_imp/liteos/arch/arm/arm-m/armv7-m/gcc\los_dispatch.c ****     );
 190:E:/LiteOS/LiteOS_Lab/iot_link/os/os_imp/liteos/arch/arm/arm-m/armv7-m/gcc\los_dispatch.c **** }
ARM GAS  C:\Users\user\AppData\Local\Temp\ccw9xwtY.s 			page 6


  99              		.loc 1 190 0
 100              		.thumb
 101              		.syntax unified
 102 0008 00BF     		nop
 103 000a 1846     		mov	r0, r3
 104              		.cfi_endproc
 105              	.LFE134:
 107              		.section	.text.LOS_IntUnLock,"ax",%progbits
 108              		.align	1
 109              		.global	LOS_IntUnLock
 110              		.syntax unified
 111              		.thumb
 112              		.thumb_func
 113              		.fpu fpv4-sp-d16
 115              	LOS_IntUnLock:
 116              	.LFB135:
 191:E:/LiteOS/LiteOS_Lab/iot_link/os/os_imp/liteos/arch/arm/arm-m/armv7-m/gcc\los_dispatch.c **** 
 192:E:/LiteOS/LiteOS_Lab/iot_link/os/os_imp/liteos/arch/arm/arm-m/armv7-m/gcc\los_dispatch.c **** __attribute__((naked)) UINTPTR LOS_IntUnLock(void)
 193:E:/LiteOS/LiteOS_Lab/iot_link/os/os_imp/liteos/arch/arm/arm-m/armv7-m/gcc\los_dispatch.c **** {
 117              		.loc 1 193 0
 118              		.cfi_startproc
 119              		@ Naked Function: prologue and epilogue provided by programmer.
 120              		@ args = 0, pretend = 0, frame = 0
 121              		@ frame_needed = 1, uses_anonymous_args = 0
 194:E:/LiteOS/LiteOS_Lab/iot_link/os/os_imp/liteos/arch/arm/arm-m/armv7-m/gcc\los_dispatch.c ****     asm (
 122              		.loc 1 194 0
 123              		.syntax unified
 124              	@ 194 "E:/LiteOS/LiteOS_Lab/iot_link/os/os_imp/liteos/arch/arm/arm-m/armv7-m/gcc/los_dispatch.c" 1
 125              		.syntax unified
 126 0000 EFF31080 		MRS    R0, PRIMASK
 127 0004 62B6     		CPSIE  I
 128 0006 7047     		BX     LR
 129              		
 130              	@ 0 "" 2
 195:E:/LiteOS/LiteOS_Lab/iot_link/os/os_imp/liteos/arch/arm/arm-m/armv7-m/gcc\los_dispatch.c ****     ".syntax unified\n\t"
 196:E:/LiteOS/LiteOS_Lab/iot_link/os/os_imp/liteos/arch/arm/arm-m/armv7-m/gcc\los_dispatch.c **** 
 197:E:/LiteOS/LiteOS_Lab/iot_link/os/os_imp/liteos/arch/arm/arm-m/armv7-m/gcc\los_dispatch.c ****     "MRS    R0, PRIMASK\n\t"
 198:E:/LiteOS/LiteOS_Lab/iot_link/os/os_imp/liteos/arch/arm/arm-m/armv7-m/gcc\los_dispatch.c ****     "CPSIE  I\n\t"
 199:E:/LiteOS/LiteOS_Lab/iot_link/os/os_imp/liteos/arch/arm/arm-m/armv7-m/gcc\los_dispatch.c ****     "BX     LR\n\t"
 200:E:/LiteOS/LiteOS_Lab/iot_link/os/os_imp/liteos/arch/arm/arm-m/armv7-m/gcc\los_dispatch.c ****     );
 201:E:/LiteOS/LiteOS_Lab/iot_link/os/os_imp/liteos/arch/arm/arm-m/armv7-m/gcc\los_dispatch.c **** }
 131              		.loc 1 201 0
 132              		.thumb
 133              		.syntax unified
 134 0008 00BF     		nop
 135 000a 1846     		mov	r0, r3
 136              		.cfi_endproc
 137              	.LFE135:
 139              		.section	.text.LOS_IntRestore,"ax",%progbits
 140              		.align	1
 141              		.global	LOS_IntRestore
 142              		.syntax unified
 143              		.thumb
 144              		.thumb_func
 145              		.fpu fpv4-sp-d16
 147              	LOS_IntRestore:
 148              	.LFB136:
ARM GAS  C:\Users\user\AppData\Local\Temp\ccw9xwtY.s 			page 7


 202:E:/LiteOS/LiteOS_Lab/iot_link/os/os_imp/liteos/arch/arm/arm-m/armv7-m/gcc\los_dispatch.c **** 
 203:E:/LiteOS/LiteOS_Lab/iot_link/os/os_imp/liteos/arch/arm/arm-m/armv7-m/gcc\los_dispatch.c **** __attribute__((naked)) VOID LOS_IntRestore(UINTPTR key)
 204:E:/LiteOS/LiteOS_Lab/iot_link/os/os_imp/liteos/arch/arm/arm-m/armv7-m/gcc\los_dispatch.c **** {
 149              		.loc 1 204 0
 150              		.cfi_startproc
 151              		@ Naked Function: prologue and epilogue provided by programmer.
 152              		@ args = 0, pretend = 0, frame = 0
 153              		@ frame_needed = 1, uses_anonymous_args = 0
 205:E:/LiteOS/LiteOS_Lab/iot_link/os/os_imp/liteos/arch/arm/arm-m/armv7-m/gcc\los_dispatch.c ****     asm (
 154              		.loc 1 205 0
 155              		.syntax unified
 156              	@ 205 "E:/LiteOS/LiteOS_Lab/iot_link/os/os_imp/liteos/arch/arm/arm-m/armv7-m/gcc/los_dispatch.c" 1
 157              		.syntax unified
 158 0000 80F31088 		MSR    PRIMASK, R0
 159 0004 7047     		BX     LR
 160              		
 161              	@ 0 "" 2
 206:E:/LiteOS/LiteOS_Lab/iot_link/os/os_imp/liteos/arch/arm/arm-m/armv7-m/gcc\los_dispatch.c ****     ".syntax unified\n\t"
 207:E:/LiteOS/LiteOS_Lab/iot_link/os/os_imp/liteos/arch/arm/arm-m/armv7-m/gcc\los_dispatch.c **** 
 208:E:/LiteOS/LiteOS_Lab/iot_link/os/os_imp/liteos/arch/arm/arm-m/armv7-m/gcc\los_dispatch.c ****     "MSR    PRIMASK, R0\n\t"
 209:E:/LiteOS/LiteOS_Lab/iot_link/os/os_imp/liteos/arch/arm/arm-m/armv7-m/gcc\los_dispatch.c ****     "BX     LR\n\t"
 210:E:/LiteOS/LiteOS_Lab/iot_link/os/os_imp/liteos/arch/arm/arm-m/armv7-m/gcc\los_dispatch.c ****     );
 211:E:/LiteOS/LiteOS_Lab/iot_link/os/os_imp/liteos/arch/arm/arm-m/armv7-m/gcc\los_dispatch.c **** }
 162              		.loc 1 211 0
 163              		.thumb
 164              		.syntax unified
 165 0006 00BF     		nop
 166              		.cfi_endproc
 167              	.LFE136:
 169              		.section	.text.osTaskSchedule,"ax",%progbits
 170              		.align	1
 171              		.global	osTaskSchedule
 172              		.syntax unified
 173              		.thumb
 174              		.thumb_func
 175              		.fpu fpv4-sp-d16
 177              	osTaskSchedule:
 178              	.LFB137:
 212:E:/LiteOS/LiteOS_Lab/iot_link/os/os_imp/liteos/arch/arm/arm-m/armv7-m/gcc\los_dispatch.c **** 
 213:E:/LiteOS/LiteOS_Lab/iot_link/os/os_imp/liteos/arch/arm/arm-m/armv7-m/gcc\los_dispatch.c **** /****************************************************************************************
 214:E:/LiteOS/LiteOS_Lab/iot_link/os/os_imp/liteos/arch/arm/arm-m/armv7-m/gcc\los_dispatch.c **** * Function:
 215:E:/LiteOS/LiteOS_Lab/iot_link/os/os_imp/liteos/arch/arm/arm-m/armv7-m/gcc\los_dispatch.c **** *        VOID osTaskSchedule(VOID);
 216:E:/LiteOS/LiteOS_Lab/iot_link/os/os_imp/liteos/arch/arm/arm-m/armv7-m/gcc\los_dispatch.c **** * Description:
 217:E:/LiteOS/LiteOS_Lab/iot_link/os/os_imp/liteos/arch/arm/arm-m/armv7-m/gcc\los_dispatch.c **** *        Start the task swtich process by software trigger PendSV interrupt.
 218:E:/LiteOS/LiteOS_Lab/iot_link/os/os_imp/liteos/arch/arm/arm-m/armv7-m/gcc\los_dispatch.c **** ****************************************************************************************/
 219:E:/LiteOS/LiteOS_Lab/iot_link/os/os_imp/liteos/arch/arm/arm-m/armv7-m/gcc\los_dispatch.c **** __attribute__((naked)) VOID osTaskSchedule(VOID)
 220:E:/LiteOS/LiteOS_Lab/iot_link/os/os_imp/liteos/arch/arm/arm-m/armv7-m/gcc\los_dispatch.c **** {
 179              		.loc 1 220 0
 180              		.cfi_startproc
 181              		@ Naked Function: prologue and epilogue provided by programmer.
 182              		@ args = 0, pretend = 0, frame = 0
 183              		@ frame_needed = 1, uses_anonymous_args = 0
 221:E:/LiteOS/LiteOS_Lab/iot_link/os/os_imp/liteos/arch/arm/arm-m/armv7-m/gcc\los_dispatch.c ****     asm (
 184              		.loc 1 221 0
 185              		.syntax unified
 186              	@ 221 "E:/LiteOS/LiteOS_Lab/iot_link/os/os_imp/liteos/arch/arm/arm-m/armv7-m/gcc/los_dispatch.c" 1
 187              		.syntax unified
ARM GAS  C:\Users\user\AppData\Local\Temp\ccw9xwtY.s 			page 8


 188 0000 0248     		LDR    R0, =#-536810236                 @ NVIC_INT_CTRL
 189 0002 4FF08051 		LDR    R1, =#268435456                 @ NVIC_PENDSVSET
 190 0006 0160     		STR    R1, [R0]
 191 0008 7047     		BX     LR
 192              		
 193              	@ 0 "" 2
 222:E:/LiteOS/LiteOS_Lab/iot_link/os/os_imp/liteos/arch/arm/arm-m/armv7-m/gcc\los_dispatch.c ****     ".syntax unified\n\t"
 223:E:/LiteOS/LiteOS_Lab/iot_link/os/os_imp/liteos/arch/arm/arm-m/armv7-m/gcc\los_dispatch.c **** 
 224:E:/LiteOS/LiteOS_Lab/iot_link/os/os_imp/liteos/arch/arm/arm-m/armv7-m/gcc\los_dispatch.c ****     "LDR    R0, =%0                 @ NVIC_INT_CTRL\n\t"
 225:E:/LiteOS/LiteOS_Lab/iot_link/os/os_imp/liteos/arch/arm/arm-m/armv7-m/gcc\los_dispatch.c ****     "LDR    R1, =%1                 @ NVIC_PENDSVSET\n\t"
 226:E:/LiteOS/LiteOS_Lab/iot_link/os/os_imp/liteos/arch/arm/arm-m/armv7-m/gcc\los_dispatch.c ****     "STR    R1, [R0]\n\t"
 227:E:/LiteOS/LiteOS_Lab/iot_link/os/os_imp/liteos/arch/arm/arm-m/armv7-m/gcc\los_dispatch.c ****     "BX     LR\n\t"
 228:E:/LiteOS/LiteOS_Lab/iot_link/os/os_imp/liteos/arch/arm/arm-m/armv7-m/gcc\los_dispatch.c ****     :
 229:E:/LiteOS/LiteOS_Lab/iot_link/os/os_imp/liteos/arch/arm/arm-m/armv7-m/gcc\los_dispatch.c ****     : "X" (NVIC_INT_CTRL), "X" (NVIC_PENDSVSET)
 230:E:/LiteOS/LiteOS_Lab/iot_link/os/os_imp/liteos/arch/arm/arm-m/armv7-m/gcc\los_dispatch.c ****     );
 231:E:/LiteOS/LiteOS_Lab/iot_link/os/os_imp/liteos/arch/arm/arm-m/armv7-m/gcc\los_dispatch.c **** }
 194              		.loc 1 231 0
 195              		.thumb
 196              		.syntax unified
 197 000a 00BF     		nop
 198              		.cfi_endproc
 199              	.LFE137:
 201              		.section	.text.PendSV_Handler,"ax",%progbits
 202              		.align	1
 203              		.global	PendSV_Handler
 204              		.syntax unified
 205              		.thumb
 206              		.thumb_func
 207              		.fpu fpv4-sp-d16
 209              	PendSV_Handler:
 210              	.LFB138:
 232:E:/LiteOS/LiteOS_Lab/iot_link/os/os_imp/liteos/arch/arm/arm-m/armv7-m/gcc\los_dispatch.c **** 
 233:E:/LiteOS/LiteOS_Lab/iot_link/os/os_imp/liteos/arch/arm/arm-m/armv7-m/gcc\los_dispatch.c **** /****************************************************************************************
 234:E:/LiteOS/LiteOS_Lab/iot_link/os/os_imp/liteos/arch/arm/arm-m/armv7-m/gcc\los_dispatch.c **** * Function:
 235:E:/LiteOS/LiteOS_Lab/iot_link/os/os_imp/liteos/arch/arm/arm-m/armv7-m/gcc\los_dispatch.c **** *        VOID PendSV_Handler(VOID);
 236:E:/LiteOS/LiteOS_Lab/iot_link/os/os_imp/liteos/arch/arm/arm-m/armv7-m/gcc\los_dispatch.c **** * Description:
 237:E:/LiteOS/LiteOS_Lab/iot_link/os/os_imp/liteos/arch/arm/arm-m/armv7-m/gcc\los_dispatch.c **** *        PendSV interrupt handler, switch the context of the task.
 238:E:/LiteOS/LiteOS_Lab/iot_link/os/os_imp/liteos/arch/arm/arm-m/armv7-m/gcc\los_dispatch.c **** *        First: Save the context of the current running task(g_stLosTask.pstRunTask)
 239:E:/LiteOS/LiteOS_Lab/iot_link/os/os_imp/liteos/arch/arm/arm-m/armv7-m/gcc\los_dispatch.c **** *               to its own stack.
 240:E:/LiteOS/LiteOS_Lab/iot_link/os/os_imp/liteos/arch/arm/arm-m/armv7-m/gcc\los_dispatch.c **** *        Second: Restore the context of the next running task(g_stLosTask.pstNewTask)
 241:E:/LiteOS/LiteOS_Lab/iot_link/os/os_imp/liteos/arch/arm/arm-m/armv7-m/gcc\los_dispatch.c **** *                from its own stack.
 242:E:/LiteOS/LiteOS_Lab/iot_link/os/os_imp/liteos/arch/arm/arm-m/armv7-m/gcc\los_dispatch.c **** ****************************************************************************************/
 243:E:/LiteOS/LiteOS_Lab/iot_link/os/os_imp/liteos/arch/arm/arm-m/armv7-m/gcc\los_dispatch.c **** __attribute__((naked)) VOID PendSV_Handler(VOID)
 244:E:/LiteOS/LiteOS_Lab/iot_link/os/os_imp/liteos/arch/arm/arm-m/armv7-m/gcc\los_dispatch.c **** {
 211              		.loc 1 244 0
 212              		.cfi_startproc
 213              		@ Naked Function: prologue and epilogue provided by programmer.
 214              		@ args = 0, pretend = 0, frame = 0
 215              		@ frame_needed = 1, uses_anonymous_args = 0
 245:E:/LiteOS/LiteOS_Lab/iot_link/os/os_imp/liteos/arch/arm/arm-m/armv7-m/gcc\los_dispatch.c ****     asm (
 216              		.loc 1 245 0
 217              		.syntax unified
 218              	@ 245 "E:/LiteOS/LiteOS_Lab/iot_link/os/os_imp/liteos/arch/arm/arm-m/armv7-m/gcc/los_dispatch.c" 1
 219              		.syntax unified
 220 0000 EFF3108C 		MRS    R12, PRIMASK
 221 0004 72B6     		CPSID  I
 222 0006 194A     		LDR    R2, =g_pfnTskSwitchHook
ARM GAS  C:\Users\user\AppData\Local\Temp\ccw9xwtY.s 			page 9


 223 0008 1268     		LDR    R2, [R2]
 224 000a 22B1     		CBZ    R2, 0f
 225 000c 2DE90050 		PUSH   {R12, LR}
 226 0010 9047     		BLX    R2
 227 0012 BDE80050 		POP    {R12, LR}
 228              		0:
 229 0016 EFF30980 		MRS    R0, PSP
 230 001a 1EF0100F 		TST    R14, #0x10              @ if the task using the FPU context
 231 001e 01D1     		BNE    0f
 232 0020 20ED108B 		VSTMDB R0!, {D8-D15}
 233              		0:
 234 0024 40F804ED 		STMFD  R0!, {R14}              @ save EXC_RETURN
 235 0028 20E9F01F 		STMFD  R0!, {R4-R12}           @ save the core registers and PRIMASK.
 236 002c 104D     		LDR    R5, =g_stLosTask
 237 002e 4FF01008 		MOV    R8, #16                 @ OS_TASK_STATUS_RUNNING
 238 0032 2E68     		LDR    R6, [R5]
 239 0034 3060     		STR    R0, [R6]
 240 0036 B788     		LDRH   R7, [R6, #4]
 241 0038 27EA0807 		BIC    R7, R7, R8
 242 003c B780     		STRH   R7, [R6, #4]
 243 003e 6868     		LDR    R0, [R5, #4]
 244 0040 2860     		STR    R0, [R5]
 245 0042 8788     		LDRH   R7, [R0, #4]
 246 0044 47EA0807 		ORR    R7, R7, R8
 247 0048 8780     		STRH   R7, [R0, #4]
 248 004a 0168     		LDR    R1, [R0]
 249 004c B1E8F01F 		LDMFD  R1!, {R4-R12}           @ restore the core registers and PRIMASK
 250 0050 51F804EB 		LDMFD  R1!, {R14}              @ restore EXC_RETURN
 251 0054 1EF0100F 		TST    R14, #0x10              @ if the task using the FPU context
 252 0058 01D1     		BNE    0f
 253 005a B1EC108B 		VLDMIA R1!, {D8-D15}
 254              		0:
 255 005e 81F30988 		MSR    PSP, R1
 256 0062 8CF31088 		MSR    PRIMASK, R12
 257 0066 7047     		BX     LR
 258              		
 259              	@ 0 "" 2
 246:E:/LiteOS/LiteOS_Lab/iot_link/os/os_imp/liteos/arch/arm/arm-m/armv7-m/gcc\los_dispatch.c ****     ".syntax unified\n\t"
 247:E:/LiteOS/LiteOS_Lab/iot_link/os/os_imp/liteos/arch/arm/arm-m/armv7-m/gcc\los_dispatch.c **** 
 248:E:/LiteOS/LiteOS_Lab/iot_link/os/os_imp/liteos/arch/arm/arm-m/armv7-m/gcc\los_dispatch.c ****     /**
 249:E:/LiteOS/LiteOS_Lab/iot_link/os/os_imp/liteos/arch/arm/arm-m/armv7-m/gcc\los_dispatch.c ****      * R12: Save the interruption state of the current running task.
 250:E:/LiteOS/LiteOS_Lab/iot_link/os/os_imp/liteos/arch/arm/arm-m/armv7-m/gcc\los_dispatch.c ****      * Disable all interrupts except Reset,NMI and HardFault
 251:E:/LiteOS/LiteOS_Lab/iot_link/os/os_imp/liteos/arch/arm/arm-m/armv7-m/gcc\los_dispatch.c ****      */
 252:E:/LiteOS/LiteOS_Lab/iot_link/os/os_imp/liteos/arch/arm/arm-m/armv7-m/gcc\los_dispatch.c ****     "MRS    R12, PRIMASK\n\t"
 253:E:/LiteOS/LiteOS_Lab/iot_link/os/os_imp/liteos/arch/arm/arm-m/armv7-m/gcc\los_dispatch.c ****     "CPSID  I\n\t"
 254:E:/LiteOS/LiteOS_Lab/iot_link/os/os_imp/liteos/arch/arm/arm-m/armv7-m/gcc\los_dispatch.c **** 
 255:E:/LiteOS/LiteOS_Lab/iot_link/os/os_imp/liteos/arch/arm/arm-m/armv7-m/gcc\los_dispatch.c ****     /**
 256:E:/LiteOS/LiteOS_Lab/iot_link/os/os_imp/liteos/arch/arm/arm-m/armv7-m/gcc\los_dispatch.c ****      * Call task switch hook.
 257:E:/LiteOS/LiteOS_Lab/iot_link/os/os_imp/liteos/arch/arm/arm-m/armv7-m/gcc\los_dispatch.c ****      */
 258:E:/LiteOS/LiteOS_Lab/iot_link/os/os_imp/liteos/arch/arm/arm-m/armv7-m/gcc\los_dispatch.c ****     "LDR    R2, =g_pfnTskSwitchHook\n\t"
 259:E:/LiteOS/LiteOS_Lab/iot_link/os/os_imp/liteos/arch/arm/arm-m/armv7-m/gcc\los_dispatch.c ****     "LDR    R2, [R2]\n\t"
 260:E:/LiteOS/LiteOS_Lab/iot_link/os/os_imp/liteos/arch/arm/arm-m/armv7-m/gcc\los_dispatch.c ****     "CBZ    R2, 0f\n\t"
 261:E:/LiteOS/LiteOS_Lab/iot_link/os/os_imp/liteos/arch/arm/arm-m/armv7-m/gcc\los_dispatch.c ****     "PUSH   {R12, LR}\n\t"
 262:E:/LiteOS/LiteOS_Lab/iot_link/os/os_imp/liteos/arch/arm/arm-m/armv7-m/gcc\los_dispatch.c ****     "BLX    R2\n\t"
 263:E:/LiteOS/LiteOS_Lab/iot_link/os/os_imp/liteos/arch/arm/arm-m/armv7-m/gcc\los_dispatch.c ****     "POP    {R12, LR}\n\t"
 264:E:/LiteOS/LiteOS_Lab/iot_link/os/os_imp/liteos/arch/arm/arm-m/armv7-m/gcc\los_dispatch.c **** 
 265:E:/LiteOS/LiteOS_Lab/iot_link/os/os_imp/liteos/arch/arm/arm-m/armv7-m/gcc\los_dispatch.c ****     "0:\n\t"
ARM GAS  C:\Users\user\AppData\Local\Temp\ccw9xwtY.s 			page 10


 266:E:/LiteOS/LiteOS_Lab/iot_link/os/os_imp/liteos/arch/arm/arm-m/armv7-m/gcc\los_dispatch.c **** 
 267:E:/LiteOS/LiteOS_Lab/iot_link/os/os_imp/liteos/arch/arm/arm-m/armv7-m/gcc\los_dispatch.c ****     /**
 268:E:/LiteOS/LiteOS_Lab/iot_link/os/os_imp/liteos/arch/arm/arm-m/armv7-m/gcc\los_dispatch.c ****      * R0 = now stack pointer of the current running task.
 269:E:/LiteOS/LiteOS_Lab/iot_link/os/os_imp/liteos/arch/arm/arm-m/armv7-m/gcc\los_dispatch.c ****      */
 270:E:/LiteOS/LiteOS_Lab/iot_link/os/os_imp/liteos/arch/arm/arm-m/armv7-m/gcc\los_dispatch.c ****     "MRS    R0, PSP\n\t"
 271:E:/LiteOS/LiteOS_Lab/iot_link/os/os_imp/liteos/arch/arm/arm-m/armv7-m/gcc\los_dispatch.c **** 
 272:E:/LiteOS/LiteOS_Lab/iot_link/os/os_imp/liteos/arch/arm/arm-m/armv7-m/gcc\los_dispatch.c ****     /**
 273:E:/LiteOS/LiteOS_Lab/iot_link/os/os_imp/liteos/arch/arm/arm-m/armv7-m/gcc\los_dispatch.c ****      * Save the stack frame([S16-S31,]R4-R11) of the current running task.
 274:E:/LiteOS/LiteOS_Lab/iot_link/os/os_imp/liteos/arch/arm/arm-m/armv7-m/gcc\los_dispatch.c ****      * R12 save the PRIMASK value of the current running task.
 275:E:/LiteOS/LiteOS_Lab/iot_link/os/os_imp/liteos/arch/arm/arm-m/armv7-m/gcc\los_dispatch.c ****      * NOTE: 1. Before entering the exception handler function, these registers
 276:E:/LiteOS/LiteOS_Lab/iot_link/os/os_imp/liteos/arch/arm/arm-m/armv7-m/gcc\los_dispatch.c ****      *       ([NO_NAME,FPSCR,S15-S0],xPSR,PC,LR,R12,R3-R0) have been automatically
 277:E:/LiteOS/LiteOS_Lab/iot_link/os/os_imp/liteos/arch/arm/arm-m/armv7-m/gcc\los_dispatch.c ****      *       saved by the CPU in the stack of the current running task.
 278:E:/LiteOS/LiteOS_Lab/iot_link/os/os_imp/liteos/arch/arm/arm-m/armv7-m/gcc\los_dispatch.c ****      *       2. If lazy stacking is enabled, space is reserved on the stack for
 279:E:/LiteOS/LiteOS_Lab/iot_link/os/os_imp/liteos/arch/arm/arm-m/armv7-m/gcc\los_dispatch.c ****      *       the floating-point context(FPSCR,S15-S0), but the floating-point state
 280:E:/LiteOS/LiteOS_Lab/iot_link/os/os_imp/liteos/arch/arm/arm-m/armv7-m/gcc\los_dispatch.c ****      *       is not saved. when the floating-point instruction(VSTMDBEQ  R0!, {D8-D15})
 281:E:/LiteOS/LiteOS_Lab/iot_link/os/os_imp/liteos/arch/arm/arm-m/armv7-m/gcc\los_dispatch.c ****      *       is executed, the floating-point context(FPSCR,S15-S0) is first saved into
 282:E:/LiteOS/LiteOS_Lab/iot_link/os/os_imp/liteos/arch/arm/arm-m/armv7-m/gcc\los_dispatch.c ****      *       the space reserved on the stack. In other words, the instruction
 283:E:/LiteOS/LiteOS_Lab/iot_link/os/os_imp/liteos/arch/arm/arm-m/armv7-m/gcc\los_dispatch.c ****      *       'VSTMDBEQ  R0!, {D8-D15}' will trigger the CPU to save 'FPSCR,S15-S0' first.
 284:E:/LiteOS/LiteOS_Lab/iot_link/os/os_imp/liteos/arch/arm/arm-m/armv7-m/gcc\los_dispatch.c ****      *
 285:E:/LiteOS/LiteOS_Lab/iot_link/os/os_imp/liteos/arch/arm/arm-m/armv7-m/gcc\los_dispatch.c ****      * The stack of the current running task is as follows:
 286:E:/LiteOS/LiteOS_Lab/iot_link/os/os_imp/liteos/arch/arm/arm-m/armv7-m/gcc\los_dispatch.c ****      *
 287:E:/LiteOS/LiteOS_Lab/iot_link/os/os_imp/liteos/arch/arm/arm-m/armv7-m/gcc\los_dispatch.c ****      *   |<=== PUSH: Save the context of the current running task
 288:E:/LiteOS/LiteOS_Lab/iot_link/os/os_imp/liteos/arch/arm/arm-m/armv7-m/gcc\los_dispatch.c ****      *   |                                                                        High addr--->|
 289:E:/LiteOS/LiteOS_Lab/iot_link/os/os_imp/liteos/arch/arm/arm-m/armv7-m/gcc\los_dispatch.c ****      * --+---------------------------------------+---------------------------------------------+---
 290:E:/LiteOS/LiteOS_Lab/iot_link/os/os_imp/liteos/arch/arm/arm-m/armv7-m/gcc\los_dispatch.c ****      *   | R4-R11,PRIMASK[,EXC_RETURN[,S16-S31]] | R0-R3,R12,LR,PC,xPSR[,S0-S15,FPSCR,NO_NAME] |
 291:E:/LiteOS/LiteOS_Lab/iot_link/os/os_imp/liteos/arch/arm/arm-m/armv7-m/gcc\los_dispatch.c ****      *   |                                                             [    lazy stacking    ] |
 292:E:/LiteOS/LiteOS_Lab/iot_link/os/os_imp/liteos/arch/arm/arm-m/armv7-m/gcc\los_dispatch.c ****      * --+---------------------------------------+---------------------------------------------+---
 293:E:/LiteOS/LiteOS_Lab/iot_link/os/os_imp/liteos/arch/arm/arm-m/armv7-m/gcc\los_dispatch.c ****      *                                              Stack pointer before entering exception--->|
 294:E:/LiteOS/LiteOS_Lab/iot_link/os/os_imp/liteos/arch/arm/arm-m/armv7-m/gcc\los_dispatch.c ****      *                                           |<---            cpu auto saved           --->|
 295:E:/LiteOS/LiteOS_Lab/iot_link/os/os_imp/liteos/arch/arm/arm-m/armv7-m/gcc\los_dispatch.c ****      *                                           |<---PSP to R0
 296:E:/LiteOS/LiteOS_Lab/iot_link/os/os_imp/liteos/arch/arm/arm-m/armv7-m/gcc\los_dispatch.c ****      *   |<---Top of the stack, save to g_stLosTask.pstRunTask->pStackPointer
 297:E:/LiteOS/LiteOS_Lab/iot_link/os/os_imp/liteos/arch/arm/arm-m/armv7-m/gcc\los_dispatch.c ****      */
 298:E:/LiteOS/LiteOS_Lab/iot_link/os/os_imp/liteos/arch/arm/arm-m/armv7-m/gcc\los_dispatch.c **** #if defined (__VFP_FP__) && !defined(__SOFTFP__)       /* if FPU exist. */
 299:E:/LiteOS/LiteOS_Lab/iot_link/os/os_imp/liteos/arch/arm/arm-m/armv7-m/gcc\los_dispatch.c ****     "TST    R14, #0x10              @ if the task using the FPU context\n\t"
 300:E:/LiteOS/LiteOS_Lab/iot_link/os/os_imp/liteos/arch/arm/arm-m/armv7-m/gcc\los_dispatch.c ****     "BNE    0f\n\t"
 301:E:/LiteOS/LiteOS_Lab/iot_link/os/os_imp/liteos/arch/arm/arm-m/armv7-m/gcc\los_dispatch.c ****     "VSTMDB R0!, {D8-D15}\n\t"
 302:E:/LiteOS/LiteOS_Lab/iot_link/os/os_imp/liteos/arch/arm/arm-m/armv7-m/gcc\los_dispatch.c ****     "0:\n\t"
 303:E:/LiteOS/LiteOS_Lab/iot_link/os/os_imp/liteos/arch/arm/arm-m/armv7-m/gcc\los_dispatch.c ****     "STMFD  R0!, {R14}              @ save EXC_RETURN\n\t"
 304:E:/LiteOS/LiteOS_Lab/iot_link/os/os_imp/liteos/arch/arm/arm-m/armv7-m/gcc\los_dispatch.c **** #endif
 305:E:/LiteOS/LiteOS_Lab/iot_link/os/os_imp/liteos/arch/arm/arm-m/armv7-m/gcc\los_dispatch.c **** 
 306:E:/LiteOS/LiteOS_Lab/iot_link/os/os_imp/liteos/arch/arm/arm-m/armv7-m/gcc\los_dispatch.c ****     "STMFD  R0!, {R4-R12}           @ save the core registers and PRIMASK.\n\t"
 307:E:/LiteOS/LiteOS_Lab/iot_link/os/os_imp/liteos/arch/arm/arm-m/armv7-m/gcc\los_dispatch.c **** 
 308:E:/LiteOS/LiteOS_Lab/iot_link/os/os_imp/liteos/arch/arm/arm-m/armv7-m/gcc\los_dispatch.c **** #if (LOSCFG_ENABLE_MPU == YES)
 309:E:/LiteOS/LiteOS_Lab/iot_link/os/os_imp/liteos/arch/arm/arm-m/armv7-m/gcc\los_dispatch.c ****     "MRS    R1, CONTROL\n\t"
 310:E:/LiteOS/LiteOS_Lab/iot_link/os/os_imp/liteos/arch/arm/arm-m/armv7-m/gcc\los_dispatch.c ****     "STR    R1, [R0, #-4]!\n\t"
 311:E:/LiteOS/LiteOS_Lab/iot_link/os/os_imp/liteos/arch/arm/arm-m/armv7-m/gcc\los_dispatch.c **** #endif
 312:E:/LiteOS/LiteOS_Lab/iot_link/os/os_imp/liteos/arch/arm/arm-m/armv7-m/gcc\los_dispatch.c **** 
 313:E:/LiteOS/LiteOS_Lab/iot_link/os/os_imp/liteos/arch/arm/arm-m/armv7-m/gcc\los_dispatch.c ****     /**
 314:E:/LiteOS/LiteOS_Lab/iot_link/os/os_imp/liteos/arch/arm/arm-m/armv7-m/gcc\los_dispatch.c ****      * R5,R8.
 315:E:/LiteOS/LiteOS_Lab/iot_link/os/os_imp/liteos/arch/arm/arm-m/armv7-m/gcc\los_dispatch.c ****      */
 316:E:/LiteOS/LiteOS_Lab/iot_link/os/os_imp/liteos/arch/arm/arm-m/armv7-m/gcc\los_dispatch.c ****     "LDR    R5, =g_stLosTask\n\t"
 317:E:/LiteOS/LiteOS_Lab/iot_link/os/os_imp/liteos/arch/arm/arm-m/armv7-m/gcc\los_dispatch.c ****     "MOV    R8, %0                 @ OS_TASK_STATUS_RUNNING\n\t"
 318:E:/LiteOS/LiteOS_Lab/iot_link/os/os_imp/liteos/arch/arm/arm-m/armv7-m/gcc\los_dispatch.c **** 
 319:E:/LiteOS/LiteOS_Lab/iot_link/os/os_imp/liteos/arch/arm/arm-m/armv7-m/gcc\los_dispatch.c ****     /**
 320:E:/LiteOS/LiteOS_Lab/iot_link/os/os_imp/liteos/arch/arm/arm-m/armv7-m/gcc\los_dispatch.c ****      * Save the stack pointer of the current running task to TCB.
 321:E:/LiteOS/LiteOS_Lab/iot_link/os/os_imp/liteos/arch/arm/arm-m/armv7-m/gcc\los_dispatch.c ****      * (g_stLosTask.pstRunTask->pStackPointer = R0)
 322:E:/LiteOS/LiteOS_Lab/iot_link/os/os_imp/liteos/arch/arm/arm-m/armv7-m/gcc\los_dispatch.c ****      */
ARM GAS  C:\Users\user\AppData\Local\Temp\ccw9xwtY.s 			page 11


 323:E:/LiteOS/LiteOS_Lab/iot_link/os/os_imp/liteos/arch/arm/arm-m/armv7-m/gcc\los_dispatch.c ****     "LDR    R6, [R5]\n\t"
 324:E:/LiteOS/LiteOS_Lab/iot_link/os/os_imp/liteos/arch/arm/arm-m/armv7-m/gcc\los_dispatch.c ****     "STR    R0, [R6]\n\t"
 325:E:/LiteOS/LiteOS_Lab/iot_link/os/os_imp/liteos/arch/arm/arm-m/armv7-m/gcc\los_dispatch.c **** 
 326:E:/LiteOS/LiteOS_Lab/iot_link/os/os_imp/liteos/arch/arm/arm-m/armv7-m/gcc\los_dispatch.c ****     /**
 327:E:/LiteOS/LiteOS_Lab/iot_link/os/os_imp/liteos/arch/arm/arm-m/armv7-m/gcc\los_dispatch.c ****      * Clear the RUNNING state of the current running task.
 328:E:/LiteOS/LiteOS_Lab/iot_link/os/os_imp/liteos/arch/arm/arm-m/armv7-m/gcc\los_dispatch.c ****      * (g_stLosTask.pstRunTask->usTaskStatus &= ~OS_TASK_STATUS_RUNNING)
 329:E:/LiteOS/LiteOS_Lab/iot_link/os/os_imp/liteos/arch/arm/arm-m/armv7-m/gcc\los_dispatch.c ****      */
 330:E:/LiteOS/LiteOS_Lab/iot_link/os/os_imp/liteos/arch/arm/arm-m/armv7-m/gcc\los_dispatch.c ****     "LDRH   R7, [R6, #4]\n\t"
 331:E:/LiteOS/LiteOS_Lab/iot_link/os/os_imp/liteos/arch/arm/arm-m/armv7-m/gcc\los_dispatch.c ****     "BIC    R7, R7, R8\n\t"
 332:E:/LiteOS/LiteOS_Lab/iot_link/os/os_imp/liteos/arch/arm/arm-m/armv7-m/gcc\los_dispatch.c ****     "STRH   R7, [R6, #4]\n\t"
 333:E:/LiteOS/LiteOS_Lab/iot_link/os/os_imp/liteos/arch/arm/arm-m/armv7-m/gcc\los_dispatch.c **** 
 334:E:/LiteOS/LiteOS_Lab/iot_link/os/os_imp/liteos/arch/arm/arm-m/armv7-m/gcc\los_dispatch.c ****     /**
 335:E:/LiteOS/LiteOS_Lab/iot_link/os/os_imp/liteos/arch/arm/arm-m/armv7-m/gcc\los_dispatch.c ****      * Switch the current running task to the next running task.
 336:E:/LiteOS/LiteOS_Lab/iot_link/os/os_imp/liteos/arch/arm/arm-m/armv7-m/gcc\los_dispatch.c ****      * (g_stLosTask.pstRunTask = g_stLosTask.pstNewTask)
 337:E:/LiteOS/LiteOS_Lab/iot_link/os/os_imp/liteos/arch/arm/arm-m/armv7-m/gcc\los_dispatch.c ****      */
 338:E:/LiteOS/LiteOS_Lab/iot_link/os/os_imp/liteos/arch/arm/arm-m/armv7-m/gcc\los_dispatch.c ****     "LDR    R0, [R5, #4]\n\t"
 339:E:/LiteOS/LiteOS_Lab/iot_link/os/os_imp/liteos/arch/arm/arm-m/armv7-m/gcc\los_dispatch.c ****     "STR    R0, [R5]\n\t"
 340:E:/LiteOS/LiteOS_Lab/iot_link/os/os_imp/liteos/arch/arm/arm-m/armv7-m/gcc\los_dispatch.c **** 
 341:E:/LiteOS/LiteOS_Lab/iot_link/os/os_imp/liteos/arch/arm/arm-m/armv7-m/gcc\los_dispatch.c ****     /**
 342:E:/LiteOS/LiteOS_Lab/iot_link/os/os_imp/liteos/arch/arm/arm-m/armv7-m/gcc\los_dispatch.c ****      * Set the RUNNING state of the next running task.
 343:E:/LiteOS/LiteOS_Lab/iot_link/os/os_imp/liteos/arch/arm/arm-m/armv7-m/gcc\los_dispatch.c ****      * (g_stLosTask.pstNewTask->usTaskStatus |= OS_TASK_STATUS_RUNNING)
 344:E:/LiteOS/LiteOS_Lab/iot_link/os/os_imp/liteos/arch/arm/arm-m/armv7-m/gcc\los_dispatch.c ****      */
 345:E:/LiteOS/LiteOS_Lab/iot_link/os/os_imp/liteos/arch/arm/arm-m/armv7-m/gcc\los_dispatch.c ****     "LDRH   R7, [R0, #4]\n\t"
 346:E:/LiteOS/LiteOS_Lab/iot_link/os/os_imp/liteos/arch/arm/arm-m/armv7-m/gcc\los_dispatch.c ****     "ORR    R7, R7, R8\n\t"
 347:E:/LiteOS/LiteOS_Lab/iot_link/os/os_imp/liteos/arch/arm/arm-m/armv7-m/gcc\los_dispatch.c ****     "STRH   R7, [R0, #4]\n\t"
 348:E:/LiteOS/LiteOS_Lab/iot_link/os/os_imp/liteos/arch/arm/arm-m/armv7-m/gcc\los_dispatch.c **** 
 349:E:/LiteOS/LiteOS_Lab/iot_link/os/os_imp/liteos/arch/arm/arm-m/armv7-m/gcc\los_dispatch.c ****     /**
 350:E:/LiteOS/LiteOS_Lab/iot_link/os/os_imp/liteos/arch/arm/arm-m/armv7-m/gcc\los_dispatch.c ****      * Restore the stack pointer of the next running task from TCB.
 351:E:/LiteOS/LiteOS_Lab/iot_link/os/os_imp/liteos/arch/arm/arm-m/armv7-m/gcc\los_dispatch.c ****      * (R1 = g_stLosTask.pstNewTask->pStackPointer)
 352:E:/LiteOS/LiteOS_Lab/iot_link/os/os_imp/liteos/arch/arm/arm-m/armv7-m/gcc\los_dispatch.c ****      */
 353:E:/LiteOS/LiteOS_Lab/iot_link/os/os_imp/liteos/arch/arm/arm-m/armv7-m/gcc\los_dispatch.c ****     "LDR    R1, [R0]\n\t"
 354:E:/LiteOS/LiteOS_Lab/iot_link/os/os_imp/liteos/arch/arm/arm-m/armv7-m/gcc\los_dispatch.c **** 
 355:E:/LiteOS/LiteOS_Lab/iot_link/os/os_imp/liteos/arch/arm/arm-m/armv7-m/gcc\los_dispatch.c **** #if (LOSCFG_ENABLE_MPU == YES)
 356:E:/LiteOS/LiteOS_Lab/iot_link/os/os_imp/liteos/arch/arm/arm-m/armv7-m/gcc\los_dispatch.c ****     /**
 357:E:/LiteOS/LiteOS_Lab/iot_link/os/os_imp/liteos/arch/arm/arm-m/armv7-m/gcc\los_dispatch.c ****      * Set the CONTROL register
 358:E:/LiteOS/LiteOS_Lab/iot_link/os/os_imp/liteos/arch/arm/arm-m/armv7-m/gcc\los_dispatch.c ****      */
 359:E:/LiteOS/LiteOS_Lab/iot_link/os/os_imp/liteos/arch/arm/arm-m/armv7-m/gcc\los_dispatch.c **** 
 360:E:/LiteOS/LiteOS_Lab/iot_link/os/os_imp/liteos/arch/arm/arm-m/armv7-m/gcc\los_dispatch.c ****     "LDR    R4, [R0, #8]            @ TCB->pMpuSettings\n\t"
 361:E:/LiteOS/LiteOS_Lab/iot_link/os/os_imp/liteos/arch/arm/arm-m/armv7-m/gcc\los_dispatch.c ****     "LDR    R5, =%1                 @ MPU_RBAR\n\t"
 362:E:/LiteOS/LiteOS_Lab/iot_link/os/os_imp/liteos/arch/arm/arm-m/armv7-m/gcc\los_dispatch.c ****     "LDM    R4!, {R6-R11}\n\t"
 363:E:/LiteOS/LiteOS_Lab/iot_link/os/os_imp/liteos/arch/arm/arm-m/armv7-m/gcc\los_dispatch.c ****     "STM    R5, {R6-R11}\n\t"
 364:E:/LiteOS/LiteOS_Lab/iot_link/os/os_imp/liteos/arch/arm/arm-m/armv7-m/gcc\los_dispatch.c ****     "LDM    R4!, {R6-R11}\n\t"
 365:E:/LiteOS/LiteOS_Lab/iot_link/os/os_imp/liteos/arch/arm/arm-m/armv7-m/gcc\los_dispatch.c ****     "STM    R5, {R6-R11}\n\t"
 366:E:/LiteOS/LiteOS_Lab/iot_link/os/os_imp/liteos/arch/arm/arm-m/armv7-m/gcc\los_dispatch.c ****     "LDR    R4, [R1], #4\n\t"
 367:E:/LiteOS/LiteOS_Lab/iot_link/os/os_imp/liteos/arch/arm/arm-m/armv7-m/gcc\los_dispatch.c ****     "MSR    CONTROL, R4\n\t"
 368:E:/LiteOS/LiteOS_Lab/iot_link/os/os_imp/liteos/arch/arm/arm-m/armv7-m/gcc\los_dispatch.c **** #endif
 369:E:/LiteOS/LiteOS_Lab/iot_link/os/os_imp/liteos/arch/arm/arm-m/armv7-m/gcc\los_dispatch.c **** 
 370:E:/LiteOS/LiteOS_Lab/iot_link/os/os_imp/liteos/arch/arm/arm-m/armv7-m/gcc\los_dispatch.c ****     /**
 371:E:/LiteOS/LiteOS_Lab/iot_link/os/os_imp/liteos/arch/arm/arm-m/armv7-m/gcc\los_dispatch.c ****      * Restore the stack frame(R4-R11[,S16-S31]) of the next running task.
 372:E:/LiteOS/LiteOS_Lab/iot_link/os/os_imp/liteos/arch/arm/arm-m/armv7-m/gcc\los_dispatch.c ****      * R12 restore the PRIMASK value of the next running task.
 373:E:/LiteOS/LiteOS_Lab/iot_link/os/os_imp/liteos/arch/arm/arm-m/armv7-m/gcc\los_dispatch.c ****      * NOTE: After exiting the exception handler function, these registers
 374:E:/LiteOS/LiteOS_Lab/iot_link/os/os_imp/liteos/arch/arm/arm-m/armv7-m/gcc\los_dispatch.c ****      *       (PC,xPSR,R0-R3,R12,LR[,S0-S15,FPSCR,NO_NAME]) will be automatically
 375:E:/LiteOS/LiteOS_Lab/iot_link/os/os_imp/liteos/arch/arm/arm-m/armv7-m/gcc\los_dispatch.c ****      *       restored by the CPU from the stack of the next running task.
 376:E:/LiteOS/LiteOS_Lab/iot_link/os/os_imp/liteos/arch/arm/arm-m/armv7-m/gcc\los_dispatch.c ****      *
 377:E:/LiteOS/LiteOS_Lab/iot_link/os/os_imp/liteos/arch/arm/arm-m/armv7-m/gcc\los_dispatch.c ****      * 1. The stack of the next running task is as follows:
 378:E:/LiteOS/LiteOS_Lab/iot_link/os/os_imp/liteos/arch/arm/arm-m/armv7-m/gcc\los_dispatch.c ****      *
 379:E:/LiteOS/LiteOS_Lab/iot_link/os/os_imp/liteos/arch/arm/arm-m/armv7-m/gcc\los_dispatch.c ****      *                                   POP: Restore the context of the next running task ===>|
ARM GAS  C:\Users\user\AppData\Local\Temp\ccw9xwtY.s 			page 12


 380:E:/LiteOS/LiteOS_Lab/iot_link/os/os_imp/liteos/arch/arm/arm-m/armv7-m/gcc\los_dispatch.c ****      *                                                                            High addr--->|
 381:E:/LiteOS/LiteOS_Lab/iot_link/os/os_imp/liteos/arch/arm/arm-m/armv7-m/gcc\los_dispatch.c ****      * --+---------------------------------------+---------------------------------------------+---
 382:E:/LiteOS/LiteOS_Lab/iot_link/os/os_imp/liteos/arch/arm/arm-m/armv7-m/gcc\los_dispatch.c ****      *   | R4-R11,PRIMASK[,EXC_RETURN[,S16-S31]] | R0-R3,R12,LR,PC,xPSR[,S0-S15,FPSCR,NO_NAME] |
 383:E:/LiteOS/LiteOS_Lab/iot_link/os/os_imp/liteos/arch/arm/arm-m/armv7-m/gcc\los_dispatch.c ****      * --+---------------------------------------+---------------------------------------------+---
 384:E:/LiteOS/LiteOS_Lab/iot_link/os/os_imp/liteos/arch/arm/arm-m/armv7-m/gcc\los_dispatch.c ****      *   |<---Top of the stack, restored from g_stLosTask.pstNewTask->pStackPointer
 385:E:/LiteOS/LiteOS_Lab/iot_link/os/os_imp/liteos/arch/arm/arm-m/armv7-m/gcc\los_dispatch.c ****      *                              R1 to PSP--->|
 386:E:/LiteOS/LiteOS_Lab/iot_link/os/os_imp/liteos/arch/arm/arm-m/armv7-m/gcc\los_dispatch.c ****      *                                           |<---         cpu auto restoring          --->|
 387:E:/LiteOS/LiteOS_Lab/iot_link/os/os_imp/liteos/arch/arm/arm-m/armv7-m/gcc\los_dispatch.c ****      *                                                Stack pointer after exiting exception--->|
 388:E:/LiteOS/LiteOS_Lab/iot_link/os/os_imp/liteos/arch/arm/arm-m/armv7-m/gcc\los_dispatch.c ****      *
 389:E:/LiteOS/LiteOS_Lab/iot_link/os/os_imp/liteos/arch/arm/arm-m/armv7-m/gcc\los_dispatch.c ****      * 2. If the next running task is run for the first time, the stack is as follows:
 390:E:/LiteOS/LiteOS_Lab/iot_link/os/os_imp/liteos/arch/arm/arm-m/armv7-m/gcc\los_dispatch.c ****      *
 391:E:/LiteOS/LiteOS_Lab/iot_link/os/os_imp/liteos/arch/arm/arm-m/armv7-m/gcc\los_dispatch.c ****      *          POP: Restore the context of the next running task ===>|
 392:E:/LiteOS/LiteOS_Lab/iot_link/os/os_imp/liteos/arch/arm/arm-m/armv7-m/gcc\los_dispatch.c ****      *                                                   High addr--->|
 393:E:/LiteOS/LiteOS_Lab/iot_link/os/os_imp/liteos/arch/arm/arm-m/armv7-m/gcc\los_dispatch.c ****      *                                         Bottom of the stack--->|
 394:E:/LiteOS/LiteOS_Lab/iot_link/os/os_imp/liteos/arch/arm/arm-m/armv7-m/gcc\los_dispatch.c ****      * ----------+-----------------------------+----------------------+
 395:E:/LiteOS/LiteOS_Lab/iot_link/os/os_imp/liteos/arch/arm/arm-m/armv7-m/gcc\los_dispatch.c ****      *           | R4-R11,PRIMASK[,EXC_RETURN] | R0-R3,R12,LR,PC,xPSR |
 396:E:/LiteOS/LiteOS_Lab/iot_link/os/os_imp/liteos/arch/arm/arm-m/armv7-m/gcc\los_dispatch.c ****      * ----------+-----------------------------+----------------------+
 397:E:/LiteOS/LiteOS_Lab/iot_link/os/os_imp/liteos/arch/arm/arm-m/armv7-m/gcc\los_dispatch.c ****      *           |<---Top of the stack, restored from g_stLosTask.pstNewTask->pStackPointer
 398:E:/LiteOS/LiteOS_Lab/iot_link/os/os_imp/liteos/arch/arm/arm-m/armv7-m/gcc\los_dispatch.c ****      *                            R1 to PSP--->|
 399:E:/LiteOS/LiteOS_Lab/iot_link/os/os_imp/liteos/arch/arm/arm-m/armv7-m/gcc\los_dispatch.c ****      *                                         |<---auto restoring--->|
 400:E:/LiteOS/LiteOS_Lab/iot_link/os/os_imp/liteos/arch/arm/arm-m/armv7-m/gcc\los_dispatch.c ****      *                       Stack pointer after exiting exception--->|
 401:E:/LiteOS/LiteOS_Lab/iot_link/os/os_imp/liteos/arch/arm/arm-m/armv7-m/gcc\los_dispatch.c ****      */
 402:E:/LiteOS/LiteOS_Lab/iot_link/os/os_imp/liteos/arch/arm/arm-m/armv7-m/gcc\los_dispatch.c ****     "LDMFD  R1!, {R4-R12}           @ restore the core registers and PRIMASK\n\t"
 403:E:/LiteOS/LiteOS_Lab/iot_link/os/os_imp/liteos/arch/arm/arm-m/armv7-m/gcc\los_dispatch.c **** 
 404:E:/LiteOS/LiteOS_Lab/iot_link/os/os_imp/liteos/arch/arm/arm-m/armv7-m/gcc\los_dispatch.c **** #if defined (__VFP_FP__) && !defined(__SOFTFP__)       /* if FPU exist. */
 405:E:/LiteOS/LiteOS_Lab/iot_link/os/os_imp/liteos/arch/arm/arm-m/armv7-m/gcc\los_dispatch.c ****     "LDMFD  R1!, {R14}              @ restore EXC_RETURN\n\t"
 406:E:/LiteOS/LiteOS_Lab/iot_link/os/os_imp/liteos/arch/arm/arm-m/armv7-m/gcc\los_dispatch.c ****     "TST    R14, #0x10              @ if the task using the FPU context\n\t"
 407:E:/LiteOS/LiteOS_Lab/iot_link/os/os_imp/liteos/arch/arm/arm-m/armv7-m/gcc\los_dispatch.c ****     "BNE    0f\n\t"
 408:E:/LiteOS/LiteOS_Lab/iot_link/os/os_imp/liteos/arch/arm/arm-m/armv7-m/gcc\los_dispatch.c ****     "VLDMIA R1!, {D8-D15}\n\t"
 409:E:/LiteOS/LiteOS_Lab/iot_link/os/os_imp/liteos/arch/arm/arm-m/armv7-m/gcc\los_dispatch.c ****     "0:\n\t"
 410:E:/LiteOS/LiteOS_Lab/iot_link/os/os_imp/liteos/arch/arm/arm-m/armv7-m/gcc\los_dispatch.c **** #endif
 411:E:/LiteOS/LiteOS_Lab/iot_link/os/os_imp/liteos/arch/arm/arm-m/armv7-m/gcc\los_dispatch.c **** 
 412:E:/LiteOS/LiteOS_Lab/iot_link/os/os_imp/liteos/arch/arm/arm-m/armv7-m/gcc\los_dispatch.c ****     /**
 413:E:/LiteOS/LiteOS_Lab/iot_link/os/os_imp/liteos/arch/arm/arm-m/armv7-m/gcc\los_dispatch.c ****      * Set the stack pointer of the next running task to PSP.
 414:E:/LiteOS/LiteOS_Lab/iot_link/os/os_imp/liteos/arch/arm/arm-m/armv7-m/gcc\los_dispatch.c ****      */
 415:E:/LiteOS/LiteOS_Lab/iot_link/os/os_imp/liteos/arch/arm/arm-m/armv7-m/gcc\los_dispatch.c ****     "MSR    PSP, R1\n\t"
 416:E:/LiteOS/LiteOS_Lab/iot_link/os/os_imp/liteos/arch/arm/arm-m/armv7-m/gcc\los_dispatch.c **** 
 417:E:/LiteOS/LiteOS_Lab/iot_link/os/os_imp/liteos/arch/arm/arm-m/armv7-m/gcc\los_dispatch.c ****     /**
 418:E:/LiteOS/LiteOS_Lab/iot_link/os/os_imp/liteos/arch/arm/arm-m/armv7-m/gcc\los_dispatch.c ****      * Restore the interruption state of the next running task.
 419:E:/LiteOS/LiteOS_Lab/iot_link/os/os_imp/liteos/arch/arm/arm-m/armv7-m/gcc\los_dispatch.c ****      */
 420:E:/LiteOS/LiteOS_Lab/iot_link/os/os_imp/liteos/arch/arm/arm-m/armv7-m/gcc\los_dispatch.c ****     "MSR    PRIMASK, R12\n\t"
 421:E:/LiteOS/LiteOS_Lab/iot_link/os/os_imp/liteos/arch/arm/arm-m/armv7-m/gcc\los_dispatch.c ****     "BX     LR\n\t"
 422:E:/LiteOS/LiteOS_Lab/iot_link/os/os_imp/liteos/arch/arm/arm-m/armv7-m/gcc\los_dispatch.c ****     :
 423:E:/LiteOS/LiteOS_Lab/iot_link/os/os_imp/liteos/arch/arm/arm-m/armv7-m/gcc\los_dispatch.c ****     : "I" (OS_TASK_STATUS_RUNNING), "X" (MPU_RBAR)
 424:E:/LiteOS/LiteOS_Lab/iot_link/os/os_imp/liteos/arch/arm/arm-m/armv7-m/gcc\los_dispatch.c ****     );
 425:E:/LiteOS/LiteOS_Lab/iot_link/os/os_imp/liteos/arch/arm/arm-m/armv7-m/gcc\los_dispatch.c **** }
 260              		.loc 1 425 0
 261              		.thumb
 262              		.syntax unified
 263 0068 00BF     		nop
 264              		.cfi_endproc
 265              	.LFE138:
 267 006a 0000     		.text
 268              	.Letext0:
 269              		.file 2 "e:\\ac6\\systemworkbench\\plugins\\fr.ac6.mcu.externaltools.arm-none.win32_1.16.0.2018071
 270              		.file 3 "e:\\ac6\\systemworkbench\\plugins\\fr.ac6.mcu.externaltools.arm-none.win32_1.16.0.2018071
 271              		.file 4 "e:\\ac6\\systemworkbench\\plugins\\fr.ac6.mcu.externaltools.arm-none.win32_1.16.0.2018071
ARM GAS  C:\Users\user\AppData\Local\Temp\ccw9xwtY.s 			page 13


 272              		.file 5 "e:\\ac6\\systemworkbench\\plugins\\fr.ac6.mcu.externaltools.arm-none.win32_1.16.0.2018071
 273              		.file 6 "e:\\ac6\\systemworkbench\\plugins\\fr.ac6.mcu.externaltools.arm-none.win32_1.16.0.2018071
 274              		.file 7 "E:/LiteOS/LiteOS_Lab/iot_link/os/os_imp/liteos/include/los_typedef.h"
 275              		.file 8 "e:\\ac6\\systemworkbench\\plugins\\fr.ac6.mcu.externaltools.arm-none.win32_1.16.0.2018071
 276              		.file 9 "E:/LiteOS/LiteOS_Lab/iot_link/os/os_imp/liteos/arch/arm/common/cmsis/core_cm4.h"
 277              		.file 10 "E:/LiteOS/LiteOS_Lab/targets/STM32L431_BearPi/Inc/system_stm32l4xx.h"
 278              		.file 11 "E:/LiteOS/LiteOS_Lab/iot_link/os/os_imp/liteos/include/los_list.h"
 279              		.file 12 "E:/LiteOS/LiteOS_Lab/iot_link/os/os_imp/liteos/include/los_err.h"
 280              		.file 13 "E:/LiteOS/LiteOS_Lab/iot_link/os/os_imp/liteos/arch/arm/arm-m/include/los_hwi.h"
 281              		.file 14 "E:/LiteOS/LiteOS_Lab/iot_link/os/os_imp/liteos/include/los_tick.h"
 282              		.file 15 "E:/LiteOS/LiteOS_Lab/iot_link/os/os_imp/liteos/include/los_event.h"
 283              		.file 16 "E:/LiteOS/LiteOS_Lab/iot_link/os/os_imp/liteos/include/los_task.h"
 284              		.file 17 "E:/LiteOS/LiteOS_Lab/iot_link/os/os_imp/liteos/base/include/los_task.ph"
 285              		.file 18 "E:/LiteOS/LiteOS_Lab/targets/STM32L431_BearPi/Inc/main.h"
 286              		.file 19 "E:/LiteOS/LiteOS_Lab/iot_link/os/os_imp/liteos/include/los_config.h"
ARM GAS  C:\Users\user\AppData\Local\Temp\ccw9xwtY.s 			page 14

