ARM GAS  C:\Users\user\AppData\Local\Temp\ccoKVlPn.s 			page 1


   1              		.cpu cortex-m4
   2              		.eabi_attribute 27, 1
   3              		.eabi_attribute 28, 1
   4              		.eabi_attribute 20, 1
   5              		.eabi_attribute 21, 1
   6              		.eabi_attribute 23, 3
   7              		.eabi_attribute 24, 1
   8              		.eabi_attribute 25, 1
   9              		.eabi_attribute 26, 1
  10              		.eabi_attribute 30, 6
  11              		.eabi_attribute 34, 1
  12              		.eabi_attribute 18, 4
  13              		.file	"los_event.c"
  14              		.text
  15              	.Ltext0:
  16              		.cfi_sections	.debug_frame
  17              		.section	.text.LOS_ListInit,"ax",%progbits
  18              		.align	1
  19              		.syntax unified
  20              		.thumb
  21              		.thumb_func
  22              		.fpu fpv4-sp-d16
  24              	LOS_ListInit:
  25              	.LFB0:
  26              		.file 1 "E:/LiteOS/LiteOS_Lab/iot_link/os/os_imp/liteos/include/los_list.h"
   1:E:/LiteOS/LiteOS_Lab/iot_link/os/os_imp/liteos/include\los_list.h **** /*----------------------------------------------------------------------------
   2:E:/LiteOS/LiteOS_Lab/iot_link/os/os_imp/liteos/include\los_list.h ****  * Copyright (c) <2013-2015>, <Huawei Technologies Co., Ltd>
   3:E:/LiteOS/LiteOS_Lab/iot_link/os/os_imp/liteos/include\los_list.h ****  * All rights reserved.
   4:E:/LiteOS/LiteOS_Lab/iot_link/os/os_imp/liteos/include\los_list.h ****  * Redistribution and use in source and binary forms, with or without modification,
   5:E:/LiteOS/LiteOS_Lab/iot_link/os/os_imp/liteos/include\los_list.h ****  * are permitted provided that the following conditions are met:
   6:E:/LiteOS/LiteOS_Lab/iot_link/os/os_imp/liteos/include\los_list.h ****  * 1. Redistributions of source code must retain the above copyright notice, this list of
   7:E:/LiteOS/LiteOS_Lab/iot_link/os/os_imp/liteos/include\los_list.h ****  * conditions and the following disclaimer.
   8:E:/LiteOS/LiteOS_Lab/iot_link/os/os_imp/liteos/include\los_list.h ****  * 2. Redistributions in binary form must reproduce the above copyright notice, this list
   9:E:/LiteOS/LiteOS_Lab/iot_link/os/os_imp/liteos/include\los_list.h ****  * of conditions and the following disclaimer in the documentation and/or other materials
  10:E:/LiteOS/LiteOS_Lab/iot_link/os/os_imp/liteos/include\los_list.h ****  * provided with the distribution.
  11:E:/LiteOS/LiteOS_Lab/iot_link/os/os_imp/liteos/include\los_list.h ****  * 3. Neither the name of the copyright holder nor the names of its contributors may be used
  12:E:/LiteOS/LiteOS_Lab/iot_link/os/os_imp/liteos/include\los_list.h ****  * to endorse or promote products derived from this software without specific prior written
  13:E:/LiteOS/LiteOS_Lab/iot_link/os/os_imp/liteos/include\los_list.h ****  * permission.
  14:E:/LiteOS/LiteOS_Lab/iot_link/os/os_imp/liteos/include\los_list.h ****  * THIS SOFTWARE IS PROVIDED BY THE COPYRIGHT HOLDERS AND CONTRIBUTORS
  15:E:/LiteOS/LiteOS_Lab/iot_link/os/os_imp/liteos/include\los_list.h ****  * "AS IS" AND ANY EXPRESS OR IMPLIED WARRANTIES, INCLUDING, BUT NOT LIMITED TO,
  16:E:/LiteOS/LiteOS_Lab/iot_link/os/os_imp/liteos/include\los_list.h ****  * THE IMPLIED WARRANTIES OF MERCHANTABILITY AND FITNESS FOR A PARTICULAR
  17:E:/LiteOS/LiteOS_Lab/iot_link/os/os_imp/liteos/include\los_list.h ****  * PURPOSE ARE DISCLAIMED. IN NO EVENT SHALL THE COPYRIGHT HOLDER OR
  18:E:/LiteOS/LiteOS_Lab/iot_link/os/os_imp/liteos/include\los_list.h ****  * CONTRIBUTORS BE LIABLE FOR ANY DIRECT, INDIRECT, INCIDENTAL, SPECIAL,
  19:E:/LiteOS/LiteOS_Lab/iot_link/os/os_imp/liteos/include\los_list.h ****  * EXEMPLARY, OR CONSEQUENTIAL DAMAGES (INCLUDING, BUT NOT LIMITED TO,
  20:E:/LiteOS/LiteOS_Lab/iot_link/os/os_imp/liteos/include\los_list.h ****  * PROCUREMENT OF SUBSTITUTE GOODS OR SERVICES; LOSS OF USE, DATA, OR PROFITS;
  21:E:/LiteOS/LiteOS_Lab/iot_link/os/os_imp/liteos/include\los_list.h ****  * OR BUSINESS INTERRUPTION) HOWEVER CAUSED AND ON ANY THEORY OF LIABILITY,
  22:E:/LiteOS/LiteOS_Lab/iot_link/os/os_imp/liteos/include\los_list.h ****  * WHETHER IN CONTRACT, STRICT LIABILITY, OR TORT (INCLUDING NEGLIGENCE OR
  23:E:/LiteOS/LiteOS_Lab/iot_link/os/os_imp/liteos/include\los_list.h ****  * OTHERWISE) ARISING IN ANY WAY OUT OF THE USE OF THIS SOFTWARE, EVEN IF
  24:E:/LiteOS/LiteOS_Lab/iot_link/os/os_imp/liteos/include\los_list.h ****  * ADVISED OF THE POSSIBILITY OF SUCH DAMAGE.
  25:E:/LiteOS/LiteOS_Lab/iot_link/os/os_imp/liteos/include\los_list.h ****  *---------------------------------------------------------------------------*/
  26:E:/LiteOS/LiteOS_Lab/iot_link/os/os_imp/liteos/include\los_list.h **** /*----------------------------------------------------------------------------
  27:E:/LiteOS/LiteOS_Lab/iot_link/os/os_imp/liteos/include\los_list.h ****  * Notice of Export Control Law
  28:E:/LiteOS/LiteOS_Lab/iot_link/os/os_imp/liteos/include\los_list.h ****  * ===============================================
  29:E:/LiteOS/LiteOS_Lab/iot_link/os/os_imp/liteos/include\los_list.h ****  * Huawei LiteOS may be subject to applicable export control laws and regulations, which might
  30:E:/LiteOS/LiteOS_Lab/iot_link/os/os_imp/liteos/include\los_list.h ****  * include those applicable to Huawei LiteOS of U.S. and the country in which you are located.
  31:E:/LiteOS/LiteOS_Lab/iot_link/os/os_imp/liteos/include\los_list.h ****  * Import, export and usage of Huawei LiteOS in any manner by you shall be in compliance with such
  32:E:/LiteOS/LiteOS_Lab/iot_link/os/os_imp/liteos/include\los_list.h ****  * applicable export control laws and regulations.
ARM GAS  C:\Users\user\AppData\Local\Temp\ccoKVlPn.s 			page 2


  33:E:/LiteOS/LiteOS_Lab/iot_link/os/os_imp/liteos/include\los_list.h ****  *---------------------------------------------------------------------------*/
  34:E:/LiteOS/LiteOS_Lab/iot_link/os/os_imp/liteos/include\los_list.h **** 
  35:E:/LiteOS/LiteOS_Lab/iot_link/os/os_imp/liteos/include\los_list.h ****  /** @defgroup los_list Doubly linked list
  36:E:/LiteOS/LiteOS_Lab/iot_link/os/os_imp/liteos/include\los_list.h ****  * @ingroup kernel
  37:E:/LiteOS/LiteOS_Lab/iot_link/os/os_imp/liteos/include\los_list.h ****  */
  38:E:/LiteOS/LiteOS_Lab/iot_link/os/os_imp/liteos/include\los_list.h **** 
  39:E:/LiteOS/LiteOS_Lab/iot_link/os/os_imp/liteos/include\los_list.h **** #ifndef _LOS_LIST_H
  40:E:/LiteOS/LiteOS_Lab/iot_link/os/os_imp/liteos/include\los_list.h **** #define _LOS_LIST_H
  41:E:/LiteOS/LiteOS_Lab/iot_link/os/os_imp/liteos/include\los_list.h **** 
  42:E:/LiteOS/LiteOS_Lab/iot_link/os/os_imp/liteos/include\los_list.h **** #include "los_typedef.h"
  43:E:/LiteOS/LiteOS_Lab/iot_link/os/os_imp/liteos/include\los_list.h **** 
  44:E:/LiteOS/LiteOS_Lab/iot_link/os/os_imp/liteos/include\los_list.h **** #ifdef __cplusplus
  45:E:/LiteOS/LiteOS_Lab/iot_link/os/os_imp/liteos/include\los_list.h **** #if __cplusplus
  46:E:/LiteOS/LiteOS_Lab/iot_link/os/os_imp/liteos/include\los_list.h **** extern "C" {
  47:E:/LiteOS/LiteOS_Lab/iot_link/os/os_imp/liteos/include\los_list.h **** #endif /* __cplusplus */
  48:E:/LiteOS/LiteOS_Lab/iot_link/os/os_imp/liteos/include\los_list.h **** #endif /* __cplusplus */
  49:E:/LiteOS/LiteOS_Lab/iot_link/os/os_imp/liteos/include\los_list.h **** 
  50:E:/LiteOS/LiteOS_Lab/iot_link/os/os_imp/liteos/include\los_list.h **** 
  51:E:/LiteOS/LiteOS_Lab/iot_link/os/os_imp/liteos/include\los_list.h **** /**
  52:E:/LiteOS/LiteOS_Lab/iot_link/os/os_imp/liteos/include\los_list.h ****  *@ingroup los_list
  53:E:/LiteOS/LiteOS_Lab/iot_link/os/os_imp/liteos/include\los_list.h ****  *Structure of a node in a doubly linked list.
  54:E:/LiteOS/LiteOS_Lab/iot_link/os/os_imp/liteos/include\los_list.h ****  */
  55:E:/LiteOS/LiteOS_Lab/iot_link/os/os_imp/liteos/include\los_list.h **** typedef struct LOS_DL_LIST
  56:E:/LiteOS/LiteOS_Lab/iot_link/os/os_imp/liteos/include\los_list.h **** {
  57:E:/LiteOS/LiteOS_Lab/iot_link/os/os_imp/liteos/include\los_list.h ****     struct LOS_DL_LIST *pstPrev;            /**< Current node's pointer to the previous node*/
  58:E:/LiteOS/LiteOS_Lab/iot_link/os/os_imp/liteos/include\los_list.h ****     struct LOS_DL_LIST *pstNext;            /**< Current node's pointer to the next node*/
  59:E:/LiteOS/LiteOS_Lab/iot_link/os/os_imp/liteos/include\los_list.h **** } LOS_DL_LIST;
  60:E:/LiteOS/LiteOS_Lab/iot_link/os/os_imp/liteos/include\los_list.h **** 
  61:E:/LiteOS/LiteOS_Lab/iot_link/os/os_imp/liteos/include\los_list.h **** /**
  62:E:/LiteOS/LiteOS_Lab/iot_link/os/os_imp/liteos/include\los_list.h ****  *@ingroup los_list
  63:E:/LiteOS/LiteOS_Lab/iot_link/os/os_imp/liteos/include\los_list.h ****  *@brief Initialize a doubly linked list.
  64:E:/LiteOS/LiteOS_Lab/iot_link/os/os_imp/liteos/include\los_list.h ****  *
  65:E:/LiteOS/LiteOS_Lab/iot_link/os/os_imp/liteos/include\los_list.h ****  *@par Description:
  66:E:/LiteOS/LiteOS_Lab/iot_link/os/os_imp/liteos/include\los_list.h ****  *This API is used to initialize a doubly linked list.
  67:E:/LiteOS/LiteOS_Lab/iot_link/os/os_imp/liteos/include\los_list.h ****  *@attention
  68:E:/LiteOS/LiteOS_Lab/iot_link/os/os_imp/liteos/include\los_list.h ****  *<ul>
  69:E:/LiteOS/LiteOS_Lab/iot_link/os/os_imp/liteos/include\los_list.h ****  *<li>The parameter passed in should be ensured to be a legal pointer.</li>
  70:E:/LiteOS/LiteOS_Lab/iot_link/os/os_imp/liteos/include\los_list.h ****  *</ul>
  71:E:/LiteOS/LiteOS_Lab/iot_link/os/os_imp/liteos/include\los_list.h ****  *
  72:E:/LiteOS/LiteOS_Lab/iot_link/os/os_imp/liteos/include\los_list.h ****  *@param pstList    [IN] Node in a doubly linked list.
  73:E:/LiteOS/LiteOS_Lab/iot_link/os/os_imp/liteos/include\los_list.h ****  *
  74:E:/LiteOS/LiteOS_Lab/iot_link/os/os_imp/liteos/include\los_list.h ****  *@retval None.
  75:E:/LiteOS/LiteOS_Lab/iot_link/os/os_imp/liteos/include\los_list.h ****  *@par Dependency:
  76:E:/LiteOS/LiteOS_Lab/iot_link/os/os_imp/liteos/include\los_list.h ****  *<ul><li>los_list.h: the header file that contains the API declaration.</li></ul>
  77:E:/LiteOS/LiteOS_Lab/iot_link/os/os_imp/liteos/include\los_list.h ****  *@see
  78:E:/LiteOS/LiteOS_Lab/iot_link/os/os_imp/liteos/include\los_list.h ****  *@since Huawei LiteOS V100R001C00
  79:E:/LiteOS/LiteOS_Lab/iot_link/os/os_imp/liteos/include\los_list.h ****  */
  80:E:/LiteOS/LiteOS_Lab/iot_link/os/os_imp/liteos/include\los_list.h **** LITE_OS_SEC_ALW_INLINE STATIC_INLINE VOID LOS_ListInit(LOS_DL_LIST *pstList)
  81:E:/LiteOS/LiteOS_Lab/iot_link/os/os_imp/liteos/include\los_list.h **** {
  27              		.loc 1 81 0
  28              		.cfi_startproc
  29              		@ args = 0, pretend = 0, frame = 8
  30              		@ frame_needed = 1, uses_anonymous_args = 0
  31              		@ link register save eliminated.
  32 0000 80B4     		push	{r7}
  33              	.LCFI0:
  34              		.cfi_def_cfa_offset 4
ARM GAS  C:\Users\user\AppData\Local\Temp\ccoKVlPn.s 			page 3


  35              		.cfi_offset 7, -4
  36 0002 83B0     		sub	sp, sp, #12
  37              	.LCFI1:
  38              		.cfi_def_cfa_offset 16
  39 0004 00AF     		add	r7, sp, #0
  40              	.LCFI2:
  41              		.cfi_def_cfa_register 7
  42 0006 7860     		str	r0, [r7, #4]
  82:E:/LiteOS/LiteOS_Lab/iot_link/os/os_imp/liteos/include\los_list.h ****     pstList->pstNext = pstList;
  43              		.loc 1 82 0
  44 0008 7B68     		ldr	r3, [r7, #4]
  45 000a 7A68     		ldr	r2, [r7, #4]
  46 000c 5A60     		str	r2, [r3, #4]
  83:E:/LiteOS/LiteOS_Lab/iot_link/os/os_imp/liteos/include\los_list.h ****     pstList->pstPrev = pstList;
  47              		.loc 1 83 0
  48 000e 7B68     		ldr	r3, [r7, #4]
  49 0010 7A68     		ldr	r2, [r7, #4]
  50 0012 1A60     		str	r2, [r3]
  84:E:/LiteOS/LiteOS_Lab/iot_link/os/os_imp/liteos/include\los_list.h **** }
  51              		.loc 1 84 0
  52 0014 00BF     		nop
  53 0016 0C37     		adds	r7, r7, #12
  54              	.LCFI3:
  55              		.cfi_def_cfa_offset 4
  56 0018 BD46     		mov	sp, r7
  57              	.LCFI4:
  58              		.cfi_def_cfa_register 13
  59              		@ sp needed
  60 001a 5DF8047B 		ldr	r7, [sp], #4
  61              	.LCFI5:
  62              		.cfi_restore 7
  63              		.cfi_def_cfa_offset 0
  64 001e 7047     		bx	lr
  65              		.cfi_endproc
  66              	.LFE0:
  68              		.section	.text.LOS_ListEmpty,"ax",%progbits
  69              		.align	1
  70              		.syntax unified
  71              		.thumb
  72              		.thumb_func
  73              		.fpu fpv4-sp-d16
  75              	LOS_ListEmpty:
  76              	.LFB4:
  85:E:/LiteOS/LiteOS_Lab/iot_link/os/os_imp/liteos/include\los_list.h **** 
  86:E:/LiteOS/LiteOS_Lab/iot_link/os/os_imp/liteos/include\los_list.h **** /**
  87:E:/LiteOS/LiteOS_Lab/iot_link/os/os_imp/liteos/include\los_list.h ****  *@ingroup los_list
  88:E:/LiteOS/LiteOS_Lab/iot_link/os/os_imp/liteos/include\los_list.h ****  *@brief Point to the next node pointed to by the current node.
  89:E:/LiteOS/LiteOS_Lab/iot_link/os/os_imp/liteos/include\los_list.h ****  *
  90:E:/LiteOS/LiteOS_Lab/iot_link/os/os_imp/liteos/include\los_list.h ****  *@par Description:
  91:E:/LiteOS/LiteOS_Lab/iot_link/os/os_imp/liteos/include\los_list.h ****  *<ul>
  92:E:/LiteOS/LiteOS_Lab/iot_link/os/os_imp/liteos/include\los_list.h ****  *<li>This API is used to point to the next node pointed to by the current node.</li>
  93:E:/LiteOS/LiteOS_Lab/iot_link/os/os_imp/liteos/include\los_list.h ****  *</ul>
  94:E:/LiteOS/LiteOS_Lab/iot_link/os/os_imp/liteos/include\los_list.h ****  *@attention
  95:E:/LiteOS/LiteOS_Lab/iot_link/os/os_imp/liteos/include\los_list.h ****  *<ul>
  96:E:/LiteOS/LiteOS_Lab/iot_link/os/os_imp/liteos/include\los_list.h ****  *<li>None.</li>
  97:E:/LiteOS/LiteOS_Lab/iot_link/os/os_imp/liteos/include\los_list.h ****  *</ul>
  98:E:/LiteOS/LiteOS_Lab/iot_link/os/os_imp/liteos/include\los_list.h ****  *
ARM GAS  C:\Users\user\AppData\Local\Temp\ccoKVlPn.s 			page 4


  99:E:/LiteOS/LiteOS_Lab/iot_link/os/os_imp/liteos/include\los_list.h ****  *@param pstObject  [IN] Node in the doubly linked list.
 100:E:/LiteOS/LiteOS_Lab/iot_link/os/os_imp/liteos/include\los_list.h ****  *
 101:E:/LiteOS/LiteOS_Lab/iot_link/os/os_imp/liteos/include\los_list.h ****  *@retval None.
 102:E:/LiteOS/LiteOS_Lab/iot_link/os/os_imp/liteos/include\los_list.h ****  *@par Dependency:
 103:E:/LiteOS/LiteOS_Lab/iot_link/os/os_imp/liteos/include\los_list.h ****  *<ul><li>los_list.h: the header file that contains the API declaration.</li></ul>
 104:E:/LiteOS/LiteOS_Lab/iot_link/os/os_imp/liteos/include\los_list.h ****  *@see
 105:E:/LiteOS/LiteOS_Lab/iot_link/os/os_imp/liteos/include\los_list.h ****  *@since Huawei LiteOS V100R001C00
 106:E:/LiteOS/LiteOS_Lab/iot_link/os/os_imp/liteos/include\los_list.h ****  */
 107:E:/LiteOS/LiteOS_Lab/iot_link/os/os_imp/liteos/include\los_list.h **** #define LOS_DL_LIST_FIRST(pstObject) ((pstObject)->pstNext)
 108:E:/LiteOS/LiteOS_Lab/iot_link/os/os_imp/liteos/include\los_list.h **** 
 109:E:/LiteOS/LiteOS_Lab/iot_link/os/os_imp/liteos/include\los_list.h **** /**
 110:E:/LiteOS/LiteOS_Lab/iot_link/os/os_imp/liteos/include\los_list.h ****  *@ingroup los_list
 111:E:/LiteOS/LiteOS_Lab/iot_link/os/os_imp/liteos/include\los_list.h ****  *@brief Insert a new node to a doubly linked list.
 112:E:/LiteOS/LiteOS_Lab/iot_link/os/os_imp/liteos/include\los_list.h ****  *
 113:E:/LiteOS/LiteOS_Lab/iot_link/os/os_imp/liteos/include\los_list.h ****  *@par Description:
 114:E:/LiteOS/LiteOS_Lab/iot_link/os/os_imp/liteos/include\los_list.h ****  *This API is used to insert a new node to a doubly linked list.
 115:E:/LiteOS/LiteOS_Lab/iot_link/os/os_imp/liteos/include\los_list.h ****  *@attention
 116:E:/LiteOS/LiteOS_Lab/iot_link/os/os_imp/liteos/include\los_list.h ****  *<ul>
 117:E:/LiteOS/LiteOS_Lab/iot_link/os/os_imp/liteos/include\los_list.h ****  *<li>The parameters passed in should be ensured to be legal pointers.</li>
 118:E:/LiteOS/LiteOS_Lab/iot_link/os/os_imp/liteos/include\los_list.h ****  *</ul>
 119:E:/LiteOS/LiteOS_Lab/iot_link/os/os_imp/liteos/include\los_list.h ****  *
 120:E:/LiteOS/LiteOS_Lab/iot_link/os/os_imp/liteos/include\los_list.h ****  *@param pstList    [IN]   Doubly linked list where the new node is inserted.
 121:E:/LiteOS/LiteOS_Lab/iot_link/os/os_imp/liteos/include\los_list.h ****  *@param pstNode    [IN]   New node to be inserted.
 122:E:/LiteOS/LiteOS_Lab/iot_link/os/os_imp/liteos/include\los_list.h ****  *
 123:E:/LiteOS/LiteOS_Lab/iot_link/os/os_imp/liteos/include\los_list.h ****  *@retval None
 124:E:/LiteOS/LiteOS_Lab/iot_link/os/os_imp/liteos/include\los_list.h ****  *@par Dependency:
 125:E:/LiteOS/LiteOS_Lab/iot_link/os/os_imp/liteos/include\los_list.h ****  *<ul><li>los_list.h: the header file that contains the API declaration.</li></ul>
 126:E:/LiteOS/LiteOS_Lab/iot_link/os/os_imp/liteos/include\los_list.h ****  *@see LOS_ListDelete
 127:E:/LiteOS/LiteOS_Lab/iot_link/os/os_imp/liteos/include\los_list.h ****  *@since Huawei LiteOS V100R001C00
 128:E:/LiteOS/LiteOS_Lab/iot_link/os/os_imp/liteos/include\los_list.h ****  */
 129:E:/LiteOS/LiteOS_Lab/iot_link/os/os_imp/liteos/include\los_list.h **** LITE_OS_SEC_ALW_INLINE STATIC_INLINE VOID LOS_ListAdd(LOS_DL_LIST *pstList, LOS_DL_LIST *pstNode)
 130:E:/LiteOS/LiteOS_Lab/iot_link/os/os_imp/liteos/include\los_list.h **** {
 131:E:/LiteOS/LiteOS_Lab/iot_link/os/os_imp/liteos/include\los_list.h ****     pstNode->pstNext = pstList->pstNext;
 132:E:/LiteOS/LiteOS_Lab/iot_link/os/os_imp/liteos/include\los_list.h ****     pstNode->pstPrev = pstList;
 133:E:/LiteOS/LiteOS_Lab/iot_link/os/os_imp/liteos/include\los_list.h ****     pstList->pstNext->pstPrev = pstNode;
 134:E:/LiteOS/LiteOS_Lab/iot_link/os/os_imp/liteos/include\los_list.h ****     pstList->pstNext = pstNode;
 135:E:/LiteOS/LiteOS_Lab/iot_link/os/os_imp/liteos/include\los_list.h **** }
 136:E:/LiteOS/LiteOS_Lab/iot_link/os/os_imp/liteos/include\los_list.h **** 
 137:E:/LiteOS/LiteOS_Lab/iot_link/os/os_imp/liteos/include\los_list.h **** /**
 138:E:/LiteOS/LiteOS_Lab/iot_link/os/os_imp/liteos/include\los_list.h ****  *@ingroup los_list
 139:E:/LiteOS/LiteOS_Lab/iot_link/os/os_imp/liteos/include\los_list.h ****  *@brief Insert a node to the tail of a doubly linked list.
 140:E:/LiteOS/LiteOS_Lab/iot_link/os/os_imp/liteos/include\los_list.h ****  *
 141:E:/LiteOS/LiteOS_Lab/iot_link/os/os_imp/liteos/include\los_list.h ****  *@par Description:
 142:E:/LiteOS/LiteOS_Lab/iot_link/os/os_imp/liteos/include\los_list.h ****  *This API is used to insert a new node to the tail of a doubly linked list.
 143:E:/LiteOS/LiteOS_Lab/iot_link/os/os_imp/liteos/include\los_list.h ****  *@attention
 144:E:/LiteOS/LiteOS_Lab/iot_link/os/os_imp/liteos/include\los_list.h ****  *<ul>
 145:E:/LiteOS/LiteOS_Lab/iot_link/os/os_imp/liteos/include\los_list.h ****  *<li>The parameters passed in should be ensured to be legal pointers.</li>
 146:E:/LiteOS/LiteOS_Lab/iot_link/os/os_imp/liteos/include\los_list.h ****  *</ul>
 147:E:/LiteOS/LiteOS_Lab/iot_link/os/os_imp/liteos/include\los_list.h ****  *
 148:E:/LiteOS/LiteOS_Lab/iot_link/os/os_imp/liteos/include\los_list.h ****  *@param pstList     [IN] Doubly linked list where the new node is inserted.
 149:E:/LiteOS/LiteOS_Lab/iot_link/os/os_imp/liteos/include\los_list.h ****  *@param pstNode     [IN] New node to be inserted.
 150:E:/LiteOS/LiteOS_Lab/iot_link/os/os_imp/liteos/include\los_list.h ****  *
 151:E:/LiteOS/LiteOS_Lab/iot_link/os/os_imp/liteos/include\los_list.h ****  *@retval None.
 152:E:/LiteOS/LiteOS_Lab/iot_link/os/os_imp/liteos/include\los_list.h ****  *@par Dependency:
 153:E:/LiteOS/LiteOS_Lab/iot_link/os/os_imp/liteos/include\los_list.h ****  *<ul><li>los_list.h: the header file that contains the API declaration.</li></ul>
 154:E:/LiteOS/LiteOS_Lab/iot_link/os/os_imp/liteos/include\los_list.h ****  *@see LOS_ListAdd | LOS_ListHeadInsert
 155:E:/LiteOS/LiteOS_Lab/iot_link/os/os_imp/liteos/include\los_list.h ****  *@since Huawei LiteOS V100R001C00
ARM GAS  C:\Users\user\AppData\Local\Temp\ccoKVlPn.s 			page 5


 156:E:/LiteOS/LiteOS_Lab/iot_link/os/os_imp/liteos/include\los_list.h ****  */
 157:E:/LiteOS/LiteOS_Lab/iot_link/os/os_imp/liteos/include\los_list.h **** LITE_OS_SEC_ALW_INLINE STATIC_INLINE VOID LOS_ListTailInsert(LOS_DL_LIST *pstList, LOS_DL_LIST *pst
 158:E:/LiteOS/LiteOS_Lab/iot_link/os/os_imp/liteos/include\los_list.h **** {
 159:E:/LiteOS/LiteOS_Lab/iot_link/os/os_imp/liteos/include\los_list.h ****     LOS_ListAdd(pstList->pstPrev, pstNode);
 160:E:/LiteOS/LiteOS_Lab/iot_link/os/os_imp/liteos/include\los_list.h **** }
 161:E:/LiteOS/LiteOS_Lab/iot_link/os/os_imp/liteos/include\los_list.h **** 
 162:E:/LiteOS/LiteOS_Lab/iot_link/os/os_imp/liteos/include\los_list.h **** /**
 163:E:/LiteOS/LiteOS_Lab/iot_link/os/os_imp/liteos/include\los_list.h ****  *@ingroup los_list
 164:E:/LiteOS/LiteOS_Lab/iot_link/os/os_imp/liteos/include\los_list.h ****  *@brief Delete a specified node from a doubly linked list.
 165:E:/LiteOS/LiteOS_Lab/iot_link/os/os_imp/liteos/include\los_list.h ****  *
 166:E:/LiteOS/LiteOS_Lab/iot_link/os/os_imp/liteos/include\los_list.h ****  *@par Description:
 167:E:/LiteOS/LiteOS_Lab/iot_link/os/os_imp/liteos/include\los_list.h ****  *<ul>
 168:E:/LiteOS/LiteOS_Lab/iot_link/os/os_imp/liteos/include\los_list.h ****  *<li>This API is used to delete a specified node from a doubly linked list.</li>
 169:E:/LiteOS/LiteOS_Lab/iot_link/os/os_imp/liteos/include\los_list.h ****  *</ul>
 170:E:/LiteOS/LiteOS_Lab/iot_link/os/os_imp/liteos/include\los_list.h ****  *@attention
 171:E:/LiteOS/LiteOS_Lab/iot_link/os/os_imp/liteos/include\los_list.h ****  *<ul>
 172:E:/LiteOS/LiteOS_Lab/iot_link/os/os_imp/liteos/include\los_list.h ****  *<li>The parameter passed in should be ensured to be a legal pointer.</li>
 173:E:/LiteOS/LiteOS_Lab/iot_link/os/os_imp/liteos/include\los_list.h ****  *</ul>
 174:E:/LiteOS/LiteOS_Lab/iot_link/os/os_imp/liteos/include\los_list.h ****  *
 175:E:/LiteOS/LiteOS_Lab/iot_link/os/os_imp/liteos/include\los_list.h ****  *@param pstNode    [IN] Node to be deleted.
 176:E:/LiteOS/LiteOS_Lab/iot_link/os/os_imp/liteos/include\los_list.h ****  *
 177:E:/LiteOS/LiteOS_Lab/iot_link/os/os_imp/liteos/include\los_list.h ****  *@retval None.
 178:E:/LiteOS/LiteOS_Lab/iot_link/os/os_imp/liteos/include\los_list.h ****  *@par Dependency:
 179:E:/LiteOS/LiteOS_Lab/iot_link/os/os_imp/liteos/include\los_list.h ****  *<ul><li>los_list.h: the header file that contains the API declaration.</li></ul>
 180:E:/LiteOS/LiteOS_Lab/iot_link/os/os_imp/liteos/include\los_list.h ****  *@see LOS_ListAdd
 181:E:/LiteOS/LiteOS_Lab/iot_link/os/os_imp/liteos/include\los_list.h ****  *@since Huawei LiteOS V100R001C00
 182:E:/LiteOS/LiteOS_Lab/iot_link/os/os_imp/liteos/include\los_list.h ****  */
 183:E:/LiteOS/LiteOS_Lab/iot_link/os/os_imp/liteos/include\los_list.h **** LITE_OS_SEC_ALW_INLINE STATIC_INLINE VOID LOS_ListDelete(LOS_DL_LIST *pstNode)
 184:E:/LiteOS/LiteOS_Lab/iot_link/os/os_imp/liteos/include\los_list.h **** {
 185:E:/LiteOS/LiteOS_Lab/iot_link/os/os_imp/liteos/include\los_list.h ****     pstNode->pstNext->pstPrev = pstNode->pstPrev;
 186:E:/LiteOS/LiteOS_Lab/iot_link/os/os_imp/liteos/include\los_list.h ****     pstNode->pstPrev->pstNext = pstNode->pstNext;
 187:E:/LiteOS/LiteOS_Lab/iot_link/os/os_imp/liteos/include\los_list.h ****     pstNode->pstNext = (LOS_DL_LIST *)NULL;
 188:E:/LiteOS/LiteOS_Lab/iot_link/os/os_imp/liteos/include\los_list.h ****     pstNode->pstPrev = (LOS_DL_LIST *)NULL;
 189:E:/LiteOS/LiteOS_Lab/iot_link/os/os_imp/liteos/include\los_list.h **** }
 190:E:/LiteOS/LiteOS_Lab/iot_link/os/os_imp/liteos/include\los_list.h **** 
 191:E:/LiteOS/LiteOS_Lab/iot_link/os/os_imp/liteos/include\los_list.h **** /**
 192:E:/LiteOS/LiteOS_Lab/iot_link/os/os_imp/liteos/include\los_list.h ****  *@ingroup los_list
 193:E:/LiteOS/LiteOS_Lab/iot_link/os/os_imp/liteos/include\los_list.h ****  *@brief Identify whether a specified doubly linked list is empty.
 194:E:/LiteOS/LiteOS_Lab/iot_link/os/os_imp/liteos/include\los_list.h ****  *
 195:E:/LiteOS/LiteOS_Lab/iot_link/os/os_imp/liteos/include\los_list.h ****  *@par Description:
 196:E:/LiteOS/LiteOS_Lab/iot_link/os/os_imp/liteos/include\los_list.h ****  *<ul>
 197:E:/LiteOS/LiteOS_Lab/iot_link/os/os_imp/liteos/include\los_list.h ****  *<li>This API is used to return whether a doubly linked list is empty.</li>
 198:E:/LiteOS/LiteOS_Lab/iot_link/os/os_imp/liteos/include\los_list.h ****  *</ul>
 199:E:/LiteOS/LiteOS_Lab/iot_link/os/os_imp/liteos/include\los_list.h ****  *@attention
 200:E:/LiteOS/LiteOS_Lab/iot_link/os/os_imp/liteos/include\los_list.h ****  *<ul>
 201:E:/LiteOS/LiteOS_Lab/iot_link/os/os_imp/liteos/include\los_list.h ****  *<li>The parameter passed in should be ensured to be a legal pointer.</li>
 202:E:/LiteOS/LiteOS_Lab/iot_link/os/os_imp/liteos/include\los_list.h ****  *</ul>
 203:E:/LiteOS/LiteOS_Lab/iot_link/os/os_imp/liteos/include\los_list.h ****  *
 204:E:/LiteOS/LiteOS_Lab/iot_link/os/os_imp/liteos/include\los_list.h ****  *@param pstList  [IN] Doubly linked list.
 205:E:/LiteOS/LiteOS_Lab/iot_link/os/os_imp/liteos/include\los_list.h ****  *
 206:E:/LiteOS/LiteOS_Lab/iot_link/os/os_imp/liteos/include\los_list.h ****  *@retval TRUE The doubly linked list is empty.
 207:E:/LiteOS/LiteOS_Lab/iot_link/os/os_imp/liteos/include\los_list.h ****  *@retval FALSE The doubly linked list is not empty.
 208:E:/LiteOS/LiteOS_Lab/iot_link/os/os_imp/liteos/include\los_list.h ****  *@par Dependency:
 209:E:/LiteOS/LiteOS_Lab/iot_link/os/os_imp/liteos/include\los_list.h ****  *<ul><li>los_list.h: the header file that contains the API declaration.</li></ul>
 210:E:/LiteOS/LiteOS_Lab/iot_link/os/os_imp/liteos/include\los_list.h ****  *@see
 211:E:/LiteOS/LiteOS_Lab/iot_link/os/os_imp/liteos/include\los_list.h ****  *@since Huawei LiteOS V100R001C00
 212:E:/LiteOS/LiteOS_Lab/iot_link/os/os_imp/liteos/include\los_list.h ****  */
ARM GAS  C:\Users\user\AppData\Local\Temp\ccoKVlPn.s 			page 6


 213:E:/LiteOS/LiteOS_Lab/iot_link/os/os_imp/liteos/include\los_list.h **** LITE_OS_SEC_ALW_INLINE STATIC_INLINE BOOL LOS_ListEmpty(LOS_DL_LIST *pstNode)
 214:E:/LiteOS/LiteOS_Lab/iot_link/os/os_imp/liteos/include\los_list.h **** {
  77              		.loc 1 214 0
  78              		.cfi_startproc
  79              		@ args = 0, pretend = 0, frame = 8
  80              		@ frame_needed = 1, uses_anonymous_args = 0
  81              		@ link register save eliminated.
  82 0000 80B4     		push	{r7}
  83              	.LCFI6:
  84              		.cfi_def_cfa_offset 4
  85              		.cfi_offset 7, -4
  86 0002 83B0     		sub	sp, sp, #12
  87              	.LCFI7:
  88              		.cfi_def_cfa_offset 16
  89 0004 00AF     		add	r7, sp, #0
  90              	.LCFI8:
  91              		.cfi_def_cfa_register 7
  92 0006 7860     		str	r0, [r7, #4]
 215:E:/LiteOS/LiteOS_Lab/iot_link/os/os_imp/liteos/include\los_list.h ****     return (BOOL)(pstNode->pstNext == pstNode);
  93              		.loc 1 215 0
  94 0008 7B68     		ldr	r3, [r7, #4]
  95 000a 5B68     		ldr	r3, [r3, #4]
  96 000c 7A68     		ldr	r2, [r7, #4]
  97 000e 9A42     		cmp	r2, r3
  98 0010 0CBF     		ite	eq
  99 0012 0123     		moveq	r3, #1
 100 0014 0023     		movne	r3, #0
 101 0016 DBB2     		uxtb	r3, r3
 216:E:/LiteOS/LiteOS_Lab/iot_link/os/os_imp/liteos/include\los_list.h **** }
 102              		.loc 1 216 0
 103 0018 1846     		mov	r0, r3
 104 001a 0C37     		adds	r7, r7, #12
 105              	.LCFI9:
 106              		.cfi_def_cfa_offset 4
 107 001c BD46     		mov	sp, r7
 108              	.LCFI10:
 109              		.cfi_def_cfa_register 13
 110              		@ sp needed
 111 001e 5DF8047B 		ldr	r7, [sp], #4
 112              	.LCFI11:
 113              		.cfi_restore 7
 114              		.cfi_def_cfa_offset 0
 115 0022 7047     		bx	lr
 116              		.cfi_endproc
 117              	.LFE4:
 119              		.section	.text.LOS_EventInit,"ax",%progbits
 120              		.align	1
 121              		.global	LOS_EventInit
 122              		.syntax unified
 123              		.thumb
 124              		.thumb_func
 125              		.fpu fpv4-sp-d16
 127              	LOS_EventInit:
 128              	.LFB133:
 129              		.file 2 "E:/LiteOS/LiteOS_Lab/iot_link/os/os_imp/liteos/base/ipc/los_event.c"
   1:E:/LiteOS/LiteOS_Lab/iot_link/os/os_imp/liteos/base/ipc\los_event.c **** /*----------------------------------------------------------------------------
   2:E:/LiteOS/LiteOS_Lab/iot_link/os/os_imp/liteos/base/ipc\los_event.c ****  * Copyright (c) <2013-2015>, <Huawei Technologies Co., Ltd>
ARM GAS  C:\Users\user\AppData\Local\Temp\ccoKVlPn.s 			page 7


   3:E:/LiteOS/LiteOS_Lab/iot_link/os/os_imp/liteos/base/ipc\los_event.c ****  * All rights reserved.
   4:E:/LiteOS/LiteOS_Lab/iot_link/os/os_imp/liteos/base/ipc\los_event.c ****  * Redistribution and use in source and binary forms, with or without modification,
   5:E:/LiteOS/LiteOS_Lab/iot_link/os/os_imp/liteos/base/ipc\los_event.c ****  * are permitted provided that the following conditions are met:
   6:E:/LiteOS/LiteOS_Lab/iot_link/os/os_imp/liteos/base/ipc\los_event.c ****  * 1. Redistributions of source code must retain the above copyright notice, this list of
   7:E:/LiteOS/LiteOS_Lab/iot_link/os/os_imp/liteos/base/ipc\los_event.c ****  * conditions and the following disclaimer.
   8:E:/LiteOS/LiteOS_Lab/iot_link/os/os_imp/liteos/base/ipc\los_event.c ****  * 2. Redistributions in binary form must reproduce the above copyright notice, this list
   9:E:/LiteOS/LiteOS_Lab/iot_link/os/os_imp/liteos/base/ipc\los_event.c ****  * of conditions and the following disclaimer in the documentation and/or other materials
  10:E:/LiteOS/LiteOS_Lab/iot_link/os/os_imp/liteos/base/ipc\los_event.c ****  * provided with the distribution.
  11:E:/LiteOS/LiteOS_Lab/iot_link/os/os_imp/liteos/base/ipc\los_event.c ****  * 3. Neither the name of the copyright holder nor the names of its contributors may be used
  12:E:/LiteOS/LiteOS_Lab/iot_link/os/os_imp/liteos/base/ipc\los_event.c ****  * to endorse or promote products derived from this software without specific prior written
  13:E:/LiteOS/LiteOS_Lab/iot_link/os/os_imp/liteos/base/ipc\los_event.c ****  * permission.
  14:E:/LiteOS/LiteOS_Lab/iot_link/os/os_imp/liteos/base/ipc\los_event.c ****  * THIS SOFTWARE IS PROVIDED BY THE COPYRIGHT HOLDERS AND CONTRIBUTORS
  15:E:/LiteOS/LiteOS_Lab/iot_link/os/os_imp/liteos/base/ipc\los_event.c ****  * "AS IS" AND ANY EXPRESS OR IMPLIED WARRANTIES, INCLUDING, BUT NOT LIMITED TO,
  16:E:/LiteOS/LiteOS_Lab/iot_link/os/os_imp/liteos/base/ipc\los_event.c ****  * THE IMPLIED WARRANTIES OF MERCHANTABILITY AND FITNESS FOR A PARTICULAR
  17:E:/LiteOS/LiteOS_Lab/iot_link/os/os_imp/liteos/base/ipc\los_event.c ****  * PURPOSE ARE DISCLAIMED. IN NO EVENT SHALL THE COPYRIGHT HOLDER OR
  18:E:/LiteOS/LiteOS_Lab/iot_link/os/os_imp/liteos/base/ipc\los_event.c ****  * CONTRIBUTORS BE LIABLE FOR ANY DIRECT, INDIRECT, INCIDENTAL, SPECIAL,
  19:E:/LiteOS/LiteOS_Lab/iot_link/os/os_imp/liteos/base/ipc\los_event.c ****  * EXEMPLARY, OR CONSEQUENTIAL DAMAGES (INCLUDING, BUT NOT LIMITED TO,
  20:E:/LiteOS/LiteOS_Lab/iot_link/os/os_imp/liteos/base/ipc\los_event.c ****  * PROCUREMENT OF SUBSTITUTE GOODS OR SERVICES; LOSS OF USE, DATA, OR PROFITS;
  21:E:/LiteOS/LiteOS_Lab/iot_link/os/os_imp/liteos/base/ipc\los_event.c ****  * OR BUSINESS INTERRUPTION) HOWEVER CAUSED AND ON ANY THEORY OF LIABILITY,
  22:E:/LiteOS/LiteOS_Lab/iot_link/os/os_imp/liteos/base/ipc\los_event.c ****  * WHETHER IN CONTRACT, STRICT LIABILITY, OR TORT (INCLUDING NEGLIGENCE OR
  23:E:/LiteOS/LiteOS_Lab/iot_link/os/os_imp/liteos/base/ipc\los_event.c ****  * OTHERWISE) ARISING IN ANY WAY OUT OF THE USE OF THIS SOFTWARE, EVEN IF
  24:E:/LiteOS/LiteOS_Lab/iot_link/os/os_imp/liteos/base/ipc\los_event.c ****  * ADVISED OF THE POSSIBILITY OF SUCH DAMAGE.
  25:E:/LiteOS/LiteOS_Lab/iot_link/os/os_imp/liteos/base/ipc\los_event.c ****  *---------------------------------------------------------------------------*/
  26:E:/LiteOS/LiteOS_Lab/iot_link/os/os_imp/liteos/base/ipc\los_event.c **** /*----------------------------------------------------------------------------
  27:E:/LiteOS/LiteOS_Lab/iot_link/os/os_imp/liteos/base/ipc\los_event.c ****  * Notice of Export Control Law
  28:E:/LiteOS/LiteOS_Lab/iot_link/os/os_imp/liteos/base/ipc\los_event.c ****  * ===============================================
  29:E:/LiteOS/LiteOS_Lab/iot_link/os/os_imp/liteos/base/ipc\los_event.c ****  * Huawei LiteOS may be subject to applicable export control laws and regulations, which might
  30:E:/LiteOS/LiteOS_Lab/iot_link/os/os_imp/liteos/base/ipc\los_event.c ****  * include those applicable to Huawei LiteOS of U.S. and the country in which you are located.
  31:E:/LiteOS/LiteOS_Lab/iot_link/os/os_imp/liteos/base/ipc\los_event.c ****  * Import, export and usage of Huawei LiteOS in any manner by you shall be in compliance with such
  32:E:/LiteOS/LiteOS_Lab/iot_link/os/os_imp/liteos/base/ipc\los_event.c ****  * applicable export control laws and regulations.
  33:E:/LiteOS/LiteOS_Lab/iot_link/os/os_imp/liteos/base/ipc\los_event.c ****  *---------------------------------------------------------------------------*/
  34:E:/LiteOS/LiteOS_Lab/iot_link/os/os_imp/liteos/base/ipc\los_event.c **** 
  35:E:/LiteOS/LiteOS_Lab/iot_link/os/os_imp/liteos/base/ipc\los_event.c **** #include "los_priqueue.ph"
  36:E:/LiteOS/LiteOS_Lab/iot_link/os/os_imp/liteos/base/ipc\los_event.c **** #include "los_task.ph"
  37:E:/LiteOS/LiteOS_Lab/iot_link/os/os_imp/liteos/base/ipc\los_event.c **** #include "los_hw.h"
  38:E:/LiteOS/LiteOS_Lab/iot_link/os/os_imp/liteos/base/ipc\los_event.c **** #include "los_hwi.h"
  39:E:/LiteOS/LiteOS_Lab/iot_link/os/os_imp/liteos/base/ipc\los_event.c **** #include "los_event.inc"
  40:E:/LiteOS/LiteOS_Lab/iot_link/os/os_imp/liteos/base/ipc\los_event.c **** 
  41:E:/LiteOS/LiteOS_Lab/iot_link/os/os_imp/liteos/base/ipc\los_event.c **** #ifdef __cplusplus
  42:E:/LiteOS/LiteOS_Lab/iot_link/os/os_imp/liteos/base/ipc\los_event.c **** #if __cplusplus
  43:E:/LiteOS/LiteOS_Lab/iot_link/os/os_imp/liteos/base/ipc\los_event.c **** extern "C"{
  44:E:/LiteOS/LiteOS_Lab/iot_link/os/os_imp/liteos/base/ipc\los_event.c **** #endif
  45:E:/LiteOS/LiteOS_Lab/iot_link/os/os_imp/liteos/base/ipc\los_event.c **** #endif /* __cplusplus */
  46:E:/LiteOS/LiteOS_Lab/iot_link/os/os_imp/liteos/base/ipc\los_event.c **** 
  47:E:/LiteOS/LiteOS_Lab/iot_link/os/os_imp/liteos/base/ipc\los_event.c **** 
  48:E:/LiteOS/LiteOS_Lab/iot_link/os/os_imp/liteos/base/ipc\los_event.c **** LITE_OS_SEC_TEXT_INIT UINT32 LOS_EventInit(PEVENT_CB_S pstEventCB)
  49:E:/LiteOS/LiteOS_Lab/iot_link/os/os_imp/liteos/base/ipc\los_event.c **** {
 130              		.loc 2 49 0
 131              		.cfi_startproc
 132              		@ args = 0, pretend = 0, frame = 8
 133              		@ frame_needed = 1, uses_anonymous_args = 0
 134 0000 80B5     		push	{r7, lr}
 135              	.LCFI12:
 136              		.cfi_def_cfa_offset 8
 137              		.cfi_offset 7, -8
 138              		.cfi_offset 14, -4
 139 0002 82B0     		sub	sp, sp, #8
ARM GAS  C:\Users\user\AppData\Local\Temp\ccoKVlPn.s 			page 8


 140              	.LCFI13:
 141              		.cfi_def_cfa_offset 16
 142 0004 00AF     		add	r7, sp, #0
 143              	.LCFI14:
 144              		.cfi_def_cfa_register 7
 145 0006 7860     		str	r0, [r7, #4]
  50:E:/LiteOS/LiteOS_Lab/iot_link/os/os_imp/liteos/base/ipc\los_event.c ****     if (pstEventCB == NULL)
 146              		.loc 2 50 0
 147 0008 7B68     		ldr	r3, [r7, #4]
 148 000a 002B     		cmp	r3, #0
 149 000c 01D1     		bne	.L5
  51:E:/LiteOS/LiteOS_Lab/iot_link/os/os_imp/liteos/base/ipc\los_event.c ****     {
  52:E:/LiteOS/LiteOS_Lab/iot_link/os/os_imp/liteos/base/ipc\los_event.c ****         return LOS_ERRNO_EVENT_PTR_NULL;
 150              		.loc 2 52 0
 151 000e 074B     		ldr	r3, .L7
 152 0010 08E0     		b	.L6
 153              	.L5:
  53:E:/LiteOS/LiteOS_Lab/iot_link/os/os_imp/liteos/base/ipc\los_event.c ****     }
  54:E:/LiteOS/LiteOS_Lab/iot_link/os/os_imp/liteos/base/ipc\los_event.c ****     pstEventCB->uwEventID = 0;
 154              		.loc 2 54 0
 155 0012 7B68     		ldr	r3, [r7, #4]
 156 0014 0022     		movs	r2, #0
 157 0016 1A60     		str	r2, [r3]
  55:E:/LiteOS/LiteOS_Lab/iot_link/os/os_imp/liteos/base/ipc\los_event.c ****     LOS_ListInit(&pstEventCB->stEventList);
 158              		.loc 2 55 0
 159 0018 7B68     		ldr	r3, [r7, #4]
 160 001a 0433     		adds	r3, r3, #4
 161 001c 1846     		mov	r0, r3
 162 001e FFF7FEFF 		bl	LOS_ListInit
  56:E:/LiteOS/LiteOS_Lab/iot_link/os/os_imp/liteos/base/ipc\los_event.c ****     return LOS_OK;
 163              		.loc 2 56 0
 164 0022 0023     		movs	r3, #0
 165              	.L6:
  57:E:/LiteOS/LiteOS_Lab/iot_link/os/os_imp/liteos/base/ipc\los_event.c **** }
 166              		.loc 2 57 0
 167 0024 1846     		mov	r0, r3
 168 0026 0837     		adds	r7, r7, #8
 169              	.LCFI15:
 170              		.cfi_def_cfa_offset 8
 171 0028 BD46     		mov	sp, r7
 172              	.LCFI16:
 173              		.cfi_def_cfa_register 13
 174              		@ sp needed
 175 002a 80BD     		pop	{r7, pc}
 176              	.L8:
 177              		.align	2
 178              	.L7:
 179 002c 061C0002 		.word	33561606
 180              		.cfi_endproc
 181              	.LFE133:
 183              		.section	.text.LOS_EventPoll,"ax",%progbits
 184              		.align	1
 185              		.global	LOS_EventPoll
 186              		.syntax unified
 187              		.thumb
 188              		.thumb_func
 189              		.fpu fpv4-sp-d16
ARM GAS  C:\Users\user\AppData\Local\Temp\ccoKVlPn.s 			page 9


 191              	LOS_EventPoll:
 192              	.LFB134:
  58:E:/LiteOS/LiteOS_Lab/iot_link/os/os_imp/liteos/base/ipc\los_event.c **** 
  59:E:/LiteOS/LiteOS_Lab/iot_link/os/os_imp/liteos/base/ipc\los_event.c **** LITE_OS_SEC_TEXT UINT32 LOS_EventPoll(UINT32 *uwEventID, UINT32 uwEventMask, UINT32 uwMode)
  60:E:/LiteOS/LiteOS_Lab/iot_link/os/os_imp/liteos/base/ipc\los_event.c **** {
 193              		.loc 2 60 0
 194              		.cfi_startproc
 195              		@ args = 0, pretend = 0, frame = 24
 196              		@ frame_needed = 1, uses_anonymous_args = 0
 197 0000 80B5     		push	{r7, lr}
 198              	.LCFI17:
 199              		.cfi_def_cfa_offset 8
 200              		.cfi_offset 7, -8
 201              		.cfi_offset 14, -4
 202 0002 86B0     		sub	sp, sp, #24
 203              	.LCFI18:
 204              		.cfi_def_cfa_offset 32
 205 0004 00AF     		add	r7, sp, #0
 206              	.LCFI19:
 207              		.cfi_def_cfa_register 7
 208 0006 F860     		str	r0, [r7, #12]
 209 0008 B960     		str	r1, [r7, #8]
 210 000a 7A60     		str	r2, [r7, #4]
  61:E:/LiteOS/LiteOS_Lab/iot_link/os/os_imp/liteos/base/ipc\los_event.c ****      UINT32     uwRet = 0;
 211              		.loc 2 61 0
 212 000c 0023     		movs	r3, #0
 213 000e 7B61     		str	r3, [r7, #20]
  62:E:/LiteOS/LiteOS_Lab/iot_link/os/os_imp/liteos/base/ipc\los_event.c ****      UINTPTR    uvIntSave;
  63:E:/LiteOS/LiteOS_Lab/iot_link/os/os_imp/liteos/base/ipc\los_event.c **** 
  64:E:/LiteOS/LiteOS_Lab/iot_link/os/os_imp/liteos/base/ipc\los_event.c ****      uvIntSave = LOS_IntLock();
 214              		.loc 2 64 0
 215 0010 FFF7FEFF 		bl	LOS_IntLock
 216 0014 3861     		str	r0, [r7, #16]
  65:E:/LiteOS/LiteOS_Lab/iot_link/os/os_imp/liteos/base/ipc\los_event.c ****      if (uwMode & LOS_WAITMODE_OR)
 217              		.loc 2 65 0
 218 0016 7B68     		ldr	r3, [r7, #4]
 219 0018 03F00203 		and	r3, r3, #2
 220 001c 002B     		cmp	r3, #0
 221 001e 0BD0     		beq	.L10
  66:E:/LiteOS/LiteOS_Lab/iot_link/os/os_imp/liteos/base/ipc\los_event.c ****      {
  67:E:/LiteOS/LiteOS_Lab/iot_link/os/os_imp/liteos/base/ipc\los_event.c ****          if (0 != (*uwEventID & uwEventMask))
 222              		.loc 2 67 0
 223 0020 FB68     		ldr	r3, [r7, #12]
 224 0022 1A68     		ldr	r2, [r3]
 225 0024 BB68     		ldr	r3, [r7, #8]
 226 0026 1340     		ands	r3, r3, r2
 227 0028 002B     		cmp	r3, #0
 228 002a 14D0     		beq	.L12
  68:E:/LiteOS/LiteOS_Lab/iot_link/os/os_imp/liteos/base/ipc\los_event.c ****          {
  69:E:/LiteOS/LiteOS_Lab/iot_link/os/os_imp/liteos/base/ipc\los_event.c ****             uwRet = *uwEventID & uwEventMask;
 229              		.loc 2 69 0
 230 002c FB68     		ldr	r3, [r7, #12]
 231 002e 1B68     		ldr	r3, [r3]
 232 0030 BA68     		ldr	r2, [r7, #8]
 233 0032 1340     		ands	r3, r3, r2
 234 0034 7B61     		str	r3, [r7, #20]
 235 0036 0EE0     		b	.L12
ARM GAS  C:\Users\user\AppData\Local\Temp\ccoKVlPn.s 			page 10


 236              	.L10:
  70:E:/LiteOS/LiteOS_Lab/iot_link/os/os_imp/liteos/base/ipc\los_event.c ****          }
  71:E:/LiteOS/LiteOS_Lab/iot_link/os/os_imp/liteos/base/ipc\los_event.c ****      }
  72:E:/LiteOS/LiteOS_Lab/iot_link/os/os_imp/liteos/base/ipc\los_event.c ****      else
  73:E:/LiteOS/LiteOS_Lab/iot_link/os/os_imp/liteos/base/ipc\los_event.c ****      {
  74:E:/LiteOS/LiteOS_Lab/iot_link/os/os_imp/liteos/base/ipc\los_event.c ****          if ((uwEventMask != 0) && (uwEventMask == (*uwEventID & uwEventMask)))
 237              		.loc 2 74 0
 238 0038 BB68     		ldr	r3, [r7, #8]
 239 003a 002B     		cmp	r3, #0
 240 003c 0BD0     		beq	.L12
 241              		.loc 2 74 0 is_stmt 0 discriminator 1
 242 003e FB68     		ldr	r3, [r7, #12]
 243 0040 1A68     		ldr	r2, [r3]
 244 0042 BB68     		ldr	r3, [r7, #8]
 245 0044 1340     		ands	r3, r3, r2
 246 0046 BA68     		ldr	r2, [r7, #8]
 247 0048 9A42     		cmp	r2, r3
 248 004a 04D1     		bne	.L12
  75:E:/LiteOS/LiteOS_Lab/iot_link/os/os_imp/liteos/base/ipc\los_event.c ****          {
  76:E:/LiteOS/LiteOS_Lab/iot_link/os/os_imp/liteos/base/ipc\los_event.c ****             uwRet = *uwEventID & uwEventMask;
 249              		.loc 2 76 0 is_stmt 1
 250 004c FB68     		ldr	r3, [r7, #12]
 251 004e 1B68     		ldr	r3, [r3]
 252 0050 BA68     		ldr	r2, [r7, #8]
 253 0052 1340     		ands	r3, r3, r2
 254 0054 7B61     		str	r3, [r7, #20]
 255              	.L12:
  77:E:/LiteOS/LiteOS_Lab/iot_link/os/os_imp/liteos/base/ipc\los_event.c ****          }
  78:E:/LiteOS/LiteOS_Lab/iot_link/os/os_imp/liteos/base/ipc\los_event.c ****      }
  79:E:/LiteOS/LiteOS_Lab/iot_link/os/os_imp/liteos/base/ipc\los_event.c **** 
  80:E:/LiteOS/LiteOS_Lab/iot_link/os/os_imp/liteos/base/ipc\los_event.c ****      if (uwRet && (LOS_WAITMODE_CLR & uwMode))
 256              		.loc 2 80 0
 257 0056 7B69     		ldr	r3, [r7, #20]
 258 0058 002B     		cmp	r3, #0
 259 005a 0BD0     		beq	.L13
 260              		.loc 2 80 0 is_stmt 0 discriminator 1
 261 005c 7B68     		ldr	r3, [r7, #4]
 262 005e 03F00103 		and	r3, r3, #1
 263 0062 002B     		cmp	r3, #0
 264 0064 06D0     		beq	.L13
  81:E:/LiteOS/LiteOS_Lab/iot_link/os/os_imp/liteos/base/ipc\los_event.c ****      {
  82:E:/LiteOS/LiteOS_Lab/iot_link/os/os_imp/liteos/base/ipc\los_event.c ****         *uwEventID = *uwEventID & ~(uwRet);
 265              		.loc 2 82 0 is_stmt 1
 266 0066 FB68     		ldr	r3, [r7, #12]
 267 0068 1A68     		ldr	r2, [r3]
 268 006a 7B69     		ldr	r3, [r7, #20]
 269 006c DB43     		mvns	r3, r3
 270 006e 1A40     		ands	r2, r2, r3
 271 0070 FB68     		ldr	r3, [r7, #12]
 272 0072 1A60     		str	r2, [r3]
 273              	.L13:
  83:E:/LiteOS/LiteOS_Lab/iot_link/os/os_imp/liteos/base/ipc\los_event.c ****      }
  84:E:/LiteOS/LiteOS_Lab/iot_link/os/os_imp/liteos/base/ipc\los_event.c **** 
  85:E:/LiteOS/LiteOS_Lab/iot_link/os/os_imp/liteos/base/ipc\los_event.c ****      LOS_IntRestore(uvIntSave);
 274              		.loc 2 85 0
 275 0074 3869     		ldr	r0, [r7, #16]
 276 0076 FFF7FEFF 		bl	LOS_IntRestore
ARM GAS  C:\Users\user\AppData\Local\Temp\ccoKVlPn.s 			page 11


  86:E:/LiteOS/LiteOS_Lab/iot_link/os/os_imp/liteos/base/ipc\los_event.c ****      return uwRet;
 277              		.loc 2 86 0
 278 007a 7B69     		ldr	r3, [r7, #20]
  87:E:/LiteOS/LiteOS_Lab/iot_link/os/os_imp/liteos/base/ipc\los_event.c **** }
 279              		.loc 2 87 0
 280 007c 1846     		mov	r0, r3
 281 007e 1837     		adds	r7, r7, #24
 282              	.LCFI20:
 283              		.cfi_def_cfa_offset 8
 284 0080 BD46     		mov	sp, r7
 285              	.LCFI21:
 286              		.cfi_def_cfa_register 13
 287              		@ sp needed
 288 0082 80BD     		pop	{r7, pc}
 289              		.cfi_endproc
 290              	.LFE134:
 292              		.section	.text.LOS_EventRead,"ax",%progbits
 293              		.align	1
 294              		.global	LOS_EventRead
 295              		.syntax unified
 296              		.thumb
 297              		.thumb_func
 298              		.fpu fpv4-sp-d16
 300              	LOS_EventRead:
 301              	.LFB135:
  88:E:/LiteOS/LiteOS_Lab/iot_link/os/os_imp/liteos/base/ipc\los_event.c **** 
  89:E:/LiteOS/LiteOS_Lab/iot_link/os/os_imp/liteos/base/ipc\los_event.c **** LITE_OS_SEC_TEXT UINT32 LOS_EventRead(PEVENT_CB_S pstEventCB, UINT32 uwEventMask, UINT32 uwMode, UI
  90:E:/LiteOS/LiteOS_Lab/iot_link/os/os_imp/liteos/base/ipc\los_event.c **** {
 302              		.loc 2 90 0
 303              		.cfi_startproc
 304              		@ args = 0, pretend = 0, frame = 32
 305              		@ frame_needed = 1, uses_anonymous_args = 0
 306 0000 80B5     		push	{r7, lr}
 307              	.LCFI22:
 308              		.cfi_def_cfa_offset 8
 309              		.cfi_offset 7, -8
 310              		.cfi_offset 14, -4
 311 0002 88B0     		sub	sp, sp, #32
 312              	.LCFI23:
 313              		.cfi_def_cfa_offset 40
 314 0004 00AF     		add	r7, sp, #0
 315              	.LCFI24:
 316              		.cfi_def_cfa_register 7
 317 0006 F860     		str	r0, [r7, #12]
 318 0008 B960     		str	r1, [r7, #8]
 319 000a 7A60     		str	r2, [r7, #4]
 320 000c 3B60     		str	r3, [r7]
  91:E:/LiteOS/LiteOS_Lab/iot_link/os/os_imp/liteos/base/ipc\los_event.c ****     UINT32      uwRet = 0;
 321              		.loc 2 91 0
 322 000e 0023     		movs	r3, #0
 323 0010 FB61     		str	r3, [r7, #28]
  92:E:/LiteOS/LiteOS_Lab/iot_link/os/os_imp/liteos/base/ipc\los_event.c ****     UINTPTR     uvIntSave;
  93:E:/LiteOS/LiteOS_Lab/iot_link/os/os_imp/liteos/base/ipc\los_event.c ****     LOS_TASK_CB *pstRunTsk;
  94:E:/LiteOS/LiteOS_Lab/iot_link/os/os_imp/liteos/base/ipc\los_event.c **** 
  95:E:/LiteOS/LiteOS_Lab/iot_link/os/os_imp/liteos/base/ipc\los_event.c ****     if (pstEventCB == NULL)
 324              		.loc 2 95 0
 325 0012 FB68     		ldr	r3, [r7, #12]
ARM GAS  C:\Users\user\AppData\Local\Temp\ccoKVlPn.s 			page 12


 326 0014 002B     		cmp	r3, #0
 327 0016 01D1     		bne	.L16
  96:E:/LiteOS/LiteOS_Lab/iot_link/os/os_imp/liteos/base/ipc\los_event.c ****     {
  97:E:/LiteOS/LiteOS_Lab/iot_link/os/os_imp/liteos/base/ipc\los_event.c ****         return LOS_ERRNO_EVENT_PTR_NULL;
 328              		.loc 2 97 0
 329 0018 494B     		ldr	r3, .L31
 330 001a 8CE0     		b	.L17
 331              	.L16:
  98:E:/LiteOS/LiteOS_Lab/iot_link/os/os_imp/liteos/base/ipc\los_event.c ****     }
  99:E:/LiteOS/LiteOS_Lab/iot_link/os/os_imp/liteos/base/ipc\los_event.c **** 
 100:E:/LiteOS/LiteOS_Lab/iot_link/os/os_imp/liteos/base/ipc\los_event.c ****     if ((pstEventCB->stEventList.pstNext == NULL) || (pstEventCB->stEventList.pstPrev == NULL))
 332              		.loc 2 100 0
 333 001c FB68     		ldr	r3, [r7, #12]
 334 001e 9B68     		ldr	r3, [r3, #8]
 335 0020 002B     		cmp	r3, #0
 336 0022 03D0     		beq	.L18
 337              		.loc 2 100 0 is_stmt 0 discriminator 1
 338 0024 FB68     		ldr	r3, [r7, #12]
 339 0026 5B68     		ldr	r3, [r3, #4]
 340 0028 002B     		cmp	r3, #0
 341 002a 01D1     		bne	.L19
 342              	.L18:
 101:E:/LiteOS/LiteOS_Lab/iot_link/os/os_imp/liteos/base/ipc\los_event.c ****     {
 102:E:/LiteOS/LiteOS_Lab/iot_link/os/os_imp/liteos/base/ipc\los_event.c ****         return LOS_ERRNO_EVENT_NOT_INITIALIZED;
 343              		.loc 2 102 0 is_stmt 1
 344 002c 454B     		ldr	r3, .L31+4
 345 002e 82E0     		b	.L17
 346              	.L19:
 103:E:/LiteOS/LiteOS_Lab/iot_link/os/os_imp/liteos/base/ipc\los_event.c ****     }
 104:E:/LiteOS/LiteOS_Lab/iot_link/os/os_imp/liteos/base/ipc\los_event.c **** 
 105:E:/LiteOS/LiteOS_Lab/iot_link/os/os_imp/liteos/base/ipc\los_event.c ****     if (uwEventMask == 0)
 347              		.loc 2 105 0
 348 0030 BB68     		ldr	r3, [r7, #8]
 349 0032 002B     		cmp	r3, #0
 350 0034 01D1     		bne	.L20
 106:E:/LiteOS/LiteOS_Lab/iot_link/os/os_imp/liteos/base/ipc\los_event.c ****     {
 107:E:/LiteOS/LiteOS_Lab/iot_link/os/os_imp/liteos/base/ipc\los_event.c ****         return LOS_ERRNO_EVENT_EVENTMASK_INVALID;
 351              		.loc 2 107 0
 352 0036 444B     		ldr	r3, .L31+8
 353 0038 7DE0     		b	.L17
 354              	.L20:
 108:E:/LiteOS/LiteOS_Lab/iot_link/os/os_imp/liteos/base/ipc\los_event.c ****     }
 109:E:/LiteOS/LiteOS_Lab/iot_link/os/os_imp/liteos/base/ipc\los_event.c **** 
 110:E:/LiteOS/LiteOS_Lab/iot_link/os/os_imp/liteos/base/ipc\los_event.c ****     if (uwEventMask & LOS_ERRTYPE_ERROR)
 355              		.loc 2 110 0
 356 003a BB68     		ldr	r3, [r7, #8]
 357 003c 03F00073 		and	r3, r3, #33554432
 358 0040 002B     		cmp	r3, #0
 359 0042 01D0     		beq	.L21
 111:E:/LiteOS/LiteOS_Lab/iot_link/os/os_imp/liteos/base/ipc\los_event.c ****     {
 112:E:/LiteOS/LiteOS_Lab/iot_link/os/os_imp/liteos/base/ipc\los_event.c ****         return LOS_ERRNO_EVENT_SETBIT_INVALID;
 360              		.loc 2 112 0
 361 0044 414B     		ldr	r3, .L31+12
 362 0046 76E0     		b	.L17
 363              	.L21:
 113:E:/LiteOS/LiteOS_Lab/iot_link/os/os_imp/liteos/base/ipc\los_event.c ****     }
 114:E:/LiteOS/LiteOS_Lab/iot_link/os/os_imp/liteos/base/ipc\los_event.c **** 
ARM GAS  C:\Users\user\AppData\Local\Temp\ccoKVlPn.s 			page 13


 115:E:/LiteOS/LiteOS_Lab/iot_link/os/os_imp/liteos/base/ipc\los_event.c ****     if (((uwMode & LOS_WAITMODE_OR) && (uwMode & LOS_WAITMODE_AND)) ||
 364              		.loc 2 115 0
 365 0048 7B68     		ldr	r3, [r7, #4]
 366 004a 03F00203 		and	r3, r3, #2
 367 004e 002B     		cmp	r3, #0
 368 0050 04D0     		beq	.L22
 369              		.loc 2 115 0 is_stmt 0 discriminator 1
 370 0052 7B68     		ldr	r3, [r7, #4]
 371 0054 03F00403 		and	r3, r3, #4
 372 0058 002B     		cmp	r3, #0
 373 005a 09D1     		bne	.L23
 374              	.L22:
 116:E:/LiteOS/LiteOS_Lab/iot_link/os/os_imp/liteos/base/ipc\los_event.c ****         uwMode & ~(LOS_WAITMODE_OR | LOS_WAITMODE_AND | LOS_WAITMODE_CLR) ||
 375              		.loc 2 116 0 is_stmt 1 discriminator 3
 376 005c 7B68     		ldr	r3, [r7, #4]
 377 005e 23F00703 		bic	r3, r3, #7
 115:E:/LiteOS/LiteOS_Lab/iot_link/os/os_imp/liteos/base/ipc\los_event.c ****         uwMode & ~(LOS_WAITMODE_OR | LOS_WAITMODE_AND | LOS_WAITMODE_CLR) ||
 378              		.loc 2 115 0 discriminator 3
 379 0062 002B     		cmp	r3, #0
 380 0064 04D1     		bne	.L23
 117:E:/LiteOS/LiteOS_Lab/iot_link/os/os_imp/liteos/base/ipc\los_event.c ****         !(uwMode & (LOS_WAITMODE_OR | LOS_WAITMODE_AND)))
 381              		.loc 2 117 0
 382 0066 7B68     		ldr	r3, [r7, #4]
 383 0068 03F00603 		and	r3, r3, #6
 116:E:/LiteOS/LiteOS_Lab/iot_link/os/os_imp/liteos/base/ipc\los_event.c ****         uwMode & ~(LOS_WAITMODE_OR | LOS_WAITMODE_AND | LOS_WAITMODE_CLR) ||
 384              		.loc 2 116 0
 385 006c 002B     		cmp	r3, #0
 386 006e 01D1     		bne	.L24
 387              	.L23:
 118:E:/LiteOS/LiteOS_Lab/iot_link/os/os_imp/liteos/base/ipc\los_event.c ****     {
 119:E:/LiteOS/LiteOS_Lab/iot_link/os/os_imp/liteos/base/ipc\los_event.c ****         return LOS_ERRNO_EVENT_FLAGS_INVALID;
 388              		.loc 2 119 0
 389 0070 374B     		ldr	r3, .L31+16
 390 0072 60E0     		b	.L17
 391              	.L24:
 120:E:/LiteOS/LiteOS_Lab/iot_link/os/os_imp/liteos/base/ipc\los_event.c ****     }
 121:E:/LiteOS/LiteOS_Lab/iot_link/os/os_imp/liteos/base/ipc\los_event.c **** 
 122:E:/LiteOS/LiteOS_Lab/iot_link/os/os_imp/liteos/base/ipc\los_event.c ****     if (OS_INT_ACTIVE)
 392              		.loc 2 122 0
 393 0074 FFF7FEFF 		bl	osIntNumGet
 394 0078 0346     		mov	r3, r0
 395 007a 002B     		cmp	r3, #0
 396 007c 01D0     		beq	.L25
 123:E:/LiteOS/LiteOS_Lab/iot_link/os/os_imp/liteos/base/ipc\los_event.c ****     {
 124:E:/LiteOS/LiteOS_Lab/iot_link/os/os_imp/liteos/base/ipc\los_event.c ****         return LOS_ERRNO_EVENT_READ_IN_INTERRUPT;
 397              		.loc 2 124 0
 398 007e 354B     		ldr	r3, .L31+20
 399 0080 59E0     		b	.L17
 400              	.L25:
 125:E:/LiteOS/LiteOS_Lab/iot_link/os/os_imp/liteos/base/ipc\los_event.c ****     }
 126:E:/LiteOS/LiteOS_Lab/iot_link/os/os_imp/liteos/base/ipc\los_event.c **** 
 127:E:/LiteOS/LiteOS_Lab/iot_link/os/os_imp/liteos/base/ipc\los_event.c ****     uvIntSave = LOS_IntLock();
 401              		.loc 2 127 0
 402 0082 FFF7FEFF 		bl	LOS_IntLock
 403 0086 B861     		str	r0, [r7, #24]
 128:E:/LiteOS/LiteOS_Lab/iot_link/os/os_imp/liteos/base/ipc\los_event.c ****     uwRet = LOS_EventPoll(&(pstEventCB->uwEventID), uwEventMask, uwMode);
 404              		.loc 2 128 0
ARM GAS  C:\Users\user\AppData\Local\Temp\ccoKVlPn.s 			page 14


 405 0088 FB68     		ldr	r3, [r7, #12]
 406 008a 7A68     		ldr	r2, [r7, #4]
 407 008c B968     		ldr	r1, [r7, #8]
 408 008e 1846     		mov	r0, r3
 409 0090 FFF7FEFF 		bl	LOS_EventPoll
 410 0094 F861     		str	r0, [r7, #28]
 129:E:/LiteOS/LiteOS_Lab/iot_link/os/os_imp/liteos/base/ipc\los_event.c **** 
 130:E:/LiteOS/LiteOS_Lab/iot_link/os/os_imp/liteos/base/ipc\los_event.c ****     if (uwRet == 0)
 411              		.loc 2 130 0
 412 0096 FB69     		ldr	r3, [r7, #28]
 413 0098 002B     		cmp	r3, #0
 414 009a 48D1     		bne	.L26
 131:E:/LiteOS/LiteOS_Lab/iot_link/os/os_imp/liteos/base/ipc\los_event.c ****     {
 132:E:/LiteOS/LiteOS_Lab/iot_link/os/os_imp/liteos/base/ipc\los_event.c ****         if (uwTimeOut == 0)
 415              		.loc 2 132 0
 416 009c 3B68     		ldr	r3, [r7]
 417 009e 002B     		cmp	r3, #0
 418 00a0 04D1     		bne	.L27
 133:E:/LiteOS/LiteOS_Lab/iot_link/os/os_imp/liteos/base/ipc\los_event.c ****         {
 134:E:/LiteOS/LiteOS_Lab/iot_link/os/os_imp/liteos/base/ipc\los_event.c ****             (VOID)LOS_IntRestore(uvIntSave);
 419              		.loc 2 134 0
 420 00a2 B869     		ldr	r0, [r7, #24]
 421 00a4 FFF7FEFF 		bl	LOS_IntRestore
 135:E:/LiteOS/LiteOS_Lab/iot_link/os/os_imp/liteos/base/ipc\los_event.c ****             return uwRet;
 422              		.loc 2 135 0
 423 00a8 FB69     		ldr	r3, [r7, #28]
 424 00aa 44E0     		b	.L17
 425              	.L27:
 136:E:/LiteOS/LiteOS_Lab/iot_link/os/os_imp/liteos/base/ipc\los_event.c ****         }
 137:E:/LiteOS/LiteOS_Lab/iot_link/os/os_imp/liteos/base/ipc\los_event.c **** 
 138:E:/LiteOS/LiteOS_Lab/iot_link/os/os_imp/liteos/base/ipc\los_event.c ****         if (g_usLosTaskLock)
 426              		.loc 2 138 0
 427 00ac 2A4B     		ldr	r3, .L31+24
 428 00ae 1B88     		ldrh	r3, [r3]
 429 00b0 002B     		cmp	r3, #0
 430 00b2 04D0     		beq	.L28
 139:E:/LiteOS/LiteOS_Lab/iot_link/os/os_imp/liteos/base/ipc\los_event.c ****         {
 140:E:/LiteOS/LiteOS_Lab/iot_link/os/os_imp/liteos/base/ipc\los_event.c ****             (VOID)LOS_IntRestore(uvIntSave);
 431              		.loc 2 140 0
 432 00b4 B869     		ldr	r0, [r7, #24]
 433 00b6 FFF7FEFF 		bl	LOS_IntRestore
 141:E:/LiteOS/LiteOS_Lab/iot_link/os/os_imp/liteos/base/ipc\los_event.c ****             return LOS_ERRNO_EVENT_READ_IN_LOCK;
 434              		.loc 2 141 0
 435 00ba 284B     		ldr	r3, .L31+28
 436 00bc 3BE0     		b	.L17
 437              	.L28:
 142:E:/LiteOS/LiteOS_Lab/iot_link/os/os_imp/liteos/base/ipc\los_event.c ****         }
 143:E:/LiteOS/LiteOS_Lab/iot_link/os/os_imp/liteos/base/ipc\los_event.c **** 
 144:E:/LiteOS/LiteOS_Lab/iot_link/os/os_imp/liteos/base/ipc\los_event.c ****         pstRunTsk = g_stLosTask.pstRunTask;
 438              		.loc 2 144 0
 439 00be 284B     		ldr	r3, .L31+32
 440 00c0 1B68     		ldr	r3, [r3]
 441 00c2 7B61     		str	r3, [r7, #20]
 145:E:/LiteOS/LiteOS_Lab/iot_link/os/os_imp/liteos/base/ipc\los_event.c ****         pstRunTsk->uwEventMask = uwEventMask;
 442              		.loc 2 145 0
 443 00c4 7B69     		ldr	r3, [r7, #20]
 444 00c6 BA68     		ldr	r2, [r7, #8]
ARM GAS  C:\Users\user\AppData\Local\Temp\ccoKVlPn.s 			page 15


 445 00c8 9A64     		str	r2, [r3, #72]
 146:E:/LiteOS/LiteOS_Lab/iot_link/os/os_imp/liteos/base/ipc\los_event.c ****         pstRunTsk->uwEventMode = uwMode;
 446              		.loc 2 146 0
 447 00ca 7B69     		ldr	r3, [r7, #20]
 448 00cc 7A68     		ldr	r2, [r7, #4]
 449 00ce DA64     		str	r2, [r3, #76]
 147:E:/LiteOS/LiteOS_Lab/iot_link/os/os_imp/liteos/base/ipc\los_event.c ****         osTaskWait(&pstEventCB->stEventList, OS_TASK_STATUS_PEND, uwTimeOut);
 450              		.loc 2 147 0
 451 00d0 FB68     		ldr	r3, [r7, #12]
 452 00d2 0433     		adds	r3, r3, #4
 453 00d4 3A68     		ldr	r2, [r7]
 454 00d6 0821     		movs	r1, #8
 455 00d8 1846     		mov	r0, r3
 456 00da FFF7FEFF 		bl	osTaskWait
 148:E:/LiteOS/LiteOS_Lab/iot_link/os/os_imp/liteos/base/ipc\los_event.c ****         (VOID)LOS_IntRestore(uvIntSave);
 457              		.loc 2 148 0
 458 00de B869     		ldr	r0, [r7, #24]
 459 00e0 FFF7FEFF 		bl	LOS_IntRestore
 149:E:/LiteOS/LiteOS_Lab/iot_link/os/os_imp/liteos/base/ipc\los_event.c ****         LOS_Schedule();
 460              		.loc 2 149 0
 461 00e4 FFF7FEFF 		bl	LOS_Schedule
 150:E:/LiteOS/LiteOS_Lab/iot_link/os/os_imp/liteos/base/ipc\los_event.c **** 
 151:E:/LiteOS/LiteOS_Lab/iot_link/os/os_imp/liteos/base/ipc\los_event.c ****         if (pstRunTsk->usTaskStatus & OS_TASK_STATUS_TIMEOUT)
 462              		.loc 2 151 0
 463 00e8 7B69     		ldr	r3, [r7, #20]
 464 00ea 9B88     		ldrh	r3, [r3, #4]
 465 00ec 03F04003 		and	r3, r3, #64
 466 00f0 002B     		cmp	r3, #0
 467 00f2 0ED0     		beq	.L29
 152:E:/LiteOS/LiteOS_Lab/iot_link/os/os_imp/liteos/base/ipc\los_event.c ****         {
 153:E:/LiteOS/LiteOS_Lab/iot_link/os/os_imp/liteos/base/ipc\los_event.c ****             uvIntSave = LOS_IntLock();
 468              		.loc 2 153 0
 469 00f4 FFF7FEFF 		bl	LOS_IntLock
 470 00f8 B861     		str	r0, [r7, #24]
 154:E:/LiteOS/LiteOS_Lab/iot_link/os/os_imp/liteos/base/ipc\los_event.c ****             pstRunTsk->usTaskStatus &= (~OS_TASK_STATUS_TIMEOUT);
 471              		.loc 2 154 0
 472 00fa 7B69     		ldr	r3, [r7, #20]
 473 00fc 9B88     		ldrh	r3, [r3, #4]
 474 00fe 23F04003 		bic	r3, r3, #64
 475 0102 9AB2     		uxth	r2, r3
 476 0104 7B69     		ldr	r3, [r7, #20]
 477 0106 9A80     		strh	r2, [r3, #4]	@ movhi
 155:E:/LiteOS/LiteOS_Lab/iot_link/os/os_imp/liteos/base/ipc\los_event.c ****             (VOID)LOS_IntRestore(uvIntSave);
 478              		.loc 2 155 0
 479 0108 B869     		ldr	r0, [r7, #24]
 480 010a FFF7FEFF 		bl	LOS_IntRestore
 156:E:/LiteOS/LiteOS_Lab/iot_link/os/os_imp/liteos/base/ipc\los_event.c ****             return LOS_ERRNO_EVENT_READ_TIMEOUT;
 481              		.loc 2 156 0
 482 010e 154B     		ldr	r3, .L31+36
 483 0110 11E0     		b	.L17
 484              	.L29:
 157:E:/LiteOS/LiteOS_Lab/iot_link/os/os_imp/liteos/base/ipc\los_event.c ****         }
 158:E:/LiteOS/LiteOS_Lab/iot_link/os/os_imp/liteos/base/ipc\los_event.c **** 
 159:E:/LiteOS/LiteOS_Lab/iot_link/os/os_imp/liteos/base/ipc\los_event.c ****         uvIntSave = LOS_IntLock();
 485              		.loc 2 159 0
 486 0112 FFF7FEFF 		bl	LOS_IntLock
 487 0116 B861     		str	r0, [r7, #24]
ARM GAS  C:\Users\user\AppData\Local\Temp\ccoKVlPn.s 			page 16


 160:E:/LiteOS/LiteOS_Lab/iot_link/os/os_imp/liteos/base/ipc\los_event.c ****         uwRet = LOS_EventPoll(&pstEventCB->uwEventID,uwEventMask,uwMode);
 488              		.loc 2 160 0
 489 0118 FB68     		ldr	r3, [r7, #12]
 490 011a 7A68     		ldr	r2, [r7, #4]
 491 011c B968     		ldr	r1, [r7, #8]
 492 011e 1846     		mov	r0, r3
 493 0120 FFF7FEFF 		bl	LOS_EventPoll
 494 0124 F861     		str	r0, [r7, #28]
 161:E:/LiteOS/LiteOS_Lab/iot_link/os/os_imp/liteos/base/ipc\los_event.c ****         (VOID)LOS_IntRestore(uvIntSave);
 495              		.loc 2 161 0
 496 0126 B869     		ldr	r0, [r7, #24]
 497 0128 FFF7FEFF 		bl	LOS_IntRestore
 498 012c 02E0     		b	.L30
 499              	.L26:
 162:E:/LiteOS/LiteOS_Lab/iot_link/os/os_imp/liteos/base/ipc\los_event.c ****     }
 163:E:/LiteOS/LiteOS_Lab/iot_link/os/os_imp/liteos/base/ipc\los_event.c ****     else
 164:E:/LiteOS/LiteOS_Lab/iot_link/os/os_imp/liteos/base/ipc\los_event.c ****     {
 165:E:/LiteOS/LiteOS_Lab/iot_link/os/os_imp/liteos/base/ipc\los_event.c ****         (VOID)LOS_IntRestore(uvIntSave);
 500              		.loc 2 165 0
 501 012e B869     		ldr	r0, [r7, #24]
 502 0130 FFF7FEFF 		bl	LOS_IntRestore
 503              	.L30:
 166:E:/LiteOS/LiteOS_Lab/iot_link/os/os_imp/liteos/base/ipc\los_event.c ****     }
 167:E:/LiteOS/LiteOS_Lab/iot_link/os/os_imp/liteos/base/ipc\los_event.c **** 
 168:E:/LiteOS/LiteOS_Lab/iot_link/os/os_imp/liteos/base/ipc\los_event.c ****     return uwRet;
 504              		.loc 2 168 0
 505 0134 FB69     		ldr	r3, [r7, #28]
 506              	.L17:
 169:E:/LiteOS/LiteOS_Lab/iot_link/os/os_imp/liteos/base/ipc\los_event.c **** }
 507              		.loc 2 169 0
 508 0136 1846     		mov	r0, r3
 509 0138 2037     		adds	r7, r7, #32
 510              	.LCFI25:
 511              		.cfi_def_cfa_offset 8
 512 013a BD46     		mov	sp, r7
 513              	.LCFI26:
 514              		.cfi_def_cfa_register 13
 515              		@ sp needed
 516 013c 80BD     		pop	{r7, pc}
 517              	.L32:
 518 013e 00BF     		.align	2
 519              	.L31:
 520 0140 061C0002 		.word	33561606
 521 0144 071C0002 		.word	33561607
 522 0148 021C0002 		.word	33561602
 523 014c 001C0002 		.word	33561600
 524 0150 041C0002 		.word	33561604
 525 0154 031C0002 		.word	33561603
 526 0158 00000000 		.word	g_usLosTaskLock
 527 015c 051C0002 		.word	33561605
 528 0160 00000000 		.word	g_stLosTask
 529 0164 011C0002 		.word	33561601
 530              		.cfi_endproc
 531              	.LFE135:
 533              		.section	.text.LOS_EventWrite,"ax",%progbits
 534              		.align	1
 535              		.global	LOS_EventWrite
ARM GAS  C:\Users\user\AppData\Local\Temp\ccoKVlPn.s 			page 17


 536              		.syntax unified
 537              		.thumb
 538              		.thumb_func
 539              		.fpu fpv4-sp-d16
 541              	LOS_EventWrite:
 542              	.LFB136:
 170:E:/LiteOS/LiteOS_Lab/iot_link/os/os_imp/liteos/base/ipc\los_event.c **** 
 171:E:/LiteOS/LiteOS_Lab/iot_link/os/os_imp/liteos/base/ipc\los_event.c **** LITE_OS_SEC_TEXT UINT32 LOS_EventWrite(PEVENT_CB_S pstEventCB, UINT32 uwEvents)
 172:E:/LiteOS/LiteOS_Lab/iot_link/os/os_imp/liteos/base/ipc\los_event.c **** {
 543              		.loc 2 172 0
 544              		.cfi_startproc
 545              		@ args = 0, pretend = 0, frame = 24
 546              		@ frame_needed = 1, uses_anonymous_args = 0
 547 0000 80B5     		push	{r7, lr}
 548              	.LCFI27:
 549              		.cfi_def_cfa_offset 8
 550              		.cfi_offset 7, -8
 551              		.cfi_offset 14, -4
 552 0002 86B0     		sub	sp, sp, #24
 553              	.LCFI28:
 554              		.cfi_def_cfa_offset 32
 555 0004 00AF     		add	r7, sp, #0
 556              	.LCFI29:
 557              		.cfi_def_cfa_register 7
 558 0006 7860     		str	r0, [r7, #4]
 559 0008 3960     		str	r1, [r7]
 173:E:/LiteOS/LiteOS_Lab/iot_link/os/os_imp/liteos/base/ipc\los_event.c ****     LOS_TASK_CB *pstResumedTask;
 174:E:/LiteOS/LiteOS_Lab/iot_link/os/os_imp/liteos/base/ipc\los_event.c ****     LOS_TASK_CB *pstNextTask = (LOS_TASK_CB *)NULL;
 560              		.loc 2 174 0
 561 000a 0023     		movs	r3, #0
 562 000c FB60     		str	r3, [r7, #12]
 175:E:/LiteOS/LiteOS_Lab/iot_link/os/os_imp/liteos/base/ipc\los_event.c ****     UINTPTR     uvIntSave;
 176:E:/LiteOS/LiteOS_Lab/iot_link/os/os_imp/liteos/base/ipc\los_event.c ****     UINT8       ucExitFlag = 0;
 563              		.loc 2 176 0
 564 000e 0023     		movs	r3, #0
 565 0010 FB74     		strb	r3, [r7, #19]
 177:E:/LiteOS/LiteOS_Lab/iot_link/os/os_imp/liteos/base/ipc\los_event.c **** 
 178:E:/LiteOS/LiteOS_Lab/iot_link/os/os_imp/liteos/base/ipc\los_event.c ****     if (pstEventCB == NULL)
 566              		.loc 2 178 0
 567 0012 7B68     		ldr	r3, [r7, #4]
 568 0014 002B     		cmp	r3, #0
 569 0016 01D1     		bne	.L34
 179:E:/LiteOS/LiteOS_Lab/iot_link/os/os_imp/liteos/base/ipc\los_event.c ****     {
 180:E:/LiteOS/LiteOS_Lab/iot_link/os/os_imp/liteos/base/ipc\los_event.c ****         return LOS_ERRNO_EVENT_PTR_NULL;
 570              		.loc 2 180 0
 571 0018 344B     		ldr	r3, .L45
 572 001a 62E0     		b	.L35
 573              	.L34:
 181:E:/LiteOS/LiteOS_Lab/iot_link/os/os_imp/liteos/base/ipc\los_event.c ****     }
 182:E:/LiteOS/LiteOS_Lab/iot_link/os/os_imp/liteos/base/ipc\los_event.c **** 
 183:E:/LiteOS/LiteOS_Lab/iot_link/os/os_imp/liteos/base/ipc\los_event.c ****     if ((pstEventCB->stEventList.pstNext == NULL) || (pstEventCB->stEventList.pstPrev == NULL))
 574              		.loc 2 183 0
 575 001c 7B68     		ldr	r3, [r7, #4]
 576 001e 9B68     		ldr	r3, [r3, #8]
 577 0020 002B     		cmp	r3, #0
 578 0022 03D0     		beq	.L36
 579              		.loc 2 183 0 is_stmt 0 discriminator 1
ARM GAS  C:\Users\user\AppData\Local\Temp\ccoKVlPn.s 			page 18


 580 0024 7B68     		ldr	r3, [r7, #4]
 581 0026 5B68     		ldr	r3, [r3, #4]
 582 0028 002B     		cmp	r3, #0
 583 002a 01D1     		bne	.L37
 584              	.L36:
 184:E:/LiteOS/LiteOS_Lab/iot_link/os/os_imp/liteos/base/ipc\los_event.c ****     {
 185:E:/LiteOS/LiteOS_Lab/iot_link/os/os_imp/liteos/base/ipc\los_event.c ****         return LOS_ERRNO_EVENT_NOT_INITIALIZED;
 585              		.loc 2 185 0 is_stmt 1
 586 002c 304B     		ldr	r3, .L45+4
 587 002e 58E0     		b	.L35
 588              	.L37:
 186:E:/LiteOS/LiteOS_Lab/iot_link/os/os_imp/liteos/base/ipc\los_event.c ****     }
 187:E:/LiteOS/LiteOS_Lab/iot_link/os/os_imp/liteos/base/ipc\los_event.c **** 
 188:E:/LiteOS/LiteOS_Lab/iot_link/os/os_imp/liteos/base/ipc\los_event.c ****     if (uwEvents & LOS_ERRTYPE_ERROR)
 589              		.loc 2 188 0
 590 0030 3B68     		ldr	r3, [r7]
 591 0032 03F00073 		and	r3, r3, #33554432
 592 0036 002B     		cmp	r3, #0
 593 0038 01D0     		beq	.L38
 189:E:/LiteOS/LiteOS_Lab/iot_link/os/os_imp/liteos/base/ipc\los_event.c ****     {
 190:E:/LiteOS/LiteOS_Lab/iot_link/os/os_imp/liteos/base/ipc\los_event.c ****         return LOS_ERRNO_EVENT_SETBIT_INVALID;
 594              		.loc 2 190 0
 595 003a 2E4B     		ldr	r3, .L45+8
 596 003c 51E0     		b	.L35
 597              	.L38:
 191:E:/LiteOS/LiteOS_Lab/iot_link/os/os_imp/liteos/base/ipc\los_event.c ****     }
 192:E:/LiteOS/LiteOS_Lab/iot_link/os/os_imp/liteos/base/ipc\los_event.c **** 
 193:E:/LiteOS/LiteOS_Lab/iot_link/os/os_imp/liteos/base/ipc\los_event.c ****     uvIntSave = LOS_IntLock();
 598              		.loc 2 193 0
 599 003e FFF7FEFF 		bl	LOS_IntLock
 600 0042 B860     		str	r0, [r7, #8]
 194:E:/LiteOS/LiteOS_Lab/iot_link/os/os_imp/liteos/base/ipc\los_event.c **** 
 195:E:/LiteOS/LiteOS_Lab/iot_link/os/os_imp/liteos/base/ipc\los_event.c ****     pstEventCB->uwEventID |= uwEvents;
 601              		.loc 2 195 0
 602 0044 7B68     		ldr	r3, [r7, #4]
 603 0046 1A68     		ldr	r2, [r3]
 604 0048 3B68     		ldr	r3, [r7]
 605 004a 1A43     		orrs	r2, r2, r3
 606 004c 7B68     		ldr	r3, [r7, #4]
 607 004e 1A60     		str	r2, [r3]
 196:E:/LiteOS/LiteOS_Lab/iot_link/os/os_imp/liteos/base/ipc\los_event.c ****     if (!LOS_ListEmpty(&pstEventCB->stEventList))
 608              		.loc 2 196 0
 609 0050 7B68     		ldr	r3, [r7, #4]
 610 0052 0433     		adds	r3, r3, #4
 611 0054 1846     		mov	r0, r3
 612 0056 FFF7FEFF 		bl	LOS_ListEmpty
 613 005a 0346     		mov	r3, r0
 614 005c 002B     		cmp	r3, #0
 615 005e 3CD1     		bne	.L39
 197:E:/LiteOS/LiteOS_Lab/iot_link/os/os_imp/liteos/base/ipc\los_event.c ****     {
 198:E:/LiteOS/LiteOS_Lab/iot_link/os/os_imp/liteos/base/ipc\los_event.c ****         for (pstResumedTask = LOS_DL_LIST_ENTRY((&pstEventCB->stEventList)->pstNext, LOS_TASK_CB, s
 616              		.loc 2 198 0
 617 0060 7B68     		ldr	r3, [r7, #4]
 618 0062 9B68     		ldr	r3, [r3, #8]
 619 0064 283B     		subs	r3, r3, #40
 620 0066 7B61     		str	r3, [r7, #20]
 621 0068 26E0     		b	.L40
ARM GAS  C:\Users\user\AppData\Local\Temp\ccoKVlPn.s 			page 19


 622              	.L44:
 199:E:/LiteOS/LiteOS_Lab/iot_link/os/os_imp/liteos/base/ipc\los_event.c ****             &pstResumedTask->stPendList != (&pstEventCB->stEventList);)
 200:E:/LiteOS/LiteOS_Lab/iot_link/os/os_imp/liteos/base/ipc\los_event.c ****         {
 201:E:/LiteOS/LiteOS_Lab/iot_link/os/os_imp/liteos/base/ipc\los_event.c ****             pstNextTask = LOS_DL_LIST_ENTRY(pstResumedTask->stPendList.pstNext, LOS_TASK_CB, stPend
 623              		.loc 2 201 0
 624 006a 7B69     		ldr	r3, [r7, #20]
 625 006c DB6A     		ldr	r3, [r3, #44]
 626 006e 283B     		subs	r3, r3, #40
 627 0070 FB60     		str	r3, [r7, #12]
 202:E:/LiteOS/LiteOS_Lab/iot_link/os/os_imp/liteos/base/ipc\los_event.c **** 
 203:E:/LiteOS/LiteOS_Lab/iot_link/os/os_imp/liteos/base/ipc\los_event.c ****             if (((pstResumedTask->uwEventMode & LOS_WAITMODE_OR) && (pstResumedTask->uwEventMask & 
 628              		.loc 2 203 0
 629 0072 7B69     		ldr	r3, [r7, #20]
 630 0074 DB6C     		ldr	r3, [r3, #76]
 631 0076 03F00203 		and	r3, r3, #2
 632 007a 002B     		cmp	r3, #0
 633 007c 05D0     		beq	.L41
 634              		.loc 2 203 0 is_stmt 0 discriminator 1
 635 007e 7B69     		ldr	r3, [r7, #20]
 636 0080 9A6C     		ldr	r2, [r3, #72]
 637 0082 3B68     		ldr	r3, [r7]
 638 0084 1340     		ands	r3, r3, r2
 639 0086 002B     		cmp	r3, #0
 640 0088 0ED1     		bne	.L42
 641              	.L41:
 204:E:/LiteOS/LiteOS_Lab/iot_link/os/os_imp/liteos/base/ipc\los_event.c ****                 ((pstResumedTask->uwEventMode & LOS_WAITMODE_AND) && (pstResumedTask->uwEventMask &
 642              		.loc 2 204 0 is_stmt 1 discriminator 3
 643 008a 7B69     		ldr	r3, [r7, #20]
 644 008c DB6C     		ldr	r3, [r3, #76]
 645 008e 03F00403 		and	r3, r3, #4
 203:E:/LiteOS/LiteOS_Lab/iot_link/os/os_imp/liteos/base/ipc\los_event.c ****                 ((pstResumedTask->uwEventMode & LOS_WAITMODE_AND) && (pstResumedTask->uwEventMask &
 646              		.loc 2 203 0 discriminator 3
 647 0092 002B     		cmp	r3, #0
 648 0094 0ED0     		beq	.L43
 649              		.loc 2 204 0
 650 0096 7B69     		ldr	r3, [r7, #20]
 651 0098 9A6C     		ldr	r2, [r3, #72]
 652 009a 7B68     		ldr	r3, [r7, #4]
 653 009c 1B68     		ldr	r3, [r3]
 654 009e 1A40     		ands	r2, r2, r3
 655 00a0 7B69     		ldr	r3, [r7, #20]
 656 00a2 9B6C     		ldr	r3, [r3, #72]
 657 00a4 9A42     		cmp	r2, r3
 658 00a6 05D1     		bne	.L43
 659              	.L42:
 205:E:/LiteOS/LiteOS_Lab/iot_link/os/os_imp/liteos/base/ipc\los_event.c ****             {
 206:E:/LiteOS/LiteOS_Lab/iot_link/os/os_imp/liteos/base/ipc\los_event.c ****                 ucExitFlag = 1;
 660              		.loc 2 206 0
 661 00a8 0123     		movs	r3, #1
 662 00aa FB74     		strb	r3, [r7, #19]
 207:E:/LiteOS/LiteOS_Lab/iot_link/os/os_imp/liteos/base/ipc\los_event.c **** 
 208:E:/LiteOS/LiteOS_Lab/iot_link/os/os_imp/liteos/base/ipc\los_event.c ****                 osTaskWake(pstResumedTask, OS_TASK_STATUS_PEND);
 663              		.loc 2 208 0
 664 00ac 0821     		movs	r1, #8
 665 00ae 7869     		ldr	r0, [r7, #20]
 666 00b0 FFF7FEFF 		bl	osTaskWake
 667              	.L43:
ARM GAS  C:\Users\user\AppData\Local\Temp\ccoKVlPn.s 			page 20


 209:E:/LiteOS/LiteOS_Lab/iot_link/os/os_imp/liteos/base/ipc\los_event.c ****             }
 210:E:/LiteOS/LiteOS_Lab/iot_link/os/os_imp/liteos/base/ipc\los_event.c ****             pstResumedTask = pstNextTask;
 668              		.loc 2 210 0
 669 00b4 FB68     		ldr	r3, [r7, #12]
 670 00b6 7B61     		str	r3, [r7, #20]
 671              	.L40:
 199:E:/LiteOS/LiteOS_Lab/iot_link/os/os_imp/liteos/base/ipc\los_event.c ****         {
 672              		.loc 2 199 0 discriminator 1
 673 00b8 7B69     		ldr	r3, [r7, #20]
 674 00ba 03F12802 		add	r2, r3, #40
 675 00be 7B68     		ldr	r3, [r7, #4]
 676 00c0 0433     		adds	r3, r3, #4
 198:E:/LiteOS/LiteOS_Lab/iot_link/os/os_imp/liteos/base/ipc\los_event.c ****             &pstResumedTask->stPendList != (&pstEventCB->stEventList);)
 677              		.loc 2 198 0 discriminator 1
 678 00c2 9A42     		cmp	r2, r3
 679 00c4 D1D1     		bne	.L44
 211:E:/LiteOS/LiteOS_Lab/iot_link/os/os_imp/liteos/base/ipc\los_event.c ****         }
 212:E:/LiteOS/LiteOS_Lab/iot_link/os/os_imp/liteos/base/ipc\los_event.c **** 
 213:E:/LiteOS/LiteOS_Lab/iot_link/os/os_imp/liteos/base/ipc\los_event.c ****         if (ucExitFlag == 1)
 680              		.loc 2 213 0
 681 00c6 FB7C     		ldrb	r3, [r7, #19]	@ zero_extendqisi2
 682 00c8 012B     		cmp	r3, #1
 683 00ca 06D1     		bne	.L39
 214:E:/LiteOS/LiteOS_Lab/iot_link/os/os_imp/liteos/base/ipc\los_event.c ****         {
 215:E:/LiteOS/LiteOS_Lab/iot_link/os/os_imp/liteos/base/ipc\los_event.c ****             (VOID)LOS_IntRestore(uvIntSave);
 684              		.loc 2 215 0
 685 00cc B868     		ldr	r0, [r7, #8]
 686 00ce FFF7FEFF 		bl	LOS_IntRestore
 216:E:/LiteOS/LiteOS_Lab/iot_link/os/os_imp/liteos/base/ipc\los_event.c ****             LOS_Schedule();
 687              		.loc 2 216 0
 688 00d2 FFF7FEFF 		bl	LOS_Schedule
 217:E:/LiteOS/LiteOS_Lab/iot_link/os/os_imp/liteos/base/ipc\los_event.c ****             return LOS_OK;
 689              		.loc 2 217 0
 690 00d6 0023     		movs	r3, #0
 691 00d8 03E0     		b	.L35
 692              	.L39:
 218:E:/LiteOS/LiteOS_Lab/iot_link/os/os_imp/liteos/base/ipc\los_event.c ****         }
 219:E:/LiteOS/LiteOS_Lab/iot_link/os/os_imp/liteos/base/ipc\los_event.c ****     }
 220:E:/LiteOS/LiteOS_Lab/iot_link/os/os_imp/liteos/base/ipc\los_event.c **** 
 221:E:/LiteOS/LiteOS_Lab/iot_link/os/os_imp/liteos/base/ipc\los_event.c ****     (VOID)LOS_IntRestore(uvIntSave);
 693              		.loc 2 221 0
 694 00da B868     		ldr	r0, [r7, #8]
 695 00dc FFF7FEFF 		bl	LOS_IntRestore
 222:E:/LiteOS/LiteOS_Lab/iot_link/os/os_imp/liteos/base/ipc\los_event.c ****     return LOS_OK;
 696              		.loc 2 222 0
 697 00e0 0023     		movs	r3, #0
 698              	.L35:
 223:E:/LiteOS/LiteOS_Lab/iot_link/os/os_imp/liteos/base/ipc\los_event.c **** }
 699              		.loc 2 223 0
 700 00e2 1846     		mov	r0, r3
 701 00e4 1837     		adds	r7, r7, #24
 702              	.LCFI30:
 703              		.cfi_def_cfa_offset 8
 704 00e6 BD46     		mov	sp, r7
 705              	.LCFI31:
 706              		.cfi_def_cfa_register 13
 707              		@ sp needed
ARM GAS  C:\Users\user\AppData\Local\Temp\ccoKVlPn.s 			page 21


 708 00e8 80BD     		pop	{r7, pc}
 709              	.L46:
 710 00ea 00BF     		.align	2
 711              	.L45:
 712 00ec 061C0002 		.word	33561606
 713 00f0 071C0002 		.word	33561607
 714 00f4 001C0002 		.word	33561600
 715              		.cfi_endproc
 716              	.LFE136:
 718              		.section	.text.LOS_EventDestroy,"ax",%progbits
 719              		.align	1
 720              		.global	LOS_EventDestroy
 721              		.syntax unified
 722              		.thumb
 723              		.thumb_func
 724              		.fpu fpv4-sp-d16
 726              	LOS_EventDestroy:
 727              	.LFB137:
 224:E:/LiteOS/LiteOS_Lab/iot_link/os/os_imp/liteos/base/ipc\los_event.c **** 
 225:E:/LiteOS/LiteOS_Lab/iot_link/os/os_imp/liteos/base/ipc\los_event.c **** LITE_OS_SEC_TEXT_INIT UINT32 LOS_EventDestroy(PEVENT_CB_S pstEventCB)
 226:E:/LiteOS/LiteOS_Lab/iot_link/os/os_imp/liteos/base/ipc\los_event.c **** {
 728              		.loc 2 226 0
 729              		.cfi_startproc
 730              		@ args = 0, pretend = 0, frame = 16
 731              		@ frame_needed = 1, uses_anonymous_args = 0
 732 0000 80B5     		push	{r7, lr}
 733              	.LCFI32:
 734              		.cfi_def_cfa_offset 8
 735              		.cfi_offset 7, -8
 736              		.cfi_offset 14, -4
 737 0002 84B0     		sub	sp, sp, #16
 738              	.LCFI33:
 739              		.cfi_def_cfa_offset 24
 740 0004 00AF     		add	r7, sp, #0
 741              	.LCFI34:
 742              		.cfi_def_cfa_register 7
 743 0006 7860     		str	r0, [r7, #4]
 227:E:/LiteOS/LiteOS_Lab/iot_link/os/os_imp/liteos/base/ipc\los_event.c ****     UINTPTR uvIntSave;
 228:E:/LiteOS/LiteOS_Lab/iot_link/os/os_imp/liteos/base/ipc\los_event.c **** 
 229:E:/LiteOS/LiteOS_Lab/iot_link/os/os_imp/liteos/base/ipc\los_event.c ****     if (pstEventCB == NULL)
 744              		.loc 2 229 0
 745 0008 7B68     		ldr	r3, [r7, #4]
 746 000a 002B     		cmp	r3, #0
 747 000c 01D1     		bne	.L48
 230:E:/LiteOS/LiteOS_Lab/iot_link/os/os_imp/liteos/base/ipc\los_event.c ****     {
 231:E:/LiteOS/LiteOS_Lab/iot_link/os/os_imp/liteos/base/ipc\los_event.c ****         return LOS_ERRNO_EVENT_PTR_NULL;
 748              		.loc 2 231 0
 749 000e 104B     		ldr	r3, .L51
 750 0010 19E0     		b	.L49
 751              	.L48:
 232:E:/LiteOS/LiteOS_Lab/iot_link/os/os_imp/liteos/base/ipc\los_event.c ****     }
 233:E:/LiteOS/LiteOS_Lab/iot_link/os/os_imp/liteos/base/ipc\los_event.c **** 
 234:E:/LiteOS/LiteOS_Lab/iot_link/os/os_imp/liteos/base/ipc\los_event.c ****     uvIntSave = LOS_IntLock();
 752              		.loc 2 234 0
 753 0012 FFF7FEFF 		bl	LOS_IntLock
 754 0016 F860     		str	r0, [r7, #12]
 235:E:/LiteOS/LiteOS_Lab/iot_link/os/os_imp/liteos/base/ipc\los_event.c **** 
ARM GAS  C:\Users\user\AppData\Local\Temp\ccoKVlPn.s 			page 22


 236:E:/LiteOS/LiteOS_Lab/iot_link/os/os_imp/liteos/base/ipc\los_event.c ****     if (!LOS_ListEmpty(&pstEventCB->stEventList))
 755              		.loc 2 236 0
 756 0018 7B68     		ldr	r3, [r7, #4]
 757 001a 0433     		adds	r3, r3, #4
 758 001c 1846     		mov	r0, r3
 759 001e FFF7FEFF 		bl	LOS_ListEmpty
 760 0022 0346     		mov	r3, r0
 761 0024 002B     		cmp	r3, #0
 762 0026 04D1     		bne	.L50
 237:E:/LiteOS/LiteOS_Lab/iot_link/os/os_imp/liteos/base/ipc\los_event.c ****     {
 238:E:/LiteOS/LiteOS_Lab/iot_link/os/os_imp/liteos/base/ipc\los_event.c ****         (VOID)LOS_IntRestore(uvIntSave);
 763              		.loc 2 238 0
 764 0028 F868     		ldr	r0, [r7, #12]
 765 002a FFF7FEFF 		bl	LOS_IntRestore
 239:E:/LiteOS/LiteOS_Lab/iot_link/os/os_imp/liteos/base/ipc\los_event.c ****         return LOS_ERRNO_EVENT_SHOULD_NOT_DESTROY;
 766              		.loc 2 239 0
 767 002e 094B     		ldr	r3, .L51+4
 768 0030 09E0     		b	.L49
 769              	.L50:
 240:E:/LiteOS/LiteOS_Lab/iot_link/os/os_imp/liteos/base/ipc\los_event.c ****     }
 241:E:/LiteOS/LiteOS_Lab/iot_link/os/os_imp/liteos/base/ipc\los_event.c **** 
 242:E:/LiteOS/LiteOS_Lab/iot_link/os/os_imp/liteos/base/ipc\los_event.c ****     pstEventCB->stEventList.pstNext = (LOS_DL_LIST *)NULL;
 770              		.loc 2 242 0
 771 0032 7B68     		ldr	r3, [r7, #4]
 772 0034 0022     		movs	r2, #0
 773 0036 9A60     		str	r2, [r3, #8]
 243:E:/LiteOS/LiteOS_Lab/iot_link/os/os_imp/liteos/base/ipc\los_event.c ****     pstEventCB->stEventList.pstPrev = (LOS_DL_LIST *)NULL;
 774              		.loc 2 243 0
 775 0038 7B68     		ldr	r3, [r7, #4]
 776 003a 0022     		movs	r2, #0
 777 003c 5A60     		str	r2, [r3, #4]
 244:E:/LiteOS/LiteOS_Lab/iot_link/os/os_imp/liteos/base/ipc\los_event.c **** 
 245:E:/LiteOS/LiteOS_Lab/iot_link/os/os_imp/liteos/base/ipc\los_event.c ****     (VOID)LOS_IntRestore(uvIntSave);
 778              		.loc 2 245 0
 779 003e F868     		ldr	r0, [r7, #12]
 780 0040 FFF7FEFF 		bl	LOS_IntRestore
 246:E:/LiteOS/LiteOS_Lab/iot_link/os/os_imp/liteos/base/ipc\los_event.c **** 
 247:E:/LiteOS/LiteOS_Lab/iot_link/os/os_imp/liteos/base/ipc\los_event.c ****     return LOS_OK;
 781              		.loc 2 247 0
 782 0044 0023     		movs	r3, #0
 783              	.L49:
 248:E:/LiteOS/LiteOS_Lab/iot_link/os/os_imp/liteos/base/ipc\los_event.c **** }
 784              		.loc 2 248 0
 785 0046 1846     		mov	r0, r3
 786 0048 1037     		adds	r7, r7, #16
 787              	.LCFI35:
 788              		.cfi_def_cfa_offset 8
 789 004a BD46     		mov	sp, r7
 790              	.LCFI36:
 791              		.cfi_def_cfa_register 13
 792              		@ sp needed
 793 004c 80BD     		pop	{r7, pc}
 794              	.L52:
 795 004e 00BF     		.align	2
 796              	.L51:
 797 0050 061C0002 		.word	33561606
 798 0054 081C0002 		.word	33561608
ARM GAS  C:\Users\user\AppData\Local\Temp\ccoKVlPn.s 			page 23


 799              		.cfi_endproc
 800              	.LFE137:
 802              		.section	.text.LOS_EventClear,"ax",%progbits
 803              		.align	1
 804              		.global	LOS_EventClear
 805              		.syntax unified
 806              		.thumb
 807              		.thumb_func
 808              		.fpu fpv4-sp-d16
 810              	LOS_EventClear:
 811              	.LFB138:
 249:E:/LiteOS/LiteOS_Lab/iot_link/os/os_imp/liteos/base/ipc\los_event.c **** 
 250:E:/LiteOS/LiteOS_Lab/iot_link/os/os_imp/liteos/base/ipc\los_event.c **** LITE_OS_SEC_TEXT_MINOR UINT32 LOS_EventClear(PEVENT_CB_S pstEventCB, UINT32 uwEvents)
 251:E:/LiteOS/LiteOS_Lab/iot_link/os/os_imp/liteos/base/ipc\los_event.c **** {
 812              		.loc 2 251 0
 813              		.cfi_startproc
 814              		@ args = 0, pretend = 0, frame = 16
 815              		@ frame_needed = 1, uses_anonymous_args = 0
 816 0000 80B5     		push	{r7, lr}
 817              	.LCFI37:
 818              		.cfi_def_cfa_offset 8
 819              		.cfi_offset 7, -8
 820              		.cfi_offset 14, -4
 821 0002 84B0     		sub	sp, sp, #16
 822              	.LCFI38:
 823              		.cfi_def_cfa_offset 24
 824 0004 00AF     		add	r7, sp, #0
 825              	.LCFI39:
 826              		.cfi_def_cfa_register 7
 827 0006 7860     		str	r0, [r7, #4]
 828 0008 3960     		str	r1, [r7]
 252:E:/LiteOS/LiteOS_Lab/iot_link/os/os_imp/liteos/base/ipc\los_event.c ****     UINTPTR uvIntSave;
 253:E:/LiteOS/LiteOS_Lab/iot_link/os/os_imp/liteos/base/ipc\los_event.c **** 
 254:E:/LiteOS/LiteOS_Lab/iot_link/os/os_imp/liteos/base/ipc\los_event.c ****     if (pstEventCB == NULL)
 829              		.loc 2 254 0
 830 000a 7B68     		ldr	r3, [r7, #4]
 831 000c 002B     		cmp	r3, #0
 832 000e 01D1     		bne	.L54
 255:E:/LiteOS/LiteOS_Lab/iot_link/os/os_imp/liteos/base/ipc\los_event.c ****     {
 256:E:/LiteOS/LiteOS_Lab/iot_link/os/os_imp/liteos/base/ipc\los_event.c ****         return LOS_ERRNO_EVENT_PTR_NULL;
 833              		.loc 2 256 0
 834 0010 094B     		ldr	r3, .L56
 835 0012 0CE0     		b	.L55
 836              	.L54:
 257:E:/LiteOS/LiteOS_Lab/iot_link/os/os_imp/liteos/base/ipc\los_event.c ****     }
 258:E:/LiteOS/LiteOS_Lab/iot_link/os/os_imp/liteos/base/ipc\los_event.c ****     uvIntSave = LOS_IntLock();
 837              		.loc 2 258 0
 838 0014 FFF7FEFF 		bl	LOS_IntLock
 839 0018 F860     		str	r0, [r7, #12]
 259:E:/LiteOS/LiteOS_Lab/iot_link/os/os_imp/liteos/base/ipc\los_event.c ****     pstEventCB->uwEventID &= uwEvents;
 840              		.loc 2 259 0
 841 001a 7B68     		ldr	r3, [r7, #4]
 842 001c 1A68     		ldr	r2, [r3]
 843 001e 3B68     		ldr	r3, [r7]
 844 0020 1A40     		ands	r2, r2, r3
 845 0022 7B68     		ldr	r3, [r7, #4]
 846 0024 1A60     		str	r2, [r3]
ARM GAS  C:\Users\user\AppData\Local\Temp\ccoKVlPn.s 			page 24


 260:E:/LiteOS/LiteOS_Lab/iot_link/os/os_imp/liteos/base/ipc\los_event.c ****     (VOID)LOS_IntRestore(uvIntSave);
 847              		.loc 2 260 0
 848 0026 F868     		ldr	r0, [r7, #12]
 849 0028 FFF7FEFF 		bl	LOS_IntRestore
 261:E:/LiteOS/LiteOS_Lab/iot_link/os/os_imp/liteos/base/ipc\los_event.c **** 
 262:E:/LiteOS/LiteOS_Lab/iot_link/os/os_imp/liteos/base/ipc\los_event.c ****     return LOS_OK;
 850              		.loc 2 262 0
 851 002c 0023     		movs	r3, #0
 852              	.L55:
 263:E:/LiteOS/LiteOS_Lab/iot_link/os/os_imp/liteos/base/ipc\los_event.c **** }
 853              		.loc 2 263 0
 854 002e 1846     		mov	r0, r3
 855 0030 1037     		adds	r7, r7, #16
 856              	.LCFI40:
 857              		.cfi_def_cfa_offset 8
 858 0032 BD46     		mov	sp, r7
 859              	.LCFI41:
 860              		.cfi_def_cfa_register 13
 861              		@ sp needed
 862 0034 80BD     		pop	{r7, pc}
 863              	.L57:
 864 0036 00BF     		.align	2
 865              	.L56:
 866 0038 061C0002 		.word	33561606
 867              		.cfi_endproc
 868              	.LFE138:
 870              		.text
 871              	.Letext0:
 872              		.file 3 "e:\\ac6\\systemworkbench\\plugins\\fr.ac6.mcu.externaltools.arm-none.win32_1.16.0.2018071
 873              		.file 4 "e:\\ac6\\systemworkbench\\plugins\\fr.ac6.mcu.externaltools.arm-none.win32_1.16.0.2018071
 874              		.file 5 "e:\\ac6\\systemworkbench\\plugins\\fr.ac6.mcu.externaltools.arm-none.win32_1.16.0.2018071
 875              		.file 6 "e:\\ac6\\systemworkbench\\plugins\\fr.ac6.mcu.externaltools.arm-none.win32_1.16.0.2018071
 876              		.file 7 "e:\\ac6\\systemworkbench\\plugins\\fr.ac6.mcu.externaltools.arm-none.win32_1.16.0.2018071
 877              		.file 8 "E:/LiteOS/LiteOS_Lab/iot_link/os/os_imp/liteos/include/los_typedef.h"
 878              		.file 9 "e:\\ac6\\systemworkbench\\plugins\\fr.ac6.mcu.externaltools.arm-none.win32_1.16.0.2018071
 879              		.file 10 "E:/LiteOS/LiteOS_Lab/iot_link/os/os_imp/liteos/arch/arm/common/cmsis/core_cm4.h"
 880              		.file 11 "E:/LiteOS/LiteOS_Lab/targets/STM32L431_BearPi/Inc/system_stm32l4xx.h"
 881              		.file 12 "E:/LiteOS/LiteOS_Lab/iot_link/os/os_imp/liteos/arch/arm/arm-m/include/los_hwi.h"
 882              		.file 13 "E:/LiteOS/LiteOS_Lab/iot_link/os/os_imp/liteos/include/los_event.h"
 883              		.file 14 "E:/LiteOS/LiteOS_Lab/targets/STM32L431_BearPi/Inc/main.h"
 884              		.file 15 "E:/LiteOS/LiteOS_Lab/iot_link/os/os_imp/liteos/include/los_config.h"
 885              		.file 16 "E:/LiteOS/LiteOS_Lab/iot_link/os/os_imp/liteos/include/los_err.h"
 886              		.file 17 "E:/LiteOS/LiteOS_Lab/iot_link/os/os_imp/liteos/include/los_tick.h"
 887              		.file 18 "E:/LiteOS/LiteOS_Lab/iot_link/os/os_imp/liteos/include/los_task.h"
 888              		.file 19 "E:/LiteOS/LiteOS_Lab/iot_link/os/os_imp/liteos/base/include/los_task.ph"
ARM GAS  C:\Users\user\AppData\Local\Temp\ccoKVlPn.s 			page 25

