ARM GAS  C:\Users\user\AppData\Local\Temp\ccCjVdMh.s 			page 1


   1              		.cpu cortex-m4
   2              		.eabi_attribute 27, 1
   3              		.eabi_attribute 28, 1
   4              		.eabi_attribute 20, 1
   5              		.eabi_attribute 21, 1
   6              		.eabi_attribute 23, 3
   7              		.eabi_attribute 24, 1
   8              		.eabi_attribute 25, 1
   9              		.eabi_attribute 26, 1
  10              		.eabi_attribute 30, 6
  11              		.eabi_attribute 34, 1
  12              		.eabi_attribute 18, 4
  13              		.file	"los_queue.c"
  14              		.text
  15              	.Ltext0:
  16              		.cfi_sections	.debug_frame
  17              		.section	.text.LOS_ListInit,"ax",%progbits
  18              		.align	1
  19              		.syntax unified
  20              		.thumb
  21              		.thumb_func
  22              		.fpu fpv4-sp-d16
  24              	LOS_ListInit:
  25              	.LFB123:
  26              		.file 1 "E:/LiteOS/LiteOS_Lab/iot_link/os/os_imp/liteos/include/los_list.h"
   1:E:/LiteOS/LiteOS_Lab/iot_link/os/os_imp/liteos/include\los_list.h **** /*----------------------------------------------------------------------------
   2:E:/LiteOS/LiteOS_Lab/iot_link/os/os_imp/liteos/include\los_list.h ****  * Copyright (c) <2013-2015>, <Huawei Technologies Co., Ltd>
   3:E:/LiteOS/LiteOS_Lab/iot_link/os/os_imp/liteos/include\los_list.h ****  * All rights reserved.
   4:E:/LiteOS/LiteOS_Lab/iot_link/os/os_imp/liteos/include\los_list.h ****  * Redistribution and use in source and binary forms, with or without modification,
   5:E:/LiteOS/LiteOS_Lab/iot_link/os/os_imp/liteos/include\los_list.h ****  * are permitted provided that the following conditions are met:
   6:E:/LiteOS/LiteOS_Lab/iot_link/os/os_imp/liteos/include\los_list.h ****  * 1. Redistributions of source code must retain the above copyright notice, this list of
   7:E:/LiteOS/LiteOS_Lab/iot_link/os/os_imp/liteos/include\los_list.h ****  * conditions and the following disclaimer.
   8:E:/LiteOS/LiteOS_Lab/iot_link/os/os_imp/liteos/include\los_list.h ****  * 2. Redistributions in binary form must reproduce the above copyright notice, this list
   9:E:/LiteOS/LiteOS_Lab/iot_link/os/os_imp/liteos/include\los_list.h ****  * of conditions and the following disclaimer in the documentation and/or other materials
  10:E:/LiteOS/LiteOS_Lab/iot_link/os/os_imp/liteos/include\los_list.h ****  * provided with the distribution.
  11:E:/LiteOS/LiteOS_Lab/iot_link/os/os_imp/liteos/include\los_list.h ****  * 3. Neither the name of the copyright holder nor the names of its contributors may be used
  12:E:/LiteOS/LiteOS_Lab/iot_link/os/os_imp/liteos/include\los_list.h ****  * to endorse or promote products derived from this software without specific prior written
  13:E:/LiteOS/LiteOS_Lab/iot_link/os/os_imp/liteos/include\los_list.h ****  * permission.
  14:E:/LiteOS/LiteOS_Lab/iot_link/os/os_imp/liteos/include\los_list.h ****  * THIS SOFTWARE IS PROVIDED BY THE COPYRIGHT HOLDERS AND CONTRIBUTORS
  15:E:/LiteOS/LiteOS_Lab/iot_link/os/os_imp/liteos/include\los_list.h ****  * "AS IS" AND ANY EXPRESS OR IMPLIED WARRANTIES, INCLUDING, BUT NOT LIMITED TO,
  16:E:/LiteOS/LiteOS_Lab/iot_link/os/os_imp/liteos/include\los_list.h ****  * THE IMPLIED WARRANTIES OF MERCHANTABILITY AND FITNESS FOR A PARTICULAR
  17:E:/LiteOS/LiteOS_Lab/iot_link/os/os_imp/liteos/include\los_list.h ****  * PURPOSE ARE DISCLAIMED. IN NO EVENT SHALL THE COPYRIGHT HOLDER OR
  18:E:/LiteOS/LiteOS_Lab/iot_link/os/os_imp/liteos/include\los_list.h ****  * CONTRIBUTORS BE LIABLE FOR ANY DIRECT, INDIRECT, INCIDENTAL, SPECIAL,
  19:E:/LiteOS/LiteOS_Lab/iot_link/os/os_imp/liteos/include\los_list.h ****  * EXEMPLARY, OR CONSEQUENTIAL DAMAGES (INCLUDING, BUT NOT LIMITED TO,
  20:E:/LiteOS/LiteOS_Lab/iot_link/os/os_imp/liteos/include\los_list.h ****  * PROCUREMENT OF SUBSTITUTE GOODS OR SERVICES; LOSS OF USE, DATA, OR PROFITS;
  21:E:/LiteOS/LiteOS_Lab/iot_link/os/os_imp/liteos/include\los_list.h ****  * OR BUSINESS INTERRUPTION) HOWEVER CAUSED AND ON ANY THEORY OF LIABILITY,
  22:E:/LiteOS/LiteOS_Lab/iot_link/os/os_imp/liteos/include\los_list.h ****  * WHETHER IN CONTRACT, STRICT LIABILITY, OR TORT (INCLUDING NEGLIGENCE OR
  23:E:/LiteOS/LiteOS_Lab/iot_link/os/os_imp/liteos/include\los_list.h ****  * OTHERWISE) ARISING IN ANY WAY OUT OF THE USE OF THIS SOFTWARE, EVEN IF
  24:E:/LiteOS/LiteOS_Lab/iot_link/os/os_imp/liteos/include\los_list.h ****  * ADVISED OF THE POSSIBILITY OF SUCH DAMAGE.
  25:E:/LiteOS/LiteOS_Lab/iot_link/os/os_imp/liteos/include\los_list.h ****  *---------------------------------------------------------------------------*/
  26:E:/LiteOS/LiteOS_Lab/iot_link/os/os_imp/liteos/include\los_list.h **** /*----------------------------------------------------------------------------
  27:E:/LiteOS/LiteOS_Lab/iot_link/os/os_imp/liteos/include\los_list.h ****  * Notice of Export Control Law
  28:E:/LiteOS/LiteOS_Lab/iot_link/os/os_imp/liteos/include\los_list.h ****  * ===============================================
  29:E:/LiteOS/LiteOS_Lab/iot_link/os/os_imp/liteos/include\los_list.h ****  * Huawei LiteOS may be subject to applicable export control laws and regulations, which might
  30:E:/LiteOS/LiteOS_Lab/iot_link/os/os_imp/liteos/include\los_list.h ****  * include those applicable to Huawei LiteOS of U.S. and the country in which you are located.
  31:E:/LiteOS/LiteOS_Lab/iot_link/os/os_imp/liteos/include\los_list.h ****  * Import, export and usage of Huawei LiteOS in any manner by you shall be in compliance with such
  32:E:/LiteOS/LiteOS_Lab/iot_link/os/os_imp/liteos/include\los_list.h ****  * applicable export control laws and regulations.
ARM GAS  C:\Users\user\AppData\Local\Temp\ccCjVdMh.s 			page 2


  33:E:/LiteOS/LiteOS_Lab/iot_link/os/os_imp/liteos/include\los_list.h ****  *---------------------------------------------------------------------------*/
  34:E:/LiteOS/LiteOS_Lab/iot_link/os/os_imp/liteos/include\los_list.h **** 
  35:E:/LiteOS/LiteOS_Lab/iot_link/os/os_imp/liteos/include\los_list.h ****  /** @defgroup los_list Doubly linked list
  36:E:/LiteOS/LiteOS_Lab/iot_link/os/os_imp/liteos/include\los_list.h ****  * @ingroup kernel
  37:E:/LiteOS/LiteOS_Lab/iot_link/os/os_imp/liteos/include\los_list.h ****  */
  38:E:/LiteOS/LiteOS_Lab/iot_link/os/os_imp/liteos/include\los_list.h **** 
  39:E:/LiteOS/LiteOS_Lab/iot_link/os/os_imp/liteos/include\los_list.h **** #ifndef _LOS_LIST_H
  40:E:/LiteOS/LiteOS_Lab/iot_link/os/os_imp/liteos/include\los_list.h **** #define _LOS_LIST_H
  41:E:/LiteOS/LiteOS_Lab/iot_link/os/os_imp/liteos/include\los_list.h **** 
  42:E:/LiteOS/LiteOS_Lab/iot_link/os/os_imp/liteos/include\los_list.h **** #include "los_typedef.h"
  43:E:/LiteOS/LiteOS_Lab/iot_link/os/os_imp/liteos/include\los_list.h **** 
  44:E:/LiteOS/LiteOS_Lab/iot_link/os/os_imp/liteos/include\los_list.h **** #ifdef __cplusplus
  45:E:/LiteOS/LiteOS_Lab/iot_link/os/os_imp/liteos/include\los_list.h **** #if __cplusplus
  46:E:/LiteOS/LiteOS_Lab/iot_link/os/os_imp/liteos/include\los_list.h **** extern "C" {
  47:E:/LiteOS/LiteOS_Lab/iot_link/os/os_imp/liteos/include\los_list.h **** #endif /* __cplusplus */
  48:E:/LiteOS/LiteOS_Lab/iot_link/os/os_imp/liteos/include\los_list.h **** #endif /* __cplusplus */
  49:E:/LiteOS/LiteOS_Lab/iot_link/os/os_imp/liteos/include\los_list.h **** 
  50:E:/LiteOS/LiteOS_Lab/iot_link/os/os_imp/liteos/include\los_list.h **** 
  51:E:/LiteOS/LiteOS_Lab/iot_link/os/os_imp/liteos/include\los_list.h **** /**
  52:E:/LiteOS/LiteOS_Lab/iot_link/os/os_imp/liteos/include\los_list.h ****  *@ingroup los_list
  53:E:/LiteOS/LiteOS_Lab/iot_link/os/os_imp/liteos/include\los_list.h ****  *Structure of a node in a doubly linked list.
  54:E:/LiteOS/LiteOS_Lab/iot_link/os/os_imp/liteos/include\los_list.h ****  */
  55:E:/LiteOS/LiteOS_Lab/iot_link/os/os_imp/liteos/include\los_list.h **** typedef struct LOS_DL_LIST
  56:E:/LiteOS/LiteOS_Lab/iot_link/os/os_imp/liteos/include\los_list.h **** {
  57:E:/LiteOS/LiteOS_Lab/iot_link/os/os_imp/liteos/include\los_list.h ****     struct LOS_DL_LIST *pstPrev;            /**< Current node's pointer to the previous node*/
  58:E:/LiteOS/LiteOS_Lab/iot_link/os/os_imp/liteos/include\los_list.h ****     struct LOS_DL_LIST *pstNext;            /**< Current node's pointer to the next node*/
  59:E:/LiteOS/LiteOS_Lab/iot_link/os/os_imp/liteos/include\los_list.h **** } LOS_DL_LIST;
  60:E:/LiteOS/LiteOS_Lab/iot_link/os/os_imp/liteos/include\los_list.h **** 
  61:E:/LiteOS/LiteOS_Lab/iot_link/os/os_imp/liteos/include\los_list.h **** /**
  62:E:/LiteOS/LiteOS_Lab/iot_link/os/os_imp/liteos/include\los_list.h ****  *@ingroup los_list
  63:E:/LiteOS/LiteOS_Lab/iot_link/os/os_imp/liteos/include\los_list.h ****  *@brief Initialize a doubly linked list.
  64:E:/LiteOS/LiteOS_Lab/iot_link/os/os_imp/liteos/include\los_list.h ****  *
  65:E:/LiteOS/LiteOS_Lab/iot_link/os/os_imp/liteos/include\los_list.h ****  *@par Description:
  66:E:/LiteOS/LiteOS_Lab/iot_link/os/os_imp/liteos/include\los_list.h ****  *This API is used to initialize a doubly linked list.
  67:E:/LiteOS/LiteOS_Lab/iot_link/os/os_imp/liteos/include\los_list.h ****  *@attention
  68:E:/LiteOS/LiteOS_Lab/iot_link/os/os_imp/liteos/include\los_list.h ****  *<ul>
  69:E:/LiteOS/LiteOS_Lab/iot_link/os/os_imp/liteos/include\los_list.h ****  *<li>The parameter passed in should be ensured to be a legal pointer.</li>
  70:E:/LiteOS/LiteOS_Lab/iot_link/os/os_imp/liteos/include\los_list.h ****  *</ul>
  71:E:/LiteOS/LiteOS_Lab/iot_link/os/os_imp/liteos/include\los_list.h ****  *
  72:E:/LiteOS/LiteOS_Lab/iot_link/os/os_imp/liteos/include\los_list.h ****  *@param pstList    [IN] Node in a doubly linked list.
  73:E:/LiteOS/LiteOS_Lab/iot_link/os/os_imp/liteos/include\los_list.h ****  *
  74:E:/LiteOS/LiteOS_Lab/iot_link/os/os_imp/liteos/include\los_list.h ****  *@retval None.
  75:E:/LiteOS/LiteOS_Lab/iot_link/os/os_imp/liteos/include\los_list.h ****  *@par Dependency:
  76:E:/LiteOS/LiteOS_Lab/iot_link/os/os_imp/liteos/include\los_list.h ****  *<ul><li>los_list.h: the header file that contains the API declaration.</li></ul>
  77:E:/LiteOS/LiteOS_Lab/iot_link/os/os_imp/liteos/include\los_list.h ****  *@see
  78:E:/LiteOS/LiteOS_Lab/iot_link/os/os_imp/liteos/include\los_list.h ****  *@since Huawei LiteOS V100R001C00
  79:E:/LiteOS/LiteOS_Lab/iot_link/os/os_imp/liteos/include\los_list.h ****  */
  80:E:/LiteOS/LiteOS_Lab/iot_link/os/os_imp/liteos/include\los_list.h **** LITE_OS_SEC_ALW_INLINE STATIC_INLINE VOID LOS_ListInit(LOS_DL_LIST *pstList)
  81:E:/LiteOS/LiteOS_Lab/iot_link/os/os_imp/liteos/include\los_list.h **** {
  27              		.loc 1 81 0
  28              		.cfi_startproc
  29              		@ args = 0, pretend = 0, frame = 8
  30              		@ frame_needed = 1, uses_anonymous_args = 0
  31              		@ link register save eliminated.
  32 0000 80B4     		push	{r7}
  33              	.LCFI0:
  34              		.cfi_def_cfa_offset 4
ARM GAS  C:\Users\user\AppData\Local\Temp\ccCjVdMh.s 			page 3


  35              		.cfi_offset 7, -4
  36 0002 83B0     		sub	sp, sp, #12
  37              	.LCFI1:
  38              		.cfi_def_cfa_offset 16
  39 0004 00AF     		add	r7, sp, #0
  40              	.LCFI2:
  41              		.cfi_def_cfa_register 7
  42 0006 7860     		str	r0, [r7, #4]
  82:E:/LiteOS/LiteOS_Lab/iot_link/os/os_imp/liteos/include\los_list.h ****     pstList->pstNext = pstList;
  43              		.loc 1 82 0
  44 0008 7B68     		ldr	r3, [r7, #4]
  45 000a 7A68     		ldr	r2, [r7, #4]
  46 000c 5A60     		str	r2, [r3, #4]
  83:E:/LiteOS/LiteOS_Lab/iot_link/os/os_imp/liteos/include\los_list.h ****     pstList->pstPrev = pstList;
  47              		.loc 1 83 0
  48 000e 7B68     		ldr	r3, [r7, #4]
  49 0010 7A68     		ldr	r2, [r7, #4]
  50 0012 1A60     		str	r2, [r3]
  84:E:/LiteOS/LiteOS_Lab/iot_link/os/os_imp/liteos/include\los_list.h **** }
  51              		.loc 1 84 0
  52 0014 00BF     		nop
  53 0016 0C37     		adds	r7, r7, #12
  54              	.LCFI3:
  55              		.cfi_def_cfa_offset 4
  56 0018 BD46     		mov	sp, r7
  57              	.LCFI4:
  58              		.cfi_def_cfa_register 13
  59              		@ sp needed
  60 001a 5DF8047B 		ldr	r7, [sp], #4
  61              	.LCFI5:
  62              		.cfi_restore 7
  63              		.cfi_def_cfa_offset 0
  64 001e 7047     		bx	lr
  65              		.cfi_endproc
  66              	.LFE123:
  68              		.section	.text.LOS_ListAdd,"ax",%progbits
  69              		.align	1
  70              		.syntax unified
  71              		.thumb
  72              		.thumb_func
  73              		.fpu fpv4-sp-d16
  75              	LOS_ListAdd:
  76              	.LFB124:
  85:E:/LiteOS/LiteOS_Lab/iot_link/os/os_imp/liteos/include\los_list.h **** 
  86:E:/LiteOS/LiteOS_Lab/iot_link/os/os_imp/liteos/include\los_list.h **** /**
  87:E:/LiteOS/LiteOS_Lab/iot_link/os/os_imp/liteos/include\los_list.h ****  *@ingroup los_list
  88:E:/LiteOS/LiteOS_Lab/iot_link/os/os_imp/liteos/include\los_list.h ****  *@brief Point to the next node pointed to by the current node.
  89:E:/LiteOS/LiteOS_Lab/iot_link/os/os_imp/liteos/include\los_list.h ****  *
  90:E:/LiteOS/LiteOS_Lab/iot_link/os/os_imp/liteos/include\los_list.h ****  *@par Description:
  91:E:/LiteOS/LiteOS_Lab/iot_link/os/os_imp/liteos/include\los_list.h ****  *<ul>
  92:E:/LiteOS/LiteOS_Lab/iot_link/os/os_imp/liteos/include\los_list.h ****  *<li>This API is used to point to the next node pointed to by the current node.</li>
  93:E:/LiteOS/LiteOS_Lab/iot_link/os/os_imp/liteos/include\los_list.h ****  *</ul>
  94:E:/LiteOS/LiteOS_Lab/iot_link/os/os_imp/liteos/include\los_list.h ****  *@attention
  95:E:/LiteOS/LiteOS_Lab/iot_link/os/os_imp/liteos/include\los_list.h ****  *<ul>
  96:E:/LiteOS/LiteOS_Lab/iot_link/os/os_imp/liteos/include\los_list.h ****  *<li>None.</li>
  97:E:/LiteOS/LiteOS_Lab/iot_link/os/os_imp/liteos/include\los_list.h ****  *</ul>
  98:E:/LiteOS/LiteOS_Lab/iot_link/os/os_imp/liteos/include\los_list.h ****  *
ARM GAS  C:\Users\user\AppData\Local\Temp\ccCjVdMh.s 			page 4


  99:E:/LiteOS/LiteOS_Lab/iot_link/os/os_imp/liteos/include\los_list.h ****  *@param pstObject  [IN] Node in the doubly linked list.
 100:E:/LiteOS/LiteOS_Lab/iot_link/os/os_imp/liteos/include\los_list.h ****  *
 101:E:/LiteOS/LiteOS_Lab/iot_link/os/os_imp/liteos/include\los_list.h ****  *@retval None.
 102:E:/LiteOS/LiteOS_Lab/iot_link/os/os_imp/liteos/include\los_list.h ****  *@par Dependency:
 103:E:/LiteOS/LiteOS_Lab/iot_link/os/os_imp/liteos/include\los_list.h ****  *<ul><li>los_list.h: the header file that contains the API declaration.</li></ul>
 104:E:/LiteOS/LiteOS_Lab/iot_link/os/os_imp/liteos/include\los_list.h ****  *@see
 105:E:/LiteOS/LiteOS_Lab/iot_link/os/os_imp/liteos/include\los_list.h ****  *@since Huawei LiteOS V100R001C00
 106:E:/LiteOS/LiteOS_Lab/iot_link/os/os_imp/liteos/include\los_list.h ****  */
 107:E:/LiteOS/LiteOS_Lab/iot_link/os/os_imp/liteos/include\los_list.h **** #define LOS_DL_LIST_FIRST(pstObject) ((pstObject)->pstNext)
 108:E:/LiteOS/LiteOS_Lab/iot_link/os/os_imp/liteos/include\los_list.h **** 
 109:E:/LiteOS/LiteOS_Lab/iot_link/os/os_imp/liteos/include\los_list.h **** /**
 110:E:/LiteOS/LiteOS_Lab/iot_link/os/os_imp/liteos/include\los_list.h ****  *@ingroup los_list
 111:E:/LiteOS/LiteOS_Lab/iot_link/os/os_imp/liteos/include\los_list.h ****  *@brief Insert a new node to a doubly linked list.
 112:E:/LiteOS/LiteOS_Lab/iot_link/os/os_imp/liteos/include\los_list.h ****  *
 113:E:/LiteOS/LiteOS_Lab/iot_link/os/os_imp/liteos/include\los_list.h ****  *@par Description:
 114:E:/LiteOS/LiteOS_Lab/iot_link/os/os_imp/liteos/include\los_list.h ****  *This API is used to insert a new node to a doubly linked list.
 115:E:/LiteOS/LiteOS_Lab/iot_link/os/os_imp/liteos/include\los_list.h ****  *@attention
 116:E:/LiteOS/LiteOS_Lab/iot_link/os/os_imp/liteos/include\los_list.h ****  *<ul>
 117:E:/LiteOS/LiteOS_Lab/iot_link/os/os_imp/liteos/include\los_list.h ****  *<li>The parameters passed in should be ensured to be legal pointers.</li>
 118:E:/LiteOS/LiteOS_Lab/iot_link/os/os_imp/liteos/include\los_list.h ****  *</ul>
 119:E:/LiteOS/LiteOS_Lab/iot_link/os/os_imp/liteos/include\los_list.h ****  *
 120:E:/LiteOS/LiteOS_Lab/iot_link/os/os_imp/liteos/include\los_list.h ****  *@param pstList    [IN]   Doubly linked list where the new node is inserted.
 121:E:/LiteOS/LiteOS_Lab/iot_link/os/os_imp/liteos/include\los_list.h ****  *@param pstNode    [IN]   New node to be inserted.
 122:E:/LiteOS/LiteOS_Lab/iot_link/os/os_imp/liteos/include\los_list.h ****  *
 123:E:/LiteOS/LiteOS_Lab/iot_link/os/os_imp/liteos/include\los_list.h ****  *@retval None
 124:E:/LiteOS/LiteOS_Lab/iot_link/os/os_imp/liteos/include\los_list.h ****  *@par Dependency:
 125:E:/LiteOS/LiteOS_Lab/iot_link/os/os_imp/liteos/include\los_list.h ****  *<ul><li>los_list.h: the header file that contains the API declaration.</li></ul>
 126:E:/LiteOS/LiteOS_Lab/iot_link/os/os_imp/liteos/include\los_list.h ****  *@see LOS_ListDelete
 127:E:/LiteOS/LiteOS_Lab/iot_link/os/os_imp/liteos/include\los_list.h ****  *@since Huawei LiteOS V100R001C00
 128:E:/LiteOS/LiteOS_Lab/iot_link/os/os_imp/liteos/include\los_list.h ****  */
 129:E:/LiteOS/LiteOS_Lab/iot_link/os/os_imp/liteos/include\los_list.h **** LITE_OS_SEC_ALW_INLINE STATIC_INLINE VOID LOS_ListAdd(LOS_DL_LIST *pstList, LOS_DL_LIST *pstNode)
 130:E:/LiteOS/LiteOS_Lab/iot_link/os/os_imp/liteos/include\los_list.h **** {
  77              		.loc 1 130 0
  78              		.cfi_startproc
  79              		@ args = 0, pretend = 0, frame = 8
  80              		@ frame_needed = 1, uses_anonymous_args = 0
  81              		@ link register save eliminated.
  82 0000 80B4     		push	{r7}
  83              	.LCFI6:
  84              		.cfi_def_cfa_offset 4
  85              		.cfi_offset 7, -4
  86 0002 83B0     		sub	sp, sp, #12
  87              	.LCFI7:
  88              		.cfi_def_cfa_offset 16
  89 0004 00AF     		add	r7, sp, #0
  90              	.LCFI8:
  91              		.cfi_def_cfa_register 7
  92 0006 7860     		str	r0, [r7, #4]
  93 0008 3960     		str	r1, [r7]
 131:E:/LiteOS/LiteOS_Lab/iot_link/os/os_imp/liteos/include\los_list.h ****     pstNode->pstNext = pstList->pstNext;
  94              		.loc 1 131 0
  95 000a 7B68     		ldr	r3, [r7, #4]
  96 000c 5A68     		ldr	r2, [r3, #4]
  97 000e 3B68     		ldr	r3, [r7]
  98 0010 5A60     		str	r2, [r3, #4]
 132:E:/LiteOS/LiteOS_Lab/iot_link/os/os_imp/liteos/include\los_list.h ****     pstNode->pstPrev = pstList;
  99              		.loc 1 132 0
ARM GAS  C:\Users\user\AppData\Local\Temp\ccCjVdMh.s 			page 5


 100 0012 3B68     		ldr	r3, [r7]
 101 0014 7A68     		ldr	r2, [r7, #4]
 102 0016 1A60     		str	r2, [r3]
 133:E:/LiteOS/LiteOS_Lab/iot_link/os/os_imp/liteos/include\los_list.h ****     pstList->pstNext->pstPrev = pstNode;
 103              		.loc 1 133 0
 104 0018 7B68     		ldr	r3, [r7, #4]
 105 001a 5B68     		ldr	r3, [r3, #4]
 106 001c 3A68     		ldr	r2, [r7]
 107 001e 1A60     		str	r2, [r3]
 134:E:/LiteOS/LiteOS_Lab/iot_link/os/os_imp/liteos/include\los_list.h ****     pstList->pstNext = pstNode;
 108              		.loc 1 134 0
 109 0020 7B68     		ldr	r3, [r7, #4]
 110 0022 3A68     		ldr	r2, [r7]
 111 0024 5A60     		str	r2, [r3, #4]
 135:E:/LiteOS/LiteOS_Lab/iot_link/os/os_imp/liteos/include\los_list.h **** }
 112              		.loc 1 135 0
 113 0026 00BF     		nop
 114 0028 0C37     		adds	r7, r7, #12
 115              	.LCFI9:
 116              		.cfi_def_cfa_offset 4
 117 002a BD46     		mov	sp, r7
 118              	.LCFI10:
 119              		.cfi_def_cfa_register 13
 120              		@ sp needed
 121 002c 5DF8047B 		ldr	r7, [sp], #4
 122              	.LCFI11:
 123              		.cfi_restore 7
 124              		.cfi_def_cfa_offset 0
 125 0030 7047     		bx	lr
 126              		.cfi_endproc
 127              	.LFE124:
 129              		.section	.text.LOS_ListTailInsert,"ax",%progbits
 130              		.align	1
 131              		.syntax unified
 132              		.thumb
 133              		.thumb_func
 134              		.fpu fpv4-sp-d16
 136              	LOS_ListTailInsert:
 137              	.LFB125:
 136:E:/LiteOS/LiteOS_Lab/iot_link/os/os_imp/liteos/include\los_list.h **** 
 137:E:/LiteOS/LiteOS_Lab/iot_link/os/os_imp/liteos/include\los_list.h **** /**
 138:E:/LiteOS/LiteOS_Lab/iot_link/os/os_imp/liteos/include\los_list.h ****  *@ingroup los_list
 139:E:/LiteOS/LiteOS_Lab/iot_link/os/os_imp/liteos/include\los_list.h ****  *@brief Insert a node to the tail of a doubly linked list.
 140:E:/LiteOS/LiteOS_Lab/iot_link/os/os_imp/liteos/include\los_list.h ****  *
 141:E:/LiteOS/LiteOS_Lab/iot_link/os/os_imp/liteos/include\los_list.h ****  *@par Description:
 142:E:/LiteOS/LiteOS_Lab/iot_link/os/os_imp/liteos/include\los_list.h ****  *This API is used to insert a new node to the tail of a doubly linked list.
 143:E:/LiteOS/LiteOS_Lab/iot_link/os/os_imp/liteos/include\los_list.h ****  *@attention
 144:E:/LiteOS/LiteOS_Lab/iot_link/os/os_imp/liteos/include\los_list.h ****  *<ul>
 145:E:/LiteOS/LiteOS_Lab/iot_link/os/os_imp/liteos/include\los_list.h ****  *<li>The parameters passed in should be ensured to be legal pointers.</li>
 146:E:/LiteOS/LiteOS_Lab/iot_link/os/os_imp/liteos/include\los_list.h ****  *</ul>
 147:E:/LiteOS/LiteOS_Lab/iot_link/os/os_imp/liteos/include\los_list.h ****  *
 148:E:/LiteOS/LiteOS_Lab/iot_link/os/os_imp/liteos/include\los_list.h ****  *@param pstList     [IN] Doubly linked list where the new node is inserted.
 149:E:/LiteOS/LiteOS_Lab/iot_link/os/os_imp/liteos/include\los_list.h ****  *@param pstNode     [IN] New node to be inserted.
 150:E:/LiteOS/LiteOS_Lab/iot_link/os/os_imp/liteos/include\los_list.h ****  *
 151:E:/LiteOS/LiteOS_Lab/iot_link/os/os_imp/liteos/include\los_list.h ****  *@retval None.
 152:E:/LiteOS/LiteOS_Lab/iot_link/os/os_imp/liteos/include\los_list.h ****  *@par Dependency:
 153:E:/LiteOS/LiteOS_Lab/iot_link/os/os_imp/liteos/include\los_list.h ****  *<ul><li>los_list.h: the header file that contains the API declaration.</li></ul>
ARM GAS  C:\Users\user\AppData\Local\Temp\ccCjVdMh.s 			page 6


 154:E:/LiteOS/LiteOS_Lab/iot_link/os/os_imp/liteos/include\los_list.h ****  *@see LOS_ListAdd | LOS_ListHeadInsert
 155:E:/LiteOS/LiteOS_Lab/iot_link/os/os_imp/liteos/include\los_list.h ****  *@since Huawei LiteOS V100R001C00
 156:E:/LiteOS/LiteOS_Lab/iot_link/os/os_imp/liteos/include\los_list.h ****  */
 157:E:/LiteOS/LiteOS_Lab/iot_link/os/os_imp/liteos/include\los_list.h **** LITE_OS_SEC_ALW_INLINE STATIC_INLINE VOID LOS_ListTailInsert(LOS_DL_LIST *pstList, LOS_DL_LIST *pst
 158:E:/LiteOS/LiteOS_Lab/iot_link/os/os_imp/liteos/include\los_list.h **** {
 138              		.loc 1 158 0
 139              		.cfi_startproc
 140              		@ args = 0, pretend = 0, frame = 8
 141              		@ frame_needed = 1, uses_anonymous_args = 0
 142 0000 80B5     		push	{r7, lr}
 143              	.LCFI12:
 144              		.cfi_def_cfa_offset 8
 145              		.cfi_offset 7, -8
 146              		.cfi_offset 14, -4
 147 0002 82B0     		sub	sp, sp, #8
 148              	.LCFI13:
 149              		.cfi_def_cfa_offset 16
 150 0004 00AF     		add	r7, sp, #0
 151              	.LCFI14:
 152              		.cfi_def_cfa_register 7
 153 0006 7860     		str	r0, [r7, #4]
 154 0008 3960     		str	r1, [r7]
 159:E:/LiteOS/LiteOS_Lab/iot_link/os/os_imp/liteos/include\los_list.h ****     LOS_ListAdd(pstList->pstPrev, pstNode);
 155              		.loc 1 159 0
 156 000a 7B68     		ldr	r3, [r7, #4]
 157 000c 1B68     		ldr	r3, [r3]
 158 000e 3968     		ldr	r1, [r7]
 159 0010 1846     		mov	r0, r3
 160 0012 FFF7FEFF 		bl	LOS_ListAdd
 160:E:/LiteOS/LiteOS_Lab/iot_link/os/os_imp/liteos/include\los_list.h **** }
 161              		.loc 1 160 0
 162 0016 00BF     		nop
 163 0018 0837     		adds	r7, r7, #8
 164              	.LCFI15:
 165              		.cfi_def_cfa_offset 8
 166 001a BD46     		mov	sp, r7
 167              	.LCFI16:
 168              		.cfi_def_cfa_register 13
 169              		@ sp needed
 170 001c 80BD     		pop	{r7, pc}
 171              		.cfi_endproc
 172              	.LFE125:
 174              		.section	.text.LOS_ListDelete,"ax",%progbits
 175              		.align	1
 176              		.syntax unified
 177              		.thumb
 178              		.thumb_func
 179              		.fpu fpv4-sp-d16
 181              	LOS_ListDelete:
 182              	.LFB126:
 161:E:/LiteOS/LiteOS_Lab/iot_link/os/os_imp/liteos/include\los_list.h **** 
 162:E:/LiteOS/LiteOS_Lab/iot_link/os/os_imp/liteos/include\los_list.h **** /**
 163:E:/LiteOS/LiteOS_Lab/iot_link/os/os_imp/liteos/include\los_list.h ****  *@ingroup los_list
 164:E:/LiteOS/LiteOS_Lab/iot_link/os/os_imp/liteos/include\los_list.h ****  *@brief Delete a specified node from a doubly linked list.
 165:E:/LiteOS/LiteOS_Lab/iot_link/os/os_imp/liteos/include\los_list.h ****  *
 166:E:/LiteOS/LiteOS_Lab/iot_link/os/os_imp/liteos/include\los_list.h ****  *@par Description:
 167:E:/LiteOS/LiteOS_Lab/iot_link/os/os_imp/liteos/include\los_list.h ****  *<ul>
ARM GAS  C:\Users\user\AppData\Local\Temp\ccCjVdMh.s 			page 7


 168:E:/LiteOS/LiteOS_Lab/iot_link/os/os_imp/liteos/include\los_list.h ****  *<li>This API is used to delete a specified node from a doubly linked list.</li>
 169:E:/LiteOS/LiteOS_Lab/iot_link/os/os_imp/liteos/include\los_list.h ****  *</ul>
 170:E:/LiteOS/LiteOS_Lab/iot_link/os/os_imp/liteos/include\los_list.h ****  *@attention
 171:E:/LiteOS/LiteOS_Lab/iot_link/os/os_imp/liteos/include\los_list.h ****  *<ul>
 172:E:/LiteOS/LiteOS_Lab/iot_link/os/os_imp/liteos/include\los_list.h ****  *<li>The parameter passed in should be ensured to be a legal pointer.</li>
 173:E:/LiteOS/LiteOS_Lab/iot_link/os/os_imp/liteos/include\los_list.h ****  *</ul>
 174:E:/LiteOS/LiteOS_Lab/iot_link/os/os_imp/liteos/include\los_list.h ****  *
 175:E:/LiteOS/LiteOS_Lab/iot_link/os/os_imp/liteos/include\los_list.h ****  *@param pstNode    [IN] Node to be deleted.
 176:E:/LiteOS/LiteOS_Lab/iot_link/os/os_imp/liteos/include\los_list.h ****  *
 177:E:/LiteOS/LiteOS_Lab/iot_link/os/os_imp/liteos/include\los_list.h ****  *@retval None.
 178:E:/LiteOS/LiteOS_Lab/iot_link/os/os_imp/liteos/include\los_list.h ****  *@par Dependency:
 179:E:/LiteOS/LiteOS_Lab/iot_link/os/os_imp/liteos/include\los_list.h ****  *<ul><li>los_list.h: the header file that contains the API declaration.</li></ul>
 180:E:/LiteOS/LiteOS_Lab/iot_link/os/os_imp/liteos/include\los_list.h ****  *@see LOS_ListAdd
 181:E:/LiteOS/LiteOS_Lab/iot_link/os/os_imp/liteos/include\los_list.h ****  *@since Huawei LiteOS V100R001C00
 182:E:/LiteOS/LiteOS_Lab/iot_link/os/os_imp/liteos/include\los_list.h ****  */
 183:E:/LiteOS/LiteOS_Lab/iot_link/os/os_imp/liteos/include\los_list.h **** LITE_OS_SEC_ALW_INLINE STATIC_INLINE VOID LOS_ListDelete(LOS_DL_LIST *pstNode)
 184:E:/LiteOS/LiteOS_Lab/iot_link/os/os_imp/liteos/include\los_list.h **** {
 183              		.loc 1 184 0
 184              		.cfi_startproc
 185              		@ args = 0, pretend = 0, frame = 8
 186              		@ frame_needed = 1, uses_anonymous_args = 0
 187              		@ link register save eliminated.
 188 0000 80B4     		push	{r7}
 189              	.LCFI17:
 190              		.cfi_def_cfa_offset 4
 191              		.cfi_offset 7, -4
 192 0002 83B0     		sub	sp, sp, #12
 193              	.LCFI18:
 194              		.cfi_def_cfa_offset 16
 195 0004 00AF     		add	r7, sp, #0
 196              	.LCFI19:
 197              		.cfi_def_cfa_register 7
 198 0006 7860     		str	r0, [r7, #4]
 185:E:/LiteOS/LiteOS_Lab/iot_link/os/os_imp/liteos/include\los_list.h ****     pstNode->pstNext->pstPrev = pstNode->pstPrev;
 199              		.loc 1 185 0
 200 0008 7B68     		ldr	r3, [r7, #4]
 201 000a 5B68     		ldr	r3, [r3, #4]
 202 000c 7A68     		ldr	r2, [r7, #4]
 203 000e 1268     		ldr	r2, [r2]
 204 0010 1A60     		str	r2, [r3]
 186:E:/LiteOS/LiteOS_Lab/iot_link/os/os_imp/liteos/include\los_list.h ****     pstNode->pstPrev->pstNext = pstNode->pstNext;
 205              		.loc 1 186 0
 206 0012 7B68     		ldr	r3, [r7, #4]
 207 0014 1B68     		ldr	r3, [r3]
 208 0016 7A68     		ldr	r2, [r7, #4]
 209 0018 5268     		ldr	r2, [r2, #4]
 210 001a 5A60     		str	r2, [r3, #4]
 187:E:/LiteOS/LiteOS_Lab/iot_link/os/os_imp/liteos/include\los_list.h ****     pstNode->pstNext = (LOS_DL_LIST *)NULL;
 211              		.loc 1 187 0
 212 001c 7B68     		ldr	r3, [r7, #4]
 213 001e 0022     		movs	r2, #0
 214 0020 5A60     		str	r2, [r3, #4]
 188:E:/LiteOS/LiteOS_Lab/iot_link/os/os_imp/liteos/include\los_list.h ****     pstNode->pstPrev = (LOS_DL_LIST *)NULL;
 215              		.loc 1 188 0
 216 0022 7B68     		ldr	r3, [r7, #4]
 217 0024 0022     		movs	r2, #0
 218 0026 1A60     		str	r2, [r3]
ARM GAS  C:\Users\user\AppData\Local\Temp\ccCjVdMh.s 			page 8


 189:E:/LiteOS/LiteOS_Lab/iot_link/os/os_imp/liteos/include\los_list.h **** }
 219              		.loc 1 189 0
 220 0028 00BF     		nop
 221 002a 0C37     		adds	r7, r7, #12
 222              	.LCFI20:
 223              		.cfi_def_cfa_offset 4
 224 002c BD46     		mov	sp, r7
 225              	.LCFI21:
 226              		.cfi_def_cfa_register 13
 227              		@ sp needed
 228 002e 5DF8047B 		ldr	r7, [sp], #4
 229              	.LCFI22:
 230              		.cfi_restore 7
 231              		.cfi_def_cfa_offset 0
 232 0032 7047     		bx	lr
 233              		.cfi_endproc
 234              	.LFE126:
 236              		.section	.text.LOS_ListEmpty,"ax",%progbits
 237              		.align	1
 238              		.syntax unified
 239              		.thumb
 240              		.thumb_func
 241              		.fpu fpv4-sp-d16
 243              	LOS_ListEmpty:
 244              	.LFB127:
 190:E:/LiteOS/LiteOS_Lab/iot_link/os/os_imp/liteos/include\los_list.h **** 
 191:E:/LiteOS/LiteOS_Lab/iot_link/os/os_imp/liteos/include\los_list.h **** /**
 192:E:/LiteOS/LiteOS_Lab/iot_link/os/os_imp/liteos/include\los_list.h ****  *@ingroup los_list
 193:E:/LiteOS/LiteOS_Lab/iot_link/os/os_imp/liteos/include\los_list.h ****  *@brief Identify whether a specified doubly linked list is empty.
 194:E:/LiteOS/LiteOS_Lab/iot_link/os/os_imp/liteos/include\los_list.h ****  *
 195:E:/LiteOS/LiteOS_Lab/iot_link/os/os_imp/liteos/include\los_list.h ****  *@par Description:
 196:E:/LiteOS/LiteOS_Lab/iot_link/os/os_imp/liteos/include\los_list.h ****  *<ul>
 197:E:/LiteOS/LiteOS_Lab/iot_link/os/os_imp/liteos/include\los_list.h ****  *<li>This API is used to return whether a doubly linked list is empty.</li>
 198:E:/LiteOS/LiteOS_Lab/iot_link/os/os_imp/liteos/include\los_list.h ****  *</ul>
 199:E:/LiteOS/LiteOS_Lab/iot_link/os/os_imp/liteos/include\los_list.h ****  *@attention
 200:E:/LiteOS/LiteOS_Lab/iot_link/os/os_imp/liteos/include\los_list.h ****  *<ul>
 201:E:/LiteOS/LiteOS_Lab/iot_link/os/os_imp/liteos/include\los_list.h ****  *<li>The parameter passed in should be ensured to be a legal pointer.</li>
 202:E:/LiteOS/LiteOS_Lab/iot_link/os/os_imp/liteos/include\los_list.h ****  *</ul>
 203:E:/LiteOS/LiteOS_Lab/iot_link/os/os_imp/liteos/include\los_list.h ****  *
 204:E:/LiteOS/LiteOS_Lab/iot_link/os/os_imp/liteos/include\los_list.h ****  *@param pstList  [IN] Doubly linked list.
 205:E:/LiteOS/LiteOS_Lab/iot_link/os/os_imp/liteos/include\los_list.h ****  *
 206:E:/LiteOS/LiteOS_Lab/iot_link/os/os_imp/liteos/include\los_list.h ****  *@retval TRUE The doubly linked list is empty.
 207:E:/LiteOS/LiteOS_Lab/iot_link/os/os_imp/liteos/include\los_list.h ****  *@retval FALSE The doubly linked list is not empty.
 208:E:/LiteOS/LiteOS_Lab/iot_link/os/os_imp/liteos/include\los_list.h ****  *@par Dependency:
 209:E:/LiteOS/LiteOS_Lab/iot_link/os/os_imp/liteos/include\los_list.h ****  *<ul><li>los_list.h: the header file that contains the API declaration.</li></ul>
 210:E:/LiteOS/LiteOS_Lab/iot_link/os/os_imp/liteos/include\los_list.h ****  *@see
 211:E:/LiteOS/LiteOS_Lab/iot_link/os/os_imp/liteos/include\los_list.h ****  *@since Huawei LiteOS V100R001C00
 212:E:/LiteOS/LiteOS_Lab/iot_link/os/os_imp/liteos/include\los_list.h ****  */
 213:E:/LiteOS/LiteOS_Lab/iot_link/os/os_imp/liteos/include\los_list.h **** LITE_OS_SEC_ALW_INLINE STATIC_INLINE BOOL LOS_ListEmpty(LOS_DL_LIST *pstNode)
 214:E:/LiteOS/LiteOS_Lab/iot_link/os/os_imp/liteos/include\los_list.h **** {
 245              		.loc 1 214 0
 246              		.cfi_startproc
 247              		@ args = 0, pretend = 0, frame = 8
 248              		@ frame_needed = 1, uses_anonymous_args = 0
 249              		@ link register save eliminated.
 250 0000 80B4     		push	{r7}
 251              	.LCFI23:
ARM GAS  C:\Users\user\AppData\Local\Temp\ccCjVdMh.s 			page 9


 252              		.cfi_def_cfa_offset 4
 253              		.cfi_offset 7, -4
 254 0002 83B0     		sub	sp, sp, #12
 255              	.LCFI24:
 256              		.cfi_def_cfa_offset 16
 257 0004 00AF     		add	r7, sp, #0
 258              	.LCFI25:
 259              		.cfi_def_cfa_register 7
 260 0006 7860     		str	r0, [r7, #4]
 215:E:/LiteOS/LiteOS_Lab/iot_link/os/os_imp/liteos/include\los_list.h ****     return (BOOL)(pstNode->pstNext == pstNode);
 261              		.loc 1 215 0
 262 0008 7B68     		ldr	r3, [r7, #4]
 263 000a 5B68     		ldr	r3, [r3, #4]
 264 000c 7A68     		ldr	r2, [r7, #4]
 265 000e 9A42     		cmp	r2, r3
 266 0010 0CBF     		ite	eq
 267 0012 0123     		moveq	r3, #1
 268 0014 0023     		movne	r3, #0
 269 0016 DBB2     		uxtb	r3, r3
 216:E:/LiteOS/LiteOS_Lab/iot_link/os/os_imp/liteos/include\los_list.h **** }
 270              		.loc 1 216 0
 271 0018 1846     		mov	r0, r3
 272 001a 0C37     		adds	r7, r7, #12
 273              	.LCFI26:
 274              		.cfi_def_cfa_offset 4
 275 001c BD46     		mov	sp, r7
 276              	.LCFI27:
 277              		.cfi_def_cfa_register 13
 278              		@ sp needed
 279 001e 5DF8047B 		ldr	r7, [sp], #4
 280              	.LCFI28:
 281              		.cfi_restore 7
 282              		.cfi_def_cfa_offset 0
 283 0022 7047     		bx	lr
 284              		.cfi_endproc
 285              	.LFE127:
 287              		.comm	g_pstAllQueue,4,4
 288              		.comm	g_stFreeQueueList,8,4
 289              		.section	.text.osQueueInit,"ax",%progbits
 290              		.align	1
 291              		.global	osQueueInit
 292              		.syntax unified
 293              		.thumb
 294              		.thumb_func
 295              		.fpu fpv4-sp-d16
 297              	osQueueInit:
 298              	.LFB133:
 299              		.file 2 "E:/LiteOS/LiteOS_Lab/iot_link/os/os_imp/liteos/base/ipc/los_queue.c"
   1:E:/LiteOS/LiteOS_Lab/iot_link/os/os_imp/liteos/base/ipc\los_queue.c **** /*----------------------------------------------------------------------------
   2:E:/LiteOS/LiteOS_Lab/iot_link/os/os_imp/liteos/base/ipc\los_queue.c ****  * Copyright (c) <2013-2015>, <Huawei Technologies Co., Ltd>
   3:E:/LiteOS/LiteOS_Lab/iot_link/os/os_imp/liteos/base/ipc\los_queue.c ****  * All rights reserved.
   4:E:/LiteOS/LiteOS_Lab/iot_link/os/os_imp/liteos/base/ipc\los_queue.c ****  * Redistribution and use in source and binary forms, with or without modification,
   5:E:/LiteOS/LiteOS_Lab/iot_link/os/os_imp/liteos/base/ipc\los_queue.c ****  * are permitted provided that the following conditions are met:
   6:E:/LiteOS/LiteOS_Lab/iot_link/os/os_imp/liteos/base/ipc\los_queue.c ****  * 1. Redistributions of source code must retain the above copyright notice, this list of
   7:E:/LiteOS/LiteOS_Lab/iot_link/os/os_imp/liteos/base/ipc\los_queue.c ****  * conditions and the following disclaimer.
   8:E:/LiteOS/LiteOS_Lab/iot_link/os/os_imp/liteos/base/ipc\los_queue.c ****  * 2. Redistributions in binary form must reproduce the above copyright notice, this list
   9:E:/LiteOS/LiteOS_Lab/iot_link/os/os_imp/liteos/base/ipc\los_queue.c ****  * of conditions and the following disclaimer in the documentation and/or other materials
ARM GAS  C:\Users\user\AppData\Local\Temp\ccCjVdMh.s 			page 10


  10:E:/LiteOS/LiteOS_Lab/iot_link/os/os_imp/liteos/base/ipc\los_queue.c ****  * provided with the distribution.
  11:E:/LiteOS/LiteOS_Lab/iot_link/os/os_imp/liteos/base/ipc\los_queue.c ****  * 3. Neither the name of the copyright holder nor the names of its contributors may be used
  12:E:/LiteOS/LiteOS_Lab/iot_link/os/os_imp/liteos/base/ipc\los_queue.c ****  * to endorse or promote products derived from this software without specific prior written
  13:E:/LiteOS/LiteOS_Lab/iot_link/os/os_imp/liteos/base/ipc\los_queue.c ****  * permission.
  14:E:/LiteOS/LiteOS_Lab/iot_link/os/os_imp/liteos/base/ipc\los_queue.c ****  * THIS SOFTWARE IS PROVIDED BY THE COPYRIGHT HOLDERS AND CONTRIBUTORS
  15:E:/LiteOS/LiteOS_Lab/iot_link/os/os_imp/liteos/base/ipc\los_queue.c ****  * "AS IS" AND ANY EXPRESS OR IMPLIED WARRANTIES, INCLUDING, BUT NOT LIMITED TO,
  16:E:/LiteOS/LiteOS_Lab/iot_link/os/os_imp/liteos/base/ipc\los_queue.c ****  * THE IMPLIED WARRANTIES OF MERCHANTABILITY AND FITNESS FOR A PARTICULAR
  17:E:/LiteOS/LiteOS_Lab/iot_link/os/os_imp/liteos/base/ipc\los_queue.c ****  * PURPOSE ARE DISCLAIMED. IN NO EVENT SHALL THE COPYRIGHT HOLDER OR
  18:E:/LiteOS/LiteOS_Lab/iot_link/os/os_imp/liteos/base/ipc\los_queue.c ****  * CONTRIBUTORS BE LIABLE FOR ANY DIRECT, INDIRECT, INCIDENTAL, SPECIAL,
  19:E:/LiteOS/LiteOS_Lab/iot_link/os/os_imp/liteos/base/ipc\los_queue.c ****  * EXEMPLARY, OR CONSEQUENTIAL DAMAGES (INCLUDING, BUT NOT LIMITED TO,
  20:E:/LiteOS/LiteOS_Lab/iot_link/os/os_imp/liteos/base/ipc\los_queue.c ****  * PROCUREMENT OF SUBSTITUTE GOODS OR SERVICES; LOSS OF USE, DATA, OR PROFITS;
  21:E:/LiteOS/LiteOS_Lab/iot_link/os/os_imp/liteos/base/ipc\los_queue.c ****  * OR BUSINESS INTERRUPTION) HOWEVER CAUSED AND ON ANY THEORY OF LIABILITY,
  22:E:/LiteOS/LiteOS_Lab/iot_link/os/os_imp/liteos/base/ipc\los_queue.c ****  * WHETHER IN CONTRACT, STRICT LIABILITY, OR TORT (INCLUDING NEGLIGENCE OR
  23:E:/LiteOS/LiteOS_Lab/iot_link/os/os_imp/liteos/base/ipc\los_queue.c ****  * OTHERWISE) ARISING IN ANY WAY OUT OF THE USE OF THIS SOFTWARE, EVEN IF
  24:E:/LiteOS/LiteOS_Lab/iot_link/os/os_imp/liteos/base/ipc\los_queue.c ****  * ADVISED OF THE POSSIBILITY OF SUCH DAMAGE.
  25:E:/LiteOS/LiteOS_Lab/iot_link/os/os_imp/liteos/base/ipc\los_queue.c ****  *---------------------------------------------------------------------------*/
  26:E:/LiteOS/LiteOS_Lab/iot_link/os/os_imp/liteos/base/ipc\los_queue.c **** /*----------------------------------------------------------------------------
  27:E:/LiteOS/LiteOS_Lab/iot_link/os/os_imp/liteos/base/ipc\los_queue.c ****  * Notice of Export Control Law
  28:E:/LiteOS/LiteOS_Lab/iot_link/os/os_imp/liteos/base/ipc\los_queue.c ****  * ===============================================
  29:E:/LiteOS/LiteOS_Lab/iot_link/os/os_imp/liteos/base/ipc\los_queue.c ****  * Huawei LiteOS may be subject to applicable export control laws and regulations, which might
  30:E:/LiteOS/LiteOS_Lab/iot_link/os/os_imp/liteos/base/ipc\los_queue.c ****  * include those applicable to Huawei LiteOS of U.S. and the country in which you are located.
  31:E:/LiteOS/LiteOS_Lab/iot_link/os/os_imp/liteos/base/ipc\los_queue.c ****  * Import, export and usage of Huawei LiteOS in any manner by you shall be in compliance with such
  32:E:/LiteOS/LiteOS_Lab/iot_link/os/os_imp/liteos/base/ipc\los_queue.c ****  * applicable export control laws and regulations.
  33:E:/LiteOS/LiteOS_Lab/iot_link/os/os_imp/liteos/base/ipc\los_queue.c ****  *---------------------------------------------------------------------------*/
  34:E:/LiteOS/LiteOS_Lab/iot_link/os/os_imp/liteos/base/ipc\los_queue.c **** #include "string.h"
  35:E:/LiteOS/LiteOS_Lab/iot_link/os/os_imp/liteos/base/ipc\los_queue.c **** #include "los_queue.ph"
  36:E:/LiteOS/LiteOS_Lab/iot_link/os/os_imp/liteos/base/ipc\los_queue.c **** #include "los_membox.ph"
  37:E:/LiteOS/LiteOS_Lab/iot_link/os/os_imp/liteos/base/ipc\los_queue.c **** #include "los_memory.ph"
  38:E:/LiteOS/LiteOS_Lab/iot_link/os/os_imp/liteos/base/ipc\los_queue.c **** #include "los_priqueue.ph"
  39:E:/LiteOS/LiteOS_Lab/iot_link/os/os_imp/liteos/base/ipc\los_queue.c **** #include "los_task.ph"
  40:E:/LiteOS/LiteOS_Lab/iot_link/os/os_imp/liteos/base/ipc\los_queue.c **** #if (LOSCFG_PLATFORM_EXC == YES)
  41:E:/LiteOS/LiteOS_Lab/iot_link/os/os_imp/liteos/base/ipc\los_queue.c **** #include "los_exc.ph"
  42:E:/LiteOS/LiteOS_Lab/iot_link/os/os_imp/liteos/base/ipc\los_queue.c **** #endif
  43:E:/LiteOS/LiteOS_Lab/iot_link/os/os_imp/liteos/base/ipc\los_queue.c **** 
  44:E:/LiteOS/LiteOS_Lab/iot_link/os/os_imp/liteos/base/ipc\los_queue.c **** #ifdef __cplusplus
  45:E:/LiteOS/LiteOS_Lab/iot_link/os/os_imp/liteos/base/ipc\los_queue.c **** #if __cplusplus
  46:E:/LiteOS/LiteOS_Lab/iot_link/os/os_imp/liteos/base/ipc\los_queue.c **** extern "C"{
  47:E:/LiteOS/LiteOS_Lab/iot_link/os/os_imp/liteos/base/ipc\los_queue.c **** #endif
  48:E:/LiteOS/LiteOS_Lab/iot_link/os/os_imp/liteos/base/ipc\los_queue.c **** #endif /* __cplusplus */
  49:E:/LiteOS/LiteOS_Lab/iot_link/os/os_imp/liteos/base/ipc\los_queue.c **** 
  50:E:/LiteOS/LiteOS_Lab/iot_link/os/os_imp/liteos/base/ipc\los_queue.c **** #if (LOSCFG_BASE_IPC_QUEUE == YES)
  51:E:/LiteOS/LiteOS_Lab/iot_link/os/os_imp/liteos/base/ipc\los_queue.c **** 
  52:E:/LiteOS/LiteOS_Lab/iot_link/os/os_imp/liteos/base/ipc\los_queue.c **** /*lint -save -e64*/
  53:E:/LiteOS/LiteOS_Lab/iot_link/os/os_imp/liteos/base/ipc\los_queue.c **** LITE_OS_SEC_BSS      QUEUE_CB_S       *g_pstAllQueue;
  54:E:/LiteOS/LiteOS_Lab/iot_link/os/os_imp/liteos/base/ipc\los_queue.c **** LITE_OS_SEC_BSS      LOS_DL_LIST      g_stFreeQueueList;
  55:E:/LiteOS/LiteOS_Lab/iot_link/os/os_imp/liteos/base/ipc\los_queue.c **** #if ((LOSCFG_PLATFORM_EXC == YES) && (LOSCFG_SAVE_EXC_INFO == YES))
  56:E:/LiteOS/LiteOS_Lab/iot_link/os/os_imp/liteos/base/ipc\los_queue.c **** LITE_OS_SEC_BSS      UINT32           g_uwExcQueueMaxNum;
  57:E:/LiteOS/LiteOS_Lab/iot_link/os/os_imp/liteos/base/ipc\los_queue.c **** #endif
  58:E:/LiteOS/LiteOS_Lab/iot_link/os/os_imp/liteos/base/ipc\los_queue.c **** 
  59:E:/LiteOS/LiteOS_Lab/iot_link/os/os_imp/liteos/base/ipc\los_queue.c **** /**************************************************************************
  60:E:/LiteOS/LiteOS_Lab/iot_link/os/os_imp/liteos/base/ipc\los_queue.c ****  Function    : osQueueInit
  61:E:/LiteOS/LiteOS_Lab/iot_link/os/os_imp/liteos/base/ipc\los_queue.c ****  Description : queue initial
  62:E:/LiteOS/LiteOS_Lab/iot_link/os/os_imp/liteos/base/ipc\los_queue.c ****  Input       : None
  63:E:/LiteOS/LiteOS_Lab/iot_link/os/os_imp/liteos/base/ipc\los_queue.c ****  Output      : None
  64:E:/LiteOS/LiteOS_Lab/iot_link/os/os_imp/liteos/base/ipc\los_queue.c ****  Return      : LOS_OK on success or error code on failure
  65:E:/LiteOS/LiteOS_Lab/iot_link/os/os_imp/liteos/base/ipc\los_queue.c **** **************************************************************************/
  66:E:/LiteOS/LiteOS_Lab/iot_link/os/os_imp/liteos/base/ipc\los_queue.c **** LITE_OS_SEC_TEXT_INIT UINT32 osQueueInit(VOID)
ARM GAS  C:\Users\user\AppData\Local\Temp\ccCjVdMh.s 			page 11


  67:E:/LiteOS/LiteOS_Lab/iot_link/os/os_imp/liteos/base/ipc\los_queue.c **** {
 300              		.loc 2 67 0
 301              		.cfi_startproc
 302              		@ args = 0, pretend = 0, frame = 8
 303              		@ frame_needed = 1, uses_anonymous_args = 0
 304 0000 80B5     		push	{r7, lr}
 305              	.LCFI29:
 306              		.cfi_def_cfa_offset 8
 307              		.cfi_offset 7, -8
 308              		.cfi_offset 14, -4
 309 0002 82B0     		sub	sp, sp, #8
 310              	.LCFI30:
 311              		.cfi_def_cfa_offset 16
 312 0004 00AF     		add	r7, sp, #0
 313              	.LCFI31:
 314              		.cfi_def_cfa_register 7
  68:E:/LiteOS/LiteOS_Lab/iot_link/os/os_imp/liteos/base/ipc\los_queue.c ****     QUEUE_CB_S *pstQueueNode;
  69:E:/LiteOS/LiteOS_Lab/iot_link/os/os_imp/liteos/base/ipc\los_queue.c ****     UINT16   usIndex;
  70:E:/LiteOS/LiteOS_Lab/iot_link/os/os_imp/liteos/base/ipc\los_queue.c **** 
  71:E:/LiteOS/LiteOS_Lab/iot_link/os/os_imp/liteos/base/ipc\los_queue.c ****     if (0 == LOSCFG_BASE_IPC_QUEUE_LIMIT)   /*lint !e506*/
  72:E:/LiteOS/LiteOS_Lab/iot_link/os/os_imp/liteos/base/ipc\los_queue.c ****     {
  73:E:/LiteOS/LiteOS_Lab/iot_link/os/os_imp/liteos/base/ipc\los_queue.c ****         return LOS_ERRNO_QUEUE_MAXNUM_ZERO;
  74:E:/LiteOS/LiteOS_Lab/iot_link/os/os_imp/liteos/base/ipc\los_queue.c ****     }
  75:E:/LiteOS/LiteOS_Lab/iot_link/os/os_imp/liteos/base/ipc\los_queue.c **** 
  76:E:/LiteOS/LiteOS_Lab/iot_link/os/os_imp/liteos/base/ipc\los_queue.c ****     g_pstAllQueue = (QUEUE_CB_S *)LOS_MemAlloc(m_aucSysMem0, LOSCFG_BASE_IPC_QUEUE_LIMIT * sizeof(Q
 315              		.loc 2 76 0
 316 0006 1D4B     		ldr	r3, .L12
 317 0008 1B68     		ldr	r3, [r3]
 318 000a 4FF4DC71 		mov	r1, #440
 319 000e 1846     		mov	r0, r3
 320 0010 FFF7FEFF 		bl	LOS_MemAlloc
 321 0014 0246     		mov	r2, r0
 322 0016 1A4B     		ldr	r3, .L12+4
 323 0018 1A60     		str	r2, [r3]
  77:E:/LiteOS/LiteOS_Lab/iot_link/os/os_imp/liteos/base/ipc\los_queue.c ****     if (NULL == g_pstAllQueue)
 324              		.loc 2 77 0
 325 001a 194B     		ldr	r3, .L12+4
 326 001c 1B68     		ldr	r3, [r3]
 327 001e 002B     		cmp	r3, #0
 328 0020 01D1     		bne	.L8
  78:E:/LiteOS/LiteOS_Lab/iot_link/os/os_imp/liteos/base/ipc\los_queue.c ****     {
  79:E:/LiteOS/LiteOS_Lab/iot_link/os/os_imp/liteos/base/ipc\los_queue.c ****         return LOS_ERRNO_QUEUE_NO_MEMORY;
 329              		.loc 2 79 0
 330 0022 184B     		ldr	r3, .L12+8
 331 0024 25E0     		b	.L9
 332              	.L8:
  80:E:/LiteOS/LiteOS_Lab/iot_link/os/os_imp/liteos/base/ipc\los_queue.c ****     }
  81:E:/LiteOS/LiteOS_Lab/iot_link/os/os_imp/liteos/base/ipc\los_queue.c **** 
  82:E:/LiteOS/LiteOS_Lab/iot_link/os/os_imp/liteos/base/ipc\los_queue.c ****     (VOID)memset(g_pstAllQueue, 0, LOSCFG_BASE_IPC_QUEUE_LIMIT * sizeof(QUEUE_CB_S));
 333              		.loc 2 82 0
 334 0026 164B     		ldr	r3, .L12+4
 335 0028 1B68     		ldr	r3, [r3]
 336 002a 4FF4DC72 		mov	r2, #440
 337 002e 0021     		movs	r1, #0
 338 0030 1846     		mov	r0, r3
 339 0032 FFF7FEFF 		bl	memset
  83:E:/LiteOS/LiteOS_Lab/iot_link/os/os_imp/liteos/base/ipc\los_queue.c **** 
ARM GAS  C:\Users\user\AppData\Local\Temp\ccCjVdMh.s 			page 12


  84:E:/LiteOS/LiteOS_Lab/iot_link/os/os_imp/liteos/base/ipc\los_queue.c ****     LOS_ListInit(&g_stFreeQueueList);
 340              		.loc 2 84 0
 341 0036 1448     		ldr	r0, .L12+12
 342 0038 FFF7FEFF 		bl	LOS_ListInit
  85:E:/LiteOS/LiteOS_Lab/iot_link/os/os_imp/liteos/base/ipc\los_queue.c ****     for (usIndex = 0; usIndex < LOSCFG_BASE_IPC_QUEUE_LIMIT; usIndex++)
 343              		.loc 2 85 0
 344 003c 0023     		movs	r3, #0
 345 003e FB80     		strh	r3, [r7, #6]	@ movhi
 346 0040 13E0     		b	.L10
 347              	.L11:
  86:E:/LiteOS/LiteOS_Lab/iot_link/os/os_imp/liteos/base/ipc\los_queue.c ****     {
  87:E:/LiteOS/LiteOS_Lab/iot_link/os/os_imp/liteos/base/ipc\los_queue.c ****         pstQueueNode = ((QUEUE_CB_S *)g_pstAllQueue) + usIndex;
 348              		.loc 2 87 0 discriminator 3
 349 0042 0F4B     		ldr	r3, .L12+4
 350 0044 1A68     		ldr	r2, [r3]
 351 0046 FB88     		ldrh	r3, [r7, #6]
 352 0048 2C21     		movs	r1, #44
 353 004a 01FB03F3 		mul	r3, r1, r3
 354 004e 1344     		add	r3, r3, r2
 355 0050 3B60     		str	r3, [r7]
  88:E:/LiteOS/LiteOS_Lab/iot_link/os/os_imp/liteos/base/ipc\los_queue.c ****         pstQueueNode->usQueueID = usIndex;
 356              		.loc 2 88 0 discriminator 3
 357 0052 3B68     		ldr	r3, [r7]
 358 0054 FA88     		ldrh	r2, [r7, #6]	@ movhi
 359 0056 5A81     		strh	r2, [r3, #10]	@ movhi
  89:E:/LiteOS/LiteOS_Lab/iot_link/os/os_imp/liteos/base/ipc\los_queue.c ****         LOS_ListTailInsert(&g_stFreeQueueList, &pstQueueNode->stReadWriteList[OS_QUEUE_WRITE]);
 360              		.loc 2 89 0 discriminator 3
 361 0058 3B68     		ldr	r3, [r7]
 362 005a 1C33     		adds	r3, r3, #28
 363 005c 1946     		mov	r1, r3
 364 005e 0A48     		ldr	r0, .L12+12
 365 0060 FFF7FEFF 		bl	LOS_ListTailInsert
  85:E:/LiteOS/LiteOS_Lab/iot_link/os/os_imp/liteos/base/ipc\los_queue.c ****     {
 366              		.loc 2 85 0 discriminator 3
 367 0064 FB88     		ldrh	r3, [r7, #6]
 368 0066 0133     		adds	r3, r3, #1
 369 0068 FB80     		strh	r3, [r7, #6]	@ movhi
 370              	.L10:
  85:E:/LiteOS/LiteOS_Lab/iot_link/os/os_imp/liteos/base/ipc\los_queue.c ****     {
 371              		.loc 2 85 0 is_stmt 0 discriminator 1
 372 006a FB88     		ldrh	r3, [r7, #6]
 373 006c 092B     		cmp	r3, #9
 374 006e E8D9     		bls	.L11
  90:E:/LiteOS/LiteOS_Lab/iot_link/os/os_imp/liteos/base/ipc\los_queue.c ****     }
  91:E:/LiteOS/LiteOS_Lab/iot_link/os/os_imp/liteos/base/ipc\los_queue.c **** 
  92:E:/LiteOS/LiteOS_Lab/iot_link/os/os_imp/liteos/base/ipc\los_queue.c **** #if ((LOSCFG_PLATFORM_EXC == YES) && (LOSCFG_SAVE_EXC_INFO == YES))
  93:E:/LiteOS/LiteOS_Lab/iot_link/os/os_imp/liteos/base/ipc\los_queue.c ****     g_uwExcQueueMaxNum = LOSCFG_BASE_IPC_QUEUE_LIMIT;
  94:E:/LiteOS/LiteOS_Lab/iot_link/os/os_imp/liteos/base/ipc\los_queue.c ****     osExcRegister(OS_EXC_TYPE_QUE, (EXC_INFO_SAVE_CALLBACK)LOS_QueueInfoGet, &g_uwExcQueueMaxNum);
  95:E:/LiteOS/LiteOS_Lab/iot_link/os/os_imp/liteos/base/ipc\los_queue.c **** #endif
  96:E:/LiteOS/LiteOS_Lab/iot_link/os/os_imp/liteos/base/ipc\los_queue.c **** 
  97:E:/LiteOS/LiteOS_Lab/iot_link/os/os_imp/liteos/base/ipc\los_queue.c ****     return LOS_OK;
 375              		.loc 2 97 0 is_stmt 1
 376 0070 0023     		movs	r3, #0
 377              	.L9:
  98:E:/LiteOS/LiteOS_Lab/iot_link/os/os_imp/liteos/base/ipc\los_queue.c **** }
 378              		.loc 2 98 0
 379 0072 1846     		mov	r0, r3
ARM GAS  C:\Users\user\AppData\Local\Temp\ccCjVdMh.s 			page 13


 380 0074 0837     		adds	r7, r7, #8
 381              	.LCFI32:
 382              		.cfi_def_cfa_offset 8
 383 0076 BD46     		mov	sp, r7
 384              	.LCFI33:
 385              		.cfi_def_cfa_register 13
 386              		@ sp needed
 387 0078 80BD     		pop	{r7, pc}
 388              	.L13:
 389 007a 00BF     		.align	2
 390              	.L12:
 391 007c 00000000 		.word	m_aucSysMem0
 392 0080 00000000 		.word	g_pstAllQueue
 393 0084 01060002 		.word	33555969
 394 0088 00000000 		.word	g_stFreeQueueList
 395              		.cfi_endproc
 396              	.LFE133:
 398              		.section	.text.LOS_QueueCreate,"ax",%progbits
 399              		.align	1
 400              		.global	LOS_QueueCreate
 401              		.syntax unified
 402              		.thumb
 403              		.thumb_func
 404              		.fpu fpv4-sp-d16
 406              	LOS_QueueCreate:
 407              	.LFB134:
  99:E:/LiteOS/LiteOS_Lab/iot_link/os/os_imp/liteos/base/ipc\los_queue.c **** 
 100:E:/LiteOS/LiteOS_Lab/iot_link/os/os_imp/liteos/base/ipc\los_queue.c **** /*****************************************************************************
 101:E:/LiteOS/LiteOS_Lab/iot_link/os/os_imp/liteos/base/ipc\los_queue.c ****  Function    : LOS_QueueCreate
 102:E:/LiteOS/LiteOS_Lab/iot_link/os/os_imp/liteos/base/ipc\los_queue.c ****  Description : Create a queue
 103:E:/LiteOS/LiteOS_Lab/iot_link/os/os_imp/liteos/base/ipc\los_queue.c ****  Input       : pcQueueName  --- Queue name, less than 4 characters
 104:E:/LiteOS/LiteOS_Lab/iot_link/os/os_imp/liteos/base/ipc\los_queue.c ****                usLen        --- Queue lenth
 105:E:/LiteOS/LiteOS_Lab/iot_link/os/os_imp/liteos/base/ipc\los_queue.c ****                uwFlags      --- Queue type, FIFO or PRIO
 106:E:/LiteOS/LiteOS_Lab/iot_link/os/os_imp/liteos/base/ipc\los_queue.c ****                usMaxMsgSize --- Maximum message size in byte
 107:E:/LiteOS/LiteOS_Lab/iot_link/os/os_imp/liteos/base/ipc\los_queue.c ****  Output      : puwQueueID   --- Queue ID
 108:E:/LiteOS/LiteOS_Lab/iot_link/os/os_imp/liteos/base/ipc\los_queue.c ****  Return      : LOS_OK on success or error code on failure
 109:E:/LiteOS/LiteOS_Lab/iot_link/os/os_imp/liteos/base/ipc\los_queue.c ****  *****************************************************************************/
 110:E:/LiteOS/LiteOS_Lab/iot_link/os/os_imp/liteos/base/ipc\los_queue.c **** LITE_OS_SEC_TEXT_INIT UINT32 LOS_QueueCreate(CHAR *pcQueueName,
 111:E:/LiteOS/LiteOS_Lab/iot_link/os/os_imp/liteos/base/ipc\los_queue.c ****                                           UINT16 usLen,
 112:E:/LiteOS/LiteOS_Lab/iot_link/os/os_imp/liteos/base/ipc\los_queue.c ****                                           UINT32 *puwQueueID,
 113:E:/LiteOS/LiteOS_Lab/iot_link/os/os_imp/liteos/base/ipc\los_queue.c ****                                           UINT32 uwFlags,
 114:E:/LiteOS/LiteOS_Lab/iot_link/os/os_imp/liteos/base/ipc\los_queue.c ****                                           UINT16 usMaxMsgSize )
 115:E:/LiteOS/LiteOS_Lab/iot_link/os/os_imp/liteos/base/ipc\los_queue.c **** {
 408              		.loc 2 115 0
 409              		.cfi_startproc
 410              		@ args = 4, pretend = 0, frame = 40
 411              		@ frame_needed = 1, uses_anonymous_args = 0
 412 0000 80B5     		push	{r7, lr}
 413              	.LCFI34:
 414              		.cfi_def_cfa_offset 8
 415              		.cfi_offset 7, -8
 416              		.cfi_offset 14, -4
 417 0002 8AB0     		sub	sp, sp, #40
 418              	.LCFI35:
 419              		.cfi_def_cfa_offset 48
 420 0004 00AF     		add	r7, sp, #0
 421              	.LCFI36:
ARM GAS  C:\Users\user\AppData\Local\Temp\ccCjVdMh.s 			page 14


 422              		.cfi_def_cfa_register 7
 423 0006 F860     		str	r0, [r7, #12]
 424 0008 7A60     		str	r2, [r7, #4]
 425 000a 3B60     		str	r3, [r7]
 426 000c 0B46     		mov	r3, r1	@ movhi
 427 000e 7B81     		strh	r3, [r7, #10]	@ movhi
 116:E:/LiteOS/LiteOS_Lab/iot_link/os/os_imp/liteos/base/ipc\los_queue.c ****     QUEUE_CB_S      *pstQueueCB;
 117:E:/LiteOS/LiteOS_Lab/iot_link/os/os_imp/liteos/base/ipc\los_queue.c ****     UINTPTR         uvIntSave;
 118:E:/LiteOS/LiteOS_Lab/iot_link/os/os_imp/liteos/base/ipc\los_queue.c ****     LOS_DL_LIST     *pstUnusedQueue;
 119:E:/LiteOS/LiteOS_Lab/iot_link/os/os_imp/liteos/base/ipc\los_queue.c ****     UINT8           *pucQueue;
 120:E:/LiteOS/LiteOS_Lab/iot_link/os/os_imp/liteos/base/ipc\los_queue.c ****     UINT16          usMsgSize = usMaxMsgSize + sizeof(UINT32);
 428              		.loc 2 120 0
 429 0010 3B8E     		ldrh	r3, [r7, #48]	@ movhi
 430 0012 0433     		adds	r3, r3, #4
 431 0014 FB84     		strh	r3, [r7, #38]	@ movhi
 121:E:/LiteOS/LiteOS_Lab/iot_link/os/os_imp/liteos/base/ipc\los_queue.c **** 
 122:E:/LiteOS/LiteOS_Lab/iot_link/os/os_imp/liteos/base/ipc\los_queue.c ****     (VOID)pcQueueName;
 123:E:/LiteOS/LiteOS_Lab/iot_link/os/os_imp/liteos/base/ipc\los_queue.c ****     (VOID)uwFlags;
 124:E:/LiteOS/LiteOS_Lab/iot_link/os/os_imp/liteos/base/ipc\los_queue.c **** 
 125:E:/LiteOS/LiteOS_Lab/iot_link/os/os_imp/liteos/base/ipc\los_queue.c ****     if (NULL == puwQueueID)
 432              		.loc 2 125 0
 433 0016 7B68     		ldr	r3, [r7, #4]
 434 0018 002B     		cmp	r3, #0
 435 001a 01D1     		bne	.L15
 126:E:/LiteOS/LiteOS_Lab/iot_link/os/os_imp/liteos/base/ipc\los_queue.c ****     {
 127:E:/LiteOS/LiteOS_Lab/iot_link/os/os_imp/liteos/base/ipc\los_queue.c ****         return LOS_ERRNO_QUEUE_CREAT_PTR_NULL;
 436              		.loc 2 127 0
 437 001c 384B     		ldr	r3, .L22
 438 001e 6AE0     		b	.L16
 439              	.L15:
 128:E:/LiteOS/LiteOS_Lab/iot_link/os/os_imp/liteos/base/ipc\los_queue.c ****     }
 129:E:/LiteOS/LiteOS_Lab/iot_link/os/os_imp/liteos/base/ipc\los_queue.c **** 
 130:E:/LiteOS/LiteOS_Lab/iot_link/os/os_imp/liteos/base/ipc\los_queue.c ****     if(usMaxMsgSize > OS_NULL_SHORT -4)
 440              		.loc 2 130 0
 441 0020 3B8E     		ldrh	r3, [r7, #48]
 442 0022 4FF6FB72 		movw	r2, #65531
 443 0026 9342     		cmp	r3, r2
 444 0028 01D9     		bls	.L17
 131:E:/LiteOS/LiteOS_Lab/iot_link/os/os_imp/liteos/base/ipc\los_queue.c ****     {
 132:E:/LiteOS/LiteOS_Lab/iot_link/os/os_imp/liteos/base/ipc\los_queue.c ****         return LOS_ERRNO_QUEUE_SIZE_TOO_BIG;
 445              		.loc 2 132 0
 446 002a 364B     		ldr	r3, .L22+4
 447 002c 63E0     		b	.L16
 448              	.L17:
 133:E:/LiteOS/LiteOS_Lab/iot_link/os/os_imp/liteos/base/ipc\los_queue.c ****     }
 134:E:/LiteOS/LiteOS_Lab/iot_link/os/os_imp/liteos/base/ipc\los_queue.c **** 
 135:E:/LiteOS/LiteOS_Lab/iot_link/os/os_imp/liteos/base/ipc\los_queue.c ****     if ((0 == usLen) || (0 == usMaxMsgSize))
 449              		.loc 2 135 0
 450 002e 7B89     		ldrh	r3, [r7, #10]
 451 0030 002B     		cmp	r3, #0
 452 0032 02D0     		beq	.L18
 453              		.loc 2 135 0 is_stmt 0 discriminator 1
 454 0034 3B8E     		ldrh	r3, [r7, #48]
 455 0036 002B     		cmp	r3, #0
 456 0038 01D1     		bne	.L19
 457              	.L18:
 136:E:/LiteOS/LiteOS_Lab/iot_link/os/os_imp/liteos/base/ipc\los_queue.c ****     {
ARM GAS  C:\Users\user\AppData\Local\Temp\ccCjVdMh.s 			page 15


 137:E:/LiteOS/LiteOS_Lab/iot_link/os/os_imp/liteos/base/ipc\los_queue.c ****         return LOS_ERRNO_QUEUE_PARA_ISZERO;
 458              		.loc 2 137 0 is_stmt 1
 459 003a 334B     		ldr	r3, .L22+8
 460 003c 5BE0     		b	.L16
 461              	.L19:
 138:E:/LiteOS/LiteOS_Lab/iot_link/os/os_imp/liteos/base/ipc\los_queue.c ****     }
 139:E:/LiteOS/LiteOS_Lab/iot_link/os/os_imp/liteos/base/ipc\los_queue.c **** 
 140:E:/LiteOS/LiteOS_Lab/iot_link/os/os_imp/liteos/base/ipc\los_queue.c ****     /* Memory allocation is time-consuming, to shorten the time of disable interrupt,
 141:E:/LiteOS/LiteOS_Lab/iot_link/os/os_imp/liteos/base/ipc\los_queue.c ****        move the memory allocation to here. */
 142:E:/LiteOS/LiteOS_Lab/iot_link/os/os_imp/liteos/base/ipc\los_queue.c ****     pucQueue = (UINT8 *)LOS_MemAlloc(m_aucSysMem0, usLen * usMsgSize);
 462              		.loc 2 142 0
 463 003e 334B     		ldr	r3, .L22+12
 464 0040 1868     		ldr	r0, [r3]
 465 0042 7B89     		ldrh	r3, [r7, #10]
 466 0044 FA8C     		ldrh	r2, [r7, #38]
 467 0046 02FB03F3 		mul	r3, r2, r3
 468 004a 1946     		mov	r1, r3
 469 004c FFF7FEFF 		bl	LOS_MemAlloc
 470 0050 3862     		str	r0, [r7, #32]
 143:E:/LiteOS/LiteOS_Lab/iot_link/os/os_imp/liteos/base/ipc\los_queue.c ****     if (NULL == pucQueue)
 471              		.loc 2 143 0
 472 0052 3B6A     		ldr	r3, [r7, #32]
 473 0054 002B     		cmp	r3, #0
 474 0056 01D1     		bne	.L20
 144:E:/LiteOS/LiteOS_Lab/iot_link/os/os_imp/liteos/base/ipc\los_queue.c ****     {
 145:E:/LiteOS/LiteOS_Lab/iot_link/os/os_imp/liteos/base/ipc\los_queue.c ****         return LOS_ERRNO_QUEUE_CREATE_NO_MEMORY;
 475              		.loc 2 145 0
 476 0058 2D4B     		ldr	r3, .L22+16
 477 005a 4CE0     		b	.L16
 478              	.L20:
 146:E:/LiteOS/LiteOS_Lab/iot_link/os/os_imp/liteos/base/ipc\los_queue.c ****     }
 147:E:/LiteOS/LiteOS_Lab/iot_link/os/os_imp/liteos/base/ipc\los_queue.c **** 
 148:E:/LiteOS/LiteOS_Lab/iot_link/os/os_imp/liteos/base/ipc\los_queue.c ****     uvIntSave = LOS_IntLock();
 479              		.loc 2 148 0
 480 005c FFF7FEFF 		bl	LOS_IntLock
 481 0060 F861     		str	r0, [r7, #28]
 149:E:/LiteOS/LiteOS_Lab/iot_link/os/os_imp/liteos/base/ipc\los_queue.c ****     if (LOS_ListEmpty(&g_stFreeQueueList))
 482              		.loc 2 149 0
 483 0062 2C48     		ldr	r0, .L22+20
 484 0064 FFF7FEFF 		bl	LOS_ListEmpty
 485 0068 0346     		mov	r3, r0
 486 006a 002B     		cmp	r3, #0
 487 006c 0AD0     		beq	.L21
 150:E:/LiteOS/LiteOS_Lab/iot_link/os/os_imp/liteos/base/ipc\los_queue.c ****     {
 151:E:/LiteOS/LiteOS_Lab/iot_link/os/os_imp/liteos/base/ipc\los_queue.c ****         LOS_IntRestore(uvIntSave);
 488              		.loc 2 151 0
 489 006e F869     		ldr	r0, [r7, #28]
 490 0070 FFF7FEFF 		bl	LOS_IntRestore
 152:E:/LiteOS/LiteOS_Lab/iot_link/os/os_imp/liteos/base/ipc\los_queue.c ****         (VOID)LOS_MemFree(m_aucSysMem0, pucQueue);
 491              		.loc 2 152 0
 492 0074 254B     		ldr	r3, .L22+12
 493 0076 1B68     		ldr	r3, [r3]
 494 0078 396A     		ldr	r1, [r7, #32]
 495 007a 1846     		mov	r0, r3
 496 007c FFF7FEFF 		bl	LOS_MemFree
 153:E:/LiteOS/LiteOS_Lab/iot_link/os/os_imp/liteos/base/ipc\los_queue.c ****         return LOS_ERRNO_QUEUE_CB_UNAVAILABLE;
 497              		.loc 2 153 0
ARM GAS  C:\Users\user\AppData\Local\Temp\ccCjVdMh.s 			page 16


 498 0080 254B     		ldr	r3, .L22+24
 499 0082 38E0     		b	.L16
 500              	.L21:
 154:E:/LiteOS/LiteOS_Lab/iot_link/os/os_imp/liteos/base/ipc\los_queue.c ****     }
 155:E:/LiteOS/LiteOS_Lab/iot_link/os/os_imp/liteos/base/ipc\los_queue.c **** 
 156:E:/LiteOS/LiteOS_Lab/iot_link/os/os_imp/liteos/base/ipc\los_queue.c ****     pstUnusedQueue = LOS_DL_LIST_FIRST(&(g_stFreeQueueList));
 501              		.loc 2 156 0
 502 0084 234B     		ldr	r3, .L22+20
 503 0086 5B68     		ldr	r3, [r3, #4]
 504 0088 BB61     		str	r3, [r7, #24]
 157:E:/LiteOS/LiteOS_Lab/iot_link/os/os_imp/liteos/base/ipc\los_queue.c ****     LOS_ListDelete(pstUnusedQueue);
 505              		.loc 2 157 0
 506 008a B869     		ldr	r0, [r7, #24]
 507 008c FFF7FEFF 		bl	LOS_ListDelete
 158:E:/LiteOS/LiteOS_Lab/iot_link/os/os_imp/liteos/base/ipc\los_queue.c ****     pstQueueCB = (GET_QUEUE_LIST(pstUnusedQueue));
 508              		.loc 2 158 0
 509 0090 BB69     		ldr	r3, [r7, #24]
 510 0092 1C3B     		subs	r3, r3, #28
 511 0094 7B61     		str	r3, [r7, #20]
 159:E:/LiteOS/LiteOS_Lab/iot_link/os/os_imp/liteos/base/ipc\los_queue.c ****     pstQueueCB->usQueueLen = usLen;
 512              		.loc 2 159 0
 513 0096 7B69     		ldr	r3, [r7, #20]
 514 0098 7A89     		ldrh	r2, [r7, #10]	@ movhi
 515 009a DA80     		strh	r2, [r3, #6]	@ movhi
 160:E:/LiteOS/LiteOS_Lab/iot_link/os/os_imp/liteos/base/ipc\los_queue.c ****     pstQueueCB->usQueueSize = usMsgSize;
 516              		.loc 2 160 0
 517 009c 7B69     		ldr	r3, [r7, #20]
 518 009e FA8C     		ldrh	r2, [r7, #38]	@ movhi
 519 00a0 1A81     		strh	r2, [r3, #8]	@ movhi
 161:E:/LiteOS/LiteOS_Lab/iot_link/os/os_imp/liteos/base/ipc\los_queue.c ****     pstQueueCB->pucQueue = pucQueue;
 520              		.loc 2 161 0
 521 00a2 7B69     		ldr	r3, [r7, #20]
 522 00a4 3A6A     		ldr	r2, [r7, #32]
 523 00a6 1A60     		str	r2, [r3]
 162:E:/LiteOS/LiteOS_Lab/iot_link/os/os_imp/liteos/base/ipc\los_queue.c ****     pstQueueCB->usQueueState = OS_QUEUE_INUSED;
 524              		.loc 2 162 0
 525 00a8 7B69     		ldr	r3, [r7, #20]
 526 00aa 0122     		movs	r2, #1
 527 00ac 9A80     		strh	r2, [r3, #4]	@ movhi
 163:E:/LiteOS/LiteOS_Lab/iot_link/os/os_imp/liteos/base/ipc\los_queue.c ****     pstQueueCB->usReadWriteableCnt[OS_QUEUE_READ]  = 0;
 528              		.loc 2 163 0
 529 00ae 7B69     		ldr	r3, [r7, #20]
 530 00b0 0022     		movs	r2, #0
 531 00b2 1A82     		strh	r2, [r3, #16]	@ movhi
 164:E:/LiteOS/LiteOS_Lab/iot_link/os/os_imp/liteos/base/ipc\los_queue.c ****     pstQueueCB->usReadWriteableCnt[OS_QUEUE_WRITE] = usLen;
 532              		.loc 2 164 0
 533 00b4 7B69     		ldr	r3, [r7, #20]
 534 00b6 7A89     		ldrh	r2, [r7, #10]	@ movhi
 535 00b8 5A82     		strh	r2, [r3, #18]	@ movhi
 165:E:/LiteOS/LiteOS_Lab/iot_link/os/os_imp/liteos/base/ipc\los_queue.c ****     pstQueueCB->usQueueHead = 0;
 536              		.loc 2 165 0
 537 00ba 7B69     		ldr	r3, [r7, #20]
 538 00bc 0022     		movs	r2, #0
 539 00be 9A81     		strh	r2, [r3, #12]	@ movhi
 166:E:/LiteOS/LiteOS_Lab/iot_link/os/os_imp/liteos/base/ipc\los_queue.c ****     pstQueueCB->usQueueTail = 0;
 540              		.loc 2 166 0
 541 00c0 7B69     		ldr	r3, [r7, #20]
ARM GAS  C:\Users\user\AppData\Local\Temp\ccCjVdMh.s 			page 17


 542 00c2 0022     		movs	r2, #0
 543 00c4 DA81     		strh	r2, [r3, #14]	@ movhi
 167:E:/LiteOS/LiteOS_Lab/iot_link/os/os_imp/liteos/base/ipc\los_queue.c ****     LOS_ListInit(&pstQueueCB->stReadWriteList[OS_QUEUE_READ]);
 544              		.loc 2 167 0
 545 00c6 7B69     		ldr	r3, [r7, #20]
 546 00c8 1433     		adds	r3, r3, #20
 547 00ca 1846     		mov	r0, r3
 548 00cc FFF7FEFF 		bl	LOS_ListInit
 168:E:/LiteOS/LiteOS_Lab/iot_link/os/os_imp/liteos/base/ipc\los_queue.c ****     LOS_ListInit(&pstQueueCB->stReadWriteList[OS_QUEUE_WRITE]);
 549              		.loc 2 168 0
 550 00d0 7B69     		ldr	r3, [r7, #20]
 551 00d2 1C33     		adds	r3, r3, #28
 552 00d4 1846     		mov	r0, r3
 553 00d6 FFF7FEFF 		bl	LOS_ListInit
 169:E:/LiteOS/LiteOS_Lab/iot_link/os/os_imp/liteos/base/ipc\los_queue.c ****     LOS_ListInit(&pstQueueCB->stMemList);
 554              		.loc 2 169 0
 555 00da 7B69     		ldr	r3, [r7, #20]
 556 00dc 2433     		adds	r3, r3, #36
 557 00de 1846     		mov	r0, r3
 558 00e0 FFF7FEFF 		bl	LOS_ListInit
 170:E:/LiteOS/LiteOS_Lab/iot_link/os/os_imp/liteos/base/ipc\los_queue.c ****     LOS_IntRestore(uvIntSave);
 559              		.loc 2 170 0
 560 00e4 F869     		ldr	r0, [r7, #28]
 561 00e6 FFF7FEFF 		bl	LOS_IntRestore
 171:E:/LiteOS/LiteOS_Lab/iot_link/os/os_imp/liteos/base/ipc\los_queue.c **** 
 172:E:/LiteOS/LiteOS_Lab/iot_link/os/os_imp/liteos/base/ipc\los_queue.c ****     *puwQueueID = pstQueueCB->usQueueID;
 562              		.loc 2 172 0
 563 00ea 7B69     		ldr	r3, [r7, #20]
 564 00ec 5B89     		ldrh	r3, [r3, #10]
 565 00ee 1A46     		mov	r2, r3
 566 00f0 7B68     		ldr	r3, [r7, #4]
 567 00f2 1A60     		str	r2, [r3]
 173:E:/LiteOS/LiteOS_Lab/iot_link/os/os_imp/liteos/base/ipc\los_queue.c **** 
 174:E:/LiteOS/LiteOS_Lab/iot_link/os/os_imp/liteos/base/ipc\los_queue.c ****     return LOS_OK;
 568              		.loc 2 174 0
 569 00f4 0023     		movs	r3, #0
 570              	.L16:
 175:E:/LiteOS/LiteOS_Lab/iot_link/os/os_imp/liteos/base/ipc\los_queue.c **** }
 571              		.loc 2 175 0
 572 00f6 1846     		mov	r0, r3
 573 00f8 2837     		adds	r7, r7, #40
 574              	.LCFI37:
 575              		.cfi_def_cfa_offset 8
 576 00fa BD46     		mov	sp, r7
 577              	.LCFI38:
 578              		.cfi_def_cfa_register 13
 579              		@ sp needed
 580 00fc 80BD     		pop	{r7, pc}
 581              	.L23:
 582 00fe 00BF     		.align	2
 583              	.L22:
 584 0100 0C060002 		.word	33555980
 585 0104 03060002 		.word	33555971
 586 0108 0D060002 		.word	33555981
 587 010c 00000000 		.word	m_aucSysMem0
 588 0110 02060002 		.word	33555970
 589 0114 00000000 		.word	g_stFreeQueueList
ARM GAS  C:\Users\user\AppData\Local\Temp\ccCjVdMh.s 			page 18


 590 0118 04060002 		.word	33555972
 591              		.cfi_endproc
 592              	.LFE134:
 594              		.section	.text.osQueueReadParameterCheck,"ax",%progbits
 595              		.align	1
 596              		.syntax unified
 597              		.thumb
 598              		.thumb_func
 599              		.fpu fpv4-sp-d16
 601              	osQueueReadParameterCheck:
 602              	.LFB135:
 176:E:/LiteOS/LiteOS_Lab/iot_link/os/os_imp/liteos/base/ipc\los_queue.c **** 
 177:E:/LiteOS/LiteOS_Lab/iot_link/os/os_imp/liteos/base/ipc\los_queue.c **** LITE_OS_SEC_TEXT static INLINE UINT32 osQueueReadParameterCheck(UINT32 uwQueueID, VOID *pBufferAddr
 178:E:/LiteOS/LiteOS_Lab/iot_link/os/os_imp/liteos/base/ipc\los_queue.c **** {
 603              		.loc 2 178 0
 604              		.cfi_startproc
 605              		@ args = 0, pretend = 0, frame = 16
 606              		@ frame_needed = 1, uses_anonymous_args = 0
 607 0000 80B5     		push	{r7, lr}
 608              	.LCFI39:
 609              		.cfi_def_cfa_offset 8
 610              		.cfi_offset 7, -8
 611              		.cfi_offset 14, -4
 612 0002 84B0     		sub	sp, sp, #16
 613              	.LCFI40:
 614              		.cfi_def_cfa_offset 24
 615 0004 00AF     		add	r7, sp, #0
 616              	.LCFI41:
 617              		.cfi_def_cfa_register 7
 618 0006 F860     		str	r0, [r7, #12]
 619 0008 B960     		str	r1, [r7, #8]
 620 000a 7A60     		str	r2, [r7, #4]
 621 000c 3B60     		str	r3, [r7]
 179:E:/LiteOS/LiteOS_Lab/iot_link/os/os_imp/liteos/base/ipc\los_queue.c ****     if (uwQueueID >= LOSCFG_BASE_IPC_QUEUE_LIMIT)
 622              		.loc 2 179 0
 623 000e FB68     		ldr	r3, [r7, #12]
 624 0010 092B     		cmp	r3, #9
 625 0012 01D9     		bls	.L25
 180:E:/LiteOS/LiteOS_Lab/iot_link/os/os_imp/liteos/base/ipc\los_queue.c ****     {
 181:E:/LiteOS/LiteOS_Lab/iot_link/os/os_imp/liteos/base/ipc\los_queue.c ****         return LOS_ERRNO_QUEUE_INVALID;
 626              		.loc 2 181 0
 627 0014 0F4B     		ldr	r3, .L31
 628 0016 18E0     		b	.L26
 629              	.L25:
 182:E:/LiteOS/LiteOS_Lab/iot_link/os/os_imp/liteos/base/ipc\los_queue.c ****     }
 183:E:/LiteOS/LiteOS_Lab/iot_link/os/os_imp/liteos/base/ipc\los_queue.c ****     if ((NULL == pBufferAddr) || (NULL == puwBufferSize))
 630              		.loc 2 183 0
 631 0018 BB68     		ldr	r3, [r7, #8]
 632 001a 002B     		cmp	r3, #0
 633 001c 02D0     		beq	.L27
 634              		.loc 2 183 0 is_stmt 0 discriminator 1
 635 001e 7B68     		ldr	r3, [r7, #4]
 636 0020 002B     		cmp	r3, #0
 637 0022 01D1     		bne	.L28
 638              	.L27:
 184:E:/LiteOS/LiteOS_Lab/iot_link/os/os_imp/liteos/base/ipc\los_queue.c ****     {
 185:E:/LiteOS/LiteOS_Lab/iot_link/os/os_imp/liteos/base/ipc\los_queue.c ****         return LOS_ERRNO_QUEUE_READ_PTR_NULL;
ARM GAS  C:\Users\user\AppData\Local\Temp\ccCjVdMh.s 			page 19


 639              		.loc 2 185 0 is_stmt 1
 640 0024 0C4B     		ldr	r3, .L31+4
 641 0026 10E0     		b	.L26
 642              	.L28:
 186:E:/LiteOS/LiteOS_Lab/iot_link/os/os_imp/liteos/base/ipc\los_queue.c ****     }
 187:E:/LiteOS/LiteOS_Lab/iot_link/os/os_imp/liteos/base/ipc\los_queue.c **** 
 188:E:/LiteOS/LiteOS_Lab/iot_link/os/os_imp/liteos/base/ipc\los_queue.c ****     if (0 == *puwBufferSize)
 643              		.loc 2 188 0
 644 0028 7B68     		ldr	r3, [r7, #4]
 645 002a 1B68     		ldr	r3, [r3]
 646 002c 002B     		cmp	r3, #0
 647 002e 01D1     		bne	.L29
 189:E:/LiteOS/LiteOS_Lab/iot_link/os/os_imp/liteos/base/ipc\los_queue.c ****     {
 190:E:/LiteOS/LiteOS_Lab/iot_link/os/os_imp/liteos/base/ipc\los_queue.c ****         return LOS_ERRNO_QUEUE_READSIZE_ISZERO;
 648              		.loc 2 190 0
 649 0030 0A4B     		ldr	r3, .L31+8
 650 0032 0AE0     		b	.L26
 651              	.L29:
 191:E:/LiteOS/LiteOS_Lab/iot_link/os/os_imp/liteos/base/ipc\los_queue.c ****     }
 192:E:/LiteOS/LiteOS_Lab/iot_link/os/os_imp/liteos/base/ipc\los_queue.c **** 
 193:E:/LiteOS/LiteOS_Lab/iot_link/os/os_imp/liteos/base/ipc\los_queue.c ****     if (LOS_NO_WAIT != uwTimeOut)
 652              		.loc 2 193 0
 653 0034 3B68     		ldr	r3, [r7]
 654 0036 002B     		cmp	r3, #0
 655 0038 06D0     		beq	.L30
 194:E:/LiteOS/LiteOS_Lab/iot_link/os/os_imp/liteos/base/ipc\los_queue.c ****     {
 195:E:/LiteOS/LiteOS_Lab/iot_link/os/os_imp/liteos/base/ipc\los_queue.c ****         if (OS_INT_ACTIVE)
 656              		.loc 2 195 0
 657 003a FFF7FEFF 		bl	osIntNumGet
 658 003e 0346     		mov	r3, r0
 659 0040 002B     		cmp	r3, #0
 660 0042 01D0     		beq	.L30
 196:E:/LiteOS/LiteOS_Lab/iot_link/os/os_imp/liteos/base/ipc\los_queue.c ****         {
 197:E:/LiteOS/LiteOS_Lab/iot_link/os/os_imp/liteos/base/ipc\los_queue.c ****             return LOS_ERRNO_QUEUE_READ_IN_INTERRUPT;
 661              		.loc 2 197 0
 662 0044 064B     		ldr	r3, .L31+12
 663 0046 00E0     		b	.L26
 664              	.L30:
 198:E:/LiteOS/LiteOS_Lab/iot_link/os/os_imp/liteos/base/ipc\los_queue.c ****         }
 199:E:/LiteOS/LiteOS_Lab/iot_link/os/os_imp/liteos/base/ipc\los_queue.c ****     }
 200:E:/LiteOS/LiteOS_Lab/iot_link/os/os_imp/liteos/base/ipc\los_queue.c ****     return LOS_OK;
 665              		.loc 2 200 0
 666 0048 0023     		movs	r3, #0
 667              	.L26:
 201:E:/LiteOS/LiteOS_Lab/iot_link/os/os_imp/liteos/base/ipc\los_queue.c **** }
 668              		.loc 2 201 0
 669 004a 1846     		mov	r0, r3
 670 004c 1037     		adds	r7, r7, #16
 671              	.LCFI42:
 672              		.cfi_def_cfa_offset 8
 673 004e BD46     		mov	sp, r7
 674              	.LCFI43:
 675              		.cfi_def_cfa_register 13
 676              		@ sp needed
 677 0050 80BD     		pop	{r7, pc}
 678              	.L32:
 679 0052 00BF     		.align	2
ARM GAS  C:\Users\user\AppData\Local\Temp\ccCjVdMh.s 			page 20


 680              	.L31:
 681 0054 0E060002 		.word	33555982
 682 0058 0F060002 		.word	33555983
 683 005c 10060002 		.word	33555984
 684 0060 18060002 		.word	33555992
 685              		.cfi_endproc
 686              	.LFE135:
 688              		.section	.text.osQueueWriteParameterCheck,"ax",%progbits
 689              		.align	1
 690              		.syntax unified
 691              		.thumb
 692              		.thumb_func
 693              		.fpu fpv4-sp-d16
 695              	osQueueWriteParameterCheck:
 696              	.LFB136:
 202:E:/LiteOS/LiteOS_Lab/iot_link/os/os_imp/liteos/base/ipc\los_queue.c **** 
 203:E:/LiteOS/LiteOS_Lab/iot_link/os/os_imp/liteos/base/ipc\los_queue.c **** 
 204:E:/LiteOS/LiteOS_Lab/iot_link/os/os_imp/liteos/base/ipc\los_queue.c **** LITE_OS_SEC_TEXT static INLINE UINT32 osQueueWriteParameterCheck(UINT32 uwQueueID, VOID *pBufferAdd
 205:E:/LiteOS/LiteOS_Lab/iot_link/os/os_imp/liteos/base/ipc\los_queue.c **** {
 697              		.loc 2 205 0
 698              		.cfi_startproc
 699              		@ args = 0, pretend = 0, frame = 16
 700              		@ frame_needed = 1, uses_anonymous_args = 0
 701 0000 80B5     		push	{r7, lr}
 702              	.LCFI44:
 703              		.cfi_def_cfa_offset 8
 704              		.cfi_offset 7, -8
 705              		.cfi_offset 14, -4
 706 0002 84B0     		sub	sp, sp, #16
 707              	.LCFI45:
 708              		.cfi_def_cfa_offset 24
 709 0004 00AF     		add	r7, sp, #0
 710              	.LCFI46:
 711              		.cfi_def_cfa_register 7
 712 0006 F860     		str	r0, [r7, #12]
 713 0008 B960     		str	r1, [r7, #8]
 714 000a 7A60     		str	r2, [r7, #4]
 715 000c 3B60     		str	r3, [r7]
 206:E:/LiteOS/LiteOS_Lab/iot_link/os/os_imp/liteos/base/ipc\los_queue.c ****     if (uwQueueID >= LOSCFG_BASE_IPC_QUEUE_LIMIT)
 716              		.loc 2 206 0
 717 000e FB68     		ldr	r3, [r7, #12]
 718 0010 092B     		cmp	r3, #9
 719 0012 01D9     		bls	.L34
 207:E:/LiteOS/LiteOS_Lab/iot_link/os/os_imp/liteos/base/ipc\los_queue.c ****     {
 208:E:/LiteOS/LiteOS_Lab/iot_link/os/os_imp/liteos/base/ipc\los_queue.c ****         return LOS_ERRNO_QUEUE_INVALID;
 720              		.loc 2 208 0
 721 0014 0D4B     		ldr	r3, .L39
 722 0016 15E0     		b	.L35
 723              	.L34:
 209:E:/LiteOS/LiteOS_Lab/iot_link/os/os_imp/liteos/base/ipc\los_queue.c ****     }
 210:E:/LiteOS/LiteOS_Lab/iot_link/os/os_imp/liteos/base/ipc\los_queue.c **** 
 211:E:/LiteOS/LiteOS_Lab/iot_link/os/os_imp/liteos/base/ipc\los_queue.c ****     if (NULL == pBufferAddr)
 724              		.loc 2 211 0
 725 0018 BB68     		ldr	r3, [r7, #8]
 726 001a 002B     		cmp	r3, #0
 727 001c 01D1     		bne	.L36
 212:E:/LiteOS/LiteOS_Lab/iot_link/os/os_imp/liteos/base/ipc\los_queue.c ****     {
ARM GAS  C:\Users\user\AppData\Local\Temp\ccCjVdMh.s 			page 21


 213:E:/LiteOS/LiteOS_Lab/iot_link/os/os_imp/liteos/base/ipc\los_queue.c ****         return LOS_ERRNO_QUEUE_WRITE_PTR_NULL;
 728              		.loc 2 213 0
 729 001e 0C4B     		ldr	r3, .L39+4
 730 0020 10E0     		b	.L35
 731              	.L36:
 214:E:/LiteOS/LiteOS_Lab/iot_link/os/os_imp/liteos/base/ipc\los_queue.c ****     }
 215:E:/LiteOS/LiteOS_Lab/iot_link/os/os_imp/liteos/base/ipc\los_queue.c **** 
 216:E:/LiteOS/LiteOS_Lab/iot_link/os/os_imp/liteos/base/ipc\los_queue.c ****     if (0 == *puwBufferSize)
 732              		.loc 2 216 0
 733 0022 7B68     		ldr	r3, [r7, #4]
 734 0024 1B68     		ldr	r3, [r3]
 735 0026 002B     		cmp	r3, #0
 736 0028 01D1     		bne	.L37
 217:E:/LiteOS/LiteOS_Lab/iot_link/os/os_imp/liteos/base/ipc\los_queue.c ****     {
 218:E:/LiteOS/LiteOS_Lab/iot_link/os/os_imp/liteos/base/ipc\los_queue.c ****         return LOS_ERRNO_QUEUE_WRITESIZE_ISZERO;
 737              		.loc 2 218 0
 738 002a 0A4B     		ldr	r3, .L39+8
 739 002c 0AE0     		b	.L35
 740              	.L37:
 219:E:/LiteOS/LiteOS_Lab/iot_link/os/os_imp/liteos/base/ipc\los_queue.c ****     }
 220:E:/LiteOS/LiteOS_Lab/iot_link/os/os_imp/liteos/base/ipc\los_queue.c **** 
 221:E:/LiteOS/LiteOS_Lab/iot_link/os/os_imp/liteos/base/ipc\los_queue.c ****     if (LOS_NO_WAIT != uwTimeOut)
 741              		.loc 2 221 0
 742 002e 3B68     		ldr	r3, [r7]
 743 0030 002B     		cmp	r3, #0
 744 0032 06D0     		beq	.L38
 222:E:/LiteOS/LiteOS_Lab/iot_link/os/os_imp/liteos/base/ipc\los_queue.c ****     {
 223:E:/LiteOS/LiteOS_Lab/iot_link/os/os_imp/liteos/base/ipc\los_queue.c ****         if (OS_INT_ACTIVE)
 745              		.loc 2 223 0
 746 0034 FFF7FEFF 		bl	osIntNumGet
 747 0038 0346     		mov	r3, r0
 748 003a 002B     		cmp	r3, #0
 749 003c 01D0     		beq	.L38
 224:E:/LiteOS/LiteOS_Lab/iot_link/os/os_imp/liteos/base/ipc\los_queue.c ****         {
 225:E:/LiteOS/LiteOS_Lab/iot_link/os/os_imp/liteos/base/ipc\los_queue.c ****             return LOS_ERRNO_QUEUE_WRITE_IN_INTERRUPT;
 750              		.loc 2 225 0
 751 003e 064B     		ldr	r3, .L39+12
 752 0040 00E0     		b	.L35
 753              	.L38:
 226:E:/LiteOS/LiteOS_Lab/iot_link/os/os_imp/liteos/base/ipc\los_queue.c ****         }
 227:E:/LiteOS/LiteOS_Lab/iot_link/os/os_imp/liteos/base/ipc\los_queue.c ****     }
 228:E:/LiteOS/LiteOS_Lab/iot_link/os/os_imp/liteos/base/ipc\los_queue.c ****     return LOS_OK;
 754              		.loc 2 228 0
 755 0042 0023     		movs	r3, #0
 756              	.L35:
 229:E:/LiteOS/LiteOS_Lab/iot_link/os/os_imp/liteos/base/ipc\los_queue.c **** }
 757              		.loc 2 229 0
 758 0044 1846     		mov	r0, r3
 759 0046 1037     		adds	r7, r7, #16
 760              	.LCFI47:
 761              		.cfi_def_cfa_offset 8
 762 0048 BD46     		mov	sp, r7
 763              	.LCFI48:
 764              		.cfi_def_cfa_register 13
 765              		@ sp needed
 766 004a 80BD     		pop	{r7, pc}
 767              	.L40:
ARM GAS  C:\Users\user\AppData\Local\Temp\ccCjVdMh.s 			page 22


 768              		.align	2
 769              	.L39:
 770 004c 0E060002 		.word	33555982
 771 0050 12060002 		.word	33555986
 772 0054 13060002 		.word	33555987
 773 0058 09060002 		.word	33555977
 774              		.cfi_endproc
 775              	.LFE136:
 777              		.section	.rodata
 778              		.align	2
 779              	.LC0:
 780 0000 5B455252 		.ascii	"[ERR] \000"
 780      5D2000
 781 0007 00       		.align	2
 782              	.LC1:
 783 0008 696E7661 		.ascii	"invalid queue operate type!\000"
 783      6C696420 
 783      71756575 
 783      65206F70 
 783      65726174 
 784              		.section	.text.osQueueBufferOperate,"ax",%progbits
 785              		.align	1
 786              		.syntax unified
 787              		.thumb
 788              		.thumb_func
 789              		.fpu fpv4-sp-d16
 791              	osQueueBufferOperate:
 792              	.LFB137:
 230:E:/LiteOS/LiteOS_Lab/iot_link/os/os_imp/liteos/base/ipc\los_queue.c **** 
 231:E:/LiteOS/LiteOS_Lab/iot_link/os/os_imp/liteos/base/ipc\los_queue.c **** LITE_OS_SEC_TEXT static INLINE VOID osQueueBufferOperate(QUEUE_CB_S *pstQueueCB, UINT32 uwOperateTy
 232:E:/LiteOS/LiteOS_Lab/iot_link/os/os_imp/liteos/base/ipc\los_queue.c **** {
 793              		.loc 2 232 0
 794              		.cfi_startproc
 795              		@ args = 0, pretend = 0, frame = 32
 796              		@ frame_needed = 1, uses_anonymous_args = 0
 797 0000 80B5     		push	{r7, lr}
 798              	.LCFI49:
 799              		.cfi_def_cfa_offset 8
 800              		.cfi_offset 7, -8
 801              		.cfi_offset 14, -4
 802 0002 88B0     		sub	sp, sp, #32
 803              	.LCFI50:
 804              		.cfi_def_cfa_offset 40
 805 0004 00AF     		add	r7, sp, #0
 806              	.LCFI51:
 807              		.cfi_def_cfa_register 7
 808 0006 F860     		str	r0, [r7, #12]
 809 0008 B960     		str	r1, [r7, #8]
 810 000a 7A60     		str	r2, [r7, #4]
 811 000c 3B60     		str	r3, [r7]
 233:E:/LiteOS/LiteOS_Lab/iot_link/os/os_imp/liteos/base/ipc\los_queue.c ****     UINT8        *pucQueueNode;
 234:E:/LiteOS/LiteOS_Lab/iot_link/os/os_imp/liteos/base/ipc\los_queue.c ****     UINT32       uwMsgDataSize = 0;
 812              		.loc 2 234 0
 813 000e 0023     		movs	r3, #0
 814 0010 7B61     		str	r3, [r7, #20]
 235:E:/LiteOS/LiteOS_Lab/iot_link/os/os_imp/liteos/base/ipc\los_queue.c ****     UINT16      usQueuePosion = 0;
 815              		.loc 2 235 0
ARM GAS  C:\Users\user\AppData\Local\Temp\ccCjVdMh.s 			page 23


 816 0012 0023     		movs	r3, #0
 817 0014 FB83     		strh	r3, [r7, #30]	@ movhi
 236:E:/LiteOS/LiteOS_Lab/iot_link/os/os_imp/liteos/base/ipc\los_queue.c **** 
 237:E:/LiteOS/LiteOS_Lab/iot_link/os/os_imp/liteos/base/ipc\los_queue.c ****     /* get the queue position */
 238:E:/LiteOS/LiteOS_Lab/iot_link/os/os_imp/liteos/base/ipc\los_queue.c ****     switch (OS_QUEUE_OPERATE_GET(uwOperateType))
 818              		.loc 2 238 0
 819 0016 BB68     		ldr	r3, [r7, #8]
 820 0018 03F00303 		and	r3, r3, #3
 821 001c 012B     		cmp	r3, #1
 822 001e 19D0     		beq	.L43
 823 0020 012B     		cmp	r3, #1
 824 0022 02D3     		bcc	.L44
 825 0024 032B     		cmp	r3, #3
 826 0026 2AD0     		beq	.L45
 827 0028 3EE0     		b	.L59
 828              	.L44:
 239:E:/LiteOS/LiteOS_Lab/iot_link/os/os_imp/liteos/base/ipc\los_queue.c ****     {
 240:E:/LiteOS/LiteOS_Lab/iot_link/os/os_imp/liteos/base/ipc\los_queue.c ****         case OS_QUEUE_READ_HEAD:
 241:E:/LiteOS/LiteOS_Lab/iot_link/os/os_imp/liteos/base/ipc\los_queue.c ****             usQueuePosion = pstQueueCB->usQueueHead;
 829              		.loc 2 241 0
 830 002a FB68     		ldr	r3, [r7, #12]
 831 002c 9B89     		ldrh	r3, [r3, #12]	@ movhi
 832 002e FB83     		strh	r3, [r7, #30]	@ movhi
 242:E:/LiteOS/LiteOS_Lab/iot_link/os/os_imp/liteos/base/ipc\los_queue.c ****             (pstQueueCB->usQueueHead + 1 == pstQueueCB->usQueueLen) ? (pstQueueCB->usQueueHead = 0)
 833              		.loc 2 242 0
 834 0030 FB68     		ldr	r3, [r7, #12]
 835 0032 9B89     		ldrh	r3, [r3, #12]
 836 0034 0133     		adds	r3, r3, #1
 837 0036 FA68     		ldr	r2, [r7, #12]
 838 0038 D288     		ldrh	r2, [r2, #6]
 839 003a 9342     		cmp	r3, r2
 840 003c 03D1     		bne	.L46
 841              		.loc 2 242 0 is_stmt 0 discriminator 1
 842 003e FB68     		ldr	r3, [r7, #12]
 843 0040 0022     		movs	r2, #0
 844 0042 9A81     		strh	r2, [r3, #12]	@ movhi
 243:E:/LiteOS/LiteOS_Lab/iot_link/os/os_imp/liteos/base/ipc\los_queue.c ****             break;
 845              		.loc 2 243 0 is_stmt 1 discriminator 1
 846 0044 37E0     		b	.L48
 847              	.L46:
 242:E:/LiteOS/LiteOS_Lab/iot_link/os/os_imp/liteos/base/ipc\los_queue.c ****             (pstQueueCB->usQueueHead + 1 == pstQueueCB->usQueueLen) ? (pstQueueCB->usQueueHead = 0)
 848              		.loc 2 242 0 discriminator 2
 849 0046 FB68     		ldr	r3, [r7, #12]
 850 0048 9B89     		ldrh	r3, [r3, #12]
 851 004a 0133     		adds	r3, r3, #1
 852 004c 9AB2     		uxth	r2, r3
 853 004e FB68     		ldr	r3, [r7, #12]
 854 0050 9A81     		strh	r2, [r3, #12]	@ movhi
 855              		.loc 2 243 0 discriminator 2
 856 0052 30E0     		b	.L48
 857              	.L43:
 244:E:/LiteOS/LiteOS_Lab/iot_link/os/os_imp/liteos/base/ipc\los_queue.c **** 
 245:E:/LiteOS/LiteOS_Lab/iot_link/os/os_imp/liteos/base/ipc\los_queue.c ****         case OS_QUEUE_WRITE_HEAD:
 246:E:/LiteOS/LiteOS_Lab/iot_link/os/os_imp/liteos/base/ipc\los_queue.c ****             (0 == pstQueueCB->usQueueHead) ? (pstQueueCB->usQueueHead = pstQueueCB->usQueueLen - 1)
 858              		.loc 2 246 0
 859 0054 FB68     		ldr	r3, [r7, #12]
 860 0056 9B89     		ldrh	r3, [r3, #12]
ARM GAS  C:\Users\user\AppData\Local\Temp\ccCjVdMh.s 			page 24


 861 0058 002B     		cmp	r3, #0
 862 005a 06D1     		bne	.L49
 863              		.loc 2 246 0 is_stmt 0 discriminator 1
 864 005c FB68     		ldr	r3, [r7, #12]
 865 005e DB88     		ldrh	r3, [r3, #6]
 866 0060 013B     		subs	r3, r3, #1
 867 0062 9AB2     		uxth	r2, r3
 868 0064 FB68     		ldr	r3, [r7, #12]
 869 0066 9A81     		strh	r2, [r3, #12]	@ movhi
 870 0068 05E0     		b	.L50
 871              	.L49:
 872              		.loc 2 246 0 discriminator 2
 873 006a FB68     		ldr	r3, [r7, #12]
 874 006c 9B89     		ldrh	r3, [r3, #12]
 875 006e 013B     		subs	r3, r3, #1
 876 0070 9AB2     		uxth	r2, r3
 877 0072 FB68     		ldr	r3, [r7, #12]
 878 0074 9A81     		strh	r2, [r3, #12]	@ movhi
 879              	.L50:
 247:E:/LiteOS/LiteOS_Lab/iot_link/os/os_imp/liteos/base/ipc\los_queue.c ****             usQueuePosion = pstQueueCB->usQueueHead;
 880              		.loc 2 247 0 is_stmt 1
 881 0076 FB68     		ldr	r3, [r7, #12]
 882 0078 9B89     		ldrh	r3, [r3, #12]	@ movhi
 883 007a FB83     		strh	r3, [r7, #30]	@ movhi
 248:E:/LiteOS/LiteOS_Lab/iot_link/os/os_imp/liteos/base/ipc\los_queue.c ****             break;
 884              		.loc 2 248 0
 885 007c 1BE0     		b	.L48
 886              	.L45:
 249:E:/LiteOS/LiteOS_Lab/iot_link/os/os_imp/liteos/base/ipc\los_queue.c **** 
 250:E:/LiteOS/LiteOS_Lab/iot_link/os/os_imp/liteos/base/ipc\los_queue.c ****         case OS_QUEUE_WRITE_TAIL :
 251:E:/LiteOS/LiteOS_Lab/iot_link/os/os_imp/liteos/base/ipc\los_queue.c ****             usQueuePosion = pstQueueCB->usQueueTail;
 887              		.loc 2 251 0
 888 007e FB68     		ldr	r3, [r7, #12]
 889 0080 DB89     		ldrh	r3, [r3, #14]	@ movhi
 890 0082 FB83     		strh	r3, [r7, #30]	@ movhi
 252:E:/LiteOS/LiteOS_Lab/iot_link/os/os_imp/liteos/base/ipc\los_queue.c ****             (pstQueueCB->usQueueTail + 1 == pstQueueCB->usQueueLen) ? (pstQueueCB->usQueueTail = 0)
 891              		.loc 2 252 0
 892 0084 FB68     		ldr	r3, [r7, #12]
 893 0086 DB89     		ldrh	r3, [r3, #14]
 894 0088 0133     		adds	r3, r3, #1
 895 008a FA68     		ldr	r2, [r7, #12]
 896 008c D288     		ldrh	r2, [r2, #6]
 897 008e 9342     		cmp	r3, r2
 898 0090 03D1     		bne	.L51
 899              		.loc 2 252 0 is_stmt 0 discriminator 1
 900 0092 FB68     		ldr	r3, [r7, #12]
 901 0094 0022     		movs	r2, #0
 902 0096 DA81     		strh	r2, [r3, #14]	@ movhi
 253:E:/LiteOS/LiteOS_Lab/iot_link/os/os_imp/liteos/base/ipc\los_queue.c ****             break;
 903              		.loc 2 253 0 is_stmt 1 discriminator 1
 904 0098 0DE0     		b	.L48
 905              	.L51:
 252:E:/LiteOS/LiteOS_Lab/iot_link/os/os_imp/liteos/base/ipc\los_queue.c ****             (pstQueueCB->usQueueTail + 1 == pstQueueCB->usQueueLen) ? (pstQueueCB->usQueueTail = 0)
 906              		.loc 2 252 0 discriminator 2
 907 009a FB68     		ldr	r3, [r7, #12]
 908 009c DB89     		ldrh	r3, [r3, #14]
 909 009e 0133     		adds	r3, r3, #1
ARM GAS  C:\Users\user\AppData\Local\Temp\ccCjVdMh.s 			page 25


 910 00a0 9AB2     		uxth	r2, r3
 911 00a2 FB68     		ldr	r3, [r7, #12]
 912 00a4 DA81     		strh	r2, [r3, #14]	@ movhi
 913              		.loc 2 253 0 discriminator 2
 914 00a6 06E0     		b	.L48
 915              	.L59:
 254:E:/LiteOS/LiteOS_Lab/iot_link/os/os_imp/liteos/base/ipc\los_queue.c **** 
 255:E:/LiteOS/LiteOS_Lab/iot_link/os/os_imp/liteos/base/ipc\los_queue.c ****         default: //read tail , reserved.
 256:E:/LiteOS/LiteOS_Lab/iot_link/os/os_imp/liteos/base/ipc\los_queue.c ****             PRINT_ERR("invalid queue operate type!\n");
 916              		.loc 2 256 0
 917 00a8 2548     		ldr	r0, .L60
 918 00aa FFF7FEFF 		bl	printf
 919 00ae 2548     		ldr	r0, .L60+4
 920 00b0 FFF7FEFF 		bl	puts
 921 00b4 41E0     		b	.L41
 922              	.L48:
 257:E:/LiteOS/LiteOS_Lab/iot_link/os/os_imp/liteos/base/ipc\los_queue.c ****             return;
 258:E:/LiteOS/LiteOS_Lab/iot_link/os/os_imp/liteos/base/ipc\los_queue.c ****     }
 259:E:/LiteOS/LiteOS_Lab/iot_link/os/os_imp/liteos/base/ipc\los_queue.c **** 
 260:E:/LiteOS/LiteOS_Lab/iot_link/os/os_imp/liteos/base/ipc\los_queue.c ****     pucQueueNode = &(pstQueueCB->pucQueue[(usQueuePosion * (pstQueueCB->usQueueSize))]);
 923              		.loc 2 260 0
 924 00b6 FB68     		ldr	r3, [r7, #12]
 925 00b8 1B68     		ldr	r3, [r3]
 926 00ba FA8B     		ldrh	r2, [r7, #30]
 927 00bc F968     		ldr	r1, [r7, #12]
 928 00be 0989     		ldrh	r1, [r1, #8]
 929 00c0 01FB02F2 		mul	r2, r1, r2
 930 00c4 1344     		add	r3, r3, r2
 931 00c6 BB61     		str	r3, [r7, #24]
 261:E:/LiteOS/LiteOS_Lab/iot_link/os/os_imp/liteos/base/ipc\los_queue.c **** 
 262:E:/LiteOS/LiteOS_Lab/iot_link/os/os_imp/liteos/base/ipc\los_queue.c ****     if(OS_QUEUE_IS_POINT(uwOperateType))
 932              		.loc 2 262 0
 933 00c8 BB68     		ldr	r3, [r7, #8]
 934 00ca 03F00403 		and	r3, r3, #4
 935 00ce 002B     		cmp	r3, #0
 936 00d0 0ED0     		beq	.L54
 263:E:/LiteOS/LiteOS_Lab/iot_link/os/os_imp/liteos/base/ipc\los_queue.c ****     {
 264:E:/LiteOS/LiteOS_Lab/iot_link/os/os_imp/liteos/base/ipc\los_queue.c ****         if(OS_QUEUE_IS_READ(uwOperateType))
 937              		.loc 2 264 0
 938 00d2 BB68     		ldr	r3, [r7, #8]
 939 00d4 03F00103 		and	r3, r3, #1
 940 00d8 002B     		cmp	r3, #0
 941 00da 04D1     		bne	.L55
 265:E:/LiteOS/LiteOS_Lab/iot_link/os/os_imp/liteos/base/ipc\los_queue.c ****         {
 266:E:/LiteOS/LiteOS_Lab/iot_link/os/os_imp/liteos/base/ipc\los_queue.c ****             *(UINT32 *)pBufferAddr = *(UINT32 *)pucQueueNode;
 942              		.loc 2 266 0
 943 00dc BB69     		ldr	r3, [r7, #24]
 944 00de 1A68     		ldr	r2, [r3]
 945 00e0 7B68     		ldr	r3, [r7, #4]
 946 00e2 1A60     		str	r2, [r3]
 947 00e4 29E0     		b	.L41
 948              	.L55:
 267:E:/LiteOS/LiteOS_Lab/iot_link/os/os_imp/liteos/base/ipc\los_queue.c ****         }
 268:E:/LiteOS/LiteOS_Lab/iot_link/os/os_imp/liteos/base/ipc\los_queue.c ****         else
 269:E:/LiteOS/LiteOS_Lab/iot_link/os/os_imp/liteos/base/ipc\los_queue.c ****         {
 270:E:/LiteOS/LiteOS_Lab/iot_link/os/os_imp/liteos/base/ipc\los_queue.c ****             *(UINT32 *)pucQueueNode = *(UINT32 *)pBufferAddr;//change to pp when calling osQueueOpe
 949              		.loc 2 270 0
ARM GAS  C:\Users\user\AppData\Local\Temp\ccCjVdMh.s 			page 26


 950 00e6 7B68     		ldr	r3, [r7, #4]
 951 00e8 1A68     		ldr	r2, [r3]
 952 00ea BB69     		ldr	r3, [r7, #24]
 953 00ec 1A60     		str	r2, [r3]
 954 00ee 24E0     		b	.L41
 955              	.L54:
 271:E:/LiteOS/LiteOS_Lab/iot_link/os/os_imp/liteos/base/ipc\los_queue.c ****         }
 272:E:/LiteOS/LiteOS_Lab/iot_link/os/os_imp/liteos/base/ipc\los_queue.c ****     }
 273:E:/LiteOS/LiteOS_Lab/iot_link/os/os_imp/liteos/base/ipc\los_queue.c ****     else
 274:E:/LiteOS/LiteOS_Lab/iot_link/os/os_imp/liteos/base/ipc\los_queue.c ****     {
 275:E:/LiteOS/LiteOS_Lab/iot_link/os/os_imp/liteos/base/ipc\los_queue.c ****         if(OS_QUEUE_IS_READ(uwOperateType))
 956              		.loc 2 275 0
 957 00f0 BB68     		ldr	r3, [r7, #8]
 958 00f2 03F00103 		and	r3, r3, #1
 959 00f6 002B     		cmp	r3, #0
 960 00f8 10D1     		bne	.L58
 276:E:/LiteOS/LiteOS_Lab/iot_link/os/os_imp/liteos/base/ipc\los_queue.c ****         {
 277:E:/LiteOS/LiteOS_Lab/iot_link/os/os_imp/liteos/base/ipc\los_queue.c ****             memcpy((VOID *)&uwMsgDataSize, (VOID *)(pucQueueNode + pstQueueCB->usQueueSize - sizeof
 961              		.loc 2 277 0
 962 00fa FB68     		ldr	r3, [r7, #12]
 963 00fc 1B89     		ldrh	r3, [r3, #8]
 964 00fe 043B     		subs	r3, r3, #4
 965 0100 BA69     		ldr	r2, [r7, #24]
 966 0102 1344     		add	r3, r3, r2
 967 0104 1B68     		ldr	r3, [r3]	@ unaligned
 968 0106 7B61     		str	r3, [r7, #20]
 278:E:/LiteOS/LiteOS_Lab/iot_link/os/os_imp/liteos/base/ipc\los_queue.c ****             memcpy((VOID *)pBufferAddr, (VOID *)pucQueueNode, uwMsgDataSize);
 969              		.loc 2 278 0
 970 0108 7B69     		ldr	r3, [r7, #20]
 971 010a 1A46     		mov	r2, r3
 972 010c B969     		ldr	r1, [r7, #24]
 973 010e 7868     		ldr	r0, [r7, #4]
 974 0110 FFF7FEFF 		bl	memcpy
 279:E:/LiteOS/LiteOS_Lab/iot_link/os/os_imp/liteos/base/ipc\los_queue.c ****             *puwBufferSize = uwMsgDataSize;
 975              		.loc 2 279 0
 976 0114 7A69     		ldr	r2, [r7, #20]
 977 0116 3B68     		ldr	r3, [r7]
 978 0118 1A60     		str	r2, [r3]
 979 011a 0EE0     		b	.L41
 980              	.L58:
 280:E:/LiteOS/LiteOS_Lab/iot_link/os/os_imp/liteos/base/ipc\los_queue.c ****         }
 281:E:/LiteOS/LiteOS_Lab/iot_link/os/os_imp/liteos/base/ipc\los_queue.c ****         else
 282:E:/LiteOS/LiteOS_Lab/iot_link/os/os_imp/liteos/base/ipc\los_queue.c ****         {
 283:E:/LiteOS/LiteOS_Lab/iot_link/os/os_imp/liteos/base/ipc\los_queue.c ****             memcpy((VOID *)pucQueueNode, (VOID *)pBufferAddr, *puwBufferSize);
 981              		.loc 2 283 0
 982 011c 3B68     		ldr	r3, [r7]
 983 011e 1B68     		ldr	r3, [r3]
 984 0120 1A46     		mov	r2, r3
 985 0122 7968     		ldr	r1, [r7, #4]
 986 0124 B869     		ldr	r0, [r7, #24]
 987 0126 FFF7FEFF 		bl	memcpy
 284:E:/LiteOS/LiteOS_Lab/iot_link/os/os_imp/liteos/base/ipc\los_queue.c ****             memcpy((VOID *)(pucQueueNode + pstQueueCB->usQueueSize - sizeof(UINT32)), puwBufferSize
 988              		.loc 2 284 0
 989 012a FB68     		ldr	r3, [r7, #12]
 990 012c 1B89     		ldrh	r3, [r3, #8]
 991 012e 043B     		subs	r3, r3, #4
 992 0130 BA69     		ldr	r2, [r7, #24]
ARM GAS  C:\Users\user\AppData\Local\Temp\ccCjVdMh.s 			page 27


 993 0132 1344     		add	r3, r3, r2
 994 0134 3A68     		ldr	r2, [r7]
 995 0136 1268     		ldr	r2, [r2]	@ unaligned
 996 0138 1A60     		str	r2, [r3]	@ unaligned
 997              	.L41:
 285:E:/LiteOS/LiteOS_Lab/iot_link/os/os_imp/liteos/base/ipc\los_queue.c ****         }
 286:E:/LiteOS/LiteOS_Lab/iot_link/os/os_imp/liteos/base/ipc\los_queue.c ****     }
 287:E:/LiteOS/LiteOS_Lab/iot_link/os/os_imp/liteos/base/ipc\los_queue.c **** }
 998              		.loc 2 287 0
 999 013a 2037     		adds	r7, r7, #32
 1000              	.LCFI52:
 1001              		.cfi_def_cfa_offset 8
 1002 013c BD46     		mov	sp, r7
 1003              	.LCFI53:
 1004              		.cfi_def_cfa_register 13
 1005              		@ sp needed
 1006 013e 80BD     		pop	{r7, pc}
 1007              	.L61:
 1008              		.align	2
 1009              	.L60:
 1010 0140 00000000 		.word	.LC0
 1011 0144 08000000 		.word	.LC1
 1012              		.cfi_endproc
 1013              	.LFE137:
 1015              		.section	.text.osQueueOperate,"ax",%progbits
 1016              		.align	1
 1017              		.global	osQueueOperate
 1018              		.syntax unified
 1019              		.thumb
 1020              		.thumb_func
 1021              		.fpu fpv4-sp-d16
 1023              	osQueueOperate:
 1024              	.LFB138:
 288:E:/LiteOS/LiteOS_Lab/iot_link/os/os_imp/liteos/base/ipc\los_queue.c **** 
 289:E:/LiteOS/LiteOS_Lab/iot_link/os/os_imp/liteos/base/ipc\los_queue.c **** 
 290:E:/LiteOS/LiteOS_Lab/iot_link/os/os_imp/liteos/base/ipc\los_queue.c **** LITE_OS_SEC_TEXT UINT32 osQueueOperate(UINT32 uwQueueID, UINT32 uwOperateType, VOID *pBufferAddr, U
 291:E:/LiteOS/LiteOS_Lab/iot_link/os/os_imp/liteos/base/ipc\los_queue.c **** {
 1025              		.loc 2 291 0
 1026              		.cfi_startproc
 1027              		@ args = 4, pretend = 0, frame = 40
 1028              		@ frame_needed = 1, uses_anonymous_args = 0
 1029 0000 80B5     		push	{r7, lr}
 1030              	.LCFI54:
 1031              		.cfi_def_cfa_offset 8
 1032              		.cfi_offset 7, -8
 1033              		.cfi_offset 14, -4
 1034 0002 8AB0     		sub	sp, sp, #40
 1035              	.LCFI55:
 1036              		.cfi_def_cfa_offset 48
 1037 0004 00AF     		add	r7, sp, #0
 1038              	.LCFI56:
 1039              		.cfi_def_cfa_register 7
 1040 0006 F860     		str	r0, [r7, #12]
 1041 0008 B960     		str	r1, [r7, #8]
 1042 000a 7A60     		str	r2, [r7, #4]
 1043 000c 3B60     		str	r3, [r7]
 292:E:/LiteOS/LiteOS_Lab/iot_link/os/os_imp/liteos/base/ipc\los_queue.c ****     QUEUE_CB_S *pstQueueCB;
ARM GAS  C:\Users\user\AppData\Local\Temp\ccCjVdMh.s 			page 28


 293:E:/LiteOS/LiteOS_Lab/iot_link/os/os_imp/liteos/base/ipc\los_queue.c ****     LOS_TASK_CB  *pstRunTsk;
 294:E:/LiteOS/LiteOS_Lab/iot_link/os/os_imp/liteos/base/ipc\los_queue.c ****     UINTPTR      uvIntSave;
 295:E:/LiteOS/LiteOS_Lab/iot_link/os/os_imp/liteos/base/ipc\los_queue.c ****     LOS_TASK_CB  *pstResumedTask;
 296:E:/LiteOS/LiteOS_Lab/iot_link/os/os_imp/liteos/base/ipc\los_queue.c ****     UINT32       uwRet = LOS_OK;
 1044              		.loc 2 296 0
 1045 000e 0023     		movs	r3, #0
 1046 0010 3B62     		str	r3, [r7, #32]
 297:E:/LiteOS/LiteOS_Lab/iot_link/os/os_imp/liteos/base/ipc\los_queue.c ****     UINT32       uwReadWrite = OS_QUEUE_READ_WRITE_GET(uwOperateType);
 1047              		.loc 2 297 0
 1048 0012 BB68     		ldr	r3, [r7, #8]
 1049 0014 03F00103 		and	r3, r3, #1
 1050 0018 FB61     		str	r3, [r7, #28]
 298:E:/LiteOS/LiteOS_Lab/iot_link/os/os_imp/liteos/base/ipc\los_queue.c **** 
 299:E:/LiteOS/LiteOS_Lab/iot_link/os/os_imp/liteos/base/ipc\los_queue.c ****     uvIntSave = LOS_IntLock();
 1051              		.loc 2 299 0
 1052 001a FFF7FEFF 		bl	LOS_IntLock
 1053 001e 7862     		str	r0, [r7, #36]
 300:E:/LiteOS/LiteOS_Lab/iot_link/os/os_imp/liteos/base/ipc\los_queue.c **** 
 301:E:/LiteOS/LiteOS_Lab/iot_link/os/os_imp/liteos/base/ipc\los_queue.c ****     pstQueueCB = (QUEUE_CB_S *)GET_QUEUE_HANDLE(uwQueueID);
 1054              		.loc 2 301 0
 1055 0020 614B     		ldr	r3, .L75
 1056 0022 1A68     		ldr	r2, [r3]
 1057 0024 FB68     		ldr	r3, [r7, #12]
 1058 0026 2C21     		movs	r1, #44
 1059 0028 01FB03F3 		mul	r3, r1, r3
 1060 002c 1344     		add	r3, r3, r2
 1061 002e BB61     		str	r3, [r7, #24]
 302:E:/LiteOS/LiteOS_Lab/iot_link/os/os_imp/liteos/base/ipc\los_queue.c ****     if (OS_QUEUE_UNUSED == pstQueueCB->usQueueState)
 1062              		.loc 2 302 0
 1063 0030 BB69     		ldr	r3, [r7, #24]
 1064 0032 9B88     		ldrh	r3, [r3, #4]
 1065 0034 002B     		cmp	r3, #0
 1066 0036 02D1     		bne	.L63
 303:E:/LiteOS/LiteOS_Lab/iot_link/os/os_imp/liteos/base/ipc\los_queue.c ****     {
 304:E:/LiteOS/LiteOS_Lab/iot_link/os/os_imp/liteos/base/ipc\los_queue.c ****         uwRet = LOS_ERRNO_QUEUE_NOT_CREATE;
 1067              		.loc 2 304 0
 1068 0038 5C4B     		ldr	r3, .L75+4
 1069 003a 3B62     		str	r3, [r7, #32]
 305:E:/LiteOS/LiteOS_Lab/iot_link/os/os_imp/liteos/base/ipc\los_queue.c ****         goto QUEUE_END;
 1070              		.loc 2 305 0
 1071 003c ACE0     		b	.L64
 1072              	.L63:
 306:E:/LiteOS/LiteOS_Lab/iot_link/os/os_imp/liteos/base/ipc\los_queue.c **** 
 307:E:/LiteOS/LiteOS_Lab/iot_link/os/os_imp/liteos/base/ipc\los_queue.c ****     }
 308:E:/LiteOS/LiteOS_Lab/iot_link/os/os_imp/liteos/base/ipc\los_queue.c **** 
 309:E:/LiteOS/LiteOS_Lab/iot_link/os/os_imp/liteos/base/ipc\los_queue.c ****     if(OS_QUEUE_IS_READ(uwOperateType) && (*puwBufferSize < pstQueueCB->usQueueSize - sizeof(UINT32
 1073              		.loc 2 309 0
 1074 003e BB68     		ldr	r3, [r7, #8]
 1075 0040 03F00103 		and	r3, r3, #1
 1076 0044 002B     		cmp	r3, #0
 1077 0046 09D1     		bne	.L65
 1078              		.loc 2 309 0 is_stmt 0 discriminator 1
 1079 0048 3B68     		ldr	r3, [r7]
 1080 004a 1A68     		ldr	r2, [r3]
 1081 004c BB69     		ldr	r3, [r7, #24]
 1082 004e 1B89     		ldrh	r3, [r3, #8]
 1083 0050 043B     		subs	r3, r3, #4
ARM GAS  C:\Users\user\AppData\Local\Temp\ccCjVdMh.s 			page 29


 1084 0052 9A42     		cmp	r2, r3
 1085 0054 02D2     		bcs	.L65
 310:E:/LiteOS/LiteOS_Lab/iot_link/os/os_imp/liteos/base/ipc\los_queue.c ****     {
 311:E:/LiteOS/LiteOS_Lab/iot_link/os/os_imp/liteos/base/ipc\los_queue.c ****         uwRet = LOS_ERRNO_QUEUE_READ_SIZE_TOO_SMALL;
 1086              		.loc 2 311 0 is_stmt 1
 1087 0056 564B     		ldr	r3, .L75+8
 1088 0058 3B62     		str	r3, [r7, #32]
 312:E:/LiteOS/LiteOS_Lab/iot_link/os/os_imp/liteos/base/ipc\los_queue.c ****         goto QUEUE_END;
 1089              		.loc 2 312 0
 1090 005a 9DE0     		b	.L64
 1091              	.L65:
 313:E:/LiteOS/LiteOS_Lab/iot_link/os/os_imp/liteos/base/ipc\los_queue.c ****     }
 314:E:/LiteOS/LiteOS_Lab/iot_link/os/os_imp/liteos/base/ipc\los_queue.c ****     else if(OS_QUEUE_IS_WRITE(uwOperateType) && (*puwBufferSize > pstQueueCB->usQueueSize - sizeof(
 1092              		.loc 2 314 0
 1093 005c BB68     		ldr	r3, [r7, #8]
 1094 005e 03F00103 		and	r3, r3, #1
 1095 0062 002B     		cmp	r3, #0
 1096 0064 09D0     		beq	.L66
 1097              		.loc 2 314 0 is_stmt 0 discriminator 1
 1098 0066 3B68     		ldr	r3, [r7]
 1099 0068 1A68     		ldr	r2, [r3]
 1100 006a BB69     		ldr	r3, [r7, #24]
 1101 006c 1B89     		ldrh	r3, [r3, #8]
 1102 006e 043B     		subs	r3, r3, #4
 1103 0070 9A42     		cmp	r2, r3
 1104 0072 02D9     		bls	.L66
 315:E:/LiteOS/LiteOS_Lab/iot_link/os/os_imp/liteos/base/ipc\los_queue.c ****     {
 316:E:/LiteOS/LiteOS_Lab/iot_link/os/os_imp/liteos/base/ipc\los_queue.c ****         uwRet = LOS_ERRNO_QUEUE_WRITE_SIZE_TOO_BIG;
 1105              		.loc 2 316 0 is_stmt 1
 1106 0074 4F4B     		ldr	r3, .L75+12
 1107 0076 3B62     		str	r3, [r7, #32]
 317:E:/LiteOS/LiteOS_Lab/iot_link/os/os_imp/liteos/base/ipc\los_queue.c ****         goto QUEUE_END;
 1108              		.loc 2 317 0
 1109 0078 8EE0     		b	.L64
 1110              	.L66:
 318:E:/LiteOS/LiteOS_Lab/iot_link/os/os_imp/liteos/base/ipc\los_queue.c ****     }
 319:E:/LiteOS/LiteOS_Lab/iot_link/os/os_imp/liteos/base/ipc\los_queue.c **** 
 320:E:/LiteOS/LiteOS_Lab/iot_link/os/os_imp/liteos/base/ipc\los_queue.c ****     if (0 == pstQueueCB->usReadWriteableCnt[uwReadWrite])
 1111              		.loc 2 320 0
 1112 007a BB69     		ldr	r3, [r7, #24]
 1113 007c FA69     		ldr	r2, [r7, #28]
 1114 007e 0832     		adds	r2, r2, #8
 1115 0080 33F81230 		ldrh	r3, [r3, r2, lsl #1]
 1116 0084 002B     		cmp	r3, #0
 1117 0086 3AD1     		bne	.L67
 321:E:/LiteOS/LiteOS_Lab/iot_link/os/os_imp/liteos/base/ipc\los_queue.c ****     {
 322:E:/LiteOS/LiteOS_Lab/iot_link/os/os_imp/liteos/base/ipc\los_queue.c ****         if (LOS_NO_WAIT == uwTimeOut)
 1118              		.loc 2 322 0
 1119 0088 3B6B     		ldr	r3, [r7, #48]
 1120 008a 002B     		cmp	r3, #0
 1121 008c 09D1     		bne	.L68
 323:E:/LiteOS/LiteOS_Lab/iot_link/os/os_imp/liteos/base/ipc\los_queue.c ****         {
 324:E:/LiteOS/LiteOS_Lab/iot_link/os/os_imp/liteos/base/ipc\los_queue.c ****             uwRet = OS_QUEUE_IS_READ(uwOperateType) ? LOS_ERRNO_QUEUE_ISEMPTY : LOS_ERRNO_QUEUE_ISF
 1122              		.loc 2 324 0
 1123 008e BB68     		ldr	r3, [r7, #8]
 1124 0090 03F00103 		and	r3, r3, #1
 1125 0094 002B     		cmp	r3, #0
ARM GAS  C:\Users\user\AppData\Local\Temp\ccCjVdMh.s 			page 30


 1126 0096 01D1     		bne	.L69
 1127              		.loc 2 324 0 is_stmt 0 discriminator 1
 1128 0098 474B     		ldr	r3, .L75+16
 1129 009a 00E0     		b	.L70
 1130              	.L69:
 1131              		.loc 2 324 0 discriminator 2
 1132 009c 474B     		ldr	r3, .L75+20
 1133              	.L70:
 1134              		.loc 2 324 0 discriminator 4
 1135 009e 3B62     		str	r3, [r7, #32]
 325:E:/LiteOS/LiteOS_Lab/iot_link/os/os_imp/liteos/base/ipc\los_queue.c ****             goto QUEUE_END;
 1136              		.loc 2 325 0 is_stmt 1 discriminator 4
 1137 00a0 7AE0     		b	.L64
 1138              	.L68:
 326:E:/LiteOS/LiteOS_Lab/iot_link/os/os_imp/liteos/base/ipc\los_queue.c ****         }
 327:E:/LiteOS/LiteOS_Lab/iot_link/os/os_imp/liteos/base/ipc\los_queue.c **** 
 328:E:/LiteOS/LiteOS_Lab/iot_link/os/os_imp/liteos/base/ipc\los_queue.c ****         if (g_usLosTaskLock)
 1139              		.loc 2 328 0
 1140 00a2 474B     		ldr	r3, .L75+24
 1141 00a4 1B88     		ldrh	r3, [r3]
 1142 00a6 002B     		cmp	r3, #0
 1143 00a8 02D0     		beq	.L71
 329:E:/LiteOS/LiteOS_Lab/iot_link/os/os_imp/liteos/base/ipc\los_queue.c ****         {
 330:E:/LiteOS/LiteOS_Lab/iot_link/os/os_imp/liteos/base/ipc\los_queue.c ****             uwRet = LOS_ERRNO_QUEUE_PEND_IN_LOCK;
 1144              		.loc 2 330 0
 1145 00aa 464B     		ldr	r3, .L75+28
 1146 00ac 3B62     		str	r3, [r7, #32]
 331:E:/LiteOS/LiteOS_Lab/iot_link/os/os_imp/liteos/base/ipc\los_queue.c ****             goto QUEUE_END;
 1147              		.loc 2 331 0
 1148 00ae 73E0     		b	.L64
 1149              	.L71:
 332:E:/LiteOS/LiteOS_Lab/iot_link/os/os_imp/liteos/base/ipc\los_queue.c ****         }
 333:E:/LiteOS/LiteOS_Lab/iot_link/os/os_imp/liteos/base/ipc\los_queue.c **** 
 334:E:/LiteOS/LiteOS_Lab/iot_link/os/os_imp/liteos/base/ipc\los_queue.c ****         pstRunTsk = (LOS_TASK_CB *)g_stLosTask.pstRunTask;
 1150              		.loc 2 334 0
 1151 00b0 454B     		ldr	r3, .L75+32
 1152 00b2 1B68     		ldr	r3, [r3]
 1153 00b4 7B61     		str	r3, [r7, #20]
 335:E:/LiteOS/LiteOS_Lab/iot_link/os/os_imp/liteos/base/ipc\los_queue.c ****         osTaskWait(&pstQueueCB->stReadWriteList[uwReadWrite], OS_TASK_STATUS_PEND_QUEUE, uwTimeOut)
 1154              		.loc 2 335 0
 1155 00b6 FB69     		ldr	r3, [r7, #28]
 1156 00b8 0233     		adds	r3, r3, #2
 1157 00ba DB00     		lsls	r3, r3, #3
 1158 00bc BA69     		ldr	r2, [r7, #24]
 1159 00be 1344     		add	r3, r3, r2
 1160 00c0 0433     		adds	r3, r3, #4
 1161 00c2 3A6B     		ldr	r2, [r7, #48]
 1162 00c4 4FF40051 		mov	r1, #8192
 1163 00c8 1846     		mov	r0, r3
 1164 00ca FFF7FEFF 		bl	osTaskWait
 336:E:/LiteOS/LiteOS_Lab/iot_link/os/os_imp/liteos/base/ipc\los_queue.c ****         LOS_IntRestore(uvIntSave);
 1165              		.loc 2 336 0
 1166 00ce 786A     		ldr	r0, [r7, #36]
 1167 00d0 FFF7FEFF 		bl	LOS_IntRestore
 337:E:/LiteOS/LiteOS_Lab/iot_link/os/os_imp/liteos/base/ipc\los_queue.c ****         LOS_Schedule();
 1168              		.loc 2 337 0
 1169 00d4 FFF7FEFF 		bl	LOS_Schedule
ARM GAS  C:\Users\user\AppData\Local\Temp\ccCjVdMh.s 			page 31


 338:E:/LiteOS/LiteOS_Lab/iot_link/os/os_imp/liteos/base/ipc\los_queue.c **** 
 339:E:/LiteOS/LiteOS_Lab/iot_link/os/os_imp/liteos/base/ipc\los_queue.c ****         uvIntSave = LOS_IntLock();
 1170              		.loc 2 339 0
 1171 00d8 FFF7FEFF 		bl	LOS_IntLock
 1172 00dc 7862     		str	r0, [r7, #36]
 340:E:/LiteOS/LiteOS_Lab/iot_link/os/os_imp/liteos/base/ipc\los_queue.c **** 
 341:E:/LiteOS/LiteOS_Lab/iot_link/os/os_imp/liteos/base/ipc\los_queue.c ****         if (pstRunTsk->usTaskStatus & OS_TASK_STATUS_TIMEOUT)
 1173              		.loc 2 341 0
 1174 00de 7B69     		ldr	r3, [r7, #20]
 1175 00e0 9B88     		ldrh	r3, [r3, #4]
 1176 00e2 03F04003 		and	r3, r3, #64
 1177 00e6 002B     		cmp	r3, #0
 1178 00e8 15D0     		beq	.L72
 342:E:/LiteOS/LiteOS_Lab/iot_link/os/os_imp/liteos/base/ipc\los_queue.c ****         {
 343:E:/LiteOS/LiteOS_Lab/iot_link/os/os_imp/liteos/base/ipc\los_queue.c ****             pstRunTsk->usTaskStatus &= (~OS_TASK_STATUS_TIMEOUT);
 1179              		.loc 2 343 0
 1180 00ea 7B69     		ldr	r3, [r7, #20]
 1181 00ec 9B88     		ldrh	r3, [r3, #4]
 1182 00ee 23F04003 		bic	r3, r3, #64
 1183 00f2 9AB2     		uxth	r2, r3
 1184 00f4 7B69     		ldr	r3, [r7, #20]
 1185 00f6 9A80     		strh	r2, [r3, #4]	@ movhi
 344:E:/LiteOS/LiteOS_Lab/iot_link/os/os_imp/liteos/base/ipc\los_queue.c ****             uwRet = LOS_ERRNO_QUEUE_TIMEOUT;
 1186              		.loc 2 344 0
 1187 00f8 344B     		ldr	r3, .L75+36
 1188 00fa 3B62     		str	r3, [r7, #32]
 345:E:/LiteOS/LiteOS_Lab/iot_link/os/os_imp/liteos/base/ipc\los_queue.c ****             goto QUEUE_END;
 1189              		.loc 2 345 0
 1190 00fc 4CE0     		b	.L64
 1191              	.L67:
 346:E:/LiteOS/LiteOS_Lab/iot_link/os/os_imp/liteos/base/ipc\los_queue.c ****         }
 347:E:/LiteOS/LiteOS_Lab/iot_link/os/os_imp/liteos/base/ipc\los_queue.c ****     }
 348:E:/LiteOS/LiteOS_Lab/iot_link/os/os_imp/liteos/base/ipc\los_queue.c ****     else
 349:E:/LiteOS/LiteOS_Lab/iot_link/os/os_imp/liteos/base/ipc\los_queue.c ****     {
 350:E:/LiteOS/LiteOS_Lab/iot_link/os/os_imp/liteos/base/ipc\los_queue.c ****         pstQueueCB->usReadWriteableCnt[uwReadWrite]--;
 1192              		.loc 2 350 0
 1193 00fe BB69     		ldr	r3, [r7, #24]
 1194 0100 FA69     		ldr	r2, [r7, #28]
 1195 0102 0832     		adds	r2, r2, #8
 1196 0104 33F81230 		ldrh	r3, [r3, r2, lsl #1]
 1197 0108 013B     		subs	r3, r3, #1
 1198 010a 99B2     		uxth	r1, r3
 1199 010c BB69     		ldr	r3, [r7, #24]
 1200 010e FA69     		ldr	r2, [r7, #28]
 1201 0110 0832     		adds	r2, r2, #8
 1202 0112 23F81210 		strh	r1, [r3, r2, lsl #1]	@ movhi
 1203              	.L72:
 351:E:/LiteOS/LiteOS_Lab/iot_link/os/os_imp/liteos/base/ipc\los_queue.c ****     }
 352:E:/LiteOS/LiteOS_Lab/iot_link/os/os_imp/liteos/base/ipc\los_queue.c **** 
 353:E:/LiteOS/LiteOS_Lab/iot_link/os/os_imp/liteos/base/ipc\los_queue.c ****     osQueueBufferOperate(pstQueueCB, uwOperateType, pBufferAddr, puwBufferSize);
 1204              		.loc 2 353 0
 1205 0116 3B68     		ldr	r3, [r7]
 1206 0118 7A68     		ldr	r2, [r7, #4]
 1207 011a B968     		ldr	r1, [r7, #8]
 1208 011c B869     		ldr	r0, [r7, #24]
 1209 011e FFF7FEFF 		bl	osQueueBufferOperate
 354:E:/LiteOS/LiteOS_Lab/iot_link/os/os_imp/liteos/base/ipc\los_queue.c **** 
ARM GAS  C:\Users\user\AppData\Local\Temp\ccCjVdMh.s 			page 32


 355:E:/LiteOS/LiteOS_Lab/iot_link/os/os_imp/liteos/base/ipc\los_queue.c ****     if (!LOS_ListEmpty(&pstQueueCB->stReadWriteList[!uwReadWrite])) /*lint !e514*/
 1210              		.loc 2 355 0
 1211 0122 FB69     		ldr	r3, [r7, #28]
 1212 0124 002B     		cmp	r3, #0
 1213 0126 0CBF     		ite	eq
 1214 0128 0123     		moveq	r3, #1
 1215 012a 0023     		movne	r3, #0
 1216 012c DBB2     		uxtb	r3, r3
 1217 012e 0233     		adds	r3, r3, #2
 1218 0130 DB00     		lsls	r3, r3, #3
 1219 0132 BA69     		ldr	r2, [r7, #24]
 1220 0134 1344     		add	r3, r3, r2
 1221 0136 0433     		adds	r3, r3, #4
 1222 0138 1846     		mov	r0, r3
 1223 013a FFF7FEFF 		bl	LOS_ListEmpty
 1224 013e 0346     		mov	r3, r0
 1225 0140 002B     		cmp	r3, #0
 1226 0142 18D1     		bne	.L73
 356:E:/LiteOS/LiteOS_Lab/iot_link/os/os_imp/liteos/base/ipc\los_queue.c ****     {
 357:E:/LiteOS/LiteOS_Lab/iot_link/os/os_imp/liteos/base/ipc\los_queue.c ****         pstResumedTask = OS_TCB_FROM_PENDLIST(LOS_DL_LIST_FIRST(&pstQueueCB->stReadWriteList[!uwRea
 1227              		.loc 2 357 0
 1228 0144 FB69     		ldr	r3, [r7, #28]
 1229 0146 002B     		cmp	r3, #0
 1230 0148 0CBF     		ite	eq
 1231 014a 0123     		moveq	r3, #1
 1232 014c 0023     		movne	r3, #0
 1233 014e DBB2     		uxtb	r3, r3
 1234 0150 BA69     		ldr	r2, [r7, #24]
 1235 0152 0233     		adds	r3, r3, #2
 1236 0154 DB00     		lsls	r3, r3, #3
 1237 0156 1344     		add	r3, r3, r2
 1238 0158 9B68     		ldr	r3, [r3, #8]
 1239 015a 283B     		subs	r3, r3, #40
 1240 015c 3B61     		str	r3, [r7, #16]
 358:E:/LiteOS/LiteOS_Lab/iot_link/os/os_imp/liteos/base/ipc\los_queue.c ****         osTaskWake(pstResumedTask, OS_TASK_STATUS_PEND_QUEUE);
 1241              		.loc 2 358 0
 1242 015e 4FF40051 		mov	r1, #8192
 1243 0162 3869     		ldr	r0, [r7, #16]
 1244 0164 FFF7FEFF 		bl	osTaskWake
 359:E:/LiteOS/LiteOS_Lab/iot_link/os/os_imp/liteos/base/ipc\los_queue.c ****         LOS_IntRestore(uvIntSave);
 1245              		.loc 2 359 0
 1246 0168 786A     		ldr	r0, [r7, #36]
 1247 016a FFF7FEFF 		bl	LOS_IntRestore
 360:E:/LiteOS/LiteOS_Lab/iot_link/os/os_imp/liteos/base/ipc\los_queue.c ****         LOS_Schedule();
 1248              		.loc 2 360 0
 1249 016e FFF7FEFF 		bl	LOS_Schedule
 361:E:/LiteOS/LiteOS_Lab/iot_link/os/os_imp/liteos/base/ipc\los_queue.c ****         return LOS_OK;
 1250              		.loc 2 361 0
 1251 0172 0023     		movs	r3, #0
 1252 0174 14E0     		b	.L74
 1253              	.L73:
 362:E:/LiteOS/LiteOS_Lab/iot_link/os/os_imp/liteos/base/ipc\los_queue.c ****     }
 363:E:/LiteOS/LiteOS_Lab/iot_link/os/os_imp/liteos/base/ipc\los_queue.c ****     else
 364:E:/LiteOS/LiteOS_Lab/iot_link/os/os_imp/liteos/base/ipc\los_queue.c ****     {
 365:E:/LiteOS/LiteOS_Lab/iot_link/os/os_imp/liteos/base/ipc\los_queue.c ****         pstQueueCB->usReadWriteableCnt[!uwReadWrite]++; /*lint !e514*/
 1254              		.loc 2 365 0
 1255 0176 FB69     		ldr	r3, [r7, #28]
ARM GAS  C:\Users\user\AppData\Local\Temp\ccCjVdMh.s 			page 33


 1256 0178 002B     		cmp	r3, #0
 1257 017a 0CBF     		ite	eq
 1258 017c 0123     		moveq	r3, #1
 1259 017e 0023     		movne	r3, #0
 1260 0180 DBB2     		uxtb	r3, r3
 1261 0182 BA69     		ldr	r2, [r7, #24]
 1262 0184 03F10801 		add	r1, r3, #8
 1263 0188 32F81120 		ldrh	r2, [r2, r1, lsl #1]
 1264 018c 0132     		adds	r2, r2, #1
 1265 018e 91B2     		uxth	r1, r2
 1266 0190 BA69     		ldr	r2, [r7, #24]
 1267 0192 0833     		adds	r3, r3, #8
 1268 0194 22F81310 		strh	r1, [r2, r3, lsl #1]	@ movhi
 1269              	.L64:
 366:E:/LiteOS/LiteOS_Lab/iot_link/os/os_imp/liteos/base/ipc\los_queue.c ****     }
 367:E:/LiteOS/LiteOS_Lab/iot_link/os/os_imp/liteos/base/ipc\los_queue.c **** 
 368:E:/LiteOS/LiteOS_Lab/iot_link/os/os_imp/liteos/base/ipc\los_queue.c **** QUEUE_END:
 369:E:/LiteOS/LiteOS_Lab/iot_link/os/os_imp/liteos/base/ipc\los_queue.c ****     LOS_IntRestore(uvIntSave);
 1270              		.loc 2 369 0
 1271 0198 786A     		ldr	r0, [r7, #36]
 1272 019a FFF7FEFF 		bl	LOS_IntRestore
 370:E:/LiteOS/LiteOS_Lab/iot_link/os/os_imp/liteos/base/ipc\los_queue.c ****     return uwRet;
 1273              		.loc 2 370 0
 1274 019e 3B6A     		ldr	r3, [r7, #32]
 1275              	.L74:
 371:E:/LiteOS/LiteOS_Lab/iot_link/os/os_imp/liteos/base/ipc\los_queue.c **** }
 1276              		.loc 2 371 0
 1277 01a0 1846     		mov	r0, r3
 1278 01a2 2837     		adds	r7, r7, #40
 1279              	.LCFI57:
 1280              		.cfi_def_cfa_offset 8
 1281 01a4 BD46     		mov	sp, r7
 1282              	.LCFI58:
 1283              		.cfi_def_cfa_register 13
 1284              		@ sp needed
 1285 01a6 80BD     		pop	{r7, pc}
 1286              	.L76:
 1287              		.align	2
 1288              	.L75:
 1289 01a8 00000000 		.word	g_pstAllQueue
 1290 01ac 0A060002 		.word	33555978
 1291 01b0 1F060002 		.word	33555999
 1292 01b4 15060002 		.word	33555989
 1293 01b8 1D060002 		.word	33555997
 1294 01bc 16060002 		.word	33555990
 1295 01c0 00000000 		.word	g_usLosTaskLock
 1296 01c4 06060002 		.word	33555974
 1297 01c8 00000000 		.word	g_stLosTask
 1298 01cc 07060002 		.word	33555975
 1299              		.cfi_endproc
 1300              	.LFE138:
 1302              		.section	.text.LOS_QueueReadCopy,"ax",%progbits
 1303              		.align	1
 1304              		.global	LOS_QueueReadCopy
 1305              		.syntax unified
 1306              		.thumb
 1307              		.thumb_func
ARM GAS  C:\Users\user\AppData\Local\Temp\ccCjVdMh.s 			page 34


 1308              		.fpu fpv4-sp-d16
 1310              	LOS_QueueReadCopy:
 1311              	.LFB139:
 372:E:/LiteOS/LiteOS_Lab/iot_link/os/os_imp/liteos/base/ipc\los_queue.c **** 
 373:E:/LiteOS/LiteOS_Lab/iot_link/os/os_imp/liteos/base/ipc\los_queue.c **** /*****************************************************************************
 374:E:/LiteOS/LiteOS_Lab/iot_link/os/os_imp/liteos/base/ipc\los_queue.c ****  Function    : LOS_QueueReadCopy
 375:E:/LiteOS/LiteOS_Lab/iot_link/os/os_imp/liteos/base/ipc\los_queue.c ****  Description : Read queue
 376:E:/LiteOS/LiteOS_Lab/iot_link/os/os_imp/liteos/base/ipc\los_queue.c ****  Input       : uwQueueID
 377:E:/LiteOS/LiteOS_Lab/iot_link/os/os_imp/liteos/base/ipc\los_queue.c ****                puwBufferSize
 378:E:/LiteOS/LiteOS_Lab/iot_link/os/os_imp/liteos/base/ipc\los_queue.c ****                uwTimeOut
 379:E:/LiteOS/LiteOS_Lab/iot_link/os/os_imp/liteos/base/ipc\los_queue.c ****  Output      : pBufferAddr
 380:E:/LiteOS/LiteOS_Lab/iot_link/os/os_imp/liteos/base/ipc\los_queue.c ****                puwBufferSize
 381:E:/LiteOS/LiteOS_Lab/iot_link/os/os_imp/liteos/base/ipc\los_queue.c ****  Return      : LOS_OK on success or error code on failure
 382:E:/LiteOS/LiteOS_Lab/iot_link/os/os_imp/liteos/base/ipc\los_queue.c ****  *****************************************************************************/
 383:E:/LiteOS/LiteOS_Lab/iot_link/os/os_imp/liteos/base/ipc\los_queue.c **** LITE_OS_SEC_TEXT UINT32 LOS_QueueReadCopy(UINT32  uwQueueID,
 384:E:/LiteOS/LiteOS_Lab/iot_link/os/os_imp/liteos/base/ipc\los_queue.c ****                     VOID *  pBufferAddr,
 385:E:/LiteOS/LiteOS_Lab/iot_link/os/os_imp/liteos/base/ipc\los_queue.c ****                     UINT32 * puwBufferSize,
 386:E:/LiteOS/LiteOS_Lab/iot_link/os/os_imp/liteos/base/ipc\los_queue.c ****                     UINT32  uwTimeOut)
 387:E:/LiteOS/LiteOS_Lab/iot_link/os/os_imp/liteos/base/ipc\los_queue.c **** {
 1312              		.loc 2 387 0
 1313              		.cfi_startproc
 1314              		@ args = 0, pretend = 0, frame = 24
 1315              		@ frame_needed = 1, uses_anonymous_args = 0
 1316 0000 80B5     		push	{r7, lr}
 1317              	.LCFI59:
 1318              		.cfi_def_cfa_offset 8
 1319              		.cfi_offset 7, -8
 1320              		.cfi_offset 14, -4
 1321 0002 88B0     		sub	sp, sp, #32
 1322              	.LCFI60:
 1323              		.cfi_def_cfa_offset 40
 1324 0004 02AF     		add	r7, sp, #8
 1325              	.LCFI61:
 1326              		.cfi_def_cfa 7, 32
 1327 0006 F860     		str	r0, [r7, #12]
 1328 0008 B960     		str	r1, [r7, #8]
 1329 000a 7A60     		str	r2, [r7, #4]
 1330 000c 3B60     		str	r3, [r7]
 388:E:/LiteOS/LiteOS_Lab/iot_link/os/os_imp/liteos/base/ipc\los_queue.c ****     UINT32 uwRet;
 389:E:/LiteOS/LiteOS_Lab/iot_link/os/os_imp/liteos/base/ipc\los_queue.c ****     UINT32 uwOperateType;
 390:E:/LiteOS/LiteOS_Lab/iot_link/os/os_imp/liteos/base/ipc\los_queue.c **** 
 391:E:/LiteOS/LiteOS_Lab/iot_link/os/os_imp/liteos/base/ipc\los_queue.c ****     uwRet = osQueueReadParameterCheck(uwQueueID, pBufferAddr, puwBufferSize, uwTimeOut);
 1331              		.loc 2 391 0
 1332 000e 3B68     		ldr	r3, [r7]
 1333 0010 7A68     		ldr	r2, [r7, #4]
 1334 0012 B968     		ldr	r1, [r7, #8]
 1335 0014 F868     		ldr	r0, [r7, #12]
 1336 0016 FFF7FEFF 		bl	osQueueReadParameterCheck
 1337 001a 7861     		str	r0, [r7, #20]
 392:E:/LiteOS/LiteOS_Lab/iot_link/os/os_imp/liteos/base/ipc\los_queue.c ****     if(uwRet != LOS_OK)
 1338              		.loc 2 392 0
 1339 001c 7B69     		ldr	r3, [r7, #20]
 1340 001e 002B     		cmp	r3, #0
 1341 0020 01D0     		beq	.L78
 393:E:/LiteOS/LiteOS_Lab/iot_link/os/os_imp/liteos/base/ipc\los_queue.c ****     {
 394:E:/LiteOS/LiteOS_Lab/iot_link/os/os_imp/liteos/base/ipc\los_queue.c ****         return uwRet;
 1342              		.loc 2 394 0
ARM GAS  C:\Users\user\AppData\Local\Temp\ccCjVdMh.s 			page 35


 1343 0022 7B69     		ldr	r3, [r7, #20]
 1344 0024 0AE0     		b	.L79
 1345              	.L78:
 395:E:/LiteOS/LiteOS_Lab/iot_link/os/os_imp/liteos/base/ipc\los_queue.c ****     }
 396:E:/LiteOS/LiteOS_Lab/iot_link/os/os_imp/liteos/base/ipc\los_queue.c **** 
 397:E:/LiteOS/LiteOS_Lab/iot_link/os/os_imp/liteos/base/ipc\los_queue.c ****     uwOperateType = OS_QUEUE_OPERATE_TYPE(OS_QUEUE_READ, OS_QUEUE_HEAD,OS_QUEUE_NOT_POINT);
 1346              		.loc 2 397 0
 1347 0026 0023     		movs	r3, #0
 1348 0028 3B61     		str	r3, [r7, #16]
 398:E:/LiteOS/LiteOS_Lab/iot_link/os/os_imp/liteos/base/ipc\los_queue.c ****     return osQueueOperate(uwQueueID, uwOperateType, pBufferAddr, puwBufferSize, uwTimeOut);
 1349              		.loc 2 398 0
 1350 002a 3B68     		ldr	r3, [r7]
 1351 002c 0093     		str	r3, [sp]
 1352 002e 7B68     		ldr	r3, [r7, #4]
 1353 0030 BA68     		ldr	r2, [r7, #8]
 1354 0032 3969     		ldr	r1, [r7, #16]
 1355 0034 F868     		ldr	r0, [r7, #12]
 1356 0036 FFF7FEFF 		bl	osQueueOperate
 1357 003a 0346     		mov	r3, r0
 1358              	.L79:
 399:E:/LiteOS/LiteOS_Lab/iot_link/os/os_imp/liteos/base/ipc\los_queue.c **** }
 1359              		.loc 2 399 0
 1360 003c 1846     		mov	r0, r3
 1361 003e 1837     		adds	r7, r7, #24
 1362              	.LCFI62:
 1363              		.cfi_def_cfa_offset 8
 1364 0040 BD46     		mov	sp, r7
 1365              	.LCFI63:
 1366              		.cfi_def_cfa_register 13
 1367              		@ sp needed
 1368 0042 80BD     		pop	{r7, pc}
 1369              		.cfi_endproc
 1370              	.LFE139:
 1372              		.section	.text.LOS_QueueWriteHeadCopy,"ax",%progbits
 1373              		.align	1
 1374              		.global	LOS_QueueWriteHeadCopy
 1375              		.syntax unified
 1376              		.thumb
 1377              		.thumb_func
 1378              		.fpu fpv4-sp-d16
 1380              	LOS_QueueWriteHeadCopy:
 1381              	.LFB140:
 400:E:/LiteOS/LiteOS_Lab/iot_link/os/os_imp/liteos/base/ipc\los_queue.c **** 
 401:E:/LiteOS/LiteOS_Lab/iot_link/os/os_imp/liteos/base/ipc\los_queue.c **** /*****************************************************************************
 402:E:/LiteOS/LiteOS_Lab/iot_link/os/os_imp/liteos/base/ipc\los_queue.c ****  Function    : LOS_QueueWriteHeadCopy
 403:E:/LiteOS/LiteOS_Lab/iot_link/os/os_imp/liteos/base/ipc\los_queue.c ****  Description : Write queue head
 404:E:/LiteOS/LiteOS_Lab/iot_link/os/os_imp/liteos/base/ipc\los_queue.c ****  Input       : uwQueueID
 405:E:/LiteOS/LiteOS_Lab/iot_link/os/os_imp/liteos/base/ipc\los_queue.c ****                pBufferAddr
 406:E:/LiteOS/LiteOS_Lab/iot_link/os/os_imp/liteos/base/ipc\los_queue.c ****                uwBufferSize
 407:E:/LiteOS/LiteOS_Lab/iot_link/os/os_imp/liteos/base/ipc\los_queue.c ****                uwTimeOut
 408:E:/LiteOS/LiteOS_Lab/iot_link/os/os_imp/liteos/base/ipc\los_queue.c ****  Output      : None
 409:E:/LiteOS/LiteOS_Lab/iot_link/os/os_imp/liteos/base/ipc\los_queue.c ****  Return      : LOS_OK on success or error code on failure
 410:E:/LiteOS/LiteOS_Lab/iot_link/os/os_imp/liteos/base/ipc\los_queue.c ****  *****************************************************************************/
 411:E:/LiteOS/LiteOS_Lab/iot_link/os/os_imp/liteos/base/ipc\los_queue.c **** LITE_OS_SEC_TEXT UINT32 LOS_QueueWriteHeadCopy(UINT32 uwQueueID,
 412:E:/LiteOS/LiteOS_Lab/iot_link/os/os_imp/liteos/base/ipc\los_queue.c ****                                      VOID * pBufferAddr,
 413:E:/LiteOS/LiteOS_Lab/iot_link/os/os_imp/liteos/base/ipc\los_queue.c ****                                      UINT32 uwBufferSize,
 414:E:/LiteOS/LiteOS_Lab/iot_link/os/os_imp/liteos/base/ipc\los_queue.c ****                                      UINT32 uwTimeOut )
ARM GAS  C:\Users\user\AppData\Local\Temp\ccCjVdMh.s 			page 36


 415:E:/LiteOS/LiteOS_Lab/iot_link/os/os_imp/liteos/base/ipc\los_queue.c **** {
 1382              		.loc 2 415 0
 1383              		.cfi_startproc
 1384              		@ args = 0, pretend = 0, frame = 24
 1385              		@ frame_needed = 1, uses_anonymous_args = 0
 1386 0000 80B5     		push	{r7, lr}
 1387              	.LCFI64:
 1388              		.cfi_def_cfa_offset 8
 1389              		.cfi_offset 7, -8
 1390              		.cfi_offset 14, -4
 1391 0002 88B0     		sub	sp, sp, #32
 1392              	.LCFI65:
 1393              		.cfi_def_cfa_offset 40
 1394 0004 02AF     		add	r7, sp, #8
 1395              	.LCFI66:
 1396              		.cfi_def_cfa 7, 32
 1397 0006 F860     		str	r0, [r7, #12]
 1398 0008 B960     		str	r1, [r7, #8]
 1399 000a 7A60     		str	r2, [r7, #4]
 1400 000c 3B60     		str	r3, [r7]
 416:E:/LiteOS/LiteOS_Lab/iot_link/os/os_imp/liteos/base/ipc\los_queue.c ****     UINT32 uwRet;
 417:E:/LiteOS/LiteOS_Lab/iot_link/os/os_imp/liteos/base/ipc\los_queue.c ****     UINT32 uwOperateType;
 418:E:/LiteOS/LiteOS_Lab/iot_link/os/os_imp/liteos/base/ipc\los_queue.c **** 
 419:E:/LiteOS/LiteOS_Lab/iot_link/os/os_imp/liteos/base/ipc\los_queue.c ****     uwRet = osQueueWriteParameterCheck(uwQueueID, pBufferAddr, &uwBufferSize, uwTimeOut);
 1401              		.loc 2 419 0
 1402 000e 3A1D     		adds	r2, r7, #4
 1403 0010 3B68     		ldr	r3, [r7]
 1404 0012 B968     		ldr	r1, [r7, #8]
 1405 0014 F868     		ldr	r0, [r7, #12]
 1406 0016 FFF7FEFF 		bl	osQueueWriteParameterCheck
 1407 001a 7861     		str	r0, [r7, #20]
 420:E:/LiteOS/LiteOS_Lab/iot_link/os/os_imp/liteos/base/ipc\los_queue.c ****     if(uwRet != LOS_OK)
 1408              		.loc 2 420 0
 1409 001c 7B69     		ldr	r3, [r7, #20]
 1410 001e 002B     		cmp	r3, #0
 1411 0020 01D0     		beq	.L81
 421:E:/LiteOS/LiteOS_Lab/iot_link/os/os_imp/liteos/base/ipc\los_queue.c ****     {
 422:E:/LiteOS/LiteOS_Lab/iot_link/os/os_imp/liteos/base/ipc\los_queue.c ****         return uwRet;
 1412              		.loc 2 422 0
 1413 0022 7B69     		ldr	r3, [r7, #20]
 1414 0024 0BE0     		b	.L82
 1415              	.L81:
 423:E:/LiteOS/LiteOS_Lab/iot_link/os/os_imp/liteos/base/ipc\los_queue.c ****     }
 424:E:/LiteOS/LiteOS_Lab/iot_link/os/os_imp/liteos/base/ipc\los_queue.c **** 
 425:E:/LiteOS/LiteOS_Lab/iot_link/os/os_imp/liteos/base/ipc\los_queue.c ****     uwOperateType = OS_QUEUE_OPERATE_TYPE(OS_QUEUE_WRITE, OS_QUEUE_HEAD,OS_QUEUE_NOT_POINT);
 1416              		.loc 2 425 0
 1417 0026 0123     		movs	r3, #1
 1418 0028 3B61     		str	r3, [r7, #16]
 426:E:/LiteOS/LiteOS_Lab/iot_link/os/os_imp/liteos/base/ipc\los_queue.c ****     return osQueueOperate(uwQueueID, uwOperateType, pBufferAddr, &uwBufferSize, uwTimeOut);
 1419              		.loc 2 426 0
 1420 002a 3A1D     		adds	r2, r7, #4
 1421 002c 3B68     		ldr	r3, [r7]
 1422 002e 0093     		str	r3, [sp]
 1423 0030 1346     		mov	r3, r2
 1424 0032 BA68     		ldr	r2, [r7, #8]
 1425 0034 3969     		ldr	r1, [r7, #16]
 1426 0036 F868     		ldr	r0, [r7, #12]
ARM GAS  C:\Users\user\AppData\Local\Temp\ccCjVdMh.s 			page 37


 1427 0038 FFF7FEFF 		bl	osQueueOperate
 1428 003c 0346     		mov	r3, r0
 1429              	.L82:
 427:E:/LiteOS/LiteOS_Lab/iot_link/os/os_imp/liteos/base/ipc\los_queue.c **** }
 1430              		.loc 2 427 0
 1431 003e 1846     		mov	r0, r3
 1432 0040 1837     		adds	r7, r7, #24
 1433              	.LCFI67:
 1434              		.cfi_def_cfa_offset 8
 1435 0042 BD46     		mov	sp, r7
 1436              	.LCFI68:
 1437              		.cfi_def_cfa_register 13
 1438              		@ sp needed
 1439 0044 80BD     		pop	{r7, pc}
 1440              		.cfi_endproc
 1441              	.LFE140:
 1443              		.section	.text.LOS_QueueWriteCopy,"ax",%progbits
 1444              		.align	1
 1445              		.global	LOS_QueueWriteCopy
 1446              		.syntax unified
 1447              		.thumb
 1448              		.thumb_func
 1449              		.fpu fpv4-sp-d16
 1451              	LOS_QueueWriteCopy:
 1452              	.LFB141:
 428:E:/LiteOS/LiteOS_Lab/iot_link/os/os_imp/liteos/base/ipc\los_queue.c **** 
 429:E:/LiteOS/LiteOS_Lab/iot_link/os/os_imp/liteos/base/ipc\los_queue.c **** /*****************************************************************************
 430:E:/LiteOS/LiteOS_Lab/iot_link/os/os_imp/liteos/base/ipc\los_queue.c ****  Function    : LOS_QueueWriteCopy
 431:E:/LiteOS/LiteOS_Lab/iot_link/os/os_imp/liteos/base/ipc\los_queue.c ****  Description : Write queue tail
 432:E:/LiteOS/LiteOS_Lab/iot_link/os/os_imp/liteos/base/ipc\los_queue.c ****  Input       : uwQueueID
 433:E:/LiteOS/LiteOS_Lab/iot_link/os/os_imp/liteos/base/ipc\los_queue.c ****                pBufferAddr
 434:E:/LiteOS/LiteOS_Lab/iot_link/os/os_imp/liteos/base/ipc\los_queue.c ****                uwBufferSize
 435:E:/LiteOS/LiteOS_Lab/iot_link/os/os_imp/liteos/base/ipc\los_queue.c ****                uwTimeOut
 436:E:/LiteOS/LiteOS_Lab/iot_link/os/os_imp/liteos/base/ipc\los_queue.c ****  Output      : None
 437:E:/LiteOS/LiteOS_Lab/iot_link/os/os_imp/liteos/base/ipc\los_queue.c ****  Return      : LOS_OK on success or error code on failure
 438:E:/LiteOS/LiteOS_Lab/iot_link/os/os_imp/liteos/base/ipc\los_queue.c ****  *****************************************************************************/
 439:E:/LiteOS/LiteOS_Lab/iot_link/os/os_imp/liteos/base/ipc\los_queue.c **** LITE_OS_SEC_TEXT UINT32 LOS_QueueWriteCopy( UINT32 uwQueueID,
 440:E:/LiteOS/LiteOS_Lab/iot_link/os/os_imp/liteos/base/ipc\los_queue.c ****                                      VOID * pBufferAddr,
 441:E:/LiteOS/LiteOS_Lab/iot_link/os/os_imp/liteos/base/ipc\los_queue.c ****                                      UINT32 uwBufferSize,
 442:E:/LiteOS/LiteOS_Lab/iot_link/os/os_imp/liteos/base/ipc\los_queue.c ****                                      UINT32 uwTimeOut )
 443:E:/LiteOS/LiteOS_Lab/iot_link/os/os_imp/liteos/base/ipc\los_queue.c **** {
 1453              		.loc 2 443 0
 1454              		.cfi_startproc
 1455              		@ args = 0, pretend = 0, frame = 24
 1456              		@ frame_needed = 1, uses_anonymous_args = 0
 1457 0000 80B5     		push	{r7, lr}
 1458              	.LCFI69:
 1459              		.cfi_def_cfa_offset 8
 1460              		.cfi_offset 7, -8
 1461              		.cfi_offset 14, -4
 1462 0002 88B0     		sub	sp, sp, #32
 1463              	.LCFI70:
 1464              		.cfi_def_cfa_offset 40
 1465 0004 02AF     		add	r7, sp, #8
 1466              	.LCFI71:
 1467              		.cfi_def_cfa 7, 32
 1468 0006 F860     		str	r0, [r7, #12]
ARM GAS  C:\Users\user\AppData\Local\Temp\ccCjVdMh.s 			page 38


 1469 0008 B960     		str	r1, [r7, #8]
 1470 000a 7A60     		str	r2, [r7, #4]
 1471 000c 3B60     		str	r3, [r7]
 444:E:/LiteOS/LiteOS_Lab/iot_link/os/os_imp/liteos/base/ipc\los_queue.c ****     UINT32 uwRet;
 445:E:/LiteOS/LiteOS_Lab/iot_link/os/os_imp/liteos/base/ipc\los_queue.c ****     UINT32 uwOperateType;
 446:E:/LiteOS/LiteOS_Lab/iot_link/os/os_imp/liteos/base/ipc\los_queue.c **** 
 447:E:/LiteOS/LiteOS_Lab/iot_link/os/os_imp/liteos/base/ipc\los_queue.c ****     uwRet = osQueueWriteParameterCheck(uwQueueID, pBufferAddr, &uwBufferSize, uwTimeOut);
 1472              		.loc 2 447 0
 1473 000e 3A1D     		adds	r2, r7, #4
 1474 0010 3B68     		ldr	r3, [r7]
 1475 0012 B968     		ldr	r1, [r7, #8]
 1476 0014 F868     		ldr	r0, [r7, #12]
 1477 0016 FFF7FEFF 		bl	osQueueWriteParameterCheck
 1478 001a 7861     		str	r0, [r7, #20]
 448:E:/LiteOS/LiteOS_Lab/iot_link/os/os_imp/liteos/base/ipc\los_queue.c ****     if(uwRet != LOS_OK)
 1479              		.loc 2 448 0
 1480 001c 7B69     		ldr	r3, [r7, #20]
 1481 001e 002B     		cmp	r3, #0
 1482 0020 01D0     		beq	.L84
 449:E:/LiteOS/LiteOS_Lab/iot_link/os/os_imp/liteos/base/ipc\los_queue.c ****     {
 450:E:/LiteOS/LiteOS_Lab/iot_link/os/os_imp/liteos/base/ipc\los_queue.c ****         return uwRet;
 1483              		.loc 2 450 0
 1484 0022 7B69     		ldr	r3, [r7, #20]
 1485 0024 0BE0     		b	.L85
 1486              	.L84:
 451:E:/LiteOS/LiteOS_Lab/iot_link/os/os_imp/liteos/base/ipc\los_queue.c ****     }
 452:E:/LiteOS/LiteOS_Lab/iot_link/os/os_imp/liteos/base/ipc\los_queue.c **** 
 453:E:/LiteOS/LiteOS_Lab/iot_link/os/os_imp/liteos/base/ipc\los_queue.c ****     uwOperateType = OS_QUEUE_OPERATE_TYPE(OS_QUEUE_WRITE, OS_QUEUE_TAIL, OS_QUEUE_NOT_POINT);
 1487              		.loc 2 453 0
 1488 0026 0323     		movs	r3, #3
 1489 0028 3B61     		str	r3, [r7, #16]
 454:E:/LiteOS/LiteOS_Lab/iot_link/os/os_imp/liteos/base/ipc\los_queue.c ****     return osQueueOperate(uwQueueID, uwOperateType, pBufferAddr, &uwBufferSize, uwTimeOut);
 1490              		.loc 2 454 0
 1491 002a 3A1D     		adds	r2, r7, #4
 1492 002c 3B68     		ldr	r3, [r7]
 1493 002e 0093     		str	r3, [sp]
 1494 0030 1346     		mov	r3, r2
 1495 0032 BA68     		ldr	r2, [r7, #8]
 1496 0034 3969     		ldr	r1, [r7, #16]
 1497 0036 F868     		ldr	r0, [r7, #12]
 1498 0038 FFF7FEFF 		bl	osQueueOperate
 1499 003c 0346     		mov	r3, r0
 1500              	.L85:
 455:E:/LiteOS/LiteOS_Lab/iot_link/os/os_imp/liteos/base/ipc\los_queue.c **** }
 1501              		.loc 2 455 0
 1502 003e 1846     		mov	r0, r3
 1503 0040 1837     		adds	r7, r7, #24
 1504              	.LCFI72:
 1505              		.cfi_def_cfa_offset 8
 1506 0042 BD46     		mov	sp, r7
 1507              	.LCFI73:
 1508              		.cfi_def_cfa_register 13
 1509              		@ sp needed
 1510 0044 80BD     		pop	{r7, pc}
 1511              		.cfi_endproc
 1512              	.LFE141:
 1514              		.section	.text.LOS_QueueRead,"ax",%progbits
ARM GAS  C:\Users\user\AppData\Local\Temp\ccCjVdMh.s 			page 39


 1515              		.align	1
 1516              		.global	LOS_QueueRead
 1517              		.syntax unified
 1518              		.thumb
 1519              		.thumb_func
 1520              		.fpu fpv4-sp-d16
 1522              	LOS_QueueRead:
 1523              	.LFB142:
 456:E:/LiteOS/LiteOS_Lab/iot_link/os/os_imp/liteos/base/ipc\los_queue.c **** 
 457:E:/LiteOS/LiteOS_Lab/iot_link/os/os_imp/liteos/base/ipc\los_queue.c **** /*****************************************************************************
 458:E:/LiteOS/LiteOS_Lab/iot_link/os/os_imp/liteos/base/ipc\los_queue.c ****  Function    : LOS_QueueRead
 459:E:/LiteOS/LiteOS_Lab/iot_link/os/os_imp/liteos/base/ipc\los_queue.c ****  Description : read queue
 460:E:/LiteOS/LiteOS_Lab/iot_link/os/os_imp/liteos/base/ipc\los_queue.c ****  Input       : uwQueueID
 461:E:/LiteOS/LiteOS_Lab/iot_link/os/os_imp/liteos/base/ipc\los_queue.c ****                uwBufferSize
 462:E:/LiteOS/LiteOS_Lab/iot_link/os/os_imp/liteos/base/ipc\los_queue.c ****                uwTimeOut
 463:E:/LiteOS/LiteOS_Lab/iot_link/os/os_imp/liteos/base/ipc\los_queue.c ****  Output      : pBufferAddr
 464:E:/LiteOS/LiteOS_Lab/iot_link/os/os_imp/liteos/base/ipc\los_queue.c ****  Return      : LOS_OK on success or error code on failure
 465:E:/LiteOS/LiteOS_Lab/iot_link/os/os_imp/liteos/base/ipc\los_queue.c ****  *****************************************************************************/
 466:E:/LiteOS/LiteOS_Lab/iot_link/os/os_imp/liteos/base/ipc\los_queue.c **** LITE_OS_SEC_TEXT UINT32 LOS_QueueRead(UINT32  uwQueueID, VOID *pBufferAddr, UINT32 uwBufferSize, UI
 467:E:/LiteOS/LiteOS_Lab/iot_link/os/os_imp/liteos/base/ipc\los_queue.c **** {
 1524              		.loc 2 467 0
 1525              		.cfi_startproc
 1526              		@ args = 0, pretend = 0, frame = 24
 1527              		@ frame_needed = 1, uses_anonymous_args = 0
 1528 0000 80B5     		push	{r7, lr}
 1529              	.LCFI74:
 1530              		.cfi_def_cfa_offset 8
 1531              		.cfi_offset 7, -8
 1532              		.cfi_offset 14, -4
 1533 0002 88B0     		sub	sp, sp, #32
 1534              	.LCFI75:
 1535              		.cfi_def_cfa_offset 40
 1536 0004 02AF     		add	r7, sp, #8
 1537              	.LCFI76:
 1538              		.cfi_def_cfa 7, 32
 1539 0006 F860     		str	r0, [r7, #12]
 1540 0008 B960     		str	r1, [r7, #8]
 1541 000a 7A60     		str	r2, [r7, #4]
 1542 000c 3B60     		str	r3, [r7]
 468:E:/LiteOS/LiteOS_Lab/iot_link/os/os_imp/liteos/base/ipc\los_queue.c ****     UINT32 uwRet;
 469:E:/LiteOS/LiteOS_Lab/iot_link/os/os_imp/liteos/base/ipc\los_queue.c ****     UINT32 uwOperateType;
 470:E:/LiteOS/LiteOS_Lab/iot_link/os/os_imp/liteos/base/ipc\los_queue.c **** 
 471:E:/LiteOS/LiteOS_Lab/iot_link/os/os_imp/liteos/base/ipc\los_queue.c ****     uwRet = osQueueReadParameterCheck(uwQueueID, pBufferAddr, &uwBufferSize, uwTimeOut);
 1543              		.loc 2 471 0
 1544 000e 3A1D     		adds	r2, r7, #4
 1545 0010 3B68     		ldr	r3, [r7]
 1546 0012 B968     		ldr	r1, [r7, #8]
 1547 0014 F868     		ldr	r0, [r7, #12]
 1548 0016 FFF7FEFF 		bl	osQueueReadParameterCheck
 1549 001a 7861     		str	r0, [r7, #20]
 472:E:/LiteOS/LiteOS_Lab/iot_link/os/os_imp/liteos/base/ipc\los_queue.c ****     if(uwRet != LOS_OK)
 1550              		.loc 2 472 0
 1551 001c 7B69     		ldr	r3, [r7, #20]
 1552 001e 002B     		cmp	r3, #0
 1553 0020 01D0     		beq	.L87
 473:E:/LiteOS/LiteOS_Lab/iot_link/os/os_imp/liteos/base/ipc\los_queue.c ****     {
 474:E:/LiteOS/LiteOS_Lab/iot_link/os/os_imp/liteos/base/ipc\los_queue.c ****         return uwRet;
ARM GAS  C:\Users\user\AppData\Local\Temp\ccCjVdMh.s 			page 40


 1554              		.loc 2 474 0
 1555 0022 7B69     		ldr	r3, [r7, #20]
 1556 0024 0BE0     		b	.L88
 1557              	.L87:
 475:E:/LiteOS/LiteOS_Lab/iot_link/os/os_imp/liteos/base/ipc\los_queue.c ****     }
 476:E:/LiteOS/LiteOS_Lab/iot_link/os/os_imp/liteos/base/ipc\los_queue.c **** 
 477:E:/LiteOS/LiteOS_Lab/iot_link/os/os_imp/liteos/base/ipc\los_queue.c ****     uwOperateType = OS_QUEUE_OPERATE_TYPE(OS_QUEUE_READ, OS_QUEUE_HEAD, OS_QUEUE_POINT);
 1558              		.loc 2 477 0
 1559 0026 0423     		movs	r3, #4
 1560 0028 3B61     		str	r3, [r7, #16]
 478:E:/LiteOS/LiteOS_Lab/iot_link/os/os_imp/liteos/base/ipc\los_queue.c ****     return osQueueOperate(uwQueueID, uwOperateType, pBufferAddr, &uwBufferSize, uwTimeOut);
 1561              		.loc 2 478 0
 1562 002a 3A1D     		adds	r2, r7, #4
 1563 002c 3B68     		ldr	r3, [r7]
 1564 002e 0093     		str	r3, [sp]
 1565 0030 1346     		mov	r3, r2
 1566 0032 BA68     		ldr	r2, [r7, #8]
 1567 0034 3969     		ldr	r1, [r7, #16]
 1568 0036 F868     		ldr	r0, [r7, #12]
 1569 0038 FFF7FEFF 		bl	osQueueOperate
 1570 003c 0346     		mov	r3, r0
 1571              	.L88:
 479:E:/LiteOS/LiteOS_Lab/iot_link/os/os_imp/liteos/base/ipc\los_queue.c **** }
 1572              		.loc 2 479 0
 1573 003e 1846     		mov	r0, r3
 1574 0040 1837     		adds	r7, r7, #24
 1575              	.LCFI77:
 1576              		.cfi_def_cfa_offset 8
 1577 0042 BD46     		mov	sp, r7
 1578              	.LCFI78:
 1579              		.cfi_def_cfa_register 13
 1580              		@ sp needed
 1581 0044 80BD     		pop	{r7, pc}
 1582              		.cfi_endproc
 1583              	.LFE142:
 1585              		.section	.text.LOS_QueueWrite,"ax",%progbits
 1586              		.align	1
 1587              		.global	LOS_QueueWrite
 1588              		.syntax unified
 1589              		.thumb
 1590              		.thumb_func
 1591              		.fpu fpv4-sp-d16
 1593              	LOS_QueueWrite:
 1594              	.LFB143:
 480:E:/LiteOS/LiteOS_Lab/iot_link/os/os_imp/liteos/base/ipc\los_queue.c **** 
 481:E:/LiteOS/LiteOS_Lab/iot_link/os/os_imp/liteos/base/ipc\los_queue.c **** /*****************************************************************************
 482:E:/LiteOS/LiteOS_Lab/iot_link/os/os_imp/liteos/base/ipc\los_queue.c ****  Function    : LOS_QueueWrite
 483:E:/LiteOS/LiteOS_Lab/iot_link/os/os_imp/liteos/base/ipc\los_queue.c ****  Description : Write queue tail
 484:E:/LiteOS/LiteOS_Lab/iot_link/os/os_imp/liteos/base/ipc\los_queue.c ****  Input       : uwQueueID
 485:E:/LiteOS/LiteOS_Lab/iot_link/os/os_imp/liteos/base/ipc\los_queue.c ****                pBufferAddr
 486:E:/LiteOS/LiteOS_Lab/iot_link/os/os_imp/liteos/base/ipc\los_queue.c ****                uwBufferSize
 487:E:/LiteOS/LiteOS_Lab/iot_link/os/os_imp/liteos/base/ipc\los_queue.c ****                uwTimeOut
 488:E:/LiteOS/LiteOS_Lab/iot_link/os/os_imp/liteos/base/ipc\los_queue.c ****  Output      : None
 489:E:/LiteOS/LiteOS_Lab/iot_link/os/os_imp/liteos/base/ipc\los_queue.c ****  Return      : LOS_OK on success or error code on failure
 490:E:/LiteOS/LiteOS_Lab/iot_link/os/os_imp/liteos/base/ipc\los_queue.c ****  *****************************************************************************/
 491:E:/LiteOS/LiteOS_Lab/iot_link/os/os_imp/liteos/base/ipc\los_queue.c **** LITE_OS_SEC_TEXT UINT32 LOS_QueueWrite(UINT32 uwQueueID, VOID *pBufferAddr, UINT32 uwBufferSize, UI
 492:E:/LiteOS/LiteOS_Lab/iot_link/os/os_imp/liteos/base/ipc\los_queue.c **** {
ARM GAS  C:\Users\user\AppData\Local\Temp\ccCjVdMh.s 			page 41


 1595              		.loc 2 492 0
 1596              		.cfi_startproc
 1597              		@ args = 0, pretend = 0, frame = 24
 1598              		@ frame_needed = 1, uses_anonymous_args = 0
 1599 0000 80B5     		push	{r7, lr}
 1600              	.LCFI79:
 1601              		.cfi_def_cfa_offset 8
 1602              		.cfi_offset 7, -8
 1603              		.cfi_offset 14, -4
 1604 0002 88B0     		sub	sp, sp, #32
 1605              	.LCFI80:
 1606              		.cfi_def_cfa_offset 40
 1607 0004 02AF     		add	r7, sp, #8
 1608              	.LCFI81:
 1609              		.cfi_def_cfa 7, 32
 1610 0006 F860     		str	r0, [r7, #12]
 1611 0008 B960     		str	r1, [r7, #8]
 1612 000a 7A60     		str	r2, [r7, #4]
 1613 000c 3B60     		str	r3, [r7]
 493:E:/LiteOS/LiteOS_Lab/iot_link/os/os_imp/liteos/base/ipc\los_queue.c ****     UINT32 uwRet;
 494:E:/LiteOS/LiteOS_Lab/iot_link/os/os_imp/liteos/base/ipc\los_queue.c ****     UINT32 uwOperateType;
 495:E:/LiteOS/LiteOS_Lab/iot_link/os/os_imp/liteos/base/ipc\los_queue.c **** 
 496:E:/LiteOS/LiteOS_Lab/iot_link/os/os_imp/liteos/base/ipc\los_queue.c ****     uwBufferSize = sizeof(UINT32*);
 1614              		.loc 2 496 0
 1615 000e 0423     		movs	r3, #4
 1616 0010 7B60     		str	r3, [r7, #4]
 497:E:/LiteOS/LiteOS_Lab/iot_link/os/os_imp/liteos/base/ipc\los_queue.c **** 
 498:E:/LiteOS/LiteOS_Lab/iot_link/os/os_imp/liteos/base/ipc\los_queue.c ****     uwRet = osQueueWriteParameterCheck(uwQueueID, pBufferAddr, &uwBufferSize, uwTimeOut);
 1617              		.loc 2 498 0
 1618 0012 B968     		ldr	r1, [r7, #8]
 1619 0014 3A1D     		adds	r2, r7, #4
 1620 0016 3B68     		ldr	r3, [r7]
 1621 0018 F868     		ldr	r0, [r7, #12]
 1622 001a FFF7FEFF 		bl	osQueueWriteParameterCheck
 1623 001e 7861     		str	r0, [r7, #20]
 499:E:/LiteOS/LiteOS_Lab/iot_link/os/os_imp/liteos/base/ipc\los_queue.c ****     if(uwRet != LOS_OK)
 1624              		.loc 2 499 0
 1625 0020 7B69     		ldr	r3, [r7, #20]
 1626 0022 002B     		cmp	r3, #0
 1627 0024 01D0     		beq	.L90
 500:E:/LiteOS/LiteOS_Lab/iot_link/os/os_imp/liteos/base/ipc\los_queue.c ****     {
 501:E:/LiteOS/LiteOS_Lab/iot_link/os/os_imp/liteos/base/ipc\los_queue.c ****         return uwRet;
 1628              		.loc 2 501 0
 1629 0026 7B69     		ldr	r3, [r7, #20]
 1630 0028 0CE0     		b	.L91
 1631              	.L90:
 502:E:/LiteOS/LiteOS_Lab/iot_link/os/os_imp/liteos/base/ipc\los_queue.c ****     }
 503:E:/LiteOS/LiteOS_Lab/iot_link/os/os_imp/liteos/base/ipc\los_queue.c **** 
 504:E:/LiteOS/LiteOS_Lab/iot_link/os/os_imp/liteos/base/ipc\los_queue.c ****     uwOperateType = OS_QUEUE_OPERATE_TYPE(OS_QUEUE_WRITE, OS_QUEUE_TAIL, OS_QUEUE_POINT);
 1632              		.loc 2 504 0
 1633 002a 0723     		movs	r3, #7
 1634 002c 3B61     		str	r3, [r7, #16]
 505:E:/LiteOS/LiteOS_Lab/iot_link/os/os_imp/liteos/base/ipc\los_queue.c ****     return osQueueOperate(uwQueueID, uwOperateType, &pBufferAddr, &uwBufferSize, uwTimeOut);
 1635              		.loc 2 505 0
 1636 002e 391D     		adds	r1, r7, #4
 1637 0030 07F10802 		add	r2, r7, #8
 1638 0034 3B68     		ldr	r3, [r7]
ARM GAS  C:\Users\user\AppData\Local\Temp\ccCjVdMh.s 			page 42


 1639 0036 0093     		str	r3, [sp]
 1640 0038 0B46     		mov	r3, r1
 1641 003a 3969     		ldr	r1, [r7, #16]
 1642 003c F868     		ldr	r0, [r7, #12]
 1643 003e FFF7FEFF 		bl	osQueueOperate
 1644 0042 0346     		mov	r3, r0
 1645              	.L91:
 506:E:/LiteOS/LiteOS_Lab/iot_link/os/os_imp/liteos/base/ipc\los_queue.c **** }
 1646              		.loc 2 506 0
 1647 0044 1846     		mov	r0, r3
 1648 0046 1837     		adds	r7, r7, #24
 1649              	.LCFI82:
 1650              		.cfi_def_cfa_offset 8
 1651 0048 BD46     		mov	sp, r7
 1652              	.LCFI83:
 1653              		.cfi_def_cfa_register 13
 1654              		@ sp needed
 1655 004a 80BD     		pop	{r7, pc}
 1656              		.cfi_endproc
 1657              	.LFE143:
 1659              		.section	.text.LOS_QueueWriteHead,"ax",%progbits
 1660              		.align	1
 1661              		.global	LOS_QueueWriteHead
 1662              		.syntax unified
 1663              		.thumb
 1664              		.thumb_func
 1665              		.fpu fpv4-sp-d16
 1667              	LOS_QueueWriteHead:
 1668              	.LFB144:
 507:E:/LiteOS/LiteOS_Lab/iot_link/os/os_imp/liteos/base/ipc\los_queue.c **** 
 508:E:/LiteOS/LiteOS_Lab/iot_link/os/os_imp/liteos/base/ipc\los_queue.c **** /*****************************************************************************
 509:E:/LiteOS/LiteOS_Lab/iot_link/os/os_imp/liteos/base/ipc\los_queue.c ****  Function    : LOS_QueueWriteHead
 510:E:/LiteOS/LiteOS_Lab/iot_link/os/os_imp/liteos/base/ipc\los_queue.c ****  Description : write queue head
 511:E:/LiteOS/LiteOS_Lab/iot_link/os/os_imp/liteos/base/ipc\los_queue.c ****  Input       : uwQueueID
 512:E:/LiteOS/LiteOS_Lab/iot_link/os/os_imp/liteos/base/ipc\los_queue.c ****                pBufferAddr
 513:E:/LiteOS/LiteOS_Lab/iot_link/os/os_imp/liteos/base/ipc\los_queue.c ****                uwBufferSize
 514:E:/LiteOS/LiteOS_Lab/iot_link/os/os_imp/liteos/base/ipc\los_queue.c ****                uwTimeOut
 515:E:/LiteOS/LiteOS_Lab/iot_link/os/os_imp/liteos/base/ipc\los_queue.c ****  Output      : None
 516:E:/LiteOS/LiteOS_Lab/iot_link/os/os_imp/liteos/base/ipc\los_queue.c ****  Return      : LOS_OK on success or error code on failure
 517:E:/LiteOS/LiteOS_Lab/iot_link/os/os_imp/liteos/base/ipc\los_queue.c ****  *****************************************************************************/
 518:E:/LiteOS/LiteOS_Lab/iot_link/os/os_imp/liteos/base/ipc\los_queue.c **** LITE_OS_SEC_TEXT UINT32 LOS_QueueWriteHead( UINT32 uwQueueID,
 519:E:/LiteOS/LiteOS_Lab/iot_link/os/os_imp/liteos/base/ipc\los_queue.c ****                                      VOID * pBufferAddr,
 520:E:/LiteOS/LiteOS_Lab/iot_link/os/os_imp/liteos/base/ipc\los_queue.c ****                                      UINT32 uwBufferSize,
 521:E:/LiteOS/LiteOS_Lab/iot_link/os/os_imp/liteos/base/ipc\los_queue.c ****                                      UINT32 uwTimeOut )
 522:E:/LiteOS/LiteOS_Lab/iot_link/os/os_imp/liteos/base/ipc\los_queue.c **** {
 1669              		.loc 2 522 0
 1670              		.cfi_startproc
 1671              		@ args = 0, pretend = 0, frame = 16
 1672              		@ frame_needed = 1, uses_anonymous_args = 0
 1673 0000 80B5     		push	{r7, lr}
 1674              	.LCFI84:
 1675              		.cfi_def_cfa_offset 8
 1676              		.cfi_offset 7, -8
 1677              		.cfi_offset 14, -4
 1678 0002 84B0     		sub	sp, sp, #16
 1679              	.LCFI85:
 1680              		.cfi_def_cfa_offset 24
ARM GAS  C:\Users\user\AppData\Local\Temp\ccCjVdMh.s 			page 43


 1681 0004 00AF     		add	r7, sp, #0
 1682              	.LCFI86:
 1683              		.cfi_def_cfa_register 7
 1684 0006 F860     		str	r0, [r7, #12]
 1685 0008 B960     		str	r1, [r7, #8]
 1686 000a 7A60     		str	r2, [r7, #4]
 1687 000c 3B60     		str	r3, [r7]
 523:E:/LiteOS/LiteOS_Lab/iot_link/os/os_imp/liteos/base/ipc\los_queue.c ****     if(pBufferAddr == NULL)
 1688              		.loc 2 523 0
 1689 000e BB68     		ldr	r3, [r7, #8]
 1690 0010 002B     		cmp	r3, #0
 1691 0012 01D1     		bne	.L93
 524:E:/LiteOS/LiteOS_Lab/iot_link/os/os_imp/liteos/base/ipc\los_queue.c ****     {
 525:E:/LiteOS/LiteOS_Lab/iot_link/os/os_imp/liteos/base/ipc\los_queue.c ****         return LOS_ERRNO_QUEUE_WRITE_PTR_NULL;
 1692              		.loc 2 525 0
 1693 0014 074B     		ldr	r3, .L95
 1694 0016 09E0     		b	.L94
 1695              	.L93:
 526:E:/LiteOS/LiteOS_Lab/iot_link/os/os_imp/liteos/base/ipc\los_queue.c ****     }
 527:E:/LiteOS/LiteOS_Lab/iot_link/os/os_imp/liteos/base/ipc\los_queue.c ****     uwBufferSize = sizeof(UINT32*);
 1696              		.loc 2 527 0
 1697 0018 0423     		movs	r3, #4
 1698 001a 7B60     		str	r3, [r7, #4]
 528:E:/LiteOS/LiteOS_Lab/iot_link/os/os_imp/liteos/base/ipc\los_queue.c ****     return LOS_QueueWriteHeadCopy(uwQueueID, &pBufferAddr, uwBufferSize, uwTimeOut);
 1699              		.loc 2 528 0
 1700 001c 07F10801 		add	r1, r7, #8
 1701 0020 3B68     		ldr	r3, [r7]
 1702 0022 7A68     		ldr	r2, [r7, #4]
 1703 0024 F868     		ldr	r0, [r7, #12]
 1704 0026 FFF7FEFF 		bl	LOS_QueueWriteHeadCopy
 1705 002a 0346     		mov	r3, r0
 1706              	.L94:
 529:E:/LiteOS/LiteOS_Lab/iot_link/os/os_imp/liteos/base/ipc\los_queue.c **** }
 1707              		.loc 2 529 0
 1708 002c 1846     		mov	r0, r3
 1709 002e 1037     		adds	r7, r7, #16
 1710              	.LCFI87:
 1711              		.cfi_def_cfa_offset 8
 1712 0030 BD46     		mov	sp, r7
 1713              	.LCFI88:
 1714              		.cfi_def_cfa_register 13
 1715              		@ sp needed
 1716 0032 80BD     		pop	{r7, pc}
 1717              	.L96:
 1718              		.align	2
 1719              	.L95:
 1720 0034 12060002 		.word	33555986
 1721              		.cfi_endproc
 1722              	.LFE144:
 1724              		.section	.text.osQueueMailAlloc,"ax",%progbits
 1725              		.align	1
 1726              		.global	osQueueMailAlloc
 1727              		.syntax unified
 1728              		.thumb
 1729              		.thumb_func
 1730              		.fpu fpv4-sp-d16
 1732              	osQueueMailAlloc:
ARM GAS  C:\Users\user\AppData\Local\Temp\ccCjVdMh.s 			page 44


 1733              	.LFB145:
 530:E:/LiteOS/LiteOS_Lab/iot_link/os/os_imp/liteos/base/ipc\los_queue.c **** 
 531:E:/LiteOS/LiteOS_Lab/iot_link/os/os_imp/liteos/base/ipc\los_queue.c **** /*****************************************************************************
 532:E:/LiteOS/LiteOS_Lab/iot_link/os/os_imp/liteos/base/ipc\los_queue.c ****  Function    : osQueueMailAlloc
 533:E:/LiteOS/LiteOS_Lab/iot_link/os/os_imp/liteos/base/ipc\los_queue.c ****  Description : Mail allocate memory
 534:E:/LiteOS/LiteOS_Lab/iot_link/os/os_imp/liteos/base/ipc\los_queue.c ****  Input       : uwQueueID   --- QueueID
 535:E:/LiteOS/LiteOS_Lab/iot_link/os/os_imp/liteos/base/ipc\los_queue.c ****              : pMailPool   --- MailPool
 536:E:/LiteOS/LiteOS_Lab/iot_link/os/os_imp/liteos/base/ipc\los_queue.c ****              : uwTimeOut   --- TimeOut
 537:E:/LiteOS/LiteOS_Lab/iot_link/os/os_imp/liteos/base/ipc\los_queue.c ****  Output      : None
 538:E:/LiteOS/LiteOS_Lab/iot_link/os/os_imp/liteos/base/ipc\los_queue.c ****  Return      : pointer if success otherwise NULL
 539:E:/LiteOS/LiteOS_Lab/iot_link/os/os_imp/liteos/base/ipc\los_queue.c ****  *****************************************************************************/
 540:E:/LiteOS/LiteOS_Lab/iot_link/os/os_imp/liteos/base/ipc\los_queue.c **** LITE_OS_SEC_TEXT VOID *osQueueMailAlloc(UINT32  uwQueueID, VOID* pMailPool, UINT32 uwTimeOut)
 541:E:/LiteOS/LiteOS_Lab/iot_link/os/os_imp/liteos/base/ipc\los_queue.c **** {
 1734              		.loc 2 541 0
 1735              		.cfi_startproc
 1736              		@ args = 0, pretend = 0, frame = 32
 1737              		@ frame_needed = 1, uses_anonymous_args = 0
 1738 0000 80B5     		push	{r7, lr}
 1739              	.LCFI89:
 1740              		.cfi_def_cfa_offset 8
 1741              		.cfi_offset 7, -8
 1742              		.cfi_offset 14, -4
 1743 0002 88B0     		sub	sp, sp, #32
 1744              	.LCFI90:
 1745              		.cfi_def_cfa_offset 40
 1746 0004 00AF     		add	r7, sp, #0
 1747              	.LCFI91:
 1748              		.cfi_def_cfa_register 7
 1749 0006 F860     		str	r0, [r7, #12]
 1750 0008 B960     		str	r1, [r7, #8]
 1751 000a 7A60     		str	r2, [r7, #4]
 542:E:/LiteOS/LiteOS_Lab/iot_link/os/os_imp/liteos/base/ipc\los_queue.c ****     VOID *pMem = (VOID *)NULL;
 1752              		.loc 2 542 0
 1753 000c 0023     		movs	r3, #0
 1754 000e FB61     		str	r3, [r7, #28]
 543:E:/LiteOS/LiteOS_Lab/iot_link/os/os_imp/liteos/base/ipc\los_queue.c ****     UINTPTR uvIntSave;
 544:E:/LiteOS/LiteOS_Lab/iot_link/os/os_imp/liteos/base/ipc\los_queue.c ****     QUEUE_CB_S *pstQueueCB = (QUEUE_CB_S *)NULL;
 1755              		.loc 2 544 0
 1756 0010 0023     		movs	r3, #0
 1757 0012 7B61     		str	r3, [r7, #20]
 545:E:/LiteOS/LiteOS_Lab/iot_link/os/os_imp/liteos/base/ipc\los_queue.c ****     LOS_TASK_CB *pstRunTsk = (LOS_TASK_CB *)NULL;
 1758              		.loc 2 545 0
 1759 0014 0023     		movs	r3, #0
 1760 0016 3B61     		str	r3, [r7, #16]
 546:E:/LiteOS/LiteOS_Lab/iot_link/os/os_imp/liteos/base/ipc\los_queue.c **** 
 547:E:/LiteOS/LiteOS_Lab/iot_link/os/os_imp/liteos/base/ipc\los_queue.c ****     if (uwQueueID >= LOSCFG_BASE_IPC_QUEUE_LIMIT)
 1761              		.loc 2 547 0
 1762 0018 FB68     		ldr	r3, [r7, #12]
 1763 001a 092B     		cmp	r3, #9
 1764 001c 01D9     		bls	.L98
 548:E:/LiteOS/LiteOS_Lab/iot_link/os/os_imp/liteos/base/ipc\los_queue.c ****     {
 549:E:/LiteOS/LiteOS_Lab/iot_link/os/os_imp/liteos/base/ipc\los_queue.c ****         return NULL;
 1765              		.loc 2 549 0
 1766 001e 0023     		movs	r3, #0
 1767 0020 58E0     		b	.L99
 1768              	.L98:
 550:E:/LiteOS/LiteOS_Lab/iot_link/os/os_imp/liteos/base/ipc\los_queue.c ****     }
ARM GAS  C:\Users\user\AppData\Local\Temp\ccCjVdMh.s 			page 45


 551:E:/LiteOS/LiteOS_Lab/iot_link/os/os_imp/liteos/base/ipc\los_queue.c **** 
 552:E:/LiteOS/LiteOS_Lab/iot_link/os/os_imp/liteos/base/ipc\los_queue.c ****     if (pMailPool == NULL)
 1769              		.loc 2 552 0
 1770 0022 BB68     		ldr	r3, [r7, #8]
 1771 0024 002B     		cmp	r3, #0
 1772 0026 01D1     		bne	.L100
 553:E:/LiteOS/LiteOS_Lab/iot_link/os/os_imp/liteos/base/ipc\los_queue.c ****     {
 554:E:/LiteOS/LiteOS_Lab/iot_link/os/os_imp/liteos/base/ipc\los_queue.c ****         return NULL;
 1773              		.loc 2 554 0
 1774 0028 0023     		movs	r3, #0
 1775 002a 53E0     		b	.L99
 1776              	.L100:
 555:E:/LiteOS/LiteOS_Lab/iot_link/os/os_imp/liteos/base/ipc\los_queue.c ****     }
 556:E:/LiteOS/LiteOS_Lab/iot_link/os/os_imp/liteos/base/ipc\los_queue.c **** 
 557:E:/LiteOS/LiteOS_Lab/iot_link/os/os_imp/liteos/base/ipc\los_queue.c ****     if (LOS_NO_WAIT != uwTimeOut)
 1777              		.loc 2 557 0
 1778 002c 7B68     		ldr	r3, [r7, #4]
 1779 002e 002B     		cmp	r3, #0
 1780 0030 06D0     		beq	.L101
 558:E:/LiteOS/LiteOS_Lab/iot_link/os/os_imp/liteos/base/ipc\los_queue.c ****     {
 559:E:/LiteOS/LiteOS_Lab/iot_link/os/os_imp/liteos/base/ipc\los_queue.c ****         if (OS_INT_ACTIVE)
 1781              		.loc 2 559 0
 1782 0032 FFF7FEFF 		bl	osIntNumGet
 1783 0036 0346     		mov	r3, r0
 1784 0038 002B     		cmp	r3, #0
 1785 003a 01D0     		beq	.L101
 560:E:/LiteOS/LiteOS_Lab/iot_link/os/os_imp/liteos/base/ipc\los_queue.c ****         {
 561:E:/LiteOS/LiteOS_Lab/iot_link/os/os_imp/liteos/base/ipc\los_queue.c ****             return NULL;
 1786              		.loc 2 561 0
 1787 003c 0023     		movs	r3, #0
 1788 003e 49E0     		b	.L99
 1789              	.L101:
 562:E:/LiteOS/LiteOS_Lab/iot_link/os/os_imp/liteos/base/ipc\los_queue.c ****         }
 563:E:/LiteOS/LiteOS_Lab/iot_link/os/os_imp/liteos/base/ipc\los_queue.c ****     }
 564:E:/LiteOS/LiteOS_Lab/iot_link/os/os_imp/liteos/base/ipc\los_queue.c **** 
 565:E:/LiteOS/LiteOS_Lab/iot_link/os/os_imp/liteos/base/ipc\los_queue.c ****     uvIntSave = LOS_IntLock();
 1790              		.loc 2 565 0
 1791 0040 FFF7FEFF 		bl	LOS_IntLock
 1792 0044 B861     		str	r0, [r7, #24]
 566:E:/LiteOS/LiteOS_Lab/iot_link/os/os_imp/liteos/base/ipc\los_queue.c ****     pstQueueCB = GET_QUEUE_HANDLE(uwQueueID);
 1793              		.loc 2 566 0
 1794 0046 254B     		ldr	r3, .L109
 1795 0048 1A68     		ldr	r2, [r3]
 1796 004a FB68     		ldr	r3, [r7, #12]
 1797 004c 2C21     		movs	r1, #44
 1798 004e 01FB03F3 		mul	r3, r1, r3
 1799 0052 1344     		add	r3, r3, r2
 1800 0054 7B61     		str	r3, [r7, #20]
 567:E:/LiteOS/LiteOS_Lab/iot_link/os/os_imp/liteos/base/ipc\los_queue.c ****     if (OS_QUEUE_UNUSED == pstQueueCB->usQueueState)
 1801              		.loc 2 567 0
 1802 0056 7B69     		ldr	r3, [r7, #20]
 1803 0058 9B88     		ldrh	r3, [r3, #4]
 1804 005a 002B     		cmp	r3, #0
 1805 005c 31D0     		beq	.L106
 568:E:/LiteOS/LiteOS_Lab/iot_link/os/os_imp/liteos/base/ipc\los_queue.c ****     {
 569:E:/LiteOS/LiteOS_Lab/iot_link/os/os_imp/liteos/base/ipc\los_queue.c ****         goto END;
 570:E:/LiteOS/LiteOS_Lab/iot_link/os/os_imp/liteos/base/ipc\los_queue.c ****     }
ARM GAS  C:\Users\user\AppData\Local\Temp\ccCjVdMh.s 			page 46


 571:E:/LiteOS/LiteOS_Lab/iot_link/os/os_imp/liteos/base/ipc\los_queue.c **** 
 572:E:/LiteOS/LiteOS_Lab/iot_link/os/os_imp/liteos/base/ipc\los_queue.c ****     pMem = LOS_MemboxAlloc(pMailPool);
 1806              		.loc 2 572 0
 1807 005e B868     		ldr	r0, [r7, #8]
 1808 0060 FFF7FEFF 		bl	LOS_MemboxAlloc
 1809 0064 F861     		str	r0, [r7, #28]
 573:E:/LiteOS/LiteOS_Lab/iot_link/os/os_imp/liteos/base/ipc\los_queue.c ****     if (NULL == pMem)
 1810              		.loc 2 573 0
 1811 0066 FB69     		ldr	r3, [r7, #28]
 1812 0068 002B     		cmp	r3, #0
 1813 006a 2CD1     		bne	.L107
 574:E:/LiteOS/LiteOS_Lab/iot_link/os/os_imp/liteos/base/ipc\los_queue.c ****     {
 575:E:/LiteOS/LiteOS_Lab/iot_link/os/os_imp/liteos/base/ipc\los_queue.c ****         if (uwTimeOut == LOS_NO_WAIT)
 1814              		.loc 2 575 0
 1815 006c 7B68     		ldr	r3, [r7, #4]
 1816 006e 002B     		cmp	r3, #0
 1817 0070 2BD0     		beq	.L108
 576:E:/LiteOS/LiteOS_Lab/iot_link/os/os_imp/liteos/base/ipc\los_queue.c ****         {
 577:E:/LiteOS/LiteOS_Lab/iot_link/os/os_imp/liteos/base/ipc\los_queue.c ****             goto END;
 578:E:/LiteOS/LiteOS_Lab/iot_link/os/os_imp/liteos/base/ipc\los_queue.c ****         }
 579:E:/LiteOS/LiteOS_Lab/iot_link/os/os_imp/liteos/base/ipc\los_queue.c **** 
 580:E:/LiteOS/LiteOS_Lab/iot_link/os/os_imp/liteos/base/ipc\los_queue.c ****         pstRunTsk = (LOS_TASK_CB *)g_stLosTask.pstRunTask;
 1818              		.loc 2 580 0
 1819 0072 1B4B     		ldr	r3, .L109+4
 1820 0074 1B68     		ldr	r3, [r3]
 1821 0076 3B61     		str	r3, [r7, #16]
 581:E:/LiteOS/LiteOS_Lab/iot_link/os/os_imp/liteos/base/ipc\los_queue.c ****         osTaskWait(&pstQueueCB->stMemList, OS_TASK_STATUS_PEND_QUEUE, uwTimeOut);
 1822              		.loc 2 581 0
 1823 0078 7B69     		ldr	r3, [r7, #20]
 1824 007a 2433     		adds	r3, r3, #36
 1825 007c 7A68     		ldr	r2, [r7, #4]
 1826 007e 4FF40051 		mov	r1, #8192
 1827 0082 1846     		mov	r0, r3
 1828 0084 FFF7FEFF 		bl	osTaskWait
 582:E:/LiteOS/LiteOS_Lab/iot_link/os/os_imp/liteos/base/ipc\los_queue.c ****         LOS_IntRestore(uvIntSave);
 1829              		.loc 2 582 0
 1830 0088 B869     		ldr	r0, [r7, #24]
 1831 008a FFF7FEFF 		bl	LOS_IntRestore
 583:E:/LiteOS/LiteOS_Lab/iot_link/os/os_imp/liteos/base/ipc\los_queue.c ****         LOS_Schedule();
 1832              		.loc 2 583 0
 1833 008e FFF7FEFF 		bl	LOS_Schedule
 584:E:/LiteOS/LiteOS_Lab/iot_link/os/os_imp/liteos/base/ipc\los_queue.c **** 
 585:E:/LiteOS/LiteOS_Lab/iot_link/os/os_imp/liteos/base/ipc\los_queue.c ****         uvIntSave = LOS_IntLock();
 1834              		.loc 2 585 0
 1835 0092 FFF7FEFF 		bl	LOS_IntLock
 1836 0096 B861     		str	r0, [r7, #24]
 586:E:/LiteOS/LiteOS_Lab/iot_link/os/os_imp/liteos/base/ipc\los_queue.c ****         if (pstRunTsk->usTaskStatus & OS_TASK_STATUS_TIMEOUT)
 1837              		.loc 2 586 0
 1838 0098 3B69     		ldr	r3, [r7, #16]
 1839 009a 9B88     		ldrh	r3, [r3, #4]
 1840 009c 03F04003 		and	r3, r3, #64
 1841 00a0 002B     		cmp	r3, #0
 1842 00a2 07D0     		beq	.L105
 587:E:/LiteOS/LiteOS_Lab/iot_link/os/os_imp/liteos/base/ipc\los_queue.c ****         {
 588:E:/LiteOS/LiteOS_Lab/iot_link/os/os_imp/liteos/base/ipc\los_queue.c ****             pstRunTsk->usTaskStatus &= (~OS_TASK_STATUS_TIMEOUT);
 1843              		.loc 2 588 0
 1844 00a4 3B69     		ldr	r3, [r7, #16]
ARM GAS  C:\Users\user\AppData\Local\Temp\ccCjVdMh.s 			page 47


 1845 00a6 9B88     		ldrh	r3, [r3, #4]
 1846 00a8 23F04003 		bic	r3, r3, #64
 1847 00ac 9AB2     		uxth	r2, r3
 1848 00ae 3B69     		ldr	r3, [r7, #16]
 1849 00b0 9A80     		strh	r2, [r3, #4]	@ movhi
 589:E:/LiteOS/LiteOS_Lab/iot_link/os/os_imp/liteos/base/ipc\los_queue.c ****             goto END;
 1850              		.loc 2 589 0
 1851 00b2 0BE0     		b	.L103
 1852              	.L105:
 590:E:/LiteOS/LiteOS_Lab/iot_link/os/os_imp/liteos/base/ipc\los_queue.c ****         }
 591:E:/LiteOS/LiteOS_Lab/iot_link/os/os_imp/liteos/base/ipc\los_queue.c ****         else
 592:E:/LiteOS/LiteOS_Lab/iot_link/os/os_imp/liteos/base/ipc\los_queue.c ****         {
 593:E:/LiteOS/LiteOS_Lab/iot_link/os/os_imp/liteos/base/ipc\los_queue.c ****             /* When enters the current branch, means the current task already got a available membo
 594:E:/LiteOS/LiteOS_Lab/iot_link/os/os_imp/liteos/base/ipc\los_queue.c ****              * so the pstRunTsk->puwMsg can not be NULL.
 595:E:/LiteOS/LiteOS_Lab/iot_link/os/os_imp/liteos/base/ipc\los_queue.c ****              */
 596:E:/LiteOS/LiteOS_Lab/iot_link/os/os_imp/liteos/base/ipc\los_queue.c ****             pMem = pstRunTsk->puwMsg;
 1853              		.loc 2 596 0
 1854 00b4 3B69     		ldr	r3, [r7, #16]
 1855 00b6 1B6D     		ldr	r3, [r3, #80]
 1856 00b8 FB61     		str	r3, [r7, #28]
 597:E:/LiteOS/LiteOS_Lab/iot_link/os/os_imp/liteos/base/ipc\los_queue.c ****             pstRunTsk->puwMsg = NULL;
 1857              		.loc 2 597 0
 1858 00ba 3B69     		ldr	r3, [r7, #16]
 1859 00bc 0022     		movs	r2, #0
 1860 00be 1A65     		str	r2, [r3, #80]
 1861 00c0 04E0     		b	.L103
 1862              	.L106:
 569:E:/LiteOS/LiteOS_Lab/iot_link/os/os_imp/liteos/base/ipc\los_queue.c ****     }
 1863              		.loc 2 569 0
 1864 00c2 00BF     		nop
 1865 00c4 02E0     		b	.L103
 1866              	.L107:
 598:E:/LiteOS/LiteOS_Lab/iot_link/os/os_imp/liteos/base/ipc\los_queue.c ****         }
 599:E:/LiteOS/LiteOS_Lab/iot_link/os/os_imp/liteos/base/ipc\los_queue.c ****     }
 600:E:/LiteOS/LiteOS_Lab/iot_link/os/os_imp/liteos/base/ipc\los_queue.c **** 
 601:E:/LiteOS/LiteOS_Lab/iot_link/os/os_imp/liteos/base/ipc\los_queue.c **** END:
 1867              		.loc 2 601 0
 1868 00c6 00BF     		nop
 1869 00c8 00E0     		b	.L103
 1870              	.L108:
 577:E:/LiteOS/LiteOS_Lab/iot_link/os/os_imp/liteos/base/ipc\los_queue.c ****         }
 1871              		.loc 2 577 0
 1872 00ca 00BF     		nop
 1873              	.L103:
 602:E:/LiteOS/LiteOS_Lab/iot_link/os/os_imp/liteos/base/ipc\los_queue.c ****     LOS_IntRestore(uvIntSave);
 1874              		.loc 2 602 0
 1875 00cc B869     		ldr	r0, [r7, #24]
 1876 00ce FFF7FEFF 		bl	LOS_IntRestore
 603:E:/LiteOS/LiteOS_Lab/iot_link/os/os_imp/liteos/base/ipc\los_queue.c ****     return pMem;
 1877              		.loc 2 603 0
 1878 00d2 FB69     		ldr	r3, [r7, #28]
 1879              	.L99:
 604:E:/LiteOS/LiteOS_Lab/iot_link/os/os_imp/liteos/base/ipc\los_queue.c **** }
 1880              		.loc 2 604 0
 1881 00d4 1846     		mov	r0, r3
 1882 00d6 2037     		adds	r7, r7, #32
 1883              	.LCFI92:
ARM GAS  C:\Users\user\AppData\Local\Temp\ccCjVdMh.s 			page 48


 1884              		.cfi_def_cfa_offset 8
 1885 00d8 BD46     		mov	sp, r7
 1886              	.LCFI93:
 1887              		.cfi_def_cfa_register 13
 1888              		@ sp needed
 1889 00da 80BD     		pop	{r7, pc}
 1890              	.L110:
 1891              		.align	2
 1892              	.L109:
 1893 00dc 00000000 		.word	g_pstAllQueue
 1894 00e0 00000000 		.word	g_stLosTask
 1895              		.cfi_endproc
 1896              	.LFE145:
 1898              		.section	.text.osQueueMailFree,"ax",%progbits
 1899              		.align	1
 1900              		.global	osQueueMailFree
 1901              		.syntax unified
 1902              		.thumb
 1903              		.thumb_func
 1904              		.fpu fpv4-sp-d16
 1906              	osQueueMailFree:
 1907              	.LFB146:
 605:E:/LiteOS/LiteOS_Lab/iot_link/os/os_imp/liteos/base/ipc\los_queue.c **** 
 606:E:/LiteOS/LiteOS_Lab/iot_link/os/os_imp/liteos/base/ipc\los_queue.c **** /*****************************************************************************
 607:E:/LiteOS/LiteOS_Lab/iot_link/os/os_imp/liteos/base/ipc\los_queue.c ****  Function    : osQueueMailFree
 608:E:/LiteOS/LiteOS_Lab/iot_link/os/os_imp/liteos/base/ipc\los_queue.c ****  Description : Mail free memory
 609:E:/LiteOS/LiteOS_Lab/iot_link/os/os_imp/liteos/base/ipc\los_queue.c ****  Input       : uwQueueID   --- QueueID
 610:E:/LiteOS/LiteOS_Lab/iot_link/os/os_imp/liteos/base/ipc\los_queue.c ****              : pMailPool   --- MailPool
 611:E:/LiteOS/LiteOS_Lab/iot_link/os/os_imp/liteos/base/ipc\los_queue.c ****  Output      : None
 612:E:/LiteOS/LiteOS_Lab/iot_link/os/os_imp/liteos/base/ipc\los_queue.c ****  Return      : LOS_OK on success or error code on failure
 613:E:/LiteOS/LiteOS_Lab/iot_link/os/os_imp/liteos/base/ipc\los_queue.c ****  *****************************************************************************/
 614:E:/LiteOS/LiteOS_Lab/iot_link/os/os_imp/liteos/base/ipc\los_queue.c **** LITE_OS_SEC_TEXT UINT32 osQueueMailFree(UINT32  uwQueueID, VOID* pMailPool, VOID* pMailMem)
 615:E:/LiteOS/LiteOS_Lab/iot_link/os/os_imp/liteos/base/ipc\los_queue.c **** {
 1908              		.loc 2 615 0
 1909              		.cfi_startproc
 1910              		@ args = 0, pretend = 0, frame = 32
 1911              		@ frame_needed = 1, uses_anonymous_args = 0
 1912 0000 80B5     		push	{r7, lr}
 1913              	.LCFI94:
 1914              		.cfi_def_cfa_offset 8
 1915              		.cfi_offset 7, -8
 1916              		.cfi_offset 14, -4
 1917 0002 88B0     		sub	sp, sp, #32
 1918              	.LCFI95:
 1919              		.cfi_def_cfa_offset 40
 1920 0004 00AF     		add	r7, sp, #0
 1921              	.LCFI96:
 1922              		.cfi_def_cfa_register 7
 1923 0006 F860     		str	r0, [r7, #12]
 1924 0008 B960     		str	r1, [r7, #8]
 1925 000a 7A60     		str	r2, [r7, #4]
 616:E:/LiteOS/LiteOS_Lab/iot_link/os/os_imp/liteos/base/ipc\los_queue.c ****     VOID *pMem = (VOID *)NULL;
 1926              		.loc 2 616 0
 1927 000c 0023     		movs	r3, #0
 1928 000e FB61     		str	r3, [r7, #28]
 617:E:/LiteOS/LiteOS_Lab/iot_link/os/os_imp/liteos/base/ipc\los_queue.c ****     UINTPTR uvIntSave;
 618:E:/LiteOS/LiteOS_Lab/iot_link/os/os_imp/liteos/base/ipc\los_queue.c ****     QUEUE_CB_S *pstQueueCB = (QUEUE_CB_S *)NULL;
ARM GAS  C:\Users\user\AppData\Local\Temp\ccCjVdMh.s 			page 49


 1929              		.loc 2 618 0
 1930 0010 0023     		movs	r3, #0
 1931 0012 BB61     		str	r3, [r7, #24]
 619:E:/LiteOS/LiteOS_Lab/iot_link/os/os_imp/liteos/base/ipc\los_queue.c ****     LOS_TASK_CB *pstResumedTask = (LOS_TASK_CB *)NULL;
 1932              		.loc 2 619 0
 1933 0014 0023     		movs	r3, #0
 1934 0016 7B61     		str	r3, [r7, #20]
 620:E:/LiteOS/LiteOS_Lab/iot_link/os/os_imp/liteos/base/ipc\los_queue.c **** 
 621:E:/LiteOS/LiteOS_Lab/iot_link/os/os_imp/liteos/base/ipc\los_queue.c ****     if (uwQueueID >= LOSCFG_BASE_IPC_QUEUE_LIMIT)
 1935              		.loc 2 621 0
 1936 0018 FB68     		ldr	r3, [r7, #12]
 1937 001a 092B     		cmp	r3, #9
 1938 001c 01D9     		bls	.L112
 622:E:/LiteOS/LiteOS_Lab/iot_link/os/os_imp/liteos/base/ipc\los_queue.c ****     {
 623:E:/LiteOS/LiteOS_Lab/iot_link/os/os_imp/liteos/base/ipc\los_queue.c ****         return LOS_ERRNO_QUEUE_MAIL_HANDLE_INVALID;
 1939              		.loc 2 623 0
 1940 001e 264B     		ldr	r3, .L119
 1941 0020 46E0     		b	.L113
 1942              	.L112:
 624:E:/LiteOS/LiteOS_Lab/iot_link/os/os_imp/liteos/base/ipc\los_queue.c ****     }
 625:E:/LiteOS/LiteOS_Lab/iot_link/os/os_imp/liteos/base/ipc\los_queue.c **** 
 626:E:/LiteOS/LiteOS_Lab/iot_link/os/os_imp/liteos/base/ipc\los_queue.c ****     if (pMailPool == NULL)
 1943              		.loc 2 626 0
 1944 0022 BB68     		ldr	r3, [r7, #8]
 1945 0024 002B     		cmp	r3, #0
 1946 0026 01D1     		bne	.L114
 627:E:/LiteOS/LiteOS_Lab/iot_link/os/os_imp/liteos/base/ipc\los_queue.c ****     {
 628:E:/LiteOS/LiteOS_Lab/iot_link/os/os_imp/liteos/base/ipc\los_queue.c ****         return LOS_ERRNO_QUEUE_MAIL_PTR_INVALID;
 1947              		.loc 2 628 0
 1948 0028 244B     		ldr	r3, .L119+4
 1949 002a 41E0     		b	.L113
 1950              	.L114:
 629:E:/LiteOS/LiteOS_Lab/iot_link/os/os_imp/liteos/base/ipc\los_queue.c ****     }
 630:E:/LiteOS/LiteOS_Lab/iot_link/os/os_imp/liteos/base/ipc\los_queue.c **** 
 631:E:/LiteOS/LiteOS_Lab/iot_link/os/os_imp/liteos/base/ipc\los_queue.c ****     uvIntSave = LOS_IntLock();
 1951              		.loc 2 631 0
 1952 002c FFF7FEFF 		bl	LOS_IntLock
 1953 0030 3861     		str	r0, [r7, #16]
 632:E:/LiteOS/LiteOS_Lab/iot_link/os/os_imp/liteos/base/ipc\los_queue.c **** 
 633:E:/LiteOS/LiteOS_Lab/iot_link/os/os_imp/liteos/base/ipc\los_queue.c ****     if (LOS_MemboxFree(pMailPool, pMailMem))
 1954              		.loc 2 633 0
 1955 0032 7968     		ldr	r1, [r7, #4]
 1956 0034 B868     		ldr	r0, [r7, #8]
 1957 0036 FFF7FEFF 		bl	LOS_MemboxFree
 1958 003a 0346     		mov	r3, r0
 1959 003c 002B     		cmp	r3, #0
 1960 003e 04D0     		beq	.L115
 634:E:/LiteOS/LiteOS_Lab/iot_link/os/os_imp/liteos/base/ipc\los_queue.c ****     {
 635:E:/LiteOS/LiteOS_Lab/iot_link/os/os_imp/liteos/base/ipc\los_queue.c ****         LOS_IntRestore(uvIntSave);
 1961              		.loc 2 635 0
 1962 0040 3869     		ldr	r0, [r7, #16]
 1963 0042 FFF7FEFF 		bl	LOS_IntRestore
 636:E:/LiteOS/LiteOS_Lab/iot_link/os/os_imp/liteos/base/ipc\los_queue.c ****         return LOS_ERRNO_QUEUE_MAIL_FREE_ERROR;
 1964              		.loc 2 636 0
 1965 0046 1E4B     		ldr	r3, .L119+8
 1966 0048 32E0     		b	.L113
 1967              	.L115:
ARM GAS  C:\Users\user\AppData\Local\Temp\ccCjVdMh.s 			page 50


 637:E:/LiteOS/LiteOS_Lab/iot_link/os/os_imp/liteos/base/ipc\los_queue.c ****     }
 638:E:/LiteOS/LiteOS_Lab/iot_link/os/os_imp/liteos/base/ipc\los_queue.c **** 
 639:E:/LiteOS/LiteOS_Lab/iot_link/os/os_imp/liteos/base/ipc\los_queue.c ****     pstQueueCB = GET_QUEUE_HANDLE(uwQueueID);
 1968              		.loc 2 639 0
 1969 004a 1E4B     		ldr	r3, .L119+12
 1970 004c 1A68     		ldr	r2, [r3]
 1971 004e FB68     		ldr	r3, [r7, #12]
 1972 0050 2C21     		movs	r1, #44
 1973 0052 01FB03F3 		mul	r3, r1, r3
 1974 0056 1344     		add	r3, r3, r2
 1975 0058 BB61     		str	r3, [r7, #24]
 640:E:/LiteOS/LiteOS_Lab/iot_link/os/os_imp/liteos/base/ipc\los_queue.c ****     if (OS_QUEUE_UNUSED == pstQueueCB->usQueueState)
 1976              		.loc 2 640 0
 1977 005a BB69     		ldr	r3, [r7, #24]
 1978 005c 9B88     		ldrh	r3, [r3, #4]
 1979 005e 002B     		cmp	r3, #0
 1980 0060 04D1     		bne	.L116
 641:E:/LiteOS/LiteOS_Lab/iot_link/os/os_imp/liteos/base/ipc\los_queue.c ****     {
 642:E:/LiteOS/LiteOS_Lab/iot_link/os/os_imp/liteos/base/ipc\los_queue.c ****         LOS_IntRestore(uvIntSave);
 1981              		.loc 2 642 0
 1982 0062 3869     		ldr	r0, [r7, #16]
 1983 0064 FFF7FEFF 		bl	LOS_IntRestore
 643:E:/LiteOS/LiteOS_Lab/iot_link/os/os_imp/liteos/base/ipc\los_queue.c ****         return LOS_ERRNO_QUEUE_NOT_CREATE;
 1984              		.loc 2 643 0
 1985 0068 174B     		ldr	r3, .L119+16
 1986 006a 21E0     		b	.L113
 1987              	.L116:
 644:E:/LiteOS/LiteOS_Lab/iot_link/os/os_imp/liteos/base/ipc\los_queue.c ****     }
 645:E:/LiteOS/LiteOS_Lab/iot_link/os/os_imp/liteos/base/ipc\los_queue.c **** 
 646:E:/LiteOS/LiteOS_Lab/iot_link/os/os_imp/liteos/base/ipc\los_queue.c ****     if (!LOS_ListEmpty(&pstQueueCB->stMemList))
 1988              		.loc 2 646 0
 1989 006c BB69     		ldr	r3, [r7, #24]
 1990 006e 2433     		adds	r3, r3, #36
 1991 0070 1846     		mov	r0, r3
 1992 0072 FFF7FEFF 		bl	LOS_ListEmpty
 1993 0076 0346     		mov	r3, r0
 1994 0078 002B     		cmp	r3, #0
 1995 007a 15D1     		bne	.L117
 647:E:/LiteOS/LiteOS_Lab/iot_link/os/os_imp/liteos/base/ipc\los_queue.c ****     {
 648:E:/LiteOS/LiteOS_Lab/iot_link/os/os_imp/liteos/base/ipc\los_queue.c ****         pstResumedTask = OS_TCB_FROM_PENDLIST(LOS_DL_LIST_FIRST(&pstQueueCB->stMemList)); /*lint !e
 1996              		.loc 2 648 0
 1997 007c BB69     		ldr	r3, [r7, #24]
 1998 007e 9B6A     		ldr	r3, [r3, #40]
 1999 0080 283B     		subs	r3, r3, #40
 2000 0082 7B61     		str	r3, [r7, #20]
 649:E:/LiteOS/LiteOS_Lab/iot_link/os/os_imp/liteos/base/ipc\los_queue.c ****         osTaskWake(pstResumedTask, OS_TASK_STATUS_PEND_QUEUE);
 2001              		.loc 2 649 0
 2002 0084 4FF40051 		mov	r1, #8192
 2003 0088 7869     		ldr	r0, [r7, #20]
 2004 008a FFF7FEFF 		bl	osTaskWake
 650:E:/LiteOS/LiteOS_Lab/iot_link/os/os_imp/liteos/base/ipc\los_queue.c ****         pMem = LOS_MemboxAlloc(pMailPool);
 2005              		.loc 2 650 0
 2006 008e B868     		ldr	r0, [r7, #8]
 2007 0090 FFF7FEFF 		bl	LOS_MemboxAlloc
 2008 0094 F861     		str	r0, [r7, #28]
 651:E:/LiteOS/LiteOS_Lab/iot_link/os/os_imp/liteos/base/ipc\los_queue.c ****         /* At the state of LOS_IntLock, the allocation can not be failed after releasing succefully
 652:E:/LiteOS/LiteOS_Lab/iot_link/os/os_imp/liteos/base/ipc\los_queue.c **** 
ARM GAS  C:\Users\user\AppData\Local\Temp\ccCjVdMh.s 			page 51


 653:E:/LiteOS/LiteOS_Lab/iot_link/os/os_imp/liteos/base/ipc\los_queue.c ****         pstResumedTask->puwMsg = pMem;
 2009              		.loc 2 653 0
 2010 0096 7B69     		ldr	r3, [r7, #20]
 2011 0098 FA69     		ldr	r2, [r7, #28]
 2012 009a 1A65     		str	r2, [r3, #80]
 654:E:/LiteOS/LiteOS_Lab/iot_link/os/os_imp/liteos/base/ipc\los_queue.c ****         LOS_IntRestore(uvIntSave);
 2013              		.loc 2 654 0
 2014 009c 3869     		ldr	r0, [r7, #16]
 2015 009e FFF7FEFF 		bl	LOS_IntRestore
 655:E:/LiteOS/LiteOS_Lab/iot_link/os/os_imp/liteos/base/ipc\los_queue.c ****         LOS_Schedule();
 2016              		.loc 2 655 0
 2017 00a2 FFF7FEFF 		bl	LOS_Schedule
 2018 00a6 02E0     		b	.L118
 2019              	.L117:
 656:E:/LiteOS/LiteOS_Lab/iot_link/os/os_imp/liteos/base/ipc\los_queue.c ****     }
 657:E:/LiteOS/LiteOS_Lab/iot_link/os/os_imp/liteos/base/ipc\los_queue.c ****     else
 658:E:/LiteOS/LiteOS_Lab/iot_link/os/os_imp/liteos/base/ipc\los_queue.c ****     {
 659:E:/LiteOS/LiteOS_Lab/iot_link/os/os_imp/liteos/base/ipc\los_queue.c ****         LOS_IntRestore(uvIntSave);
 2020              		.loc 2 659 0
 2021 00a8 3869     		ldr	r0, [r7, #16]
 2022 00aa FFF7FEFF 		bl	LOS_IntRestore
 2023              	.L118:
 660:E:/LiteOS/LiteOS_Lab/iot_link/os/os_imp/liteos/base/ipc\los_queue.c ****     }
 661:E:/LiteOS/LiteOS_Lab/iot_link/os/os_imp/liteos/base/ipc\los_queue.c ****     return LOS_OK;
 2024              		.loc 2 661 0
 2025 00ae 0023     		movs	r3, #0
 2026              	.L113:
 662:E:/LiteOS/LiteOS_Lab/iot_link/os/os_imp/liteos/base/ipc\los_queue.c **** }
 2027              		.loc 2 662 0
 2028 00b0 1846     		mov	r0, r3
 2029 00b2 2037     		adds	r7, r7, #32
 2030              	.LCFI97:
 2031              		.cfi_def_cfa_offset 8
 2032 00b4 BD46     		mov	sp, r7
 2033              	.LCFI98:
 2034              		.cfi_def_cfa_register 13
 2035              		@ sp needed
 2036 00b6 80BD     		pop	{r7, pc}
 2037              	.L120:
 2038              		.align	2
 2039              	.L119:
 2040 00b8 19060002 		.word	33555993
 2041 00bc 1A060002 		.word	33555994
 2042 00c0 1B060002 		.word	33555995
 2043 00c4 00000000 		.word	g_pstAllQueue
 2044 00c8 0A060002 		.word	33555978
 2045              		.cfi_endproc
 2046              	.LFE146:
 2048              		.section	.text.LOS_QueueDelete,"ax",%progbits
 2049              		.align	1
 2050              		.global	LOS_QueueDelete
 2051              		.syntax unified
 2052              		.thumb
 2053              		.thumb_func
 2054              		.fpu fpv4-sp-d16
 2056              	LOS_QueueDelete:
 2057              	.LFB147:
ARM GAS  C:\Users\user\AppData\Local\Temp\ccCjVdMh.s 			page 52


 663:E:/LiteOS/LiteOS_Lab/iot_link/os/os_imp/liteos/base/ipc\los_queue.c **** 
 664:E:/LiteOS/LiteOS_Lab/iot_link/os/os_imp/liteos/base/ipc\los_queue.c **** /*****************************************************************************
 665:E:/LiteOS/LiteOS_Lab/iot_link/os/os_imp/liteos/base/ipc\los_queue.c ****  Function    : LOS_QueueDelete
 666:E:/LiteOS/LiteOS_Lab/iot_link/os/os_imp/liteos/base/ipc\los_queue.c ****  Description : Delete a queue
 667:E:/LiteOS/LiteOS_Lab/iot_link/os/os_imp/liteos/base/ipc\los_queue.c ****  Input       : puwQueueID   --- QueueID
 668:E:/LiteOS/LiteOS_Lab/iot_link/os/os_imp/liteos/base/ipc\los_queue.c ****  Output      : None
 669:E:/LiteOS/LiteOS_Lab/iot_link/os/os_imp/liteos/base/ipc\los_queue.c ****  Return      : LOS_OK on success or error code on failure
 670:E:/LiteOS/LiteOS_Lab/iot_link/os/os_imp/liteos/base/ipc\los_queue.c ****  *****************************************************************************/
 671:E:/LiteOS/LiteOS_Lab/iot_link/os/os_imp/liteos/base/ipc\los_queue.c **** LITE_OS_SEC_TEXT_INIT UINT32 LOS_QueueDelete(UINT32 uwQueueID)
 672:E:/LiteOS/LiteOS_Lab/iot_link/os/os_imp/liteos/base/ipc\los_queue.c **** {
 2058              		.loc 2 672 0
 2059              		.cfi_startproc
 2060              		@ args = 0, pretend = 0, frame = 24
 2061              		@ frame_needed = 1, uses_anonymous_args = 0
 2062 0000 80B5     		push	{r7, lr}
 2063              	.LCFI99:
 2064              		.cfi_def_cfa_offset 8
 2065              		.cfi_offset 7, -8
 2066              		.cfi_offset 14, -4
 2067 0002 86B0     		sub	sp, sp, #24
 2068              	.LCFI100:
 2069              		.cfi_def_cfa_offset 32
 2070 0004 00AF     		add	r7, sp, #0
 2071              	.LCFI101:
 2072              		.cfi_def_cfa_register 7
 2073 0006 7860     		str	r0, [r7, #4]
 673:E:/LiteOS/LiteOS_Lab/iot_link/os/os_imp/liteos/base/ipc\los_queue.c ****     QUEUE_CB_S *pstQueueCB;
 674:E:/LiteOS/LiteOS_Lab/iot_link/os/os_imp/liteos/base/ipc\los_queue.c ****     UINT8 *pucQueue = NULL;
 2074              		.loc 2 674 0
 2075 0008 0023     		movs	r3, #0
 2076 000a 3B61     		str	r3, [r7, #16]
 675:E:/LiteOS/LiteOS_Lab/iot_link/os/os_imp/liteos/base/ipc\los_queue.c ****     UINTPTR  uvIntSave;
 676:E:/LiteOS/LiteOS_Lab/iot_link/os/os_imp/liteos/base/ipc\los_queue.c ****     UINT32 uwRet;
 677:E:/LiteOS/LiteOS_Lab/iot_link/os/os_imp/liteos/base/ipc\los_queue.c **** 
 678:E:/LiteOS/LiteOS_Lab/iot_link/os/os_imp/liteos/base/ipc\los_queue.c ****     if (uwQueueID >= LOSCFG_BASE_IPC_QUEUE_LIMIT)
 2077              		.loc 2 678 0
 2078 000c 7B68     		ldr	r3, [r7, #4]
 2079 000e 092B     		cmp	r3, #9
 2080 0010 01D9     		bls	.L122
 679:E:/LiteOS/LiteOS_Lab/iot_link/os/os_imp/liteos/base/ipc\los_queue.c ****     {
 680:E:/LiteOS/LiteOS_Lab/iot_link/os/os_imp/liteos/base/ipc\los_queue.c ****         return LOS_ERRNO_QUEUE_NOT_FOUND;
 2081              		.loc 2 680 0
 2082 0012 324B     		ldr	r3, .L130
 2083 0014 5EE0     		b	.L123
 2084              	.L122:
 681:E:/LiteOS/LiteOS_Lab/iot_link/os/os_imp/liteos/base/ipc\los_queue.c ****     }
 682:E:/LiteOS/LiteOS_Lab/iot_link/os/os_imp/liteos/base/ipc\los_queue.c **** 
 683:E:/LiteOS/LiteOS_Lab/iot_link/os/os_imp/liteos/base/ipc\los_queue.c ****     uvIntSave = LOS_IntLock();
 2085              		.loc 2 683 0
 2086 0016 FFF7FEFF 		bl	LOS_IntLock
 2087 001a F860     		str	r0, [r7, #12]
 684:E:/LiteOS/LiteOS_Lab/iot_link/os/os_imp/liteos/base/ipc\los_queue.c ****     pstQueueCB = (QUEUE_CB_S *)GET_QUEUE_HANDLE(uwQueueID);
 2088              		.loc 2 684 0
 2089 001c 304B     		ldr	r3, .L130+4
 2090 001e 1A68     		ldr	r2, [r3]
 2091 0020 7B68     		ldr	r3, [r7, #4]
 2092 0022 2C21     		movs	r1, #44
ARM GAS  C:\Users\user\AppData\Local\Temp\ccCjVdMh.s 			page 53


 2093 0024 01FB03F3 		mul	r3, r1, r3
 2094 0028 1344     		add	r3, r3, r2
 2095 002a BB60     		str	r3, [r7, #8]
 685:E:/LiteOS/LiteOS_Lab/iot_link/os/os_imp/liteos/base/ipc\los_queue.c ****     if (OS_QUEUE_UNUSED == pstQueueCB->usQueueState)
 2096              		.loc 2 685 0
 2097 002c BB68     		ldr	r3, [r7, #8]
 2098 002e 9B88     		ldrh	r3, [r3, #4]
 2099 0030 002B     		cmp	r3, #0
 2100 0032 02D1     		bne	.L124
 686:E:/LiteOS/LiteOS_Lab/iot_link/os/os_imp/liteos/base/ipc\los_queue.c ****     {
 687:E:/LiteOS/LiteOS_Lab/iot_link/os/os_imp/liteos/base/ipc\los_queue.c ****         uwRet = LOS_ERRNO_QUEUE_NOT_CREATE;
 2101              		.loc 2 687 0
 2102 0034 2B4B     		ldr	r3, .L130+8
 2103 0036 7B61     		str	r3, [r7, #20]
 688:E:/LiteOS/LiteOS_Lab/iot_link/os/os_imp/liteos/base/ipc\los_queue.c ****         goto QUEUE_END;
 2104              		.loc 2 688 0
 2105 0038 48E0     		b	.L125
 2106              	.L124:
 689:E:/LiteOS/LiteOS_Lab/iot_link/os/os_imp/liteos/base/ipc\los_queue.c ****     }
 690:E:/LiteOS/LiteOS_Lab/iot_link/os/os_imp/liteos/base/ipc\los_queue.c **** 
 691:E:/LiteOS/LiteOS_Lab/iot_link/os/os_imp/liteos/base/ipc\los_queue.c ****     if (!LOS_ListEmpty(&pstQueueCB->stReadWriteList[OS_QUEUE_READ]))
 2107              		.loc 2 691 0
 2108 003a BB68     		ldr	r3, [r7, #8]
 2109 003c 1433     		adds	r3, r3, #20
 2110 003e 1846     		mov	r0, r3
 2111 0040 FFF7FEFF 		bl	LOS_ListEmpty
 2112 0044 0346     		mov	r3, r0
 2113 0046 002B     		cmp	r3, #0
 2114 0048 02D1     		bne	.L126
 692:E:/LiteOS/LiteOS_Lab/iot_link/os/os_imp/liteos/base/ipc\los_queue.c ****     {
 693:E:/LiteOS/LiteOS_Lab/iot_link/os/os_imp/liteos/base/ipc\los_queue.c ****         uwRet = LOS_ERRNO_QUEUE_IN_TSKUSE;
 2115              		.loc 2 693 0
 2116 004a 274B     		ldr	r3, .L130+12
 2117 004c 7B61     		str	r3, [r7, #20]
 694:E:/LiteOS/LiteOS_Lab/iot_link/os/os_imp/liteos/base/ipc\los_queue.c ****         goto QUEUE_END;
 2118              		.loc 2 694 0
 2119 004e 3DE0     		b	.L125
 2120              	.L126:
 695:E:/LiteOS/LiteOS_Lab/iot_link/os/os_imp/liteos/base/ipc\los_queue.c ****     }
 696:E:/LiteOS/LiteOS_Lab/iot_link/os/os_imp/liteos/base/ipc\los_queue.c **** 
 697:E:/LiteOS/LiteOS_Lab/iot_link/os/os_imp/liteos/base/ipc\los_queue.c ****     if (!LOS_ListEmpty(&pstQueueCB->stReadWriteList[OS_QUEUE_WRITE]))
 2121              		.loc 2 697 0
 2122 0050 BB68     		ldr	r3, [r7, #8]
 2123 0052 1C33     		adds	r3, r3, #28
 2124 0054 1846     		mov	r0, r3
 2125 0056 FFF7FEFF 		bl	LOS_ListEmpty
 2126 005a 0346     		mov	r3, r0
 2127 005c 002B     		cmp	r3, #0
 2128 005e 02D1     		bne	.L127
 698:E:/LiteOS/LiteOS_Lab/iot_link/os/os_imp/liteos/base/ipc\los_queue.c ****     {
 699:E:/LiteOS/LiteOS_Lab/iot_link/os/os_imp/liteos/base/ipc\los_queue.c ****         uwRet = LOS_ERRNO_QUEUE_IN_TSKUSE;
 2129              		.loc 2 699 0
 2130 0060 214B     		ldr	r3, .L130+12
 2131 0062 7B61     		str	r3, [r7, #20]
 700:E:/LiteOS/LiteOS_Lab/iot_link/os/os_imp/liteos/base/ipc\los_queue.c ****         goto QUEUE_END;
 2132              		.loc 2 700 0
 2133 0064 32E0     		b	.L125
ARM GAS  C:\Users\user\AppData\Local\Temp\ccCjVdMh.s 			page 54


 2134              	.L127:
 701:E:/LiteOS/LiteOS_Lab/iot_link/os/os_imp/liteos/base/ipc\los_queue.c ****     }
 702:E:/LiteOS/LiteOS_Lab/iot_link/os/os_imp/liteos/base/ipc\los_queue.c **** 
 703:E:/LiteOS/LiteOS_Lab/iot_link/os/os_imp/liteos/base/ipc\los_queue.c ****     if (!LOS_ListEmpty(&pstQueueCB->stMemList))
 2135              		.loc 2 703 0
 2136 0066 BB68     		ldr	r3, [r7, #8]
 2137 0068 2433     		adds	r3, r3, #36
 2138 006a 1846     		mov	r0, r3
 2139 006c FFF7FEFF 		bl	LOS_ListEmpty
 2140 0070 0346     		mov	r3, r0
 2141 0072 002B     		cmp	r3, #0
 2142 0074 02D1     		bne	.L128
 704:E:/LiteOS/LiteOS_Lab/iot_link/os/os_imp/liteos/base/ipc\los_queue.c ****     {
 705:E:/LiteOS/LiteOS_Lab/iot_link/os/os_imp/liteos/base/ipc\los_queue.c ****         uwRet = LOS_ERRNO_QUEUE_IN_TSKUSE;
 2143              		.loc 2 705 0
 2144 0076 1C4B     		ldr	r3, .L130+12
 2145 0078 7B61     		str	r3, [r7, #20]
 706:E:/LiteOS/LiteOS_Lab/iot_link/os/os_imp/liteos/base/ipc\los_queue.c ****         goto QUEUE_END;
 2146              		.loc 2 706 0
 2147 007a 27E0     		b	.L125
 2148              	.L128:
 707:E:/LiteOS/LiteOS_Lab/iot_link/os/os_imp/liteos/base/ipc\los_queue.c ****     }
 708:E:/LiteOS/LiteOS_Lab/iot_link/os/os_imp/liteos/base/ipc\los_queue.c **** 
 709:E:/LiteOS/LiteOS_Lab/iot_link/os/os_imp/liteos/base/ipc\los_queue.c ****     if ((pstQueueCB->usReadWriteableCnt[OS_QUEUE_WRITE] + pstQueueCB->usReadWriteableCnt[OS_QUEUE_R
 2149              		.loc 2 709 0
 2150 007c BB68     		ldr	r3, [r7, #8]
 2151 007e 5B8A     		ldrh	r3, [r3, #18]
 2152 0080 1A46     		mov	r2, r3
 2153 0082 BB68     		ldr	r3, [r7, #8]
 2154 0084 1B8A     		ldrh	r3, [r3, #16]
 2155 0086 1344     		add	r3, r3, r2
 2156 0088 BA68     		ldr	r2, [r7, #8]
 2157 008a D288     		ldrh	r2, [r2, #6]
 2158 008c 9342     		cmp	r3, r2
 2159 008e 02D0     		beq	.L129
 710:E:/LiteOS/LiteOS_Lab/iot_link/os/os_imp/liteos/base/ipc\los_queue.c ****     {
 711:E:/LiteOS/LiteOS_Lab/iot_link/os/os_imp/liteos/base/ipc\los_queue.c ****         uwRet = LOS_ERRNO_QUEUE_IN_TSKWRITE;
 2160              		.loc 2 711 0
 2161 0090 164B     		ldr	r3, .L130+16
 2162 0092 7B61     		str	r3, [r7, #20]
 712:E:/LiteOS/LiteOS_Lab/iot_link/os/os_imp/liteos/base/ipc\los_queue.c ****         goto QUEUE_END;
 2163              		.loc 2 712 0
 2164 0094 1AE0     		b	.L125
 2165              	.L129:
 713:E:/LiteOS/LiteOS_Lab/iot_link/os/os_imp/liteos/base/ipc\los_queue.c ****     }
 714:E:/LiteOS/LiteOS_Lab/iot_link/os/os_imp/liteos/base/ipc\los_queue.c **** 
 715:E:/LiteOS/LiteOS_Lab/iot_link/os/os_imp/liteos/base/ipc\los_queue.c ****     pucQueue = pstQueueCB->pucQueue;
 2166              		.loc 2 715 0
 2167 0096 BB68     		ldr	r3, [r7, #8]
 2168 0098 1B68     		ldr	r3, [r3]
 2169 009a 3B61     		str	r3, [r7, #16]
 716:E:/LiteOS/LiteOS_Lab/iot_link/os/os_imp/liteos/base/ipc\los_queue.c ****     pstQueueCB->pucQueue = (UINT8 *)NULL;
 2170              		.loc 2 716 0
 2171 009c BB68     		ldr	r3, [r7, #8]
 2172 009e 0022     		movs	r2, #0
 2173 00a0 1A60     		str	r2, [r3]
 717:E:/LiteOS/LiteOS_Lab/iot_link/os/os_imp/liteos/base/ipc\los_queue.c ****     pstQueueCB->usQueueState = OS_QUEUE_UNUSED;
ARM GAS  C:\Users\user\AppData\Local\Temp\ccCjVdMh.s 			page 55


 2174              		.loc 2 717 0
 2175 00a2 BB68     		ldr	r3, [r7, #8]
 2176 00a4 0022     		movs	r2, #0
 2177 00a6 9A80     		strh	r2, [r3, #4]	@ movhi
 718:E:/LiteOS/LiteOS_Lab/iot_link/os/os_imp/liteos/base/ipc\los_queue.c ****     LOS_ListAdd(&g_stFreeQueueList, &pstQueueCB->stReadWriteList[OS_QUEUE_WRITE]);
 2178              		.loc 2 718 0
 2179 00a8 BB68     		ldr	r3, [r7, #8]
 2180 00aa 1C33     		adds	r3, r3, #28
 2181 00ac 1946     		mov	r1, r3
 2182 00ae 1048     		ldr	r0, .L130+20
 2183 00b0 FFF7FEFF 		bl	LOS_ListAdd
 719:E:/LiteOS/LiteOS_Lab/iot_link/os/os_imp/liteos/base/ipc\los_queue.c ****     LOS_IntRestore(uvIntSave);
 2184              		.loc 2 719 0
 2185 00b4 F868     		ldr	r0, [r7, #12]
 2186 00b6 FFF7FEFF 		bl	LOS_IntRestore
 720:E:/LiteOS/LiteOS_Lab/iot_link/os/os_imp/liteos/base/ipc\los_queue.c **** 
 721:E:/LiteOS/LiteOS_Lab/iot_link/os/os_imp/liteos/base/ipc\los_queue.c ****     uwRet = LOS_MemFree(m_aucSysMem0, (VOID *)pucQueue);
 2187              		.loc 2 721 0
 2188 00ba 0E4B     		ldr	r3, .L130+24
 2189 00bc 1B68     		ldr	r3, [r3]
 2190 00be 3969     		ldr	r1, [r7, #16]
 2191 00c0 1846     		mov	r0, r3
 2192 00c2 FFF7FEFF 		bl	LOS_MemFree
 2193 00c6 7861     		str	r0, [r7, #20]
 722:E:/LiteOS/LiteOS_Lab/iot_link/os/os_imp/liteos/base/ipc\los_queue.c ****     return uwRet;
 2194              		.loc 2 722 0
 2195 00c8 7B69     		ldr	r3, [r7, #20]
 2196 00ca 03E0     		b	.L123
 2197              	.L125:
 723:E:/LiteOS/LiteOS_Lab/iot_link/os/os_imp/liteos/base/ipc\los_queue.c **** 
 724:E:/LiteOS/LiteOS_Lab/iot_link/os/os_imp/liteos/base/ipc\los_queue.c **** QUEUE_END:
 725:E:/LiteOS/LiteOS_Lab/iot_link/os/os_imp/liteos/base/ipc\los_queue.c ****     LOS_IntRestore(uvIntSave);
 2198              		.loc 2 725 0
 2199 00cc F868     		ldr	r0, [r7, #12]
 2200 00ce FFF7FEFF 		bl	LOS_IntRestore
 726:E:/LiteOS/LiteOS_Lab/iot_link/os/os_imp/liteos/base/ipc\los_queue.c ****     return uwRet;
 2201              		.loc 2 726 0
 2202 00d2 7B69     		ldr	r3, [r7, #20]
 2203              	.L123:
 727:E:/LiteOS/LiteOS_Lab/iot_link/os/os_imp/liteos/base/ipc\los_queue.c **** }
 2204              		.loc 2 727 0
 2205 00d4 1846     		mov	r0, r3
 2206 00d6 1837     		adds	r7, r7, #24
 2207              	.LCFI102:
 2208              		.cfi_def_cfa_offset 8
 2209 00d8 BD46     		mov	sp, r7
 2210              	.LCFI103:
 2211              		.cfi_def_cfa_register 13
 2212              		@ sp needed
 2213 00da 80BD     		pop	{r7, pc}
 2214              	.L131:
 2215              		.align	2
 2216              	.L130:
 2217 00dc 05060002 		.word	33555973
 2218 00e0 00000000 		.word	g_pstAllQueue
 2219 00e4 0A060002 		.word	33555978
 2220 00e8 08060002 		.word	33555976
ARM GAS  C:\Users\user\AppData\Local\Temp\ccCjVdMh.s 			page 56


 2221 00ec 0B060002 		.word	33555979
 2222 00f0 00000000 		.word	g_stFreeQueueList
 2223 00f4 00000000 		.word	m_aucSysMem0
 2224              		.cfi_endproc
 2225              	.LFE147:
 2227              		.section	.text.LOS_QueueInfoGet,"ax",%progbits
 2228              		.align	1
 2229              		.global	LOS_QueueInfoGet
 2230              		.syntax unified
 2231              		.thumb
 2232              		.thumb_func
 2233              		.fpu fpv4-sp-d16
 2235              	LOS_QueueInfoGet:
 2236              	.LFB148:
 728:E:/LiteOS/LiteOS_Lab/iot_link/os/os_imp/liteos/base/ipc\los_queue.c **** 
 729:E:/LiteOS/LiteOS_Lab/iot_link/os/os_imp/liteos/base/ipc\los_queue.c **** /*****************************************************************************
 730:E:/LiteOS/LiteOS_Lab/iot_link/os/os_imp/liteos/base/ipc\los_queue.c ****  Function    : LOS_QueueInfoGet
 731:E:/LiteOS/LiteOS_Lab/iot_link/os/os_imp/liteos/base/ipc\los_queue.c ****  Description : Get queue infomation
 732:E:/LiteOS/LiteOS_Lab/iot_link/os/os_imp/liteos/base/ipc\los_queue.c ****  Input       : puwQueueID   --- QueueID
 733:E:/LiteOS/LiteOS_Lab/iot_link/os/os_imp/liteos/base/ipc\los_queue.c ****  Output      : pstQueueInfo
 734:E:/LiteOS/LiteOS_Lab/iot_link/os/os_imp/liteos/base/ipc\los_queue.c ****  Return      : LOS_OK on success or error code on failure
 735:E:/LiteOS/LiteOS_Lab/iot_link/os/os_imp/liteos/base/ipc\los_queue.c ****  *****************************************************************************/
 736:E:/LiteOS/LiteOS_Lab/iot_link/os/os_imp/liteos/base/ipc\los_queue.c **** LITE_OS_SEC_TEXT_MINOR UINT32 LOS_QueueInfoGet(UINT32 uwQueueID, QUEUE_INFO_S *pstQueueInfo)
 737:E:/LiteOS/LiteOS_Lab/iot_link/os/os_imp/liteos/base/ipc\los_queue.c **** {
 2237              		.loc 2 737 0
 2238              		.cfi_startproc
 2239              		@ args = 0, pretend = 0, frame = 24
 2240              		@ frame_needed = 1, uses_anonymous_args = 0
 2241 0000 80B5     		push	{r7, lr}
 2242              	.LCFI104:
 2243              		.cfi_def_cfa_offset 8
 2244              		.cfi_offset 7, -8
 2245              		.cfi_offset 14, -4
 2246 0002 86B0     		sub	sp, sp, #24
 2247              	.LCFI105:
 2248              		.cfi_def_cfa_offset 32
 2249 0004 00AF     		add	r7, sp, #0
 2250              	.LCFI106:
 2251              		.cfi_def_cfa_register 7
 2252 0006 7860     		str	r0, [r7, #4]
 2253 0008 3960     		str	r1, [r7]
 738:E:/LiteOS/LiteOS_Lab/iot_link/os/os_imp/liteos/base/ipc\los_queue.c ****     UINTPTR uvIntSave;
 739:E:/LiteOS/LiteOS_Lab/iot_link/os/os_imp/liteos/base/ipc\los_queue.c ****     UINT32 uwRet = LOS_OK;
 2254              		.loc 2 739 0
 2255 000a 0023     		movs	r3, #0
 2256 000c 7B61     		str	r3, [r7, #20]
 740:E:/LiteOS/LiteOS_Lab/iot_link/os/os_imp/liteos/base/ipc\los_queue.c ****     QUEUE_CB_S *pstQueueCB;
 741:E:/LiteOS/LiteOS_Lab/iot_link/os/os_imp/liteos/base/ipc\los_queue.c ****     LOS_TASK_CB *pstTskCB;
 742:E:/LiteOS/LiteOS_Lab/iot_link/os/os_imp/liteos/base/ipc\los_queue.c **** 
 743:E:/LiteOS/LiteOS_Lab/iot_link/os/os_imp/liteos/base/ipc\los_queue.c ****     if (NULL == pstQueueInfo)
 2257              		.loc 2 743 0
 2258 000e 3B68     		ldr	r3, [r7]
 2259 0010 002B     		cmp	r3, #0
 2260 0012 01D1     		bne	.L133
 744:E:/LiteOS/LiteOS_Lab/iot_link/os/os_imp/liteos/base/ipc\los_queue.c ****     {
 745:E:/LiteOS/LiteOS_Lab/iot_link/os/os_imp/liteos/base/ipc\los_queue.c ****         return LOS_ERRNO_QUEUE_PTR_NULL;
 2261              		.loc 2 745 0
ARM GAS  C:\Users\user\AppData\Local\Temp\ccCjVdMh.s 			page 57


 2262 0014 474B     		ldr	r3, .L144
 2263 0016 89E0     		b	.L134
 2264              	.L133:
 746:E:/LiteOS/LiteOS_Lab/iot_link/os/os_imp/liteos/base/ipc\los_queue.c ****     }
 747:E:/LiteOS/LiteOS_Lab/iot_link/os/os_imp/liteos/base/ipc\los_queue.c **** 
 748:E:/LiteOS/LiteOS_Lab/iot_link/os/os_imp/liteos/base/ipc\los_queue.c ****     if (uwQueueID >= LOSCFG_BASE_IPC_QUEUE_LIMIT)
 2265              		.loc 2 748 0
 2266 0018 7B68     		ldr	r3, [r7, #4]
 2267 001a 092B     		cmp	r3, #9
 2268 001c 01D9     		bls	.L135
 749:E:/LiteOS/LiteOS_Lab/iot_link/os/os_imp/liteos/base/ipc\los_queue.c ****     {
 750:E:/LiteOS/LiteOS_Lab/iot_link/os/os_imp/liteos/base/ipc\los_queue.c ****         return LOS_ERRNO_QUEUE_INVALID;
 2269              		.loc 2 750 0
 2270 001e 464B     		ldr	r3, .L144+4
 2271 0020 84E0     		b	.L134
 2272              	.L135:
 751:E:/LiteOS/LiteOS_Lab/iot_link/os/os_imp/liteos/base/ipc\los_queue.c ****     }
 752:E:/LiteOS/LiteOS_Lab/iot_link/os/os_imp/liteos/base/ipc\los_queue.c **** 
 753:E:/LiteOS/LiteOS_Lab/iot_link/os/os_imp/liteos/base/ipc\los_queue.c ****     (VOID)memset((VOID *)pstQueueInfo, 0, sizeof(QUEUE_INFO_S));
 2273              		.loc 2 753 0
 2274 0022 1C22     		movs	r2, #28
 2275 0024 0021     		movs	r1, #0
 2276 0026 3868     		ldr	r0, [r7]
 2277 0028 FFF7FEFF 		bl	memset
 754:E:/LiteOS/LiteOS_Lab/iot_link/os/os_imp/liteos/base/ipc\los_queue.c ****     uvIntSave = LOS_IntLock();
 2278              		.loc 2 754 0
 2279 002c FFF7FEFF 		bl	LOS_IntLock
 2280 0030 F860     		str	r0, [r7, #12]
 755:E:/LiteOS/LiteOS_Lab/iot_link/os/os_imp/liteos/base/ipc\los_queue.c **** 
 756:E:/LiteOS/LiteOS_Lab/iot_link/os/os_imp/liteos/base/ipc\los_queue.c ****     pstQueueCB = (QUEUE_CB_S *)GET_QUEUE_HANDLE(uwQueueID);
 2281              		.loc 2 756 0
 2282 0032 424B     		ldr	r3, .L144+8
 2283 0034 1A68     		ldr	r2, [r3]
 2284 0036 7B68     		ldr	r3, [r7, #4]
 2285 0038 2C21     		movs	r1, #44
 2286 003a 01FB03F3 		mul	r3, r1, r3
 2287 003e 1344     		add	r3, r3, r2
 2288 0040 BB60     		str	r3, [r7, #8]
 757:E:/LiteOS/LiteOS_Lab/iot_link/os/os_imp/liteos/base/ipc\los_queue.c **** 
 758:E:/LiteOS/LiteOS_Lab/iot_link/os/os_imp/liteos/base/ipc\los_queue.c ****     if (OS_QUEUE_UNUSED == pstQueueCB->usQueueState)
 2289              		.loc 2 758 0
 2290 0042 BB68     		ldr	r3, [r7, #8]
 2291 0044 9B88     		ldrh	r3, [r3, #4]
 2292 0046 002B     		cmp	r3, #0
 2293 0048 02D1     		bne	.L136
 759:E:/LiteOS/LiteOS_Lab/iot_link/os/os_imp/liteos/base/ipc\los_queue.c ****     {
 760:E:/LiteOS/LiteOS_Lab/iot_link/os/os_imp/liteos/base/ipc\los_queue.c ****         uwRet = LOS_ERRNO_QUEUE_NOT_CREATE;
 2294              		.loc 2 760 0
 2295 004a 3D4B     		ldr	r3, .L144+12
 2296 004c 7B61     		str	r3, [r7, #20]
 761:E:/LiteOS/LiteOS_Lab/iot_link/os/os_imp/liteos/base/ipc\los_queue.c ****         goto QUEUE_END;
 2297              		.loc 2 761 0
 2298 004e 69E0     		b	.L137
 2299              	.L136:
 762:E:/LiteOS/LiteOS_Lab/iot_link/os/os_imp/liteos/base/ipc\los_queue.c ****     }
 763:E:/LiteOS/LiteOS_Lab/iot_link/os/os_imp/liteos/base/ipc\los_queue.c **** 
 764:E:/LiteOS/LiteOS_Lab/iot_link/os/os_imp/liteos/base/ipc\los_queue.c ****     pstQueueInfo->uwQueueID = uwQueueID;
ARM GAS  C:\Users\user\AppData\Local\Temp\ccCjVdMh.s 			page 58


 2300              		.loc 2 764 0
 2301 0050 3B68     		ldr	r3, [r7]
 2302 0052 7A68     		ldr	r2, [r7, #4]
 2303 0054 1A60     		str	r2, [r3]
 765:E:/LiteOS/LiteOS_Lab/iot_link/os/os_imp/liteos/base/ipc\los_queue.c ****     pstQueueInfo->usQueueLen = pstQueueCB->usQueueLen;
 2304              		.loc 2 765 0
 2305 0056 BB68     		ldr	r3, [r7, #8]
 2306 0058 DA88     		ldrh	r2, [r3, #6]
 2307 005a 3B68     		ldr	r3, [r7]
 2308 005c 9A80     		strh	r2, [r3, #4]	@ movhi
 766:E:/LiteOS/LiteOS_Lab/iot_link/os/os_imp/liteos/base/ipc\los_queue.c ****     pstQueueInfo->usQueueSize = pstQueueCB->usQueueSize;
 2309              		.loc 2 766 0
 2310 005e BB68     		ldr	r3, [r7, #8]
 2311 0060 1A89     		ldrh	r2, [r3, #8]
 2312 0062 3B68     		ldr	r3, [r7]
 2313 0064 DA80     		strh	r2, [r3, #6]	@ movhi
 767:E:/LiteOS/LiteOS_Lab/iot_link/os/os_imp/liteos/base/ipc\los_queue.c ****     pstQueueInfo->usQueueHead = pstQueueCB->usQueueHead;
 2314              		.loc 2 767 0
 2315 0066 BB68     		ldr	r3, [r7, #8]
 2316 0068 9A89     		ldrh	r2, [r3, #12]
 2317 006a 3B68     		ldr	r3, [r7]
 2318 006c 1A81     		strh	r2, [r3, #8]	@ movhi
 768:E:/LiteOS/LiteOS_Lab/iot_link/os/os_imp/liteos/base/ipc\los_queue.c ****     pstQueueInfo->usQueueTail = pstQueueCB->usQueueTail;
 2319              		.loc 2 768 0
 2320 006e BB68     		ldr	r3, [r7, #8]
 2321 0070 DA89     		ldrh	r2, [r3, #14]
 2322 0072 3B68     		ldr	r3, [r7]
 2323 0074 5A81     		strh	r2, [r3, #10]	@ movhi
 769:E:/LiteOS/LiteOS_Lab/iot_link/os/os_imp/liteos/base/ipc\los_queue.c ****     pstQueueInfo->usReadableCnt = pstQueueCB->usReadWriteableCnt[OS_QUEUE_READ];
 2324              		.loc 2 769 0
 2325 0076 BB68     		ldr	r3, [r7, #8]
 2326 0078 1A8A     		ldrh	r2, [r3, #16]
 2327 007a 3B68     		ldr	r3, [r7]
 2328 007c DA81     		strh	r2, [r3, #14]	@ movhi
 770:E:/LiteOS/LiteOS_Lab/iot_link/os/os_imp/liteos/base/ipc\los_queue.c ****     pstQueueInfo->usWritableCnt = pstQueueCB->usReadWriteableCnt[OS_QUEUE_WRITE];
 2329              		.loc 2 770 0
 2330 007e BB68     		ldr	r3, [r7, #8]
 2331 0080 5A8A     		ldrh	r2, [r3, #18]
 2332 0082 3B68     		ldr	r3, [r7]
 2333 0084 9A81     		strh	r2, [r3, #12]	@ movhi
 771:E:/LiteOS/LiteOS_Lab/iot_link/os/os_imp/liteos/base/ipc\los_queue.c **** 
 772:E:/LiteOS/LiteOS_Lab/iot_link/os/os_imp/liteos/base/ipc\los_queue.c ****     LOS_DL_LIST_FOR_EACH_ENTRY(pstTskCB, &pstQueueCB->stReadWriteList[OS_QUEUE_READ], LOS_TASK_CB, 
 2334              		.loc 2 772 0
 2335 0086 BB68     		ldr	r3, [r7, #8]
 2336 0088 9B69     		ldr	r3, [r3, #24]
 2337 008a 283B     		subs	r3, r3, #40
 2338 008c 3B61     		str	r3, [r7, #16]
 2339 008e 0DE0     		b	.L138
 2340              	.L139:
 773:E:/LiteOS/LiteOS_Lab/iot_link/os/os_imp/liteos/base/ipc\los_queue.c ****     {
 774:E:/LiteOS/LiteOS_Lab/iot_link/os/os_imp/liteos/base/ipc\los_queue.c ****         pstQueueInfo->uwWaitReadTask |= (1 << pstTskCB->uwTaskID);
 2341              		.loc 2 774 0 discriminator 3
 2342 0090 3B68     		ldr	r3, [r7]
 2343 0092 1B69     		ldr	r3, [r3, #16]
 2344 0094 3A69     		ldr	r2, [r7, #16]
 2345 0096 1269     		ldr	r2, [r2, #16]
 2346 0098 0121     		movs	r1, #1
ARM GAS  C:\Users\user\AppData\Local\Temp\ccCjVdMh.s 			page 59


 2347 009a 01FA02F2 		lsl	r2, r1, r2
 2348 009e 1A43     		orrs	r2, r2, r3
 2349 00a0 3B68     		ldr	r3, [r7]
 2350 00a2 1A61     		str	r2, [r3, #16]
 772:E:/LiteOS/LiteOS_Lab/iot_link/os/os_imp/liteos/base/ipc\los_queue.c ****     {
 2351              		.loc 2 772 0 discriminator 3
 2352 00a4 3B69     		ldr	r3, [r7, #16]
 2353 00a6 DB6A     		ldr	r3, [r3, #44]
 2354 00a8 283B     		subs	r3, r3, #40
 2355 00aa 3B61     		str	r3, [r7, #16]
 2356              	.L138:
 772:E:/LiteOS/LiteOS_Lab/iot_link/os/os_imp/liteos/base/ipc\los_queue.c ****     {
 2357              		.loc 2 772 0 is_stmt 0 discriminator 1
 2358 00ac 3B69     		ldr	r3, [r7, #16]
 2359 00ae 03F12802 		add	r2, r3, #40
 2360 00b2 BB68     		ldr	r3, [r7, #8]
 2361 00b4 1433     		adds	r3, r3, #20
 2362 00b6 9A42     		cmp	r2, r3
 2363 00b8 EAD1     		bne	.L139
 775:E:/LiteOS/LiteOS_Lab/iot_link/os/os_imp/liteos/base/ipc\los_queue.c ****     }
 776:E:/LiteOS/LiteOS_Lab/iot_link/os/os_imp/liteos/base/ipc\los_queue.c **** 
 777:E:/LiteOS/LiteOS_Lab/iot_link/os/os_imp/liteos/base/ipc\los_queue.c ****     LOS_DL_LIST_FOR_EACH_ENTRY(pstTskCB, &pstQueueCB->stReadWriteList[OS_QUEUE_WRITE], LOS_TASK_CB,
 2364              		.loc 2 777 0 is_stmt 1
 2365 00ba BB68     		ldr	r3, [r7, #8]
 2366 00bc 1B6A     		ldr	r3, [r3, #32]
 2367 00be 283B     		subs	r3, r3, #40
 2368 00c0 3B61     		str	r3, [r7, #16]
 2369 00c2 0DE0     		b	.L140
 2370              	.L141:
 778:E:/LiteOS/LiteOS_Lab/iot_link/os/os_imp/liteos/base/ipc\los_queue.c ****     {
 779:E:/LiteOS/LiteOS_Lab/iot_link/os/os_imp/liteos/base/ipc\los_queue.c ****         pstQueueInfo->uwWaitWriteTask |= (1 << pstTskCB->uwTaskID);
 2371              		.loc 2 779 0 discriminator 3
 2372 00c4 3B68     		ldr	r3, [r7]
 2373 00c6 5B69     		ldr	r3, [r3, #20]
 2374 00c8 3A69     		ldr	r2, [r7, #16]
 2375 00ca 1269     		ldr	r2, [r2, #16]
 2376 00cc 0121     		movs	r1, #1
 2377 00ce 01FA02F2 		lsl	r2, r1, r2
 2378 00d2 1A43     		orrs	r2, r2, r3
 2379 00d4 3B68     		ldr	r3, [r7]
 2380 00d6 5A61     		str	r2, [r3, #20]
 777:E:/LiteOS/LiteOS_Lab/iot_link/os/os_imp/liteos/base/ipc\los_queue.c ****     {
 2381              		.loc 2 777 0 discriminator 3
 2382 00d8 3B69     		ldr	r3, [r7, #16]
 2383 00da DB6A     		ldr	r3, [r3, #44]
 2384 00dc 283B     		subs	r3, r3, #40
 2385 00de 3B61     		str	r3, [r7, #16]
 2386              	.L140:
 777:E:/LiteOS/LiteOS_Lab/iot_link/os/os_imp/liteos/base/ipc\los_queue.c ****     {
 2387              		.loc 2 777 0 is_stmt 0 discriminator 1
 2388 00e0 3B69     		ldr	r3, [r7, #16]
 2389 00e2 03F12802 		add	r2, r3, #40
 2390 00e6 BB68     		ldr	r3, [r7, #8]
 2391 00e8 1C33     		adds	r3, r3, #28
 2392 00ea 9A42     		cmp	r2, r3
 2393 00ec EAD1     		bne	.L141
 780:E:/LiteOS/LiteOS_Lab/iot_link/os/os_imp/liteos/base/ipc\los_queue.c ****     }
ARM GAS  C:\Users\user\AppData\Local\Temp\ccCjVdMh.s 			page 60


 781:E:/LiteOS/LiteOS_Lab/iot_link/os/os_imp/liteos/base/ipc\los_queue.c **** 
 782:E:/LiteOS/LiteOS_Lab/iot_link/os/os_imp/liteos/base/ipc\los_queue.c ****     LOS_DL_LIST_FOR_EACH_ENTRY(pstTskCB, &pstQueueCB->stMemList, LOS_TASK_CB, stPendList) /*lint !e
 2394              		.loc 2 782 0 is_stmt 1
 2395 00ee BB68     		ldr	r3, [r7, #8]
 2396 00f0 9B6A     		ldr	r3, [r3, #40]
 2397 00f2 283B     		subs	r3, r3, #40
 2398 00f4 3B61     		str	r3, [r7, #16]
 2399 00f6 0DE0     		b	.L142
 2400              	.L143:
 783:E:/LiteOS/LiteOS_Lab/iot_link/os/os_imp/liteos/base/ipc\los_queue.c ****     {
 784:E:/LiteOS/LiteOS_Lab/iot_link/os/os_imp/liteos/base/ipc\los_queue.c ****         pstQueueInfo->uwWaitMemTask |= (1 << pstTskCB->uwTaskID);
 2401              		.loc 2 784 0 discriminator 3
 2402 00f8 3B68     		ldr	r3, [r7]
 2403 00fa 9B69     		ldr	r3, [r3, #24]
 2404 00fc 3A69     		ldr	r2, [r7, #16]
 2405 00fe 1269     		ldr	r2, [r2, #16]
 2406 0100 0121     		movs	r1, #1
 2407 0102 01FA02F2 		lsl	r2, r1, r2
 2408 0106 1A43     		orrs	r2, r2, r3
 2409 0108 3B68     		ldr	r3, [r7]
 2410 010a 9A61     		str	r2, [r3, #24]
 782:E:/LiteOS/LiteOS_Lab/iot_link/os/os_imp/liteos/base/ipc\los_queue.c ****     {
 2411              		.loc 2 782 0 discriminator 3
 2412 010c 3B69     		ldr	r3, [r7, #16]
 2413 010e DB6A     		ldr	r3, [r3, #44]
 2414 0110 283B     		subs	r3, r3, #40
 2415 0112 3B61     		str	r3, [r7, #16]
 2416              	.L142:
 782:E:/LiteOS/LiteOS_Lab/iot_link/os/os_imp/liteos/base/ipc\los_queue.c ****     {
 2417              		.loc 2 782 0 is_stmt 0 discriminator 1
 2418 0114 3B69     		ldr	r3, [r7, #16]
 2419 0116 03F12802 		add	r2, r3, #40
 2420 011a BB68     		ldr	r3, [r7, #8]
 2421 011c 2433     		adds	r3, r3, #36
 2422 011e 9A42     		cmp	r2, r3
 2423 0120 EAD1     		bne	.L143
 785:E:/LiteOS/LiteOS_Lab/iot_link/os/os_imp/liteos/base/ipc\los_queue.c ****     }
 786:E:/LiteOS/LiteOS_Lab/iot_link/os/os_imp/liteos/base/ipc\los_queue.c **** 
 787:E:/LiteOS/LiteOS_Lab/iot_link/os/os_imp/liteos/base/ipc\los_queue.c **** QUEUE_END:
 2424              		.loc 2 787 0 is_stmt 1
 2425 0122 00BF     		nop
 2426              	.L137:
 788:E:/LiteOS/LiteOS_Lab/iot_link/os/os_imp/liteos/base/ipc\los_queue.c ****     LOS_IntRestore(uvIntSave);
 2427              		.loc 2 788 0
 2428 0124 F868     		ldr	r0, [r7, #12]
 2429 0126 FFF7FEFF 		bl	LOS_IntRestore
 789:E:/LiteOS/LiteOS_Lab/iot_link/os/os_imp/liteos/base/ipc\los_queue.c ****     return uwRet;
 2430              		.loc 2 789 0
 2431 012a 7B69     		ldr	r3, [r7, #20]
 2432              	.L134:
 790:E:/LiteOS/LiteOS_Lab/iot_link/os/os_imp/liteos/base/ipc\los_queue.c **** }
 2433              		.loc 2 790 0
 2434 012c 1846     		mov	r0, r3
 2435 012e 1837     		adds	r7, r7, #24
 2436              	.LCFI107:
 2437              		.cfi_def_cfa_offset 8
 2438 0130 BD46     		mov	sp, r7
ARM GAS  C:\Users\user\AppData\Local\Temp\ccCjVdMh.s 			page 61


 2439              	.LCFI108:
 2440              		.cfi_def_cfa_register 13
 2441              		@ sp needed
 2442 0132 80BD     		pop	{r7, pc}
 2443              	.L145:
 2444              		.align	2
 2445              	.L144:
 2446 0134 17060002 		.word	33555991
 2447 0138 0E060002 		.word	33555982
 2448 013c 00000000 		.word	g_pstAllQueue
 2449 0140 0A060002 		.word	33555978
 2450              		.cfi_endproc
 2451              	.LFE148:
 2453              		.text
 2454              	.Letext0:
 2455              		.file 3 "e:\\ac6\\systemworkbench\\plugins\\fr.ac6.mcu.externaltools.arm-none.win32_1.16.0.2018071
 2456              		.file 4 "e:\\ac6\\systemworkbench\\plugins\\fr.ac6.mcu.externaltools.arm-none.win32_1.16.0.2018071
 2457              		.file 5 "e:\\ac6\\systemworkbench\\plugins\\fr.ac6.mcu.externaltools.arm-none.win32_1.16.0.2018071
 2458              		.file 6 "e:\\ac6\\systemworkbench\\plugins\\fr.ac6.mcu.externaltools.arm-none.win32_1.16.0.2018071
 2459              		.file 7 "e:\\ac6\\systemworkbench\\plugins\\fr.ac6.mcu.externaltools.arm-none.win32_1.16.0.2018071
 2460              		.file 8 "E:/LiteOS/LiteOS_Lab/iot_link/os/os_imp/liteos/include/los_typedef.h"
 2461              		.file 9 "e:\\ac6\\systemworkbench\\plugins\\fr.ac6.mcu.externaltools.arm-none.win32_1.16.0.2018071
 2462              		.file 10 "E:/LiteOS/LiteOS_Lab/iot_link/os/os_imp/liteos/arch/arm/common/cmsis/core_cm4.h"
 2463              		.file 11 "E:/LiteOS/LiteOS_Lab/targets/STM32L431_BearPi/Inc/system_stm32l4xx.h"
 2464              		.file 12 "E:/LiteOS/LiteOS_Lab/iot_link/os/os_imp/liteos/arch/arm/arm-m/include/los_hwi.h"
 2465              		.file 13 "E:/LiteOS/LiteOS_Lab/iot_link/os/os_imp/liteos/include/los_err.h"
 2466              		.file 14 "E:/LiteOS/LiteOS_Lab/iot_link/os/os_imp/liteos/include/los_tick.h"
 2467              		.file 15 "E:/LiteOS/LiteOS_Lab/iot_link/os/os_imp/liteos/include/los_event.h"
 2468              		.file 16 "E:/LiteOS/LiteOS_Lab/iot_link/os/os_imp/liteos/include/los_task.h"
 2469              		.file 17 "E:/LiteOS/LiteOS_Lab/iot_link/os/os_imp/liteos/base/include/los_task.ph"
 2470              		.file 18 "E:/LiteOS/LiteOS_Lab/targets/STM32L431_BearPi/Inc/main.h"
 2471              		.file 19 "E:/LiteOS/LiteOS_Lab/iot_link/os/os_imp/liteos/include/los_config.h"
 2472              		.file 20 "E:/LiteOS/LiteOS_Lab/iot_link/os/os_imp/liteos/include/los_queue.h"
 2473              		.file 21 "E:/LiteOS/LiteOS_Lab/iot_link/os/os_imp/liteos/base/include/los_queue.ph"
 2474              		.file 22 "E:/LiteOS/LiteOS_Lab/iot_link/os/os_imp/liteos/include/los_memory.h"
ARM GAS  C:\Users\user\AppData\Local\Temp\ccCjVdMh.s 			page 62

