ARM GAS  C:\Users\user\AppData\Local\Temp\ccih2pX4.s 			page 1


   1              		.cpu cortex-m4
   2              		.eabi_attribute 27, 1
   3              		.eabi_attribute 28, 1
   4              		.eabi_attribute 20, 1
   5              		.eabi_attribute 21, 1
   6              		.eabi_attribute 23, 3
   7              		.eabi_attribute 24, 1
   8              		.eabi_attribute 25, 1
   9              		.eabi_attribute 26, 1
  10              		.eabi_attribute 30, 6
  11              		.eabi_attribute 34, 1
  12              		.eabi_attribute 18, 4
  13              		.file	"los_slab.c"
  14              		.text
  15              	.Ltext0:
  16              		.cfi_sections	.debug_frame
  17              		.section	.text.osAtomicBitsetInit,"ax",%progbits
  18              		.align	1
  19              		.global	osAtomicBitsetInit
  20              		.syntax unified
  21              		.thumb
  22              		.thumb_func
  23              		.fpu fpv4-sp-d16
  25              	osAtomicBitsetInit:
  26              	.LFB133:
  27              		.file 1 "E:/LiteOS/LiteOS_Lab/iot_link/os/os_imp/liteos/base/mem/common/los_slab.c"
   1:E:/LiteOS/LiteOS_Lab/iot_link/os/os_imp/liteos/base/mem/common\los_slab.c **** /*----------------------------------------------------------------------------
   2:E:/LiteOS/LiteOS_Lab/iot_link/os/os_imp/liteos/base/mem/common\los_slab.c ****  * Copyright (c) <2013-2017>, <Huawei Technologies Co., Ltd>
   3:E:/LiteOS/LiteOS_Lab/iot_link/os/os_imp/liteos/base/mem/common\los_slab.c ****  * All rights reserved.
   4:E:/LiteOS/LiteOS_Lab/iot_link/os/os_imp/liteos/base/mem/common\los_slab.c ****  * Redistribution and use in source and binary forms, with or without modification,
   5:E:/LiteOS/LiteOS_Lab/iot_link/os/os_imp/liteos/base/mem/common\los_slab.c ****  * are permitted provided that the following conditions are met:
   6:E:/LiteOS/LiteOS_Lab/iot_link/os/os_imp/liteos/base/mem/common\los_slab.c ****  * 1. Redistributions of source code must retain the above copyright notice, this list of
   7:E:/LiteOS/LiteOS_Lab/iot_link/os/os_imp/liteos/base/mem/common\los_slab.c ****  * conditions and the following disclaimer.
   8:E:/LiteOS/LiteOS_Lab/iot_link/os/os_imp/liteos/base/mem/common\los_slab.c ****  * 2. Redistributions in binary form must reproduce the above copyright notice, this list
   9:E:/LiteOS/LiteOS_Lab/iot_link/os/os_imp/liteos/base/mem/common\los_slab.c ****  * of conditions and the following disclaimer in the documentation and/or other materials
  10:E:/LiteOS/LiteOS_Lab/iot_link/os/os_imp/liteos/base/mem/common\los_slab.c ****  * provided with the distribution.
  11:E:/LiteOS/LiteOS_Lab/iot_link/os/os_imp/liteos/base/mem/common\los_slab.c ****  * 3. Neither the name of the copyright holder nor the names of its contributors may be used
  12:E:/LiteOS/LiteOS_Lab/iot_link/os/os_imp/liteos/base/mem/common\los_slab.c ****  * to endorse or promote products derived from this software without specific prior written
  13:E:/LiteOS/LiteOS_Lab/iot_link/os/os_imp/liteos/base/mem/common\los_slab.c ****  * permission.
  14:E:/LiteOS/LiteOS_Lab/iot_link/os/os_imp/liteos/base/mem/common\los_slab.c ****  * THIS SOFTWARE IS PROVIDED BY THE COPYRIGHT HOLDERS AND CONTRIBUTORS
  15:E:/LiteOS/LiteOS_Lab/iot_link/os/os_imp/liteos/base/mem/common\los_slab.c ****  * "AS IS" AND ANY EXPRESS OR IMPLIED WARRANTIES, INCLUDING, BUT NOT LIMITED TO,
  16:E:/LiteOS/LiteOS_Lab/iot_link/os/os_imp/liteos/base/mem/common\los_slab.c ****  * THE IMPLIED WARRANTIES OF MERCHANTABILITY AND FITNESS FOR A PARTICULAR
  17:E:/LiteOS/LiteOS_Lab/iot_link/os/os_imp/liteos/base/mem/common\los_slab.c ****  * PURPOSE ARE DISCLAIMED. IN NO EVENT SHALL THE COPYRIGHT HOLDER OR
  18:E:/LiteOS/LiteOS_Lab/iot_link/os/os_imp/liteos/base/mem/common\los_slab.c ****  * CONTRIBUTORS BE LIABLE FOR ANY DIRECT, INDIRECT, INCIDENTAL, SPECIAL,
  19:E:/LiteOS/LiteOS_Lab/iot_link/os/os_imp/liteos/base/mem/common\los_slab.c ****  * EXEMPLARY, OR CONSEQUENTIAL DAMAGES (INCLUDING, BUT NOT LIMITED TO,
  20:E:/LiteOS/LiteOS_Lab/iot_link/os/os_imp/liteos/base/mem/common\los_slab.c ****  * PROCUREMENT OF SUBSTITUTE GOODS OR SERVICES; LOSS OF USE, DATA, OR PROFITS;
  21:E:/LiteOS/LiteOS_Lab/iot_link/os/os_imp/liteos/base/mem/common\los_slab.c ****  * OR BUSINESS INTERRUPTION) HOWEVER CAUSED AND ON ANY THEORY OF LIABILITY,
  22:E:/LiteOS/LiteOS_Lab/iot_link/os/os_imp/liteos/base/mem/common\los_slab.c ****  * WHETHER IN CONTRACT, STRICT LIABILITY, OR TORT (INCLUDING NEGLIGENCE OR
  23:E:/LiteOS/LiteOS_Lab/iot_link/os/os_imp/liteos/base/mem/common\los_slab.c ****  * OTHERWISE) ARISING IN ANY WAY OUT OF THE USE OF THIS SOFTWARE, EVEN IF
  24:E:/LiteOS/LiteOS_Lab/iot_link/os/os_imp/liteos/base/mem/common\los_slab.c ****  * ADVISED OF THE POSSIBILITY OF SUCH DAMAGE.
  25:E:/LiteOS/LiteOS_Lab/iot_link/os/os_imp/liteos/base/mem/common\los_slab.c ****  *---------------------------------------------------------------------------*/
  26:E:/LiteOS/LiteOS_Lab/iot_link/os/os_imp/liteos/base/mem/common\los_slab.c **** /*----------------------------------------------------------------------------
  27:E:/LiteOS/LiteOS_Lab/iot_link/os/os_imp/liteos/base/mem/common\los_slab.c ****  * Notice of Export Control Law
  28:E:/LiteOS/LiteOS_Lab/iot_link/os/os_imp/liteos/base/mem/common\los_slab.c ****  * ===============================================
  29:E:/LiteOS/LiteOS_Lab/iot_link/os/os_imp/liteos/base/mem/common\los_slab.c ****  * Huawei LiteOS may be subject to applicable export control laws and regulations, which might
  30:E:/LiteOS/LiteOS_Lab/iot_link/os/os_imp/liteos/base/mem/common\los_slab.c ****  * include those applicable to Huawei LiteOS of U.S. and the country in which you are located.
  31:E:/LiteOS/LiteOS_Lab/iot_link/os/os_imp/liteos/base/mem/common\los_slab.c ****  * Import, export and usage of Huawei LiteOS in any manner by you shall be in compliance with such
ARM GAS  C:\Users\user\AppData\Local\Temp\ccih2pX4.s 			page 2


  32:E:/LiteOS/LiteOS_Lab/iot_link/os/os_imp/liteos/base/mem/common\los_slab.c ****  * applicable export control laws and regulations.
  33:E:/LiteOS/LiteOS_Lab/iot_link/os/os_imp/liteos/base/mem/common\los_slab.c ****  *---------------------------------------------------------------------------*/
  34:E:/LiteOS/LiteOS_Lab/iot_link/os/os_imp/liteos/base/mem/common\los_slab.c **** #include <string.h>
  35:E:/LiteOS/LiteOS_Lab/iot_link/os/os_imp/liteos/base/mem/common\los_slab.c **** #include <stdint.h>
  36:E:/LiteOS/LiteOS_Lab/iot_link/os/os_imp/liteos/base/mem/common\los_slab.c **** #include <los_slab.ph>
  37:E:/LiteOS/LiteOS_Lab/iot_link/os/os_imp/liteos/base/mem/common\los_slab.c **** 
  38:E:/LiteOS/LiteOS_Lab/iot_link/os/os_imp/liteos/base/mem/common\los_slab.c **** extern VOID* osHeapAlloc(VOID *pPool, UINT32 uwSz);
  39:E:/LiteOS/LiteOS_Lab/iot_link/os/os_imp/liteos/base/mem/common\los_slab.c **** extern BOOL osHeapFree(VOID *pPool, VOID* pPtr);
  40:E:/LiteOS/LiteOS_Lab/iot_link/os/os_imp/liteos/base/mem/common\los_slab.c **** 
  41:E:/LiteOS/LiteOS_Lab/iot_link/os/os_imp/liteos/base/mem/common\los_slab.c **** VOID osAtomicBitsetInit(struct AtomicBitset *pstSet, UINT32 uwNumBits)
  42:E:/LiteOS/LiteOS_Lab/iot_link/os/os_imp/liteos/base/mem/common\los_slab.c **** {
  28              		.loc 1 42 0
  29              		.cfi_startproc
  30              		@ args = 0, pretend = 0, frame = 8
  31              		@ frame_needed = 1, uses_anonymous_args = 0
  32 0000 80B5     		push	{r7, lr}
  33              	.LCFI0:
  34              		.cfi_def_cfa_offset 8
  35              		.cfi_offset 7, -8
  36              		.cfi_offset 14, -4
  37 0002 82B0     		sub	sp, sp, #8
  38              	.LCFI1:
  39              		.cfi_def_cfa_offset 16
  40 0004 00AF     		add	r7, sp, #0
  41              	.LCFI2:
  42              		.cfi_def_cfa_register 7
  43 0006 7860     		str	r0, [r7, #4]
  44 0008 3960     		str	r1, [r7]
  43:E:/LiteOS/LiteOS_Lab/iot_link/os/os_imp/liteos/base/mem/common\los_slab.c ****     pstSet->numBits = uwNumBits;
  45              		.loc 1 43 0
  46 000a 7B68     		ldr	r3, [r7, #4]
  47 000c 3A68     		ldr	r2, [r7]
  48 000e 1A60     		str	r2, [r3]
  44:E:/LiteOS/LiteOS_Lab/iot_link/os/os_imp/liteos/base/mem/common\los_slab.c ****     memset(pstSet->words, 0, (uwNumBits + 31) / 8);
  49              		.loc 1 44 0
  50 0010 7B68     		ldr	r3, [r7, #4]
  51 0012 181D     		adds	r0, r3, #4
  52 0014 3B68     		ldr	r3, [r7]
  53 0016 1F33     		adds	r3, r3, #31
  54 0018 DB08     		lsrs	r3, r3, #3
  55 001a 1A46     		mov	r2, r3
  56 001c 0021     		movs	r1, #0
  57 001e FFF7FEFF 		bl	memset
  45:E:/LiteOS/LiteOS_Lab/iot_link/os/os_imp/liteos/base/mem/common\los_slab.c ****     if (uwNumBits & 31) //mark all high bits so that osAtomicBitsetFindClearAndSet() is simpler
  58              		.loc 1 45 0
  59 0022 3B68     		ldr	r3, [r7]
  60 0024 03F01F03 		and	r3, r3, #31
  61 0028 002B     		cmp	r3, #0
  62 002a 0CD0     		beq	.L3
  46:E:/LiteOS/LiteOS_Lab/iot_link/os/os_imp/liteos/base/mem/common\los_slab.c ****     {
  47:E:/LiteOS/LiteOS_Lab/iot_link/os/os_imp/liteos/base/mem/common\los_slab.c ****         pstSet->words[uwNumBits / 32] = ((UINT32)((INT32)-1LL)) << (uwNumBits & 31);
  63              		.loc 1 47 0
  64 002c 3B68     		ldr	r3, [r7]
  65 002e 03F01F02 		and	r2, r3, #31
  66 0032 3B68     		ldr	r3, [r7]
  67 0034 5B09     		lsrs	r3, r3, #5
  68 0036 4FF0FF31 		mov	r1, #-1
ARM GAS  C:\Users\user\AppData\Local\Temp\ccih2pX4.s 			page 3


  69 003a 01FA02F2 		lsl	r2, r1, r2
  70 003e 7968     		ldr	r1, [r7, #4]
  71 0040 9B00     		lsls	r3, r3, #2
  72 0042 0B44     		add	r3, r3, r1
  73 0044 5A60     		str	r2, [r3, #4]
  74              	.L3:
  48:E:/LiteOS/LiteOS_Lab/iot_link/os/os_imp/liteos/base/mem/common\los_slab.c ****     }
  49:E:/LiteOS/LiteOS_Lab/iot_link/os/os_imp/liteos/base/mem/common\los_slab.c **** }
  75              		.loc 1 49 0
  76 0046 00BF     		nop
  77 0048 0837     		adds	r7, r7, #8
  78              	.LCFI3:
  79              		.cfi_def_cfa_offset 8
  80 004a BD46     		mov	sp, r7
  81              	.LCFI4:
  82              		.cfi_def_cfa_register 13
  83              		@ sp needed
  84 004c 80BD     		pop	{r7, pc}
  85              		.cfi_endproc
  86              	.LFE133:
  88              		.section	.text.osAtomicBitsetGetNumBits,"ax",%progbits
  89              		.align	1
  90              		.global	osAtomicBitsetGetNumBits
  91              		.syntax unified
  92              		.thumb
  93              		.thumb_func
  94              		.fpu fpv4-sp-d16
  96              	osAtomicBitsetGetNumBits:
  97              	.LFB134:
  50:E:/LiteOS/LiteOS_Lab/iot_link/os/os_imp/liteos/base/mem/common\los_slab.c **** 
  51:E:/LiteOS/LiteOS_Lab/iot_link/os/os_imp/liteos/base/mem/common\los_slab.c **** inline UINT32 osAtomicBitsetGetNumBits(const struct AtomicBitset *pstSet)
  52:E:/LiteOS/LiteOS_Lab/iot_link/os/os_imp/liteos/base/mem/common\los_slab.c **** {
  98              		.loc 1 52 0
  99              		.cfi_startproc
 100              		@ args = 0, pretend = 0, frame = 8
 101              		@ frame_needed = 1, uses_anonymous_args = 0
 102              		@ link register save eliminated.
 103 0000 80B4     		push	{r7}
 104              	.LCFI5:
 105              		.cfi_def_cfa_offset 4
 106              		.cfi_offset 7, -4
 107 0002 83B0     		sub	sp, sp, #12
 108              	.LCFI6:
 109              		.cfi_def_cfa_offset 16
 110 0004 00AF     		add	r7, sp, #0
 111              	.LCFI7:
 112              		.cfi_def_cfa_register 7
 113 0006 7860     		str	r0, [r7, #4]
  53:E:/LiteOS/LiteOS_Lab/iot_link/os/os_imp/liteos/base/mem/common\los_slab.c ****     return pstSet->numBits;
 114              		.loc 1 53 0
 115 0008 7B68     		ldr	r3, [r7, #4]
 116 000a 1B68     		ldr	r3, [r3]
  54:E:/LiteOS/LiteOS_Lab/iot_link/os/os_imp/liteos/base/mem/common\los_slab.c **** }
 117              		.loc 1 54 0
 118 000c 1846     		mov	r0, r3
 119 000e 0C37     		adds	r7, r7, #12
 120              	.LCFI8:
ARM GAS  C:\Users\user\AppData\Local\Temp\ccih2pX4.s 			page 4


 121              		.cfi_def_cfa_offset 4
 122 0010 BD46     		mov	sp, r7
 123              	.LCFI9:
 124              		.cfi_def_cfa_register 13
 125              		@ sp needed
 126 0012 5DF8047B 		ldr	r7, [sp], #4
 127              	.LCFI10:
 128              		.cfi_restore 7
 129              		.cfi_def_cfa_offset 0
 130 0016 7047     		bx	lr
 131              		.cfi_endproc
 132              	.LFE134:
 134              		.section	.text.osAtomicBitsetGetBit,"ax",%progbits
 135              		.align	1
 136              		.global	osAtomicBitsetGetBit
 137              		.syntax unified
 138              		.thumb
 139              		.thumb_func
 140              		.fpu fpv4-sp-d16
 142              	osAtomicBitsetGetBit:
 143              	.LFB135:
  55:E:/LiteOS/LiteOS_Lab/iot_link/os/os_imp/liteos/base/mem/common\los_slab.c **** 
  56:E:/LiteOS/LiteOS_Lab/iot_link/os/os_imp/liteos/base/mem/common\los_slab.c **** BOOL osAtomicBitsetGetBit(const struct AtomicBitset *pstSet, UINT32 uwNum)
  57:E:/LiteOS/LiteOS_Lab/iot_link/os/os_imp/liteos/base/mem/common\los_slab.c **** {
 144              		.loc 1 57 0
 145              		.cfi_startproc
 146              		@ args = 0, pretend = 0, frame = 8
 147              		@ frame_needed = 1, uses_anonymous_args = 0
 148              		@ link register save eliminated.
 149 0000 80B4     		push	{r7}
 150              	.LCFI11:
 151              		.cfi_def_cfa_offset 4
 152              		.cfi_offset 7, -4
 153 0002 83B0     		sub	sp, sp, #12
 154              	.LCFI12:
 155              		.cfi_def_cfa_offset 16
 156 0004 00AF     		add	r7, sp, #0
 157              	.LCFI13:
 158              		.cfi_def_cfa_register 7
 159 0006 7860     		str	r0, [r7, #4]
 160 0008 3960     		str	r1, [r7]
  58:E:/LiteOS/LiteOS_Lab/iot_link/os/os_imp/liteos/base/mem/common\los_slab.c ****     if (uwNum >= pstSet->numBits) /* any value is as good as the next */
 161              		.loc 1 58 0
 162 000a 7B68     		ldr	r3, [r7, #4]
 163 000c 1B68     		ldr	r3, [r3]
 164 000e 3A68     		ldr	r2, [r7]
 165 0010 9A42     		cmp	r2, r3
 166 0012 01D3     		bcc	.L7
  59:E:/LiteOS/LiteOS_Lab/iot_link/os/os_imp/liteos/base/mem/common\los_slab.c ****     {
  60:E:/LiteOS/LiteOS_Lab/iot_link/os/os_imp/liteos/base/mem/common\los_slab.c ****         return FALSE;
 167              		.loc 1 60 0
 168 0014 0023     		movs	r3, #0
 169 0016 11E0     		b	.L8
 170              	.L7:
  61:E:/LiteOS/LiteOS_Lab/iot_link/os/os_imp/liteos/base/mem/common\los_slab.c ****     }
  62:E:/LiteOS/LiteOS_Lab/iot_link/os/os_imp/liteos/base/mem/common\los_slab.c ****     return !!((pstSet->words[uwNum / 32]) & (1UL << (uwNum & 31)));
 171              		.loc 1 62 0
ARM GAS  C:\Users\user\AppData\Local\Temp\ccih2pX4.s 			page 5


 172 0018 3B68     		ldr	r3, [r7]
 173 001a 5B09     		lsrs	r3, r3, #5
 174 001c 7A68     		ldr	r2, [r7, #4]
 175 001e 9B00     		lsls	r3, r3, #2
 176 0020 1344     		add	r3, r3, r2
 177 0022 5A68     		ldr	r2, [r3, #4]
 178 0024 3B68     		ldr	r3, [r7]
 179 0026 03F01F03 		and	r3, r3, #31
 180 002a 22FA03F3 		lsr	r3, r2, r3
 181 002e 03F00103 		and	r3, r3, #1
 182 0032 002B     		cmp	r3, #0
 183 0034 14BF     		ite	ne
 184 0036 0123     		movne	r3, #1
 185 0038 0023     		moveq	r3, #0
 186 003a DBB2     		uxtb	r3, r3
 187              	.L8:
  63:E:/LiteOS/LiteOS_Lab/iot_link/os/os_imp/liteos/base/mem/common\los_slab.c **** }
 188              		.loc 1 63 0
 189 003c 1846     		mov	r0, r3
 190 003e 0C37     		adds	r7, r7, #12
 191              	.LCFI14:
 192              		.cfi_def_cfa_offset 4
 193 0040 BD46     		mov	sp, r7
 194              	.LCFI15:
 195              		.cfi_def_cfa_register 13
 196              		@ sp needed
 197 0042 5DF8047B 		ldr	r7, [sp], #4
 198              	.LCFI16:
 199              		.cfi_restore 7
 200              		.cfi_def_cfa_offset 0
 201 0046 7047     		bx	lr
 202              		.cfi_endproc
 203              	.LFE135:
 205              		.section	.text.osAtomicBitsetClearBit,"ax",%progbits
 206              		.align	1
 207              		.global	osAtomicBitsetClearBit
 208              		.syntax unified
 209              		.thumb
 210              		.thumb_func
 211              		.fpu fpv4-sp-d16
 213              	osAtomicBitsetClearBit:
 214              	.LFB136:
  64:E:/LiteOS/LiteOS_Lab/iot_link/os/os_imp/liteos/base/mem/common\los_slab.c **** 
  65:E:/LiteOS/LiteOS_Lab/iot_link/os/os_imp/liteos/base/mem/common\los_slab.c **** VOID osAtomicBitsetClearBit(struct AtomicBitset *pstSet, UINT32 uwNum)
  66:E:/LiteOS/LiteOS_Lab/iot_link/os/os_imp/liteos/base/mem/common\los_slab.c **** {
 215              		.loc 1 66 0
 216              		.cfi_startproc
 217              		@ args = 0, pretend = 0, frame = 16
 218              		@ frame_needed = 1, uses_anonymous_args = 0
 219              		@ link register save eliminated.
 220 0000 80B4     		push	{r7}
 221              	.LCFI17:
 222              		.cfi_def_cfa_offset 4
 223              		.cfi_offset 7, -4
 224 0002 85B0     		sub	sp, sp, #20
 225              	.LCFI18:
 226              		.cfi_def_cfa_offset 24
ARM GAS  C:\Users\user\AppData\Local\Temp\ccih2pX4.s 			page 6


 227 0004 00AF     		add	r7, sp, #0
 228              	.LCFI19:
 229              		.cfi_def_cfa_register 7
 230 0006 7860     		str	r0, [r7, #4]
 231 0008 3960     		str	r1, [r7]
  67:E:/LiteOS/LiteOS_Lab/iot_link/os/os_imp/liteos/base/mem/common\los_slab.c ****     UINT32 *puwWordPtr = pstSet->words + uwNum / 32;
 232              		.loc 1 67 0
 233 000a 7B68     		ldr	r3, [r7, #4]
 234 000c 1A1D     		adds	r2, r3, #4
 235 000e 3B68     		ldr	r3, [r7]
 236 0010 5B09     		lsrs	r3, r3, #5
 237 0012 9B00     		lsls	r3, r3, #2
 238 0014 1344     		add	r3, r3, r2
 239 0016 FB60     		str	r3, [r7, #12]
  68:E:/LiteOS/LiteOS_Lab/iot_link/os/os_imp/liteos/base/mem/common\los_slab.c **** 
  69:E:/LiteOS/LiteOS_Lab/iot_link/os/os_imp/liteos/base/mem/common\los_slab.c ****     if (uwNum >= pstSet->numBits)
 240              		.loc 1 69 0
 241 0018 7B68     		ldr	r3, [r7, #4]
 242 001a 1B68     		ldr	r3, [r3]
 243 001c 3A68     		ldr	r2, [r7]
 244 001e 9A42     		cmp	r2, r3
 245 0020 0CD2     		bcs	.L12
  70:E:/LiteOS/LiteOS_Lab/iot_link/os/os_imp/liteos/base/mem/common\los_slab.c ****     {
  71:E:/LiteOS/LiteOS_Lab/iot_link/os/os_imp/liteos/base/mem/common\los_slab.c ****         return;
  72:E:/LiteOS/LiteOS_Lab/iot_link/os/os_imp/liteos/base/mem/common\los_slab.c ****     }
  73:E:/LiteOS/LiteOS_Lab/iot_link/os/os_imp/liteos/base/mem/common\los_slab.c ****     (*puwWordPtr) &= ~(1UL << (uwNum & 31));
 246              		.loc 1 73 0
 247 0022 FB68     		ldr	r3, [r7, #12]
 248 0024 1A68     		ldr	r2, [r3]
 249 0026 3B68     		ldr	r3, [r7]
 250 0028 03F01F03 		and	r3, r3, #31
 251 002c 0121     		movs	r1, #1
 252 002e 01FA03F3 		lsl	r3, r1, r3
 253 0032 DB43     		mvns	r3, r3
 254 0034 1A40     		ands	r2, r2, r3
 255 0036 FB68     		ldr	r3, [r7, #12]
 256 0038 1A60     		str	r2, [r3]
 257 003a 00E0     		b	.L9
 258              	.L12:
  71:E:/LiteOS/LiteOS_Lab/iot_link/os/os_imp/liteos/base/mem/common\los_slab.c ****     }
 259              		.loc 1 71 0
 260 003c 00BF     		nop
 261              	.L9:
  74:E:/LiteOS/LiteOS_Lab/iot_link/os/os_imp/liteos/base/mem/common\los_slab.c **** }
 262              		.loc 1 74 0
 263 003e 1437     		adds	r7, r7, #20
 264              	.LCFI20:
 265              		.cfi_def_cfa_offset 4
 266 0040 BD46     		mov	sp, r7
 267              	.LCFI21:
 268              		.cfi_def_cfa_register 13
 269              		@ sp needed
 270 0042 5DF8047B 		ldr	r7, [sp], #4
 271              	.LCFI22:
 272              		.cfi_restore 7
 273              		.cfi_def_cfa_offset 0
 274 0046 7047     		bx	lr
ARM GAS  C:\Users\user\AppData\Local\Temp\ccih2pX4.s 			page 7


 275              		.cfi_endproc
 276              	.LFE136:
 278              		.section	.text.osAtomicBitsetFindClearAndSet,"ax",%progbits
 279              		.align	1
 280              		.global	osAtomicBitsetFindClearAndSet
 281              		.syntax unified
 282              		.thumb
 283              		.thumb_func
 284              		.fpu fpv4-sp-d16
 286              	osAtomicBitsetFindClearAndSet:
 287              	.LFB137:
  75:E:/LiteOS/LiteOS_Lab/iot_link/os/os_imp/liteos/base/mem/common\los_slab.c **** 
  76:E:/LiteOS/LiteOS_Lab/iot_link/os/os_imp/liteos/base/mem/common\los_slab.c **** /* find from the high bit to high bit£¬return the address of the first available bit */
  77:E:/LiteOS/LiteOS_Lab/iot_link/os/os_imp/liteos/base/mem/common\los_slab.c **** INT32 osAtomicBitsetFindClearAndSet(struct AtomicBitset *pstSet)
  78:E:/LiteOS/LiteOS_Lab/iot_link/os/os_imp/liteos/base/mem/common\los_slab.c **** {
 288              		.loc 1 78 0
 289              		.cfi_startproc
 290              		@ args = 0, pretend = 0, frame = 32
 291              		@ frame_needed = 1, uses_anonymous_args = 0
 292              		@ link register save eliminated.
 293 0000 80B4     		push	{r7}
 294              	.LCFI23:
 295              		.cfi_def_cfa_offset 4
 296              		.cfi_offset 7, -4
 297 0002 89B0     		sub	sp, sp, #36
 298              	.LCFI24:
 299              		.cfi_def_cfa_offset 40
 300 0004 00AF     		add	r7, sp, #0
 301              	.LCFI25:
 302              		.cfi_def_cfa_register 7
 303 0006 7860     		str	r0, [r7, #4]
  79:E:/LiteOS/LiteOS_Lab/iot_link/os/os_imp/liteos/base/mem/common\los_slab.c ****     UINT32 uwIdx, uwNumWords = (pstSet->numBits + 31) / 32;
 304              		.loc 1 79 0
 305 0008 7B68     		ldr	r3, [r7, #4]
 306 000a 1B68     		ldr	r3, [r3]
 307 000c 1F33     		adds	r3, r3, #31
 308 000e 5B09     		lsrs	r3, r3, #5
 309 0010 FB60     		str	r3, [r7, #12]
  80:E:/LiteOS/LiteOS_Lab/iot_link/os/os_imp/liteos/base/mem/common\los_slab.c ****     UINT32 *puwWordPtr = pstSet->words;
 310              		.loc 1 80 0
 311 0012 7B68     		ldr	r3, [r7, #4]
 312 0014 0433     		adds	r3, r3, #4
 313 0016 BB61     		str	r3, [r7, #24]
  81:E:/LiteOS/LiteOS_Lab/iot_link/os/os_imp/liteos/base/mem/common\los_slab.c ****     UINT32 uwTmpWord;
  82:E:/LiteOS/LiteOS_Lab/iot_link/os/os_imp/liteos/base/mem/common\los_slab.c ****     INT32 swCnt = 0;
 314              		.loc 1 82 0
 315 0018 0023     		movs	r3, #0
 316 001a 3B61     		str	r3, [r7, #16]
  83:E:/LiteOS/LiteOS_Lab/iot_link/os/os_imp/liteos/base/mem/common\los_slab.c **** 
  84:E:/LiteOS/LiteOS_Lab/iot_link/os/os_imp/liteos/base/mem/common\los_slab.c ****     for (uwIdx = 0; uwIdx < uwNumWords; uwIdx++, puwWordPtr++)
 317              		.loc 1 84 0
 318 001c 0023     		movs	r3, #0
 319 001e FB61     		str	r3, [r7, #28]
 320 0020 29E0     		b	.L14
 321              	.L19:
  85:E:/LiteOS/LiteOS_Lab/iot_link/os/os_imp/liteos/base/mem/common\los_slab.c ****     {
  86:E:/LiteOS/LiteOS_Lab/iot_link/os/os_imp/liteos/base/mem/common\los_slab.c ****         if (*puwWordPtr == 0xFFFFFFFF)
ARM GAS  C:\Users\user\AppData\Local\Temp\ccih2pX4.s 			page 8


 322              		.loc 1 86 0
 323 0022 BB69     		ldr	r3, [r7, #24]
 324 0024 1B68     		ldr	r3, [r3]
 325 0026 B3F1FF3F 		cmp	r3, #-1
 326 002a 06D1     		bne	.L15
  84:E:/LiteOS/LiteOS_Lab/iot_link/os/os_imp/liteos/base/mem/common\los_slab.c ****     {
 327              		.loc 1 84 0
 328 002c FB69     		ldr	r3, [r7, #28]
 329 002e 0133     		adds	r3, r3, #1
 330 0030 FB61     		str	r3, [r7, #28]
 331 0032 BB69     		ldr	r3, [r7, #24]
 332 0034 0433     		adds	r3, r3, #4
 333 0036 BB61     		str	r3, [r7, #24]
 334 0038 1DE0     		b	.L14
 335              	.L15:
  87:E:/LiteOS/LiteOS_Lab/iot_link/os/os_imp/liteos/base/mem/common\los_slab.c ****         {
  88:E:/LiteOS/LiteOS_Lab/iot_link/os/os_imp/liteos/base/mem/common\los_slab.c ****             continue;
  89:E:/LiteOS/LiteOS_Lab/iot_link/os/os_imp/liteos/base/mem/common\los_slab.c ****         }
  90:E:/LiteOS/LiteOS_Lab/iot_link/os/os_imp/liteos/base/mem/common\los_slab.c **** 
  91:E:/LiteOS/LiteOS_Lab/iot_link/os/os_imp/liteos/base/mem/common\los_slab.c ****         uwTmpWord = ~(*puwWordPtr);
 336              		.loc 1 91 0
 337 003a BB69     		ldr	r3, [r7, #24]
 338 003c 1B68     		ldr	r3, [r3]
 339 003e DB43     		mvns	r3, r3
 340 0040 7B61     		str	r3, [r7, #20]
  92:E:/LiteOS/LiteOS_Lab/iot_link/os/os_imp/liteos/base/mem/common\los_slab.c **** 
  93:E:/LiteOS/LiteOS_Lab/iot_link/os/os_imp/liteos/base/mem/common\los_slab.c ****         while(uwTmpWord)
 341              		.loc 1 93 0
 342 0042 05E0     		b	.L16
 343              	.L17:
  94:E:/LiteOS/LiteOS_Lab/iot_link/os/os_imp/liteos/base/mem/common\los_slab.c ****         {
  95:E:/LiteOS/LiteOS_Lab/iot_link/os/os_imp/liteos/base/mem/common\los_slab.c ****             uwTmpWord = uwTmpWord >> 1UL;
 344              		.loc 1 95 0
 345 0044 7B69     		ldr	r3, [r7, #20]
 346 0046 5B08     		lsrs	r3, r3, #1
 347 0048 7B61     		str	r3, [r7, #20]
  96:E:/LiteOS/LiteOS_Lab/iot_link/os/os_imp/liteos/base/mem/common\los_slab.c ****             swCnt++;
 348              		.loc 1 96 0
 349 004a 3B69     		ldr	r3, [r7, #16]
 350 004c 0133     		adds	r3, r3, #1
 351 004e 3B61     		str	r3, [r7, #16]
 352              	.L16:
  93:E:/LiteOS/LiteOS_Lab/iot_link/os/os_imp/liteos/base/mem/common\los_slab.c ****         {
 353              		.loc 1 93 0
 354 0050 7B69     		ldr	r3, [r7, #20]
 355 0052 002B     		cmp	r3, #0
 356 0054 F6D1     		bne	.L17
  97:E:/LiteOS/LiteOS_Lab/iot_link/os/os_imp/liteos/base/mem/common\los_slab.c ****         }
  98:E:/LiteOS/LiteOS_Lab/iot_link/os/os_imp/liteos/base/mem/common\los_slab.c **** 
  99:E:/LiteOS/LiteOS_Lab/iot_link/os/os_imp/liteos/base/mem/common\los_slab.c ****         *puwWordPtr |= (1UL << (swCnt - 1));
 357              		.loc 1 99 0
 358 0056 BB69     		ldr	r3, [r7, #24]
 359 0058 1A68     		ldr	r2, [r3]
 360 005a 3B69     		ldr	r3, [r7, #16]
 361 005c 013B     		subs	r3, r3, #1
 362 005e 0121     		movs	r1, #1
 363 0060 01FA03F3 		lsl	r3, r1, r3
ARM GAS  C:\Users\user\AppData\Local\Temp\ccih2pX4.s 			page 9


 364 0064 1A43     		orrs	r2, r2, r3
 365 0066 BB69     		ldr	r3, [r7, #24]
 366 0068 1A60     		str	r2, [r3]
 100:E:/LiteOS/LiteOS_Lab/iot_link/os/os_imp/liteos/base/mem/common\los_slab.c **** 
 101:E:/LiteOS/LiteOS_Lab/iot_link/os/os_imp/liteos/base/mem/common\los_slab.c ****         return (INT32)(uwIdx * 32 + swCnt - 1);
 367              		.loc 1 101 0
 368 006a FB69     		ldr	r3, [r7, #28]
 369 006c 5A01     		lsls	r2, r3, #5
 370 006e 3B69     		ldr	r3, [r7, #16]
 371 0070 1344     		add	r3, r3, r2
 372 0072 013B     		subs	r3, r3, #1
 373 0074 05E0     		b	.L18
 374              	.L14:
  84:E:/LiteOS/LiteOS_Lab/iot_link/os/os_imp/liteos/base/mem/common\los_slab.c ****     {
 375              		.loc 1 84 0 discriminator 1
 376 0076 FA69     		ldr	r2, [r7, #28]
 377 0078 FB68     		ldr	r3, [r7, #12]
 378 007a 9A42     		cmp	r2, r3
 379 007c D1D3     		bcc	.L19
 102:E:/LiteOS/LiteOS_Lab/iot_link/os/os_imp/liteos/base/mem/common\los_slab.c ****     }
 103:E:/LiteOS/LiteOS_Lab/iot_link/os/os_imp/liteos/base/mem/common\los_slab.c **** 
 104:E:/LiteOS/LiteOS_Lab/iot_link/os/os_imp/liteos/base/mem/common\los_slab.c ****     return -1;
 380              		.loc 1 104 0
 381 007e 4FF0FF33 		mov	r3, #-1
 382              	.L18:
 105:E:/LiteOS/LiteOS_Lab/iot_link/os/os_imp/liteos/base/mem/common\los_slab.c **** }
 383              		.loc 1 105 0
 384 0082 1846     		mov	r0, r3
 385 0084 2437     		adds	r7, r7, #36
 386              	.LCFI26:
 387              		.cfi_def_cfa_offset 4
 388 0086 BD46     		mov	sp, r7
 389              	.LCFI27:
 390              		.cfi_def_cfa_register 13
 391              		@ sp needed
 392 0088 5DF8047B 		ldr	r7, [sp], #4
 393              	.LCFI28:
 394              		.cfi_restore 7
 395              		.cfi_def_cfa_offset 0
 396 008c 7047     		bx	lr
 397              		.cfi_endproc
 398              	.LFE137:
 400              		.section	.text.osAtomicBitsetIdxChgToNatural,"ax",%progbits
 401              		.align	1
 402              		.global	osAtomicBitsetIdxChgToNatural
 403              		.syntax unified
 404              		.thumb
 405              		.thumb_func
 406              		.fpu fpv4-sp-d16
 408              	osAtomicBitsetIdxChgToNatural:
 409              	.LFB138:
 106:E:/LiteOS/LiteOS_Lab/iot_link/os/os_imp/liteos/base/mem/common\los_slab.c **** 
 107:E:/LiteOS/LiteOS_Lab/iot_link/os/os_imp/liteos/base/mem/common\los_slab.c **** /* change the order of the output idx of osAtomicBitsetFindClearAndSet to order of natural numbers 
 108:E:/LiteOS/LiteOS_Lab/iot_link/os/os_imp/liteos/base/mem/common\los_slab.c **** INT32 osAtomicBitsetIdxChgToNatural(struct AtomicBitset *pstBitset, INT32 swIdx)
 109:E:/LiteOS/LiteOS_Lab/iot_link/os/os_imp/liteos/base/mem/common\los_slab.c **** {
 410              		.loc 1 109 0
 411              		.cfi_startproc
ARM GAS  C:\Users\user\AppData\Local\Temp\ccih2pX4.s 			page 10


 412              		@ args = 0, pretend = 0, frame = 16
 413              		@ frame_needed = 1, uses_anonymous_args = 0
 414              		@ link register save eliminated.
 415 0000 80B4     		push	{r7}
 416              	.LCFI29:
 417              		.cfi_def_cfa_offset 4
 418              		.cfi_offset 7, -4
 419 0002 85B0     		sub	sp, sp, #20
 420              	.LCFI30:
 421              		.cfi_def_cfa_offset 24
 422 0004 00AF     		add	r7, sp, #0
 423              	.LCFI31:
 424              		.cfi_def_cfa_register 7
 425 0006 7860     		str	r0, [r7, #4]
 426 0008 3960     		str	r1, [r7]
 110:E:/LiteOS/LiteOS_Lab/iot_link/os/os_imp/liteos/base/mem/common\los_slab.c ****     UINT32 uwRet, uwB;
 111:E:/LiteOS/LiteOS_Lab/iot_link/os/os_imp/liteos/base/mem/common\los_slab.c ****     if (swIdx < 0)
 427              		.loc 1 111 0
 428 000a 3B68     		ldr	r3, [r7]
 429 000c 002B     		cmp	r3, #0
 430 000e 01DA     		bge	.L21
 112:E:/LiteOS/LiteOS_Lab/iot_link/os/os_imp/liteos/base/mem/common\los_slab.c ****     {
 113:E:/LiteOS/LiteOS_Lab/iot_link/os/os_imp/liteos/base/mem/common\los_slab.c ****         return swIdx;
 431              		.loc 1 113 0
 432 0010 3B68     		ldr	r3, [r7]
 433 0012 15E0     		b	.L22
 434              	.L21:
 114:E:/LiteOS/LiteOS_Lab/iot_link/os/os_imp/liteos/base/mem/common\los_slab.c ****     }
 115:E:/LiteOS/LiteOS_Lab/iot_link/os/os_imp/liteos/base/mem/common\los_slab.c ****     uwB = 31 + (swIdx & ~31);
 435              		.loc 1 115 0
 436 0014 3B68     		ldr	r3, [r7]
 437 0016 23F01F03 		bic	r3, r3, #31
 438 001a 1F33     		adds	r3, r3, #31
 439 001c FB60     		str	r3, [r7, #12]
 116:E:/LiteOS/LiteOS_Lab/iot_link/os/os_imp/liteos/base/mem/common\los_slab.c ****     if (uwB > pstBitset->numBits - 1)
 440              		.loc 1 116 0
 441 001e 7B68     		ldr	r3, [r7, #4]
 442 0020 1B68     		ldr	r3, [r3]
 443 0022 013B     		subs	r3, r3, #1
 444 0024 FA68     		ldr	r2, [r7, #12]
 445 0026 9A42     		cmp	r2, r3
 446 0028 03D9     		bls	.L23
 117:E:/LiteOS/LiteOS_Lab/iot_link/os/os_imp/liteos/base/mem/common\los_slab.c ****     {
 118:E:/LiteOS/LiteOS_Lab/iot_link/os/os_imp/liteos/base/mem/common\los_slab.c ****         uwB = pstBitset->numBits - 1;
 447              		.loc 1 118 0
 448 002a 7B68     		ldr	r3, [r7, #4]
 449 002c 1B68     		ldr	r3, [r3]
 450 002e 013B     		subs	r3, r3, #1
 451 0030 FB60     		str	r3, [r7, #12]
 452              	.L23:
 119:E:/LiteOS/LiteOS_Lab/iot_link/os/os_imp/liteos/base/mem/common\los_slab.c ****     }
 120:E:/LiteOS/LiteOS_Lab/iot_link/os/os_imp/liteos/base/mem/common\los_slab.c ****     uwRet = uwB - (swIdx & 31);
 453              		.loc 1 120 0
 454 0032 3B68     		ldr	r3, [r7]
 455 0034 03F01F03 		and	r3, r3, #31
 456 0038 FA68     		ldr	r2, [r7, #12]
 457 003a D31A     		subs	r3, r2, r3
ARM GAS  C:\Users\user\AppData\Local\Temp\ccih2pX4.s 			page 11


 458 003c BB60     		str	r3, [r7, #8]
 121:E:/LiteOS/LiteOS_Lab/iot_link/os/os_imp/liteos/base/mem/common\los_slab.c ****     return uwRet;
 459              		.loc 1 121 0
 460 003e BB68     		ldr	r3, [r7, #8]
 461              	.L22:
 122:E:/LiteOS/LiteOS_Lab/iot_link/os/os_imp/liteos/base/mem/common\los_slab.c **** }
 462              		.loc 1 122 0
 463 0040 1846     		mov	r0, r3
 464 0042 1437     		adds	r7, r7, #20
 465              	.LCFI32:
 466              		.cfi_def_cfa_offset 4
 467 0044 BD46     		mov	sp, r7
 468              	.LCFI33:
 469              		.cfi_def_cfa_register 13
 470              		@ sp needed
 471 0046 5DF8047B 		ldr	r7, [sp], #4
 472              	.LCFI34:
 473              		.cfi_restore 7
 474              		.cfi_def_cfa_offset 0
 475 004a 7047     		bx	lr
 476              		.cfi_endproc
 477              	.LFE138:
 479              		.section	.text.osAtomicBitsetEmpty,"ax",%progbits
 480              		.align	1
 481              		.global	osAtomicBitsetEmpty
 482              		.syntax unified
 483              		.thumb
 484              		.thumb_func
 485              		.fpu fpv4-sp-d16
 487              	osAtomicBitsetEmpty:
 488              	.LFB139:
 123:E:/LiteOS/LiteOS_Lab/iot_link/os/os_imp/liteos/base/mem/common\los_slab.c **** 
 124:E:/LiteOS/LiteOS_Lab/iot_link/os/os_imp/liteos/base/mem/common\los_slab.c **** BOOL osAtomicBitsetEmpty(struct AtomicBitset *pstBitset)
 125:E:/LiteOS/LiteOS_Lab/iot_link/os/os_imp/liteos/base/mem/common\los_slab.c **** {
 489              		.loc 1 125 0
 490              		.cfi_startproc
 491              		@ args = 0, pretend = 0, frame = 16
 492              		@ frame_needed = 1, uses_anonymous_args = 0
 493              		@ link register save eliminated.
 494 0000 80B4     		push	{r7}
 495              	.LCFI35:
 496              		.cfi_def_cfa_offset 4
 497              		.cfi_offset 7, -4
 498 0002 85B0     		sub	sp, sp, #20
 499              	.LCFI36:
 500              		.cfi_def_cfa_offset 24
 501 0004 00AF     		add	r7, sp, #0
 502              	.LCFI37:
 503              		.cfi_def_cfa_register 7
 504 0006 7860     		str	r0, [r7, #4]
 126:E:/LiteOS/LiteOS_Lab/iot_link/os/os_imp/liteos/base/mem/common\los_slab.c ****     UINT32 uwIdx = 0;
 505              		.loc 1 126 0
 506 0008 0023     		movs	r3, #0
 507 000a FB60     		str	r3, [r7, #12]
 127:E:/LiteOS/LiteOS_Lab/iot_link/os/os_imp/liteos/base/mem/common\los_slab.c ****     for (uwIdx = 0; uwIdx < pstBitset->numBits / 32;)
 508              		.loc 1 127 0
 509 000c 0023     		movs	r3, #0
ARM GAS  C:\Users\user\AppData\Local\Temp\ccih2pX4.s 			page 12


 510 000e FB60     		str	r3, [r7, #12]
 511 0010 0BE0     		b	.L25
 512              	.L28:
 128:E:/LiteOS/LiteOS_Lab/iot_link/os/os_imp/liteos/base/mem/common\los_slab.c ****     {
 129:E:/LiteOS/LiteOS_Lab/iot_link/os/os_imp/liteos/base/mem/common\los_slab.c ****         if (pstBitset->words[uwIdx] != 0)
 513              		.loc 1 129 0
 514 0012 7A68     		ldr	r2, [r7, #4]
 515 0014 FB68     		ldr	r3, [r7, #12]
 516 0016 9B00     		lsls	r3, r3, #2
 517 0018 1344     		add	r3, r3, r2
 518 001a 5B68     		ldr	r3, [r3, #4]
 519 001c 002B     		cmp	r3, #0
 520 001e 01D0     		beq	.L26
 130:E:/LiteOS/LiteOS_Lab/iot_link/os/os_imp/liteos/base/mem/common\los_slab.c ****         {
 131:E:/LiteOS/LiteOS_Lab/iot_link/os/os_imp/liteos/base/mem/common\los_slab.c ****             return FALSE;
 521              		.loc 1 131 0
 522 0020 0023     		movs	r3, #0
 523 0022 22E0     		b	.L27
 524              	.L26:
 132:E:/LiteOS/LiteOS_Lab/iot_link/os/os_imp/liteos/base/mem/common\los_slab.c ****         }
 133:E:/LiteOS/LiteOS_Lab/iot_link/os/os_imp/liteos/base/mem/common\los_slab.c ****         uwIdx++;
 525              		.loc 1 133 0
 526 0024 FB68     		ldr	r3, [r7, #12]
 527 0026 0133     		adds	r3, r3, #1
 528 0028 FB60     		str	r3, [r7, #12]
 529              	.L25:
 127:E:/LiteOS/LiteOS_Lab/iot_link/os/os_imp/liteos/base/mem/common\los_slab.c ****     {
 530              		.loc 1 127 0 discriminator 1
 531 002a 7B68     		ldr	r3, [r7, #4]
 532 002c 1B68     		ldr	r3, [r3]
 533 002e 5B09     		lsrs	r3, r3, #5
 534 0030 FA68     		ldr	r2, [r7, #12]
 535 0032 9A42     		cmp	r2, r3
 536 0034 EDD3     		bcc	.L28
 134:E:/LiteOS/LiteOS_Lab/iot_link/os/os_imp/liteos/base/mem/common\los_slab.c ****     }
 135:E:/LiteOS/LiteOS_Lab/iot_link/os/os_imp/liteos/base/mem/common\los_slab.c ****     if (pstBitset->numBits & 31)
 537              		.loc 1 135 0
 538 0036 7B68     		ldr	r3, [r7, #4]
 539 0038 1B68     		ldr	r3, [r3]
 540 003a 03F01F03 		and	r3, r3, #31
 541 003e 002B     		cmp	r3, #0
 542 0040 12D0     		beq	.L29
 136:E:/LiteOS/LiteOS_Lab/iot_link/os/os_imp/liteos/base/mem/common\los_slab.c ****     {
 137:E:/LiteOS/LiteOS_Lab/iot_link/os/os_imp/liteos/base/mem/common\los_slab.c ****         if (pstBitset->words[uwIdx] & ~(0xFFFFFFFF << (pstBitset->numBits & 31)))
 543              		.loc 1 137 0
 544 0042 7A68     		ldr	r2, [r7, #4]
 545 0044 FB68     		ldr	r3, [r7, #12]
 546 0046 9B00     		lsls	r3, r3, #2
 547 0048 1344     		add	r3, r3, r2
 548 004a 5A68     		ldr	r2, [r3, #4]
 549 004c 7B68     		ldr	r3, [r7, #4]
 550 004e 1B68     		ldr	r3, [r3]
 551 0050 03F01F03 		and	r3, r3, #31
 552 0054 4FF0FF31 		mov	r1, #-1
 553 0058 01FA03F3 		lsl	r3, r1, r3
 554 005c DB43     		mvns	r3, r3
 555 005e 1340     		ands	r3, r3, r2
ARM GAS  C:\Users\user\AppData\Local\Temp\ccih2pX4.s 			page 13


 556 0060 002B     		cmp	r3, #0
 557 0062 01D0     		beq	.L29
 138:E:/LiteOS/LiteOS_Lab/iot_link/os/os_imp/liteos/base/mem/common\los_slab.c ****         {
 139:E:/LiteOS/LiteOS_Lab/iot_link/os/os_imp/liteos/base/mem/common\los_slab.c ****             return FALSE;
 558              		.loc 1 139 0
 559 0064 0023     		movs	r3, #0
 560 0066 00E0     		b	.L27
 561              	.L29:
 140:E:/LiteOS/LiteOS_Lab/iot_link/os/os_imp/liteos/base/mem/common\los_slab.c ****         }
 141:E:/LiteOS/LiteOS_Lab/iot_link/os/os_imp/liteos/base/mem/common\los_slab.c ****     }
 142:E:/LiteOS/LiteOS_Lab/iot_link/os/os_imp/liteos/base/mem/common\los_slab.c ****     return TRUE;
 562              		.loc 1 142 0
 563 0068 0123     		movs	r3, #1
 564              	.L27:
 143:E:/LiteOS/LiteOS_Lab/iot_link/os/os_imp/liteos/base/mem/common\los_slab.c **** }
 565              		.loc 1 143 0
 566 006a 1846     		mov	r0, r3
 567 006c 1437     		adds	r7, r7, #20
 568              	.LCFI38:
 569              		.cfi_def_cfa_offset 4
 570 006e BD46     		mov	sp, r7
 571              	.LCFI39:
 572              		.cfi_def_cfa_register 13
 573              		@ sp needed
 574 0070 5DF8047B 		ldr	r7, [sp], #4
 575              	.LCFI40:
 576              		.cfi_restore 7
 577              		.cfi_def_cfa_offset 0
 578 0074 7047     		bx	lr
 579              		.cfi_endproc
 580              	.LFE139:
 582              		.section	.text.osSlabAllocatorNew,"ax",%progbits
 583              		.align	1
 584              		.global	osSlabAllocatorNew
 585              		.syntax unified
 586              		.thumb
 587              		.thumb_func
 588              		.fpu fpv4-sp-d16
 590              	osSlabAllocatorNew:
 591              	.LFB140:
 144:E:/LiteOS/LiteOS_Lab/iot_link/os/os_imp/liteos/base/mem/common\los_slab.c **** 
 145:E:/LiteOS/LiteOS_Lab/iot_link/os/os_imp/liteos/base/mem/common\los_slab.c **** OS_SLAB_ALLOCATOR* osSlabAllocatorNew(VOID *pPool, UINT32 uwItemSz, UINT32 uwItemAlign, UINT32 uwNu
 146:E:/LiteOS/LiteOS_Lab/iot_link/os/os_imp/liteos/base/mem/common\los_slab.c **** {
 592              		.loc 1 146 0
 593              		.cfi_startproc
 594              		@ args = 0, pretend = 0, frame = 32
 595              		@ frame_needed = 1, uses_anonymous_args = 0
 596 0000 80B5     		push	{r7, lr}
 597              	.LCFI41:
 598              		.cfi_def_cfa_offset 8
 599              		.cfi_offset 7, -8
 600              		.cfi_offset 14, -4
 601 0002 88B0     		sub	sp, sp, #32
 602              	.LCFI42:
 603              		.cfi_def_cfa_offset 40
 604 0004 00AF     		add	r7, sp, #0
 605              	.LCFI43:
ARM GAS  C:\Users\user\AppData\Local\Temp\ccih2pX4.s 			page 14


 606              		.cfi_def_cfa_register 7
 607 0006 F860     		str	r0, [r7, #12]
 608 0008 B960     		str	r1, [r7, #8]
 609 000a 7A60     		str	r2, [r7, #4]
 610 000c 3B60     		str	r3, [r7]
 147:E:/LiteOS/LiteOS_Lab/iot_link/os/os_imp/liteos/base/mem/common\los_slab.c ****     OS_SLAB_ALLOCATOR *pstAllocator;
 148:E:/LiteOS/LiteOS_Lab/iot_link/os/os_imp/liteos/base/mem/common\los_slab.c ****     UINT32 uwBitsetSz, uwDataSz;
 149:E:/LiteOS/LiteOS_Lab/iot_link/os/os_imp/liteos/base/mem/common\los_slab.c **** 
 150:E:/LiteOS/LiteOS_Lab/iot_link/os/os_imp/liteos/base/mem/common\los_slab.c ****     /* calcualte size */
 151:E:/LiteOS/LiteOS_Lab/iot_link/os/os_imp/liteos/base/mem/common\los_slab.c ****     uwBitsetSz = ATOMIC_BITSET_SZ(uwNumItems);
 611              		.loc 1 151 0
 612 000e 3B68     		ldr	r3, [r7]
 613 0010 1F33     		adds	r3, r3, #31
 614 0012 DB08     		lsrs	r3, r3, #3
 615 0014 0433     		adds	r3, r3, #4
 616 0016 FB61     		str	r3, [r7, #28]
 152:E:/LiteOS/LiteOS_Lab/iot_link/os/os_imp/liteos/base/mem/common\los_slab.c **** 
 153:E:/LiteOS/LiteOS_Lab/iot_link/os/os_imp/liteos/base/mem/common\los_slab.c ****     uwBitsetSz = (uwBitsetSz + uwItemAlign - 1) & ~(uwItemAlign - 1);
 617              		.loc 1 153 0
 618 0018 FA69     		ldr	r2, [r7, #28]
 619 001a 7B68     		ldr	r3, [r7, #4]
 620 001c 1344     		add	r3, r3, r2
 621 001e 5A1E     		subs	r2, r3, #1
 622 0020 7B68     		ldr	r3, [r7, #4]
 623 0022 5B42     		negs	r3, r3
 624 0024 1340     		ands	r3, r3, r2
 625 0026 FB61     		str	r3, [r7, #28]
 154:E:/LiteOS/LiteOS_Lab/iot_link/os/os_imp/liteos/base/mem/common\los_slab.c ****     uwItemSz = (uwItemSz + uwItemAlign - 1) & ~(uwItemAlign - 1);
 626              		.loc 1 154 0
 627 0028 BA68     		ldr	r2, [r7, #8]
 628 002a 7B68     		ldr	r3, [r7, #4]
 629 002c 1344     		add	r3, r3, r2
 630 002e 5A1E     		subs	r2, r3, #1
 631 0030 7B68     		ldr	r3, [r7, #4]
 632 0032 5B42     		negs	r3, r3
 633 0034 1340     		ands	r3, r3, r2
 634 0036 BB60     		str	r3, [r7, #8]
 155:E:/LiteOS/LiteOS_Lab/iot_link/os/os_imp/liteos/base/mem/common\los_slab.c ****     uwDataSz = uwItemSz * uwNumItems;
 635              		.loc 1 155 0
 636 0038 BB68     		ldr	r3, [r7, #8]
 637 003a 3A68     		ldr	r2, [r7]
 638 003c 02FB03F3 		mul	r3, r2, r3
 639 0040 BB61     		str	r3, [r7, #24]
 156:E:/LiteOS/LiteOS_Lab/iot_link/os/os_imp/liteos/base/mem/common\los_slab.c **** 
 157:E:/LiteOS/LiteOS_Lab/iot_link/os/os_imp/liteos/base/mem/common\los_slab.c ****     pstAllocator = (OS_SLAB_ALLOCATOR*)osHeapAlloc(pPool, sizeof(OS_SLAB_ALLOCATOR) + uwBitsetSz + 
 640              		.loc 1 157 0
 641 0042 FA69     		ldr	r2, [r7, #28]
 642 0044 BB69     		ldr	r3, [r7, #24]
 643 0046 1344     		add	r3, r3, r2
 644 0048 0C33     		adds	r3, r3, #12
 645 004a 1946     		mov	r1, r3
 646 004c F868     		ldr	r0, [r7, #12]
 647 004e FFF7FEFF 		bl	osHeapAlloc
 648 0052 7861     		str	r0, [r7, #20]
 158:E:/LiteOS/LiteOS_Lab/iot_link/os/os_imp/liteos/base/mem/common\los_slab.c **** 
 159:E:/LiteOS/LiteOS_Lab/iot_link/os/os_imp/liteos/base/mem/common\los_slab.c ****     if (pstAllocator)
 649              		.loc 1 159 0
ARM GAS  C:\Users\user\AppData\Local\Temp\ccih2pX4.s 			page 15


 650 0054 7B69     		ldr	r3, [r7, #20]
 651 0056 002B     		cmp	r3, #0
 652 0058 13D0     		beq	.L31
 160:E:/LiteOS/LiteOS_Lab/iot_link/os/os_imp/liteos/base/mem/common\los_slab.c ****     {
 161:E:/LiteOS/LiteOS_Lab/iot_link/os/os_imp/liteos/base/mem/common\los_slab.c ****         pstAllocator->uwItemSz = uwItemSz;
 653              		.loc 1 161 0
 654 005a 7B69     		ldr	r3, [r7, #20]
 655 005c BA68     		ldr	r2, [r7, #8]
 656 005e 1A60     		str	r2, [r3]
 162:E:/LiteOS/LiteOS_Lab/iot_link/os/os_imp/liteos/base/mem/common\los_slab.c **** 
 163:E:/LiteOS/LiteOS_Lab/iot_link/os/os_imp/liteos/base/mem/common\los_slab.c ****         pstAllocator->bitset = (struct AtomicBitset *)((UINT8*)pstAllocator + sizeof(OS_SLAB_ALLOCA
 657              		.loc 1 163 0
 658 0060 7B69     		ldr	r3, [r7, #20]
 659 0062 03F10C02 		add	r2, r3, #12
 660 0066 7B69     		ldr	r3, [r7, #20]
 661 0068 9A60     		str	r2, [r3, #8]
 164:E:/LiteOS/LiteOS_Lab/iot_link/os/os_imp/liteos/base/mem/common\los_slab.c ****         pstAllocator->ucDataChunks = ((UINT8*)pstAllocator->bitset) + uwBitsetSz;
 662              		.loc 1 164 0
 663 006a 7B69     		ldr	r3, [r7, #20]
 664 006c 9A68     		ldr	r2, [r3, #8]
 665 006e FB69     		ldr	r3, [r7, #28]
 666 0070 1A44     		add	r2, r2, r3
 667 0072 7B69     		ldr	r3, [r7, #20]
 668 0074 5A60     		str	r2, [r3, #4]
 165:E:/LiteOS/LiteOS_Lab/iot_link/os/os_imp/liteos/base/mem/common\los_slab.c ****         osAtomicBitsetInit(pstAllocator->bitset, uwNumItems);
 669              		.loc 1 165 0
 670 0076 7B69     		ldr	r3, [r7, #20]
 671 0078 9B68     		ldr	r3, [r3, #8]
 672 007a 3968     		ldr	r1, [r7]
 673 007c 1846     		mov	r0, r3
 674 007e FFF7FEFF 		bl	osAtomicBitsetInit
 675              	.L31:
 166:E:/LiteOS/LiteOS_Lab/iot_link/os/os_imp/liteos/base/mem/common\los_slab.c ****     }
 167:E:/LiteOS/LiteOS_Lab/iot_link/os/os_imp/liteos/base/mem/common\los_slab.c **** 
 168:E:/LiteOS/LiteOS_Lab/iot_link/os/os_imp/liteos/base/mem/common\los_slab.c ****     return pstAllocator;
 676              		.loc 1 168 0
 677 0082 7B69     		ldr	r3, [r7, #20]
 169:E:/LiteOS/LiteOS_Lab/iot_link/os/os_imp/liteos/base/mem/common\los_slab.c **** }
 678              		.loc 1 169 0
 679 0084 1846     		mov	r0, r3
 680 0086 2037     		adds	r7, r7, #32
 681              	.LCFI44:
 682              		.cfi_def_cfa_offset 8
 683 0088 BD46     		mov	sp, r7
 684              	.LCFI45:
 685              		.cfi_def_cfa_register 13
 686              		@ sp needed
 687 008a 80BD     		pop	{r7, pc}
 688              		.cfi_endproc
 689              	.LFE140:
 691              		.section	.text.osSlabAllocatorDestroy,"ax",%progbits
 692              		.align	1
 693              		.global	osSlabAllocatorDestroy
 694              		.syntax unified
 695              		.thumb
 696              		.thumb_func
 697              		.fpu fpv4-sp-d16
ARM GAS  C:\Users\user\AppData\Local\Temp\ccih2pX4.s 			page 16


 699              	osSlabAllocatorDestroy:
 700              	.LFB141:
 170:E:/LiteOS/LiteOS_Lab/iot_link/os/os_imp/liteos/base/mem/common\los_slab.c **** 
 171:E:/LiteOS/LiteOS_Lab/iot_link/os/os_imp/liteos/base/mem/common\los_slab.c **** 
 172:E:/LiteOS/LiteOS_Lab/iot_link/os/os_imp/liteos/base/mem/common\los_slab.c **** VOID osSlabAllocatorDestroy(VOID *pPool, OS_SLAB_ALLOCATOR *pstAllocator)
 173:E:/LiteOS/LiteOS_Lab/iot_link/os/os_imp/liteos/base/mem/common\los_slab.c **** {
 701              		.loc 1 173 0
 702              		.cfi_startproc
 703              		@ args = 0, pretend = 0, frame = 8
 704              		@ frame_needed = 1, uses_anonymous_args = 0
 705 0000 80B5     		push	{r7, lr}
 706              	.LCFI46:
 707              		.cfi_def_cfa_offset 8
 708              		.cfi_offset 7, -8
 709              		.cfi_offset 14, -4
 710 0002 82B0     		sub	sp, sp, #8
 711              	.LCFI47:
 712              		.cfi_def_cfa_offset 16
 713 0004 00AF     		add	r7, sp, #0
 714              	.LCFI48:
 715              		.cfi_def_cfa_register 7
 716 0006 7860     		str	r0, [r7, #4]
 717 0008 3960     		str	r1, [r7]
 174:E:/LiteOS/LiteOS_Lab/iot_link/os/os_imp/liteos/base/mem/common\los_slab.c ****     (VOID)osHeapFree(pPool, pstAllocator);
 718              		.loc 1 174 0
 719 000a 3968     		ldr	r1, [r7]
 720 000c 7868     		ldr	r0, [r7, #4]
 721 000e FFF7FEFF 		bl	osHeapFree
 175:E:/LiteOS/LiteOS_Lab/iot_link/os/os_imp/liteos/base/mem/common\los_slab.c **** }
 722              		.loc 1 175 0
 723 0012 00BF     		nop
 724 0014 0837     		adds	r7, r7, #8
 725              	.LCFI49:
 726              		.cfi_def_cfa_offset 8
 727 0016 BD46     		mov	sp, r7
 728              	.LCFI50:
 729              		.cfi_def_cfa_register 13
 730              		@ sp needed
 731 0018 80BD     		pop	{r7, pc}
 732              		.cfi_endproc
 733              	.LFE141:
 735              		.section	.text.osSlabAllocatorAlloc,"ax",%progbits
 736              		.align	1
 737              		.global	osSlabAllocatorAlloc
 738              		.syntax unified
 739              		.thumb
 740              		.thumb_func
 741              		.fpu fpv4-sp-d16
 743              	osSlabAllocatorAlloc:
 744              	.LFB142:
 176:E:/LiteOS/LiteOS_Lab/iot_link/os/os_imp/liteos/base/mem/common\los_slab.c **** 
 177:E:/LiteOS/LiteOS_Lab/iot_link/os/os_imp/liteos/base/mem/common\los_slab.c **** VOID* osSlabAllocatorAlloc(OS_SLAB_ALLOCATOR *pstAllocator)
 178:E:/LiteOS/LiteOS_Lab/iot_link/os/os_imp/liteos/base/mem/common\los_slab.c **** {
 745              		.loc 1 178 0
 746              		.cfi_startproc
 747              		@ args = 0, pretend = 0, frame = 16
 748              		@ frame_needed = 1, uses_anonymous_args = 0
ARM GAS  C:\Users\user\AppData\Local\Temp\ccih2pX4.s 			page 17


 749 0000 80B5     		push	{r7, lr}
 750              	.LCFI51:
 751              		.cfi_def_cfa_offset 8
 752              		.cfi_offset 7, -8
 753              		.cfi_offset 14, -4
 754 0002 84B0     		sub	sp, sp, #16
 755              	.LCFI52:
 756              		.cfi_def_cfa_offset 24
 757 0004 00AF     		add	r7, sp, #0
 758              	.LCFI53:
 759              		.cfi_def_cfa_register 7
 760 0006 7860     		str	r0, [r7, #4]
 179:E:/LiteOS/LiteOS_Lab/iot_link/os/os_imp/liteos/base/mem/common\los_slab.c ****     INT32 swItemIdx = osAtomicBitsetFindClearAndSet(pstAllocator->bitset);
 761              		.loc 1 179 0
 762 0008 7B68     		ldr	r3, [r7, #4]
 763 000a 9B68     		ldr	r3, [r3, #8]
 764 000c 1846     		mov	r0, r3
 765 000e FFF7FEFF 		bl	osAtomicBitsetFindClearAndSet
 766 0012 F860     		str	r0, [r7, #12]
 180:E:/LiteOS/LiteOS_Lab/iot_link/os/os_imp/liteos/base/mem/common\los_slab.c ****     if (swItemIdx < 0)
 767              		.loc 1 180 0
 768 0014 FB68     		ldr	r3, [r7, #12]
 769 0016 002B     		cmp	r3, #0
 770 0018 01DA     		bge	.L35
 181:E:/LiteOS/LiteOS_Lab/iot_link/os/os_imp/liteos/base/mem/common\los_slab.c ****         return NULL;
 771              		.loc 1 181 0
 772 001a 0023     		movs	r3, #0
 773 001c 07E0     		b	.L36
 774              	.L35:
 182:E:/LiteOS/LiteOS_Lab/iot_link/os/os_imp/liteos/base/mem/common\los_slab.c **** 
 183:E:/LiteOS/LiteOS_Lab/iot_link/os/os_imp/liteos/base/mem/common\los_slab.c ****     return pstAllocator->ucDataChunks + pstAllocator->uwItemSz * swItemIdx;
 775              		.loc 1 183 0
 776 001e 7B68     		ldr	r3, [r7, #4]
 777 0020 5A68     		ldr	r2, [r3, #4]
 778 0022 7B68     		ldr	r3, [r7, #4]
 779 0024 1B68     		ldr	r3, [r3]
 780 0026 F968     		ldr	r1, [r7, #12]
 781 0028 01FB03F3 		mul	r3, r1, r3
 782 002c 1344     		add	r3, r3, r2
 783              	.L36:
 184:E:/LiteOS/LiteOS_Lab/iot_link/os/os_imp/liteos/base/mem/common\los_slab.c **** }
 784              		.loc 1 184 0
 785 002e 1846     		mov	r0, r3
 786 0030 1037     		adds	r7, r7, #16
 787              	.LCFI54:
 788              		.cfi_def_cfa_offset 8
 789 0032 BD46     		mov	sp, r7
 790              	.LCFI55:
 791              		.cfi_def_cfa_register 13
 792              		@ sp needed
 793 0034 80BD     		pop	{r7, pc}
 794              		.cfi_endproc
 795              	.LFE142:
 797              		.section	.text.osSlabAllocatorFree,"ax",%progbits
 798              		.align	1
 799              		.global	osSlabAllocatorFree
 800              		.syntax unified
ARM GAS  C:\Users\user\AppData\Local\Temp\ccih2pX4.s 			page 18


 801              		.thumb
 802              		.thumb_func
 803              		.fpu fpv4-sp-d16
 805              	osSlabAllocatorFree:
 806              	.LFB143:
 185:E:/LiteOS/LiteOS_Lab/iot_link/os/os_imp/liteos/base/mem/common\los_slab.c **** 
 186:E:/LiteOS/LiteOS_Lab/iot_link/os/os_imp/liteos/base/mem/common\los_slab.c **** BOOL osSlabAllocatorFree(OS_SLAB_ALLOCATOR *pstAllocator, VOID* ptrP)
 187:E:/LiteOS/LiteOS_Lab/iot_link/os/os_imp/liteos/base/mem/common\los_slab.c **** {
 807              		.loc 1 187 0
 808              		.cfi_startproc
 809              		@ args = 0, pretend = 0, frame = 24
 810              		@ frame_needed = 1, uses_anonymous_args = 0
 811 0000 80B5     		push	{r7, lr}
 812              	.LCFI56:
 813              		.cfi_def_cfa_offset 8
 814              		.cfi_offset 7, -8
 815              		.cfi_offset 14, -4
 816 0002 86B0     		sub	sp, sp, #24
 817              	.LCFI57:
 818              		.cfi_def_cfa_offset 32
 819 0004 00AF     		add	r7, sp, #0
 820              	.LCFI58:
 821              		.cfi_def_cfa_register 7
 822 0006 7860     		str	r0, [r7, #4]
 823 0008 3960     		str	r1, [r7]
 188:E:/LiteOS/LiteOS_Lab/iot_link/os/os_imp/liteos/base/mem/common\los_slab.c ****     UINT8 *ptr = (UINT8*)ptrP;
 824              		.loc 1 188 0
 825 000a 3B68     		ldr	r3, [r7]
 826 000c 7B61     		str	r3, [r7, #20]
 189:E:/LiteOS/LiteOS_Lab/iot_link/os/os_imp/liteos/base/mem/common\los_slab.c ****     UINT32 uwItemOffset = ptr - pstAllocator->ucDataChunks;
 827              		.loc 1 189 0
 828 000e 7B69     		ldr	r3, [r7, #20]
 829 0010 7A68     		ldr	r2, [r7, #4]
 830 0012 5268     		ldr	r2, [r2, #4]
 831 0014 9B1A     		subs	r3, r3, r2
 832 0016 3B61     		str	r3, [r7, #16]
 190:E:/LiteOS/LiteOS_Lab/iot_link/os/os_imp/liteos/base/mem/common\los_slab.c ****     UINT32 uwItemIdx = uwItemOffset / pstAllocator->uwItemSz;
 833              		.loc 1 190 0
 834 0018 7B68     		ldr	r3, [r7, #4]
 835 001a 1B68     		ldr	r3, [r3]
 836 001c 3A69     		ldr	r2, [r7, #16]
 837 001e B2FBF3F3 		udiv	r3, r2, r3
 838 0022 FB60     		str	r3, [r7, #12]
 191:E:/LiteOS/LiteOS_Lab/iot_link/os/os_imp/liteos/base/mem/common\los_slab.c **** 
 192:E:/LiteOS/LiteOS_Lab/iot_link/os/os_imp/liteos/base/mem/common\los_slab.c ****     //check for invalid inputs
 193:E:/LiteOS/LiteOS_Lab/iot_link/os/os_imp/liteos/base/mem/common\los_slab.c ****     if ((uwItemOffset % pstAllocator->uwItemSz) || (uwItemIdx >= osAtomicBitsetGetNumBits(pstAlloca
 839              		.loc 1 193 0
 840 0024 7B68     		ldr	r3, [r7, #4]
 841 0026 1A68     		ldr	r2, [r3]
 842 0028 3B69     		ldr	r3, [r7, #16]
 843 002a B3FBF2F1 		udiv	r1, r3, r2
 844 002e 02FB01F2 		mul	r2, r2, r1
 845 0032 9B1A     		subs	r3, r3, r2
 846 0034 002B     		cmp	r3, #0
 847 0036 11D1     		bne	.L38
 848              		.loc 1 193 0 is_stmt 0 discriminator 1
 849 0038 7B68     		ldr	r3, [r7, #4]
ARM GAS  C:\Users\user\AppData\Local\Temp\ccih2pX4.s 			page 19


 850 003a 9B68     		ldr	r3, [r3, #8]
 851 003c 1846     		mov	r0, r3
 852 003e FFF7FEFF 		bl	osAtomicBitsetGetNumBits
 853 0042 0246     		mov	r2, r0
 854 0044 FB68     		ldr	r3, [r7, #12]
 855 0046 9342     		cmp	r3, r2
 856 0048 08D2     		bcs	.L38
 857              		.loc 1 193 0 discriminator 2
 858 004a 7B68     		ldr	r3, [r7, #4]
 859 004c 9B68     		ldr	r3, [r3, #8]
 860 004e F968     		ldr	r1, [r7, #12]
 861 0050 1846     		mov	r0, r3
 862 0052 FFF7FEFF 		bl	osAtomicBitsetGetBit
 863 0056 0346     		mov	r3, r0
 864 0058 002B     		cmp	r3, #0
 865 005a 01D1     		bne	.L39
 866              	.L38:
 194:E:/LiteOS/LiteOS_Lab/iot_link/os/os_imp/liteos/base/mem/common\los_slab.c ****         return FALSE;
 867              		.loc 1 194 0 is_stmt 1
 868 005c 0023     		movs	r3, #0
 869 005e 06E0     		b	.L40
 870              	.L39:
 195:E:/LiteOS/LiteOS_Lab/iot_link/os/os_imp/liteos/base/mem/common\los_slab.c **** 
 196:E:/LiteOS/LiteOS_Lab/iot_link/os/os_imp/liteos/base/mem/common\los_slab.c ****     osAtomicBitsetClearBit(pstAllocator->bitset, uwItemIdx);
 871              		.loc 1 196 0
 872 0060 7B68     		ldr	r3, [r7, #4]
 873 0062 9B68     		ldr	r3, [r3, #8]
 874 0064 F968     		ldr	r1, [r7, #12]
 875 0066 1846     		mov	r0, r3
 876 0068 FFF7FEFF 		bl	osAtomicBitsetClearBit
 197:E:/LiteOS/LiteOS_Lab/iot_link/os/os_imp/liteos/base/mem/common\los_slab.c ****     return TRUE;
 877              		.loc 1 197 0
 878 006c 0123     		movs	r3, #1
 879              	.L40:
 198:E:/LiteOS/LiteOS_Lab/iot_link/os/os_imp/liteos/base/mem/common\los_slab.c **** }
 880              		.loc 1 198 0
 881 006e 1846     		mov	r0, r3
 882 0070 1837     		adds	r7, r7, #24
 883              	.LCFI59:
 884              		.cfi_def_cfa_offset 8
 885 0072 BD46     		mov	sp, r7
 886              	.LCFI60:
 887              		.cfi_def_cfa_register 13
 888              		@ sp needed
 889 0074 80BD     		pop	{r7, pc}
 890              		.cfi_endproc
 891              	.LFE143:
 893              		.section	.text.osSlabAllocatorGetNth,"ax",%progbits
 894              		.align	1
 895              		.global	osSlabAllocatorGetNth
 896              		.syntax unified
 897              		.thumb
 898              		.thumb_func
 899              		.fpu fpv4-sp-d16
 901              	osSlabAllocatorGetNth:
 902              	.LFB144:
 199:E:/LiteOS/LiteOS_Lab/iot_link/os/os_imp/liteos/base/mem/common\los_slab.c **** 
ARM GAS  C:\Users\user\AppData\Local\Temp\ccih2pX4.s 			page 20


 200:E:/LiteOS/LiteOS_Lab/iot_link/os/os_imp/liteos/base/mem/common\los_slab.c **** VOID* osSlabAllocatorGetNth(OS_SLAB_ALLOCATOR *pstAllocator, UINT32 uwIdx)
 201:E:/LiteOS/LiteOS_Lab/iot_link/os/os_imp/liteos/base/mem/common\los_slab.c **** {
 903              		.loc 1 201 0
 904              		.cfi_startproc
 905              		@ args = 0, pretend = 0, frame = 8
 906              		@ frame_needed = 1, uses_anonymous_args = 0
 907 0000 80B5     		push	{r7, lr}
 908              	.LCFI61:
 909              		.cfi_def_cfa_offset 8
 910              		.cfi_offset 7, -8
 911              		.cfi_offset 14, -4
 912 0002 82B0     		sub	sp, sp, #8
 913              	.LCFI62:
 914              		.cfi_def_cfa_offset 16
 915 0004 00AF     		add	r7, sp, #0
 916              	.LCFI63:
 917              		.cfi_def_cfa_register 7
 918 0006 7860     		str	r0, [r7, #4]
 919 0008 3960     		str	r1, [r7]
 202:E:/LiteOS/LiteOS_Lab/iot_link/os/os_imp/liteos/base/mem/common\los_slab.c ****     if (!osAtomicBitsetGetBit(pstAllocator->bitset, uwIdx))
 920              		.loc 1 202 0
 921 000a 7B68     		ldr	r3, [r7, #4]
 922 000c 9B68     		ldr	r3, [r3, #8]
 923 000e 3968     		ldr	r1, [r7]
 924 0010 1846     		mov	r0, r3
 925 0012 FFF7FEFF 		bl	osAtomicBitsetGetBit
 926 0016 0346     		mov	r3, r0
 927 0018 002B     		cmp	r3, #0
 928 001a 01D1     		bne	.L42
 203:E:/LiteOS/LiteOS_Lab/iot_link/os/os_imp/liteos/base/mem/common\los_slab.c ****         return NULL;
 929              		.loc 1 203 0
 930 001c 0023     		movs	r3, #0
 931 001e 07E0     		b	.L43
 932              	.L42:
 204:E:/LiteOS/LiteOS_Lab/iot_link/os/os_imp/liteos/base/mem/common\los_slab.c **** 
 205:E:/LiteOS/LiteOS_Lab/iot_link/os/os_imp/liteos/base/mem/common\los_slab.c ****     return pstAllocator->ucDataChunks + pstAllocator->uwItemSz * uwIdx;
 933              		.loc 1 205 0
 934 0020 7B68     		ldr	r3, [r7, #4]
 935 0022 5A68     		ldr	r2, [r3, #4]
 936 0024 7B68     		ldr	r3, [r7, #4]
 937 0026 1B68     		ldr	r3, [r3]
 938 0028 3968     		ldr	r1, [r7]
 939 002a 01FB03F3 		mul	r3, r1, r3
 940 002e 1344     		add	r3, r3, r2
 941              	.L43:
 206:E:/LiteOS/LiteOS_Lab/iot_link/os/os_imp/liteos/base/mem/common\los_slab.c **** }
 942              		.loc 1 206 0
 943 0030 1846     		mov	r0, r3
 944 0032 0837     		adds	r7, r7, #8
 945              	.LCFI64:
 946              		.cfi_def_cfa_offset 8
 947 0034 BD46     		mov	sp, r7
 948              	.LCFI65:
 949              		.cfi_def_cfa_register 13
 950              		@ sp needed
 951 0036 80BD     		pop	{r7, pc}
 952              		.cfi_endproc
ARM GAS  C:\Users\user\AppData\Local\Temp\ccih2pX4.s 			page 21


 953              	.LFE144:
 955              		.section	.text.osSlabAllocatorGetIdxP,"ax",%progbits
 956              		.align	1
 957              		.global	osSlabAllocatorGetIdxP
 958              		.syntax unified
 959              		.thumb
 960              		.thumb_func
 961              		.fpu fpv4-sp-d16
 963              	osSlabAllocatorGetIdxP:
 964              	.LFB145:
 207:E:/LiteOS/LiteOS_Lab/iot_link/os/os_imp/liteos/base/mem/common\los_slab.c **** 
 208:E:/LiteOS/LiteOS_Lab/iot_link/os/os_imp/liteos/base/mem/common\los_slab.c **** VOID* osSlabAllocatorGetIdxP(OS_SLAB_ALLOCATOR *pstAllocator, UINT32 uwIdx)
 209:E:/LiteOS/LiteOS_Lab/iot_link/os/os_imp/liteos/base/mem/common\los_slab.c **** {
 965              		.loc 1 209 0
 966              		.cfi_startproc
 967              		@ args = 0, pretend = 0, frame = 8
 968              		@ frame_needed = 1, uses_anonymous_args = 0
 969              		@ link register save eliminated.
 970 0000 80B4     		push	{r7}
 971              	.LCFI66:
 972              		.cfi_def_cfa_offset 4
 973              		.cfi_offset 7, -4
 974 0002 83B0     		sub	sp, sp, #12
 975              	.LCFI67:
 976              		.cfi_def_cfa_offset 16
 977 0004 00AF     		add	r7, sp, #0
 978              	.LCFI68:
 979              		.cfi_def_cfa_register 7
 980 0006 7860     		str	r0, [r7, #4]
 981 0008 3960     		str	r1, [r7]
 210:E:/LiteOS/LiteOS_Lab/iot_link/os/os_imp/liteos/base/mem/common\los_slab.c ****     return pstAllocator->ucDataChunks + pstAllocator->uwItemSz * uwIdx;
 982              		.loc 1 210 0
 983 000a 7B68     		ldr	r3, [r7, #4]
 984 000c 5A68     		ldr	r2, [r3, #4]
 985 000e 7B68     		ldr	r3, [r7, #4]
 986 0010 1B68     		ldr	r3, [r3]
 987 0012 3968     		ldr	r1, [r7]
 988 0014 01FB03F3 		mul	r3, r1, r3
 989 0018 1344     		add	r3, r3, r2
 211:E:/LiteOS/LiteOS_Lab/iot_link/os/os_imp/liteos/base/mem/common\los_slab.c **** }
 990              		.loc 1 211 0
 991 001a 1846     		mov	r0, r3
 992 001c 0C37     		adds	r7, r7, #12
 993              	.LCFI69:
 994              		.cfi_def_cfa_offset 4
 995 001e BD46     		mov	sp, r7
 996              	.LCFI70:
 997              		.cfi_def_cfa_register 13
 998              		@ sp needed
 999 0020 5DF8047B 		ldr	r7, [sp], #4
 1000              	.LCFI71:
 1001              		.cfi_restore 7
 1002              		.cfi_def_cfa_offset 0
 1003 0024 7047     		bx	lr
 1004              		.cfi_endproc
 1005              	.LFE145:
 1007              		.section	.text.osSlabAllocatorGetIndex,"ax",%progbits
ARM GAS  C:\Users\user\AppData\Local\Temp\ccih2pX4.s 			page 22


 1008              		.align	1
 1009              		.global	osSlabAllocatorGetIndex
 1010              		.syntax unified
 1011              		.thumb
 1012              		.thumb_func
 1013              		.fpu fpv4-sp-d16
 1015              	osSlabAllocatorGetIndex:
 1016              	.LFB146:
 212:E:/LiteOS/LiteOS_Lab/iot_link/os/os_imp/liteos/base/mem/common\los_slab.c **** 
 213:E:/LiteOS/LiteOS_Lab/iot_link/os/os_imp/liteos/base/mem/common\los_slab.c **** UINT32 osSlabAllocatorGetIndex(OS_SLAB_ALLOCATOR *pstAllocator, VOID* ptrP)
 214:E:/LiteOS/LiteOS_Lab/iot_link/os/os_imp/liteos/base/mem/common\los_slab.c **** {
 1017              		.loc 1 214 0
 1018              		.cfi_startproc
 1019              		@ args = 0, pretend = 0, frame = 24
 1020              		@ frame_needed = 1, uses_anonymous_args = 0
 1021 0000 80B5     		push	{r7, lr}
 1022              	.LCFI72:
 1023              		.cfi_def_cfa_offset 8
 1024              		.cfi_offset 7, -8
 1025              		.cfi_offset 14, -4
 1026 0002 86B0     		sub	sp, sp, #24
 1027              	.LCFI73:
 1028              		.cfi_def_cfa_offset 32
 1029 0004 00AF     		add	r7, sp, #0
 1030              	.LCFI74:
 1031              		.cfi_def_cfa_register 7
 1032 0006 7860     		str	r0, [r7, #4]
 1033 0008 3960     		str	r1, [r7]
 215:E:/LiteOS/LiteOS_Lab/iot_link/os/os_imp/liteos/base/mem/common\los_slab.c ****     UINT8 *ptr = (UINT8*)ptrP;
 1034              		.loc 1 215 0
 1035 000a 3B68     		ldr	r3, [r7]
 1036 000c 7B61     		str	r3, [r7, #20]
 216:E:/LiteOS/LiteOS_Lab/iot_link/os/os_imp/liteos/base/mem/common\los_slab.c ****     UINT32 uwItemOffset = ptr - pstAllocator->ucDataChunks;
 1037              		.loc 1 216 0
 1038 000e 7B69     		ldr	r3, [r7, #20]
 1039 0010 7A68     		ldr	r2, [r7, #4]
 1040 0012 5268     		ldr	r2, [r2, #4]
 1041 0014 9B1A     		subs	r3, r3, r2
 1042 0016 3B61     		str	r3, [r7, #16]
 217:E:/LiteOS/LiteOS_Lab/iot_link/os/os_imp/liteos/base/mem/common\los_slab.c ****     UINT32 uwItemIdx = uwItemOffset / pstAllocator->uwItemSz;
 1043              		.loc 1 217 0
 1044 0018 7B68     		ldr	r3, [r7, #4]
 1045 001a 1B68     		ldr	r3, [r3]
 1046 001c 3A69     		ldr	r2, [r7, #16]
 1047 001e B2FBF3F3 		udiv	r3, r2, r3
 1048 0022 FB60     		str	r3, [r7, #12]
 218:E:/LiteOS/LiteOS_Lab/iot_link/os/os_imp/liteos/base/mem/common\los_slab.c **** 
 219:E:/LiteOS/LiteOS_Lab/iot_link/os/os_imp/liteos/base/mem/common\los_slab.c ****     if ((uwItemOffset % pstAllocator->uwItemSz) || (uwItemIdx >= osAtomicBitsetGetNumBits(pstAlloca
 1049              		.loc 1 219 0
 1050 0024 7B68     		ldr	r3, [r7, #4]
 1051 0026 1A68     		ldr	r2, [r3]
 1052 0028 3B69     		ldr	r3, [r7, #16]
 1053 002a B3FBF2F1 		udiv	r1, r3, r2
 1054 002e 02FB01F2 		mul	r2, r2, r1
 1055 0032 9B1A     		subs	r3, r3, r2
 1056 0034 002B     		cmp	r3, #0
 1057 0036 11D1     		bne	.L47
ARM GAS  C:\Users\user\AppData\Local\Temp\ccih2pX4.s 			page 23


 1058              		.loc 1 219 0 is_stmt 0 discriminator 1
 1059 0038 7B68     		ldr	r3, [r7, #4]
 1060 003a 9B68     		ldr	r3, [r3, #8]
 1061 003c 1846     		mov	r0, r3
 1062 003e FFF7FEFF 		bl	osAtomicBitsetGetNumBits
 1063 0042 0246     		mov	r2, r0
 1064 0044 FB68     		ldr	r3, [r7, #12]
 1065 0046 9342     		cmp	r3, r2
 1066 0048 08D2     		bcs	.L47
 1067              		.loc 1 219 0 discriminator 2
 1068 004a 7B68     		ldr	r3, [r7, #4]
 1069 004c 9B68     		ldr	r3, [r3, #8]
 1070 004e F968     		ldr	r1, [r7, #12]
 1071 0050 1846     		mov	r0, r3
 1072 0052 FFF7FEFF 		bl	osAtomicBitsetGetBit
 1073 0056 0346     		mov	r3, r0
 1074 0058 002B     		cmp	r3, #0
 1075 005a 02D1     		bne	.L48
 1076              	.L47:
 220:E:/LiteOS/LiteOS_Lab/iot_link/os/os_imp/liteos/base/mem/common\los_slab.c ****         return (UINT32)(-1);
 1077              		.loc 1 220 0 is_stmt 1
 1078 005c 4FF0FF33 		mov	r3, #-1
 1079 0060 00E0     		b	.L49
 1080              	.L48:
 221:E:/LiteOS/LiteOS_Lab/iot_link/os/os_imp/liteos/base/mem/common\los_slab.c **** 
 222:E:/LiteOS/LiteOS_Lab/iot_link/os/os_imp/liteos/base/mem/common\los_slab.c ****     return uwItemIdx;
 1081              		.loc 1 222 0
 1082 0062 FB68     		ldr	r3, [r7, #12]
 1083              	.L49:
 223:E:/LiteOS/LiteOS_Lab/iot_link/os/os_imp/liteos/base/mem/common\los_slab.c **** }
 1084              		.loc 1 223 0
 1085 0064 1846     		mov	r0, r3
 1086 0066 1837     		adds	r7, r7, #24
 1087              	.LCFI75:
 1088              		.cfi_def_cfa_offset 8
 1089 0068 BD46     		mov	sp, r7
 1090              	.LCFI76:
 1091              		.cfi_def_cfa_register 13
 1092              		@ sp needed
 1093 006a 80BD     		pop	{r7, pc}
 1094              		.cfi_endproc
 1095              	.LFE146:
 1097              		.section	.text.osSlabAllocatorGetNumItems,"ax",%progbits
 1098              		.align	1
 1099              		.global	osSlabAllocatorGetNumItems
 1100              		.syntax unified
 1101              		.thumb
 1102              		.thumb_func
 1103              		.fpu fpv4-sp-d16
 1105              	osSlabAllocatorGetNumItems:
 1106              	.LFB147:
 224:E:/LiteOS/LiteOS_Lab/iot_link/os/os_imp/liteos/base/mem/common\los_slab.c **** 
 225:E:/LiteOS/LiteOS_Lab/iot_link/os/os_imp/liteos/base/mem/common\los_slab.c **** UINT32 osSlabAllocatorGetNumItems(OS_SLAB_ALLOCATOR *pstAllocator)
 226:E:/LiteOS/LiteOS_Lab/iot_link/os/os_imp/liteos/base/mem/common\los_slab.c **** {
 1107              		.loc 1 226 0
 1108              		.cfi_startproc
 1109              		@ args = 0, pretend = 0, frame = 8
ARM GAS  C:\Users\user\AppData\Local\Temp\ccih2pX4.s 			page 24


 1110              		@ frame_needed = 1, uses_anonymous_args = 0
 1111 0000 80B5     		push	{r7, lr}
 1112              	.LCFI77:
 1113              		.cfi_def_cfa_offset 8
 1114              		.cfi_offset 7, -8
 1115              		.cfi_offset 14, -4
 1116 0002 82B0     		sub	sp, sp, #8
 1117              	.LCFI78:
 1118              		.cfi_def_cfa_offset 16
 1119 0004 00AF     		add	r7, sp, #0
 1120              	.LCFI79:
 1121              		.cfi_def_cfa_register 7
 1122 0006 7860     		str	r0, [r7, #4]
 227:E:/LiteOS/LiteOS_Lab/iot_link/os/os_imp/liteos/base/mem/common\los_slab.c ****     return osAtomicBitsetGetNumBits(pstAllocator->bitset);
 1123              		.loc 1 227 0
 1124 0008 7B68     		ldr	r3, [r7, #4]
 1125 000a 9B68     		ldr	r3, [r3, #8]
 1126 000c 1846     		mov	r0, r3
 1127 000e FFF7FEFF 		bl	osAtomicBitsetGetNumBits
 1128 0012 0346     		mov	r3, r0
 228:E:/LiteOS/LiteOS_Lab/iot_link/os/os_imp/liteos/base/mem/common\los_slab.c **** }
 1129              		.loc 1 228 0
 1130 0014 1846     		mov	r0, r3
 1131 0016 0837     		adds	r7, r7, #8
 1132              	.LCFI80:
 1133              		.cfi_def_cfa_offset 8
 1134 0018 BD46     		mov	sp, r7
 1135              	.LCFI81:
 1136              		.cfi_def_cfa_register 13
 1137              		@ sp needed
 1138 001a 80BD     		pop	{r7, pc}
 1139              		.cfi_endproc
 1140              	.LFE147:
 1142              		.section	.text.osSlabAllocatorEmpty,"ax",%progbits
 1143              		.align	1
 1144              		.global	osSlabAllocatorEmpty
 1145              		.syntax unified
 1146              		.thumb
 1147              		.thumb_func
 1148              		.fpu fpv4-sp-d16
 1150              	osSlabAllocatorEmpty:
 1151              	.LFB148:
 229:E:/LiteOS/LiteOS_Lab/iot_link/os/os_imp/liteos/base/mem/common\los_slab.c **** 
 230:E:/LiteOS/LiteOS_Lab/iot_link/os/os_imp/liteos/base/mem/common\los_slab.c **** BOOL osSlabAllocatorEmpty(OS_SLAB_ALLOCATOR *pstAllocator)
 231:E:/LiteOS/LiteOS_Lab/iot_link/os/os_imp/liteos/base/mem/common\los_slab.c **** {
 1152              		.loc 1 231 0
 1153              		.cfi_startproc
 1154              		@ args = 0, pretend = 0, frame = 8
 1155              		@ frame_needed = 1, uses_anonymous_args = 0
 1156 0000 80B5     		push	{r7, lr}
 1157              	.LCFI82:
 1158              		.cfi_def_cfa_offset 8
 1159              		.cfi_offset 7, -8
 1160              		.cfi_offset 14, -4
 1161 0002 82B0     		sub	sp, sp, #8
 1162              	.LCFI83:
 1163              		.cfi_def_cfa_offset 16
ARM GAS  C:\Users\user\AppData\Local\Temp\ccih2pX4.s 			page 25


 1164 0004 00AF     		add	r7, sp, #0
 1165              	.LCFI84:
 1166              		.cfi_def_cfa_register 7
 1167 0006 7860     		str	r0, [r7, #4]
 232:E:/LiteOS/LiteOS_Lab/iot_link/os/os_imp/liteos/base/mem/common\los_slab.c ****     return osAtomicBitsetEmpty(pstAllocator->bitset);
 1168              		.loc 1 232 0
 1169 0008 7B68     		ldr	r3, [r7, #4]
 1170 000a 9B68     		ldr	r3, [r3, #8]
 1171 000c 1846     		mov	r0, r3
 1172 000e FFF7FEFF 		bl	osAtomicBitsetEmpty
 1173 0012 0346     		mov	r3, r0
 233:E:/LiteOS/LiteOS_Lab/iot_link/os/os_imp/liteos/base/mem/common\los_slab.c **** }
 1174              		.loc 1 233 0
 1175 0014 1846     		mov	r0, r3
 1176 0016 0837     		adds	r7, r7, #8
 1177              	.LCFI85:
 1178              		.cfi_def_cfa_offset 8
 1179 0018 BD46     		mov	sp, r7
 1180              	.LCFI86:
 1181              		.cfi_def_cfa_register 13
 1182              		@ sp needed
 1183 001a 80BD     		pop	{r7, pc}
 1184              		.cfi_endproc
 1185              	.LFE148:
 1187              		.section	.text.osSlabAllocatorGetUsedItemCnt,"ax",%progbits
 1188              		.align	1
 1189              		.global	osSlabAllocatorGetUsedItemCnt
 1190              		.syntax unified
 1191              		.thumb
 1192              		.thumb_func
 1193              		.fpu fpv4-sp-d16
 1195              	osSlabAllocatorGetUsedItemCnt:
 1196              	.LFB149:
 234:E:/LiteOS/LiteOS_Lab/iot_link/os/os_imp/liteos/base/mem/common\los_slab.c **** 
 235:E:/LiteOS/LiteOS_Lab/iot_link/os/os_imp/liteos/base/mem/common\los_slab.c **** UINT32 osSlabAllocatorGetUsedItemCnt(OS_SLAB_ALLOCATOR *pstAllocator)
 236:E:/LiteOS/LiteOS_Lab/iot_link/os/os_imp/liteos/base/mem/common\los_slab.c **** {
 1197              		.loc 1 236 0
 1198              		.cfi_startproc
 1199              		@ args = 0, pretend = 0, frame = 24
 1200              		@ frame_needed = 1, uses_anonymous_args = 0
 1201 0000 80B5     		push	{r7, lr}
 1202              	.LCFI87:
 1203              		.cfi_def_cfa_offset 8
 1204              		.cfi_offset 7, -8
 1205              		.cfi_offset 14, -4
 1206 0002 86B0     		sub	sp, sp, #24
 1207              	.LCFI88:
 1208              		.cfi_def_cfa_offset 32
 1209 0004 00AF     		add	r7, sp, #0
 1210              	.LCFI89:
 1211              		.cfi_def_cfa_register 7
 1212 0006 7860     		str	r0, [r7, #4]
 237:E:/LiteOS/LiteOS_Lab/iot_link/os/os_imp/liteos/base/mem/common\los_slab.c ****     UINT32 uwUsed, uwIdx;
 238:E:/LiteOS/LiteOS_Lab/iot_link/os/os_imp/liteos/base/mem/common\los_slab.c ****     struct AtomicBitset *p_bitset = pstAllocator->bitset;
 1213              		.loc 1 238 0
 1214 0008 7B68     		ldr	r3, [r7, #4]
 1215 000a 9B68     		ldr	r3, [r3, #8]
ARM GAS  C:\Users\user\AppData\Local\Temp\ccih2pX4.s 			page 26


 1216 000c FB60     		str	r3, [r7, #12]
 239:E:/LiteOS/LiteOS_Lab/iot_link/os/os_imp/liteos/base/mem/common\los_slab.c ****     for (uwUsed = 0, uwIdx = 0; uwIdx < p_bitset->numBits; uwIdx++)
 1217              		.loc 1 239 0
 1218 000e 0023     		movs	r3, #0
 1219 0010 7B61     		str	r3, [r7, #20]
 1220 0012 0023     		movs	r3, #0
 1221 0014 3B61     		str	r3, [r7, #16]
 1222 0016 0CE0     		b	.L55
 1223              	.L57:
 240:E:/LiteOS/LiteOS_Lab/iot_link/os/os_imp/liteos/base/mem/common\los_slab.c ****     {
 241:E:/LiteOS/LiteOS_Lab/iot_link/os/os_imp/liteos/base/mem/common\los_slab.c ****         if (osAtomicBitsetGetBit(p_bitset, uwIdx))
 1224              		.loc 1 241 0
 1225 0018 3969     		ldr	r1, [r7, #16]
 1226 001a F868     		ldr	r0, [r7, #12]
 1227 001c FFF7FEFF 		bl	osAtomicBitsetGetBit
 1228 0020 0346     		mov	r3, r0
 1229 0022 002B     		cmp	r3, #0
 1230 0024 02D0     		beq	.L56
 242:E:/LiteOS/LiteOS_Lab/iot_link/os/os_imp/liteos/base/mem/common\los_slab.c ****         {
 243:E:/LiteOS/LiteOS_Lab/iot_link/os/os_imp/liteos/base/mem/common\los_slab.c ****             uwUsed ++;
 1231              		.loc 1 243 0
 1232 0026 7B69     		ldr	r3, [r7, #20]
 1233 0028 0133     		adds	r3, r3, #1
 1234 002a 7B61     		str	r3, [r7, #20]
 1235              	.L56:
 239:E:/LiteOS/LiteOS_Lab/iot_link/os/os_imp/liteos/base/mem/common\los_slab.c ****     {
 1236              		.loc 1 239 0 discriminator 2
 1237 002c 3B69     		ldr	r3, [r7, #16]
 1238 002e 0133     		adds	r3, r3, #1
 1239 0030 3B61     		str	r3, [r7, #16]
 1240              	.L55:
 239:E:/LiteOS/LiteOS_Lab/iot_link/os/os_imp/liteos/base/mem/common\los_slab.c ****     {
 1241              		.loc 1 239 0 is_stmt 0 discriminator 1
 1242 0032 FB68     		ldr	r3, [r7, #12]
 1243 0034 1B68     		ldr	r3, [r3]
 1244 0036 3A69     		ldr	r2, [r7, #16]
 1245 0038 9A42     		cmp	r2, r3
 1246 003a EDD3     		bcc	.L57
 244:E:/LiteOS/LiteOS_Lab/iot_link/os/os_imp/liteos/base/mem/common\los_slab.c ****         }
 245:E:/LiteOS/LiteOS_Lab/iot_link/os/os_imp/liteos/base/mem/common\los_slab.c ****     }
 246:E:/LiteOS/LiteOS_Lab/iot_link/os/os_imp/liteos/base/mem/common\los_slab.c ****     return uwUsed;
 1247              		.loc 1 246 0 is_stmt 1
 1248 003c 7B69     		ldr	r3, [r7, #20]
 247:E:/LiteOS/LiteOS_Lab/iot_link/os/os_imp/liteos/base/mem/common\los_slab.c **** }
 1249              		.loc 1 247 0
 1250 003e 1846     		mov	r0, r3
 1251 0040 1837     		adds	r7, r7, #24
 1252              	.LCFI90:
 1253              		.cfi_def_cfa_offset 8
 1254 0042 BD46     		mov	sp, r7
 1255              	.LCFI91:
 1256              		.cfi_def_cfa_register 13
 1257              		@ sp needed
 1258 0044 80BD     		pop	{r7, pc}
 1259              		.cfi_endproc
 1260              	.LFE149:
 1262              		.section	.text.osSlabAllocatorGetSlabInfo,"ax",%progbits
ARM GAS  C:\Users\user\AppData\Local\Temp\ccih2pX4.s 			page 27


 1263              		.align	1
 1264              		.global	osSlabAllocatorGetSlabInfo
 1265              		.syntax unified
 1266              		.thumb
 1267              		.thumb_func
 1268              		.fpu fpv4-sp-d16
 1270              	osSlabAllocatorGetSlabInfo:
 1271              	.LFB150:
 248:E:/LiteOS/LiteOS_Lab/iot_link/os/os_imp/liteos/base/mem/common\los_slab.c **** 
 249:E:/LiteOS/LiteOS_Lab/iot_link/os/os_imp/liteos/base/mem/common\los_slab.c **** VOID osSlabAllocatorGetSlabInfo(OS_SLAB_ALLOCATOR *pstAllocator, UINT32 *puwItemSz, UINT32 *puwItem
 250:E:/LiteOS/LiteOS_Lab/iot_link/os/os_imp/liteos/base/mem/common\los_slab.c **** {
 1272              		.loc 1 250 0
 1273              		.cfi_startproc
 1274              		@ args = 0, pretend = 0, frame = 16
 1275              		@ frame_needed = 1, uses_anonymous_args = 0
 1276 0000 80B5     		push	{r7, lr}
 1277              	.LCFI92:
 1278              		.cfi_def_cfa_offset 8
 1279              		.cfi_offset 7, -8
 1280              		.cfi_offset 14, -4
 1281 0002 84B0     		sub	sp, sp, #16
 1282              	.LCFI93:
 1283              		.cfi_def_cfa_offset 24
 1284 0004 00AF     		add	r7, sp, #0
 1285              	.LCFI94:
 1286              		.cfi_def_cfa_register 7
 1287 0006 F860     		str	r0, [r7, #12]
 1288 0008 B960     		str	r1, [r7, #8]
 1289 000a 7A60     		str	r2, [r7, #4]
 1290 000c 3B60     		str	r3, [r7]
 251:E:/LiteOS/LiteOS_Lab/iot_link/os/os_imp/liteos/base/mem/common\los_slab.c ****     *puwItemSz = pstAllocator->uwItemSz;
 1291              		.loc 1 251 0
 1292 000e FB68     		ldr	r3, [r7, #12]
 1293 0010 1A68     		ldr	r2, [r3]
 1294 0012 BB68     		ldr	r3, [r7, #8]
 1295 0014 1A60     		str	r2, [r3]
 252:E:/LiteOS/LiteOS_Lab/iot_link/os/os_imp/liteos/base/mem/common\los_slab.c ****     *puwItemCnt = osAtomicBitsetGetNumBits(pstAllocator->bitset);
 1296              		.loc 1 252 0
 1297 0016 FB68     		ldr	r3, [r7, #12]
 1298 0018 9B68     		ldr	r3, [r3, #8]
 1299 001a 1846     		mov	r0, r3
 1300 001c FFF7FEFF 		bl	osAtomicBitsetGetNumBits
 1301 0020 0246     		mov	r2, r0
 1302 0022 7B68     		ldr	r3, [r7, #4]
 1303 0024 1A60     		str	r2, [r3]
 253:E:/LiteOS/LiteOS_Lab/iot_link/os/os_imp/liteos/base/mem/common\los_slab.c ****     *puwCurUsage = osSlabAllocatorGetUsedItemCnt(pstAllocator);
 1304              		.loc 1 253 0
 1305 0026 F868     		ldr	r0, [r7, #12]
 1306 0028 FFF7FEFF 		bl	osSlabAllocatorGetUsedItemCnt
 1307 002c 0246     		mov	r2, r0
 1308 002e 3B68     		ldr	r3, [r7]
 1309 0030 1A60     		str	r2, [r3]
 254:E:/LiteOS/LiteOS_Lab/iot_link/os/os_imp/liteos/base/mem/common\los_slab.c **** }
 1310              		.loc 1 254 0
 1311 0032 00BF     		nop
 1312 0034 1037     		adds	r7, r7, #16
 1313              	.LCFI95:
ARM GAS  C:\Users\user\AppData\Local\Temp\ccih2pX4.s 			page 28


 1314              		.cfi_def_cfa_offset 8
 1315 0036 BD46     		mov	sp, r7
 1316              	.LCFI96:
 1317              		.cfi_def_cfa_register 13
 1318              		@ sp needed
 1319 0038 80BD     		pop	{r7, pc}
 1320              		.cfi_endproc
 1321              	.LFE150:
 1323              		.section	.text.osSlabAllocatorCheck,"ax",%progbits
 1324              		.align	1
 1325              		.global	osSlabAllocatorCheck
 1326              		.syntax unified
 1327              		.thumb
 1328              		.thumb_func
 1329              		.fpu fpv4-sp-d16
 1331              	osSlabAllocatorCheck:
 1332              	.LFB151:
 255:E:/LiteOS/LiteOS_Lab/iot_link/os/os_imp/liteos/base/mem/common\los_slab.c **** 
 256:E:/LiteOS/LiteOS_Lab/iot_link/os/os_imp/liteos/base/mem/common\los_slab.c **** BOOL osSlabAllocatorCheck(OS_SLAB_ALLOCATOR *pstAllocator, VOID* ptrP)
 257:E:/LiteOS/LiteOS_Lab/iot_link/os/os_imp/liteos/base/mem/common\los_slab.c **** {
 1333              		.loc 1 257 0
 1334              		.cfi_startproc
 1335              		@ args = 0, pretend = 0, frame = 24
 1336              		@ frame_needed = 1, uses_anonymous_args = 0
 1337 0000 80B5     		push	{r7, lr}
 1338              	.LCFI97:
 1339              		.cfi_def_cfa_offset 8
 1340              		.cfi_offset 7, -8
 1341              		.cfi_offset 14, -4
 1342 0002 86B0     		sub	sp, sp, #24
 1343              	.LCFI98:
 1344              		.cfi_def_cfa_offset 32
 1345 0004 00AF     		add	r7, sp, #0
 1346              	.LCFI99:
 1347              		.cfi_def_cfa_register 7
 1348 0006 7860     		str	r0, [r7, #4]
 1349 0008 3960     		str	r1, [r7]
 258:E:/LiteOS/LiteOS_Lab/iot_link/os/os_imp/liteos/base/mem/common\los_slab.c ****     UINT8 *ptr = (UINT8*)ptrP;
 1350              		.loc 1 258 0
 1351 000a 3B68     		ldr	r3, [r7]
 1352 000c 7B61     		str	r3, [r7, #20]
 259:E:/LiteOS/LiteOS_Lab/iot_link/os/os_imp/liteos/base/mem/common\los_slab.c ****     UINT32 uwItemOffset = ptr - pstAllocator->ucDataChunks;
 1353              		.loc 1 259 0
 1354 000e 7B69     		ldr	r3, [r7, #20]
 1355 0010 7A68     		ldr	r2, [r7, #4]
 1356 0012 5268     		ldr	r2, [r2, #4]
 1357 0014 9B1A     		subs	r3, r3, r2
 1358 0016 3B61     		str	r3, [r7, #16]
 260:E:/LiteOS/LiteOS_Lab/iot_link/os/os_imp/liteos/base/mem/common\los_slab.c ****     UINT32 uwItemIdx = uwItemOffset / pstAllocator->uwItemSz;
 1359              		.loc 1 260 0
 1360 0018 7B68     		ldr	r3, [r7, #4]
 1361 001a 1B68     		ldr	r3, [r3]
 1362 001c 3A69     		ldr	r2, [r7, #16]
 1363 001e B2FBF3F3 		udiv	r3, r2, r3
 1364 0022 FB60     		str	r3, [r7, #12]
 261:E:/LiteOS/LiteOS_Lab/iot_link/os/os_imp/liteos/base/mem/common\los_slab.c **** 
 262:E:/LiteOS/LiteOS_Lab/iot_link/os/os_imp/liteos/base/mem/common\los_slab.c ****     //check for invalid inputs
ARM GAS  C:\Users\user\AppData\Local\Temp\ccih2pX4.s 			page 29


 263:E:/LiteOS/LiteOS_Lab/iot_link/os/os_imp/liteos/base/mem/common\los_slab.c **** 
 264:E:/LiteOS/LiteOS_Lab/iot_link/os/os_imp/liteos/base/mem/common\los_slab.c ****     if ((uwItemOffset % pstAllocator->uwItemSz) || (uwItemIdx >= osAtomicBitsetGetNumBits(pstAlloca
 1365              		.loc 1 264 0
 1366 0024 7B68     		ldr	r3, [r7, #4]
 1367 0026 1A68     		ldr	r2, [r3]
 1368 0028 3B69     		ldr	r3, [r7, #16]
 1369 002a B3FBF2F1 		udiv	r1, r3, r2
 1370 002e 02FB01F2 		mul	r2, r2, r1
 1371 0032 9B1A     		subs	r3, r3, r2
 1372 0034 002B     		cmp	r3, #0
 1373 0036 11D1     		bne	.L61
 1374              		.loc 1 264 0 is_stmt 0 discriminator 1
 1375 0038 7B68     		ldr	r3, [r7, #4]
 1376 003a 9B68     		ldr	r3, [r3, #8]
 1377 003c 1846     		mov	r0, r3
 1378 003e FFF7FEFF 		bl	osAtomicBitsetGetNumBits
 1379 0042 0246     		mov	r2, r0
 1380 0044 FB68     		ldr	r3, [r7, #12]
 1381 0046 9342     		cmp	r3, r2
 1382 0048 08D2     		bcs	.L61
 265:E:/LiteOS/LiteOS_Lab/iot_link/os/os_imp/liteos/base/mem/common\los_slab.c ****         || !osAtomicBitsetGetBit(pstAllocator->bitset, uwItemIdx))
 1383              		.loc 1 265 0 is_stmt 1
 1384 004a 7B68     		ldr	r3, [r7, #4]
 1385 004c 9B68     		ldr	r3, [r3, #8]
 1386 004e F968     		ldr	r1, [r7, #12]
 1387 0050 1846     		mov	r0, r3
 1388 0052 FFF7FEFF 		bl	osAtomicBitsetGetBit
 1389 0056 0346     		mov	r3, r0
 1390 0058 002B     		cmp	r3, #0
 1391 005a 01D1     		bne	.L62
 1392              	.L61:
 266:E:/LiteOS/LiteOS_Lab/iot_link/os/os_imp/liteos/base/mem/common\los_slab.c ****         return FALSE;
 1393              		.loc 1 266 0
 1394 005c 0023     		movs	r3, #0
 1395 005e 00E0     		b	.L63
 1396              	.L62:
 267:E:/LiteOS/LiteOS_Lab/iot_link/os/os_imp/liteos/base/mem/common\los_slab.c **** 
 268:E:/LiteOS/LiteOS_Lab/iot_link/os/os_imp/liteos/base/mem/common\los_slab.c ****     return TRUE;
 1397              		.loc 1 268 0
 1398 0060 0123     		movs	r3, #1
 1399              	.L63:
 269:E:/LiteOS/LiteOS_Lab/iot_link/os/os_imp/liteos/base/mem/common\los_slab.c **** }
 1400              		.loc 1 269 0
 1401 0062 1846     		mov	r0, r3
 1402 0064 1837     		adds	r7, r7, #24
 1403              	.LCFI100:
 1404              		.cfi_def_cfa_offset 8
 1405 0066 BD46     		mov	sp, r7
 1406              	.LCFI101:
 1407              		.cfi_def_cfa_register 13
 1408              		@ sp needed
 1409 0068 80BD     		pop	{r7, pc}
 1410              		.cfi_endproc
 1411              	.LFE151:
 1413              		.text
 1414              	.Letext0:
 1415              		.file 2 "e:\\ac6\\systemworkbench\\plugins\\fr.ac6.mcu.externaltools.arm-none.win32_1.16.0.2018071
ARM GAS  C:\Users\user\AppData\Local\Temp\ccih2pX4.s 			page 30


 1416              		.file 3 "e:\\ac6\\systemworkbench\\plugins\\fr.ac6.mcu.externaltools.arm-none.win32_1.16.0.2018071
 1417              		.file 4 "e:\\ac6\\systemworkbench\\plugins\\fr.ac6.mcu.externaltools.arm-none.win32_1.16.0.2018071
 1418              		.file 5 "e:\\ac6\\systemworkbench\\plugins\\fr.ac6.mcu.externaltools.arm-none.win32_1.16.0.2018071
 1419              		.file 6 "e:\\ac6\\systemworkbench\\plugins\\fr.ac6.mcu.externaltools.arm-none.win32_1.16.0.2018071
 1420              		.file 7 "e:\\ac6\\systemworkbench\\plugins\\fr.ac6.mcu.externaltools.arm-none.win32_1.16.0.2018071
 1421              		.file 8 "E:/LiteOS/LiteOS_Lab/iot_link/os/os_imp/liteos/include/los_typedef.h"
 1422              		.file 9 "E:/LiteOS/LiteOS_Lab/iot_link/os/os_imp/liteos/arch/arm/common/cmsis/core_cm4.h"
 1423              		.file 10 "E:/LiteOS/LiteOS_Lab/targets/STM32L431_BearPi/Inc/system_stm32l4xx.h"
 1424              		.file 11 "E:/LiteOS/LiteOS_Lab/iot_link/os/os_imp/liteos/arch/arm/arm-m/include/los_hwi.h"
 1425              		.file 12 "E:/LiteOS/LiteOS_Lab/iot_link/os/os_imp/liteos/include/los_list.h"
 1426              		.file 13 "E:/LiteOS/LiteOS_Lab/iot_link/os/os_imp/liteos/include/los_err.h"
 1427              		.file 14 "E:/LiteOS/LiteOS_Lab/iot_link/os/os_imp/liteos/include/los_tick.h"
 1428              		.file 15 "E:/LiteOS/LiteOS_Lab/iot_link/os/os_imp/liteos/include/los_event.h"
 1429              		.file 16 "E:/LiteOS/LiteOS_Lab/iot_link/os/os_imp/liteos/include/los_task.h"
 1430              		.file 17 "E:/LiteOS/LiteOS_Lab/iot_link/os/os_imp/liteos/base/include/los_task.ph"
 1431              		.file 18 "E:/LiteOS/LiteOS_Lab/targets/STM32L431_BearPi/Inc/main.h"
 1432              		.file 19 "E:/LiteOS/LiteOS_Lab/iot_link/os/os_imp/liteos/include/los_config.h"
 1433              		.file 20 "E:/LiteOS/LiteOS_Lab/iot_link/os/os_imp/liteos/base/include/los_slab.ph"
ARM GAS  C:\Users\user\AppData\Local\Temp\ccih2pX4.s 			page 31

