ARM GAS  C:\Users\user\AppData\Local\Temp\ccwjVawZ.s 			page 1


   1              		.cpu cortex-m4
   2              		.eabi_attribute 27, 1
   3              		.eabi_attribute 28, 1
   4              		.eabi_attribute 20, 1
   5              		.eabi_attribute 21, 1
   6              		.eabi_attribute 23, 3
   7              		.eabi_attribute 24, 1
   8              		.eabi_attribute 25, 1
   9              		.eabi_attribute 26, 1
  10              		.eabi_attribute 30, 6
  11              		.eabi_attribute 34, 1
  12              		.eabi_attribute 18, 4
  13              		.file	"osal.c"
  14              		.text
  15              	.Ltext0:
  16              		.cfi_sections	.debug_frame
  17              		.section	.bss.s_os_cb,"aw",%nobits
  18              		.align	2
  21              	s_os_cb:
  22 0000 00000000 		.space	4
  23              		.section	.text.osal_install,"ax",%progbits
  24              		.align	1
  25              		.global	osal_install
  26              		.syntax unified
  27              		.thumb
  28              		.thumb_func
  29              		.fpu fpv4-sp-d16
  31              	osal_install:
  32              	.LFB3:
  33              		.file 1 "E:/LiteOS/LiteOS_Lab/iot_link/os/osal/osal.c"
   1:E:/LiteOS/LiteOS_Lab/iot_link/os/osal\osal.c **** 
   2:E:/LiteOS/LiteOS_Lab/iot_link/os/osal\osal.c **** #include <stddef.h>
   3:E:/LiteOS/LiteOS_Lab/iot_link/os/osal\osal.c **** #include <stdint.h>
   4:E:/LiteOS/LiteOS_Lab/iot_link/os/osal\osal.c **** #include <stdlib.h>
   5:E:/LiteOS/LiteOS_Lab/iot_link/os/osal\osal.c **** 
   6:E:/LiteOS/LiteOS_Lab/iot_link/os/osal\osal.c **** 
   7:E:/LiteOS/LiteOS_Lab/iot_link/os/osal\osal.c **** #include <string.h>
   8:E:/LiteOS/LiteOS_Lab/iot_link/os/osal\osal.c **** 
   9:E:/LiteOS/LiteOS_Lab/iot_link/os/osal\osal.c **** #include <osal_imp.h>
  10:E:/LiteOS/LiteOS_Lab/iot_link/os/osal\osal.c **** #include <osal.h>
  11:E:/LiteOS/LiteOS_Lab/iot_link/os/osal\osal.c **** 
  12:E:/LiteOS/LiteOS_Lab/iot_link/os/osal\osal.c **** static const tag_os *s_os_cb = NULL;
  13:E:/LiteOS/LiteOS_Lab/iot_link/os/osal\osal.c **** 
  14:E:/LiteOS/LiteOS_Lab/iot_link/os/osal\osal.c **** int osal_install(const tag_os *os)
  15:E:/LiteOS/LiteOS_Lab/iot_link/os/osal\osal.c **** {
  34              		.loc 1 15 0
  35              		.cfi_startproc
  36              		@ args = 0, pretend = 0, frame = 16
  37              		@ frame_needed = 1, uses_anonymous_args = 0
  38              		@ link register save eliminated.
  39 0000 80B4     		push	{r7}
  40              	.LCFI0:
  41              		.cfi_def_cfa_offset 4
  42              		.cfi_offset 7, -4
  43 0002 85B0     		sub	sp, sp, #20
  44              	.LCFI1:
  45              		.cfi_def_cfa_offset 24
ARM GAS  C:\Users\user\AppData\Local\Temp\ccwjVawZ.s 			page 2


  46 0004 00AF     		add	r7, sp, #0
  47              	.LCFI2:
  48              		.cfi_def_cfa_register 7
  49 0006 7860     		str	r0, [r7, #4]
  16:E:/LiteOS/LiteOS_Lab/iot_link/os/osal\osal.c ****     int ret = -1;
  50              		.loc 1 16 0
  51 0008 4FF0FF33 		mov	r3, #-1
  52 000c FB60     		str	r3, [r7, #12]
  17:E:/LiteOS/LiteOS_Lab/iot_link/os/osal\osal.c **** 
  18:E:/LiteOS/LiteOS_Lab/iot_link/os/osal\osal.c ****     if(NULL == s_os_cb)
  53              		.loc 1 18 0
  54 000e 084B     		ldr	r3, .L4
  55 0010 1B68     		ldr	r3, [r3]
  56 0012 002B     		cmp	r3, #0
  57 0014 04D1     		bne	.L2
  19:E:/LiteOS/LiteOS_Lab/iot_link/os/osal\osal.c ****     {
  20:E:/LiteOS/LiteOS_Lab/iot_link/os/osal\osal.c ****         s_os_cb = os;
  58              		.loc 1 20 0
  59 0016 064A     		ldr	r2, .L4
  60 0018 7B68     		ldr	r3, [r7, #4]
  61 001a 1360     		str	r3, [r2]
  21:E:/LiteOS/LiteOS_Lab/iot_link/os/osal\osal.c ****         ret = 0;
  62              		.loc 1 21 0
  63 001c 0023     		movs	r3, #0
  64 001e FB60     		str	r3, [r7, #12]
  65              	.L2:
  22:E:/LiteOS/LiteOS_Lab/iot_link/os/osal\osal.c ****     }
  23:E:/LiteOS/LiteOS_Lab/iot_link/os/osal\osal.c **** 
  24:E:/LiteOS/LiteOS_Lab/iot_link/os/osal\osal.c ****     return ret;
  66              		.loc 1 24 0
  67 0020 FB68     		ldr	r3, [r7, #12]
  25:E:/LiteOS/LiteOS_Lab/iot_link/os/osal\osal.c **** }
  68              		.loc 1 25 0
  69 0022 1846     		mov	r0, r3
  70 0024 1437     		adds	r7, r7, #20
  71              	.LCFI3:
  72              		.cfi_def_cfa_offset 4
  73 0026 BD46     		mov	sp, r7
  74              	.LCFI4:
  75              		.cfi_def_cfa_register 13
  76              		@ sp needed
  77 0028 5DF8047B 		ldr	r7, [sp], #4
  78              	.LCFI5:
  79              		.cfi_restore 7
  80              		.cfi_def_cfa_offset 0
  81 002c 7047     		bx	lr
  82              	.L5:
  83 002e 00BF     		.align	2
  84              	.L4:
  85 0030 00000000 		.word	s_os_cb
  86              		.cfi_endproc
  87              	.LFE3:
  89              		.section	.text.osal_task_create,"ax",%progbits
  90              		.align	1
  91              		.global	osal_task_create
  92              		.syntax unified
  93              		.thumb
ARM GAS  C:\Users\user\AppData\Local\Temp\ccwjVawZ.s 			page 3


  94              		.thumb_func
  95              		.fpu fpv4-sp-d16
  97              	osal_task_create:
  98              	.LFB4:
  26:E:/LiteOS/LiteOS_Lab/iot_link/os/osal\osal.c **** 
  27:E:/LiteOS/LiteOS_Lab/iot_link/os/osal\osal.c **** 
  28:E:/LiteOS/LiteOS_Lab/iot_link/os/osal\osal.c **** void* osal_task_create(const char *name,int (*task_entry)(void *args),\
  29:E:/LiteOS/LiteOS_Lab/iot_link/os/osal\osal.c ****                       void *args,int stack_size,void *stack,int prior)
  30:E:/LiteOS/LiteOS_Lab/iot_link/os/osal\osal.c **** {
  99              		.loc 1 30 0
 100              		.cfi_startproc
 101              		@ args = 8, pretend = 0, frame = 24
 102              		@ frame_needed = 1, uses_anonymous_args = 0
 103 0000 90B5     		push	{r4, r7, lr}
 104              	.LCFI6:
 105              		.cfi_def_cfa_offset 12
 106              		.cfi_offset 4, -12
 107              		.cfi_offset 7, -8
 108              		.cfi_offset 14, -4
 109 0002 89B0     		sub	sp, sp, #36
 110              	.LCFI7:
 111              		.cfi_def_cfa_offset 48
 112 0004 02AF     		add	r7, sp, #8
 113              	.LCFI8:
 114              		.cfi_def_cfa 7, 40
 115 0006 F860     		str	r0, [r7, #12]
 116 0008 B960     		str	r1, [r7, #8]
 117 000a 7A60     		str	r2, [r7, #4]
 118 000c 3B60     		str	r3, [r7]
  31:E:/LiteOS/LiteOS_Lab/iot_link/os/osal\osal.c ****     void *ret = NULL;
 119              		.loc 1 31 0
 120 000e 0023     		movs	r3, #0
 121 0010 7B61     		str	r3, [r7, #20]
  32:E:/LiteOS/LiteOS_Lab/iot_link/os/osal\osal.c **** 
  33:E:/LiteOS/LiteOS_Lab/iot_link/os/osal\osal.c ****     if((NULL != s_os_cb) &&(NULL != s_os_cb->ops) &&(NULL != s_os_cb->ops->task_create))
 122              		.loc 1 33 0
 123 0012 114B     		ldr	r3, .L9
 124 0014 1B68     		ldr	r3, [r3]
 125 0016 002B     		cmp	r3, #0
 126 0018 18D0     		beq	.L7
 127              		.loc 1 33 0 is_stmt 0 discriminator 1
 128 001a 0F4B     		ldr	r3, .L9
 129 001c 1B68     		ldr	r3, [r3]
 130 001e 5B68     		ldr	r3, [r3, #4]
 131 0020 002B     		cmp	r3, #0
 132 0022 13D0     		beq	.L7
 133              		.loc 1 33 0 discriminator 2
 134 0024 0C4B     		ldr	r3, .L9
 135 0026 1B68     		ldr	r3, [r3]
 136 0028 5B68     		ldr	r3, [r3, #4]
 137 002a 1B68     		ldr	r3, [r3]
 138 002c 002B     		cmp	r3, #0
 139 002e 0DD0     		beq	.L7
  34:E:/LiteOS/LiteOS_Lab/iot_link/os/osal\osal.c ****     {
  35:E:/LiteOS/LiteOS_Lab/iot_link/os/osal\osal.c ****         ret = s_os_cb->ops->task_create(name, task_entry,args,stack_size,stack,prior);
 140              		.loc 1 35 0 is_stmt 1
 141 0030 094B     		ldr	r3, .L9
ARM GAS  C:\Users\user\AppData\Local\Temp\ccwjVawZ.s 			page 4


 142 0032 1B68     		ldr	r3, [r3]
 143 0034 5B68     		ldr	r3, [r3, #4]
 144 0036 1C68     		ldr	r4, [r3]
 145 0038 FB6A     		ldr	r3, [r7, #44]
 146 003a 0193     		str	r3, [sp, #4]
 147 003c BB6A     		ldr	r3, [r7, #40]
 148 003e 0093     		str	r3, [sp]
 149 0040 3B68     		ldr	r3, [r7]
 150 0042 7A68     		ldr	r2, [r7, #4]
 151 0044 B968     		ldr	r1, [r7, #8]
 152 0046 F868     		ldr	r0, [r7, #12]
 153 0048 A047     		blx	r4
 154              	.LVL0:
 155 004a 7861     		str	r0, [r7, #20]
 156              	.L7:
  36:E:/LiteOS/LiteOS_Lab/iot_link/os/osal\osal.c ****     }
  37:E:/LiteOS/LiteOS_Lab/iot_link/os/osal\osal.c **** 
  38:E:/LiteOS/LiteOS_Lab/iot_link/os/osal\osal.c ****     return ret;
 157              		.loc 1 38 0
 158 004c 7B69     		ldr	r3, [r7, #20]
  39:E:/LiteOS/LiteOS_Lab/iot_link/os/osal\osal.c **** }
 159              		.loc 1 39 0
 160 004e 1846     		mov	r0, r3
 161 0050 1C37     		adds	r7, r7, #28
 162              	.LCFI9:
 163              		.cfi_def_cfa_offset 12
 164 0052 BD46     		mov	sp, r7
 165              	.LCFI10:
 166              		.cfi_def_cfa_register 13
 167              		@ sp needed
 168 0054 90BD     		pop	{r4, r7, pc}
 169              	.L10:
 170 0056 00BF     		.align	2
 171              	.L9:
 172 0058 00000000 		.word	s_os_cb
 173              		.cfi_endproc
 174              	.LFE4:
 176              		.section	.text.osal_task_kill,"ax",%progbits
 177              		.align	1
 178              		.global	osal_task_kill
 179              		.syntax unified
 180              		.thumb
 181              		.thumb_func
 182              		.fpu fpv4-sp-d16
 184              	osal_task_kill:
 185              	.LFB5:
  40:E:/LiteOS/LiteOS_Lab/iot_link/os/osal\osal.c **** 
  41:E:/LiteOS/LiteOS_Lab/iot_link/os/osal\osal.c **** 
  42:E:/LiteOS/LiteOS_Lab/iot_link/os/osal\osal.c **** int osal_task_kill(void *task)
  43:E:/LiteOS/LiteOS_Lab/iot_link/os/osal\osal.c **** {
 186              		.loc 1 43 0
 187              		.cfi_startproc
 188              		@ args = 0, pretend = 0, frame = 16
 189              		@ frame_needed = 1, uses_anonymous_args = 0
 190 0000 80B5     		push	{r7, lr}
 191              	.LCFI11:
 192              		.cfi_def_cfa_offset 8
ARM GAS  C:\Users\user\AppData\Local\Temp\ccwjVawZ.s 			page 5


 193              		.cfi_offset 7, -8
 194              		.cfi_offset 14, -4
 195 0002 84B0     		sub	sp, sp, #16
 196              	.LCFI12:
 197              		.cfi_def_cfa_offset 24
 198 0004 00AF     		add	r7, sp, #0
 199              	.LCFI13:
 200              		.cfi_def_cfa_register 7
 201 0006 7860     		str	r0, [r7, #4]
  44:E:/LiteOS/LiteOS_Lab/iot_link/os/osal\osal.c ****     int ret = -1;
 202              		.loc 1 44 0
 203 0008 4FF0FF33 		mov	r3, #-1
 204 000c FB60     		str	r3, [r7, #12]
  45:E:/LiteOS/LiteOS_Lab/iot_link/os/osal\osal.c **** 
  46:E:/LiteOS/LiteOS_Lab/iot_link/os/osal\osal.c ****     if((NULL != s_os_cb) &&(NULL != s_os_cb->ops) &&(NULL != s_os_cb->ops->task_kill))
 205              		.loc 1 46 0
 206 000e 0D4B     		ldr	r3, .L14
 207 0010 1B68     		ldr	r3, [r3]
 208 0012 002B     		cmp	r3, #0
 209 0014 11D0     		beq	.L12
 210              		.loc 1 46 0 is_stmt 0 discriminator 1
 211 0016 0B4B     		ldr	r3, .L14
 212 0018 1B68     		ldr	r3, [r3]
 213 001a 5B68     		ldr	r3, [r3, #4]
 214 001c 002B     		cmp	r3, #0
 215 001e 0CD0     		beq	.L12
 216              		.loc 1 46 0 discriminator 2
 217 0020 084B     		ldr	r3, .L14
 218 0022 1B68     		ldr	r3, [r3]
 219 0024 5B68     		ldr	r3, [r3, #4]
 220 0026 5B68     		ldr	r3, [r3, #4]
 221 0028 002B     		cmp	r3, #0
 222 002a 06D0     		beq	.L12
  47:E:/LiteOS/LiteOS_Lab/iot_link/os/osal\osal.c ****     {
  48:E:/LiteOS/LiteOS_Lab/iot_link/os/osal\osal.c ****         ret = s_os_cb->ops->task_kill(task);
 223              		.loc 1 48 0 is_stmt 1
 224 002c 054B     		ldr	r3, .L14
 225 002e 1B68     		ldr	r3, [r3]
 226 0030 5B68     		ldr	r3, [r3, #4]
 227 0032 5B68     		ldr	r3, [r3, #4]
 228 0034 7868     		ldr	r0, [r7, #4]
 229 0036 9847     		blx	r3
 230              	.LVL1:
 231 0038 F860     		str	r0, [r7, #12]
 232              	.L12:
  49:E:/LiteOS/LiteOS_Lab/iot_link/os/osal\osal.c ****     }
  50:E:/LiteOS/LiteOS_Lab/iot_link/os/osal\osal.c **** 
  51:E:/LiteOS/LiteOS_Lab/iot_link/os/osal\osal.c ****     return ret;
 233              		.loc 1 51 0
 234 003a FB68     		ldr	r3, [r7, #12]
  52:E:/LiteOS/LiteOS_Lab/iot_link/os/osal\osal.c **** 
  53:E:/LiteOS/LiteOS_Lab/iot_link/os/osal\osal.c **** }
 235              		.loc 1 53 0
 236 003c 1846     		mov	r0, r3
 237 003e 1037     		adds	r7, r7, #16
 238              	.LCFI14:
 239              		.cfi_def_cfa_offset 8
ARM GAS  C:\Users\user\AppData\Local\Temp\ccwjVawZ.s 			page 6


 240 0040 BD46     		mov	sp, r7
 241              	.LCFI15:
 242              		.cfi_def_cfa_register 13
 243              		@ sp needed
 244 0042 80BD     		pop	{r7, pc}
 245              	.L15:
 246              		.align	2
 247              	.L14:
 248 0044 00000000 		.word	s_os_cb
 249              		.cfi_endproc
 250              	.LFE5:
 252              		.section	.text.osal_task_exit,"ax",%progbits
 253              		.align	1
 254              		.global	osal_task_exit
 255              		.syntax unified
 256              		.thumb
 257              		.thumb_func
 258              		.fpu fpv4-sp-d16
 260              	osal_task_exit:
 261              	.LFB6:
  54:E:/LiteOS/LiteOS_Lab/iot_link/os/osal\osal.c **** 
  55:E:/LiteOS/LiteOS_Lab/iot_link/os/osal\osal.c **** 
  56:E:/LiteOS/LiteOS_Lab/iot_link/os/osal\osal.c **** void osal_task_exit()
  57:E:/LiteOS/LiteOS_Lab/iot_link/os/osal\osal.c **** {
 262              		.loc 1 57 0
 263              		.cfi_startproc
 264              		@ args = 0, pretend = 0, frame = 0
 265              		@ frame_needed = 1, uses_anonymous_args = 0
 266 0000 80B5     		push	{r7, lr}
 267              	.LCFI16:
 268              		.cfi_def_cfa_offset 8
 269              		.cfi_offset 7, -8
 270              		.cfi_offset 14, -4
 271 0002 00AF     		add	r7, sp, #0
 272              	.LCFI17:
 273              		.cfi_def_cfa_register 7
  58:E:/LiteOS/LiteOS_Lab/iot_link/os/osal\osal.c **** 
  59:E:/LiteOS/LiteOS_Lab/iot_link/os/osal\osal.c ****     if((NULL != s_os_cb) &&(NULL != s_os_cb->ops) &&(NULL != s_os_cb->ops->task_exit))
 274              		.loc 1 59 0
 275 0004 0B4B     		ldr	r3, .L20
 276 0006 1B68     		ldr	r3, [r3]
 277 0008 002B     		cmp	r3, #0
 278 000a 10D0     		beq	.L19
 279              		.loc 1 59 0 is_stmt 0 discriminator 1
 280 000c 094B     		ldr	r3, .L20
 281 000e 1B68     		ldr	r3, [r3]
 282 0010 5B68     		ldr	r3, [r3, #4]
 283 0012 002B     		cmp	r3, #0
 284 0014 0BD0     		beq	.L19
 285              		.loc 1 59 0 discriminator 2
 286 0016 074B     		ldr	r3, .L20
 287 0018 1B68     		ldr	r3, [r3]
 288 001a 5B68     		ldr	r3, [r3, #4]
 289 001c 9B68     		ldr	r3, [r3, #8]
 290 001e 002B     		cmp	r3, #0
 291 0020 05D0     		beq	.L19
  60:E:/LiteOS/LiteOS_Lab/iot_link/os/osal\osal.c ****     {
ARM GAS  C:\Users\user\AppData\Local\Temp\ccwjVawZ.s 			page 7


  61:E:/LiteOS/LiteOS_Lab/iot_link/os/osal\osal.c ****         s_os_cb->ops->task_exit();
 292              		.loc 1 61 0 is_stmt 1
 293 0022 044B     		ldr	r3, .L20
 294 0024 1B68     		ldr	r3, [r3]
 295 0026 5B68     		ldr	r3, [r3, #4]
 296 0028 9B68     		ldr	r3, [r3, #8]
 297 002a 9847     		blx	r3
 298              	.LVL2:
  62:E:/LiteOS/LiteOS_Lab/iot_link/os/osal\osal.c ****     }
  63:E:/LiteOS/LiteOS_Lab/iot_link/os/osal\osal.c ****     return ;
 299              		.loc 1 63 0
 300 002c 00BF     		nop
 301              	.L19:
 302 002e 00BF     		nop
  64:E:/LiteOS/LiteOS_Lab/iot_link/os/osal\osal.c **** 
  65:E:/LiteOS/LiteOS_Lab/iot_link/os/osal\osal.c **** }
 303              		.loc 1 65 0
 304 0030 80BD     		pop	{r7, pc}
 305              	.L21:
 306 0032 00BF     		.align	2
 307              	.L20:
 308 0034 00000000 		.word	s_os_cb
 309              		.cfi_endproc
 310              	.LFE6:
 312              		.section	.text.osal_task_sleep,"ax",%progbits
 313              		.align	1
 314              		.global	osal_task_sleep
 315              		.syntax unified
 316              		.thumb
 317              		.thumb_func
 318              		.fpu fpv4-sp-d16
 320              	osal_task_sleep:
 321              	.LFB7:
  66:E:/LiteOS/LiteOS_Lab/iot_link/os/osal\osal.c **** 
  67:E:/LiteOS/LiteOS_Lab/iot_link/os/osal\osal.c **** 
  68:E:/LiteOS/LiteOS_Lab/iot_link/os/osal\osal.c **** void osal_task_sleep(int ms)
  69:E:/LiteOS/LiteOS_Lab/iot_link/os/osal\osal.c **** {
 322              		.loc 1 69 0
 323              		.cfi_startproc
 324              		@ args = 0, pretend = 0, frame = 8
 325              		@ frame_needed = 1, uses_anonymous_args = 0
 326 0000 80B5     		push	{r7, lr}
 327              	.LCFI18:
 328              		.cfi_def_cfa_offset 8
 329              		.cfi_offset 7, -8
 330              		.cfi_offset 14, -4
 331 0002 82B0     		sub	sp, sp, #8
 332              	.LCFI19:
 333              		.cfi_def_cfa_offset 16
 334 0004 00AF     		add	r7, sp, #0
 335              	.LCFI20:
 336              		.cfi_def_cfa_register 7
 337 0006 7860     		str	r0, [r7, #4]
  70:E:/LiteOS/LiteOS_Lab/iot_link/os/osal\osal.c ****     if((NULL != s_os_cb) &&(NULL != s_os_cb->ops) &&(NULL != s_os_cb->ops->task_sleep))
 338              		.loc 1 70 0
 339 0008 0C4B     		ldr	r3, .L26
 340 000a 1B68     		ldr	r3, [r3]
ARM GAS  C:\Users\user\AppData\Local\Temp\ccwjVawZ.s 			page 8


 341 000c 002B     		cmp	r3, #0
 342 000e 11D0     		beq	.L25
 343              		.loc 1 70 0 is_stmt 0 discriminator 1
 344 0010 0A4B     		ldr	r3, .L26
 345 0012 1B68     		ldr	r3, [r3]
 346 0014 5B68     		ldr	r3, [r3, #4]
 347 0016 002B     		cmp	r3, #0
 348 0018 0CD0     		beq	.L25
 349              		.loc 1 70 0 discriminator 2
 350 001a 084B     		ldr	r3, .L26
 351 001c 1B68     		ldr	r3, [r3]
 352 001e 5B68     		ldr	r3, [r3, #4]
 353 0020 DB68     		ldr	r3, [r3, #12]
 354 0022 002B     		cmp	r3, #0
 355 0024 06D0     		beq	.L25
  71:E:/LiteOS/LiteOS_Lab/iot_link/os/osal\osal.c ****     {
  72:E:/LiteOS/LiteOS_Lab/iot_link/os/osal\osal.c ****         s_os_cb->ops->task_sleep(ms);
 356              		.loc 1 72 0 is_stmt 1
 357 0026 054B     		ldr	r3, .L26
 358 0028 1B68     		ldr	r3, [r3]
 359 002a 5B68     		ldr	r3, [r3, #4]
 360 002c DB68     		ldr	r3, [r3, #12]
 361 002e 7868     		ldr	r0, [r7, #4]
 362 0030 9847     		blx	r3
 363              	.LVL3:
  73:E:/LiteOS/LiteOS_Lab/iot_link/os/osal\osal.c ****     }
  74:E:/LiteOS/LiteOS_Lab/iot_link/os/osal\osal.c **** 
  75:E:/LiteOS/LiteOS_Lab/iot_link/os/osal\osal.c ****     return ;
 364              		.loc 1 75 0
 365 0032 00BF     		nop
 366              	.L25:
 367 0034 00BF     		nop
  76:E:/LiteOS/LiteOS_Lab/iot_link/os/osal\osal.c **** 
  77:E:/LiteOS/LiteOS_Lab/iot_link/os/osal\osal.c **** }
 368              		.loc 1 77 0
 369 0036 0837     		adds	r7, r7, #8
 370              	.LCFI21:
 371              		.cfi_def_cfa_offset 8
 372 0038 BD46     		mov	sp, r7
 373              	.LCFI22:
 374              		.cfi_def_cfa_register 13
 375              		@ sp needed
 376 003a 80BD     		pop	{r7, pc}
 377              	.L27:
 378              		.align	2
 379              	.L26:
 380 003c 00000000 		.word	s_os_cb
 381              		.cfi_endproc
 382              	.LFE7:
 384              		.section	.text.osal_mutex_create,"ax",%progbits
 385              		.align	1
 386              		.global	osal_mutex_create
 387              		.syntax unified
 388              		.thumb
 389              		.thumb_func
 390              		.fpu fpv4-sp-d16
 392              	osal_mutex_create:
ARM GAS  C:\Users\user\AppData\Local\Temp\ccwjVawZ.s 			page 9


 393              	.LFB8:
  78:E:/LiteOS/LiteOS_Lab/iot_link/os/osal\osal.c **** 
  79:E:/LiteOS/LiteOS_Lab/iot_link/os/osal\osal.c **** 
  80:E:/LiteOS/LiteOS_Lab/iot_link/os/osal\osal.c **** bool_t  osal_mutex_create(osal_mutex_t *mutex)
  81:E:/LiteOS/LiteOS_Lab/iot_link/os/osal\osal.c **** {
 394              		.loc 1 81 0
 395              		.cfi_startproc
 396              		@ args = 0, pretend = 0, frame = 16
 397              		@ frame_needed = 1, uses_anonymous_args = 0
 398 0000 80B5     		push	{r7, lr}
 399              	.LCFI23:
 400              		.cfi_def_cfa_offset 8
 401              		.cfi_offset 7, -8
 402              		.cfi_offset 14, -4
 403 0002 84B0     		sub	sp, sp, #16
 404              	.LCFI24:
 405              		.cfi_def_cfa_offset 24
 406 0004 00AF     		add	r7, sp, #0
 407              	.LCFI25:
 408              		.cfi_def_cfa_register 7
 409 0006 7860     		str	r0, [r7, #4]
  82:E:/LiteOS/LiteOS_Lab/iot_link/os/osal\osal.c ****     bool_t ret = false;
 410              		.loc 1 82 0
 411 0008 0023     		movs	r3, #0
 412 000a FB60     		str	r3, [r7, #12]
  83:E:/LiteOS/LiteOS_Lab/iot_link/os/osal\osal.c **** 
  84:E:/LiteOS/LiteOS_Lab/iot_link/os/osal\osal.c ****     if((NULL != s_os_cb) &&(NULL != s_os_cb->ops) &&(NULL != s_os_cb->ops->mutex_create))
 413              		.loc 1 84 0
 414 000c 0D4B     		ldr	r3, .L31
 415 000e 1B68     		ldr	r3, [r3]
 416 0010 002B     		cmp	r3, #0
 417 0012 11D0     		beq	.L29
 418              		.loc 1 84 0 is_stmt 0 discriminator 1
 419 0014 0B4B     		ldr	r3, .L31
 420 0016 1B68     		ldr	r3, [r3]
 421 0018 5B68     		ldr	r3, [r3, #4]
 422 001a 002B     		cmp	r3, #0
 423 001c 0CD0     		beq	.L29
 424              		.loc 1 84 0 discriminator 2
 425 001e 094B     		ldr	r3, .L31
 426 0020 1B68     		ldr	r3, [r3]
 427 0022 5B68     		ldr	r3, [r3, #4]
 428 0024 1B69     		ldr	r3, [r3, #16]
 429 0026 002B     		cmp	r3, #0
 430 0028 06D0     		beq	.L29
  85:E:/LiteOS/LiteOS_Lab/iot_link/os/osal\osal.c ****     {
  86:E:/LiteOS/LiteOS_Lab/iot_link/os/osal\osal.c ****         ret = s_os_cb->ops->mutex_create(mutex);
 431              		.loc 1 86 0 is_stmt 1
 432 002a 064B     		ldr	r3, .L31
 433 002c 1B68     		ldr	r3, [r3]
 434 002e 5B68     		ldr	r3, [r3, #4]
 435 0030 1B69     		ldr	r3, [r3, #16]
 436 0032 7868     		ldr	r0, [r7, #4]
 437 0034 9847     		blx	r3
 438              	.LVL4:
 439 0036 F860     		str	r0, [r7, #12]
 440              	.L29:
ARM GAS  C:\Users\user\AppData\Local\Temp\ccwjVawZ.s 			page 10


  87:E:/LiteOS/LiteOS_Lab/iot_link/os/osal\osal.c ****     }
  88:E:/LiteOS/LiteOS_Lab/iot_link/os/osal\osal.c **** 
  89:E:/LiteOS/LiteOS_Lab/iot_link/os/osal\osal.c ****     return ret;
 441              		.loc 1 89 0
 442 0038 FB68     		ldr	r3, [r7, #12]
  90:E:/LiteOS/LiteOS_Lab/iot_link/os/osal\osal.c **** 
  91:E:/LiteOS/LiteOS_Lab/iot_link/os/osal\osal.c **** }
 443              		.loc 1 91 0
 444 003a 1846     		mov	r0, r3
 445 003c 1037     		adds	r7, r7, #16
 446              	.LCFI26:
 447              		.cfi_def_cfa_offset 8
 448 003e BD46     		mov	sp, r7
 449              	.LCFI27:
 450              		.cfi_def_cfa_register 13
 451              		@ sp needed
 452 0040 80BD     		pop	{r7, pc}
 453              	.L32:
 454 0042 00BF     		.align	2
 455              	.L31:
 456 0044 00000000 		.word	s_os_cb
 457              		.cfi_endproc
 458              	.LFE8:
 460              		.section	.text.osal_mutex_lock,"ax",%progbits
 461              		.align	1
 462              		.global	osal_mutex_lock
 463              		.syntax unified
 464              		.thumb
 465              		.thumb_func
 466              		.fpu fpv4-sp-d16
 468              	osal_mutex_lock:
 469              	.LFB9:
  92:E:/LiteOS/LiteOS_Lab/iot_link/os/osal\osal.c **** 
  93:E:/LiteOS/LiteOS_Lab/iot_link/os/osal\osal.c **** 
  94:E:/LiteOS/LiteOS_Lab/iot_link/os/osal\osal.c **** bool_t  osal_mutex_lock(osal_mutex_t mutex)
  95:E:/LiteOS/LiteOS_Lab/iot_link/os/osal\osal.c **** {
 470              		.loc 1 95 0
 471              		.cfi_startproc
 472              		@ args = 0, pretend = 0, frame = 16
 473              		@ frame_needed = 1, uses_anonymous_args = 0
 474 0000 80B5     		push	{r7, lr}
 475              	.LCFI28:
 476              		.cfi_def_cfa_offset 8
 477              		.cfi_offset 7, -8
 478              		.cfi_offset 14, -4
 479 0002 84B0     		sub	sp, sp, #16
 480              	.LCFI29:
 481              		.cfi_def_cfa_offset 24
 482 0004 00AF     		add	r7, sp, #0
 483              	.LCFI30:
 484              		.cfi_def_cfa_register 7
 485 0006 7860     		str	r0, [r7, #4]
  96:E:/LiteOS/LiteOS_Lab/iot_link/os/osal\osal.c ****     bool_t ret = false;
 486              		.loc 1 96 0
 487 0008 0023     		movs	r3, #0
 488 000a FB60     		str	r3, [r7, #12]
  97:E:/LiteOS/LiteOS_Lab/iot_link/os/osal\osal.c **** 
ARM GAS  C:\Users\user\AppData\Local\Temp\ccwjVawZ.s 			page 11


  98:E:/LiteOS/LiteOS_Lab/iot_link/os/osal\osal.c ****     if((NULL != s_os_cb) &&(NULL != s_os_cb->ops) &&(NULL != s_os_cb->ops->mutex_lock))
 489              		.loc 1 98 0
 490 000c 0D4B     		ldr	r3, .L36
 491 000e 1B68     		ldr	r3, [r3]
 492 0010 002B     		cmp	r3, #0
 493 0012 11D0     		beq	.L34
 494              		.loc 1 98 0 is_stmt 0 discriminator 1
 495 0014 0B4B     		ldr	r3, .L36
 496 0016 1B68     		ldr	r3, [r3]
 497 0018 5B68     		ldr	r3, [r3, #4]
 498 001a 002B     		cmp	r3, #0
 499 001c 0CD0     		beq	.L34
 500              		.loc 1 98 0 discriminator 2
 501 001e 094B     		ldr	r3, .L36
 502 0020 1B68     		ldr	r3, [r3]
 503 0022 5B68     		ldr	r3, [r3, #4]
 504 0024 5B69     		ldr	r3, [r3, #20]
 505 0026 002B     		cmp	r3, #0
 506 0028 06D0     		beq	.L34
  99:E:/LiteOS/LiteOS_Lab/iot_link/os/osal\osal.c ****     {
 100:E:/LiteOS/LiteOS_Lab/iot_link/os/osal\osal.c ****         ret = s_os_cb->ops->mutex_lock(mutex);
 507              		.loc 1 100 0 is_stmt 1
 508 002a 064B     		ldr	r3, .L36
 509 002c 1B68     		ldr	r3, [r3]
 510 002e 5B68     		ldr	r3, [r3, #4]
 511 0030 5B69     		ldr	r3, [r3, #20]
 512 0032 7868     		ldr	r0, [r7, #4]
 513 0034 9847     		blx	r3
 514              	.LVL5:
 515 0036 F860     		str	r0, [r7, #12]
 516              	.L34:
 101:E:/LiteOS/LiteOS_Lab/iot_link/os/osal\osal.c ****     }
 102:E:/LiteOS/LiteOS_Lab/iot_link/os/osal\osal.c **** 
 103:E:/LiteOS/LiteOS_Lab/iot_link/os/osal\osal.c ****     return ret;
 517              		.loc 1 103 0
 518 0038 FB68     		ldr	r3, [r7, #12]
 104:E:/LiteOS/LiteOS_Lab/iot_link/os/osal\osal.c **** 
 105:E:/LiteOS/LiteOS_Lab/iot_link/os/osal\osal.c **** }
 519              		.loc 1 105 0
 520 003a 1846     		mov	r0, r3
 521 003c 1037     		adds	r7, r7, #16
 522              	.LCFI31:
 523              		.cfi_def_cfa_offset 8
 524 003e BD46     		mov	sp, r7
 525              	.LCFI32:
 526              		.cfi_def_cfa_register 13
 527              		@ sp needed
 528 0040 80BD     		pop	{r7, pc}
 529              	.L37:
 530 0042 00BF     		.align	2
 531              	.L36:
 532 0044 00000000 		.word	s_os_cb
 533              		.cfi_endproc
 534              	.LFE9:
 536              		.section	.text.osal_mutex_unlock,"ax",%progbits
 537              		.align	1
 538              		.global	osal_mutex_unlock
ARM GAS  C:\Users\user\AppData\Local\Temp\ccwjVawZ.s 			page 12


 539              		.syntax unified
 540              		.thumb
 541              		.thumb_func
 542              		.fpu fpv4-sp-d16
 544              	osal_mutex_unlock:
 545              	.LFB10:
 106:E:/LiteOS/LiteOS_Lab/iot_link/os/osal\osal.c **** 
 107:E:/LiteOS/LiteOS_Lab/iot_link/os/osal\osal.c **** 
 108:E:/LiteOS/LiteOS_Lab/iot_link/os/osal\osal.c **** bool_t  osal_mutex_unlock(osal_mutex_t mutex)
 109:E:/LiteOS/LiteOS_Lab/iot_link/os/osal\osal.c **** {
 546              		.loc 1 109 0
 547              		.cfi_startproc
 548              		@ args = 0, pretend = 0, frame = 16
 549              		@ frame_needed = 1, uses_anonymous_args = 0
 550 0000 80B5     		push	{r7, lr}
 551              	.LCFI33:
 552              		.cfi_def_cfa_offset 8
 553              		.cfi_offset 7, -8
 554              		.cfi_offset 14, -4
 555 0002 84B0     		sub	sp, sp, #16
 556              	.LCFI34:
 557              		.cfi_def_cfa_offset 24
 558 0004 00AF     		add	r7, sp, #0
 559              	.LCFI35:
 560              		.cfi_def_cfa_register 7
 561 0006 7860     		str	r0, [r7, #4]
 110:E:/LiteOS/LiteOS_Lab/iot_link/os/osal\osal.c ****     bool_t ret = false;
 562              		.loc 1 110 0
 563 0008 0023     		movs	r3, #0
 564 000a FB60     		str	r3, [r7, #12]
 111:E:/LiteOS/LiteOS_Lab/iot_link/os/osal\osal.c **** 
 112:E:/LiteOS/LiteOS_Lab/iot_link/os/osal\osal.c ****     if((NULL != s_os_cb) &&(NULL != s_os_cb->ops) &&(NULL != s_os_cb->ops->mutex_unlock))
 565              		.loc 1 112 0
 566 000c 0D4B     		ldr	r3, .L41
 567 000e 1B68     		ldr	r3, [r3]
 568 0010 002B     		cmp	r3, #0
 569 0012 11D0     		beq	.L39
 570              		.loc 1 112 0 is_stmt 0 discriminator 1
 571 0014 0B4B     		ldr	r3, .L41
 572 0016 1B68     		ldr	r3, [r3]
 573 0018 5B68     		ldr	r3, [r3, #4]
 574 001a 002B     		cmp	r3, #0
 575 001c 0CD0     		beq	.L39
 576              		.loc 1 112 0 discriminator 2
 577 001e 094B     		ldr	r3, .L41
 578 0020 1B68     		ldr	r3, [r3]
 579 0022 5B68     		ldr	r3, [r3, #4]
 580 0024 9B69     		ldr	r3, [r3, #24]
 581 0026 002B     		cmp	r3, #0
 582 0028 06D0     		beq	.L39
 113:E:/LiteOS/LiteOS_Lab/iot_link/os/osal\osal.c ****     {
 114:E:/LiteOS/LiteOS_Lab/iot_link/os/osal\osal.c ****         ret = s_os_cb->ops->mutex_unlock(mutex);
 583              		.loc 1 114 0 is_stmt 1
 584 002a 064B     		ldr	r3, .L41
 585 002c 1B68     		ldr	r3, [r3]
 586 002e 5B68     		ldr	r3, [r3, #4]
 587 0030 9B69     		ldr	r3, [r3, #24]
ARM GAS  C:\Users\user\AppData\Local\Temp\ccwjVawZ.s 			page 13


 588 0032 7868     		ldr	r0, [r7, #4]
 589 0034 9847     		blx	r3
 590              	.LVL6:
 591 0036 F860     		str	r0, [r7, #12]
 592              	.L39:
 115:E:/LiteOS/LiteOS_Lab/iot_link/os/osal\osal.c ****     }
 116:E:/LiteOS/LiteOS_Lab/iot_link/os/osal\osal.c **** 
 117:E:/LiteOS/LiteOS_Lab/iot_link/os/osal\osal.c ****     return ret;
 593              		.loc 1 117 0
 594 0038 FB68     		ldr	r3, [r7, #12]
 118:E:/LiteOS/LiteOS_Lab/iot_link/os/osal\osal.c **** 
 119:E:/LiteOS/LiteOS_Lab/iot_link/os/osal\osal.c **** }
 595              		.loc 1 119 0
 596 003a 1846     		mov	r0, r3
 597 003c 1037     		adds	r7, r7, #16
 598              	.LCFI36:
 599              		.cfi_def_cfa_offset 8
 600 003e BD46     		mov	sp, r7
 601              	.LCFI37:
 602              		.cfi_def_cfa_register 13
 603              		@ sp needed
 604 0040 80BD     		pop	{r7, pc}
 605              	.L42:
 606 0042 00BF     		.align	2
 607              	.L41:
 608 0044 00000000 		.word	s_os_cb
 609              		.cfi_endproc
 610              	.LFE10:
 612              		.section	.text.osal_mutex_del,"ax",%progbits
 613              		.align	1
 614              		.global	osal_mutex_del
 615              		.syntax unified
 616              		.thumb
 617              		.thumb_func
 618              		.fpu fpv4-sp-d16
 620              	osal_mutex_del:
 621              	.LFB11:
 120:E:/LiteOS/LiteOS_Lab/iot_link/os/osal\osal.c **** 
 121:E:/LiteOS/LiteOS_Lab/iot_link/os/osal\osal.c **** bool_t  osal_mutex_del(osal_mutex_t mutex)
 122:E:/LiteOS/LiteOS_Lab/iot_link/os/osal\osal.c **** {
 622              		.loc 1 122 0
 623              		.cfi_startproc
 624              		@ args = 0, pretend = 0, frame = 16
 625              		@ frame_needed = 1, uses_anonymous_args = 0
 626 0000 80B5     		push	{r7, lr}
 627              	.LCFI38:
 628              		.cfi_def_cfa_offset 8
 629              		.cfi_offset 7, -8
 630              		.cfi_offset 14, -4
 631 0002 84B0     		sub	sp, sp, #16
 632              	.LCFI39:
 633              		.cfi_def_cfa_offset 24
 634 0004 00AF     		add	r7, sp, #0
 635              	.LCFI40:
 636              		.cfi_def_cfa_register 7
 637 0006 7860     		str	r0, [r7, #4]
 123:E:/LiteOS/LiteOS_Lab/iot_link/os/osal\osal.c ****     bool_t ret = false;
ARM GAS  C:\Users\user\AppData\Local\Temp\ccwjVawZ.s 			page 14


 638              		.loc 1 123 0
 639 0008 0023     		movs	r3, #0
 640 000a FB60     		str	r3, [r7, #12]
 124:E:/LiteOS/LiteOS_Lab/iot_link/os/osal\osal.c **** 
 125:E:/LiteOS/LiteOS_Lab/iot_link/os/osal\osal.c ****     if((NULL != s_os_cb) &&(NULL != s_os_cb->ops) &&(NULL != s_os_cb->ops->mutex_del))
 641              		.loc 1 125 0
 642 000c 0D4B     		ldr	r3, .L46
 643 000e 1B68     		ldr	r3, [r3]
 644 0010 002B     		cmp	r3, #0
 645 0012 11D0     		beq	.L44
 646              		.loc 1 125 0 is_stmt 0 discriminator 1
 647 0014 0B4B     		ldr	r3, .L46
 648 0016 1B68     		ldr	r3, [r3]
 649 0018 5B68     		ldr	r3, [r3, #4]
 650 001a 002B     		cmp	r3, #0
 651 001c 0CD0     		beq	.L44
 652              		.loc 1 125 0 discriminator 2
 653 001e 094B     		ldr	r3, .L46
 654 0020 1B68     		ldr	r3, [r3]
 655 0022 5B68     		ldr	r3, [r3, #4]
 656 0024 DB69     		ldr	r3, [r3, #28]
 657 0026 002B     		cmp	r3, #0
 658 0028 06D0     		beq	.L44
 126:E:/LiteOS/LiteOS_Lab/iot_link/os/osal\osal.c ****     {
 127:E:/LiteOS/LiteOS_Lab/iot_link/os/osal\osal.c ****         ret = s_os_cb->ops->mutex_del(mutex);
 659              		.loc 1 127 0 is_stmt 1
 660 002a 064B     		ldr	r3, .L46
 661 002c 1B68     		ldr	r3, [r3]
 662 002e 5B68     		ldr	r3, [r3, #4]
 663 0030 DB69     		ldr	r3, [r3, #28]
 664 0032 7868     		ldr	r0, [r7, #4]
 665 0034 9847     		blx	r3
 666              	.LVL7:
 667 0036 F860     		str	r0, [r7, #12]
 668              	.L44:
 128:E:/LiteOS/LiteOS_Lab/iot_link/os/osal\osal.c ****     }
 129:E:/LiteOS/LiteOS_Lab/iot_link/os/osal\osal.c **** 
 130:E:/LiteOS/LiteOS_Lab/iot_link/os/osal\osal.c ****     return ret;
 669              		.loc 1 130 0
 670 0038 FB68     		ldr	r3, [r7, #12]
 131:E:/LiteOS/LiteOS_Lab/iot_link/os/osal\osal.c **** 
 132:E:/LiteOS/LiteOS_Lab/iot_link/os/osal\osal.c **** }
 671              		.loc 1 132 0
 672 003a 1846     		mov	r0, r3
 673 003c 1037     		adds	r7, r7, #16
 674              	.LCFI41:
 675              		.cfi_def_cfa_offset 8
 676 003e BD46     		mov	sp, r7
 677              	.LCFI42:
 678              		.cfi_def_cfa_register 13
 679              		@ sp needed
 680 0040 80BD     		pop	{r7, pc}
 681              	.L47:
 682 0042 00BF     		.align	2
 683              	.L46:
 684 0044 00000000 		.word	s_os_cb
 685              		.cfi_endproc
ARM GAS  C:\Users\user\AppData\Local\Temp\ccwjVawZ.s 			page 15


 686              	.LFE11:
 688              		.section	.text.osal_semp_create,"ax",%progbits
 689              		.align	1
 690              		.global	osal_semp_create
 691              		.syntax unified
 692              		.thumb
 693              		.thumb_func
 694              		.fpu fpv4-sp-d16
 696              	osal_semp_create:
 697              	.LFB12:
 133:E:/LiteOS/LiteOS_Lab/iot_link/os/osal\osal.c **** 
 134:E:/LiteOS/LiteOS_Lab/iot_link/os/osal\osal.c **** bool_t  osal_semp_create(osal_semp_t *semp,int limit,int initvalue)
 135:E:/LiteOS/LiteOS_Lab/iot_link/os/osal\osal.c **** {
 698              		.loc 1 135 0
 699              		.cfi_startproc
 700              		@ args = 0, pretend = 0, frame = 24
 701              		@ frame_needed = 1, uses_anonymous_args = 0
 702 0000 80B5     		push	{r7, lr}
 703              	.LCFI43:
 704              		.cfi_def_cfa_offset 8
 705              		.cfi_offset 7, -8
 706              		.cfi_offset 14, -4
 707 0002 86B0     		sub	sp, sp, #24
 708              	.LCFI44:
 709              		.cfi_def_cfa_offset 32
 710 0004 00AF     		add	r7, sp, #0
 711              	.LCFI45:
 712              		.cfi_def_cfa_register 7
 713 0006 F860     		str	r0, [r7, #12]
 714 0008 B960     		str	r1, [r7, #8]
 715 000a 7A60     		str	r2, [r7, #4]
 136:E:/LiteOS/LiteOS_Lab/iot_link/os/osal\osal.c ****     bool_t ret = false;
 716              		.loc 1 136 0
 717 000c 0023     		movs	r3, #0
 718 000e 7B61     		str	r3, [r7, #20]
 137:E:/LiteOS/LiteOS_Lab/iot_link/os/osal\osal.c **** 
 138:E:/LiteOS/LiteOS_Lab/iot_link/os/osal\osal.c ****     if((NULL != s_os_cb) &&(NULL != s_os_cb->ops) &&(NULL != s_os_cb->ops->semp_create))
 719              		.loc 1 138 0
 720 0010 0E4B     		ldr	r3, .L51
 721 0012 1B68     		ldr	r3, [r3]
 722 0014 002B     		cmp	r3, #0
 723 0016 13D0     		beq	.L49
 724              		.loc 1 138 0 is_stmt 0 discriminator 1
 725 0018 0C4B     		ldr	r3, .L51
 726 001a 1B68     		ldr	r3, [r3]
 727 001c 5B68     		ldr	r3, [r3, #4]
 728 001e 002B     		cmp	r3, #0
 729 0020 0ED0     		beq	.L49
 730              		.loc 1 138 0 discriminator 2
 731 0022 0A4B     		ldr	r3, .L51
 732 0024 1B68     		ldr	r3, [r3]
 733 0026 5B68     		ldr	r3, [r3, #4]
 734 0028 1B6A     		ldr	r3, [r3, #32]
 735 002a 002B     		cmp	r3, #0
 736 002c 08D0     		beq	.L49
 139:E:/LiteOS/LiteOS_Lab/iot_link/os/osal\osal.c ****     {
 140:E:/LiteOS/LiteOS_Lab/iot_link/os/osal\osal.c ****         ret = s_os_cb->ops->semp_create(semp,limit,initvalue);
ARM GAS  C:\Users\user\AppData\Local\Temp\ccwjVawZ.s 			page 16


 737              		.loc 1 140 0 is_stmt 1
 738 002e 074B     		ldr	r3, .L51
 739 0030 1B68     		ldr	r3, [r3]
 740 0032 5B68     		ldr	r3, [r3, #4]
 741 0034 1B6A     		ldr	r3, [r3, #32]
 742 0036 7A68     		ldr	r2, [r7, #4]
 743 0038 B968     		ldr	r1, [r7, #8]
 744 003a F868     		ldr	r0, [r7, #12]
 745 003c 9847     		blx	r3
 746              	.LVL8:
 747 003e 7861     		str	r0, [r7, #20]
 748              	.L49:
 141:E:/LiteOS/LiteOS_Lab/iot_link/os/osal\osal.c ****     }
 142:E:/LiteOS/LiteOS_Lab/iot_link/os/osal\osal.c **** 
 143:E:/LiteOS/LiteOS_Lab/iot_link/os/osal\osal.c ****     return ret;
 749              		.loc 1 143 0
 750 0040 7B69     		ldr	r3, [r7, #20]
 144:E:/LiteOS/LiteOS_Lab/iot_link/os/osal\osal.c **** 
 145:E:/LiteOS/LiteOS_Lab/iot_link/os/osal\osal.c **** }
 751              		.loc 1 145 0
 752 0042 1846     		mov	r0, r3
 753 0044 1837     		adds	r7, r7, #24
 754              	.LCFI46:
 755              		.cfi_def_cfa_offset 8
 756 0046 BD46     		mov	sp, r7
 757              	.LCFI47:
 758              		.cfi_def_cfa_register 13
 759              		@ sp needed
 760 0048 80BD     		pop	{r7, pc}
 761              	.L52:
 762 004a 00BF     		.align	2
 763              	.L51:
 764 004c 00000000 		.word	s_os_cb
 765              		.cfi_endproc
 766              	.LFE12:
 768              		.section	.text.osal_semp_pend,"ax",%progbits
 769              		.align	1
 770              		.global	osal_semp_pend
 771              		.syntax unified
 772              		.thumb
 773              		.thumb_func
 774              		.fpu fpv4-sp-d16
 776              	osal_semp_pend:
 777              	.LFB13:
 146:E:/LiteOS/LiteOS_Lab/iot_link/os/osal\osal.c **** 
 147:E:/LiteOS/LiteOS_Lab/iot_link/os/osal\osal.c **** bool_t  osal_semp_pend(osal_semp_t semp,int timeout)
 148:E:/LiteOS/LiteOS_Lab/iot_link/os/osal\osal.c **** {
 778              		.loc 1 148 0
 779              		.cfi_startproc
 780              		@ args = 0, pretend = 0, frame = 16
 781              		@ frame_needed = 1, uses_anonymous_args = 0
 782 0000 80B5     		push	{r7, lr}
 783              	.LCFI48:
 784              		.cfi_def_cfa_offset 8
 785              		.cfi_offset 7, -8
 786              		.cfi_offset 14, -4
 787 0002 84B0     		sub	sp, sp, #16
ARM GAS  C:\Users\user\AppData\Local\Temp\ccwjVawZ.s 			page 17


 788              	.LCFI49:
 789              		.cfi_def_cfa_offset 24
 790 0004 00AF     		add	r7, sp, #0
 791              	.LCFI50:
 792              		.cfi_def_cfa_register 7
 793 0006 7860     		str	r0, [r7, #4]
 794 0008 3960     		str	r1, [r7]
 149:E:/LiteOS/LiteOS_Lab/iot_link/os/osal\osal.c ****     bool_t ret = false;
 795              		.loc 1 149 0
 796 000a 0023     		movs	r3, #0
 797 000c FB60     		str	r3, [r7, #12]
 150:E:/LiteOS/LiteOS_Lab/iot_link/os/osal\osal.c **** 
 151:E:/LiteOS/LiteOS_Lab/iot_link/os/osal\osal.c ****     if((NULL != s_os_cb) &&(NULL != s_os_cb->ops) &&(NULL != s_os_cb->ops->semp_pend))
 798              		.loc 1 151 0
 799 000e 0E4B     		ldr	r3, .L56
 800 0010 1B68     		ldr	r3, [r3]
 801 0012 002B     		cmp	r3, #0
 802 0014 12D0     		beq	.L54
 803              		.loc 1 151 0 is_stmt 0 discriminator 1
 804 0016 0C4B     		ldr	r3, .L56
 805 0018 1B68     		ldr	r3, [r3]
 806 001a 5B68     		ldr	r3, [r3, #4]
 807 001c 002B     		cmp	r3, #0
 808 001e 0DD0     		beq	.L54
 809              		.loc 1 151 0 discriminator 2
 810 0020 094B     		ldr	r3, .L56
 811 0022 1B68     		ldr	r3, [r3]
 812 0024 5B68     		ldr	r3, [r3, #4]
 813 0026 5B6A     		ldr	r3, [r3, #36]
 814 0028 002B     		cmp	r3, #0
 815 002a 07D0     		beq	.L54
 152:E:/LiteOS/LiteOS_Lab/iot_link/os/osal\osal.c ****     {
 153:E:/LiteOS/LiteOS_Lab/iot_link/os/osal\osal.c ****         ret = s_os_cb->ops->semp_pend(semp,timeout);
 816              		.loc 1 153 0 is_stmt 1
 817 002c 064B     		ldr	r3, .L56
 818 002e 1B68     		ldr	r3, [r3]
 819 0030 5B68     		ldr	r3, [r3, #4]
 820 0032 5B6A     		ldr	r3, [r3, #36]
 821 0034 3968     		ldr	r1, [r7]
 822 0036 7868     		ldr	r0, [r7, #4]
 823 0038 9847     		blx	r3
 824              	.LVL9:
 825 003a F860     		str	r0, [r7, #12]
 826              	.L54:
 154:E:/LiteOS/LiteOS_Lab/iot_link/os/osal\osal.c ****     }
 155:E:/LiteOS/LiteOS_Lab/iot_link/os/osal\osal.c **** 
 156:E:/LiteOS/LiteOS_Lab/iot_link/os/osal\osal.c ****     return ret;
 827              		.loc 1 156 0
 828 003c FB68     		ldr	r3, [r7, #12]
 157:E:/LiteOS/LiteOS_Lab/iot_link/os/osal\osal.c **** 
 158:E:/LiteOS/LiteOS_Lab/iot_link/os/osal\osal.c **** }
 829              		.loc 1 158 0
 830 003e 1846     		mov	r0, r3
 831 0040 1037     		adds	r7, r7, #16
 832              	.LCFI51:
 833              		.cfi_def_cfa_offset 8
 834 0042 BD46     		mov	sp, r7
ARM GAS  C:\Users\user\AppData\Local\Temp\ccwjVawZ.s 			page 18


 835              	.LCFI52:
 836              		.cfi_def_cfa_register 13
 837              		@ sp needed
 838 0044 80BD     		pop	{r7, pc}
 839              	.L57:
 840 0046 00BF     		.align	2
 841              	.L56:
 842 0048 00000000 		.word	s_os_cb
 843              		.cfi_endproc
 844              	.LFE13:
 846              		.section	.text.osal_semp_post,"ax",%progbits
 847              		.align	1
 848              		.global	osal_semp_post
 849              		.syntax unified
 850              		.thumb
 851              		.thumb_func
 852              		.fpu fpv4-sp-d16
 854              	osal_semp_post:
 855              	.LFB14:
 159:E:/LiteOS/LiteOS_Lab/iot_link/os/osal\osal.c **** 
 160:E:/LiteOS/LiteOS_Lab/iot_link/os/osal\osal.c **** 
 161:E:/LiteOS/LiteOS_Lab/iot_link/os/osal\osal.c **** bool_t  osal_semp_post(osal_semp_t semp)
 162:E:/LiteOS/LiteOS_Lab/iot_link/os/osal\osal.c **** {
 856              		.loc 1 162 0
 857              		.cfi_startproc
 858              		@ args = 0, pretend = 0, frame = 16
 859              		@ frame_needed = 1, uses_anonymous_args = 0
 860 0000 80B5     		push	{r7, lr}
 861              	.LCFI53:
 862              		.cfi_def_cfa_offset 8
 863              		.cfi_offset 7, -8
 864              		.cfi_offset 14, -4
 865 0002 84B0     		sub	sp, sp, #16
 866              	.LCFI54:
 867              		.cfi_def_cfa_offset 24
 868 0004 00AF     		add	r7, sp, #0
 869              	.LCFI55:
 870              		.cfi_def_cfa_register 7
 871 0006 7860     		str	r0, [r7, #4]
 163:E:/LiteOS/LiteOS_Lab/iot_link/os/osal\osal.c ****     bool_t ret = false;
 872              		.loc 1 163 0
 873 0008 0023     		movs	r3, #0
 874 000a FB60     		str	r3, [r7, #12]
 164:E:/LiteOS/LiteOS_Lab/iot_link/os/osal\osal.c **** 
 165:E:/LiteOS/LiteOS_Lab/iot_link/os/osal\osal.c ****     if((NULL != s_os_cb) &&(NULL != s_os_cb->ops) &&(NULL != s_os_cb->ops->semp_post))
 875              		.loc 1 165 0
 876 000c 0D4B     		ldr	r3, .L61
 877 000e 1B68     		ldr	r3, [r3]
 878 0010 002B     		cmp	r3, #0
 879 0012 11D0     		beq	.L59
 880              		.loc 1 165 0 is_stmt 0 discriminator 1
 881 0014 0B4B     		ldr	r3, .L61
 882 0016 1B68     		ldr	r3, [r3]
 883 0018 5B68     		ldr	r3, [r3, #4]
 884 001a 002B     		cmp	r3, #0
 885 001c 0CD0     		beq	.L59
 886              		.loc 1 165 0 discriminator 2
ARM GAS  C:\Users\user\AppData\Local\Temp\ccwjVawZ.s 			page 19


 887 001e 094B     		ldr	r3, .L61
 888 0020 1B68     		ldr	r3, [r3]
 889 0022 5B68     		ldr	r3, [r3, #4]
 890 0024 9B6A     		ldr	r3, [r3, #40]
 891 0026 002B     		cmp	r3, #0
 892 0028 06D0     		beq	.L59
 166:E:/LiteOS/LiteOS_Lab/iot_link/os/osal\osal.c ****     {
 167:E:/LiteOS/LiteOS_Lab/iot_link/os/osal\osal.c ****         ret = s_os_cb->ops->semp_post(semp);
 893              		.loc 1 167 0 is_stmt 1
 894 002a 064B     		ldr	r3, .L61
 895 002c 1B68     		ldr	r3, [r3]
 896 002e 5B68     		ldr	r3, [r3, #4]
 897 0030 9B6A     		ldr	r3, [r3, #40]
 898 0032 7868     		ldr	r0, [r7, #4]
 899 0034 9847     		blx	r3
 900              	.LVL10:
 901 0036 F860     		str	r0, [r7, #12]
 902              	.L59:
 168:E:/LiteOS/LiteOS_Lab/iot_link/os/osal\osal.c ****     }
 169:E:/LiteOS/LiteOS_Lab/iot_link/os/osal\osal.c **** 
 170:E:/LiteOS/LiteOS_Lab/iot_link/os/osal\osal.c ****     return ret;
 903              		.loc 1 170 0
 904 0038 FB68     		ldr	r3, [r7, #12]
 171:E:/LiteOS/LiteOS_Lab/iot_link/os/osal\osal.c **** 
 172:E:/LiteOS/LiteOS_Lab/iot_link/os/osal\osal.c **** }
 905              		.loc 1 172 0
 906 003a 1846     		mov	r0, r3
 907 003c 1037     		adds	r7, r7, #16
 908              	.LCFI56:
 909              		.cfi_def_cfa_offset 8
 910 003e BD46     		mov	sp, r7
 911              	.LCFI57:
 912              		.cfi_def_cfa_register 13
 913              		@ sp needed
 914 0040 80BD     		pop	{r7, pc}
 915              	.L62:
 916 0042 00BF     		.align	2
 917              	.L61:
 918 0044 00000000 		.word	s_os_cb
 919              		.cfi_endproc
 920              	.LFE14:
 922              		.section	.text.osal_semp_del,"ax",%progbits
 923              		.align	1
 924              		.global	osal_semp_del
 925              		.syntax unified
 926              		.thumb
 927              		.thumb_func
 928              		.fpu fpv4-sp-d16
 930              	osal_semp_del:
 931              	.LFB15:
 173:E:/LiteOS/LiteOS_Lab/iot_link/os/osal\osal.c **** 
 174:E:/LiteOS/LiteOS_Lab/iot_link/os/osal\osal.c **** bool_t  osal_semp_del(osal_semp_t semp)
 175:E:/LiteOS/LiteOS_Lab/iot_link/os/osal\osal.c **** {
 932              		.loc 1 175 0
 933              		.cfi_startproc
 934              		@ args = 0, pretend = 0, frame = 16
 935              		@ frame_needed = 1, uses_anonymous_args = 0
ARM GAS  C:\Users\user\AppData\Local\Temp\ccwjVawZ.s 			page 20


 936 0000 80B5     		push	{r7, lr}
 937              	.LCFI58:
 938              		.cfi_def_cfa_offset 8
 939              		.cfi_offset 7, -8
 940              		.cfi_offset 14, -4
 941 0002 84B0     		sub	sp, sp, #16
 942              	.LCFI59:
 943              		.cfi_def_cfa_offset 24
 944 0004 00AF     		add	r7, sp, #0
 945              	.LCFI60:
 946              		.cfi_def_cfa_register 7
 947 0006 7860     		str	r0, [r7, #4]
 176:E:/LiteOS/LiteOS_Lab/iot_link/os/osal\osal.c ****     bool_t ret = false;
 948              		.loc 1 176 0
 949 0008 0023     		movs	r3, #0
 950 000a FB60     		str	r3, [r7, #12]
 177:E:/LiteOS/LiteOS_Lab/iot_link/os/osal\osal.c **** 
 178:E:/LiteOS/LiteOS_Lab/iot_link/os/osal\osal.c ****     if((NULL != s_os_cb) &&(NULL != s_os_cb->ops) &&(NULL != s_os_cb->ops->semp_del))
 951              		.loc 1 178 0
 952 000c 0D4B     		ldr	r3, .L66
 953 000e 1B68     		ldr	r3, [r3]
 954 0010 002B     		cmp	r3, #0
 955 0012 11D0     		beq	.L64
 956              		.loc 1 178 0 is_stmt 0 discriminator 1
 957 0014 0B4B     		ldr	r3, .L66
 958 0016 1B68     		ldr	r3, [r3]
 959 0018 5B68     		ldr	r3, [r3, #4]
 960 001a 002B     		cmp	r3, #0
 961 001c 0CD0     		beq	.L64
 962              		.loc 1 178 0 discriminator 2
 963 001e 094B     		ldr	r3, .L66
 964 0020 1B68     		ldr	r3, [r3]
 965 0022 5B68     		ldr	r3, [r3, #4]
 966 0024 DB6A     		ldr	r3, [r3, #44]
 967 0026 002B     		cmp	r3, #0
 968 0028 06D0     		beq	.L64
 179:E:/LiteOS/LiteOS_Lab/iot_link/os/osal\osal.c ****     {
 180:E:/LiteOS/LiteOS_Lab/iot_link/os/osal\osal.c ****         ret = s_os_cb->ops->semp_del(semp);
 969              		.loc 1 180 0 is_stmt 1
 970 002a 064B     		ldr	r3, .L66
 971 002c 1B68     		ldr	r3, [r3]
 972 002e 5B68     		ldr	r3, [r3, #4]
 973 0030 DB6A     		ldr	r3, [r3, #44]
 974 0032 7868     		ldr	r0, [r7, #4]
 975 0034 9847     		blx	r3
 976              	.LVL11:
 977 0036 F860     		str	r0, [r7, #12]
 978              	.L64:
 181:E:/LiteOS/LiteOS_Lab/iot_link/os/osal\osal.c ****     }
 182:E:/LiteOS/LiteOS_Lab/iot_link/os/osal\osal.c **** 
 183:E:/LiteOS/LiteOS_Lab/iot_link/os/osal\osal.c ****     return ret;
 979              		.loc 1 183 0
 980 0038 FB68     		ldr	r3, [r7, #12]
 184:E:/LiteOS/LiteOS_Lab/iot_link/os/osal\osal.c **** 
 185:E:/LiteOS/LiteOS_Lab/iot_link/os/osal\osal.c **** }
 981              		.loc 1 185 0
 982 003a 1846     		mov	r0, r3
ARM GAS  C:\Users\user\AppData\Local\Temp\ccwjVawZ.s 			page 21


 983 003c 1037     		adds	r7, r7, #16
 984              	.LCFI61:
 985              		.cfi_def_cfa_offset 8
 986 003e BD46     		mov	sp, r7
 987              	.LCFI62:
 988              		.cfi_def_cfa_register 13
 989              		@ sp needed
 990 0040 80BD     		pop	{r7, pc}
 991              	.L67:
 992 0042 00BF     		.align	2
 993              	.L66:
 994 0044 00000000 		.word	s_os_cb
 995              		.cfi_endproc
 996              	.LFE15:
 998              		.section	.text.osal_malloc,"ax",%progbits
 999              		.align	1
 1000              		.global	osal_malloc
 1001              		.syntax unified
 1002              		.thumb
 1003              		.thumb_func
 1004              		.fpu fpv4-sp-d16
 1006              	osal_malloc:
 1007              	.LFB16:
 186:E:/LiteOS/LiteOS_Lab/iot_link/os/osal\osal.c **** 
 187:E:/LiteOS/LiteOS_Lab/iot_link/os/osal\osal.c **** 
 188:E:/LiteOS/LiteOS_Lab/iot_link/os/osal\osal.c **** void *osal_malloc(int size)
 189:E:/LiteOS/LiteOS_Lab/iot_link/os/osal\osal.c **** {
 1008              		.loc 1 189 0
 1009              		.cfi_startproc
 1010              		@ args = 0, pretend = 0, frame = 16
 1011              		@ frame_needed = 1, uses_anonymous_args = 0
 1012 0000 80B5     		push	{r7, lr}
 1013              	.LCFI63:
 1014              		.cfi_def_cfa_offset 8
 1015              		.cfi_offset 7, -8
 1016              		.cfi_offset 14, -4
 1017 0002 84B0     		sub	sp, sp, #16
 1018              	.LCFI64:
 1019              		.cfi_def_cfa_offset 24
 1020 0004 00AF     		add	r7, sp, #0
 1021              	.LCFI65:
 1022              		.cfi_def_cfa_register 7
 1023 0006 7860     		str	r0, [r7, #4]
 190:E:/LiteOS/LiteOS_Lab/iot_link/os/osal\osal.c ****     void *ret = NULL;
 1024              		.loc 1 190 0
 1025 0008 0023     		movs	r3, #0
 1026 000a FB60     		str	r3, [r7, #12]
 191:E:/LiteOS/LiteOS_Lab/iot_link/os/osal\osal.c **** 
 192:E:/LiteOS/LiteOS_Lab/iot_link/os/osal\osal.c ****     if((NULL != s_os_cb) &&(NULL != s_os_cb->ops) &&(NULL != s_os_cb->ops->malloc))
 1027              		.loc 1 192 0
 1028 000c 0D4B     		ldr	r3, .L71
 1029 000e 1B68     		ldr	r3, [r3]
 1030 0010 002B     		cmp	r3, #0
 1031 0012 11D0     		beq	.L69
 1032              		.loc 1 192 0 is_stmt 0 discriminator 1
 1033 0014 0B4B     		ldr	r3, .L71
 1034 0016 1B68     		ldr	r3, [r3]
ARM GAS  C:\Users\user\AppData\Local\Temp\ccwjVawZ.s 			page 22


 1035 0018 5B68     		ldr	r3, [r3, #4]
 1036 001a 002B     		cmp	r3, #0
 1037 001c 0CD0     		beq	.L69
 1038              		.loc 1 192 0 discriminator 2
 1039 001e 094B     		ldr	r3, .L71
 1040 0020 1B68     		ldr	r3, [r3]
 1041 0022 5B68     		ldr	r3, [r3, #4]
 1042 0024 1B6B     		ldr	r3, [r3, #48]
 1043 0026 002B     		cmp	r3, #0
 1044 0028 06D0     		beq	.L69
 193:E:/LiteOS/LiteOS_Lab/iot_link/os/osal\osal.c ****     {
 194:E:/LiteOS/LiteOS_Lab/iot_link/os/osal\osal.c ****         ret = s_os_cb->ops->malloc(size);
 1045              		.loc 1 194 0 is_stmt 1
 1046 002a 064B     		ldr	r3, .L71
 1047 002c 1B68     		ldr	r3, [r3]
 1048 002e 5B68     		ldr	r3, [r3, #4]
 1049 0030 1B6B     		ldr	r3, [r3, #48]
 1050 0032 7868     		ldr	r0, [r7, #4]
 1051 0034 9847     		blx	r3
 1052              	.LVL12:
 1053 0036 F860     		str	r0, [r7, #12]
 1054              	.L69:
 195:E:/LiteOS/LiteOS_Lab/iot_link/os/osal\osal.c ****     }
 196:E:/LiteOS/LiteOS_Lab/iot_link/os/osal\osal.c **** 
 197:E:/LiteOS/LiteOS_Lab/iot_link/os/osal\osal.c ****     return ret;
 1055              		.loc 1 197 0
 1056 0038 FB68     		ldr	r3, [r7, #12]
 198:E:/LiteOS/LiteOS_Lab/iot_link/os/osal\osal.c **** 
 199:E:/LiteOS/LiteOS_Lab/iot_link/os/osal\osal.c **** }
 1057              		.loc 1 199 0
 1058 003a 1846     		mov	r0, r3
 1059 003c 1037     		adds	r7, r7, #16
 1060              	.LCFI66:
 1061              		.cfi_def_cfa_offset 8
 1062 003e BD46     		mov	sp, r7
 1063              	.LCFI67:
 1064              		.cfi_def_cfa_register 13
 1065              		@ sp needed
 1066 0040 80BD     		pop	{r7, pc}
 1067              	.L72:
 1068 0042 00BF     		.align	2
 1069              	.L71:
 1070 0044 00000000 		.word	s_os_cb
 1071              		.cfi_endproc
 1072              	.LFE16:
 1074              		.section	.text.osal_free,"ax",%progbits
 1075              		.align	1
 1076              		.global	osal_free
 1077              		.syntax unified
 1078              		.thumb
 1079              		.thumb_func
 1080              		.fpu fpv4-sp-d16
 1082              	osal_free:
 1083              	.LFB17:
 200:E:/LiteOS/LiteOS_Lab/iot_link/os/osal\osal.c **** 
 201:E:/LiteOS/LiteOS_Lab/iot_link/os/osal\osal.c **** void  osal_free(void *addr)
 202:E:/LiteOS/LiteOS_Lab/iot_link/os/osal\osal.c **** {
ARM GAS  C:\Users\user\AppData\Local\Temp\ccwjVawZ.s 			page 23


 1084              		.loc 1 202 0
 1085              		.cfi_startproc
 1086              		@ args = 0, pretend = 0, frame = 8
 1087              		@ frame_needed = 1, uses_anonymous_args = 0
 1088 0000 80B5     		push	{r7, lr}
 1089              	.LCFI68:
 1090              		.cfi_def_cfa_offset 8
 1091              		.cfi_offset 7, -8
 1092              		.cfi_offset 14, -4
 1093 0002 82B0     		sub	sp, sp, #8
 1094              	.LCFI69:
 1095              		.cfi_def_cfa_offset 16
 1096 0004 00AF     		add	r7, sp, #0
 1097              	.LCFI70:
 1098              		.cfi_def_cfa_register 7
 1099 0006 7860     		str	r0, [r7, #4]
 203:E:/LiteOS/LiteOS_Lab/iot_link/os/osal\osal.c **** 
 204:E:/LiteOS/LiteOS_Lab/iot_link/os/osal\osal.c ****     if((NULL != s_os_cb) &&(NULL != s_os_cb->ops) &&(NULL != s_os_cb->ops->free))
 1100              		.loc 1 204 0
 1101 0008 0C4B     		ldr	r3, .L77
 1102 000a 1B68     		ldr	r3, [r3]
 1103 000c 002B     		cmp	r3, #0
 1104 000e 11D0     		beq	.L76
 1105              		.loc 1 204 0 is_stmt 0 discriminator 1
 1106 0010 0A4B     		ldr	r3, .L77
 1107 0012 1B68     		ldr	r3, [r3]
 1108 0014 5B68     		ldr	r3, [r3, #4]
 1109 0016 002B     		cmp	r3, #0
 1110 0018 0CD0     		beq	.L76
 1111              		.loc 1 204 0 discriminator 2
 1112 001a 084B     		ldr	r3, .L77
 1113 001c 1B68     		ldr	r3, [r3]
 1114 001e 5B68     		ldr	r3, [r3, #4]
 1115 0020 5B6B     		ldr	r3, [r3, #52]
 1116 0022 002B     		cmp	r3, #0
 1117 0024 06D0     		beq	.L76
 205:E:/LiteOS/LiteOS_Lab/iot_link/os/osal\osal.c ****     {
 206:E:/LiteOS/LiteOS_Lab/iot_link/os/osal\osal.c ****         s_os_cb->ops->free(addr);
 1118              		.loc 1 206 0 is_stmt 1
 1119 0026 054B     		ldr	r3, .L77
 1120 0028 1B68     		ldr	r3, [r3]
 1121 002a 5B68     		ldr	r3, [r3, #4]
 1122 002c 5B6B     		ldr	r3, [r3, #52]
 1123 002e 7868     		ldr	r0, [r7, #4]
 1124 0030 9847     		blx	r3
 1125              	.LVL13:
 207:E:/LiteOS/LiteOS_Lab/iot_link/os/osal\osal.c ****     }
 208:E:/LiteOS/LiteOS_Lab/iot_link/os/osal\osal.c **** 
 209:E:/LiteOS/LiteOS_Lab/iot_link/os/osal\osal.c ****     return;
 1126              		.loc 1 209 0
 1127 0032 00BF     		nop
 1128              	.L76:
 1129 0034 00BF     		nop
 210:E:/LiteOS/LiteOS_Lab/iot_link/os/osal\osal.c **** }
 1130              		.loc 1 210 0
 1131 0036 0837     		adds	r7, r7, #8
 1132              	.LCFI71:
ARM GAS  C:\Users\user\AppData\Local\Temp\ccwjVawZ.s 			page 24


 1133              		.cfi_def_cfa_offset 8
 1134 0038 BD46     		mov	sp, r7
 1135              	.LCFI72:
 1136              		.cfi_def_cfa_register 13
 1137              		@ sp needed
 1138 003a 80BD     		pop	{r7, pc}
 1139              	.L78:
 1140              		.align	2
 1141              	.L77:
 1142 003c 00000000 		.word	s_os_cb
 1143              		.cfi_endproc
 1144              	.LFE17:
 1146              		.section	.text.osal_zalloc,"ax",%progbits
 1147              		.align	1
 1148              		.global	osal_zalloc
 1149              		.syntax unified
 1150              		.thumb
 1151              		.thumb_func
 1152              		.fpu fpv4-sp-d16
 1154              	osal_zalloc:
 1155              	.LFB18:
 211:E:/LiteOS/LiteOS_Lab/iot_link/os/osal\osal.c **** 
 212:E:/LiteOS/LiteOS_Lab/iot_link/os/osal\osal.c **** void *osal_zalloc(int size)
 213:E:/LiteOS/LiteOS_Lab/iot_link/os/osal\osal.c **** {
 1156              		.loc 1 213 0
 1157              		.cfi_startproc
 1158              		@ args = 0, pretend = 0, frame = 16
 1159              		@ frame_needed = 1, uses_anonymous_args = 0
 1160 0000 80B5     		push	{r7, lr}
 1161              	.LCFI73:
 1162              		.cfi_def_cfa_offset 8
 1163              		.cfi_offset 7, -8
 1164              		.cfi_offset 14, -4
 1165 0002 84B0     		sub	sp, sp, #16
 1166              	.LCFI74:
 1167              		.cfi_def_cfa_offset 24
 1168 0004 00AF     		add	r7, sp, #0
 1169              	.LCFI75:
 1170              		.cfi_def_cfa_register 7
 1171 0006 7860     		str	r0, [r7, #4]
 214:E:/LiteOS/LiteOS_Lab/iot_link/os/osal\osal.c ****     void *ret = NULL;
 1172              		.loc 1 214 0
 1173 0008 0023     		movs	r3, #0
 1174 000a FB60     		str	r3, [r7, #12]
 215:E:/LiteOS/LiteOS_Lab/iot_link/os/osal\osal.c **** 
 216:E:/LiteOS/LiteOS_Lab/iot_link/os/osal\osal.c ****     if((NULL != s_os_cb) &&(NULL != s_os_cb->ops) &&(NULL != s_os_cb->ops->malloc))
 1175              		.loc 1 216 0
 1176 000c 114B     		ldr	r3, .L82
 1177 000e 1B68     		ldr	r3, [r3]
 1178 0010 002B     		cmp	r3, #0
 1179 0012 1AD0     		beq	.L80
 1180              		.loc 1 216 0 is_stmt 0 discriminator 1
 1181 0014 0F4B     		ldr	r3, .L82
 1182 0016 1B68     		ldr	r3, [r3]
 1183 0018 5B68     		ldr	r3, [r3, #4]
 1184 001a 002B     		cmp	r3, #0
 1185 001c 15D0     		beq	.L80
ARM GAS  C:\Users\user\AppData\Local\Temp\ccwjVawZ.s 			page 25


 1186              		.loc 1 216 0 discriminator 2
 1187 001e 0D4B     		ldr	r3, .L82
 1188 0020 1B68     		ldr	r3, [r3]
 1189 0022 5B68     		ldr	r3, [r3, #4]
 1190 0024 1B6B     		ldr	r3, [r3, #48]
 1191 0026 002B     		cmp	r3, #0
 1192 0028 0FD0     		beq	.L80
 217:E:/LiteOS/LiteOS_Lab/iot_link/os/osal\osal.c ****     {
 218:E:/LiteOS/LiteOS_Lab/iot_link/os/osal\osal.c ****         ret = s_os_cb->ops->malloc(size);
 1193              		.loc 1 218 0 is_stmt 1
 1194 002a 0A4B     		ldr	r3, .L82
 1195 002c 1B68     		ldr	r3, [r3]
 1196 002e 5B68     		ldr	r3, [r3, #4]
 1197 0030 1B6B     		ldr	r3, [r3, #48]
 1198 0032 7868     		ldr	r0, [r7, #4]
 1199 0034 9847     		blx	r3
 1200              	.LVL14:
 1201 0036 F860     		str	r0, [r7, #12]
 219:E:/LiteOS/LiteOS_Lab/iot_link/os/osal\osal.c ****         if(NULL != ret)
 1202              		.loc 1 219 0
 1203 0038 FB68     		ldr	r3, [r7, #12]
 1204 003a 002B     		cmp	r3, #0
 1205 003c 05D0     		beq	.L80
 220:E:/LiteOS/LiteOS_Lab/iot_link/os/osal\osal.c ****         {
 221:E:/LiteOS/LiteOS_Lab/iot_link/os/osal\osal.c ****             memset(ret,0,size);
 1206              		.loc 1 221 0
 1207 003e 7B68     		ldr	r3, [r7, #4]
 1208 0040 1A46     		mov	r2, r3
 1209 0042 0021     		movs	r1, #0
 1210 0044 F868     		ldr	r0, [r7, #12]
 1211 0046 FFF7FEFF 		bl	memset
 1212              	.L80:
 222:E:/LiteOS/LiteOS_Lab/iot_link/os/osal\osal.c ****         }
 223:E:/LiteOS/LiteOS_Lab/iot_link/os/osal\osal.c ****     }
 224:E:/LiteOS/LiteOS_Lab/iot_link/os/osal\osal.c **** 
 225:E:/LiteOS/LiteOS_Lab/iot_link/os/osal\osal.c ****     return ret;
 1213              		.loc 1 225 0
 1214 004a FB68     		ldr	r3, [r7, #12]
 226:E:/LiteOS/LiteOS_Lab/iot_link/os/osal\osal.c **** 
 227:E:/LiteOS/LiteOS_Lab/iot_link/os/osal\osal.c **** }
 1215              		.loc 1 227 0
 1216 004c 1846     		mov	r0, r3
 1217 004e 1037     		adds	r7, r7, #16
 1218              	.LCFI76:
 1219              		.cfi_def_cfa_offset 8
 1220 0050 BD46     		mov	sp, r7
 1221              	.LCFI77:
 1222              		.cfi_def_cfa_register 13
 1223              		@ sp needed
 1224 0052 80BD     		pop	{r7, pc}
 1225              	.L83:
 1226              		.align	2
 1227              	.L82:
 1228 0054 00000000 		.word	s_os_cb
 1229              		.cfi_endproc
 1230              	.LFE18:
 1232              		.section	.text.osal_realloc,"ax",%progbits
ARM GAS  C:\Users\user\AppData\Local\Temp\ccwjVawZ.s 			page 26


 1233              		.align	1
 1234              		.global	osal_realloc
 1235              		.syntax unified
 1236              		.thumb
 1237              		.thumb_func
 1238              		.fpu fpv4-sp-d16
 1240              	osal_realloc:
 1241              	.LFB19:
 228:E:/LiteOS/LiteOS_Lab/iot_link/os/osal\osal.c **** 
 229:E:/LiteOS/LiteOS_Lab/iot_link/os/osal\osal.c **** void *osal_realloc(void *ptr,int newsize)
 230:E:/LiteOS/LiteOS_Lab/iot_link/os/osal\osal.c **** {
 1242              		.loc 1 230 0
 1243              		.cfi_startproc
 1244              		@ args = 0, pretend = 0, frame = 16
 1245              		@ frame_needed = 1, uses_anonymous_args = 0
 1246 0000 80B5     		push	{r7, lr}
 1247              	.LCFI78:
 1248              		.cfi_def_cfa_offset 8
 1249              		.cfi_offset 7, -8
 1250              		.cfi_offset 14, -4
 1251 0002 84B0     		sub	sp, sp, #16
 1252              	.LCFI79:
 1253              		.cfi_def_cfa_offset 24
 1254 0004 00AF     		add	r7, sp, #0
 1255              	.LCFI80:
 1256              		.cfi_def_cfa_register 7
 1257 0006 7860     		str	r0, [r7, #4]
 1258 0008 3960     		str	r1, [r7]
 231:E:/LiteOS/LiteOS_Lab/iot_link/os/osal\osal.c ****     void *ret = NULL;
 1259              		.loc 1 231 0
 1260 000a 0023     		movs	r3, #0
 1261 000c FB60     		str	r3, [r7, #12]
 232:E:/LiteOS/LiteOS_Lab/iot_link/os/osal\osal.c **** 
 233:E:/LiteOS/LiteOS_Lab/iot_link/os/osal\osal.c ****     if((NULL != s_os_cb) &&(NULL != s_os_cb->ops) &&(NULL != s_os_cb->ops->realloc))
 1262              		.loc 1 233 0
 1263 000e 0E4B     		ldr	r3, .L87
 1264 0010 1B68     		ldr	r3, [r3]
 1265 0012 002B     		cmp	r3, #0
 1266 0014 12D0     		beq	.L85
 1267              		.loc 1 233 0 is_stmt 0 discriminator 1
 1268 0016 0C4B     		ldr	r3, .L87
 1269 0018 1B68     		ldr	r3, [r3]
 1270 001a 5B68     		ldr	r3, [r3, #4]
 1271 001c 002B     		cmp	r3, #0
 1272 001e 0DD0     		beq	.L85
 1273              		.loc 1 233 0 discriminator 2
 1274 0020 094B     		ldr	r3, .L87
 1275 0022 1B68     		ldr	r3, [r3]
 1276 0024 5B68     		ldr	r3, [r3, #4]
 1277 0026 9B6B     		ldr	r3, [r3, #56]
 1278 0028 002B     		cmp	r3, #0
 1279 002a 07D0     		beq	.L85
 234:E:/LiteOS/LiteOS_Lab/iot_link/os/osal\osal.c ****     {
 235:E:/LiteOS/LiteOS_Lab/iot_link/os/osal\osal.c ****         ret = s_os_cb->ops->realloc(ptr,newsize);
 1280              		.loc 1 235 0 is_stmt 1
 1281 002c 064B     		ldr	r3, .L87
 1282 002e 1B68     		ldr	r3, [r3]
ARM GAS  C:\Users\user\AppData\Local\Temp\ccwjVawZ.s 			page 27


 1283 0030 5B68     		ldr	r3, [r3, #4]
 1284 0032 9B6B     		ldr	r3, [r3, #56]
 1285 0034 3968     		ldr	r1, [r7]
 1286 0036 7868     		ldr	r0, [r7, #4]
 1287 0038 9847     		blx	r3
 1288              	.LVL15:
 1289 003a F860     		str	r0, [r7, #12]
 1290              	.L85:
 236:E:/LiteOS/LiteOS_Lab/iot_link/os/osal\osal.c ****     }
 237:E:/LiteOS/LiteOS_Lab/iot_link/os/osal\osal.c **** 
 238:E:/LiteOS/LiteOS_Lab/iot_link/os/osal\osal.c ****     return ret;
 1291              		.loc 1 238 0
 1292 003c FB68     		ldr	r3, [r7, #12]
 239:E:/LiteOS/LiteOS_Lab/iot_link/os/osal\osal.c **** }
 1293              		.loc 1 239 0
 1294 003e 1846     		mov	r0, r3
 1295 0040 1037     		adds	r7, r7, #16
 1296              	.LCFI81:
 1297              		.cfi_def_cfa_offset 8
 1298 0042 BD46     		mov	sp, r7
 1299              	.LCFI82:
 1300              		.cfi_def_cfa_register 13
 1301              		@ sp needed
 1302 0044 80BD     		pop	{r7, pc}
 1303              	.L88:
 1304 0046 00BF     		.align	2
 1305              	.L87:
 1306 0048 00000000 		.word	s_os_cb
 1307              		.cfi_endproc
 1308              	.LFE19:
 1310              		.section	.text.osal_calloc,"ax",%progbits
 1311              		.align	1
 1312              		.global	osal_calloc
 1313              		.syntax unified
 1314              		.thumb
 1315              		.thumb_func
 1316              		.fpu fpv4-sp-d16
 1318              	osal_calloc:
 1319              	.LFB20:
 240:E:/LiteOS/LiteOS_Lab/iot_link/os/osal\osal.c **** 
 241:E:/LiteOS/LiteOS_Lab/iot_link/os/osal\osal.c **** void *osal_calloc(int n, int size)
 242:E:/LiteOS/LiteOS_Lab/iot_link/os/osal\osal.c **** {
 1320              		.loc 1 242 0
 1321              		.cfi_startproc
 1322              		@ args = 0, pretend = 0, frame = 16
 1323              		@ frame_needed = 1, uses_anonymous_args = 0
 1324 0000 80B5     		push	{r7, lr}
 1325              	.LCFI83:
 1326              		.cfi_def_cfa_offset 8
 1327              		.cfi_offset 7, -8
 1328              		.cfi_offset 14, -4
 1329 0002 84B0     		sub	sp, sp, #16
 1330              	.LCFI84:
 1331              		.cfi_def_cfa_offset 24
 1332 0004 00AF     		add	r7, sp, #0
 1333              	.LCFI85:
 1334              		.cfi_def_cfa_register 7
ARM GAS  C:\Users\user\AppData\Local\Temp\ccwjVawZ.s 			page 28


 1335 0006 7860     		str	r0, [r7, #4]
 1336 0008 3960     		str	r1, [r7]
 243:E:/LiteOS/LiteOS_Lab/iot_link/os/osal\osal.c ****     void *p = osal_malloc(n * size);
 1337              		.loc 1 243 0
 1338 000a 7B68     		ldr	r3, [r7, #4]
 1339 000c 3A68     		ldr	r2, [r7]
 1340 000e 02FB03F3 		mul	r3, r2, r3
 1341 0012 1846     		mov	r0, r3
 1342 0014 FFF7FEFF 		bl	osal_malloc
 1343 0018 F860     		str	r0, [r7, #12]
 244:E:/LiteOS/LiteOS_Lab/iot_link/os/osal\osal.c ****     if(NULL != p)
 1344              		.loc 1 244 0
 1345 001a FB68     		ldr	r3, [r7, #12]
 1346 001c 002B     		cmp	r3, #0
 1347 001e 08D0     		beq	.L90
 245:E:/LiteOS/LiteOS_Lab/iot_link/os/osal\osal.c ****     {
 246:E:/LiteOS/LiteOS_Lab/iot_link/os/osal\osal.c ****         memset(p, 0, n * size);
 1348              		.loc 1 246 0
 1349 0020 7B68     		ldr	r3, [r7, #4]
 1350 0022 3A68     		ldr	r2, [r7]
 1351 0024 02FB03F3 		mul	r3, r2, r3
 1352 0028 1A46     		mov	r2, r3
 1353 002a 0021     		movs	r1, #0
 1354 002c F868     		ldr	r0, [r7, #12]
 1355 002e FFF7FEFF 		bl	memset
 1356              	.L90:
 247:E:/LiteOS/LiteOS_Lab/iot_link/os/osal\osal.c ****     }
 248:E:/LiteOS/LiteOS_Lab/iot_link/os/osal\osal.c **** 
 249:E:/LiteOS/LiteOS_Lab/iot_link/os/osal\osal.c ****     return p;
 1357              		.loc 1 249 0
 1358 0032 FB68     		ldr	r3, [r7, #12]
 250:E:/LiteOS/LiteOS_Lab/iot_link/os/osal\osal.c **** }
 1359              		.loc 1 250 0
 1360 0034 1846     		mov	r0, r3
 1361 0036 1037     		adds	r7, r7, #16
 1362              	.LCFI86:
 1363              		.cfi_def_cfa_offset 8
 1364 0038 BD46     		mov	sp, r7
 1365              	.LCFI87:
 1366              		.cfi_def_cfa_register 13
 1367              		@ sp needed
 1368 003a 80BD     		pop	{r7, pc}
 1369              		.cfi_endproc
 1370              	.LFE20:
 1372              		.section	.text.osal_sys_time,"ax",%progbits
 1373              		.align	1
 1374              		.global	osal_sys_time
 1375              		.syntax unified
 1376              		.thumb
 1377              		.thumb_func
 1378              		.fpu fpv4-sp-d16
 1380              	osal_sys_time:
 1381              	.LFB21:
 251:E:/LiteOS/LiteOS_Lab/iot_link/os/osal\osal.c **** 
 252:E:/LiteOS/LiteOS_Lab/iot_link/os/osal\osal.c **** 
 253:E:/LiteOS/LiteOS_Lab/iot_link/os/osal\osal.c **** 
 254:E:/LiteOS/LiteOS_Lab/iot_link/os/osal\osal.c **** unsigned long long osal_sys_time()
ARM GAS  C:\Users\user\AppData\Local\Temp\ccwjVawZ.s 			page 29


 255:E:/LiteOS/LiteOS_Lab/iot_link/os/osal\osal.c **** {
 1382              		.loc 1 255 0
 1383              		.cfi_startproc
 1384              		@ args = 0, pretend = 0, frame = 8
 1385              		@ frame_needed = 1, uses_anonymous_args = 0
 1386 0000 90B5     		push	{r4, r7, lr}
 1387              	.LCFI88:
 1388              		.cfi_def_cfa_offset 12
 1389              		.cfi_offset 4, -12
 1390              		.cfi_offset 7, -8
 1391              		.cfi_offset 14, -4
 1392 0002 83B0     		sub	sp, sp, #12
 1393              	.LCFI89:
 1394              		.cfi_def_cfa_offset 24
 1395 0004 00AF     		add	r7, sp, #0
 1396              	.LCFI90:
 1397              		.cfi_def_cfa_register 7
 256:E:/LiteOS/LiteOS_Lab/iot_link/os/osal\osal.c **** 
 257:E:/LiteOS/LiteOS_Lab/iot_link/os/osal\osal.c ****     unsigned long long  ret = 0;
 1398              		.loc 1 257 0
 1399 0006 4FF00003 		mov	r3, #0
 1400 000a 4FF00004 		mov	r4, #0
 1401 000e C7E90034 		strd	r3, [r7]
 258:E:/LiteOS/LiteOS_Lab/iot_link/os/osal\osal.c **** 
 259:E:/LiteOS/LiteOS_Lab/iot_link/os/osal\osal.c ****     if((NULL != s_os_cb) &&(NULL != s_os_cb->ops) &&(NULL != s_os_cb->ops->get_sys_time))
 1402              		.loc 1 259 0
 1403 0012 0E4B     		ldr	r3, .L95
 1404 0014 1B68     		ldr	r3, [r3]
 1405 0016 002B     		cmp	r3, #0
 1406 0018 11D0     		beq	.L93
 1407              		.loc 1 259 0 is_stmt 0 discriminator 1
 1408 001a 0C4B     		ldr	r3, .L95
 1409 001c 1B68     		ldr	r3, [r3]
 1410 001e 5B68     		ldr	r3, [r3, #4]
 1411 0020 002B     		cmp	r3, #0
 1412 0022 0CD0     		beq	.L93
 1413              		.loc 1 259 0 discriminator 2
 1414 0024 094B     		ldr	r3, .L95
 1415 0026 1B68     		ldr	r3, [r3]
 1416 0028 5B68     		ldr	r3, [r3, #4]
 1417 002a DB6B     		ldr	r3, [r3, #60]
 1418 002c 002B     		cmp	r3, #0
 1419 002e 06D0     		beq	.L93
 260:E:/LiteOS/LiteOS_Lab/iot_link/os/osal\osal.c ****     {
 261:E:/LiteOS/LiteOS_Lab/iot_link/os/osal\osal.c ****         ret = s_os_cb->ops->get_sys_time();
 1420              		.loc 1 261 0 is_stmt 1
 1421 0030 064B     		ldr	r3, .L95
 1422 0032 1B68     		ldr	r3, [r3]
 1423 0034 5B68     		ldr	r3, [r3, #4]
 1424 0036 DB6B     		ldr	r3, [r3, #60]
 1425 0038 9847     		blx	r3
 1426              	.LVL16:
 1427 003a C7E90001 		strd	r0, [r7]
 1428              	.L93:
 262:E:/LiteOS/LiteOS_Lab/iot_link/os/osal\osal.c ****     }
 263:E:/LiteOS/LiteOS_Lab/iot_link/os/osal\osal.c **** 
 264:E:/LiteOS/LiteOS_Lab/iot_link/os/osal\osal.c ****     return ret;
ARM GAS  C:\Users\user\AppData\Local\Temp\ccwjVawZ.s 			page 30


 1429              		.loc 1 264 0
 1430 003e D7E90034 		ldrd	r3, [r7]
 265:E:/LiteOS/LiteOS_Lab/iot_link/os/osal\osal.c **** }
 1431              		.loc 1 265 0
 1432 0042 1846     		mov	r0, r3
 1433 0044 2146     		mov	r1, r4
 1434 0046 0C37     		adds	r7, r7, #12
 1435              	.LCFI91:
 1436              		.cfi_def_cfa_offset 12
 1437 0048 BD46     		mov	sp, r7
 1438              	.LCFI92:
 1439              		.cfi_def_cfa_register 13
 1440              		@ sp needed
 1441 004a 90BD     		pop	{r4, r7, pc}
 1442              	.L96:
 1443              		.align	2
 1444              	.L95:
 1445 004c 00000000 		.word	s_os_cb
 1446              		.cfi_endproc
 1447              	.LFE21:
 1449              		.section	.text.osal_loop_timer_init,"ax",%progbits
 1450              		.align	1
 1451              		.global	osal_loop_timer_init
 1452              		.syntax unified
 1453              		.thumb
 1454              		.thumb_func
 1455              		.fpu fpv4-sp-d16
 1457              	osal_loop_timer_init:
 1458              	.LFB22:
 266:E:/LiteOS/LiteOS_Lab/iot_link/os/osal\osal.c **** 
 267:E:/LiteOS/LiteOS_Lab/iot_link/os/osal\osal.c **** void osal_loop_timer_init(osal_loop_timer_t *timer)
 268:E:/LiteOS/LiteOS_Lab/iot_link/os/osal\osal.c **** {
 1459              		.loc 1 268 0
 1460              		.cfi_startproc
 1461              		@ args = 0, pretend = 0, frame = 8
 1462              		@ frame_needed = 1, uses_anonymous_args = 0
 1463 0000 90B5     		push	{r4, r7, lr}
 1464              	.LCFI93:
 1465              		.cfi_def_cfa_offset 12
 1466              		.cfi_offset 4, -12
 1467              		.cfi_offset 7, -8
 1468              		.cfi_offset 14, -4
 1469 0002 83B0     		sub	sp, sp, #12
 1470              	.LCFI94:
 1471              		.cfi_def_cfa_offset 24
 1472 0004 00AF     		add	r7, sp, #0
 1473              	.LCFI95:
 1474              		.cfi_def_cfa_register 7
 1475 0006 7860     		str	r0, [r7, #4]
 269:E:/LiteOS/LiteOS_Lab/iot_link/os/osal\osal.c ****     timer->dead_time = osal_sys_time();
 1476              		.loc 1 269 0
 1477 0008 FFF7FEFF 		bl	osal_sys_time
 1478 000c 0346     		mov	r3, r0
 1479 000e 0C46     		mov	r4, r1
 1480 0010 7A68     		ldr	r2, [r7, #4]
 1481 0012 C2E90034 		strd	r3, [r2]
 270:E:/LiteOS/LiteOS_Lab/iot_link/os/osal\osal.c **** }
ARM GAS  C:\Users\user\AppData\Local\Temp\ccwjVawZ.s 			page 31


 1482              		.loc 1 270 0
 1483 0016 00BF     		nop
 1484 0018 0C37     		adds	r7, r7, #12
 1485              	.LCFI96:
 1486              		.cfi_def_cfa_offset 12
 1487 001a BD46     		mov	sp, r7
 1488              	.LCFI97:
 1489              		.cfi_def_cfa_register 13
 1490              		@ sp needed
 1491 001c 90BD     		pop	{r4, r7, pc}
 1492              		.cfi_endproc
 1493              	.LFE22:
 1495              		.section	.text.osal_loop_timer_expired,"ax",%progbits
 1496              		.align	1
 1497              		.global	osal_loop_timer_expired
 1498              		.syntax unified
 1499              		.thumb
 1500              		.thumb_func
 1501              		.fpu fpv4-sp-d16
 1503              	osal_loop_timer_expired:
 1504              	.LFB23:
 271:E:/LiteOS/LiteOS_Lab/iot_link/os/osal\osal.c **** 
 272:E:/LiteOS/LiteOS_Lab/iot_link/os/osal\osal.c **** char osal_loop_timer_expired(osal_loop_timer_t *timer)
 273:E:/LiteOS/LiteOS_Lab/iot_link/os/osal\osal.c **** {
 1505              		.loc 1 273 0
 1506              		.cfi_startproc
 1507              		@ args = 0, pretend = 0, frame = 16
 1508              		@ frame_needed = 1, uses_anonymous_args = 0
 1509 0000 90B5     		push	{r4, r7, lr}
 1510              	.LCFI98:
 1511              		.cfi_def_cfa_offset 12
 1512              		.cfi_offset 4, -12
 1513              		.cfi_offset 7, -8
 1514              		.cfi_offset 14, -4
 1515 0002 85B0     		sub	sp, sp, #20
 1516              	.LCFI99:
 1517              		.cfi_def_cfa_offset 32
 1518 0004 00AF     		add	r7, sp, #0
 1519              	.LCFI100:
 1520              		.cfi_def_cfa_register 7
 1521 0006 7860     		str	r0, [r7, #4]
 274:E:/LiteOS/LiteOS_Lab/iot_link/os/osal\osal.c ****     unsigned long long now = osal_sys_time();
 1522              		.loc 1 274 0
 1523 0008 FFF7FEFF 		bl	osal_sys_time
 1524 000c C7E90201 		strd	r0, [r7, #8]
 275:E:/LiteOS/LiteOS_Lab/iot_link/os/osal\osal.c ****     return now >= timer->dead_time;
 1525              		.loc 1 275 0
 1526 0010 7B68     		ldr	r3, [r7, #4]
 1527 0012 D3E90034 		ldrd	r3, [r3]
 1528 0016 D7E90212 		ldrd	r1, [r7, #8]
 1529 001a A242     		cmp	r2, r4
 1530 001c 08BF     		it	eq
 1531 001e 9942     		cmpeq	r1, r3
 1532 0020 2CBF     		ite	cs
 1533 0022 0123     		movcs	r3, #1
 1534 0024 0023     		movcc	r3, #0
 1535 0026 DBB2     		uxtb	r3, r3
ARM GAS  C:\Users\user\AppData\Local\Temp\ccwjVawZ.s 			page 32


 276:E:/LiteOS/LiteOS_Lab/iot_link/os/osal\osal.c **** }
 1536              		.loc 1 276 0
 1537 0028 1846     		mov	r0, r3
 1538 002a 1437     		adds	r7, r7, #20
 1539              	.LCFI101:
 1540              		.cfi_def_cfa_offset 12
 1541 002c BD46     		mov	sp, r7
 1542              	.LCFI102:
 1543              		.cfi_def_cfa_register 13
 1544              		@ sp needed
 1545 002e 90BD     		pop	{r4, r7, pc}
 1546              		.cfi_endproc
 1547              	.LFE23:
 1549              		.section	.text.osal_loop_timer_count_downms,"ax",%progbits
 1550              		.align	1
 1551              		.global	osal_loop_timer_count_downms
 1552              		.syntax unified
 1553              		.thumb
 1554              		.thumb_func
 1555              		.fpu fpv4-sp-d16
 1557              	osal_loop_timer_count_downms:
 1558              	.LFB24:
 277:E:/LiteOS/LiteOS_Lab/iot_link/os/osal\osal.c **** 
 278:E:/LiteOS/LiteOS_Lab/iot_link/os/osal\osal.c **** void osal_loop_timer_count_downms(osal_loop_timer_t *timer, unsigned int timeout)
 279:E:/LiteOS/LiteOS_Lab/iot_link/os/osal\osal.c **** {
 1559              		.loc 1 279 0
 1560              		.cfi_startproc
 1561              		@ args = 0, pretend = 0, frame = 16
 1562              		@ frame_needed = 1, uses_anonymous_args = 0
 1563 0000 2DE99048 		push	{r4, r7, fp, lr}
 1564              	.LCFI103:
 1565              		.cfi_def_cfa_offset 16
 1566              		.cfi_offset 4, -16
 1567              		.cfi_offset 7, -12
 1568              		.cfi_offset 11, -8
 1569              		.cfi_offset 14, -4
 1570 0004 84B0     		sub	sp, sp, #16
 1571              	.LCFI104:
 1572              		.cfi_def_cfa_offset 32
 1573 0006 00AF     		add	r7, sp, #0
 1574              	.LCFI105:
 1575              		.cfi_def_cfa_register 7
 1576 0008 7860     		str	r0, [r7, #4]
 1577 000a 3960     		str	r1, [r7]
 280:E:/LiteOS/LiteOS_Lab/iot_link/os/osal\osal.c ****     unsigned long long now = osal_sys_time();
 1578              		.loc 1 280 0
 1579 000c FFF7FEFF 		bl	osal_sys_time
 1580 0010 C7E90201 		strd	r0, [r7, #8]
 281:E:/LiteOS/LiteOS_Lab/iot_link/os/osal\osal.c ****     timer->dead_time = now + timeout;
 1581              		.loc 1 281 0
 1582 0014 3B68     		ldr	r3, [r7]
 1583 0016 1946     		mov	r1, r3
 1584 0018 4FF00002 		mov	r2, #0
 1585 001c D7E90234 		ldrd	r3, [r7, #8]
 1586 0020 13EB010B 		adds	fp, r3, r1
 1587 0024 44EB020C 		adc	ip, r4, r2
 1588 0028 7A68     		ldr	r2, [r7, #4]
ARM GAS  C:\Users\user\AppData\Local\Temp\ccwjVawZ.s 			page 33


 1589 002a C2E900BC 		strd	fp, [r2]
 282:E:/LiteOS/LiteOS_Lab/iot_link/os/osal\osal.c **** }
 1590              		.loc 1 282 0
 1591 002e 00BF     		nop
 1592 0030 1037     		adds	r7, r7, #16
 1593              	.LCFI106:
 1594              		.cfi_def_cfa_offset 16
 1595 0032 BD46     		mov	sp, r7
 1596              	.LCFI107:
 1597              		.cfi_def_cfa_register 13
 1598              		@ sp needed
 1599 0034 BDE89088 		pop	{r4, r7, fp, pc}
 1600              		.cfi_endproc
 1601              	.LFE24:
 1603              		.section	.text.osal_loop_timer_count_down,"ax",%progbits
 1604              		.align	1
 1605              		.global	osal_loop_timer_count_down
 1606              		.syntax unified
 1607              		.thumb
 1608              		.thumb_func
 1609              		.fpu fpv4-sp-d16
 1611              	osal_loop_timer_count_down:
 1612              	.LFB25:
 283:E:/LiteOS/LiteOS_Lab/iot_link/os/osal\osal.c **** 
 284:E:/LiteOS/LiteOS_Lab/iot_link/os/osal\osal.c **** 
 285:E:/LiteOS/LiteOS_Lab/iot_link/os/osal\osal.c **** void osal_loop_timer_count_down(osal_loop_timer_t *timer, unsigned int timeout)
 286:E:/LiteOS/LiteOS_Lab/iot_link/os/osal\osal.c **** {
 1613              		.loc 1 286 0
 1614              		.cfi_startproc
 1615              		@ args = 0, pretend = 0, frame = 8
 1616              		@ frame_needed = 1, uses_anonymous_args = 0
 1617 0000 80B5     		push	{r7, lr}
 1618              	.LCFI108:
 1619              		.cfi_def_cfa_offset 8
 1620              		.cfi_offset 7, -8
 1621              		.cfi_offset 14, -4
 1622 0002 82B0     		sub	sp, sp, #8
 1623              	.LCFI109:
 1624              		.cfi_def_cfa_offset 16
 1625 0004 00AF     		add	r7, sp, #0
 1626              	.LCFI110:
 1627              		.cfi_def_cfa_register 7
 1628 0006 7860     		str	r0, [r7, #4]
 1629 0008 3960     		str	r1, [r7]
 287:E:/LiteOS/LiteOS_Lab/iot_link/os/osal\osal.c ****     osal_loop_timer_count_downms(timer,timeout*1000);
 1630              		.loc 1 287 0
 1631 000a 3B68     		ldr	r3, [r7]
 1632 000c 4FF47A72 		mov	r2, #1000
 1633 0010 02FB03F3 		mul	r3, r2, r3
 1634 0014 1946     		mov	r1, r3
 1635 0016 7868     		ldr	r0, [r7, #4]
 1636 0018 FFF7FEFF 		bl	osal_loop_timer_count_downms
 288:E:/LiteOS/LiteOS_Lab/iot_link/os/osal\osal.c **** }
 1637              		.loc 1 288 0
 1638 001c 00BF     		nop
 1639 001e 0837     		adds	r7, r7, #8
 1640              	.LCFI111:
ARM GAS  C:\Users\user\AppData\Local\Temp\ccwjVawZ.s 			page 34


 1641              		.cfi_def_cfa_offset 8
 1642 0020 BD46     		mov	sp, r7
 1643              	.LCFI112:
 1644              		.cfi_def_cfa_register 13
 1645              		@ sp needed
 1646 0022 80BD     		pop	{r7, pc}
 1647              		.cfi_endproc
 1648              	.LFE25:
 1650              		.section	.text.osal_loop_timer_left,"ax",%progbits
 1651              		.align	1
 1652              		.global	osal_loop_timer_left
 1653              		.syntax unified
 1654              		.thumb
 1655              		.thumb_func
 1656              		.fpu fpv4-sp-d16
 1658              	osal_loop_timer_left:
 1659              	.LFB26:
 289:E:/LiteOS/LiteOS_Lab/iot_link/os/osal\osal.c **** 
 290:E:/LiteOS/LiteOS_Lab/iot_link/os/osal\osal.c **** int osal_loop_timer_left(osal_loop_timer_t *timer)
 291:E:/LiteOS/LiteOS_Lab/iot_link/os/osal\osal.c **** {
 1660              		.loc 1 291 0
 1661              		.cfi_startproc
 1662              		@ args = 0, pretend = 0, frame = 16
 1663              		@ frame_needed = 1, uses_anonymous_args = 0
 1664 0000 90B5     		push	{r4, r7, lr}
 1665              	.LCFI113:
 1666              		.cfi_def_cfa_offset 12
 1667              		.cfi_offset 4, -12
 1668              		.cfi_offset 7, -8
 1669              		.cfi_offset 14, -4
 1670 0002 85B0     		sub	sp, sp, #20
 1671              	.LCFI114:
 1672              		.cfi_def_cfa_offset 32
 1673 0004 00AF     		add	r7, sp, #0
 1674              	.LCFI115:
 1675              		.cfi_def_cfa_register 7
 1676 0006 7860     		str	r0, [r7, #4]
 292:E:/LiteOS/LiteOS_Lab/iot_link/os/osal\osal.c ****     unsigned long long now = osal_sys_time();
 1677              		.loc 1 292 0
 1678 0008 FFF7FEFF 		bl	osal_sys_time
 1679 000c C7E90201 		strd	r0, [r7, #8]
 293:E:/LiteOS/LiteOS_Lab/iot_link/os/osal\osal.c ****     return timer->dead_time <= now ? 0 : timer->dead_time - now;
 1680              		.loc 1 293 0
 1681 0010 7B68     		ldr	r3, [r7, #4]
 1682 0012 D3E90034 		ldrd	r3, [r3]
 1683 0016 D7E90212 		ldrd	r1, [r7, #8]
 1684 001a A242     		cmp	r2, r4
 1685 001c 08BF     		it	eq
 1686 001e 9942     		cmpeq	r1, r3
 1687 0020 06D2     		bcs	.L103
 1688              		.loc 1 293 0 is_stmt 0 discriminator 1
 1689 0022 7B68     		ldr	r3, [r7, #4]
 1690 0024 D3E90034 		ldrd	r3, [r3]
 1691 0028 1A46     		mov	r2, r3
 1692 002a BB68     		ldr	r3, [r7, #8]
 1693 002c D31A     		subs	r3, r2, r3
 1694 002e 00E0     		b	.L105
ARM GAS  C:\Users\user\AppData\Local\Temp\ccwjVawZ.s 			page 35


 1695              	.L103:
 1696              		.loc 1 293 0 discriminator 2
 1697 0030 0023     		movs	r3, #0
 1698              	.L105:
 294:E:/LiteOS/LiteOS_Lab/iot_link/os/osal\osal.c **** }
 1699              		.loc 1 294 0 is_stmt 1 discriminator 5
 1700 0032 1846     		mov	r0, r3
 1701 0034 1437     		adds	r7, r7, #20
 1702              	.LCFI116:
 1703              		.cfi_def_cfa_offset 12
 1704 0036 BD46     		mov	sp, r7
 1705              	.LCFI117:
 1706              		.cfi_def_cfa_register 13
 1707              		@ sp needed
 1708 0038 90BD     		pop	{r4, r7, pc}
 1709              		.cfi_endproc
 1710              	.LFE26:
 1712              		.section	.rodata
 1713              		.align	2
 1714              	.LC0:
 1715 0000 257300   		.ascii	"%s\000"
 1716              		.section	.text.osal_printf,"ax",%progbits
 1717              		.align	1
 1718              		.global	osal_printf
 1719              		.syntax unified
 1720              		.thumb
 1721              		.thumb_func
 1722              		.fpu fpv4-sp-d16
 1724              	osal_printf:
 1725              	.LFB27:
 295:E:/LiteOS/LiteOS_Lab/iot_link/os/osal\osal.c **** 
 296:E:/LiteOS/LiteOS_Lab/iot_link/os/osal\osal.c **** 
 297:E:/LiteOS/LiteOS_Lab/iot_link/os/osal\osal.c **** #include <stdarg.h>
 298:E:/LiteOS/LiteOS_Lab/iot_link/os/osal\osal.c **** #define LOG_BUF_SIZE  256  ///< you could modify it
 299:E:/LiteOS/LiteOS_Lab/iot_link/os/osal\osal.c **** 
 300:E:/LiteOS/LiteOS_Lab/iot_link/os/osal\osal.c **** int osal_printf(const char *format, ...)
 301:E:/LiteOS/LiteOS_Lab/iot_link/os/osal\osal.c **** {
 1726              		.loc 1 301 0
 1727              		.cfi_startproc
 1728              		@ args = 4, pretend = 16, frame = 264
 1729              		@ frame_needed = 1, uses_anonymous_args = 1
 1730 0000 0FB4     		push	{r0, r1, r2, r3}
 1731              	.LCFI118:
 1732              		.cfi_def_cfa_offset 16
 1733              		.cfi_offset 0, -16
 1734              		.cfi_offset 1, -12
 1735              		.cfi_offset 2, -8
 1736              		.cfi_offset 3, -4
 1737 0002 80B5     		push	{r7, lr}
 1738              	.LCFI119:
 1739              		.cfi_def_cfa_offset 24
 1740              		.cfi_offset 7, -24
 1741              		.cfi_offset 14, -20
 1742 0004 C2B0     		sub	sp, sp, #264
 1743              	.LCFI120:
 1744              		.cfi_def_cfa_offset 288
 1745 0006 00AF     		add	r7, sp, #0
ARM GAS  C:\Users\user\AppData\Local\Temp\ccwjVawZ.s 			page 36


 1746              	.LCFI121:
 1747              		.cfi_def_cfa_register 7
 302:E:/LiteOS/LiteOS_Lab/iot_link/os/osal\osal.c ****     int ret;
 303:E:/LiteOS/LiteOS_Lab/iot_link/os/osal\osal.c ****     char str_buf[LOG_BUF_SIZE] = {0};
 1748              		.loc 1 303 0
 1749 0008 3B1D     		adds	r3, r7, #4
 1750 000a 1846     		mov	r0, r3
 1751 000c 4FF48073 		mov	r3, #256
 1752 0010 1A46     		mov	r2, r3
 1753 0012 0021     		movs	r1, #0
 1754 0014 FFF7FEFF 		bl	memset
 304:E:/LiteOS/LiteOS_Lab/iot_link/os/osal\osal.c ****     va_list list;
 305:E:/LiteOS/LiteOS_Lab/iot_link/os/osal\osal.c **** 
 306:E:/LiteOS/LiteOS_Lab/iot_link/os/osal\osal.c ****     memset(str_buf, 0, LOG_BUF_SIZE);
 1755              		.loc 1 306 0
 1756 0018 3B1D     		adds	r3, r7, #4
 1757 001a 4FF48072 		mov	r2, #256
 1758 001e 0021     		movs	r1, #0
 1759 0020 1846     		mov	r0, r3
 1760 0022 FFF7FEFF 		bl	memset
 307:E:/LiteOS/LiteOS_Lab/iot_link/os/osal\osal.c ****     va_start(list, format);
 1761              		.loc 1 307 0
 1762 0026 07F58A72 		add	r2, r7, #276
 1763 002a 3B46     		mov	r3, r7
 1764 002c 1A60     		str	r2, [r3]
 308:E:/LiteOS/LiteOS_Lab/iot_link/os/osal\osal.c ****     ret = vsnprintf(str_buf, LOG_BUF_SIZE, format, list);
 1765              		.loc 1 308 0
 1766 002e 3B46     		mov	r3, r7
 1767 0030 381D     		adds	r0, r7, #4
 1768 0032 1B68     		ldr	r3, [r3]
 1769 0034 D7F81021 		ldr	r2, [r7, #272]
 1770 0038 4FF48071 		mov	r1, #256
 1771 003c FFF7FEFF 		bl	vsnprintf
 1772 0040 C7F80401 		str	r0, [r7, #260]
 309:E:/LiteOS/LiteOS_Lab/iot_link/os/osal\osal.c ****     va_end(list);
 310:E:/LiteOS/LiteOS_Lab/iot_link/os/osal\osal.c **** 
 311:E:/LiteOS/LiteOS_Lab/iot_link/os/osal\osal.c ****     printf("%s", str_buf);
 1773              		.loc 1 311 0
 1774 0044 3B1D     		adds	r3, r7, #4
 1775 0046 1946     		mov	r1, r3
 1776 0048 0648     		ldr	r0, .L108
 1777 004a FFF7FEFF 		bl	printf
 312:E:/LiteOS/LiteOS_Lab/iot_link/os/osal\osal.c **** 
 313:E:/LiteOS/LiteOS_Lab/iot_link/os/osal\osal.c ****     return ret;
 1778              		.loc 1 313 0
 1779 004e D7F80431 		ldr	r3, [r7, #260]
 314:E:/LiteOS/LiteOS_Lab/iot_link/os/osal\osal.c **** 
 315:E:/LiteOS/LiteOS_Lab/iot_link/os/osal\osal.c **** }
 1780              		.loc 1 315 0
 1781 0052 1846     		mov	r0, r3
 1782 0054 07F58477 		add	r7, r7, #264
 1783              	.LCFI122:
 1784              		.cfi_def_cfa_offset 24
 1785 0058 BD46     		mov	sp, r7
 1786              	.LCFI123:
 1787              		.cfi_def_cfa_register 13
 1788              		@ sp needed
ARM GAS  C:\Users\user\AppData\Local\Temp\ccwjVawZ.s 			page 37


 1789 005a BDE88040 		pop	{r7, lr}
 1790              	.LCFI124:
 1791              		.cfi_restore 14
 1792              		.cfi_restore 7
 1793              		.cfi_def_cfa_offset 16
 1794 005e 04B0     		add	sp, sp, #16
 1795              	.LCFI125:
 1796              		.cfi_restore 3
 1797              		.cfi_restore 2
 1798              		.cfi_restore 1
 1799              		.cfi_restore 0
 1800              		.cfi_def_cfa_offset 0
 1801 0060 7047     		bx	lr
 1802              	.L109:
 1803 0062 00BF     		.align	2
 1804              	.L108:
 1805 0064 00000000 		.word	.LC0
 1806              		.cfi_endproc
 1807              	.LFE27:
 1809              		.section	.text.osal_reboot,"ax",%progbits
 1810              		.align	1
 1811              		.global	osal_reboot
 1812              		.syntax unified
 1813              		.thumb
 1814              		.thumb_func
 1815              		.fpu fpv4-sp-d16
 1817              	osal_reboot:
 1818              	.LFB28:
 316:E:/LiteOS/LiteOS_Lab/iot_link/os/osal\osal.c **** 
 317:E:/LiteOS/LiteOS_Lab/iot_link/os/osal\osal.c **** int osal_reboot()  ///< maybe we should never come back
 318:E:/LiteOS/LiteOS_Lab/iot_link/os/osal\osal.c **** {
 1819              		.loc 1 318 0
 1820              		.cfi_startproc
 1821              		@ args = 0, pretend = 0, frame = 8
 1822              		@ frame_needed = 1, uses_anonymous_args = 0
 1823 0000 80B5     		push	{r7, lr}
 1824              	.LCFI126:
 1825              		.cfi_def_cfa_offset 8
 1826              		.cfi_offset 7, -8
 1827              		.cfi_offset 14, -4
 1828 0002 82B0     		sub	sp, sp, #8
 1829              	.LCFI127:
 1830              		.cfi_def_cfa_offset 16
 1831 0004 00AF     		add	r7, sp, #0
 1832              	.LCFI128:
 1833              		.cfi_def_cfa_register 7
 319:E:/LiteOS/LiteOS_Lab/iot_link/os/osal\osal.c ****     int ret = -1;
 1834              		.loc 1 319 0
 1835 0006 4FF0FF33 		mov	r3, #-1
 1836 000a 7B60     		str	r3, [r7, #4]
 320:E:/LiteOS/LiteOS_Lab/iot_link/os/osal\osal.c **** 
 321:E:/LiteOS/LiteOS_Lab/iot_link/os/osal\osal.c ****     if((NULL != s_os_cb) &&(NULL != s_os_cb->ops) &&(NULL != s_os_cb->ops->reboot))
 1837              		.loc 1 321 0
 1838 000c 0C4B     		ldr	r3, .L113
 1839 000e 1B68     		ldr	r3, [r3]
 1840 0010 002B     		cmp	r3, #0
 1841 0012 10D0     		beq	.L111
ARM GAS  C:\Users\user\AppData\Local\Temp\ccwjVawZ.s 			page 38


 1842              		.loc 1 321 0 is_stmt 0 discriminator 1
 1843 0014 0A4B     		ldr	r3, .L113
 1844 0016 1B68     		ldr	r3, [r3]
 1845 0018 5B68     		ldr	r3, [r3, #4]
 1846 001a 002B     		cmp	r3, #0
 1847 001c 0BD0     		beq	.L111
 1848              		.loc 1 321 0 discriminator 2
 1849 001e 084B     		ldr	r3, .L113
 1850 0020 1B68     		ldr	r3, [r3]
 1851 0022 5B68     		ldr	r3, [r3, #4]
 1852 0024 1B6C     		ldr	r3, [r3, #64]
 1853 0026 002B     		cmp	r3, #0
 1854 0028 05D0     		beq	.L111
 322:E:/LiteOS/LiteOS_Lab/iot_link/os/osal\osal.c ****     {
 323:E:/LiteOS/LiteOS_Lab/iot_link/os/osal\osal.c ****         ret = s_os_cb->ops->reboot();
 1855              		.loc 1 323 0 is_stmt 1
 1856 002a 054B     		ldr	r3, .L113
 1857 002c 1B68     		ldr	r3, [r3]
 1858 002e 5B68     		ldr	r3, [r3, #4]
 1859 0030 1B6C     		ldr	r3, [r3, #64]
 1860 0032 9847     		blx	r3
 1861              	.LVL17:
 1862 0034 7860     		str	r0, [r7, #4]
 1863              	.L111:
 324:E:/LiteOS/LiteOS_Lab/iot_link/os/osal\osal.c ****     }
 325:E:/LiteOS/LiteOS_Lab/iot_link/os/osal\osal.c **** 
 326:E:/LiteOS/LiteOS_Lab/iot_link/os/osal\osal.c ****     return ret;
 1864              		.loc 1 326 0
 1865 0036 7B68     		ldr	r3, [r7, #4]
 327:E:/LiteOS/LiteOS_Lab/iot_link/os/osal\osal.c **** }
 1866              		.loc 1 327 0
 1867 0038 1846     		mov	r0, r3
 1868 003a 0837     		adds	r7, r7, #8
 1869              	.LCFI129:
 1870              		.cfi_def_cfa_offset 8
 1871 003c BD46     		mov	sp, r7
 1872              	.LCFI130:
 1873              		.cfi_def_cfa_register 13
 1874              		@ sp needed
 1875 003e 80BD     		pop	{r7, pc}
 1876              	.L114:
 1877              		.align	2
 1878              	.L113:
 1879 0040 00000000 		.word	s_os_cb
 1880              		.cfi_endproc
 1881              	.LFE28:
 1883              		.section	.text.osal_init,"ax",%progbits
 1884              		.align	1
 1885              		.global	osal_init
 1886              		.syntax unified
 1887              		.thumb
 1888              		.thumb_func
 1889              		.fpu fpv4-sp-d16
 1891              	osal_init:
 1892              	.LFB29:
 328:E:/LiteOS/LiteOS_Lab/iot_link/os/osal\osal.c **** 
 329:E:/LiteOS/LiteOS_Lab/iot_link/os/osal\osal.c **** 
ARM GAS  C:\Users\user\AppData\Local\Temp\ccwjVawZ.s 			page 39


 330:E:/LiteOS/LiteOS_Lab/iot_link/os/osal\osal.c **** 
 331:E:/LiteOS/LiteOS_Lab/iot_link/os/osal\osal.c **** int osal_init(void)
 332:E:/LiteOS/LiteOS_Lab/iot_link/os/osal\osal.c **** {
 1893              		.loc 1 332 0
 1894              		.cfi_startproc
 1895              		@ args = 0, pretend = 0, frame = 0
 1896              		@ frame_needed = 1, uses_anonymous_args = 0
 1897              		@ link register save eliminated.
 1898 0000 80B4     		push	{r7}
 1899              	.LCFI131:
 1900              		.cfi_def_cfa_offset 4
 1901              		.cfi_offset 7, -4
 1902 0002 00AF     		add	r7, sp, #0
 1903              	.LCFI132:
 1904              		.cfi_def_cfa_register 7
 333:E:/LiteOS/LiteOS_Lab/iot_link/os/osal\osal.c ****     return 0;
 1905              		.loc 1 333 0
 1906 0004 0023     		movs	r3, #0
 334:E:/LiteOS/LiteOS_Lab/iot_link/os/osal\osal.c **** }
 1907              		.loc 1 334 0
 1908 0006 1846     		mov	r0, r3
 1909 0008 BD46     		mov	sp, r7
 1910              	.LCFI133:
 1911              		.cfi_def_cfa_register 13
 1912              		@ sp needed
 1913 000a 5DF8047B 		ldr	r7, [sp], #4
 1914              	.LCFI134:
 1915              		.cfi_restore 7
 1916              		.cfi_def_cfa_offset 0
 1917 000e 7047     		bx	lr
 1918              		.cfi_endproc
 1919              	.LFE29:
 1921              		.text
 1922              	.Letext0:
 1923              		.file 2 "e:\\ac6\\systemworkbench\\plugins\\fr.ac6.mcu.externaltools.arm-none.win32_1.16.0.2018071
 1924              		.file 3 "e:\\ac6\\systemworkbench\\plugins\\fr.ac6.mcu.externaltools.arm-none.win32_1.16.0.2018071
 1925              		.file 4 "e:\\ac6\\systemworkbench\\plugins\\fr.ac6.mcu.externaltools.arm-none.win32_1.16.0.2018071
 1926              		.file 5 "e:\\ac6\\systemworkbench\\plugins\\fr.ac6.mcu.externaltools.arm-none.win32_1.16.0.2018071
 1927              		.file 6 "e:\\ac6\\systemworkbench\\plugins\\fr.ac6.mcu.externaltools.arm-none.win32_1.16.0.2018071
 1928              		.file 7 "E:/LiteOS/LiteOS_Lab/iot_link/os/osal/osal_types.h"
 1929              		.file 8 "E:/LiteOS/LiteOS_Lab/iot_link/os/osal/osal_imp.h"
 1930              		.file 9 "e:\\ac6\\systemworkbench\\plugins\\fr.ac6.mcu.externaltools.arm-none.win32_1.16.0.2018071
 1931              		.file 10 "<built-in>"
 1932              		.file 11 "e:\\ac6\\systemworkbench\\plugins\\fr.ac6.mcu.externaltools.arm-none.win32_1.16.0.201807
ARM GAS  C:\Users\user\AppData\Local\Temp\ccwjVawZ.s 			page 40

