ARM GAS  C:\Users\user\AppData\Local\Temp\ccLfvTFI.s 			page 1


   1              		.cpu cortex-m4
   2              		.eabi_attribute 27, 1
   3              		.eabi_attribute 28, 1
   4              		.eabi_attribute 20, 1
   5              		.eabi_attribute 21, 1
   6              		.eabi_attribute 23, 3
   7              		.eabi_attribute 24, 1
   8              		.eabi_attribute 25, 1
   9              		.eabi_attribute 26, 1
  10              		.eabi_attribute 30, 6
  11              		.eabi_attribute 34, 1
  12              		.eabi_attribute 18, 4
  13              		.file	"shell_main.c"
  14              		.text
  15              	.Ltext0:
  16              		.cfi_sections	.debug_frame
  17              		.section	.rodata
  18              		.align	2
  19              	.LC0:
  20 0000 57454C43 		.ascii	"WELCOME TO IOT_LINK SHELL\000"
  20      4F4D4520 
  20      544F2049 
  20      4F545F4C 
  20      494E4B20 
  21              		.section	.data.gs_welcome_info,"aw",%progbits
  22              		.align	2
  25              	gs_welcome_info:
  26 0000 00000000 		.word	.LC0
  27              		.section	.text.shell_get_char,"ax",%progbits
  28              		.align	1
  29              		.syntax unified
  30              		.thumb
  31              		.thumb_func
  32              		.fpu fpv4-sp-d16
  34              	shell_get_char:
  35              	.LFB3:
  36              		.file 1 "E:/LiteOS/LiteOS_Lab/iot_link/shell/shell_main.c"
   1:E:/LiteOS/LiteOS_Lab/iot_link/shell\shell_main.c **** /*----------------------------------------------------------------------------
   2:E:/LiteOS/LiteOS_Lab/iot_link/shell\shell_main.c ****  * Copyright (c) <2018>, <Huawei Technologies Co., Ltd>
   3:E:/LiteOS/LiteOS_Lab/iot_link/shell\shell_main.c ****  * All rights reserved.
   4:E:/LiteOS/LiteOS_Lab/iot_link/shell\shell_main.c ****  * Redistribution and use in source and binary forms, with or without modification,
   5:E:/LiteOS/LiteOS_Lab/iot_link/shell\shell_main.c ****  * are permitted provided that the following conditions are met:
   6:E:/LiteOS/LiteOS_Lab/iot_link/shell\shell_main.c ****  * 1. Redistributions of source code must retain the above copyright notice, this list of
   7:E:/LiteOS/LiteOS_Lab/iot_link/shell\shell_main.c ****  * conditions and the following disclaimer.
   8:E:/LiteOS/LiteOS_Lab/iot_link/shell\shell_main.c ****  * 2. Redistributions in binary form must reproduce the above copyright notice, this list
   9:E:/LiteOS/LiteOS_Lab/iot_link/shell\shell_main.c ****  * of conditions and the following disclaimer in the documentation and/or other materials
  10:E:/LiteOS/LiteOS_Lab/iot_link/shell\shell_main.c ****  * provided with the distribution.
  11:E:/LiteOS/LiteOS_Lab/iot_link/shell\shell_main.c ****  * 3. Neither the name of the copyright holder nor the names of its contributors may be used
  12:E:/LiteOS/LiteOS_Lab/iot_link/shell\shell_main.c ****  * to endorse or promote products derived from this software without specific prior written
  13:E:/LiteOS/LiteOS_Lab/iot_link/shell\shell_main.c ****  * permission.
  14:E:/LiteOS/LiteOS_Lab/iot_link/shell\shell_main.c ****  * THIS SOFTWARE IS PROVIDED BY THE COPYRIGHT HOLDERS AND CONTRIBUTORS
  15:E:/LiteOS/LiteOS_Lab/iot_link/shell\shell_main.c ****  * "AS IS" AND ANY EXPRESS OR IMPLIED WARRANTIES, INCLUDING, BUT NOT LIMITED TO,
  16:E:/LiteOS/LiteOS_Lab/iot_link/shell\shell_main.c ****  * THE IMPLIED WARRANTIES OF MERCHANTABILITY AND FITNESS FOR A PARTICULAR
  17:E:/LiteOS/LiteOS_Lab/iot_link/shell\shell_main.c ****  * PURPOSE ARE DISCLAIMED. IN NO EVENT SHALL THE COPYRIGHT HOLDER OR
  18:E:/LiteOS/LiteOS_Lab/iot_link/shell\shell_main.c ****  * CONTRIBUTORS BE LIABLE FOR ANY DIRECT, INDIRECT, INCIDENTAL, SPECIAL,
  19:E:/LiteOS/LiteOS_Lab/iot_link/shell\shell_main.c ****  * EXEMPLARY, OR CONSEQUENTIAL DAMAGES (INCLUDING, BUT NOT LIMITED TO,
  20:E:/LiteOS/LiteOS_Lab/iot_link/shell\shell_main.c ****  * PROCUREMENT OF SUBSTITUTE GOODS OR SERVICES; LOSS OF USE, DATA, OR PROFITS;
ARM GAS  C:\Users\user\AppData\Local\Temp\ccLfvTFI.s 			page 2


  21:E:/LiteOS/LiteOS_Lab/iot_link/shell\shell_main.c ****  * OR BUSINESS INTERRUPTION) HOWEVER CAUSED AND ON ANY THEORY OF LIABILITY,
  22:E:/LiteOS/LiteOS_Lab/iot_link/shell\shell_main.c ****  * WHETHER IN CONTRACT, STRICT LIABILITY, OR TORT (INCLUDING NEGLIGENCE OR
  23:E:/LiteOS/LiteOS_Lab/iot_link/shell\shell_main.c ****  * OTHERWISE) ARISING IN ANY WAY OUT OF THE USE OF THIS SOFTWARE, EVEN IF
  24:E:/LiteOS/LiteOS_Lab/iot_link/shell\shell_main.c ****  * ADVISED OF THE POSSIBILITY OF SUCH DAMAGE.
  25:E:/LiteOS/LiteOS_Lab/iot_link/shell\shell_main.c ****  *---------------------------------------------------------------------------*/
  26:E:/LiteOS/LiteOS_Lab/iot_link/shell\shell_main.c **** /*----------------------------------------------------------------------------
  27:E:/LiteOS/LiteOS_Lab/iot_link/shell\shell_main.c ****  * Notice of Export Control Law
  28:E:/LiteOS/LiteOS_Lab/iot_link/shell\shell_main.c ****  * ===============================================
  29:E:/LiteOS/LiteOS_Lab/iot_link/shell\shell_main.c ****  * Huawei LiteOS may be subject to applicable export control laws and regulations, which might
  30:E:/LiteOS/LiteOS_Lab/iot_link/shell\shell_main.c ****  * include those applicable to Huawei LiteOS of U.S. and the country in which you are located.
  31:E:/LiteOS/LiteOS_Lab/iot_link/shell\shell_main.c ****  * Import, export and usage of Huawei LiteOS in any manner by you shall be in compliance with such
  32:E:/LiteOS/LiteOS_Lab/iot_link/shell\shell_main.c ****  * applicable export control laws and regulations.
  33:E:/LiteOS/LiteOS_Lab/iot_link/shell\shell_main.c ****  *---------------------------------------------------------------------------*/
  34:E:/LiteOS/LiteOS_Lab/iot_link/shell\shell_main.c **** /**
  35:E:/LiteOS/LiteOS_Lab/iot_link/shell\shell_main.c ****  *  DATE                AUTHOR      INSTRUCTION
  36:E:/LiteOS/LiteOS_Lab/iot_link/shell\shell_main.c ****  *  2019-05-14 17:22  zhangqianfu  The first version
  37:E:/LiteOS/LiteOS_Lab/iot_link/shell\shell_main.c ****  *
  38:E:/LiteOS/LiteOS_Lab/iot_link/shell\shell_main.c ****  */
  39:E:/LiteOS/LiteOS_Lab/iot_link/shell\shell_main.c **** 
  40:E:/LiteOS/LiteOS_Lab/iot_link/shell\shell_main.c **** /**********************************README***************************************
  41:E:/LiteOS/LiteOS_Lab/iot_link/shell\shell_main.c **** this file implement the shell for the system.the following instruction you must take care!
  42:E:/LiteOS/LiteOS_Lab/iot_link/shell\shell_main.c **** 1,anyway,you should implement the getchar and puchar first,maybe you could do the redirection here
  43:E:/LiteOS/LiteOS_Lab/iot_link/shell\shell_main.c ****   i don't care what the stdin and stdout is,that depends you!
  44:E:/LiteOS/LiteOS_Lab/iot_link/shell\shell_main.c **** 2,you could call the shell_install after the system is up!for we will create task here
  45:E:/LiteOS/LiteOS_Lab/iot_link/shell\shell_main.c **** 3,we will do the echo in the shell server:only for the isprint charactor
  46:E:/LiteOS/LiteOS_Lab/iot_link/shell\shell_main.c **** 4,1B XX 41 move the current cursor up
  47:E:/LiteOS/LiteOS_Lab/iot_link/shell\shell_main.c **** 5,1B XX 42 move the current cursor down
  48:E:/LiteOS/LiteOS_Lab/iot_link/shell\shell_main.c **** 6,1B XX 44 move the current cursor left
  49:E:/LiteOS/LiteOS_Lab/iot_link/shell\shell_main.c **** 7,1B XX 43 move the current cursor right
  50:E:/LiteOS/LiteOS_Lab/iot_link/shell\shell_main.c **** 8,'\B' move the current cursor left
  51:E:/LiteOS/LiteOS_Lab/iot_link/shell\shell_main.c **** 9,1B delete all the input and make the following code transfer
  52:E:/LiteOS/LiteOS_Lab/iot_link/shell\shell_main.c **** 10,support insert dynamicly, which implemented  by lynus, thanks
  53:E:/LiteOS/LiteOS_Lab/iot_link/shell\shell_main.c **** *******************************************************************************/
  54:E:/LiteOS/LiteOS_Lab/iot_link/shell\shell_main.c **** 
  55:E:/LiteOS/LiteOS_Lab/iot_link/shell\shell_main.c **** /**************************************FILE INCLIUDES**************************/
  56:E:/LiteOS/LiteOS_Lab/iot_link/shell\shell_main.c **** 
  57:E:/LiteOS/LiteOS_Lab/iot_link/shell\shell_main.c **** 
  58:E:/LiteOS/LiteOS_Lab/iot_link/shell\shell_main.c **** #if cfg_shell_enable
  59:E:/LiteOS/LiteOS_Lab/iot_link/shell\shell_main.c **** 
  60:E:/LiteOS/LiteOS_Lab/iot_link/shell\shell_main.c **** 
  61:E:/LiteOS/LiteOS_Lab/iot_link/shell\shell_main.c **** #include <stdint.h>
  62:E:/LiteOS/LiteOS_Lab/iot_link/shell\shell_main.c **** #include <stddef.h>
  63:E:/LiteOS/LiteOS_Lab/iot_link/shell\shell_main.c **** #include <stdio.h>
  64:E:/LiteOS/LiteOS_Lab/iot_link/shell\shell_main.c **** #include <string.h>
  65:E:/LiteOS/LiteOS_Lab/iot_link/shell\shell_main.c **** #include <shell.h>
  66:E:/LiteOS/LiteOS_Lab/iot_link/shell\shell_main.c **** #include <osal.h>
  67:E:/LiteOS/LiteOS_Lab/iot_link/shell\shell_main.c **** 
  68:E:/LiteOS/LiteOS_Lab/iot_link/shell\shell_main.c **** 
  69:E:/LiteOS/LiteOS_Lab/iot_link/shell\shell_main.c **** 
  70:E:/LiteOS/LiteOS_Lab/iot_link/shell\shell_main.c **** 
  71:E:/LiteOS/LiteOS_Lab/iot_link/shell\shell_main.c **** /**************************************FILE DEFINES****************************/
  72:E:/LiteOS/LiteOS_Lab/iot_link/shell\shell_main.c **** //DEFINE VIRTUAL KEYS:VIRTUAL KEYS ARE COMBINED BY:0X1b 0xXX CODE
  73:E:/LiteOS/LiteOS_Lab/iot_link/shell\shell_main.c **** #define CN_VIRTUAL_KEY_NULL         (0x000000)    //NULL
  74:E:/LiteOS/LiteOS_Lab/iot_link/shell\shell_main.c **** #define CN_VIRTUAL_KEY_ARROWU       (0X41001B)    //UP
  75:E:/LiteOS/LiteOS_Lab/iot_link/shell\shell_main.c **** #define CN_VIRTUAL_KEY_ARROWD       (0X42001B)    //DOWN
  76:E:/LiteOS/LiteOS_Lab/iot_link/shell\shell_main.c **** #define CN_VIRTUAL_KEY_ARROWR       (0X43001B)    //RIGHT
  77:E:/LiteOS/LiteOS_Lab/iot_link/shell\shell_main.c **** #define CN_VIRTUAL_KEY_ARROWL       (0X44001B)    //LEFT
ARM GAS  C:\Users\user\AppData\Local\Temp\ccLfvTFI.s 			page 3


  78:E:/LiteOS/LiteOS_Lab/iot_link/shell\shell_main.c **** //DEFINE SOME SPECIAL KEYS 
  79:E:/LiteOS/LiteOS_Lab/iot_link/shell\shell_main.c **** #define CN_KEY_LF                   (0X00000D)    //ENTER
  80:E:/LiteOS/LiteOS_Lab/iot_link/shell\shell_main.c **** #define CN_KEY_CR                   (0X00000A)    //NEW
  81:E:/LiteOS/LiteOS_Lab/iot_link/shell\shell_main.c **** #define CN_KEY_TAB                  (0X000009)    //TAB
  82:E:/LiteOS/LiteOS_Lab/iot_link/shell\shell_main.c **** #define CN_KEY_BS                   (0X000008)    //BACK
  83:E:/LiteOS/LiteOS_Lab/iot_link/shell\shell_main.c **** #define CN_KEY_ES                   (0X00001B)    //ESPACE
  84:E:/LiteOS/LiteOS_Lab/iot_link/shell\shell_main.c **** //DEFINES FOR THE COMMAND CACHE BUFFER
  85:E:/LiteOS/LiteOS_Lab/iot_link/shell\shell_main.c **** #define CN_CMDLEN_MAX  64  //THE COMMAND MAXLENGTH COULD CACHED
  86:E:/LiteOS/LiteOS_Lab/iot_link/shell\shell_main.c **** #define CN_CMD_CACHE   4   //THE COMMAND CACHED DEPTH
  87:E:/LiteOS/LiteOS_Lab/iot_link/shell\shell_main.c **** //DEFINES FOR THE SHELL SERVER TASK STACK SIZE
  88:E:/LiteOS/LiteOS_Lab/iot_link/shell\shell_main.c **** #define CN_SHELL_STACKSIZE  0x600//FOR ALL THE SHELL COMMAND WILL BE EXECUTED IN THE TASK CONTEXT
  89:E:/LiteOS/LiteOS_Lab/iot_link/shell\shell_main.c **** 
  90:E:/LiteOS/LiteOS_Lab/iot_link/shell\shell_main.c **** 
  91:E:/LiteOS/LiteOS_Lab/iot_link/shell\shell_main.c **** /**************************************FILE DATA STRUCTURE*********************/
  92:E:/LiteOS/LiteOS_Lab/iot_link/shell\shell_main.c **** //data structure used for cache the command
  93:E:/LiteOS/LiteOS_Lab/iot_link/shell\shell_main.c **** struct shell_buffer_t
  94:E:/LiteOS/LiteOS_Lab/iot_link/shell\shell_main.c **** {
  95:E:/LiteOS/LiteOS_Lab/iot_link/shell\shell_main.c ****     char             curcmd[CN_CMDLEN_MAX];               //current command edited
  96:E:/LiteOS/LiteOS_Lab/iot_link/shell\shell_main.c ****     unsigned char    curoffset;                           //position to be edit
  97:E:/LiteOS/LiteOS_Lab/iot_link/shell\shell_main.c ****     char             tab[CN_CMD_CACHE][CN_CMDLEN_MAX];    //command cache table
  98:E:/LiteOS/LiteOS_Lab/iot_link/shell\shell_main.c ****     unsigned char    taboffset;                           //position to be cached in table
  99:E:/LiteOS/LiteOS_Lab/iot_link/shell\shell_main.c **** };
 100:E:/LiteOS/LiteOS_Lab/iot_link/shell\shell_main.c **** 
 101:E:/LiteOS/LiteOS_Lab/iot_link/shell\shell_main.c **** /**************************************FILE VARS*******************************/
 102:E:/LiteOS/LiteOS_Lab/iot_link/shell\shell_main.c **** //define your global variables here
 103:E:/LiteOS/LiteOS_Lab/iot_link/shell\shell_main.c **** static  char *gs_welcome_info= "WELCOME TO IOT_LINK SHELL";
 104:E:/LiteOS/LiteOS_Lab/iot_link/shell\shell_main.c **** /**************************************FILE FUNCTIONS**************************/
 105:E:/LiteOS/LiteOS_Lab/iot_link/shell\shell_main.c **** //functions import
 106:E:/LiteOS/LiteOS_Lab/iot_link/shell\shell_main.c **** extern int shell_cmd_execute(char *param);            //execute the command
 107:E:/LiteOS/LiteOS_Lab/iot_link/shell\shell_main.c **** extern int shell_cmd_init(void);                      //do the command table load
 108:E:/LiteOS/LiteOS_Lab/iot_link/shell\shell_main.c **** extern const struct shell_tab_matches *shell_cmd_index(const char *index);  //find the most like co
 109:E:/LiteOS/LiteOS_Lab/iot_link/shell\shell_main.c **** 
 110:E:/LiteOS/LiteOS_Lab/iot_link/shell\shell_main.c **** 
 111:E:/LiteOS/LiteOS_Lab/iot_link/shell\shell_main.c **** /**************************************FUNCTION IMPLEMENT**********************/
 112:E:/LiteOS/LiteOS_Lab/iot_link/shell\shell_main.c **** /*******************************************************************************
 113:E:/LiteOS/LiteOS_Lab/iot_link/shell\shell_main.c **** function     :function used to get char from the input device
 114:E:/LiteOS/LiteOS_Lab/iot_link/shell\shell_main.c **** parameters   :
 115:E:/LiteOS/LiteOS_Lab/iot_link/shell\shell_main.c **** instruction  :you could reimplement by redirection,make sure it is block mode
 116:E:/LiteOS/LiteOS_Lab/iot_link/shell\shell_main.c **** *******************************************************************************/
 117:E:/LiteOS/LiteOS_Lab/iot_link/shell\shell_main.c **** static int shell_get_char()
 118:E:/LiteOS/LiteOS_Lab/iot_link/shell\shell_main.c **** {
  37              		.loc 1 118 0
  38              		.cfi_startproc
  39              		@ args = 0, pretend = 0, frame = 0
  40              		@ frame_needed = 1, uses_anonymous_args = 0
  41 0000 80B5     		push	{r7, lr}
  42              	.LCFI0:
  43              		.cfi_def_cfa_offset 8
  44              		.cfi_offset 7, -8
  45              		.cfi_offset 14, -4
  46 0002 00AF     		add	r7, sp, #0
  47              	.LCFI1:
  48              		.cfi_def_cfa_register 7
 119:E:/LiteOS/LiteOS_Lab/iot_link/shell\shell_main.c ****     return getchar();
  49              		.loc 1 119 0
  50 0004 FFF7FEFF 		bl	getchar
  51 0008 0346     		mov	r3, r0
ARM GAS  C:\Users\user\AppData\Local\Temp\ccLfvTFI.s 			page 4


 120:E:/LiteOS/LiteOS_Lab/iot_link/shell\shell_main.c **** }
  52              		.loc 1 120 0
  53 000a 1846     		mov	r0, r3
  54 000c 80BD     		pop	{r7, pc}
  55              		.cfi_endproc
  56              	.LFE3:
  58              		.section	.text.shell_put_char,"ax",%progbits
  59              		.align	1
  60              		.syntax unified
  61              		.thumb
  62              		.thumb_func
  63              		.fpu fpv4-sp-d16
  65              	shell_put_char:
  66              	.LFB4:
 121:E:/LiteOS/LiteOS_Lab/iot_link/shell\shell_main.c **** /*******************************************************************************
 122:E:/LiteOS/LiteOS_Lab/iot_link/shell\shell_main.c **** function     :function used to put char to the output device
 123:E:/LiteOS/LiteOS_Lab/iot_link/shell\shell_main.c **** parameters   :
 124:E:/LiteOS/LiteOS_Lab/iot_link/shell\shell_main.c **** instruction  :you could reimplement by redirection
 125:E:/LiteOS/LiteOS_Lab/iot_link/shell\shell_main.c **** *******************************************************************************/
 126:E:/LiteOS/LiteOS_Lab/iot_link/shell\shell_main.c **** static void shell_put_char(int ch)
 127:E:/LiteOS/LiteOS_Lab/iot_link/shell\shell_main.c **** {
  67              		.loc 1 127 0
  68              		.cfi_startproc
  69              		@ args = 0, pretend = 0, frame = 8
  70              		@ frame_needed = 1, uses_anonymous_args = 0
  71 0000 80B5     		push	{r7, lr}
  72              	.LCFI2:
  73              		.cfi_def_cfa_offset 8
  74              		.cfi_offset 7, -8
  75              		.cfi_offset 14, -4
  76 0002 82B0     		sub	sp, sp, #8
  77              	.LCFI3:
  78              		.cfi_def_cfa_offset 16
  79 0004 00AF     		add	r7, sp, #0
  80              	.LCFI4:
  81              		.cfi_def_cfa_register 7
  82 0006 7860     		str	r0, [r7, #4]
 128:E:/LiteOS/LiteOS_Lab/iot_link/shell\shell_main.c ****     putchar(ch);
  83              		.loc 1 128 0
  84 0008 7868     		ldr	r0, [r7, #4]
  85 000a FFF7FEFF 		bl	putchar
 129:E:/LiteOS/LiteOS_Lab/iot_link/shell\shell_main.c ****     fflush (stdout) ; //if you use the glibc, then the you must use this to make it
  86              		.loc 1 129 0
  87 000e 054B     		ldr	r3, .L4
  88 0010 1B68     		ldr	r3, [r3]
  89 0012 9B68     		ldr	r3, [r3, #8]
  90 0014 1846     		mov	r0, r3
  91 0016 FFF7FEFF 		bl	fflush
 130:E:/LiteOS/LiteOS_Lab/iot_link/shell\shell_main.c ****                       //output immediately
 131:E:/LiteOS/LiteOS_Lab/iot_link/shell\shell_main.c **** }
  92              		.loc 1 131 0
  93 001a 00BF     		nop
  94 001c 0837     		adds	r7, r7, #8
  95              	.LCFI5:
  96              		.cfi_def_cfa_offset 8
  97 001e BD46     		mov	sp, r7
  98              	.LCFI6:
ARM GAS  C:\Users\user\AppData\Local\Temp\ccLfvTFI.s 			page 5


  99              		.cfi_def_cfa_register 13
 100              		@ sp needed
 101 0020 80BD     		pop	{r7, pc}
 102              	.L5:
 103 0022 00BF     		.align	2
 104              	.L4:
 105 0024 00000000 		.word	_impure_ptr
 106              		.cfi_endproc
 107              	.LFE4:
 109              		.section	.text.shell_put_string,"ax",%progbits
 110              		.align	1
 111              		.syntax unified
 112              		.thumb
 113              		.thumb_func
 114              		.fpu fpv4-sp-d16
 116              	shell_put_string:
 117              	.LFB5:
 132:E:/LiteOS/LiteOS_Lab/iot_link/shell\shell_main.c **** 
 133:E:/LiteOS/LiteOS_Lab/iot_link/shell\shell_main.c **** /*******************************************************************************
 134:E:/LiteOS/LiteOS_Lab/iot_link/shell\shell_main.c **** function     :function used to put a string
 135:E:/LiteOS/LiteOS_Lab/iot_link/shell\shell_main.c **** parameters   :
 136:E:/LiteOS/LiteOS_Lab/iot_link/shell\shell_main.c **** instruction  :you could reimplement by redirection
 137:E:/LiteOS/LiteOS_Lab/iot_link/shell\shell_main.c **** *******************************************************************************/
 138:E:/LiteOS/LiteOS_Lab/iot_link/shell\shell_main.c **** static void  shell_put_string(const char *str)
 139:E:/LiteOS/LiteOS_Lab/iot_link/shell\shell_main.c **** {
 118              		.loc 1 139 0
 119              		.cfi_startproc
 120              		@ args = 0, pretend = 0, frame = 16
 121              		@ frame_needed = 1, uses_anonymous_args = 0
 122 0000 80B5     		push	{r7, lr}
 123              	.LCFI7:
 124              		.cfi_def_cfa_offset 8
 125              		.cfi_offset 7, -8
 126              		.cfi_offset 14, -4
 127 0002 84B0     		sub	sp, sp, #16
 128              	.LCFI8:
 129              		.cfi_def_cfa_offset 24
 130 0004 00AF     		add	r7, sp, #0
 131              	.LCFI9:
 132              		.cfi_def_cfa_register 7
 133 0006 7860     		str	r0, [r7, #4]
 140:E:/LiteOS/LiteOS_Lab/iot_link/shell\shell_main.c ****     int len;
 141:E:/LiteOS/LiteOS_Lab/iot_link/shell\shell_main.c ****     int i;
 142:E:/LiteOS/LiteOS_Lab/iot_link/shell\shell_main.c ****     len = strlen(str);
 134              		.loc 1 142 0
 135 0008 7868     		ldr	r0, [r7, #4]
 136 000a FFF7FEFF 		bl	strlen
 137 000e 0346     		mov	r3, r0
 138 0010 BB60     		str	r3, [r7, #8]
 143:E:/LiteOS/LiteOS_Lab/iot_link/shell\shell_main.c ****     for(i =0;i<len;i++)
 139              		.loc 1 143 0
 140 0012 0023     		movs	r3, #0
 141 0014 FB60     		str	r3, [r7, #12]
 142 0016 0AE0     		b	.L7
 143              	.L8:
 144:E:/LiteOS/LiteOS_Lab/iot_link/shell\shell_main.c ****     {
 145:E:/LiteOS/LiteOS_Lab/iot_link/shell\shell_main.c ****         shell_put_char(*str);
ARM GAS  C:\Users\user\AppData\Local\Temp\ccLfvTFI.s 			page 6


 144              		.loc 1 145 0 discriminator 3
 145 0018 7B68     		ldr	r3, [r7, #4]
 146 001a 1B78     		ldrb	r3, [r3]	@ zero_extendqisi2
 147 001c 1846     		mov	r0, r3
 148 001e FFF7FEFF 		bl	shell_put_char
 146:E:/LiteOS/LiteOS_Lab/iot_link/shell\shell_main.c ****         str++;
 149              		.loc 1 146 0 discriminator 3
 150 0022 7B68     		ldr	r3, [r7, #4]
 151 0024 0133     		adds	r3, r3, #1
 152 0026 7B60     		str	r3, [r7, #4]
 143:E:/LiteOS/LiteOS_Lab/iot_link/shell\shell_main.c ****     for(i =0;i<len;i++)
 153              		.loc 1 143 0 discriminator 3
 154 0028 FB68     		ldr	r3, [r7, #12]
 155 002a 0133     		adds	r3, r3, #1
 156 002c FB60     		str	r3, [r7, #12]
 157              	.L7:
 143:E:/LiteOS/LiteOS_Lab/iot_link/shell\shell_main.c ****     for(i =0;i<len;i++)
 158              		.loc 1 143 0 is_stmt 0 discriminator 1
 159 002e FA68     		ldr	r2, [r7, #12]
 160 0030 BB68     		ldr	r3, [r7, #8]
 161 0032 9A42     		cmp	r2, r3
 162 0034 F0DB     		blt	.L8
 147:E:/LiteOS/LiteOS_Lab/iot_link/shell\shell_main.c ****     }
 148:E:/LiteOS/LiteOS_Lab/iot_link/shell\shell_main.c **** }
 163              		.loc 1 148 0 is_stmt 1
 164 0036 00BF     		nop
 165 0038 1037     		adds	r7, r7, #16
 166              	.LCFI10:
 167              		.cfi_def_cfa_offset 8
 168 003a BD46     		mov	sp, r7
 169              	.LCFI11:
 170              		.cfi_def_cfa_register 13
 171              		@ sp needed
 172 003c 80BD     		pop	{r7, pc}
 173              		.cfi_endproc
 174              	.LFE5:
 176              		.section	.rodata
 177 001a 0000     		.align	2
 178              	.LC1:
 179 001c 0A0D4C69 		.ascii	"\012\015LiteOS:/>\000"
 179      74654F53 
 179      3A2F3E00 
 180              		.section	.text.shell_put_index,"ax",%progbits
 181              		.align	1
 182              		.syntax unified
 183              		.thumb
 184              		.thumb_func
 185              		.fpu fpv4-sp-d16
 187              	shell_put_index:
 188              	.LFB6:
 149:E:/LiteOS/LiteOS_Lab/iot_link/shell\shell_main.c **** 
 150:E:/LiteOS/LiteOS_Lab/iot_link/shell\shell_main.c **** /*******************************************************************************
 151:E:/LiteOS/LiteOS_Lab/iot_link/shell\shell_main.c **** function     :function used to print the path index
 152:E:/LiteOS/LiteOS_Lab/iot_link/shell\shell_main.c **** parameters   :
 153:E:/LiteOS/LiteOS_Lab/iot_link/shell\shell_main.c **** instruction  :if you has a getcwd function,you could modify this
 154:E:/LiteOS/LiteOS_Lab/iot_link/shell\shell_main.c **** *******************************************************************************/
 155:E:/LiteOS/LiteOS_Lab/iot_link/shell\shell_main.c **** static void shell_put_index()
ARM GAS  C:\Users\user\AppData\Local\Temp\ccLfvTFI.s 			page 7


 156:E:/LiteOS/LiteOS_Lab/iot_link/shell\shell_main.c **** {
 189              		.loc 1 156 0
 190              		.cfi_startproc
 191              		@ args = 0, pretend = 0, frame = 0
 192              		@ frame_needed = 1, uses_anonymous_args = 0
 193 0000 80B5     		push	{r7, lr}
 194              	.LCFI12:
 195              		.cfi_def_cfa_offset 8
 196              		.cfi_offset 7, -8
 197              		.cfi_offset 14, -4
 198 0002 00AF     		add	r7, sp, #0
 199              	.LCFI13:
 200              		.cfi_def_cfa_register 7
 157:E:/LiteOS/LiteOS_Lab/iot_link/shell\shell_main.c ****     shell_put_string("\n\rLiteOS:/>");
 201              		.loc 1 157 0
 202 0004 0248     		ldr	r0, .L10
 203 0006 FFF7FEFF 		bl	shell_put_string
 158:E:/LiteOS/LiteOS_Lab/iot_link/shell\shell_main.c **** }
 204              		.loc 1 158 0
 205 000a 00BF     		nop
 206 000c 80BD     		pop	{r7, pc}
 207              	.L11:
 208 000e 00BF     		.align	2
 209              	.L10:
 210 0010 1C000000 		.word	.LC1
 211              		.cfi_endproc
 212              	.LFE6:
 214              		.section	.rodata
 215              		.align	2
 216              	.LC2:
 217 0028 08200800 		.ascii	"\010 \010\000"
 218              		.section	.text.shell_put_backspace,"ax",%progbits
 219              		.align	1
 220              		.syntax unified
 221              		.thumb
 222              		.thumb_func
 223              		.fpu fpv4-sp-d16
 225              	shell_put_backspace:
 226              	.LFB7:
 159:E:/LiteOS/LiteOS_Lab/iot_link/shell\shell_main.c **** 
 160:E:/LiteOS/LiteOS_Lab/iot_link/shell\shell_main.c **** /*******************************************************************************
 161:E:/LiteOS/LiteOS_Lab/iot_link/shell\shell_main.c **** function     :function used to delete a string in the user display
 162:E:/LiteOS/LiteOS_Lab/iot_link/shell\shell_main.c **** parameters   :
 163:E:/LiteOS/LiteOS_Lab/iot_link/shell\shell_main.c **** instruction  :
 164:E:/LiteOS/LiteOS_Lab/iot_link/shell\shell_main.c **** *******************************************************************************/
 165:E:/LiteOS/LiteOS_Lab/iot_link/shell\shell_main.c **** static void shell_put_backspace(int times)
 166:E:/LiteOS/LiteOS_Lab/iot_link/shell\shell_main.c **** {
 227              		.loc 1 166 0
 228              		.cfi_startproc
 229              		@ args = 0, pretend = 0, frame = 16
 230              		@ frame_needed = 1, uses_anonymous_args = 0
 231 0000 80B5     		push	{r7, lr}
 232              	.LCFI14:
 233              		.cfi_def_cfa_offset 8
 234              		.cfi_offset 7, -8
 235              		.cfi_offset 14, -4
 236 0002 84B0     		sub	sp, sp, #16
ARM GAS  C:\Users\user\AppData\Local\Temp\ccLfvTFI.s 			page 8


 237              	.LCFI15:
 238              		.cfi_def_cfa_offset 24
 239 0004 00AF     		add	r7, sp, #0
 240              	.LCFI16:
 241              		.cfi_def_cfa_register 7
 242 0006 7860     		str	r0, [r7, #4]
 167:E:/LiteOS/LiteOS_Lab/iot_link/shell\shell_main.c ****     int i =0;
 243              		.loc 1 167 0
 244 0008 0023     		movs	r3, #0
 245 000a FB60     		str	r3, [r7, #12]
 168:E:/LiteOS/LiteOS_Lab/iot_link/shell\shell_main.c ****     char *str = "\b \b";
 246              		.loc 1 168 0
 247 000c 094B     		ldr	r3, .L15
 248 000e BB60     		str	r3, [r7, #8]
 169:E:/LiteOS/LiteOS_Lab/iot_link/shell\shell_main.c ****     for(i =0;i<times;i++)
 249              		.loc 1 169 0
 250 0010 0023     		movs	r3, #0
 251 0012 FB60     		str	r3, [r7, #12]
 252 0014 05E0     		b	.L13
 253              	.L14:
 170:E:/LiteOS/LiteOS_Lab/iot_link/shell\shell_main.c ****     {
 171:E:/LiteOS/LiteOS_Lab/iot_link/shell\shell_main.c ****         shell_put_string(str);
 254              		.loc 1 171 0 discriminator 3
 255 0016 B868     		ldr	r0, [r7, #8]
 256 0018 FFF7FEFF 		bl	shell_put_string
 169:E:/LiteOS/LiteOS_Lab/iot_link/shell\shell_main.c ****     for(i =0;i<times;i++)
 257              		.loc 1 169 0 discriminator 3
 258 001c FB68     		ldr	r3, [r7, #12]
 259 001e 0133     		adds	r3, r3, #1
 260 0020 FB60     		str	r3, [r7, #12]
 261              	.L13:
 169:E:/LiteOS/LiteOS_Lab/iot_link/shell\shell_main.c ****     for(i =0;i<times;i++)
 262              		.loc 1 169 0 is_stmt 0 discriminator 1
 263 0022 FA68     		ldr	r2, [r7, #12]
 264 0024 7B68     		ldr	r3, [r7, #4]
 265 0026 9A42     		cmp	r2, r3
 266 0028 F5DB     		blt	.L14
 172:E:/LiteOS/LiteOS_Lab/iot_link/shell\shell_main.c ****     }
 173:E:/LiteOS/LiteOS_Lab/iot_link/shell\shell_main.c **** }
 267              		.loc 1 173 0 is_stmt 1
 268 002a 00BF     		nop
 269 002c 1037     		adds	r7, r7, #16
 270              	.LCFI17:
 271              		.cfi_def_cfa_offset 8
 272 002e BD46     		mov	sp, r7
 273              	.LCFI18:
 274              		.cfi_def_cfa_register 13
 275              		@ sp needed
 276 0030 80BD     		pop	{r7, pc}
 277              	.L16:
 278 0032 00BF     		.align	2
 279              	.L15:
 280 0034 28000000 		.word	.LC2
 281              		.cfi_endproc
 282              	.LFE7:
 284              		.section	.text.shell_put_space,"ax",%progbits
 285              		.align	1
ARM GAS  C:\Users\user\AppData\Local\Temp\ccLfvTFI.s 			page 9


 286              		.syntax unified
 287              		.thumb
 288              		.thumb_func
 289              		.fpu fpv4-sp-d16
 291              	shell_put_space:
 292              	.LFB8:
 174:E:/LiteOS/LiteOS_Lab/iot_link/shell\shell_main.c **** 
 175:E:/LiteOS/LiteOS_Lab/iot_link/shell\shell_main.c **** /*******************************************************************************
 176:E:/LiteOS/LiteOS_Lab/iot_link/shell\shell_main.c **** function     :function used to put a space to display
 177:E:/LiteOS/LiteOS_Lab/iot_link/shell\shell_main.c **** parameters   :
 178:E:/LiteOS/LiteOS_Lab/iot_link/shell\shell_main.c **** instruction  :
 179:E:/LiteOS/LiteOS_Lab/iot_link/shell\shell_main.c **** *******************************************************************************/
 180:E:/LiteOS/LiteOS_Lab/iot_link/shell\shell_main.c **** static void shell_put_space(int times)
 181:E:/LiteOS/LiteOS_Lab/iot_link/shell\shell_main.c **** {
 293              		.loc 1 181 0
 294              		.cfi_startproc
 295              		@ args = 0, pretend = 0, frame = 16
 296              		@ frame_needed = 1, uses_anonymous_args = 0
 297 0000 80B5     		push	{r7, lr}
 298              	.LCFI19:
 299              		.cfi_def_cfa_offset 8
 300              		.cfi_offset 7, -8
 301              		.cfi_offset 14, -4
 302 0002 84B0     		sub	sp, sp, #16
 303              	.LCFI20:
 304              		.cfi_def_cfa_offset 24
 305 0004 00AF     		add	r7, sp, #0
 306              	.LCFI21:
 307              		.cfi_def_cfa_register 7
 308 0006 7860     		str	r0, [r7, #4]
 182:E:/LiteOS/LiteOS_Lab/iot_link/shell\shell_main.c ****     int i =0;
 309              		.loc 1 182 0
 310 0008 0023     		movs	r3, #0
 311 000a FB60     		str	r3, [r7, #12]
 183:E:/LiteOS/LiteOS_Lab/iot_link/shell\shell_main.c ****     for(i =0;i<times;i++)
 312              		.loc 1 183 0
 313 000c 0023     		movs	r3, #0
 314 000e FB60     		str	r3, [r7, #12]
 315 0010 05E0     		b	.L18
 316              	.L19:
 184:E:/LiteOS/LiteOS_Lab/iot_link/shell\shell_main.c ****     {
 185:E:/LiteOS/LiteOS_Lab/iot_link/shell\shell_main.c ****         shell_put_char(' ');
 317              		.loc 1 185 0 discriminator 3
 318 0012 2020     		movs	r0, #32
 319 0014 FFF7FEFF 		bl	shell_put_char
 183:E:/LiteOS/LiteOS_Lab/iot_link/shell\shell_main.c ****     for(i =0;i<times;i++)
 320              		.loc 1 183 0 discriminator 3
 321 0018 FB68     		ldr	r3, [r7, #12]
 322 001a 0133     		adds	r3, r3, #1
 323 001c FB60     		str	r3, [r7, #12]
 324              	.L18:
 183:E:/LiteOS/LiteOS_Lab/iot_link/shell\shell_main.c ****     for(i =0;i<times;i++)
 325              		.loc 1 183 0 is_stmt 0 discriminator 1
 326 001e FA68     		ldr	r2, [r7, #12]
 327 0020 7B68     		ldr	r3, [r7, #4]
 328 0022 9A42     		cmp	r2, r3
 329 0024 F5DB     		blt	.L19
ARM GAS  C:\Users\user\AppData\Local\Temp\ccLfvTFI.s 			page 10


 186:E:/LiteOS/LiteOS_Lab/iot_link/shell\shell_main.c ****     }
 187:E:/LiteOS/LiteOS_Lab/iot_link/shell\shell_main.c **** }
 330              		.loc 1 187 0 is_stmt 1
 331 0026 00BF     		nop
 332 0028 1037     		adds	r7, r7, #16
 333              	.LCFI22:
 334              		.cfi_def_cfa_offset 8
 335 002a BD46     		mov	sp, r7
 336              	.LCFI23:
 337              		.cfi_def_cfa_register 13
 338              		@ sp needed
 339 002c 80BD     		pop	{r7, pc}
 340              		.cfi_endproc
 341              	.LFE8:
 343              		.section	.text.shell_moves_cursor_right,"ax",%progbits
 344              		.align	1
 345              		.syntax unified
 346              		.thumb
 347              		.thumb_func
 348              		.fpu fpv4-sp-d16
 350              	shell_moves_cursor_right:
 351              	.LFB9:
 188:E:/LiteOS/LiteOS_Lab/iot_link/shell\shell_main.c **** /*******************************************************************************
 189:E:/LiteOS/LiteOS_Lab/iot_link/shell\shell_main.c **** function     :function used to move cursor right
 190:E:/LiteOS/LiteOS_Lab/iot_link/shell\shell_main.c **** parameters   :
 191:E:/LiteOS/LiteOS_Lab/iot_link/shell\shell_main.c **** instruction  :
 192:E:/LiteOS/LiteOS_Lab/iot_link/shell\shell_main.c **** *******************************************************************************/
 193:E:/LiteOS/LiteOS_Lab/iot_link/shell\shell_main.c **** static void  shell_moves_cursor_right(int times,unsigned int vk)
 194:E:/LiteOS/LiteOS_Lab/iot_link/shell\shell_main.c **** {
 352              		.loc 1 194 0
 353              		.cfi_startproc
 354              		@ args = 0, pretend = 0, frame = 16
 355              		@ frame_needed = 1, uses_anonymous_args = 0
 356 0000 80B5     		push	{r7, lr}
 357              	.LCFI24:
 358              		.cfi_def_cfa_offset 8
 359              		.cfi_offset 7, -8
 360              		.cfi_offset 14, -4
 361 0002 84B0     		sub	sp, sp, #16
 362              	.LCFI25:
 363              		.cfi_def_cfa_offset 24
 364 0004 00AF     		add	r7, sp, #0
 365              	.LCFI26:
 366              		.cfi_def_cfa_register 7
 367 0006 7860     		str	r0, [r7, #4]
 368 0008 3960     		str	r1, [r7]
 195:E:/LiteOS/LiteOS_Lab/iot_link/shell\shell_main.c ****     char ch;
 196:E:/LiteOS/LiteOS_Lab/iot_link/shell\shell_main.c ****     int i =0;
 369              		.loc 1 196 0
 370 000a 0023     		movs	r3, #0
 371 000c FB60     		str	r3, [r7, #12]
 197:E:/LiteOS/LiteOS_Lab/iot_link/shell\shell_main.c ****     for(i =0;i<times;i++)
 372              		.loc 1 197 0
 373 000e 0023     		movs	r3, #0
 374 0010 FB60     		str	r3, [r7, #12]
 375 0012 16E0     		b	.L21
 376              	.L22:
ARM GAS  C:\Users\user\AppData\Local\Temp\ccLfvTFI.s 			page 11


 198:E:/LiteOS/LiteOS_Lab/iot_link/shell\shell_main.c ****     {
 199:E:/LiteOS/LiteOS_Lab/iot_link/shell\shell_main.c ****         ch = (char)(vk&0xff);
 377              		.loc 1 199 0 discriminator 3
 378 0014 3B68     		ldr	r3, [r7]
 379 0016 FB72     		strb	r3, [r7, #11]
 200:E:/LiteOS/LiteOS_Lab/iot_link/shell\shell_main.c ****         shell_put_char(ch);
 380              		.loc 1 200 0 discriminator 3
 381 0018 FB7A     		ldrb	r3, [r7, #11]	@ zero_extendqisi2
 382 001a 1846     		mov	r0, r3
 383 001c FFF7FEFF 		bl	shell_put_char
 201:E:/LiteOS/LiteOS_Lab/iot_link/shell\shell_main.c ****         ch = (char)((vk>>8)&0xff);
 384              		.loc 1 201 0 discriminator 3
 385 0020 3B68     		ldr	r3, [r7]
 386 0022 1B0A     		lsrs	r3, r3, #8
 387 0024 FB72     		strb	r3, [r7, #11]
 202:E:/LiteOS/LiteOS_Lab/iot_link/shell\shell_main.c ****         shell_put_char(ch);
 388              		.loc 1 202 0 discriminator 3
 389 0026 FB7A     		ldrb	r3, [r7, #11]	@ zero_extendqisi2
 390 0028 1846     		mov	r0, r3
 391 002a FFF7FEFF 		bl	shell_put_char
 203:E:/LiteOS/LiteOS_Lab/iot_link/shell\shell_main.c ****         ch = (char)((vk>>16)&0xff);
 392              		.loc 1 203 0 discriminator 3
 393 002e 3B68     		ldr	r3, [r7]
 394 0030 1B0C     		lsrs	r3, r3, #16
 395 0032 FB72     		strb	r3, [r7, #11]
 204:E:/LiteOS/LiteOS_Lab/iot_link/shell\shell_main.c ****         shell_put_char(ch);
 396              		.loc 1 204 0 discriminator 3
 397 0034 FB7A     		ldrb	r3, [r7, #11]	@ zero_extendqisi2
 398 0036 1846     		mov	r0, r3
 399 0038 FFF7FEFF 		bl	shell_put_char
 197:E:/LiteOS/LiteOS_Lab/iot_link/shell\shell_main.c ****     {
 400              		.loc 1 197 0 discriminator 3
 401 003c FB68     		ldr	r3, [r7, #12]
 402 003e 0133     		adds	r3, r3, #1
 403 0040 FB60     		str	r3, [r7, #12]
 404              	.L21:
 197:E:/LiteOS/LiteOS_Lab/iot_link/shell\shell_main.c ****     {
 405              		.loc 1 197 0 is_stmt 0 discriminator 1
 406 0042 FA68     		ldr	r2, [r7, #12]
 407 0044 7B68     		ldr	r3, [r7, #4]
 408 0046 9A42     		cmp	r2, r3
 409 0048 E4DB     		blt	.L22
 205:E:/LiteOS/LiteOS_Lab/iot_link/shell\shell_main.c ****     }
 206:E:/LiteOS/LiteOS_Lab/iot_link/shell\shell_main.c **** }
 410              		.loc 1 206 0 is_stmt 1
 411 004a 00BF     		nop
 412 004c 1037     		adds	r7, r7, #16
 413              	.LCFI27:
 414              		.cfi_def_cfa_offset 8
 415 004e BD46     		mov	sp, r7
 416              	.LCFI28:
 417              		.cfi_def_cfa_register 13
 418              		@ sp needed
 419 0050 80BD     		pop	{r7, pc}
 420              		.cfi_endproc
 421              	.LFE9:
 423              		.section	.text.shell_bell,"ax",%progbits
ARM GAS  C:\Users\user\AppData\Local\Temp\ccLfvTFI.s 			page 12


 424              		.align	1
 425              		.syntax unified
 426              		.thumb
 427              		.thumb_func
 428              		.fpu fpv4-sp-d16
 430              	shell_bell:
 431              	.LFB10:
 207:E:/LiteOS/LiteOS_Lab/iot_link/shell\shell_main.c **** /*******************************************************************************
 208:E:/LiteOS/LiteOS_Lab/iot_link/shell\shell_main.c **** function     :function used ring the terminal's bell
 209:E:/LiteOS/LiteOS_Lab/iot_link/shell\shell_main.c **** parameters   :
 210:E:/LiteOS/LiteOS_Lab/iot_link/shell\shell_main.c **** instruction  :
 211:E:/LiteOS/LiteOS_Lab/iot_link/shell\shell_main.c **** *******************************************************************************/
 212:E:/LiteOS/LiteOS_Lab/iot_link/shell\shell_main.c **** static void shell_bell() {
 432              		.loc 1 212 0
 433              		.cfi_startproc
 434              		@ args = 0, pretend = 0, frame = 0
 435              		@ frame_needed = 1, uses_anonymous_args = 0
 436 0000 80B5     		push	{r7, lr}
 437              	.LCFI29:
 438              		.cfi_def_cfa_offset 8
 439              		.cfi_offset 7, -8
 440              		.cfi_offset 14, -4
 441 0002 00AF     		add	r7, sp, #0
 442              	.LCFI30:
 443              		.cfi_def_cfa_register 7
 213:E:/LiteOS/LiteOS_Lab/iot_link/shell\shell_main.c ****     shell_put_char('\a');
 444              		.loc 1 213 0
 445 0004 0720     		movs	r0, #7
 446 0006 FFF7FEFF 		bl	shell_put_char
 214:E:/LiteOS/LiteOS_Lab/iot_link/shell\shell_main.c **** }
 447              		.loc 1 214 0
 448 000a 00BF     		nop
 449 000c 80BD     		pop	{r7, pc}
 450              		.cfi_endproc
 451              	.LFE10:
 453              		.section	.text.shell_moves_cursor_left,"ax",%progbits
 454              		.align	1
 455              		.syntax unified
 456              		.thumb
 457              		.thumb_func
 458              		.fpu fpv4-sp-d16
 460              	shell_moves_cursor_left:
 461              	.LFB11:
 215:E:/LiteOS/LiteOS_Lab/iot_link/shell\shell_main.c **** /*******************************************************************************
 216:E:/LiteOS/LiteOS_Lab/iot_link/shell\shell_main.c **** function     :function used to move cursor left
 217:E:/LiteOS/LiteOS_Lab/iot_link/shell\shell_main.c **** parameters   :
 218:E:/LiteOS/LiteOS_Lab/iot_link/shell\shell_main.c **** instruction  :
 219:E:/LiteOS/LiteOS_Lab/iot_link/shell\shell_main.c **** *******************************************************************************/
 220:E:/LiteOS/LiteOS_Lab/iot_link/shell\shell_main.c **** static void  shell_moves_cursor_left(int times){
 462              		.loc 1 220 0
 463              		.cfi_startproc
 464              		@ args = 0, pretend = 0, frame = 16
 465              		@ frame_needed = 1, uses_anonymous_args = 0
 466 0000 80B5     		push	{r7, lr}
 467              	.LCFI31:
 468              		.cfi_def_cfa_offset 8
 469              		.cfi_offset 7, -8
ARM GAS  C:\Users\user\AppData\Local\Temp\ccLfvTFI.s 			page 13


 470              		.cfi_offset 14, -4
 471 0002 84B0     		sub	sp, sp, #16
 472              	.LCFI32:
 473              		.cfi_def_cfa_offset 24
 474 0004 00AF     		add	r7, sp, #0
 475              	.LCFI33:
 476              		.cfi_def_cfa_register 7
 477 0006 7860     		str	r0, [r7, #4]
 221:E:/LiteOS/LiteOS_Lab/iot_link/shell\shell_main.c ****     int i =0;
 478              		.loc 1 221 0
 479 0008 0023     		movs	r3, #0
 480 000a FB60     		str	r3, [r7, #12]
 222:E:/LiteOS/LiteOS_Lab/iot_link/shell\shell_main.c ****     for(i =0;i<times;i++){
 481              		.loc 1 222 0
 482 000c 0023     		movs	r3, #0
 483 000e FB60     		str	r3, [r7, #12]
 484 0010 05E0     		b	.L25
 485              	.L26:
 223:E:/LiteOS/LiteOS_Lab/iot_link/shell\shell_main.c ****         shell_put_char('\b');
 486              		.loc 1 223 0 discriminator 3
 487 0012 0820     		movs	r0, #8
 488 0014 FFF7FEFF 		bl	shell_put_char
 222:E:/LiteOS/LiteOS_Lab/iot_link/shell\shell_main.c ****     for(i =0;i<times;i++){
 489              		.loc 1 222 0 discriminator 3
 490 0018 FB68     		ldr	r3, [r7, #12]
 491 001a 0133     		adds	r3, r3, #1
 492 001c FB60     		str	r3, [r7, #12]
 493              	.L25:
 222:E:/LiteOS/LiteOS_Lab/iot_link/shell\shell_main.c ****     for(i =0;i<times;i++){
 494              		.loc 1 222 0 is_stmt 0 discriminator 1
 495 001e FA68     		ldr	r2, [r7, #12]
 496 0020 7B68     		ldr	r3, [r7, #4]
 497 0022 9A42     		cmp	r2, r3
 498 0024 F5DB     		blt	.L26
 224:E:/LiteOS/LiteOS_Lab/iot_link/shell\shell_main.c ****     }
 225:E:/LiteOS/LiteOS_Lab/iot_link/shell\shell_main.c **** }
 499              		.loc 1 225 0 is_stmt 1
 500 0026 00BF     		nop
 501 0028 1037     		adds	r7, r7, #16
 502              	.LCFI34:
 503              		.cfi_def_cfa_offset 8
 504 002a BD46     		mov	sp, r7
 505              	.LCFI35:
 506              		.cfi_def_cfa_register 13
 507              		@ sp needed
 508 002c 80BD     		pop	{r7, pc}
 509              		.cfi_endproc
 510              	.LFE11:
 512              		.section	.text.shell_cachecmd,"ax",%progbits
 513              		.align	1
 514              		.syntax unified
 515              		.thumb
 516              		.thumb_func
 517              		.fpu fpv4-sp-d16
 519              	shell_cachecmd:
 520              	.LFB12:
 226:E:/LiteOS/LiteOS_Lab/iot_link/shell\shell_main.c **** 
ARM GAS  C:\Users\user\AppData\Local\Temp\ccLfvTFI.s 			page 14


 227:E:/LiteOS/LiteOS_Lab/iot_link/shell\shell_main.c **** 
 228:E:/LiteOS/LiteOS_Lab/iot_link/shell\shell_main.c **** /*******************************************************************************
 229:E:/LiteOS/LiteOS_Lab/iot_link/shell\shell_main.c **** function     :function used cache the current command
 230:E:/LiteOS/LiteOS_Lab/iot_link/shell\shell_main.c **** parameters   :
 231:E:/LiteOS/LiteOS_Lab/iot_link/shell\shell_main.c **** instruction  :check if it has been cached.
 232:E:/LiteOS/LiteOS_Lab/iot_link/shell\shell_main.c **** *******************************************************************************/
 233:E:/LiteOS/LiteOS_Lab/iot_link/shell\shell_main.c **** static void shell_cachecmd(struct shell_buffer_t *tab){
 521              		.loc 1 233 0
 522              		.cfi_startproc
 523              		@ args = 0, pretend = 0, frame = 16
 524              		@ frame_needed = 1, uses_anonymous_args = 0
 525 0000 80B5     		push	{r7, lr}
 526              	.LCFI36:
 527              		.cfi_def_cfa_offset 8
 528              		.cfi_offset 7, -8
 529              		.cfi_offset 14, -4
 530 0002 84B0     		sub	sp, sp, #16
 531              	.LCFI37:
 532              		.cfi_def_cfa_offset 24
 533 0004 00AF     		add	r7, sp, #0
 534              	.LCFI38:
 535              		.cfi_def_cfa_register 7
 536 0006 7860     		str	r0, [r7, #4]
 234:E:/LiteOS/LiteOS_Lab/iot_link/shell\shell_main.c ****     int i = 0;
 537              		.loc 1 234 0
 538 0008 0023     		movs	r3, #0
 539 000a FB60     		str	r3, [r7, #12]
 235:E:/LiteOS/LiteOS_Lab/iot_link/shell\shell_main.c ****     int offset;
 236:E:/LiteOS/LiteOS_Lab/iot_link/shell\shell_main.c ****     for(i = 0;i < CN_CMD_CACHE;i++){
 540              		.loc 1 236 0
 541 000c 0023     		movs	r3, #0
 542 000e FB60     		str	r3, [r7, #12]
 543 0010 0FE0     		b	.L28
 544              	.L31:
 237:E:/LiteOS/LiteOS_Lab/iot_link/shell\shell_main.c ****         if(0 == strcmp(tab->curcmd,tab->tab[i])){
 545              		.loc 1 237 0
 546 0012 7868     		ldr	r0, [r7, #4]
 547 0014 FB68     		ldr	r3, [r7, #12]
 548 0016 0133     		adds	r3, r3, #1
 549 0018 9B01     		lsls	r3, r3, #6
 550 001a 7A68     		ldr	r2, [r7, #4]
 551 001c 1344     		add	r3, r3, r2
 552 001e 0133     		adds	r3, r3, #1
 553 0020 1946     		mov	r1, r3
 554 0022 FFF7FEFF 		bl	strcmp
 555 0026 0346     		mov	r3, r0
 556 0028 002B     		cmp	r3, #0
 557 002a 06D0     		beq	.L34
 236:E:/LiteOS/LiteOS_Lab/iot_link/shell\shell_main.c ****         if(0 == strcmp(tab->curcmd,tab->tab[i])){
 558              		.loc 1 236 0 discriminator 2
 559 002c FB68     		ldr	r3, [r7, #12]
 560 002e 0133     		adds	r3, r3, #1
 561 0030 FB60     		str	r3, [r7, #12]
 562              	.L28:
 236:E:/LiteOS/LiteOS_Lab/iot_link/shell\shell_main.c ****         if(0 == strcmp(tab->curcmd,tab->tab[i])){
 563              		.loc 1 236 0 is_stmt 0 discriminator 1
 564 0032 FB68     		ldr	r3, [r7, #12]
ARM GAS  C:\Users\user\AppData\Local\Temp\ccLfvTFI.s 			page 15


 565 0034 032B     		cmp	r3, #3
 566 0036 ECDD     		ble	.L31
 567 0038 00E0     		b	.L30
 568              	.L34:
 238:E:/LiteOS/LiteOS_Lab/iot_link/shell\shell_main.c ****             break;
 569              		.loc 1 238 0 is_stmt 1
 570 003a 00BF     		nop
 571              	.L30:
 239:E:/LiteOS/LiteOS_Lab/iot_link/shell\shell_main.c ****         }
 240:E:/LiteOS/LiteOS_Lab/iot_link/shell\shell_main.c ****     }
 241:E:/LiteOS/LiteOS_Lab/iot_link/shell\shell_main.c ****     if(i == CN_CMD_CACHE){
 572              		.loc 1 241 0
 573 003c FB68     		ldr	r3, [r7, #12]
 574 003e 042B     		cmp	r3, #4
 575 0040 29D1     		bne	.L35
 242:E:/LiteOS/LiteOS_Lab/iot_link/shell\shell_main.c ****         offset=tab->taboffset;
 576              		.loc 1 242 0
 577 0042 7B68     		ldr	r3, [r7, #4]
 578 0044 93F84131 		ldrb	r3, [r3, #321]	@ zero_extendqisi2
 579 0048 BB60     		str	r3, [r7, #8]
 243:E:/LiteOS/LiteOS_Lab/iot_link/shell\shell_main.c ****         memset(tab->tab[offset],0,CN_CMDLEN_MAX);
 580              		.loc 1 243 0
 581 004a BB68     		ldr	r3, [r7, #8]
 582 004c 0133     		adds	r3, r3, #1
 583 004e 9B01     		lsls	r3, r3, #6
 584 0050 7A68     		ldr	r2, [r7, #4]
 585 0052 1344     		add	r3, r3, r2
 586 0054 0133     		adds	r3, r3, #1
 587 0056 4022     		movs	r2, #64
 588 0058 0021     		movs	r1, #0
 589 005a 1846     		mov	r0, r3
 590 005c FFF7FEFF 		bl	memset
 244:E:/LiteOS/LiteOS_Lab/iot_link/shell\shell_main.c ****         strncpy(tab->tab[offset],tab->curcmd,CN_CMDLEN_MAX);
 591              		.loc 1 244 0
 592 0060 BB68     		ldr	r3, [r7, #8]
 593 0062 0133     		adds	r3, r3, #1
 594 0064 9B01     		lsls	r3, r3, #6
 595 0066 7A68     		ldr	r2, [r7, #4]
 596 0068 1344     		add	r3, r3, r2
 597 006a 0133     		adds	r3, r3, #1
 598 006c 7968     		ldr	r1, [r7, #4]
 599 006e 4022     		movs	r2, #64
 600 0070 1846     		mov	r0, r3
 601 0072 FFF7FEFF 		bl	strncpy
 245:E:/LiteOS/LiteOS_Lab/iot_link/shell\shell_main.c ****         offset = (offset +1)%CN_CMD_CACHE;
 602              		.loc 1 245 0
 603 0076 BB68     		ldr	r3, [r7, #8]
 604 0078 0133     		adds	r3, r3, #1
 605 007a 5A42     		rsbs	r2, r3, #0
 606 007c 03F00303 		and	r3, r3, #3
 607 0080 02F00302 		and	r2, r2, #3
 608 0084 58BF     		it	pl
 609 0086 5342     		rsbpl	r3, r2, #0
 610 0088 BB60     		str	r3, [r7, #8]
 246:E:/LiteOS/LiteOS_Lab/iot_link/shell\shell_main.c ****         tab->taboffset = offset;
 611              		.loc 1 246 0
 612 008a BB68     		ldr	r3, [r7, #8]
ARM GAS  C:\Users\user\AppData\Local\Temp\ccLfvTFI.s 			page 16


 613 008c DAB2     		uxtb	r2, r3
 614 008e 7B68     		ldr	r3, [r7, #4]
 615 0090 83F84121 		strb	r2, [r3, #321]
 247:E:/LiteOS/LiteOS_Lab/iot_link/shell\shell_main.c ****     }
 248:E:/LiteOS/LiteOS_Lab/iot_link/shell\shell_main.c ****     return;
 616              		.loc 1 248 0
 617 0094 00BF     		nop
 618              	.L35:
 619 0096 00BF     		nop
 249:E:/LiteOS/LiteOS_Lab/iot_link/shell\shell_main.c **** }
 620              		.loc 1 249 0
 621 0098 1037     		adds	r7, r7, #16
 622              	.LCFI39:
 623              		.cfi_def_cfa_offset 8
 624 009a BD46     		mov	sp, r7
 625              	.LCFI40:
 626              		.cfi_def_cfa_register 13
 627              		@ sp needed
 628 009c 80BD     		pop	{r7, pc}
 629              		.cfi_endproc
 630              	.LFE12:
 632              		.section	.text.shell_insert_string,"ax",%progbits
 633              		.align	1
 634              		.syntax unified
 635              		.thumb
 636              		.thumb_func
 637              		.fpu fpv4-sp-d16
 639              	shell_insert_string:
 640              	.LFB13:
 250:E:/LiteOS/LiteOS_Lab/iot_link/shell\shell_main.c **** 
 251:E:/LiteOS/LiteOS_Lab/iot_link/shell\shell_main.c **** /*******************************************************************************
 252:E:/LiteOS/LiteOS_Lab/iot_link/shell\shell_main.c **** function     :insert string at the cursor's position
 253:E:/LiteOS/LiteOS_Lab/iot_link/shell\shell_main.c **** parameters   :
 254:E:/LiteOS/LiteOS_Lab/iot_link/shell\shell_main.c **** instruction  :check if it has been cached.
 255:E:/LiteOS/LiteOS_Lab/iot_link/shell\shell_main.c **** *******************************************************************************/
 256:E:/LiteOS/LiteOS_Lab/iot_link/shell\shell_main.c **** static void shell_insert_string(struct shell_buffer_t *tab, const char *str) {
 641              		.loc 1 256 0
 642              		.cfi_startproc
 643              		@ args = 0, pretend = 0, frame = 24
 644              		@ frame_needed = 1, uses_anonymous_args = 0
 645 0000 90B5     		push	{r4, r7, lr}
 646              	.LCFI41:
 647              		.cfi_def_cfa_offset 12
 648              		.cfi_offset 4, -12
 649              		.cfi_offset 7, -8
 650              		.cfi_offset 14, -4
 651 0002 87B0     		sub	sp, sp, #28
 652              	.LCFI42:
 653              		.cfi_def_cfa_offset 40
 654 0004 00AF     		add	r7, sp, #0
 655              	.LCFI43:
 656              		.cfi_def_cfa_register 7
 657 0006 7860     		str	r0, [r7, #4]
 658 0008 3960     		str	r1, [r7]
 257:E:/LiteOS/LiteOS_Lab/iot_link/shell\shell_main.c ****     char *cursor;
 258:E:/LiteOS/LiteOS_Lab/iot_link/shell\shell_main.c ****     cursor = tab->curcmd + tab->curoffset;
 659              		.loc 1 258 0
ARM GAS  C:\Users\user\AppData\Local\Temp\ccLfvTFI.s 			page 17


 660 000a 7B68     		ldr	r3, [r7, #4]
 661 000c 7A68     		ldr	r2, [r7, #4]
 662 000e 92F84020 		ldrb	r2, [r2, #64]	@ zero_extendqisi2
 663 0012 1344     		add	r3, r3, r2
 664 0014 7B61     		str	r3, [r7, #20]
 259:E:/LiteOS/LiteOS_Lab/iot_link/shell\shell_main.c ****     int cursor_len = strlen(cursor);
 665              		.loc 1 259 0
 666 0016 7869     		ldr	r0, [r7, #20]
 667 0018 FFF7FEFF 		bl	strlen
 668 001c 0346     		mov	r3, r0
 669 001e FB60     		str	r3, [r7, #12]
 260:E:/LiteOS/LiteOS_Lab/iot_link/shell\shell_main.c ****     int str_len = strlen(str);
 670              		.loc 1 260 0
 671 0020 3868     		ldr	r0, [r7]
 672 0022 FFF7FEFF 		bl	strlen
 673 0026 0346     		mov	r3, r0
 674 0028 BB60     		str	r3, [r7, #8]
 261:E:/LiteOS/LiteOS_Lab/iot_link/shell\shell_main.c ****     shell_put_string(str);
 675              		.loc 1 261 0
 676 002a 3868     		ldr	r0, [r7]
 677 002c FFF7FEFF 		bl	shell_put_string
 262:E:/LiteOS/LiteOS_Lab/iot_link/shell\shell_main.c ****     shell_put_string(cursor);
 678              		.loc 1 262 0
 679 0030 7869     		ldr	r0, [r7, #20]
 680 0032 FFF7FEFF 		bl	shell_put_string
 263:E:/LiteOS/LiteOS_Lab/iot_link/shell\shell_main.c ****     shell_moves_cursor_left(cursor_len);
 681              		.loc 1 263 0
 682 0036 F868     		ldr	r0, [r7, #12]
 683 0038 FFF7FEFF 		bl	shell_moves_cursor_left
 264:E:/LiteOS/LiteOS_Lab/iot_link/shell\shell_main.c ****     
 265:E:/LiteOS/LiteOS_Lab/iot_link/shell\shell_main.c ****     tab->curoffset += str_len;
 684              		.loc 1 265 0
 685 003c 7B68     		ldr	r3, [r7, #4]
 686 003e 93F84020 		ldrb	r2, [r3, #64]	@ zero_extendqisi2
 687 0042 BB68     		ldr	r3, [r7, #8]
 688 0044 DBB2     		uxtb	r3, r3
 689 0046 1344     		add	r3, r3, r2
 690 0048 DAB2     		uxtb	r2, r3
 691 004a 7B68     		ldr	r3, [r7, #4]
 692 004c 83F84020 		strb	r2, [r3, #64]
 266:E:/LiteOS/LiteOS_Lab/iot_link/shell\shell_main.c ****     cursor = tab->curcmd + strlen(tab->curcmd) + str_len;
 693              		.loc 1 266 0
 694 0050 7C68     		ldr	r4, [r7, #4]
 695 0052 7B68     		ldr	r3, [r7, #4]
 696 0054 1846     		mov	r0, r3
 697 0056 FFF7FEFF 		bl	strlen
 698 005a 0246     		mov	r2, r0
 699 005c BB68     		ldr	r3, [r7, #8]
 700 005e 1344     		add	r3, r3, r2
 701 0060 2344     		add	r3, r3, r4
 702 0062 7B61     		str	r3, [r7, #20]
 267:E:/LiteOS/LiteOS_Lab/iot_link/shell\shell_main.c ****     *(cursor--) = 0;
 703              		.loc 1 267 0
 704 0064 7B69     		ldr	r3, [r7, #20]
 705 0066 5A1E     		subs	r2, r3, #1
 706 0068 7A61     		str	r2, [r7, #20]
 707 006a 0022     		movs	r2, #0
ARM GAS  C:\Users\user\AppData\Local\Temp\ccLfvTFI.s 			page 18


 708 006c 1A70     		strb	r2, [r3]
 709              	.LBB2:
 268:E:/LiteOS/LiteOS_Lab/iot_link/shell\shell_main.c ****     for (int i = 0; i < cursor_len; i++) {
 710              		.loc 1 268 0
 711 006e 0023     		movs	r3, #0
 712 0070 3B61     		str	r3, [r7, #16]
 713 0072 0CE0     		b	.L37
 714              	.L38:
 269:E:/LiteOS/LiteOS_Lab/iot_link/shell\shell_main.c ****         *cursor = *(cursor - str_len);
 715              		.loc 1 269 0 discriminator 3
 716 0074 BB68     		ldr	r3, [r7, #8]
 717 0076 5B42     		negs	r3, r3
 718 0078 7A69     		ldr	r2, [r7, #20]
 719 007a 1344     		add	r3, r3, r2
 720 007c 1A78     		ldrb	r2, [r3]	@ zero_extendqisi2
 721 007e 7B69     		ldr	r3, [r7, #20]
 722 0080 1A70     		strb	r2, [r3]
 270:E:/LiteOS/LiteOS_Lab/iot_link/shell\shell_main.c ****         cursor--;
 723              		.loc 1 270 0 discriminator 3
 724 0082 7B69     		ldr	r3, [r7, #20]
 725 0084 013B     		subs	r3, r3, #1
 726 0086 7B61     		str	r3, [r7, #20]
 268:E:/LiteOS/LiteOS_Lab/iot_link/shell\shell_main.c ****     for (int i = 0; i < cursor_len; i++) {
 727              		.loc 1 268 0 discriminator 3
 728 0088 3B69     		ldr	r3, [r7, #16]
 729 008a 0133     		adds	r3, r3, #1
 730 008c 3B61     		str	r3, [r7, #16]
 731              	.L37:
 268:E:/LiteOS/LiteOS_Lab/iot_link/shell\shell_main.c ****     for (int i = 0; i < cursor_len; i++) {
 732              		.loc 1 268 0 is_stmt 0 discriminator 1
 733 008e 3A69     		ldr	r2, [r7, #16]
 734 0090 FB68     		ldr	r3, [r7, #12]
 735 0092 9A42     		cmp	r2, r3
 736 0094 EEDB     		blt	.L38
 737              	.LBE2:
 271:E:/LiteOS/LiteOS_Lab/iot_link/shell\shell_main.c ****     }
 272:E:/LiteOS/LiteOS_Lab/iot_link/shell\shell_main.c ****     cursor = cursor - (str_len - 1);
 738              		.loc 1 272 0 is_stmt 1
 739 0096 BB68     		ldr	r3, [r7, #8]
 740 0098 C3F10103 		rsb	r3, r3, #1
 741 009c 7A69     		ldr	r2, [r7, #20]
 742 009e 1344     		add	r3, r3, r2
 743 00a0 7B61     		str	r3, [r7, #20]
 273:E:/LiteOS/LiteOS_Lab/iot_link/shell\shell_main.c ****     strncpy(cursor, str, str_len);
 744              		.loc 1 273 0
 745 00a2 BB68     		ldr	r3, [r7, #8]
 746 00a4 1A46     		mov	r2, r3
 747 00a6 3968     		ldr	r1, [r7]
 748 00a8 7869     		ldr	r0, [r7, #20]
 749 00aa FFF7FEFF 		bl	strncpy
 274:E:/LiteOS/LiteOS_Lab/iot_link/shell\shell_main.c **** }
 750              		.loc 1 274 0
 751 00ae 00BF     		nop
 752 00b0 1C37     		adds	r7, r7, #28
 753              	.LCFI44:
 754              		.cfi_def_cfa_offset 12
 755 00b2 BD46     		mov	sp, r7
ARM GAS  C:\Users\user\AppData\Local\Temp\ccLfvTFI.s 			page 19


 756              	.LCFI45:
 757              		.cfi_def_cfa_register 13
 758              		@ sp needed
 759 00b4 90BD     		pop	{r4, r7, pc}
 760              		.cfi_endproc
 761              	.LFE13:
 763              		.section	.rodata
 764              		.align	2
 765              	.LC3:
 766 002c 0A0D00   		.ascii	"\012\015\000"
 767              		.section	.text.shell_server_entry,"ax",%progbits
 768              		.align	1
 769              		.syntax unified
 770              		.thumb
 771              		.thumb_func
 772              		.fpu fpv4-sp-d16
 774              	shell_server_entry:
 775              	.LFB14:
 275:E:/LiteOS/LiteOS_Lab/iot_link/shell\shell_main.c **** /*******************************************************************************
 276:E:/LiteOS/LiteOS_Lab/iot_link/shell\shell_main.c **** function     :this is the  shell server task entry
 277:E:/LiteOS/LiteOS_Lab/iot_link/shell\shell_main.c **** parameters   :
 278:E:/LiteOS/LiteOS_Lab/iot_link/shell\shell_main.c **** instruction  :we get character from the input device each time,cached it in the 
 279:E:/LiteOS/LiteOS_Lab/iot_link/shell\shell_main.c ****               current command line,if enter key received, then do command execute;
 280:E:/LiteOS/LiteOS_Lab/iot_link/shell\shell_main.c ****               if other virtual key received, then do the specified action.
 281:E:/LiteOS/LiteOS_Lab/iot_link/shell\shell_main.c **** *******************************************************************************/
 282:E:/LiteOS/LiteOS_Lab/iot_link/shell\shell_main.c **** static int shell_server_entry(void *args)
 283:E:/LiteOS/LiteOS_Lab/iot_link/shell\shell_main.c **** {
 776              		.loc 1 283 0
 777              		.cfi_startproc
 778              		@ args = 0, pretend = 0, frame = 376
 779              		@ frame_needed = 1, uses_anonymous_args = 0
 780 0000 80B5     		push	{r7, lr}
 781              	.LCFI46:
 782              		.cfi_def_cfa_offset 8
 783              		.cfi_offset 7, -8
 784              		.cfi_offset 14, -4
 785 0002 DEB0     		sub	sp, sp, #376
 786              	.LCFI47:
 787              		.cfi_def_cfa_offset 384
 788 0004 00AF     		add	r7, sp, #0
 789              	.LCFI48:
 790              		.cfi_def_cfa_register 7
 791 0006 3B1D     		adds	r3, r7, #4
 792 0008 1860     		str	r0, [r3]
 284:E:/LiteOS/LiteOS_Lab/iot_link/shell\shell_main.c ****     int    ch;
 285:E:/LiteOS/LiteOS_Lab/iot_link/shell\shell_main.c ****     int   len;
 286:E:/LiteOS/LiteOS_Lab/iot_link/shell\shell_main.c ****     unsigned char    offset;
 287:E:/LiteOS/LiteOS_Lab/iot_link/shell\shell_main.c ****     unsigned int   vk = CN_VIRTUAL_KEY_NULL;
 793              		.loc 1 287 0
 794 000a 0023     		movs	r3, #0
 795 000c C7F87431 		str	r3, [r7, #372]
 288:E:/LiteOS/LiteOS_Lab/iot_link/shell\shell_main.c ****     unsigned int   vkmask = CN_VIRTUAL_KEY_NULL;
 796              		.loc 1 288 0
 797 0010 0023     		movs	r3, #0
 798 0012 C7F87031 		str	r3, [r7, #368]
 289:E:/LiteOS/LiteOS_Lab/iot_link/shell\shell_main.c ****     struct shell_buffer_t shell_cmd_cache; 
 290:E:/LiteOS/LiteOS_Lab/iot_link/shell\shell_main.c **** 
ARM GAS  C:\Users\user\AppData\Local\Temp\ccLfvTFI.s 			page 20


 291:E:/LiteOS/LiteOS_Lab/iot_link/shell\shell_main.c ****     memset(&shell_cmd_cache,0,sizeof(shell_cmd_cache));  //initialize the buffer
 799              		.loc 1 291 0
 800 0016 07F10C03 		add	r3, r7, #12
 801 001a 4FF4A172 		mov	r2, #322
 802 001e 0021     		movs	r1, #0
 803 0020 1846     		mov	r0, r3
 804 0022 FFF7FEFF 		bl	memset
 292:E:/LiteOS/LiteOS_Lab/iot_link/shell\shell_main.c ****     shell_put_string(gs_welcome_info);     //put the welcome information
 805              		.loc 1 292 0
 806 0026 E84B     		ldr	r3, .L81
 807 0028 1B68     		ldr	r3, [r3]
 808 002a 1846     		mov	r0, r3
 809 002c FFF7FEFF 		bl	shell_put_string
 293:E:/LiteOS/LiteOS_Lab/iot_link/shell\shell_main.c ****     shell_put_index();                                   //do initialize
 810              		.loc 1 293 0
 811 0030 FFF7FEFF 		bl	shell_put_index
 812              	.L79:
 294:E:/LiteOS/LiteOS_Lab/iot_link/shell\shell_main.c ****     while(1){
 295:E:/LiteOS/LiteOS_Lab/iot_link/shell\shell_main.c ****         ch= shell_get_char();
 813              		.loc 1 295 0
 814 0034 FFF7FEFF 		bl	shell_get_char
 815 0038 0346     		mov	r3, r0
 816 003a C7F85031 		str	r3, [r7, #336]
 296:E:/LiteOS/LiteOS_Lab/iot_link/shell\shell_main.c ****         if((ch == CN_VIRTUAL_KEY_NULL)||(EOF == ch)||(ch == 0xFF)){
 817              		.loc 1 296 0
 818 003e D7F85031 		ldr	r3, [r7, #336]
 819 0042 002B     		cmp	r3, #0
 820 0044 00F0D482 		beq	.L80
 821              		.loc 1 296 0 is_stmt 0 discriminator 1
 822 0048 D7F85031 		ldr	r3, [r7, #336]
 823 004c B3F1FF3F 		cmp	r3, #-1
 824 0050 00F0CE82 		beq	.L80
 825              		.loc 1 296 0 discriminator 2
 826 0054 D7F85031 		ldr	r3, [r7, #336]
 827 0058 FF2B     		cmp	r3, #255
 828 005a 00F0C982 		beq	.L80
 297:E:/LiteOS/LiteOS_Lab/iot_link/shell\shell_main.c ****             continue;
 298:E:/LiteOS/LiteOS_Lab/iot_link/shell\shell_main.c ****         }
 299:E:/LiteOS/LiteOS_Lab/iot_link/shell\shell_main.c ****         if((vk&0xFF) != 0)  {
 829              		.loc 1 299 0 is_stmt 1
 830 005e D7F87431 		ldr	r3, [r7, #372]
 831 0062 DBB2     		uxtb	r3, r3
 832 0064 002B     		cmp	r3, #0
 833 0066 22D0     		beq	.L43
 300:E:/LiteOS/LiteOS_Lab/iot_link/shell\shell_main.c ****             if(((vk>>8)&0xff) == CN_VIRTUAL_KEY_NULL)  {
 834              		.loc 1 300 0
 835 0068 D7F87431 		ldr	r3, [r7, #372]
 836 006c 1B0A     		lsrs	r3, r3, #8
 837 006e DBB2     		uxtb	r3, r3
 838 0070 002B     		cmp	r3, #0
 839 0072 09D1     		bne	.L44
 301:E:/LiteOS/LiteOS_Lab/iot_link/shell\shell_main.c ****                 vk|=(ch<<8); 
 840              		.loc 1 301 0
 841 0074 D7F85031 		ldr	r3, [r7, #336]
 842 0078 1B02     		lsls	r3, r3, #8
 843 007a 1A46     		mov	r2, r3
 844 007c D7F87431 		ldr	r3, [r7, #372]
ARM GAS  C:\Users\user\AppData\Local\Temp\ccLfvTFI.s 			page 21


 845 0080 1343     		orrs	r3, r3, r2
 846 0082 C7F87431 		str	r3, [r7, #372]
 302:E:/LiteOS/LiteOS_Lab/iot_link/shell\shell_main.c ****                 continue;    
 847              		.loc 1 302 0
 848 0086 B4E2     		b	.L42
 849              	.L44:
 303:E:/LiteOS/LiteOS_Lab/iot_link/shell\shell_main.c ****             }
 304:E:/LiteOS/LiteOS_Lab/iot_link/shell\shell_main.c ****             else  {
 305:E:/LiteOS/LiteOS_Lab/iot_link/shell\shell_main.c ****                 vk |= (ch <<16);//this is the vk code
 850              		.loc 1 305 0
 851 0088 D7F85031 		ldr	r3, [r7, #336]
 852 008c 1B04     		lsls	r3, r3, #16
 853 008e 1A46     		mov	r2, r3
 854 0090 D7F87431 		ldr	r3, [r7, #372]
 855 0094 1343     		orrs	r3, r3, r2
 856 0096 C7F87431 		str	r3, [r7, #372]
 306:E:/LiteOS/LiteOS_Lab/iot_link/shell\shell_main.c ****                 vkmask |= (ch <<16);
 857              		.loc 1 306 0
 858 009a D7F85031 		ldr	r3, [r7, #336]
 859 009e 1B04     		lsls	r3, r3, #16
 860 00a0 1A46     		mov	r2, r3
 861 00a2 D7F87031 		ldr	r3, [r7, #368]
 862 00a6 1343     		orrs	r3, r3, r2
 863 00a8 C7F87031 		str	r3, [r7, #368]
 864 00ac 03E0     		b	.L45
 865              	.L43:
 307:E:/LiteOS/LiteOS_Lab/iot_link/shell\shell_main.c ****             }
 308:E:/LiteOS/LiteOS_Lab/iot_link/shell\shell_main.c ****         }
 309:E:/LiteOS/LiteOS_Lab/iot_link/shell\shell_main.c ****         else{
 310:E:/LiteOS/LiteOS_Lab/iot_link/shell\shell_main.c ****             vkmask  = ch;
 866              		.loc 1 310 0
 867 00ae D7F85031 		ldr	r3, [r7, #336]
 868 00b2 C7F87031 		str	r3, [r7, #368]
 869              	.L45:
 311:E:/LiteOS/LiteOS_Lab/iot_link/shell\shell_main.c ****         }
 312:E:/LiteOS/LiteOS_Lab/iot_link/shell\shell_main.c ****         switch (vkmask)
 870              		.loc 1 312 0
 871 00b6 D7F87031 		ldr	r3, [r7, #368]
 872 00ba 1B2B     		cmp	r3, #27
 873 00bc 00F06B82 		beq	.L47
 874 00c0 1B2B     		cmp	r3, #27
 875 00c2 0FD8     		bhi	.L48
 876 00c4 092B     		cmp	r3, #9
 877 00c6 00F03E81 		beq	.L49
 878 00ca 092B     		cmp	r3, #9
 879 00cc 03D8     		bhi	.L50
 880 00ce 082B     		cmp	r3, #8
 881 00d0 00F01E82 		beq	.L51
 882 00d4 66E2     		b	.L46
 883              	.L50:
 884 00d6 0A2B     		cmp	r3, #10
 885 00d8 00F0F381 		beq	.L52
 886 00dc 0D2B     		cmp	r3, #13
 887 00de 00F0C981 		beq	.L53
 888 00e2 5FE2     		b	.L46
 889              	.L48:
 890 00e4 B94A     		ldr	r2, .L81+4
ARM GAS  C:\Users\user\AppData\Local\Temp\ccLfvTFI.s 			page 22


 891 00e6 9342     		cmp	r3, r2
 892 00e8 00F0C180 		beq	.L54
 893 00ec B74A     		ldr	r2, .L81+4
 894 00ee 9342     		cmp	r3, r2
 895 00f0 03D8     		bhi	.L55
 896 00f2 B74A     		ldr	r2, .L81+8
 897 00f4 9342     		cmp	r3, r2
 898 00f6 4ED0     		beq	.L56
 899 00f8 54E2     		b	.L46
 900              	.L55:
 901 00fa B64A     		ldr	r2, .L81+12
 902 00fc 9342     		cmp	r3, r2
 903 00fe 20D0     		beq	.L57
 904 0100 B54A     		ldr	r2, .L81+16
 905 0102 9342     		cmp	r3, r2
 906 0104 40F04E82 		bne	.L46
 313:E:/LiteOS/LiteOS_Lab/iot_link/shell\shell_main.c ****         {
 314:E:/LiteOS/LiteOS_Lab/iot_link/shell\shell_main.c ****             case CN_VIRTUAL_KEY_ARROWL:        //left,make the cursor moved left
 315:E:/LiteOS/LiteOS_Lab/iot_link/shell\shell_main.c ****                 if(shell_cmd_cache.curoffset > 0){
 907              		.loc 1 315 0
 908 0108 07F10C03 		add	r3, r7, #12
 909 010c 93F84030 		ldrb	r3, [r3, #64]	@ zero_extendqisi2
 910 0110 002B     		cmp	r3, #0
 911 0112 0DD0     		beq	.L59
 316:E:/LiteOS/LiteOS_Lab/iot_link/shell\shell_main.c ****                     shell_cmd_cache.curoffset--;
 912              		.loc 1 316 0
 913 0114 07F10C03 		add	r3, r7, #12
 914 0118 93F84030 		ldrb	r3, [r3, #64]	@ zero_extendqisi2
 915 011c 013B     		subs	r3, r3, #1
 916 011e DAB2     		uxtb	r2, r3
 917 0120 07F10C03 		add	r3, r7, #12
 918 0124 83F84020 		strb	r2, [r3, #64]
 317:E:/LiteOS/LiteOS_Lab/iot_link/shell\shell_main.c ****                     //push back the left cursor and make the terminal display know what has happene
 318:E:/LiteOS/LiteOS_Lab/iot_link/shell\shell_main.c ****                     shell_moves_cursor_left(1);
 919              		.loc 1 318 0
 920 0128 0120     		movs	r0, #1
 921 012a FFF7FEFF 		bl	shell_moves_cursor_left
 922 012e 01E0     		b	.L60
 923              	.L59:
 319:E:/LiteOS/LiteOS_Lab/iot_link/shell\shell_main.c ****                 }else
 320:E:/LiteOS/LiteOS_Lab/iot_link/shell\shell_main.c ****                     shell_bell();
 924              		.loc 1 320 0
 925 0130 FFF7FEFF 		bl	shell_bell
 926              	.L60:
 321:E:/LiteOS/LiteOS_Lab/iot_link/shell\shell_main.c ****                 //flush the vk
 322:E:/LiteOS/LiteOS_Lab/iot_link/shell\shell_main.c ****                 vk = CN_VIRTUAL_KEY_NULL;
 927              		.loc 1 322 0
 928 0134 0023     		movs	r3, #0
 929 0136 C7F87431 		str	r3, [r7, #372]
 323:E:/LiteOS/LiteOS_Lab/iot_link/shell\shell_main.c ****                 vkmask = CN_VIRTUAL_KEY_NULL;
 930              		.loc 1 323 0
 931 013a 0023     		movs	r3, #0
 932 013c C7F87031 		str	r3, [r7, #368]
 324:E:/LiteOS/LiteOS_Lab/iot_link/shell\shell_main.c ****                 break;
 933              		.loc 1 324 0
 934 0140 57E2     		b	.L42
 935              	.L57:
ARM GAS  C:\Users\user\AppData\Local\Temp\ccLfvTFI.s 			page 23


 325:E:/LiteOS/LiteOS_Lab/iot_link/shell\shell_main.c ****             case CN_VIRTUAL_KEY_ARROWR:        //right,make the cursor moved right,if the buffer ha
 326:E:/LiteOS/LiteOS_Lab/iot_link/shell\shell_main.c ****                 len = strlen(shell_cmd_cache.curcmd);
 936              		.loc 1 326 0
 937 0142 07F10C03 		add	r3, r7, #12
 938 0146 1846     		mov	r0, r3
 939 0148 FFF7FEFF 		bl	strlen
 940 014c 0346     		mov	r3, r0
 941 014e C7F86831 		str	r3, [r7, #360]
 327:E:/LiteOS/LiteOS_Lab/iot_link/shell\shell_main.c ****                 if(shell_cmd_cache.curoffset < len){
 942              		.loc 1 327 0
 943 0152 07F10C03 		add	r3, r7, #12
 944 0156 93F84030 		ldrb	r3, [r3, #64]	@ zero_extendqisi2
 945 015a 1A46     		mov	r2, r3
 946 015c D7F86831 		ldr	r3, [r7, #360]
 947 0160 9342     		cmp	r3, r2
 948 0162 0FDD     		ble	.L61
 328:E:/LiteOS/LiteOS_Lab/iot_link/shell\shell_main.c ****                     shell_cmd_cache.curoffset++;
 949              		.loc 1 328 0
 950 0164 07F10C03 		add	r3, r7, #12
 951 0168 93F84030 		ldrb	r3, [r3, #64]	@ zero_extendqisi2
 952 016c 0133     		adds	r3, r3, #1
 953 016e DAB2     		uxtb	r2, r3
 954 0170 07F10C03 		add	r3, r7, #12
 955 0174 83F84020 		strb	r2, [r3, #64]
 329:E:/LiteOS/LiteOS_Lab/iot_link/shell\shell_main.c ****                     //push back the right cursor and make the terminal display know what has happen
 330:E:/LiteOS/LiteOS_Lab/iot_link/shell\shell_main.c ****                     shell_moves_cursor_right(1,vk);
 956              		.loc 1 330 0
 957 0178 D7F87411 		ldr	r1, [r7, #372]
 958 017c 0120     		movs	r0, #1
 959 017e FFF7FEFF 		bl	shell_moves_cursor_right
 960 0182 01E0     		b	.L62
 961              	.L61:
 331:E:/LiteOS/LiteOS_Lab/iot_link/shell\shell_main.c ****                 } else
 332:E:/LiteOS/LiteOS_Lab/iot_link/shell\shell_main.c ****                 shell_bell();
 962              		.loc 1 332 0
 963 0184 FFF7FEFF 		bl	shell_bell
 964              	.L62:
 333:E:/LiteOS/LiteOS_Lab/iot_link/shell\shell_main.c ****                 //flush the vk
 334:E:/LiteOS/LiteOS_Lab/iot_link/shell\shell_main.c ****                 vk = CN_VIRTUAL_KEY_NULL;
 965              		.loc 1 334 0
 966 0188 0023     		movs	r3, #0
 967 018a C7F87431 		str	r3, [r7, #372]
 335:E:/LiteOS/LiteOS_Lab/iot_link/shell\shell_main.c ****                 vkmask = CN_VIRTUAL_KEY_NULL;
 968              		.loc 1 335 0
 969 018e 0023     		movs	r3, #0
 970 0190 C7F87031 		str	r3, [r7, #368]
 336:E:/LiteOS/LiteOS_Lab/iot_link/shell\shell_main.c ****                 break;
 971              		.loc 1 336 0
 972 0194 2DE2     		b	.L42
 973              	.L56:
 337:E:/LiteOS/LiteOS_Lab/iot_link/shell\shell_main.c ****             case CN_VIRTUAL_KEY_ARROWU:        //moves to the previous command
 338:E:/LiteOS/LiteOS_Lab/iot_link/shell\shell_main.c ****                 //first,we should clear what we has get,do the reset current command
 339:E:/LiteOS/LiteOS_Lab/iot_link/shell\shell_main.c ****                 //first moves to the left,then putsnxt to the next to the right,then back
 340:E:/LiteOS/LiteOS_Lab/iot_link/shell\shell_main.c ****                 len = strlen(shell_cmd_cache.curcmd);
 974              		.loc 1 340 0
 975 0196 07F10C03 		add	r3, r7, #12
 976 019a 1846     		mov	r0, r3
ARM GAS  C:\Users\user\AppData\Local\Temp\ccLfvTFI.s 			page 24


 977 019c FFF7FEFF 		bl	strlen
 978 01a0 0346     		mov	r3, r0
 979 01a2 C7F86831 		str	r3, [r7, #360]
 341:E:/LiteOS/LiteOS_Lab/iot_link/shell\shell_main.c ****                 if(shell_cmd_cache.curoffset < len){
 980              		.loc 1 341 0
 981 01a6 07F10C03 		add	r3, r7, #12
 982 01aa 93F84030 		ldrb	r3, [r3, #64]	@ zero_extendqisi2
 983 01ae 1A46     		mov	r2, r3
 984 01b0 D7F86831 		ldr	r3, [r7, #360]
 985 01b4 9342     		cmp	r3, r2
 986 01b6 11DD     		ble	.L63
 342:E:/LiteOS/LiteOS_Lab/iot_link/shell\shell_main.c ****                     shell_put_space(len - shell_cmd_cache.curoffset);
 987              		.loc 1 342 0
 988 01b8 07F10C03 		add	r3, r7, #12
 989 01bc 93F84030 		ldrb	r3, [r3, #64]	@ zero_extendqisi2
 990 01c0 1A46     		mov	r2, r3
 991 01c2 D7F86831 		ldr	r3, [r7, #360]
 992 01c6 9B1A     		subs	r3, r3, r2
 993 01c8 1846     		mov	r0, r3
 994 01ca FFF7FEFF 		bl	shell_put_space
 343:E:/LiteOS/LiteOS_Lab/iot_link/shell\shell_main.c ****                     shell_cmd_cache.curoffset = len;
 995              		.loc 1 343 0
 996 01ce D7F86831 		ldr	r3, [r7, #360]
 997 01d2 DAB2     		uxtb	r2, r3
 998 01d4 07F10C03 		add	r3, r7, #12
 999 01d8 83F84020 		strb	r2, [r3, #64]
 1000              	.L63:
 344:E:/LiteOS/LiteOS_Lab/iot_link/shell\shell_main.c ****                 }
 345:E:/LiteOS/LiteOS_Lab/iot_link/shell\shell_main.c ****                 shell_put_backspace(len);
 1001              		.loc 1 345 0
 1002 01dc D7F86801 		ldr	r0, [r7, #360]
 1003 01e0 FFF7FEFF 		bl	shell_put_backspace
 346:E:/LiteOS/LiteOS_Lab/iot_link/shell\shell_main.c ****                 memset(shell_cmd_cache.curcmd,0,CN_CMDLEN_MAX);
 1004              		.loc 1 346 0
 1005 01e4 07F10C03 		add	r3, r7, #12
 1006 01e8 4022     		movs	r2, #64
 1007 01ea 0021     		movs	r1, #0
 1008 01ec 1846     		mov	r0, r3
 1009 01ee FFF7FEFF 		bl	memset
 347:E:/LiteOS/LiteOS_Lab/iot_link/shell\shell_main.c ****                 shell_cmd_cache.curoffset = 0;
 1010              		.loc 1 347 0
 1011 01f2 07F10C03 		add	r3, r7, #12
 1012 01f6 0022     		movs	r2, #0
 1013 01f8 83F84020 		strb	r2, [r3, #64]
 348:E:/LiteOS/LiteOS_Lab/iot_link/shell\shell_main.c ****                 //then copy the previous command to current and echo all the info
 349:E:/LiteOS/LiteOS_Lab/iot_link/shell\shell_main.c ****                 offset = (shell_cmd_cache.taboffset +CN_CMD_CACHE -1)%CN_CMD_CACHE;
 1014              		.loc 1 349 0
 1015 01fc 07F10C03 		add	r3, r7, #12
 1016 0200 93F84131 		ldrb	r3, [r3, #321]	@ zero_extendqisi2
 1017 0204 0333     		adds	r3, r3, #3
 1018 0206 5A42     		rsbs	r2, r3, #0
 1019 0208 03F00303 		and	r3, r3, #3
 1020 020c 02F00302 		and	r2, r2, #3
 1021 0210 58BF     		it	pl
 1022 0212 5342     		rsbpl	r3, r2, #0
 1023 0214 87F86731 		strb	r3, [r7, #359]
 350:E:/LiteOS/LiteOS_Lab/iot_link/shell\shell_main.c ****                 strncpy(shell_cmd_cache.curcmd,shell_cmd_cache.tab[offset],CN_CMDLEN_MAX);
ARM GAS  C:\Users\user\AppData\Local\Temp\ccLfvTFI.s 			page 25


 1024              		.loc 1 350 0
 1025 0218 97F86731 		ldrb	r3, [r7, #359]	@ zero_extendqisi2
 1026 021c 07F10C02 		add	r2, r7, #12
 1027 0220 0133     		adds	r3, r3, #1
 1028 0222 9B01     		lsls	r3, r3, #6
 1029 0224 1344     		add	r3, r3, r2
 1030 0226 591C     		adds	r1, r3, #1
 1031 0228 07F10C03 		add	r3, r7, #12
 1032 022c 4022     		movs	r2, #64
 1033 022e 1846     		mov	r0, r3
 1034 0230 FFF7FEFF 		bl	strncpy
 351:E:/LiteOS/LiteOS_Lab/iot_link/shell\shell_main.c ****                 shell_cmd_cache.taboffset = offset;
 1035              		.loc 1 351 0
 1036 0234 07F10C03 		add	r3, r7, #12
 1037 0238 97F86721 		ldrb	r2, [r7, #359]
 1038 023c 83F84121 		strb	r2, [r3, #321]
 352:E:/LiteOS/LiteOS_Lab/iot_link/shell\shell_main.c ****                 shell_cmd_cache.curoffset = strlen(shell_cmd_cache.curcmd);
 1039              		.loc 1 352 0
 1040 0240 07F10C03 		add	r3, r7, #12
 1041 0244 1846     		mov	r0, r3
 1042 0246 FFF7FEFF 		bl	strlen
 1043 024a 0346     		mov	r3, r0
 1044 024c DAB2     		uxtb	r2, r3
 1045 024e 07F10C03 		add	r3, r7, #12
 1046 0252 83F84020 		strb	r2, [r3, #64]
 353:E:/LiteOS/LiteOS_Lab/iot_link/shell\shell_main.c ****                 //OK,now puts all the current character to the terminal
 354:E:/LiteOS/LiteOS_Lab/iot_link/shell\shell_main.c ****                 shell_put_string(shell_cmd_cache.curcmd);
 1047              		.loc 1 354 0
 1048 0256 07F10C03 		add	r3, r7, #12
 1049 025a 1846     		mov	r0, r3
 1050 025c FFF7FEFF 		bl	shell_put_string
 355:E:/LiteOS/LiteOS_Lab/iot_link/shell\shell_main.c ****                 //flush the vk
 356:E:/LiteOS/LiteOS_Lab/iot_link/shell\shell_main.c ****                 vk = CN_VIRTUAL_KEY_NULL;
 1051              		.loc 1 356 0
 1052 0260 0023     		movs	r3, #0
 1053 0262 C7F87431 		str	r3, [r7, #372]
 357:E:/LiteOS/LiteOS_Lab/iot_link/shell\shell_main.c ****                 vkmask = CN_VIRTUAL_KEY_NULL;
 1054              		.loc 1 357 0
 1055 0266 0023     		movs	r3, #0
 1056 0268 C7F87031 		str	r3, [r7, #368]
 358:E:/LiteOS/LiteOS_Lab/iot_link/shell\shell_main.c ****                 break;
 1057              		.loc 1 358 0
 1058 026c C1E1     		b	.L42
 1059              	.L54:
 359:E:/LiteOS/LiteOS_Lab/iot_link/shell\shell_main.c ****             case CN_VIRTUAL_KEY_ARROWD:        //moves to the next command
 360:E:/LiteOS/LiteOS_Lab/iot_link/shell\shell_main.c ****                 //first,we should clear what we has get,do the reset current command
 361:E:/LiteOS/LiteOS_Lab/iot_link/shell\shell_main.c ****                 //first moves to the right,then backspace all the input
 362:E:/LiteOS/LiteOS_Lab/iot_link/shell\shell_main.c ****                 len = strlen(shell_cmd_cache.curcmd);
 1060              		.loc 1 362 0
 1061 026e 07F10C03 		add	r3, r7, #12
 1062 0272 1846     		mov	r0, r3
 1063 0274 FFF7FEFF 		bl	strlen
 1064 0278 0346     		mov	r3, r0
 1065 027a C7F86831 		str	r3, [r7, #360]
 363:E:/LiteOS/LiteOS_Lab/iot_link/shell\shell_main.c ****                 if(shell_cmd_cache.curoffset < len){
 1066              		.loc 1 363 0
 1067 027e 07F10C03 		add	r3, r7, #12
ARM GAS  C:\Users\user\AppData\Local\Temp\ccLfvTFI.s 			page 26


 1068 0282 93F84030 		ldrb	r3, [r3, #64]	@ zero_extendqisi2
 1069 0286 1A46     		mov	r2, r3
 1070 0288 D7F86831 		ldr	r3, [r7, #360]
 1071 028c 9342     		cmp	r3, r2
 1072 028e 11DD     		ble	.L64
 364:E:/LiteOS/LiteOS_Lab/iot_link/shell\shell_main.c ****                     shell_put_space(len - shell_cmd_cache.curoffset);
 1073              		.loc 1 364 0
 1074 0290 07F10C03 		add	r3, r7, #12
 1075 0294 93F84030 		ldrb	r3, [r3, #64]	@ zero_extendqisi2
 1076 0298 1A46     		mov	r2, r3
 1077 029a D7F86831 		ldr	r3, [r7, #360]
 1078 029e 9B1A     		subs	r3, r3, r2
 1079 02a0 1846     		mov	r0, r3
 1080 02a2 FFF7FEFF 		bl	shell_put_space
 365:E:/LiteOS/LiteOS_Lab/iot_link/shell\shell_main.c ****                     shell_cmd_cache.curoffset = len;
 1081              		.loc 1 365 0
 1082 02a6 D7F86831 		ldr	r3, [r7, #360]
 1083 02aa DAB2     		uxtb	r2, r3
 1084 02ac 07F10C03 		add	r3, r7, #12
 1085 02b0 83F84020 		strb	r2, [r3, #64]
 1086              	.L64:
 366:E:/LiteOS/LiteOS_Lab/iot_link/shell\shell_main.c ****                 }
 367:E:/LiteOS/LiteOS_Lab/iot_link/shell\shell_main.c ****                 shell_put_backspace(len);
 1087              		.loc 1 367 0
 1088 02b4 D7F86801 		ldr	r0, [r7, #360]
 1089 02b8 FFF7FEFF 		bl	shell_put_backspace
 368:E:/LiteOS/LiteOS_Lab/iot_link/shell\shell_main.c ****                 memset(shell_cmd_cache.curcmd,0,CN_CMDLEN_MAX);
 1090              		.loc 1 368 0
 1091 02bc 07F10C03 		add	r3, r7, #12
 1092 02c0 4022     		movs	r2, #64
 1093 02c2 0021     		movs	r1, #0
 1094 02c4 1846     		mov	r0, r3
 1095 02c6 FFF7FEFF 		bl	memset
 369:E:/LiteOS/LiteOS_Lab/iot_link/shell\shell_main.c ****                 shell_cmd_cache.curoffset = 0;
 1096              		.loc 1 369 0
 1097 02ca 07F10C03 		add	r3, r7, #12
 1098 02ce 0022     		movs	r2, #0
 1099 02d0 83F84020 		strb	r2, [r3, #64]
 370:E:/LiteOS/LiteOS_Lab/iot_link/shell\shell_main.c ****                 //then copy the next command to current
 371:E:/LiteOS/LiteOS_Lab/iot_link/shell\shell_main.c ****                 offset = (shell_cmd_cache.taboffset +CN_CMD_CACHE +1)%CN_CMD_CACHE;
 1100              		.loc 1 371 0
 1101 02d4 07F10C03 		add	r3, r7, #12
 1102 02d8 93F84131 		ldrb	r3, [r3, #321]	@ zero_extendqisi2
 1103 02dc 0533     		adds	r3, r3, #5
 1104 02de 5A42     		rsbs	r2, r3, #0
 1105 02e0 03F00303 		and	r3, r3, #3
 1106 02e4 02F00302 		and	r2, r2, #3
 1107 02e8 58BF     		it	pl
 1108 02ea 5342     		rsbpl	r3, r2, #0
 1109 02ec 87F86731 		strb	r3, [r7, #359]
 372:E:/LiteOS/LiteOS_Lab/iot_link/shell\shell_main.c ****                 strncpy(shell_cmd_cache.curcmd,shell_cmd_cache.tab[offset],CN_CMDLEN_MAX);
 1110              		.loc 1 372 0
 1111 02f0 97F86731 		ldrb	r3, [r7, #359]	@ zero_extendqisi2
 1112 02f4 07F10C02 		add	r2, r7, #12
 1113 02f8 0133     		adds	r3, r3, #1
 1114 02fa 9B01     		lsls	r3, r3, #6
 1115 02fc 1344     		add	r3, r3, r2
ARM GAS  C:\Users\user\AppData\Local\Temp\ccLfvTFI.s 			page 27


 1116 02fe 591C     		adds	r1, r3, #1
 1117 0300 07F10C03 		add	r3, r7, #12
 1118 0304 4022     		movs	r2, #64
 1119 0306 1846     		mov	r0, r3
 1120 0308 FFF7FEFF 		bl	strncpy
 373:E:/LiteOS/LiteOS_Lab/iot_link/shell\shell_main.c ****                 shell_cmd_cache.taboffset = offset;
 1121              		.loc 1 373 0
 1122 030c 07F10C03 		add	r3, r7, #12
 1123 0310 97F86721 		ldrb	r2, [r7, #359]
 1124 0314 83F84121 		strb	r2, [r3, #321]
 374:E:/LiteOS/LiteOS_Lab/iot_link/shell\shell_main.c ****                 shell_cmd_cache.curoffset = strlen(shell_cmd_cache.curcmd);
 1125              		.loc 1 374 0
 1126 0318 07F10C03 		add	r3, r7, #12
 1127 031c 1846     		mov	r0, r3
 1128 031e FFF7FEFF 		bl	strlen
 1129 0322 0346     		mov	r3, r0
 1130 0324 DAB2     		uxtb	r2, r3
 1131 0326 07F10C03 		add	r3, r7, #12
 1132 032a 83F84020 		strb	r2, [r3, #64]
 375:E:/LiteOS/LiteOS_Lab/iot_link/shell\shell_main.c ****                 //OK,now puts all the current character to the terminal
 376:E:/LiteOS/LiteOS_Lab/iot_link/shell\shell_main.c ****                 shell_put_string(shell_cmd_cache.curcmd);
 1133              		.loc 1 376 0
 1134 032e 07F10C03 		add	r3, r7, #12
 1135 0332 1846     		mov	r0, r3
 1136 0334 FFF7FEFF 		bl	shell_put_string
 377:E:/LiteOS/LiteOS_Lab/iot_link/shell\shell_main.c ****                 //flush the vk
 378:E:/LiteOS/LiteOS_Lab/iot_link/shell\shell_main.c ****                 vk = CN_VIRTUAL_KEY_NULL;
 1137              		.loc 1 378 0
 1138 0338 0023     		movs	r3, #0
 1139 033a C7F87431 		str	r3, [r7, #372]
 379:E:/LiteOS/LiteOS_Lab/iot_link/shell\shell_main.c ****                 vkmask = CN_VIRTUAL_KEY_NULL;
 1140              		.loc 1 379 0
 1141 033e 0023     		movs	r3, #0
 1142 0340 C7F87031 		str	r3, [r7, #368]
 380:E:/LiteOS/LiteOS_Lab/iot_link/shell\shell_main.c ****                 break;
 1143              		.loc 1 380 0
 1144 0344 55E1     		b	.L42
 1145              	.L49:
 381:E:/LiteOS/LiteOS_Lab/iot_link/shell\shell_main.c ****             case CN_KEY_TAB:      //tab,should auto complete the command
 382:E:/LiteOS/LiteOS_Lab/iot_link/shell\shell_main.c ****                 //should search the command we has installed if some index has get
 383:E:/LiteOS/LiteOS_Lab/iot_link/shell\shell_main.c ****                 if(shell_cmd_cache.curoffset > 0) {
 1146              		.loc 1 383 0
 1147 0346 07F10C03 		add	r3, r7, #12
 1148 034a 93F84030 		ldrb	r3, [r3, #64]	@ zero_extendqisi2
 1149 034e 002B     		cmp	r3, #0
 1150 0350 00F08780 		beq	.L65
 1151              	.LBB3:
 384:E:/LiteOS/LiteOS_Lab/iot_link/shell\shell_main.c ****                     char cursor = shell_cmd_cache.curcmd[shell_cmd_cache.curoffset];
 1152              		.loc 1 384 0
 1153 0354 07F10C03 		add	r3, r7, #12
 1154 0358 93F84030 		ldrb	r3, [r3, #64]	@ zero_extendqisi2
 1155 035c 1A46     		mov	r2, r3
 1156 035e 07F10C03 		add	r3, r7, #12
 1157 0362 9B5C     		ldrb	r3, [r3, r2]
 1158 0364 87F86631 		strb	r3, [r7, #358]
 385:E:/LiteOS/LiteOS_Lab/iot_link/shell\shell_main.c ****                     shell_cmd_cache.curcmd[shell_cmd_cache.curoffset] = 0;
 1159              		.loc 1 385 0
ARM GAS  C:\Users\user\AppData\Local\Temp\ccLfvTFI.s 			page 28


 1160 0368 07F10C03 		add	r3, r7, #12
 1161 036c 93F84030 		ldrb	r3, [r3, #64]	@ zero_extendqisi2
 1162 0370 1A46     		mov	r2, r3
 1163 0372 07F10C03 		add	r3, r7, #12
 1164 0376 0021     		movs	r1, #0
 1165 0378 9954     		strb	r1, [r3, r2]
 386:E:/LiteOS/LiteOS_Lab/iot_link/shell\shell_main.c ****                     const struct shell_tab_matches *matches;
 387:E:/LiteOS/LiteOS_Lab/iot_link/shell\shell_main.c ****                     matches = shell_cmd_index((const char*)shell_cmd_cache.curcmd);
 1166              		.loc 1 387 0
 1167 037a 07F10C03 		add	r3, r7, #12
 1168 037e 1846     		mov	r0, r3
 1169 0380 FFF7FEFF 		bl	shell_cmd_index
 1170 0384 C7F86001 		str	r0, [r7, #352]
 388:E:/LiteOS/LiteOS_Lab/iot_link/shell\shell_main.c ****                     shell_cmd_cache.curcmd[shell_cmd_cache.curoffset] = cursor;
 1171              		.loc 1 388 0
 1172 0388 07F10C03 		add	r3, r7, #12
 1173 038c 93F84030 		ldrb	r3, [r3, #64]	@ zero_extendqisi2
 1174 0390 1946     		mov	r1, r3
 1175 0392 07F10C03 		add	r3, r7, #12
 1176 0396 97F86621 		ldrb	r2, [r7, #358]
 1177 039a 5A54     		strb	r2, [r3, r1]
 389:E:/LiteOS/LiteOS_Lab/iot_link/shell\shell_main.c ****                     if (matches->len == 1) {
 1178              		.loc 1 389 0
 1179 039c D7F86031 		ldr	r3, [r7, #352]
 1180 03a0 B3F84030 		ldrh	r3, [r3, #64]
 1181 03a4 012B     		cmp	r3, #1
 1182 03a6 19D1     		bne	.L66
 390:E:/LiteOS/LiteOS_Lab/iot_link/shell\shell_main.c ****                         //only one cmd matched, insert the matched cmd at current cursor
 391:E:/LiteOS/LiteOS_Lab/iot_link/shell\shell_main.c ****                         shell_insert_string(&shell_cmd_cache, matches->matches[0] + shell_cmd_cache
 1183              		.loc 1 391 0
 1184 03a8 D7F86031 		ldr	r3, [r7, #352]
 1185 03ac 1B68     		ldr	r3, [r3]
 1186 03ae 07F10C02 		add	r2, r7, #12
 1187 03b2 92F84020 		ldrb	r2, [r2, #64]	@ zero_extendqisi2
 1188 03b6 1A44     		add	r2, r2, r3
 1189 03b8 07F10C03 		add	r3, r7, #12
 1190 03bc 1146     		mov	r1, r2
 1191 03be 1846     		mov	r0, r3
 1192 03c0 FFF7FEFF 		bl	shell_insert_string
 1193 03c4 4FE0     		b	.L71
 1194              	.L82:
 1195 03c6 00BF     		.align	2
 1196              	.L81:
 1197 03c8 00000000 		.word	gs_welcome_info
 1198 03cc 1B004200 		.word	4325403
 1199 03d0 1B004100 		.word	4259867
 1200 03d4 1B004300 		.word	4390939
 1201 03d8 1B004400 		.word	4456475
 1202              	.L66:
 392:E:/LiteOS/LiteOS_Lab/iot_link/shell\shell_main.c ****                     } else if (matches->len > 1) {
 1203              		.loc 1 392 0
 1204 03dc D7F86031 		ldr	r3, [r7, #352]
 1205 03e0 B3F84030 		ldrh	r3, [r3, #64]
 1206 03e4 012B     		cmp	r3, #1
 1207 03e6 39D9     		bls	.L68
 393:E:/LiteOS/LiteOS_Lab/iot_link/shell\shell_main.c ****                         printf("\n\r");
 1208              		.loc 1 393 0
ARM GAS  C:\Users\user\AppData\Local\Temp\ccLfvTFI.s 			page 29


 1209 03e8 8248     		ldr	r0, .L83
 1210 03ea FFF7FEFF 		bl	printf
 1211              	.LBB4:
 394:E:/LiteOS/LiteOS_Lab/iot_link/shell\shell_main.c ****                         for (int i = 0; i < matches->len; i++) {
 1212              		.loc 1 394 0
 1213 03ee 0023     		movs	r3, #0
 1214 03f0 C7F86C31 		str	r3, [r7, #364]
 1215 03f4 10E0     		b	.L69
 1216              	.L70:
 395:E:/LiteOS/LiteOS_Lab/iot_link/shell\shell_main.c ****                             shell_put_string(matches->matches[i]);
 1217              		.loc 1 395 0 discriminator 3
 1218 03f6 D7F86031 		ldr	r3, [r7, #352]
 1219 03fa D7F86C21 		ldr	r2, [r7, #364]
 1220 03fe 53F82230 		ldr	r3, [r3, r2, lsl #2]
 1221 0402 1846     		mov	r0, r3
 1222 0404 FFF7FEFF 		bl	shell_put_string
 396:E:/LiteOS/LiteOS_Lab/iot_link/shell\shell_main.c ****                             shell_put_char('\t');
 1223              		.loc 1 396 0 discriminator 3
 1224 0408 0920     		movs	r0, #9
 1225 040a FFF7FEFF 		bl	shell_put_char
 394:E:/LiteOS/LiteOS_Lab/iot_link/shell\shell_main.c ****                         for (int i = 0; i < matches->len; i++) {
 1226              		.loc 1 394 0 discriminator 3
 1227 040e D7F86C31 		ldr	r3, [r7, #364]
 1228 0412 0133     		adds	r3, r3, #1
 1229 0414 C7F86C31 		str	r3, [r7, #364]
 1230              	.L69:
 394:E:/LiteOS/LiteOS_Lab/iot_link/shell\shell_main.c ****                         for (int i = 0; i < matches->len; i++) {
 1231              		.loc 1 394 0 is_stmt 0 discriminator 1
 1232 0418 D7F86031 		ldr	r3, [r7, #352]
 1233 041c B3F84030 		ldrh	r3, [r3, #64]
 1234 0420 1A46     		mov	r2, r3
 1235 0422 D7F86C31 		ldr	r3, [r7, #364]
 1236 0426 9342     		cmp	r3, r2
 1237 0428 E5DB     		blt	.L70
 1238              	.LBE4:
 397:E:/LiteOS/LiteOS_Lab/iot_link/shell\shell_main.c ****                         }
 398:E:/LiteOS/LiteOS_Lab/iot_link/shell\shell_main.c ****                         printf("\n\r");
 1239              		.loc 1 398 0 is_stmt 1
 1240 042a 7248     		ldr	r0, .L83
 1241 042c FFF7FEFF 		bl	printf
 399:E:/LiteOS/LiteOS_Lab/iot_link/shell\shell_main.c ****                         shell_put_index();
 1242              		.loc 1 399 0
 1243 0430 FFF7FEFF 		bl	shell_put_index
 400:E:/LiteOS/LiteOS_Lab/iot_link/shell\shell_main.c ****                         shell_put_string(shell_cmd_cache.curcmd);
 1244              		.loc 1 400 0
 1245 0434 07F10C03 		add	r3, r7, #12
 1246 0438 1846     		mov	r0, r3
 1247 043a FFF7FEFF 		bl	shell_put_string
 401:E:/LiteOS/LiteOS_Lab/iot_link/shell\shell_main.c ****                         shell_moves_cursor_left(strlen(shell_cmd_cache.curcmd) - shell_cmd_cache.cu
 1248              		.loc 1 401 0
 1249 043e 07F10C03 		add	r3, r7, #12
 1250 0442 1846     		mov	r0, r3
 1251 0444 FFF7FEFF 		bl	strlen
 1252 0448 0246     		mov	r2, r0
 1253 044a 07F10C03 		add	r3, r7, #12
 1254 044e 93F84030 		ldrb	r3, [r3, #64]	@ zero_extendqisi2
 1255 0452 D31A     		subs	r3, r2, r3
ARM GAS  C:\Users\user\AppData\Local\Temp\ccLfvTFI.s 			page 30


 1256 0454 1846     		mov	r0, r3
 1257 0456 FFF7FEFF 		bl	shell_moves_cursor_left
 1258 045a 04E0     		b	.L71
 1259              	.L68:
 402:E:/LiteOS/LiteOS_Lab/iot_link/shell\shell_main.c ****                     } else 
 403:E:/LiteOS/LiteOS_Lab/iot_link/shell\shell_main.c ****                         shell_bell();
 1260              		.loc 1 403 0
 1261 045c FFF7FEFF 		bl	shell_bell
 1262 0460 01E0     		b	.L71
 1263              	.L65:
 1264              	.LBE3:
 404:E:/LiteOS/LiteOS_Lab/iot_link/shell\shell_main.c ****                 } else
 405:E:/LiteOS/LiteOS_Lab/iot_link/shell\shell_main.c ****                     shell_bell();
 1265              		.loc 1 405 0
 1266 0462 FFF7FEFF 		bl	shell_bell
 1267              	.L71:
 406:E:/LiteOS/LiteOS_Lab/iot_link/shell\shell_main.c ****                 //flush the vk
 407:E:/LiteOS/LiteOS_Lab/iot_link/shell\shell_main.c ****                 vk = CN_VIRTUAL_KEY_NULL;
 1268              		.loc 1 407 0
 1269 0466 0023     		movs	r3, #0
 1270 0468 C7F87431 		str	r3, [r7, #372]
 408:E:/LiteOS/LiteOS_Lab/iot_link/shell\shell_main.c ****                 vkmask = CN_VIRTUAL_KEY_NULL;
 1271              		.loc 1 408 0
 1272 046c 0023     		movs	r3, #0
 1273 046e C7F87031 		str	r3, [r7, #368]
 409:E:/LiteOS/LiteOS_Lab/iot_link/shell\shell_main.c ****                 break;
 1274              		.loc 1 409 0
 1275 0472 BEE0     		b	.L42
 1276              	.L53:
 410:E:/LiteOS/LiteOS_Lab/iot_link/shell\shell_main.c ****             case CN_KEY_LF:      //execute the command here, and push the command to the history ca
 411:E:/LiteOS/LiteOS_Lab/iot_link/shell\shell_main.c ****                 if(strlen(shell_cmd_cache.curcmd) != 0){
 1277              		.loc 1 411 0
 1278 0474 07F10C03 		add	r3, r7, #12
 1279 0478 1B78     		ldrb	r3, [r3]	@ zero_extendqisi2
 1280 047a 002B     		cmp	r3, #0
 1281 047c 18D0     		beq	.L72
 412:E:/LiteOS/LiteOS_Lab/iot_link/shell\shell_main.c ****                     printf("\n\r");
 1282              		.loc 1 412 0
 1283 047e 5D48     		ldr	r0, .L83
 1284 0480 FFF7FEFF 		bl	printf
 413:E:/LiteOS/LiteOS_Lab/iot_link/shell\shell_main.c ****                     //copy the current to the history cache if the current command is not none
 414:E:/LiteOS/LiteOS_Lab/iot_link/shell\shell_main.c ****                     shell_cachecmd(&shell_cmd_cache);//must do before the execute,execute will spli
 1285              		.loc 1 414 0
 1286 0484 07F10C03 		add	r3, r7, #12
 1287 0488 1846     		mov	r0, r3
 1288 048a FFF7FEFF 		bl	shell_cachecmd
 415:E:/LiteOS/LiteOS_Lab/iot_link/shell\shell_main.c ****                     shell_cmd_execute(shell_cmd_cache.curcmd);  //execute the command
 1289              		.loc 1 415 0
 1290 048e 07F10C03 		add	r3, r7, #12
 1291 0492 1846     		mov	r0, r3
 1292 0494 FFF7FEFF 		bl	shell_cmd_execute
 416:E:/LiteOS/LiteOS_Lab/iot_link/shell\shell_main.c ****                     memset(shell_cmd_cache.curcmd,0,CN_CMDLEN_MAX);
 1293              		.loc 1 416 0
 1294 0498 07F10C03 		add	r3, r7, #12
 1295 049c 4022     		movs	r2, #64
 1296 049e 0021     		movs	r1, #0
 1297 04a0 1846     		mov	r0, r3
ARM GAS  C:\Users\user\AppData\Local\Temp\ccLfvTFI.s 			page 31


 1298 04a2 FFF7FEFF 		bl	memset
 417:E:/LiteOS/LiteOS_Lab/iot_link/shell\shell_main.c ****                     shell_cmd_cache.curoffset = 0;
 1299              		.loc 1 417 0
 1300 04a6 07F10C03 		add	r3, r7, #12
 1301 04aa 0022     		movs	r2, #0
 1302 04ac 83F84020 		strb	r2, [r3, #64]
 1303              	.L72:
 418:E:/LiteOS/LiteOS_Lab/iot_link/shell\shell_main.c ****                 }
 419:E:/LiteOS/LiteOS_Lab/iot_link/shell\shell_main.c ****                 shell_put_index();
 1304              		.loc 1 419 0
 1305 04b0 FFF7FEFF 		bl	shell_put_index
 420:E:/LiteOS/LiteOS_Lab/iot_link/shell\shell_main.c ****                 //flush the vk
 421:E:/LiteOS/LiteOS_Lab/iot_link/shell\shell_main.c ****                 vk = CN_VIRTUAL_KEY_NULL;
 1306              		.loc 1 421 0
 1307 04b4 0023     		movs	r3, #0
 1308 04b6 C7F87431 		str	r3, [r7, #372]
 422:E:/LiteOS/LiteOS_Lab/iot_link/shell\shell_main.c ****                 vkmask = CN_VIRTUAL_KEY_NULL;
 1309              		.loc 1 422 0
 1310 04ba 0023     		movs	r3, #0
 1311 04bc C7F87031 		str	r3, [r7, #368]
 423:E:/LiteOS/LiteOS_Lab/iot_link/shell\shell_main.c ****                 break;
 1312              		.loc 1 423 0
 1313 04c0 97E0     		b	.L42
 1314              	.L52:
 424:E:/LiteOS/LiteOS_Lab/iot_link/shell\shell_main.c ****             case CN_KEY_CR:      //execute the command here, and push the command to the history ca
 425:E:/LiteOS/LiteOS_Lab/iot_link/shell\shell_main.c ****                 if(strlen(shell_cmd_cache.curcmd) != 0){
 1315              		.loc 1 425 0
 1316 04c2 07F10C03 		add	r3, r7, #12
 1317 04c6 1B78     		ldrb	r3, [r3]	@ zero_extendqisi2
 1318 04c8 002B     		cmp	r3, #0
 1319 04ca 18D0     		beq	.L73
 426:E:/LiteOS/LiteOS_Lab/iot_link/shell\shell_main.c ****                     printf("\n\r");
 1320              		.loc 1 426 0
 1321 04cc 4948     		ldr	r0, .L83
 1322 04ce FFF7FEFF 		bl	printf
 427:E:/LiteOS/LiteOS_Lab/iot_link/shell\shell_main.c ****                     //copy the current to the history cache if the current command is not none
 428:E:/LiteOS/LiteOS_Lab/iot_link/shell\shell_main.c ****                     shell_cachecmd(&shell_cmd_cache);//must do before the execute,execute will spli
 1323              		.loc 1 428 0
 1324 04d2 07F10C03 		add	r3, r7, #12
 1325 04d6 1846     		mov	r0, r3
 1326 04d8 FFF7FEFF 		bl	shell_cachecmd
 429:E:/LiteOS/LiteOS_Lab/iot_link/shell\shell_main.c ****                     shell_cmd_execute(shell_cmd_cache.curcmd);  //execute the command
 1327              		.loc 1 429 0
 1328 04dc 07F10C03 		add	r3, r7, #12
 1329 04e0 1846     		mov	r0, r3
 1330 04e2 FFF7FEFF 		bl	shell_cmd_execute
 430:E:/LiteOS/LiteOS_Lab/iot_link/shell\shell_main.c ****                     memset(shell_cmd_cache.curcmd,0,CN_CMDLEN_MAX);
 1331              		.loc 1 430 0
 1332 04e6 07F10C03 		add	r3, r7, #12
 1333 04ea 4022     		movs	r2, #64
 1334 04ec 0021     		movs	r1, #0
 1335 04ee 1846     		mov	r0, r3
 1336 04f0 FFF7FEFF 		bl	memset
 431:E:/LiteOS/LiteOS_Lab/iot_link/shell\shell_main.c ****                     shell_cmd_cache.curoffset = 0;
 1337              		.loc 1 431 0
 1338 04f4 07F10C03 		add	r3, r7, #12
 1339 04f8 0022     		movs	r2, #0
ARM GAS  C:\Users\user\AppData\Local\Temp\ccLfvTFI.s 			page 32


 1340 04fa 83F84020 		strb	r2, [r3, #64]
 1341              	.L73:
 432:E:/LiteOS/LiteOS_Lab/iot_link/shell\shell_main.c ****                 }
 433:E:/LiteOS/LiteOS_Lab/iot_link/shell\shell_main.c ****                 shell_put_index();
 1342              		.loc 1 433 0
 1343 04fe FFF7FEFF 		bl	shell_put_index
 434:E:/LiteOS/LiteOS_Lab/iot_link/shell\shell_main.c ****                 //flush the vk
 435:E:/LiteOS/LiteOS_Lab/iot_link/shell\shell_main.c ****                 vk = CN_VIRTUAL_KEY_NULL;
 1344              		.loc 1 435 0
 1345 0502 0023     		movs	r3, #0
 1346 0504 C7F87431 		str	r3, [r7, #372]
 436:E:/LiteOS/LiteOS_Lab/iot_link/shell\shell_main.c ****                 vkmask = CN_VIRTUAL_KEY_NULL;
 1347              		.loc 1 436 0
 1348 0508 0023     		movs	r3, #0
 1349 050a C7F87031 		str	r3, [r7, #368]
 437:E:/LiteOS/LiteOS_Lab/iot_link/shell\shell_main.c ****                 break;
 1350              		.loc 1 437 0
 1351 050e 70E0     		b	.L42
 1352              	.L51:
 438:E:/LiteOS/LiteOS_Lab/iot_link/shell\shell_main.c ****             case CN_KEY_BS:      //should delete the current character,move all the following chara
 439:E:/LiteOS/LiteOS_Lab/iot_link/shell\shell_main.c ****                 if(shell_cmd_cache.curoffset >0){
 1353              		.loc 1 439 0
 1354 0510 07F10C03 		add	r3, r7, #12
 1355 0514 93F84030 		ldrb	r3, [r3, #64]	@ zero_extendqisi2
 1356 0518 002B     		cmp	r3, #0
 1357 051a 33D0     		beq	.L74
 1358              	.LBB5:
 440:E:/LiteOS/LiteOS_Lab/iot_link/shell\shell_main.c ****                     char *substr = shell_cmd_cache.curcmd + shell_cmd_cache.curoffset;
 1359              		.loc 1 440 0
 1360 051c 07F10C03 		add	r3, r7, #12
 1361 0520 93F84030 		ldrb	r3, [r3, #64]	@ zero_extendqisi2
 1362 0524 1A46     		mov	r2, r3
 1363 0526 07F10C03 		add	r3, r7, #12
 1364 052a 1344     		add	r3, r3, r2
 1365 052c C7F85C31 		str	r3, [r7, #348]
 441:E:/LiteOS/LiteOS_Lab/iot_link/shell\shell_main.c ****                     int len = strlen(substr);
 1366              		.loc 1 441 0
 1367 0530 D7F85C01 		ldr	r0, [r7, #348]
 1368 0534 FFF7FEFF 		bl	strlen
 1369 0538 0346     		mov	r3, r0
 1370 053a C7F85831 		str	r3, [r7, #344]
 442:E:/LiteOS/LiteOS_Lab/iot_link/shell\shell_main.c ****                     shell_put_char('\b');
 1371              		.loc 1 442 0
 1372 053e 0820     		movs	r0, #8
 1373 0540 FFF7FEFF 		bl	shell_put_char
 443:E:/LiteOS/LiteOS_Lab/iot_link/shell\shell_main.c ****                     shell_put_string(substr);
 1374              		.loc 1 443 0
 1375 0544 D7F85C01 		ldr	r0, [r7, #348]
 1376 0548 FFF7FEFF 		bl	shell_put_string
 444:E:/LiteOS/LiteOS_Lab/iot_link/shell\shell_main.c ****                     shell_put_char(' ');
 1377              		.loc 1 444 0
 1378 054c 2020     		movs	r0, #32
 1379 054e FFF7FEFF 		bl	shell_put_char
 445:E:/LiteOS/LiteOS_Lab/iot_link/shell\shell_main.c ****                     shell_moves_cursor_left(len + 1);
 1380              		.loc 1 445 0
 1381 0552 D7F85831 		ldr	r3, [r7, #344]
 1382 0556 0133     		adds	r3, r3, #1
ARM GAS  C:\Users\user\AppData\Local\Temp\ccLfvTFI.s 			page 33


 1383 0558 1846     		mov	r0, r3
 1384 055a FFF7FEFF 		bl	shell_moves_cursor_left
 446:E:/LiteOS/LiteOS_Lab/iot_link/shell\shell_main.c ****                     
 447:E:/LiteOS/LiteOS_Lab/iot_link/shell\shell_main.c ****                     strcpy(substr - 1, substr);
 1385              		.loc 1 447 0
 1386 055e D7F85C31 		ldr	r3, [r7, #348]
 1387 0562 013B     		subs	r3, r3, #1
 1388 0564 D7F85C11 		ldr	r1, [r7, #348]
 1389 0568 1846     		mov	r0, r3
 1390 056a FFF7FEFF 		bl	strcpy
 448:E:/LiteOS/LiteOS_Lab/iot_link/shell\shell_main.c ****                     shell_cmd_cache.curoffset--;
 1391              		.loc 1 448 0
 1392 056e 07F10C03 		add	r3, r7, #12
 1393 0572 93F84030 		ldrb	r3, [r3, #64]	@ zero_extendqisi2
 1394 0576 013B     		subs	r3, r3, #1
 1395 0578 DAB2     		uxtb	r2, r3
 1396 057a 07F10C03 		add	r3, r7, #12
 1397 057e 83F84020 		strb	r2, [r3, #64]
 1398              	.LBE5:
 1399 0582 01E0     		b	.L75
 1400              	.L74:
 449:E:/LiteOS/LiteOS_Lab/iot_link/shell\shell_main.c ****                 } else
 450:E:/LiteOS/LiteOS_Lab/iot_link/shell\shell_main.c ****                     shell_bell();
 1401              		.loc 1 450 0
 1402 0584 FFF7FEFF 		bl	shell_bell
 1403              	.L75:
 451:E:/LiteOS/LiteOS_Lab/iot_link/shell\shell_main.c ****                 //flush the vk
 452:E:/LiteOS/LiteOS_Lab/iot_link/shell\shell_main.c ****                 vk = CN_VIRTUAL_KEY_NULL;
 1404              		.loc 1 452 0
 1405 0588 0023     		movs	r3, #0
 1406 058a C7F87431 		str	r3, [r7, #372]
 453:E:/LiteOS/LiteOS_Lab/iot_link/shell\shell_main.c ****                 vkmask = CN_VIRTUAL_KEY_NULL;
 1407              		.loc 1 453 0
 1408 058e 0023     		movs	r3, #0
 1409 0590 C7F87031 		str	r3, [r7, #368]
 454:E:/LiteOS/LiteOS_Lab/iot_link/shell\shell_main.c ****                 break;
 1410              		.loc 1 454 0
 1411 0594 2DE0     		b	.L42
 1412              	.L47:
 455:E:/LiteOS/LiteOS_Lab/iot_link/shell\shell_main.c ****             case CN_KEY_ES:      //esc key,delete all the input here
 456:E:/LiteOS/LiteOS_Lab/iot_link/shell\shell_main.c ****                 vk= CN_KEY_ES;
 1413              		.loc 1 456 0
 1414 0596 1B23     		movs	r3, #27
 1415 0598 C7F87431 		str	r3, [r7, #372]
 457:E:/LiteOS/LiteOS_Lab/iot_link/shell\shell_main.c ****                 vkmask = CN_KEY_ES;
 1416              		.loc 1 457 0
 1417 059c 1B23     		movs	r3, #27
 1418 059e C7F87031 		str	r3, [r7, #368]
 458:E:/LiteOS/LiteOS_Lab/iot_link/shell\shell_main.c ****                 break;
 1419              		.loc 1 458 0
 1420 05a2 26E0     		b	.L42
 1421              	.L46:
 459:E:/LiteOS/LiteOS_Lab/iot_link/shell\shell_main.c ****             default: //other control character will be ignored
 460:E:/LiteOS/LiteOS_Lab/iot_link/shell\shell_main.c ****                 //push the character to the buffer until its full and the '\n' comes
 461:E:/LiteOS/LiteOS_Lab/iot_link/shell\shell_main.c ****                 if(shell_cmd_cache.curoffset <(CN_CMDLEN_MAX-1)){
 1422              		.loc 1 461 0
 1423 05a4 07F10C03 		add	r3, r7, #12
ARM GAS  C:\Users\user\AppData\Local\Temp\ccLfvTFI.s 			page 34


 1424 05a8 93F84030 		ldrb	r3, [r3, #64]	@ zero_extendqisi2
 1425 05ac 3E2B     		cmp	r3, #62
 1426 05ae 16D8     		bhi	.L76
 1427              	.LBB6:
 462:E:/LiteOS/LiteOS_Lab/iot_link/shell\shell_main.c ****                     char *p = (char *)&ch;
 1428              		.loc 1 462 0
 1429 05b0 07F5A873 		add	r3, r7, #336
 1430 05b4 C7F85431 		str	r3, [r7, #340]
 463:E:/LiteOS/LiteOS_Lab/iot_link/shell\shell_main.c ****                     if (*p == 0)
 1431              		.loc 1 463 0
 1432 05b8 D7F85431 		ldr	r3, [r7, #340]
 1433 05bc 1B78     		ldrb	r3, [r3]	@ zero_extendqisi2
 1434 05be 002B     		cmp	r3, #0
 1435 05c0 05D1     		bne	.L77
 464:E:/LiteOS/LiteOS_Lab/iot_link/shell\shell_main.c ****                         // this architecture is big-endian
 465:E:/LiteOS/LiteOS_Lab/iot_link/shell\shell_main.c ****                         *p = (char)ch;    
 1436              		.loc 1 465 0
 1437 05c2 D7F85031 		ldr	r3, [r7, #336]
 1438 05c6 DAB2     		uxtb	r2, r3
 1439 05c8 D7F85431 		ldr	r3, [r7, #340]
 1440 05cc 1A70     		strb	r2, [r3]
 1441              	.L77:
 466:E:/LiteOS/LiteOS_Lab/iot_link/shell\shell_main.c ****                     shell_insert_string(&shell_cmd_cache, p);
 1442              		.loc 1 466 0
 1443 05ce 07F10C03 		add	r3, r7, #12
 1444 05d2 D7F85411 		ldr	r1, [r7, #340]
 1445 05d6 1846     		mov	r0, r3
 1446 05d8 FFF7FEFF 		bl	shell_insert_string
 1447              	.LBE6:
 1448 05dc 01E0     		b	.L78
 1449              	.L76:
 467:E:/LiteOS/LiteOS_Lab/iot_link/shell\shell_main.c ****                 } else
 468:E:/LiteOS/LiteOS_Lab/iot_link/shell\shell_main.c ****                     shell_bell();
 1450              		.loc 1 468 0
 1451 05de FFF7FEFF 		bl	shell_bell
 1452              	.L78:
 469:E:/LiteOS/LiteOS_Lab/iot_link/shell\shell_main.c ****                 //flush the vk
 470:E:/LiteOS/LiteOS_Lab/iot_link/shell\shell_main.c ****                 vk = CN_VIRTUAL_KEY_NULL;
 1453              		.loc 1 470 0
 1454 05e2 0023     		movs	r3, #0
 1455 05e4 C7F87431 		str	r3, [r7, #372]
 471:E:/LiteOS/LiteOS_Lab/iot_link/shell\shell_main.c ****                 vkmask = CN_VIRTUAL_KEY_NULL;
 1456              		.loc 1 471 0
 1457 05e8 0023     		movs	r3, #0
 1458 05ea C7F87031 		str	r3, [r7, #368]
 472:E:/LiteOS/LiteOS_Lab/iot_link/shell\shell_main.c ****                 break;
 1459              		.loc 1 472 0
 1460 05ee 00E0     		b	.L42
 1461              	.L80:
 297:E:/LiteOS/LiteOS_Lab/iot_link/shell\shell_main.c ****         }
 1462              		.loc 1 297 0
 1463 05f0 00BF     		nop
 1464              	.L42:
 295:E:/LiteOS/LiteOS_Lab/iot_link/shell\shell_main.c ****         if((ch == CN_VIRTUAL_KEY_NULL)||(EOF == ch)||(ch == 0xFF)){
 1465              		.loc 1 295 0
 1466 05f2 1FE5     		b	.L79
 1467              	.L84:
ARM GAS  C:\Users\user\AppData\Local\Temp\ccLfvTFI.s 			page 35


 1468              		.align	2
 1469              	.L83:
 1470 05f4 2C000000 		.word	.LC3
 1471              		.cfi_endproc
 1472              	.LFE14:
 1474              		.section	.rodata
 1475 002f 00       		.align	2
 1476              	.LC4:
 1477 0030 7368656C 		.ascii	"shell_server\000"
 1477      6C5F7365 
 1477      72766572 
 1477      00
 1478              		.section	.text.shell_init,"ax",%progbits
 1479              		.align	1
 1480              		.global	shell_init
 1481              		.syntax unified
 1482              		.thumb
 1483              		.thumb_func
 1484              		.fpu fpv4-sp-d16
 1486              	shell_init:
 1487              	.LFB15:
 473:E:/LiteOS/LiteOS_Lab/iot_link/shell\shell_main.c ****         }
 474:E:/LiteOS/LiteOS_Lab/iot_link/shell\shell_main.c ****     }
 475:E:/LiteOS/LiteOS_Lab/iot_link/shell\shell_main.c **** 
 476:E:/LiteOS/LiteOS_Lab/iot_link/shell\shell_main.c ****     return -1;
 477:E:/LiteOS/LiteOS_Lab/iot_link/shell\shell_main.c **** }
 478:E:/LiteOS/LiteOS_Lab/iot_link/shell\shell_main.c **** 
 479:E:/LiteOS/LiteOS_Lab/iot_link/shell\shell_main.c **** /*******************************************************************************
 480:E:/LiteOS/LiteOS_Lab/iot_link/shell\shell_main.c **** function     :this is the  shell module initialize function
 481:E:/LiteOS/LiteOS_Lab/iot_link/shell\shell_main.c **** parameters   :
 482:E:/LiteOS/LiteOS_Lab/iot_link/shell\shell_main.c **** instruction  :if you want use shell,you should do two things
 483:E:/LiteOS/LiteOS_Lab/iot_link/shell\shell_main.c ****               1,make CFG_SHELL_ENABLE true in target_config.h
 484:E:/LiteOS/LiteOS_Lab/iot_link/shell\shell_main.c ****               2,call shell_init in your process:make sure after the system has
 485:E:/LiteOS/LiteOS_Lab/iot_link/shell\shell_main.c ****                 been initialized
 486:E:/LiteOS/LiteOS_Lab/iot_link/shell\shell_main.c **** *******************************************************************************/
 487:E:/LiteOS/LiteOS_Lab/iot_link/shell\shell_main.c **** void shell_init()
 488:E:/LiteOS/LiteOS_Lab/iot_link/shell\shell_main.c **** {
 1488              		.loc 1 488 0
 1489              		.cfi_startproc
 1490              		@ args = 0, pretend = 0, frame = 0
 1491              		@ frame_needed = 1, uses_anonymous_args = 0
 1492 0000 80B5     		push	{r7, lr}
 1493              	.LCFI49:
 1494              		.cfi_def_cfa_offset 8
 1495              		.cfi_offset 7, -8
 1496              		.cfi_offset 14, -4
 1497 0002 82B0     		sub	sp, sp, #8
 1498              	.LCFI50:
 1499              		.cfi_def_cfa_offset 16
 1500 0004 02AF     		add	r7, sp, #8
 1501              	.LCFI51:
 1502              		.cfi_def_cfa 7, 8
 489:E:/LiteOS/LiteOS_Lab/iot_link/shell\shell_main.c ****     shell_cmd_init();
 1503              		.loc 1 489 0
 1504 0006 FFF7FEFF 		bl	shell_cmd_init
 490:E:/LiteOS/LiteOS_Lab/iot_link/shell\shell_main.c **** 
 491:E:/LiteOS/LiteOS_Lab/iot_link/shell\shell_main.c ****     osal_task_create("shell_server",shell_server_entry,NULL,\
ARM GAS  C:\Users\user\AppData\Local\Temp\ccLfvTFI.s 			page 36


 1505              		.loc 1 491 0
 1506 000a 0A23     		movs	r3, #10
 1507 000c 0193     		str	r3, [sp, #4]
 1508 000e 0023     		movs	r3, #0
 1509 0010 0093     		str	r3, [sp]
 1510 0012 4FF4E063 		mov	r3, #1792
 1511 0016 0022     		movs	r2, #0
 1512 0018 0349     		ldr	r1, .L86
 1513 001a 0448     		ldr	r0, .L86+4
 1514 001c FFF7FEFF 		bl	osal_task_create
 492:E:/LiteOS/LiteOS_Lab/iot_link/shell\shell_main.c ****                       CN_SHELL_STACKSIZE+CN_CMD_CACHE*CN_CMDLEN_MAX,NULL,10);
 493:E:/LiteOS/LiteOS_Lab/iot_link/shell\shell_main.c **** }
 1515              		.loc 1 493 0
 1516 0020 00BF     		nop
 1517 0022 BD46     		mov	sp, r7
 1518              	.LCFI52:
 1519              		.cfi_def_cfa_register 13
 1520              		@ sp needed
 1521 0024 80BD     		pop	{r7, pc}
 1522              	.L87:
 1523 0026 00BF     		.align	2
 1524              	.L86:
 1525 0028 00000000 		.word	shell_server_entry
 1526 002c 30000000 		.word	.LC4
 1527              		.cfi_endproc
 1528              	.LFE15:
 1530              		.text
 1531              	.Letext0:
 1532              		.file 2 "e:\\ac6\\systemworkbench\\plugins\\fr.ac6.mcu.externaltools.arm-none.win32_1.16.0.2018071
 1533              		.file 3 "e:\\ac6\\systemworkbench\\plugins\\fr.ac6.mcu.externaltools.arm-none.win32_1.16.0.2018071
 1534              		.file 4 "e:\\ac6\\systemworkbench\\plugins\\fr.ac6.mcu.externaltools.arm-none.win32_1.16.0.2018071
 1535              		.file 5 "e:\\ac6\\systemworkbench\\plugins\\fr.ac6.mcu.externaltools.arm-none.win32_1.16.0.2018071
 1536              		.file 6 "E:/LiteOS/LiteOS_Lab/iot_link/shell/shell.h"
ARM GAS  C:\Users\user\AppData\Local\Temp\ccLfvTFI.s 			page 37

