ARM GAS  C:\Users\user\AppData\Local\Temp\ccpi07GF.s 			page 1


   1              		.cpu cortex-m4
   2              		.eabi_attribute 27, 1
   3              		.eabi_attribute 28, 1
   4              		.eabi_attribute 20, 1
   5              		.eabi_attribute 21, 1
   6              		.eabi_attribute 23, 3
   7              		.eabi_attribute 24, 1
   8              		.eabi_attribute 25, 1
   9              		.eabi_attribute 26, 1
  10              		.eabi_attribute 30, 6
  11              		.eabi_attribute 34, 1
  12              		.eabi_attribute 18, 4
  13              		.file	"spi.c"
  14              		.text
  15              	.Ltext0:
  16              		.cfi_sections	.debug_frame
  17              		.comm	hspi2,100,4
  18              		.section	.rodata
  19              		.align	2
  20              	.LC0:
  21 0000 453A2F4C 		.ascii	"E:/LiteOS/LiteOS_Lab/targets/STM32L431_BearPi/Src/s"
  21      6974654F 
  21      532F4C69 
  21      74654F53 
  21      5F4C6162 
  22 0033 70692E63 		.ascii	"pi.c\000"
  22      00
  23              		.section	.text.MX_SPI2_Init,"ax",%progbits
  24              		.align	1
  25              		.global	MX_SPI2_Init
  26              		.syntax unified
  27              		.thumb
  28              		.thumb_func
  29              		.fpu fpv4-sp-d16
  31              	MX_SPI2_Init:
  32              	.LFB133:
  33              		.file 1 "E:/LiteOS/LiteOS_Lab/targets/STM32L431_BearPi/Src/spi.c"
   1:E:/LiteOS/LiteOS_Lab/targets/STM32L431_BearPi/Src\spi.c **** /**
   2:E:/LiteOS/LiteOS_Lab/targets/STM32L431_BearPi/Src\spi.c ****   ******************************************************************************
   3:E:/LiteOS/LiteOS_Lab/targets/STM32L431_BearPi/Src\spi.c ****   * File Name          : SPI.c
   4:E:/LiteOS/LiteOS_Lab/targets/STM32L431_BearPi/Src\spi.c ****   * Description        : This file provides code for the configuration
   5:E:/LiteOS/LiteOS_Lab/targets/STM32L431_BearPi/Src\spi.c ****   *                      of the SPI instances.
   6:E:/LiteOS/LiteOS_Lab/targets/STM32L431_BearPi/Src\spi.c ****   ******************************************************************************
   7:E:/LiteOS/LiteOS_Lab/targets/STM32L431_BearPi/Src\spi.c ****   ** This notice applies to any and all portions of this file
   8:E:/LiteOS/LiteOS_Lab/targets/STM32L431_BearPi/Src\spi.c ****   * that are not between comment pairs USER CODE BEGIN and
   9:E:/LiteOS/LiteOS_Lab/targets/STM32L431_BearPi/Src\spi.c ****   * USER CODE END. Other portions of this file, whether 
  10:E:/LiteOS/LiteOS_Lab/targets/STM32L431_BearPi/Src\spi.c ****   * inserted by the user or by software development tools
  11:E:/LiteOS/LiteOS_Lab/targets/STM32L431_BearPi/Src\spi.c ****   * are owned by their respective copyright owners.
  12:E:/LiteOS/LiteOS_Lab/targets/STM32L431_BearPi/Src\spi.c ****   *
  13:E:/LiteOS/LiteOS_Lab/targets/STM32L431_BearPi/Src\spi.c ****   * COPYRIGHT(c) 2019 STMicroelectronics
  14:E:/LiteOS/LiteOS_Lab/targets/STM32L431_BearPi/Src\spi.c ****   *
  15:E:/LiteOS/LiteOS_Lab/targets/STM32L431_BearPi/Src\spi.c ****   * Redistribution and use in source and binary forms, with or without modification,
  16:E:/LiteOS/LiteOS_Lab/targets/STM32L431_BearPi/Src\spi.c ****   * are permitted provided that the following conditions are met:
  17:E:/LiteOS/LiteOS_Lab/targets/STM32L431_BearPi/Src\spi.c ****   *   1. Redistributions of source code must retain the above copyright notice,
  18:E:/LiteOS/LiteOS_Lab/targets/STM32L431_BearPi/Src\spi.c ****   *      this list of conditions and the following disclaimer.
  19:E:/LiteOS/LiteOS_Lab/targets/STM32L431_BearPi/Src\spi.c ****   *   2. Redistributions in binary form must reproduce the above copyright notice,
  20:E:/LiteOS/LiteOS_Lab/targets/STM32L431_BearPi/Src\spi.c ****   *      this list of conditions and the following disclaimer in the documentation
ARM GAS  C:\Users\user\AppData\Local\Temp\ccpi07GF.s 			page 2


  21:E:/LiteOS/LiteOS_Lab/targets/STM32L431_BearPi/Src\spi.c ****   *      and/or other materials provided with the distribution.
  22:E:/LiteOS/LiteOS_Lab/targets/STM32L431_BearPi/Src\spi.c ****   *   3. Neither the name of STMicroelectronics nor the names of its contributors
  23:E:/LiteOS/LiteOS_Lab/targets/STM32L431_BearPi/Src\spi.c ****   *      may be used to endorse or promote products derived from this software
  24:E:/LiteOS/LiteOS_Lab/targets/STM32L431_BearPi/Src\spi.c ****   *      without specific prior written permission.
  25:E:/LiteOS/LiteOS_Lab/targets/STM32L431_BearPi/Src\spi.c ****   *
  26:E:/LiteOS/LiteOS_Lab/targets/STM32L431_BearPi/Src\spi.c ****   * THIS SOFTWARE IS PROVIDED BY THE COPYRIGHT HOLDERS AND CONTRIBUTORS "AS IS"
  27:E:/LiteOS/LiteOS_Lab/targets/STM32L431_BearPi/Src\spi.c ****   * AND ANY EXPRESS OR IMPLIED WARRANTIES, INCLUDING, BUT NOT LIMITED TO, THE
  28:E:/LiteOS/LiteOS_Lab/targets/STM32L431_BearPi/Src\spi.c ****   * IMPLIED WARRANTIES OF MERCHANTABILITY AND FITNESS FOR A PARTICULAR PURPOSE ARE
  29:E:/LiteOS/LiteOS_Lab/targets/STM32L431_BearPi/Src\spi.c ****   * DISCLAIMED. IN NO EVENT SHALL THE COPYRIGHT HOLDER OR CONTRIBUTORS BE LIABLE
  30:E:/LiteOS/LiteOS_Lab/targets/STM32L431_BearPi/Src\spi.c ****   * FOR ANY DIRECT, INDIRECT, INCIDENTAL, SPECIAL, EXEMPLARY, OR CONSEQUENTIAL
  31:E:/LiteOS/LiteOS_Lab/targets/STM32L431_BearPi/Src\spi.c ****   * DAMAGES (INCLUDING, BUT NOT LIMITED TO, PROCUREMENT OF SUBSTITUTE GOODS OR
  32:E:/LiteOS/LiteOS_Lab/targets/STM32L431_BearPi/Src\spi.c ****   * SERVICES; LOSS OF USE, DATA, OR PROFITS; OR BUSINESS INTERRUPTION) HOWEVER
  33:E:/LiteOS/LiteOS_Lab/targets/STM32L431_BearPi/Src\spi.c ****   * CAUSED AND ON ANY THEORY OF LIABILITY, WHETHER IN CONTRACT, STRICT LIABILITY,
  34:E:/LiteOS/LiteOS_Lab/targets/STM32L431_BearPi/Src\spi.c ****   * OR TORT (INCLUDING NEGLIGENCE OR OTHERWISE) ARISING IN ANY WAY OUT OF THE USE
  35:E:/LiteOS/LiteOS_Lab/targets/STM32L431_BearPi/Src\spi.c ****   * OF THIS SOFTWARE, EVEN IF ADVISED OF THE POSSIBILITY OF SUCH DAMAGE.
  36:E:/LiteOS/LiteOS_Lab/targets/STM32L431_BearPi/Src\spi.c ****   *
  37:E:/LiteOS/LiteOS_Lab/targets/STM32L431_BearPi/Src\spi.c ****   ******************************************************************************
  38:E:/LiteOS/LiteOS_Lab/targets/STM32L431_BearPi/Src\spi.c ****   */
  39:E:/LiteOS/LiteOS_Lab/targets/STM32L431_BearPi/Src\spi.c **** 
  40:E:/LiteOS/LiteOS_Lab/targets/STM32L431_BearPi/Src\spi.c **** /* Includes ------------------------------------------------------------------*/
  41:E:/LiteOS/LiteOS_Lab/targets/STM32L431_BearPi/Src\spi.c **** #include "spi.h"
  42:E:/LiteOS/LiteOS_Lab/targets/STM32L431_BearPi/Src\spi.c **** 
  43:E:/LiteOS/LiteOS_Lab/targets/STM32L431_BearPi/Src\spi.c **** #include "gpio.h"
  44:E:/LiteOS/LiteOS_Lab/targets/STM32L431_BearPi/Src\spi.c **** 
  45:E:/LiteOS/LiteOS_Lab/targets/STM32L431_BearPi/Src\spi.c **** /* USER CODE BEGIN 0 */
  46:E:/LiteOS/LiteOS_Lab/targets/STM32L431_BearPi/Src\spi.c **** 
  47:E:/LiteOS/LiteOS_Lab/targets/STM32L431_BearPi/Src\spi.c **** /* USER CODE END 0 */
  48:E:/LiteOS/LiteOS_Lab/targets/STM32L431_BearPi/Src\spi.c **** 
  49:E:/LiteOS/LiteOS_Lab/targets/STM32L431_BearPi/Src\spi.c **** SPI_HandleTypeDef hspi2;
  50:E:/LiteOS/LiteOS_Lab/targets/STM32L431_BearPi/Src\spi.c **** 
  51:E:/LiteOS/LiteOS_Lab/targets/STM32L431_BearPi/Src\spi.c **** /* SPI2 init function */
  52:E:/LiteOS/LiteOS_Lab/targets/STM32L431_BearPi/Src\spi.c **** void MX_SPI2_Init(void)
  53:E:/LiteOS/LiteOS_Lab/targets/STM32L431_BearPi/Src\spi.c **** {
  34              		.loc 1 53 0
  35              		.cfi_startproc
  36              		@ args = 0, pretend = 0, frame = 0
  37              		@ frame_needed = 1, uses_anonymous_args = 0
  38 0000 80B5     		push	{r7, lr}
  39              	.LCFI0:
  40              		.cfi_def_cfa_offset 8
  41              		.cfi_offset 7, -8
  42              		.cfi_offset 14, -4
  43 0002 00AF     		add	r7, sp, #0
  44              	.LCFI1:
  45              		.cfi_def_cfa_register 7
  54:E:/LiteOS/LiteOS_Lab/targets/STM32L431_BearPi/Src\spi.c **** 
  55:E:/LiteOS/LiteOS_Lab/targets/STM32L431_BearPi/Src\spi.c ****   hspi2.Instance = SPI2;
  46              		.loc 1 55 0
  47 0004 1C4B     		ldr	r3, .L4
  48 0006 1D4A     		ldr	r2, .L4+4
  49 0008 1A60     		str	r2, [r3]
  56:E:/LiteOS/LiteOS_Lab/targets/STM32L431_BearPi/Src\spi.c ****   hspi2.Init.Mode = SPI_MODE_MASTER;
  50              		.loc 1 56 0
  51 000a 1B4B     		ldr	r3, .L4
  52 000c 4FF48272 		mov	r2, #260
  53 0010 5A60     		str	r2, [r3, #4]
  57:E:/LiteOS/LiteOS_Lab/targets/STM32L431_BearPi/Src\spi.c ****   hspi2.Init.Direction = SPI_DIRECTION_1LINE;
ARM GAS  C:\Users\user\AppData\Local\Temp\ccpi07GF.s 			page 3


  54              		.loc 1 57 0
  55 0012 194B     		ldr	r3, .L4
  56 0014 4FF40042 		mov	r2, #32768
  57 0018 9A60     		str	r2, [r3, #8]
  58:E:/LiteOS/LiteOS_Lab/targets/STM32L431_BearPi/Src\spi.c ****   hspi2.Init.DataSize = SPI_DATASIZE_8BIT;
  58              		.loc 1 58 0
  59 001a 174B     		ldr	r3, .L4
  60 001c 4FF4E062 		mov	r2, #1792
  61 0020 DA60     		str	r2, [r3, #12]
  59:E:/LiteOS/LiteOS_Lab/targets/STM32L431_BearPi/Src\spi.c ****   hspi2.Init.CLKPolarity = SPI_POLARITY_HIGH;
  62              		.loc 1 59 0
  63 0022 154B     		ldr	r3, .L4
  64 0024 0222     		movs	r2, #2
  65 0026 1A61     		str	r2, [r3, #16]
  60:E:/LiteOS/LiteOS_Lab/targets/STM32L431_BearPi/Src\spi.c ****   hspi2.Init.CLKPhase = SPI_PHASE_2EDGE;
  66              		.loc 1 60 0
  67 0028 134B     		ldr	r3, .L4
  68 002a 0122     		movs	r2, #1
  69 002c 5A61     		str	r2, [r3, #20]
  61:E:/LiteOS/LiteOS_Lab/targets/STM32L431_BearPi/Src\spi.c ****   hspi2.Init.NSS = SPI_NSS_SOFT;
  70              		.loc 1 61 0
  71 002e 124B     		ldr	r3, .L4
  72 0030 4FF40072 		mov	r2, #512
  73 0034 9A61     		str	r2, [r3, #24]
  62:E:/LiteOS/LiteOS_Lab/targets/STM32L431_BearPi/Src\spi.c ****   hspi2.Init.BaudRatePrescaler = SPI_BAUDRATEPRESCALER_2;
  74              		.loc 1 62 0
  75 0036 104B     		ldr	r3, .L4
  76 0038 0022     		movs	r2, #0
  77 003a DA61     		str	r2, [r3, #28]
  63:E:/LiteOS/LiteOS_Lab/targets/STM32L431_BearPi/Src\spi.c ****   hspi2.Init.FirstBit = SPI_FIRSTBIT_MSB;
  78              		.loc 1 63 0
  79 003c 0E4B     		ldr	r3, .L4
  80 003e 0022     		movs	r2, #0
  81 0040 1A62     		str	r2, [r3, #32]
  64:E:/LiteOS/LiteOS_Lab/targets/STM32L431_BearPi/Src\spi.c ****   hspi2.Init.TIMode = SPI_TIMODE_DISABLE;
  82              		.loc 1 64 0
  83 0042 0D4B     		ldr	r3, .L4
  84 0044 0022     		movs	r2, #0
  85 0046 5A62     		str	r2, [r3, #36]
  65:E:/LiteOS/LiteOS_Lab/targets/STM32L431_BearPi/Src\spi.c ****   hspi2.Init.CRCCalculation = SPI_CRCCALCULATION_DISABLE;
  86              		.loc 1 65 0
  87 0048 0B4B     		ldr	r3, .L4
  88 004a 0022     		movs	r2, #0
  89 004c 9A62     		str	r2, [r3, #40]
  66:E:/LiteOS/LiteOS_Lab/targets/STM32L431_BearPi/Src\spi.c ****   hspi2.Init.CRCPolynomial = 7;
  90              		.loc 1 66 0
  91 004e 0A4B     		ldr	r3, .L4
  92 0050 0722     		movs	r2, #7
  93 0052 DA62     		str	r2, [r3, #44]
  67:E:/LiteOS/LiteOS_Lab/targets/STM32L431_BearPi/Src\spi.c ****   hspi2.Init.CRCLength = SPI_CRC_LENGTH_DATASIZE;
  94              		.loc 1 67 0
  95 0054 084B     		ldr	r3, .L4
  96 0056 0022     		movs	r2, #0
  97 0058 1A63     		str	r2, [r3, #48]
  68:E:/LiteOS/LiteOS_Lab/targets/STM32L431_BearPi/Src\spi.c ****   hspi2.Init.NSSPMode = SPI_NSS_PULSE_ENABLE;
  98              		.loc 1 68 0
  99 005a 074B     		ldr	r3, .L4
ARM GAS  C:\Users\user\AppData\Local\Temp\ccpi07GF.s 			page 4


 100 005c 0822     		movs	r2, #8
 101 005e 5A63     		str	r2, [r3, #52]
  69:E:/LiteOS/LiteOS_Lab/targets/STM32L431_BearPi/Src\spi.c ****   if (HAL_SPI_Init(&hspi2) != HAL_OK)
 102              		.loc 1 69 0
 103 0060 0548     		ldr	r0, .L4
 104 0062 FFF7FEFF 		bl	HAL_SPI_Init
 105 0066 0346     		mov	r3, r0
 106 0068 002B     		cmp	r3, #0
 107 006a 03D0     		beq	.L3
  70:E:/LiteOS/LiteOS_Lab/targets/STM32L431_BearPi/Src\spi.c ****   {
  71:E:/LiteOS/LiteOS_Lab/targets/STM32L431_BearPi/Src\spi.c ****     _Error_Handler(__FILE__, __LINE__);
 108              		.loc 1 71 0
 109 006c 4721     		movs	r1, #71
 110 006e 0448     		ldr	r0, .L4+8
 111 0070 FFF7FEFF 		bl	_Error_Handler
 112              	.L3:
  72:E:/LiteOS/LiteOS_Lab/targets/STM32L431_BearPi/Src\spi.c ****   }
  73:E:/LiteOS/LiteOS_Lab/targets/STM32L431_BearPi/Src\spi.c **** 
  74:E:/LiteOS/LiteOS_Lab/targets/STM32L431_BearPi/Src\spi.c **** }
 113              		.loc 1 74 0
 114 0074 00BF     		nop
 115 0076 80BD     		pop	{r7, pc}
 116              	.L5:
 117              		.align	2
 118              	.L4:
 119 0078 00000000 		.word	hspi2
 120 007c 00380040 		.word	1073756160
 121 0080 00000000 		.word	.LC0
 122              		.cfi_endproc
 123              	.LFE133:
 125              		.section	.text.HAL_SPI_MspInit,"ax",%progbits
 126              		.align	1
 127              		.global	HAL_SPI_MspInit
 128              		.syntax unified
 129              		.thumb
 130              		.thumb_func
 131              		.fpu fpv4-sp-d16
 133              	HAL_SPI_MspInit:
 134              	.LFB134:
  75:E:/LiteOS/LiteOS_Lab/targets/STM32L431_BearPi/Src\spi.c **** 
  76:E:/LiteOS/LiteOS_Lab/targets/STM32L431_BearPi/Src\spi.c **** void HAL_SPI_MspInit(SPI_HandleTypeDef* spiHandle)
  77:E:/LiteOS/LiteOS_Lab/targets/STM32L431_BearPi/Src\spi.c **** {
 135              		.loc 1 77 0
 136              		.cfi_startproc
 137              		@ args = 0, pretend = 0, frame = 32
 138              		@ frame_needed = 1, uses_anonymous_args = 0
 139 0000 80B5     		push	{r7, lr}
 140              	.LCFI2:
 141              		.cfi_def_cfa_offset 8
 142              		.cfi_offset 7, -8
 143              		.cfi_offset 14, -4
 144 0002 88B0     		sub	sp, sp, #32
 145              	.LCFI3:
 146              		.cfi_def_cfa_offset 40
 147 0004 00AF     		add	r7, sp, #0
 148              	.LCFI4:
 149              		.cfi_def_cfa_register 7
ARM GAS  C:\Users\user\AppData\Local\Temp\ccpi07GF.s 			page 5


 150 0006 7860     		str	r0, [r7, #4]
  78:E:/LiteOS/LiteOS_Lab/targets/STM32L431_BearPi/Src\spi.c **** 
  79:E:/LiteOS/LiteOS_Lab/targets/STM32L431_BearPi/Src\spi.c ****   GPIO_InitTypeDef GPIO_InitStruct;
  80:E:/LiteOS/LiteOS_Lab/targets/STM32L431_BearPi/Src\spi.c ****   if(spiHandle->Instance==SPI2)
 151              		.loc 1 80 0
 152 0008 7B68     		ldr	r3, [r7, #4]
 153 000a 1B68     		ldr	r3, [r3]
 154 000c 194A     		ldr	r2, .L9
 155 000e 9342     		cmp	r3, r2
 156 0010 2CD1     		bne	.L8
 157              	.LBB2:
  81:E:/LiteOS/LiteOS_Lab/targets/STM32L431_BearPi/Src\spi.c ****   {
  82:E:/LiteOS/LiteOS_Lab/targets/STM32L431_BearPi/Src\spi.c ****   /* USER CODE BEGIN SPI2_MspInit 0 */
  83:E:/LiteOS/LiteOS_Lab/targets/STM32L431_BearPi/Src\spi.c **** 
  84:E:/LiteOS/LiteOS_Lab/targets/STM32L431_BearPi/Src\spi.c ****   /* USER CODE END SPI2_MspInit 0 */
  85:E:/LiteOS/LiteOS_Lab/targets/STM32L431_BearPi/Src\spi.c ****     /* SPI2 clock enable */
  86:E:/LiteOS/LiteOS_Lab/targets/STM32L431_BearPi/Src\spi.c ****     __HAL_RCC_SPI2_CLK_ENABLE();
 158              		.loc 1 86 0
 159 0012 194B     		ldr	r3, .L9+4
 160 0014 9B6D     		ldr	r3, [r3, #88]
 161 0016 184A     		ldr	r2, .L9+4
 162 0018 43F48043 		orr	r3, r3, #16384
 163 001c 9365     		str	r3, [r2, #88]
 164 001e 164B     		ldr	r3, .L9+4
 165 0020 9B6D     		ldr	r3, [r3, #88]
 166 0022 03F48043 		and	r3, r3, #16384
 167 0026 BB60     		str	r3, [r7, #8]
 168 0028 BB68     		ldr	r3, [r7, #8]
 169              	.LBE2:
  87:E:/LiteOS/LiteOS_Lab/targets/STM32L431_BearPi/Src\spi.c ****   
  88:E:/LiteOS/LiteOS_Lab/targets/STM32L431_BearPi/Src\spi.c ****     /**SPI2 GPIO Configuration    
  89:E:/LiteOS/LiteOS_Lab/targets/STM32L431_BearPi/Src\spi.c ****     PC3     ------> SPI2_MOSI
  90:E:/LiteOS/LiteOS_Lab/targets/STM32L431_BearPi/Src\spi.c ****     PB13     ------> SPI2_SCK 
  91:E:/LiteOS/LiteOS_Lab/targets/STM32L431_BearPi/Src\spi.c ****     */
  92:E:/LiteOS/LiteOS_Lab/targets/STM32L431_BearPi/Src\spi.c ****     GPIO_InitStruct.Pin = GPIO_PIN_3;
 170              		.loc 1 92 0
 171 002a 0823     		movs	r3, #8
 172 002c FB60     		str	r3, [r7, #12]
  93:E:/LiteOS/LiteOS_Lab/targets/STM32L431_BearPi/Src\spi.c ****     GPIO_InitStruct.Mode = GPIO_MODE_AF_PP;
 173              		.loc 1 93 0
 174 002e 0223     		movs	r3, #2
 175 0030 3B61     		str	r3, [r7, #16]
  94:E:/LiteOS/LiteOS_Lab/targets/STM32L431_BearPi/Src\spi.c ****     GPIO_InitStruct.Pull = GPIO_NOPULL;
 176              		.loc 1 94 0
 177 0032 0023     		movs	r3, #0
 178 0034 7B61     		str	r3, [r7, #20]
  95:E:/LiteOS/LiteOS_Lab/targets/STM32L431_BearPi/Src\spi.c ****     GPIO_InitStruct.Speed = GPIO_SPEED_FREQ_VERY_HIGH;
 179              		.loc 1 95 0
 180 0036 0323     		movs	r3, #3
 181 0038 BB61     		str	r3, [r7, #24]
  96:E:/LiteOS/LiteOS_Lab/targets/STM32L431_BearPi/Src\spi.c ****     GPIO_InitStruct.Alternate = GPIO_AF5_SPI2;
 182              		.loc 1 96 0
 183 003a 0523     		movs	r3, #5
 184 003c FB61     		str	r3, [r7, #28]
  97:E:/LiteOS/LiteOS_Lab/targets/STM32L431_BearPi/Src\spi.c ****     HAL_GPIO_Init(GPIOC, &GPIO_InitStruct);
 185              		.loc 1 97 0
 186 003e 07F10C03 		add	r3, r7, #12
ARM GAS  C:\Users\user\AppData\Local\Temp\ccpi07GF.s 			page 6


 187 0042 1946     		mov	r1, r3
 188 0044 0D48     		ldr	r0, .L9+8
 189 0046 FFF7FEFF 		bl	HAL_GPIO_Init
  98:E:/LiteOS/LiteOS_Lab/targets/STM32L431_BearPi/Src\spi.c **** 
  99:E:/LiteOS/LiteOS_Lab/targets/STM32L431_BearPi/Src\spi.c ****     GPIO_InitStruct.Pin = GPIO_PIN_13;
 190              		.loc 1 99 0
 191 004a 4FF40053 		mov	r3, #8192
 192 004e FB60     		str	r3, [r7, #12]
 100:E:/LiteOS/LiteOS_Lab/targets/STM32L431_BearPi/Src\spi.c ****     GPIO_InitStruct.Mode = GPIO_MODE_AF_PP;
 193              		.loc 1 100 0
 194 0050 0223     		movs	r3, #2
 195 0052 3B61     		str	r3, [r7, #16]
 101:E:/LiteOS/LiteOS_Lab/targets/STM32L431_BearPi/Src\spi.c ****     GPIO_InitStruct.Pull = GPIO_NOPULL;
 196              		.loc 1 101 0
 197 0054 0023     		movs	r3, #0
 198 0056 7B61     		str	r3, [r7, #20]
 102:E:/LiteOS/LiteOS_Lab/targets/STM32L431_BearPi/Src\spi.c ****     GPIO_InitStruct.Speed = GPIO_SPEED_FREQ_VERY_HIGH;
 199              		.loc 1 102 0
 200 0058 0323     		movs	r3, #3
 201 005a BB61     		str	r3, [r7, #24]
 103:E:/LiteOS/LiteOS_Lab/targets/STM32L431_BearPi/Src\spi.c ****     GPIO_InitStruct.Alternate = GPIO_AF5_SPI2;
 202              		.loc 1 103 0
 203 005c 0523     		movs	r3, #5
 204 005e FB61     		str	r3, [r7, #28]
 104:E:/LiteOS/LiteOS_Lab/targets/STM32L431_BearPi/Src\spi.c ****     HAL_GPIO_Init(GPIOB, &GPIO_InitStruct);
 205              		.loc 1 104 0
 206 0060 07F10C03 		add	r3, r7, #12
 207 0064 1946     		mov	r1, r3
 208 0066 0648     		ldr	r0, .L9+12
 209 0068 FFF7FEFF 		bl	HAL_GPIO_Init
 210              	.L8:
 105:E:/LiteOS/LiteOS_Lab/targets/STM32L431_BearPi/Src\spi.c **** 
 106:E:/LiteOS/LiteOS_Lab/targets/STM32L431_BearPi/Src\spi.c ****   /* USER CODE BEGIN SPI2_MspInit 1 */
 107:E:/LiteOS/LiteOS_Lab/targets/STM32L431_BearPi/Src\spi.c **** 
 108:E:/LiteOS/LiteOS_Lab/targets/STM32L431_BearPi/Src\spi.c ****   /* USER CODE END SPI2_MspInit 1 */
 109:E:/LiteOS/LiteOS_Lab/targets/STM32L431_BearPi/Src\spi.c ****   }
 110:E:/LiteOS/LiteOS_Lab/targets/STM32L431_BearPi/Src\spi.c **** }
 211              		.loc 1 110 0
 212 006c 00BF     		nop
 213 006e 2037     		adds	r7, r7, #32
 214              	.LCFI5:
 215              		.cfi_def_cfa_offset 8
 216 0070 BD46     		mov	sp, r7
 217              	.LCFI6:
 218              		.cfi_def_cfa_register 13
 219              		@ sp needed
 220 0072 80BD     		pop	{r7, pc}
 221              	.L10:
 222              		.align	2
 223              	.L9:
 224 0074 00380040 		.word	1073756160
 225 0078 00100240 		.word	1073876992
 226 007c 00080048 		.word	1207961600
 227 0080 00040048 		.word	1207960576
 228              		.cfi_endproc
 229              	.LFE134:
 231              		.section	.text.HAL_SPI_MspDeInit,"ax",%progbits
ARM GAS  C:\Users\user\AppData\Local\Temp\ccpi07GF.s 			page 7


 232              		.align	1
 233              		.global	HAL_SPI_MspDeInit
 234              		.syntax unified
 235              		.thumb
 236              		.thumb_func
 237              		.fpu fpv4-sp-d16
 239              	HAL_SPI_MspDeInit:
 240              	.LFB135:
 111:E:/LiteOS/LiteOS_Lab/targets/STM32L431_BearPi/Src\spi.c **** 
 112:E:/LiteOS/LiteOS_Lab/targets/STM32L431_BearPi/Src\spi.c **** void HAL_SPI_MspDeInit(SPI_HandleTypeDef* spiHandle)
 113:E:/LiteOS/LiteOS_Lab/targets/STM32L431_BearPi/Src\spi.c **** {
 241              		.loc 1 113 0
 242              		.cfi_startproc
 243              		@ args = 0, pretend = 0, frame = 8
 244              		@ frame_needed = 1, uses_anonymous_args = 0
 245 0000 80B5     		push	{r7, lr}
 246              	.LCFI7:
 247              		.cfi_def_cfa_offset 8
 248              		.cfi_offset 7, -8
 249              		.cfi_offset 14, -4
 250 0002 82B0     		sub	sp, sp, #8
 251              	.LCFI8:
 252              		.cfi_def_cfa_offset 16
 253 0004 00AF     		add	r7, sp, #0
 254              	.LCFI9:
 255              		.cfi_def_cfa_register 7
 256 0006 7860     		str	r0, [r7, #4]
 114:E:/LiteOS/LiteOS_Lab/targets/STM32L431_BearPi/Src\spi.c **** 
 115:E:/LiteOS/LiteOS_Lab/targets/STM32L431_BearPi/Src\spi.c ****   if(spiHandle->Instance==SPI2)
 257              		.loc 1 115 0
 258 0008 7B68     		ldr	r3, [r7, #4]
 259 000a 1B68     		ldr	r3, [r3]
 260 000c 0A4A     		ldr	r2, .L14
 261 000e 9342     		cmp	r3, r2
 262 0010 0ED1     		bne	.L13
 116:E:/LiteOS/LiteOS_Lab/targets/STM32L431_BearPi/Src\spi.c ****   {
 117:E:/LiteOS/LiteOS_Lab/targets/STM32L431_BearPi/Src\spi.c ****   /* USER CODE BEGIN SPI2_MspDeInit 0 */
 118:E:/LiteOS/LiteOS_Lab/targets/STM32L431_BearPi/Src\spi.c **** 
 119:E:/LiteOS/LiteOS_Lab/targets/STM32L431_BearPi/Src\spi.c ****   /* USER CODE END SPI2_MspDeInit 0 */
 120:E:/LiteOS/LiteOS_Lab/targets/STM32L431_BearPi/Src\spi.c ****     /* Peripheral clock disable */
 121:E:/LiteOS/LiteOS_Lab/targets/STM32L431_BearPi/Src\spi.c ****     __HAL_RCC_SPI2_CLK_DISABLE();
 263              		.loc 1 121 0
 264 0012 0A4B     		ldr	r3, .L14+4
 265 0014 9B6D     		ldr	r3, [r3, #88]
 266 0016 094A     		ldr	r2, .L14+4
 267 0018 23F48043 		bic	r3, r3, #16384
 268 001c 9365     		str	r3, [r2, #88]
 122:E:/LiteOS/LiteOS_Lab/targets/STM32L431_BearPi/Src\spi.c ****   
 123:E:/LiteOS/LiteOS_Lab/targets/STM32L431_BearPi/Src\spi.c ****     /**SPI2 GPIO Configuration    
 124:E:/LiteOS/LiteOS_Lab/targets/STM32L431_BearPi/Src\spi.c ****     PC3     ------> SPI2_MOSI
 125:E:/LiteOS/LiteOS_Lab/targets/STM32L431_BearPi/Src\spi.c ****     PB13     ------> SPI2_SCK 
 126:E:/LiteOS/LiteOS_Lab/targets/STM32L431_BearPi/Src\spi.c ****     */
 127:E:/LiteOS/LiteOS_Lab/targets/STM32L431_BearPi/Src\spi.c ****     HAL_GPIO_DeInit(GPIOC, GPIO_PIN_3);
 269              		.loc 1 127 0
 270 001e 0821     		movs	r1, #8
 271 0020 0748     		ldr	r0, .L14+8
 272 0022 FFF7FEFF 		bl	HAL_GPIO_DeInit
ARM GAS  C:\Users\user\AppData\Local\Temp\ccpi07GF.s 			page 8


 128:E:/LiteOS/LiteOS_Lab/targets/STM32L431_BearPi/Src\spi.c **** 
 129:E:/LiteOS/LiteOS_Lab/targets/STM32L431_BearPi/Src\spi.c ****     HAL_GPIO_DeInit(GPIOB, GPIO_PIN_13);
 273              		.loc 1 129 0
 274 0026 4FF40051 		mov	r1, #8192
 275 002a 0648     		ldr	r0, .L14+12
 276 002c FFF7FEFF 		bl	HAL_GPIO_DeInit
 277              	.L13:
 130:E:/LiteOS/LiteOS_Lab/targets/STM32L431_BearPi/Src\spi.c **** 
 131:E:/LiteOS/LiteOS_Lab/targets/STM32L431_BearPi/Src\spi.c ****   /* USER CODE BEGIN SPI2_MspDeInit 1 */
 132:E:/LiteOS/LiteOS_Lab/targets/STM32L431_BearPi/Src\spi.c **** 
 133:E:/LiteOS/LiteOS_Lab/targets/STM32L431_BearPi/Src\spi.c ****   /* USER CODE END SPI2_MspDeInit 1 */
 134:E:/LiteOS/LiteOS_Lab/targets/STM32L431_BearPi/Src\spi.c ****   }
 135:E:/LiteOS/LiteOS_Lab/targets/STM32L431_BearPi/Src\spi.c **** } 
 278              		.loc 1 135 0
 279 0030 00BF     		nop
 280 0032 0837     		adds	r7, r7, #8
 281              	.LCFI10:
 282              		.cfi_def_cfa_offset 8
 283 0034 BD46     		mov	sp, r7
 284              	.LCFI11:
 285              		.cfi_def_cfa_register 13
 286              		@ sp needed
 287 0036 80BD     		pop	{r7, pc}
 288              	.L15:
 289              		.align	2
 290              	.L14:
 291 0038 00380040 		.word	1073756160
 292 003c 00100240 		.word	1073876992
 293 0040 00080048 		.word	1207961600
 294 0044 00040048 		.word	1207960576
 295              		.cfi_endproc
 296              	.LFE135:
 298              		.section	.text.SPI2_ReadWriteByte,"ax",%progbits
 299              		.align	1
 300              		.global	SPI2_ReadWriteByte
 301              		.syntax unified
 302              		.thumb
 303              		.thumb_func
 304              		.fpu fpv4-sp-d16
 306              	SPI2_ReadWriteByte:
 307              	.LFB136:
 136:E:/LiteOS/LiteOS_Lab/targets/STM32L431_BearPi/Src\spi.c **** 
 137:E:/LiteOS/LiteOS_Lab/targets/STM32L431_BearPi/Src\spi.c **** /* USER CODE BEGIN 1 */
 138:E:/LiteOS/LiteOS_Lab/targets/STM32L431_BearPi/Src\spi.c **** /**
 139:E:/LiteOS/LiteOS_Lab/targets/STM32L431_BearPi/Src\spi.c ****  * @brief	SPI2 读写一个字节
 140:E:/LiteOS/LiteOS_Lab/targets/STM32L431_BearPi/Src\spi.c ****  *
 141:E:/LiteOS/LiteOS_Lab/targets/STM32L431_BearPi/Src\spi.c ****  * @param   TxData	要写入的字节
 142:E:/LiteOS/LiteOS_Lab/targets/STM32L431_BearPi/Src\spi.c ****  *
 143:E:/LiteOS/LiteOS_Lab/targets/STM32L431_BearPi/Src\spi.c ****  * @return  uint8_t		读取到的字节
 144:E:/LiteOS/LiteOS_Lab/targets/STM32L431_BearPi/Src\spi.c ****  */
 145:E:/LiteOS/LiteOS_Lab/targets/STM32L431_BearPi/Src\spi.c **** uint8_t SPI2_ReadWriteByte(uint8_t TxData)
 146:E:/LiteOS/LiteOS_Lab/targets/STM32L431_BearPi/Src\spi.c **** {
 308              		.loc 1 146 0
 309              		.cfi_startproc
 310              		@ args = 0, pretend = 0, frame = 16
 311              		@ frame_needed = 1, uses_anonymous_args = 0
 312 0000 80B5     		push	{r7, lr}
ARM GAS  C:\Users\user\AppData\Local\Temp\ccpi07GF.s 			page 9


 313              	.LCFI12:
 314              		.cfi_def_cfa_offset 8
 315              		.cfi_offset 7, -8
 316              		.cfi_offset 14, -4
 317 0002 86B0     		sub	sp, sp, #24
 318              	.LCFI13:
 319              		.cfi_def_cfa_offset 32
 320 0004 02AF     		add	r7, sp, #8
 321              	.LCFI14:
 322              		.cfi_def_cfa 7, 24
 323 0006 0346     		mov	r3, r0
 324 0008 FB71     		strb	r3, [r7, #7]
 147:E:/LiteOS/LiteOS_Lab/targets/STM32L431_BearPi/Src\spi.c ****     uint8_t Rxdata;
 148:E:/LiteOS/LiteOS_Lab/targets/STM32L431_BearPi/Src\spi.c ****     HAL_SPI_TransmitReceive(&hspi2,&TxData,&Rxdata,1, 1000);       
 325              		.loc 1 148 0
 326 000a 07F10F02 		add	r2, r7, #15
 327 000e F91D     		adds	r1, r7, #7
 328 0010 4FF47A73 		mov	r3, #1000
 329 0014 0093     		str	r3, [sp]
 330 0016 0123     		movs	r3, #1
 331 0018 0348     		ldr	r0, .L18
 332 001a FFF7FEFF 		bl	HAL_SPI_TransmitReceive
 149:E:/LiteOS/LiteOS_Lab/targets/STM32L431_BearPi/Src\spi.c ****  	return Rxdata;          		    //返回收到的数据		
 333              		.loc 1 149 0
 334 001e FB7B     		ldrb	r3, [r7, #15]	@ zero_extendqisi2
 150:E:/LiteOS/LiteOS_Lab/targets/STM32L431_BearPi/Src\spi.c **** }
 335              		.loc 1 150 0
 336 0020 1846     		mov	r0, r3
 337 0022 1037     		adds	r7, r7, #16
 338              	.LCFI15:
 339              		.cfi_def_cfa_offset 8
 340 0024 BD46     		mov	sp, r7
 341              	.LCFI16:
 342              		.cfi_def_cfa_register 13
 343              		@ sp needed
 344 0026 80BD     		pop	{r7, pc}
 345              	.L19:
 346              		.align	2
 347              	.L18:
 348 0028 00000000 		.word	hspi2
 349              		.cfi_endproc
 350              	.LFE136:
 352              		.section	.text.SPI2_WriteByte,"ax",%progbits
 353              		.align	1
 354              		.global	SPI2_WriteByte
 355              		.syntax unified
 356              		.thumb
 357              		.thumb_func
 358              		.fpu fpv4-sp-d16
 360              	SPI2_WriteByte:
 361              	.LFB137:
 151:E:/LiteOS/LiteOS_Lab/targets/STM32L431_BearPi/Src\spi.c **** 
 152:E:/LiteOS/LiteOS_Lab/targets/STM32L431_BearPi/Src\spi.c **** /**
 153:E:/LiteOS/LiteOS_Lab/targets/STM32L431_BearPi/Src\spi.c ****  * @brief	SPI2 写入一个字节
 154:E:/LiteOS/LiteOS_Lab/targets/STM32L431_BearPi/Src\spi.c ****  *
 155:E:/LiteOS/LiteOS_Lab/targets/STM32L431_BearPi/Src\spi.c ****  * @param   TxData	要写入的字节
 156:E:/LiteOS/LiteOS_Lab/targets/STM32L431_BearPi/Src\spi.c ****  * @param   size	写入字节大小
ARM GAS  C:\Users\user\AppData\Local\Temp\ccpi07GF.s 			page 10


 157:E:/LiteOS/LiteOS_Lab/targets/STM32L431_BearPi/Src\spi.c ****  *
 158:E:/LiteOS/LiteOS_Lab/targets/STM32L431_BearPi/Src\spi.c ****  * @return  uint8_t		0:写入成功,其他:写入失败
 159:E:/LiteOS/LiteOS_Lab/targets/STM32L431_BearPi/Src\spi.c ****  */
 160:E:/LiteOS/LiteOS_Lab/targets/STM32L431_BearPi/Src\spi.c **** uint8_t SPI2_WriteByte(uint8_t *TxData,uint16_t size)
 161:E:/LiteOS/LiteOS_Lab/targets/STM32L431_BearPi/Src\spi.c **** {
 362              		.loc 1 161 0
 363              		.cfi_startproc
 364              		@ args = 0, pretend = 0, frame = 8
 365              		@ frame_needed = 1, uses_anonymous_args = 0
 366 0000 80B5     		push	{r7, lr}
 367              	.LCFI17:
 368              		.cfi_def_cfa_offset 8
 369              		.cfi_offset 7, -8
 370              		.cfi_offset 14, -4
 371 0002 82B0     		sub	sp, sp, #8
 372              	.LCFI18:
 373              		.cfi_def_cfa_offset 16
 374 0004 00AF     		add	r7, sp, #0
 375              	.LCFI19:
 376              		.cfi_def_cfa_register 7
 377 0006 7860     		str	r0, [r7, #4]
 378 0008 0B46     		mov	r3, r1
 379 000a 7B80     		strh	r3, [r7, #2]	@ movhi
 162:E:/LiteOS/LiteOS_Lab/targets/STM32L431_BearPi/Src\spi.c **** 	return HAL_SPI_Transmit(&hspi2,TxData,size,1000);
 380              		.loc 1 162 0
 381 000c 7A88     		ldrh	r2, [r7, #2]
 382 000e 4FF47A73 		mov	r3, #1000
 383 0012 7968     		ldr	r1, [r7, #4]
 384 0014 0348     		ldr	r0, .L22
 385 0016 FFF7FEFF 		bl	HAL_SPI_Transmit
 386 001a 0346     		mov	r3, r0
 163:E:/LiteOS/LiteOS_Lab/targets/STM32L431_BearPi/Src\spi.c **** }
 387              		.loc 1 163 0
 388 001c 1846     		mov	r0, r3
 389 001e 0837     		adds	r7, r7, #8
 390              	.LCFI20:
 391              		.cfi_def_cfa_offset 8
 392 0020 BD46     		mov	sp, r7
 393              	.LCFI21:
 394              		.cfi_def_cfa_register 13
 395              		@ sp needed
 396 0022 80BD     		pop	{r7, pc}
 397              	.L23:
 398              		.align	2
 399              	.L22:
 400 0024 00000000 		.word	hspi2
 401              		.cfi_endproc
 402              	.LFE137:
 404              		.text
 405              	.Letext0:
 406              		.file 2 "e:\\ac6\\systemworkbench\\plugins\\fr.ac6.mcu.externaltools.arm-none.win32_1.16.0.2018071
 407              		.file 3 "e:\\ac6\\systemworkbench\\plugins\\fr.ac6.mcu.externaltools.arm-none.win32_1.16.0.2018071
 408              		.file 4 "e:\\ac6\\systemworkbench\\plugins\\fr.ac6.mcu.externaltools.arm-none.win32_1.16.0.2018071
 409              		.file 5 "e:\\ac6\\systemworkbench\\plugins\\fr.ac6.mcu.externaltools.arm-none.win32_1.16.0.2018071
 410              		.file 6 "e:\\ac6\\systemworkbench\\plugins\\fr.ac6.mcu.externaltools.arm-none.win32_1.16.0.2018071
 411              		.file 7 "E:/LiteOS/LiteOS_Lab/iot_link/os/os_imp/liteos/include/los_typedef.h"
 412              		.file 8 "e:\\ac6\\systemworkbench\\plugins\\fr.ac6.mcu.externaltools.arm-none.win32_1.16.0.2018071
ARM GAS  C:\Users\user\AppData\Local\Temp\ccpi07GF.s 			page 11


 413              		.file 9 "E:/LiteOS/LiteOS_Lab/iot_link/os/os_imp/liteos/arch/arm/common/cmsis/core_cm4.h"
 414              		.file 10 "E:/LiteOS/LiteOS_Lab/targets/STM32L431_BearPi/Inc/system_stm32l4xx.h"
 415              		.file 11 "E:/LiteOS/LiteOS_Lab/targets/STM32L431_BearPi/Inc/stm32l431xx.h"
 416              		.file 12 "E:/LiteOS/LiteOS_Lab/iot_link/os/os_imp/liteos/include/los_config.h"
 417              		.file 13 "E:/LiteOS/LiteOS_Lab/iot_link/os/os_imp/liteos/include/los_list.h"
 418              		.file 14 "E:/LiteOS/LiteOS_Lab/iot_link/os/os_imp/liteos/include/los_err.h"
 419              		.file 15 "E:/LiteOS/LiteOS_Lab/iot_link/os/os_imp/liteos/arch/arm/arm-m/include/los_hwi.h"
 420              		.file 16 "E:/LiteOS/LiteOS_Lab/iot_link/os/os_imp/liteos/include/los_tick.h"
 421              		.file 17 "E:/LiteOS/LiteOS_Lab/iot_link/os/os_imp/liteos/include/los_event.h"
 422              		.file 18 "E:/LiteOS/LiteOS_Lab/iot_link/os/os_imp/liteos/include/los_task.h"
 423              		.file 19 "E:/LiteOS/LiteOS_Lab/iot_link/os/os_imp/liteos/base/include/los_task.ph"
 424              		.file 20 "E:/LiteOS/LiteOS_Lab/targets/STM32L431_BearPi/Inc/main.h"
 425              		.file 21 "E:/LiteOS/LiteOS_Lab/drivers/third_party/ST/STM32L4xx_HAL_Driver/Inc/stm32l4xx_hal_def.h
 426              		.file 22 "E:/LiteOS/LiteOS_Lab/drivers/third_party/ST/STM32L4xx_HAL_Driver/Inc/stm32l4xx_hal_gpio.
 427              		.file 23 "E:/LiteOS/LiteOS_Lab/drivers/third_party/ST/STM32L4xx_HAL_Driver/Inc/stm32l4xx_hal_dma.h
 428              		.file 24 "E:/LiteOS/LiteOS_Lab/drivers/third_party/ST/STM32L4xx_HAL_Driver/Inc/stm32l4xx_hal_spi.h
 429              		.file 25 "E:/LiteOS/LiteOS_Lab/targets/STM32L431_BearPi/Inc/spi.h"
ARM GAS  C:\Users\user\AppData\Local\Temp\ccpi07GF.s 			page 12

